
build/stribog.elf:     file format elf32-littlearm


Disassembly of section .text:

080001c0 <main>:
 80001c0:	4bc5      	ldr	r3, [pc, #788]	; (80004d8 <__init_array_end+0x318>)
 80001c2:	48c6      	ldr	r0, [pc, #792]	; (80004dc <__init_array_end+0x31c>)
 80001c4:	691a      	ldr	r2, [r3, #16]
 80001c6:	f04f 31ff 	mov.w	r1, #4294967295	; 0xffffffff
 80001ca:	2200      	movs	r2, #0
 80001cc:	e92d 4880 	stmdb	sp!, {r7, fp, lr}
 80001d0:	6119      	str	r1, [r3, #16]
 80001d2:	611a      	str	r2, [r3, #16]
 80001d4:	695c      	ldr	r4, [r3, #20]
 80001d6:	6159      	str	r1, [r3, #20]
 80001d8:	615a      	str	r2, [r3, #20]
 80001da:	6a1c      	ldr	r4, [r3, #32]
 80001dc:	f064 5480 	orn	r4, r4, #268435456	; 0x10000000
 80001e0:	621c      	str	r4, [r3, #32]
 80001e2:	621a      	str	r2, [r3, #32]
 80001e4:	6a5c      	ldr	r4, [r3, #36]	; 0x24
 80001e6:	6259      	str	r1, [r3, #36]	; 0x24
 80001e8:	625a      	str	r2, [r3, #36]	; 0x24
 80001ea:	6c19      	ldr	r1, [r3, #64]	; 0x40
 80001ec:	f041 5180 	orr.w	r1, r1, #268435456	; 0x10000000
 80001f0:	6419      	str	r1, [r3, #64]	; 0x40
 80001f2:	6801      	ldr	r1, [r0, #0]
 80001f4:	f441 7180 	orr.w	r1, r1, #256	; 0x100
 80001f8:	6001      	str	r1, [r0, #0]
 80001fa:	6f19      	ldr	r1, [r3, #112]	; 0x70
 80001fc:	f401 7140 	and.w	r1, r1, #768	; 0x300
 8000200:	f5b1 7f00 	cmp.w	r1, #512	; 0x200
 8000204:	f5ad 7d35 	sub.w	sp, sp, #724	; 0x2d4
 8000208:	d003      	beq.n	8000212 <main+0x52>
 800020a:	f44f 3180 	mov.w	r1, #65536	; 0x10000
 800020e:	6719      	str	r1, [r3, #112]	; 0x70
 8000210:	671a      	str	r2, [r3, #112]	; 0x70
 8000212:	49b2      	ldr	r1, [pc, #712]	; (80004dc <__init_array_end+0x31c>)
 8000214:	48b2      	ldr	r0, [pc, #712]	; (80004e0 <__init_array_end+0x320>)
 8000216:	684c      	ldr	r4, [r1, #4]
 8000218:	4eb2      	ldr	r6, [pc, #712]	; (80004e4 <__init_array_end+0x324>)
 800021a:	4db3      	ldr	r5, [pc, #716]	; (80004e8 <__init_array_end+0x328>)
 800021c:	2200      	movs	r2, #0
 800021e:	f424 7400 	bic.w	r4, r4, #512	; 0x200
 8000222:	604c      	str	r4, [r1, #4]
 8000224:	4613      	mov	r3, r2
 8000226:	9206      	str	r2, [sp, #24]
 8000228:	6002      	str	r2, [r0, #0]
 800022a:	4611      	mov	r1, r2
 800022c:	5870      	ldr	r0, [r6, r1]
 800022e:	f8df 82b4 	ldr.w	r8, [pc, #692]	; 80004e4 <__init_array_end+0x324>
 8000232:	6002      	str	r2, [r0, #0]
 8000234:	310c      	adds	r1, #12
 8000236:	29c0      	cmp	r1, #192	; 0xc0
 8000238:	50ea      	str	r2, [r5, r3]
 800023a:	f04f 0400 	mov.w	r4, #0
 800023e:	f103 0308 	add.w	r3, r3, #8
 8000242:	d1f3      	bne.n	800022c <main+0x6c>
 8000244:	f8df b2f4 	ldr.w	fp, [pc, #756]	; 800053c <__init_array_end+0x37c>
 8000248:	4fa8      	ldr	r7, [pc, #672]	; (80004ec <__init_array_end+0x32c>)
 800024a:	f8df 928c 	ldr.w	r9, [pc, #652]	; 80004d8 <__init_array_end+0x318>
 800024e:	9106      	str	r1, [sp, #24]
 8000250:	f04f 36ff 	mov.w	r6, #4294967295	; 0xffffffff
 8000254:	f8cb 6008 	str.w	r6, [fp, #8]
 8000258:	f8cb 600c 	str.w	r6, [fp, #12]
 800025c:	60be      	str	r6, [r7, #8]
 800025e:	60fe      	str	r6, [r7, #12]
 8000260:	f8d9 7030 	ldr.w	r7, [r9, #48]	; 0x30
 8000264:	f8df a2d8 	ldr.w	sl, [pc, #728]	; 8000540 <__init_array_end+0x380>
 8000268:	4aa1      	ldr	r2, [pc, #644]	; (80004f0 <__init_array_end+0x330>)
 800026a:	f8df c2d8 	ldr.w	ip, [pc, #728]	; 8000544 <__init_array_end+0x384>
 800026e:	f8df e2d8 	ldr.w	lr, [pc, #728]	; 8000548 <__init_array_end+0x388>
 8000272:	48a0      	ldr	r0, [pc, #640]	; (80004f4 <__init_array_end+0x334>)
 8000274:	4da0      	ldr	r5, [pc, #640]	; (80004f8 <__init_array_end+0x338>)
 8000276:	4ba1      	ldr	r3, [pc, #644]	; (80004fc <__init_array_end+0x33c>)
 8000278:	49a1      	ldr	r1, [pc, #644]	; (8000500 <__init_array_end+0x340>)
 800027a:	f047 071f 	orr.w	r7, r7, #31
 800027e:	f8c9 7030 	str.w	r7, [r9, #48]	; 0x30
 8000282:	f8d9 b050 	ldr.w	fp, [r9, #80]	; 0x50
 8000286:	f04b 0b1f 	orr.w	fp, fp, #31
 800028a:	f8c9 b050 	str.w	fp, [r9, #80]	; 0x50
 800028e:	f44f 7b80 	mov.w	fp, #256	; 0x100
 8000292:	f8ca b004 	str.w	fp, [sl, #4]
 8000296:	f46f 6b8a 	mvn.w	fp, #1104	; 0x450
 800029a:	f8ca b008 	str.w	fp, [sl, #8]
 800029e:	f64f 77ff 	movw	r7, #65535	; 0xffff
 80002a2:	f44f 4bee 	mov.w	fp, #30464	; 0x7700
 80002a6:	f8ca 200c 	str.w	r2, [sl, #12]
 80002aa:	f8ca 7014 	str.w	r7, [sl, #20]
 80002ae:	f8ca b020 	str.w	fp, [sl, #32]
 80002b2:	f8df b298 	ldr.w	fp, [pc, #664]	; 800054c <__init_array_end+0x38c>
 80002b6:	f8ca b024 	str.w	fp, [sl, #36]	; 0x24
 80002ba:	f8df b294 	ldr.w	fp, [pc, #660]	; 8000550 <__init_array_end+0x390>
 80002be:	f8ca b000 	str.w	fp, [sl]
 80002c2:	f44f 7a40 	mov.w	sl, #768	; 0x300
 80002c6:	f8cc a004 	str.w	sl, [ip, #4]
 80002ca:	f46f 2a75 	mvn.w	sl, #1003520	; 0xf5000
 80002ce:	f8cc a008 	str.w	sl, [ip, #8]
 80002d2:	f8df a280 	ldr.w	sl, [pc, #640]	; 8000554 <__init_array_end+0x394>
 80002d6:	f8cc a00c 	str.w	sl, [ip, #12]
 80002da:	f64f 4aff 	movw	sl, #64767	; 0xfcff
 80002de:	f8cc a014 	str.w	sl, [ip, #20]
 80002e2:	f04f 4aee 	mov.w	sl, #1996488704	; 0x77000000
 80002e6:	f8cc a020 	str.w	sl, [ip, #32]
 80002ea:	f8df a26c 	ldr.w	sl, [pc, #620]	; 8000558 <__init_array_end+0x398>
 80002ee:	f8cc a024 	str.w	sl, [ip, #36]	; 0x24
 80002f2:	f8df a268 	ldr.w	sl, [pc, #616]	; 800055c <__init_array_end+0x39c>
 80002f6:	f8cc a000 	str.w	sl, [ip]
 80002fa:	f44f 7c00 	mov.w	ip, #512	; 0x200
 80002fe:	f8ce c004 	str.w	ip, [lr, #4]
 8000302:	f46f 2c8a 	mvn.w	ip, #282624	; 0x45000
 8000306:	f8ce c008 	str.w	ip, [lr, #8]
 800030a:	f8df c254 	ldr.w	ip, [pc, #596]	; 8000560 <__init_array_end+0x3a0>
 800030e:	f8ce c00c 	str.w	ip, [lr, #12]
 8000312:	f04f 4c08 	mov.w	ip, #2281701376	; 0x88000000
 8000316:	f8ce 7014 	str.w	r7, [lr, #20]
 800031a:	f8ce c020 	str.w	ip, [lr, #32]
 800031e:	f8df c244 	ldr.w	ip, [pc, #580]	; 8000564 <__init_array_end+0x3a4>
 8000322:	f8ce c024 	str.w	ip, [lr, #36]	; 0x24
 8000326:	f8df c240 	ldr.w	ip, [pc, #576]	; 8000568 <__init_array_end+0x3a8>
 800032a:	f8ce c000 	str.w	ip, [lr]
 800032e:	f04f 3e55 	mov.w	lr, #1431655765	; 0x55555555
 8000332:	4a74      	ldr	r2, [pc, #464]	; (8000504 <__init_array_end+0x344>)
 8000334:	6044      	str	r4, [r0, #4]
 8000336:	6086      	str	r6, [r0, #8]
 8000338:	f8c0 e00c 	str.w	lr, [r0, #12]
 800033c:	f8df e22c 	ldr.w	lr, [pc, #556]	; 800056c <__init_array_end+0x3ac>
 8000340:	6147      	str	r7, [r0, #20]
 8000342:	f04f 0c45 	mov.w	ip, #69	; 0x45
 8000346:	6204      	str	r4, [r0, #32]
 8000348:	6244      	str	r4, [r0, #36]	; 0x24
 800034a:	606c      	str	r4, [r5, #4]
 800034c:	6004      	str	r4, [r0, #0]
 800034e:	f108 0090 	add.w	r0, r8, #144	; 0x90
 8000352:	6054      	str	r4, [r2, #4]
 8000354:	60ac      	str	r4, [r5, #8]
 8000356:	6096      	str	r6, [r2, #8]
 8000358:	60ec      	str	r4, [r5, #12]
 800035a:	f8c2 c00c 	str.w	ip, [r2, #12]
 800035e:	6157      	str	r7, [r2, #20]
 8000360:	612c      	str	r4, [r5, #16]
 8000362:	6214      	str	r4, [r2, #32]
 8000364:	616c      	str	r4, [r5, #20]
 8000366:	6254      	str	r4, [r2, #36]	; 0x24
 8000368:	622c      	str	r4, [r5, #32]
 800036a:	6014      	str	r4, [r2, #0]
 800036c:	f8c2 4c04 	str.w	r4, [r2, #3076]	; 0xc04
 8000370:	f8c5 e028 	str.w	lr, [r5, #40]	; 0x28
 8000374:	f8c2 6c08 	str.w	r6, [r2, #3080]	; 0xc08
 8000378:	f50e 4e7c 	add.w	lr, lr, #64512	; 0xfc00
 800037c:	62e8      	str	r0, [r5, #44]	; 0x2c
 800037e:	4862      	ldr	r0, [pc, #392]	; (8000508 <__init_array_end+0x348>)
 8000380:	f8c2 4c0c 	str.w	r4, [r2, #3084]	; 0xc0c
 8000384:	f8df c1e8 	ldr.w	ip, [pc, #488]	; 8000570 <__init_array_end+0x3b0>
 8000388:	f8c5 c030 	str.w	ip, [r5, #48]	; 0x30
 800038c:	f105 0218 	add.w	r2, r5, #24
 8000390:	f8ce 7014 	str.w	r7, [lr, #20]
 8000394:	6204      	str	r4, [r0, #32]
 8000396:	4f5d      	ldr	r7, [pc, #372]	; (800050c <__init_array_end+0x34c>)
 8000398:	61ea      	str	r2, [r5, #28]
 800039a:	6244      	str	r4, [r0, #36]	; 0x24
 800039c:	61aa      	str	r2, [r5, #24]
 800039e:	4a5c      	ldr	r2, [pc, #368]	; (8000510 <__init_array_end+0x350>)
 80003a0:	6004      	str	r4, [r0, #0]
 80003a2:	f04f 0b01 	mov.w	fp, #1
 80003a6:	f44f 2080 	mov.w	r0, #262144	; 0x40000
 80003aa:	f04f 0a60 	mov.w	sl, #96	; 0x60
 80003ae:	604c      	str	r4, [r1, #4]
 80003b0:	f108 0c3c 	add.w	ip, r8, #60	; 0x3c
 80003b4:	f885 b000 	strb.w	fp, [r5]
 80003b8:	f101 0e0c 	add.w	lr, r1, #12
 80003bc:	f887 a312 	strb.w	sl, [r7, #786]	; 0x312
 80003c0:	f8c7 0180 	str.w	r0, [r7, #384]	; 0x180
 80003c4:	f108 0a48 	add.w	sl, r8, #72	; 0x48
 80003c8:	6038      	str	r0, [r7, #0]
 80003ca:	f881 b000 	strb.w	fp, [r1]
 80003ce:	f103 070c 	add.w	r7, r3, #12
 80003d2:	634a      	str	r2, [r1, #52]	; 0x34
 80003d4:	f502 6200 	add.w	r2, r2, #2048	; 0x800
 80003d8:	f8c1 c02c 	str.w	ip, [r1, #44]	; 0x2c
 80003dc:	f8c1 e010 	str.w	lr, [r1, #16]
 80003e0:	f8c1 e00c 	str.w	lr, [r1, #12]
 80003e4:	614c      	str	r4, [r1, #20]
 80003e6:	f108 0e18 	add.w	lr, r8, #24
 80003ea:	61cc      	str	r4, [r1, #28]
 80003ec:	f8c1 a030 	str.w	sl, [r1, #48]	; 0x30
 80003f0:	615c      	str	r4, [r3, #20]
 80003f2:	635a      	str	r2, [r3, #52]	; 0x34
 80003f4:	611f      	str	r7, [r3, #16]
 80003f6:	f108 0230 	add.w	r2, r8, #48	; 0x30
 80003fa:	60df      	str	r7, [r3, #12]
 80003fc:	4845      	ldr	r0, [pc, #276]	; (8000514 <__init_array_end+0x354>)
 80003fe:	4946      	ldr	r1, [pc, #280]	; (8000518 <__init_array_end+0x358>)
 8000400:	4f44      	ldr	r7, [pc, #272]	; (8000514 <__init_array_end+0x354>)
 8000402:	f8c3 e02c 	str.w	lr, [r3, #44]	; 0x2c
 8000406:	631a      	str	r2, [r3, #48]	; 0x30
 8000408:	f883 b000 	strb.w	fp, [r3]
 800040c:	605c      	str	r4, [r3, #4]
 800040e:	61dc      	str	r4, [r3, #28]
 8000410:	f001 fd0e 	bl	8001e30 <sdObjectInit.constprop.27>
 8000414:	4b41      	ldr	r3, [pc, #260]	; (800051c <__init_array_end+0x35c>)
 8000416:	4942      	ldr	r1, [pc, #264]	; (8000520 <__init_array_end+0x360>)
 8000418:	4842      	ldr	r0, [pc, #264]	; (8000524 <__init_array_end+0x364>)
 800041a:	f8c7 3454 	str.w	r3, [r7, #1108]	; 0x454
 800041e:	f001 fd07 	bl	8001e30 <sdObjectInit.constprop.27>
 8000422:	f8d9 0040 	ldr.w	r0, [r9, #64]	; 0x40
 8000426:	4a40      	ldr	r2, [pc, #256]	; (8000528 <__init_array_end+0x368>)
 8000428:	4b40      	ldr	r3, [pc, #256]	; (800052c <__init_array_end+0x36c>)
 800042a:	f8df a148 	ldr.w	sl, [pc, #328]	; 8000574 <__init_array_end+0x3b4>
 800042e:	8016      	strh	r6, [r2, #0]
 8000430:	ea40 000b 	orr.w	r0, r0, fp
 8000434:	f04f 4280 	mov.w	r2, #1073741824	; 0x40000000
 8000438:	f883 b000 	strb.w	fp, [r3]
 800043c:	f88a b000 	strb.w	fp, [sl]
 8000440:	f88a 4001 	strb.w	r4, [sl, #1]
 8000444:	f88a 4002 	strb.w	r4, [sl, #2]
 8000448:	605c      	str	r4, [r3, #4]
 800044a:	609c      	str	r4, [r3, #8]
 800044c:	615c      	str	r4, [r3, #20]
 800044e:	f8c3 8020 	str.w	r8, [r3, #32]
 8000452:	f8ca 4004 	str.w	r4, [sl, #4]
 8000456:	f242 01cf 	movw	r1, #8399	; 0x20cf
 800045a:	f8c9 0040 	str.w	r0, [r9, #64]	; 0x40
 800045e:	4831      	ldr	r0, [pc, #196]	; (8000524 <__init_array_end+0x364>)
 8000460:	6291      	str	r1, [r2, #40]	; 0x28
 8000462:	f8df e114 	ldr.w	lr, [pc, #276]	; 8000578 <__init_array_end+0x3b8>
 8000466:	4932      	ldr	r1, [pc, #200]	; (8000530 <__init_array_end+0x370>)
 8000468:	62d6      	str	r6, [r2, #44]	; 0x2c
 800046a:	f8c0 e454 	str.w	lr, [r0, #1108]	; 0x454
 800046e:	6194      	str	r4, [r2, #24]
 8000470:	61d9      	str	r1, [r3, #28]
 8000472:	4930      	ldr	r1, [pc, #192]	; (8000534 <__init_array_end+0x374>)
 8000474:	6354      	str	r4, [r2, #52]	; 0x34
 8000476:	f108 0054 	add.w	r0, r8, #84	; 0x54
 800047a:	6258      	str	r0, [r3, #36]	; 0x24
 800047c:	60d4      	str	r4, [r2, #12]
 800047e:	6299      	str	r1, [r3, #40]	; 0x28
 8000480:	f101 4180 	add.w	r1, r1, #1073741824	; 0x40000000
 8000484:	482c      	ldr	r0, [pc, #176]	; (8000538 <__init_array_end+0x378>)
 8000486:	6054      	str	r4, [r2, #4]
 8000488:	f601 71ea 	addw	r1, r1, #4074	; 0xfea
 800048c:	62d8      	str	r0, [r3, #44]	; 0x2c
 800048e:	f8c2 b014 	str.w	fp, [r2, #20]
 8000492:	f8ca 1008 	str.w	r1, [sl, #8]
 8000496:	f8c2 b000 	str.w	fp, [r2]
 800049a:	4a1c      	ldr	r2, [pc, #112]	; (800050c <__init_array_end+0x34c>)
 800049c:	f8df c0dc 	ldr.w	ip, [pc, #220]	; 800057c <__init_array_end+0x3bc>
 80004a0:	f103 0e0c 	add.w	lr, r3, #12
 80004a4:	2780      	movs	r7, #128	; 0x80
 80004a6:	f882 731c 	strb.w	r7, [r2, #796]	; 0x31c
 80004aa:	f8c3 e010 	str.w	lr, [r3, #16]
 80004ae:	f8c3 e00c 	str.w	lr, [r3, #12]
 80004b2:	4b16      	ldr	r3, [pc, #88]	; (800050c <__init_array_end+0x34c>)
 80004b4:	f8df e0c8 	ldr.w	lr, [pc, #200]	; 8000580 <__init_array_end+0x3c0>
 80004b8:	f108 019c 	add.w	r1, r8, #156	; 0x9c
 80004bc:	f04f 5280 	mov.w	r2, #268435456	; 0x10000000
 80004c0:	2006      	movs	r0, #6
 80004c2:	f108 08b4 	add.w	r8, r8, #180	; 0xb4
 80004c6:	f8ca 000c 	str.w	r0, [sl, #12]
 80004ca:	f8ca 1010 	str.w	r1, [sl, #16]
 80004ce:	f8ca 8014 	str.w	r8, [sl, #20]
 80004d2:	f8c3 2180 	str.w	r2, [r3, #384]	; 0x180
 80004d6:	e055      	b.n	8000584 <__init_array_end+0x3c4>
 80004d8:	40023800 	.word	0x40023800
 80004dc:	40007000 	.word	0x40007000
 80004e0:	20000838 	.word	0x20000838
 80004e4:	08004820 	.word	0x08004820
 80004e8:	200009e0 	.word	0x200009e0
 80004ec:	40026400 	.word	0x40026400
 80004f0:	64155544 	.word	0x64155544
 80004f4:	40020c00 	.word	0x40020c00
 80004f8:	200029c4 	.word	0x200029c4
 80004fc:	20002e98 	.word	0x20002e98
 8000500:	20002e60 	.word	0x20002e60
 8000504:	40021000 	.word	0x40021000
 8000508:	40021c00 	.word	0x40021c00
 800050c:	e000e100 	.word	0xe000e100
 8000510:	40005400 	.word	0x40005400
 8000514:	200029f8 	.word	0x200029f8
 8000518:	08001751 	.word	0x08001751
 800051c:	40004400 	.word	0x40004400
 8000520:	08001741 	.word	0x08001741
 8000524:	20002568 	.word	0x20002568
 8000528:	20000840 	.word	0x20000840
 800052c:	20000844 	.word	0x20000844
 8000530:	40003c00 	.word	0x40003c00
 8000534:	00010016 	.word	0x00010016
 8000538:	00010046 	.word	0x00010046
 800053c:	40026000 	.word	0x40026000
 8000540:	40020000 	.word	0x40020000
 8000544:	40020400 	.word	0x40020400
 8000548:	40020800 	.word	0x40020800
 800054c:	000aa004 	.word	0x000aa004
 8000550:	6a8200a3 	.word	0x6a8200a3
 8000554:	55555525 	.word	0x55555525
 8000558:	55500044 	.word	0x55500044
 800055c:	a80aa545 	.word	0xa80aa545
 8000560:	51515550 	.word	0x51515550
 8000564:	00066640 	.word	0x00066640
 8000568:	02a8a00f 	.word	0x02a8a00f
 800056c:	40012000 	.word	0x40012000
 8000570:	00022c16 	.word	0x00022c16
 8000574:	200010b8 	.word	0x200010b8
 8000578:	40011400 	.word	0x40011400
 800057c:	e000ed00 	.word	0xe000ed00
 8000580:	e000edf0 	.word	0xe000edf0
 8000584:	601a      	str	r2, [r3, #0]
 8000586:	f8cc 4008 	str.w	r4, [ip, #8]
 800058a:	f8dc 800c 	ldr.w	r8, [ip, #12]
 800058e:	4ac0      	ldr	r2, [pc, #768]	; (8000890 <__init_array_end+0x6d0>)
 8000590:	4bc0      	ldr	r3, [pc, #768]	; (8000894 <__init_array_end+0x6d4>)
 8000592:	48c1      	ldr	r0, [pc, #772]	; (8000898 <__init_array_end+0x6d8>)
 8000594:	f64f 01ff 	movw	r1, #63743	; 0xf8ff
 8000598:	ea08 0101 	and.w	r1, r8, r1
 800059c:	430a      	orrs	r2, r1
 800059e:	f8cc 200c 	str.w	r2, [ip, #12]
 80005a2:	f8de 200c 	ldr.w	r2, [lr, #12]
 80005a6:	605b      	str	r3, [r3, #4]
 80005a8:	f042 7280 	orr.w	r2, r2, #16777216	; 0x1000000
 80005ac:	f8ce 200c 	str.w	r2, [lr, #12]
 80005b0:	6801      	ldr	r1, [r0, #0]
 80005b2:	609c      	str	r4, [r3, #8]
 80005b4:	f10d 0888 	add.w	r8, sp, #136	; 0x88
 80005b8:	2210      	movs	r2, #16
 80005ba:	ea41 010b 	orr.w	r1, r1, fp
 80005be:	f04f 0720 	mov.w	r7, #32
 80005c2:	6001      	str	r1, [r0, #0]
 80005c4:	f88c 201f 	strb.w	r2, [ip, #31]
 80005c8:	f103 011c 	add.w	r1, r3, #28
 80005cc:	f88c 7022 	strb.w	r7, [ip, #34]	; 0x22
 80005d0:	4640      	mov	r0, r8
 80005d2:	625e      	str	r6, [r3, #36]	; 0x24
 80005d4:	601b      	str	r3, [r3, #0]
 80005d6:	f8c8 6000 	str.w	r6, [r8]
 80005da:	2700      	movs	r7, #0
 80005dc:	2600      	movs	r6, #0
 80005de:	629c      	str	r4, [r3, #40]	; 0x28
 80005e0:	631c      	str	r4, [r3, #48]	; 0x30
 80005e2:	e9c8 6704 	strd	r6, r7, [r8, #16]
 80005e6:	6219      	str	r1, [r3, #32]
 80005e8:	61d9      	str	r1, [r3, #28]
 80005ea:	615b      	str	r3, [r3, #20]
 80005ec:	611b      	str	r3, [r3, #16]
 80005ee:	f8c8 4004 	str.w	r4, [r8, #4]
 80005f2:	f8c8 4008 	str.w	r4, [r8, #8]
 80005f6:	f8c8 400c 	str.w	r4, [r8, #12]
 80005fa:	9305      	str	r3, [sp, #20]
 80005fc:	f001 fc10 	bl	8001e20 <chTMStartMeasurementX.constprop.32>
 8000600:	4640      	mov	r0, r8
 8000602:	f003 fa85 	bl	8003b10 <chTMStopMeasurementX>
 8000606:	9b05      	ldr	r3, [sp, #20]
 8000608:	48a4      	ldr	r0, [pc, #656]	; (800089c <__init_array_end+0x6dc>)
 800060a:	4aa5      	ldr	r2, [pc, #660]	; (80008a0 <__init_array_end+0x6e0>)
 800060c:	49a5      	ldr	r1, [pc, #660]	; (80008a4 <__init_array_end+0x6e4>)
 800060e:	f8d8 7008 	ldr.w	r7, [r8, #8]
 8000612:	631f      	str	r7, [r3, #48]	; 0x30
 8000614:	f020 0707 	bic.w	r7, r0, #7
 8000618:	2040      	movs	r0, #64	; 0x40
 800061a:	f101 0e10 	add.w	lr, r1, #16
 800061e:	63d0      	str	r0, [r2, #60]	; 0x3c
 8000620:	6090      	str	r0, [r2, #8]
 8000622:	4ea1      	ldr	r6, [pc, #644]	; (80008a8 <__init_array_end+0x6e8>)
 8000624:	48a1      	ldr	r0, [pc, #644]	; (80008ac <__init_array_end+0x6ec>)
 8000626:	6008      	str	r0, [r1, #0]
 8000628:	618c      	str	r4, [r1, #24]
 800062a:	f8c1 e014 	str.w	lr, [r1, #20]
 800062e:	f8c1 e010 	str.w	lr, [r1, #16]
 8000632:	608c      	str	r4, [r1, #8]
 8000634:	60cc      	str	r4, [r1, #12]
 8000636:	499e      	ldr	r1, [pc, #632]	; (80008b0 <__init_array_end+0x6f0>)
 8000638:	f8d3 c014 	ldr.w	ip, [r3, #20]
 800063c:	489d      	ldr	r0, [pc, #628]	; (80008b4 <__init_array_end+0x6f4>)
 800063e:	f8c2 c014 	str.w	ip, [r2, #20]
 8000642:	f026 0607 	bic.w	r6, r6, #7
 8000646:	600e      	str	r6, [r1, #0]
 8000648:	f102 0128 	add.w	r1, r2, #40	; 0x28
 800064c:	f102 0624 	add.w	r6, r2, #36	; 0x24
 8000650:	7754      	strb	r4, [r2, #29]
 8000652:	6394      	str	r4, [r2, #56]	; 0x38
 8000654:	6354      	str	r4, [r2, #52]	; 0x34
 8000656:	f882 b01e 	strb.w	fp, [r2, #30]
 800065a:	6194      	str	r4, [r2, #24]
 800065c:	6113      	str	r3, [r2, #16]
 800065e:	615a      	str	r2, [r3, #20]
 8000660:	6007      	str	r7, [r0, #0]
 8000662:	f8cc 2010 	str.w	r2, [ip, #16]
 8000666:	619a      	str	r2, [r3, #24]
 8000668:	f882 b01c 	strb.w	fp, [r2, #28]
 800066c:	6256      	str	r6, [r2, #36]	; 0x24
 800066e:	62d1      	str	r1, [r2, #44]	; 0x2c
 8000670:	6291      	str	r1, [r2, #40]	; 0x28
 8000672:	f384 8811 	msr	BASEPRI, r4
 8000676:	b662      	cpsie	i
 8000678:	699b      	ldr	r3, [r3, #24]
 800067a:	4a8f      	ldr	r2, [pc, #572]	; (80008b8 <__init_array_end+0x6f8>)
 800067c:	619a      	str	r2, [r3, #24]
 800067e:	f44f 71b0 	mov.w	r1, #352	; 0x160
 8000682:	465a      	mov	r2, fp
 8000684:	4b8d      	ldr	r3, [pc, #564]	; (80008bc <__init_array_end+0x6fc>)
 8000686:	9400      	str	r4, [sp, #0]
 8000688:	488d      	ldr	r0, [pc, #564]	; (80008c0 <__init_array_end+0x700>)
 800068a:	f001 fb59 	bl	8001d40 <chThdCreateStatic>
 800068e:	f44f 707a 	mov.w	r0, #1000	; 0x3e8
 8000692:	f001 fa0d 	bl	8001ab0 <chThdSleep>
 8000696:	4b8b      	ldr	r3, [pc, #556]	; (80008c4 <__init_array_end+0x704>)
 8000698:	f503 7298 	add.w	r2, r3, #304	; 0x130
 800069c:	f8c3 a000 	str.w	sl, [r3]
 80006a0:	f883 40cd 	strb.w	r4, [r3, #205]	; 0xcd
 80006a4:	f8c3 4138 	str.w	r4, [r3, #312]	; 0x138
 80006a8:	f8c3 2134 	str.w	r2, [r3, #308]	; 0x134
 80006ac:	f8c3 2130 	str.w	r2, [r3, #304]	; 0x130
 80006b0:	f04f 0e20 	mov.w	lr, #32
 80006b4:	f38e 8811 	msr	BASEPRI, lr
 80006b8:	f89a 3000 	ldrb.w	r3, [sl]
 80006bc:	4a82      	ldr	r2, [pc, #520]	; (80008c8 <__init_array_end+0x708>)
 80006be:	f8ca 2004 	str.w	r2, [sl, #4]
 80006c2:	455b      	cmp	r3, fp
 80006c4:	f000 8149 	beq.w	800095a <__init_array_end+0x79a>
 80006c8:	f8da 4008 	ldr.w	r4, [sl, #8]
 80006cc:	4e7f      	ldr	r6, [pc, #508]	; (80008cc <__init_array_end+0x70c>)
 80006ce:	2300      	movs	r3, #0
 80006d0:	4630      	mov	r0, r6
 80006d2:	f88a 3002 	strb.w	r3, [sl, #2]
 80006d6:	f88a 3001 	strb.w	r3, [sl, #1]
 80006da:	f001 fcb9 	bl	8002050 <usart_stop.12171>
 80006de:	f8da 3008 	ldr.w	r3, [sl, #8]
 80006e2:	4a7b      	ldr	r2, [pc, #492]	; (80008d0 <__init_array_end+0x710>)
 80006e4:	4293      	cmp	r3, r2
 80006e6:	f000 8192 	beq.w	8000a0e <__init_array_end+0x84e>
 80006ea:	f502 6280 	add.w	r2, r2, #1024	; 0x400
 80006ee:	4293      	cmp	r3, r2
 80006f0:	f000 818d 	beq.w	8000a0e <__init_array_end+0x84e>
 80006f4:	6872      	ldr	r2, [r6, #4]
 80006f6:	4977      	ldr	r1, [pc, #476]	; (80008d4 <__init_array_end+0x714>)
 80006f8:	6953      	ldr	r3, [r2, #20]
 80006fa:	fbb1 f3f3 	udiv	r3, r1, r3
 80006fe:	60a3      	str	r3, [r4, #8]
 8000700:	f8d2 9004 	ldr.w	r9, [r2, #4]
 8000704:	68d7      	ldr	r7, [r2, #12]
 8000706:	8b56      	ldrh	r6, [r2, #26]
 8000708:	8b90      	ldrh	r0, [r2, #28]
 800070a:	f8da 3010 	ldr.w	r3, [sl, #16]
 800070e:	8b11      	ldrh	r1, [r2, #24]
 8000710:	6822      	ldr	r2, [r4, #0]
 8000712:	6862      	ldr	r2, [r4, #4]
 8000714:	f8da 200c 	ldr.w	r2, [sl, #12]
 8000718:	681b      	ldr	r3, [r3, #0]
 800071a:	f242 1c4c 	movw	ip, #8524	; 0x214c
 800071e:	f242 1e0c 	movw	lr, #8460	; 0x210c
 8000722:	f1b9 0f00 	cmp.w	r9, #0
 8000726:	bf18      	it	ne
 8000728:	46e6      	movne	lr, ip
 800072a:	2f00      	cmp	r7, #0
 800072c:	bf14      	ite	ne
 800072e:	f44f 7788 	movne.w	r7, #272	; 0x110
 8000732:	f44f 7780 	moveq.w	r7, #256	; 0x100
 8000736:	f046 0640 	orr.w	r6, r6, #64	; 0x40
 800073a:	f040 00c1 	orr.w	r0, r0, #193	; 0xc1
 800073e:	ea47 0902 	orr.w	r9, r7, r2
 8000742:	fa1f fc86 	uxth.w	ip, r6
 8000746:	ea4e 0101 	orr.w	r1, lr, r1
 800074a:	2701      	movs	r7, #1
 800074c:	2600      	movs	r6, #0
 800074e:	b280      	uxth	r0, r0
 8000750:	f8df e1d4 	ldr.w	lr, [pc, #468]	; 8000928 <__init_array_end+0x768>
 8000754:	6026      	str	r6, [r4, #0]
 8000756:	f8c4 c010 	str.w	ip, [r4, #16]
 800075a:	6160      	str	r0, [r4, #20]
 800075c:	60e1      	str	r1, [r4, #12]
 800075e:	f8c3 e00c 	str.w	lr, [r3, #12]
 8000762:	605f      	str	r7, [r3, #4]
 8000764:	f8c3 9000 	str.w	r9, [r3]
 8000768:	681a      	ldr	r2, [r3, #0]
 800076a:	f04f 0902 	mov.w	r9, #2
 800076e:	433a      	orrs	r2, r7
 8000770:	601a      	str	r2, [r3, #0]
 8000772:	f88a 9000 	strb.w	r9, [sl]
 8000776:	f386 8811 	msr	BASEPRI, r6
 800077a:	2420      	movs	r4, #32
 800077c:	f384 8811 	msr	BASEPRI, r4
 8000780:	4855      	ldr	r0, [pc, #340]	; (80008d8 <__init_array_end+0x718>)
 8000782:	4956      	ldr	r1, [pc, #344]	; (80008dc <__init_array_end+0x71c>)
 8000784:	f003 fcec 	bl	8004160 <sd_lld_start>
 8000788:	4b53      	ldr	r3, [pc, #332]	; (80008d8 <__init_array_end+0x718>)
 800078a:	f883 9008 	strb.w	r9, [r3, #8]
 800078e:	f386 8811 	msr	BASEPRI, r6
 8000792:	4953      	ldr	r1, [pc, #332]	; (80008e0 <__init_array_end+0x720>)
 8000794:	f8df a194 	ldr.w	sl, [pc, #404]	; 800092c <__init_array_end+0x76c>
 8000798:	4618      	mov	r0, r3
 800079a:	f001 fc21 	bl	8001fe0 <chprintf.17288>
 800079e:	f44f 60fa 	mov.w	r0, #2000	; 0x7d0
 80007a2:	f001 f985 	bl	8001ab0 <chThdSleep>
 80007a6:	484f      	ldr	r0, [pc, #316]	; (80008e4 <__init_array_end+0x724>)
 80007a8:	f8ca 0000 	str.w	r0, [sl]
 80007ac:	f384 8811 	msr	BASEPRI, r4
 80007b0:	494d      	ldr	r1, [pc, #308]	; (80008e8 <__init_array_end+0x728>)
 80007b2:	f003 fcd5 	bl	8004160 <sd_lld_start>
 80007b6:	494b      	ldr	r1, [pc, #300]	; (80008e4 <__init_array_end+0x724>)
 80007b8:	f881 9008 	strb.w	r9, [r1, #8]
 80007bc:	f386 8811 	msr	BASEPRI, r6
 80007c0:	f88a 7004 	strb.w	r7, [sl, #4]
 80007c4:	f384 8811 	msr	BASEPRI, r4
 80007c8:	782f      	ldrb	r7, [r5, #0]
 80007ca:	606e      	str	r6, [r5, #4]
 80007cc:	2f01      	cmp	r7, #1
 80007ce:	4c47      	ldr	r4, [pc, #284]	; (80008ec <__init_array_end+0x72c>)
 80007d0:	f000 8101 	beq.w	80009d6 <__init_array_end+0x816>
 80007d4:	2302      	movs	r3, #2
 80007d6:	702b      	strb	r3, [r5, #0]
 80007d8:	2500      	movs	r5, #0
 80007da:	f385 8811 	msr	BASEPRI, r5
 80007de:	4944      	ldr	r1, [pc, #272]	; (80008f0 <__init_array_end+0x730>)
 80007e0:	483d      	ldr	r0, [pc, #244]	; (80008d8 <__init_array_end+0x718>)
 80007e2:	f001 fbfd 	bl	8001fe0 <chprintf.17288>
 80007e6:	ab09      	add	r3, sp, #36	; 0x24
 80007e8:	9300      	str	r3, [sp, #0]
 80007ea:	f44f 61cb 	mov.w	r1, #1624	; 0x658
 80007ee:	4b41      	ldr	r3, [pc, #260]	; (80008f4 <__init_array_end+0x734>)
 80007f0:	4841      	ldr	r0, [pc, #260]	; (80008f8 <__init_array_end+0x738>)
 80007f2:	2240      	movs	r2, #64	; 0x40
 80007f4:	f001 faa4 	bl	8001d40 <chThdCreateStatic>
 80007f8:	f10d 0923 	add.w	r9, sp, #35	; 0x23
 80007fc:	f8cd 8000 	str.w	r8, [sp]
 8000800:	4b3e      	ldr	r3, [pc, #248]	; (80008fc <__init_array_end+0x73c>)
 8000802:	483f      	ldr	r0, [pc, #252]	; (8000900 <__init_array_end+0x740>)
 8000804:	f241 1150 	movw	r1, #4432	; 0x1150
 8000808:	2240      	movs	r2, #64	; 0x40
 800080a:	f001 fa99 	bl	8001d40 <chThdCreateStatic>
 800080e:	4b3d      	ldr	r3, [pc, #244]	; (8000904 <__init_array_end+0x744>)
 8000810:	f8cd 9000 	str.w	r9, [sp]
 8000814:	f44f 71c8 	mov.w	r1, #400	; 0x190
 8000818:	2240      	movs	r2, #64	; 0x40
 800081a:	483b      	ldr	r0, [pc, #236]	; (8000908 <__init_array_end+0x748>)
 800081c:	f001 fa90 	bl	8001d40 <chThdCreateStatic>
 8000820:	4b3a      	ldr	r3, [pc, #232]	; (800090c <__init_array_end+0x74c>)
 8000822:	2108      	movs	r1, #8
 8000824:	2220      	movs	r2, #32
 8000826:	f04f 4080 	mov.w	r0, #1073741824	; 0x40000000
 800082a:	8319      	strh	r1, [r3, #24]
 800082c:	831a      	strh	r2, [r3, #24]
 800082e:	8359      	strh	r1, [r3, #26]
 8000830:	835a      	strh	r2, [r3, #26]
 8000832:	6a44      	ldr	r4, [r0, #36]	; 0x24
 8000834:	f10d 0850 	add.w	r8, sp, #80	; 0x50
 8000838:	af1a      	add	r7, sp, #104	; 0x68
 800083a:	ae1e      	add	r6, sp, #120	; 0x78
 800083c:	f504 541c 	add.w	r4, r4, #9984	; 0x2700
 8000840:	3410      	adds	r4, #16
 8000842:	2320      	movs	r3, #32
 8000844:	f383 8811 	msr	BASEPRI, r3
 8000848:	4831      	ldr	r0, [pc, #196]	; (8000910 <__init_array_end+0x750>)
 800084a:	f002 ff71 	bl	8003730 <chMtxLockS>
 800084e:	2300      	movs	r3, #0
 8000850:	f383 8811 	msr	BASEPRI, r3
 8000854:	492f      	ldr	r1, [pc, #188]	; (8000914 <__init_array_end+0x754>)
 8000856:	a80e      	add	r0, sp, #56	; 0x38
 8000858:	f003 fe2a 	bl	80044b0 <strcpy>
 800085c:	492e      	ldr	r1, [pc, #184]	; (8000918 <__init_array_end+0x758>)
 800085e:	4640      	mov	r0, r8
 8000860:	f003 fe26 	bl	80044b0 <strcpy>
 8000864:	492d      	ldr	r1, [pc, #180]	; (800091c <__init_array_end+0x75c>)
 8000866:	4638      	mov	r0, r7
 8000868:	f003 fe22 	bl	80044b0 <strcpy>
 800086c:	492c      	ldr	r1, [pc, #176]	; (8000920 <__init_array_end+0x760>)
 800086e:	a80a      	add	r0, sp, #40	; 0x28
 8000870:	f003 fe1e 	bl	80044b0 <strcpy>
 8000874:	492b      	ldr	r1, [pc, #172]	; (8000924 <__init_array_end+0x764>)
 8000876:	4630      	mov	r0, r6
 8000878:	f003 fe1a 	bl	80044b0 <strcpy>
 800087c:	4824      	ldr	r0, [pc, #144]	; (8000910 <__init_array_end+0x750>)
 800087e:	f001 fa9f 	bl	8001dc0 <chMtxUnlock>
 8000882:	aa0a      	add	r2, sp, #40	; 0x28
 8000884:	ab0e      	add	r3, sp, #56	; 0x38
 8000886:	f8cd 8000 	str.w	r8, [sp]
 800088a:	9701      	str	r7, [sp, #4]
 800088c:	9602      	str	r6, [sp, #8]
 800088e:	e04f      	b.n	8000930 <__init_array_end+0x770>
 8000890:	05fa0300 	.word	0x05fa0300
 8000894:	20002ef0 	.word	0x20002ef0
 8000898:	e0001000 	.word	0xe0001000
 800089c:	20010000 	.word	0x20010000
 80008a0:	20002520 	.word	0x20002520
 80008a4:	20000880 	.word	0x20000880
 80008a8:	20002f2b 	.word	0x20002f2b
 80008ac:	08003081 	.word	0x08003081
 80008b0:	2000083c 	.word	0x2000083c
 80008b4:	2000251c 	.word	0x2000251c
 80008b8:	08004800 	.word	0x08004800
 80008bc:	08003131 	.word	0x08003131
 80008c0:	200010d8 	.word	0x200010d8
 80008c4:	200008a0 	.word	0x200008a0
 80008c8:	2000080c 	.word	0x2000080c
 80008cc:	200010b8 	.word	0x200010b8
 80008d0:	40011000 	.word	0x40011000
 80008d4:	0280de80 	.word	0x0280de80
 80008d8:	20002568 	.word	0x20002568
 80008dc:	20000800 	.word	0x20000800
 80008e0:	08004740 	.word	0x08004740
 80008e4:	200029f8 	.word	0x200029f8
 80008e8:	2000082c 	.word	0x2000082c
 80008ec:	200029c4 	.word	0x200029c4
 80008f0:	08004784 	.word	0x08004784
 80008f4:	08003cb1 	.word	0x08003cb1
 80008f8:	20000a60 	.word	0x20000a60
 80008fc:	080023a1 	.word	0x080023a1
 8000900:	20001238 	.word	0x20001238
 8000904:	08004121 	.word	0x08004121
 8000908:	20002388 	.word	0x20002388
 800090c:	40020400 	.word	0x40020400
 8000910:	200009d0 	.word	0x200009d0
 8000914:	2000097e 	.word	0x2000097e
 8000918:	20000996 	.word	0x20000996
 800091c:	200009ae 	.word	0x200009ae
 8000920:	2000096e 	.word	0x2000096e
 8000924:	200009be 	.word	0x200009be
 8000928:	200010d0 	.word	0x200010d0
 800092c:	20000874 	.word	0x20000874
 8000930:	483b      	ldr	r0, [pc, #236]	; (8000a20 <__init_array_end+0x860>)
 8000932:	493c      	ldr	r1, [pc, #240]	; (8000a24 <__init_array_end+0x864>)
 8000934:	f001 fb54 	bl	8001fe0 <chprintf.17288>
 8000938:	f04f 4380 	mov.w	r3, #1073741824	; 0x40000000
 800093c:	3501      	adds	r5, #1
 800093e:	f5b5 6f7a 	cmp.w	r5, #4000	; 0xfa0
 8000942:	6a5b      	ldr	r3, [r3, #36]	; 0x24
 8000944:	bf84      	itt	hi
 8000946:	2201      	movhi	r2, #1
 8000948:	f889 2000 	strbhi.w	r2, [r9]
 800094c:	429c      	cmp	r4, r3
 800094e:	f67f af75 	bls.w	800083c <__init_array_end+0x67c>
 8000952:	4620      	mov	r0, r4
 8000954:	f001 f8bc 	bl	8001ad0 <chThdSleepUntil>
 8000958:	e770      	b.n	800083c <__init_array_end+0x67c>
 800095a:	4a33      	ldr	r2, [pc, #204]	; (8000a28 <__init_array_end+0x868>)
 800095c:	f8da 0010 	ldr.w	r0, [sl, #16]
 8000960:	4f32      	ldr	r7, [pc, #200]	; (8000a2c <__init_array_end+0x86c>)
 8000962:	210c      	movs	r1, #12
 8000964:	4653      	mov	r3, sl
 8000966:	f002 fc3b 	bl	80031e0 <dmaStreamAllocate>
 800096a:	4a31      	ldr	r2, [pc, #196]	; (8000a30 <__init_array_end+0x870>)
 800096c:	f8da 0014 	ldr.w	r0, [sl, #20]
 8000970:	210c      	movs	r1, #12
 8000972:	4653      	mov	r3, sl
 8000974:	f002 fc34 	bl	80031e0 <dmaStreamAllocate>
 8000978:	f8d9 1044 	ldr.w	r1, [r9, #68]	; 0x44
 800097c:	f8da 2004 	ldr.w	r2, [sl, #4]
 8000980:	9e06      	ldr	r6, [sp, #24]
 8000982:	f8da 300c 	ldr.w	r3, [sl, #12]
 8000986:	f041 0110 	orr.w	r1, r1, #16
 800098a:	f8c9 1044 	str.w	r1, [r9, #68]	; 0x44
 800098e:	f887 6325 	strb.w	r6, [r7, #805]	; 0x325
 8000992:	8b12      	ldrh	r2, [r2, #24]
 8000994:	f8da 4008 	ldr.w	r4, [sl, #8]
 8000998:	f402 52a0 	and.w	r2, r2, #5120	; 0x1400
 800099c:	f043 6300 	orr.w	r3, r3, #134217728	; 0x8000000
 80009a0:	2020      	movs	r0, #32
 80009a2:	f5b2 5f80 	cmp.w	r2, #4096	; 0x1000
 80009a6:	f8c7 0184 	str.w	r0, [r7, #388]	; 0x184
 80009aa:	6078      	str	r0, [r7, #4]
 80009ac:	f8ca 300c 	str.w	r3, [sl, #12]
 80009b0:	bf08      	it	eq
 80009b2:	f443 5320 	orreq.w	r3, r3, #10240	; 0x2800
 80009b6:	f8da 2010 	ldr.w	r2, [sl, #16]
 80009ba:	bf08      	it	eq
 80009bc:	f8ca 300c 	streq.w	r3, [sl, #12]
 80009c0:	f8da 3014 	ldr.w	r3, [sl, #20]
 80009c4:	6810      	ldr	r0, [r2, #0]
 80009c6:	6819      	ldr	r1, [r3, #0]
 80009c8:	2200      	movs	r2, #0
 80009ca:	1d23      	adds	r3, r4, #4
 80009cc:	6083      	str	r3, [r0, #8]
 80009ce:	608b      	str	r3, [r1, #8]
 80009d0:	f8aa 2018 	strh.w	r2, [sl, #24]
 80009d4:	e67a      	b.n	80006cc <__init_array_end+0x50c>
 80009d6:	4a17      	ldr	r2, [pc, #92]	; (8000a34 <__init_array_end+0x874>)
 80009d8:	6ae0      	ldr	r0, [r4, #44]	; 0x2c
 80009da:	2106      	movs	r1, #6
 80009dc:	4623      	mov	r3, r4
 80009de:	f002 fbff 	bl	80031e0 <dmaStreamAllocate>
 80009e2:	6ae3      	ldr	r3, [r4, #44]	; 0x2c
 80009e4:	4a14      	ldr	r2, [pc, #80]	; (8000a38 <__init_array_end+0x878>)
 80009e6:	681b      	ldr	r3, [r3, #0]
 80009e8:	4914      	ldr	r1, [pc, #80]	; (8000a3c <__init_array_end+0x87c>)
 80009ea:	609a      	str	r2, [r3, #8]
 80009ec:	6c48      	ldr	r0, [r1, #68]	; 0x44
 80009ee:	6aa3      	ldr	r3, [r4, #40]	; 0x28
 80009f0:	f440 7080 	orr.w	r0, r0, #256	; 0x100
 80009f4:	6448      	str	r0, [r1, #68]	; 0x44
 80009f6:	f8d2 12b8 	ldr.w	r1, [r2, #696]	; 0x2b8
 80009fa:	f401 0140 	and.w	r1, r1, #12582912	; 0xc00000
 80009fe:	f441 3140 	orr.w	r1, r1, #196608	; 0x30000
 8000a02:	f8c2 12b8 	str.w	r1, [r2, #696]	; 0x2b8
 8000a06:	605e      	str	r6, [r3, #4]
 8000a08:	609e      	str	r6, [r3, #8]
 8000a0a:	609f      	str	r7, [r3, #8]
 8000a0c:	e6e2      	b.n	80007d4 <__init_array_end+0x614>
 8000a0e:	f8da 2004 	ldr.w	r2, [sl, #4]
 8000a12:	490b      	ldr	r1, [pc, #44]	; (8000a40 <__init_array_end+0x880>)
 8000a14:	6953      	ldr	r3, [r2, #20]
 8000a16:	fbb1 f3f3 	udiv	r3, r1, r3
 8000a1a:	60a3      	str	r3, [r4, #8]
 8000a1c:	e670      	b.n	8000700 <__init_array_end+0x540>
 8000a1e:	bf00      	nop
 8000a20:	200029f8 	.word	0x200029f8
 8000a24:	080047a4 	.word	0x080047a4
 8000a28:	08003bc1 	.word	0x08003bc1
 8000a2c:	e000e100 	.word	0xe000e100
 8000a30:	08003c51 	.word	0x08003c51
 8000a34:	08003a41 	.word	0x08003a41
 8000a38:	4001204c 	.word	0x4001204c
 8000a3c:	40023800 	.word	0x40023800
 8000a40:	0501bd00 	.word	0x0501bd00
 8000a44:	f3af 8000 	nop.w
 8000a48:	f3af 8000 	nop.w
 8000a4c:	f3af 8000 	nop.w

08000a50 <_port_switch>:
 8000a50:	e92d 4ff0 	stmdb	sp!, {r4, r5, r6, r7, r8, r9, sl, fp, lr}
 8000a54:	ed2d 8a10 	vpush	{s16-s31}
 8000a58:	f8c1 d00c 	str.w	sp, [r1, #12]
 8000a5c:	f8d0 d00c 	ldr.w	sp, [r0, #12]
 8000a60:	ecbd 8a10 	vpop	{s16-s31}
 8000a64:	e8bd 8ff0 	ldmia.w	sp!, {r4, r5, r6, r7, r8, r9, sl, fp, pc}

08000a68 <_port_thread_start>:
 8000a68:	2300      	movs	r3, #0
 8000a6a:	f383 8811 	msr	BASEPRI, r3
 8000a6e:	4628      	mov	r0, r5
 8000a70:	47a0      	blx	r4
 8000a72:	f003 fced 	bl	8004450 <chThdExit>

08000a76 <_port_switch_from_isr>:
 8000a76:	f003 fd13 	bl	80044a0 <chSchDoReschedule>

08000a7a <_port_exit_from_isr>:
 8000a7a:	df00      	svc	0
 8000a7c:	e7fe      	b.n	8000a7c <_port_exit_from_isr+0x2>
	...

08000a80 <__aeabi_drsub>:
 8000a80:	f081 4100 	eor.w	r1, r1, #2147483648	; 0x80000000
 8000a84:	e002      	b.n	8000a8c <__adddf3>
 8000a86:	bf00      	nop

08000a88 <__aeabi_dsub>:
 8000a88:	f083 4300 	eor.w	r3, r3, #2147483648	; 0x80000000

08000a8c <__adddf3>:
 8000a8c:	b530      	push	{r4, r5, lr}
 8000a8e:	ea4f 0441 	mov.w	r4, r1, lsl #1
 8000a92:	ea4f 0543 	mov.w	r5, r3, lsl #1
 8000a96:	ea94 0f05 	teq	r4, r5
 8000a9a:	bf08      	it	eq
 8000a9c:	ea90 0f02 	teqeq	r0, r2
 8000aa0:	bf1f      	itttt	ne
 8000aa2:	ea54 0c00 	orrsne.w	ip, r4, r0
 8000aa6:	ea55 0c02 	orrsne.w	ip, r5, r2
 8000aaa:	ea7f 5c64 	mvnsne.w	ip, r4, asr #21
 8000aae:	ea7f 5c65 	mvnsne.w	ip, r5, asr #21
 8000ab2:	f000 80e2 	beq.w	8000c7a <__adddf3+0x1ee>
 8000ab6:	ea4f 5454 	mov.w	r4, r4, lsr #21
 8000aba:	ebd4 5555 	rsbs	r5, r4, r5, lsr #21
 8000abe:	bfb8      	it	lt
 8000ac0:	426d      	neglt	r5, r5
 8000ac2:	dd0c      	ble.n	8000ade <__adddf3+0x52>
 8000ac4:	442c      	add	r4, r5
 8000ac6:	ea80 0202 	eor.w	r2, r0, r2
 8000aca:	ea81 0303 	eor.w	r3, r1, r3
 8000ace:	ea82 0000 	eor.w	r0, r2, r0
 8000ad2:	ea83 0101 	eor.w	r1, r3, r1
 8000ad6:	ea80 0202 	eor.w	r2, r0, r2
 8000ada:	ea81 0303 	eor.w	r3, r1, r3
 8000ade:	2d36      	cmp	r5, #54	; 0x36
 8000ae0:	bf88      	it	hi
 8000ae2:	bd30      	pophi	{r4, r5, pc}
 8000ae4:	f011 4f00 	tst.w	r1, #2147483648	; 0x80000000
 8000ae8:	ea4f 3101 	mov.w	r1, r1, lsl #12
 8000aec:	f44f 1c80 	mov.w	ip, #1048576	; 0x100000
 8000af0:	ea4c 3111 	orr.w	r1, ip, r1, lsr #12
 8000af4:	d002      	beq.n	8000afc <__adddf3+0x70>
 8000af6:	4240      	negs	r0, r0
 8000af8:	eb61 0141 	sbc.w	r1, r1, r1, lsl #1
 8000afc:	f013 4f00 	tst.w	r3, #2147483648	; 0x80000000
 8000b00:	ea4f 3303 	mov.w	r3, r3, lsl #12
 8000b04:	ea4c 3313 	orr.w	r3, ip, r3, lsr #12
 8000b08:	d002      	beq.n	8000b10 <__adddf3+0x84>
 8000b0a:	4252      	negs	r2, r2
 8000b0c:	eb63 0343 	sbc.w	r3, r3, r3, lsl #1
 8000b10:	ea94 0f05 	teq	r4, r5
 8000b14:	f000 80a7 	beq.w	8000c66 <__adddf3+0x1da>
 8000b18:	f1a4 0401 	sub.w	r4, r4, #1
 8000b1c:	f1d5 0e20 	rsbs	lr, r5, #32
 8000b20:	db0d      	blt.n	8000b3e <__adddf3+0xb2>
 8000b22:	fa02 fc0e 	lsl.w	ip, r2, lr
 8000b26:	fa22 f205 	lsr.w	r2, r2, r5
 8000b2a:	1880      	adds	r0, r0, r2
 8000b2c:	f141 0100 	adc.w	r1, r1, #0
 8000b30:	fa03 f20e 	lsl.w	r2, r3, lr
 8000b34:	1880      	adds	r0, r0, r2
 8000b36:	fa43 f305 	asr.w	r3, r3, r5
 8000b3a:	4159      	adcs	r1, r3
 8000b3c:	e00e      	b.n	8000b5c <__adddf3+0xd0>
 8000b3e:	f1a5 0520 	sub.w	r5, r5, #32
 8000b42:	f10e 0e20 	add.w	lr, lr, #32
 8000b46:	2a01      	cmp	r2, #1
 8000b48:	fa03 fc0e 	lsl.w	ip, r3, lr
 8000b4c:	bf28      	it	cs
 8000b4e:	f04c 0c02 	orrcs.w	ip, ip, #2
 8000b52:	fa43 f305 	asr.w	r3, r3, r5
 8000b56:	18c0      	adds	r0, r0, r3
 8000b58:	eb51 71e3 	adcs.w	r1, r1, r3, asr #31
 8000b5c:	f001 4500 	and.w	r5, r1, #2147483648	; 0x80000000
 8000b60:	d507      	bpl.n	8000b72 <__adddf3+0xe6>
 8000b62:	f04f 0e00 	mov.w	lr, #0
 8000b66:	f1dc 0c00 	rsbs	ip, ip, #0
 8000b6a:	eb7e 0000 	sbcs.w	r0, lr, r0
 8000b6e:	eb6e 0101 	sbc.w	r1, lr, r1
 8000b72:	f5b1 1f80 	cmp.w	r1, #1048576	; 0x100000
 8000b76:	d31b      	bcc.n	8000bb0 <__adddf3+0x124>
 8000b78:	f5b1 1f00 	cmp.w	r1, #2097152	; 0x200000
 8000b7c:	d30c      	bcc.n	8000b98 <__adddf3+0x10c>
 8000b7e:	0849      	lsrs	r1, r1, #1
 8000b80:	ea5f 0030 	movs.w	r0, r0, rrx
 8000b84:	ea4f 0c3c 	mov.w	ip, ip, rrx
 8000b88:	f104 0401 	add.w	r4, r4, #1
 8000b8c:	ea4f 5244 	mov.w	r2, r4, lsl #21
 8000b90:	f512 0f80 	cmn.w	r2, #4194304	; 0x400000
 8000b94:	f080 809a 	bcs.w	8000ccc <__adddf3+0x240>
 8000b98:	f1bc 4f00 	cmp.w	ip, #2147483648	; 0x80000000
 8000b9c:	bf08      	it	eq
 8000b9e:	ea5f 0c50 	movseq.w	ip, r0, lsr #1
 8000ba2:	f150 0000 	adcs.w	r0, r0, #0
 8000ba6:	eb41 5104 	adc.w	r1, r1, r4, lsl #20
 8000baa:	ea41 0105 	orr.w	r1, r1, r5
 8000bae:	bd30      	pop	{r4, r5, pc}
 8000bb0:	ea5f 0c4c 	movs.w	ip, ip, lsl #1
 8000bb4:	4140      	adcs	r0, r0
 8000bb6:	eb41 0101 	adc.w	r1, r1, r1
 8000bba:	f411 1f80 	tst.w	r1, #1048576	; 0x100000
 8000bbe:	f1a4 0401 	sub.w	r4, r4, #1
 8000bc2:	d1e9      	bne.n	8000b98 <__adddf3+0x10c>
 8000bc4:	f091 0f00 	teq	r1, #0
 8000bc8:	bf04      	itt	eq
 8000bca:	4601      	moveq	r1, r0
 8000bcc:	2000      	moveq	r0, #0
 8000bce:	fab1 f381 	clz	r3, r1
 8000bd2:	bf08      	it	eq
 8000bd4:	3320      	addeq	r3, #32
 8000bd6:	f1a3 030b 	sub.w	r3, r3, #11
 8000bda:	f1b3 0220 	subs.w	r2, r3, #32
 8000bde:	da0c      	bge.n	8000bfa <__adddf3+0x16e>
 8000be0:	320c      	adds	r2, #12
 8000be2:	dd08      	ble.n	8000bf6 <__adddf3+0x16a>
 8000be4:	f102 0c14 	add.w	ip, r2, #20
 8000be8:	f1c2 020c 	rsb	r2, r2, #12
 8000bec:	fa01 f00c 	lsl.w	r0, r1, ip
 8000bf0:	fa21 f102 	lsr.w	r1, r1, r2
 8000bf4:	e00c      	b.n	8000c10 <__adddf3+0x184>
 8000bf6:	f102 0214 	add.w	r2, r2, #20
 8000bfa:	bfd8      	it	le
 8000bfc:	f1c2 0c20 	rsble	ip, r2, #32
 8000c00:	fa01 f102 	lsl.w	r1, r1, r2
 8000c04:	fa20 fc0c 	lsr.w	ip, r0, ip
 8000c08:	bfdc      	itt	le
 8000c0a:	ea41 010c 	orrle.w	r1, r1, ip
 8000c0e:	4090      	lslle	r0, r2
 8000c10:	1ae4      	subs	r4, r4, r3
 8000c12:	bfa2      	ittt	ge
 8000c14:	eb01 5104 	addge.w	r1, r1, r4, lsl #20
 8000c18:	4329      	orrge	r1, r5
 8000c1a:	bd30      	popge	{r4, r5, pc}
 8000c1c:	ea6f 0404 	mvn.w	r4, r4
 8000c20:	3c1f      	subs	r4, #31
 8000c22:	da1c      	bge.n	8000c5e <__adddf3+0x1d2>
 8000c24:	340c      	adds	r4, #12
 8000c26:	dc0e      	bgt.n	8000c46 <__adddf3+0x1ba>
 8000c28:	f104 0414 	add.w	r4, r4, #20
 8000c2c:	f1c4 0220 	rsb	r2, r4, #32
 8000c30:	fa20 f004 	lsr.w	r0, r0, r4
 8000c34:	fa01 f302 	lsl.w	r3, r1, r2
 8000c38:	ea40 0003 	orr.w	r0, r0, r3
 8000c3c:	fa21 f304 	lsr.w	r3, r1, r4
 8000c40:	ea45 0103 	orr.w	r1, r5, r3
 8000c44:	bd30      	pop	{r4, r5, pc}
 8000c46:	f1c4 040c 	rsb	r4, r4, #12
 8000c4a:	f1c4 0220 	rsb	r2, r4, #32
 8000c4e:	fa20 f002 	lsr.w	r0, r0, r2
 8000c52:	fa01 f304 	lsl.w	r3, r1, r4
 8000c56:	ea40 0003 	orr.w	r0, r0, r3
 8000c5a:	4629      	mov	r1, r5
 8000c5c:	bd30      	pop	{r4, r5, pc}
 8000c5e:	fa21 f004 	lsr.w	r0, r1, r4
 8000c62:	4629      	mov	r1, r5
 8000c64:	bd30      	pop	{r4, r5, pc}
 8000c66:	f094 0f00 	teq	r4, #0
 8000c6a:	f483 1380 	eor.w	r3, r3, #1048576	; 0x100000
 8000c6e:	bf06      	itte	eq
 8000c70:	f481 1180 	eoreq.w	r1, r1, #1048576	; 0x100000
 8000c74:	3401      	addeq	r4, #1
 8000c76:	3d01      	subne	r5, #1
 8000c78:	e74e      	b.n	8000b18 <__adddf3+0x8c>
 8000c7a:	ea7f 5c64 	mvns.w	ip, r4, asr #21
 8000c7e:	bf18      	it	ne
 8000c80:	ea7f 5c65 	mvnsne.w	ip, r5, asr #21
 8000c84:	d029      	beq.n	8000cda <__adddf3+0x24e>
 8000c86:	ea94 0f05 	teq	r4, r5
 8000c8a:	bf08      	it	eq
 8000c8c:	ea90 0f02 	teqeq	r0, r2
 8000c90:	d005      	beq.n	8000c9e <__adddf3+0x212>
 8000c92:	ea54 0c00 	orrs.w	ip, r4, r0
 8000c96:	bf04      	itt	eq
 8000c98:	4619      	moveq	r1, r3
 8000c9a:	4610      	moveq	r0, r2
 8000c9c:	bd30      	pop	{r4, r5, pc}
 8000c9e:	ea91 0f03 	teq	r1, r3
 8000ca2:	bf1e      	ittt	ne
 8000ca4:	2100      	movne	r1, #0
 8000ca6:	2000      	movne	r0, #0
 8000ca8:	bd30      	popne	{r4, r5, pc}
 8000caa:	ea5f 5c54 	movs.w	ip, r4, lsr #21
 8000cae:	d105      	bne.n	8000cbc <__adddf3+0x230>
 8000cb0:	0040      	lsls	r0, r0, #1
 8000cb2:	4149      	adcs	r1, r1
 8000cb4:	bf28      	it	cs
 8000cb6:	f041 4100 	orrcs.w	r1, r1, #2147483648	; 0x80000000
 8000cba:	bd30      	pop	{r4, r5, pc}
 8000cbc:	f514 0480 	adds.w	r4, r4, #4194304	; 0x400000
 8000cc0:	bf3c      	itt	cc
 8000cc2:	f501 1180 	addcc.w	r1, r1, #1048576	; 0x100000
 8000cc6:	bd30      	popcc	{r4, r5, pc}
 8000cc8:	f001 4500 	and.w	r5, r1, #2147483648	; 0x80000000
 8000ccc:	f045 41fe 	orr.w	r1, r5, #2130706432	; 0x7f000000
 8000cd0:	f441 0170 	orr.w	r1, r1, #15728640	; 0xf00000
 8000cd4:	f04f 0000 	mov.w	r0, #0
 8000cd8:	bd30      	pop	{r4, r5, pc}
 8000cda:	ea7f 5c64 	mvns.w	ip, r4, asr #21
 8000cde:	bf1a      	itte	ne
 8000ce0:	4619      	movne	r1, r3
 8000ce2:	4610      	movne	r0, r2
 8000ce4:	ea7f 5c65 	mvnseq.w	ip, r5, asr #21
 8000ce8:	bf1c      	itt	ne
 8000cea:	460b      	movne	r3, r1
 8000cec:	4602      	movne	r2, r0
 8000cee:	ea50 3401 	orrs.w	r4, r0, r1, lsl #12
 8000cf2:	bf06      	itte	eq
 8000cf4:	ea52 3503 	orrseq.w	r5, r2, r3, lsl #12
 8000cf8:	ea91 0f03 	teqeq	r1, r3
 8000cfc:	f441 2100 	orrne.w	r1, r1, #524288	; 0x80000
 8000d00:	bd30      	pop	{r4, r5, pc}
 8000d02:	bf00      	nop

08000d04 <__aeabi_ui2d>:
 8000d04:	f090 0f00 	teq	r0, #0
 8000d08:	bf04      	itt	eq
 8000d0a:	2100      	moveq	r1, #0
 8000d0c:	4770      	bxeq	lr
 8000d0e:	b530      	push	{r4, r5, lr}
 8000d10:	f44f 6480 	mov.w	r4, #1024	; 0x400
 8000d14:	f104 0432 	add.w	r4, r4, #50	; 0x32
 8000d18:	f04f 0500 	mov.w	r5, #0
 8000d1c:	f04f 0100 	mov.w	r1, #0
 8000d20:	e750      	b.n	8000bc4 <__adddf3+0x138>
 8000d22:	bf00      	nop

08000d24 <__aeabi_i2d>:
 8000d24:	f090 0f00 	teq	r0, #0
 8000d28:	bf04      	itt	eq
 8000d2a:	2100      	moveq	r1, #0
 8000d2c:	4770      	bxeq	lr
 8000d2e:	b530      	push	{r4, r5, lr}
 8000d30:	f44f 6480 	mov.w	r4, #1024	; 0x400
 8000d34:	f104 0432 	add.w	r4, r4, #50	; 0x32
 8000d38:	f010 4500 	ands.w	r5, r0, #2147483648	; 0x80000000
 8000d3c:	bf48      	it	mi
 8000d3e:	4240      	negmi	r0, r0
 8000d40:	f04f 0100 	mov.w	r1, #0
 8000d44:	e73e      	b.n	8000bc4 <__adddf3+0x138>
 8000d46:	bf00      	nop

08000d48 <__aeabi_f2d>:
 8000d48:	0042      	lsls	r2, r0, #1
 8000d4a:	ea4f 01e2 	mov.w	r1, r2, asr #3
 8000d4e:	ea4f 0131 	mov.w	r1, r1, rrx
 8000d52:	ea4f 7002 	mov.w	r0, r2, lsl #28
 8000d56:	bf1f      	itttt	ne
 8000d58:	f012 437f 	andsne.w	r3, r2, #4278190080	; 0xff000000
 8000d5c:	f093 4f7f 	teqne	r3, #4278190080	; 0xff000000
 8000d60:	f081 5160 	eorne.w	r1, r1, #939524096	; 0x38000000
 8000d64:	4770      	bxne	lr
 8000d66:	f092 0f00 	teq	r2, #0
 8000d6a:	bf14      	ite	ne
 8000d6c:	f093 4f7f 	teqne	r3, #4278190080	; 0xff000000
 8000d70:	4770      	bxeq	lr
 8000d72:	b530      	push	{r4, r5, lr}
 8000d74:	f44f 7460 	mov.w	r4, #896	; 0x380
 8000d78:	f001 4500 	and.w	r5, r1, #2147483648	; 0x80000000
 8000d7c:	f021 4100 	bic.w	r1, r1, #2147483648	; 0x80000000
 8000d80:	e720      	b.n	8000bc4 <__adddf3+0x138>
 8000d82:	bf00      	nop

08000d84 <__aeabi_ul2d>:
 8000d84:	ea50 0201 	orrs.w	r2, r0, r1
 8000d88:	bf08      	it	eq
 8000d8a:	4770      	bxeq	lr
 8000d8c:	b530      	push	{r4, r5, lr}
 8000d8e:	f04f 0500 	mov.w	r5, #0
 8000d92:	e00a      	b.n	8000daa <__aeabi_l2d+0x16>

08000d94 <__aeabi_l2d>:
 8000d94:	ea50 0201 	orrs.w	r2, r0, r1
 8000d98:	bf08      	it	eq
 8000d9a:	4770      	bxeq	lr
 8000d9c:	b530      	push	{r4, r5, lr}
 8000d9e:	f011 4500 	ands.w	r5, r1, #2147483648	; 0x80000000
 8000da2:	d502      	bpl.n	8000daa <__aeabi_l2d+0x16>
 8000da4:	4240      	negs	r0, r0
 8000da6:	eb61 0141 	sbc.w	r1, r1, r1, lsl #1
 8000daa:	f44f 6480 	mov.w	r4, #1024	; 0x400
 8000dae:	f104 0432 	add.w	r4, r4, #50	; 0x32
 8000db2:	ea5f 5c91 	movs.w	ip, r1, lsr #22
 8000db6:	f43f aedc 	beq.w	8000b72 <__adddf3+0xe6>
 8000dba:	f04f 0203 	mov.w	r2, #3
 8000dbe:	ea5f 0cdc 	movs.w	ip, ip, lsr #3
 8000dc2:	bf18      	it	ne
 8000dc4:	3203      	addne	r2, #3
 8000dc6:	ea5f 0cdc 	movs.w	ip, ip, lsr #3
 8000dca:	bf18      	it	ne
 8000dcc:	3203      	addne	r2, #3
 8000dce:	eb02 02dc 	add.w	r2, r2, ip, lsr #3
 8000dd2:	f1c2 0320 	rsb	r3, r2, #32
 8000dd6:	fa00 fc03 	lsl.w	ip, r0, r3
 8000dda:	fa20 f002 	lsr.w	r0, r0, r2
 8000dde:	fa01 fe03 	lsl.w	lr, r1, r3
 8000de2:	ea40 000e 	orr.w	r0, r0, lr
 8000de6:	fa21 f102 	lsr.w	r1, r1, r2
 8000dea:	4414      	add	r4, r2
 8000dec:	e6c1      	b.n	8000b72 <__adddf3+0xe6>
 8000dee:	bf00      	nop

08000df0 <__aeabi_dmul>:
 8000df0:	b570      	push	{r4, r5, r6, lr}
 8000df2:	f04f 0cff 	mov.w	ip, #255	; 0xff
 8000df6:	f44c 6ce0 	orr.w	ip, ip, #1792	; 0x700
 8000dfa:	ea1c 5411 	ands.w	r4, ip, r1, lsr #20
 8000dfe:	bf1d      	ittte	ne
 8000e00:	ea1c 5513 	andsne.w	r5, ip, r3, lsr #20
 8000e04:	ea94 0f0c 	teqne	r4, ip
 8000e08:	ea95 0f0c 	teqne	r5, ip
 8000e0c:	f000 f8de 	bleq	8000fcc <__aeabi_dmul+0x1dc>
 8000e10:	442c      	add	r4, r5
 8000e12:	ea81 0603 	eor.w	r6, r1, r3
 8000e16:	ea21 514c 	bic.w	r1, r1, ip, lsl #21
 8000e1a:	ea23 534c 	bic.w	r3, r3, ip, lsl #21
 8000e1e:	ea50 3501 	orrs.w	r5, r0, r1, lsl #12
 8000e22:	bf18      	it	ne
 8000e24:	ea52 3503 	orrsne.w	r5, r2, r3, lsl #12
 8000e28:	f441 1180 	orr.w	r1, r1, #1048576	; 0x100000
 8000e2c:	f443 1380 	orr.w	r3, r3, #1048576	; 0x100000
 8000e30:	d038      	beq.n	8000ea4 <__aeabi_dmul+0xb4>
 8000e32:	fba0 ce02 	umull	ip, lr, r0, r2
 8000e36:	f04f 0500 	mov.w	r5, #0
 8000e3a:	fbe1 e502 	umlal	lr, r5, r1, r2
 8000e3e:	f006 4200 	and.w	r2, r6, #2147483648	; 0x80000000
 8000e42:	fbe0 e503 	umlal	lr, r5, r0, r3
 8000e46:	f04f 0600 	mov.w	r6, #0
 8000e4a:	fbe1 5603 	umlal	r5, r6, r1, r3
 8000e4e:	f09c 0f00 	teq	ip, #0
 8000e52:	bf18      	it	ne
 8000e54:	f04e 0e01 	orrne.w	lr, lr, #1
 8000e58:	f1a4 04ff 	sub.w	r4, r4, #255	; 0xff
 8000e5c:	f5b6 7f00 	cmp.w	r6, #512	; 0x200
 8000e60:	f564 7440 	sbc.w	r4, r4, #768	; 0x300
 8000e64:	d204      	bcs.n	8000e70 <__aeabi_dmul+0x80>
 8000e66:	ea5f 0e4e 	movs.w	lr, lr, lsl #1
 8000e6a:	416d      	adcs	r5, r5
 8000e6c:	eb46 0606 	adc.w	r6, r6, r6
 8000e70:	ea42 21c6 	orr.w	r1, r2, r6, lsl #11
 8000e74:	ea41 5155 	orr.w	r1, r1, r5, lsr #21
 8000e78:	ea4f 20c5 	mov.w	r0, r5, lsl #11
 8000e7c:	ea40 505e 	orr.w	r0, r0, lr, lsr #21
 8000e80:	ea4f 2ece 	mov.w	lr, lr, lsl #11
 8000e84:	f1b4 0cfd 	subs.w	ip, r4, #253	; 0xfd
 8000e88:	bf88      	it	hi
 8000e8a:	f5bc 6fe0 	cmphi.w	ip, #1792	; 0x700
 8000e8e:	d81e      	bhi.n	8000ece <__aeabi_dmul+0xde>
 8000e90:	f1be 4f00 	cmp.w	lr, #2147483648	; 0x80000000
 8000e94:	bf08      	it	eq
 8000e96:	ea5f 0e50 	movseq.w	lr, r0, lsr #1
 8000e9a:	f150 0000 	adcs.w	r0, r0, #0
 8000e9e:	eb41 5104 	adc.w	r1, r1, r4, lsl #20
 8000ea2:	bd70      	pop	{r4, r5, r6, pc}
 8000ea4:	f006 4600 	and.w	r6, r6, #2147483648	; 0x80000000
 8000ea8:	ea46 0101 	orr.w	r1, r6, r1
 8000eac:	ea40 0002 	orr.w	r0, r0, r2
 8000eb0:	ea81 0103 	eor.w	r1, r1, r3
 8000eb4:	ebb4 045c 	subs.w	r4, r4, ip, lsr #1
 8000eb8:	bfc2      	ittt	gt
 8000eba:	ebd4 050c 	rsbsgt	r5, r4, ip
 8000ebe:	ea41 5104 	orrgt.w	r1, r1, r4, lsl #20
 8000ec2:	bd70      	popgt	{r4, r5, r6, pc}
 8000ec4:	f441 1180 	orr.w	r1, r1, #1048576	; 0x100000
 8000ec8:	f04f 0e00 	mov.w	lr, #0
 8000ecc:	3c01      	subs	r4, #1
 8000ece:	f300 80ab 	bgt.w	8001028 <__aeabi_dmul+0x238>
 8000ed2:	f114 0f36 	cmn.w	r4, #54	; 0x36
 8000ed6:	bfde      	ittt	le
 8000ed8:	2000      	movle	r0, #0
 8000eda:	f001 4100 	andle.w	r1, r1, #2147483648	; 0x80000000
 8000ede:	bd70      	pople	{r4, r5, r6, pc}
 8000ee0:	f1c4 0400 	rsb	r4, r4, #0
 8000ee4:	3c20      	subs	r4, #32
 8000ee6:	da35      	bge.n	8000f54 <__aeabi_dmul+0x164>
 8000ee8:	340c      	adds	r4, #12
 8000eea:	dc1b      	bgt.n	8000f24 <__aeabi_dmul+0x134>
 8000eec:	f104 0414 	add.w	r4, r4, #20
 8000ef0:	f1c4 0520 	rsb	r5, r4, #32
 8000ef4:	fa00 f305 	lsl.w	r3, r0, r5
 8000ef8:	fa20 f004 	lsr.w	r0, r0, r4
 8000efc:	fa01 f205 	lsl.w	r2, r1, r5
 8000f00:	ea40 0002 	orr.w	r0, r0, r2
 8000f04:	f001 4200 	and.w	r2, r1, #2147483648	; 0x80000000
 8000f08:	f021 4100 	bic.w	r1, r1, #2147483648	; 0x80000000
 8000f0c:	eb10 70d3 	adds.w	r0, r0, r3, lsr #31
 8000f10:	fa21 f604 	lsr.w	r6, r1, r4
 8000f14:	eb42 0106 	adc.w	r1, r2, r6
 8000f18:	ea5e 0e43 	orrs.w	lr, lr, r3, lsl #1
 8000f1c:	bf08      	it	eq
 8000f1e:	ea20 70d3 	biceq.w	r0, r0, r3, lsr #31
 8000f22:	bd70      	pop	{r4, r5, r6, pc}
 8000f24:	f1c4 040c 	rsb	r4, r4, #12
 8000f28:	f1c4 0520 	rsb	r5, r4, #32
 8000f2c:	fa00 f304 	lsl.w	r3, r0, r4
 8000f30:	fa20 f005 	lsr.w	r0, r0, r5
 8000f34:	fa01 f204 	lsl.w	r2, r1, r4
 8000f38:	ea40 0002 	orr.w	r0, r0, r2
 8000f3c:	f001 4100 	and.w	r1, r1, #2147483648	; 0x80000000
 8000f40:	eb10 70d3 	adds.w	r0, r0, r3, lsr #31
 8000f44:	f141 0100 	adc.w	r1, r1, #0
 8000f48:	ea5e 0e43 	orrs.w	lr, lr, r3, lsl #1
 8000f4c:	bf08      	it	eq
 8000f4e:	ea20 70d3 	biceq.w	r0, r0, r3, lsr #31
 8000f52:	bd70      	pop	{r4, r5, r6, pc}
 8000f54:	f1c4 0520 	rsb	r5, r4, #32
 8000f58:	fa00 f205 	lsl.w	r2, r0, r5
 8000f5c:	ea4e 0e02 	orr.w	lr, lr, r2
 8000f60:	fa20 f304 	lsr.w	r3, r0, r4
 8000f64:	fa01 f205 	lsl.w	r2, r1, r5
 8000f68:	ea43 0302 	orr.w	r3, r3, r2
 8000f6c:	fa21 f004 	lsr.w	r0, r1, r4
 8000f70:	f001 4100 	and.w	r1, r1, #2147483648	; 0x80000000
 8000f74:	fa21 f204 	lsr.w	r2, r1, r4
 8000f78:	ea20 0002 	bic.w	r0, r0, r2
 8000f7c:	eb00 70d3 	add.w	r0, r0, r3, lsr #31
 8000f80:	ea5e 0e43 	orrs.w	lr, lr, r3, lsl #1
 8000f84:	bf08      	it	eq
 8000f86:	ea20 70d3 	biceq.w	r0, r0, r3, lsr #31
 8000f8a:	bd70      	pop	{r4, r5, r6, pc}
 8000f8c:	f094 0f00 	teq	r4, #0
 8000f90:	d10f      	bne.n	8000fb2 <__aeabi_dmul+0x1c2>
 8000f92:	f001 4600 	and.w	r6, r1, #2147483648	; 0x80000000
 8000f96:	0040      	lsls	r0, r0, #1
 8000f98:	eb41 0101 	adc.w	r1, r1, r1
 8000f9c:	f411 1f80 	tst.w	r1, #1048576	; 0x100000
 8000fa0:	bf08      	it	eq
 8000fa2:	3c01      	subeq	r4, #1
 8000fa4:	d0f7      	beq.n	8000f96 <__aeabi_dmul+0x1a6>
 8000fa6:	ea41 0106 	orr.w	r1, r1, r6
 8000faa:	f095 0f00 	teq	r5, #0
 8000fae:	bf18      	it	ne
 8000fb0:	4770      	bxne	lr
 8000fb2:	f003 4600 	and.w	r6, r3, #2147483648	; 0x80000000
 8000fb6:	0052      	lsls	r2, r2, #1
 8000fb8:	eb43 0303 	adc.w	r3, r3, r3
 8000fbc:	f413 1f80 	tst.w	r3, #1048576	; 0x100000
 8000fc0:	bf08      	it	eq
 8000fc2:	3d01      	subeq	r5, #1
 8000fc4:	d0f7      	beq.n	8000fb6 <__aeabi_dmul+0x1c6>
 8000fc6:	ea43 0306 	orr.w	r3, r3, r6
 8000fca:	4770      	bx	lr
 8000fcc:	ea94 0f0c 	teq	r4, ip
 8000fd0:	ea0c 5513 	and.w	r5, ip, r3, lsr #20
 8000fd4:	bf18      	it	ne
 8000fd6:	ea95 0f0c 	teqne	r5, ip
 8000fda:	d00c      	beq.n	8000ff6 <__aeabi_dmul+0x206>
 8000fdc:	ea50 0641 	orrs.w	r6, r0, r1, lsl #1
 8000fe0:	bf18      	it	ne
 8000fe2:	ea52 0643 	orrsne.w	r6, r2, r3, lsl #1
 8000fe6:	d1d1      	bne.n	8000f8c <__aeabi_dmul+0x19c>
 8000fe8:	ea81 0103 	eor.w	r1, r1, r3
 8000fec:	f001 4100 	and.w	r1, r1, #2147483648	; 0x80000000
 8000ff0:	f04f 0000 	mov.w	r0, #0
 8000ff4:	bd70      	pop	{r4, r5, r6, pc}
 8000ff6:	ea50 0641 	orrs.w	r6, r0, r1, lsl #1
 8000ffa:	bf06      	itte	eq
 8000ffc:	4610      	moveq	r0, r2
 8000ffe:	4619      	moveq	r1, r3
 8001000:	ea52 0643 	orrsne.w	r6, r2, r3, lsl #1
 8001004:	d019      	beq.n	800103a <__aeabi_dmul+0x24a>
 8001006:	ea94 0f0c 	teq	r4, ip
 800100a:	d102      	bne.n	8001012 <__aeabi_dmul+0x222>
 800100c:	ea50 3601 	orrs.w	r6, r0, r1, lsl #12
 8001010:	d113      	bne.n	800103a <__aeabi_dmul+0x24a>
 8001012:	ea95 0f0c 	teq	r5, ip
 8001016:	d105      	bne.n	8001024 <__aeabi_dmul+0x234>
 8001018:	ea52 3603 	orrs.w	r6, r2, r3, lsl #12
 800101c:	bf1c      	itt	ne
 800101e:	4610      	movne	r0, r2
 8001020:	4619      	movne	r1, r3
 8001022:	d10a      	bne.n	800103a <__aeabi_dmul+0x24a>
 8001024:	ea81 0103 	eor.w	r1, r1, r3
 8001028:	f001 4100 	and.w	r1, r1, #2147483648	; 0x80000000
 800102c:	f041 41fe 	orr.w	r1, r1, #2130706432	; 0x7f000000
 8001030:	f441 0170 	orr.w	r1, r1, #15728640	; 0xf00000
 8001034:	f04f 0000 	mov.w	r0, #0
 8001038:	bd70      	pop	{r4, r5, r6, pc}
 800103a:	f041 41fe 	orr.w	r1, r1, #2130706432	; 0x7f000000
 800103e:	f441 0178 	orr.w	r1, r1, #16252928	; 0xf80000
 8001042:	bd70      	pop	{r4, r5, r6, pc}

08001044 <__aeabi_ddiv>:
 8001044:	b570      	push	{r4, r5, r6, lr}
 8001046:	f04f 0cff 	mov.w	ip, #255	; 0xff
 800104a:	f44c 6ce0 	orr.w	ip, ip, #1792	; 0x700
 800104e:	ea1c 5411 	ands.w	r4, ip, r1, lsr #20
 8001052:	bf1d      	ittte	ne
 8001054:	ea1c 5513 	andsne.w	r5, ip, r3, lsr #20
 8001058:	ea94 0f0c 	teqne	r4, ip
 800105c:	ea95 0f0c 	teqne	r5, ip
 8001060:	f000 f8a7 	bleq	80011b2 <__aeabi_ddiv+0x16e>
 8001064:	eba4 0405 	sub.w	r4, r4, r5
 8001068:	ea81 0e03 	eor.w	lr, r1, r3
 800106c:	ea52 3503 	orrs.w	r5, r2, r3, lsl #12
 8001070:	ea4f 3101 	mov.w	r1, r1, lsl #12
 8001074:	f000 8088 	beq.w	8001188 <__aeabi_ddiv+0x144>
 8001078:	ea4f 3303 	mov.w	r3, r3, lsl #12
 800107c:	f04f 5580 	mov.w	r5, #268435456	; 0x10000000
 8001080:	ea45 1313 	orr.w	r3, r5, r3, lsr #4
 8001084:	ea43 6312 	orr.w	r3, r3, r2, lsr #24
 8001088:	ea4f 2202 	mov.w	r2, r2, lsl #8
 800108c:	ea45 1511 	orr.w	r5, r5, r1, lsr #4
 8001090:	ea45 6510 	orr.w	r5, r5, r0, lsr #24
 8001094:	ea4f 2600 	mov.w	r6, r0, lsl #8
 8001098:	f00e 4100 	and.w	r1, lr, #2147483648	; 0x80000000
 800109c:	429d      	cmp	r5, r3
 800109e:	bf08      	it	eq
 80010a0:	4296      	cmpeq	r6, r2
 80010a2:	f144 04fd 	adc.w	r4, r4, #253	; 0xfd
 80010a6:	f504 7440 	add.w	r4, r4, #768	; 0x300
 80010aa:	d202      	bcs.n	80010b2 <__aeabi_ddiv+0x6e>
 80010ac:	085b      	lsrs	r3, r3, #1
 80010ae:	ea4f 0232 	mov.w	r2, r2, rrx
 80010b2:	1ab6      	subs	r6, r6, r2
 80010b4:	eb65 0503 	sbc.w	r5, r5, r3
 80010b8:	085b      	lsrs	r3, r3, #1
 80010ba:	ea4f 0232 	mov.w	r2, r2, rrx
 80010be:	f44f 1080 	mov.w	r0, #1048576	; 0x100000
 80010c2:	f44f 2c00 	mov.w	ip, #524288	; 0x80000
 80010c6:	ebb6 0e02 	subs.w	lr, r6, r2
 80010ca:	eb75 0e03 	sbcs.w	lr, r5, r3
 80010ce:	bf22      	ittt	cs
 80010d0:	1ab6      	subcs	r6, r6, r2
 80010d2:	4675      	movcs	r5, lr
 80010d4:	ea40 000c 	orrcs.w	r0, r0, ip
 80010d8:	085b      	lsrs	r3, r3, #1
 80010da:	ea4f 0232 	mov.w	r2, r2, rrx
 80010de:	ebb6 0e02 	subs.w	lr, r6, r2
 80010e2:	eb75 0e03 	sbcs.w	lr, r5, r3
 80010e6:	bf22      	ittt	cs
 80010e8:	1ab6      	subcs	r6, r6, r2
 80010ea:	4675      	movcs	r5, lr
 80010ec:	ea40 005c 	orrcs.w	r0, r0, ip, lsr #1
 80010f0:	085b      	lsrs	r3, r3, #1
 80010f2:	ea4f 0232 	mov.w	r2, r2, rrx
 80010f6:	ebb6 0e02 	subs.w	lr, r6, r2
 80010fa:	eb75 0e03 	sbcs.w	lr, r5, r3
 80010fe:	bf22      	ittt	cs
 8001100:	1ab6      	subcs	r6, r6, r2
 8001102:	4675      	movcs	r5, lr
 8001104:	ea40 009c 	orrcs.w	r0, r0, ip, lsr #2
 8001108:	085b      	lsrs	r3, r3, #1
 800110a:	ea4f 0232 	mov.w	r2, r2, rrx
 800110e:	ebb6 0e02 	subs.w	lr, r6, r2
 8001112:	eb75 0e03 	sbcs.w	lr, r5, r3
 8001116:	bf22      	ittt	cs
 8001118:	1ab6      	subcs	r6, r6, r2
 800111a:	4675      	movcs	r5, lr
 800111c:	ea40 00dc 	orrcs.w	r0, r0, ip, lsr #3
 8001120:	ea55 0e06 	orrs.w	lr, r5, r6
 8001124:	d018      	beq.n	8001158 <__aeabi_ddiv+0x114>
 8001126:	ea4f 1505 	mov.w	r5, r5, lsl #4
 800112a:	ea45 7516 	orr.w	r5, r5, r6, lsr #28
 800112e:	ea4f 1606 	mov.w	r6, r6, lsl #4
 8001132:	ea4f 03c3 	mov.w	r3, r3, lsl #3
 8001136:	ea43 7352 	orr.w	r3, r3, r2, lsr #29
 800113a:	ea4f 02c2 	mov.w	r2, r2, lsl #3
 800113e:	ea5f 1c1c 	movs.w	ip, ip, lsr #4
 8001142:	d1c0      	bne.n	80010c6 <__aeabi_ddiv+0x82>
 8001144:	f411 1f80 	tst.w	r1, #1048576	; 0x100000
 8001148:	d10b      	bne.n	8001162 <__aeabi_ddiv+0x11e>
 800114a:	ea41 0100 	orr.w	r1, r1, r0
 800114e:	f04f 0000 	mov.w	r0, #0
 8001152:	f04f 4c00 	mov.w	ip, #2147483648	; 0x80000000
 8001156:	e7b6      	b.n	80010c6 <__aeabi_ddiv+0x82>
 8001158:	f411 1f80 	tst.w	r1, #1048576	; 0x100000
 800115c:	bf04      	itt	eq
 800115e:	4301      	orreq	r1, r0
 8001160:	2000      	moveq	r0, #0
 8001162:	f1b4 0cfd 	subs.w	ip, r4, #253	; 0xfd
 8001166:	bf88      	it	hi
 8001168:	f5bc 6fe0 	cmphi.w	ip, #1792	; 0x700
 800116c:	f63f aeaf 	bhi.w	8000ece <__aeabi_dmul+0xde>
 8001170:	ebb5 0c03 	subs.w	ip, r5, r3
 8001174:	bf04      	itt	eq
 8001176:	ebb6 0c02 	subseq.w	ip, r6, r2
 800117a:	ea5f 0c50 	movseq.w	ip, r0, lsr #1
 800117e:	f150 0000 	adcs.w	r0, r0, #0
 8001182:	eb41 5104 	adc.w	r1, r1, r4, lsl #20
 8001186:	bd70      	pop	{r4, r5, r6, pc}
 8001188:	f00e 4e00 	and.w	lr, lr, #2147483648	; 0x80000000
 800118c:	ea4e 3111 	orr.w	r1, lr, r1, lsr #12
 8001190:	eb14 045c 	adds.w	r4, r4, ip, lsr #1
 8001194:	bfc2      	ittt	gt
 8001196:	ebd4 050c 	rsbsgt	r5, r4, ip
 800119a:	ea41 5104 	orrgt.w	r1, r1, r4, lsl #20
 800119e:	bd70      	popgt	{r4, r5, r6, pc}
 80011a0:	f441 1180 	orr.w	r1, r1, #1048576	; 0x100000
 80011a4:	f04f 0e00 	mov.w	lr, #0
 80011a8:	3c01      	subs	r4, #1
 80011aa:	e690      	b.n	8000ece <__aeabi_dmul+0xde>
 80011ac:	ea45 0e06 	orr.w	lr, r5, r6
 80011b0:	e68d      	b.n	8000ece <__aeabi_dmul+0xde>
 80011b2:	ea0c 5513 	and.w	r5, ip, r3, lsr #20
 80011b6:	ea94 0f0c 	teq	r4, ip
 80011ba:	bf08      	it	eq
 80011bc:	ea95 0f0c 	teqeq	r5, ip
 80011c0:	f43f af3b 	beq.w	800103a <__aeabi_dmul+0x24a>
 80011c4:	ea94 0f0c 	teq	r4, ip
 80011c8:	d10a      	bne.n	80011e0 <__aeabi_ddiv+0x19c>
 80011ca:	ea50 3401 	orrs.w	r4, r0, r1, lsl #12
 80011ce:	f47f af34 	bne.w	800103a <__aeabi_dmul+0x24a>
 80011d2:	ea95 0f0c 	teq	r5, ip
 80011d6:	f47f af25 	bne.w	8001024 <__aeabi_dmul+0x234>
 80011da:	4610      	mov	r0, r2
 80011dc:	4619      	mov	r1, r3
 80011de:	e72c      	b.n	800103a <__aeabi_dmul+0x24a>
 80011e0:	ea95 0f0c 	teq	r5, ip
 80011e4:	d106      	bne.n	80011f4 <__aeabi_ddiv+0x1b0>
 80011e6:	ea52 3503 	orrs.w	r5, r2, r3, lsl #12
 80011ea:	f43f aefd 	beq.w	8000fe8 <__aeabi_dmul+0x1f8>
 80011ee:	4610      	mov	r0, r2
 80011f0:	4619      	mov	r1, r3
 80011f2:	e722      	b.n	800103a <__aeabi_dmul+0x24a>
 80011f4:	ea50 0641 	orrs.w	r6, r0, r1, lsl #1
 80011f8:	bf18      	it	ne
 80011fa:	ea52 0643 	orrsne.w	r6, r2, r3, lsl #1
 80011fe:	f47f aec5 	bne.w	8000f8c <__aeabi_dmul+0x19c>
 8001202:	ea50 0441 	orrs.w	r4, r0, r1, lsl #1
 8001206:	f47f af0d 	bne.w	8001024 <__aeabi_dmul+0x234>
 800120a:	ea52 0543 	orrs.w	r5, r2, r3, lsl #1
 800120e:	f47f aeeb 	bne.w	8000fe8 <__aeabi_dmul+0x1f8>
 8001212:	e712      	b.n	800103a <__aeabi_dmul+0x24a>
	...

08001220 <__aeabi_d2iz>:
 8001220:	ea4f 0241 	mov.w	r2, r1, lsl #1
 8001224:	f512 1200 	adds.w	r2, r2, #2097152	; 0x200000
 8001228:	d215      	bcs.n	8001256 <__aeabi_d2iz+0x36>
 800122a:	d511      	bpl.n	8001250 <__aeabi_d2iz+0x30>
 800122c:	f46f 7378 	mvn.w	r3, #992	; 0x3e0
 8001230:	ebb3 5262 	subs.w	r2, r3, r2, asr #21
 8001234:	d912      	bls.n	800125c <__aeabi_d2iz+0x3c>
 8001236:	ea4f 23c1 	mov.w	r3, r1, lsl #11
 800123a:	f043 4300 	orr.w	r3, r3, #2147483648	; 0x80000000
 800123e:	ea43 5350 	orr.w	r3, r3, r0, lsr #21
 8001242:	f011 4f00 	tst.w	r1, #2147483648	; 0x80000000
 8001246:	fa23 f002 	lsr.w	r0, r3, r2
 800124a:	bf18      	it	ne
 800124c:	4240      	negne	r0, r0
 800124e:	4770      	bx	lr
 8001250:	f04f 0000 	mov.w	r0, #0
 8001254:	4770      	bx	lr
 8001256:	ea50 3001 	orrs.w	r0, r0, r1, lsl #12
 800125a:	d105      	bne.n	8001268 <__aeabi_d2iz+0x48>
 800125c:	f011 4000 	ands.w	r0, r1, #2147483648	; 0x80000000
 8001260:	bf08      	it	eq
 8001262:	f06f 4000 	mvneq.w	r0, #2147483648	; 0x80000000
 8001266:	4770      	bx	lr
 8001268:	f04f 0000 	mov.w	r0, #0
 800126c:	4770      	bx	lr
 800126e:	bf00      	nop

08001270 <__aeabi_d2f>:
 8001270:	ea4f 0241 	mov.w	r2, r1, lsl #1
 8001274:	f1b2 43e0 	subs.w	r3, r2, #1879048192	; 0x70000000
 8001278:	bf24      	itt	cs
 800127a:	f5b3 1c00 	subscs.w	ip, r3, #2097152	; 0x200000
 800127e:	f1dc 5cfe 	rsbscs	ip, ip, #532676608	; 0x1fc00000
 8001282:	d90d      	bls.n	80012a0 <__aeabi_d2f+0x30>
 8001284:	f001 4c00 	and.w	ip, r1, #2147483648	; 0x80000000
 8001288:	ea4f 02c0 	mov.w	r2, r0, lsl #3
 800128c:	ea4c 7050 	orr.w	r0, ip, r0, lsr #29
 8001290:	f1b2 4f00 	cmp.w	r2, #2147483648	; 0x80000000
 8001294:	eb40 0083 	adc.w	r0, r0, r3, lsl #2
 8001298:	bf08      	it	eq
 800129a:	f020 0001 	biceq.w	r0, r0, #1
 800129e:	4770      	bx	lr
 80012a0:	f011 4f80 	tst.w	r1, #1073741824	; 0x40000000
 80012a4:	d121      	bne.n	80012ea <__aeabi_d2f+0x7a>
 80012a6:	f113 7238 	adds.w	r2, r3, #48234496	; 0x2e00000
 80012aa:	bfbc      	itt	lt
 80012ac:	f001 4000 	andlt.w	r0, r1, #2147483648	; 0x80000000
 80012b0:	4770      	bxlt	lr
 80012b2:	f441 1180 	orr.w	r1, r1, #1048576	; 0x100000
 80012b6:	ea4f 5252 	mov.w	r2, r2, lsr #21
 80012ba:	f1c2 0218 	rsb	r2, r2, #24
 80012be:	f1c2 0c20 	rsb	ip, r2, #32
 80012c2:	fa10 f30c 	lsls.w	r3, r0, ip
 80012c6:	fa20 f002 	lsr.w	r0, r0, r2
 80012ca:	bf18      	it	ne
 80012cc:	f040 0001 	orrne.w	r0, r0, #1
 80012d0:	ea4f 23c1 	mov.w	r3, r1, lsl #11
 80012d4:	ea4f 23d3 	mov.w	r3, r3, lsr #11
 80012d8:	fa03 fc0c 	lsl.w	ip, r3, ip
 80012dc:	ea40 000c 	orr.w	r0, r0, ip
 80012e0:	fa23 f302 	lsr.w	r3, r3, r2
 80012e4:	ea4f 0343 	mov.w	r3, r3, lsl #1
 80012e8:	e7cc      	b.n	8001284 <__aeabi_d2f+0x14>
 80012ea:	ea7f 5362 	mvns.w	r3, r2, asr #21
 80012ee:	d107      	bne.n	8001300 <__aeabi_d2f+0x90>
 80012f0:	ea50 3301 	orrs.w	r3, r0, r1, lsl #12
 80012f4:	bf1e      	ittt	ne
 80012f6:	f04f 40fe 	movne.w	r0, #2130706432	; 0x7f000000
 80012fa:	f440 0040 	orrne.w	r0, r0, #12582912	; 0xc00000
 80012fe:	4770      	bxne	lr
 8001300:	f001 4000 	and.w	r0, r1, #2147483648	; 0x80000000
 8001304:	f040 40fe 	orr.w	r0, r0, #2130706432	; 0x7f000000
 8001308:	f440 0000 	orr.w	r0, r0, #8388608	; 0x800000
 800130c:	4770      	bx	lr
 800130e:	bf00      	nop

08001310 <gpsRxErr.16068>:
 8001310:	4770      	bx	lr
 8001312:	bf00      	nop
 8001314:	f3af 8000 	nop.w
 8001318:	f3af 8000 	nop.w
 800131c:	f3af 8000 	nop.w

08001320 <gpsRxEnd.16065>:
 8001320:	4770      	bx	lr
 8001322:	bf00      	nop
 8001324:	f3af 8000 	nop.w
 8001328:	f3af 8000 	nop.w
 800132c:	f3af 8000 	nop.w

08001330 <gpsTxC.16062>:
 8001330:	4770      	bx	lr
 8001332:	bf00      	nop
 8001334:	f3af 8000 	nop.w
 8001338:	f3af 8000 	nop.w
 800133c:	f3af 8000 	nop.w

08001340 <gpsTxbufEnd.16059>:
 8001340:	4770      	bx	lr
 8001342:	bf00      	nop
 8001344:	f3af 8000 	nop.w
 8001348:	f3af 8000 	nop.w
 800134c:	f3af 8000 	nop.w

08001350 <long_to_string_with_divisor.13045.4556>:
 8001350:	b4f0      	push	{r4, r5, r6, r7}
 8001352:	2b00      	cmp	r3, #0
 8001354:	bf08      	it	eq
 8001356:	460b      	moveq	r3, r1
 8001358:	f100 070b 	add.w	r7, r0, #11
 800135c:	f100 050a 	add.w	r5, r0, #10
 8001360:	fbb1 f6f2 	udiv	r6, r1, r2
 8001364:	fb02 1116 	mls	r1, r2, r6, r1
 8001368:	f101 0430 	add.w	r4, r1, #48	; 0x30
 800136c:	2c39      	cmp	r4, #57	; 0x39
 800136e:	bfc8      	it	gt
 8001370:	f101 0437 	addgt.w	r4, r1, #55	; 0x37
 8001374:	b2e4      	uxtb	r4, r4
 8001376:	fbb3 f3f2 	udiv	r3, r3, r2
 800137a:	4631      	mov	r1, r6
 800137c:	462e      	mov	r6, r5
 800137e:	f805 4901 	strb.w	r4, [r5], #-1
 8001382:	2b00      	cmp	r3, #0
 8001384:	d1ec      	bne.n	8001360 <long_to_string_with_divisor.13045.4556+0x10>
 8001386:	1bba      	subs	r2, r7, r6
 8001388:	4633      	mov	r3, r6
 800138a:	4402      	add	r2, r0
 800138c:	e001      	b.n	8001392 <long_to_string_with_divisor.13045.4556+0x42>
 800138e:	f813 4f01 	ldrb.w	r4, [r3, #1]!
 8001392:	f800 4b01 	strb.w	r4, [r0], #1
 8001396:	4290      	cmp	r0, r2
 8001398:	d1f9      	bne.n	800138e <long_to_string_with_divisor.13045.4556+0x3e>
 800139a:	bcf0      	pop	{r4, r5, r6, r7}
 800139c:	4770      	bx	lr
 800139e:	bf00      	nop

080013a0 <chvprintf.4542>:
 80013a0:	e92d 4ff0 	stmdb	sp!, {r4, r5, r6, r7, r8, r9, sl, fp, lr}
 80013a4:	ed2d 8b02 	vpush	{d8}
 80013a8:	b08d      	sub	sp, #52	; 0x34
 80013aa:	ab06      	add	r3, sp, #24
 80013ac:	9304      	str	r3, [sp, #16]
 80013ae:	4606      	mov	r6, r0
 80013b0:	9804      	ldr	r0, [sp, #16]
 80013b2:	f10d 0319 	add.w	r3, sp, #25
 80013b6:	1a18      	subs	r0, r3, r0
 80013b8:	9301      	str	r3, [sp, #4]
 80013ba:	460c      	mov	r4, r1
 80013bc:	4617      	mov	r7, r2
 80013be:	9005      	str	r0, [sp, #20]
 80013c0:	f04f 0800 	mov.w	r8, #0
 80013c4:	7821      	ldrb	r1, [r4, #0]
 80013c6:	1c63      	adds	r3, r4, #1
 80013c8:	b161      	cbz	r1, 80013e4 <chvprintf.4542+0x44>
 80013ca:	2925      	cmp	r1, #37	; 0x25
 80013cc:	d010      	beq.n	80013f0 <chvprintf.4542+0x50>
 80013ce:	6832      	ldr	r2, [r6, #0]
 80013d0:	461c      	mov	r4, r3
 80013d2:	6892      	ldr	r2, [r2, #8]
 80013d4:	4630      	mov	r0, r6
 80013d6:	4790      	blx	r2
 80013d8:	7821      	ldrb	r1, [r4, #0]
 80013da:	f108 0801 	add.w	r8, r8, #1
 80013de:	1c63      	adds	r3, r4, #1
 80013e0:	2900      	cmp	r1, #0
 80013e2:	d1f2      	bne.n	80013ca <chvprintf.4542+0x2a>
 80013e4:	4640      	mov	r0, r8
 80013e6:	b00d      	add	sp, #52	; 0x34
 80013e8:	ecbd 8b02 	vpop	{d8}
 80013ec:	e8bd 8ff0 	ldmia.w	sp!, {r4, r5, r6, r7, r8, r9, sl, fp, pc}
 80013f0:	7862      	ldrb	r2, [r4, #1]
 80013f2:	2a2d      	cmp	r2, #45	; 0x2d
 80013f4:	bf03      	ittte	eq
 80013f6:	78a2      	ldrbeq	r2, [r4, #2]
 80013f8:	1ca3      	addeq	r3, r4, #2
 80013fa:	f04f 0c01 	moveq.w	ip, #1
 80013fe:	f04f 0c00 	movne.w	ip, #0
 8001402:	2a30      	cmp	r2, #48	; 0x30
 8001404:	bf03      	ittte	eq
 8001406:	785a      	ldrbeq	r2, [r3, #1]
 8001408:	3301      	addeq	r3, #1
 800140a:	2530      	moveq	r5, #48	; 0x30
 800140c:	2520      	movne	r5, #32
 800140e:	461c      	mov	r4, r3
 8001410:	f04f 0900 	mov.w	r9, #0
 8001414:	e006      	b.n	8001424 <chvprintf.4542+0x84>
 8001416:	783b      	ldrb	r3, [r7, #0]
 8001418:	3704      	adds	r7, #4
 800141a:	eb09 0989 	add.w	r9, r9, r9, lsl #2
 800141e:	7822      	ldrb	r2, [r4, #0]
 8001420:	eb03 0949 	add.w	r9, r3, r9, lsl #1
 8001424:	f1a2 0330 	sub.w	r3, r2, #48	; 0x30
 8001428:	b2db      	uxtb	r3, r3
 800142a:	2b09      	cmp	r3, #9
 800142c:	f104 0401 	add.w	r4, r4, #1
 8001430:	d9f3      	bls.n	800141a <chvprintf.4542+0x7a>
 8001432:	2a2a      	cmp	r2, #42	; 0x2a
 8001434:	d0ef      	beq.n	8001416 <chvprintf.4542+0x76>
 8001436:	2a2e      	cmp	r2, #46	; 0x2e
 8001438:	f04f 0b00 	mov.w	fp, #0
 800143c:	d045      	beq.n	80014ca <chvprintf.4542+0x12a>
 800143e:	f002 03df 	and.w	r3, r2, #223	; 0xdf
 8001442:	2b4c      	cmp	r3, #76	; 0x4c
 8001444:	d04e      	beq.n	80014e4 <chvprintf.4542+0x144>
 8001446:	f1a2 0344 	sub.w	r3, r2, #68	; 0x44
 800144a:	2b34      	cmp	r3, #52	; 0x34
 800144c:	f200 813b 	bhi.w	80016c6 <chvprintf.4542+0x326>
 8001450:	e8df f013 	tbh	[pc, r3, lsl #1]
 8001454:	01390124 	.word	0x01390124
 8001458:	01390139 	.word	0x01390139
 800145c:	01240139 	.word	0x01240139
 8001460:	01390139 	.word	0x01390139
 8001464:	01390139 	.word	0x01390139
 8001468:	01220139 	.word	0x01220139
 800146c:	01390139 	.word	0x01390139
 8001470:	01390139 	.word	0x01390139
 8001474:	004e0139 	.word	0x004e0139
 8001478:	01390139 	.word	0x01390139
 800147c:	013900c1 	.word	0x013900c1
 8001480:	01390139 	.word	0x01390139
 8001484:	01390139 	.word	0x01390139
 8001488:	01390139 	.word	0x01390139
 800148c:	01390139 	.word	0x01390139
 8001490:	01170139 	.word	0x01170139
 8001494:	01390124 	.word	0x01390124
 8001498:	013900c3 	.word	0x013900c3
 800149c:	01240139 	.word	0x01240139
 80014a0:	01390139 	.word	0x01390139
 80014a4:	01390139 	.word	0x01390139
 80014a8:	01220139 	.word	0x01220139
 80014ac:	01390139 	.word	0x01390139
 80014b0:	009d0139 	.word	0x009d0139
 80014b4:	004e0139 	.word	0x004e0139
 80014b8:	01390139 	.word	0x01390139
 80014bc:	00c1      	.short	0x00c1
 80014be:	783b      	ldrb	r3, [r7, #0]
 80014c0:	3704      	adds	r7, #4
 80014c2:	eb0b 0b8b 	add.w	fp, fp, fp, lsl #2
 80014c6:	eb03 0b4b 	add.w	fp, r3, fp, lsl #1
 80014ca:	f814 2b01 	ldrb.w	r2, [r4], #1
 80014ce:	f1a2 0330 	sub.w	r3, r2, #48	; 0x30
 80014d2:	b2db      	uxtb	r3, r3
 80014d4:	2b09      	cmp	r3, #9
 80014d6:	d9f4      	bls.n	80014c2 <chvprintf.4542+0x122>
 80014d8:	2a2a      	cmp	r2, #42	; 0x2a
 80014da:	d0f0      	beq.n	80014be <chvprintf.4542+0x11e>
 80014dc:	f002 03df 	and.w	r3, r2, #223	; 0xdf
 80014e0:	2b4c      	cmp	r3, #76	; 0x4c
 80014e2:	d1b0      	bne.n	8001446 <chvprintf.4542+0xa6>
 80014e4:	7823      	ldrb	r3, [r4, #0]
 80014e6:	2b00      	cmp	r3, #0
 80014e8:	d0ad      	beq.n	8001446 <chvprintf.4542+0xa6>
 80014ea:	3401      	adds	r4, #1
 80014ec:	461a      	mov	r2, r3
 80014ee:	e7aa      	b.n	8001446 <chvprintf.4542+0xa6>
 80014f0:	220a      	movs	r2, #10
 80014f2:	6839      	ldr	r1, [r7, #0]
 80014f4:	f8cd c000 	str.w	ip, [sp]
 80014f8:	3704      	adds	r7, #4
 80014fa:	a806      	add	r0, sp, #24
 80014fc:	2300      	movs	r3, #0
 80014fe:	f7ff ff27 	bl	8001350 <long_to_string_with_divisor.13045.4556>
 8001502:	9a04      	ldr	r2, [sp, #16]
 8001504:	f8dd c000 	ldr.w	ip, [sp]
 8001508:	1a80      	subs	r0, r0, r2
 800150a:	1e43      	subs	r3, r0, #1
 800150c:	9302      	str	r3, [sp, #8]
 800150e:	f10d 0a18 	add.w	sl, sp, #24
 8001512:	ebc0 0909 	rsb	r9, r0, r9
 8001516:	ea29 79e9 	bic.w	r9, r9, r9, asr #31
 800151a:	f1bc 0f00 	cmp.w	ip, #0
 800151e:	d115      	bne.n	800154c <chvprintf.4542+0x1ac>
 8001520:	f1c9 0900 	rsb	r9, r9, #0
 8001524:	f1b9 0f00 	cmp.w	r9, #0
 8001528:	d010      	beq.n	800154c <chvprintf.4542+0x1ac>
 800152a:	f89a 1000 	ldrb.w	r1, [sl]
 800152e:	292d      	cmp	r1, #45	; 0x2d
 8001530:	f000 80d1 	beq.w	80016d6 <chvprintf.4542+0x336>
 8001534:	46cb      	mov	fp, r9
 8001536:	6833      	ldr	r3, [r6, #0]
 8001538:	4630      	mov	r0, r6
 800153a:	689b      	ldr	r3, [r3, #8]
 800153c:	4629      	mov	r1, r5
 800153e:	4798      	blx	r3
 8001540:	f11b 0b01 	adds.w	fp, fp, #1
 8001544:	d1f7      	bne.n	8001536 <chvprintf.4542+0x196>
 8001546:	ebc9 0808 	rsb	r8, r9, r8
 800154a:	46d9      	mov	r9, fp
 800154c:	9b02      	ldr	r3, [sp, #8]
 800154e:	2b00      	cmp	r3, #0
 8001550:	db0e      	blt.n	8001570 <chvprintf.4542+0x1d0>
 8001552:	f10a 3bff 	add.w	fp, sl, #4294967295	; 0xffffffff
 8001556:	449a      	add	sl, r3
 8001558:	6833      	ldr	r3, [r6, #0]
 800155a:	f81b 1f01 	ldrb.w	r1, [fp, #1]!
 800155e:	689b      	ldr	r3, [r3, #8]
 8001560:	4630      	mov	r0, r6
 8001562:	4798      	blx	r3
 8001564:	45d3      	cmp	fp, sl
 8001566:	d1f7      	bne.n	8001558 <chvprintf.4542+0x1b8>
 8001568:	9a02      	ldr	r2, [sp, #8]
 800156a:	f108 0801 	add.w	r8, r8, #1
 800156e:	4490      	add	r8, r2
 8001570:	f1b9 0f00 	cmp.w	r9, #0
 8001574:	f43f af26 	beq.w	80013c4 <chvprintf.4542+0x24>
 8001578:	46ca      	mov	sl, r9
 800157a:	6833      	ldr	r3, [r6, #0]
 800157c:	4630      	mov	r0, r6
 800157e:	689b      	ldr	r3, [r3, #8]
 8001580:	4629      	mov	r1, r5
 8001582:	4798      	blx	r3
 8001584:	f1ba 0a01 	subs.w	sl, sl, #1
 8001588:	d1f7      	bne.n	800157a <chvprintf.4542+0x1da>
 800158a:	44c8      	add	r8, r9
 800158c:	e71a      	b.n	80013c4 <chvprintf.4542+0x24>
 800158e:	f8d7 a000 	ldr.w	sl, [r7]
 8001592:	4b65      	ldr	r3, [pc, #404]	; (8001728 <chvprintf.4542+0x388>)
 8001594:	f1ba 0f00 	cmp.w	sl, #0
 8001598:	bf08      	it	eq
 800159a:	469a      	moveq	sl, r3
 800159c:	f647 73ff 	movw	r3, #32767	; 0x7fff
 80015a0:	f89a 0000 	ldrb.w	r0, [sl]
 80015a4:	3704      	adds	r7, #4
 80015a6:	f1bb 0f00 	cmp.w	fp, #0
 80015aa:	bf08      	it	eq
 80015ac:	469b      	moveq	fp, r3
 80015ae:	2800      	cmp	r0, #0
 80015b0:	f000 80b5 	beq.w	800171e <chvprintf.4542+0x37e>
 80015b4:	eb0b 000a 	add.w	r0, fp, sl
 80015b8:	4653      	mov	r3, sl
 80015ba:	e002      	b.n	80015c2 <chvprintf.4542+0x222>
 80015bc:	4298      	cmp	r0, r3
 80015be:	f000 8099 	beq.w	80016f4 <chvprintf.4542+0x354>
 80015c2:	785a      	ldrb	r2, [r3, #1]
 80015c4:	3301      	adds	r3, #1
 80015c6:	2a00      	cmp	r2, #0
 80015c8:	d1f8      	bne.n	80015bc <chvprintf.4542+0x21c>
 80015ca:	ebca 0003 	rsb	r0, sl, r3
 80015ce:	1e43      	subs	r3, r0, #1
 80015d0:	9302      	str	r3, [sp, #8]
 80015d2:	2520      	movs	r5, #32
 80015d4:	e79d      	b.n	8001512 <chvprintf.4542+0x172>
 80015d6:	2210      	movs	r2, #16
 80015d8:	e78b      	b.n	80014f2 <chvprintf.4542+0x152>
 80015da:	3707      	adds	r7, #7
 80015dc:	f027 0707 	bic.w	r7, r7, #7
 80015e0:	e9d7 0100 	ldrd	r0, r1, [r7]
 80015e4:	f8cd c000 	str.w	ip, [sp]
 80015e8:	f7ff fe42 	bl	8001270 <__aeabi_d2f>
 80015ec:	ee08 0a10 	vmov	s16, r0
 80015f0:	eeb5 8ac0 	vcmpe.f32	s16, #0.0
 80015f4:	eef1 fa10 	vmrs	APSR_nzcv, fpscr
 80015f8:	f107 0708 	add.w	r7, r7, #8
 80015fc:	f8dd c000 	ldr.w	ip, [sp]
 8001600:	f100 8085 	bmi.w	800170e <chvprintf.4542+0x36e>
 8001604:	a806      	add	r0, sp, #24
 8001606:	eefd 8ac8 	vcvt.s32.f32	s17, s16
 800160a:	f10b 3bff 	add.w	fp, fp, #4294967295	; 0xffffffff
 800160e:	f8df e120 	ldr.w	lr, [pc, #288]	; 8001730 <chvprintf.4542+0x390>
 8001612:	f8cd c000 	str.w	ip, [sp]
 8001616:	f1bb 0f08 	cmp.w	fp, #8
 800161a:	bf28      	it	cs
 800161c:	f04f 0b08 	movcs.w	fp, #8
 8001620:	220a      	movs	r2, #10
 8001622:	ee18 1a90 	vmov	r1, s17
 8001626:	2300      	movs	r3, #0
 8001628:	f85e b02b 	ldr.w	fp, [lr, fp, lsl #2]
 800162c:	f7ff fe90 	bl	8001350 <long_to_string_with_divisor.13045.4556>
 8001630:	4682      	mov	sl, r0
 8001632:	232e      	movs	r3, #46	; 0x2e
 8001634:	f80a 3b01 	strb.w	r3, [sl], #1
 8001638:	ee18 0a10 	vmov	r0, s16
 800163c:	f7ff fb84 	bl	8000d48 <__aeabi_f2d>
 8001640:	e9cd 0102 	strd	r0, r1, [sp, #8]
 8001644:	ee18 0a90 	vmov	r0, s17
 8001648:	f7ff fb6c 	bl	8000d24 <__aeabi_i2d>
 800164c:	4602      	mov	r2, r0
 800164e:	460b      	mov	r3, r1
 8001650:	e9dd 0102 	ldrd	r0, r1, [sp, #8]
 8001654:	f7ff fa18 	bl	8000a88 <__aeabi_dsub>
 8001658:	e9cd 0102 	strd	r0, r1, [sp, #8]
 800165c:	4658      	mov	r0, fp
 800165e:	f7ff fb51 	bl	8000d04 <__aeabi_ui2d>
 8001662:	4602      	mov	r2, r0
 8001664:	460b      	mov	r3, r1
 8001666:	e9dd 0102 	ldrd	r0, r1, [sp, #8]
 800166a:	f7ff fbc1 	bl	8000df0 <__aeabi_dmul>
 800166e:	f7ff fdd7 	bl	8001220 <__aeabi_d2iz>
 8001672:	4b2e      	ldr	r3, [pc, #184]	; (800172c <chvprintf.4542+0x38c>)
 8001674:	4601      	mov	r1, r0
 8001676:	fba3 030b 	umull	r0, r3, r3, fp
 800167a:	08db      	lsrs	r3, r3, #3
 800167c:	4650      	mov	r0, sl
 800167e:	220a      	movs	r2, #10
 8001680:	e73d      	b.n	80014fe <chvprintf.4542+0x15e>
 8001682:	9805      	ldr	r0, [sp, #20]
 8001684:	683b      	ldr	r3, [r7, #0]
 8001686:	f88d 3018 	strb.w	r3, [sp, #24]
 800168a:	1e42      	subs	r2, r0, #1
 800168c:	3704      	adds	r7, #4
 800168e:	9202      	str	r2, [sp, #8]
 8001690:	2520      	movs	r5, #32
 8001692:	f10d 0a18 	add.w	sl, sp, #24
 8001696:	e73c      	b.n	8001512 <chvprintf.4542+0x172>
 8001698:	2208      	movs	r2, #8
 800169a:	e72a      	b.n	80014f2 <chvprintf.4542+0x152>
 800169c:	6839      	ldr	r1, [r7, #0]
 800169e:	2900      	cmp	r1, #0
 80016a0:	f107 0704 	add.w	r7, r7, #4
 80016a4:	db2c      	blt.n	8001700 <chvprintf.4542+0x360>
 80016a6:	a806      	add	r0, sp, #24
 80016a8:	220a      	movs	r2, #10
 80016aa:	2300      	movs	r3, #0
 80016ac:	f8cd c000 	str.w	ip, [sp]
 80016b0:	f7ff fe4e 	bl	8001350 <long_to_string_with_divisor.13045.4556>
 80016b4:	9b04      	ldr	r3, [sp, #16]
 80016b6:	f8dd c000 	ldr.w	ip, [sp]
 80016ba:	1ac0      	subs	r0, r0, r3
 80016bc:	1e42      	subs	r2, r0, #1
 80016be:	9202      	str	r2, [sp, #8]
 80016c0:	f10d 0a18 	add.w	sl, sp, #24
 80016c4:	e725      	b.n	8001512 <chvprintf.4542+0x172>
 80016c6:	9805      	ldr	r0, [sp, #20]
 80016c8:	f88d 2018 	strb.w	r2, [sp, #24]
 80016cc:	1e42      	subs	r2, r0, #1
 80016ce:	9202      	str	r2, [sp, #8]
 80016d0:	f10d 0a18 	add.w	sl, sp, #24
 80016d4:	e71d      	b.n	8001512 <chvprintf.4542+0x172>
 80016d6:	2d30      	cmp	r5, #48	; 0x30
 80016d8:	f47f af2c 	bne.w	8001534 <chvprintf.4542+0x194>
 80016dc:	6833      	ldr	r3, [r6, #0]
 80016de:	4630      	mov	r0, r6
 80016e0:	689b      	ldr	r3, [r3, #8]
 80016e2:	4798      	blx	r3
 80016e4:	9a02      	ldr	r2, [sp, #8]
 80016e6:	3a01      	subs	r2, #1
 80016e8:	f10a 0a01 	add.w	sl, sl, #1
 80016ec:	f108 0801 	add.w	r8, r8, #1
 80016f0:	9202      	str	r2, [sp, #8]
 80016f2:	e71f      	b.n	8001534 <chvprintf.4542+0x194>
 80016f4:	ebca 0000 	rsb	r0, sl, r0
 80016f8:	1e42      	subs	r2, r0, #1
 80016fa:	9202      	str	r2, [sp, #8]
 80016fc:	2520      	movs	r5, #32
 80016fe:	e708      	b.n	8001512 <chvprintf.4542+0x172>
 8001700:	232d      	movs	r3, #45	; 0x2d
 8001702:	4249      	negs	r1, r1
 8001704:	f88d 3018 	strb.w	r3, [sp, #24]
 8001708:	f10d 0019 	add.w	r0, sp, #25
 800170c:	e7cc      	b.n	80016a8 <chvprintf.4542+0x308>
 800170e:	232d      	movs	r3, #45	; 0x2d
 8001710:	eeb1 8a48 	vneg.f32	s16, s16
 8001714:	f88d 3018 	strb.w	r3, [sp, #24]
 8001718:	f10d 0019 	add.w	r0, sp, #25
 800171c:	e773      	b.n	8001606 <chvprintf.4542+0x266>
 800171e:	f04f 33ff 	mov.w	r3, #4294967295	; 0xffffffff
 8001722:	9302      	str	r3, [sp, #8]
 8001724:	2520      	movs	r5, #32
 8001726:	e6f4      	b.n	8001512 <chvprintf.4542+0x172>
 8001728:	080046c0 	.word	0x080046c0
 800172c:	cccccccd 	.word	0xcccccccd
 8001730:	080046f0 	.word	0x080046f0
 8001734:	f3af 8000 	nop.w
 8001738:	f3af 8000 	nop.w
 800173c:	f3af 8000 	nop.w

08001740 <notify6.12010>:
 8001740:	4b02      	ldr	r3, [pc, #8]	; (800174c <notify6.12010+0xc>)
 8001742:	68da      	ldr	r2, [r3, #12]
 8001744:	f042 0280 	orr.w	r2, r2, #128	; 0x80
 8001748:	60da      	str	r2, [r3, #12]
 800174a:	4770      	bx	lr
 800174c:	40011400 	.word	0x40011400

08001750 <notify2.12013>:
 8001750:	4b02      	ldr	r3, [pc, #8]	; (800175c <notify2.12013+0xc>)
 8001752:	68da      	ldr	r2, [r3, #12]
 8001754:	f042 0280 	orr.w	r2, r2, #128	; 0x80
 8001758:	60da      	str	r2, [r3, #12]
 800175a:	4770      	bx	lr
 800175c:	40004400 	.word	0x40004400

08001760 <chSchWakeupS.constprop.38.4346>:
 8001760:	f8df c058 	ldr.w	ip, [pc, #88]	; 80017bc <chSchWakeupS.constprop.38.4346+0x5c>
 8001764:	b4f0      	push	{r4, r5, r6, r7}
 8001766:	f8dc 7018 	ldr.w	r7, [ip, #24]
 800176a:	6885      	ldr	r5, [r0, #8]
 800176c:	68bc      	ldr	r4, [r7, #8]
 800176e:	2300      	movs	r3, #0
 8001770:	42a5      	cmp	r5, r4
 8001772:	4606      	mov	r6, r0
 8001774:	6203      	str	r3, [r0, #32]
 8001776:	d80c      	bhi.n	8001792 <chSchWakeupS.constprop.38.4346+0x32>
 8001778:	7703      	strb	r3, [r0, #28]
 800177a:	4663      	mov	r3, ip
 800177c:	681b      	ldr	r3, [r3, #0]
 800177e:	689a      	ldr	r2, [r3, #8]
 8001780:	4295      	cmp	r5, r2
 8001782:	d9fb      	bls.n	800177c <chSchWakeupS.constprop.38.4346+0x1c>
 8001784:	685a      	ldr	r2, [r3, #4]
 8001786:	6072      	str	r2, [r6, #4]
 8001788:	6033      	str	r3, [r6, #0]
 800178a:	605e      	str	r6, [r3, #4]
 800178c:	6016      	str	r6, [r2, #0]
 800178e:	bcf0      	pop	{r4, r5, r6, r7}
 8001790:	4770      	bx	lr
 8001792:	773b      	strb	r3, [r7, #28]
 8001794:	4663      	mov	r3, ip
 8001796:	681b      	ldr	r3, [r3, #0]
 8001798:	689a      	ldr	r2, [r3, #8]
 800179a:	4294      	cmp	r4, r2
 800179c:	d9fb      	bls.n	8001796 <chSchWakeupS.constprop.38.4346+0x36>
 800179e:	685a      	ldr	r2, [r3, #4]
 80017a0:	607a      	str	r2, [r7, #4]
 80017a2:	2401      	movs	r4, #1
 80017a4:	603b      	str	r3, [r7, #0]
 80017a6:	605f      	str	r7, [r3, #4]
 80017a8:	6017      	str	r7, [r2, #0]
 80017aa:	7734      	strb	r4, [r6, #28]
 80017ac:	4639      	mov	r1, r7
 80017ae:	4630      	mov	r0, r6
 80017b0:	f8cc 6018 	str.w	r6, [ip, #24]
 80017b4:	bcf0      	pop	{r4, r5, r6, r7}
 80017b6:	f7ff b94b 	b.w	8000a50 <_port_switch>
 80017ba:	bf00      	nop
 80017bc:	20002ef0 	.word	0x20002ef0

080017c0 <i2c_lld_serve_rx_end_irq.11402>:
 80017c0:	f011 0f0c 	tst.w	r1, #12
 80017c4:	b538      	push	{r3, r4, r5, lr}
 80017c6:	6b43      	ldr	r3, [r0, #52]	; 0x34
 80017c8:	d124      	bne.n	8001814 <i2c_lld_serve_rx_end_irq.11402+0x54>
 80017ca:	6ac1      	ldr	r1, [r0, #44]	; 0x2c
 80017cc:	680c      	ldr	r4, [r1, #0]
 80017ce:	6822      	ldr	r2, [r4, #0]
 80017d0:	f022 021f 	bic.w	r2, r2, #31
 80017d4:	6022      	str	r2, [r4, #0]
 80017d6:	6822      	ldr	r2, [r4, #0]
 80017d8:	f012 0501 	ands.w	r5, r2, #1
 80017dc:	d1fb      	bne.n	80017d6 <i2c_lld_serve_rx_end_irq.11402+0x16>
 80017de:	7a0c      	ldrb	r4, [r1, #8]
 80017e0:	684a      	ldr	r2, [r1, #4]
 80017e2:	213d      	movs	r1, #61	; 0x3d
 80017e4:	40a1      	lsls	r1, r4
 80017e6:	6011      	str	r1, [r2, #0]
 80017e8:	685a      	ldr	r2, [r3, #4]
 80017ea:	f422 5280 	bic.w	r2, r2, #4096	; 0x1000
 80017ee:	605a      	str	r2, [r3, #4]
 80017f0:	681a      	ldr	r2, [r3, #0]
 80017f2:	f422 6280 	bic.w	r2, r2, #1024	; 0x400
 80017f6:	601a      	str	r2, [r3, #0]
 80017f8:	681a      	ldr	r2, [r3, #0]
 80017fa:	f442 7200 	orr.w	r2, r2, #512	; 0x200
 80017fe:	601a      	str	r2, [r3, #0]
 8001800:	2320      	movs	r3, #32
 8001802:	f383 8811 	msr	BASEPRI, r3
 8001806:	301c      	adds	r0, #28
 8001808:	4629      	mov	r1, r5
 800180a:	f001 fff9 	bl	8003800 <chThdResumeI>
 800180e:	f385 8811 	msr	BASEPRI, r5
 8001812:	bd38      	pop	{r3, r4, r5, pc}
 8001814:	b672      	cpsid	i
 8001816:	4b02      	ldr	r3, [pc, #8]	; (8001820 <i2c_lld_serve_rx_end_irq.11402+0x60>)
 8001818:	4a02      	ldr	r2, [pc, #8]	; (8001824 <i2c_lld_serve_rx_end_irq.11402+0x64>)
 800181a:	62da      	str	r2, [r3, #44]	; 0x2c
 800181c:	e7fe      	b.n	800181c <i2c_lld_serve_rx_end_irq.11402+0x5c>
 800181e:	bf00      	nop
 8001820:	20002ef0 	.word	0x20002ef0
 8001824:	080046c8 	.word	0x080046c8
 8001828:	f3af 8000 	nop.w
 800182c:	f3af 8000 	nop.w

08001830 <VectorD4>:
 8001830:	b570      	push	{r4, r5, r6, lr}
 8001832:	4e1a      	ldr	r6, [pc, #104]	; (800189c <VectorD4+0x6c>)
 8001834:	68b4      	ldr	r4, [r6, #8]
 8001836:	6825      	ldr	r5, [r4, #0]
 8001838:	6863      	ldr	r3, [r4, #4]
 800183a:	f240 130f 	movw	r3, #271	; 0x10f
 800183e:	402b      	ands	r3, r5
 8001840:	b1eb      	cbz	r3, 800187e <VectorD4+0x4e>
 8001842:	6873      	ldr	r3, [r6, #4]
 8001844:	691a      	ldr	r2, [r3, #16]
 8001846:	f46f 7380 	mvn.w	r3, #256	; 0x100
 800184a:	6023      	str	r3, [r4, #0]
 800184c:	b1ba      	cbz	r2, 800187e <VectorD4+0x4e>
 800184e:	b2ab      	uxth	r3, r5
 8001850:	f013 0f08 	tst.w	r3, #8
 8001854:	bf14      	ite	ne
 8001856:	2110      	movne	r1, #16
 8001858:	2100      	moveq	r1, #0
 800185a:	07d8      	lsls	r0, r3, #31
 800185c:	bf48      	it	mi
 800185e:	f041 0104 	orrmi.w	r1, r1, #4
 8001862:	0798      	lsls	r0, r3, #30
 8001864:	bf48      	it	mi
 8001866:	f041 0108 	orrmi.w	r1, r1, #8
 800186a:	0758      	lsls	r0, r3, #29
 800186c:	bf48      	it	mi
 800186e:	f041 0120 	orrmi.w	r1, r1, #32
 8001872:	05d8      	lsls	r0, r3, #23
 8001874:	bf48      	it	mi
 8001876:	f041 0140 	orrmi.w	r1, r1, #64	; 0x40
 800187a:	4808      	ldr	r0, [pc, #32]	; (800189c <VectorD4+0x6c>)
 800187c:	4790      	blx	r2
 800187e:	066b      	lsls	r3, r5, #25
 8001880:	d507      	bpl.n	8001892 <VectorD4+0x62>
 8001882:	6873      	ldr	r3, [r6, #4]
 8001884:	685b      	ldr	r3, [r3, #4]
 8001886:	f06f 0240 	mvn.w	r2, #64	; 0x40
 800188a:	6022      	str	r2, [r4, #0]
 800188c:	b10b      	cbz	r3, 8001892 <VectorD4+0x62>
 800188e:	4803      	ldr	r0, [pc, #12]	; (800189c <VectorD4+0x6c>)
 8001890:	4798      	blx	r3
 8001892:	e8bd 4070 	ldmia.w	sp!, {r4, r5, r6, lr}
 8001896:	f001 bd4b 	b.w	8003330 <_port_irq_epilogue>
 800189a:	bf00      	nop
 800189c:	200010b8 	.word	0x200010b8

080018a0 <gpsRxChar.16077>:
 80018a0:	b510      	push	{r4, lr}
 80018a2:	4b21      	ldr	r3, [pc, #132]	; (8001928 <gpsRxChar.16077+0x88>)
 80018a4:	290a      	cmp	r1, #10
 80018a6:	f893 20cc 	ldrb.w	r2, [r3, #204]	; 0xcc
 80018aa:	d00c      	beq.n	80018c6 <gpsRxChar.16077+0x26>
 80018ac:	2a63      	cmp	r2, #99	; 0x63
 80018ae:	d809      	bhi.n	80018c4 <gpsRxChar.16077+0x24>
 80018b0:	f893 00cd 	ldrb.w	r0, [r3, #205]	; 0xcd
 80018b4:	2464      	movs	r4, #100	; 0x64
 80018b6:	fb04 3000 	mla	r0, r4, r0, r3
 80018ba:	3004      	adds	r0, #4
 80018bc:	1c54      	adds	r4, r2, #1
 80018be:	f883 40cc 	strb.w	r4, [r3, #204]	; 0xcc
 80018c2:	5481      	strb	r1, [r0, r2]
 80018c4:	bd10      	pop	{r4, pc}
 80018c6:	2a63      	cmp	r2, #99	; 0x63
 80018c8:	d807      	bhi.n	80018da <gpsRxChar.16077+0x3a>
 80018ca:	f893 10cd 	ldrb.w	r1, [r3, #205]	; 0xcd
 80018ce:	2064      	movs	r0, #100	; 0x64
 80018d0:	fb00 3101 	mla	r1, r0, r1, r3
 80018d4:	3104      	adds	r1, #4
 80018d6:	2000      	movs	r0, #0
 80018d8:	5488      	strb	r0, [r1, r2]
 80018da:	f893 20cd 	ldrb.w	r2, [r3, #205]	; 0xcd
 80018de:	2100      	movs	r1, #0
 80018e0:	f082 0201 	eor.w	r2, r2, #1
 80018e4:	f883 20cd 	strb.w	r2, [r3, #205]	; 0xcd
 80018e8:	f883 10cc 	strb.w	r1, [r3, #204]	; 0xcc
 80018ec:	2320      	movs	r3, #32
 80018ee:	f383 8811 	msr	BASEPRI, r3
 80018f2:	f383 8811 	msr	BASEPRI, r3
 80018f6:	4b0d      	ldr	r3, [pc, #52]	; (800192c <gpsRxChar.16077+0x8c>)
 80018f8:	689a      	ldr	r2, [r3, #8]
 80018fa:	428a      	cmp	r2, r1
 80018fc:	dd07      	ble.n	800190e <gpsRxChar.16077+0x6e>
 80018fe:	f001 fcef 	bl	80032e0 <chSchRescheduleS>
 8001902:	2300      	movs	r3, #0
 8001904:	f383 8811 	msr	BASEPRI, r3
 8001908:	f383 8811 	msr	BASEPRI, r3
 800190c:	bd10      	pop	{r4, pc}
 800190e:	3201      	adds	r2, #1
 8001910:	2a01      	cmp	r2, #1
 8001912:	609a      	str	r2, [r3, #8]
 8001914:	d0f3      	beq.n	80018fe <gpsRxChar.16077+0x5e>
 8001916:	681a      	ldr	r2, [r3, #0]
 8001918:	6810      	ldr	r0, [r2, #0]
 800191a:	6018      	str	r0, [r3, #0]
 800191c:	6043      	str	r3, [r0, #4]
 800191e:	4610      	mov	r0, r2
 8001920:	6211      	str	r1, [r2, #32]
 8001922:	f001 febd 	bl	80036a0 <chSchReadyI>
 8001926:	e7ea      	b.n	80018fe <gpsRxChar.16077+0x5e>
 8001928:	200008a0 	.word	0x200008a0
 800192c:	20002ee4 	.word	0x20002ee4

08001930 <Vector164>:
 8001930:	4807      	ldr	r0, [pc, #28]	; (8001950 <Vector164+0x20>)
 8001932:	b508      	push	{r3, lr}
 8001934:	6b43      	ldr	r3, [r0, #52]	; 0x34
 8001936:	6959      	ldr	r1, [r3, #20]
 8001938:	b289      	uxth	r1, r1
 800193a:	f401 425f 	and.w	r2, r1, #57088	; 0xdf00
 800193e:	43d2      	mvns	r2, r2
 8001940:	615a      	str	r2, [r3, #20]
 8001942:	f001 ff6d 	bl	8003820 <i2c_lld_serve_error_interrupt.11412>
 8001946:	e8bd 4008 	ldmia.w	sp!, {r3, lr}
 800194a:	f001 bcf1 	b.w	8003330 <_port_irq_epilogue>
 800194e:	bf00      	nop
 8001950:	20002e98 	.word	0x20002e98
 8001954:	f3af 8000 	nop.w
 8001958:	f3af 8000 	nop.w
 800195c:	f3af 8000 	nop.w

08001960 <VectorC0>:
 8001960:	4807      	ldr	r0, [pc, #28]	; (8001980 <VectorC0+0x20>)
 8001962:	b508      	push	{r3, lr}
 8001964:	6b43      	ldr	r3, [r0, #52]	; 0x34
 8001966:	6959      	ldr	r1, [r3, #20]
 8001968:	b289      	uxth	r1, r1
 800196a:	f401 425f 	and.w	r2, r1, #57088	; 0xdf00
 800196e:	43d2      	mvns	r2, r2
 8001970:	615a      	str	r2, [r3, #20]
 8001972:	f001 ff55 	bl	8003820 <i2c_lld_serve_error_interrupt.11412>
 8001976:	e8bd 4008 	ldmia.w	sp!, {r3, lr}
 800197a:	f001 bcd9 	b.w	8003330 <_port_irq_epilogue>
 800197e:	bf00      	nop
 8001980:	20002e60 	.word	0x20002e60
 8001984:	f3af 8000 	nop.w
 8001988:	f3af 8000 	nop.w
 800198c:	f3af 8000 	nop.w

08001990 <Vector160>:
 8001990:	b508      	push	{r3, lr}
 8001992:	4803      	ldr	r0, [pc, #12]	; (80019a0 <Vector160+0x10>)
 8001994:	f001 ff9c 	bl	80038d0 <i2c_lld_serve_event_interrupt.11409>
 8001998:	e8bd 4008 	ldmia.w	sp!, {r3, lr}
 800199c:	f001 bcc8 	b.w	8003330 <_port_irq_epilogue>
 80019a0:	20002e98 	.word	0x20002e98
 80019a4:	f3af 8000 	nop.w
 80019a8:	f3af 8000 	nop.w
 80019ac:	f3af 8000 	nop.w

080019b0 <VectorBC>:
 80019b0:	b508      	push	{r3, lr}
 80019b2:	4803      	ldr	r0, [pc, #12]	; (80019c0 <VectorBC+0x10>)
 80019b4:	f001 ff8c 	bl	80038d0 <i2c_lld_serve_event_interrupt.11409>
 80019b8:	e8bd 4008 	ldmia.w	sp!, {r3, lr}
 80019bc:	f001 bcb8 	b.w	8003330 <_port_irq_epilogue>
 80019c0:	20002e60 	.word	0x20002e60
 80019c4:	f3af 8000 	nop.w
 80019c8:	f3af 8000 	nop.w
 80019cc:	f3af 8000 	nop.w

080019d0 <chSchGoSleepTimeoutS>:
 80019d0:	b5f0      	push	{r4, r5, r6, r7, lr}
 80019d2:	1c4b      	adds	r3, r1, #1
 80019d4:	b087      	sub	sp, #28
 80019d6:	4607      	mov	r7, r0
 80019d8:	d04e      	beq.n	8001a78 <chSchGoSleepTimeoutS+0xa8>
 80019da:	4c33      	ldr	r4, [pc, #204]	; (8001aa8 <chSchGoSleepTimeoutS+0xd8>)
 80019dc:	4a33      	ldr	r2, [pc, #204]	; (8001aac <chSchGoSleepTimeoutS+0xdc>)
 80019de:	69a3      	ldr	r3, [r4, #24]
 80019e0:	9305      	str	r3, [sp, #20]
 80019e2:	4625      	mov	r5, r4
 80019e4:	2901      	cmp	r1, #1
 80019e6:	f855 3f1c 	ldr.w	r3, [r5, #28]!
 80019ea:	f04f 4680 	mov.w	r6, #1073741824	; 0x40000000
 80019ee:	bf98      	it	ls
 80019f0:	2102      	movls	r1, #2
 80019f2:	42ab      	cmp	r3, r5
 80019f4:	f8d6 e024 	ldr.w	lr, [r6, #36]	; 0x24
 80019f8:	9204      	str	r2, [sp, #16]
 80019fa:	d048      	beq.n	8001a8e <chSchGoSleepTimeoutS+0xbe>
 80019fc:	6aa0      	ldr	r0, [r4, #40]	; 0x28
 80019fe:	689a      	ldr	r2, [r3, #8]
 8001a00:	ebc0 0e0e 	rsb	lr, r0, lr
 8001a04:	4471      	add	r1, lr
 8001a06:	4291      	cmp	r1, r2
 8001a08:	bf3c      	itt	cc
 8001a0a:	1840      	addcc	r0, r0, r1
 8001a0c:	6370      	strcc	r0, [r6, #52]	; 0x34
 8001a0e:	4291      	cmp	r1, r2
 8001a10:	d904      	bls.n	8001a1c <chSchGoSleepTimeoutS+0x4c>
 8001a12:	681b      	ldr	r3, [r3, #0]
 8001a14:	1a89      	subs	r1, r1, r2
 8001a16:	689a      	ldr	r2, [r3, #8]
 8001a18:	428a      	cmp	r2, r1
 8001a1a:	d3fa      	bcc.n	8001a12 <chSchGoSleepTimeoutS+0x42>
 8001a1c:	685e      	ldr	r6, [r3, #4]
 8001a1e:	9602      	str	r6, [sp, #8]
 8001a20:	aa01      	add	r2, sp, #4
 8001a22:	605a      	str	r2, [r3, #4]
 8001a24:	9301      	str	r3, [sp, #4]
 8001a26:	6032      	str	r2, [r6, #0]
 8001a28:	9103      	str	r1, [sp, #12]
 8001a2a:	689a      	ldr	r2, [r3, #8]
 8001a2c:	4e1e      	ldr	r6, [pc, #120]	; (8001aa8 <chSchGoSleepTimeoutS+0xd8>)
 8001a2e:	1a51      	subs	r1, r2, r1
 8001a30:	6099      	str	r1, [r3, #8]
 8001a32:	4638      	mov	r0, r7
 8001a34:	f04f 37ff 	mov.w	r7, #4294967295	; 0xffffffff
 8001a38:	6267      	str	r7, [r4, #36]	; 0x24
 8001a3a:	f001 fc61 	bl	8003300 <chSchGoSleepS>
 8001a3e:	9b04      	ldr	r3, [sp, #16]
 8001a40:	b1b3      	cbz	r3, 8001a70 <chSchGoSleepTimeoutS+0xa0>
 8001a42:	9b01      	ldr	r3, [sp, #4]
 8001a44:	f8dd c00c 	ldr.w	ip, [sp, #12]
 8001a48:	6899      	ldr	r1, [r3, #8]
 8001a4a:	9a02      	ldr	r2, [sp, #8]
 8001a4c:	69f0      	ldr	r0, [r6, #28]
 8001a4e:	448c      	add	ip, r1
 8001a50:	f8c3 c008 	str.w	ip, [r3, #8]
 8001a54:	6013      	str	r3, [r2, #0]
 8001a56:	9901      	ldr	r1, [sp, #4]
 8001a58:	2300      	movs	r3, #0
 8001a5a:	42a8      	cmp	r0, r5
 8001a5c:	604a      	str	r2, [r1, #4]
 8001a5e:	6277      	str	r7, [r6, #36]	; 0x24
 8001a60:	9304      	str	r3, [sp, #16]
 8001a62:	d010      	beq.n	8001a86 <chSchGoSleepTimeoutS+0xb6>
 8001a64:	6881      	ldr	r1, [r0, #8]
 8001a66:	6ab2      	ldr	r2, [r6, #40]	; 0x28
 8001a68:	f04f 4380 	mov.w	r3, #1073741824	; 0x40000000
 8001a6c:	440a      	add	r2, r1
 8001a6e:	635a      	str	r2, [r3, #52]	; 0x34
 8001a70:	69a3      	ldr	r3, [r4, #24]
 8001a72:	6a18      	ldr	r0, [r3, #32]
 8001a74:	b007      	add	sp, #28
 8001a76:	bdf0      	pop	{r4, r5, r6, r7, pc}
 8001a78:	4c0b      	ldr	r4, [pc, #44]	; (8001aa8 <chSchGoSleepTimeoutS+0xd8>)
 8001a7a:	f001 fc41 	bl	8003300 <chSchGoSleepS>
 8001a7e:	69a3      	ldr	r3, [r4, #24]
 8001a80:	6a18      	ldr	r0, [r3, #32]
 8001a82:	b007      	add	sp, #28
 8001a84:	bdf0      	pop	{r4, r5, r6, r7, pc}
 8001a86:	f04f 4280 	mov.w	r2, #1073741824	; 0x40000000
 8001a8a:	60d3      	str	r3, [r2, #12]
 8001a8c:	e7f0      	b.n	8001a70 <chSchGoSleepTimeoutS+0xa0>
 8001a8e:	2202      	movs	r2, #2
 8001a90:	eb01 0c0e 	add.w	ip, r1, lr
 8001a94:	2000      	movs	r0, #0
 8001a96:	f8c4 e028 	str.w	lr, [r4, #40]	; 0x28
 8001a9a:	f8c6 c034 	str.w	ip, [r6, #52]	; 0x34
 8001a9e:	6130      	str	r0, [r6, #16]
 8001aa0:	60f2      	str	r2, [r6, #12]
 8001aa2:	6a62      	ldr	r2, [r4, #36]	; 0x24
 8001aa4:	e7b3      	b.n	8001a0e <chSchGoSleepTimeoutS+0x3e>
 8001aa6:	bf00      	nop
 8001aa8:	20002ef0 	.word	0x20002ef0
 8001aac:	080030c1 	.word	0x080030c1

08001ab0 <chThdSleep>:
 8001ab0:	b508      	push	{r3, lr}
 8001ab2:	4601      	mov	r1, r0
 8001ab4:	2320      	movs	r3, #32
 8001ab6:	f383 8811 	msr	BASEPRI, r3
 8001aba:	2008      	movs	r0, #8
 8001abc:	f7ff ff88 	bl	80019d0 <chSchGoSleepTimeoutS>
 8001ac0:	2300      	movs	r3, #0
 8001ac2:	f383 8811 	msr	BASEPRI, r3
 8001ac6:	bd08      	pop	{r3, pc}
 8001ac8:	f3af 8000 	nop.w
 8001acc:	f3af 8000 	nop.w

08001ad0 <chThdSleepUntil>:
 8001ad0:	b508      	push	{r3, lr}
 8001ad2:	2320      	movs	r3, #32
 8001ad4:	f383 8811 	msr	BASEPRI, r3
 8001ad8:	f04f 4380 	mov.w	r3, #1073741824	; 0x40000000
 8001adc:	6a5b      	ldr	r3, [r3, #36]	; 0x24
 8001ade:	1ac1      	subs	r1, r0, r3
 8001ae0:	d002      	beq.n	8001ae8 <chThdSleepUntil+0x18>
 8001ae2:	2008      	movs	r0, #8
 8001ae4:	f7ff ff74 	bl	80019d0 <chSchGoSleepTimeoutS>
 8001ae8:	2300      	movs	r3, #0
 8001aea:	f383 8811 	msr	BASEPRI, r3
 8001aee:	bd08      	pop	{r3, pc}

08001af0 <chThdEnqueueTimeoutS.4293>:
 8001af0:	b410      	push	{r4}
 8001af2:	4602      	mov	r2, r0
 8001af4:	b159      	cbz	r1, 8001b0e <chThdEnqueueTimeoutS.4293+0x1e>
 8001af6:	4b08      	ldr	r3, [pc, #32]	; (8001b18 <chThdEnqueueTimeoutS.4293+0x28>)
 8001af8:	6844      	ldr	r4, [r0, #4]
 8001afa:	699b      	ldr	r3, [r3, #24]
 8001afc:	2004      	movs	r0, #4
 8001afe:	e883 0014 	stmia.w	r3, {r2, r4}
 8001b02:	6053      	str	r3, [r2, #4]
 8001b04:	6023      	str	r3, [r4, #0]
 8001b06:	f85d 4b04 	ldr.w	r4, [sp], #4
 8001b0a:	f7ff bf61 	b.w	80019d0 <chSchGoSleepTimeoutS>
 8001b0e:	f04f 30ff 	mov.w	r0, #4294967295	; 0xffffffff
 8001b12:	f85d 4b04 	ldr.w	r4, [sp], #4
 8001b16:	4770      	bx	lr
 8001b18:	20002ef0 	.word	0x20002ef0
 8001b1c:	f3af 8000 	nop.w

08001b20 <chIQGetTimeout.4238>:
 8001b20:	b570      	push	{r4, r5, r6, lr}
 8001b22:	2320      	movs	r3, #32
 8001b24:	460e      	mov	r6, r1
 8001b26:	4604      	mov	r4, r0
 8001b28:	f383 8811 	msr	BASEPRI, r3
 8001b2c:	69c3      	ldr	r3, [r0, #28]
 8001b2e:	b12b      	cbz	r3, 8001b3c <chIQGetTimeout.4238+0x1c>
 8001b30:	4798      	blx	r3
 8001b32:	e003      	b.n	8001b3c <chIQGetTimeout.4238+0x1c>
 8001b34:	f7ff ffdc 	bl	8001af0 <chThdEnqueueTimeoutS.4293>
 8001b38:	2800      	cmp	r0, #0
 8001b3a:	db15      	blt.n	8001b68 <chIQGetTimeout.4238+0x48>
 8001b3c:	68a5      	ldr	r5, [r4, #8]
 8001b3e:	4620      	mov	r0, r4
 8001b40:	4631      	mov	r1, r6
 8001b42:	2d00      	cmp	r5, #0
 8001b44:	d0f6      	beq.n	8001b34 <chIQGetTimeout.4238+0x14>
 8001b46:	69a2      	ldr	r2, [r4, #24]
 8001b48:	6921      	ldr	r1, [r4, #16]
 8001b4a:	1c53      	adds	r3, r2, #1
 8001b4c:	428b      	cmp	r3, r1
 8001b4e:	f105 35ff 	add.w	r5, r5, #4294967295	; 0xffffffff
 8001b52:	61a3      	str	r3, [r4, #24]
 8001b54:	60a5      	str	r5, [r4, #8]
 8001b56:	bf28      	it	cs
 8001b58:	68e3      	ldrcs	r3, [r4, #12]
 8001b5a:	7810      	ldrb	r0, [r2, #0]
 8001b5c:	bf28      	it	cs
 8001b5e:	61a3      	strcs	r3, [r4, #24]
 8001b60:	2300      	movs	r3, #0
 8001b62:	f383 8811 	msr	BASEPRI, r3
 8001b66:	bd70      	pop	{r4, r5, r6, pc}
 8001b68:	f385 8811 	msr	BASEPRI, r5
 8001b6c:	bd70      	pop	{r4, r5, r6, pc}
 8001b6e:	bf00      	nop

08001b70 <gett.10196.4231>:
 8001b70:	300c      	adds	r0, #12
 8001b72:	f7ff bfd5 	b.w	8001b20 <chIQGetTimeout.4238>
 8001b76:	bf00      	nop
 8001b78:	f3af 8000 	nop.w
 8001b7c:	f3af 8000 	nop.w

08001b80 <get.10200.4235>:
 8001b80:	300c      	adds	r0, #12
 8001b82:	f04f 31ff 	mov.w	r1, #4294967295	; 0xffffffff
 8001b86:	f7ff bfcb 	b.w	8001b20 <chIQGetTimeout.4238>
 8001b8a:	bf00      	nop
 8001b8c:	f3af 8000 	nop.w

08001b90 <chIQReadTimeout.4253>:
 8001b90:	e92d 4ff8 	stmdb	sp!, {r3, r4, r5, r6, r7, r8, r9, sl, fp, lr}
 8001b94:	4604      	mov	r4, r0
 8001b96:	461d      	mov	r5, r3
 8001b98:	f8d0 801c 	ldr.w	r8, [r0, #28]
 8001b9c:	f04f 0b20 	mov.w	fp, #32
 8001ba0:	f38b 8811 	msr	BASEPRI, fp
 8001ba4:	2600      	movs	r6, #0
 8001ba6:	eb01 0a02 	add.w	sl, r1, r2
 8001baa:	f101 0901 	add.w	r9, r1, #1
 8001bae:	f1b8 0f00 	cmp.w	r8, #0
 8001bb2:	d005      	beq.n	8001bc0 <chIQReadTimeout.4253+0x30>
 8001bb4:	4620      	mov	r0, r4
 8001bb6:	47c0      	blx	r8
 8001bb8:	e002      	b.n	8001bc0 <chIQReadTimeout.4253+0x30>
 8001bba:	f7ff ff99 	bl	8001af0 <chThdEnqueueTimeoutS.4293>
 8001bbe:	b9f0      	cbnz	r0, 8001bfe <chIQReadTimeout.4253+0x6e>
 8001bc0:	68a7      	ldr	r7, [r4, #8]
 8001bc2:	4620      	mov	r0, r4
 8001bc4:	4629      	mov	r1, r5
 8001bc6:	2f00      	cmp	r7, #0
 8001bc8:	d0f7      	beq.n	8001bba <chIQReadTimeout.4253+0x2a>
 8001bca:	69a2      	ldr	r2, [r4, #24]
 8001bcc:	1e7b      	subs	r3, r7, #1
 8001bce:	1c51      	adds	r1, r2, #1
 8001bd0:	61a1      	str	r1, [r4, #24]
 8001bd2:	60a3      	str	r3, [r4, #8]
 8001bd4:	7813      	ldrb	r3, [r2, #0]
 8001bd6:	f809 3c01 	strb.w	r3, [r9, #-1]
 8001bda:	6923      	ldr	r3, [r4, #16]
 8001bdc:	69a2      	ldr	r2, [r4, #24]
 8001bde:	429a      	cmp	r2, r3
 8001be0:	bf24      	itt	cs
 8001be2:	68e3      	ldrcs	r3, [r4, #12]
 8001be4:	61a3      	strcs	r3, [r4, #24]
 8001be6:	2300      	movs	r3, #0
 8001be8:	f383 8811 	msr	BASEPRI, r3
 8001bec:	45d1      	cmp	r9, sl
 8001bee:	f106 0601 	add.w	r6, r6, #1
 8001bf2:	d006      	beq.n	8001c02 <chIQReadTimeout.4253+0x72>
 8001bf4:	f38b 8811 	msr	BASEPRI, fp
 8001bf8:	f109 0901 	add.w	r9, r9, #1
 8001bfc:	e7d7      	b.n	8001bae <chIQReadTimeout.4253+0x1e>
 8001bfe:	f387 8811 	msr	BASEPRI, r7
 8001c02:	4630      	mov	r0, r6
 8001c04:	e8bd 8ff8 	ldmia.w	sp!, {r3, r4, r5, r6, r7, r8, r9, sl, fp, pc}
 8001c08:	f3af 8000 	nop.w
 8001c0c:	f3af 8000 	nop.w

08001c10 <readt.10173.4242>:
 8001c10:	300c      	adds	r0, #12
 8001c12:	f7ff bfbd 	b.w	8001b90 <chIQReadTimeout.4253>
 8001c16:	bf00      	nop
 8001c18:	f3af 8000 	nop.w
 8001c1c:	f3af 8000 	nop.w

08001c20 <read.10180.4248>:
 8001c20:	300c      	adds	r0, #12
 8001c22:	f04f 33ff 	mov.w	r3, #4294967295	; 0xffffffff
 8001c26:	f7ff bfb3 	b.w	8001b90 <chIQReadTimeout.4253>
 8001c2a:	bf00      	nop
 8001c2c:	f3af 8000 	nop.w

08001c30 <chOQPutTimeout.4268>:
 8001c30:	b5f8      	push	{r3, r4, r5, r6, r7, lr}
 8001c32:	4604      	mov	r4, r0
 8001c34:	460f      	mov	r7, r1
 8001c36:	4616      	mov	r6, r2
 8001c38:	2320      	movs	r3, #32
 8001c3a:	f383 8811 	msr	BASEPRI, r3
 8001c3e:	e003      	b.n	8001c48 <chOQPutTimeout.4268+0x18>
 8001c40:	f7ff ff56 	bl	8001af0 <chThdEnqueueTimeoutS.4293>
 8001c44:	2800      	cmp	r0, #0
 8001c46:	db18      	blt.n	8001c7a <chOQPutTimeout.4268+0x4a>
 8001c48:	68a5      	ldr	r5, [r4, #8]
 8001c4a:	4620      	mov	r0, r4
 8001c4c:	4631      	mov	r1, r6
 8001c4e:	2d00      	cmp	r5, #0
 8001c50:	d0f6      	beq.n	8001c40 <chOQPutTimeout.4268+0x10>
 8001c52:	6963      	ldr	r3, [r4, #20]
 8001c54:	3d01      	subs	r5, #1
 8001c56:	1c5a      	adds	r2, r3, #1
 8001c58:	6162      	str	r2, [r4, #20]
 8001c5a:	60a5      	str	r5, [r4, #8]
 8001c5c:	701f      	strb	r7, [r3, #0]
 8001c5e:	6923      	ldr	r3, [r4, #16]
 8001c60:	6962      	ldr	r2, [r4, #20]
 8001c62:	429a      	cmp	r2, r3
 8001c64:	bf24      	itt	cs
 8001c66:	68e3      	ldrcs	r3, [r4, #12]
 8001c68:	6163      	strcs	r3, [r4, #20]
 8001c6a:	69e3      	ldr	r3, [r4, #28]
 8001c6c:	b10b      	cbz	r3, 8001c72 <chOQPutTimeout.4268+0x42>
 8001c6e:	4620      	mov	r0, r4
 8001c70:	4798      	blx	r3
 8001c72:	2000      	movs	r0, #0
 8001c74:	f380 8811 	msr	BASEPRI, r0
 8001c78:	bdf8      	pop	{r3, r4, r5, r6, r7, pc}
 8001c7a:	f385 8811 	msr	BASEPRI, r5
 8001c7e:	bdf8      	pop	{r3, r4, r5, r6, r7, pc}

08001c80 <putt.10203.4259>:
 8001c80:	3030      	adds	r0, #48	; 0x30
 8001c82:	f7ff bfd5 	b.w	8001c30 <chOQPutTimeout.4268>
 8001c86:	bf00      	nop
 8001c88:	f3af 8000 	nop.w
 8001c8c:	f3af 8000 	nop.w

08001c90 <put.10208.4264>:
 8001c90:	3030      	adds	r0, #48	; 0x30
 8001c92:	f04f 32ff 	mov.w	r2, #4294967295	; 0xffffffff
 8001c96:	f7ff bfcb 	b.w	8001c30 <chOQPutTimeout.4268>
 8001c9a:	bf00      	nop
 8001c9c:	f3af 8000 	nop.w

08001ca0 <chOQWriteTimeout.4287>:
 8001ca0:	e92d 4ff0 	stmdb	sp!, {r4, r5, r6, r7, r8, r9, sl, fp, lr}
 8001ca4:	b083      	sub	sp, #12
 8001ca6:	4604      	mov	r4, r0
 8001ca8:	468b      	mov	fp, r1
 8001caa:	4616      	mov	r6, r2
 8001cac:	9301      	str	r3, [sp, #4]
 8001cae:	f8d0 801c 	ldr.w	r8, [r0, #28]
 8001cb2:	f04f 0a20 	mov.w	sl, #32
 8001cb6:	f38a 8811 	msr	BASEPRI, sl
 8001cba:	2700      	movs	r7, #0
 8001cbc:	46b9      	mov	r9, r7
 8001cbe:	68a5      	ldr	r5, [r4, #8]
 8001cc0:	f10b 0a01 	add.w	sl, fp, #1
 8001cc4:	4620      	mov	r0, r4
 8001cc6:	1e6a      	subs	r2, r5, #1
 8001cc8:	b1dd      	cbz	r5, 8001d02 <chOQWriteTimeout.4287+0x62>
 8001cca:	6963      	ldr	r3, [r4, #20]
 8001ccc:	60a2      	str	r2, [r4, #8]
 8001cce:	1c5a      	adds	r2, r3, #1
 8001cd0:	6162      	str	r2, [r4, #20]
 8001cd2:	f89b 2000 	ldrb.w	r2, [fp]
 8001cd6:	701a      	strb	r2, [r3, #0]
 8001cd8:	6923      	ldr	r3, [r4, #16]
 8001cda:	6962      	ldr	r2, [r4, #20]
 8001cdc:	429a      	cmp	r2, r3
 8001cde:	bf24      	itt	cs
 8001ce0:	68e3      	ldrcs	r3, [r4, #12]
 8001ce2:	6163      	strcs	r3, [r4, #20]
 8001ce4:	f1b8 0f00 	cmp.w	r8, #0
 8001ce8:	d000      	beq.n	8001cec <chOQWriteTimeout.4287+0x4c>
 8001cea:	47c0      	blx	r8
 8001cec:	f389 8811 	msr	BASEPRI, r9
 8001cf0:	3e01      	subs	r6, #1
 8001cf2:	f107 0701 	add.w	r7, r7, #1
 8001cf6:	d00c      	beq.n	8001d12 <chOQWriteTimeout.4287+0x72>
 8001cf8:	2320      	movs	r3, #32
 8001cfa:	f383 8811 	msr	BASEPRI, r3
 8001cfe:	46d3      	mov	fp, sl
 8001d00:	e7dd      	b.n	8001cbe <chOQWriteTimeout.4287+0x1e>
 8001d02:	4620      	mov	r0, r4
 8001d04:	9901      	ldr	r1, [sp, #4]
 8001d06:	f7ff fef3 	bl	8001af0 <chThdEnqueueTimeoutS.4293>
 8001d0a:	2800      	cmp	r0, #0
 8001d0c:	d0d7      	beq.n	8001cbe <chOQWriteTimeout.4287+0x1e>
 8001d0e:	f385 8811 	msr	BASEPRI, r5
 8001d12:	4638      	mov	r0, r7
 8001d14:	b003      	add	sp, #12
 8001d16:	e8bd 8ff0 	ldmia.w	sp!, {r4, r5, r6, r7, r8, r9, sl, fp, pc}
 8001d1a:	bf00      	nop
 8001d1c:	f3af 8000 	nop.w

08001d20 <writet.10185.4276>:
 8001d20:	3030      	adds	r0, #48	; 0x30
 8001d22:	f7ff bfbd 	b.w	8001ca0 <chOQWriteTimeout.4287>
 8001d26:	bf00      	nop
 8001d28:	f3af 8000 	nop.w
 8001d2c:	f3af 8000 	nop.w

08001d30 <write.10191.4282>:
 8001d30:	3030      	adds	r0, #48	; 0x30
 8001d32:	f04f 33ff 	mov.w	r3, #4294967295	; 0xffffffff
 8001d36:	f7ff bfb3 	b.w	8001ca0 <chOQWriteTimeout.4287>
 8001d3a:	bf00      	nop
 8001d3c:	f3af 8000 	nop.w

08001d40 <chThdCreateStatic>:
 8001d40:	e92d 4ff8 	stmdb	sp!, {r3, r4, r5, r6, r7, r8, r9, sl, fp, lr}
 8001d44:	4699      	mov	r9, r3
 8001d46:	4604      	mov	r4, r0
 8001d48:	2320      	movs	r3, #32
 8001d4a:	f383 8811 	msr	BASEPRI, r3
 8001d4e:	4e19      	ldr	r6, [pc, #100]	; (8001db4 <chThdCreateStatic+0x74>)
 8001d50:	9b0a      	ldr	r3, [sp, #40]	; 0x28
 8001d52:	f8d6 b014 	ldr.w	fp, [r6, #20]
 8001d56:	f8df 8060 	ldr.w	r8, [pc, #96]	; 8001db8 <chThdCreateStatic+0x78>
 8001d5a:	3964      	subs	r1, #100	; 0x64
 8001d5c:	4401      	add	r1, r0
 8001d5e:	2500      	movs	r5, #0
 8001d60:	f100 0728 	add.w	r7, r0, #40	; 0x28
 8001d64:	f04f 0c01 	mov.w	ip, #1
 8001d68:	f100 0e24 	add.w	lr, r0, #36	; 0x24
 8001d6c:	f04f 0a02 	mov.w	sl, #2
 8001d70:	60c1      	str	r1, [r0, #12]
 8001d72:	f8c1 9040 	str.w	r9, [r1, #64]	; 0x40
 8001d76:	644b      	str	r3, [r1, #68]	; 0x44
 8001d78:	f8c1 8060 	str.w	r8, [r1, #96]	; 0x60
 8001d7c:	6082      	str	r2, [r0, #8]
 8001d7e:	6106      	str	r6, [r0, #16]
 8001d80:	f8c0 b014 	str.w	fp, [r0, #20]
 8001d84:	63c2      	str	r2, [r0, #60]	; 0x3c
 8001d86:	f880 a01c 	strb.w	sl, [r0, #28]
 8001d8a:	f880 c01e 	strb.w	ip, [r0, #30]
 8001d8e:	7745      	strb	r5, [r0, #29]
 8001d90:	6170      	str	r0, [r6, #20]
 8001d92:	6385      	str	r5, [r0, #56]	; 0x38
 8001d94:	6345      	str	r5, [r0, #52]	; 0x34
 8001d96:	6185      	str	r5, [r0, #24]
 8001d98:	f8cb 0010 	str.w	r0, [fp, #16]
 8001d9c:	f8c0 e024 	str.w	lr, [r0, #36]	; 0x24
 8001da0:	62c7      	str	r7, [r0, #44]	; 0x2c
 8001da2:	6287      	str	r7, [r0, #40]	; 0x28
 8001da4:	f7ff fcdc 	bl	8001760 <chSchWakeupS.constprop.38.4346>
 8001da8:	f385 8811 	msr	BASEPRI, r5
 8001dac:	4620      	mov	r0, r4
 8001dae:	e8bd 8ff8 	ldmia.w	sp!, {r3, r4, r5, r6, r7, r8, r9, sl, fp, pc}
 8001db2:	bf00      	nop
 8001db4:	20002ef0 	.word	0x20002ef0
 8001db8:	08000a69 	.word	0x08000a69
 8001dbc:	f3af 8000 	nop.w

08001dc0 <chMtxUnlock>:
 8001dc0:	b538      	push	{r3, r4, r5, lr}
 8001dc2:	4b16      	ldr	r3, [pc, #88]	; (8001e1c <chMtxUnlock+0x5c>)
 8001dc4:	4604      	mov	r4, r0
 8001dc6:	6998      	ldr	r0, [r3, #24]
 8001dc8:	2320      	movs	r3, #32
 8001dca:	f383 8811 	msr	BASEPRI, r3
 8001dce:	6825      	ldr	r5, [r4, #0]
 8001dd0:	68e3      	ldr	r3, [r4, #12]
 8001dd2:	6383      	str	r3, [r0, #56]	; 0x38
 8001dd4:	42ac      	cmp	r4, r5
 8001dd6:	d01a      	beq.n	8001e0e <chMtxUnlock+0x4e>
 8001dd8:	6bc1      	ldr	r1, [r0, #60]	; 0x3c
 8001dda:	b14b      	cbz	r3, 8001df0 <chMtxUnlock+0x30>
 8001ddc:	681a      	ldr	r2, [r3, #0]
 8001dde:	4293      	cmp	r3, r2
 8001de0:	d003      	beq.n	8001dea <chMtxUnlock+0x2a>
 8001de2:	6892      	ldr	r2, [r2, #8]
 8001de4:	4291      	cmp	r1, r2
 8001de6:	bf38      	it	cc
 8001de8:	4611      	movcc	r1, r2
 8001dea:	68db      	ldr	r3, [r3, #12]
 8001dec:	2b00      	cmp	r3, #0
 8001dee:	d1f5      	bne.n	8001ddc <chMtxUnlock+0x1c>
 8001df0:	682b      	ldr	r3, [r5, #0]
 8001df2:	6baa      	ldr	r2, [r5, #56]	; 0x38
 8001df4:	6081      	str	r1, [r0, #8]
 8001df6:	6023      	str	r3, [r4, #0]
 8001df8:	4628      	mov	r0, r5
 8001dfa:	605c      	str	r4, [r3, #4]
 8001dfc:	60a5      	str	r5, [r4, #8]
 8001dfe:	60e2      	str	r2, [r4, #12]
 8001e00:	63ac      	str	r4, [r5, #56]	; 0x38
 8001e02:	f7ff fcad 	bl	8001760 <chSchWakeupS.constprop.38.4346>
 8001e06:	2300      	movs	r3, #0
 8001e08:	f383 8811 	msr	BASEPRI, r3
 8001e0c:	bd38      	pop	{r3, r4, r5, pc}
 8001e0e:	2300      	movs	r3, #0
 8001e10:	60a3      	str	r3, [r4, #8]
 8001e12:	2300      	movs	r3, #0
 8001e14:	f383 8811 	msr	BASEPRI, r3
 8001e18:	bd38      	pop	{r3, r4, r5, pc}
 8001e1a:	bf00      	nop
 8001e1c:	20002ef0 	.word	0x20002ef0

08001e20 <chTMStartMeasurementX.constprop.32>:
 8001e20:	4b01      	ldr	r3, [pc, #4]	; (8001e28 <chTMStartMeasurementX.constprop.32+0x8>)
 8001e22:	685b      	ldr	r3, [r3, #4]
 8001e24:	6083      	str	r3, [r0, #8]
 8001e26:	4770      	bx	lr
 8001e28:	e0001000 	.word	0xe0001000
 8001e2c:	f3af 8000 	nop.w

08001e30 <sdObjectInit.constprop.27>:
 8001e30:	e92d 03f0 	stmdb	sp!, {r4, r5, r6, r7, r8, r9}
 8001e34:	4604      	mov	r4, r0
 8001e36:	4b16      	ldr	r3, [pc, #88]	; (8001e90 <sdObjectInit.constprop.27+0x60>)
 8001e38:	f844 3b04 	str.w	r3, [r4], #4
 8001e3c:	f100 0254 	add.w	r2, r0, #84	; 0x54
 8001e40:	f500 7315 	add.w	r3, r0, #596	; 0x254
 8001e44:	f100 070c 	add.w	r7, r0, #12
 8001e48:	f100 0630 	add.w	r6, r0, #48	; 0x30
 8001e4c:	2500      	movs	r5, #0
 8001e4e:	f04f 0901 	mov.w	r9, #1
 8001e52:	f44f 7800 	mov.w	r8, #512	; 0x200
 8001e56:	f200 4c54 	addw	ip, r0, #1108	; 0x454
 8001e5a:	6044      	str	r4, [r0, #4]
 8001e5c:	f880 9008 	strb.w	r9, [r0, #8]
 8001e60:	f8c0 8038 	str.w	r8, [r0, #56]	; 0x38
 8001e64:	6107      	str	r7, [r0, #16]
 8001e66:	60c7      	str	r7, [r0, #12]
 8001e68:	6346      	str	r6, [r0, #52]	; 0x34
 8001e6a:	6306      	str	r6, [r0, #48]	; 0x30
 8001e6c:	6145      	str	r5, [r0, #20]
 8001e6e:	6285      	str	r5, [r0, #40]	; 0x28
 8001e70:	62c0      	str	r0, [r0, #44]	; 0x2c
 8001e72:	64c1      	str	r1, [r0, #76]	; 0x4c
 8001e74:	6500      	str	r0, [r0, #80]	; 0x50
 8001e76:	f8c0 c040 	str.w	ip, [r0, #64]	; 0x40
 8001e7a:	6202      	str	r2, [r0, #32]
 8001e7c:	6242      	str	r2, [r0, #36]	; 0x24
 8001e7e:	6182      	str	r2, [r0, #24]
 8001e80:	61c3      	str	r3, [r0, #28]
 8001e82:	6443      	str	r3, [r0, #68]	; 0x44
 8001e84:	6483      	str	r3, [r0, #72]	; 0x48
 8001e86:	63c3      	str	r3, [r0, #60]	; 0x3c
 8001e88:	e8bd 03f0 	ldmia.w	sp!, {r4, r5, r6, r7, r8, r9}
 8001e8c:	4770      	bx	lr
 8001e8e:	bf00      	nop
 8001e90:	08004720 	.word	0x08004720
 8001e94:	f3af 8000 	nop.w
 8001e98:	f3af 8000 	nop.w
 8001e9c:	f3af 8000 	nop.w

08001ea0 <chprintf.13294.constprop.14>:
 8001ea0:	b40e      	push	{r1, r2, r3}
 8001ea2:	b500      	push	{lr}
 8001ea4:	b082      	sub	sp, #8
 8001ea6:	aa03      	add	r2, sp, #12
 8001ea8:	4805      	ldr	r0, [pc, #20]	; (8001ec0 <chprintf.13294.constprop.14+0x20>)
 8001eaa:	f852 1b04 	ldr.w	r1, [r2], #4
 8001eae:	9201      	str	r2, [sp, #4]
 8001eb0:	f7ff fa76 	bl	80013a0 <chvprintf.4542>
 8001eb4:	b002      	add	sp, #8
 8001eb6:	f85d eb04 	ldr.w	lr, [sp], #4
 8001eba:	b003      	add	sp, #12
 8001ebc:	4770      	bx	lr
 8001ebe:	bf00      	nop
 8001ec0:	20002568 	.word	0x20002568
 8001ec4:	f3af 8000 	nop.w
 8001ec8:	f3af 8000 	nop.w
 8001ecc:	f3af 8000 	nop.w

08001ed0 <I2CSensor_init>:
 8001ed0:	b4f0      	push	{r4, r5, r6, r7}
 8001ed2:	9f05      	ldr	r7, [sp, #20]
 8001ed4:	6041      	str	r1, [r0, #4]
 8001ed6:	9e04      	ldr	r6, [sp, #16]
 8001ed8:	9d06      	ldr	r5, [sp, #24]
 8001eda:	7042      	strb	r2, [r0, #1]
 8001edc:	2101      	movs	r1, #1
 8001ede:	2400      	movs	r4, #0
 8001ee0:	6183      	str	r3, [r0, #24]
 8001ee2:	6087      	str	r7, [r0, #8]
 8001ee4:	7001      	strb	r1, [r0, #0]
 8001ee6:	61c6      	str	r6, [r0, #28]
 8001ee8:	7304      	strb	r4, [r0, #12]
 8001eea:	7829      	ldrb	r1, [r5, #0]
 8001eec:	b1b1      	cbz	r1, 8001f1c <I2CSensor_init+0x4c>
 8001eee:	4623      	mov	r3, r4
 8001ef0:	4604      	mov	r4, r0
 8001ef2:	7321      	strb	r1, [r4, #12]
 8001ef4:	f815 1f01 	ldrb.w	r1, [r5, #1]!
 8001ef8:	3301      	adds	r3, #1
 8001efa:	3401      	adds	r4, #1
 8001efc:	b2da      	uxtb	r2, r3
 8001efe:	b159      	cbz	r1, 8001f18 <I2CSensor_init+0x48>
 8001f00:	2b0a      	cmp	r3, #10
 8001f02:	d1f6      	bne.n	8001ef2 <I2CSensor_init+0x22>
 8001f04:	4403      	add	r3, r0
 8001f06:	2100      	movs	r1, #0
 8001f08:	7319      	strb	r1, [r3, #12]
 8001f0a:	f100 020c 	add.w	r2, r0, #12
 8001f0e:	4904      	ldr	r1, [pc, #16]	; (8001f20 <I2CSensor_init+0x50>)
 8001f10:	4804      	ldr	r0, [pc, #16]	; (8001f24 <I2CSensor_init+0x54>)
 8001f12:	bcf0      	pop	{r4, r5, r6, r7}
 8001f14:	f7ff bfc4 	b.w	8001ea0 <chprintf.13294.constprop.14>
 8001f18:	4613      	mov	r3, r2
 8001f1a:	e7f3      	b.n	8001f04 <I2CSensor_init+0x34>
 8001f1c:	460b      	mov	r3, r1
 8001f1e:	e7f1      	b.n	8001f04 <I2CSensor_init+0x34>
 8001f20:	080046d4 	.word	0x080046d4
 8001f24:	20002568 	.word	0x20002568
 8001f28:	f3af 8000 	nop.w
 8001f2c:	f3af 8000 	nop.w

08001f30 <chprintf.13613.constprop.13>:
 8001f30:	b40e      	push	{r1, r2, r3}
 8001f32:	b500      	push	{lr}
 8001f34:	b082      	sub	sp, #8
 8001f36:	aa03      	add	r2, sp, #12
 8001f38:	4805      	ldr	r0, [pc, #20]	; (8001f50 <chprintf.13613.constprop.13+0x20>)
 8001f3a:	f852 1b04 	ldr.w	r1, [r2], #4
 8001f3e:	9201      	str	r2, [sp, #4]
 8001f40:	f7ff fa2e 	bl	80013a0 <chvprintf.4542>
 8001f44:	b002      	add	sp, #8
 8001f46:	f85d eb04 	ldr.w	lr, [sp], #4
 8001f4a:	b003      	add	sp, #12
 8001f4c:	4770      	bx	lr
 8001f4e:	bf00      	nop
 8001f50:	20002568 	.word	0x20002568
 8001f54:	f3af 8000 	nop.w
 8001f58:	f3af 8000 	nop.w
 8001f5c:	f3af 8000 	nop.w

08001f60 <uStrCpy.constprop.3>:
 8001f60:	b430      	push	{r4, r5}
 8001f62:	4d0b      	ldr	r5, [pc, #44]	; (8001f90 <uStrCpy.constprop.3+0x30>)
 8001f64:	7829      	ldrb	r1, [r5, #0]
 8001f66:	b181      	cbz	r1, 8001f8a <uStrCpy.constprop.3+0x2a>
 8001f68:	462b      	mov	r3, r5
 8001f6a:	2200      	movs	r2, #0
 8001f6c:	f813 4f01 	ldrb.w	r4, [r3, #1]!
 8001f70:	3201      	adds	r2, #1
 8001f72:	2c00      	cmp	r4, #0
 8001f74:	d1fa      	bne.n	8001f6c <uStrCpy.constprop.3+0xc>
 8001f76:	2300      	movs	r3, #0
 8001f78:	e000      	b.n	8001f7c <uStrCpy.constprop.3+0x1c>
 8001f7a:	5ce9      	ldrb	r1, [r5, r3]
 8001f7c:	1c5c      	adds	r4, r3, #1
 8001f7e:	54c1      	strb	r1, [r0, r3]
 8001f80:	b2a3      	uxth	r3, r4
 8001f82:	429a      	cmp	r2, r3
 8001f84:	daf9      	bge.n	8001f7a <uStrCpy.constprop.3+0x1a>
 8001f86:	bc30      	pop	{r4, r5}
 8001f88:	4770      	bx	lr
 8001f8a:	460a      	mov	r2, r1
 8001f8c:	e7f3      	b.n	8001f76 <uStrCpy.constprop.3+0x16>
 8001f8e:	bf00      	nop
 8001f90:	20002ed0 	.word	0x20002ed0
 8001f94:	f3af 8000 	nop.w
 8001f98:	f3af 8000 	nop.w
 8001f9c:	f3af 8000 	nop.w

08001fa0 <uStrInsertChar.constprop.2>:
 8001fa0:	b410      	push	{r4}
 8001fa2:	4c0e      	ldr	r4, [pc, #56]	; (8001fdc <uStrInsertChar.constprop.2+0x3c>)
 8001fa4:	7823      	ldrb	r3, [r4, #0]
 8001fa6:	b1b3      	cbz	r3, 8001fd6 <uStrInsertChar.constprop.2+0x36>
 8001fa8:	4622      	mov	r2, r4
 8001faa:	2300      	movs	r3, #0
 8001fac:	f812 1f01 	ldrb.w	r1, [r2, #1]!
 8001fb0:	3301      	adds	r3, #1
 8001fb2:	2900      	cmp	r1, #0
 8001fb4:	d1fa      	bne.n	8001fac <uStrInsertChar.constprop.2+0xc>
 8001fb6:	3301      	adds	r3, #1
 8001fb8:	4298      	cmp	r0, r3
 8001fba:	da07      	bge.n	8001fcc <uStrInsertChar.constprop.2+0x2c>
 8001fbc:	4423      	add	r3, r4
 8001fbe:	1821      	adds	r1, r4, r0
 8001fc0:	f813 2c01 	ldrb.w	r2, [r3, #-1]
 8001fc4:	f803 2901 	strb.w	r2, [r3], #-1
 8001fc8:	428b      	cmp	r3, r1
 8001fca:	d1f9      	bne.n	8001fc0 <uStrInsertChar.constprop.2+0x20>
 8001fcc:	2320      	movs	r3, #32
 8001fce:	5423      	strb	r3, [r4, r0]
 8001fd0:	f85d 4b04 	ldr.w	r4, [sp], #4
 8001fd4:	4770      	bx	lr
 8001fd6:	2301      	movs	r3, #1
 8001fd8:	e7ee      	b.n	8001fb8 <uStrInsertChar.constprop.2+0x18>
 8001fda:	bf00      	nop
 8001fdc:	20002ed0 	.word	0x20002ed0

08001fe0 <chprintf.17288>:
 8001fe0:	b40e      	push	{r1, r2, r3}
 8001fe2:	b500      	push	{lr}
 8001fe4:	b082      	sub	sp, #8
 8001fe6:	aa03      	add	r2, sp, #12
 8001fe8:	f852 1b04 	ldr.w	r1, [r2], #4
 8001fec:	9201      	str	r2, [sp, #4]
 8001fee:	f7ff f9d7 	bl	80013a0 <chvprintf.4542>
 8001ff2:	b002      	add	sp, #8
 8001ff4:	f85d eb04 	ldr.w	lr, [sp], #4
 8001ff8:	b003      	add	sp, #12
 8001ffa:	4770      	bx	lr
 8001ffc:	f3af 8000 	nop.w

08002000 <uStrPrependChar>:
 8002000:	7803      	ldrb	r3, [r0, #0]
 8002002:	b410      	push	{r4}
 8002004:	b193      	cbz	r3, 800202c <uStrPrependChar+0x2c>
 8002006:	4602      	mov	r2, r0
 8002008:	2300      	movs	r3, #0
 800200a:	f812 4f01 	ldrb.w	r4, [r2, #1]!
 800200e:	3301      	adds	r3, #1
 8002010:	2c00      	cmp	r4, #0
 8002012:	d1fa      	bne.n	800200a <uStrPrependChar+0xa>
 8002014:	3301      	adds	r3, #1
 8002016:	18c2      	adds	r2, r0, r3
 8002018:	f812 4c01 	ldrb.w	r4, [r2, #-1]
 800201c:	f802 4901 	strb.w	r4, [r2], #-1
 8002020:	3b01      	subs	r3, #1
 8002022:	d1f9      	bne.n	8002018 <uStrPrependChar+0x18>
 8002024:	7001      	strb	r1, [r0, #0]
 8002026:	f85d 4b04 	ldr.w	r4, [sp], #4
 800202a:	4770      	bx	lr
 800202c:	2301      	movs	r3, #1
 800202e:	e7f2      	b.n	8002016 <uStrPrependChar+0x16>

08002030 <chprintf.15697>:
 8002030:	b40e      	push	{r1, r2, r3}
 8002032:	b500      	push	{lr}
 8002034:	b082      	sub	sp, #8
 8002036:	aa03      	add	r2, sp, #12
 8002038:	f852 1b04 	ldr.w	r1, [r2], #4
 800203c:	9201      	str	r2, [sp, #4]
 800203e:	f7ff f9af 	bl	80013a0 <chvprintf.4542>
 8002042:	b002      	add	sp, #8
 8002044:	f85d eb04 	ldr.w	lr, [sp], #4
 8002048:	b003      	add	sp, #12
 800204a:	4770      	bx	lr
 800204c:	f3af 8000 	nop.w

08002050 <usart_stop.12171>:
 8002050:	b430      	push	{r4, r5}
 8002052:	6904      	ldr	r4, [r0, #16]
 8002054:	6822      	ldr	r2, [r4, #0]
 8002056:	6813      	ldr	r3, [r2, #0]
 8002058:	f023 031f 	bic.w	r3, r3, #31
 800205c:	6013      	str	r3, [r2, #0]
 800205e:	6813      	ldr	r3, [r2, #0]
 8002060:	07db      	lsls	r3, r3, #31
 8002062:	d4fc      	bmi.n	800205e <usart_stop.12171+0xe>
 8002064:	7a25      	ldrb	r5, [r4, #8]
 8002066:	6941      	ldr	r1, [r0, #20]
 8002068:	6863      	ldr	r3, [r4, #4]
 800206a:	680a      	ldr	r2, [r1, #0]
 800206c:	243d      	movs	r4, #61	; 0x3d
 800206e:	40ac      	lsls	r4, r5
 8002070:	601c      	str	r4, [r3, #0]
 8002072:	6813      	ldr	r3, [r2, #0]
 8002074:	f023 031f 	bic.w	r3, r3, #31
 8002078:	6013      	str	r3, [r2, #0]
 800207a:	6813      	ldr	r3, [r2, #0]
 800207c:	f013 0301 	ands.w	r3, r3, #1
 8002080:	d1fb      	bne.n	800207a <usart_stop.12171+0x2a>
 8002082:	7a0c      	ldrb	r4, [r1, #8]
 8002084:	6882      	ldr	r2, [r0, #8]
 8002086:	6849      	ldr	r1, [r1, #4]
 8002088:	203d      	movs	r0, #61	; 0x3d
 800208a:	40a0      	lsls	r0, r4
 800208c:	6008      	str	r0, [r1, #0]
 800208e:	bc30      	pop	{r4, r5}
 8002090:	60d3      	str	r3, [r2, #12]
 8002092:	6113      	str	r3, [r2, #16]
 8002094:	6153      	str	r3, [r2, #20]
 8002096:	4770      	bx	lr
 8002098:	f3af 8000 	nop.w
 800209c:	f3af 8000 	nop.w

080020a0 <I2CSensor_transact>:
 80020a0:	e92d 4ff0 	stmdb	sp!, {r4, r5, r6, r7, r8, r9, sl, fp, lr}
 80020a4:	4688      	mov	r8, r1
 80020a6:	b083      	sub	sp, #12
 80020a8:	7801      	ldrb	r1, [r0, #0]
 80020aa:	f89d 7030 	ldrb.w	r7, [sp, #48]	; 0x30
 80020ae:	4606      	mov	r6, r0
 80020b0:	4691      	mov	r9, r2
 80020b2:	469a      	mov	sl, r3
 80020b4:	2900      	cmp	r1, #0
 80020b6:	d073      	beq.n	80021a0 <I2CSensor_transact+0x100>
 80020b8:	6840      	ldr	r0, [r0, #4]
 80020ba:	f04f 0b20 	mov.w	fp, #32
 80020be:	300c      	adds	r0, #12
 80020c0:	f38b 8811 	msr	BASEPRI, fp
 80020c4:	f001 fb34 	bl	8003730 <chMtxLockS>
 80020c8:	f04f 0e00 	mov.w	lr, #0
 80020cc:	f38e 8811 	msr	BASEPRI, lr
 80020d0:	6875      	ldr	r5, [r6, #4]
 80020d2:	7872      	ldrb	r2, [r6, #1]
 80020d4:	68b1      	ldr	r1, [r6, #8]
 80020d6:	f38b 8811 	msr	BASEPRI, fp
 80020da:	2303      	movs	r3, #3
 80020dc:	0052      	lsls	r2, r2, #1
 80020de:	842a      	strh	r2, [r5, #32]
 80020e0:	f8c5 e008 	str.w	lr, [r5, #8]
 80020e4:	702b      	strb	r3, [r5, #0]
 80020e6:	6b6c      	ldr	r4, [r5, #52]	; 0x34
 80020e8:	f38e 8811 	msr	BASEPRI, lr
 80020ec:	6b28      	ldr	r0, [r5, #48]	; 0x30
 80020ee:	6aea      	ldr	r2, [r5, #44]	; 0x2c
 80020f0:	6800      	ldr	r0, [r0, #0]
 80020f2:	6812      	ldr	r2, [r2, #0]
 80020f4:	6aab      	ldr	r3, [r5, #40]	; 0x28
 80020f6:	f8d5 c024 	ldr.w	ip, [r5, #36]	; 0x24
 80020fa:	6003      	str	r3, [r0, #0]
 80020fc:	f04f 4380 	mov.w	r3, #1073741824	; 0x40000000
 8002100:	f8c0 800c 	str.w	r8, [r0, #12]
 8002104:	f8c0 9004 	str.w	r9, [r0, #4]
 8002108:	f8c2 c000 	str.w	ip, [r2]
 800210c:	f8c2 a00c 	str.w	sl, [r2, #12]
 8002110:	6057      	str	r7, [r2, #4]
 8002112:	6a58      	ldr	r0, [r3, #36]	; 0x24
 8002114:	461a      	mov	r2, r3
 8002116:	e001      	b.n	800211c <I2CSensor_transact+0x7c>
 8002118:	f38e 8811 	msr	BASEPRI, lr
 800211c:	f38b 8811 	msr	BASEPRI, fp
 8002120:	69a3      	ldr	r3, [r4, #24]
 8002122:	079b      	lsls	r3, r3, #30
 8002124:	d402      	bmi.n	800212c <I2CSensor_transact+0x8c>
 8002126:	6823      	ldr	r3, [r4, #0]
 8002128:	059f      	lsls	r7, r3, #22
 800212a:	d509      	bpl.n	8002140 <I2CSensor_transact+0xa0>
 800212c:	6a53      	ldr	r3, [r2, #36]	; 0x24
 800212e:	1a1b      	subs	r3, r3, r0
 8002130:	f5b3 7ffa 	cmp.w	r3, #500	; 0x1f4
 8002134:	d3f0      	bcc.n	8002118 <I2CSensor_transact+0x78>
 8002136:	2305      	movs	r3, #5
 8002138:	702b      	strb	r3, [r5, #0]
 800213a:	f04f 34ff 	mov.w	r4, #4294967295	; 0xffffffff
 800213e:	e019      	b.n	8002174 <I2CSensor_transact+0xd4>
 8002140:	6862      	ldr	r2, [r4, #4]
 8002142:	4b1c      	ldr	r3, [pc, #112]	; (80021b4 <I2CSensor_transact+0x114>)
 8002144:	f442 7200 	orr.w	r2, r2, #512	; 0x200
 8002148:	6062      	str	r2, [r4, #4]
 800214a:	6820      	ldr	r0, [r4, #0]
 800214c:	699b      	ldr	r3, [r3, #24]
 800214e:	f440 7080 	orr.w	r0, r0, #256	; 0x100
 8002152:	f105 021c 	add.w	r2, r5, #28
 8002156:	6020      	str	r0, [r4, #0]
 8002158:	9201      	str	r2, [sp, #4]
 800215a:	2900      	cmp	r1, #0
 800215c:	d0eb      	beq.n	8002136 <I2CSensor_transact+0x96>
 800215e:	aa01      	add	r2, sp, #4
 8002160:	61eb      	str	r3, [r5, #28]
 8002162:	2003      	movs	r0, #3
 8002164:	621a      	str	r2, [r3, #32]
 8002166:	f7ff fc33 	bl	80019d0 <chSchGoSleepTimeoutS>
 800216a:	1c43      	adds	r3, r0, #1
 800216c:	4604      	mov	r4, r0
 800216e:	d0e2      	beq.n	8002136 <I2CSensor_transact+0x96>
 8002170:	2302      	movs	r3, #2
 8002172:	702b      	strb	r3, [r5, #0]
 8002174:	2300      	movs	r3, #0
 8002176:	f383 8811 	msr	BASEPRI, r3
 800217a:	6870      	ldr	r0, [r6, #4]
 800217c:	300c      	adds	r0, #12
 800217e:	f7ff fe1f 	bl	8001dc0 <chMtxUnlock>
 8002182:	b14c      	cbz	r4, 8002198 <I2CSensor_transact+0xf8>
 8002184:	6873      	ldr	r3, [r6, #4]
 8002186:	4a0c      	ldr	r2, [pc, #48]	; (80021b8 <I2CSensor_transact+0x118>)
 8002188:	689b      	ldr	r3, [r3, #8]
 800218a:	6013      	str	r3, [r2, #0]
 800218c:	480b      	ldr	r0, [pc, #44]	; (80021bc <I2CSensor_transact+0x11c>)
 800218e:	490c      	ldr	r1, [pc, #48]	; (80021c0 <I2CSensor_transact+0x120>)
 8002190:	f106 020c 	add.w	r2, r6, #12
 8002194:	f7ff fe84 	bl	8001ea0 <chprintf.13294.constprop.14>
 8002198:	4620      	mov	r0, r4
 800219a:	b003      	add	sp, #12
 800219c:	e8bd 8ff0 	ldmia.w	sp!, {r4, r5, r6, r7, r8, r9, sl, fp, pc}
 80021a0:	f100 020c 	add.w	r2, r0, #12
 80021a4:	4907      	ldr	r1, [pc, #28]	; (80021c4 <I2CSensor_transact+0x124>)
 80021a6:	4805      	ldr	r0, [pc, #20]	; (80021bc <I2CSensor_transact+0x11c>)
 80021a8:	f7ff fe7a 	bl	8001ea0 <chprintf.13294.constprop.14>
 80021ac:	f06f 0462 	mvn.w	r4, #98	; 0x62
 80021b0:	e7f2      	b.n	8002198 <I2CSensor_transact+0xf8>
 80021b2:	bf00      	nop
 80021b4:	20002ef0 	.word	0x20002ef0
 80021b8:	20002518 	.word	0x20002518
 80021bc:	20002568 	.word	0x20002568
 80021c0:	080047d0 	.word	0x080047d0
 80021c4:	080047e4 	.word	0x080047e4
 80021c8:	f3af 8000 	nop.w
 80021cc:	f3af 8000 	nop.w

080021d0 <I2CSensor_transact_buf>:
 80021d0:	b510      	push	{r4, lr}
 80021d2:	b082      	sub	sp, #8
 80021d4:	460c      	mov	r4, r1
 80021d6:	69c3      	ldr	r3, [r0, #28]
 80021d8:	6981      	ldr	r1, [r0, #24]
 80021da:	9200      	str	r2, [sp, #0]
 80021dc:	4622      	mov	r2, r4
 80021de:	f7ff ff5f 	bl	80020a0 <I2CSensor_transact>
 80021e2:	b002      	add	sp, #8
 80021e4:	bd10      	pop	{r4, pc}
 80021e6:	bf00      	nop
 80021e8:	f3af 8000 	nop.w
 80021ec:	f3af 8000 	nop.w

080021f0 <si70x0_init>:
 80021f0:	b5f0      	push	{r4, r5, r6, r7, lr}
 80021f2:	4b21      	ldr	r3, [pc, #132]	; (8002278 <si70x0_init+0x88>)
 80021f4:	4e21      	ldr	r6, [pc, #132]	; (800227c <si70x0_init+0x8c>)
 80021f6:	4604      	mov	r4, r0
 80021f8:	460f      	mov	r7, r1
 80021fa:	e893 0007 	ldmia.w	r3, {r0, r1, r2}
 80021fe:	b089      	sub	sp, #36	; 0x24
 8002200:	ab05      	add	r3, sp, #20
 8002202:	c303      	stmia	r3!, {r0, r1}
 8002204:	7830      	ldrb	r0, [r6, #0]
 8002206:	701a      	strb	r2, [r3, #0]
 8002208:	f44f 7596 	mov.w	r5, #300	; 0x12c
 800220c:	f104 0326 	add.w	r3, r4, #38	; 0x26
 8002210:	aa05      	add	r2, sp, #20
 8002212:	4639      	mov	r1, r7
 8002214:	f100 0e01 	add.w	lr, r0, #1
 8002218:	f100 0730 	add.w	r7, r0, #48	; 0x30
 800221c:	9300      	str	r3, [sp, #0]
 800221e:	4620      	mov	r0, r4
 8002220:	f104 0322 	add.w	r3, r4, #34	; 0x22
 8002224:	9501      	str	r5, [sp, #4]
 8002226:	9202      	str	r2, [sp, #8]
 8002228:	2500      	movs	r5, #0
 800222a:	2240      	movs	r2, #64	; 0x40
 800222c:	f886 e000 	strb.w	lr, [r6]
 8002230:	f88d 701b 	strb.w	r7, [sp, #27]
 8002234:	f88d 501d 	strb.w	r5, [sp, #29]
 8002238:	f88d 501e 	strb.w	r5, [sp, #30]
 800223c:	f7ff fe48 	bl	8001ed0 <I2CSensor_init>
 8002240:	23e7      	movs	r3, #231	; 0xe7
 8002242:	2101      	movs	r1, #1
 8002244:	f884 3022 	strb.w	r3, [r4, #34]	; 0x22
 8002248:	4620      	mov	r0, r4
 800224a:	460a      	mov	r2, r1
 800224c:	f7ff ffc0 	bl	80021d0 <I2CSensor_transact_buf>
 8002250:	b978      	cbnz	r0, 8002272 <si70x0_init+0x82>
 8002252:	f894 1026 	ldrb.w	r1, [r4, #38]	; 0x26
 8002256:	f001 01fc 	and.w	r1, r1, #252	; 0xfc
 800225a:	f041 0103 	orr.w	r1, r1, #3
 800225e:	23e6      	movs	r3, #230	; 0xe6
 8002260:	4602      	mov	r2, r0
 8002262:	f884 1023 	strb.w	r1, [r4, #35]	; 0x23
 8002266:	f884 3022 	strb.w	r3, [r4, #34]	; 0x22
 800226a:	4620      	mov	r0, r4
 800226c:	2102      	movs	r1, #2
 800226e:	f7ff ffaf 	bl	80021d0 <I2CSensor_transact_buf>
 8002272:	b009      	add	sp, #36	; 0x24
 8002274:	bdf0      	pop	{r4, r5, r6, r7, pc}
 8002276:	bf00      	nop
 8002278:	08004690 	.word	0x08004690
 800227c:	20002564 	.word	0x20002564

08002280 <si70x0_heaterEnable>:
 8002280:	b538      	push	{r3, r4, r5, lr}
 8002282:	460d      	mov	r5, r1
 8002284:	23e7      	movs	r3, #231	; 0xe7
 8002286:	2101      	movs	r1, #1
 8002288:	f880 3022 	strb.w	r3, [r0, #34]	; 0x22
 800228c:	460a      	mov	r2, r1
 800228e:	4604      	mov	r4, r0
 8002290:	f7ff ff9e 	bl	80021d0 <I2CSensor_transact_buf>
 8002294:	b988      	cbnz	r0, 80022ba <si70x0_heaterEnable+0x3a>
 8002296:	f894 2026 	ldrb.w	r2, [r4, #38]	; 0x26
 800229a:	b97d      	cbnz	r5, 80022bc <si70x0_heaterEnable+0x3c>
 800229c:	f002 02fb 	and.w	r2, r2, #251	; 0xfb
 80022a0:	23e6      	movs	r3, #230	; 0xe6
 80022a2:	f884 2023 	strb.w	r2, [r4, #35]	; 0x23
 80022a6:	f884 3022 	strb.w	r3, [r4, #34]	; 0x22
 80022aa:	4620      	mov	r0, r4
 80022ac:	2102      	movs	r1, #2
 80022ae:	2200      	movs	r2, #0
 80022b0:	f7ff ff8e 	bl	80021d0 <I2CSensor_transact_buf>
 80022b4:	b908      	cbnz	r0, 80022ba <si70x0_heaterEnable+0x3a>
 80022b6:	f884 5021 	strb.w	r5, [r4, #33]	; 0x21
 80022ba:	bd38      	pop	{r3, r4, r5, pc}
 80022bc:	f042 0204 	orr.w	r2, r2, #4
 80022c0:	e7ee      	b.n	80022a0 <si70x0_heaterEnable+0x20>
 80022c2:	bf00      	nop
 80022c4:	f3af 8000 	nop.w
 80022c8:	f3af 8000 	nop.w
 80022cc:	f3af 8000 	nop.w

080022d0 <si70x0_readTemperature>:
 80022d0:	b538      	push	{r3, r4, r5, lr}
 80022d2:	23e3      	movs	r3, #227	; 0xe3
 80022d4:	460d      	mov	r5, r1
 80022d6:	f880 3022 	strb.w	r3, [r0, #34]	; 0x22
 80022da:	2101      	movs	r1, #1
 80022dc:	2202      	movs	r2, #2
 80022de:	4604      	mov	r4, r0
 80022e0:	f7ff ff76 	bl	80021d0 <I2CSensor_transact_buf>
 80022e4:	b9b0      	cbnz	r0, 8002314 <si70x0_readTemperature+0x44>
 80022e6:	f894 2026 	ldrb.w	r2, [r4, #38]	; 0x26
 80022ea:	f894 3027 	ldrb.w	r3, [r4, #39]	; 0x27
 80022ee:	ed9f 6a0a 	vldr	s12, [pc, #40]	; 8002318 <si70x0_readTemperature+0x48>
 80022f2:	ed9f 7a0a 	vldr	s14, [pc, #40]	; 800231c <si70x0_readTemperature+0x4c>
 80022f6:	eddf 7a0a 	vldr	s15, [pc, #40]	; 8002320 <si70x0_readTemperature+0x50>
 80022fa:	eb03 2302 	add.w	r3, r3, r2, lsl #8
 80022fe:	b21b      	sxth	r3, r3
 8002300:	ee06 3a90 	vmov	s13, r3
 8002304:	eef8 6ae6 	vcvt.f32.s32	s13, s13
 8002308:	ee66 6a86 	vmul.f32	s13, s13, s12
 800230c:	eee6 7a87 	vfma.f32	s15, s13, s14
 8002310:	edc5 7a00 	vstr	s15, [r5]
 8002314:	bd38      	pop	{r3, r4, r5, pc}
 8002316:	bf00      	nop
 8002318:	432fb852 	.word	0x432fb852
 800231c:	37800000 	.word	0x37800000
 8002320:	c23b6666 	.word	0xc23b6666
 8002324:	f3af 8000 	nop.w
 8002328:	f3af 8000 	nop.w
 800232c:	f3af 8000 	nop.w

08002330 <si70x0_readHumidity>:
 8002330:	b538      	push	{r3, r4, r5, lr}
 8002332:	23e5      	movs	r3, #229	; 0xe5
 8002334:	460d      	mov	r5, r1
 8002336:	f880 3022 	strb.w	r3, [r0, #34]	; 0x22
 800233a:	2101      	movs	r1, #1
 800233c:	2202      	movs	r2, #2
 800233e:	4604      	mov	r4, r0
 8002340:	f7ff ff46 	bl	80021d0 <I2CSensor_transact_buf>
 8002344:	bb18      	cbnz	r0, 800238e <si70x0_readHumidity+0x5e>
 8002346:	f894 2026 	ldrb.w	r2, [r4, #38]	; 0x26
 800234a:	f894 3027 	ldrb.w	r3, [r4, #39]	; 0x27
 800234e:	ed9f 6a10 	vldr	s12, [pc, #64]	; 8002390 <si70x0_readHumidity+0x60>
 8002352:	ed9f 7a10 	vldr	s14, [pc, #64]	; 8002394 <si70x0_readHumidity+0x64>
 8002356:	eb03 2302 	add.w	r3, r3, r2, lsl #8
 800235a:	b29b      	uxth	r3, r3
 800235c:	ee06 3a90 	vmov	s13, r3
 8002360:	eef8 6ae6 	vcvt.f32.s32	s13, s13
 8002364:	eef9 7a08 	vmov.f32	s15, #152	; 0x98
 8002368:	ee66 6a86 	vmul.f32	s13, s13, s12
 800236c:	eee6 7a87 	vfma.f32	s15, s13, s14
 8002370:	eefd 7ae7 	vcvt.s32.f32	s15, s15
 8002374:	ee17 3a90 	vmov	r3, s15
 8002378:	2b64      	cmp	r3, #100	; 0x64
 800237a:	bfa8      	it	ge
 800237c:	2364      	movge	r3, #100	; 0x64
 800237e:	ea23 73e3 	bic.w	r3, r3, r3, asr #31
 8002382:	ee07 3a10 	vmov	s14, r3
 8002386:	eef8 7ac7 	vcvt.f32.s32	s15, s14
 800238a:	edc5 7a00 	vstr	s15, [r5]
 800238e:	bd38      	pop	{r3, r4, r5, pc}
 8002390:	42fa0000 	.word	0x42fa0000
 8002394:	37800000 	.word	0x37800000
 8002398:	f3af 8000 	nop.w
 800239c:	f3af 8000 	nop.w

080023a0 <sensorThread>:
 80023a0:	e92d 4ff0 	stmdb	sp!, {r4, r5, r6, r7, r8, r9, sl, fp, lr}
 80023a4:	ed2d 8b08 	vpush	{d8-d11}
 80023a8:	2500      	movs	r5, #0
 80023aa:	1d03      	adds	r3, r0, #4
 80023ac:	f04f 0801 	mov.w	r8, #1
 80023b0:	b0a9      	sub	sp, #164	; 0xa4
 80023b2:	4604      	mov	r4, r0
 80023b4:	6083      	str	r3, [r0, #8]
 80023b6:	6043      	str	r3, [r0, #4]
 80023b8:	60c5      	str	r5, [r0, #12]
 80023ba:	f880 8002 	strb.w	r8, [r0, #2]
 80023be:	4991      	ldr	r1, [pc, #580]	; (8002604 <sensorThread+0x264>)
 80023c0:	4891      	ldr	r0, [pc, #580]	; (8002608 <sensorThread+0x268>)
 80023c2:	4e92      	ldr	r6, [pc, #584]	; (800260c <sensorThread+0x26c>)
 80023c4:	f001 ff34 	bl	8004230 <i2cStart>
 80023c8:	4891      	ldr	r0, [pc, #580]	; (8002610 <sensorThread+0x270>)
 80023ca:	4992      	ldr	r1, [pc, #584]	; (8002614 <sensorThread+0x274>)
 80023cc:	f001 ff30 	bl	8004230 <i2cStart>
 80023d0:	e896 0007 	ldmia.w	r6, {r0, r1, r2}
 80023d4:	f8df e254 	ldr.w	lr, [pc, #596]	; 800262c <sensorThread+0x28c>
 80023d8:	f88d 509d 	strb.w	r5, [sp, #157]	; 0x9d
 80023dc:	af25      	add	r7, sp, #148	; 0x94
 80023de:	c703      	stmia	r7!, {r0, r1}
 80023e0:	f89e c000 	ldrb.w	ip, [lr]
 80023e4:	703a      	strb	r2, [r7, #0]
 80023e6:	f504 7310 	add.w	r3, r4, #576	; 0x240
 80023ea:	2228      	movs	r2, #40	; 0x28
 80023ec:	eb0c 0908 	add.w	r9, ip, r8
 80023f0:	a925      	add	r1, sp, #148	; 0x94
 80023f2:	f10c 0c30 	add.w	ip, ip, #48	; 0x30
 80023f6:	f504 7007 	add.w	r0, r4, #540	; 0x21c
 80023fa:	9300      	str	r3, [sp, #0]
 80023fc:	9201      	str	r2, [sp, #4]
 80023fe:	f504 730f 	add.w	r3, r4, #572	; 0x23c
 8002402:	9102      	str	r1, [sp, #8]
 8002404:	2248      	movs	r2, #72	; 0x48
 8002406:	f88e 9000 	strb.w	r9, [lr]
 800240a:	4981      	ldr	r1, [pc, #516]	; (8002610 <sensorThread+0x270>)
 800240c:	f88d c09b 	strb.w	ip, [sp, #155]	; 0x9b
 8002410:	901f      	str	r0, [sp, #124]	; 0x7c
 8002412:	f88d 509e 	strb.w	r5, [sp, #158]	; 0x9e
 8002416:	f7ff fd5b 	bl	8001ed0 <I2CSensor_init>
 800241a:	462a      	mov	r2, r5
 800241c:	f884 523d 	strb.w	r5, [r4, #573]	; 0x23d
 8002420:	2102      	movs	r1, #2
 8002422:	f884 823c 	strb.w	r8, [r4, #572]	; 0x23c
 8002426:	981f      	ldr	r0, [sp, #124]	; 0x7c
 8002428:	f7ff fed2 	bl	80021d0 <I2CSensor_transact_buf>
 800242c:	2380      	movs	r3, #128	; 0x80
 800242e:	22ff      	movs	r2, #255	; 0xff
 8002430:	f884 223c 	strb.w	r2, [r4, #572]	; 0x23c
 8002434:	f884 323d 	strb.w	r3, [r4, #573]	; 0x23d
 8002438:	462a      	mov	r2, r5
 800243a:	2102      	movs	r1, #2
 800243c:	981f      	ldr	r0, [sp, #124]	; 0x7c
 800243e:	f7ff fec7 	bl	80021d0 <I2CSensor_transact_buf>
 8002442:	237f      	movs	r3, #127	; 0x7f
 8002444:	462a      	mov	r2, r5
 8002446:	f884 523c 	strb.w	r5, [r4, #572]	; 0x23c
 800244a:	f884 323d 	strb.w	r3, [r4, #573]	; 0x23d
 800244e:	2102      	movs	r1, #2
 8002450:	f504 73f6 	add.w	r3, r4, #492	; 0x1ec
 8002454:	981f      	ldr	r0, [sp, #124]	; 0x7c
 8002456:	9319      	str	r3, [sp, #100]	; 0x64
 8002458:	f7ff feba 	bl	80021d0 <I2CSensor_transact_buf>
 800245c:	f504 7ede 	add.w	lr, r4, #444	; 0x1bc
 8002460:	9819      	ldr	r0, [sp, #100]	; 0x64
 8002462:	496b      	ldr	r1, [pc, #428]	; (8002610 <sensorThread+0x270>)
 8002464:	f8cd e068 	str.w	lr, [sp, #104]	; 0x68
 8002468:	360c      	adds	r6, #12
 800246a:	f7ff fec1 	bl	80021f0 <si70x0_init>
 800246e:	981a      	ldr	r0, [sp, #104]	; 0x68
 8002470:	4965      	ldr	r1, [pc, #404]	; (8002608 <sensorThread+0x268>)
 8002472:	f7ff febd 	bl	80021f0 <si70x0_init>
 8002476:	e896 0007 	ldmia.w	r6, {r0, r1, r2}
 800247a:	ab25      	add	r3, sp, #148	; 0x94
 800247c:	4e66      	ldr	r6, [pc, #408]	; (8002618 <sensorThread+0x278>)
 800247e:	9302      	str	r3, [sp, #8]
 8002480:	7833      	ldrb	r3, [r6, #0]
 8002482:	703a      	strb	r2, [r7, #0]
 8002484:	f10d 0e94 	add.w	lr, sp, #148	; 0x94
 8002488:	f504 72be 	add.w	r2, r4, #380	; 0x17c
 800248c:	e8ae 0003 	stmia.w	lr!, {r0, r1}
 8002490:	921b      	str	r2, [sp, #108]	; 0x6c
 8002492:	eb03 0e08 	add.w	lr, r3, r8
 8002496:	f504 72c0 	add.w	r2, r4, #384	; 0x180
 800249a:	21c8      	movs	r1, #200	; 0xc8
 800249c:	f504 77a4 	add.w	r7, r4, #328	; 0x148
 80024a0:	f103 0c30 	add.w	ip, r3, #48	; 0x30
 80024a4:	9200      	str	r2, [sp, #0]
 80024a6:	9101      	str	r1, [sp, #4]
 80024a8:	4638      	mov	r0, r7
 80024aa:	f886 e000 	strb.w	lr, [r6]
 80024ae:	9b1b      	ldr	r3, [sp, #108]	; 0x6c
 80024b0:	4957      	ldr	r1, [pc, #348]	; (8002610 <sensorThread+0x270>)
 80024b2:	f88d 509d 	strb.w	r5, [sp, #157]	; 0x9d
 80024b6:	2277      	movs	r2, #119	; 0x77
 80024b8:	f88d 509e 	strb.w	r5, [sp, #158]	; 0x9e
 80024bc:	f88d c09b 	strb.w	ip, [sp, #155]	; 0x9b
 80024c0:	f7ff fd06 	bl	8001ed0 <I2CSensor_init>
 80024c4:	f504 76b3 	add.w	r6, r4, #358	; 0x166
 80024c8:	25a1      	movs	r5, #161	; 0xa1
 80024ca:	f884 517c 	strb.w	r5, [r4, #380]	; 0x17c
 80024ce:	2202      	movs	r2, #2
 80024d0:	4638      	mov	r0, r7
 80024d2:	2101      	movs	r1, #1
 80024d4:	f7ff fe7c 	bl	80021d0 <I2CSensor_transact_buf>
 80024d8:	3501      	adds	r5, #1
 80024da:	f894 2180 	ldrb.w	r2, [r4, #384]	; 0x180
 80024de:	f894 3181 	ldrb.w	r3, [r4, #385]	; 0x181
 80024e2:	b2ed      	uxtb	r5, r5
 80024e4:	eb03 2302 	add.w	r3, r3, r2, lsl #8
 80024e8:	2da6      	cmp	r5, #166	; 0xa6
 80024ea:	f826 3f02 	strh.w	r3, [r6, #2]!
 80024ee:	d1ec      	bne.n	80024ca <sensorThread+0x12a>
 80024f0:	4a4a      	ldr	r2, [pc, #296]	; (800261c <sensorThread+0x27c>)
 80024f2:	4b4b      	ldr	r3, [pc, #300]	; (8002620 <sensorThread+0x280>)
 80024f4:	f8df c138 	ldr.w	ip, [pc, #312]	; 8002630 <sensorThread+0x290>
 80024f8:	ca07      	ldmia	r2, {r0, r1, r2}
 80024fa:	ad22      	add	r5, sp, #136	; 0x88
 80024fc:	c503      	stmia	r5!, {r0, r1}
 80024fe:	0c16      	lsrs	r6, r2, #16
 8002500:	f825 2b02 	strh.w	r2, [r5], #2
 8002504:	e893 0007 	ldmia.w	r3, {r0, r1, r2}
 8002508:	ab25      	add	r3, sp, #148	; 0x94
 800250a:	c303      	stmia	r3!, {r0, r1}
 800250c:	f89c 8000 	ldrb.w	r8, [ip]
 8002510:	f823 2b02 	strh.w	r2, [r3], #2
 8002514:	702e      	strb	r6, [r5, #0]
 8002516:	f504 7093 	add.w	r0, r4, #294	; 0x126
 800251a:	2632      	movs	r6, #50	; 0x32
 800251c:	e88d 0041 	stmia.w	sp, {r0, r6}
 8002520:	f104 01d0 	add.w	r1, r4, #208	; 0xd0
 8002524:	f108 0e30 	add.w	lr, r8, #48	; 0x30
 8002528:	0c12      	lsrs	r2, r2, #16
 800252a:	f108 0801 	add.w	r8, r8, #1
 800252e:	a822      	add	r0, sp, #136	; 0x88
 8002530:	fa5f fe8e 	uxtb.w	lr, lr
 8002534:	9002      	str	r0, [sp, #8]
 8002536:	460d      	mov	r5, r1
 8002538:	f88c 8000 	strb.w	r8, [ip]
 800253c:	701a      	strb	r2, [r3, #0]
 800253e:	4608      	mov	r0, r1
 8002540:	221d      	movs	r2, #29
 8002542:	4931      	ldr	r1, [pc, #196]	; (8002608 <sensorThread+0x268>)
 8002544:	f88d e091 	strb.w	lr, [sp, #145]	; 0x91
 8002548:	f504 7389 	add.w	r3, r4, #274	; 0x112
 800254c:	f88d e09d 	strb.w	lr, [sp, #157]	; 0x9d
 8002550:	f7ff fcbe 	bl	8001ed0 <I2CSensor_init>
 8002554:	f104 02f0 	add.w	r2, r4, #240	; 0xf0
 8002558:	f504 739b 	add.w	r3, r4, #310	; 0x136
 800255c:	a925      	add	r1, sp, #148	; 0x94
 800255e:	4610      	mov	r0, r2
 8002560:	9601      	str	r6, [sp, #4]
 8002562:	9102      	str	r1, [sp, #8]
 8002564:	4616      	mov	r6, r2
 8002566:	9300      	str	r3, [sp, #0]
 8002568:	4927      	ldr	r1, [pc, #156]	; (8002608 <sensorThread+0x268>)
 800256a:	221e      	movs	r2, #30
 800256c:	f504 738e 	add.w	r3, r4, #284	; 0x11c
 8002570:	f7ff fcae 	bl	8001ed0 <I2CSensor_init>
 8002574:	f04f 0820 	mov.w	r8, #32
 8002578:	2327      	movs	r3, #39	; 0x27
 800257a:	f884 3113 	strb.w	r3, [r4, #275]	; 0x113
 800257e:	4628      	mov	r0, r5
 8002580:	f884 8112 	strb.w	r8, [r4, #274]	; 0x112
 8002584:	2102      	movs	r1, #2
 8002586:	2200      	movs	r2, #0
 8002588:	f7ff fe22 	bl	80021d0 <I2CSensor_transact_buf>
 800258c:	2200      	movs	r2, #0
 800258e:	f884 811c 	strb.w	r8, [r4, #284]	; 0x11c
 8002592:	4630      	mov	r0, r6
 8002594:	f884 211d 	strb.w	r2, [r4, #285]	; 0x11d
 8002598:	2102      	movs	r1, #2
 800259a:	f7ff fe19 	bl	80021d0 <I2CSensor_transact_buf>
 800259e:	4b21      	ldr	r3, [pc, #132]	; (8002624 <sensorThread+0x284>)
 80025a0:	4921      	ldr	r1, [pc, #132]	; (8002628 <sensorThread+0x288>)
 80025a2:	781a      	ldrb	r2, [r3, #0]
 80025a4:	9102      	str	r1, [sp, #8]
 80025a6:	f104 0564 	add.w	r5, r4, #100	; 0x64
 80025aa:	f104 06c0 	add.w	r6, r4, #192	; 0xc0
 80025ae:	2128      	movs	r1, #40	; 0x28
 80025b0:	3201      	adds	r2, #1
 80025b2:	9600      	str	r6, [sp, #0]
 80025b4:	9101      	str	r1, [sp, #4]
 80025b6:	4628      	mov	r0, r5
 80025b8:	701a      	strb	r2, [r3, #0]
 80025ba:	4913      	ldr	r1, [pc, #76]	; (8002608 <sensorThread+0x268>)
 80025bc:	2276      	movs	r2, #118	; 0x76
 80025be:	f104 03bc 	add.w	r3, r4, #188	; 0xbc
 80025c2:	f7ff fc85 	bl	8001ed0 <I2CSensor_init>
 80025c6:	46a8      	mov	r8, r5
 80025c8:	2688      	movs	r6, #136	; 0x88
 80025ca:	f884 60bc 	strb.w	r6, [r4, #188]	; 0xbc
 80025ce:	4628      	mov	r0, r5
 80025d0:	2101      	movs	r1, #1
 80025d2:	2202      	movs	r2, #2
 80025d4:	f7ff fdfc 	bl	80021d0 <I2CSensor_transact_buf>
 80025d8:	ebc4 0308 	rsb	r3, r4, r8
 80025dc:	442b      	add	r3, r5
 80025de:	2800      	cmp	r0, #0
 80025e0:	f040 8348 	bne.w	8002c74 <sensorThread+0x8d4>
 80025e4:	f894 10c1 	ldrb.w	r1, [r4, #193]	; 0xc1
 80025e8:	f894 20c0 	ldrb.w	r2, [r4, #192]	; 0xc0
 80025ec:	eb02 2201 	add.w	r2, r2, r1, lsl #8
 80025f0:	f843 2c3c 	str.w	r2, [r3, #-60]
 80025f4:	3602      	adds	r6, #2
 80025f6:	b2f6      	uxtb	r6, r6
 80025f8:	2e8e      	cmp	r6, #142	; 0x8e
 80025fa:	f108 0804 	add.w	r8, r8, #4
 80025fe:	d1e4      	bne.n	80025ca <sensorThread+0x22a>
 8002600:	46a8      	mov	r8, r5
 8002602:	e025      	b.n	8002650 <sensorThread+0x2b0>
 8002604:	08004910 	.word	0x08004910
 8002608:	20002e60 	.word	0x20002e60
 800260c:	080046a0 	.word	0x080046a0
 8002610:	20002e98 	.word	0x20002e98
 8002614:	08004920 	.word	0x08004920
 8002618:	200029c1 	.word	0x200029c1
 800261c:	08004ac8 	.word	0x08004ac8
 8002620:	08004ad4 	.word	0x08004ad4
 8002624:	200029c0 	.word	0x200029c0
 8002628:	08004930 	.word	0x08004930
 800262c:	20002e5c 	.word	0x20002e5c
 8002630:	200029c3 	.word	0x200029c3
 8002634:	f894 10c1 	ldrb.w	r1, [r4, #193]	; 0xc1
 8002638:	f894 20c0 	ldrb.w	r2, [r4, #192]	; 0xc0
 800263c:	3601      	adds	r6, #1
 800263e:	b2f6      	uxtb	r6, r6
 8002640:	eb02 2201 	add.w	r2, r2, r1, lsl #8
 8002644:	2e97      	cmp	r6, #151	; 0x97
 8002646:	f843 2c30 	str.w	r2, [r3, #-48]
 800264a:	f108 0804 	add.w	r8, r8, #4
 800264e:	d015      	beq.n	800267c <sensorThread+0x2dc>
 8002650:	f884 60bc 	strb.w	r6, [r4, #188]	; 0xbc
 8002654:	4628      	mov	r0, r5
 8002656:	2101      	movs	r1, #1
 8002658:	2202      	movs	r2, #2
 800265a:	f7ff fdb9 	bl	80021d0 <I2CSensor_transact_buf>
 800265e:	ebc4 0308 	rsb	r3, r4, r8
 8002662:	442b      	add	r3, r5
 8002664:	2800      	cmp	r0, #0
 8002666:	d0e5      	beq.n	8002634 <sensorThread+0x294>
 8002668:	3601      	adds	r6, #1
 800266a:	48ca      	ldr	r0, [pc, #808]	; (8002994 <sensorThread+0x5f4>)
 800266c:	49ca      	ldr	r1, [pc, #808]	; (8002998 <sensorThread+0x5f8>)
 800266e:	b2f6      	uxtb	r6, r6
 8002670:	f7ff fc5e 	bl	8001f30 <chprintf.13613.constprop.13>
 8002674:	2e97      	cmp	r6, #151	; 0x97
 8002676:	f108 0804 	add.w	r8, r8, #4
 800267a:	d1e9      	bne.n	8002650 <sensorThread+0x2b0>
 800267c:	f504 72c8 	add.w	r2, r4, #400	; 0x190
 8002680:	921e      	str	r2, [sp, #120]	; 0x78
 8002682:	f504 71da 	add.w	r1, r4, #436	; 0x1b4
 8002686:	2228      	movs	r2, #40	; 0x28
 8002688:	4bc4      	ldr	r3, [pc, #784]	; (800299c <sensorThread+0x5fc>)
 800268a:	9100      	str	r1, [sp, #0]
 800268c:	2600      	movs	r6, #0
 800268e:	981e      	ldr	r0, [sp, #120]	; 0x78
 8002690:	9201      	str	r2, [sp, #4]
 8002692:	9302      	str	r3, [sp, #8]
 8002694:	49c2      	ldr	r1, [pc, #776]	; (80029a0 <sensorThread+0x600>)
 8002696:	ed9f bac3 	vldr	s22, [pc, #780]	; 80029a4 <sensorThread+0x604>
 800269a:	eddf bac3 	vldr	s23, [pc, #780]	; 80029a8 <sensorThread+0x608>
 800269e:	eddf aac3 	vldr	s21, [pc, #780]	; 80029ac <sensorThread+0x60c>
 80026a2:	4dc3      	ldr	r5, [pc, #780]	; (80029b0 <sensorThread+0x610>)
 80026a4:	f504 73d8 	add.w	r3, r4, #432	; 0x1b0
 80026a8:	2227      	movs	r2, #39	; 0x27
 80026aa:	f04f 0851 	mov.w	r8, #81	; 0x51
 80026ae:	f04f 090e 	mov.w	r9, #14
 80026b2:	f7ff fc0d 	bl	8001ed0 <I2CSensor_init>
 80026b6:	4632      	mov	r2, r6
 80026b8:	f884 61b9 	strb.w	r6, [r4, #441]	; 0x1b9
 80026bc:	2102      	movs	r1, #2
 80026be:	f884 81de 	strb.w	r8, [r4, #478]	; 0x1de
 80026c2:	f884 91df 	strb.w	r9, [r4, #479]	; 0x1df
 80026c6:	981a      	ldr	r0, [sp, #104]	; 0x68
 80026c8:	f7ff fd82 	bl	80021d0 <I2CSensor_transact_buf>
 80026cc:	2101      	movs	r1, #1
 80026ce:	981a      	ldr	r0, [sp, #104]	; 0x68
 80026d0:	f7ff fdd6 	bl	8002280 <si70x0_heaterEnable>
 80026d4:	4632      	mov	r2, r6
 80026d6:	2102      	movs	r1, #2
 80026d8:	f884 820e 	strb.w	r8, [r4, #526]	; 0x20e
 80026dc:	f884 920f 	strb.w	r9, [r4, #527]	; 0x20f
 80026e0:	9819      	ldr	r0, [sp, #100]	; 0x64
 80026e2:	f7ff fd75 	bl	80021d0 <I2CSensor_transact_buf>
 80026e6:	2101      	movs	r1, #1
 80026e8:	9819      	ldr	r0, [sp, #100]	; 0x64
 80026ea:	f7ff fdc9 	bl	8002280 <si70x0_heaterEnable>
 80026ee:	f44f 707a 	mov.w	r0, #1000	; 0x3e8
 80026f2:	f7ff f9dd 	bl	8001ab0 <chThdSleep>
 80026f6:	4631      	mov	r1, r6
 80026f8:	981a      	ldr	r0, [sp, #104]	; 0x68
 80026fa:	f7ff fdc1 	bl	8002280 <si70x0_heaterEnable>
 80026fe:	4631      	mov	r1, r6
 8002700:	9819      	ldr	r0, [sp, #100]	; 0x64
 8002702:	f7ff fdbd 	bl	8002280 <si70x0_heaterEnable>
 8002706:	f04f 4280 	mov.w	r2, #1073741824	; 0x40000000
 800270a:	4baa      	ldr	r3, [pc, #680]	; (80029b4 <sensorThread+0x614>)
 800270c:	9618      	str	r6, [sp, #96]	; 0x60
 800270e:	6a56      	ldr	r6, [r2, #36]	; 0x24
 8002710:	6163      	str	r3, [r4, #20]
 8002712:	61a3      	str	r3, [r4, #24]
 8002714:	61e3      	str	r3, [r4, #28]
 8002716:	6223      	str	r3, [r4, #32]
 8002718:	6263      	str	r3, [r4, #36]	; 0x24
 800271a:	62a3      	str	r3, [r4, #40]	; 0x28
 800271c:	62e3      	str	r3, [r4, #44]	; 0x2c
 800271e:	6323      	str	r3, [r4, #48]	; 0x30
 8002720:	6363      	str	r3, [r4, #52]	; 0x34
 8002722:	63a3      	str	r3, [r4, #56]	; 0x38
 8002724:	63e3      	str	r3, [r4, #60]	; 0x3c
 8002726:	6423      	str	r3, [r4, #64]	; 0x40
 8002728:	6463      	str	r3, [r4, #68]	; 0x44
 800272a:	64a3      	str	r3, [r4, #72]	; 0x48
 800272c:	64e3      	str	r3, [r4, #76]	; 0x4c
 800272e:	6523      	str	r3, [r4, #80]	; 0x50
 8002730:	6563      	str	r3, [r4, #84]	; 0x54
 8002732:	65a3      	str	r3, [r4, #88]	; 0x58
 8002734:	65e3      	str	r3, [r4, #92]	; 0x5c
 8002736:	6623      	str	r3, [r4, #96]	; 0x60
 8002738:	78a3      	ldrb	r3, [r4, #2]
 800273a:	2b00      	cmp	r3, #0
 800273c:	f000 823a 	beq.w	8002bb4 <sensorThread+0x814>
 8002740:	f8df e28c 	ldr.w	lr, [pc, #652]	; 80029d0 <sensorThread+0x630>
 8002744:	2220      	movs	r2, #32
 8002746:	f8ae 2018 	strh.w	r2, [lr, #24]
 800274a:	2300      	movs	r3, #0
 800274c:	f506 569c 	add.w	r6, r6, #4992	; 0x1380
 8002750:	461a      	mov	r2, r3
 8002752:	f884 31b0 	strb.w	r3, [r4, #432]	; 0x1b0
 8002756:	981e      	ldr	r0, [sp, #120]	; 0x78
 8002758:	2101      	movs	r1, #1
 800275a:	3608      	adds	r6, #8
 800275c:	f7ff fd38 	bl	80021d0 <I2CSensor_transact_buf>
 8002760:	b910      	cbnz	r0, 8002768 <sensorThread+0x3c8>
 8002762:	2301      	movs	r3, #1
 8002764:	f884 31b9 	strb.w	r3, [r4, #441]	; 0x1b9
 8002768:	f8df 8268 	ldr.w	r8, [pc, #616]	; 80029d4 <sensorThread+0x634>
 800276c:	f8df 9268 	ldr.w	r9, [pc, #616]	; 80029d8 <sensorThread+0x638>
 8002770:	f898 3000 	ldrb.w	r3, [r8]
 8002774:	f083 0301 	eor.w	r3, r3, #1
 8002778:	eb03 0343 	add.w	r3, r3, r3, lsl #1
 800277c:	eb09 0343 	add.w	r3, r9, r3, lsl #1
 8002780:	2220      	movs	r2, #32
 8002782:	f382 8811 	msr	BASEPRI, r2
 8002786:	6aea      	ldr	r2, [r5, #44]	; 0x2c
 8002788:	f8d5 e030 	ldr.w	lr, [r5, #48]	; 0x30
 800278c:	6812      	ldr	r2, [r2, #0]
 800278e:	498a      	ldr	r1, [pc, #552]	; (80029b8 <sensorThread+0x618>)
 8002790:	6129      	str	r1, [r5, #16]
 8002792:	2003      	movs	r0, #3
 8002794:	f04f 0b01 	mov.w	fp, #1
 8002798:	f8c5 b00c 	str.w	fp, [r5, #12]
 800279c:	60ab      	str	r3, [r5, #8]
 800279e:	60d3      	str	r3, [r2, #12]
 80027a0:	7028      	strb	r0, [r5, #0]
 80027a2:	6050      	str	r0, [r2, #4]
 80027a4:	f8c2 e000 	str.w	lr, [r2]
 80027a8:	f8d2 c000 	ldr.w	ip, [r2]
 80027ac:	4983      	ldr	r1, [pc, #524]	; (80029bc <sensorThread+0x61c>)
 80027ae:	6aab      	ldr	r3, [r5, #40]	; 0x28
 80027b0:	6989      	ldr	r1, [r1, #24]
 80027b2:	f8df e228 	ldr.w	lr, [pc, #552]	; 80029dc <sensorThread+0x63c>
 80027b6:	ea4c 0c0b 	orr.w	ip, ip, fp
 80027ba:	f8c2 c000 	str.w	ip, [r2]
 80027be:	f04f 0a00 	mov.w	sl, #0
 80027c2:	2236      	movs	r2, #54	; 0x36
 80027c4:	f8c3 a000 	str.w	sl, [r3]
 80027c8:	60da      	str	r2, [r3, #12]
 80027ca:	2206      	movs	r2, #6
 80027cc:	611a      	str	r2, [r3, #16]
 80027ce:	f44f 1200 	mov.w	r2, #2097152	; 0x200000
 80027d2:	62da      	str	r2, [r3, #44]	; 0x2c
 80027d4:	f44f 5235 	mov.w	r2, #11584	; 0x2d40
 80027d8:	f8c3 a030 	str.w	sl, [r3, #48]	; 0x30
 80027dc:	635a      	str	r2, [r3, #52]	; 0x34
 80027de:	4a78      	ldr	r2, [pc, #480]	; (80029c0 <sensorThread+0x620>)
 80027e0:	f8c3 e004 	str.w	lr, [r3, #4]
 80027e4:	609a      	str	r2, [r3, #8]
 80027e6:	4a77      	ldr	r2, [pc, #476]	; (80029c4 <sensorThread+0x624>)
 80027e8:	9225      	str	r2, [sp, #148]	; 0x94
 80027ea:	ab25      	add	r3, sp, #148	; 0x94
 80027ec:	620b      	str	r3, [r1, #32]
 80027ee:	6169      	str	r1, [r5, #20]
 80027f0:	f000 fd86 	bl	8003300 <chSchGoSleepS>
 80027f4:	f38a 8811 	msr	BASEPRI, sl
 80027f8:	2202      	movs	r2, #2
 80027fa:	f884 a23c 	strb.w	sl, [r4, #572]	; 0x23c
 80027fe:	4659      	mov	r1, fp
 8002800:	981f      	ldr	r0, [sp, #124]	; 0x7c
 8002802:	f7ff fce5 	bl	80021d0 <I2CSensor_transact_buf>
 8002806:	b970      	cbnz	r0, 8002826 <sensorThread+0x486>
 8002808:	f894 2240 	ldrb.w	r2, [r4, #576]	; 0x240
 800280c:	f894 3241 	ldrb.w	r3, [r4, #577]	; 0x241
 8002810:	ea43 2302 	orr.w	r3, r3, r2, lsl #8
 8002814:	b21b      	sxth	r3, r3
 8002816:	ee07 3a90 	vmov	s15, r3
 800281a:	eef8 7ae7 	vcvt.f32.s32	s15, s15
 800281e:	ee67 7a8b 	vmul.f32	s15, s15, s22
 8002822:	edc4 7a05 	vstr	s15, [r4, #20]
 8002826:	f104 0130 	add.w	r1, r4, #48	; 0x30
 800282a:	981a      	ldr	r0, [sp, #104]	; 0x68
 800282c:	f7ff fd80 	bl	8002330 <si70x0_readHumidity>
 8002830:	f104 0134 	add.w	r1, r4, #52	; 0x34
 8002834:	981a      	ldr	r0, [sp, #104]	; 0x68
 8002836:	f7ff fd4b 	bl	80022d0 <si70x0_readTemperature>
 800283a:	f104 0138 	add.w	r1, r4, #56	; 0x38
 800283e:	9819      	ldr	r0, [sp, #100]	; 0x64
 8002840:	f7ff fd76 	bl	8002330 <si70x0_readHumidity>
 8002844:	f104 013c 	add.w	r1, r4, #60	; 0x3c
 8002848:	9819      	ldr	r0, [sp, #100]	; 0x64
 800284a:	f7ff fd41 	bl	80022d0 <si70x0_readTemperature>
 800284e:	2300      	movs	r3, #0
 8002850:	f884 31b0 	strb.w	r3, [r4, #432]	; 0x1b0
 8002854:	981e      	ldr	r0, [sp, #120]	; 0x78
 8002856:	2101      	movs	r1, #1
 8002858:	2204      	movs	r2, #4
 800285a:	f7ff fcb9 	bl	80021d0 <I2CSensor_transact_buf>
 800285e:	bb50      	cbnz	r0, 80028b6 <sensorThread+0x516>
 8002860:	f894 31b4 	ldrb.w	r3, [r4, #436]	; 0x1b4
 8002864:	061a      	lsls	r2, r3, #24
 8002866:	d426      	bmi.n	80028b6 <sensorThread+0x516>
 8002868:	f894 11b6 	ldrb.w	r1, [r4, #438]	; 0x1b6
 800286c:	f894 01b7 	ldrb.w	r0, [r4, #439]	; 0x1b7
 8002870:	f894 21b5 	ldrb.w	r2, [r4, #437]	; 0x1b5
 8002874:	ed9f 6a54 	vldr	s12, [pc, #336]	; 80029c8 <sensorThread+0x628>
 8002878:	eddf 6a54 	vldr	s13, [pc, #336]	; 80029cc <sensorThread+0x62c>
 800287c:	0189      	lsls	r1, r1, #6
 800287e:	eb01 0190 	add.w	r1, r1, r0, lsr #2
 8002882:	ee07 1a10 	vmov	s14, r1
 8002886:	f003 033f 	and.w	r3, r3, #63	; 0x3f
 800288a:	eb02 2203 	add.w	r2, r2, r3, lsl #8
 800288e:	eeb8 7ac7 	vcvt.f32.s32	s14, s14
 8002892:	ee07 2a90 	vmov	s15, r2
 8002896:	ee27 7a06 	vmul.f32	s14, s14, s12
 800289a:	eef8 7ae7 	vcvt.f32.s32	s15, s15
 800289e:	ee87 7a2a 	vdiv.f32	s14, s14, s21
 80028a2:	ee67 7aab 	vmul.f32	s15, s15, s23
 80028a6:	ee37 7a66 	vsub.f32	s14, s14, s13
 80028aa:	eec7 7aaa 	vdiv.f32	s15, s15, s21
 80028ae:	ed84 7a11 	vstr	s14, [r4, #68]	; 0x44
 80028b2:	edc4 7a10 	vstr	s15, [r4, #64]	; 0x40
 80028b6:	2358      	movs	r3, #88	; 0x58
 80028b8:	f884 317c 	strb.w	r3, [r4, #380]	; 0x17c
 80028bc:	2101      	movs	r1, #1
 80028be:	2200      	movs	r2, #0
 80028c0:	4638      	mov	r0, r7
 80028c2:	f7ff fc85 	bl	80021d0 <I2CSensor_transact_buf>
 80028c6:	f04f 0a00 	mov.w	sl, #0
 80028ca:	4684      	mov	ip, r0
 80028cc:	f04f 0b03 	mov.w	fp, #3
 80028d0:	2064      	movs	r0, #100	; 0x64
 80028d2:	f8cd c05c 	str.w	ip, [sp, #92]	; 0x5c
 80028d6:	f7ff f8eb 	bl	8001ab0 <chThdSleep>
 80028da:	f884 a17c 	strb.w	sl, [r4, #380]	; 0x17c
 80028de:	991b      	ldr	r1, [sp, #108]	; 0x6c
 80028e0:	f8cd b000 	str.w	fp, [sp]
 80028e4:	2201      	movs	r2, #1
 80028e6:	ab22      	add	r3, sp, #136	; 0x88
 80028e8:	4638      	mov	r0, r7
 80028ea:	f7ff fbd9 	bl	80020a0 <I2CSensor_transact>
 80028ee:	f8dd c05c 	ldr.w	ip, [sp, #92]	; 0x5c
 80028f2:	2348      	movs	r3, #72	; 0x48
 80028f4:	ea40 0c0c 	orr.w	ip, r0, ip
 80028f8:	f884 317c 	strb.w	r3, [r4, #380]	; 0x17c
 80028fc:	4652      	mov	r2, sl
 80028fe:	2101      	movs	r1, #1
 8002900:	4638      	mov	r0, r7
 8002902:	f8cd c05c 	str.w	ip, [sp, #92]	; 0x5c
 8002906:	f7ff fc63 	bl	80021d0 <I2CSensor_transact_buf>
 800290a:	f8dd c05c 	ldr.w	ip, [sp, #92]	; 0x5c
 800290e:	ea4c 0c00 	orr.w	ip, ip, r0
 8002912:	2064      	movs	r0, #100	; 0x64
 8002914:	f8cd c05c 	str.w	ip, [sp, #92]	; 0x5c
 8002918:	f7ff f8ca 	bl	8001ab0 <chThdSleep>
 800291c:	f884 a17c 	strb.w	sl, [r4, #380]	; 0x17c
 8002920:	4638      	mov	r0, r7
 8002922:	f8cd b000 	str.w	fp, [sp]
 8002926:	991b      	ldr	r1, [sp, #108]	; 0x6c
 8002928:	2201      	movs	r2, #1
 800292a:	ab21      	add	r3, sp, #132	; 0x84
 800292c:	f7ff fbb8 	bl	80020a0 <I2CSensor_transact>
 8002930:	f8dd c05c 	ldr.w	ip, [sp, #92]	; 0x5c
 8002934:	ea5c 0c00 	orrs.w	ip, ip, r0
 8002938:	f040 8149 	bne.w	8002bce <sensorThread+0x82e>
 800293c:	f89d 3089 	ldrb.w	r3, [sp, #137]	; 0x89
 8002940:	f89d e088 	ldrb.w	lr, [sp, #136]	; 0x88
 8002944:	f89d 0085 	ldrb.w	r0, [sp, #133]	; 0x85
 8002948:	f89d 108a 	ldrb.w	r1, [sp, #138]	; 0x8a
 800294c:	f89d c084 	ldrb.w	ip, [sp, #132]	; 0x84
 8002950:	f8b4 2170 	ldrh.w	r2, [r4, #368]	; 0x170
 8002954:	021b      	lsls	r3, r3, #8
 8002956:	eb03 430e 	add.w	r3, r3, lr, lsl #16
 800295a:	0200      	lsls	r0, r0, #8
 800295c:	f89d e086 	ldrb.w	lr, [sp, #134]	; 0x86
 8002960:	440b      	add	r3, r1
 8002962:	eb00 400c 	add.w	r0, r0, ip, lsl #16
 8002966:	f8b4 116c 	ldrh.w	r1, [r4, #364]	; 0x16c
 800296a:	eba3 2302 	sub.w	r3, r3, r2, lsl #8
 800296e:	4470      	add	r0, lr
 8002970:	f8b4 e172 	ldrh.w	lr, [r4, #370]	; 0x172
 8002974:	f8b4 2168 	ldrh.w	r2, [r4, #360]	; 0x168
 8002978:	fb01 f103 	mul.w	r1, r1, r3
 800297c:	4551      	cmp	r1, sl
 800297e:	fb0e f303 	mul.w	r3, lr, r3
 8002982:	bfb8      	it	lt
 8002984:	317f      	addlt	r1, #127	; 0x7f
 8002986:	0412      	lsls	r2, r2, #16
 8002988:	2b00      	cmp	r3, #0
 800298a:	eb02 12e1 	add.w	r2, r2, r1, asr #7
 800298e:	f2c0 816b 	blt.w	8002c68 <sensorThread+0x8c8>
 8002992:	e039      	b.n	8002a08 <sensorThread+0x668>
 8002994:	20002568 	.word	0x20002568
 8002998:	0800495c 	.word	0x0800495c
 800299c:	08004980 	.word	0x08004980
 80029a0:	20002e98 	.word	0x20002e98
 80029a4:	3b800000 	.word	0x3b800000
 80029a8:	42c80000 	.word	0x42c80000
 80029ac:	467ff800 	.word	0x467ff800
 80029b0:	200029c4 	.word	0x200029c4
 80029b4:	c2c60000 	.word	0xc2c60000
 80029b8:	080048e0 	.word	0x080048e0
 80029bc:	20002ef0 	.word	0x20002ef0
 80029c0:	40000303 	.word	0x40000303
 80029c4:	200029d8 	.word	0x200029d8
 80029c8:	43250000 	.word	0x43250000
 80029cc:	42200000 	.word	0x42200000
 80029d0:	40020400 	.word	0x40020400
 80029d4:	200029c2 	.word	0x200029c2
 80029d8:	20002e50 	.word	0x20002e50
 80029dc:	04000100 	.word	0x04000100
 80029e0:	3c23d70a 	.word	0x3c23d70a
 80029e4:	c224851f 	.word	0xc224851f
 80029e8:	00000000 	.word	0x00000000
 80029ec:	3a533333 	.word	0x3a533333
 80029f0:	42380000 	.word	0x42380000
 80029f4:	3fa0624e 	.word	0x3fa0624e
 80029f8:	3b630a3d 	.word	0x3b630a3d
 80029fc:	bd75c28f 	.word	0xbd75c28f
 8002a00:	42ca999a 	.word	0x42ca999a
 8002a04:	39c9d9d3 	.word	0x39c9d9d3
 8002a08:	15db      	asrs	r3, r3, #23
 8002a0a:	f503 63fa 	add.w	r3, r3, #2000	; 0x7d0
 8002a0e:	ee04 3a90 	vmov	s9, r3
 8002a12:	ed5f 7a0d 	vldr	s15, [pc, #-52]	; 80029e0 <sensorThread+0x640>
 8002a16:	eeb8 9ae4 	vcvt.f32.s32	s18, s9
 8002a1a:	fb82 2300 	smull	r2, r3, r2, r0
 8002a1e:	ee29 9a27 	vmul.f32	s18, s18, s15
 8002a22:	2a00      	cmp	r2, #0
 8002a24:	f173 0000 	sbcs.w	r0, r3, #0
 8002a28:	ed84 9a5d 	vstr	s18, [r4, #372]	; 0x174
 8002a2c:	f2c0 8117 	blt.w	8002c5e <sensorThread+0x8be>
 8002a30:	1119      	asrs	r1, r3, #4
 8002a32:	ee04 1a90 	vmov	s9, r1
 8002a36:	ed5f 7a16 	vldr	s15, [pc, #-88]	; 80029e0 <sensorThread+0x640>
 8002a3a:	ed5f 8a16 	vldr	s17, [pc, #-88]	; 80029e4 <sensorThread+0x644>
 8002a3e:	911c      	str	r1, [sp, #112]	; 0x70
 8002a40:	eeb8 7ae4 	vcvt.f32.s32	s14, s9
 8002a44:	ea4f 7ee3 	mov.w	lr, r3, asr #31
 8002a48:	eee7 8a27 	vfma.f32	s17, s14, s15
 8002a4c:	f8cd e074 	str.w	lr, [sp, #116]	; 0x74
 8002a50:	ed84 9a07 	vstr	s18, [r4, #28]
 8002a54:	edc4 8a5e 	vstr	s17, [r4, #376]	; 0x178
 8002a58:	edc4 8a08 	vstr	s17, [r4, #32]
 8002a5c:	f898 3000 	ldrb.w	r3, [r8]
 8002a60:	ed5f 7a1f 	vldr	s15, [pc, #-124]	; 80029e8 <sensorThread+0x648>
 8002a64:	ed5f 6a1f 	vldr	s13, [pc, #-124]	; 80029ec <sensorThread+0x64c>
 8002a68:	ed1f 4a1f 	vldr	s8, [pc, #-124]	; 80029f0 <sensorThread+0x650>
 8002a6c:	ed5f 4a1f 	vldr	s9, [pc, #-124]	; 80029f4 <sensorThread+0x654>
 8002a70:	ed5f 5a1f 	vldr	s11, [pc, #-124]	; 80029f8 <sensorThread+0x658>
 8002a74:	ed1f 8a1f 	vldr	s16, [pc, #-124]	; 80029fc <sensorThread+0x65c>
 8002a78:	ed1f 5a1f 	vldr	s10, [pc, #-124]	; 8002a00 <sensorThread+0x660>
 8002a7c:	ed1f 6a1f 	vldr	s12, [pc, #-124]	; 8002a04 <sensorThread+0x664>
 8002a80:	6960      	ldr	r0, [r4, #20]
 8002a82:	eb03 0243 	add.w	r2, r3, r3, lsl #1
 8002a86:	eb09 0142 	add.w	r1, r9, r2, lsl #1
 8002a8a:	eeb8 7a08 	vmov.f32	s14, #136	; 0x88
 8002a8e:	f8b1 e004 	ldrh.w	lr, [r1, #4]
 8002a92:	8849      	ldrh	r1, [r1, #2]
 8002a94:	f839 2012 	ldrh.w	r2, [r9, r2, lsl #1]
 8002a98:	ee03 ea90 	vmov	s7, lr
 8002a9c:	eef8 3a63 	vcvt.f32.u32	s7, s7
 8002aa0:	ee0a 1a10 	vmov	s20, r1
 8002aa4:	ee73 3aa7 	vadd.f32	s7, s7, s15
 8002aa8:	eeb8 aa4a 	vcvt.f32.u32	s20, s20
 8002aac:	eea3 7aa6 	vfma.f32	s14, s7, s13
 8002ab0:	f083 0301 	eor.w	r3, r3, #1
 8002ab4:	f888 3000 	strb.w	r3, [r8]
 8002ab8:	ee3a aa27 	vadd.f32	s20, s20, s15
 8002abc:	ee87 7a04 	vdiv.f32	s14, s14, s8
 8002ac0:	eef1 9a04 	vmov.f32	s19, #20
 8002ac4:	ee37 7a07 	vadd.f32	s14, s14, s14
 8002ac8:	ee2a aa26 	vmul.f32	s20, s20, s13
 8002acc:	ee79 9ac7 	vsub.f32	s19, s19, s14
 8002ad0:	ee8a aa24 	vdiv.f32	s20, s20, s9
 8002ad4:	ee87 7a29 	vdiv.f32	s14, s14, s19
 8002ad8:	ee04 2a90 	vmov	s9, r2
 8002adc:	eef8 6a64 	vcvt.f32.u32	s13, s9
 8002ae0:	ee2a aa05 	vmul.f32	s20, s20, s10
 8002ae4:	ee76 7aa7 	vadd.f32	s15, s13, s15
 8002ae8:	ee67 9a06 	vmul.f32	s19, s14, s12
 8002aec:	eea7 8aa5 	vfma.f32	s16, s15, s11
 8002af0:	ed84 aa0b 	vstr	s20, [r4, #44]	; 0x2c
 8002af4:	ed84 8a18 	vstr	s16, [r4, #96]	; 0x60
 8002af8:	edc4 9a06 	vstr	s19, [r4, #24]
 8002afc:	f7fe f924 	bl	8000d48 <__aeabi_f2d>
 8002b00:	4680      	mov	r8, r0
 8002b02:	6ba0      	ldr	r0, [r4, #56]	; 0x38
 8002b04:	4689      	mov	r9, r1
 8002b06:	f7fe f91f 	bl	8000d48 <__aeabi_f2d>
 8002b0a:	e9cd 0100 	strd	r0, r1, [sp]
 8002b0e:	6be0      	ldr	r0, [r4, #60]	; 0x3c
 8002b10:	f7fe f91a 	bl	8000d48 <__aeabi_f2d>
 8002b14:	e9cd 0102 	strd	r0, r1, [sp, #8]
 8002b18:	6b20      	ldr	r0, [r4, #48]	; 0x30
 8002b1a:	f7fe f915 	bl	8000d48 <__aeabi_f2d>
 8002b1e:	e9cd 0104 	strd	r0, r1, [sp, #16]
 8002b22:	6b60      	ldr	r0, [r4, #52]	; 0x34
 8002b24:	f7fe f910 	bl	8000d48 <__aeabi_f2d>
 8002b28:	e9cd 0106 	strd	r0, r1, [sp, #24]
 8002b2c:	ee18 0a90 	vmov	r0, s17
 8002b30:	f7fe f90a 	bl	8000d48 <__aeabi_f2d>
 8002b34:	e9cd 0108 	strd	r0, r1, [sp, #32]
 8002b38:	ee19 0a10 	vmov	r0, s18
 8002b3c:	f7fe f904 	bl	8000d48 <__aeabi_f2d>
 8002b40:	e9cd 010a 	strd	r0, r1, [sp, #40]	; 0x28
 8002b44:	6c20      	ldr	r0, [r4, #64]	; 0x40
 8002b46:	f7fe f8ff 	bl	8000d48 <__aeabi_f2d>
 8002b4a:	e9cd 010c 	strd	r0, r1, [sp, #48]	; 0x30
 8002b4e:	6c60      	ldr	r0, [r4, #68]	; 0x44
 8002b50:	f7fe f8fa 	bl	8000d48 <__aeabi_f2d>
 8002b54:	e9cd 010e 	strd	r0, r1, [sp, #56]	; 0x38
 8002b58:	ee18 0a10 	vmov	r0, s16
 8002b5c:	f7fe f8f4 	bl	8000d48 <__aeabi_f2d>
 8002b60:	e9cd 0110 	strd	r0, r1, [sp, #64]	; 0x40
 8002b64:	ee1a 0a10 	vmov	r0, s20
 8002b68:	f7fe f8ee 	bl	8000d48 <__aeabi_f2d>
 8002b6c:	e9cd 0112 	strd	r0, r1, [sp, #72]	; 0x48
 8002b70:	ee19 0a90 	vmov	r0, s19
 8002b74:	f7fe f8e8 	bl	8000d48 <__aeabi_f2d>
 8002b78:	4642      	mov	r2, r8
 8002b7a:	e9cd 0114 	strd	r0, r1, [sp, #80]	; 0x50
 8002b7e:	464b      	mov	r3, r9
 8002b80:	483f      	ldr	r0, [pc, #252]	; (8002c80 <sensorThread+0x8e0>)
 8002b82:	4940      	ldr	r1, [pc, #256]	; (8002c84 <sensorThread+0x8e4>)
 8002b84:	f7ff fa54 	bl	8002030 <chprintf.15697>
 8002b88:	9818      	ldr	r0, [sp, #96]	; 0x60
 8002b8a:	bb28      	cbnz	r0, 8002bd8 <sensorThread+0x838>
 8002b8c:	483e      	ldr	r0, [pc, #248]	; (8002c88 <sensorThread+0x8e8>)
 8002b8e:	2320      	movs	r3, #32
 8002b90:	f04f 4880 	mov.w	r8, #1073741824	; 0x40000000
 8002b94:	8343      	strh	r3, [r0, #26]
 8002b96:	f8d8 3024 	ldr.w	r3, [r8, #36]	; 0x24
 8002b9a:	9918      	ldr	r1, [sp, #96]	; 0x60
 8002b9c:	429e      	cmp	r6, r3
 8002b9e:	f081 0101 	eor.w	r1, r1, #1
 8002ba2:	9118      	str	r1, [sp, #96]	; 0x60
 8002ba4:	d90c      	bls.n	8002bc0 <sensorThread+0x820>
 8002ba6:	4630      	mov	r0, r6
 8002ba8:	f7fe ff92 	bl	8001ad0 <chThdSleepUntil>
 8002bac:	78a3      	ldrb	r3, [r4, #2]
 8002bae:	2b00      	cmp	r3, #0
 8002bb0:	f47f adc6 	bne.w	8002740 <sensorThread+0x3a0>
 8002bb4:	2000      	movs	r0, #0
 8002bb6:	b029      	add	sp, #164	; 0xa4
 8002bb8:	ecbd 8b08 	vpop	{d8-d11}
 8002bbc:	e8bd 8ff0 	ldmia.w	sp!, {r4, r5, r6, r7, r8, r9, sl, fp, pc}
 8002bc0:	482f      	ldr	r0, [pc, #188]	; (8002c80 <sensorThread+0x8e0>)
 8002bc2:	4932      	ldr	r1, [pc, #200]	; (8002c8c <sensorThread+0x8ec>)
 8002bc4:	f7ff fa34 	bl	8002030 <chprintf.15697>
 8002bc8:	f8d8 6024 	ldr.w	r6, [r8, #36]	; 0x24
 8002bcc:	e5b4      	b.n	8002738 <sensorThread+0x398>
 8002bce:	edd4 8a08 	vldr	s17, [r4, #32]
 8002bd2:	ed94 9a07 	vldr	s18, [r4, #28]
 8002bd6:	e741      	b.n	8002a5c <sensorThread+0x6bc>
 8002bd8:	6960      	ldr	r0, [r4, #20]
 8002bda:	f7fe f8b5 	bl	8000d48 <__aeabi_f2d>
 8002bde:	4680      	mov	r8, r0
 8002be0:	6ba0      	ldr	r0, [r4, #56]	; 0x38
 8002be2:	4689      	mov	r9, r1
 8002be4:	f7fe f8b0 	bl	8000d48 <__aeabi_f2d>
 8002be8:	e9cd 0100 	strd	r0, r1, [sp]
 8002bec:	6be0      	ldr	r0, [r4, #60]	; 0x3c
 8002bee:	f7fe f8ab 	bl	8000d48 <__aeabi_f2d>
 8002bf2:	e9cd 0102 	strd	r0, r1, [sp, #8]
 8002bf6:	6b20      	ldr	r0, [r4, #48]	; 0x30
 8002bf8:	f7fe f8a6 	bl	8000d48 <__aeabi_f2d>
 8002bfc:	e9cd 0104 	strd	r0, r1, [sp, #16]
 8002c00:	6b60      	ldr	r0, [r4, #52]	; 0x34
 8002c02:	f7fe f8a1 	bl	8000d48 <__aeabi_f2d>
 8002c06:	e9cd 0106 	strd	r0, r1, [sp, #24]
 8002c0a:	6a20      	ldr	r0, [r4, #32]
 8002c0c:	f7fe f89c 	bl	8000d48 <__aeabi_f2d>
 8002c10:	e9cd 0108 	strd	r0, r1, [sp, #32]
 8002c14:	69e0      	ldr	r0, [r4, #28]
 8002c16:	f7fe f897 	bl	8000d48 <__aeabi_f2d>
 8002c1a:	e9cd 010a 	strd	r0, r1, [sp, #40]	; 0x28
 8002c1e:	6c20      	ldr	r0, [r4, #64]	; 0x40
 8002c20:	f7fe f892 	bl	8000d48 <__aeabi_f2d>
 8002c24:	e9cd 010c 	strd	r0, r1, [sp, #48]	; 0x30
 8002c28:	6c60      	ldr	r0, [r4, #68]	; 0x44
 8002c2a:	f7fe f88d 	bl	8000d48 <__aeabi_f2d>
 8002c2e:	e9cd 010e 	strd	r0, r1, [sp, #56]	; 0x38
 8002c32:	6e20      	ldr	r0, [r4, #96]	; 0x60
 8002c34:	f7fe f888 	bl	8000d48 <__aeabi_f2d>
 8002c38:	e9cd 0110 	strd	r0, r1, [sp, #64]	; 0x40
 8002c3c:	6ae0      	ldr	r0, [r4, #44]	; 0x2c
 8002c3e:	f7fe f883 	bl	8000d48 <__aeabi_f2d>
 8002c42:	e9cd 0112 	strd	r0, r1, [sp, #72]	; 0x48
 8002c46:	69a0      	ldr	r0, [r4, #24]
 8002c48:	f7fe f87e 	bl	8000d48 <__aeabi_f2d>
 8002c4c:	4642      	mov	r2, r8
 8002c4e:	e9cd 0114 	strd	r0, r1, [sp, #80]	; 0x50
 8002c52:	464b      	mov	r3, r9
 8002c54:	490e      	ldr	r1, [pc, #56]	; (8002c90 <sensorThread+0x8f0>)
 8002c56:	480f      	ldr	r0, [pc, #60]	; (8002c94 <sensorThread+0x8f4>)
 8002c58:	f7ff f9ea 	bl	8002030 <chprintf.15697>
 8002c5c:	e796      	b.n	8002b8c <sensorThread+0x7ec>
 8002c5e:	f112 32ff 	adds.w	r2, r2, #4294967295	; 0xffffffff
 8002c62:	f143 030f 	adc.w	r3, r3, #15
 8002c66:	e6e3      	b.n	8002a30 <sensorThread+0x690>
 8002c68:	f503 03ff 	add.w	r3, r3, #8355840	; 0x7f8000
 8002c6c:	f503 43ff 	add.w	r3, r3, #32640	; 0x7f80
 8002c70:	337f      	adds	r3, #127	; 0x7f
 8002c72:	e6c9      	b.n	8002a08 <sensorThread+0x668>
 8002c74:	4908      	ldr	r1, [pc, #32]	; (8002c98 <sensorThread+0x8f8>)
 8002c76:	4802      	ldr	r0, [pc, #8]	; (8002c80 <sensorThread+0x8e0>)
 8002c78:	f7ff f95a 	bl	8001f30 <chprintf.13613.constprop.13>
 8002c7c:	e4ba      	b.n	80025f4 <sensorThread+0x254>
 8002c7e:	bf00      	nop
 8002c80:	20002568 	.word	0x20002568
 8002c84:	08004a14 	.word	0x08004a14
 8002c88:	40020400 	.word	0x40020400
 8002c8c:	080049f8 	.word	0x080049f8
 8002c90:	08004988 	.word	0x08004988
 8002c94:	200029f8 	.word	0x200029f8
 8002c98:	08004938 	.word	0x08004938
 8002c9c:	f3af 8000 	nop.w

08002ca0 <serve_interrupt.12020.4498>:
 8002ca0:	e92d 43f8 	stmdb	sp!, {r3, r4, r5, r6, r7, r8, r9, lr}
 8002ca4:	f8d0 6454 	ldr.w	r6, [r0, #1108]	; 0x454
 8002ca8:	f8d6 900c 	ldr.w	r9, [r6, #12]
 8002cac:	6833      	ldr	r3, [r6, #0]
 8002cae:	05df      	lsls	r7, r3, #23
 8002cb0:	4604      	mov	r4, r0
 8002cb2:	b29d      	uxth	r5, r3
 8002cb4:	d472      	bmi.n	8002d9c <serve_interrupt.12020.4498+0xfc>
 8002cb6:	2320      	movs	r3, #32
 8002cb8:	f383 8811 	msr	BASEPRI, r3
 8002cbc:	06a8      	lsls	r0, r5, #26
 8002cbe:	d528      	bpl.n	8002d12 <serve_interrupt.12020.4498+0x72>
 8002cc0:	f104 0804 	add.w	r8, r4, #4
 8002cc4:	f104 070c 	add.w	r7, r4, #12
 8002cc8:	0729      	lsls	r1, r5, #28
 8002cca:	d150      	bne.n	8002d6e <serve_interrupt.12020.4498+0xce>
 8002ccc:	6872      	ldr	r2, [r6, #4]
 8002cce:	6963      	ldr	r3, [r4, #20]
 8002cd0:	b2d5      	uxtb	r5, r2
 8002cd2:	2b00      	cmp	r3, #0
 8002cd4:	d03b      	beq.n	8002d4e <serve_interrupt.12020.4498+0xae>
 8002cd6:	6a22      	ldr	r2, [r4, #32]
 8002cd8:	6a61      	ldr	r1, [r4, #36]	; 0x24
 8002cda:	428a      	cmp	r2, r1
 8002cdc:	d042      	beq.n	8002d64 <serve_interrupt.12020.4498+0xc4>
 8002cde:	3301      	adds	r3, #1
 8002ce0:	1c51      	adds	r1, r2, #1
 8002ce2:	6163      	str	r3, [r4, #20]
 8002ce4:	6221      	str	r1, [r4, #32]
 8002ce6:	7015      	strb	r5, [r2, #0]
 8002ce8:	6a22      	ldr	r2, [r4, #32]
 8002cea:	69e3      	ldr	r3, [r4, #28]
 8002cec:	429a      	cmp	r2, r3
 8002cee:	d301      	bcc.n	8002cf4 <serve_interrupt.12020.4498+0x54>
 8002cf0:	69a3      	ldr	r3, [r4, #24]
 8002cf2:	6223      	str	r3, [r4, #32]
 8002cf4:	68e3      	ldr	r3, [r4, #12]
 8002cf6:	429f      	cmp	r7, r3
 8002cf8:	d007      	beq.n	8002d0a <serve_interrupt.12020.4498+0x6a>
 8002cfa:	681a      	ldr	r2, [r3, #0]
 8002cfc:	60e2      	str	r2, [r4, #12]
 8002cfe:	2100      	movs	r1, #0
 8002d00:	6057      	str	r7, [r2, #4]
 8002d02:	4618      	mov	r0, r3
 8002d04:	6219      	str	r1, [r3, #32]
 8002d06:	f000 fccb 	bl	80036a0 <chSchReadyI>
 8002d0a:	6835      	ldr	r5, [r6, #0]
 8002d0c:	b2ad      	uxth	r5, r5
 8002d0e:	06a9      	lsls	r1, r5, #26
 8002d10:	d4da      	bmi.n	8002cc8 <serve_interrupt.12020.4498+0x28>
 8002d12:	2300      	movs	r3, #0
 8002d14:	f383 8811 	msr	BASEPRI, r3
 8002d18:	f019 0f80 	tst.w	r9, #128	; 0x80
 8002d1c:	d001      	beq.n	8002d22 <serve_interrupt.12020.4498+0x82>
 8002d1e:	062a      	lsls	r2, r5, #24
 8002d20:	d44b      	bmi.n	8002dba <serve_interrupt.12020.4498+0x11a>
 8002d22:	066b      	lsls	r3, r5, #25
 8002d24:	d538      	bpl.n	8002d98 <serve_interrupt.12020.4498+0xf8>
 8002d26:	2320      	movs	r3, #32
 8002d28:	f383 8811 	msr	BASEPRI, r3
 8002d2c:	6c62      	ldr	r2, [r4, #68]	; 0x44
 8002d2e:	6ca3      	ldr	r3, [r4, #72]	; 0x48
 8002d30:	429a      	cmp	r2, r3
 8002d32:	d068      	beq.n	8002e06 <serve_interrupt.12020.4498+0x166>
 8002d34:	f64f 73bf 	movw	r3, #65471	; 0xffbf
 8002d38:	ea09 0303 	and.w	r3, r9, r3
 8002d3c:	f06f 0240 	mvn.w	r2, #64	; 0x40
 8002d40:	60f3      	str	r3, [r6, #12]
 8002d42:	2300      	movs	r3, #0
 8002d44:	6032      	str	r2, [r6, #0]
 8002d46:	f383 8811 	msr	BASEPRI, r3
 8002d4a:	e8bd 83f8 	ldmia.w	sp!, {r3, r4, r5, r6, r7, r8, r9, pc}
 8002d4e:	2104      	movs	r1, #4
 8002d50:	4640      	mov	r0, r8
 8002d52:	f000 fcbd 	bl	80036d0 <chEvtBroadcastFlagsI>
 8002d56:	6a22      	ldr	r2, [r4, #32]
 8002d58:	6a61      	ldr	r1, [r4, #36]	; 0x24
 8002d5a:	6963      	ldr	r3, [r4, #20]
 8002d5c:	428a      	cmp	r2, r1
 8002d5e:	d1be      	bne.n	8002cde <serve_interrupt.12020.4498+0x3e>
 8002d60:	2b00      	cmp	r3, #0
 8002d62:	d0bc      	beq.n	8002cde <serve_interrupt.12020.4498+0x3e>
 8002d64:	4640      	mov	r0, r8
 8002d66:	2180      	movs	r1, #128	; 0x80
 8002d68:	f000 fcb2 	bl	80036d0 <chEvtBroadcastFlagsI>
 8002d6c:	e7cd      	b.n	8002d0a <serve_interrupt.12020.4498+0x6a>
 8002d6e:	f015 0f08 	tst.w	r5, #8
 8002d72:	bf14      	ite	ne
 8002d74:	2180      	movne	r1, #128	; 0x80
 8002d76:	2100      	moveq	r1, #0
 8002d78:	07ea      	lsls	r2, r5, #31
 8002d7a:	bf48      	it	mi
 8002d7c:	f041 0120 	orrmi.w	r1, r1, #32
 8002d80:	07ab      	lsls	r3, r5, #30
 8002d82:	bf48      	it	mi
 8002d84:	f041 0140 	orrmi.w	r1, r1, #64	; 0x40
 8002d88:	0768      	lsls	r0, r5, #29
 8002d8a:	bf48      	it	mi
 8002d8c:	f441 7180 	orrmi.w	r1, r1, #256	; 0x100
 8002d90:	4640      	mov	r0, r8
 8002d92:	f000 fc9d 	bl	80036d0 <chEvtBroadcastFlagsI>
 8002d96:	e799      	b.n	8002ccc <serve_interrupt.12020.4498+0x2c>
 8002d98:	e8bd 83f8 	ldmia.w	sp!, {r3, r4, r5, r6, r7, r8, r9, pc}
 8002d9c:	2320      	movs	r3, #32
 8002d9e:	f383 8811 	msr	BASEPRI, r3
 8002da2:	f44f 7100 	mov.w	r1, #512	; 0x200
 8002da6:	3004      	adds	r0, #4
 8002da8:	f000 fc92 	bl	80036d0 <chEvtBroadcastFlagsI>
 8002dac:	f46f 7380 	mvn.w	r3, #256	; 0x100
 8002db0:	6033      	str	r3, [r6, #0]
 8002db2:	2300      	movs	r3, #0
 8002db4:	f383 8811 	msr	BASEPRI, r3
 8002db8:	e77d      	b.n	8002cb6 <serve_interrupt.12020.4498+0x16>
 8002dba:	2320      	movs	r3, #32
 8002dbc:	f383 8811 	msr	BASEPRI, r3
 8002dc0:	6c62      	ldr	r2, [r4, #68]	; 0x44
 8002dc2:	6ca3      	ldr	r3, [r4, #72]	; 0x48
 8002dc4:	429a      	cmp	r2, r3
 8002dc6:	6ba2      	ldr	r2, [r4, #56]	; 0x38
 8002dc8:	d025      	beq.n	8002e16 <serve_interrupt.12020.4498+0x176>
 8002dca:	6c21      	ldr	r1, [r4, #64]	; 0x40
 8002dcc:	1c50      	adds	r0, r2, #1
 8002dce:	1c5a      	adds	r2, r3, #1
 8002dd0:	63a0      	str	r0, [r4, #56]	; 0x38
 8002dd2:	64a2      	str	r2, [r4, #72]	; 0x48
 8002dd4:	428a      	cmp	r2, r1
 8002dd6:	781f      	ldrb	r7, [r3, #0]
 8002dd8:	d301      	bcc.n	8002dde <serve_interrupt.12020.4498+0x13e>
 8002dda:	6be3      	ldr	r3, [r4, #60]	; 0x3c
 8002ddc:	64a3      	str	r3, [r4, #72]	; 0x48
 8002dde:	6b23      	ldr	r3, [r4, #48]	; 0x30
 8002de0:	f104 0230 	add.w	r2, r4, #48	; 0x30
 8002de4:	429a      	cmp	r2, r3
 8002de6:	d009      	beq.n	8002dfc <serve_interrupt.12020.4498+0x15c>
 8002de8:	6819      	ldr	r1, [r3, #0]
 8002dea:	6321      	str	r1, [r4, #48]	; 0x30
 8002dec:	f04f 0e00 	mov.w	lr, #0
 8002df0:	604a      	str	r2, [r1, #4]
 8002df2:	4618      	mov	r0, r3
 8002df4:	f8c3 e020 	str.w	lr, [r3, #32]
 8002df8:	f000 fc52 	bl	80036a0 <chSchReadyI>
 8002dfc:	6077      	str	r7, [r6, #4]
 8002dfe:	2300      	movs	r3, #0
 8002e00:	f383 8811 	msr	BASEPRI, r3
 8002e04:	e78d      	b.n	8002d22 <serve_interrupt.12020.4498+0x82>
 8002e06:	6ba3      	ldr	r3, [r4, #56]	; 0x38
 8002e08:	2b00      	cmp	r3, #0
 8002e0a:	d093      	beq.n	8002d34 <serve_interrupt.12020.4498+0x94>
 8002e0c:	1d20      	adds	r0, r4, #4
 8002e0e:	2110      	movs	r1, #16
 8002e10:	f000 fc5e 	bl	80036d0 <chEvtBroadcastFlagsI>
 8002e14:	e78e      	b.n	8002d34 <serve_interrupt.12020.4498+0x94>
 8002e16:	2a00      	cmp	r2, #0
 8002e18:	d0d7      	beq.n	8002dca <serve_interrupt.12020.4498+0x12a>
 8002e1a:	1d20      	adds	r0, r4, #4
 8002e1c:	2108      	movs	r1, #8
 8002e1e:	f000 fc57 	bl	80036d0 <chEvtBroadcastFlagsI>
 8002e22:	f64f 733f 	movw	r3, #65343	; 0xff3f
 8002e26:	ea09 0303 	and.w	r3, r9, r3
 8002e2a:	f043 0340 	orr.w	r3, r3, #64	; 0x40
 8002e2e:	60f3      	str	r3, [r6, #12]
 8002e30:	e7e5      	b.n	8002dfe <serve_interrupt.12020.4498+0x15e>
 8002e32:	bf00      	nop
 8002e34:	f3af 8000 	nop.w
 8002e38:	f3af 8000 	nop.w
 8002e3c:	f3af 8000 	nop.w

08002e40 <Vector15C.4493>:
 8002e40:	b508      	push	{r3, lr}
 8002e42:	4803      	ldr	r0, [pc, #12]	; (8002e50 <Vector15C.4493+0x10>)
 8002e44:	f7ff ff2c 	bl	8002ca0 <serve_interrupt.12020.4498>
 8002e48:	e8bd 4008 	ldmia.w	sp!, {r3, lr}
 8002e4c:	f000 ba70 	b.w	8003330 <_port_irq_epilogue>
 8002e50:	20002568 	.word	0x20002568
 8002e54:	f3af 8000 	nop.w
 8002e58:	f3af 8000 	nop.w
 8002e5c:	f3af 8000 	nop.w

08002e60 <VectorD8.4496>:
 8002e60:	b508      	push	{r3, lr}
 8002e62:	4803      	ldr	r0, [pc, #12]	; (8002e70 <VectorD8.4496+0x10>)
 8002e64:	f7ff ff1c 	bl	8002ca0 <serve_interrupt.12020.4498>
 8002e68:	e8bd 4008 	ldmia.w	sp!, {r3, lr}
 8002e6c:	f000 ba60 	b.w	8003330 <_port_irq_epilogue>
 8002e70:	200029f8 	.word	0x200029f8
 8002e74:	f3af 8000 	nop.w
 8002e78:	f3af 8000 	nop.w
 8002e7c:	f3af 8000 	nop.w

08002e80 <Reset_Handler>:
 8002e80:	b672      	cpsid	i
 8002e82:	495a      	ldr	r1, [pc, #360]	; (8002fec <Reset_Handler+0x16c>)
 8002e84:	f381 8809 	msr	PSP, r1
 8002e88:	4b59      	ldr	r3, [pc, #356]	; (8002ff0 <Reset_Handler+0x170>)
 8002e8a:	485a      	ldr	r0, [pc, #360]	; (8002ff4 <Reset_Handler+0x174>)
 8002e8c:	681a      	ldr	r2, [r3, #0]
 8002e8e:	f04f 4440 	mov.w	r4, #3221225472	; 0xc0000000
 8002e92:	f442 0270 	orr.w	r2, r2, #15728640	; 0xf00000
 8002e96:	601a      	str	r2, [r3, #0]
 8002e98:	6004      	str	r4, [r0, #0]
 8002e9a:	2300      	movs	r3, #0
 8002e9c:	eee1 3a10 	vmsr	fpscr, r3
 8002ea0:	2206      	movs	r2, #6
 8002ea2:	6083      	str	r3, [r0, #8]
 8002ea4:	f382 8814 	msr	CONTROL, r2
 8002ea8:	f3bf 8f6f 	isb	sy
 8002eac:	4852      	ldr	r0, [pc, #328]	; (8002ff8 <Reset_Handler+0x178>)
 8002eae:	4b53      	ldr	r3, [pc, #332]	; (8002ffc <Reset_Handler+0x17c>)
 8002eb0:	f04f 5480 	mov.w	r4, #268435456	; 0x10000000
 8002eb4:	f44f 4200 	mov.w	r2, #32768	; 0x8000
 8002eb8:	6404      	str	r4, [r0, #64]	; 0x40
 8002eba:	601a      	str	r2, [r3, #0]
 8002ebc:	6803      	ldr	r3, [r0, #0]
 8002ebe:	f043 0301 	orr.w	r3, r3, #1
 8002ec2:	6003      	str	r3, [r0, #0]
 8002ec4:	6803      	ldr	r3, [r0, #0]
 8002ec6:	4a4c      	ldr	r2, [pc, #304]	; (8002ff8 <Reset_Handler+0x178>)
 8002ec8:	079b      	lsls	r3, r3, #30
 8002eca:	d5fb      	bpl.n	8002ec4 <Reset_Handler+0x44>
 8002ecc:	6810      	ldr	r0, [r2, #0]
 8002ece:	2300      	movs	r3, #0
 8002ed0:	f000 00f9 	and.w	r0, r0, #249	; 0xf9
 8002ed4:	6010      	str	r0, [r2, #0]
 8002ed6:	4610      	mov	r0, r2
 8002ed8:	6093      	str	r3, [r2, #8]
 8002eda:	6883      	ldr	r3, [r0, #8]
 8002edc:	4a46      	ldr	r2, [pc, #280]	; (8002ff8 <Reset_Handler+0x178>)
 8002ede:	f013 0f0c 	tst.w	r3, #12
 8002ee2:	d1fa      	bne.n	8002eda <Reset_Handler+0x5a>
 8002ee4:	6813      	ldr	r3, [r2, #0]
 8002ee6:	f443 23a0 	orr.w	r3, r3, #327680	; 0x50000
 8002eea:	6013      	str	r3, [r2, #0]
 8002eec:	4610      	mov	r0, r2
 8002eee:	6803      	ldr	r3, [r0, #0]
 8002ef0:	4a41      	ldr	r2, [pc, #260]	; (8002ff8 <Reset_Handler+0x178>)
 8002ef2:	039d      	lsls	r5, r3, #14
 8002ef4:	d5fb      	bpl.n	8002eee <Reset_Handler+0x6e>
 8002ef6:	6f53      	ldr	r3, [r2, #116]	; 0x74
 8002ef8:	f043 0301 	orr.w	r3, r3, #1
 8002efc:	6753      	str	r3, [r2, #116]	; 0x74
 8002efe:	4610      	mov	r0, r2
 8002f00:	6f43      	ldr	r3, [r0, #116]	; 0x74
 8002f02:	4a3d      	ldr	r2, [pc, #244]	; (8002ff8 <Reset_Handler+0x178>)
 8002f04:	079c      	lsls	r4, r3, #30
 8002f06:	d5fb      	bpl.n	8002f00 <Reset_Handler+0x80>
 8002f08:	4b3d      	ldr	r3, [pc, #244]	; (8003000 <Reset_Handler+0x180>)
 8002f0a:	6053      	str	r3, [r2, #4]
 8002f0c:	6813      	ldr	r3, [r2, #0]
 8002f0e:	483b      	ldr	r0, [pc, #236]	; (8002ffc <Reset_Handler+0x17c>)
 8002f10:	f043 7380 	orr.w	r3, r3, #16777216	; 0x1000000
 8002f14:	6013      	str	r3, [r2, #0]
 8002f16:	6843      	ldr	r3, [r0, #4]
 8002f18:	045a      	lsls	r2, r3, #17
 8002f1a:	d5fc      	bpl.n	8002f16 <Reset_Handler+0x96>
 8002f1c:	4836      	ldr	r0, [pc, #216]	; (8002ff8 <Reset_Handler+0x178>)
 8002f1e:	6803      	ldr	r3, [r0, #0]
 8002f20:	4a35      	ldr	r2, [pc, #212]	; (8002ff8 <Reset_Handler+0x178>)
 8002f22:	019b      	lsls	r3, r3, #6
 8002f24:	d5fb      	bpl.n	8002f1e <Reset_Handler+0x9e>
 8002f26:	4b37      	ldr	r3, [pc, #220]	; (8003004 <Reset_Handler+0x184>)
 8002f28:	4837      	ldr	r0, [pc, #220]	; (8003008 <Reset_Handler+0x188>)
 8002f2a:	6090      	str	r0, [r2, #8]
 8002f2c:	f240 7002 	movw	r0, #1794	; 0x702
 8002f30:	6018      	str	r0, [r3, #0]
 8002f32:	6893      	ldr	r3, [r2, #8]
 8002f34:	f043 0302 	orr.w	r3, r3, #2
 8002f38:	6093      	str	r3, [r2, #8]
 8002f3a:	4610      	mov	r0, r2
 8002f3c:	6883      	ldr	r3, [r0, #8]
 8002f3e:	4a2e      	ldr	r2, [pc, #184]	; (8002ff8 <Reset_Handler+0x178>)
 8002f40:	f003 030c 	and.w	r3, r3, #12
 8002f44:	2b08      	cmp	r3, #8
 8002f46:	d1f9      	bne.n	8002f3c <Reset_Handler+0xbc>
 8002f48:	6c54      	ldr	r4, [r2, #68]	; 0x44
 8002f4a:	4b30      	ldr	r3, [pc, #192]	; (800300c <Reset_Handler+0x18c>)
 8002f4c:	4830      	ldr	r0, [pc, #192]	; (8003010 <Reset_Handler+0x190>)
 8002f4e:	f444 4480 	orr.w	r4, r4, #16384	; 0x4000
 8002f52:	6454      	str	r4, [r2, #68]	; 0x44
 8002f54:	6e54      	ldr	r4, [r2, #100]	; 0x64
 8002f56:	4283      	cmp	r3, r0
 8002f58:	f444 4480 	orr.w	r4, r4, #16384	; 0x4000
 8002f5c:	6654      	str	r4, [r2, #100]	; 0x64
 8002f5e:	d20b      	bcs.n	8002f78 <Reset_Handler+0xf8>
 8002f60:	43da      	mvns	r2, r3
 8002f62:	4410      	add	r0, r2
 8002f64:	f020 0003 	bic.w	r0, r0, #3
 8002f68:	4418      	add	r0, r3
 8002f6a:	f04f 3255 	mov.w	r2, #1431655765	; 0x55555555
 8002f6e:	3b04      	subs	r3, #4
 8002f70:	f843 2f04 	str.w	r2, [r3, #4]!
 8002f74:	4283      	cmp	r3, r0
 8002f76:	d1fb      	bne.n	8002f70 <Reset_Handler+0xf0>
 8002f78:	4b26      	ldr	r3, [pc, #152]	; (8003014 <Reset_Handler+0x194>)
 8002f7a:	428b      	cmp	r3, r1
 8002f7c:	d20c      	bcs.n	8002f98 <Reset_Handler+0x118>
 8002f7e:	4926      	ldr	r1, [pc, #152]	; (8003018 <Reset_Handler+0x198>)
 8002f80:	1d1a      	adds	r2, r3, #4
 8002f82:	1a89      	subs	r1, r1, r2
 8002f84:	f021 0103 	bic.w	r1, r1, #3
 8002f88:	4419      	add	r1, r3
 8002f8a:	f04f 3255 	mov.w	r2, #1431655765	; 0x55555555
 8002f8e:	3b04      	subs	r3, #4
 8002f90:	f843 2f04 	str.w	r2, [r3, #4]!
 8002f94:	428b      	cmp	r3, r1
 8002f96:	d1fb      	bne.n	8002f90 <Reset_Handler+0x110>
 8002f98:	4920      	ldr	r1, [pc, #128]	; (800301c <Reset_Handler+0x19c>)
 8002f9a:	4b21      	ldr	r3, [pc, #132]	; (8003020 <Reset_Handler+0x1a0>)
 8002f9c:	4299      	cmp	r1, r3
 8002f9e:	d20b      	bcs.n	8002fb8 <Reset_Handler+0x138>
 8002fa0:	43c8      	mvns	r0, r1
 8002fa2:	4418      	add	r0, r3
 8002fa4:	f020 0003 	bic.w	r0, r0, #3
 8002fa8:	4c1e      	ldr	r4, [pc, #120]	; (8003024 <Reset_Handler+0x1a4>)
 8002faa:	3004      	adds	r0, #4
 8002fac:	2300      	movs	r3, #0
 8002fae:	58e2      	ldr	r2, [r4, r3]
 8002fb0:	50ca      	str	r2, [r1, r3]
 8002fb2:	3304      	adds	r3, #4
 8002fb4:	4283      	cmp	r3, r0
 8002fb6:	d1fa      	bne.n	8002fae <Reset_Handler+0x12e>
 8002fb8:	4b1b      	ldr	r3, [pc, #108]	; (8003028 <Reset_Handler+0x1a8>)
 8002fba:	4a1c      	ldr	r2, [pc, #112]	; (800302c <Reset_Handler+0x1ac>)
 8002fbc:	4293      	cmp	r3, r2
 8002fbe:	d20a      	bcs.n	8002fd6 <Reset_Handler+0x156>
 8002fc0:	43d9      	mvns	r1, r3
 8002fc2:	4411      	add	r1, r2
 8002fc4:	f021 0103 	bic.w	r1, r1, #3
 8002fc8:	4419      	add	r1, r3
 8002fca:	2200      	movs	r2, #0
 8002fcc:	3b04      	subs	r3, #4
 8002fce:	f843 2f04 	str.w	r2, [r3, #4]!
 8002fd2:	428b      	cmp	r3, r1
 8002fd4:	d1fb      	bne.n	8002fce <Reset_Handler+0x14e>
 8002fd6:	4c16      	ldr	r4, [pc, #88]	; (8003030 <Reset_Handler+0x1b0>)
 8002fd8:	4d16      	ldr	r5, [pc, #88]	; (8003034 <Reset_Handler+0x1b4>)
 8002fda:	42ac      	cmp	r4, r5
 8002fdc:	d204      	bcs.n	8002fe8 <Reset_Handler+0x168>
 8002fde:	f854 3b04 	ldr.w	r3, [r4], #4
 8002fe2:	4798      	blx	r3
 8002fe4:	42ac      	cmp	r4, r5
 8002fe6:	d3fa      	bcc.n	8002fde <Reset_Handler+0x15e>
 8002fe8:	f7fd f8ea 	bl	80001c0 <main>
 8002fec:	20000800 	.word	0x20000800
 8002ff0:	e000ed88 	.word	0xe000ed88
 8002ff4:	e000ef34 	.word	0xe000ef34
 8002ff8:	40023800 	.word	0x40023800
 8002ffc:	40007000 	.word	0x40007000
 8003000:	07415410 	.word	0x07415410
 8003004:	40023c00 	.word	0x40023c00
 8003008:	38481000 	.word	0x38481000
 800300c:	20000000 	.word	0x20000000
 8003010:	20000400 	.word	0x20000400
 8003014:	20000400 	.word	0x20000400
 8003018:	20000803 	.word	0x20000803
 800301c:	20000800 	.word	0x20000800
 8003020:	20000838 	.word	0x20000838
 8003024:	08004b10 	.word	0x08004b10
 8003028:	20000838 	.word	0x20000838
 800302c:	20002f24 	.word	0x20002f24
 8003030:	080001c0 	.word	0x080001c0
 8003034:	080001c0 	.word	0x080001c0
 8003038:	f3af 8000 	nop.w
 800303c:	f3af 8000 	nop.w

08003040 <adc_lld_stop_conversion.4231>:
 8003040:	6ac1      	ldr	r1, [r0, #44]	; 0x2c
 8003042:	680a      	ldr	r2, [r1, #0]
 8003044:	6813      	ldr	r3, [r2, #0]
 8003046:	f023 031f 	bic.w	r3, r3, #31
 800304a:	b410      	push	{r4}
 800304c:	6013      	str	r3, [r2, #0]
 800304e:	6813      	ldr	r3, [r2, #0]
 8003050:	f013 0301 	ands.w	r3, r3, #1
 8003054:	d1fb      	bne.n	800304e <adc_lld_stop_conversion.4231+0xe>
 8003056:	7a0c      	ldrb	r4, [r1, #8]
 8003058:	6a82      	ldr	r2, [r0, #40]	; 0x28
 800305a:	6848      	ldr	r0, [r1, #4]
 800305c:	213d      	movs	r1, #61	; 0x3d
 800305e:	fa01 f404 	lsl.w	r4, r1, r4
 8003062:	2101      	movs	r1, #1
 8003064:	6004      	str	r4, [r0, #0]
 8003066:	6053      	str	r3, [r2, #4]
 8003068:	f85d 4b04 	ldr.w	r4, [sp], #4
 800306c:	6093      	str	r3, [r2, #8]
 800306e:	6091      	str	r1, [r2, #8]
 8003070:	4770      	bx	lr
 8003072:	bf00      	nop
 8003074:	f3af 8000 	nop.w
 8003078:	f3af 8000 	nop.w
 800307c:	f3af 8000 	nop.w

08003080 <chCoreAlloc>:
 8003080:	2320      	movs	r3, #32
 8003082:	f383 8811 	msr	BASEPRI, r3
 8003086:	4a09      	ldr	r2, [pc, #36]	; (80030ac <chCoreAlloc+0x2c>)
 8003088:	4909      	ldr	r1, [pc, #36]	; (80030b0 <chCoreAlloc+0x30>)
 800308a:	6813      	ldr	r3, [r2, #0]
 800308c:	6809      	ldr	r1, [r1, #0]
 800308e:	3007      	adds	r0, #7
 8003090:	f020 0007 	bic.w	r0, r0, #7
 8003094:	1ac9      	subs	r1, r1, r3
 8003096:	4288      	cmp	r0, r1
 8003098:	bf9b      	ittet	ls
 800309a:	18c0      	addls	r0, r0, r3
 800309c:	6010      	strls	r0, [r2, #0]
 800309e:	2000      	movhi	r0, #0
 80030a0:	4618      	movls	r0, r3
 80030a2:	2300      	movs	r3, #0
 80030a4:	f383 8811 	msr	BASEPRI, r3
 80030a8:	4770      	bx	lr
 80030aa:	bf00      	nop
 80030ac:	2000083c 	.word	0x2000083c
 80030b0:	2000251c 	.word	0x2000251c
 80030b4:	f3af 8000 	nop.w
 80030b8:	f3af 8000 	nop.w
 80030bc:	f3af 8000 	nop.w

080030c0 <wakeup.4718>:
 80030c0:	b410      	push	{r4}
 80030c2:	2320      	movs	r3, #32
 80030c4:	f383 8811 	msr	BASEPRI, r3
 80030c8:	7f03      	ldrb	r3, [r0, #28]
 80030ca:	2b07      	cmp	r3, #7
 80030cc:	d80e      	bhi.n	80030ec <wakeup.4718+0x2c>
 80030ce:	e8df f003 	tbb	[pc, r3]
 80030d2:	0d27      	.short	0x0d27
 80030d4:	0408230d 	.word	0x0408230d
 80030d8:	080d      	.short	0x080d
 80030da:	6a03      	ldr	r3, [r0, #32]
 80030dc:	689a      	ldr	r2, [r3, #8]
 80030de:	3201      	adds	r2, #1
 80030e0:	609a      	str	r2, [r3, #8]
 80030e2:	e890 000c 	ldmia.w	r0, {r2, r3}
 80030e6:	601a      	str	r2, [r3, #0]
 80030e8:	6802      	ldr	r2, [r0, #0]
 80030ea:	6053      	str	r3, [r2, #4]
 80030ec:	f04f 34ff 	mov.w	r4, #4294967295	; 0xffffffff
 80030f0:	2200      	movs	r2, #0
 80030f2:	6881      	ldr	r1, [r0, #8]
 80030f4:	4b0d      	ldr	r3, [pc, #52]	; (800312c <wakeup.4718+0x6c>)
 80030f6:	6204      	str	r4, [r0, #32]
 80030f8:	7702      	strb	r2, [r0, #28]
 80030fa:	681b      	ldr	r3, [r3, #0]
 80030fc:	689a      	ldr	r2, [r3, #8]
 80030fe:	428a      	cmp	r2, r1
 8003100:	d2fb      	bcs.n	80030fa <wakeup.4718+0x3a>
 8003102:	685a      	ldr	r2, [r3, #4]
 8003104:	6042      	str	r2, [r0, #4]
 8003106:	6003      	str	r3, [r0, #0]
 8003108:	2100      	movs	r1, #0
 800310a:	6058      	str	r0, [r3, #4]
 800310c:	6010      	str	r0, [r2, #0]
 800310e:	f381 8811 	msr	BASEPRI, r1
 8003112:	f85d 4b04 	ldr.w	r4, [sp], #4
 8003116:	4770      	bx	lr
 8003118:	6a03      	ldr	r3, [r0, #32]
 800311a:	2200      	movs	r2, #0
 800311c:	601a      	str	r2, [r3, #0]
 800311e:	e7e5      	b.n	80030ec <wakeup.4718+0x2c>
 8003120:	2300      	movs	r3, #0
 8003122:	f383 8811 	msr	BASEPRI, r3
 8003126:	f85d 4b04 	ldr.w	r4, [sp], #4
 800312a:	4770      	bx	lr
 800312c:	20002ef0 	.word	0x20002ef0

08003130 <_idle_thread.4338>:
 8003130:	4b02      	ldr	r3, [pc, #8]	; (800313c <_idle_thread.4338+0xc>)
 8003132:	4a03      	ldr	r2, [pc, #12]	; (8003140 <_idle_thread.4338+0x10>)
 8003134:	699b      	ldr	r3, [r3, #24]
 8003136:	619a      	str	r2, [r3, #24]
 8003138:	e7fe      	b.n	8003138 <_idle_thread.4338+0x8>
 800313a:	bf00      	nop
 800313c:	20002ef0 	.word	0x20002ef0
 8003140:	08004ae0 	.word	0x08004ae0
 8003144:	f3af 8000 	nop.w
 8003148:	f3af 8000 	nop.w
 800314c:	f3af 8000 	nop.w

08003150 <SVC_Handler>:
 8003150:	4b06      	ldr	r3, [pc, #24]	; (800316c <SVC_Handler+0x1c>)
 8003152:	685a      	ldr	r2, [r3, #4]
 8003154:	f022 0201 	bic.w	r2, r2, #1
 8003158:	605a      	str	r2, [r3, #4]
 800315a:	f3ef 8309 	mrs	r3, PSP
 800315e:	3368      	adds	r3, #104	; 0x68
 8003160:	f383 8809 	msr	PSP, r3
 8003164:	2300      	movs	r3, #0
 8003166:	f383 8811 	msr	BASEPRI, r3
 800316a:	4770      	bx	lr
 800316c:	e000ef30 	.word	0xe000ef30

08003170 <dmaStreamRelease>:
 8003170:	7a82      	ldrb	r2, [r0, #10]
 8003172:	4b16      	ldr	r3, [pc, #88]	; (80031cc <dmaStreamRelease+0x5c>)
 8003174:	4916      	ldr	r1, [pc, #88]	; (80031d0 <dmaStreamRelease+0x60>)
 8003176:	b470      	push	{r4, r5, r6}
 8003178:	0955      	lsrs	r5, r2, #5
 800317a:	2401      	movs	r4, #1
 800317c:	f002 061f 	and.w	r6, r2, #31
 8003180:	3520      	adds	r5, #32
 8003182:	f102 4260 	add.w	r2, r2, #3758096384	; 0xe0000000
 8003186:	f502 4261 	add.w	r2, r2, #57600	; 0xe100
 800318a:	fa04 f606 	lsl.w	r6, r4, r6
 800318e:	f843 6025 	str.w	r6, [r3, r5, lsl #2]
 8003192:	2300      	movs	r3, #0
 8003194:	f882 3300 	strb.w	r3, [r2, #768]	; 0x300
 8003198:	7a43      	ldrb	r3, [r0, #9]
 800319a:	680a      	ldr	r2, [r1, #0]
 800319c:	fa04 f303 	lsl.w	r3, r4, r3
 80031a0:	ea22 0303 	bic.w	r3, r2, r3
 80031a4:	f013 0fff 	tst.w	r3, #255	; 0xff
 80031a8:	600b      	str	r3, [r1, #0]
 80031aa:	d104      	bne.n	80031b6 <dmaStreamRelease+0x46>
 80031ac:	4a09      	ldr	r2, [pc, #36]	; (80031d4 <dmaStreamRelease+0x64>)
 80031ae:	6b11      	ldr	r1, [r2, #48]	; 0x30
 80031b0:	f421 1100 	bic.w	r1, r1, #2097152	; 0x200000
 80031b4:	6311      	str	r1, [r2, #48]	; 0x30
 80031b6:	f413 4f7f 	tst.w	r3, #65280	; 0xff00
 80031ba:	d104      	bne.n	80031c6 <dmaStreamRelease+0x56>
 80031bc:	4b05      	ldr	r3, [pc, #20]	; (80031d4 <dmaStreamRelease+0x64>)
 80031be:	6b1a      	ldr	r2, [r3, #48]	; 0x30
 80031c0:	f422 0280 	bic.w	r2, r2, #4194304	; 0x400000
 80031c4:	631a      	str	r2, [r3, #48]	; 0x30
 80031c6:	bc70      	pop	{r4, r5, r6}
 80031c8:	4770      	bx	lr
 80031ca:	bf00      	nop
 80031cc:	e000e100 	.word	0xe000e100
 80031d0:	20000838 	.word	0x20000838
 80031d4:	40023800 	.word	0x40023800
 80031d8:	f3af 8000 	nop.w
 80031dc:	f3af 8000 	nop.w

080031e0 <dmaStreamAllocate>:
 80031e0:	e92d 01f0 	stmdb	sp!, {r4, r5, r6, r7, r8}
 80031e4:	4d2b      	ldr	r5, [pc, #172]	; (8003294 <dmaStreamAllocate+0xb4>)
 80031e6:	7a44      	ldrb	r4, [r0, #9]
 80031e8:	682e      	ldr	r6, [r5, #0]
 80031ea:	f04f 0c01 	mov.w	ip, #1
 80031ee:	fa0c f704 	lsl.w	r7, ip, r4
 80031f2:	4237      	tst	r7, r6
 80031f4:	d146      	bne.n	8003284 <dmaStreamAllocate+0xa4>
 80031f6:	f8df c0a4 	ldr.w	ip, [pc, #164]	; 800329c <dmaStreamAllocate+0xbc>
 80031fa:	433e      	orrs	r6, r7
 80031fc:	eb0c 08c4 	add.w	r8, ip, r4, lsl #3
 8003200:	f016 0fff 	tst.w	r6, #255	; 0xff
 8003204:	f84c 2034 	str.w	r2, [ip, r4, lsl #3]
 8003208:	602e      	str	r6, [r5, #0]
 800320a:	f8c8 3004 	str.w	r3, [r8, #4]
 800320e:	d004      	beq.n	800321a <dmaStreamAllocate+0x3a>
 8003210:	4b21      	ldr	r3, [pc, #132]	; (8003298 <dmaStreamAllocate+0xb8>)
 8003212:	6b1c      	ldr	r4, [r3, #48]	; 0x30
 8003214:	f444 1400 	orr.w	r4, r4, #2097152	; 0x200000
 8003218:	631c      	str	r4, [r3, #48]	; 0x30
 800321a:	f416 4f7f 	tst.w	r6, #65280	; 0xff00
 800321e:	d12b      	bne.n	8003278 <dmaStreamAllocate+0x98>
 8003220:	6804      	ldr	r4, [r0, #0]
 8003222:	6823      	ldr	r3, [r4, #0]
 8003224:	f023 031f 	bic.w	r3, r3, #31
 8003228:	6023      	str	r3, [r4, #0]
 800322a:	6823      	ldr	r3, [r4, #0]
 800322c:	f013 0301 	ands.w	r3, r3, #1
 8003230:	d1fb      	bne.n	800322a <dmaStreamAllocate+0x4a>
 8003232:	7a06      	ldrb	r6, [r0, #8]
 8003234:	6845      	ldr	r5, [r0, #4]
 8003236:	273d      	movs	r7, #61	; 0x3d
 8003238:	40b7      	lsls	r7, r6
 800323a:	2621      	movs	r6, #33	; 0x21
 800323c:	602f      	str	r7, [r5, #0]
 800323e:	6023      	str	r3, [r4, #0]
 8003240:	6166      	str	r6, [r4, #20]
 8003242:	b31a      	cbz	r2, 800328c <dmaStreamAllocate+0xac>
 8003244:	7a80      	ldrb	r0, [r0, #10]
 8003246:	0944      	lsrs	r4, r0, #5
 8003248:	00a4      	lsls	r4, r4, #2
 800324a:	f100 4260 	add.w	r2, r0, #3758096384	; 0xe0000000
 800324e:	f104 4460 	add.w	r4, r4, #3758096384	; 0xe0000000
 8003252:	f504 4461 	add.w	r4, r4, #57600	; 0xe100
 8003256:	f000 001f 	and.w	r0, r0, #31
 800325a:	0109      	lsls	r1, r1, #4
 800325c:	f502 4261 	add.w	r2, r2, #57600	; 0xe100
 8003260:	2501      	movs	r5, #1
 8003262:	4085      	lsls	r5, r0
 8003264:	b2c9      	uxtb	r1, r1
 8003266:	f882 1300 	strb.w	r1, [r2, #768]	; 0x300
 800326a:	f8c4 5180 	str.w	r5, [r4, #384]	; 0x180
 800326e:	6025      	str	r5, [r4, #0]
 8003270:	4618      	mov	r0, r3
 8003272:	e8bd 01f0 	ldmia.w	sp!, {r4, r5, r6, r7, r8}
 8003276:	4770      	bx	lr
 8003278:	4b07      	ldr	r3, [pc, #28]	; (8003298 <dmaStreamAllocate+0xb8>)
 800327a:	6b1c      	ldr	r4, [r3, #48]	; 0x30
 800327c:	f444 0480 	orr.w	r4, r4, #4194304	; 0x400000
 8003280:	631c      	str	r4, [r3, #48]	; 0x30
 8003282:	e7cd      	b.n	8003220 <dmaStreamAllocate+0x40>
 8003284:	4660      	mov	r0, ip
 8003286:	e8bd 01f0 	ldmia.w	sp!, {r4, r5, r6, r7, r8}
 800328a:	4770      	bx	lr
 800328c:	4610      	mov	r0, r2
 800328e:	e8bd 01f0 	ldmia.w	sp!, {r4, r5, r6, r7, r8}
 8003292:	4770      	bx	lr
 8003294:	20000838 	.word	0x20000838
 8003298:	40023800 	.word	0x40023800
 800329c:	200009e0 	.word	0x200009e0

080032a0 <chSchDoRescheduleAhead>:
 80032a0:	4a0d      	ldr	r2, [pc, #52]	; (80032d8 <chSchDoRescheduleAhead+0x38>)
 80032a2:	6810      	ldr	r0, [r2, #0]
 80032a4:	b470      	push	{r4, r5, r6}
 80032a6:	6803      	ldr	r3, [r0, #0]
 80032a8:	6995      	ldr	r5, [r2, #24]
 80032aa:	6013      	str	r3, [r2, #0]
 80032ac:	2601      	movs	r6, #1
 80032ae:	2100      	movs	r1, #0
 80032b0:	68ac      	ldr	r4, [r5, #8]
 80032b2:	605a      	str	r2, [r3, #4]
 80032b4:	7706      	strb	r6, [r0, #28]
 80032b6:	4603      	mov	r3, r0
 80032b8:	6190      	str	r0, [r2, #24]
 80032ba:	7729      	strb	r1, [r5, #28]
 80032bc:	e000      	b.n	80032c0 <chSchDoRescheduleAhead+0x20>
 80032be:	681b      	ldr	r3, [r3, #0]
 80032c0:	689a      	ldr	r2, [r3, #8]
 80032c2:	42a2      	cmp	r2, r4
 80032c4:	d8fb      	bhi.n	80032be <chSchDoRescheduleAhead+0x1e>
 80032c6:	685a      	ldr	r2, [r3, #4]
 80032c8:	606a      	str	r2, [r5, #4]
 80032ca:	602b      	str	r3, [r5, #0]
 80032cc:	4629      	mov	r1, r5
 80032ce:	605d      	str	r5, [r3, #4]
 80032d0:	6015      	str	r5, [r2, #0]
 80032d2:	bc70      	pop	{r4, r5, r6}
 80032d4:	f7fd bbbc 	b.w	8000a50 <_port_switch>
 80032d8:	20002ef0 	.word	0x20002ef0
 80032dc:	f3af 8000 	nop.w

080032e0 <chSchRescheduleS>:
 80032e0:	4b04      	ldr	r3, [pc, #16]	; (80032f4 <chSchRescheduleS+0x14>)
 80032e2:	681a      	ldr	r2, [r3, #0]
 80032e4:	699b      	ldr	r3, [r3, #24]
 80032e6:	6892      	ldr	r2, [r2, #8]
 80032e8:	689b      	ldr	r3, [r3, #8]
 80032ea:	429a      	cmp	r2, r3
 80032ec:	d800      	bhi.n	80032f0 <chSchRescheduleS+0x10>
 80032ee:	4770      	bx	lr
 80032f0:	f7ff bfd6 	b.w	80032a0 <chSchDoRescheduleAhead>
 80032f4:	20002ef0 	.word	0x20002ef0
 80032f8:	f3af 8000 	nop.w
 80032fc:	f3af 8000 	nop.w

08003300 <chSchGoSleepS>:
 8003300:	4b07      	ldr	r3, [pc, #28]	; (8003320 <chSchGoSleepS+0x20>)
 8003302:	b430      	push	{r4, r5}
 8003304:	681a      	ldr	r2, [r3, #0]
 8003306:	6999      	ldr	r1, [r3, #24]
 8003308:	6814      	ldr	r4, [r2, #0]
 800330a:	7708      	strb	r0, [r1, #28]
 800330c:	2501      	movs	r5, #1
 800330e:	6063      	str	r3, [r4, #4]
 8003310:	7715      	strb	r5, [r2, #28]
 8003312:	601c      	str	r4, [r3, #0]
 8003314:	4610      	mov	r0, r2
 8003316:	bc30      	pop	{r4, r5}
 8003318:	619a      	str	r2, [r3, #24]
 800331a:	f7fd bb99 	b.w	8000a50 <_port_switch>
 800331e:	bf00      	nop
 8003320:	20002ef0 	.word	0x20002ef0
 8003324:	f3af 8000 	nop.w
 8003328:	f3af 8000 	nop.w
 800332c:	f3af 8000 	nop.w

08003330 <_port_irq_epilogue>:
 8003330:	2320      	movs	r3, #32
 8003332:	f383 8811 	msr	BASEPRI, r3
 8003336:	4b12      	ldr	r3, [pc, #72]	; (8003380 <_port_irq_epilogue+0x50>)
 8003338:	685b      	ldr	r3, [r3, #4]
 800333a:	f413 6300 	ands.w	r3, r3, #2048	; 0x800
 800333e:	d102      	bne.n	8003346 <_port_irq_epilogue+0x16>
 8003340:	f383 8811 	msr	BASEPRI, r3
 8003344:	4770      	bx	lr
 8003346:	eef1 3a10 	vmrs	r3, fpscr
 800334a:	f3ef 8309 	mrs	r3, PSP
 800334e:	4a0d      	ldr	r2, [pc, #52]	; (8003384 <_port_irq_epilogue+0x54>)
 8003350:	f04f 7180 	mov.w	r1, #16777216	; 0x1000000
 8003354:	68d2      	ldr	r2, [r2, #12]
 8003356:	f843 2c08 	str.w	r2, [r3, #-8]
 800335a:	f843 1c4c 	str.w	r1, [r3, #-76]
 800335e:	f1a3 0268 	sub.w	r2, r3, #104	; 0x68
 8003362:	f382 8809 	msr	PSP, r2
 8003366:	4a08      	ldr	r2, [pc, #32]	; (8003388 <_port_irq_epilogue+0x58>)
 8003368:	6811      	ldr	r1, [r2, #0]
 800336a:	6992      	ldr	r2, [r2, #24]
 800336c:	6889      	ldr	r1, [r1, #8]
 800336e:	6892      	ldr	r2, [r2, #8]
 8003370:	4291      	cmp	r1, r2
 8003372:	bf8c      	ite	hi
 8003374:	4a05      	ldrhi	r2, [pc, #20]	; (800338c <_port_irq_epilogue+0x5c>)
 8003376:	4a06      	ldrls	r2, [pc, #24]	; (8003390 <_port_irq_epilogue+0x60>)
 8003378:	f843 2c50 	str.w	r2, [r3, #-80]
 800337c:	4770      	bx	lr
 800337e:	bf00      	nop
 8003380:	e000ed00 	.word	0xe000ed00
 8003384:	e000ef30 	.word	0xe000ef30
 8003388:	20002ef0 	.word	0x20002ef0
 800338c:	08000a77 	.word	0x08000a77
 8003390:	08000a7a 	.word	0x08000a7a
 8003394:	f3af 8000 	nop.w
 8003398:	f3af 8000 	nop.w
 800339c:	f3af 8000 	nop.w

080033a0 <Vector158>:
 80033a0:	4b08      	ldr	r3, [pc, #32]	; (80033c4 <Vector158+0x24>)
 80033a2:	4809      	ldr	r0, [pc, #36]	; (80033c8 <Vector158+0x28>)
 80033a4:	6859      	ldr	r1, [r3, #4]
 80033a6:	6f82      	ldr	r2, [r0, #120]	; 0x78
 80033a8:	0d89      	lsrs	r1, r1, #22
 80033aa:	f001 013d 	and.w	r1, r1, #61	; 0x3d
 80033ae:	b510      	push	{r4, lr}
 80033b0:	058c      	lsls	r4, r1, #22
 80033b2:	60dc      	str	r4, [r3, #12]
 80033b4:	b10a      	cbz	r2, 80033ba <Vector158+0x1a>
 80033b6:	6fc0      	ldr	r0, [r0, #124]	; 0x7c
 80033b8:	4790      	blx	r2
 80033ba:	e8bd 4010 	ldmia.w	sp!, {r4, lr}
 80033be:	f7ff bfb7 	b.w	8003330 <_port_irq_epilogue>
 80033c2:	bf00      	nop
 80033c4:	40026400 	.word	0x40026400
 80033c8:	200009e0 	.word	0x200009e0
 80033cc:	f3af 8000 	nop.w

080033d0 <Vector154>:
 80033d0:	4b08      	ldr	r3, [pc, #32]	; (80033f4 <Vector154+0x24>)
 80033d2:	4809      	ldr	r0, [pc, #36]	; (80033f8 <Vector154+0x28>)
 80033d4:	6859      	ldr	r1, [r3, #4]
 80033d6:	6f02      	ldr	r2, [r0, #112]	; 0x70
 80033d8:	0c09      	lsrs	r1, r1, #16
 80033da:	f001 013d 	and.w	r1, r1, #61	; 0x3d
 80033de:	b510      	push	{r4, lr}
 80033e0:	040c      	lsls	r4, r1, #16
 80033e2:	60dc      	str	r4, [r3, #12]
 80033e4:	b10a      	cbz	r2, 80033ea <Vector154+0x1a>
 80033e6:	6f40      	ldr	r0, [r0, #116]	; 0x74
 80033e8:	4790      	blx	r2
 80033ea:	e8bd 4010 	ldmia.w	sp!, {r4, lr}
 80033ee:	f7ff bf9f 	b.w	8003330 <_port_irq_epilogue>
 80033f2:	bf00      	nop
 80033f4:	40026400 	.word	0x40026400
 80033f8:	200009e0 	.word	0x200009e0
 80033fc:	f3af 8000 	nop.w

08003400 <Vector150>:
 8003400:	4b08      	ldr	r3, [pc, #32]	; (8003424 <Vector150+0x24>)
 8003402:	4809      	ldr	r0, [pc, #36]	; (8003428 <Vector150+0x28>)
 8003404:	6859      	ldr	r1, [r3, #4]
 8003406:	6e82      	ldr	r2, [r0, #104]	; 0x68
 8003408:	0989      	lsrs	r1, r1, #6
 800340a:	f001 013d 	and.w	r1, r1, #61	; 0x3d
 800340e:	b510      	push	{r4, lr}
 8003410:	018c      	lsls	r4, r1, #6
 8003412:	60dc      	str	r4, [r3, #12]
 8003414:	b10a      	cbz	r2, 800341a <Vector150+0x1a>
 8003416:	6ec0      	ldr	r0, [r0, #108]	; 0x6c
 8003418:	4790      	blx	r2
 800341a:	e8bd 4010 	ldmia.w	sp!, {r4, lr}
 800341e:	f7ff bf87 	b.w	8003330 <_port_irq_epilogue>
 8003422:	bf00      	nop
 8003424:	40026400 	.word	0x40026400
 8003428:	200009e0 	.word	0x200009e0
 800342c:	f3af 8000 	nop.w

08003430 <Vector130>:
 8003430:	b508      	push	{r3, lr}
 8003432:	4b07      	ldr	r3, [pc, #28]	; (8003450 <Vector130+0x20>)
 8003434:	4807      	ldr	r0, [pc, #28]	; (8003454 <Vector130+0x24>)
 8003436:	6859      	ldr	r1, [r3, #4]
 8003438:	6e02      	ldr	r2, [r0, #96]	; 0x60
 800343a:	f001 013d 	and.w	r1, r1, #61	; 0x3d
 800343e:	60d9      	str	r1, [r3, #12]
 8003440:	b10a      	cbz	r2, 8003446 <Vector130+0x16>
 8003442:	6e40      	ldr	r0, [r0, #100]	; 0x64
 8003444:	4790      	blx	r2
 8003446:	e8bd 4008 	ldmia.w	sp!, {r3, lr}
 800344a:	f7ff bf71 	b.w	8003330 <_port_irq_epilogue>
 800344e:	bf00      	nop
 8003450:	40026400 	.word	0x40026400
 8003454:	200009e0 	.word	0x200009e0
 8003458:	f3af 8000 	nop.w
 800345c:	f3af 8000 	nop.w

08003460 <Vector12C>:
 8003460:	4b08      	ldr	r3, [pc, #32]	; (8003484 <Vector12C+0x24>)
 8003462:	4809      	ldr	r0, [pc, #36]	; (8003488 <Vector12C+0x28>)
 8003464:	6819      	ldr	r1, [r3, #0]
 8003466:	6d82      	ldr	r2, [r0, #88]	; 0x58
 8003468:	0d89      	lsrs	r1, r1, #22
 800346a:	f001 013d 	and.w	r1, r1, #61	; 0x3d
 800346e:	b510      	push	{r4, lr}
 8003470:	058c      	lsls	r4, r1, #22
 8003472:	609c      	str	r4, [r3, #8]
 8003474:	b10a      	cbz	r2, 800347a <Vector12C+0x1a>
 8003476:	6dc0      	ldr	r0, [r0, #92]	; 0x5c
 8003478:	4790      	blx	r2
 800347a:	e8bd 4010 	ldmia.w	sp!, {r4, lr}
 800347e:	f7ff bf57 	b.w	8003330 <_port_irq_epilogue>
 8003482:	bf00      	nop
 8003484:	40026400 	.word	0x40026400
 8003488:	200009e0 	.word	0x200009e0
 800348c:	f3af 8000 	nop.w

08003490 <Vector128>:
 8003490:	4b08      	ldr	r3, [pc, #32]	; (80034b4 <Vector128+0x24>)
 8003492:	4809      	ldr	r0, [pc, #36]	; (80034b8 <Vector128+0x28>)
 8003494:	6819      	ldr	r1, [r3, #0]
 8003496:	6d02      	ldr	r2, [r0, #80]	; 0x50
 8003498:	0c09      	lsrs	r1, r1, #16
 800349a:	f001 013d 	and.w	r1, r1, #61	; 0x3d
 800349e:	b510      	push	{r4, lr}
 80034a0:	040c      	lsls	r4, r1, #16
 80034a2:	609c      	str	r4, [r3, #8]
 80034a4:	b10a      	cbz	r2, 80034aa <Vector128+0x1a>
 80034a6:	6d40      	ldr	r0, [r0, #84]	; 0x54
 80034a8:	4790      	blx	r2
 80034aa:	e8bd 4010 	ldmia.w	sp!, {r4, lr}
 80034ae:	f7ff bf3f 	b.w	8003330 <_port_irq_epilogue>
 80034b2:	bf00      	nop
 80034b4:	40026400 	.word	0x40026400
 80034b8:	200009e0 	.word	0x200009e0
 80034bc:	f3af 8000 	nop.w

080034c0 <Vector124>:
 80034c0:	4b08      	ldr	r3, [pc, #32]	; (80034e4 <Vector124+0x24>)
 80034c2:	4809      	ldr	r0, [pc, #36]	; (80034e8 <Vector124+0x28>)
 80034c4:	6819      	ldr	r1, [r3, #0]
 80034c6:	6c82      	ldr	r2, [r0, #72]	; 0x48
 80034c8:	0989      	lsrs	r1, r1, #6
 80034ca:	f001 013d 	and.w	r1, r1, #61	; 0x3d
 80034ce:	b510      	push	{r4, lr}
 80034d0:	018c      	lsls	r4, r1, #6
 80034d2:	609c      	str	r4, [r3, #8]
 80034d4:	b10a      	cbz	r2, 80034da <Vector124+0x1a>
 80034d6:	6cc0      	ldr	r0, [r0, #76]	; 0x4c
 80034d8:	4790      	blx	r2
 80034da:	e8bd 4010 	ldmia.w	sp!, {r4, lr}
 80034de:	f7ff bf27 	b.w	8003330 <_port_irq_epilogue>
 80034e2:	bf00      	nop
 80034e4:	40026400 	.word	0x40026400
 80034e8:	200009e0 	.word	0x200009e0
 80034ec:	f3af 8000 	nop.w

080034f0 <Vector120>:
 80034f0:	b508      	push	{r3, lr}
 80034f2:	4b07      	ldr	r3, [pc, #28]	; (8003510 <Vector120+0x20>)
 80034f4:	4807      	ldr	r0, [pc, #28]	; (8003514 <Vector120+0x24>)
 80034f6:	6819      	ldr	r1, [r3, #0]
 80034f8:	6c02      	ldr	r2, [r0, #64]	; 0x40
 80034fa:	f001 013d 	and.w	r1, r1, #61	; 0x3d
 80034fe:	6099      	str	r1, [r3, #8]
 8003500:	b10a      	cbz	r2, 8003506 <Vector120+0x16>
 8003502:	6c40      	ldr	r0, [r0, #68]	; 0x44
 8003504:	4790      	blx	r2
 8003506:	e8bd 4008 	ldmia.w	sp!, {r3, lr}
 800350a:	f7ff bf11 	b.w	8003330 <_port_irq_epilogue>
 800350e:	bf00      	nop
 8003510:	40026400 	.word	0x40026400
 8003514:	200009e0 	.word	0x200009e0
 8003518:	f3af 8000 	nop.w
 800351c:	f3af 8000 	nop.w

08003520 <VectorFC>:
 8003520:	4b08      	ldr	r3, [pc, #32]	; (8003544 <VectorFC+0x24>)
 8003522:	4809      	ldr	r0, [pc, #36]	; (8003548 <VectorFC+0x28>)
 8003524:	6859      	ldr	r1, [r3, #4]
 8003526:	6b82      	ldr	r2, [r0, #56]	; 0x38
 8003528:	0d89      	lsrs	r1, r1, #22
 800352a:	f001 013d 	and.w	r1, r1, #61	; 0x3d
 800352e:	b510      	push	{r4, lr}
 8003530:	058c      	lsls	r4, r1, #22
 8003532:	60dc      	str	r4, [r3, #12]
 8003534:	b10a      	cbz	r2, 800353a <VectorFC+0x1a>
 8003536:	6bc0      	ldr	r0, [r0, #60]	; 0x3c
 8003538:	4790      	blx	r2
 800353a:	e8bd 4010 	ldmia.w	sp!, {r4, lr}
 800353e:	f7ff bef7 	b.w	8003330 <_port_irq_epilogue>
 8003542:	bf00      	nop
 8003544:	40026000 	.word	0x40026000
 8003548:	200009e0 	.word	0x200009e0
 800354c:	f3af 8000 	nop.w

08003550 <Vector84>:
 8003550:	4b08      	ldr	r3, [pc, #32]	; (8003574 <Vector84+0x24>)
 8003552:	4809      	ldr	r0, [pc, #36]	; (8003578 <Vector84+0x28>)
 8003554:	6859      	ldr	r1, [r3, #4]
 8003556:	6b02      	ldr	r2, [r0, #48]	; 0x30
 8003558:	0c09      	lsrs	r1, r1, #16
 800355a:	f001 013d 	and.w	r1, r1, #61	; 0x3d
 800355e:	b510      	push	{r4, lr}
 8003560:	040c      	lsls	r4, r1, #16
 8003562:	60dc      	str	r4, [r3, #12]
 8003564:	b10a      	cbz	r2, 800356a <Vector84+0x1a>
 8003566:	6b40      	ldr	r0, [r0, #52]	; 0x34
 8003568:	4790      	blx	r2
 800356a:	e8bd 4010 	ldmia.w	sp!, {r4, lr}
 800356e:	f7ff bedf 	b.w	8003330 <_port_irq_epilogue>
 8003572:	bf00      	nop
 8003574:	40026000 	.word	0x40026000
 8003578:	200009e0 	.word	0x200009e0
 800357c:	f3af 8000 	nop.w

08003580 <Vector80>:
 8003580:	4b08      	ldr	r3, [pc, #32]	; (80035a4 <Vector80+0x24>)
 8003582:	4809      	ldr	r0, [pc, #36]	; (80035a8 <Vector80+0x28>)
 8003584:	6859      	ldr	r1, [r3, #4]
 8003586:	6a82      	ldr	r2, [r0, #40]	; 0x28
 8003588:	0989      	lsrs	r1, r1, #6
 800358a:	f001 013d 	and.w	r1, r1, #61	; 0x3d
 800358e:	b510      	push	{r4, lr}
 8003590:	018c      	lsls	r4, r1, #6
 8003592:	60dc      	str	r4, [r3, #12]
 8003594:	b10a      	cbz	r2, 800359a <Vector80+0x1a>
 8003596:	6ac0      	ldr	r0, [r0, #44]	; 0x2c
 8003598:	4790      	blx	r2
 800359a:	e8bd 4010 	ldmia.w	sp!, {r4, lr}
 800359e:	f7ff bec7 	b.w	8003330 <_port_irq_epilogue>
 80035a2:	bf00      	nop
 80035a4:	40026000 	.word	0x40026000
 80035a8:	200009e0 	.word	0x200009e0
 80035ac:	f3af 8000 	nop.w

080035b0 <Vector7C>:
 80035b0:	b508      	push	{r3, lr}
 80035b2:	4b07      	ldr	r3, [pc, #28]	; (80035d0 <Vector7C+0x20>)
 80035b4:	4807      	ldr	r0, [pc, #28]	; (80035d4 <Vector7C+0x24>)
 80035b6:	6859      	ldr	r1, [r3, #4]
 80035b8:	6a02      	ldr	r2, [r0, #32]
 80035ba:	f001 013d 	and.w	r1, r1, #61	; 0x3d
 80035be:	60d9      	str	r1, [r3, #12]
 80035c0:	b10a      	cbz	r2, 80035c6 <Vector7C+0x16>
 80035c2:	6a40      	ldr	r0, [r0, #36]	; 0x24
 80035c4:	4790      	blx	r2
 80035c6:	e8bd 4008 	ldmia.w	sp!, {r3, lr}
 80035ca:	f7ff beb1 	b.w	8003330 <_port_irq_epilogue>
 80035ce:	bf00      	nop
 80035d0:	40026000 	.word	0x40026000
 80035d4:	200009e0 	.word	0x200009e0
 80035d8:	f3af 8000 	nop.w
 80035dc:	f3af 8000 	nop.w

080035e0 <Vector78>:
 80035e0:	4b08      	ldr	r3, [pc, #32]	; (8003604 <Vector78+0x24>)
 80035e2:	4809      	ldr	r0, [pc, #36]	; (8003608 <Vector78+0x28>)
 80035e4:	6819      	ldr	r1, [r3, #0]
 80035e6:	6982      	ldr	r2, [r0, #24]
 80035e8:	0d89      	lsrs	r1, r1, #22
 80035ea:	f001 013d 	and.w	r1, r1, #61	; 0x3d
 80035ee:	b510      	push	{r4, lr}
 80035f0:	058c      	lsls	r4, r1, #22
 80035f2:	609c      	str	r4, [r3, #8]
 80035f4:	b10a      	cbz	r2, 80035fa <Vector78+0x1a>
 80035f6:	69c0      	ldr	r0, [r0, #28]
 80035f8:	4790      	blx	r2
 80035fa:	e8bd 4010 	ldmia.w	sp!, {r4, lr}
 80035fe:	f7ff be97 	b.w	8003330 <_port_irq_epilogue>
 8003602:	bf00      	nop
 8003604:	40026000 	.word	0x40026000
 8003608:	200009e0 	.word	0x200009e0
 800360c:	f3af 8000 	nop.w

08003610 <Vector74>:
 8003610:	4b08      	ldr	r3, [pc, #32]	; (8003634 <Vector74+0x24>)
 8003612:	4809      	ldr	r0, [pc, #36]	; (8003638 <Vector74+0x28>)
 8003614:	6819      	ldr	r1, [r3, #0]
 8003616:	6902      	ldr	r2, [r0, #16]
 8003618:	0c09      	lsrs	r1, r1, #16
 800361a:	f001 013d 	and.w	r1, r1, #61	; 0x3d
 800361e:	b510      	push	{r4, lr}
 8003620:	040c      	lsls	r4, r1, #16
 8003622:	609c      	str	r4, [r3, #8]
 8003624:	b10a      	cbz	r2, 800362a <Vector74+0x1a>
 8003626:	6940      	ldr	r0, [r0, #20]
 8003628:	4790      	blx	r2
 800362a:	e8bd 4010 	ldmia.w	sp!, {r4, lr}
 800362e:	f7ff be7f 	b.w	8003330 <_port_irq_epilogue>
 8003632:	bf00      	nop
 8003634:	40026000 	.word	0x40026000
 8003638:	200009e0 	.word	0x200009e0
 800363c:	f3af 8000 	nop.w

08003640 <Vector70>:
 8003640:	4b08      	ldr	r3, [pc, #32]	; (8003664 <Vector70+0x24>)
 8003642:	4809      	ldr	r0, [pc, #36]	; (8003668 <Vector70+0x28>)
 8003644:	6819      	ldr	r1, [r3, #0]
 8003646:	6882      	ldr	r2, [r0, #8]
 8003648:	0989      	lsrs	r1, r1, #6
 800364a:	f001 013d 	and.w	r1, r1, #61	; 0x3d
 800364e:	b510      	push	{r4, lr}
 8003650:	018c      	lsls	r4, r1, #6
 8003652:	609c      	str	r4, [r3, #8]
 8003654:	b10a      	cbz	r2, 800365a <Vector70+0x1a>
 8003656:	68c0      	ldr	r0, [r0, #12]
 8003658:	4790      	blx	r2
 800365a:	e8bd 4010 	ldmia.w	sp!, {r4, lr}
 800365e:	f7ff be67 	b.w	8003330 <_port_irq_epilogue>
 8003662:	bf00      	nop
 8003664:	40026000 	.word	0x40026000
 8003668:	200009e0 	.word	0x200009e0
 800366c:	f3af 8000 	nop.w

08003670 <Vector6C>:
 8003670:	b508      	push	{r3, lr}
 8003672:	4b07      	ldr	r3, [pc, #28]	; (8003690 <Vector6C+0x20>)
 8003674:	4a07      	ldr	r2, [pc, #28]	; (8003694 <Vector6C+0x24>)
 8003676:	6819      	ldr	r1, [r3, #0]
 8003678:	f001 013d 	and.w	r1, r1, #61	; 0x3d
 800367c:	6099      	str	r1, [r3, #8]
 800367e:	6813      	ldr	r3, [r2, #0]
 8003680:	b10b      	cbz	r3, 8003686 <Vector6C+0x16>
 8003682:	6850      	ldr	r0, [r2, #4]
 8003684:	4798      	blx	r3
 8003686:	e8bd 4008 	ldmia.w	sp!, {r3, lr}
 800368a:	f7ff be51 	b.w	8003330 <_port_irq_epilogue>
 800368e:	bf00      	nop
 8003690:	40026000 	.word	0x40026000
 8003694:	200009e0 	.word	0x200009e0
 8003698:	f3af 8000 	nop.w
 800369c:	f3af 8000 	nop.w

080036a0 <chSchReadyI>:
 80036a0:	2200      	movs	r2, #0
 80036a2:	6881      	ldr	r1, [r0, #8]
 80036a4:	4b08      	ldr	r3, [pc, #32]	; (80036c8 <chSchReadyI+0x28>)
 80036a6:	b410      	push	{r4}
 80036a8:	4604      	mov	r4, r0
 80036aa:	7702      	strb	r2, [r0, #28]
 80036ac:	681b      	ldr	r3, [r3, #0]
 80036ae:	689a      	ldr	r2, [r3, #8]
 80036b0:	428a      	cmp	r2, r1
 80036b2:	d2fb      	bcs.n	80036ac <chSchReadyI+0xc>
 80036b4:	685a      	ldr	r2, [r3, #4]
 80036b6:	6062      	str	r2, [r4, #4]
 80036b8:	6023      	str	r3, [r4, #0]
 80036ba:	4620      	mov	r0, r4
 80036bc:	605c      	str	r4, [r3, #4]
 80036be:	6014      	str	r4, [r2, #0]
 80036c0:	f85d 4b04 	ldr.w	r4, [sp], #4
 80036c4:	4770      	bx	lr
 80036c6:	bf00      	nop
 80036c8:	20002ef0 	.word	0x20002ef0
 80036cc:	f3af 8000 	nop.w

080036d0 <chEvtBroadcastFlagsI>:
 80036d0:	b5f8      	push	{r3, r4, r5, r6, r7, lr}
 80036d2:	6804      	ldr	r4, [r0, #0]
 80036d4:	42a0      	cmp	r0, r4
 80036d6:	4607      	mov	r7, r0
 80036d8:	460d      	mov	r5, r1
 80036da:	d01f      	beq.n	800371c <chEvtBroadcastFlagsI+0x4c>
 80036dc:	2600      	movs	r6, #0
 80036de:	e002      	b.n	80036e6 <chEvtBroadcastFlagsI+0x16>
 80036e0:	6824      	ldr	r4, [r4, #0]
 80036e2:	42a7      	cmp	r7, r4
 80036e4:	d01a      	beq.n	800371c <chEvtBroadcastFlagsI+0x4c>
 80036e6:	68e3      	ldr	r3, [r4, #12]
 80036e8:	432b      	orrs	r3, r5
 80036ea:	60e3      	str	r3, [r4, #12]
 80036ec:	b115      	cbz	r5, 80036f4 <chEvtBroadcastFlagsI+0x24>
 80036ee:	6922      	ldr	r2, [r4, #16]
 80036f0:	4213      	tst	r3, r2
 80036f2:	d0f5      	beq.n	80036e0 <chEvtBroadcastFlagsI+0x10>
 80036f4:	6860      	ldr	r0, [r4, #4]
 80036f6:	68a2      	ldr	r2, [r4, #8]
 80036f8:	6b41      	ldr	r1, [r0, #52]	; 0x34
 80036fa:	7f03      	ldrb	r3, [r0, #28]
 80036fc:	430a      	orrs	r2, r1
 80036fe:	2b0a      	cmp	r3, #10
 8003700:	6342      	str	r2, [r0, #52]	; 0x34
 8003702:	d00c      	beq.n	800371e <chEvtBroadcastFlagsI+0x4e>
 8003704:	2b0b      	cmp	r3, #11
 8003706:	d1eb      	bne.n	80036e0 <chEvtBroadcastFlagsI+0x10>
 8003708:	6a03      	ldr	r3, [r0, #32]
 800370a:	401a      	ands	r2, r3
 800370c:	4293      	cmp	r3, r2
 800370e:	d1e7      	bne.n	80036e0 <chEvtBroadcastFlagsI+0x10>
 8003710:	6206      	str	r6, [r0, #32]
 8003712:	f7ff ffc5 	bl	80036a0 <chSchReadyI>
 8003716:	6824      	ldr	r4, [r4, #0]
 8003718:	42a7      	cmp	r7, r4
 800371a:	d1e4      	bne.n	80036e6 <chEvtBroadcastFlagsI+0x16>
 800371c:	bdf8      	pop	{r3, r4, r5, r6, r7, pc}
 800371e:	6a03      	ldr	r3, [r0, #32]
 8003720:	421a      	tst	r2, r3
 8003722:	d0dd      	beq.n	80036e0 <chEvtBroadcastFlagsI+0x10>
 8003724:	6206      	str	r6, [r0, #32]
 8003726:	f7ff ffbb 	bl	80036a0 <chSchReadyI>
 800372a:	e7f4      	b.n	8003716 <chEvtBroadcastFlagsI+0x46>
 800372c:	f3af 8000 	nop.w

08003730 <chMtxLockS>:
 8003730:	b570      	push	{r4, r5, r6, lr}
 8003732:	4b2f      	ldr	r3, [pc, #188]	; (80037f0 <chMtxLockS+0xc0>)
 8003734:	4605      	mov	r5, r0
 8003736:	6880      	ldr	r0, [r0, #8]
 8003738:	699c      	ldr	r4, [r3, #24]
 800373a:	2800      	cmp	r0, #0
 800373c:	d053      	beq.n	80037e6 <chMtxLockS+0xb6>
 800373e:	68a2      	ldr	r2, [r4, #8]
 8003740:	6883      	ldr	r3, [r0, #8]
 8003742:	4293      	cmp	r3, r2
 8003744:	d206      	bcs.n	8003754 <chMtxLockS+0x24>
 8003746:	7f03      	ldrb	r3, [r0, #28]
 8003748:	6082      	str	r2, [r0, #8]
 800374a:	2b06      	cmp	r3, #6
 800374c:	d032      	beq.n	80037b4 <chMtxLockS+0x84>
 800374e:	2b07      	cmp	r3, #7
 8003750:	d01c      	beq.n	800378c <chMtxLockS+0x5c>
 8003752:	b19b      	cbz	r3, 800377c <chMtxLockS+0x4c>
 8003754:	462b      	mov	r3, r5
 8003756:	e003      	b.n	8003760 <chMtxLockS+0x30>
 8003758:	6899      	ldr	r1, [r3, #8]
 800375a:	68a2      	ldr	r2, [r4, #8]
 800375c:	4291      	cmp	r1, r2
 800375e:	d302      	bcc.n	8003766 <chMtxLockS+0x36>
 8003760:	681b      	ldr	r3, [r3, #0]
 8003762:	429d      	cmp	r5, r3
 8003764:	d1f8      	bne.n	8003758 <chMtxLockS+0x28>
 8003766:	685a      	ldr	r2, [r3, #4]
 8003768:	6062      	str	r2, [r4, #4]
 800376a:	6023      	str	r3, [r4, #0]
 800376c:	605c      	str	r4, [r3, #4]
 800376e:	6014      	str	r4, [r2, #0]
 8003770:	6225      	str	r5, [r4, #32]
 8003772:	2006      	movs	r0, #6
 8003774:	e8bd 4070 	ldmia.w	sp!, {r4, r5, r6, lr}
 8003778:	f7ff bdc2 	b.w	8003300 <chSchGoSleepS>
 800377c:	e890 000c 	ldmia.w	r0, {r2, r3}
 8003780:	601a      	str	r2, [r3, #0]
 8003782:	6802      	ldr	r2, [r0, #0]
 8003784:	6053      	str	r3, [r2, #4]
 8003786:	f7ff ff8b 	bl	80036a0 <chSchReadyI>
 800378a:	e7e3      	b.n	8003754 <chMtxLockS+0x24>
 800378c:	e890 000a 	ldmia.w	r0, {r1, r3}
 8003790:	6019      	str	r1, [r3, #0]
 8003792:	6a06      	ldr	r6, [r0, #32]
 8003794:	6801      	ldr	r1, [r0, #0]
 8003796:	604b      	str	r3, [r1, #4]
 8003798:	4633      	mov	r3, r6
 800379a:	e002      	b.n	80037a2 <chMtxLockS+0x72>
 800379c:	6899      	ldr	r1, [r3, #8]
 800379e:	4291      	cmp	r1, r2
 80037a0:	d302      	bcc.n	80037a8 <chMtxLockS+0x78>
 80037a2:	681b      	ldr	r3, [r3, #0]
 80037a4:	429e      	cmp	r6, r3
 80037a6:	d1f9      	bne.n	800379c <chMtxLockS+0x6c>
 80037a8:	685a      	ldr	r2, [r3, #4]
 80037aa:	6042      	str	r2, [r0, #4]
 80037ac:	6003      	str	r3, [r0, #0]
 80037ae:	6058      	str	r0, [r3, #4]
 80037b0:	6010      	str	r0, [r2, #0]
 80037b2:	e7cf      	b.n	8003754 <chMtxLockS+0x24>
 80037b4:	e890 000a 	ldmia.w	r0, {r1, r3}
 80037b8:	6019      	str	r1, [r3, #0]
 80037ba:	6a06      	ldr	r6, [r0, #32]
 80037bc:	6801      	ldr	r1, [r0, #0]
 80037be:	604b      	str	r3, [r1, #4]
 80037c0:	4633      	mov	r3, r6
 80037c2:	e002      	b.n	80037ca <chMtxLockS+0x9a>
 80037c4:	6899      	ldr	r1, [r3, #8]
 80037c6:	4291      	cmp	r1, r2
 80037c8:	d302      	bcc.n	80037d0 <chMtxLockS+0xa0>
 80037ca:	681b      	ldr	r3, [r3, #0]
 80037cc:	429e      	cmp	r6, r3
 80037ce:	d1f9      	bne.n	80037c4 <chMtxLockS+0x94>
 80037d0:	685a      	ldr	r2, [r3, #4]
 80037d2:	6042      	str	r2, [r0, #4]
 80037d4:	6003      	str	r3, [r0, #0]
 80037d6:	6058      	str	r0, [r3, #4]
 80037d8:	6010      	str	r0, [r2, #0]
 80037da:	68b0      	ldr	r0, [r6, #8]
 80037dc:	68a2      	ldr	r2, [r4, #8]
 80037de:	6883      	ldr	r3, [r0, #8]
 80037e0:	4293      	cmp	r3, r2
 80037e2:	d3b0      	bcc.n	8003746 <chMtxLockS+0x16>
 80037e4:	e7b6      	b.n	8003754 <chMtxLockS+0x24>
 80037e6:	6ba3      	ldr	r3, [r4, #56]	; 0x38
 80037e8:	60eb      	str	r3, [r5, #12]
 80037ea:	60ac      	str	r4, [r5, #8]
 80037ec:	63a5      	str	r5, [r4, #56]	; 0x38
 80037ee:	bd70      	pop	{r4, r5, r6, pc}
 80037f0:	20002ef0 	.word	0x20002ef0
 80037f4:	f3af 8000 	nop.w
 80037f8:	f3af 8000 	nop.w
 80037fc:	f3af 8000 	nop.w

08003800 <chThdResumeI>:
 8003800:	6803      	ldr	r3, [r0, #0]
 8003802:	b12b      	cbz	r3, 8003810 <chThdResumeI+0x10>
 8003804:	2200      	movs	r2, #0
 8003806:	6002      	str	r2, [r0, #0]
 8003808:	4618      	mov	r0, r3
 800380a:	6219      	str	r1, [r3, #32]
 800380c:	f7ff bf48 	b.w	80036a0 <chSchReadyI>
 8003810:	4770      	bx	lr
 8003812:	bf00      	nop
 8003814:	f3af 8000 	nop.w
 8003818:	f3af 8000 	nop.w
 800381c:	f3af 8000 	nop.w

08003820 <i2c_lld_serve_error_interrupt.11412>:
 8003820:	b570      	push	{r4, r5, r6, lr}
 8003822:	6b05      	ldr	r5, [r0, #48]	; 0x30
 8003824:	682a      	ldr	r2, [r5, #0]
 8003826:	6813      	ldr	r3, [r2, #0]
 8003828:	f023 031f 	bic.w	r3, r3, #31
 800382c:	6013      	str	r3, [r2, #0]
 800382e:	6813      	ldr	r3, [r2, #0]
 8003830:	07de      	lsls	r6, r3, #31
 8003832:	d4fc      	bmi.n	800382e <i2c_lld_serve_error_interrupt.11412+0xe>
 8003834:	7a2e      	ldrb	r6, [r5, #8]
 8003836:	6ac4      	ldr	r4, [r0, #44]	; 0x2c
 8003838:	686b      	ldr	r3, [r5, #4]
 800383a:	6822      	ldr	r2, [r4, #0]
 800383c:	253d      	movs	r5, #61	; 0x3d
 800383e:	40b5      	lsls	r5, r6
 8003840:	601d      	str	r5, [r3, #0]
 8003842:	6813      	ldr	r3, [r2, #0]
 8003844:	f023 031f 	bic.w	r3, r3, #31
 8003848:	6013      	str	r3, [r2, #0]
 800384a:	6813      	ldr	r3, [r2, #0]
 800384c:	f013 0301 	ands.w	r3, r3, #1
 8003850:	d1fb      	bne.n	800384a <i2c_lld_serve_error_interrupt.11412+0x2a>
 8003852:	7a25      	ldrb	r5, [r4, #8]
 8003854:	6862      	ldr	r2, [r4, #4]
 8003856:	243d      	movs	r4, #61	; 0x3d
 8003858:	40ac      	lsls	r4, r5
 800385a:	05cd      	lsls	r5, r1, #23
 800385c:	6014      	str	r4, [r2, #0]
 800385e:	bf48      	it	mi
 8003860:	2301      	movmi	r3, #1
 8003862:	058c      	lsls	r4, r1, #22
 8003864:	6083      	str	r3, [r0, #8]
 8003866:	bf44      	itt	mi
 8003868:	f043 0302 	orrmi.w	r3, r3, #2
 800386c:	6083      	strmi	r3, [r0, #8]
 800386e:	054a      	lsls	r2, r1, #21
 8003870:	d50b      	bpl.n	800388a <i2c_lld_serve_error_interrupt.11412+0x6a>
 8003872:	6b42      	ldr	r2, [r0, #52]	; 0x34
 8003874:	6854      	ldr	r4, [r2, #4]
 8003876:	f424 7400 	bic.w	r4, r4, #512	; 0x200
 800387a:	6054      	str	r4, [r2, #4]
 800387c:	6814      	ldr	r4, [r2, #0]
 800387e:	f043 0304 	orr.w	r3, r3, #4
 8003882:	f444 7400 	orr.w	r4, r4, #512	; 0x200
 8003886:	6014      	str	r4, [r2, #0]
 8003888:	6083      	str	r3, [r0, #8]
 800388a:	050e      	lsls	r6, r1, #20
 800388c:	bf44      	itt	mi
 800388e:	f043 0308 	orrmi.w	r3, r3, #8
 8003892:	6083      	strmi	r3, [r0, #8]
 8003894:	044d      	lsls	r5, r1, #17
 8003896:	bf44      	itt	mi
 8003898:	f043 0320 	orrmi.w	r3, r3, #32
 800389c:	6083      	strmi	r3, [r0, #8]
 800389e:	04cc      	lsls	r4, r1, #19
 80038a0:	bf44      	itt	mi
 80038a2:	f043 0310 	orrmi.w	r3, r3, #16
 80038a6:	6083      	strmi	r3, [r0, #8]
 80038a8:	040a      	lsls	r2, r1, #16
 80038aa:	d401      	bmi.n	80038b0 <i2c_lld_serve_error_interrupt.11412+0x90>
 80038ac:	b91b      	cbnz	r3, 80038b6 <i2c_lld_serve_error_interrupt.11412+0x96>
 80038ae:	bd70      	pop	{r4, r5, r6, pc}
 80038b0:	f043 0340 	orr.w	r3, r3, #64	; 0x40
 80038b4:	6083      	str	r3, [r0, #8]
 80038b6:	2320      	movs	r3, #32
 80038b8:	f383 8811 	msr	BASEPRI, r3
 80038bc:	f06f 0101 	mvn.w	r1, #1
 80038c0:	301c      	adds	r0, #28
 80038c2:	f7ff ff9d 	bl	8003800 <chThdResumeI>
 80038c6:	2300      	movs	r3, #0
 80038c8:	f383 8811 	msr	BASEPRI, r3
 80038cc:	bd70      	pop	{r4, r5, r6, pc}
 80038ce:	bf00      	nop

080038d0 <i2c_lld_serve_event_interrupt.11409>:
 80038d0:	b570      	push	{r4, r5, r6, lr}
 80038d2:	6b44      	ldr	r4, [r0, #52]	; 0x34
 80038d4:	4a3a      	ldr	r2, [pc, #232]	; (80039c0 <i2c_lld_serve_event_interrupt.11409+0xf0>)
 80038d6:	69a3      	ldr	r3, [r4, #24]
 80038d8:	6965      	ldr	r5, [r4, #20]
 80038da:	ea45 4303 	orr.w	r3, r5, r3, lsl #16
 80038de:	f023 437f 	bic.w	r3, r3, #4278190080	; 0xff000000
 80038e2:	4293      	cmp	r3, r2
 80038e4:	d04b      	beq.n	800397e <i2c_lld_serve_event_interrupt.11409+0xae>
 80038e6:	d81b      	bhi.n	8003920 <i2c_lld_serve_event_interrupt.11409+0x50>
 80038e8:	3a07      	subs	r2, #7
 80038ea:	4293      	cmp	r3, r2
 80038ec:	d03b      	beq.n	8003966 <i2c_lld_serve_event_interrupt.11409+0x96>
 80038ee:	3201      	adds	r2, #1
 80038f0:	4293      	cmp	r3, r2
 80038f2:	d110      	bne.n	8003916 <i2c_lld_serve_event_interrupt.11409+0x46>
 80038f4:	6862      	ldr	r2, [r4, #4]
 80038f6:	6ac3      	ldr	r3, [r0, #44]	; 0x2c
 80038f8:	f422 7200 	bic.w	r2, r2, #512	; 0x200
 80038fc:	681b      	ldr	r3, [r3, #0]
 80038fe:	6062      	str	r2, [r4, #4]
 8003900:	681a      	ldr	r2, [r3, #0]
 8003902:	f042 0201 	orr.w	r2, r2, #1
 8003906:	601a      	str	r2, [r3, #0]
 8003908:	6862      	ldr	r2, [r4, #4]
 800390a:	f442 5280 	orr.w	r2, r2, #4096	; 0x1000
 800390e:	6062      	str	r2, [r4, #4]
 8003910:	685b      	ldr	r3, [r3, #4]
 8003912:	2b01      	cmp	r3, #1
 8003914:	d94e      	bls.n	80039b4 <i2c_lld_serve_event_interrupt.11409+0xe4>
 8003916:	f015 0f0a 	tst.w	r5, #10
 800391a:	bf18      	it	ne
 800391c:	69a3      	ldrne	r3, [r4, #24]
 800391e:	bd70      	pop	{r4, r5, r6, pc}
 8003920:	4a28      	ldr	r2, [pc, #160]	; (80039c4 <i2c_lld_serve_event_interrupt.11409+0xf4>)
 8003922:	4293      	cmp	r3, r2
 8003924:	d010      	beq.n	8003948 <i2c_lld_serve_event_interrupt.11409+0x78>
 8003926:	3202      	adds	r2, #2
 8003928:	4293      	cmp	r3, r2
 800392a:	d1f4      	bne.n	8003916 <i2c_lld_serve_event_interrupt.11409+0x46>
 800392c:	6ac3      	ldr	r3, [r0, #44]	; 0x2c
 800392e:	681b      	ldr	r3, [r3, #0]
 8003930:	685e      	ldr	r6, [r3, #4]
 8003932:	2e00      	cmp	r6, #0
 8003934:	d02c      	beq.n	8003990 <i2c_lld_serve_event_interrupt.11409+0xc0>
 8003936:	8c02      	ldrh	r2, [r0, #32]
 8003938:	6823      	ldr	r3, [r4, #0]
 800393a:	f042 0201 	orr.w	r2, r2, #1
 800393e:	f443 63a0 	orr.w	r3, r3, #1280	; 0x500
 8003942:	8402      	strh	r2, [r0, #32]
 8003944:	6023      	str	r3, [r4, #0]
 8003946:	bd70      	pop	{r4, r5, r6, pc}
 8003948:	6862      	ldr	r2, [r4, #4]
 800394a:	6b03      	ldr	r3, [r0, #48]	; 0x30
 800394c:	f422 7200 	bic.w	r2, r2, #512	; 0x200
 8003950:	681b      	ldr	r3, [r3, #0]
 8003952:	6062      	str	r2, [r4, #4]
 8003954:	681a      	ldr	r2, [r3, #0]
 8003956:	f042 0201 	orr.w	r2, r2, #1
 800395a:	601a      	str	r2, [r3, #0]
 800395c:	f015 0f0a 	tst.w	r5, #10
 8003960:	bf18      	it	ne
 8003962:	69a3      	ldrne	r3, [r4, #24]
 8003964:	bd70      	pop	{r4, r5, r6, pc}
 8003966:	8c03      	ldrh	r3, [r0, #32]
 8003968:	0a1a      	lsrs	r2, r3, #8
 800396a:	d00b      	beq.n	8003984 <i2c_lld_serve_event_interrupt.11409+0xb4>
 800396c:	f003 0301 	and.w	r3, r3, #1
 8003970:	f043 03f0 	orr.w	r3, r3, #240	; 0xf0
 8003974:	f002 0206 	and.w	r2, r2, #6
 8003978:	431a      	orrs	r2, r3
 800397a:	6122      	str	r2, [r4, #16]
 800397c:	e7cb      	b.n	8003916 <i2c_lld_serve_event_interrupt.11409+0x46>
 800397e:	8c03      	ldrh	r3, [r0, #32]
 8003980:	f3c3 0347 	ubfx	r3, r3, #1, #8
 8003984:	6123      	str	r3, [r4, #16]
 8003986:	f015 0f0a 	tst.w	r5, #10
 800398a:	bf18      	it	ne
 800398c:	69a3      	ldrne	r3, [r4, #24]
 800398e:	bd70      	pop	{r4, r5, r6, pc}
 8003990:	6863      	ldr	r3, [r4, #4]
 8003992:	f423 7300 	bic.w	r3, r3, #512	; 0x200
 8003996:	6063      	str	r3, [r4, #4]
 8003998:	6823      	ldr	r3, [r4, #0]
 800399a:	f443 7300 	orr.w	r3, r3, #512	; 0x200
 800399e:	6023      	str	r3, [r4, #0]
 80039a0:	2320      	movs	r3, #32
 80039a2:	f383 8811 	msr	BASEPRI, r3
 80039a6:	301c      	adds	r0, #28
 80039a8:	4631      	mov	r1, r6
 80039aa:	f7ff ff29 	bl	8003800 <chThdResumeI>
 80039ae:	f386 8811 	msr	BASEPRI, r6
 80039b2:	e7b0      	b.n	8003916 <i2c_lld_serve_event_interrupt.11409+0x46>
 80039b4:	6823      	ldr	r3, [r4, #0]
 80039b6:	f423 6380 	bic.w	r3, r3, #1024	; 0x400
 80039ba:	6023      	str	r3, [r4, #0]
 80039bc:	e7ab      	b.n	8003916 <i2c_lld_serve_event_interrupt.11409+0x46>
 80039be:	bf00      	nop
 80039c0:	00030008 	.word	0x00030008
 80039c4:	00070082 	.word	0x00070082
 80039c8:	f3af 8000 	nop.w
 80039cc:	f3af 8000 	nop.w

080039d0 <Vector88>:
 80039d0:	b538      	push	{r3, r4, r5, lr}
 80039d2:	4b16      	ldr	r3, [pc, #88]	; (8003a2c <Vector88+0x5c>)
 80039d4:	681a      	ldr	r2, [r3, #0]
 80039d6:	2100      	movs	r1, #0
 80039d8:	6019      	str	r1, [r3, #0]
 80039da:	0693      	lsls	r3, r2, #26
 80039dc:	d522      	bpl.n	8003a24 <Vector88+0x54>
 80039de:	4c14      	ldr	r4, [pc, #80]	; (8003a30 <Vector88+0x60>)
 80039e0:	6ae3      	ldr	r3, [r4, #44]	; 0x2c
 80039e2:	681b      	ldr	r3, [r3, #0]
 80039e4:	685b      	ldr	r3, [r3, #4]
 80039e6:	b1eb      	cbz	r3, 8003a24 <Vector88+0x54>
 80039e8:	6923      	ldr	r3, [r4, #16]
 80039ea:	b1db      	cbz	r3, 8003a24 <Vector88+0x54>
 80039ec:	4620      	mov	r0, r4
 80039ee:	f7ff fb27 	bl	8003040 <adc_lld_stop_conversion.4231>
 80039f2:	6923      	ldr	r3, [r4, #16]
 80039f4:	689b      	ldr	r3, [r3, #8]
 80039f6:	b14b      	cbz	r3, 8003a0c <Vector88+0x3c>
 80039f8:	2205      	movs	r2, #5
 80039fa:	7022      	strb	r2, [r4, #0]
 80039fc:	4620      	mov	r0, r4
 80039fe:	2101      	movs	r1, #1
 8003a00:	4798      	blx	r3
 8003a02:	7823      	ldrb	r3, [r4, #0]
 8003a04:	2b05      	cmp	r3, #5
 8003a06:	bf04      	itt	eq
 8003a08:	2302      	moveq	r3, #2
 8003a0a:	7023      	strbeq	r3, [r4, #0]
 8003a0c:	2500      	movs	r5, #0
 8003a0e:	6125      	str	r5, [r4, #16]
 8003a10:	2320      	movs	r3, #32
 8003a12:	f383 8811 	msr	BASEPRI, r3
 8003a16:	4807      	ldr	r0, [pc, #28]	; (8003a34 <Vector88+0x64>)
 8003a18:	f04f 31ff 	mov.w	r1, #4294967295	; 0xffffffff
 8003a1c:	f7ff fef0 	bl	8003800 <chThdResumeI>
 8003a20:	f385 8811 	msr	BASEPRI, r5
 8003a24:	e8bd 4038 	ldmia.w	sp!, {r3, r4, r5, lr}
 8003a28:	f7ff bc82 	b.w	8003330 <_port_irq_epilogue>
 8003a2c:	40012000 	.word	0x40012000
 8003a30:	200029c4 	.word	0x200029c4
 8003a34:	200029d8 	.word	0x200029d8
 8003a38:	f3af 8000 	nop.w
 8003a3c:	f3af 8000 	nop.w

08003a40 <adc_lld_serve_rx_interrupt.11091>:
 8003a40:	f011 0f0c 	tst.w	r1, #12
 8003a44:	b538      	push	{r3, r4, r5, lr}
 8003a46:	4604      	mov	r4, r0
 8003a48:	d11d      	bne.n	8003a86 <adc_lld_serve_rx_interrupt.11091+0x46>
 8003a4a:	6903      	ldr	r3, [r0, #16]
 8003a4c:	b1d3      	cbz	r3, 8003a84 <adc_lld_serve_rx_interrupt.11091+0x44>
 8003a4e:	068d      	lsls	r5, r1, #26
 8003a50:	d510      	bpl.n	8003a74 <adc_lld_serve_rx_interrupt.11091+0x34>
 8003a52:	781d      	ldrb	r5, [r3, #0]
 8003a54:	2d00      	cmp	r5, #0
 8003a56:	d036      	beq.n	8003ac6 <adc_lld_serve_rx_interrupt.11091+0x86>
 8003a58:	685d      	ldr	r5, [r3, #4]
 8003a5a:	b19d      	cbz	r5, 8003a84 <adc_lld_serve_rx_interrupt.11091+0x44>
 8003a5c:	68c2      	ldr	r2, [r0, #12]
 8003a5e:	2a01      	cmp	r2, #1
 8003a60:	d92e      	bls.n	8003ac0 <adc_lld_serve_rx_interrupt.11091+0x80>
 8003a62:	8859      	ldrh	r1, [r3, #2]
 8003a64:	6883      	ldr	r3, [r0, #8]
 8003a66:	0852      	lsrs	r2, r2, #1
 8003a68:	fb01 f102 	mul.w	r1, r1, r2
 8003a6c:	eb03 0141 	add.w	r1, r3, r1, lsl #1
 8003a70:	47a8      	blx	r5
 8003a72:	bd38      	pop	{r3, r4, r5, pc}
 8003a74:	06ca      	lsls	r2, r1, #27
 8003a76:	d505      	bpl.n	8003a84 <adc_lld_serve_rx_interrupt.11091+0x44>
 8003a78:	685b      	ldr	r3, [r3, #4]
 8003a7a:	b11b      	cbz	r3, 8003a84 <adc_lld_serve_rx_interrupt.11091+0x44>
 8003a7c:	68c2      	ldr	r2, [r0, #12]
 8003a7e:	6881      	ldr	r1, [r0, #8]
 8003a80:	0852      	lsrs	r2, r2, #1
 8003a82:	4798      	blx	r3
 8003a84:	bd38      	pop	{r3, r4, r5, pc}
 8003a86:	f7ff fadb 	bl	8003040 <adc_lld_stop_conversion.4231>
 8003a8a:	6923      	ldr	r3, [r4, #16]
 8003a8c:	689b      	ldr	r3, [r3, #8]
 8003a8e:	b14b      	cbz	r3, 8003aa4 <adc_lld_serve_rx_interrupt.11091+0x64>
 8003a90:	2205      	movs	r2, #5
 8003a92:	7022      	strb	r2, [r4, #0]
 8003a94:	4620      	mov	r0, r4
 8003a96:	2100      	movs	r1, #0
 8003a98:	4798      	blx	r3
 8003a9a:	7823      	ldrb	r3, [r4, #0]
 8003a9c:	2b05      	cmp	r3, #5
 8003a9e:	bf04      	itt	eq
 8003aa0:	2302      	moveq	r3, #2
 8003aa2:	7023      	strbeq	r3, [r4, #0]
 8003aa4:	2500      	movs	r5, #0
 8003aa6:	6125      	str	r5, [r4, #16]
 8003aa8:	2320      	movs	r3, #32
 8003aaa:	f383 8811 	msr	BASEPRI, r3
 8003aae:	f04f 31ff 	mov.w	r1, #4294967295	; 0xffffffff
 8003ab2:	f104 0014 	add.w	r0, r4, #20
 8003ab6:	f7ff fea3 	bl	8003800 <chThdResumeI>
 8003aba:	f385 8811 	msr	BASEPRI, r5
 8003abe:	bd38      	pop	{r3, r4, r5, pc}
 8003ac0:	6881      	ldr	r1, [r0, #8]
 8003ac2:	47a8      	blx	r5
 8003ac4:	bd38      	pop	{r3, r4, r5, pc}
 8003ac6:	f7ff fabb 	bl	8003040 <adc_lld_stop_conversion.4231>
 8003aca:	6923      	ldr	r3, [r4, #16]
 8003acc:	685b      	ldr	r3, [r3, #4]
 8003ace:	b1c3      	cbz	r3, 8003b02 <adc_lld_serve_rx_interrupt.11091+0xc2>
 8003ad0:	2204      	movs	r2, #4
 8003ad2:	7022      	strb	r2, [r4, #0]
 8003ad4:	4620      	mov	r0, r4
 8003ad6:	68a1      	ldr	r1, [r4, #8]
 8003ad8:	68e2      	ldr	r2, [r4, #12]
 8003ada:	4798      	blx	r3
 8003adc:	7823      	ldrb	r3, [r4, #0]
 8003ade:	2b04      	cmp	r3, #4
 8003ae0:	d00b      	beq.n	8003afa <adc_lld_serve_rx_interrupt.11091+0xba>
 8003ae2:	2320      	movs	r3, #32
 8003ae4:	f383 8811 	msr	BASEPRI, r3
 8003ae8:	2100      	movs	r1, #0
 8003aea:	f104 0014 	add.w	r0, r4, #20
 8003aee:	f7ff fe87 	bl	8003800 <chThdResumeI>
 8003af2:	2300      	movs	r3, #0
 8003af4:	f383 8811 	msr	BASEPRI, r3
 8003af8:	bd38      	pop	{r3, r4, r5, pc}
 8003afa:	2302      	movs	r3, #2
 8003afc:	6125      	str	r5, [r4, #16]
 8003afe:	7023      	strb	r3, [r4, #0]
 8003b00:	e7ef      	b.n	8003ae2 <adc_lld_serve_rx_interrupt.11091+0xa2>
 8003b02:	2202      	movs	r2, #2
 8003b04:	6123      	str	r3, [r4, #16]
 8003b06:	7022      	strb	r2, [r4, #0]
 8003b08:	e7eb      	b.n	8003ae2 <adc_lld_serve_rx_interrupt.11091+0xa2>
 8003b0a:	bf00      	nop
 8003b0c:	f3af 8000 	nop.w

08003b10 <chTMStopMeasurementX>:
 8003b10:	4a0e      	ldr	r2, [pc, #56]	; (8003b4c <chTMStopMeasurementX+0x3c>)
 8003b12:	4b0f      	ldr	r3, [pc, #60]	; (8003b50 <chTMStopMeasurementX+0x40>)
 8003b14:	6851      	ldr	r1, [r2, #4]
 8003b16:	b4f0      	push	{r4, r5, r6, r7}
 8003b18:	6886      	ldr	r6, [r0, #8]
 8003b1a:	6b1f      	ldr	r7, [r3, #48]	; 0x30
 8003b1c:	68c5      	ldr	r5, [r0, #12]
 8003b1e:	6844      	ldr	r4, [r0, #4]
 8003b20:	e9d0 2304 	ldrd	r2, r3, [r0, #16]
 8003b24:	1b89      	subs	r1, r1, r6
 8003b26:	1bc9      	subs	r1, r1, r7
 8003b28:	1852      	adds	r2, r2, r1
 8003b2a:	f143 0300 	adc.w	r3, r3, #0
 8003b2e:	3501      	adds	r5, #1
 8003b30:	42a1      	cmp	r1, r4
 8003b32:	60c5      	str	r5, [r0, #12]
 8003b34:	6081      	str	r1, [r0, #8]
 8003b36:	e9c0 2304 	strd	r2, r3, [r0, #16]
 8003b3a:	d805      	bhi.n	8003b48 <chTMStopMeasurementX+0x38>
 8003b3c:	6803      	ldr	r3, [r0, #0]
 8003b3e:	4299      	cmp	r1, r3
 8003b40:	bf38      	it	cc
 8003b42:	6001      	strcc	r1, [r0, #0]
 8003b44:	bcf0      	pop	{r4, r5, r6, r7}
 8003b46:	4770      	bx	lr
 8003b48:	6041      	str	r1, [r0, #4]
 8003b4a:	e7fb      	b.n	8003b44 <chTMStopMeasurementX+0x34>
 8003b4c:	e0001000 	.word	0xe0001000
 8003b50:	20002ef0 	.word	0x20002ef0
 8003b54:	f3af 8000 	nop.w
 8003b58:	f3af 8000 	nop.w
 8003b5c:	f3af 8000 	nop.w

08003b60 <BusFault_Handler>:
 8003b60:	e7fe      	b.n	8003b60 <BusFault_Handler>
 8003b62:	bf00      	nop
 8003b64:	f3af 8000 	nop.w
 8003b68:	f3af 8000 	nop.w
 8003b6c:	f3af 8000 	nop.w

08003b70 <i2c_lld_serve_tx_end_irq.11398.4378>:
 8003b70:	f011 0f0c 	tst.w	r1, #12
 8003b74:	b410      	push	{r4}
 8003b76:	6b44      	ldr	r4, [r0, #52]	; 0x34
 8003b78:	d114      	bne.n	8003ba4 <i2c_lld_serve_tx_end_irq.11398.4378+0x34>
 8003b7a:	6b02      	ldr	r2, [r0, #48]	; 0x30
 8003b7c:	6813      	ldr	r3, [r2, #0]
 8003b7e:	6819      	ldr	r1, [r3, #0]
 8003b80:	f021 011f 	bic.w	r1, r1, #31
 8003b84:	6019      	str	r1, [r3, #0]
 8003b86:	6819      	ldr	r1, [r3, #0]
 8003b88:	07c9      	lsls	r1, r1, #31
 8003b8a:	d4fc      	bmi.n	8003b86 <i2c_lld_serve_tx_end_irq.11398.4378+0x16>
 8003b8c:	7a11      	ldrb	r1, [r2, #8]
 8003b8e:	6853      	ldr	r3, [r2, #4]
 8003b90:	223d      	movs	r2, #61	; 0x3d
 8003b92:	408a      	lsls	r2, r1
 8003b94:	601a      	str	r2, [r3, #0]
 8003b96:	6863      	ldr	r3, [r4, #4]
 8003b98:	f443 7300 	orr.w	r3, r3, #512	; 0x200
 8003b9c:	6063      	str	r3, [r4, #4]
 8003b9e:	f85d 4b04 	ldr.w	r4, [sp], #4
 8003ba2:	4770      	bx	lr
 8003ba4:	b672      	cpsid	i
 8003ba6:	4b02      	ldr	r3, [pc, #8]	; (8003bb0 <i2c_lld_serve_tx_end_irq.11398.4378+0x40>)
 8003ba8:	4a02      	ldr	r2, [pc, #8]	; (8003bb4 <i2c_lld_serve_tx_end_irq.11398.4378+0x44>)
 8003baa:	62da      	str	r2, [r3, #44]	; 0x2c
 8003bac:	e7fe      	b.n	8003bac <i2c_lld_serve_tx_end_irq.11398.4378+0x3c>
 8003bae:	bf00      	nop
 8003bb0:	20002ef0 	.word	0x20002ef0
 8003bb4:	080046c8 	.word	0x080046c8
 8003bb8:	f3af 8000 	nop.w
 8003bbc:	f3af 8000 	nop.w

08003bc0 <uart_lld_serve_rx_end_irq.12164>:
 8003bc0:	f011 0f0c 	tst.w	r1, #12
 8003bc4:	b570      	push	{r4, r5, r6, lr}
 8003bc6:	4604      	mov	r4, r0
 8003bc8:	d139      	bne.n	8003c3e <uart_lld_serve_rx_end_irq.12164+0x7e>
 8003bca:	7883      	ldrb	r3, [r0, #2]
 8003bcc:	b93b      	cbnz	r3, 8003bde <uart_lld_serve_rx_end_irq.12164+0x1e>
 8003bce:	6843      	ldr	r3, [r0, #4]
 8003bd0:	68db      	ldr	r3, [r3, #12]
 8003bd2:	2b00      	cmp	r3, #0
 8003bd4:	d032      	beq.n	8003c3c <uart_lld_serve_rx_end_irq.12164+0x7c>
 8003bd6:	8b01      	ldrh	r1, [r0, #24]
 8003bd8:	b289      	uxth	r1, r1
 8003bda:	4798      	blx	r3
 8003bdc:	bd70      	pop	{r4, r5, r6, pc}
 8003bde:	6901      	ldr	r1, [r0, #16]
 8003be0:	680b      	ldr	r3, [r1, #0]
 8003be2:	681a      	ldr	r2, [r3, #0]
 8003be4:	f022 021f 	bic.w	r2, r2, #31
 8003be8:	601a      	str	r2, [r3, #0]
 8003bea:	681a      	ldr	r2, [r3, #0]
 8003bec:	07d2      	lsls	r2, r2, #31
 8003bee:	d4fc      	bmi.n	8003bea <uart_lld_serve_rx_end_irq.12164+0x2a>
 8003bf0:	6862      	ldr	r2, [r4, #4]
 8003bf2:	7a08      	ldrb	r0, [r1, #8]
 8003bf4:	684d      	ldr	r5, [r1, #4]
 8003bf6:	6891      	ldr	r1, [r2, #8]
 8003bf8:	263d      	movs	r6, #61	; 0x3d
 8003bfa:	4086      	lsls	r6, r0
 8003bfc:	2002      	movs	r0, #2
 8003bfe:	602e      	str	r6, [r5, #0]
 8003c00:	70a0      	strb	r0, [r4, #2]
 8003c02:	b139      	cbz	r1, 8003c14 <uart_lld_serve_rx_end_irq.12164+0x54>
 8003c04:	4620      	mov	r0, r4
 8003c06:	4788      	blx	r1
 8003c08:	78a3      	ldrb	r3, [r4, #2]
 8003c0a:	2b02      	cmp	r3, #2
 8003c0c:	d116      	bne.n	8003c3c <uart_lld_serve_rx_end_irq.12164+0x7c>
 8003c0e:	6923      	ldr	r3, [r4, #16]
 8003c10:	6862      	ldr	r2, [r4, #4]
 8003c12:	681b      	ldr	r3, [r3, #0]
 8003c14:	68d1      	ldr	r1, [r2, #12]
 8003c16:	68e2      	ldr	r2, [r4, #12]
 8003c18:	2900      	cmp	r1, #0
 8003c1a:	bf14      	ite	ne
 8003c1c:	f44f 7188 	movne.w	r1, #272	; 0x110
 8003c20:	f44f 7180 	moveq.w	r1, #256	; 0x100
 8003c24:	430a      	orrs	r2, r1
 8003c26:	2500      	movs	r5, #0
 8003c28:	2101      	movs	r1, #1
 8003c2a:	f104 0018 	add.w	r0, r4, #24
 8003c2e:	70a5      	strb	r5, [r4, #2]
 8003c30:	60d8      	str	r0, [r3, #12]
 8003c32:	6059      	str	r1, [r3, #4]
 8003c34:	601a      	str	r2, [r3, #0]
 8003c36:	681a      	ldr	r2, [r3, #0]
 8003c38:	430a      	orrs	r2, r1
 8003c3a:	601a      	str	r2, [r3, #0]
 8003c3c:	bd70      	pop	{r4, r5, r6, pc}
 8003c3e:	b672      	cpsid	i
 8003c40:	4b01      	ldr	r3, [pc, #4]	; (8003c48 <uart_lld_serve_rx_end_irq.12164+0x88>)
 8003c42:	4a02      	ldr	r2, [pc, #8]	; (8003c4c <uart_lld_serve_rx_end_irq.12164+0x8c>)
 8003c44:	62da      	str	r2, [r3, #44]	; 0x2c
 8003c46:	e7fe      	b.n	8003c46 <uart_lld_serve_rx_end_irq.12164+0x86>
 8003c48:	20002ef0 	.word	0x20002ef0
 8003c4c:	080046c8 	.word	0x080046c8

08003c50 <uart_lld_serve_tx_end_irq.12160>:
 8003c50:	f011 0f0c 	tst.w	r1, #12
 8003c54:	b510      	push	{r4, lr}
 8003c56:	4604      	mov	r4, r0
 8003c58:	d119      	bne.n	8003c8e <uart_lld_serve_tx_end_irq.12160+0x3e>
 8003c5a:	6942      	ldr	r2, [r0, #20]
 8003c5c:	6813      	ldr	r3, [r2, #0]
 8003c5e:	6819      	ldr	r1, [r3, #0]
 8003c60:	f021 011f 	bic.w	r1, r1, #31
 8003c64:	6019      	str	r1, [r3, #0]
 8003c66:	6819      	ldr	r1, [r3, #0]
 8003c68:	07c9      	lsls	r1, r1, #31
 8003c6a:	d4fc      	bmi.n	8003c66 <uart_lld_serve_tx_end_irq.12160+0x16>
 8003c6c:	6863      	ldr	r3, [r4, #4]
 8003c6e:	7a10      	ldrb	r0, [r2, #8]
 8003c70:	6851      	ldr	r1, [r2, #4]
 8003c72:	681b      	ldr	r3, [r3, #0]
 8003c74:	223d      	movs	r2, #61	; 0x3d
 8003c76:	fa02 f000 	lsl.w	r0, r2, r0
 8003c7a:	2202      	movs	r2, #2
 8003c7c:	6008      	str	r0, [r1, #0]
 8003c7e:	7062      	strb	r2, [r4, #1]
 8003c80:	b153      	cbz	r3, 8003c98 <uart_lld_serve_tx_end_irq.12160+0x48>
 8003c82:	4620      	mov	r0, r4
 8003c84:	4798      	blx	r3
 8003c86:	7863      	ldrb	r3, [r4, #1]
 8003c88:	2b02      	cmp	r3, #2
 8003c8a:	d005      	beq.n	8003c98 <uart_lld_serve_tx_end_irq.12160+0x48>
 8003c8c:	bd10      	pop	{r4, pc}
 8003c8e:	b672      	cpsid	i
 8003c90:	4b03      	ldr	r3, [pc, #12]	; (8003ca0 <uart_lld_serve_tx_end_irq.12160+0x50>)
 8003c92:	4a04      	ldr	r2, [pc, #16]	; (8003ca4 <uart_lld_serve_tx_end_irq.12160+0x54>)
 8003c94:	62da      	str	r2, [r3, #44]	; 0x2c
 8003c96:	e7fe      	b.n	8003c96 <uart_lld_serve_tx_end_irq.12160+0x46>
 8003c98:	2300      	movs	r3, #0
 8003c9a:	7063      	strb	r3, [r4, #1]
 8003c9c:	bd10      	pop	{r4, pc}
 8003c9e:	bf00      	nop
 8003ca0:	20002ef0 	.word	0x20002ef0
 8003ca4:	080046c8 	.word	0x080046c8
 8003ca8:	f3af 8000 	nop.w
 8003cac:	f3af 8000 	nop.w

08003cb0 <gpsThread>:
 8003cb0:	e92d 4ff0 	stmdb	sp!, {r4, r5, r6, r7, r8, r9, sl, fp, lr}
 8003cb4:	4cbc      	ldr	r4, [pc, #752]	; (8003fa8 <gpsThread+0x2f8>)
 8003cb6:	4ebd      	ldr	r6, [pc, #756]	; (8003fac <gpsThread+0x2fc>)
 8003cb8:	4fbd      	ldr	r7, [pc, #756]	; (8003fb0 <gpsThread+0x300>)
 8003cba:	2301      	movs	r3, #1
 8003cbc:	7083      	strb	r3, [r0, #2]
 8003cbe:	b083      	sub	sp, #12
 8003cc0:	4680      	mov	r8, r0
 8003cc2:	60a3      	str	r3, [r4, #8]
 8003cc4:	6064      	str	r4, [r4, #4]
 8003cc6:	6024      	str	r4, [r4, #0]
 8003cc8:	f06f 0501 	mvn.w	r5, #1
 8003ccc:	2320      	movs	r3, #32
 8003cce:	f383 8811 	msr	BASEPRI, r3
 8003cd2:	68a3      	ldr	r3, [r4, #8]
 8003cd4:	3b01      	subs	r3, #1
 8003cd6:	2b00      	cmp	r3, #0
 8003cd8:	60a3      	str	r3, [r4, #8]
 8003cda:	f2c0 80ad 	blt.w	8003e38 <gpsThread+0x188>
 8003cde:	2300      	movs	r3, #0
 8003ce0:	f383 8811 	msr	BASEPRI, r3
 8003ce4:	2320      	movs	r3, #32
 8003ce6:	f383 8811 	msr	BASEPRI, r3
 8003cea:	68a3      	ldr	r3, [r4, #8]
 8003cec:	2201      	movs	r2, #1
 8003cee:	eb03 0a02 	add.w	sl, r3, r2
 8003cf2:	f1ba 0f00 	cmp.w	sl, #0
 8003cf6:	60a2      	str	r2, [r4, #8]
 8003cf8:	dc0b      	bgt.n	8003d12 <gpsThread+0x62>
 8003cfa:	6860      	ldr	r0, [r4, #4]
 8003cfc:	6843      	ldr	r3, [r0, #4]
 8003cfe:	6063      	str	r3, [r4, #4]
 8003d00:	601c      	str	r4, [r3, #0]
 8003d02:	f7ff fccd 	bl	80036a0 <chSchReadyI>
 8003d06:	f10a 0a01 	add.w	sl, sl, #1
 8003d0a:	f1ba 0f01 	cmp.w	sl, #1
 8003d0e:	6205      	str	r5, [r0, #32]
 8003d10:	d1f3      	bne.n	8003cfa <gpsThread+0x4a>
 8003d12:	f7ff fae5 	bl	80032e0 <chSchRescheduleS>
 8003d16:	2300      	movs	r3, #0
 8003d18:	f383 8811 	msr	BASEPRI, r3
 8003d1c:	2320      	movs	r3, #32
 8003d1e:	6831      	ldr	r1, [r6, #0]
 8003d20:	f383 8811 	msr	BASEPRI, r3
 8003d24:	788b      	ldrb	r3, [r1, #2]
 8003d26:	2b01      	cmp	r3, #1
 8003d28:	d053      	beq.n	8003dd2 <gpsThread+0x122>
 8003d2a:	2300      	movs	r3, #0
 8003d2c:	f383 8811 	msr	BASEPRI, r3
 8003d30:	f896 a0cd 	ldrb.w	sl, [r6, #205]	; 0xcd
 8003d34:	f8df c274 	ldr.w	ip, [pc, #628]	; 8003fac <gpsThread+0x2fc>
 8003d38:	f04f 0b64 	mov.w	fp, #100	; 0x64
 8003d3c:	fb0b 6a0a 	mla	sl, fp, sl, r6
 8003d40:	f89a 3004 	ldrb.w	r3, [sl, #4]
 8003d44:	2b24      	cmp	r3, #36	; 0x24
 8003d46:	f000 8084 	beq.w	8003e52 <gpsThread+0x1a2>
 8003d4a:	2320      	movs	r3, #32
 8003d4c:	f383 8811 	msr	BASEPRI, r3
 8003d50:	6838      	ldr	r0, [r7, #0]
 8003d52:	f8d7 c018 	ldr.w	ip, [r7, #24]
 8003d56:	6883      	ldr	r3, [r0, #8]
 8003d58:	f8dc 1008 	ldr.w	r1, [ip, #8]
 8003d5c:	4a94      	ldr	r2, [pc, #592]	; (8003fb0 <gpsThread+0x300>)
 8003d5e:	428b      	cmp	r3, r1
 8003d60:	d219      	bcs.n	8003d96 <gpsThread+0xe6>
 8003d62:	2300      	movs	r3, #0
 8003d64:	f383 8811 	msr	BASEPRI, r3
 8003d68:	f898 3002 	ldrb.w	r3, [r8, #2]
 8003d6c:	2b00      	cmp	r3, #0
 8003d6e:	d1ad      	bne.n	8003ccc <gpsThread+0x1c>
 8003d70:	6834      	ldr	r4, [r6, #0]
 8003d72:	2520      	movs	r5, #32
 8003d74:	f385 8811 	msr	BASEPRI, r5
 8003d78:	7822      	ldrb	r2, [r4, #0]
 8003d7a:	2a02      	cmp	r2, #2
 8003d7c:	f000 80d6 	beq.w	8003f2c <gpsThread+0x27c>
 8003d80:	2300      	movs	r3, #0
 8003d82:	2201      	movs	r2, #1
 8003d84:	7022      	strb	r2, [r4, #0]
 8003d86:	7063      	strb	r3, [r4, #1]
 8003d88:	70a3      	strb	r3, [r4, #2]
 8003d8a:	f383 8811 	msr	BASEPRI, r3
 8003d8e:	4618      	mov	r0, r3
 8003d90:	b003      	add	sp, #12
 8003d92:	e8bd 8ff0 	ldmia.w	sp!, {r4, r5, r6, r7, r8, r9, sl, fp, pc}
 8003d96:	6803      	ldr	r3, [r0, #0]
 8003d98:	6013      	str	r3, [r2, #0]
 8003d9a:	f04f 0a01 	mov.w	sl, #1
 8003d9e:	f04f 0e00 	mov.w	lr, #0
 8003da2:	605a      	str	r2, [r3, #4]
 8003da4:	f880 a01c 	strb.w	sl, [r0, #28]
 8003da8:	4603      	mov	r3, r0
 8003daa:	6190      	str	r0, [r2, #24]
 8003dac:	f88c e01c 	strb.w	lr, [ip, #28]
 8003db0:	681b      	ldr	r3, [r3, #0]
 8003db2:	689a      	ldr	r2, [r3, #8]
 8003db4:	428a      	cmp	r2, r1
 8003db6:	d2fb      	bcs.n	8003db0 <gpsThread+0x100>
 8003db8:	685a      	ldr	r2, [r3, #4]
 8003dba:	f8cc 2004 	str.w	r2, [ip, #4]
 8003dbe:	f8cc 3000 	str.w	r3, [ip]
 8003dc2:	4661      	mov	r1, ip
 8003dc4:	f8c3 c004 	str.w	ip, [r3, #4]
 8003dc8:	f8c2 c000 	str.w	ip, [r2]
 8003dcc:	f7fc fe40 	bl	8000a50 <_port_switch>
 8003dd0:	e7c7      	b.n	8003d62 <gpsThread+0xb2>
 8003dd2:	f8d1 c010 	ldr.w	ip, [r1, #16]
 8003dd6:	f8dc 2000 	ldr.w	r2, [ip]
 8003dda:	6813      	ldr	r3, [r2, #0]
 8003ddc:	f023 031f 	bic.w	r3, r3, #31
 8003de0:	6013      	str	r3, [r2, #0]
 8003de2:	6813      	ldr	r3, [r2, #0]
 8003de4:	f013 0301 	ands.w	r3, r3, #1
 8003de8:	d1fb      	bne.n	8003de2 <gpsThread+0x132>
 8003dea:	6848      	ldr	r0, [r1, #4]
 8003dec:	f89c a008 	ldrb.w	sl, [ip, #8]
 8003df0:	f8dc b004 	ldr.w	fp, [ip, #4]
 8003df4:	f8d0 c00c 	ldr.w	ip, [r0, #12]
 8003df8:	203d      	movs	r0, #61	; 0x3d
 8003dfa:	fa00 f00a 	lsl.w	r0, r0, sl
 8003dfe:	f8cb 0000 	str.w	r0, [fp]
 8003e02:	6850      	ldr	r0, [r2, #4]
 8003e04:	68c8      	ldr	r0, [r1, #12]
 8003e06:	f1bc 0f00 	cmp.w	ip, #0
 8003e0a:	bf0c      	ite	eq
 8003e0c:	f44f 7c80 	moveq.w	ip, #256	; 0x100
 8003e10:	f44f 7c88 	movne.w	ip, #272	; 0x110
 8003e14:	ea4c 0900 	orr.w	r9, ip, r0
 8003e18:	f101 0a18 	add.w	sl, r1, #24
 8003e1c:	f04f 0c01 	mov.w	ip, #1
 8003e20:	f8c2 a00c 	str.w	sl, [r2, #12]
 8003e24:	f8c2 c004 	str.w	ip, [r2, #4]
 8003e28:	f8c2 9000 	str.w	r9, [r2]
 8003e2c:	6810      	ldr	r0, [r2, #0]
 8003e2e:	ea40 000c 	orr.w	r0, r0, ip
 8003e32:	6010      	str	r0, [r2, #0]
 8003e34:	708b      	strb	r3, [r1, #2]
 8003e36:	e778      	b.n	8003d2a <gpsThread+0x7a>
 8003e38:	485b      	ldr	r0, [pc, #364]	; (8003fa8 <gpsThread+0x2f8>)
 8003e3a:	69bb      	ldr	r3, [r7, #24]
 8003e3c:	6842      	ldr	r2, [r0, #4]
 8003e3e:	495a      	ldr	r1, [pc, #360]	; (8003fa8 <gpsThread+0x2f8>)
 8003e40:	6018      	str	r0, [r3, #0]
 8003e42:	6218      	str	r0, [r3, #32]
 8003e44:	605a      	str	r2, [r3, #4]
 8003e46:	2005      	movs	r0, #5
 8003e48:	604b      	str	r3, [r1, #4]
 8003e4a:	6013      	str	r3, [r2, #0]
 8003e4c:	f7ff fa58 	bl	8003300 <chSchGoSleepS>
 8003e50:	e745      	b.n	8003cde <gpsThread+0x2e>
 8003e52:	f10a 0005 	add.w	r0, sl, #5
 8003e56:	4957      	ldr	r1, [pc, #348]	; (8003fb4 <gpsThread+0x304>)
 8003e58:	f8cd c004 	str.w	ip, [sp, #4]
 8003e5c:	2202      	movs	r2, #2
 8003e5e:	f000 fbb7 	bl	80045d0 <strncmp>
 8003e62:	2800      	cmp	r0, #0
 8003e64:	f47f af71 	bne.w	8003d4a <gpsThread+0x9a>
 8003e68:	f10a 0a07 	add.w	sl, sl, #7
 8003e6c:	4650      	mov	r0, sl
 8003e6e:	4952      	ldr	r1, [pc, #328]	; (8003fb8 <gpsThread+0x308>)
 8003e70:	2203      	movs	r2, #3
 8003e72:	f000 fbad 	bl	80045d0 <strncmp>
 8003e76:	2800      	cmp	r0, #0
 8003e78:	f43f af67 	beq.w	8003d4a <gpsThread+0x9a>
 8003e7c:	4650      	mov	r0, sl
 8003e7e:	494f      	ldr	r1, [pc, #316]	; (8003fbc <gpsThread+0x30c>)
 8003e80:	2203      	movs	r2, #3
 8003e82:	f000 fba5 	bl	80045d0 <strncmp>
 8003e86:	f8dd c004 	ldr.w	ip, [sp, #4]
 8003e8a:	4682      	mov	sl, r0
 8003e8c:	2800      	cmp	r0, #0
 8003e8e:	f47f af5c 	bne.w	8003d4a <gpsThread+0x9a>
 8003e92:	2320      	movs	r3, #32
 8003e94:	f383 8811 	msr	BASEPRI, r3
 8003e98:	f50c 7098 	add.w	r0, ip, #304	; 0x130
 8003e9c:	f8cd c004 	str.w	ip, [sp, #4]
 8003ea0:	f7ff fc46 	bl	8003730 <chMtxLockS>
 8003ea4:	f38a 8811 	msr	BASEPRI, sl
 8003ea8:	f8dd c004 	ldr.w	ip, [sp, #4]
 8003eac:	4943      	ldr	r1, [pc, #268]	; (8003fbc <gpsThread+0x30c>)
 8003eae:	f89c a0cd 	ldrb.w	sl, [ip, #205]	; 0xcd
 8003eb2:	fb0b ca0a 	mla	sl, fp, sl, ip
 8003eb6:	f10a 0007 	add.w	r0, sl, #7
 8003eba:	2203      	movs	r2, #3
 8003ebc:	f000 fb88 	bl	80045d0 <strncmp>
 8003ec0:	2800      	cmp	r0, #0
 8003ec2:	f040 80c4 	bne.w	800404e <gpsThread+0x39e>
 8003ec6:	f10a 0a0b 	add.w	sl, sl, #11
 8003eca:	f89a 3000 	ldrb.w	r3, [sl]
 8003ece:	f8df b100 	ldr.w	fp, [pc, #256]	; 8003fd0 <gpsThread+0x320>
 8003ed2:	f04f 0902 	mov.w	r9, #2
 8003ed6:	f109 3eff 	add.w	lr, r9, #4294967295	; 0xffffffff
 8003eda:	2b2c      	cmp	r3, #44	; 0x2c
 8003edc:	fa5f fe8e 	uxtb.w	lr, lr
 8003ee0:	d04d      	beq.n	8003f7e <gpsThread+0x2ce>
 8003ee2:	4619      	mov	r1, r3
 8003ee4:	b18b      	cbz	r3, 8003f0a <gpsThread+0x25a>
 8003ee6:	f10a 0001 	add.w	r0, sl, #1
 8003eea:	2200      	movs	r2, #0
 8003eec:	f80b 3002 	strb.w	r3, [fp, r2]
 8003ef0:	7803      	ldrb	r3, [r0, #0]
 8003ef2:	1c51      	adds	r1, r2, #1
 8003ef4:	2b2c      	cmp	r3, #44	; 0x2c
 8003ef6:	4682      	mov	sl, r0
 8003ef8:	460a      	mov	r2, r1
 8003efa:	f100 0001 	add.w	r0, r0, #1
 8003efe:	b2c9      	uxtb	r1, r1
 8003f00:	d003      	beq.n	8003f0a <gpsThread+0x25a>
 8003f02:	b113      	cbz	r3, 8003f0a <gpsThread+0x25a>
 8003f04:	2a10      	cmp	r2, #16
 8003f06:	d1f1      	bne.n	8003eec <gpsThread+0x23c>
 8003f08:	4611      	mov	r1, r2
 8003f0a:	2000      	movs	r0, #0
 8003f0c:	f10e 3eff 	add.w	lr, lr, #4294967295	; 0xffffffff
 8003f10:	f10a 0a01 	add.w	sl, sl, #1
 8003f14:	f80b 0001 	strb.w	r0, [fp, r1]
 8003f18:	f1be 0f08 	cmp.w	lr, #8
 8003f1c:	d820      	bhi.n	8003f60 <gpsThread+0x2b0>
 8003f1e:	e8df f00e 	tbb	[pc, lr]
 8003f22:	646f      	.short	0x646f
 8003f24:	1f303b59 	.word	0x1f303b59
 8003f28:	1f6b      	.short	0x1f6b
 8003f2a:	93          	.byte	0x93
 8003f2b:	00          	.byte	0x00
 8003f2c:	4620      	mov	r0, r4
 8003f2e:	9301      	str	r3, [sp, #4]
 8003f30:	f7fe f88e 	bl	8002050 <usart_stop.12171>
 8003f34:	6920      	ldr	r0, [r4, #16]
 8003f36:	f7ff f91b 	bl	8003170 <dmaStreamRelease>
 8003f3a:	6960      	ldr	r0, [r4, #20]
 8003f3c:	f7ff f918 	bl	8003170 <dmaStreamRelease>
 8003f40:	4a1f      	ldr	r2, [pc, #124]	; (8003fc0 <gpsThread+0x310>)
 8003f42:	9b01      	ldr	r3, [sp, #4]
 8003f44:	4294      	cmp	r4, r2
 8003f46:	f47f af1b 	bne.w	8003d80 <gpsThread+0xd0>
 8003f4a:	491e      	ldr	r1, [pc, #120]	; (8003fc4 <gpsThread+0x314>)
 8003f4c:	4a1e      	ldr	r2, [pc, #120]	; (8003fc8 <gpsThread+0x318>)
 8003f4e:	f8c1 5084 	str.w	r5, [r1, #132]	; 0x84
 8003f52:	f881 3325 	strb.w	r3, [r1, #805]	; 0x325
 8003f56:	6c53      	ldr	r3, [r2, #68]	; 0x44
 8003f58:	f023 0310 	bic.w	r3, r3, #16
 8003f5c:	6453      	str	r3, [r2, #68]	; 0x44
 8003f5e:	e70f      	b.n	8003d80 <gpsThread+0xd0>
 8003f60:	f1b9 0f0a 	cmp.w	r9, #10
 8003f64:	d073      	beq.n	800404e <gpsThread+0x39e>
 8003f66:	f109 0c01 	add.w	ip, r9, #1
 8003f6a:	f89a 3000 	ldrb.w	r3, [sl]
 8003f6e:	fa5f f98c 	uxtb.w	r9, ip
 8003f72:	f109 3eff 	add.w	lr, r9, #4294967295	; 0xffffffff
 8003f76:	2b2c      	cmp	r3, #44	; 0x2c
 8003f78:	fa5f fe8e 	uxtb.w	lr, lr
 8003f7c:	d1b1      	bne.n	8003ee2 <gpsThread+0x232>
 8003f7e:	2100      	movs	r1, #0
 8003f80:	e7c3      	b.n	8003f0a <gpsThread+0x25a>
 8003f82:	f89b 3000 	ldrb.w	r3, [fp]
 8003f86:	2b57      	cmp	r3, #87	; 0x57
 8003f88:	d069      	beq.n	800405e <gpsThread+0x3ae>
 8003f8a:	2b45      	cmp	r3, #69	; 0x45
 8003f8c:	d1eb      	bne.n	8003f66 <gpsThread+0x2b6>
 8003f8e:	480f      	ldr	r0, [pc, #60]	; (8003fcc <gpsThread+0x31c>)
 8003f90:	212b      	movs	r1, #43	; 0x2b
 8003f92:	f7fe f835 	bl	8002000 <uStrPrependChar>
 8003f96:	e7e6      	b.n	8003f66 <gpsThread+0x2b6>
 8003f98:	2003      	movs	r0, #3
 8003f9a:	f7fe f801 	bl	8001fa0 <uStrInsertChar.constprop.2>
 8003f9e:	480b      	ldr	r0, [pc, #44]	; (8003fcc <gpsThread+0x31c>)
 8003fa0:	f7fd ffde 	bl	8001f60 <uStrCpy.constprop.3>
 8003fa4:	e7df      	b.n	8003f66 <gpsThread+0x2b6>
 8003fa6:	bf00      	nop
 8003fa8:	20002ee4 	.word	0x20002ee4
 8003fac:	200008a0 	.word	0x200008a0
 8003fb0:	20002ef0 	.word	0x20002ef0
 8003fb4:	08004af0 	.word	0x08004af0
 8003fb8:	08004af4 	.word	0x08004af4
 8003fbc:	08004af8 	.word	0x08004af8
 8003fc0:	200010b8 	.word	0x200010b8
 8003fc4:	e000e100 	.word	0xe000e100
 8003fc8:	40023800 	.word	0x40023800
 8003fcc:	20000996 	.word	0x20000996
 8003fd0:	20002ed0 	.word	0x20002ed0
 8003fd4:	f89b 3000 	ldrb.w	r3, [fp]
 8003fd8:	2b53      	cmp	r3, #83	; 0x53
 8003fda:	d045      	beq.n	8004068 <gpsThread+0x3b8>
 8003fdc:	2b4e      	cmp	r3, #78	; 0x4e
 8003fde:	d1c2      	bne.n	8003f66 <gpsThread+0x2b6>
 8003fe0:	4824      	ldr	r0, [pc, #144]	; (8004074 <gpsThread+0x3c4>)
 8003fe2:	212b      	movs	r1, #43	; 0x2b
 8003fe4:	f7fe f80c 	bl	8002000 <uStrPrependChar>
 8003fe8:	e7bd      	b.n	8003f66 <gpsThread+0x2b6>
 8003fea:	2002      	movs	r0, #2
 8003fec:	f7fd ffd8 	bl	8001fa0 <uStrInsertChar.constprop.2>
 8003ff0:	4820      	ldr	r0, [pc, #128]	; (8004074 <gpsThread+0x3c4>)
 8003ff2:	f7fd ffb5 	bl	8001f60 <uStrCpy.constprop.3>
 8003ff6:	e7b6      	b.n	8003f66 <gpsThread+0x2b6>
 8003ff8:	481f      	ldr	r0, [pc, #124]	; (8004078 <gpsThread+0x3c8>)
 8003ffa:	f7fd ffb1 	bl	8001f60 <uStrCpy.constprop.3>
 8003ffe:	e7b2      	b.n	8003f66 <gpsThread+0x2b6>
 8004000:	4b1e      	ldr	r3, [pc, #120]	; (800407c <gpsThread+0x3cc>)
 8004002:	9301      	str	r3, [sp, #4]
 8004004:	4618      	mov	r0, r3
 8004006:	f000 fab3 	bl	8004570 <strlen>
 800400a:	2801      	cmp	r0, #1
 800400c:	9b01      	ldr	r3, [sp, #4]
 800400e:	d922      	bls.n	8004056 <gpsThread+0x3a6>
 8004010:	781a      	ldrb	r2, [r3, #0]
 8004012:	7859      	ldrb	r1, [r3, #1]
 8004014:	f886 20ce 	strb.w	r2, [r6, #206]	; 0xce
 8004018:	223a      	movs	r2, #58	; 0x3a
 800401a:	f893 e002 	ldrb.w	lr, [r3, #2]
 800401e:	78d8      	ldrb	r0, [r3, #3]
 8004020:	f886 10cf 	strb.w	r1, [r6, #207]	; 0xcf
 8004024:	f886 20d0 	strb.w	r2, [r6, #208]	; 0xd0
 8004028:	7919      	ldrb	r1, [r3, #4]
 800402a:	f886 20d3 	strb.w	r2, [r6, #211]	; 0xd3
 800402e:	795b      	ldrb	r3, [r3, #5]
 8004030:	f886 e0d1 	strb.w	lr, [r6, #209]	; 0xd1
 8004034:	2200      	movs	r2, #0
 8004036:	f886 00d2 	strb.w	r0, [r6, #210]	; 0xd2
 800403a:	f886 10d4 	strb.w	r1, [r6, #212]	; 0xd4
 800403e:	f886 30d5 	strb.w	r3, [r6, #213]	; 0xd5
 8004042:	f886 20d6 	strb.w	r2, [r6, #214]	; 0xd6
 8004046:	e78e      	b.n	8003f66 <gpsThread+0x2b6>
 8004048:	480d      	ldr	r0, [pc, #52]	; (8004080 <gpsThread+0x3d0>)
 800404a:	f7fd ff89 	bl	8001f60 <uStrCpy.constprop.3>
 800404e:	480d      	ldr	r0, [pc, #52]	; (8004084 <gpsThread+0x3d4>)
 8004050:	f7fd feb6 	bl	8001dc0 <chMtxUnlock>
 8004054:	e679      	b.n	8003d4a <gpsThread+0x9a>
 8004056:	2300      	movs	r3, #0
 8004058:	f886 30ce 	strb.w	r3, [r6, #206]	; 0xce
 800405c:	e783      	b.n	8003f66 <gpsThread+0x2b6>
 800405e:	480a      	ldr	r0, [pc, #40]	; (8004088 <gpsThread+0x3d8>)
 8004060:	212d      	movs	r1, #45	; 0x2d
 8004062:	f7fd ffcd 	bl	8002000 <uStrPrependChar>
 8004066:	e77e      	b.n	8003f66 <gpsThread+0x2b6>
 8004068:	4802      	ldr	r0, [pc, #8]	; (8004074 <gpsThread+0x3c4>)
 800406a:	212d      	movs	r1, #45	; 0x2d
 800406c:	f7fd ffc8 	bl	8002000 <uStrPrependChar>
 8004070:	e779      	b.n	8003f66 <gpsThread+0x2b6>
 8004072:	bf00      	nop
 8004074:	2000097e 	.word	0x2000097e
 8004078:	200009be 	.word	0x200009be
 800407c:	20002ed0 	.word	0x20002ed0
 8004080:	200009ae 	.word	0x200009ae
 8004084:	200009d0 	.word	0x200009d0
 8004088:	20000996 	.word	0x20000996
 800408c:	f3af 8000 	nop.w

08004090 <VectorB0>:
 8004090:	f04f 4380 	mov.w	r3, #1073741824	; 0x40000000
 8004094:	2100      	movs	r1, #0
 8004096:	e92d 47f0 	stmdb	sp!, {r4, r5, r6, r7, r8, r9, sl, lr}
 800409a:	6119      	str	r1, [r3, #16]
 800409c:	2720      	movs	r7, #32
 800409e:	f387 8811 	msr	BASEPRI, r7
 80040a2:	4c1b      	ldr	r4, [pc, #108]	; (8004110 <VectorB0+0x80>)
 80040a4:	f8d3 9024 	ldr.w	r9, [r3, #36]	; 0x24
 80040a8:	69e3      	ldr	r3, [r4, #28]
 80040aa:	6aa0      	ldr	r0, [r4, #40]	; 0x28
 80040ac:	689a      	ldr	r2, [r3, #8]
 80040ae:	ebc0 0509 	rsb	r5, r0, r9
 80040b2:	4295      	cmp	r5, r2
 80040b4:	bf38      	it	cc
 80040b6:	f104 061c 	addcc.w	r6, r4, #28
 80040ba:	d31a      	bcc.n	80040f2 <VectorB0+0x62>
 80040bc:	468a      	mov	sl, r1
 80040be:	f104 061c 	add.w	r6, r4, #28
 80040c2:	46a0      	mov	r8, r4
 80040c4:	e001      	b.n	80040ca <VectorB0+0x3a>
 80040c6:	f8d8 0028 	ldr.w	r0, [r8, #40]	; 0x28
 80040ca:	6819      	ldr	r1, [r3, #0]
 80040cc:	f8d3 c00c 	ldr.w	ip, [r3, #12]
 80040d0:	4410      	add	r0, r2
 80040d2:	62a0      	str	r0, [r4, #40]	; 0x28
 80040d4:	1aad      	subs	r5, r5, r2
 80040d6:	f8c3 a00c 	str.w	sl, [r3, #12]
 80040da:	604e      	str	r6, [r1, #4]
 80040dc:	61e1      	str	r1, [r4, #28]
 80040de:	f38a 8811 	msr	BASEPRI, sl
 80040e2:	6918      	ldr	r0, [r3, #16]
 80040e4:	47e0      	blx	ip
 80040e6:	f387 8811 	msr	BASEPRI, r7
 80040ea:	69e3      	ldr	r3, [r4, #28]
 80040ec:	689a      	ldr	r2, [r3, #8]
 80040ee:	42aa      	cmp	r2, r5
 80040f0:	d9e9      	bls.n	80040c6 <VectorB0+0x36>
 80040f2:	42b3      	cmp	r3, r6
 80040f4:	f04f 4380 	mov.w	r3, #1073741824	; 0x40000000
 80040f8:	bf0b      	itete	eq
 80040fa:	2200      	moveq	r2, #0
 80040fc:	444a      	addne	r2, r9
 80040fe:	60da      	streq	r2, [r3, #12]
 8004100:	635a      	strne	r2, [r3, #52]	; 0x34
 8004102:	2300      	movs	r3, #0
 8004104:	f383 8811 	msr	BASEPRI, r3
 8004108:	e8bd 47f0 	ldmia.w	sp!, {r4, r5, r6, r7, r8, r9, sl, lr}
 800410c:	f7ff b910 	b.w	8003330 <_port_irq_epilogue>
 8004110:	20002ef0 	.word	0x20002ef0
 8004114:	f3af 8000 	nop.w
 8004118:	f3af 8000 	nop.w
 800411c:	f3af 8000 	nop.w

08004120 <beaconThread>:
 8004120:	b508      	push	{r3, lr}
 8004122:	4e0c      	ldr	r6, [pc, #48]	; (8004154 <beaconThread+0x34>)
 8004124:	4605      	mov	r5, r0
 8004126:	782b      	ldrb	r3, [r5, #0]
 8004128:	2408      	movs	r4, #8
 800412a:	f44f 707a 	mov.w	r0, #1000	; 0x3e8
 800412e:	b163      	cbz	r3, 800414a <beaconThread+0x2a>
 8004130:	8334      	strh	r4, [r6, #24]
 8004132:	f7fd fcbd 	bl	8001ab0 <chThdSleep>
 8004136:	8374      	strh	r4, [r6, #26]
 8004138:	4807      	ldr	r0, [pc, #28]	; (8004158 <beaconThread+0x38>)
 800413a:	f7fd fcb9 	bl	8001ab0 <chThdSleep>
 800413e:	782b      	ldrb	r3, [r5, #0]
 8004140:	2408      	movs	r4, #8
 8004142:	f44f 707a 	mov.w	r0, #1000	; 0x3e8
 8004146:	2b00      	cmp	r3, #0
 8004148:	d1f2      	bne.n	8004130 <beaconThread+0x10>
 800414a:	f241 3088 	movw	r0, #5000	; 0x1388
 800414e:	f7fd fcaf 	bl	8001ab0 <chThdSleep>
 8004152:	e7e8      	b.n	8004126 <beaconThread+0x6>
 8004154:	40020400 	.word	0x40020400
 8004158:	000182b8 	.word	0x000182b8
 800415c:	f3af 8000 	nop.w

08004160 <sd_lld_start>:
 8004160:	4a2a      	ldr	r2, [pc, #168]	; (800420c <sd_lld_start+0xac>)
 8004162:	7a03      	ldrb	r3, [r0, #8]
 8004164:	2900      	cmp	r1, #0
 8004166:	bf08      	it	eq
 8004168:	4611      	moveq	r1, r2
 800416a:	2b01      	cmp	r3, #1
 800416c:	b470      	push	{r4, r5, r6}
 800416e:	d024      	beq.n	80041ba <sd_lld_start+0x5a>
 8004170:	f8d0 3454 	ldr.w	r3, [r0, #1108]	; 0x454
 8004174:	4a26      	ldr	r2, [pc, #152]	; (8004210 <sd_lld_start+0xb0>)
 8004176:	4293      	cmp	r3, r2
 8004178:	d033      	beq.n	80041e2 <sd_lld_start+0x82>
 800417a:	f502 6280 	add.w	r2, r2, #1024	; 0x400
 800417e:	4293      	cmp	r3, r2
 8004180:	d02f      	beq.n	80041e2 <sd_lld_start+0x82>
 8004182:	680a      	ldr	r2, [r1, #0]
 8004184:	4823      	ldr	r0, [pc, #140]	; (8004214 <sd_lld_start+0xb4>)
 8004186:	fbb0 f2f2 	udiv	r2, r0, r2
 800418a:	609a      	str	r2, [r3, #8]
 800418c:	888a      	ldrh	r2, [r1, #4]
 800418e:	88cc      	ldrh	r4, [r1, #6]
 8004190:	8908      	ldrh	r0, [r1, #8]
 8004192:	f442 5204 	orr.w	r2, r2, #8448	; 0x2100
 8004196:	f044 0440 	orr.w	r4, r4, #64	; 0x40
 800419a:	f042 022c 	orr.w	r2, r2, #44	; 0x2c
 800419e:	f040 0001 	orr.w	r0, r0, #1
 80041a2:	b2a4      	uxth	r4, r4
 80041a4:	b292      	uxth	r2, r2
 80041a6:	b280      	uxth	r0, r0
 80041a8:	2100      	movs	r1, #0
 80041aa:	611c      	str	r4, [r3, #16]
 80041ac:	6158      	str	r0, [r3, #20]
 80041ae:	60da      	str	r2, [r3, #12]
 80041b0:	6019      	str	r1, [r3, #0]
 80041b2:	681a      	ldr	r2, [r3, #0]
 80041b4:	685b      	ldr	r3, [r3, #4]
 80041b6:	bc70      	pop	{r4, r5, r6}
 80041b8:	4770      	bx	lr
 80041ba:	4b17      	ldr	r3, [pc, #92]	; (8004218 <sd_lld_start+0xb8>)
 80041bc:	4298      	cmp	r0, r3
 80041be:	d016      	beq.n	80041ee <sd_lld_start+0x8e>
 80041c0:	4b16      	ldr	r3, [pc, #88]	; (800421c <sd_lld_start+0xbc>)
 80041c2:	4298      	cmp	r0, r3
 80041c4:	d1d4      	bne.n	8004170 <sd_lld_start+0x10>
 80041c6:	4c16      	ldr	r4, [pc, #88]	; (8004220 <sd_lld_start+0xc0>)
 80041c8:	4b16      	ldr	r3, [pc, #88]	; (8004224 <sd_lld_start+0xc4>)
 80041ca:	6c66      	ldr	r6, [r4, #68]	; 0x44
 80041cc:	2280      	movs	r2, #128	; 0x80
 80041ce:	25c0      	movs	r5, #192	; 0xc0
 80041d0:	f046 0620 	orr.w	r6, r6, #32
 80041d4:	6466      	str	r6, [r4, #68]	; 0x44
 80041d6:	f883 5347 	strb.w	r5, [r3, #839]	; 0x347
 80041da:	f8c3 2188 	str.w	r2, [r3, #392]	; 0x188
 80041de:	609a      	str	r2, [r3, #8]
 80041e0:	e7c6      	b.n	8004170 <sd_lld_start+0x10>
 80041e2:	680a      	ldr	r2, [r1, #0]
 80041e4:	4810      	ldr	r0, [pc, #64]	; (8004228 <sd_lld_start+0xc8>)
 80041e6:	fbb0 f2f2 	udiv	r2, r0, r2
 80041ea:	609a      	str	r2, [r3, #8]
 80041ec:	e7ce      	b.n	800418c <sd_lld_start+0x2c>
 80041ee:	4c0c      	ldr	r4, [pc, #48]	; (8004220 <sd_lld_start+0xc0>)
 80041f0:	4b0c      	ldr	r3, [pc, #48]	; (8004224 <sd_lld_start+0xc4>)
 80041f2:	6c26      	ldr	r6, [r4, #64]	; 0x40
 80041f4:	2240      	movs	r2, #64	; 0x40
 80041f6:	25c0      	movs	r5, #192	; 0xc0
 80041f8:	f446 3600 	orr.w	r6, r6, #131072	; 0x20000
 80041fc:	6426      	str	r6, [r4, #64]	; 0x40
 80041fe:	f883 5326 	strb.w	r5, [r3, #806]	; 0x326
 8004202:	f8c3 2184 	str.w	r2, [r3, #388]	; 0x184
 8004206:	605a      	str	r2, [r3, #4]
 8004208:	e7b2      	b.n	8004170 <sd_lld_start+0x10>
 800420a:	bf00      	nop
 800420c:	08004b00 	.word	0x08004b00
 8004210:	40011000 	.word	0x40011000
 8004214:	0280de80 	.word	0x0280de80
 8004218:	200029f8 	.word	0x200029f8
 800421c:	20002568 	.word	0x20002568
 8004220:	40023800 	.word	0x40023800
 8004224:	e000e100 	.word	0xe000e100
 8004228:	0501bd00 	.word	0x0501bd00
 800422c:	f3af 8000 	nop.w

08004230 <i2cStart>:
 8004230:	e92d 4ff8 	stmdb	sp!, {r3, r4, r5, r6, r7, r8, r9, sl, fp, lr}
 8004234:	4604      	mov	r4, r0
 8004236:	2320      	movs	r3, #32
 8004238:	f383 8811 	msr	BASEPRI, r3
 800423c:	7806      	ldrb	r6, [r0, #0]
 800423e:	6041      	str	r1, [r0, #4]
 8004240:	f240 4256 	movw	r2, #1110	; 0x456
 8004244:	f240 4316 	movw	r3, #1046	; 0x416
 8004248:	2e01      	cmp	r6, #1
 800424a:	6282      	str	r2, [r0, #40]	; 0x28
 800424c:	6243      	str	r3, [r0, #36]	; 0x24
 800424e:	6b45      	ldr	r5, [r0, #52]	; 0x34
 8004250:	d057      	beq.n	8004302 <i2cStart+0xd2>
 8004252:	462b      	mov	r3, r5
 8004254:	6ae0      	ldr	r0, [r4, #44]	; 0x2c
 8004256:	6b22      	ldr	r2, [r4, #48]	; 0x30
 8004258:	f8d0 a000 	ldr.w	sl, [r0]
 800425c:	f8d2 b000 	ldr.w	fp, [r2]
 8004260:	6848      	ldr	r0, [r1, #4]
 8004262:	f891 8008 	ldrb.w	r8, [r1, #8]
 8004266:	4f6f      	ldr	r7, [pc, #444]	; (8004424 <i2cStart+0x1f4>)
 8004268:	f105 0210 	add.w	r2, r5, #16
 800426c:	f44f 6c10 	mov.w	ip, #2304	; 0x900
 8004270:	f44f 4900 	mov.w	r9, #32768	; 0x8000
 8004274:	2600      	movs	r6, #0
 8004276:	f8ca 2008 	str.w	r2, [sl, #8]
 800427a:	f8cb 2008 	str.w	r2, [fp, #8]
 800427e:	f8c5 9000 	str.w	r9, [r5]
 8004282:	602e      	str	r6, [r5, #0]
 8004284:	f8c5 c004 	str.w	ip, [r5, #4]
 8004288:	f8d3 c004 	ldr.w	ip, [r3, #4]
 800428c:	f64f 72c0 	movw	r2, #65472	; 0xffc0
 8004290:	ea0c 0202 	and.w	r2, ip, r2
 8004294:	605a      	str	r2, [r3, #4]
 8004296:	685a      	ldr	r2, [r3, #4]
 8004298:	42b8      	cmp	r0, r7
 800429a:	f042 022a 	orr.w	r2, r2, #42	; 0x2a
 800429e:	605a      	str	r2, [r3, #4]
 80042a0:	dd26      	ble.n	80042f0 <i2cStart+0xc0>
 80042a2:	4a61      	ldr	r2, [pc, #388]	; (8004428 <i2cStart+0x1f8>)
 80042a4:	4290      	cmp	r0, r2
 80042a6:	dc09      	bgt.n	80042bc <i2cStart+0x8c>
 80042a8:	f1b8 0f02 	cmp.w	r8, #2
 80042ac:	d07b      	beq.n	80043a6 <i2cStart+0x176>
 80042ae:	f1b8 0f03 	cmp.w	r8, #3
 80042b2:	d06b      	beq.n	800438c <i2cStart+0x15c>
 80042b4:	f648 76ff 	movw	r6, #36863	; 0x8fff
 80042b8:	220d      	movs	r2, #13
 80042ba:	621a      	str	r2, [r3, #32]
 80042bc:	61de      	str	r6, [r3, #28]
 80042be:	7809      	ldrb	r1, [r1, #0]
 80042c0:	681a      	ldr	r2, [r3, #0]
 80042c2:	2902      	cmp	r1, #2
 80042c4:	b292      	uxth	r2, r2
 80042c6:	d05b      	beq.n	8004380 <i2cStart+0x150>
 80042c8:	2903      	cmp	r1, #3
 80042ca:	d056      	beq.n	800437a <i2cStart+0x14a>
 80042cc:	2901      	cmp	r1, #1
 80042ce:	d00b      	beq.n	80042e8 <i2cStart+0xb8>
 80042d0:	601a      	str	r2, [r3, #0]
 80042d2:	682b      	ldr	r3, [r5, #0]
 80042d4:	2202      	movs	r2, #2
 80042d6:	f043 0301 	orr.w	r3, r3, #1
 80042da:	602b      	str	r3, [r5, #0]
 80042dc:	2300      	movs	r3, #0
 80042de:	7022      	strb	r2, [r4, #0]
 80042e0:	f383 8811 	msr	BASEPRI, r3
 80042e4:	e8bd 8ff8 	ldmia.w	sp!, {r3, r4, r5, r6, r7, r8, r9, sl, fp, pc}
 80042e8:	f022 020a 	bic.w	r2, r2, #10
 80042ec:	b292      	uxth	r2, r2
 80042ee:	e7ef      	b.n	80042d0 <i2cStart+0xa0>
 80042f0:	4e4e      	ldr	r6, [pc, #312]	; (800442c <i2cStart+0x1fc>)
 80042f2:	0040      	lsls	r0, r0, #1
 80042f4:	fb96 f6f0 	sdiv	r6, r6, r0
 80042f8:	222b      	movs	r2, #43	; 0x2b
 80042fa:	f3c6 060b 	ubfx	r6, r6, #0, #12
 80042fe:	621a      	str	r2, [r3, #32]
 8004300:	e7dc      	b.n	80042bc <i2cStart+0x8c>
 8004302:	4b4b      	ldr	r3, [pc, #300]	; (8004430 <i2cStart+0x200>)
 8004304:	4298      	cmp	r0, r3
 8004306:	d059      	beq.n	80043bc <i2cStart+0x18c>
 8004308:	4b4a      	ldr	r3, [pc, #296]	; (8004434 <i2cStart+0x204>)
 800430a:	4298      	cmp	r0, r3
 800430c:	d1a1      	bne.n	8004252 <i2cStart+0x22>
 800430e:	4e4a      	ldr	r6, [pc, #296]	; (8004438 <i2cStart+0x208>)
 8004310:	6ac0      	ldr	r0, [r0, #44]	; 0x2c
 8004312:	6a31      	ldr	r1, [r6, #32]
 8004314:	4a49      	ldr	r2, [pc, #292]	; (800443c <i2cStart+0x20c>)
 8004316:	f441 0100 	orr.w	r1, r1, #8388608	; 0x800000
 800431a:	2300      	movs	r3, #0
 800431c:	6231      	str	r1, [r6, #32]
 800431e:	2105      	movs	r1, #5
 8004320:	6233      	str	r3, [r6, #32]
 8004322:	4623      	mov	r3, r4
 8004324:	f7fe ff5c 	bl	80031e0 <dmaStreamAllocate>
 8004328:	4a45      	ldr	r2, [pc, #276]	; (8004440 <i2cStart+0x210>)
 800432a:	6b20      	ldr	r0, [r4, #48]	; 0x30
 800432c:	2105      	movs	r1, #5
 800432e:	4623      	mov	r3, r4
 8004330:	f7fe ff56 	bl	80031e0 <dmaStreamAllocate>
 8004334:	6c37      	ldr	r7, [r6, #64]	; 0x40
 8004336:	4b43      	ldr	r3, [pc, #268]	; (8004444 <i2cStart+0x214>)
 8004338:	2150      	movs	r1, #80	; 0x50
 800433a:	f44f 7080 	mov.w	r0, #256	; 0x100
 800433e:	f44f 7200 	mov.w	r2, #512	; 0x200
 8004342:	f447 0700 	orr.w	r7, r7, #8388608	; 0x800000
 8004346:	6437      	str	r7, [r6, #64]	; 0x40
 8004348:	f883 1348 	strb.w	r1, [r3, #840]	; 0x348
 800434c:	f8c3 0188 	str.w	r0, [r3, #392]	; 0x188
 8004350:	6098      	str	r0, [r3, #8]
 8004352:	f883 1349 	strb.w	r1, [r3, #841]	; 0x349
 8004356:	f8c3 2188 	str.w	r2, [r3, #392]	; 0x188
 800435a:	609a      	str	r2, [r3, #8]
 800435c:	6a60      	ldr	r0, [r4, #36]	; 0x24
 800435e:	6aa2      	ldr	r2, [r4, #40]	; 0x28
 8004360:	6861      	ldr	r1, [r4, #4]
 8004362:	6b63      	ldr	r3, [r4, #52]	; 0x34
 8004364:	f040 60c0 	orr.w	r0, r0, #100663296	; 0x6000000
 8004368:	f042 62c0 	orr.w	r2, r2, #100663296	; 0x6000000
 800436c:	f440 3040 	orr.w	r0, r0, #196608	; 0x30000
 8004370:	f442 3240 	orr.w	r2, r2, #196608	; 0x30000
 8004374:	6260      	str	r0, [r4, #36]	; 0x24
 8004376:	62a2      	str	r2, [r4, #40]	; 0x28
 8004378:	e76c      	b.n	8004254 <i2cStart+0x24>
 800437a:	f042 020a 	orr.w	r2, r2, #10
 800437e:	e7a7      	b.n	80042d0 <i2cStart+0xa0>
 8004380:	f022 0208 	bic.w	r2, r2, #8
 8004384:	b292      	uxth	r2, r2
 8004386:	f042 0202 	orr.w	r2, r2, #2
 800438a:	e7a1      	b.n	80042d0 <i2cStart+0xa0>
 800438c:	eb00 0080 	add.w	r0, r0, r0, lsl #2
 8004390:	4e26      	ldr	r6, [pc, #152]	; (800442c <i2cStart+0x1fc>)
 8004392:	eb00 0080 	add.w	r0, r0, r0, lsl #2
 8004396:	fb96 f6f0 	sdiv	r6, r6, r0
 800439a:	ea6f 4686 	mvn.w	r6, r6, lsl #18
 800439e:	ea6f 4696 	mvn.w	r6, r6, lsr #18
 80043a2:	b2b6      	uxth	r6, r6
 80043a4:	e788      	b.n	80042b8 <i2cStart+0x88>
 80043a6:	4e21      	ldr	r6, [pc, #132]	; (800442c <i2cStart+0x1fc>)
 80043a8:	eb00 0040 	add.w	r0, r0, r0, lsl #1
 80043ac:	fb96 f6f0 	sdiv	r6, r6, r0
 80043b0:	ea6f 4646 	mvn.w	r6, r6, lsl #17
 80043b4:	ea6f 4656 	mvn.w	r6, r6, lsr #17
 80043b8:	b2b6      	uxth	r6, r6
 80043ba:	e77d      	b.n	80042b8 <i2cStart+0x88>
 80043bc:	4f1e      	ldr	r7, [pc, #120]	; (8004438 <i2cStart+0x208>)
 80043be:	6ac0      	ldr	r0, [r0, #44]	; 0x2c
 80043c0:	6a39      	ldr	r1, [r7, #32]
 80043c2:	4a1e      	ldr	r2, [pc, #120]	; (800443c <i2cStart+0x20c>)
 80043c4:	f441 1100 	orr.w	r1, r1, #2097152	; 0x200000
 80043c8:	2300      	movs	r3, #0
 80043ca:	6239      	str	r1, [r7, #32]
 80043cc:	2105      	movs	r1, #5
 80043ce:	623b      	str	r3, [r7, #32]
 80043d0:	4623      	mov	r3, r4
 80043d2:	f7fe ff05 	bl	80031e0 <dmaStreamAllocate>
 80043d6:	4a1a      	ldr	r2, [pc, #104]	; (8004440 <i2cStart+0x210>)
 80043d8:	6b20      	ldr	r0, [r4, #48]	; 0x30
 80043da:	2105      	movs	r1, #5
 80043dc:	4623      	mov	r3, r4
 80043de:	f7fe feff 	bl	80031e0 <dmaStreamAllocate>
 80043e2:	6c38      	ldr	r0, [r7, #64]	; 0x40
 80043e4:	4b17      	ldr	r3, [pc, #92]	; (8004444 <i2cStart+0x214>)
 80043e6:	2250      	movs	r2, #80	; 0x50
 80043e8:	f04f 4100 	mov.w	r1, #2147483648	; 0x80000000
 80043ec:	f440 1000 	orr.w	r0, r0, #2097152	; 0x200000
 80043f0:	6438      	str	r0, [r7, #64]	; 0x40
 80043f2:	f883 231f 	strb.w	r2, [r3, #799]	; 0x31f
 80043f6:	f8c3 1180 	str.w	r1, [r3, #384]	; 0x180
 80043fa:	6019      	str	r1, [r3, #0]
 80043fc:	f883 2320 	strb.w	r2, [r3, #800]	; 0x320
 8004400:	f8c3 6184 	str.w	r6, [r3, #388]	; 0x184
 8004404:	605e      	str	r6, [r3, #4]
 8004406:	6a60      	ldr	r0, [r4, #36]	; 0x24
 8004408:	6aa2      	ldr	r2, [r4, #40]	; 0x28
 800440a:	6861      	ldr	r1, [r4, #4]
 800440c:	6b63      	ldr	r3, [r4, #52]	; 0x34
 800440e:	f040 7000 	orr.w	r0, r0, #33554432	; 0x2000000
 8004412:	f042 7200 	orr.w	r2, r2, #33554432	; 0x2000000
 8004416:	f440 3040 	orr.w	r0, r0, #196608	; 0x30000
 800441a:	f442 3240 	orr.w	r2, r2, #196608	; 0x30000
 800441e:	6260      	str	r0, [r4, #36]	; 0x24
 8004420:	62a2      	str	r2, [r4, #40]	; 0x28
 8004422:	e717      	b.n	8004254 <i2cStart+0x24>
 8004424:	000186a0 	.word	0x000186a0
 8004428:	00061a80 	.word	0x00061a80
 800442c:	0280de80 	.word	0x0280de80
 8004430:	20002e60 	.word	0x20002e60
 8004434:	20002e98 	.word	0x20002e98
 8004438:	40023800 	.word	0x40023800
 800443c:	080017c1 	.word	0x080017c1
 8004440:	08003b71 	.word	0x08003b71
 8004444:	e000e100 	.word	0xe000e100
 8004448:	f3af 8000 	nop.w
 800444c:	f3af 8000 	nop.w

08004450 <chThdExit>:
 8004450:	b538      	push	{r3, r4, r5, lr}
 8004452:	2220      	movs	r2, #32
 8004454:	4603      	mov	r3, r0
 8004456:	f382 8811 	msr	BASEPRI, r2
 800445a:	4a0e      	ldr	r2, [pc, #56]	; (8004494 <chThdExit+0x44>)
 800445c:	6994      	ldr	r4, [r2, #24]
 800445e:	6a60      	ldr	r0, [r4, #36]	; 0x24
 8004460:	6223      	str	r3, [r4, #32]
 8004462:	f104 0524 	add.w	r5, r4, #36	; 0x24
 8004466:	42a8      	cmp	r0, r5
 8004468:	d006      	beq.n	8004478 <chThdExit+0x28>
 800446a:	6803      	ldr	r3, [r0, #0]
 800446c:	6263      	str	r3, [r4, #36]	; 0x24
 800446e:	f7ff f917 	bl	80036a0 <chSchReadyI>
 8004472:	6a60      	ldr	r0, [r4, #36]	; 0x24
 8004474:	42a8      	cmp	r0, r5
 8004476:	d1f8      	bne.n	800446a <chThdExit+0x1a>
 8004478:	7f63      	ldrb	r3, [r4, #29]
 800447a:	079b      	lsls	r3, r3, #30
 800447c:	d104      	bne.n	8004488 <chThdExit+0x38>
 800447e:	6963      	ldr	r3, [r4, #20]
 8004480:	6922      	ldr	r2, [r4, #16]
 8004482:	611a      	str	r2, [r3, #16]
 8004484:	6922      	ldr	r2, [r4, #16]
 8004486:	6153      	str	r3, [r2, #20]
 8004488:	200f      	movs	r0, #15
 800448a:	e8bd 4038 	ldmia.w	sp!, {r3, r4, r5, lr}
 800448e:	f7fe bf37 	b.w	8003300 <chSchGoSleepS>
 8004492:	bf00      	nop
 8004494:	20002ef0 	.word	0x20002ef0
 8004498:	f3af 8000 	nop.w
 800449c:	f3af 8000 	nop.w

080044a0 <chSchDoReschedule>:
 80044a0:	f7fe befe 	b.w	80032a0 <chSchDoRescheduleAhead>
 80044a4:	f3af 8000 	nop.w
 80044a8:	f3af 8000 	nop.w
 80044ac:	f3af 8000 	nop.w

080044b0 <strcpy>:
 80044b0:	ea80 0201 	eor.w	r2, r0, r1
 80044b4:	4684      	mov	ip, r0
 80044b6:	f012 0f03 	tst.w	r2, #3
 80044ba:	d14f      	bne.n	800455c <strcpy+0xac>
 80044bc:	f011 0f03 	tst.w	r1, #3
 80044c0:	d132      	bne.n	8004528 <strcpy+0x78>
 80044c2:	f84d 4d04 	str.w	r4, [sp, #-4]!
 80044c6:	f011 0f04 	tst.w	r1, #4
 80044ca:	f851 3b04 	ldr.w	r3, [r1], #4
 80044ce:	d00b      	beq.n	80044e8 <strcpy+0x38>
 80044d0:	f1a3 3201 	sub.w	r2, r3, #16843009	; 0x1010101
 80044d4:	439a      	bics	r2, r3
 80044d6:	f012 3f80 	tst.w	r2, #2155905152	; 0x80808080
 80044da:	bf04      	itt	eq
 80044dc:	f84c 3b04 	streq.w	r3, [ip], #4
 80044e0:	f851 3b04 	ldreq.w	r3, [r1], #4
 80044e4:	d116      	bne.n	8004514 <strcpy+0x64>
 80044e6:	bf00      	nop
 80044e8:	f851 4b04 	ldr.w	r4, [r1], #4
 80044ec:	f1a3 3201 	sub.w	r2, r3, #16843009	; 0x1010101
 80044f0:	439a      	bics	r2, r3
 80044f2:	f012 3f80 	tst.w	r2, #2155905152	; 0x80808080
 80044f6:	f1a4 3201 	sub.w	r2, r4, #16843009	; 0x1010101
 80044fa:	d10b      	bne.n	8004514 <strcpy+0x64>
 80044fc:	f84c 3b04 	str.w	r3, [ip], #4
 8004500:	43a2      	bics	r2, r4
 8004502:	f012 3f80 	tst.w	r2, #2155905152	; 0x80808080
 8004506:	bf04      	itt	eq
 8004508:	f851 3b04 	ldreq.w	r3, [r1], #4
 800450c:	f84c 4b04 	streq.w	r4, [ip], #4
 8004510:	d0ea      	beq.n	80044e8 <strcpy+0x38>
 8004512:	4623      	mov	r3, r4
 8004514:	f80c 3b01 	strb.w	r3, [ip], #1
 8004518:	f013 0fff 	tst.w	r3, #255	; 0xff
 800451c:	ea4f 2333 	mov.w	r3, r3, ror #8
 8004520:	d1f8      	bne.n	8004514 <strcpy+0x64>
 8004522:	f85d 4b04 	ldr.w	r4, [sp], #4
 8004526:	4770      	bx	lr
 8004528:	f011 0f01 	tst.w	r1, #1
 800452c:	d006      	beq.n	800453c <strcpy+0x8c>
 800452e:	f811 2b01 	ldrb.w	r2, [r1], #1
 8004532:	f80c 2b01 	strb.w	r2, [ip], #1
 8004536:	2a00      	cmp	r2, #0
 8004538:	bf08      	it	eq
 800453a:	4770      	bxeq	lr
 800453c:	f011 0f02 	tst.w	r1, #2
 8004540:	d0bf      	beq.n	80044c2 <strcpy+0x12>
 8004542:	f831 2b02 	ldrh.w	r2, [r1], #2
 8004546:	f012 0fff 	tst.w	r2, #255	; 0xff
 800454a:	bf16      	itet	ne
 800454c:	f82c 2b02 	strhne.w	r2, [ip], #2
 8004550:	f88c 2000 	strbeq.w	r2, [ip]
 8004554:	f412 4f7f 	tstne.w	r2, #65280	; 0xff00
 8004558:	d1b3      	bne.n	80044c2 <strcpy+0x12>
 800455a:	4770      	bx	lr
 800455c:	f811 2b01 	ldrb.w	r2, [r1], #1
 8004560:	f80c 2b01 	strb.w	r2, [ip], #1
 8004564:	2a00      	cmp	r2, #0
 8004566:	d1f9      	bne.n	800455c <strcpy+0xac>
 8004568:	4770      	bx	lr
 800456a:	bf00      	nop
 800456c:	0000      	movs	r0, r0
	...

08004570 <strlen>:
 8004570:	f020 0103 	bic.w	r1, r0, #3
 8004574:	f010 0003 	ands.w	r0, r0, #3
 8004578:	f1c0 0000 	rsb	r0, r0, #0
 800457c:	f851 3b04 	ldr.w	r3, [r1], #4
 8004580:	f100 0c04 	add.w	ip, r0, #4
 8004584:	ea4f 0ccc 	mov.w	ip, ip, lsl #3
 8004588:	f06f 0200 	mvn.w	r2, #0
 800458c:	bf1c      	itt	ne
 800458e:	fa22 f20c 	lsrne.w	r2, r2, ip
 8004592:	4313      	orrne	r3, r2
 8004594:	f04f 0c01 	mov.w	ip, #1
 8004598:	ea4c 2c0c 	orr.w	ip, ip, ip, lsl #8
 800459c:	ea4c 4c0c 	orr.w	ip, ip, ip, lsl #16
 80045a0:	eba3 020c 	sub.w	r2, r3, ip
 80045a4:	ea22 0203 	bic.w	r2, r2, r3
 80045a8:	ea12 12cc 	ands.w	r2, r2, ip, lsl #7
 80045ac:	bf04      	itt	eq
 80045ae:	f851 3b04 	ldreq.w	r3, [r1], #4
 80045b2:	3004      	addeq	r0, #4
 80045b4:	d0f4      	beq.n	80045a0 <strlen+0x30>
 80045b6:	f013 0fff 	tst.w	r3, #255	; 0xff
 80045ba:	bf1f      	itttt	ne
 80045bc:	3001      	addne	r0, #1
 80045be:	f413 4f7f 	tstne.w	r3, #65280	; 0xff00
 80045c2:	3001      	addne	r0, #1
 80045c4:	f413 0f7f 	tstne.w	r3, #16711680	; 0xff0000
 80045c8:	bf18      	it	ne
 80045ca:	3001      	addne	r0, #1
 80045cc:	4770      	bx	lr
 80045ce:	bf00      	nop

080045d0 <strncmp>:
 80045d0:	b430      	push	{r4, r5}
 80045d2:	2a00      	cmp	r2, #0
 80045d4:	d04a      	beq.n	800466c <strncmp+0x9c>
 80045d6:	ea40 0301 	orr.w	r3, r0, r1
 80045da:	f013 0303 	ands.w	r3, r3, #3
 80045de:	d12d      	bne.n	800463c <strncmp+0x6c>
 80045e0:	2a03      	cmp	r2, #3
 80045e2:	d92b      	bls.n	800463c <strncmp+0x6c>
 80045e4:	6804      	ldr	r4, [r0, #0]
 80045e6:	680d      	ldr	r5, [r1, #0]
 80045e8:	42ac      	cmp	r4, r5
 80045ea:	d127      	bne.n	800463c <strncmp+0x6c>
 80045ec:	3a04      	subs	r2, #4
 80045ee:	d03d      	beq.n	800466c <strncmp+0x9c>
 80045f0:	f1a4 3501 	sub.w	r5, r4, #16843009	; 0x1010101
 80045f4:	ea25 0404 	bic.w	r4, r5, r4
 80045f8:	f014 3f80 	tst.w	r4, #2155905152	; 0x80808080
 80045fc:	d13c      	bne.n	8004678 <strncmp+0xa8>
 80045fe:	460c      	mov	r4, r1
 8004600:	4603      	mov	r3, r0
 8004602:	e00e      	b.n	8004622 <strncmp+0x52>
 8004604:	685b      	ldr	r3, [r3, #4]
 8004606:	6864      	ldr	r4, [r4, #4]
 8004608:	f1a3 3501 	sub.w	r5, r3, #16843009	; 0x1010101
 800460c:	42a3      	cmp	r3, r4
 800460e:	ea25 0503 	bic.w	r5, r5, r3
 8004612:	d113      	bne.n	800463c <strncmp+0x6c>
 8004614:	3a04      	subs	r2, #4
 8004616:	d029      	beq.n	800466c <strncmp+0x9c>
 8004618:	f015 3f80 	tst.w	r5, #2155905152	; 0x80808080
 800461c:	d129      	bne.n	8004672 <strncmp+0xa2>
 800461e:	4603      	mov	r3, r0
 8004620:	460c      	mov	r4, r1
 8004622:	2a03      	cmp	r2, #3
 8004624:	f100 0004 	add.w	r0, r0, #4
 8004628:	f101 0104 	add.w	r1, r1, #4
 800462c:	d8ea      	bhi.n	8004604 <strncmp+0x34>
 800462e:	1e55      	subs	r5, r2, #1
 8004630:	b92a      	cbnz	r2, 800463e <strncmp+0x6e>
 8004632:	7918      	ldrb	r0, [r3, #4]
 8004634:	7922      	ldrb	r2, [r4, #4]
 8004636:	1a80      	subs	r0, r0, r2
 8004638:	bc30      	pop	{r4, r5}
 800463a:	4770      	bx	lr
 800463c:	1e55      	subs	r5, r2, #1
 800463e:	7803      	ldrb	r3, [r0, #0]
 8004640:	780a      	ldrb	r2, [r1, #0]
 8004642:	4293      	cmp	r3, r2
 8004644:	d11a      	bne.n	800467c <strncmp+0xac>
 8004646:	b1dd      	cbz	r5, 8004680 <strncmp+0xb0>
 8004648:	b1b3      	cbz	r3, 8004678 <strncmp+0xa8>
 800464a:	1c6c      	adds	r4, r5, #1
 800464c:	440c      	add	r4, r1
 800464e:	1c8b      	adds	r3, r1, #2
 8004650:	4601      	mov	r1, r0
 8004652:	e004      	b.n	800465e <strncmp+0x8e>
 8004654:	42a3      	cmp	r3, r4
 8004656:	d00c      	beq.n	8004672 <strncmp+0xa2>
 8004658:	3301      	adds	r3, #1
 800465a:	2800      	cmp	r0, #0
 800465c:	d0ec      	beq.n	8004638 <strncmp+0x68>
 800465e:	f811 0f01 	ldrb.w	r0, [r1, #1]!
 8004662:	f813 2c01 	ldrb.w	r2, [r3, #-1]
 8004666:	4290      	cmp	r0, r2
 8004668:	d0f4      	beq.n	8004654 <strncmp+0x84>
 800466a:	e7e4      	b.n	8004636 <strncmp+0x66>
 800466c:	4610      	mov	r0, r2
 800466e:	bc30      	pop	{r4, r5}
 8004670:	4770      	bx	lr
 8004672:	2000      	movs	r0, #0
 8004674:	bc30      	pop	{r4, r5}
 8004676:	4770      	bx	lr
 8004678:	4618      	mov	r0, r3
 800467a:	e7dd      	b.n	8004638 <strncmp+0x68>
 800467c:	4618      	mov	r0, r3
 800467e:	e7da      	b.n	8004636 <strncmp+0x66>
 8004680:	4628      	mov	r0, r5
 8004682:	e7d9      	b.n	8004638 <strncmp+0x68>
	...
 8004690:	30376953 	.word	0x30376953
 8004694:	582d3078 	.word	0x582d3078
	...
 80046a0:	32504d54 	.word	0x32504d54
 80046a4:	582d3537 	.word	0x582d3537
 80046a8:	00000000 	.word	0x00000000
 80046ac:	3635534d 	.word	0x3635534d
 80046b0:	582d3730 	.word	0x582d3730
	...
 80046c0:	6c756e28 	.word	0x6c756e28
 80046c4:	0000296c 	.word	0x0000296c
 80046c8:	20414d44 	.word	0x20414d44
 80046cc:	6c696166 	.word	0x6c696166
 80046d0:	00657275 	.word	0x00657275
 80046d4:	72617453 	.word	0x72617453
 80046d8:	676e6974 	.word	0x676e6974
 80046dc:	6e657320 	.word	0x6e657320
 80046e0:	20726f73 	.word	0x20726f73
 80046e4:	2e2e7325 	.word	0x2e2e7325
 80046e8:	00000a2e 	.word	0x00000a2e
 80046ec:	00000000 	.word	0x00000000

080046f0 <pow10.13096.4651>:
 80046f0:	0000000a 00000064 000003e8 00002710     ....d........'..
 8004700:	000186a0 000f4240 00989680 05f5e100     ....@B..........
 8004710:	3b9aca00 00000000 00000000 00000000     ...;............

08004720 <vmt.10284.4633>:
 8004720:	08001d31 08001c21 08001c91 08001b81     1...!...........
 8004730:	08001c81 08001b71 08001d21 08001c11     ....q...!.......
 8004740:	3d3d0a0a 7453203d 6f626972 31762067     ..=== Stribog v1
 8004750:	3d3d3d20 2943280a 31303220 43202c35      ===.(C) 2015, C
 8004760:	2079646f 616d7948 490a0a6e 6974696e     ody Hyman..Initi
 8004770:	7a696c61 20676e69 74737953 2e2e6d65     alizing System..
 8004780:	00000a2e 74737953 49206d65 6974696e     ....System Initi
 8004790:	7a696c61 6f697461 6f43206e 656c706d     alization Comple
 80047a0:	000a6574 454d4954 2c73253a 54414c20     te..TIME:%s, LAT
 80047b0:	2c73253a 4e4f4c20 73253a47 4c41202c     :%s, LONG:%s, AL
 80047c0:	73253a54 4153202c 73253a54 0000000a     T:%s, SAT:%s....
 80047d0:	3a433249 54207325 52455852 64252852     I2C:%s TRXERR(%d
 80047e0:	00000a29 3a433249 49207325 5443414e     )...I2C:%s INACT
 80047f0:	0a455649 00000000 00000000 00000000     IVE.............

08004800 <ch_debug.4877>:
 8004800:	6e69616d 18001600 08440404 1814100c     main......D.....
 8004810:	1e1d1c00 00000000 00000000 00000000     ................

08004820 <_stm32_dma_streams.4937>:
 8004820:	40026010 40026008 000b0000 40026028     .`.@.`.@....(`.@
 8004830:	40026008 000c0106 40026040 40026008     .`.@....@`.@.`.@
 8004840:	000d0210 40026058 40026008 000e0316     ....X`.@.`.@....
 8004850:	40026070 4002600c 000f0400 40026088     p`.@.`.@.....`.@
 8004860:	4002600c 00100506 400260a0 4002600c     .`.@.....`.@.`.@
 8004870:	00110610 400260b8 4002600c 002f0716     .....`.@.`.@../.
 8004880:	40026410 40026408 00380800 40026428     .d.@.d.@..8.(d.@
 8004890:	40026408 00390906 40026440 40026408     .d.@..9.@d.@.d.@
 80048a0:	003a0a10 40026458 40026408 003b0b16     ..:.Xd.@.d.@..;.
 80048b0:	40026470 4002640c 003c0c00 40026488     pd.@.d.@..<..d.@
 80048c0:	4002640c 00440d06 400264a0 4002640c     .d.@..D..d.@.d.@
 80048d0:	00450e10 400264b8 4002640c 00460f16     ..E..d.@.d.@..F.

080048e0 <analogGrp.15811.4748>:
 80048e0:	00030000 00000000 00000000 00000000     ................
 80048f0:	40000000 00000036 00000006 00200000     ...@6......... .
 8004900:	00000000 00002d40 00000000 00000000     ....@-..........

08004910 <ii2cCfg.15815.4751>:
 8004910:	00000001 000186a0 00000002 00000000     ................

08004920 <ei2cCfg.15814.4752>:
 8004920:	00000001 000186a0 00000002 00000000     ................
 8004930:	32504d42 00003038 32504d42 203a3038     BMP280..BMP280: 
 8004940:	4f525245 45522052 4e494441 2d542047     ERROR READING T-
 8004950:	41524150 4554454d 00000052 32504d42     PARAMETER...BMP2
 8004960:	203a3038 4f525245 45522052 4e494441     80: ERROR READIN
 8004970:	2d502047 41524150 4554454d 00000052     G P-PARAMETER...
 8004980:	36484948 00303330 5441443c 54453e41     HIH6030.<DATA>ET
 8004990:	312e253a 48452c66 312e253a 48452c66     :%.1f,EH:%.1f,EH
 80049a0:	2e253a54 492c6632 2e253a48 492c6631     T:%.2f,IH:%.1f,I
 80049b0:	253a5448 2c66322e 253a504d 2c66322e     HT:%.2f,MP:%.2f,
 80049c0:	253a544d 2c66322e 253a4848 2c66322e     MT:%.2f,HH:%.2f,
 80049d0:	253a5448 2c66322e 2e253a56 412c6632     HT:%.2f,V:%.2f,A
 80049e0:	2e253a50 412c6633 2e253a54 2f3c6633     P:%.3f,AT:%.3f</
 80049f0:	41544144 00000a3e 534e4553 4420524f     DATA>...SENSOR D
 8004a00:	4c444145 20454e49 45435845 44454445     EADLINE EXCEEDED
 8004a10:	0000000a 45545845 253a504d 4366312e     ....EXTEMP:%.1fC
 8004a20:	20202020 5548450a 2e253a4d 25256631         .EHUM:%.1f%%
 8004a30:	20202020 45544845 253a504d 4366322e         EHTEMP:%.2fC
 8004a40:	5548490a 2e253a4d 25256631 20202020     .IHUM:%.1f%%    
 8004a50:	20202020 45544849 253a504d 4366322e         IHTEMP:%.2fC
 8004a60:	52504d0a 2e253a53 506b6632 20202061     .MPRS:%.2fkPa   
 8004a70:	45544d20 253a504d 4366322e 4849480a      MTEMP:%.2fC.HIH
 8004a80:	3a4d5548 66322e25 20202525 20202020     HUM:%.2f%%      
 8004a90:	49482020 4d455448 2e253a50 0a436632       HIHTEMP:%.2fC.
 8004aa0:	3a4e4956 66322e25 50410a56 53534552     VIN:%.2fV.APRESS
 8004ab0:	332e253a 61506b66 4554410a 253a504d     :%.3fkPa.ATEMP:%
 8004ac0:	4366332e 0000000a 334d534c 415f3330     .3fC....LSM303_A
 8004ad0:	0000582d 334d534c 4d5f3330 0000582d     -X..LSM303_M-X..
 8004ae0:	656c6469 00000000 00000000 00000000     idle............
 8004af0:	00005047 004d4c41 00414747 00000000     GP..ALM.GGA.....

08004b00 <default_config.12051.4517>:
 8004b00:	0001c200 40000000 00000000              .......@....
