Archive member included because of file (symbol)

/usr/bin/../lib/gcc/arm-none-eabi/4.8.4/armv7e-m/fpu/libgcc.a(_arm_addsubdf3.o)
                              /tmp/ccsDj3Fw.ltrans3.ltrans.o (__aeabi_dsub)
/usr/bin/../lib/gcc/arm-none-eabi/4.8.4/armv7e-m/fpu/libgcc.a(_arm_muldivdf3.o)
                              /tmp/ccsDj3Fw.ltrans3.ltrans.o (__aeabi_dmul)
/usr/bin/../lib/gcc/arm-none-eabi/4.8.4/armv7e-m/fpu/libgcc.a(_arm_fixdfsi.o)
                              /tmp/ccsDj3Fw.ltrans3.ltrans.o (__aeabi_d2iz)
/usr/bin/../lib/gcc/arm-none-eabi/4.8.4/armv7e-m/fpu/libgcc.a(_arm_truncdfsf2.o)
                              /tmp/ccsDj3Fw.ltrans3.ltrans.o (__aeabi_d2f)
/usr/bin/../lib/gcc/arm-none-eabi/4.8.4/../../../../arm-none-eabi/lib/armv7e-m/fpu/libc.a(lib_a-strcpy.o)
                              /tmp/ccsDj3Fw.ltrans0.ltrans.o (strcpy)
/usr/bin/../lib/gcc/arm-none-eabi/4.8.4/../../../../arm-none-eabi/lib/armv7e-m/fpu/libc.a(lib_a-strlen.o)
                              /tmp/ccsDj3Fw.ltrans2.ltrans.o (strlen)
/usr/bin/../lib/gcc/arm-none-eabi/4.8.4/../../../../arm-none-eabi/lib/armv7e-m/fpu/libc.a(lib_a-strncmp.o)
                              /tmp/ccsDj3Fw.ltrans2.ltrans.o (strncmp)

Discarded input sections

 .data          0x0000000000000000        0x0 build/obj/chcoreasm_v7m.o
 .bss           0x0000000000000000        0x0 build/obj/chcoreasm_v7m.o
 .text          0x0000000000000000        0x0 build/obj/crt0.o (symbol from plugin)
 .text          0x0000000000000000        0x0 /tmp/ccsDj3Fw.ltrans0.ltrans.o
 .data          0x0000000000000000        0x0 /tmp/ccsDj3Fw.ltrans0.ltrans.o
 .bss           0x0000000000000000        0x0 /tmp/ccsDj3Fw.ltrans0.ltrans.o
 .text          0x0000000000000000        0x0 /tmp/ccsDj3Fw.ltrans1.ltrans.o
 .data          0x0000000000000000        0x0 /tmp/ccsDj3Fw.ltrans1.ltrans.o
 .bss           0x0000000000000000        0x0 /tmp/ccsDj3Fw.ltrans1.ltrans.o
 .text          0x0000000000000000        0x0 /tmp/ccsDj3Fw.ltrans2.ltrans.o
 .data          0x0000000000000000        0x0 /tmp/ccsDj3Fw.ltrans2.ltrans.o
 .bss           0x0000000000000000        0x0 /tmp/ccsDj3Fw.ltrans2.ltrans.o
 .text          0x0000000000000000        0x0 /tmp/ccsDj3Fw.ltrans3.ltrans.o
 .data          0x0000000000000000        0x0 /tmp/ccsDj3Fw.ltrans3.ltrans.o
 .bss           0x0000000000000000        0x0 /tmp/ccsDj3Fw.ltrans3.ltrans.o
 .text          0x0000000000000000        0x0 /tmp/ccsDj3Fw.ltrans4.ltrans.o
 .data          0x0000000000000000        0x0 /tmp/ccsDj3Fw.ltrans4.ltrans.o
 .bss           0x0000000000000000        0x0 /tmp/ccsDj3Fw.ltrans4.ltrans.o
 .data          0x0000000000000000        0x0 /usr/bin/../lib/gcc/arm-none-eabi/4.8.4/armv7e-m/fpu/libgcc.a(_arm_addsubdf3.o)
 .bss           0x0000000000000000        0x0 /usr/bin/../lib/gcc/arm-none-eabi/4.8.4/armv7e-m/fpu/libgcc.a(_arm_addsubdf3.o)
 .data          0x0000000000000000        0x0 /usr/bin/../lib/gcc/arm-none-eabi/4.8.4/armv7e-m/fpu/libgcc.a(_arm_muldivdf3.o)
 .bss           0x0000000000000000        0x0 /usr/bin/../lib/gcc/arm-none-eabi/4.8.4/armv7e-m/fpu/libgcc.a(_arm_muldivdf3.o)
 .data          0x0000000000000000        0x0 /usr/bin/../lib/gcc/arm-none-eabi/4.8.4/armv7e-m/fpu/libgcc.a(_arm_fixdfsi.o)
 .bss           0x0000000000000000        0x0 /usr/bin/../lib/gcc/arm-none-eabi/4.8.4/armv7e-m/fpu/libgcc.a(_arm_fixdfsi.o)
 .data          0x0000000000000000        0x0 /usr/bin/../lib/gcc/arm-none-eabi/4.8.4/armv7e-m/fpu/libgcc.a(_arm_truncdfsf2.o)
 .bss           0x0000000000000000        0x0 /usr/bin/../lib/gcc/arm-none-eabi/4.8.4/armv7e-m/fpu/libgcc.a(_arm_truncdfsf2.o)
 .text          0x0000000000000000        0x0 /usr/bin/../lib/gcc/arm-none-eabi/4.8.4/../../../../arm-none-eabi/lib/armv7e-m/fpu/libc.a(lib_a-strcpy.o)
 .data          0x0000000000000000        0x0 /usr/bin/../lib/gcc/arm-none-eabi/4.8.4/../../../../arm-none-eabi/lib/armv7e-m/fpu/libc.a(lib_a-strcpy.o)
 .bss           0x0000000000000000        0x0 /usr/bin/../lib/gcc/arm-none-eabi/4.8.4/../../../../arm-none-eabi/lib/armv7e-m/fpu/libc.a(lib_a-strcpy.o)
 .text          0x0000000000000000        0x0 /usr/bin/../lib/gcc/arm-none-eabi/4.8.4/../../../../arm-none-eabi/lib/armv7e-m/fpu/libc.a(lib_a-strlen.o)
 .data          0x0000000000000000        0x0 /usr/bin/../lib/gcc/arm-none-eabi/4.8.4/../../../../arm-none-eabi/lib/armv7e-m/fpu/libc.a(lib_a-strlen.o)
 .bss           0x0000000000000000        0x0 /usr/bin/../lib/gcc/arm-none-eabi/4.8.4/../../../../arm-none-eabi/lib/armv7e-m/fpu/libc.a(lib_a-strlen.o)
 .text          0x0000000000000000        0x0 /usr/bin/../lib/gcc/arm-none-eabi/4.8.4/../../../../arm-none-eabi/lib/armv7e-m/fpu/libc.a(lib_a-strncmp.o)
 .data          0x0000000000000000        0x0 /usr/bin/../lib/gcc/arm-none-eabi/4.8.4/../../../../arm-none-eabi/lib/armv7e-m/fpu/libc.a(lib_a-strncmp.o)
 .bss           0x0000000000000000        0x0 /usr/bin/../lib/gcc/arm-none-eabi/4.8.4/../../../../arm-none-eabi/lib/armv7e-m/fpu/libc.a(lib_a-strncmp.o)
 .text          0x0000000000000000        0x0 build/obj/vectors.o (symbol from plugin)
 .text          0x0000000000000000        0x0 build/obj/chcore.o (symbol from plugin)
 .text          0x0000000000000000        0x0 build/obj/chcore_v7m.o (symbol from plugin)
 .text          0x0000000000000000        0x0 build/obj/chsys.o (symbol from plugin)
 .text          0x0000000000000000        0x0 build/obj/chdebug.o (symbol from plugin)
 .text          0x0000000000000000        0x0 build/obj/chtm.o (symbol from plugin)
 .text          0x0000000000000000        0x0 build/obj/chstats.o (symbol from plugin)
 .text          0x0000000000000000        0x0 build/obj/chschd.o (symbol from plugin)
 .text          0x0000000000000000        0x0 build/obj/chvt.o (symbol from plugin)
 .text          0x0000000000000000        0x0 build/obj/chthreads.o (symbol from plugin)
 .text          0x0000000000000000        0x0 build/obj/chdynamic.o (symbol from plugin)
 .text          0x0000000000000000        0x0 build/obj/chregistry.o (symbol from plugin)
 .text          0x0000000000000000        0x0 build/obj/chsem.o (symbol from plugin)
 .text          0x0000000000000000        0x0 build/obj/chmtx.o (symbol from plugin)
 .text          0x0000000000000000        0x0 build/obj/chcond.o (symbol from plugin)
 .text          0x0000000000000000        0x0 build/obj/chevents.o (symbol from plugin)
 .text          0x0000000000000000        0x0 build/obj/chmsg.o (symbol from plugin)
 .text          0x0000000000000000        0x0 build/obj/chmboxes.o (symbol from plugin)
 .text          0x0000000000000000        0x0 build/obj/chqueues.o (symbol from plugin)
 .text          0x0000000000000000        0x0 build/obj/chmemcore.o (symbol from plugin)
 .text          0x0000000000000000        0x0 build/obj/chheap.o (symbol from plugin)
 .text          0x0000000000000000        0x0 build/obj/chmempools.o (symbol from plugin)
 .text          0x0000000000000000        0x0 build/obj/test.o (symbol from plugin)
 .text          0x0000000000000000        0x0 build/obj/testthd.o (symbol from plugin)
 .text          0x0000000000000000        0x0 build/obj/testsem.o (symbol from plugin)
 .text          0x0000000000000000        0x0 build/obj/testmtx.o (symbol from plugin)
 .text          0x0000000000000000        0x0 build/obj/testmsg.o (symbol from plugin)
 .text          0x0000000000000000        0x0 build/obj/testmbox.o (symbol from plugin)
 .text          0x0000000000000000        0x0 build/obj/testevt.o (symbol from plugin)
 .text          0x0000000000000000        0x0 build/obj/testheap.o (symbol from plugin)
 .text          0x0000000000000000        0x0 build/obj/testpools.o (symbol from plugin)
 .text          0x0000000000000000        0x0 build/obj/testdyn.o (symbol from plugin)
 .text          0x0000000000000000        0x0 build/obj/testqueues.o (symbol from plugin)
 .text          0x0000000000000000        0x0 build/obj/testbmk.o (symbol from plugin)
 .text          0x0000000000000000        0x0 build/obj/hal.o (symbol from plugin)
 .text          0x0000000000000000        0x0 build/obj/hal_queues.o (symbol from plugin)
 .text          0x0000000000000000        0x0 build/obj/hal_mmcsd.o (symbol from plugin)
 .text          0x0000000000000000        0x0 build/obj/adc.o (symbol from plugin)
 .text          0x0000000000000000        0x0 build/obj/can.o (symbol from plugin)
 .text          0x0000000000000000        0x0 build/obj/dac.o (symbol from plugin)
 .text          0x0000000000000000        0x0 build/obj/ext.o (symbol from plugin)
 .text          0x0000000000000000        0x0 build/obj/gpt.o (symbol from plugin)
 .text          0x0000000000000000        0x0 build/obj/i2c.o (symbol from plugin)
 .text          0x0000000000000000        0x0 build/obj/i2s.o (symbol from plugin)
 .text          0x0000000000000000        0x0 build/obj/icu.o (symbol from plugin)
 .text          0x0000000000000000        0x0 build/obj/mac.o (symbol from plugin)
 .text          0x0000000000000000        0x0 build/obj/mmc_spi.o (symbol from plugin)
 .text          0x0000000000000000        0x0 build/obj/pal.o (symbol from plugin)
 .text          0x0000000000000000        0x0 build/obj/pwm.o (symbol from plugin)
 .text          0x0000000000000000        0x0 build/obj/rtc.o (symbol from plugin)
 .text          0x0000000000000000        0x0 build/obj/sdc.o (symbol from plugin)
 .text          0x0000000000000000        0x0 build/obj/serial.o (symbol from plugin)
 .text          0x0000000000000000        0x0 build/obj/serial_usb.o (symbol from plugin)
 .text          0x0000000000000000        0x0 build/obj/spi.o (symbol from plugin)
 .text          0x0000000000000000        0x0 build/obj/st.o (symbol from plugin)
 .text          0x0000000000000000        0x0 build/obj/uart.o (symbol from plugin)
 .text          0x0000000000000000        0x0 build/obj/usb.o (symbol from plugin)
 .text          0x0000000000000000        0x0 build/obj/osal.o (symbol from plugin)
 .text          0x0000000000000000        0x0 build/obj/nvic.o (symbol from plugin)
 .text          0x0000000000000000        0x0 build/obj/stm32_dma.o (symbol from plugin)
 .text          0x0000000000000000        0x0 build/obj/hal_lld.o (symbol from plugin)
 .text          0x0000000000000000        0x0 build/obj/adc_lld.o (symbol from plugin)
 .text          0x0000000000000000        0x0 build/obj/ext_lld_isr.o (symbol from plugin)
 .text          0x0000000000000000        0x0 build/obj/can_lld.o (symbol from plugin)
 .text          0x0000000000000000        0x0 build/obj/ext_lld.o (symbol from plugin)
 .text          0x0000000000000000        0x0 build/obj/mac_lld.o (symbol from plugin)
 .text          0x0000000000000000        0x0 build/obj/sdc_lld.o (symbol from plugin)
 .text          0x0000000000000000        0x0 build/obj/dac_lld.o (symbol from plugin)
 .text          0x0000000000000000        0x0 build/obj/pal_lld.o (symbol from plugin)
 .text          0x0000000000000000        0x0 build/obj/i2c_lld.o (symbol from plugin)
 .text          0x0000000000000000        0x0 build/obj/usb_lld.o (symbol from plugin)
 .text          0x0000000000000000        0x0 build/obj/rtc_lld.o (symbol from plugin)
 .text          0x0000000000000000        0x0 build/obj/i2s_lld.o (symbol from plugin)
 .text          0x0000000000000000        0x0 build/obj/spi_lld.o (symbol from plugin)
 .text          0x0000000000000000        0x0 build/obj/gpt_lld.o (symbol from plugin)
 .text          0x0000000000000000        0x0 build/obj/icu_lld.o (symbol from plugin)
 .text          0x0000000000000000        0x0 build/obj/pwm_lld.o (symbol from plugin)
 .text          0x0000000000000000        0x0 build/obj/st_lld.o (symbol from plugin)
 .text          0x0000000000000000        0x0 build/obj/serial_lld.o (symbol from plugin)
 .text          0x0000000000000000        0x0 build/obj/uart_lld.o (symbol from plugin)
 .text          0x0000000000000000        0x0 build/obj/board.o (symbol from plugin)
 .text          0x0000000000000000        0x0 build/obj/fatfs_diskio.o (symbol from plugin)
 .text          0x0000000000000000        0x0 build/obj/fatfs_syscall.o (symbol from plugin)
 .text          0x0000000000000000        0x0 build/obj/ff.o (symbol from plugin)
 .text          0x0000000000000000        0x0 build/obj/unicode.o (symbol from plugin)
 .text          0x0000000000000000        0x0 build/obj/chprintf.o (symbol from plugin)
 .text          0x0000000000000000        0x0 build/obj/memstreams.o (symbol from plugin)
 .text          0x0000000000000000        0x0 build/obj/i2c_sensor.o (symbol from plugin)
 .text          0x0000000000000000        0x0 build/obj/bmp280.o (symbol from plugin)
 .text          0x0000000000000000        0x0 build/obj/si70x0.o (symbol from plugin)
 .text          0x0000000000000000        0x0 build/obj/ms5607.o (symbol from plugin)
 .text          0x0000000000000000        0x0 build/obj/hih6030.o (symbol from plugin)
 .text          0x0000000000000000        0x0 build/obj/lsm303.o (symbol from plugin)
 .text          0x0000000000000000        0x0 build/obj/rfm23bp.o (symbol from plugin)
 .text          0x0000000000000000        0x0 build/obj/rtd.o (symbol from plugin)
 .text          0x0000000000000000        0x0 build/obj/tmp275.o (symbol from plugin)
 .text          0x0000000000000000        0x0 build/obj/mpxm2102.o (symbol from plugin)
 .text          0x0000000000000000        0x0 build/obj/datasample.o (symbol from plugin)
 .text          0x0000000000000000        0x0 build/obj/sensor_thread.o (symbol from plugin)
 .text          0x0000000000000000        0x0 build/obj/ustr.o (symbol from plugin)
 .text          0x0000000000000000        0x0 build/obj/umath.o (symbol from plugin)
 .text          0x0000000000000000        0x0 build/obj/gps.o (symbol from plugin)
 .text          0x0000000000000000        0x0 build/obj/sdmmcsimple.o (symbol from plugin)
 .text          0x0000000000000000        0x0 build/obj/datalogger.o (symbol from plugin)
 .text          0x0000000000000000        0x0 build/obj/main.o (symbol from plugin)

Memory Configuration

Name             Origin             Length             Attributes
flash            0x0000000008000000 0x0000000000040000
ram              0x0000000020000000 0x0000000000010000
*default*        0x0000000000000000 0xffffffffffffffff

Linker script and memory map

LOAD build/obj/chcoreasm_v7m.o
LOAD build/obj/crt0.o
LOAD /tmp/ccsDj3Fw.ltrans0.ltrans.o
LOAD /tmp/ccsDj3Fw.ltrans1.ltrans.o
LOAD /tmp/ccsDj3Fw.ltrans2.ltrans.o
LOAD /tmp/ccsDj3Fw.ltrans3.ltrans.o
LOAD /tmp/ccsDj3Fw.ltrans4.ltrans.o
LOAD /usr/bin/../lib/gcc/arm-none-eabi/4.8.4/armv7e-m/fpu/libgcc.a
LOAD /usr/bin/../lib/gcc/arm-none-eabi/4.8.4/../../../../arm-none-eabi/lib/armv7e-m/fpu/libc.a
LOAD build/obj/vectors.o
LOAD build/obj/chcore.o
LOAD build/obj/chcore_v7m.o
LOAD build/obj/chsys.o
LOAD build/obj/chdebug.o
LOAD build/obj/chtm.o
LOAD build/obj/chstats.o
LOAD build/obj/chschd.o
LOAD build/obj/chvt.o
LOAD build/obj/chthreads.o
LOAD build/obj/chdynamic.o
LOAD build/obj/chregistry.o
LOAD build/obj/chsem.o
LOAD build/obj/chmtx.o
LOAD build/obj/chcond.o
LOAD build/obj/chevents.o
LOAD build/obj/chmsg.o
LOAD build/obj/chmboxes.o
LOAD build/obj/chqueues.o
LOAD build/obj/chmemcore.o
LOAD build/obj/chheap.o
LOAD build/obj/chmempools.o
LOAD build/obj/test.o
LOAD build/obj/testthd.o
LOAD build/obj/testsem.o
LOAD build/obj/testmtx.o
LOAD build/obj/testmsg.o
LOAD build/obj/testmbox.o
LOAD build/obj/testevt.o
LOAD build/obj/testheap.o
LOAD build/obj/testpools.o
LOAD build/obj/testdyn.o
LOAD build/obj/testqueues.o
LOAD build/obj/testbmk.o
LOAD build/obj/hal.o
LOAD build/obj/hal_queues.o
LOAD build/obj/hal_mmcsd.o
LOAD build/obj/adc.o
LOAD build/obj/can.o
LOAD build/obj/dac.o
LOAD build/obj/ext.o
LOAD build/obj/gpt.o
LOAD build/obj/i2c.o
LOAD build/obj/i2s.o
LOAD build/obj/icu.o
LOAD build/obj/mac.o
LOAD build/obj/mmc_spi.o
LOAD build/obj/pal.o
LOAD build/obj/pwm.o
LOAD build/obj/rtc.o
LOAD build/obj/sdc.o
LOAD build/obj/serial.o
LOAD build/obj/serial_usb.o
LOAD build/obj/spi.o
LOAD build/obj/st.o
LOAD build/obj/uart.o
LOAD build/obj/usb.o
LOAD build/obj/osal.o
LOAD build/obj/nvic.o
LOAD build/obj/stm32_dma.o
LOAD build/obj/hal_lld.o
LOAD build/obj/adc_lld.o
LOAD build/obj/ext_lld_isr.o
LOAD build/obj/can_lld.o
LOAD build/obj/ext_lld.o
LOAD build/obj/mac_lld.o
LOAD build/obj/sdc_lld.o
LOAD build/obj/dac_lld.o
LOAD build/obj/pal_lld.o
LOAD build/obj/i2c_lld.o
LOAD build/obj/usb_lld.o
LOAD build/obj/rtc_lld.o
LOAD build/obj/i2s_lld.o
LOAD build/obj/spi_lld.o
LOAD build/obj/gpt_lld.o
LOAD build/obj/icu_lld.o
LOAD build/obj/pwm_lld.o
LOAD build/obj/st_lld.o
LOAD build/obj/serial_lld.o
LOAD build/obj/uart_lld.o
LOAD build/obj/board.o
LOAD build/obj/fatfs_diskio.o
LOAD build/obj/fatfs_syscall.o
LOAD build/obj/ff.o
LOAD build/obj/unicode.o
LOAD build/obj/chprintf.o
LOAD build/obj/memstreams.o
LOAD build/obj/i2c_sensor.o
LOAD build/obj/bmp280.o
LOAD build/obj/si70x0.o
LOAD build/obj/ms5607.o
LOAD build/obj/hih6030.o
LOAD build/obj/lsm303.o
LOAD build/obj/rfm23bp.o
LOAD build/obj/rtd.o
LOAD build/obj/tmp275.o
LOAD build/obj/mpxm2102.o
LOAD build/obj/datasample.o
LOAD build/obj/sensor_thread.o
LOAD build/obj/ustr.o
LOAD build/obj/umath.o
LOAD build/obj/gps.o
LOAD build/obj/sdmmcsimple.o
LOAD build/obj/datalogger.o
LOAD build/obj/main.o
                0x0000000020000000                __ram_start__ = ORIGIN (ram)
                0x0000000000010000                __ram_size__ = 0x10000
                0x0000000020010000                __ram_end__ = (__ram_start__ + __ram_size__)
                0x0000000000000000                . = 0x0
                0x0000000000000000                _text = .

startup         0x0000000008000000      0x1c0
 *(vectors)
 vectors        0x0000000008000000      0x1c0 /tmp/ccsDj3Fw.ltrans4.ltrans.o
                0x0000000008000000                _vectors

constructors    0x00000000080001c0        0x0
                0x00000000080001c0                PROVIDE (__init_array_start, .)
 *(SORT(.init_array.*))
 *(.init_array)
                0x00000000080001c0                PROVIDE (__init_array_end, .)

destructors     0x00000000080001c0        0x0
                0x00000000080001c0                PROVIDE (__fini_array_start, .)
 *(.fini_array)
 *(SORT(.fini_array.*))
                0x00000000080001c0                PROVIDE (__fini_array_end, .)

.text           0x00000000080001c0     0x4518
 *(.text.startup.*)
 .text.startup.main
                0x00000000080001c0      0x820 /tmp/ccsDj3Fw.ltrans0.ltrans.o
                0x00000000080001c0                main
 *(.text)
 .text          0x00000000080009e0       0x2e build/obj/chcoreasm_v7m.o
                0x00000000080009e0                _port_switch
                0x00000000080009f8                _port_thread_start
                0x0000000008000a06                _port_switch_from_isr
                0x0000000008000a0a                _port_exit_from_isr
 *fill*         0x0000000008000a0e        0x2 
 .text          0x0000000008000a10      0x370 /usr/bin/../lib/gcc/arm-none-eabi/4.8.4/armv7e-m/fpu/libgcc.a(_arm_addsubdf3.o)
                0x0000000008000a10                __aeabi_drsub
                0x0000000008000a18                __aeabi_dsub
                0x0000000008000a18                __subdf3
                0x0000000008000a1c                __adddf3
                0x0000000008000a1c                __aeabi_dadd
                0x0000000008000c94                __aeabi_ui2d
                0x0000000008000c94                __floatunsidf
                0x0000000008000cb4                __floatsidf
                0x0000000008000cb4                __aeabi_i2d
                0x0000000008000cd8                __extendsfdf2
                0x0000000008000cd8                __aeabi_f2d
                0x0000000008000d14                __aeabi_ul2d
                0x0000000008000d14                __floatundidf
                0x0000000008000d24                __floatdidf
                0x0000000008000d24                __aeabi_l2d
 .text          0x0000000008000d80      0x424 /usr/bin/../lib/gcc/arm-none-eabi/4.8.4/armv7e-m/fpu/libgcc.a(_arm_muldivdf3.o)
                0x0000000008000d80                __aeabi_dmul
                0x0000000008000d80                __muldf3
                0x0000000008000fd4                __aeabi_ddiv
                0x0000000008000fd4                __divdf3
 *fill*         0x00000000080011a4        0xc 
 .text          0x00000000080011b0       0x50 /usr/bin/../lib/gcc/arm-none-eabi/4.8.4/armv7e-m/fpu/libgcc.a(_arm_fixdfsi.o)
                0x00000000080011b0                __fixdfsi
                0x00000000080011b0                __aeabi_d2iz
 .text          0x0000000008001200       0xa0 /usr/bin/../lib/gcc/arm-none-eabi/4.8.4/armv7e-m/fpu/libgcc.a(_arm_truncdfsf2.o)
                0x0000000008001200                __aeabi_d2f
                0x0000000008001200                __truncdfsf2
 *(.text.*)
 .text.serve_interrupt.12020.4582
                0x00000000080012a0      0x1a0 /tmp/ccsDj3Fw.ltrans0.ltrans.o
 .text.Vector15C
                0x0000000008001440       0x20 /tmp/ccsDj3Fw.ltrans0.ltrans.o
                0x0000000008001440                Vector15C
 .text.VectorD8
                0x0000000008001460       0x20 /tmp/ccsDj3Fw.ltrans0.ltrans.o
                0x0000000008001460                VectorD8
 .text.I2CSensor_transact
                0x0000000008001480      0x140 /tmp/ccsDj3Fw.ltrans0.ltrans.o
                0x0000000008001480                I2CSensor_transact
 .text.I2CSensor_transact_buf
                0x00000000080015c0       0x20 /tmp/ccsDj3Fw.ltrans0.ltrans.o
                0x00000000080015c0                I2CSensor_transact_buf
 .text.si70x0_init.constprop.11
                0x00000000080015e0       0x90 /tmp/ccsDj3Fw.ltrans0.ltrans.o
                0x00000000080015e0                si70x0_init.constprop.11
 .text.si70x0_heaterEnable
                0x0000000008001670       0x50 /tmp/ccsDj3Fw.ltrans0.ltrans.o
                0x0000000008001670                si70x0_heaterEnable
 .text.si70x0_readHumidity
                0x00000000080016c0       0x70 /tmp/ccsDj3Fw.ltrans0.ltrans.o
                0x00000000080016c0                si70x0_readHumidity
 .text.adc_lld_stop_conversion.4261
                0x0000000008001730       0x40 /tmp/ccsDj3Fw.ltrans1.ltrans.o
 .text.chCoreAlloc
                0x0000000008001770       0x40 /tmp/ccsDj3Fw.ltrans1.ltrans.o
                0x0000000008001770                chCoreAlloc
 .text.wakeup.4718
                0x00000000080017b0       0x70 /tmp/ccsDj3Fw.ltrans1.ltrans.o
                0x00000000080017b0                wakeup.4718
 .text._idle_thread.4338
                0x0000000008001820       0x20 /tmp/ccsDj3Fw.ltrans1.ltrans.o
                0x0000000008001820                _idle_thread.4338
 .text.SVC_Handler
                0x0000000008001840       0x20 /tmp/ccsDj3Fw.ltrans1.ltrans.o
                0x0000000008001840                SVC_Handler
 .text._pal_lld_setgroupmode
                0x0000000008001860       0xd0 /tmp/ccsDj3Fw.ltrans1.ltrans.o
                0x0000000008001860                _pal_lld_setgroupmode
 .text.dmaStreamRelease
                0x0000000008001930       0x70 /tmp/ccsDj3Fw.ltrans1.ltrans.o
                0x0000000008001930                dmaStreamRelease
 .text.dmaStreamAllocate
                0x00000000080019a0       0xc0 /tmp/ccsDj3Fw.ltrans1.ltrans.o
                0x00000000080019a0                dmaStreamAllocate
 .text.chSchDoRescheduleAhead
                0x0000000008001a60       0x40 /tmp/ccsDj3Fw.ltrans1.ltrans.o
                0x0000000008001a60                chSchDoRescheduleAhead
 .text.chSchRescheduleS
                0x0000000008001aa0       0x20 /tmp/ccsDj3Fw.ltrans1.ltrans.o
                0x0000000008001aa0                chSchRescheduleS
 .text.chSchGoSleepS
                0x0000000008001ac0       0x30 /tmp/ccsDj3Fw.ltrans1.ltrans.o
                0x0000000008001ac0                chSchGoSleepS
 .text._port_irq_epilogue
                0x0000000008001af0       0x70 /tmp/ccsDj3Fw.ltrans1.ltrans.o
                0x0000000008001af0                _port_irq_epilogue
 .text.Vector158
                0x0000000008001b60       0x30 /tmp/ccsDj3Fw.ltrans1.ltrans.o
                0x0000000008001b60                Vector158
 .text.Vector154
                0x0000000008001b90       0x30 /tmp/ccsDj3Fw.ltrans1.ltrans.o
                0x0000000008001b90                Vector154
 .text.Vector150
                0x0000000008001bc0       0x30 /tmp/ccsDj3Fw.ltrans1.ltrans.o
                0x0000000008001bc0                Vector150
 .text.Vector130
                0x0000000008001bf0       0x30 /tmp/ccsDj3Fw.ltrans1.ltrans.o
                0x0000000008001bf0                Vector130
 .text.Vector12C
                0x0000000008001c20       0x30 /tmp/ccsDj3Fw.ltrans1.ltrans.o
                0x0000000008001c20                Vector12C
 .text.Vector128
                0x0000000008001c50       0x30 /tmp/ccsDj3Fw.ltrans1.ltrans.o
                0x0000000008001c50                Vector128
 .text.Vector124
                0x0000000008001c80       0x30 /tmp/ccsDj3Fw.ltrans1.ltrans.o
                0x0000000008001c80                Vector124
 .text.Vector120
                0x0000000008001cb0       0x30 /tmp/ccsDj3Fw.ltrans1.ltrans.o
                0x0000000008001cb0                Vector120
 .text.VectorFC
                0x0000000008001ce0       0x30 /tmp/ccsDj3Fw.ltrans1.ltrans.o
                0x0000000008001ce0                VectorFC
 .text.Vector84
                0x0000000008001d10       0x30 /tmp/ccsDj3Fw.ltrans1.ltrans.o
                0x0000000008001d10                Vector84
 .text.Vector80
                0x0000000008001d40       0x30 /tmp/ccsDj3Fw.ltrans1.ltrans.o
                0x0000000008001d40                Vector80
 .text.Vector7C
                0x0000000008001d70       0x30 /tmp/ccsDj3Fw.ltrans1.ltrans.o
                0x0000000008001d70                Vector7C
 .text.Vector78
                0x0000000008001da0       0x30 /tmp/ccsDj3Fw.ltrans1.ltrans.o
                0x0000000008001da0                Vector78
 .text.Vector74
                0x0000000008001dd0       0x30 /tmp/ccsDj3Fw.ltrans1.ltrans.o
                0x0000000008001dd0                Vector74
 .text.Vector70
                0x0000000008001e00       0x30 /tmp/ccsDj3Fw.ltrans1.ltrans.o
                0x0000000008001e00                Vector70
 .text.Vector6C
                0x0000000008001e30       0x30 /tmp/ccsDj3Fw.ltrans1.ltrans.o
                0x0000000008001e30                Vector6C
 .text.chSchReadyI
                0x0000000008001e60       0x30 /tmp/ccsDj3Fw.ltrans1.ltrans.o
                0x0000000008001e60                chSchReadyI
 .text.chEvtBroadcastFlagsI
                0x0000000008001e90       0x60 /tmp/ccsDj3Fw.ltrans1.ltrans.o
                0x0000000008001e90                chEvtBroadcastFlagsI
 .text.chMtxLockS
                0x0000000008001ef0       0xd0 /tmp/ccsDj3Fw.ltrans1.ltrans.o
                0x0000000008001ef0                chMtxLockS
 .text.chThdResumeI
                0x0000000008001fc0       0x20 /tmp/ccsDj3Fw.ltrans1.ltrans.o
                0x0000000008001fc0                chThdResumeI
 .text.i2c_lld_serve_error_interrupt.11412
                0x0000000008001fe0       0xb0 /tmp/ccsDj3Fw.ltrans1.ltrans.o
                0x0000000008001fe0                i2c_lld_serve_error_interrupt.11412
 .text.i2c_lld_serve_event_interrupt.11409
                0x0000000008002090      0x100 /tmp/ccsDj3Fw.ltrans1.ltrans.o
                0x0000000008002090                i2c_lld_serve_event_interrupt.11409
 .text.Vector88
                0x0000000008002190       0x70 /tmp/ccsDj3Fw.ltrans1.ltrans.o
                0x0000000008002190                Vector88
 .text.adc_lld_serve_rx_interrupt.11091
                0x0000000008002200       0xd0 /tmp/ccsDj3Fw.ltrans1.ltrans.o
                0x0000000008002200                adc_lld_serve_rx_interrupt.11091
 .text.chTMStopMeasurementX
                0x00000000080022d0       0x50 /tmp/ccsDj3Fw.ltrans1.ltrans.o
                0x00000000080022d0                chTMStopMeasurementX
 .text._unhandled_exception.4397
                0x0000000008002320       0x10 /tmp/ccsDj3Fw.ltrans1.ltrans.o
                0x0000000008002320                Vector58
                0x0000000008002320                VectorE8
                0x0000000008002320                Vector9C
                0x0000000008002320                VectorAC
                0x0000000008002320                DebugMon_Handler
                0x0000000008002320                Vector1A0
                0x0000000008002320                Vector5C
                0x0000000008002320                Vector11C
                0x0000000008002320                HardFault_Handler
                0x0000000008002320                Vector1B8
                0x0000000008002320                Vector19C
                0x0000000008002320                Vector8C
                0x0000000008002320                SysTick_Handler
                0x0000000008002320                VectorDC
                0x0000000008002320                PendSV_Handler
                0x0000000008002320                Vector168
                0x0000000008002320                NMI_Handler
                0x0000000008002320                Vector110
                0x0000000008002320                VectorC8
                0x0000000008002320                Vector94
                0x0000000008002320                VectorA8
                0x0000000008002320                VectorB4
                0x0000000008002320                Vector1B0
                0x0000000008002320                UsageFault_Handler
                0x0000000008002320                VectorEC
                0x0000000008002320                Vector40
                0x0000000008002320                VectorF8
                0x0000000008002320                Vector108
                0x0000000008002320                Vector190
                0x0000000008002320                Vector148
                0x0000000008002320                Vector188
                0x0000000008002320                Vector198
                0x0000000008002320                Vector118
                0x0000000008002320                Vector64
                0x0000000008002320                VectorCC
                0x0000000008002320                Vector54
                0x0000000008002320                Vector98
                0x0000000008002320                Vector138
                0x0000000008002320                Vector24
                0x0000000008002320                Vector1AC
                0x0000000008002320                Vector178
                0x0000000008002320                Vector1A4
                0x0000000008002320                VectorD0
                0x0000000008002320                Vector1B4
                0x0000000008002320                Vector140
                0x0000000008002320                VectorE4
                0x0000000008002320                Vector134
                0x0000000008002320                VectorF0
                0x0000000008002320                Vector13C
                0x0000000008002320                Vector100
                0x0000000008002320                VectorE0
                0x0000000008002320                VectorF4
                0x0000000008002320                MemManage_Handler
                0x0000000008002320                VectorA0
                0x0000000008002320                VectorC4
                0x0000000008002320                Vector180
                0x0000000008002320                Vector90
                0x0000000008002320                Vector114
                0x0000000008002320                Vector60
                0x0000000008002320                Vector1C
                0x0000000008002320                Vector1BC
                0x0000000008002320                Vector17C
                0x0000000008002320                Vector48
                0x0000000008002320                Vector1A8
                0x0000000008002320                Vector16C
                0x0000000008002320                Vector4C
                0x0000000008002320                Vector144
                0x0000000008002320                Vector68
                0x0000000008002320                Vector170
                0x0000000008002320                Vector104
                0x0000000008002320                Vector184
                0x0000000008002320                Vector10C
                0x0000000008002320                Vector14C
                0x0000000008002320                BusFault_Handler
                0x0000000008002320                Vector50
                0x0000000008002320                Vector194
                0x0000000008002320                Vector44
                0x0000000008002320                Vector28
                0x0000000008002320                VectorB8
                0x0000000008002320                Vector34
                0x0000000008002320                VectorA4
                0x0000000008002320                Vector20
                0x0000000008002320                Vector18C
                0x0000000008002320                Vector174
 .text.i2c_lld_serve_tx_end_irq.11398.4374
                0x0000000008002330       0x50 /tmp/ccsDj3Fw.ltrans2.ltrans.o
 .text.uart_lld_serve_rx_end_irq.12164
                0x0000000008002380       0x90 /tmp/ccsDj3Fw.ltrans2.ltrans.o
                0x0000000008002380                uart_lld_serve_rx_end_irq.12164
 .text.uart_lld_serve_tx_end_irq.12160
                0x0000000008002410       0x60 /tmp/ccsDj3Fw.ltrans2.ltrans.o
                0x0000000008002410                uart_lld_serve_tx_end_irq.12160
 .text.gpsThread
                0x0000000008002470      0x3f0 /tmp/ccsDj3Fw.ltrans2.ltrans.o
                0x0000000008002470                gpsThread
 .text.VectorB0
                0x0000000008002860       0x90 /tmp/ccsDj3Fw.ltrans2.ltrans.o
                0x0000000008002860                VectorB0
 .text.chIQGetTimeout.4423
                0x00000000080028f0       0x50 /tmp/ccsDj3Fw.ltrans2.ltrans.o
 .text.gett.10196
                0x0000000008002940       0x10 /tmp/ccsDj3Fw.ltrans2.ltrans.o
                0x0000000008002940                gett.10196
 .text.get.10200
                0x0000000008002950       0x10 /tmp/ccsDj3Fw.ltrans2.ltrans.o
                0x0000000008002950                get.10200
 .text.chIQReadTimeout.4438
                0x0000000008002960       0x80 /tmp/ccsDj3Fw.ltrans2.ltrans.o
 .text.readt.10173
                0x00000000080029e0       0x10 /tmp/ccsDj3Fw.ltrans2.ltrans.o
                0x00000000080029e0                readt.10173
 .text.read.10180
                0x00000000080029f0       0x10 /tmp/ccsDj3Fw.ltrans2.ltrans.o
                0x00000000080029f0                read.10180
 .text.chOQPutTimeout.4453
                0x0000000008002a00       0x50 /tmp/ccsDj3Fw.ltrans2.ltrans.o
 .text.putt.10203
                0x0000000008002a50       0x10 /tmp/ccsDj3Fw.ltrans2.ltrans.o
                0x0000000008002a50                putt.10203
 .text.put.10208
                0x0000000008002a60       0x10 /tmp/ccsDj3Fw.ltrans2.ltrans.o
                0x0000000008002a60                put.10208
 .text.chOQWriteTimeout.4472
                0x0000000008002a70       0x80 /tmp/ccsDj3Fw.ltrans2.ltrans.o
 .text.writet.10185
                0x0000000008002af0       0x10 /tmp/ccsDj3Fw.ltrans2.ltrans.o
                0x0000000008002af0                writet.10185
 .text.write.10191
                0x0000000008002b00       0x10 /tmp/ccsDj3Fw.ltrans2.ltrans.o
                0x0000000008002b00                write.10191
 .text.sd_lld_start
                0x0000000008002b10       0xd0 /tmp/ccsDj3Fw.ltrans2.ltrans.o
                0x0000000008002b10                sd_lld_start
 .text.i2c_lld_start
                0x0000000008002be0      0x200 /tmp/ccsDj3Fw.ltrans2.ltrans.o
                0x0000000008002be0                i2c_lld_start
 .text.chThdSleep
                0x0000000008002de0       0x20 /tmp/ccsDj3Fw.ltrans2.ltrans.o
                0x0000000008002de0                chThdSleep
 .text.chThdSleepUntil
                0x0000000008002e00       0x20 /tmp/ccsDj3Fw.ltrans2.ltrans.o
                0x0000000008002e00                chThdSleepUntil
 .text.gpsRxErr.15793
                0x0000000008002e20       0x10 /tmp/ccsDj3Fw.ltrans3.ltrans.o
                0x0000000008002e20                gpsRxErr.15793
 .text.gpsRxEnd.15790
                0x0000000008002e30       0x10 /tmp/ccsDj3Fw.ltrans3.ltrans.o
                0x0000000008002e30                gpsRxEnd.15790
 .text.gpsTxC.15787
                0x0000000008002e40       0x10 /tmp/ccsDj3Fw.ltrans3.ltrans.o
                0x0000000008002e40                gpsTxC.15787
 .text.gpsTxbufEnd.15784
                0x0000000008002e50       0x10 /tmp/ccsDj3Fw.ltrans3.ltrans.o
                0x0000000008002e50                gpsTxbufEnd.15784
 .text.long_to_string_with_divisor.13048.4490
                0x0000000008002e60       0x50 /tmp/ccsDj3Fw.ltrans3.ltrans.o
 .text.chvprintf.constprop.41.4363
                0x0000000008002eb0      0x390 /tmp/ccsDj3Fw.ltrans3.ltrans.o
 .text.notify6.12010
                0x0000000008003240       0x10 /tmp/ccsDj3Fw.ltrans3.ltrans.o
                0x0000000008003240                notify6.12010
 .text.notify2.12013
                0x0000000008003250       0x10 /tmp/ccsDj3Fw.ltrans3.ltrans.o
                0x0000000008003250                notify2.12013
 .text.chSchWakeupS.constprop.39.4386
                0x0000000008003260       0x60 /tmp/ccsDj3Fw.ltrans3.ltrans.o
 .text.i2c_lld_serve_rx_end_irq.11402
                0x00000000080032c0       0x70 /tmp/ccsDj3Fw.ltrans3.ltrans.o
                0x00000000080032c0                i2c_lld_serve_rx_end_irq.11402
 .text.VectorD4
                0x0000000008003330       0x70 /tmp/ccsDj3Fw.ltrans3.ltrans.o
                0x0000000008003330                VectorD4
 .text.gpsRxChar.15814
                0x00000000080033a0       0x90 /tmp/ccsDj3Fw.ltrans3.ltrans.o
                0x00000000080033a0                gpsRxChar.15814
 .text.Vector164
                0x0000000008003430       0x30 /tmp/ccsDj3Fw.ltrans3.ltrans.o
                0x0000000008003430                Vector164
 .text.VectorC0
                0x0000000008003460       0x30 /tmp/ccsDj3Fw.ltrans3.ltrans.o
                0x0000000008003460                VectorC0
 .text.Vector160
                0x0000000008003490       0x20 /tmp/ccsDj3Fw.ltrans3.ltrans.o
                0x0000000008003490                Vector160
 .text.VectorBC
                0x00000000080034b0       0x20 /tmp/ccsDj3Fw.ltrans3.ltrans.o
                0x00000000080034b0                VectorBC
 .text.chSchGoSleepTimeoutS
                0x00000000080034d0       0xe0 /tmp/ccsDj3Fw.ltrans3.ltrans.o
                0x00000000080034d0                chSchGoSleepTimeoutS
 .text.chThdEnqueueTimeoutS
                0x00000000080035b0       0x30 /tmp/ccsDj3Fw.ltrans3.ltrans.o
                0x00000000080035b0                chThdEnqueueTimeoutS
 .text.chprintf.15800.constprop.1
                0x00000000080035e0       0x20 /tmp/ccsDj3Fw.ltrans3.ltrans.o
                0x00000000080035e0                chprintf.15800.constprop.1
 .text.chprintf.15417.constprop.5
                0x0000000008003600       0x20 /tmp/ccsDj3Fw.ltrans3.ltrans.o
                0x0000000008003600                chprintf.15417.constprop.5
 .text.chprintf.13297.constprop.14
                0x0000000008003620       0x20 /tmp/ccsDj3Fw.ltrans3.ltrans.o
                0x0000000008003620                chprintf.13297.constprop.14
 .text.I2CSensor_init
                0x0000000008003640       0x60 /tmp/ccsDj3Fw.ltrans3.ltrans.o
                0x0000000008003640                I2CSensor_init
 .text.chprintf.17021.constprop.40
                0x00000000080036a0       0x20 /tmp/ccsDj3Fw.ltrans3.ltrans.o
                0x00000000080036a0                chprintf.17021.constprop.40
 .text.chThdCreateStatic
                0x00000000080036c0       0x80 /tmp/ccsDj3Fw.ltrans3.ltrans.o
                0x00000000080036c0                chThdCreateStatic
 .text.chMtxUnlock
                0x0000000008003740       0x60 /tmp/ccsDj3Fw.ltrans3.ltrans.o
                0x0000000008003740                chMtxUnlock
 .text.chTMStartMeasurementX.constprop.33
                0x00000000080037a0       0x10 /tmp/ccsDj3Fw.ltrans3.ltrans.o
                0x00000000080037a0                chTMStartMeasurementX.constprop.33
 .text.sdObjectInit.constprop.28
                0x00000000080037b0       0x70 /tmp/ccsDj3Fw.ltrans3.ltrans.o
                0x00000000080037b0                sdObjectInit.constprop.28
 .text.uStrCpy.constprop.4
                0x0000000008003820       0x40 /tmp/ccsDj3Fw.ltrans3.ltrans.o
                0x0000000008003820                uStrCpy.constprop.4
 .text.uStrInsertChar.constprop.3
                0x0000000008003860       0x40 /tmp/ccsDj3Fw.ltrans3.ltrans.o
                0x0000000008003860                uStrInsertChar.constprop.3
 .text.uStrPrependChar
                0x00000000080038a0       0x30 /tmp/ccsDj3Fw.ltrans3.ltrans.o
                0x00000000080038a0                uStrPrependChar
 .text.boardInit
                0x00000000080038d0       0xf0 /tmp/ccsDj3Fw.ltrans3.ltrans.o
                0x00000000080038d0                boardInit
 .text.usart_stop.12171
                0x00000000080039c0       0x50 /tmp/ccsDj3Fw.ltrans3.ltrans.o
                0x00000000080039c0                usart_stop.12171
 .text.sensorThread
                0x0000000008003a10      0x600 /tmp/ccsDj3Fw.ltrans4.ltrans.o
                0x0000000008003a10                sensorThread
 .text.Reset_Handler
                0x0000000008004010      0x1c0 /tmp/ccsDj3Fw.ltrans4.ltrans.o
                0x0000000008004010                Reset_Handler
 .text.chThdExit
                0x00000000080041d0       0x50 /tmp/ccsDj3Fw.ltrans4.ltrans.o
                0x00000000080041d0                chThdExit
 .text.chSchDoReschedule
                0x0000000008004220       0x10 /tmp/ccsDj3Fw.ltrans4.ltrans.o
                0x0000000008004220                chSchDoReschedule
 .text.strcpy   0x0000000008004230       0xbc /usr/bin/../lib/gcc/arm-none-eabi/4.8.4/../../../../arm-none-eabi/lib/armv7e-m/fpu/libc.a(lib_a-strcpy.o)
                0x0000000008004230                strcpy
 *fill*         0x00000000080042ec        0x4 
 .text.strlen   0x00000000080042f0       0x60 /usr/bin/../lib/gcc/arm-none-eabi/4.8.4/../../../../arm-none-eabi/lib/armv7e-m/fpu/libc.a(lib_a-strlen.o)
                0x00000000080042f0                strlen
 .text.strncmp  0x0000000008004350       0xb4 /usr/bin/../lib/gcc/arm-none-eabi/4.8.4/../../../../arm-none-eabi/lib/armv7e-m/fpu/libc.a(lib_a-strncmp.o)
                0x0000000008004350                strncmp
 *(.rodata)
 *fill*         0x0000000008004404        0xc 
 .rodata        0x0000000008004410        0xc /tmp/ccsDj3Fw.ltrans0.ltrans.o
 *fill*         0x000000000800441c        0x4 
 .rodata        0x0000000008004420       0x18 /tmp/ccsDj3Fw.ltrans4.ltrans.o
 *(.rodata.*)
 *fill*         0x0000000008004438        0x8 
 .rodata.str1.4
                0x0000000008004440       0x7d /tmp/ccsDj3Fw.ltrans0.ltrans.o
                                         0x84 (size before relaxing)
 *fill*         0x00000000080044bd        0x3 
 .rodata.ch_debug
                0x00000000080044c0       0x18 /tmp/ccsDj3Fw.ltrans0.ltrans.o
 *fill*         0x00000000080044d8        0x8 
 .rodata._stm32_dma_streams
                0x00000000080044e0       0xc0 /tmp/ccsDj3Fw.ltrans0.ltrans.o
 .rodata.str1.4
                0x00000000080045a0        0x5 /tmp/ccsDj3Fw.ltrans1.ltrans.o
                                          0x8 (size before relaxing)
 *fill*         0x00000000080045a5        0xb 
 .rodata.vmt.10284
                0x00000000080045b0       0x20 /tmp/ccsDj3Fw.ltrans2.ltrans.o
                0x00000000080045b0                vmt.10284
 .rodata.str1.4
                0x00000000080045d0       0x23 /tmp/ccsDj3Fw.ltrans2.ltrans.o
                                         0x24 (size before relaxing)
 *fill*         0x00000000080045f3        0xd 
 .rodata.default_config.12051.4593
                0x0000000008004600        0xc /tmp/ccsDj3Fw.ltrans2.ltrans.o
 *fill*         0x000000000800460c        0x4 
 .rodata.str1.4
                0x0000000008004610       0x37 /tmp/ccsDj3Fw.ltrans3.ltrans.o
                                         0x50 (size before relaxing)
 *fill*         0x0000000008004647        0x9 
 .rodata.pow10.13099.4637
                0x0000000008004650       0x24 /tmp/ccsDj3Fw.ltrans3.ltrans.o
 *fill*         0x0000000008004674        0xc 
 .rodata.i2cfg.15495.4664
                0x0000000008004680        0xc /tmp/ccsDj3Fw.ltrans4.ltrans.o
 *fill*         0x000000000800468c        0x4 
 .rodata.str1.4
                0x0000000008004690       0x20 /tmp/ccsDj3Fw.ltrans4.ltrans.o
                                         0x38 (size before relaxing)
 .rodata.analogGrp.15490.4660
                0x00000000080046b0       0x28 /tmp/ccsDj3Fw.ltrans4.ltrans.o
 *(.glue_7t)
 .glue_7t       0x0000000000000000        0x0 linker stubs
 *(.glue_7)
 .glue_7        0x0000000000000000        0x0 linker stubs
 *(.gcc*)

.vfp11_veneer   0x00000000080046d8        0x0
 .vfp11_veneer  0x0000000000000000        0x0 linker stubs

.v4_bx          0x00000000080046d8        0x0
 .v4_bx         0x0000000000000000        0x0 linker stubs

.iplt           0x00000000080046d8        0x0
 .iplt          0x0000000000000000        0x0 build/obj/chcoreasm_v7m.o

.rel.dyn        0x00000000080046d8        0x0
 .rel.iplt      0x0000000000000000        0x0 build/obj/chcoreasm_v7m.o

.ARM.extab
 *(.ARM.extab* .gnu.linkonce.armextab.*)

.ARM.exidx      0x00000000080046d8        0x0
                0x00000000080046d8                PROVIDE (__exidx_start, .)
 *(.ARM.exidx* .gnu.linkonce.armexidx.*)
                0x00000000080046d8                PROVIDE (__exidx_end, .)

.eh_frame_hdr
 *(.eh_frame_hdr)

.eh_frame
 *(.eh_frame)

.textalign      0x00000000080046d8        0x0
                0x00000000080046d8                . = ALIGN (0x8)
                0x00000000080046d8                . = ALIGN (0x4)
                0x00000000080046d8                _etext = .
                0x00000000080046d8                _textdata = _etext

.stacks         0x0000000020000000      0x800
                0x0000000020000000                . = ALIGN (0x8)
                0x0000000020000000                __main_stack_base__ = .
                0x0000000020000400                . = (. + __main_stack_size__)
 *fill*         0x0000000020000000      0x400 
                0x0000000020000400                . = ALIGN (0x8)
                0x0000000020000400                __main_stack_end__ = .
                0x0000000020000400                __process_stack_base__ = .
                0x0000000020000400                __main_thread_stack_base__ = .
                0x0000000020000800                . = (. + __process_stack_size__)
 *fill*         0x0000000020000400      0x400 
                0x0000000020000800                . = ALIGN (0x8)
                0x0000000020000800                __process_stack_end__ = .
                0x0000000020000800                __main_thread_stack_end__ = .

.data           0x0000000020000800       0x2c load address 0x00000000080046d8
                0x0000000020000800                . = ALIGN (0x4)
                0x0000000020000800                PROVIDE (_data, .)
 *(.data)
 *(.data.*)
 .data.serCfg.17085.4823
                0x0000000020000800        0xc /tmp/ccsDj3Fw.ltrans0.ltrans.o
 .data.serGpsCfg.15886.4825
                0x000000002000080c       0x20 /tmp/ccsDj3Fw.ltrans0.ltrans.o
 *(.ramtext)
                0x000000002000082c                . = ALIGN (0x4)
                0x000000002000082c                PROVIDE (_edata, .)

.igot.plt       0x000000002000082c        0x0 load address 0x0000000008004704
 .igot.plt      0x0000000000000000        0x0 build/obj/chcoreasm_v7m.o

.bss            0x000000002000082c     0x2678
                0x000000002000082c                . = ALIGN (0x4)
                0x000000002000082c                PROVIDE (_bss_start, .)
 *(.bss)
 *(.bss.*)
 .bss.dma_streams_mask.10838
                0x000000002000082c        0x4 /tmp/ccsDj3Fw.ltrans0.ltrans.o
                0x000000002000082c                dma_streams_mask.10838
 .bss.nextmem.6820
                0x0000000020000830        0x4 /tmp/ccsDj3Fw.ltrans0.ltrans.o
                0x0000000020000830                nextmem.6820
 .bss.SD2       0x0000000020000834      0x458 /tmp/ccsDj3Fw.ltrans0.ltrans.o
                0x0000000020000834                SD2
 *fill*         0x0000000020000c8c        0x4 
 .bss._idle_thread_wa.4385.4931
                0x0000000020000c90      0x160 /tmp/ccsDj3Fw.ltrans0.ltrans.o
 .bss.dummytx.11757.4819
                0x0000000020000df0        0x2 /tmp/ccsDj3Fw.ltrans0.ltrans.o
 *fill*         0x0000000020000df2        0x2 
 .bss.mainthread.6320.4386.4826
                0x0000000020000df4       0x44 /tmp/ccsDj3Fw.ltrans0.ltrans.o
 .bss.GPS.15887
                0x0000000020000e38      0x140 /tmp/ccsDj3Fw.ltrans0.ltrans.o
                0x0000000020000e38                GPS.15887
 .bss.waGps.17089.4843
                0x0000000020000f78      0x658 /tmp/ccsDj3Fw.ltrans0.ltrans.o
 .bss.dma_isr_redir.10833
                0x00000000200015d0       0x80 /tmp/ccsDj3Fw.ltrans0.ltrans.o
                0x00000000200015d0                dma_isr_redir.10833
 .bss.default_heap.6947.4932
                0x0000000020001650       0x20 /tmp/ccsDj3Fw.ltrans0.ltrans.o
 .bss.SPID3.4827
                0x0000000020001670       0x30 /tmp/ccsDj3Fw.ltrans0.ltrans.o
 .bss.sensCount.13794.4821
                0x00000000200016a0        0x1 /tmp/ccsDj3Fw.ltrans0.ltrans.o
 *fill*         0x00000000200016a1        0x7 
 .bss.waSensor.17088.4845
                0x00000000200016a8     0x1150 /tmp/ccsDj3Fw.ltrans0.ltrans.o
 .bss.UARTD1    0x00000000200027f8       0x1c /tmp/ccsDj3Fw.ltrans0.ltrans.o
                0x00000000200027f8                UARTD1
 .bss.endmem.6822
                0x0000000020002814        0x4 /tmp/ccsDj3Fw.ltrans0.ltrans.o
                0x0000000020002814                endmem.6822
 .bss.errors.13409.4820
                0x0000000020002818        0x4 /tmp/ccsDj3Fw.ltrans0.ltrans.o
 .bss.tokBuf.15888
                0x000000002000281c       0x14 /tmp/ccsDj3Fw.ltrans2.ltrans.o
                0x000000002000281c                tokBuf.15888
 .bss.gpsSem    0x0000000020002830        0xc /tmp/ccsDj3Fw.ltrans2.ltrans.o
                0x0000000020002830                gpsSem
 .bss.sensCount.13591.4654
                0x000000002000283c        0x1 /tmp/ccsDj3Fw.ltrans4.ltrans.o
 .bss.sensCount.14734.4657
                0x000000002000283d        0x1 /tmp/ccsDj3Fw.ltrans4.ltrans.o
 *fill*         0x000000002000283e        0x2 
 .bss.DEBUG.15496.4658
                0x0000000020002840        0x4 /tmp/ccsDj3Fw.ltrans4.ltrans.o
 .bss.sensCount.13980.4655
                0x0000000020002844        0x1 /tmp/ccsDj3Fw.ltrans4.ltrans.o
 .bss.sensCount.14332.4656
                0x0000000020002845        0x1 /tmp/ccsDj3Fw.ltrans4.ltrans.o
 *fill*         0x0000000020002846        0x2 
 .bss.SD6       0x0000000020002848      0x458 /tmp/ccsDj3Fw.ltrans4.ltrans.o
                0x0000000020002848                SD6
 .bss.ADCD1     0x0000000020002ca0       0x34 /tmp/ccsDj3Fw.ltrans4.ltrans.o
                0x0000000020002ca0                ADCD1
 .bss.analogSamples.15491.4661
                0x0000000020002cd4      0x12c /tmp/ccsDj3Fw.ltrans4.ltrans.o
 .bss.ch        0x0000000020002e00       0x34 /tmp/ccsDj3Fw.ltrans4.ltrans.o
                0x0000000020002e00                ch
 .bss.I2CD1     0x0000000020002e34       0x38 /tmp/ccsDj3Fw.ltrans4.ltrans.o
                0x0000000020002e34                I2CD1
 .bss.I2CD3     0x0000000020002e6c       0x38 /tmp/ccsDj3Fw.ltrans4.ltrans.o
                0x0000000020002e6c                I2CD3
 *(COMMON)
                0x0000000020002ea4                . = ALIGN (0x4)
                0x0000000020002ea4                PROVIDE (_bss_end, .)
                0x0000000020002ea4                PROVIDE (end, .)
                0x0000000020002ea4                _end = .
                0x0000000020002ea4                __heap_base__ = _end
                0x0000000020010000                __heap_end__ = __ram_end__
                0x0000000000000400                __process_stack_size__ = 0x400
                0x0000000000000400                __main_stack_size__ = 0x400
START GROUP
LOAD /usr/bin/../lib/gcc/arm-none-eabi/4.8.4/armv7e-m/fpu/libgcc.a
LOAD /usr/bin/../lib/gcc/arm-none-eabi/4.8.4/../../../../arm-none-eabi/lib/armv7e-m/fpu/libc.a
END GROUP
OUTPUT(build/stribog.elf elf32-littlearm)

.ARM.attributes
                0x0000000000000000       0x35
 .ARM.attributes
                0x0000000000000000       0x25 build/obj/chcoreasm_v7m.o
 .ARM.attributes
                0x0000000000000025       0x37 /tmp/ccsDj3Fw.ltrans0.ltrans.o
 .ARM.attributes
                0x000000000000005c       0x37 /tmp/ccsDj3Fw.ltrans1.ltrans.o
 .ARM.attributes
                0x0000000000000093       0x37 /tmp/ccsDj3Fw.ltrans2.ltrans.o
 .ARM.attributes
                0x00000000000000ca       0x37 /tmp/ccsDj3Fw.ltrans3.ltrans.o
 .ARM.attributes
                0x0000000000000101       0x37 /tmp/ccsDj3Fw.ltrans4.ltrans.o
 .ARM.attributes
                0x0000000000000138       0x22 /usr/bin/../lib/gcc/arm-none-eabi/4.8.4/armv7e-m/fpu/libgcc.a(_arm_addsubdf3.o)
 .ARM.attributes
                0x000000000000015a       0x22 /usr/bin/../lib/gcc/arm-none-eabi/4.8.4/armv7e-m/fpu/libgcc.a(_arm_muldivdf3.o)
 .ARM.attributes
                0x000000000000017c       0x22 /usr/bin/../lib/gcc/arm-none-eabi/4.8.4/armv7e-m/fpu/libgcc.a(_arm_fixdfsi.o)
 .ARM.attributes
                0x000000000000019e       0x22 /usr/bin/../lib/gcc/arm-none-eabi/4.8.4/armv7e-m/fpu/libgcc.a(_arm_truncdfsf2.o)
 .ARM.attributes
                0x00000000000001c0       0x34 /usr/bin/../lib/gcc/arm-none-eabi/4.8.4/../../../../arm-none-eabi/lib/armv7e-m/fpu/libc.a(lib_a-strcpy.o)
 .ARM.attributes
                0x00000000000001f4       0x34 /usr/bin/../lib/gcc/arm-none-eabi/4.8.4/../../../../arm-none-eabi/lib/armv7e-m/fpu/libc.a(lib_a-strlen.o)
 .ARM.attributes
                0x0000000000000228       0x34 /usr/bin/../lib/gcc/arm-none-eabi/4.8.4/../../../../arm-none-eabi/lib/armv7e-m/fpu/libc.a(lib_a-strncmp.o)

.comment        0x0000000000000000       0x70
 .comment       0x0000000000000000       0x70 /tmp/ccsDj3Fw.ltrans0.ltrans.o
                                         0x71 (size before relaxing)
 .comment       0x0000000000000000       0x71 /tmp/ccsDj3Fw.ltrans1.ltrans.o
 .comment       0x0000000000000000       0x71 /tmp/ccsDj3Fw.ltrans2.ltrans.o
 .comment       0x0000000000000000       0x71 /tmp/ccsDj3Fw.ltrans3.ltrans.o
 .comment       0x0000000000000000       0x71 /tmp/ccsDj3Fw.ltrans4.ltrans.o

.debug_frame    0x0000000000000000       0x68
 .debug_frame   0x0000000000000000       0x20 /usr/bin/../lib/gcc/arm-none-eabi/4.8.4/../../../../arm-none-eabi/lib/armv7e-m/fpu/libc.a(lib_a-strcpy.o)
 .debug_frame   0x0000000000000020       0x20 /usr/bin/../lib/gcc/arm-none-eabi/4.8.4/../../../../arm-none-eabi/lib/armv7e-m/fpu/libc.a(lib_a-strlen.o)
 .debug_frame   0x0000000000000040       0x28 /usr/bin/../lib/gcc/arm-none-eabi/4.8.4/../../../../arm-none-eabi/lib/armv7e-m/fpu/libc.a(lib_a-strncmp.o)

Cross Reference Table

Symbol                                            File
ADCD1                                             /tmp/ccsDj3Fw.ltrans4.ltrans.o
                                                  /tmp/ccsDj3Fw.ltrans1.ltrans.o
                                                  /tmp/ccsDj3Fw.ltrans0.ltrans.o
BusFault_Handler                                  /tmp/ccsDj3Fw.ltrans1.ltrans.o
                                                  /tmp/ccsDj3Fw.ltrans4.ltrans.o
DebugMon_Handler                                  /tmp/ccsDj3Fw.ltrans1.ltrans.o
                                                  /tmp/ccsDj3Fw.ltrans4.ltrans.o
GPS.15887                                         /tmp/ccsDj3Fw.ltrans0.ltrans.o
                                                  /tmp/ccsDj3Fw.ltrans3.ltrans.o
                                                  /tmp/ccsDj3Fw.ltrans2.ltrans.o
HardFault_Handler                                 /tmp/ccsDj3Fw.ltrans1.ltrans.o
                                                  /tmp/ccsDj3Fw.ltrans4.ltrans.o
I2CD1                                             /tmp/ccsDj3Fw.ltrans4.ltrans.o
                                                  /tmp/ccsDj3Fw.ltrans3.ltrans.o
                                                  /tmp/ccsDj3Fw.ltrans2.ltrans.o
                                                  /tmp/ccsDj3Fw.ltrans0.ltrans.o
I2CD3                                             /tmp/ccsDj3Fw.ltrans4.ltrans.o
                                                  /tmp/ccsDj3Fw.ltrans3.ltrans.o
                                                  /tmp/ccsDj3Fw.ltrans2.ltrans.o
                                                  /tmp/ccsDj3Fw.ltrans0.ltrans.o
I2CSensor_init                                    /tmp/ccsDj3Fw.ltrans3.ltrans.o
                                                  /tmp/ccsDj3Fw.ltrans4.ltrans.o
                                                  /tmp/ccsDj3Fw.ltrans0.ltrans.o
I2CSensor_transact                                /tmp/ccsDj3Fw.ltrans0.ltrans.o
                                                  /tmp/ccsDj3Fw.ltrans4.ltrans.o
I2CSensor_transact_buf                            /tmp/ccsDj3Fw.ltrans0.ltrans.o
                                                  /tmp/ccsDj3Fw.ltrans4.ltrans.o
MemManage_Handler                                 /tmp/ccsDj3Fw.ltrans1.ltrans.o
                                                  /tmp/ccsDj3Fw.ltrans4.ltrans.o
NMI_Handler                                       /tmp/ccsDj3Fw.ltrans1.ltrans.o
                                                  /tmp/ccsDj3Fw.ltrans4.ltrans.o
PendSV_Handler                                    /tmp/ccsDj3Fw.ltrans1.ltrans.o
                                                  /tmp/ccsDj3Fw.ltrans4.ltrans.o
Reset_Handler                                     /tmp/ccsDj3Fw.ltrans4.ltrans.o
SD2                                               /tmp/ccsDj3Fw.ltrans0.ltrans.o
                                                  /tmp/ccsDj3Fw.ltrans2.ltrans.o
SD6                                               /tmp/ccsDj3Fw.ltrans4.ltrans.o
                                                  /tmp/ccsDj3Fw.ltrans3.ltrans.o
                                                  /tmp/ccsDj3Fw.ltrans2.ltrans.o
                                                  /tmp/ccsDj3Fw.ltrans0.ltrans.o
SVC_Handler                                       /tmp/ccsDj3Fw.ltrans1.ltrans.o
                                                  /tmp/ccsDj3Fw.ltrans4.ltrans.o
SysTick_Handler                                   /tmp/ccsDj3Fw.ltrans1.ltrans.o
                                                  /tmp/ccsDj3Fw.ltrans4.ltrans.o
UARTD1                                            /tmp/ccsDj3Fw.ltrans0.ltrans.o
                                                  /tmp/ccsDj3Fw.ltrans3.ltrans.o
                                                  /tmp/ccsDj3Fw.ltrans2.ltrans.o
UsageFault_Handler                                /tmp/ccsDj3Fw.ltrans1.ltrans.o
                                                  /tmp/ccsDj3Fw.ltrans4.ltrans.o
Vector100                                         /tmp/ccsDj3Fw.ltrans1.ltrans.o
                                                  /tmp/ccsDj3Fw.ltrans4.ltrans.o
Vector104                                         /tmp/ccsDj3Fw.ltrans1.ltrans.o
                                                  /tmp/ccsDj3Fw.ltrans4.ltrans.o
Vector108                                         /tmp/ccsDj3Fw.ltrans1.ltrans.o
                                                  /tmp/ccsDj3Fw.ltrans4.ltrans.o
Vector10C                                         /tmp/ccsDj3Fw.ltrans1.ltrans.o
                                                  /tmp/ccsDj3Fw.ltrans4.ltrans.o
Vector110                                         /tmp/ccsDj3Fw.ltrans1.ltrans.o
                                                  /tmp/ccsDj3Fw.ltrans4.ltrans.o
Vector114                                         /tmp/ccsDj3Fw.ltrans1.ltrans.o
                                                  /tmp/ccsDj3Fw.ltrans4.ltrans.o
Vector118                                         /tmp/ccsDj3Fw.ltrans1.ltrans.o
                                                  /tmp/ccsDj3Fw.ltrans4.ltrans.o
Vector11C                                         /tmp/ccsDj3Fw.ltrans1.ltrans.o
                                                  /tmp/ccsDj3Fw.ltrans4.ltrans.o
Vector120                                         /tmp/ccsDj3Fw.ltrans1.ltrans.o
                                                  /tmp/ccsDj3Fw.ltrans4.ltrans.o
Vector124                                         /tmp/ccsDj3Fw.ltrans1.ltrans.o
                                                  /tmp/ccsDj3Fw.ltrans4.ltrans.o
Vector128                                         /tmp/ccsDj3Fw.ltrans1.ltrans.o
                                                  /tmp/ccsDj3Fw.ltrans4.ltrans.o
Vector12C                                         /tmp/ccsDj3Fw.ltrans1.ltrans.o
                                                  /tmp/ccsDj3Fw.ltrans4.ltrans.o
Vector130                                         /tmp/ccsDj3Fw.ltrans1.ltrans.o
                                                  /tmp/ccsDj3Fw.ltrans4.ltrans.o
Vector134                                         /tmp/ccsDj3Fw.ltrans1.ltrans.o
                                                  /tmp/ccsDj3Fw.ltrans4.ltrans.o
Vector138                                         /tmp/ccsDj3Fw.ltrans1.ltrans.o
                                                  /tmp/ccsDj3Fw.ltrans4.ltrans.o
Vector13C                                         /tmp/ccsDj3Fw.ltrans1.ltrans.o
                                                  /tmp/ccsDj3Fw.ltrans4.ltrans.o
Vector140                                         /tmp/ccsDj3Fw.ltrans1.ltrans.o
                                                  /tmp/ccsDj3Fw.ltrans4.ltrans.o
Vector144                                         /tmp/ccsDj3Fw.ltrans1.ltrans.o
                                                  /tmp/ccsDj3Fw.ltrans4.ltrans.o
Vector148                                         /tmp/ccsDj3Fw.ltrans1.ltrans.o
                                                  /tmp/ccsDj3Fw.ltrans4.ltrans.o
Vector14C                                         /tmp/ccsDj3Fw.ltrans1.ltrans.o
                                                  /tmp/ccsDj3Fw.ltrans4.ltrans.o
Vector150                                         /tmp/ccsDj3Fw.ltrans1.ltrans.o
                                                  /tmp/ccsDj3Fw.ltrans4.ltrans.o
Vector154                                         /tmp/ccsDj3Fw.ltrans1.ltrans.o
                                                  /tmp/ccsDj3Fw.ltrans4.ltrans.o
Vector158                                         /tmp/ccsDj3Fw.ltrans1.ltrans.o
                                                  /tmp/ccsDj3Fw.ltrans4.ltrans.o
Vector15C                                         /tmp/ccsDj3Fw.ltrans0.ltrans.o
                                                  /tmp/ccsDj3Fw.ltrans4.ltrans.o
Vector160                                         /tmp/ccsDj3Fw.ltrans3.ltrans.o
                                                  /tmp/ccsDj3Fw.ltrans4.ltrans.o
Vector164                                         /tmp/ccsDj3Fw.ltrans3.ltrans.o
                                                  /tmp/ccsDj3Fw.ltrans4.ltrans.o
Vector168                                         /tmp/ccsDj3Fw.ltrans1.ltrans.o
                                                  /tmp/ccsDj3Fw.ltrans4.ltrans.o
Vector16C                                         /tmp/ccsDj3Fw.ltrans1.ltrans.o
                                                  /tmp/ccsDj3Fw.ltrans4.ltrans.o
Vector170                                         /tmp/ccsDj3Fw.ltrans1.ltrans.o
                                                  /tmp/ccsDj3Fw.ltrans4.ltrans.o
Vector174                                         /tmp/ccsDj3Fw.ltrans1.ltrans.o
                                                  /tmp/ccsDj3Fw.ltrans4.ltrans.o
Vector178                                         /tmp/ccsDj3Fw.ltrans1.ltrans.o
                                                  /tmp/ccsDj3Fw.ltrans4.ltrans.o
Vector17C                                         /tmp/ccsDj3Fw.ltrans1.ltrans.o
                                                  /tmp/ccsDj3Fw.ltrans4.ltrans.o
Vector180                                         /tmp/ccsDj3Fw.ltrans1.ltrans.o
                                                  /tmp/ccsDj3Fw.ltrans4.ltrans.o
Vector184                                         /tmp/ccsDj3Fw.ltrans1.ltrans.o
                                                  /tmp/ccsDj3Fw.ltrans4.ltrans.o
Vector188                                         /tmp/ccsDj3Fw.ltrans1.ltrans.o
                                                  /tmp/ccsDj3Fw.ltrans4.ltrans.o
Vector18C                                         /tmp/ccsDj3Fw.ltrans1.ltrans.o
                                                  /tmp/ccsDj3Fw.ltrans4.ltrans.o
Vector190                                         /tmp/ccsDj3Fw.ltrans1.ltrans.o
                                                  /tmp/ccsDj3Fw.ltrans4.ltrans.o
Vector194                                         /tmp/ccsDj3Fw.ltrans1.ltrans.o
                                                  /tmp/ccsDj3Fw.ltrans4.ltrans.o
Vector198                                         /tmp/ccsDj3Fw.ltrans1.ltrans.o
                                                  /tmp/ccsDj3Fw.ltrans4.ltrans.o
Vector19C                                         /tmp/ccsDj3Fw.ltrans1.ltrans.o
                                                  /tmp/ccsDj3Fw.ltrans4.ltrans.o
Vector1A0                                         /tmp/ccsDj3Fw.ltrans1.ltrans.o
                                                  /tmp/ccsDj3Fw.ltrans4.ltrans.o
Vector1A4                                         /tmp/ccsDj3Fw.ltrans1.ltrans.o
                                                  /tmp/ccsDj3Fw.ltrans4.ltrans.o
Vector1A8                                         /tmp/ccsDj3Fw.ltrans1.ltrans.o
                                                  /tmp/ccsDj3Fw.ltrans4.ltrans.o
Vector1AC                                         /tmp/ccsDj3Fw.ltrans1.ltrans.o
                                                  /tmp/ccsDj3Fw.ltrans4.ltrans.o
Vector1B0                                         /tmp/ccsDj3Fw.ltrans1.ltrans.o
                                                  /tmp/ccsDj3Fw.ltrans4.ltrans.o
Vector1B4                                         /tmp/ccsDj3Fw.ltrans1.ltrans.o
                                                  /tmp/ccsDj3Fw.ltrans4.ltrans.o
Vector1B8                                         /tmp/ccsDj3Fw.ltrans1.ltrans.o
                                                  /tmp/ccsDj3Fw.ltrans4.ltrans.o
Vector1BC                                         /tmp/ccsDj3Fw.ltrans1.ltrans.o
                                                  /tmp/ccsDj3Fw.ltrans4.ltrans.o
Vector1C                                          /tmp/ccsDj3Fw.ltrans1.ltrans.o
                                                  /tmp/ccsDj3Fw.ltrans4.ltrans.o
Vector20                                          /tmp/ccsDj3Fw.ltrans1.ltrans.o
                                                  /tmp/ccsDj3Fw.ltrans4.ltrans.o
Vector24                                          /tmp/ccsDj3Fw.ltrans1.ltrans.o
                                                  /tmp/ccsDj3Fw.ltrans4.ltrans.o
Vector28                                          /tmp/ccsDj3Fw.ltrans1.ltrans.o
                                                  /tmp/ccsDj3Fw.ltrans4.ltrans.o
Vector34                                          /tmp/ccsDj3Fw.ltrans1.ltrans.o
                                                  /tmp/ccsDj3Fw.ltrans4.ltrans.o
Vector40                                          /tmp/ccsDj3Fw.ltrans1.ltrans.o
                                                  /tmp/ccsDj3Fw.ltrans4.ltrans.o
Vector44                                          /tmp/ccsDj3Fw.ltrans1.ltrans.o
                                                  /tmp/ccsDj3Fw.ltrans4.ltrans.o
Vector48                                          /tmp/ccsDj3Fw.ltrans1.ltrans.o
                                                  /tmp/ccsDj3Fw.ltrans4.ltrans.o
Vector4C                                          /tmp/ccsDj3Fw.ltrans1.ltrans.o
                                                  /tmp/ccsDj3Fw.ltrans4.ltrans.o
Vector50                                          /tmp/ccsDj3Fw.ltrans1.ltrans.o
                                                  /tmp/ccsDj3Fw.ltrans4.ltrans.o
Vector54                                          /tmp/ccsDj3Fw.ltrans1.ltrans.o
                                                  /tmp/ccsDj3Fw.ltrans4.ltrans.o
Vector58                                          /tmp/ccsDj3Fw.ltrans1.ltrans.o
                                                  /tmp/ccsDj3Fw.ltrans4.ltrans.o
Vector5C                                          /tmp/ccsDj3Fw.ltrans1.ltrans.o
                                                  /tmp/ccsDj3Fw.ltrans4.ltrans.o
Vector60                                          /tmp/ccsDj3Fw.ltrans1.ltrans.o
                                                  /tmp/ccsDj3Fw.ltrans4.ltrans.o
Vector64                                          /tmp/ccsDj3Fw.ltrans1.ltrans.o
                                                  /tmp/ccsDj3Fw.ltrans4.ltrans.o
Vector68                                          /tmp/ccsDj3Fw.ltrans1.ltrans.o
                                                  /tmp/ccsDj3Fw.ltrans4.ltrans.o
Vector6C                                          /tmp/ccsDj3Fw.ltrans1.ltrans.o
                                                  /tmp/ccsDj3Fw.ltrans4.ltrans.o
Vector70                                          /tmp/ccsDj3Fw.ltrans1.ltrans.o
                                                  /tmp/ccsDj3Fw.ltrans4.ltrans.o
Vector74                                          /tmp/ccsDj3Fw.ltrans1.ltrans.o
                                                  /tmp/ccsDj3Fw.ltrans4.ltrans.o
Vector78                                          /tmp/ccsDj3Fw.ltrans1.ltrans.o
                                                  /tmp/ccsDj3Fw.ltrans4.ltrans.o
Vector7C                                          /tmp/ccsDj3Fw.ltrans1.ltrans.o
                                                  /tmp/ccsDj3Fw.ltrans4.ltrans.o
Vector80                                          /tmp/ccsDj3Fw.ltrans1.ltrans.o
                                                  /tmp/ccsDj3Fw.ltrans4.ltrans.o
Vector84                                          /tmp/ccsDj3Fw.ltrans1.ltrans.o
                                                  /tmp/ccsDj3Fw.ltrans4.ltrans.o
Vector88                                          /tmp/ccsDj3Fw.ltrans1.ltrans.o
                                                  /tmp/ccsDj3Fw.ltrans4.ltrans.o
Vector8C                                          /tmp/ccsDj3Fw.ltrans1.ltrans.o
                                                  /tmp/ccsDj3Fw.ltrans4.ltrans.o
Vector90                                          /tmp/ccsDj3Fw.ltrans1.ltrans.o
                                                  /tmp/ccsDj3Fw.ltrans4.ltrans.o
Vector94                                          /tmp/ccsDj3Fw.ltrans1.ltrans.o
                                                  /tmp/ccsDj3Fw.ltrans4.ltrans.o
Vector98                                          /tmp/ccsDj3Fw.ltrans1.ltrans.o
                                                  /tmp/ccsDj3Fw.ltrans4.ltrans.o
Vector9C                                          /tmp/ccsDj3Fw.ltrans1.ltrans.o
                                                  /tmp/ccsDj3Fw.ltrans4.ltrans.o
VectorA0                                          /tmp/ccsDj3Fw.ltrans1.ltrans.o
                                                  /tmp/ccsDj3Fw.ltrans4.ltrans.o
VectorA4                                          /tmp/ccsDj3Fw.ltrans1.ltrans.o
                                                  /tmp/ccsDj3Fw.ltrans4.ltrans.o
VectorA8                                          /tmp/ccsDj3Fw.ltrans1.ltrans.o
                                                  /tmp/ccsDj3Fw.ltrans4.ltrans.o
VectorAC                                          /tmp/ccsDj3Fw.ltrans1.ltrans.o
                                                  /tmp/ccsDj3Fw.ltrans4.ltrans.o
VectorB0                                          /tmp/ccsDj3Fw.ltrans2.ltrans.o
                                                  /tmp/ccsDj3Fw.ltrans4.ltrans.o
VectorB4                                          /tmp/ccsDj3Fw.ltrans1.ltrans.o
                                                  /tmp/ccsDj3Fw.ltrans4.ltrans.o
VectorB8                                          /tmp/ccsDj3Fw.ltrans1.ltrans.o
                                                  /tmp/ccsDj3Fw.ltrans4.ltrans.o
VectorBC                                          /tmp/ccsDj3Fw.ltrans3.ltrans.o
                                                  /tmp/ccsDj3Fw.ltrans4.ltrans.o
VectorC0                                          /tmp/ccsDj3Fw.ltrans3.ltrans.o
                                                  /tmp/ccsDj3Fw.ltrans4.ltrans.o
VectorC4                                          /tmp/ccsDj3Fw.ltrans1.ltrans.o
                                                  /tmp/ccsDj3Fw.ltrans4.ltrans.o
VectorC8                                          /tmp/ccsDj3Fw.ltrans1.ltrans.o
                                                  /tmp/ccsDj3Fw.ltrans4.ltrans.o
VectorCC                                          /tmp/ccsDj3Fw.ltrans1.ltrans.o
                                                  /tmp/ccsDj3Fw.ltrans4.ltrans.o
VectorD0                                          /tmp/ccsDj3Fw.ltrans1.ltrans.o
                                                  /tmp/ccsDj3Fw.ltrans4.ltrans.o
VectorD4                                          /tmp/ccsDj3Fw.ltrans3.ltrans.o
                                                  /tmp/ccsDj3Fw.ltrans4.ltrans.o
VectorD8                                          /tmp/ccsDj3Fw.ltrans0.ltrans.o
                                                  /tmp/ccsDj3Fw.ltrans4.ltrans.o
VectorDC                                          /tmp/ccsDj3Fw.ltrans1.ltrans.o
                                                  /tmp/ccsDj3Fw.ltrans4.ltrans.o
VectorE0                                          /tmp/ccsDj3Fw.ltrans1.ltrans.o
                                                  /tmp/ccsDj3Fw.ltrans4.ltrans.o
VectorE4                                          /tmp/ccsDj3Fw.ltrans1.ltrans.o
                                                  /tmp/ccsDj3Fw.ltrans4.ltrans.o
VectorE8                                          /tmp/ccsDj3Fw.ltrans1.ltrans.o
                                                  /tmp/ccsDj3Fw.ltrans4.ltrans.o
VectorEC                                          /tmp/ccsDj3Fw.ltrans1.ltrans.o
                                                  /tmp/ccsDj3Fw.ltrans4.ltrans.o
VectorF0                                          /tmp/ccsDj3Fw.ltrans1.ltrans.o
                                                  /tmp/ccsDj3Fw.ltrans4.ltrans.o
VectorF4                                          /tmp/ccsDj3Fw.ltrans1.ltrans.o
                                                  /tmp/ccsDj3Fw.ltrans4.ltrans.o
VectorF8                                          /tmp/ccsDj3Fw.ltrans1.ltrans.o
                                                  /tmp/ccsDj3Fw.ltrans4.ltrans.o
VectorFC                                          /tmp/ccsDj3Fw.ltrans1.ltrans.o
                                                  /tmp/ccsDj3Fw.ltrans4.ltrans.o
__adddf3                                          /usr/bin/../lib/gcc/arm-none-eabi/4.8.4/armv7e-m/fpu/libgcc.a(_arm_addsubdf3.o)
__aeabi_d2f                                       /usr/bin/../lib/gcc/arm-none-eabi/4.8.4/armv7e-m/fpu/libgcc.a(_arm_truncdfsf2.o)
                                                  /tmp/ccsDj3Fw.ltrans3.ltrans.o
__aeabi_d2iz                                      /usr/bin/../lib/gcc/arm-none-eabi/4.8.4/armv7e-m/fpu/libgcc.a(_arm_fixdfsi.o)
                                                  /tmp/ccsDj3Fw.ltrans3.ltrans.o
__aeabi_dadd                                      /usr/bin/../lib/gcc/arm-none-eabi/4.8.4/armv7e-m/fpu/libgcc.a(_arm_addsubdf3.o)
__aeabi_ddiv                                      /usr/bin/../lib/gcc/arm-none-eabi/4.8.4/armv7e-m/fpu/libgcc.a(_arm_muldivdf3.o)
__aeabi_dmul                                      /usr/bin/../lib/gcc/arm-none-eabi/4.8.4/armv7e-m/fpu/libgcc.a(_arm_muldivdf3.o)
                                                  /tmp/ccsDj3Fw.ltrans3.ltrans.o
__aeabi_drsub                                     /usr/bin/../lib/gcc/arm-none-eabi/4.8.4/armv7e-m/fpu/libgcc.a(_arm_addsubdf3.o)
__aeabi_dsub                                      /usr/bin/../lib/gcc/arm-none-eabi/4.8.4/armv7e-m/fpu/libgcc.a(_arm_addsubdf3.o)
                                                  /tmp/ccsDj3Fw.ltrans3.ltrans.o
__aeabi_f2d                                       /usr/bin/../lib/gcc/arm-none-eabi/4.8.4/armv7e-m/fpu/libgcc.a(_arm_addsubdf3.o)
                                                  /tmp/ccsDj3Fw.ltrans4.ltrans.o
                                                  /tmp/ccsDj3Fw.ltrans3.ltrans.o
__aeabi_i2d                                       /usr/bin/../lib/gcc/arm-none-eabi/4.8.4/armv7e-m/fpu/libgcc.a(_arm_addsubdf3.o)
                                                  /tmp/ccsDj3Fw.ltrans3.ltrans.o
__aeabi_l2d                                       /usr/bin/../lib/gcc/arm-none-eabi/4.8.4/armv7e-m/fpu/libgcc.a(_arm_addsubdf3.o)
__aeabi_ui2d                                      /usr/bin/../lib/gcc/arm-none-eabi/4.8.4/armv7e-m/fpu/libgcc.a(_arm_addsubdf3.o)
                                                  /tmp/ccsDj3Fw.ltrans3.ltrans.o
__aeabi_ul2d                                      /usr/bin/../lib/gcc/arm-none-eabi/4.8.4/armv7e-m/fpu/libgcc.a(_arm_addsubdf3.o)
__divdf3                                          /usr/bin/../lib/gcc/arm-none-eabi/4.8.4/armv7e-m/fpu/libgcc.a(_arm_muldivdf3.o)
__extendsfdf2                                     /usr/bin/../lib/gcc/arm-none-eabi/4.8.4/armv7e-m/fpu/libgcc.a(_arm_addsubdf3.o)
__fixdfsi                                         /usr/bin/../lib/gcc/arm-none-eabi/4.8.4/armv7e-m/fpu/libgcc.a(_arm_fixdfsi.o)
__floatdidf                                       /usr/bin/../lib/gcc/arm-none-eabi/4.8.4/armv7e-m/fpu/libgcc.a(_arm_addsubdf3.o)
__floatsidf                                       /usr/bin/../lib/gcc/arm-none-eabi/4.8.4/armv7e-m/fpu/libgcc.a(_arm_addsubdf3.o)
__floatundidf                                     /usr/bin/../lib/gcc/arm-none-eabi/4.8.4/armv7e-m/fpu/libgcc.a(_arm_addsubdf3.o)
__floatunsidf                                     /usr/bin/../lib/gcc/arm-none-eabi/4.8.4/armv7e-m/fpu/libgcc.a(_arm_addsubdf3.o)
__heap_base__                                     /tmp/ccsDj3Fw.ltrans0.ltrans.o
__heap_end__                                      /tmp/ccsDj3Fw.ltrans0.ltrans.o
__init_array_end                                  /tmp/ccsDj3Fw.ltrans4.ltrans.o
__init_array_start                                /tmp/ccsDj3Fw.ltrans4.ltrans.o
__main_stack_base__                               /tmp/ccsDj3Fw.ltrans4.ltrans.o
__main_stack_end__                                /tmp/ccsDj3Fw.ltrans4.ltrans.o
__muldf3                                          /usr/bin/../lib/gcc/arm-none-eabi/4.8.4/armv7e-m/fpu/libgcc.a(_arm_muldivdf3.o)
__process_stack_base__                            /tmp/ccsDj3Fw.ltrans4.ltrans.o
__process_stack_end__                             /tmp/ccsDj3Fw.ltrans4.ltrans.o
__subdf3                                          /usr/bin/../lib/gcc/arm-none-eabi/4.8.4/armv7e-m/fpu/libgcc.a(_arm_addsubdf3.o)
__truncdfsf2                                      /usr/bin/../lib/gcc/arm-none-eabi/4.8.4/armv7e-m/fpu/libgcc.a(_arm_truncdfsf2.o)
_bss_end                                          /tmp/ccsDj3Fw.ltrans4.ltrans.o
_bss_start                                        /tmp/ccsDj3Fw.ltrans4.ltrans.o
_data                                             /tmp/ccsDj3Fw.ltrans4.ltrans.o
_edata                                            /tmp/ccsDj3Fw.ltrans4.ltrans.o
_idle_thread.4338                                 /tmp/ccsDj3Fw.ltrans1.ltrans.o
                                                  /tmp/ccsDj3Fw.ltrans0.ltrans.o
_pal_lld_setgroupmode                             /tmp/ccsDj3Fw.ltrans1.ltrans.o
                                                  /tmp/ccsDj3Fw.ltrans3.ltrans.o
_port_exit_from_isr                               build/obj/chcoreasm_v7m.o
                                                  /tmp/ccsDj3Fw.ltrans1.ltrans.o
_port_irq_epilogue                                /tmp/ccsDj3Fw.ltrans1.ltrans.o
                                                  /tmp/ccsDj3Fw.ltrans3.ltrans.o
                                                  /tmp/ccsDj3Fw.ltrans2.ltrans.o
                                                  /tmp/ccsDj3Fw.ltrans0.ltrans.o
_port_switch                                      build/obj/chcoreasm_v7m.o
                                                  /tmp/ccsDj3Fw.ltrans3.ltrans.o
                                                  /tmp/ccsDj3Fw.ltrans2.ltrans.o
                                                  /tmp/ccsDj3Fw.ltrans1.ltrans.o
_port_switch_from_isr                             build/obj/chcoreasm_v7m.o
                                                  /tmp/ccsDj3Fw.ltrans1.ltrans.o
_port_thread_start                                build/obj/chcoreasm_v7m.o
                                                  /tmp/ccsDj3Fw.ltrans3.ltrans.o
_textdata                                         /tmp/ccsDj3Fw.ltrans4.ltrans.o
_vectors                                          /tmp/ccsDj3Fw.ltrans4.ltrans.o
adc_lld_serve_rx_interrupt.11091                  /tmp/ccsDj3Fw.ltrans1.ltrans.o
                                                  /tmp/ccsDj3Fw.ltrans0.ltrans.o
boardInit                                         /tmp/ccsDj3Fw.ltrans3.ltrans.o
                                                  /tmp/ccsDj3Fw.ltrans0.ltrans.o
ch                                                /tmp/ccsDj3Fw.ltrans4.ltrans.o
                                                  /tmp/ccsDj3Fw.ltrans3.ltrans.o
                                                  /tmp/ccsDj3Fw.ltrans2.ltrans.o
                                                  /tmp/ccsDj3Fw.ltrans1.ltrans.o
                                                  /tmp/ccsDj3Fw.ltrans0.ltrans.o
chCoreAlloc                                       /tmp/ccsDj3Fw.ltrans1.ltrans.o
                                                  /tmp/ccsDj3Fw.ltrans0.ltrans.o
chEvtBroadcastFlagsI                              /tmp/ccsDj3Fw.ltrans1.ltrans.o
                                                  /tmp/ccsDj3Fw.ltrans0.ltrans.o
chMtxLockS                                        /tmp/ccsDj3Fw.ltrans1.ltrans.o
                                                  /tmp/ccsDj3Fw.ltrans2.ltrans.o
                                                  /tmp/ccsDj3Fw.ltrans0.ltrans.o
chMtxUnlock                                       /tmp/ccsDj3Fw.ltrans3.ltrans.o
                                                  /tmp/ccsDj3Fw.ltrans2.ltrans.o
                                                  /tmp/ccsDj3Fw.ltrans0.ltrans.o
chSchDoReschedule                                 /tmp/ccsDj3Fw.ltrans4.ltrans.o
                                                  build/obj/chcoreasm_v7m.o
chSchDoRescheduleAhead                            /tmp/ccsDj3Fw.ltrans1.ltrans.o
                                                  /tmp/ccsDj3Fw.ltrans4.ltrans.o
chSchGoSleepS                                     /tmp/ccsDj3Fw.ltrans1.ltrans.o
                                                  /tmp/ccsDj3Fw.ltrans4.ltrans.o
                                                  /tmp/ccsDj3Fw.ltrans3.ltrans.o
                                                  /tmp/ccsDj3Fw.ltrans2.ltrans.o
chSchGoSleepTimeoutS                              /tmp/ccsDj3Fw.ltrans3.ltrans.o
                                                  /tmp/ccsDj3Fw.ltrans2.ltrans.o
                                                  /tmp/ccsDj3Fw.ltrans0.ltrans.o
chSchReadyI                                       /tmp/ccsDj3Fw.ltrans1.ltrans.o
                                                  /tmp/ccsDj3Fw.ltrans4.ltrans.o
                                                  /tmp/ccsDj3Fw.ltrans3.ltrans.o
                                                  /tmp/ccsDj3Fw.ltrans2.ltrans.o
                                                  /tmp/ccsDj3Fw.ltrans0.ltrans.o
chSchRescheduleS                                  /tmp/ccsDj3Fw.ltrans1.ltrans.o
                                                  /tmp/ccsDj3Fw.ltrans3.ltrans.o
                                                  /tmp/ccsDj3Fw.ltrans2.ltrans.o
chTMStartMeasurementX.constprop.33                /tmp/ccsDj3Fw.ltrans3.ltrans.o
                                                  /tmp/ccsDj3Fw.ltrans0.ltrans.o
chTMStopMeasurementX                              /tmp/ccsDj3Fw.ltrans1.ltrans.o
                                                  /tmp/ccsDj3Fw.ltrans0.ltrans.o
chThdCreateStatic                                 /tmp/ccsDj3Fw.ltrans3.ltrans.o
                                                  /tmp/ccsDj3Fw.ltrans0.ltrans.o
chThdEnqueueTimeoutS                              /tmp/ccsDj3Fw.ltrans3.ltrans.o
                                                  /tmp/ccsDj3Fw.ltrans2.ltrans.o
chThdExit                                         /tmp/ccsDj3Fw.ltrans4.ltrans.o
                                                  build/obj/chcoreasm_v7m.o
chThdResumeI                                      /tmp/ccsDj3Fw.ltrans1.ltrans.o
                                                  /tmp/ccsDj3Fw.ltrans3.ltrans.o
chThdSleep                                        /tmp/ccsDj3Fw.ltrans2.ltrans.o
                                                  /tmp/ccsDj3Fw.ltrans4.ltrans.o
                                                  /tmp/ccsDj3Fw.ltrans0.ltrans.o
chThdSleepUntil                                   /tmp/ccsDj3Fw.ltrans2.ltrans.o
                                                  /tmp/ccsDj3Fw.ltrans4.ltrans.o
                                                  /tmp/ccsDj3Fw.ltrans0.ltrans.o
chprintf.13297.constprop.14                       /tmp/ccsDj3Fw.ltrans3.ltrans.o
                                                  /tmp/ccsDj3Fw.ltrans0.ltrans.o
chprintf.15417.constprop.5                        /tmp/ccsDj3Fw.ltrans3.ltrans.o
                                                  /tmp/ccsDj3Fw.ltrans4.ltrans.o
chprintf.15800.constprop.1                        /tmp/ccsDj3Fw.ltrans3.ltrans.o
                                                  /tmp/ccsDj3Fw.ltrans2.ltrans.o
chprintf.17021.constprop.40                       /tmp/ccsDj3Fw.ltrans3.ltrans.o
                                                  /tmp/ccsDj3Fw.ltrans0.ltrans.o
dmaStreamAllocate                                 /tmp/ccsDj3Fw.ltrans1.ltrans.o
                                                  /tmp/ccsDj3Fw.ltrans2.ltrans.o
                                                  /tmp/ccsDj3Fw.ltrans0.ltrans.o
dmaStreamRelease                                  /tmp/ccsDj3Fw.ltrans1.ltrans.o
                                                  /tmp/ccsDj3Fw.ltrans2.ltrans.o
dma_isr_redir.10833                               /tmp/ccsDj3Fw.ltrans0.ltrans.o
                                                  /tmp/ccsDj3Fw.ltrans1.ltrans.o
dma_streams_mask.10838                            /tmp/ccsDj3Fw.ltrans0.ltrans.o
                                                  /tmp/ccsDj3Fw.ltrans1.ltrans.o
endmem.6822                                       /tmp/ccsDj3Fw.ltrans0.ltrans.o
                                                  /tmp/ccsDj3Fw.ltrans1.ltrans.o
get.10200                                         /tmp/ccsDj3Fw.ltrans2.ltrans.o
gett.10196                                        /tmp/ccsDj3Fw.ltrans2.ltrans.o
gpsRxChar.15814                                   /tmp/ccsDj3Fw.ltrans3.ltrans.o
                                                  /tmp/ccsDj3Fw.ltrans0.ltrans.o
gpsRxEnd.15790                                    /tmp/ccsDj3Fw.ltrans3.ltrans.o
                                                  /tmp/ccsDj3Fw.ltrans0.ltrans.o
gpsRxErr.15793                                    /tmp/ccsDj3Fw.ltrans3.ltrans.o
                                                  /tmp/ccsDj3Fw.ltrans0.ltrans.o
gpsSem                                            /tmp/ccsDj3Fw.ltrans2.ltrans.o
                                                  /tmp/ccsDj3Fw.ltrans3.ltrans.o
gpsThread                                         /tmp/ccsDj3Fw.ltrans2.ltrans.o
                                                  /tmp/ccsDj3Fw.ltrans0.ltrans.o
gpsTxC.15787                                      /tmp/ccsDj3Fw.ltrans3.ltrans.o
                                                  /tmp/ccsDj3Fw.ltrans0.ltrans.o
gpsTxbufEnd.15784                                 /tmp/ccsDj3Fw.ltrans3.ltrans.o
                                                  /tmp/ccsDj3Fw.ltrans0.ltrans.o
i2c_lld_serve_error_interrupt.11412               /tmp/ccsDj3Fw.ltrans1.ltrans.o
                                                  /tmp/ccsDj3Fw.ltrans3.ltrans.o
i2c_lld_serve_event_interrupt.11409               /tmp/ccsDj3Fw.ltrans1.ltrans.o
                                                  /tmp/ccsDj3Fw.ltrans3.ltrans.o
i2c_lld_serve_rx_end_irq.11402                    /tmp/ccsDj3Fw.ltrans3.ltrans.o
                                                  /tmp/ccsDj3Fw.ltrans2.ltrans.o
i2c_lld_start                                     /tmp/ccsDj3Fw.ltrans2.ltrans.o
                                                  /tmp/ccsDj3Fw.ltrans4.ltrans.o
main                                              /tmp/ccsDj3Fw.ltrans0.ltrans.o
                                                  /tmp/ccsDj3Fw.ltrans4.ltrans.o
nextmem.6820                                      /tmp/ccsDj3Fw.ltrans0.ltrans.o
                                                  /tmp/ccsDj3Fw.ltrans1.ltrans.o
notify2.12013                                     /tmp/ccsDj3Fw.ltrans3.ltrans.o
                                                  /tmp/ccsDj3Fw.ltrans0.ltrans.o
notify6.12010                                     /tmp/ccsDj3Fw.ltrans3.ltrans.o
                                                  /tmp/ccsDj3Fw.ltrans0.ltrans.o
put.10208                                         /tmp/ccsDj3Fw.ltrans2.ltrans.o
putt.10203                                        /tmp/ccsDj3Fw.ltrans2.ltrans.o
read.10180                                        /tmp/ccsDj3Fw.ltrans2.ltrans.o
readt.10173                                       /tmp/ccsDj3Fw.ltrans2.ltrans.o
sdObjectInit.constprop.28                         /tmp/ccsDj3Fw.ltrans3.ltrans.o
                                                  /tmp/ccsDj3Fw.ltrans0.ltrans.o
sd_lld_start                                      /tmp/ccsDj3Fw.ltrans2.ltrans.o
                                                  /tmp/ccsDj3Fw.ltrans0.ltrans.o
sensorThread                                      /tmp/ccsDj3Fw.ltrans4.ltrans.o
                                                  /tmp/ccsDj3Fw.ltrans0.ltrans.o
si70x0_heaterEnable                               /tmp/ccsDj3Fw.ltrans0.ltrans.o
                                                  /tmp/ccsDj3Fw.ltrans4.ltrans.o
si70x0_init.constprop.11                          /tmp/ccsDj3Fw.ltrans0.ltrans.o
                                                  /tmp/ccsDj3Fw.ltrans4.ltrans.o
si70x0_readHumidity                               /tmp/ccsDj3Fw.ltrans0.ltrans.o
                                                  /tmp/ccsDj3Fw.ltrans4.ltrans.o
strcpy                                            /usr/bin/../lib/gcc/arm-none-eabi/4.8.4/../../../../arm-none-eabi/lib/armv7e-m/fpu/libc.a(lib_a-strcpy.o)
                                                  /tmp/ccsDj3Fw.ltrans0.ltrans.o
strlen                                            /usr/bin/../lib/gcc/arm-none-eabi/4.8.4/../../../../arm-none-eabi/lib/armv7e-m/fpu/libc.a(lib_a-strlen.o)
                                                  /tmp/ccsDj3Fw.ltrans2.ltrans.o
strncmp                                           /usr/bin/../lib/gcc/arm-none-eabi/4.8.4/../../../../arm-none-eabi/lib/armv7e-m/fpu/libc.a(lib_a-strncmp.o)
                                                  /tmp/ccsDj3Fw.ltrans2.ltrans.o
tokBuf.15888                                      /tmp/ccsDj3Fw.ltrans2.ltrans.o
                                                  /tmp/ccsDj3Fw.ltrans3.ltrans.o
uStrCpy.constprop.4                               /tmp/ccsDj3Fw.ltrans3.ltrans.o
                                                  /tmp/ccsDj3Fw.ltrans2.ltrans.o
uStrInsertChar.constprop.3                        /tmp/ccsDj3Fw.ltrans3.ltrans.o
                                                  /tmp/ccsDj3Fw.ltrans2.ltrans.o
uStrPrependChar                                   /tmp/ccsDj3Fw.ltrans3.ltrans.o
                                                  /tmp/ccsDj3Fw.ltrans2.ltrans.o
uart_lld_serve_rx_end_irq.12164                   /tmp/ccsDj3Fw.ltrans2.ltrans.o
                                                  /tmp/ccsDj3Fw.ltrans0.ltrans.o
uart_lld_serve_tx_end_irq.12160                   /tmp/ccsDj3Fw.ltrans2.ltrans.o
                                                  /tmp/ccsDj3Fw.ltrans0.ltrans.o
usart_stop.12171                                  /tmp/ccsDj3Fw.ltrans3.ltrans.o
                                                  /tmp/ccsDj3Fw.ltrans2.ltrans.o
                                                  /tmp/ccsDj3Fw.ltrans0.ltrans.o
vmt.10284                                         /tmp/ccsDj3Fw.ltrans2.ltrans.o
                                                  /tmp/ccsDj3Fw.ltrans3.ltrans.o
wakeup.4718                                       /tmp/ccsDj3Fw.ltrans1.ltrans.o
                                                  /tmp/ccsDj3Fw.ltrans3.ltrans.o
write.10191                                       /tmp/ccsDj3Fw.ltrans2.ltrans.o
writet.10185                                      /tmp/ccsDj3Fw.ltrans2.ltrans.o
