
build/stribog.elf:     file format elf32-littlearm


Disassembly of section .text:

080001c0 <main>:
 80001c0:	4bc7      	ldr	r3, [pc, #796]	; (80004e0 <__init_array_end+0x320>)
 80001c2:	48c8      	ldr	r0, [pc, #800]	; (80004e4 <__init_array_end+0x324>)
 80001c4:	691a      	ldr	r2, [r3, #16]
 80001c6:	f04f 31ff 	mov.w	r1, #4294967295	; 0xffffffff
 80001ca:	2200      	movs	r2, #0
 80001cc:	e92d 4880 	stmdb	sp!, {r7, fp, lr}
 80001d0:	6119      	str	r1, [r3, #16]
 80001d2:	611a      	str	r2, [r3, #16]
 80001d4:	695c      	ldr	r4, [r3, #20]
 80001d6:	6159      	str	r1, [r3, #20]
 80001d8:	615a      	str	r2, [r3, #20]
 80001da:	6a1c      	ldr	r4, [r3, #32]
 80001dc:	f064 5480 	orn	r4, r4, #268435456	; 0x10000000
 80001e0:	621c      	str	r4, [r3, #32]
 80001e2:	621a      	str	r2, [r3, #32]
 80001e4:	6a5c      	ldr	r4, [r3, #36]	; 0x24
 80001e6:	6259      	str	r1, [r3, #36]	; 0x24
 80001e8:	625a      	str	r2, [r3, #36]	; 0x24
 80001ea:	6c19      	ldr	r1, [r3, #64]	; 0x40
 80001ec:	f041 5180 	orr.w	r1, r1, #268435456	; 0x10000000
 80001f0:	6419      	str	r1, [r3, #64]	; 0x40
 80001f2:	6801      	ldr	r1, [r0, #0]
 80001f4:	f441 7180 	orr.w	r1, r1, #256	; 0x100
 80001f8:	6001      	str	r1, [r0, #0]
 80001fa:	6f19      	ldr	r1, [r3, #112]	; 0x70
 80001fc:	f401 7140 	and.w	r1, r1, #768	; 0x300
 8000200:	f5b1 7f00 	cmp.w	r1, #512	; 0x200
 8000204:	f5ad 7d05 	sub.w	sp, sp, #532	; 0x214
 8000208:	d003      	beq.n	8000212 <main+0x52>
 800020a:	f44f 3180 	mov.w	r1, #65536	; 0x10000
 800020e:	6719      	str	r1, [r3, #112]	; 0x70
 8000210:	671a      	str	r2, [r3, #112]	; 0x70
 8000212:	4ab4      	ldr	r2, [pc, #720]	; (80004e4 <__init_array_end+0x324>)
 8000214:	48b4      	ldr	r0, [pc, #720]	; (80004e8 <__init_array_end+0x328>)
 8000216:	6854      	ldr	r4, [r2, #4]
 8000218:	4eb4      	ldr	r6, [pc, #720]	; (80004ec <__init_array_end+0x32c>)
 800021a:	4db5      	ldr	r5, [pc, #724]	; (80004f0 <__init_array_end+0x330>)
 800021c:	2100      	movs	r1, #0
 800021e:	f424 7400 	bic.w	r4, r4, #512	; 0x200
 8000222:	6054      	str	r4, [r2, #4]
 8000224:	460b      	mov	r3, r1
 8000226:	460a      	mov	r2, r1
 8000228:	6001      	str	r1, [r0, #0]
 800022a:	58b0      	ldr	r0, [r6, r2]
 800022c:	4faf      	ldr	r7, [pc, #700]	; (80004ec <__init_array_end+0x32c>)
 800022e:	6001      	str	r1, [r0, #0]
 8000230:	320c      	adds	r2, #12
 8000232:	2ac0      	cmp	r2, #192	; 0xc0
 8000234:	50e9      	str	r1, [r5, r3]
 8000236:	f04f 0400 	mov.w	r4, #0
 800023a:	f103 0308 	add.w	r3, r3, #8
 800023e:	d1f4      	bne.n	800022a <main+0x6a>
 8000240:	f8df b304 	ldr.w	fp, [pc, #772]	; 8000548 <__init_array_end+0x388>
 8000244:	f8df a304 	ldr.w	sl, [pc, #772]	; 800054c <__init_array_end+0x38c>
 8000248:	f8df 8294 	ldr.w	r8, [pc, #660]	; 80004e0 <__init_array_end+0x320>
 800024c:	f8df 9300 	ldr.w	r9, [pc, #768]	; 8000550 <__init_array_end+0x390>
 8000250:	4aa8      	ldr	r2, [pc, #672]	; (80004f4 <__init_array_end+0x334>)
 8000252:	f8df c300 	ldr.w	ip, [pc, #768]	; 8000554 <__init_array_end+0x394>
 8000256:	f8df e300 	ldr.w	lr, [pc, #768]	; 8000558 <__init_array_end+0x398>
 800025a:	4da7      	ldr	r5, [pc, #668]	; (80004f8 <__init_array_end+0x338>)
 800025c:	48a7      	ldr	r0, [pc, #668]	; (80004fc <__init_array_end+0x33c>)
 800025e:	49a8      	ldr	r1, [pc, #672]	; (8000500 <__init_array_end+0x340>)
 8000260:	4ba8      	ldr	r3, [pc, #672]	; (8000504 <__init_array_end+0x344>)
 8000262:	f04f 36ff 	mov.w	r6, #4294967295	; 0xffffffff
 8000266:	f8cb 6008 	str.w	r6, [fp, #8]
 800026a:	f8cb 600c 	str.w	r6, [fp, #12]
 800026e:	f8ca 6008 	str.w	r6, [sl, #8]
 8000272:	f8ca 600c 	str.w	r6, [sl, #12]
 8000276:	f8d8 a030 	ldr.w	sl, [r8, #48]	; 0x30
 800027a:	f04a 0a1f 	orr.w	sl, sl, #31
 800027e:	f8c8 a030 	str.w	sl, [r8, #48]	; 0x30
 8000282:	f8d8 a050 	ldr.w	sl, [r8, #80]	; 0x50
 8000286:	f04a 0a1f 	orr.w	sl, sl, #31
 800028a:	f8c8 a050 	str.w	sl, [r8, #80]	; 0x50
 800028e:	f64f 7bdf 	movw	fp, #65503	; 0xffdf
 8000292:	f46f 6a8a 	mvn.w	sl, #1104	; 0x450
 8000296:	f8c9 4004 	str.w	r4, [r9, #4]
 800029a:	f8c9 a008 	str.w	sl, [r9, #8]
 800029e:	f8c9 200c 	str.w	r2, [r9, #12]
 80002a2:	f44f 4aee 	mov.w	sl, #30464	; 0x7700
 80002a6:	f8c9 b014 	str.w	fp, [r9, #20]
 80002aa:	4a97      	ldr	r2, [pc, #604]	; (8000508 <__init_array_end+0x348>)
 80002ac:	f8c9 a020 	str.w	sl, [r9, #32]
 80002b0:	f44f 2b2a 	mov.w	fp, #696320	; 0xaa000
 80002b4:	f8c9 b024 	str.w	fp, [r9, #36]	; 0x24
 80002b8:	f04f 3a55 	mov.w	sl, #1431655765	; 0x55555555
 80002bc:	f8c9 2000 	str.w	r2, [r9]
 80002c0:	f64f 7bff 	movw	fp, #65535	; 0xffff
 80002c4:	2280      	movs	r2, #128	; 0x80
 80002c6:	f8cc 4004 	str.w	r4, [ip, #4]
 80002ca:	f8cc 6008 	str.w	r6, [ip, #8]
 80002ce:	f8cc a00c 	str.w	sl, [ip, #12]
 80002d2:	f8cc b014 	str.w	fp, [ip, #20]
 80002d6:	f8cc 4020 	str.w	r4, [ip, #32]
 80002da:	f8cc 4024 	str.w	r4, [ip, #36]	; 0x24
 80002de:	f8cc 2000 	str.w	r2, [ip]
 80002e2:	f8df c278 	ldr.w	ip, [pc, #632]	; 800055c <__init_array_end+0x39c>
 80002e6:	f8ce 4004 	str.w	r4, [lr, #4]
 80002ea:	4a88      	ldr	r2, [pc, #544]	; (800050c <__init_array_end+0x34c>)
 80002ec:	f8ce 6008 	str.w	r6, [lr, #8]
 80002f0:	f8ce c00c 	str.w	ip, [lr, #12]
 80002f4:	f8df c268 	ldr.w	ip, [pc, #616]	; 8000560 <__init_array_end+0x3a0>
 80002f8:	f8ce b014 	str.w	fp, [lr, #20]
 80002fc:	f8ce 4020 	str.w	r4, [lr, #32]
 8000300:	f8ce 4024 	str.w	r4, [lr, #36]	; 0x24
 8000304:	f8ce 4000 	str.w	r4, [lr]
 8000308:	6044      	str	r4, [r0, #4]
 800030a:	6086      	str	r6, [r0, #8]
 800030c:	f8c0 a00c 	str.w	sl, [r0, #12]
 8000310:	f8c0 b014 	str.w	fp, [r0, #20]
 8000314:	6204      	str	r4, [r0, #32]
 8000316:	6244      	str	r4, [r0, #36]	; 0x24
 8000318:	606c      	str	r4, [r5, #4]
 800031a:	6004      	str	r4, [r0, #0]
 800031c:	2045      	movs	r0, #69	; 0x45
 800031e:	f8cc 4004 	str.w	r4, [ip, #4]
 8000322:	f5ae 4e68 	sub.w	lr, lr, #59392	; 0xe800
 8000326:	60ac      	str	r4, [r5, #8]
 8000328:	f8cc 6008 	str.w	r6, [ip, #8]
 800032c:	60ec      	str	r4, [r5, #12]
 800032e:	f8cc 000c 	str.w	r0, [ip, #12]
 8000332:	f8cc b014 	str.w	fp, [ip, #20]
 8000336:	f107 0090 	add.w	r0, r7, #144	; 0x90
 800033a:	612c      	str	r4, [r5, #16]
 800033c:	f8cc 4020 	str.w	r4, [ip, #32]
 8000340:	616c      	str	r4, [r5, #20]
 8000342:	f8cc 4024 	str.w	r4, [ip, #36]	; 0x24
 8000346:	622c      	str	r4, [r5, #32]
 8000348:	f8cc 4000 	str.w	r4, [ip]
 800034c:	6054      	str	r4, [r2, #4]
 800034e:	4a70      	ldr	r2, [pc, #448]	; (8000510 <__init_array_end+0x350>)
 8000350:	f8c5 e028 	str.w	lr, [r5, #40]	; 0x28
 8000354:	f8cc 6c08 	str.w	r6, [ip, #3080]	; 0xc08
 8000358:	62e8      	str	r0, [r5, #44]	; 0x2c
 800035a:	f8cc 4c0c 	str.w	r4, [ip, #3084]	; 0xc0c
 800035e:	632a      	str	r2, [r5, #48]	; 0x30
 8000360:	f8cc bc14 	str.w	fp, [ip, #3092]	; 0xc14
 8000364:	f8cc 4c20 	str.w	r4, [ip, #3104]	; 0xc20
 8000368:	604c      	str	r4, [r1, #4]
 800036a:	f8cc 4c24 	str.w	r4, [ip, #3108]	; 0xc24
 800036e:	f8cc 4c00 	str.w	r4, [ip, #3072]	; 0xc00
 8000372:	f8df c1f0 	ldr.w	ip, [pc, #496]	; 8000564 <__init_array_end+0x3a4>
 8000376:	f8df 91f0 	ldr.w	r9, [pc, #496]	; 8000568 <__init_array_end+0x3a8>
 800037a:	f04f 0a01 	mov.w	sl, #1
 800037e:	f105 0e18 	add.w	lr, r5, #24
 8000382:	2260      	movs	r2, #96	; 0x60
 8000384:	f8c5 e01c 	str.w	lr, [r5, #28]
 8000388:	f885 a000 	strb.w	sl, [r5]
 800038c:	f44f 2080 	mov.w	r0, #262144	; 0x40000
 8000390:	f88c 2312 	strb.w	r2, [ip, #786]	; 0x312
 8000394:	f101 020c 	add.w	r2, r1, #12
 8000398:	f8cc 0180 	str.w	r0, [ip, #384]	; 0x180
 800039c:	f8c5 e018 	str.w	lr, [r5, #24]
 80003a0:	f8cc 0000 	str.w	r0, [ip]
 80003a4:	f8df e1c4 	ldr.w	lr, [pc, #452]	; 800056c <__init_array_end+0x3ac>
 80003a8:	f881 a000 	strb.w	sl, [r1]
 80003ac:	f107 0048 	add.w	r0, r7, #72	; 0x48
 80003b0:	610a      	str	r2, [r1, #16]
 80003b2:	60ca      	str	r2, [r1, #12]
 80003b4:	f103 020c 	add.w	r2, r3, #12
 80003b8:	f107 0b30 	add.w	fp, r7, #48	; 0x30
 80003bc:	f8df c1b0 	ldr.w	ip, [pc, #432]	; 8000570 <__init_array_end+0x3b0>
 80003c0:	611a      	str	r2, [r3, #16]
 80003c2:	60da      	str	r2, [r3, #12]
 80003c4:	614c      	str	r4, [r1, #20]
 80003c6:	61cc      	str	r4, [r1, #28]
 80003c8:	62cf      	str	r7, [r1, #44]	; 0x2c
 80003ca:	f8c1 e034 	str.w	lr, [r1, #52]	; 0x34
 80003ce:	6308      	str	r0, [r1, #48]	; 0x30
 80003d0:	f107 0e18 	add.w	lr, r7, #24
 80003d4:	615c      	str	r4, [r3, #20]
 80003d6:	484f      	ldr	r0, [pc, #316]	; (8000514 <__init_array_end+0x354>)
 80003d8:	494f      	ldr	r1, [pc, #316]	; (8000518 <__init_array_end+0x358>)
 80003da:	f8c3 b030 	str.w	fp, [r3, #48]	; 0x30
 80003de:	f8c3 c034 	str.w	ip, [r3, #52]	; 0x34
 80003e2:	f883 a000 	strb.w	sl, [r3]
 80003e6:	605c      	str	r4, [r3, #4]
 80003e8:	61dc      	str	r4, [r3, #28]
 80003ea:	f8c3 e02c 	str.w	lr, [r3, #44]	; 0x2c
 80003ee:	f001 f817 	bl	8001420 <sdObjectInit.constprop.20>
 80003f2:	f8df e120 	ldr.w	lr, [pc, #288]	; 8000514 <__init_array_end+0x354>
 80003f6:	4b49      	ldr	r3, [pc, #292]	; (800051c <__init_array_end+0x35c>)
 80003f8:	4949      	ldr	r1, [pc, #292]	; (8000520 <__init_array_end+0x360>)
 80003fa:	f8ce 3454 	str.w	r3, [lr, #1108]	; 0x454
 80003fe:	4648      	mov	r0, r9
 8000400:	f001 f80e 	bl	8001420 <sdObjectInit.constprop.20>
 8000404:	4847      	ldr	r0, [pc, #284]	; (8000524 <__init_array_end+0x364>)
 8000406:	4a48      	ldr	r2, [pc, #288]	; (8000528 <__init_array_end+0x368>)
 8000408:	8006      	strh	r6, [r0, #0]
 800040a:	4848      	ldr	r0, [pc, #288]	; (800052c <__init_array_end+0x36c>)
 800040c:	f8c9 0454 	str.w	r0, [r9, #1108]	; 0x454
 8000410:	f5a0 405c 	sub.w	r0, r0, #56320	; 0xdc00
 8000414:	4b46      	ldr	r3, [pc, #280]	; (8000530 <__init_array_end+0x370>)
 8000416:	61d0      	str	r0, [r2, #28]
 8000418:	f102 000c 	add.w	r0, r2, #12
 800041c:	6110      	str	r0, [r2, #16]
 800041e:	60d0      	str	r0, [r2, #12]
 8000420:	f107 0054 	add.w	r0, r7, #84	; 0x54
 8000424:	f107 0e24 	add.w	lr, r7, #36	; 0x24
 8000428:	6258      	str	r0, [r3, #36]	; 0x24
 800042a:	4842      	ldr	r0, [pc, #264]	; (8000534 <__init_array_end+0x374>)
 800042c:	f8c2 e020 	str.w	lr, [r2, #32]
 8000430:	f8df e140 	ldr.w	lr, [pc, #320]	; 8000574 <__init_array_end+0x3b4>
 8000434:	4940      	ldr	r1, [pc, #256]	; (8000538 <__init_array_end+0x378>)
 8000436:	f8c3 e01c 	str.w	lr, [r3, #28]
 800043a:	6290      	str	r0, [r2, #40]	; 0x28
 800043c:	f103 0e0c 	add.w	lr, r3, #12
 8000440:	6298      	str	r0, [r3, #40]	; 0x28
 8000442:	f100 4080 	add.w	r0, r0, #1073741824	; 0x40000000
 8000446:	f8c3 e010 	str.w	lr, [r3, #16]
 800044a:	f8c3 e00c 	str.w	lr, [r3, #12]
 800044e:	f600 70ea 	addw	r0, r0, #4074	; 0xfea
 8000452:	f8df e124 	ldr.w	lr, [pc, #292]	; 8000578 <__init_array_end+0x3b8>
 8000456:	f8c2 b024 	str.w	fp, [r2, #36]	; 0x24
 800045a:	f882 a000 	strb.w	sl, [r2]
 800045e:	6054      	str	r4, [r2, #4]
 8000460:	6094      	str	r4, [r2, #8]
 8000462:	6154      	str	r4, [r2, #20]
 8000464:	615c      	str	r4, [r3, #20]
 8000466:	621f      	str	r7, [r3, #32]
 8000468:	f8c2 e02c 	str.w	lr, [r2, #44]	; 0x2c
 800046c:	6088      	str	r0, [r1, #8]
 800046e:	f107 029c 	add.w	r2, r7, #156	; 0x9c
 8000472:	2006      	movs	r0, #6
 8000474:	37b4      	adds	r7, #180	; 0xb4
 8000476:	f883 a000 	strb.w	sl, [r3]
 800047a:	605c      	str	r4, [r3, #4]
 800047c:	609c      	str	r4, [r3, #8]
 800047e:	f8c3 e02c 	str.w	lr, [r3, #44]	; 0x2c
 8000482:	f881 a000 	strb.w	sl, [r1]
 8000486:	704c      	strb	r4, [r1, #1]
 8000488:	708c      	strb	r4, [r1, #2]
 800048a:	604c      	str	r4, [r1, #4]
 800048c:	610a      	str	r2, [r1, #16]
 800048e:	614f      	str	r7, [r1, #20]
 8000490:	60c8      	str	r0, [r1, #12]
 8000492:	f001 f87d 	bl	8001590 <boardInit>
 8000496:	f8d8 0040 	ldr.w	r0, [r8, #64]	; 0x40
 800049a:	4a28      	ldr	r2, [pc, #160]	; (800053c <__init_array_end+0x37c>)
 800049c:	f8df c0c4 	ldr.w	ip, [pc, #196]	; 8000564 <__init_array_end+0x3a4>
 80004a0:	4927      	ldr	r1, [pc, #156]	; (8000540 <__init_array_end+0x380>)
 80004a2:	4f28      	ldr	r7, [pc, #160]	; (8000544 <__init_array_end+0x384>)
 80004a4:	f8df e0d4 	ldr.w	lr, [pc, #212]	; 800057c <__init_array_end+0x3bc>
 80004a8:	f04f 4380 	mov.w	r3, #1073741824	; 0x40000000
 80004ac:	ea40 000a 	orr.w	r0, r0, sl
 80004b0:	f8c8 0040 	str.w	r0, [r8, #64]	; 0x40
 80004b4:	f242 00cf 	movw	r0, #8399	; 0x20cf
 80004b8:	6298      	str	r0, [r3, #40]	; 0x28
 80004ba:	62de      	str	r6, [r3, #44]	; 0x2c
 80004bc:	f04f 5080 	mov.w	r0, #268435456	; 0x10000000
 80004c0:	619c      	str	r4, [r3, #24]
 80004c2:	635c      	str	r4, [r3, #52]	; 0x34
 80004c4:	60dc      	str	r4, [r3, #12]
 80004c6:	605c      	str	r4, [r3, #4]
 80004c8:	f8c3 a014 	str.w	sl, [r3, #20]
 80004cc:	f8c3 a000 	str.w	sl, [r3]
 80004d0:	f06f 037f 	mvn.w	r3, #127	; 0x7f
 80004d4:	f88c 331c 	strb.w	r3, [ip, #796]	; 0x31c
 80004d8:	f8cc 0180 	str.w	r0, [ip, #384]	; 0x180
 80004dc:	e050      	b.n	8000580 <__init_array_end+0x3c0>
 80004de:	bf00      	nop
 80004e0:	40023800 	.word	0x40023800
 80004e4:	40007000 	.word	0x40007000
 80004e8:	2000080c 	.word	0x2000080c
 80004ec:	08003c20 	.word	0x08003c20
 80004f0:	200015f0 	.word	0x200015f0
 80004f4:	64155105 	.word	0x64155105
 80004f8:	20002848 	.word	0x20002848
 80004fc:	40020c00 	.word	0x40020c00
 8000500:	20002e6c 	.word	0x20002e6c
 8000504:	20002e34 	.word	0x20002e34
 8000508:	2a8004a0 	.word	0x2a8004a0
 800050c:	40021c00 	.word	0x40021c00
 8000510:	00022c16 	.word	0x00022c16
 8000514:	20000838 	.word	0x20000838
 8000518:	080011a1 	.word	0x080011a1
 800051c:	40004400 	.word	0x40004400
 8000520:	08001191 	.word	0x08001191
 8000524:	20001318 	.word	0x20001318
 8000528:	20001480 	.word	0x20001480
 800052c:	40011400 	.word	0x40011400
 8000530:	200012e8 	.word	0x200012e8
 8000534:	00010016 	.word	0x00010016
 8000538:	20001670 	.word	0x20001670
 800053c:	e000ed00 	.word	0xe000ed00
 8000540:	05fa0300 	.word	0x05fa0300
 8000544:	e000edf0 	.word	0xe000edf0
 8000548:	40026000 	.word	0x40026000
 800054c:	40026400 	.word	0x40026400
 8000550:	40020000 	.word	0x40020000
 8000554:	40020400 	.word	0x40020400
 8000558:	40020800 	.word	0x40020800
 800055c:	51555555 	.word	0x51555555
 8000560:	40021000 	.word	0x40021000
 8000564:	e000e100 	.word	0xe000e100
 8000568:	2000287c 	.word	0x2000287c
 800056c:	40005400 	.word	0x40005400
 8000570:	40005c00 	.word	0x40005c00
 8000574:	40003c00 	.word	0x40003c00
 8000578:	00010046 	.word	0x00010046
 800057c:	e0001000 	.word	0xe0001000
 8000580:	f8cc 0000 	str.w	r0, [ip]
 8000584:	6094      	str	r4, [r2, #8]
 8000586:	f8d2 c00c 	ldr.w	ip, [r2, #12]
 800058a:	4b9c      	ldr	r3, [pc, #624]	; (80007fc <__init_array_end+0x63c>)
 800058c:	f64f 00ff 	movw	r0, #63743	; 0xf8ff
 8000590:	ea0c 0000 	and.w	r0, ip, r0
 8000594:	4301      	orrs	r1, r0
 8000596:	60d1      	str	r1, [r2, #12]
 8000598:	68f9      	ldr	r1, [r7, #12]
 800059a:	605b      	str	r3, [r3, #4]
 800059c:	f041 7180 	orr.w	r1, r1, #16777216	; 0x1000000
 80005a0:	60f9      	str	r1, [r7, #12]
 80005a2:	f8de 0000 	ldr.w	r0, [lr]
 80005a6:	609c      	str	r4, [r3, #8]
 80005a8:	f10d 0b80 	add.w	fp, sp, #128	; 0x80
 80005ac:	ea40 000a 	orr.w	r0, r0, sl
 80005b0:	2110      	movs	r1, #16
 80005b2:	f8ce 0000 	str.w	r0, [lr]
 80005b6:	77d1      	strb	r1, [r2, #31]
 80005b8:	f04f 0120 	mov.w	r1, #32
 80005bc:	f103 0e1c 	add.w	lr, r3, #28
 80005c0:	615b      	str	r3, [r3, #20]
 80005c2:	4658      	mov	r0, fp
 80005c4:	f882 1022 	strb.w	r1, [r2, #34]	; 0x22
 80005c8:	2700      	movs	r7, #0
 80005ca:	625e      	str	r6, [r3, #36]	; 0x24
 80005cc:	f8cb 6000 	str.w	r6, [fp]
 80005d0:	2600      	movs	r6, #0
 80005d2:	629c      	str	r4, [r3, #40]	; 0x28
 80005d4:	631c      	str	r4, [r3, #48]	; 0x30
 80005d6:	f8c3 e020 	str.w	lr, [r3, #32]
 80005da:	f8c3 e01c 	str.w	lr, [r3, #28]
 80005de:	601b      	str	r3, [r3, #0]
 80005e0:	611b      	str	r3, [r3, #16]
 80005e2:	f8cb 4004 	str.w	r4, [fp, #4]
 80005e6:	e9cb 6704 	strd	r6, r7, [fp, #16]
 80005ea:	f8cb 4008 	str.w	r4, [fp, #8]
 80005ee:	f8cb 400c 	str.w	r4, [fp, #12]
 80005f2:	9304      	str	r3, [sp, #16]
 80005f4:	f000 ff0c 	bl	8001410 <chTMStartMeasurementX.constprop.24>
 80005f8:	4658      	mov	r0, fp
 80005fa:	f001 fd89 	bl	8002110 <chTMStopMeasurementX>
 80005fe:	9b04      	ldr	r3, [sp, #16]
 8000600:	487f      	ldr	r0, [pc, #508]	; (8000800 <__init_array_end+0x640>)
 8000602:	4a80      	ldr	r2, [pc, #512]	; (8000804 <__init_array_end+0x644>)
 8000604:	4980      	ldr	r1, [pc, #512]	; (8000808 <__init_array_end+0x648>)
 8000606:	f8db 7008 	ldr.w	r7, [fp, #8]
 800060a:	631f      	str	r7, [r3, #48]	; 0x30
 800060c:	f020 0707 	bic.w	r7, r0, #7
 8000610:	2040      	movs	r0, #64	; 0x40
 8000612:	f101 0e10 	add.w	lr, r1, #16
 8000616:	63d0      	str	r0, [r2, #60]	; 0x3c
 8000618:	6090      	str	r0, [r2, #8]
 800061a:	4e7c      	ldr	r6, [pc, #496]	; (800080c <__init_array_end+0x64c>)
 800061c:	487c      	ldr	r0, [pc, #496]	; (8000810 <__init_array_end+0x650>)
 800061e:	6008      	str	r0, [r1, #0]
 8000620:	618c      	str	r4, [r1, #24]
 8000622:	f8c1 e014 	str.w	lr, [r1, #20]
 8000626:	f8c1 e010 	str.w	lr, [r1, #16]
 800062a:	608c      	str	r4, [r1, #8]
 800062c:	60cc      	str	r4, [r1, #12]
 800062e:	4979      	ldr	r1, [pc, #484]	; (8000814 <__init_array_end+0x654>)
 8000630:	f8d3 c014 	ldr.w	ip, [r3, #20]
 8000634:	4878      	ldr	r0, [pc, #480]	; (8000818 <__init_array_end+0x658>)
 8000636:	f8c2 c014 	str.w	ip, [r2, #20]
 800063a:	f026 0607 	bic.w	r6, r6, #7
 800063e:	600e      	str	r6, [r1, #0]
 8000640:	f102 0128 	add.w	r1, r2, #40	; 0x28
 8000644:	f102 0624 	add.w	r6, r2, #36	; 0x24
 8000648:	7754      	strb	r4, [r2, #29]
 800064a:	6394      	str	r4, [r2, #56]	; 0x38
 800064c:	6354      	str	r4, [r2, #52]	; 0x34
 800064e:	f882 a01e 	strb.w	sl, [r2, #30]
 8000652:	6194      	str	r4, [r2, #24]
 8000654:	6113      	str	r3, [r2, #16]
 8000656:	615a      	str	r2, [r3, #20]
 8000658:	6007      	str	r7, [r0, #0]
 800065a:	f8cc 2010 	str.w	r2, [ip, #16]
 800065e:	619a      	str	r2, [r3, #24]
 8000660:	f882 a01c 	strb.w	sl, [r2, #28]
 8000664:	6256      	str	r6, [r2, #36]	; 0x24
 8000666:	62d1      	str	r1, [r2, #44]	; 0x2c
 8000668:	6291      	str	r1, [r2, #40]	; 0x28
 800066a:	f384 8811 	msr	BASEPRI, r4
 800066e:	b662      	cpsie	i
 8000670:	699b      	ldr	r3, [r3, #24]
 8000672:	4a6a      	ldr	r2, [pc, #424]	; (800081c <__init_array_end+0x65c>)
 8000674:	619a      	str	r2, [r3, #24]
 8000676:	f44f 71b0 	mov.w	r1, #352	; 0x160
 800067a:	4652      	mov	r2, sl
 800067c:	4b68      	ldr	r3, [pc, #416]	; (8000820 <__init_array_end+0x660>)
 800067e:	9400      	str	r4, [sp, #0]
 8000680:	4868      	ldr	r0, [pc, #416]	; (8000824 <__init_array_end+0x664>)
 8000682:	f002 fc4d 	bl	8002f20 <chThdCreateStatic>
 8000686:	f000 ff83 	bl	8001590 <boardInit>
 800068a:	f241 3088 	movw	r0, #5000	; 0x1388
 800068e:	f002 f93f 	bl	8002910 <chThdSleep>
 8000692:	f04f 0c20 	mov.w	ip, #32
 8000696:	f38c 8811 	msr	BASEPRI, ip
 800069a:	4963      	ldr	r1, [pc, #396]	; (8000828 <__init_array_end+0x668>)
 800069c:	4863      	ldr	r0, [pc, #396]	; (800082c <__init_array_end+0x66c>)
 800069e:	f002 f85f 	bl	8002760 <sd_lld_start>
 80006a2:	f8df e188 	ldr.w	lr, [pc, #392]	; 800082c <__init_array_end+0x66c>
 80006a6:	2602      	movs	r6, #2
 80006a8:	f88e 6008 	strb.w	r6, [lr, #8]
 80006ac:	f384 8811 	msr	BASEPRI, r4
 80006b0:	2020      	movs	r0, #32
 80006b2:	f380 8811 	msr	BASEPRI, r0
 80006b6:	495c      	ldr	r1, [pc, #368]	; (8000828 <__init_array_end+0x668>)
 80006b8:	4648      	mov	r0, r9
 80006ba:	f002 f851 	bl	8002760 <sd_lld_start>
 80006be:	f889 6008 	strb.w	r6, [r9, #8]
 80006c2:	f384 8811 	msr	BASEPRI, r4
 80006c6:	495a      	ldr	r1, [pc, #360]	; (8000830 <__init_array_end+0x670>)
 80006c8:	4648      	mov	r0, r9
 80006ca:	f002 fa59 	bl	8002b80 <chprintf.16710.constprop.29>
 80006ce:	f44f 60fa 	mov.w	r0, #2000	; 0x7d0
 80006d2:	f002 f91d 	bl	8002910 <chThdSleep>
 80006d6:	2120      	movs	r1, #32
 80006d8:	f381 8811 	msr	BASEPRI, r1
 80006dc:	782e      	ldrb	r6, [r5, #0]
 80006de:	606c      	str	r4, [r5, #4]
 80006e0:	4556      	cmp	r6, sl
 80006e2:	d06e      	beq.n	80007c2 <__init_array_end+0x602>
 80006e4:	2302      	movs	r3, #2
 80006e6:	702b      	strb	r3, [r5, #0]
 80006e8:	2300      	movs	r3, #0
 80006ea:	f383 8811 	msr	BASEPRI, r3
 80006ee:	ab07      	add	r3, sp, #28
 80006f0:	4d50      	ldr	r5, [pc, #320]	; (8000834 <__init_array_end+0x674>)
 80006f2:	9300      	str	r3, [sp, #0]
 80006f4:	f44f 61cb 	mov.w	r1, #1624	; 0x658
 80006f8:	4b4f      	ldr	r3, [pc, #316]	; (8000838 <__init_array_end+0x678>)
 80006fa:	4850      	ldr	r0, [pc, #320]	; (800083c <__init_array_end+0x67c>)
 80006fc:	2240      	movs	r2, #64	; 0x40
 80006fe:	f002 fc0f 	bl	8002f20 <chThdCreateStatic>
 8000702:	2408      	movs	r4, #8
 8000704:	4b4e      	ldr	r3, [pc, #312]	; (8000840 <__init_array_end+0x680>)
 8000706:	f8cd b000 	str.w	fp, [sp]
 800070a:	f04f 0820 	mov.w	r8, #32
 800070e:	f241 1150 	movw	r1, #4432	; 0x1150
 8000712:	2240      	movs	r2, #64	; 0x40
 8000714:	484b      	ldr	r0, [pc, #300]	; (8000844 <__init_array_end+0x684>)
 8000716:	f002 fc03 	bl	8002f20 <chThdCreateStatic>
 800071a:	832c      	strh	r4, [r5, #24]
 800071c:	f640 30b8 	movw	r0, #3000	; 0xbb8
 8000720:	f8a5 8018 	strh.w	r8, [r5, #24]
 8000724:	f002 f8f4 	bl	8002910 <chThdSleep>
 8000728:	f04f 4380 	mov.w	r3, #1073741824	; 0x40000000
 800072c:	836c      	strh	r4, [r5, #26]
 800072e:	f8a5 801a 	strh.w	r8, [r5, #26]
 8000732:	6a5c      	ldr	r4, [r3, #36]	; 0x24
 8000734:	46aa      	mov	sl, r5
 8000736:	af12      	add	r7, sp, #72	; 0x48
 8000738:	ae18      	add	r6, sp, #96	; 0x60
 800073a:	ad1c      	add	r5, sp, #112	; 0x70
 800073c:	46c1      	mov	r9, r8
 800073e:	f504 541c 	add.w	r4, r4, #9984	; 0x2700
 8000742:	3410      	adds	r4, #16
 8000744:	f8aa 9018 	strh.w	r9, [sl, #24]
 8000748:	f388 8811 	msr	BASEPRI, r8
 800074c:	483e      	ldr	r0, [pc, #248]	; (8000848 <__init_array_end+0x688>)
 800074e:	f001 fa9f 	bl	8001c90 <chMtxLockS>
 8000752:	2300      	movs	r3, #0
 8000754:	f383 8811 	msr	BASEPRI, r3
 8000758:	493c      	ldr	r1, [pc, #240]	; (800084c <__init_array_end+0x68c>)
 800075a:	a80c      	add	r0, sp, #48	; 0x30
 800075c:	f003 f930 	bl	80039c0 <strcpy>
 8000760:	493b      	ldr	r1, [pc, #236]	; (8000850 <__init_array_end+0x690>)
 8000762:	4638      	mov	r0, r7
 8000764:	f003 f92c 	bl	80039c0 <strcpy>
 8000768:	493a      	ldr	r1, [pc, #232]	; (8000854 <__init_array_end+0x694>)
 800076a:	4630      	mov	r0, r6
 800076c:	f003 f928 	bl	80039c0 <strcpy>
 8000770:	4939      	ldr	r1, [pc, #228]	; (8000858 <__init_array_end+0x698>)
 8000772:	a808      	add	r0, sp, #32
 8000774:	f003 f924 	bl	80039c0 <strcpy>
 8000778:	4938      	ldr	r1, [pc, #224]	; (800085c <__init_array_end+0x69c>)
 800077a:	4628      	mov	r0, r5
 800077c:	f003 f920 	bl	80039c0 <strcpy>
 8000780:	4831      	ldr	r0, [pc, #196]	; (8000848 <__init_array_end+0x688>)
 8000782:	f002 fc0d 	bl	8002fa0 <chMtxUnlock>
 8000786:	aa08      	add	r2, sp, #32
 8000788:	ab0c      	add	r3, sp, #48	; 0x30
 800078a:	4935      	ldr	r1, [pc, #212]	; (8000860 <__init_array_end+0x6a0>)
 800078c:	9700      	str	r7, [sp, #0]
 800078e:	9601      	str	r6, [sp, #4]
 8000790:	9502      	str	r5, [sp, #8]
 8000792:	4834      	ldr	r0, [pc, #208]	; (8000864 <__init_array_end+0x6a4>)
 8000794:	f002 f9f4 	bl	8002b80 <chprintf.16710.constprop.29>
 8000798:	4832      	ldr	r0, [pc, #200]	; (8000864 <__init_array_end+0x6a4>)
 800079a:	4933      	ldr	r1, [pc, #204]	; (8000868 <__init_array_end+0x6a8>)
 800079c:	f002 f9f0 	bl	8002b80 <chprintf.16710.constprop.29>
 80007a0:	f04f 4380 	mov.w	r3, #1073741824	; 0x40000000
 80007a4:	6a5a      	ldr	r2, [r3, #36]	; 0x24
 80007a6:	4294      	cmp	r4, r2
 80007a8:	d9c9      	bls.n	800073e <__init_array_end+0x57e>
 80007aa:	f388 8811 	msr	BASEPRI, r8
 80007ae:	6a59      	ldr	r1, [r3, #36]	; 0x24
 80007b0:	1a61      	subs	r1, r4, r1
 80007b2:	d002      	beq.n	80007ba <__init_array_end+0x5fa>
 80007b4:	2008      	movs	r0, #8
 80007b6:	f002 f83b 	bl	8002830 <chSchGoSleepTimeoutS>
 80007ba:	2300      	movs	r3, #0
 80007bc:	f383 8811 	msr	BASEPRI, r3
 80007c0:	e7bd      	b.n	800073e <__init_array_end+0x57e>
 80007c2:	2106      	movs	r1, #6
 80007c4:	4a29      	ldr	r2, [pc, #164]	; (800086c <__init_array_end+0x6ac>)
 80007c6:	6ae8      	ldr	r0, [r5, #44]	; 0x2c
 80007c8:	462b      	mov	r3, r5
 80007ca:	f000 ff91 	bl	80016f0 <dmaStreamAllocate>
 80007ce:	6aeb      	ldr	r3, [r5, #44]	; 0x2c
 80007d0:	4927      	ldr	r1, [pc, #156]	; (8000870 <__init_array_end+0x6b0>)
 80007d2:	681b      	ldr	r3, [r3, #0]
 80007d4:	4a27      	ldr	r2, [pc, #156]	; (8000874 <__init_array_end+0x6b4>)
 80007d6:	6099      	str	r1, [r3, #8]
 80007d8:	f8d8 1044 	ldr.w	r1, [r8, #68]	; 0x44
 80007dc:	6aab      	ldr	r3, [r5, #40]	; 0x28
 80007de:	f441 7180 	orr.w	r1, r1, #256	; 0x100
 80007e2:	f8c8 1044 	str.w	r1, [r8, #68]	; 0x44
 80007e6:	6851      	ldr	r1, [r2, #4]
 80007e8:	f401 0140 	and.w	r1, r1, #12582912	; 0xc00000
 80007ec:	f441 3140 	orr.w	r1, r1, #196608	; 0x30000
 80007f0:	6051      	str	r1, [r2, #4]
 80007f2:	605c      	str	r4, [r3, #4]
 80007f4:	609c      	str	r4, [r3, #8]
 80007f6:	609e      	str	r6, [r3, #8]
 80007f8:	e774      	b.n	80006e4 <__init_array_end+0x524>
 80007fa:	bf00      	nop
 80007fc:	20002cd4 	.word	0x20002cd4
 8000800:	20010000 	.word	0x20010000
 8000804:	2000168c 	.word	0x2000168c
 8000808:	20000818 	.word	0x20000818
 800080c:	20002eaf 	.word	0x20002eaf
 8000810:	080012c1 	.word	0x080012c1
 8000814:	20000810 	.word	0x20000810
 8000818:	200016d0 	.word	0x200016d0
 800081c:	08003c00 	.word	0x08003c00
 8000820:	08001371 	.word	0x08001371
 8000824:	20001320 	.word	0x20001320
 8000828:	20000800 	.word	0x20000800
 800082c:	20000838 	.word	0x20000838
 8000830:	08003bc0 	.word	0x08003bc0
 8000834:	40020400 	.word	0x40020400
 8000838:	08003001 	.word	0x08003001
 800083c:	20000c90 	.word	0x20000c90
 8000840:	080033d1 	.word	0x080033d1
 8000844:	200016d8 	.word	0x200016d8
 8000848:	200015e0 	.word	0x200015e0
 800084c:	2000158e 	.word	0x2000158e
 8000850:	200015a6 	.word	0x200015a6
 8000854:	200015be 	.word	0x200015be
 8000858:	2000157e 	.word	0x2000157e
 800085c:	200015ce 	.word	0x200015ce
 8000860:	08003bc8 	.word	0x08003bc8
 8000864:	2000287c 	.word	0x2000287c
 8000868:	08003bf4 	.word	0x08003bf4
 800086c:	08002041 	.word	0x08002041
 8000870:	4001204c 	.word	0x4001204c
 8000874:	40012300 	.word	0x40012300
 8000878:	f3af 8000 	nop.w
 800087c:	f3af 8000 	nop.w

08000880 <_port_switch>:
 8000880:	e92d 4ff0 	stmdb	sp!, {r4, r5, r6, r7, r8, r9, sl, fp, lr}
 8000884:	ed2d 8a10 	vpush	{s16-s31}
 8000888:	f8c1 d00c 	str.w	sp, [r1, #12]
 800088c:	f8d0 d00c 	ldr.w	sp, [r0, #12]
 8000890:	ecbd 8a10 	vpop	{s16-s31}
 8000894:	e8bd 8ff0 	ldmia.w	sp!, {r4, r5, r6, r7, r8, r9, sl, fp, pc}

08000898 <_port_thread_start>:
 8000898:	2300      	movs	r3, #0
 800089a:	f383 8811 	msr	BASEPRI, r3
 800089e:	4628      	mov	r0, r5
 80008a0:	47a0      	blx	r4
 80008a2:	f003 f85d 	bl	8003960 <chThdExit>

080008a6 <_port_switch_from_isr>:
 80008a6:	f003 f883 	bl	80039b0 <chSchDoReschedule>

080008aa <_port_exit_from_isr>:
 80008aa:	df00      	svc	0
 80008ac:	e7fe      	b.n	80008ac <_port_exit_from_isr+0x2>
	...

080008b0 <__aeabi_drsub>:
 80008b0:	f081 4100 	eor.w	r1, r1, #2147483648	; 0x80000000
 80008b4:	e002      	b.n	80008bc <__adddf3>
 80008b6:	bf00      	nop

080008b8 <__aeabi_dsub>:
 80008b8:	f083 4300 	eor.w	r3, r3, #2147483648	; 0x80000000

080008bc <__adddf3>:
 80008bc:	b530      	push	{r4, r5, lr}
 80008be:	ea4f 0441 	mov.w	r4, r1, lsl #1
 80008c2:	ea4f 0543 	mov.w	r5, r3, lsl #1
 80008c6:	ea94 0f05 	teq	r4, r5
 80008ca:	bf08      	it	eq
 80008cc:	ea90 0f02 	teqeq	r0, r2
 80008d0:	bf1f      	itttt	ne
 80008d2:	ea54 0c00 	orrsne.w	ip, r4, r0
 80008d6:	ea55 0c02 	orrsne.w	ip, r5, r2
 80008da:	ea7f 5c64 	mvnsne.w	ip, r4, asr #21
 80008de:	ea7f 5c65 	mvnsne.w	ip, r5, asr #21
 80008e2:	f000 80e2 	beq.w	8000aaa <__adddf3+0x1ee>
 80008e6:	ea4f 5454 	mov.w	r4, r4, lsr #21
 80008ea:	ebd4 5555 	rsbs	r5, r4, r5, lsr #21
 80008ee:	bfb8      	it	lt
 80008f0:	426d      	neglt	r5, r5
 80008f2:	dd0c      	ble.n	800090e <__adddf3+0x52>
 80008f4:	442c      	add	r4, r5
 80008f6:	ea80 0202 	eor.w	r2, r0, r2
 80008fa:	ea81 0303 	eor.w	r3, r1, r3
 80008fe:	ea82 0000 	eor.w	r0, r2, r0
 8000902:	ea83 0101 	eor.w	r1, r3, r1
 8000906:	ea80 0202 	eor.w	r2, r0, r2
 800090a:	ea81 0303 	eor.w	r3, r1, r3
 800090e:	2d36      	cmp	r5, #54	; 0x36
 8000910:	bf88      	it	hi
 8000912:	bd30      	pophi	{r4, r5, pc}
 8000914:	f011 4f00 	tst.w	r1, #2147483648	; 0x80000000
 8000918:	ea4f 3101 	mov.w	r1, r1, lsl #12
 800091c:	f44f 1c80 	mov.w	ip, #1048576	; 0x100000
 8000920:	ea4c 3111 	orr.w	r1, ip, r1, lsr #12
 8000924:	d002      	beq.n	800092c <__adddf3+0x70>
 8000926:	4240      	negs	r0, r0
 8000928:	eb61 0141 	sbc.w	r1, r1, r1, lsl #1
 800092c:	f013 4f00 	tst.w	r3, #2147483648	; 0x80000000
 8000930:	ea4f 3303 	mov.w	r3, r3, lsl #12
 8000934:	ea4c 3313 	orr.w	r3, ip, r3, lsr #12
 8000938:	d002      	beq.n	8000940 <__adddf3+0x84>
 800093a:	4252      	negs	r2, r2
 800093c:	eb63 0343 	sbc.w	r3, r3, r3, lsl #1
 8000940:	ea94 0f05 	teq	r4, r5
 8000944:	f000 80a7 	beq.w	8000a96 <__adddf3+0x1da>
 8000948:	f1a4 0401 	sub.w	r4, r4, #1
 800094c:	f1d5 0e20 	rsbs	lr, r5, #32
 8000950:	db0d      	blt.n	800096e <__adddf3+0xb2>
 8000952:	fa02 fc0e 	lsl.w	ip, r2, lr
 8000956:	fa22 f205 	lsr.w	r2, r2, r5
 800095a:	1880      	adds	r0, r0, r2
 800095c:	f141 0100 	adc.w	r1, r1, #0
 8000960:	fa03 f20e 	lsl.w	r2, r3, lr
 8000964:	1880      	adds	r0, r0, r2
 8000966:	fa43 f305 	asr.w	r3, r3, r5
 800096a:	4159      	adcs	r1, r3
 800096c:	e00e      	b.n	800098c <__adddf3+0xd0>
 800096e:	f1a5 0520 	sub.w	r5, r5, #32
 8000972:	f10e 0e20 	add.w	lr, lr, #32
 8000976:	2a01      	cmp	r2, #1
 8000978:	fa03 fc0e 	lsl.w	ip, r3, lr
 800097c:	bf28      	it	cs
 800097e:	f04c 0c02 	orrcs.w	ip, ip, #2
 8000982:	fa43 f305 	asr.w	r3, r3, r5
 8000986:	18c0      	adds	r0, r0, r3
 8000988:	eb51 71e3 	adcs.w	r1, r1, r3, asr #31
 800098c:	f001 4500 	and.w	r5, r1, #2147483648	; 0x80000000
 8000990:	d507      	bpl.n	80009a2 <__adddf3+0xe6>
 8000992:	f04f 0e00 	mov.w	lr, #0
 8000996:	f1dc 0c00 	rsbs	ip, ip, #0
 800099a:	eb7e 0000 	sbcs.w	r0, lr, r0
 800099e:	eb6e 0101 	sbc.w	r1, lr, r1
 80009a2:	f5b1 1f80 	cmp.w	r1, #1048576	; 0x100000
 80009a6:	d31b      	bcc.n	80009e0 <__adddf3+0x124>
 80009a8:	f5b1 1f00 	cmp.w	r1, #2097152	; 0x200000
 80009ac:	d30c      	bcc.n	80009c8 <__adddf3+0x10c>
 80009ae:	0849      	lsrs	r1, r1, #1
 80009b0:	ea5f 0030 	movs.w	r0, r0, rrx
 80009b4:	ea4f 0c3c 	mov.w	ip, ip, rrx
 80009b8:	f104 0401 	add.w	r4, r4, #1
 80009bc:	ea4f 5244 	mov.w	r2, r4, lsl #21
 80009c0:	f512 0f80 	cmn.w	r2, #4194304	; 0x400000
 80009c4:	f080 809a 	bcs.w	8000afc <__adddf3+0x240>
 80009c8:	f1bc 4f00 	cmp.w	ip, #2147483648	; 0x80000000
 80009cc:	bf08      	it	eq
 80009ce:	ea5f 0c50 	movseq.w	ip, r0, lsr #1
 80009d2:	f150 0000 	adcs.w	r0, r0, #0
 80009d6:	eb41 5104 	adc.w	r1, r1, r4, lsl #20
 80009da:	ea41 0105 	orr.w	r1, r1, r5
 80009de:	bd30      	pop	{r4, r5, pc}
 80009e0:	ea5f 0c4c 	movs.w	ip, ip, lsl #1
 80009e4:	4140      	adcs	r0, r0
 80009e6:	eb41 0101 	adc.w	r1, r1, r1
 80009ea:	f411 1f80 	tst.w	r1, #1048576	; 0x100000
 80009ee:	f1a4 0401 	sub.w	r4, r4, #1
 80009f2:	d1e9      	bne.n	80009c8 <__adddf3+0x10c>
 80009f4:	f091 0f00 	teq	r1, #0
 80009f8:	bf04      	itt	eq
 80009fa:	4601      	moveq	r1, r0
 80009fc:	2000      	moveq	r0, #0
 80009fe:	fab1 f381 	clz	r3, r1
 8000a02:	bf08      	it	eq
 8000a04:	3320      	addeq	r3, #32
 8000a06:	f1a3 030b 	sub.w	r3, r3, #11
 8000a0a:	f1b3 0220 	subs.w	r2, r3, #32
 8000a0e:	da0c      	bge.n	8000a2a <__adddf3+0x16e>
 8000a10:	320c      	adds	r2, #12
 8000a12:	dd08      	ble.n	8000a26 <__adddf3+0x16a>
 8000a14:	f102 0c14 	add.w	ip, r2, #20
 8000a18:	f1c2 020c 	rsb	r2, r2, #12
 8000a1c:	fa01 f00c 	lsl.w	r0, r1, ip
 8000a20:	fa21 f102 	lsr.w	r1, r1, r2
 8000a24:	e00c      	b.n	8000a40 <__adddf3+0x184>
 8000a26:	f102 0214 	add.w	r2, r2, #20
 8000a2a:	bfd8      	it	le
 8000a2c:	f1c2 0c20 	rsble	ip, r2, #32
 8000a30:	fa01 f102 	lsl.w	r1, r1, r2
 8000a34:	fa20 fc0c 	lsr.w	ip, r0, ip
 8000a38:	bfdc      	itt	le
 8000a3a:	ea41 010c 	orrle.w	r1, r1, ip
 8000a3e:	4090      	lslle	r0, r2
 8000a40:	1ae4      	subs	r4, r4, r3
 8000a42:	bfa2      	ittt	ge
 8000a44:	eb01 5104 	addge.w	r1, r1, r4, lsl #20
 8000a48:	4329      	orrge	r1, r5
 8000a4a:	bd30      	popge	{r4, r5, pc}
 8000a4c:	ea6f 0404 	mvn.w	r4, r4
 8000a50:	3c1f      	subs	r4, #31
 8000a52:	da1c      	bge.n	8000a8e <__adddf3+0x1d2>
 8000a54:	340c      	adds	r4, #12
 8000a56:	dc0e      	bgt.n	8000a76 <__adddf3+0x1ba>
 8000a58:	f104 0414 	add.w	r4, r4, #20
 8000a5c:	f1c4 0220 	rsb	r2, r4, #32
 8000a60:	fa20 f004 	lsr.w	r0, r0, r4
 8000a64:	fa01 f302 	lsl.w	r3, r1, r2
 8000a68:	ea40 0003 	orr.w	r0, r0, r3
 8000a6c:	fa21 f304 	lsr.w	r3, r1, r4
 8000a70:	ea45 0103 	orr.w	r1, r5, r3
 8000a74:	bd30      	pop	{r4, r5, pc}
 8000a76:	f1c4 040c 	rsb	r4, r4, #12
 8000a7a:	f1c4 0220 	rsb	r2, r4, #32
 8000a7e:	fa20 f002 	lsr.w	r0, r0, r2
 8000a82:	fa01 f304 	lsl.w	r3, r1, r4
 8000a86:	ea40 0003 	orr.w	r0, r0, r3
 8000a8a:	4629      	mov	r1, r5
 8000a8c:	bd30      	pop	{r4, r5, pc}
 8000a8e:	fa21 f004 	lsr.w	r0, r1, r4
 8000a92:	4629      	mov	r1, r5
 8000a94:	bd30      	pop	{r4, r5, pc}
 8000a96:	f094 0f00 	teq	r4, #0
 8000a9a:	f483 1380 	eor.w	r3, r3, #1048576	; 0x100000
 8000a9e:	bf06      	itte	eq
 8000aa0:	f481 1180 	eoreq.w	r1, r1, #1048576	; 0x100000
 8000aa4:	3401      	addeq	r4, #1
 8000aa6:	3d01      	subne	r5, #1
 8000aa8:	e74e      	b.n	8000948 <__adddf3+0x8c>
 8000aaa:	ea7f 5c64 	mvns.w	ip, r4, asr #21
 8000aae:	bf18      	it	ne
 8000ab0:	ea7f 5c65 	mvnsne.w	ip, r5, asr #21
 8000ab4:	d029      	beq.n	8000b0a <__adddf3+0x24e>
 8000ab6:	ea94 0f05 	teq	r4, r5
 8000aba:	bf08      	it	eq
 8000abc:	ea90 0f02 	teqeq	r0, r2
 8000ac0:	d005      	beq.n	8000ace <__adddf3+0x212>
 8000ac2:	ea54 0c00 	orrs.w	ip, r4, r0
 8000ac6:	bf04      	itt	eq
 8000ac8:	4619      	moveq	r1, r3
 8000aca:	4610      	moveq	r0, r2
 8000acc:	bd30      	pop	{r4, r5, pc}
 8000ace:	ea91 0f03 	teq	r1, r3
 8000ad2:	bf1e      	ittt	ne
 8000ad4:	2100      	movne	r1, #0
 8000ad6:	2000      	movne	r0, #0
 8000ad8:	bd30      	popne	{r4, r5, pc}
 8000ada:	ea5f 5c54 	movs.w	ip, r4, lsr #21
 8000ade:	d105      	bne.n	8000aec <__adddf3+0x230>
 8000ae0:	0040      	lsls	r0, r0, #1
 8000ae2:	4149      	adcs	r1, r1
 8000ae4:	bf28      	it	cs
 8000ae6:	f041 4100 	orrcs.w	r1, r1, #2147483648	; 0x80000000
 8000aea:	bd30      	pop	{r4, r5, pc}
 8000aec:	f514 0480 	adds.w	r4, r4, #4194304	; 0x400000
 8000af0:	bf3c      	itt	cc
 8000af2:	f501 1180 	addcc.w	r1, r1, #1048576	; 0x100000
 8000af6:	bd30      	popcc	{r4, r5, pc}
 8000af8:	f001 4500 	and.w	r5, r1, #2147483648	; 0x80000000
 8000afc:	f045 41fe 	orr.w	r1, r5, #2130706432	; 0x7f000000
 8000b00:	f441 0170 	orr.w	r1, r1, #15728640	; 0xf00000
 8000b04:	f04f 0000 	mov.w	r0, #0
 8000b08:	bd30      	pop	{r4, r5, pc}
 8000b0a:	ea7f 5c64 	mvns.w	ip, r4, asr #21
 8000b0e:	bf1a      	itte	ne
 8000b10:	4619      	movne	r1, r3
 8000b12:	4610      	movne	r0, r2
 8000b14:	ea7f 5c65 	mvnseq.w	ip, r5, asr #21
 8000b18:	bf1c      	itt	ne
 8000b1a:	460b      	movne	r3, r1
 8000b1c:	4602      	movne	r2, r0
 8000b1e:	ea50 3401 	orrs.w	r4, r0, r1, lsl #12
 8000b22:	bf06      	itte	eq
 8000b24:	ea52 3503 	orrseq.w	r5, r2, r3, lsl #12
 8000b28:	ea91 0f03 	teqeq	r1, r3
 8000b2c:	f441 2100 	orrne.w	r1, r1, #524288	; 0x80000
 8000b30:	bd30      	pop	{r4, r5, pc}
 8000b32:	bf00      	nop

08000b34 <__aeabi_ui2d>:
 8000b34:	f090 0f00 	teq	r0, #0
 8000b38:	bf04      	itt	eq
 8000b3a:	2100      	moveq	r1, #0
 8000b3c:	4770      	bxeq	lr
 8000b3e:	b530      	push	{r4, r5, lr}
 8000b40:	f44f 6480 	mov.w	r4, #1024	; 0x400
 8000b44:	f104 0432 	add.w	r4, r4, #50	; 0x32
 8000b48:	f04f 0500 	mov.w	r5, #0
 8000b4c:	f04f 0100 	mov.w	r1, #0
 8000b50:	e750      	b.n	80009f4 <__adddf3+0x138>
 8000b52:	bf00      	nop

08000b54 <__aeabi_i2d>:
 8000b54:	f090 0f00 	teq	r0, #0
 8000b58:	bf04      	itt	eq
 8000b5a:	2100      	moveq	r1, #0
 8000b5c:	4770      	bxeq	lr
 8000b5e:	b530      	push	{r4, r5, lr}
 8000b60:	f44f 6480 	mov.w	r4, #1024	; 0x400
 8000b64:	f104 0432 	add.w	r4, r4, #50	; 0x32
 8000b68:	f010 4500 	ands.w	r5, r0, #2147483648	; 0x80000000
 8000b6c:	bf48      	it	mi
 8000b6e:	4240      	negmi	r0, r0
 8000b70:	f04f 0100 	mov.w	r1, #0
 8000b74:	e73e      	b.n	80009f4 <__adddf3+0x138>
 8000b76:	bf00      	nop

08000b78 <__aeabi_f2d>:
 8000b78:	0042      	lsls	r2, r0, #1
 8000b7a:	ea4f 01e2 	mov.w	r1, r2, asr #3
 8000b7e:	ea4f 0131 	mov.w	r1, r1, rrx
 8000b82:	ea4f 7002 	mov.w	r0, r2, lsl #28
 8000b86:	bf1f      	itttt	ne
 8000b88:	f012 437f 	andsne.w	r3, r2, #4278190080	; 0xff000000
 8000b8c:	f093 4f7f 	teqne	r3, #4278190080	; 0xff000000
 8000b90:	f081 5160 	eorne.w	r1, r1, #939524096	; 0x38000000
 8000b94:	4770      	bxne	lr
 8000b96:	f092 0f00 	teq	r2, #0
 8000b9a:	bf14      	ite	ne
 8000b9c:	f093 4f7f 	teqne	r3, #4278190080	; 0xff000000
 8000ba0:	4770      	bxeq	lr
 8000ba2:	b530      	push	{r4, r5, lr}
 8000ba4:	f44f 7460 	mov.w	r4, #896	; 0x380
 8000ba8:	f001 4500 	and.w	r5, r1, #2147483648	; 0x80000000
 8000bac:	f021 4100 	bic.w	r1, r1, #2147483648	; 0x80000000
 8000bb0:	e720      	b.n	80009f4 <__adddf3+0x138>
 8000bb2:	bf00      	nop

08000bb4 <__aeabi_ul2d>:
 8000bb4:	ea50 0201 	orrs.w	r2, r0, r1
 8000bb8:	bf08      	it	eq
 8000bba:	4770      	bxeq	lr
 8000bbc:	b530      	push	{r4, r5, lr}
 8000bbe:	f04f 0500 	mov.w	r5, #0
 8000bc2:	e00a      	b.n	8000bda <__aeabi_l2d+0x16>

08000bc4 <__aeabi_l2d>:
 8000bc4:	ea50 0201 	orrs.w	r2, r0, r1
 8000bc8:	bf08      	it	eq
 8000bca:	4770      	bxeq	lr
 8000bcc:	b530      	push	{r4, r5, lr}
 8000bce:	f011 4500 	ands.w	r5, r1, #2147483648	; 0x80000000
 8000bd2:	d502      	bpl.n	8000bda <__aeabi_l2d+0x16>
 8000bd4:	4240      	negs	r0, r0
 8000bd6:	eb61 0141 	sbc.w	r1, r1, r1, lsl #1
 8000bda:	f44f 6480 	mov.w	r4, #1024	; 0x400
 8000bde:	f104 0432 	add.w	r4, r4, #50	; 0x32
 8000be2:	ea5f 5c91 	movs.w	ip, r1, lsr #22
 8000be6:	f43f aedc 	beq.w	80009a2 <__adddf3+0xe6>
 8000bea:	f04f 0203 	mov.w	r2, #3
 8000bee:	ea5f 0cdc 	movs.w	ip, ip, lsr #3
 8000bf2:	bf18      	it	ne
 8000bf4:	3203      	addne	r2, #3
 8000bf6:	ea5f 0cdc 	movs.w	ip, ip, lsr #3
 8000bfa:	bf18      	it	ne
 8000bfc:	3203      	addne	r2, #3
 8000bfe:	eb02 02dc 	add.w	r2, r2, ip, lsr #3
 8000c02:	f1c2 0320 	rsb	r3, r2, #32
 8000c06:	fa00 fc03 	lsl.w	ip, r0, r3
 8000c0a:	fa20 f002 	lsr.w	r0, r0, r2
 8000c0e:	fa01 fe03 	lsl.w	lr, r1, r3
 8000c12:	ea40 000e 	orr.w	r0, r0, lr
 8000c16:	fa21 f102 	lsr.w	r1, r1, r2
 8000c1a:	4414      	add	r4, r2
 8000c1c:	e6c1      	b.n	80009a2 <__adddf3+0xe6>
 8000c1e:	bf00      	nop

08000c20 <__aeabi_dmul>:
 8000c20:	b570      	push	{r4, r5, r6, lr}
 8000c22:	f04f 0cff 	mov.w	ip, #255	; 0xff
 8000c26:	f44c 6ce0 	orr.w	ip, ip, #1792	; 0x700
 8000c2a:	ea1c 5411 	ands.w	r4, ip, r1, lsr #20
 8000c2e:	bf1d      	ittte	ne
 8000c30:	ea1c 5513 	andsne.w	r5, ip, r3, lsr #20
 8000c34:	ea94 0f0c 	teqne	r4, ip
 8000c38:	ea95 0f0c 	teqne	r5, ip
 8000c3c:	f000 f8de 	bleq	8000dfc <__aeabi_dmul+0x1dc>
 8000c40:	442c      	add	r4, r5
 8000c42:	ea81 0603 	eor.w	r6, r1, r3
 8000c46:	ea21 514c 	bic.w	r1, r1, ip, lsl #21
 8000c4a:	ea23 534c 	bic.w	r3, r3, ip, lsl #21
 8000c4e:	ea50 3501 	orrs.w	r5, r0, r1, lsl #12
 8000c52:	bf18      	it	ne
 8000c54:	ea52 3503 	orrsne.w	r5, r2, r3, lsl #12
 8000c58:	f441 1180 	orr.w	r1, r1, #1048576	; 0x100000
 8000c5c:	f443 1380 	orr.w	r3, r3, #1048576	; 0x100000
 8000c60:	d038      	beq.n	8000cd4 <__aeabi_dmul+0xb4>
 8000c62:	fba0 ce02 	umull	ip, lr, r0, r2
 8000c66:	f04f 0500 	mov.w	r5, #0
 8000c6a:	fbe1 e502 	umlal	lr, r5, r1, r2
 8000c6e:	f006 4200 	and.w	r2, r6, #2147483648	; 0x80000000
 8000c72:	fbe0 e503 	umlal	lr, r5, r0, r3
 8000c76:	f04f 0600 	mov.w	r6, #0
 8000c7a:	fbe1 5603 	umlal	r5, r6, r1, r3
 8000c7e:	f09c 0f00 	teq	ip, #0
 8000c82:	bf18      	it	ne
 8000c84:	f04e 0e01 	orrne.w	lr, lr, #1
 8000c88:	f1a4 04ff 	sub.w	r4, r4, #255	; 0xff
 8000c8c:	f5b6 7f00 	cmp.w	r6, #512	; 0x200
 8000c90:	f564 7440 	sbc.w	r4, r4, #768	; 0x300
 8000c94:	d204      	bcs.n	8000ca0 <__aeabi_dmul+0x80>
 8000c96:	ea5f 0e4e 	movs.w	lr, lr, lsl #1
 8000c9a:	416d      	adcs	r5, r5
 8000c9c:	eb46 0606 	adc.w	r6, r6, r6
 8000ca0:	ea42 21c6 	orr.w	r1, r2, r6, lsl #11
 8000ca4:	ea41 5155 	orr.w	r1, r1, r5, lsr #21
 8000ca8:	ea4f 20c5 	mov.w	r0, r5, lsl #11
 8000cac:	ea40 505e 	orr.w	r0, r0, lr, lsr #21
 8000cb0:	ea4f 2ece 	mov.w	lr, lr, lsl #11
 8000cb4:	f1b4 0cfd 	subs.w	ip, r4, #253	; 0xfd
 8000cb8:	bf88      	it	hi
 8000cba:	f5bc 6fe0 	cmphi.w	ip, #1792	; 0x700
 8000cbe:	d81e      	bhi.n	8000cfe <__aeabi_dmul+0xde>
 8000cc0:	f1be 4f00 	cmp.w	lr, #2147483648	; 0x80000000
 8000cc4:	bf08      	it	eq
 8000cc6:	ea5f 0e50 	movseq.w	lr, r0, lsr #1
 8000cca:	f150 0000 	adcs.w	r0, r0, #0
 8000cce:	eb41 5104 	adc.w	r1, r1, r4, lsl #20
 8000cd2:	bd70      	pop	{r4, r5, r6, pc}
 8000cd4:	f006 4600 	and.w	r6, r6, #2147483648	; 0x80000000
 8000cd8:	ea46 0101 	orr.w	r1, r6, r1
 8000cdc:	ea40 0002 	orr.w	r0, r0, r2
 8000ce0:	ea81 0103 	eor.w	r1, r1, r3
 8000ce4:	ebb4 045c 	subs.w	r4, r4, ip, lsr #1
 8000ce8:	bfc2      	ittt	gt
 8000cea:	ebd4 050c 	rsbsgt	r5, r4, ip
 8000cee:	ea41 5104 	orrgt.w	r1, r1, r4, lsl #20
 8000cf2:	bd70      	popgt	{r4, r5, r6, pc}
 8000cf4:	f441 1180 	orr.w	r1, r1, #1048576	; 0x100000
 8000cf8:	f04f 0e00 	mov.w	lr, #0
 8000cfc:	3c01      	subs	r4, #1
 8000cfe:	f300 80ab 	bgt.w	8000e58 <__aeabi_dmul+0x238>
 8000d02:	f114 0f36 	cmn.w	r4, #54	; 0x36
 8000d06:	bfde      	ittt	le
 8000d08:	2000      	movle	r0, #0
 8000d0a:	f001 4100 	andle.w	r1, r1, #2147483648	; 0x80000000
 8000d0e:	bd70      	pople	{r4, r5, r6, pc}
 8000d10:	f1c4 0400 	rsb	r4, r4, #0
 8000d14:	3c20      	subs	r4, #32
 8000d16:	da35      	bge.n	8000d84 <__aeabi_dmul+0x164>
 8000d18:	340c      	adds	r4, #12
 8000d1a:	dc1b      	bgt.n	8000d54 <__aeabi_dmul+0x134>
 8000d1c:	f104 0414 	add.w	r4, r4, #20
 8000d20:	f1c4 0520 	rsb	r5, r4, #32
 8000d24:	fa00 f305 	lsl.w	r3, r0, r5
 8000d28:	fa20 f004 	lsr.w	r0, r0, r4
 8000d2c:	fa01 f205 	lsl.w	r2, r1, r5
 8000d30:	ea40 0002 	orr.w	r0, r0, r2
 8000d34:	f001 4200 	and.w	r2, r1, #2147483648	; 0x80000000
 8000d38:	f021 4100 	bic.w	r1, r1, #2147483648	; 0x80000000
 8000d3c:	eb10 70d3 	adds.w	r0, r0, r3, lsr #31
 8000d40:	fa21 f604 	lsr.w	r6, r1, r4
 8000d44:	eb42 0106 	adc.w	r1, r2, r6
 8000d48:	ea5e 0e43 	orrs.w	lr, lr, r3, lsl #1
 8000d4c:	bf08      	it	eq
 8000d4e:	ea20 70d3 	biceq.w	r0, r0, r3, lsr #31
 8000d52:	bd70      	pop	{r4, r5, r6, pc}
 8000d54:	f1c4 040c 	rsb	r4, r4, #12
 8000d58:	f1c4 0520 	rsb	r5, r4, #32
 8000d5c:	fa00 f304 	lsl.w	r3, r0, r4
 8000d60:	fa20 f005 	lsr.w	r0, r0, r5
 8000d64:	fa01 f204 	lsl.w	r2, r1, r4
 8000d68:	ea40 0002 	orr.w	r0, r0, r2
 8000d6c:	f001 4100 	and.w	r1, r1, #2147483648	; 0x80000000
 8000d70:	eb10 70d3 	adds.w	r0, r0, r3, lsr #31
 8000d74:	f141 0100 	adc.w	r1, r1, #0
 8000d78:	ea5e 0e43 	orrs.w	lr, lr, r3, lsl #1
 8000d7c:	bf08      	it	eq
 8000d7e:	ea20 70d3 	biceq.w	r0, r0, r3, lsr #31
 8000d82:	bd70      	pop	{r4, r5, r6, pc}
 8000d84:	f1c4 0520 	rsb	r5, r4, #32
 8000d88:	fa00 f205 	lsl.w	r2, r0, r5
 8000d8c:	ea4e 0e02 	orr.w	lr, lr, r2
 8000d90:	fa20 f304 	lsr.w	r3, r0, r4
 8000d94:	fa01 f205 	lsl.w	r2, r1, r5
 8000d98:	ea43 0302 	orr.w	r3, r3, r2
 8000d9c:	fa21 f004 	lsr.w	r0, r1, r4
 8000da0:	f001 4100 	and.w	r1, r1, #2147483648	; 0x80000000
 8000da4:	fa21 f204 	lsr.w	r2, r1, r4
 8000da8:	ea20 0002 	bic.w	r0, r0, r2
 8000dac:	eb00 70d3 	add.w	r0, r0, r3, lsr #31
 8000db0:	ea5e 0e43 	orrs.w	lr, lr, r3, lsl #1
 8000db4:	bf08      	it	eq
 8000db6:	ea20 70d3 	biceq.w	r0, r0, r3, lsr #31
 8000dba:	bd70      	pop	{r4, r5, r6, pc}
 8000dbc:	f094 0f00 	teq	r4, #0
 8000dc0:	d10f      	bne.n	8000de2 <__aeabi_dmul+0x1c2>
 8000dc2:	f001 4600 	and.w	r6, r1, #2147483648	; 0x80000000
 8000dc6:	0040      	lsls	r0, r0, #1
 8000dc8:	eb41 0101 	adc.w	r1, r1, r1
 8000dcc:	f411 1f80 	tst.w	r1, #1048576	; 0x100000
 8000dd0:	bf08      	it	eq
 8000dd2:	3c01      	subeq	r4, #1
 8000dd4:	d0f7      	beq.n	8000dc6 <__aeabi_dmul+0x1a6>
 8000dd6:	ea41 0106 	orr.w	r1, r1, r6
 8000dda:	f095 0f00 	teq	r5, #0
 8000dde:	bf18      	it	ne
 8000de0:	4770      	bxne	lr
 8000de2:	f003 4600 	and.w	r6, r3, #2147483648	; 0x80000000
 8000de6:	0052      	lsls	r2, r2, #1
 8000de8:	eb43 0303 	adc.w	r3, r3, r3
 8000dec:	f413 1f80 	tst.w	r3, #1048576	; 0x100000
 8000df0:	bf08      	it	eq
 8000df2:	3d01      	subeq	r5, #1
 8000df4:	d0f7      	beq.n	8000de6 <__aeabi_dmul+0x1c6>
 8000df6:	ea43 0306 	orr.w	r3, r3, r6
 8000dfa:	4770      	bx	lr
 8000dfc:	ea94 0f0c 	teq	r4, ip
 8000e00:	ea0c 5513 	and.w	r5, ip, r3, lsr #20
 8000e04:	bf18      	it	ne
 8000e06:	ea95 0f0c 	teqne	r5, ip
 8000e0a:	d00c      	beq.n	8000e26 <__aeabi_dmul+0x206>
 8000e0c:	ea50 0641 	orrs.w	r6, r0, r1, lsl #1
 8000e10:	bf18      	it	ne
 8000e12:	ea52 0643 	orrsne.w	r6, r2, r3, lsl #1
 8000e16:	d1d1      	bne.n	8000dbc <__aeabi_dmul+0x19c>
 8000e18:	ea81 0103 	eor.w	r1, r1, r3
 8000e1c:	f001 4100 	and.w	r1, r1, #2147483648	; 0x80000000
 8000e20:	f04f 0000 	mov.w	r0, #0
 8000e24:	bd70      	pop	{r4, r5, r6, pc}
 8000e26:	ea50 0641 	orrs.w	r6, r0, r1, lsl #1
 8000e2a:	bf06      	itte	eq
 8000e2c:	4610      	moveq	r0, r2
 8000e2e:	4619      	moveq	r1, r3
 8000e30:	ea52 0643 	orrsne.w	r6, r2, r3, lsl #1
 8000e34:	d019      	beq.n	8000e6a <__aeabi_dmul+0x24a>
 8000e36:	ea94 0f0c 	teq	r4, ip
 8000e3a:	d102      	bne.n	8000e42 <__aeabi_dmul+0x222>
 8000e3c:	ea50 3601 	orrs.w	r6, r0, r1, lsl #12
 8000e40:	d113      	bne.n	8000e6a <__aeabi_dmul+0x24a>
 8000e42:	ea95 0f0c 	teq	r5, ip
 8000e46:	d105      	bne.n	8000e54 <__aeabi_dmul+0x234>
 8000e48:	ea52 3603 	orrs.w	r6, r2, r3, lsl #12
 8000e4c:	bf1c      	itt	ne
 8000e4e:	4610      	movne	r0, r2
 8000e50:	4619      	movne	r1, r3
 8000e52:	d10a      	bne.n	8000e6a <__aeabi_dmul+0x24a>
 8000e54:	ea81 0103 	eor.w	r1, r1, r3
 8000e58:	f001 4100 	and.w	r1, r1, #2147483648	; 0x80000000
 8000e5c:	f041 41fe 	orr.w	r1, r1, #2130706432	; 0x7f000000
 8000e60:	f441 0170 	orr.w	r1, r1, #15728640	; 0xf00000
 8000e64:	f04f 0000 	mov.w	r0, #0
 8000e68:	bd70      	pop	{r4, r5, r6, pc}
 8000e6a:	f041 41fe 	orr.w	r1, r1, #2130706432	; 0x7f000000
 8000e6e:	f441 0178 	orr.w	r1, r1, #16252928	; 0xf80000
 8000e72:	bd70      	pop	{r4, r5, r6, pc}

08000e74 <__aeabi_ddiv>:
 8000e74:	b570      	push	{r4, r5, r6, lr}
 8000e76:	f04f 0cff 	mov.w	ip, #255	; 0xff
 8000e7a:	f44c 6ce0 	orr.w	ip, ip, #1792	; 0x700
 8000e7e:	ea1c 5411 	ands.w	r4, ip, r1, lsr #20
 8000e82:	bf1d      	ittte	ne
 8000e84:	ea1c 5513 	andsne.w	r5, ip, r3, lsr #20
 8000e88:	ea94 0f0c 	teqne	r4, ip
 8000e8c:	ea95 0f0c 	teqne	r5, ip
 8000e90:	f000 f8a7 	bleq	8000fe2 <__aeabi_ddiv+0x16e>
 8000e94:	eba4 0405 	sub.w	r4, r4, r5
 8000e98:	ea81 0e03 	eor.w	lr, r1, r3
 8000e9c:	ea52 3503 	orrs.w	r5, r2, r3, lsl #12
 8000ea0:	ea4f 3101 	mov.w	r1, r1, lsl #12
 8000ea4:	f000 8088 	beq.w	8000fb8 <__aeabi_ddiv+0x144>
 8000ea8:	ea4f 3303 	mov.w	r3, r3, lsl #12
 8000eac:	f04f 5580 	mov.w	r5, #268435456	; 0x10000000
 8000eb0:	ea45 1313 	orr.w	r3, r5, r3, lsr #4
 8000eb4:	ea43 6312 	orr.w	r3, r3, r2, lsr #24
 8000eb8:	ea4f 2202 	mov.w	r2, r2, lsl #8
 8000ebc:	ea45 1511 	orr.w	r5, r5, r1, lsr #4
 8000ec0:	ea45 6510 	orr.w	r5, r5, r0, lsr #24
 8000ec4:	ea4f 2600 	mov.w	r6, r0, lsl #8
 8000ec8:	f00e 4100 	and.w	r1, lr, #2147483648	; 0x80000000
 8000ecc:	429d      	cmp	r5, r3
 8000ece:	bf08      	it	eq
 8000ed0:	4296      	cmpeq	r6, r2
 8000ed2:	f144 04fd 	adc.w	r4, r4, #253	; 0xfd
 8000ed6:	f504 7440 	add.w	r4, r4, #768	; 0x300
 8000eda:	d202      	bcs.n	8000ee2 <__aeabi_ddiv+0x6e>
 8000edc:	085b      	lsrs	r3, r3, #1
 8000ede:	ea4f 0232 	mov.w	r2, r2, rrx
 8000ee2:	1ab6      	subs	r6, r6, r2
 8000ee4:	eb65 0503 	sbc.w	r5, r5, r3
 8000ee8:	085b      	lsrs	r3, r3, #1
 8000eea:	ea4f 0232 	mov.w	r2, r2, rrx
 8000eee:	f44f 1080 	mov.w	r0, #1048576	; 0x100000
 8000ef2:	f44f 2c00 	mov.w	ip, #524288	; 0x80000
 8000ef6:	ebb6 0e02 	subs.w	lr, r6, r2
 8000efa:	eb75 0e03 	sbcs.w	lr, r5, r3
 8000efe:	bf22      	ittt	cs
 8000f00:	1ab6      	subcs	r6, r6, r2
 8000f02:	4675      	movcs	r5, lr
 8000f04:	ea40 000c 	orrcs.w	r0, r0, ip
 8000f08:	085b      	lsrs	r3, r3, #1
 8000f0a:	ea4f 0232 	mov.w	r2, r2, rrx
 8000f0e:	ebb6 0e02 	subs.w	lr, r6, r2
 8000f12:	eb75 0e03 	sbcs.w	lr, r5, r3
 8000f16:	bf22      	ittt	cs
 8000f18:	1ab6      	subcs	r6, r6, r2
 8000f1a:	4675      	movcs	r5, lr
 8000f1c:	ea40 005c 	orrcs.w	r0, r0, ip, lsr #1
 8000f20:	085b      	lsrs	r3, r3, #1
 8000f22:	ea4f 0232 	mov.w	r2, r2, rrx
 8000f26:	ebb6 0e02 	subs.w	lr, r6, r2
 8000f2a:	eb75 0e03 	sbcs.w	lr, r5, r3
 8000f2e:	bf22      	ittt	cs
 8000f30:	1ab6      	subcs	r6, r6, r2
 8000f32:	4675      	movcs	r5, lr
 8000f34:	ea40 009c 	orrcs.w	r0, r0, ip, lsr #2
 8000f38:	085b      	lsrs	r3, r3, #1
 8000f3a:	ea4f 0232 	mov.w	r2, r2, rrx
 8000f3e:	ebb6 0e02 	subs.w	lr, r6, r2
 8000f42:	eb75 0e03 	sbcs.w	lr, r5, r3
 8000f46:	bf22      	ittt	cs
 8000f48:	1ab6      	subcs	r6, r6, r2
 8000f4a:	4675      	movcs	r5, lr
 8000f4c:	ea40 00dc 	orrcs.w	r0, r0, ip, lsr #3
 8000f50:	ea55 0e06 	orrs.w	lr, r5, r6
 8000f54:	d018      	beq.n	8000f88 <__aeabi_ddiv+0x114>
 8000f56:	ea4f 1505 	mov.w	r5, r5, lsl #4
 8000f5a:	ea45 7516 	orr.w	r5, r5, r6, lsr #28
 8000f5e:	ea4f 1606 	mov.w	r6, r6, lsl #4
 8000f62:	ea4f 03c3 	mov.w	r3, r3, lsl #3
 8000f66:	ea43 7352 	orr.w	r3, r3, r2, lsr #29
 8000f6a:	ea4f 02c2 	mov.w	r2, r2, lsl #3
 8000f6e:	ea5f 1c1c 	movs.w	ip, ip, lsr #4
 8000f72:	d1c0      	bne.n	8000ef6 <__aeabi_ddiv+0x82>
 8000f74:	f411 1f80 	tst.w	r1, #1048576	; 0x100000
 8000f78:	d10b      	bne.n	8000f92 <__aeabi_ddiv+0x11e>
 8000f7a:	ea41 0100 	orr.w	r1, r1, r0
 8000f7e:	f04f 0000 	mov.w	r0, #0
 8000f82:	f04f 4c00 	mov.w	ip, #2147483648	; 0x80000000
 8000f86:	e7b6      	b.n	8000ef6 <__aeabi_ddiv+0x82>
 8000f88:	f411 1f80 	tst.w	r1, #1048576	; 0x100000
 8000f8c:	bf04      	itt	eq
 8000f8e:	4301      	orreq	r1, r0
 8000f90:	2000      	moveq	r0, #0
 8000f92:	f1b4 0cfd 	subs.w	ip, r4, #253	; 0xfd
 8000f96:	bf88      	it	hi
 8000f98:	f5bc 6fe0 	cmphi.w	ip, #1792	; 0x700
 8000f9c:	f63f aeaf 	bhi.w	8000cfe <__aeabi_dmul+0xde>
 8000fa0:	ebb5 0c03 	subs.w	ip, r5, r3
 8000fa4:	bf04      	itt	eq
 8000fa6:	ebb6 0c02 	subseq.w	ip, r6, r2
 8000faa:	ea5f 0c50 	movseq.w	ip, r0, lsr #1
 8000fae:	f150 0000 	adcs.w	r0, r0, #0
 8000fb2:	eb41 5104 	adc.w	r1, r1, r4, lsl #20
 8000fb6:	bd70      	pop	{r4, r5, r6, pc}
 8000fb8:	f00e 4e00 	and.w	lr, lr, #2147483648	; 0x80000000
 8000fbc:	ea4e 3111 	orr.w	r1, lr, r1, lsr #12
 8000fc0:	eb14 045c 	adds.w	r4, r4, ip, lsr #1
 8000fc4:	bfc2      	ittt	gt
 8000fc6:	ebd4 050c 	rsbsgt	r5, r4, ip
 8000fca:	ea41 5104 	orrgt.w	r1, r1, r4, lsl #20
 8000fce:	bd70      	popgt	{r4, r5, r6, pc}
 8000fd0:	f441 1180 	orr.w	r1, r1, #1048576	; 0x100000
 8000fd4:	f04f 0e00 	mov.w	lr, #0
 8000fd8:	3c01      	subs	r4, #1
 8000fda:	e690      	b.n	8000cfe <__aeabi_dmul+0xde>
 8000fdc:	ea45 0e06 	orr.w	lr, r5, r6
 8000fe0:	e68d      	b.n	8000cfe <__aeabi_dmul+0xde>
 8000fe2:	ea0c 5513 	and.w	r5, ip, r3, lsr #20
 8000fe6:	ea94 0f0c 	teq	r4, ip
 8000fea:	bf08      	it	eq
 8000fec:	ea95 0f0c 	teqeq	r5, ip
 8000ff0:	f43f af3b 	beq.w	8000e6a <__aeabi_dmul+0x24a>
 8000ff4:	ea94 0f0c 	teq	r4, ip
 8000ff8:	d10a      	bne.n	8001010 <__aeabi_ddiv+0x19c>
 8000ffa:	ea50 3401 	orrs.w	r4, r0, r1, lsl #12
 8000ffe:	f47f af34 	bne.w	8000e6a <__aeabi_dmul+0x24a>
 8001002:	ea95 0f0c 	teq	r5, ip
 8001006:	f47f af25 	bne.w	8000e54 <__aeabi_dmul+0x234>
 800100a:	4610      	mov	r0, r2
 800100c:	4619      	mov	r1, r3
 800100e:	e72c      	b.n	8000e6a <__aeabi_dmul+0x24a>
 8001010:	ea95 0f0c 	teq	r5, ip
 8001014:	d106      	bne.n	8001024 <__aeabi_ddiv+0x1b0>
 8001016:	ea52 3503 	orrs.w	r5, r2, r3, lsl #12
 800101a:	f43f aefd 	beq.w	8000e18 <__aeabi_dmul+0x1f8>
 800101e:	4610      	mov	r0, r2
 8001020:	4619      	mov	r1, r3
 8001022:	e722      	b.n	8000e6a <__aeabi_dmul+0x24a>
 8001024:	ea50 0641 	orrs.w	r6, r0, r1, lsl #1
 8001028:	bf18      	it	ne
 800102a:	ea52 0643 	orrsne.w	r6, r2, r3, lsl #1
 800102e:	f47f aec5 	bne.w	8000dbc <__aeabi_dmul+0x19c>
 8001032:	ea50 0441 	orrs.w	r4, r0, r1, lsl #1
 8001036:	f47f af0d 	bne.w	8000e54 <__aeabi_dmul+0x234>
 800103a:	ea52 0543 	orrs.w	r5, r2, r3, lsl #1
 800103e:	f47f aeeb 	bne.w	8000e18 <__aeabi_dmul+0x1f8>
 8001042:	e712      	b.n	8000e6a <__aeabi_dmul+0x24a>
	...

08001050 <__aeabi_d2iz>:
 8001050:	ea4f 0241 	mov.w	r2, r1, lsl #1
 8001054:	f512 1200 	adds.w	r2, r2, #2097152	; 0x200000
 8001058:	d215      	bcs.n	8001086 <__aeabi_d2iz+0x36>
 800105a:	d511      	bpl.n	8001080 <__aeabi_d2iz+0x30>
 800105c:	f46f 7378 	mvn.w	r3, #992	; 0x3e0
 8001060:	ebb3 5262 	subs.w	r2, r3, r2, asr #21
 8001064:	d912      	bls.n	800108c <__aeabi_d2iz+0x3c>
 8001066:	ea4f 23c1 	mov.w	r3, r1, lsl #11
 800106a:	f043 4300 	orr.w	r3, r3, #2147483648	; 0x80000000
 800106e:	ea43 5350 	orr.w	r3, r3, r0, lsr #21
 8001072:	f011 4f00 	tst.w	r1, #2147483648	; 0x80000000
 8001076:	fa23 f002 	lsr.w	r0, r3, r2
 800107a:	bf18      	it	ne
 800107c:	4240      	negne	r0, r0
 800107e:	4770      	bx	lr
 8001080:	f04f 0000 	mov.w	r0, #0
 8001084:	4770      	bx	lr
 8001086:	ea50 3001 	orrs.w	r0, r0, r1, lsl #12
 800108a:	d105      	bne.n	8001098 <__aeabi_d2iz+0x48>
 800108c:	f011 4000 	ands.w	r0, r1, #2147483648	; 0x80000000
 8001090:	bf08      	it	eq
 8001092:	f06f 4000 	mvneq.w	r0, #2147483648	; 0x80000000
 8001096:	4770      	bx	lr
 8001098:	f04f 0000 	mov.w	r0, #0
 800109c:	4770      	bx	lr
 800109e:	bf00      	nop

080010a0 <__aeabi_d2f>:
 80010a0:	ea4f 0241 	mov.w	r2, r1, lsl #1
 80010a4:	f1b2 43e0 	subs.w	r3, r2, #1879048192	; 0x70000000
 80010a8:	bf24      	itt	cs
 80010aa:	f5b3 1c00 	subscs.w	ip, r3, #2097152	; 0x200000
 80010ae:	f1dc 5cfe 	rsbscs	ip, ip, #532676608	; 0x1fc00000
 80010b2:	d90d      	bls.n	80010d0 <__aeabi_d2f+0x30>
 80010b4:	f001 4c00 	and.w	ip, r1, #2147483648	; 0x80000000
 80010b8:	ea4f 02c0 	mov.w	r2, r0, lsl #3
 80010bc:	ea4c 7050 	orr.w	r0, ip, r0, lsr #29
 80010c0:	f1b2 4f00 	cmp.w	r2, #2147483648	; 0x80000000
 80010c4:	eb40 0083 	adc.w	r0, r0, r3, lsl #2
 80010c8:	bf08      	it	eq
 80010ca:	f020 0001 	biceq.w	r0, r0, #1
 80010ce:	4770      	bx	lr
 80010d0:	f011 4f80 	tst.w	r1, #1073741824	; 0x40000000
 80010d4:	d121      	bne.n	800111a <__aeabi_d2f+0x7a>
 80010d6:	f113 7238 	adds.w	r2, r3, #48234496	; 0x2e00000
 80010da:	bfbc      	itt	lt
 80010dc:	f001 4000 	andlt.w	r0, r1, #2147483648	; 0x80000000
 80010e0:	4770      	bxlt	lr
 80010e2:	f441 1180 	orr.w	r1, r1, #1048576	; 0x100000
 80010e6:	ea4f 5252 	mov.w	r2, r2, lsr #21
 80010ea:	f1c2 0218 	rsb	r2, r2, #24
 80010ee:	f1c2 0c20 	rsb	ip, r2, #32
 80010f2:	fa10 f30c 	lsls.w	r3, r0, ip
 80010f6:	fa20 f002 	lsr.w	r0, r0, r2
 80010fa:	bf18      	it	ne
 80010fc:	f040 0001 	orrne.w	r0, r0, #1
 8001100:	ea4f 23c1 	mov.w	r3, r1, lsl #11
 8001104:	ea4f 23d3 	mov.w	r3, r3, lsr #11
 8001108:	fa03 fc0c 	lsl.w	ip, r3, ip
 800110c:	ea40 000c 	orr.w	r0, r0, ip
 8001110:	fa23 f302 	lsr.w	r3, r3, r2
 8001114:	ea4f 0343 	mov.w	r3, r3, lsl #1
 8001118:	e7cc      	b.n	80010b4 <__aeabi_d2f+0x14>
 800111a:	ea7f 5362 	mvns.w	r3, r2, asr #21
 800111e:	d107      	bne.n	8001130 <__aeabi_d2f+0x90>
 8001120:	ea50 3301 	orrs.w	r3, r0, r1, lsl #12
 8001124:	bf1e      	ittt	ne
 8001126:	f04f 40fe 	movne.w	r0, #2130706432	; 0x7f000000
 800112a:	f440 0040 	orrne.w	r0, r0, #12582912	; 0xc00000
 800112e:	4770      	bxne	lr
 8001130:	f001 4000 	and.w	r0, r1, #2147483648	; 0x80000000
 8001134:	f040 40fe 	orr.w	r0, r0, #2130706432	; 0x7f000000
 8001138:	f440 0000 	orr.w	r0, r0, #8388608	; 0x800000
 800113c:	4770      	bx	lr
 800113e:	bf00      	nop

08001140 <i2c_lld_serve_tx_end_irq.11398>:
 8001140:	f011 0f0c 	tst.w	r1, #12
 8001144:	b410      	push	{r4}
 8001146:	6b44      	ldr	r4, [r0, #52]	; 0x34
 8001148:	d114      	bne.n	8001174 <i2c_lld_serve_tx_end_irq.11398+0x34>
 800114a:	6b02      	ldr	r2, [r0, #48]	; 0x30
 800114c:	6813      	ldr	r3, [r2, #0]
 800114e:	6819      	ldr	r1, [r3, #0]
 8001150:	f021 011f 	bic.w	r1, r1, #31
 8001154:	6019      	str	r1, [r3, #0]
 8001156:	6819      	ldr	r1, [r3, #0]
 8001158:	07c9      	lsls	r1, r1, #31
 800115a:	d4fc      	bmi.n	8001156 <i2c_lld_serve_tx_end_irq.11398+0x16>
 800115c:	7a11      	ldrb	r1, [r2, #8]
 800115e:	6853      	ldr	r3, [r2, #4]
 8001160:	223d      	movs	r2, #61	; 0x3d
 8001162:	408a      	lsls	r2, r1
 8001164:	601a      	str	r2, [r3, #0]
 8001166:	6863      	ldr	r3, [r4, #4]
 8001168:	f443 7300 	orr.w	r3, r3, #512	; 0x200
 800116c:	6063      	str	r3, [r4, #4]
 800116e:	f85d 4b04 	ldr.w	r4, [sp], #4
 8001172:	4770      	bx	lr
 8001174:	b672      	cpsid	i
 8001176:	4b02      	ldr	r3, [pc, #8]	; (8001180 <i2c_lld_serve_tx_end_irq.11398+0x40>)
 8001178:	4a02      	ldr	r2, [pc, #8]	; (8001184 <i2c_lld_serve_tx_end_irq.11398+0x44>)
 800117a:	62da      	str	r2, [r3, #44]	; 0x2c
 800117c:	e7fe      	b.n	800117c <i2c_lld_serve_tx_end_irq.11398+0x3c>
 800117e:	bf00      	nop
 8001180:	20002cd4 	.word	0x20002cd4
 8001184:	08003ba0 	.word	0x08003ba0
 8001188:	f3af 8000 	nop.w
 800118c:	f3af 8000 	nop.w

08001190 <notify6.12011>:
 8001190:	4b02      	ldr	r3, [pc, #8]	; (800119c <notify6.12011+0xc>)
 8001192:	68da      	ldr	r2, [r3, #12]
 8001194:	f042 0280 	orr.w	r2, r2, #128	; 0x80
 8001198:	60da      	str	r2, [r3, #12]
 800119a:	4770      	bx	lr
 800119c:	40011400 	.word	0x40011400

080011a0 <notify2.12014>:
 80011a0:	4b02      	ldr	r3, [pc, #8]	; (80011ac <notify2.12014+0xc>)
 80011a2:	68da      	ldr	r2, [r3, #12]
 80011a4:	f042 0280 	orr.w	r2, r2, #128	; 0x80
 80011a8:	60da      	str	r2, [r3, #12]
 80011aa:	4770      	bx	lr
 80011ac:	40004400 	.word	0x40004400

080011b0 <_pal_lld_setgroupmode.4362>:
 80011b0:	e92d 0ff0 	stmdb	sp!, {r4, r5, r6, r7, r8, r9, sl, fp}
 80011b4:	2300      	movs	r3, #0
 80011b6:	f002 0703 	and.w	r7, r2, #3
 80011ba:	f3c2 0680 	ubfx	r6, r2, #2, #1
 80011be:	f3c2 05c1 	ubfx	r5, r2, #3, #2
 80011c2:	f3c2 1441 	ubfx	r4, r2, #5, #2
 80011c6:	f04f 090f 	mov.w	r9, #15
 80011ca:	f3c2 12c3 	ubfx	r2, r2, #7, #4
 80011ce:	f04f 0a01 	mov.w	sl, #1
 80011d2:	e038      	b.n	8001246 <_pal_lld_setgroupmode.4362+0x96>
 80011d4:	f8d0 b020 	ldr.w	fp, [r0, #32]
 80011d8:	ea2b 0c0c 	bic.w	ip, fp, ip
 80011dc:	ea4c 0808 	orr.w	r8, ip, r8
 80011e0:	f8c0 8020 	str.w	r8, [r0, #32]
 80011e4:	f8d0 c004 	ldr.w	ip, [r0, #4]
 80011e8:	fa0a f803 	lsl.w	r8, sl, r3
 80011ec:	ea2c 0c08 	bic.w	ip, ip, r8
 80011f0:	ea4c 0c06 	orr.w	ip, ip, r6
 80011f4:	f8c0 c004 	str.w	ip, [r0, #4]
 80011f8:	f04f 0b03 	mov.w	fp, #3
 80011fc:	ea4f 0c43 	mov.w	ip, r3, lsl #1
 8001200:	f8d0 8008 	ldr.w	r8, [r0, #8]
 8001204:	fa0b fc0c 	lsl.w	ip, fp, ip
 8001208:	ea6f 0c0c 	mvn.w	ip, ip
 800120c:	ea0c 0808 	and.w	r8, ip, r8
 8001210:	ea48 0805 	orr.w	r8, r8, r5
 8001214:	f8c0 8008 	str.w	r8, [r0, #8]
 8001218:	f8d0 800c 	ldr.w	r8, [r0, #12]
 800121c:	ea0c 0808 	and.w	r8, ip, r8
 8001220:	ea48 0804 	orr.w	r8, r8, r4
 8001224:	f8c0 800c 	str.w	r8, [r0, #12]
 8001228:	f8d0 8000 	ldr.w	r8, [r0]
 800122c:	ea0c 0c08 	and.w	ip, ip, r8
 8001230:	ea4c 0c07 	orr.w	ip, ip, r7
 8001234:	f8c0 c000 	str.w	ip, [r0]
 8001238:	0849      	lsrs	r1, r1, #1
 800123a:	d01a      	beq.n	8001272 <_pal_lld_setgroupmode.4362+0xc2>
 800123c:	0076      	lsls	r6, r6, #1
 800123e:	00ad      	lsls	r5, r5, #2
 8001240:	00a4      	lsls	r4, r4, #2
 8001242:	00bf      	lsls	r7, r7, #2
 8001244:	3301      	adds	r3, #1
 8001246:	f003 0c07 	and.w	ip, r3, #7
 800124a:	ea4f 0c8c 	mov.w	ip, ip, lsl #2
 800124e:	f011 0f01 	tst.w	r1, #1
 8001252:	fa02 f80c 	lsl.w	r8, r2, ip
 8001256:	fa09 fc0c 	lsl.w	ip, r9, ip
 800125a:	d0ed      	beq.n	8001238 <_pal_lld_setgroupmode.4362+0x88>
 800125c:	2b07      	cmp	r3, #7
 800125e:	d9b9      	bls.n	80011d4 <_pal_lld_setgroupmode.4362+0x24>
 8001260:	f8d0 b024 	ldr.w	fp, [r0, #36]	; 0x24
 8001264:	ea2b 0c0c 	bic.w	ip, fp, ip
 8001268:	ea4c 0808 	orr.w	r8, ip, r8
 800126c:	f8c0 8024 	str.w	r8, [r0, #36]	; 0x24
 8001270:	e7b8      	b.n	80011e4 <_pal_lld_setgroupmode.4362+0x34>
 8001272:	e8bd 0ff0 	ldmia.w	sp!, {r4, r5, r6, r7, r8, r9, sl, fp}
 8001276:	4770      	bx	lr
 8001278:	f3af 8000 	nop.w
 800127c:	f3af 8000 	nop.w

08001280 <adc_lld_stop_conversion.4457>:
 8001280:	6ac1      	ldr	r1, [r0, #44]	; 0x2c
 8001282:	680a      	ldr	r2, [r1, #0]
 8001284:	6813      	ldr	r3, [r2, #0]
 8001286:	f023 031f 	bic.w	r3, r3, #31
 800128a:	b410      	push	{r4}
 800128c:	6013      	str	r3, [r2, #0]
 800128e:	6813      	ldr	r3, [r2, #0]
 8001290:	f013 0301 	ands.w	r3, r3, #1
 8001294:	d1fb      	bne.n	800128e <adc_lld_stop_conversion.4457+0xe>
 8001296:	7a0c      	ldrb	r4, [r1, #8]
 8001298:	6a82      	ldr	r2, [r0, #40]	; 0x28
 800129a:	6848      	ldr	r0, [r1, #4]
 800129c:	213d      	movs	r1, #61	; 0x3d
 800129e:	fa01 f404 	lsl.w	r4, r1, r4
 80012a2:	2101      	movs	r1, #1
 80012a4:	6004      	str	r4, [r0, #0]
 80012a6:	6053      	str	r3, [r2, #4]
 80012a8:	f85d 4b04 	ldr.w	r4, [sp], #4
 80012ac:	6093      	str	r3, [r2, #8]
 80012ae:	6091      	str	r1, [r2, #8]
 80012b0:	4770      	bx	lr
 80012b2:	bf00      	nop
 80012b4:	f3af 8000 	nop.w
 80012b8:	f3af 8000 	nop.w
 80012bc:	f3af 8000 	nop.w

080012c0 <chCoreAlloc>:
 80012c0:	2320      	movs	r3, #32
 80012c2:	f383 8811 	msr	BASEPRI, r3
 80012c6:	4a09      	ldr	r2, [pc, #36]	; (80012ec <chCoreAlloc+0x2c>)
 80012c8:	4909      	ldr	r1, [pc, #36]	; (80012f0 <chCoreAlloc+0x30>)
 80012ca:	6813      	ldr	r3, [r2, #0]
 80012cc:	6809      	ldr	r1, [r1, #0]
 80012ce:	3007      	adds	r0, #7
 80012d0:	f020 0007 	bic.w	r0, r0, #7
 80012d4:	1ac9      	subs	r1, r1, r3
 80012d6:	4288      	cmp	r0, r1
 80012d8:	bf9b      	ittet	ls
 80012da:	18c0      	addls	r0, r0, r3
 80012dc:	6010      	strls	r0, [r2, #0]
 80012de:	2000      	movhi	r0, #0
 80012e0:	4618      	movls	r0, r3
 80012e2:	2300      	movs	r3, #0
 80012e4:	f383 8811 	msr	BASEPRI, r3
 80012e8:	4770      	bx	lr
 80012ea:	bf00      	nop
 80012ec:	20000810 	.word	0x20000810
 80012f0:	200016d0 	.word	0x200016d0
 80012f4:	f3af 8000 	nop.w
 80012f8:	f3af 8000 	nop.w
 80012fc:	f3af 8000 	nop.w

08001300 <wakeup.4718>:
 8001300:	b410      	push	{r4}
 8001302:	2320      	movs	r3, #32
 8001304:	f383 8811 	msr	BASEPRI, r3
 8001308:	7f03      	ldrb	r3, [r0, #28]
 800130a:	2b07      	cmp	r3, #7
 800130c:	d80e      	bhi.n	800132c <wakeup.4718+0x2c>
 800130e:	e8df f003 	tbb	[pc, r3]
 8001312:	0d27      	.short	0x0d27
 8001314:	0408230d 	.word	0x0408230d
 8001318:	080d      	.short	0x080d
 800131a:	6a03      	ldr	r3, [r0, #32]
 800131c:	689a      	ldr	r2, [r3, #8]
 800131e:	3201      	adds	r2, #1
 8001320:	609a      	str	r2, [r3, #8]
 8001322:	e890 000c 	ldmia.w	r0, {r2, r3}
 8001326:	601a      	str	r2, [r3, #0]
 8001328:	6802      	ldr	r2, [r0, #0]
 800132a:	6053      	str	r3, [r2, #4]
 800132c:	f04f 34ff 	mov.w	r4, #4294967295	; 0xffffffff
 8001330:	2200      	movs	r2, #0
 8001332:	6881      	ldr	r1, [r0, #8]
 8001334:	4b0d      	ldr	r3, [pc, #52]	; (800136c <wakeup.4718+0x6c>)
 8001336:	6204      	str	r4, [r0, #32]
 8001338:	7702      	strb	r2, [r0, #28]
 800133a:	681b      	ldr	r3, [r3, #0]
 800133c:	689a      	ldr	r2, [r3, #8]
 800133e:	428a      	cmp	r2, r1
 8001340:	d2fb      	bcs.n	800133a <wakeup.4718+0x3a>
 8001342:	685a      	ldr	r2, [r3, #4]
 8001344:	6042      	str	r2, [r0, #4]
 8001346:	6003      	str	r3, [r0, #0]
 8001348:	2100      	movs	r1, #0
 800134a:	6058      	str	r0, [r3, #4]
 800134c:	6010      	str	r0, [r2, #0]
 800134e:	f381 8811 	msr	BASEPRI, r1
 8001352:	f85d 4b04 	ldr.w	r4, [sp], #4
 8001356:	4770      	bx	lr
 8001358:	6a03      	ldr	r3, [r0, #32]
 800135a:	2200      	movs	r2, #0
 800135c:	601a      	str	r2, [r3, #0]
 800135e:	e7e5      	b.n	800132c <wakeup.4718+0x2c>
 8001360:	2300      	movs	r3, #0
 8001362:	f383 8811 	msr	BASEPRI, r3
 8001366:	f85d 4b04 	ldr.w	r4, [sp], #4
 800136a:	4770      	bx	lr
 800136c:	20002cd4 	.word	0x20002cd4

08001370 <_idle_thread.4338>:
 8001370:	4b02      	ldr	r3, [pc, #8]	; (800137c <_idle_thread.4338+0xc>)
 8001372:	4a03      	ldr	r2, [pc, #12]	; (8001380 <_idle_thread.4338+0x10>)
 8001374:	699b      	ldr	r3, [r3, #24]
 8001376:	619a      	str	r2, [r3, #24]
 8001378:	e7fe      	b.n	8001378 <_idle_thread.4338+0x8>
 800137a:	bf00      	nop
 800137c:	20002cd4 	.word	0x20002cd4
 8001380:	08003bac 	.word	0x08003bac
 8001384:	f3af 8000 	nop.w
 8001388:	f3af 8000 	nop.w
 800138c:	f3af 8000 	nop.w

08001390 <SVC_Handler>:
 8001390:	4b06      	ldr	r3, [pc, #24]	; (80013ac <SVC_Handler+0x1c>)
 8001392:	685a      	ldr	r2, [r3, #4]
 8001394:	f022 0201 	bic.w	r2, r2, #1
 8001398:	605a      	str	r2, [r3, #4]
 800139a:	f3ef 8309 	mrs	r3, PSP
 800139e:	3368      	adds	r3, #104	; 0x68
 80013a0:	f383 8809 	msr	PSP, r3
 80013a4:	2300      	movs	r3, #0
 80013a6:	f383 8811 	msr	BASEPRI, r3
 80013aa:	4770      	bx	lr
 80013ac:	e000ef30 	.word	0xe000ef30

080013b0 <chSchWakeupS.constprop.28>:
 80013b0:	f8df c058 	ldr.w	ip, [pc, #88]	; 800140c <chSchWakeupS.constprop.28+0x5c>
 80013b4:	b4f0      	push	{r4, r5, r6, r7}
 80013b6:	f8dc 7018 	ldr.w	r7, [ip, #24]
 80013ba:	6885      	ldr	r5, [r0, #8]
 80013bc:	68bc      	ldr	r4, [r7, #8]
 80013be:	2300      	movs	r3, #0
 80013c0:	42a5      	cmp	r5, r4
 80013c2:	4606      	mov	r6, r0
 80013c4:	6203      	str	r3, [r0, #32]
 80013c6:	d80c      	bhi.n	80013e2 <chSchWakeupS.constprop.28+0x32>
 80013c8:	7703      	strb	r3, [r0, #28]
 80013ca:	4663      	mov	r3, ip
 80013cc:	681b      	ldr	r3, [r3, #0]
 80013ce:	689a      	ldr	r2, [r3, #8]
 80013d0:	4295      	cmp	r5, r2
 80013d2:	d9fb      	bls.n	80013cc <chSchWakeupS.constprop.28+0x1c>
 80013d4:	685a      	ldr	r2, [r3, #4]
 80013d6:	6072      	str	r2, [r6, #4]
 80013d8:	6033      	str	r3, [r6, #0]
 80013da:	605e      	str	r6, [r3, #4]
 80013dc:	6016      	str	r6, [r2, #0]
 80013de:	bcf0      	pop	{r4, r5, r6, r7}
 80013e0:	4770      	bx	lr
 80013e2:	773b      	strb	r3, [r7, #28]
 80013e4:	4663      	mov	r3, ip
 80013e6:	681b      	ldr	r3, [r3, #0]
 80013e8:	689a      	ldr	r2, [r3, #8]
 80013ea:	4294      	cmp	r4, r2
 80013ec:	d9fb      	bls.n	80013e6 <chSchWakeupS.constprop.28+0x36>
 80013ee:	685a      	ldr	r2, [r3, #4]
 80013f0:	607a      	str	r2, [r7, #4]
 80013f2:	2401      	movs	r4, #1
 80013f4:	603b      	str	r3, [r7, #0]
 80013f6:	605f      	str	r7, [r3, #4]
 80013f8:	6017      	str	r7, [r2, #0]
 80013fa:	7734      	strb	r4, [r6, #28]
 80013fc:	4639      	mov	r1, r7
 80013fe:	4630      	mov	r0, r6
 8001400:	f8cc 6018 	str.w	r6, [ip, #24]
 8001404:	bcf0      	pop	{r4, r5, r6, r7}
 8001406:	f7ff ba3b 	b.w	8000880 <_port_switch>
 800140a:	bf00      	nop
 800140c:	20002cd4 	.word	0x20002cd4

08001410 <chTMStartMeasurementX.constprop.24>:
 8001410:	4b01      	ldr	r3, [pc, #4]	; (8001418 <chTMStartMeasurementX.constprop.24+0x8>)
 8001412:	685b      	ldr	r3, [r3, #4]
 8001414:	6083      	str	r3, [r0, #8]
 8001416:	4770      	bx	lr
 8001418:	e0001000 	.word	0xe0001000
 800141c:	f3af 8000 	nop.w

08001420 <sdObjectInit.constprop.20>:
 8001420:	e92d 03f0 	stmdb	sp!, {r4, r5, r6, r7, r8, r9}
 8001424:	4604      	mov	r4, r0
 8001426:	4b16      	ldr	r3, [pc, #88]	; (8001480 <sdObjectInit.constprop.20+0x60>)
 8001428:	f844 3b04 	str.w	r3, [r4], #4
 800142c:	f100 0254 	add.w	r2, r0, #84	; 0x54
 8001430:	f500 7315 	add.w	r3, r0, #596	; 0x254
 8001434:	f100 070c 	add.w	r7, r0, #12
 8001438:	f100 0630 	add.w	r6, r0, #48	; 0x30
 800143c:	2500      	movs	r5, #0
 800143e:	f04f 0901 	mov.w	r9, #1
 8001442:	f44f 7800 	mov.w	r8, #512	; 0x200
 8001446:	f200 4c54 	addw	ip, r0, #1108	; 0x454
 800144a:	6044      	str	r4, [r0, #4]
 800144c:	f880 9008 	strb.w	r9, [r0, #8]
 8001450:	f8c0 8038 	str.w	r8, [r0, #56]	; 0x38
 8001454:	6107      	str	r7, [r0, #16]
 8001456:	60c7      	str	r7, [r0, #12]
 8001458:	6346      	str	r6, [r0, #52]	; 0x34
 800145a:	6306      	str	r6, [r0, #48]	; 0x30
 800145c:	6145      	str	r5, [r0, #20]
 800145e:	6285      	str	r5, [r0, #40]	; 0x28
 8001460:	62c0      	str	r0, [r0, #44]	; 0x2c
 8001462:	64c1      	str	r1, [r0, #76]	; 0x4c
 8001464:	6500      	str	r0, [r0, #80]	; 0x50
 8001466:	f8c0 c040 	str.w	ip, [r0, #64]	; 0x40
 800146a:	6202      	str	r2, [r0, #32]
 800146c:	6242      	str	r2, [r0, #36]	; 0x24
 800146e:	6182      	str	r2, [r0, #24]
 8001470:	61c3      	str	r3, [r0, #28]
 8001472:	6443      	str	r3, [r0, #68]	; 0x44
 8001474:	6483      	str	r3, [r0, #72]	; 0x48
 8001476:	63c3      	str	r3, [r0, #60]	; 0x3c
 8001478:	e8bd 03f0 	ldmia.w	sp!, {r4, r5, r6, r7, r8, r9}
 800147c:	4770      	bx	lr
 800147e:	bf00      	nop
 8001480:	08003cf0 	.word	0x08003cf0
 8001484:	f3af 8000 	nop.w
 8001488:	f3af 8000 	nop.w
 800148c:	f3af 8000 	nop.w

08001490 <uStrCpy.constprop.2>:
 8001490:	b430      	push	{r4, r5}
 8001492:	4d0b      	ldr	r5, [pc, #44]	; (80014c0 <uStrCpy.constprop.2+0x30>)
 8001494:	7829      	ldrb	r1, [r5, #0]
 8001496:	b181      	cbz	r1, 80014ba <uStrCpy.constprop.2+0x2a>
 8001498:	462b      	mov	r3, r5
 800149a:	2200      	movs	r2, #0
 800149c:	f813 4f01 	ldrb.w	r4, [r3, #1]!
 80014a0:	3201      	adds	r2, #1
 80014a2:	2c00      	cmp	r4, #0
 80014a4:	d1fa      	bne.n	800149c <uStrCpy.constprop.2+0xc>
 80014a6:	2300      	movs	r3, #0
 80014a8:	e000      	b.n	80014ac <uStrCpy.constprop.2+0x1c>
 80014aa:	5ce9      	ldrb	r1, [r5, r3]
 80014ac:	1c5c      	adds	r4, r3, #1
 80014ae:	54c1      	strb	r1, [r0, r3]
 80014b0:	b2a3      	uxth	r3, r4
 80014b2:	429a      	cmp	r2, r3
 80014b4:	daf9      	bge.n	80014aa <uStrCpy.constprop.2+0x1a>
 80014b6:	bc30      	pop	{r4, r5}
 80014b8:	4770      	bx	lr
 80014ba:	460a      	mov	r2, r1
 80014bc:	e7f3      	b.n	80014a6 <uStrCpy.constprop.2+0x16>
 80014be:	bf00      	nop
 80014c0:	20002828 	.word	0x20002828
 80014c4:	f3af 8000 	nop.w
 80014c8:	f3af 8000 	nop.w
 80014cc:	f3af 8000 	nop.w

080014d0 <uStrInsertChar.constprop.1>:
 80014d0:	b410      	push	{r4}
 80014d2:	4c0e      	ldr	r4, [pc, #56]	; (800150c <uStrInsertChar.constprop.1+0x3c>)
 80014d4:	7823      	ldrb	r3, [r4, #0]
 80014d6:	b1b3      	cbz	r3, 8001506 <uStrInsertChar.constprop.1+0x36>
 80014d8:	4622      	mov	r2, r4
 80014da:	2300      	movs	r3, #0
 80014dc:	f812 1f01 	ldrb.w	r1, [r2, #1]!
 80014e0:	3301      	adds	r3, #1
 80014e2:	2900      	cmp	r1, #0
 80014e4:	d1fa      	bne.n	80014dc <uStrInsertChar.constprop.1+0xc>
 80014e6:	3301      	adds	r3, #1
 80014e8:	4298      	cmp	r0, r3
 80014ea:	da07      	bge.n	80014fc <uStrInsertChar.constprop.1+0x2c>
 80014ec:	4423      	add	r3, r4
 80014ee:	1821      	adds	r1, r4, r0
 80014f0:	f813 2c01 	ldrb.w	r2, [r3, #-1]
 80014f4:	f803 2901 	strb.w	r2, [r3], #-1
 80014f8:	428b      	cmp	r3, r1
 80014fa:	d1f9      	bne.n	80014f0 <uStrInsertChar.constprop.1+0x20>
 80014fc:	2320      	movs	r3, #32
 80014fe:	5423      	strb	r3, [r4, r0]
 8001500:	f85d 4b04 	ldr.w	r4, [sp], #4
 8001504:	4770      	bx	lr
 8001506:	2301      	movs	r3, #1
 8001508:	e7ee      	b.n	80014e8 <uStrInsertChar.constprop.1+0x18>
 800150a:	bf00      	nop
 800150c:	20002828 	.word	0x20002828

08001510 <uStrPrependChar>:
 8001510:	7803      	ldrb	r3, [r0, #0]
 8001512:	b410      	push	{r4}
 8001514:	b193      	cbz	r3, 800153c <uStrPrependChar+0x2c>
 8001516:	4602      	mov	r2, r0
 8001518:	2300      	movs	r3, #0
 800151a:	f812 4f01 	ldrb.w	r4, [r2, #1]!
 800151e:	3301      	adds	r3, #1
 8001520:	2c00      	cmp	r4, #0
 8001522:	d1fa      	bne.n	800151a <uStrPrependChar+0xa>
 8001524:	3301      	adds	r3, #1
 8001526:	18c2      	adds	r2, r0, r3
 8001528:	f812 4c01 	ldrb.w	r4, [r2, #-1]
 800152c:	f802 4901 	strb.w	r4, [r2], #-1
 8001530:	3b01      	subs	r3, #1
 8001532:	d1f9      	bne.n	8001528 <uStrPrependChar+0x18>
 8001534:	7001      	strb	r1, [r0, #0]
 8001536:	f85d 4b04 	ldr.w	r4, [sp], #4
 800153a:	4770      	bx	lr
 800153c:	2301      	movs	r3, #1
 800153e:	e7f2      	b.n	8001526 <uStrPrependChar+0x16>

08001540 <long_to_string_with_divisor.13049>:
 8001540:	b4f0      	push	{r4, r5, r6, r7}
 8001542:	2b00      	cmp	r3, #0
 8001544:	bf08      	it	eq
 8001546:	460b      	moveq	r3, r1
 8001548:	f100 070b 	add.w	r7, r0, #11
 800154c:	f100 050a 	add.w	r5, r0, #10
 8001550:	fbb1 f6f2 	udiv	r6, r1, r2
 8001554:	fb02 1116 	mls	r1, r2, r6, r1
 8001558:	f101 0430 	add.w	r4, r1, #48	; 0x30
 800155c:	2c39      	cmp	r4, #57	; 0x39
 800155e:	bfc8      	it	gt
 8001560:	f101 0437 	addgt.w	r4, r1, #55	; 0x37
 8001564:	b2e4      	uxtb	r4, r4
 8001566:	fbb3 f3f2 	udiv	r3, r3, r2
 800156a:	4631      	mov	r1, r6
 800156c:	462e      	mov	r6, r5
 800156e:	f805 4901 	strb.w	r4, [r5], #-1
 8001572:	2b00      	cmp	r3, #0
 8001574:	d1ec      	bne.n	8001550 <long_to_string_with_divisor.13049+0x10>
 8001576:	1bba      	subs	r2, r7, r6
 8001578:	4633      	mov	r3, r6
 800157a:	4402      	add	r2, r0
 800157c:	e001      	b.n	8001582 <long_to_string_with_divisor.13049+0x42>
 800157e:	f813 4f01 	ldrb.w	r4, [r3, #1]!
 8001582:	f800 4b01 	strb.w	r4, [r0], #1
 8001586:	4290      	cmp	r0, r2
 8001588:	d1f9      	bne.n	800157e <long_to_string_with_divisor.13049+0x3e>
 800158a:	bcf0      	pop	{r4, r5, r6, r7}
 800158c:	4770      	bx	lr
 800158e:	bf00      	nop

08001590 <boardInit>:
 8001590:	b570      	push	{r4, r5, r6, lr}
 8001592:	4c36      	ldr	r4, [pc, #216]	; (800166c <boardInit+0xdc>)
 8001594:	4d36      	ldr	r5, [pc, #216]	; (8001670 <boardInit+0xe0>)
 8001596:	4e37      	ldr	r6, [pc, #220]	; (8001674 <boardInit+0xe4>)
 8001598:	4620      	mov	r0, r4
 800159a:	2140      	movs	r1, #64	; 0x40
 800159c:	f240 4202 	movw	r2, #1026	; 0x402
 80015a0:	f7ff fe06 	bl	80011b0 <_pal_lld_setgroupmode.4362>
 80015a4:	4620      	mov	r0, r4
 80015a6:	2180      	movs	r1, #128	; 0x80
 80015a8:	f240 4202 	movw	r2, #1026	; 0x402
 80015ac:	f7ff fe00 	bl	80011b0 <_pal_lld_setgroupmode.4362>
 80015b0:	4628      	mov	r0, r5
 80015b2:	2140      	movs	r1, #64	; 0x40
 80015b4:	f240 3282 	movw	r2, #898	; 0x382
 80015b8:	f7ff fdfa 	bl	80011b0 <_pal_lld_setgroupmode.4362>
 80015bc:	4628      	mov	r0, r5
 80015be:	2180      	movs	r1, #128	; 0x80
 80015c0:	f240 3282 	movw	r2, #898	; 0x382
 80015c4:	f7ff fdf4 	bl	80011b0 <_pal_lld_setgroupmode.4362>
 80015c8:	4630      	mov	r0, r6
 80015ca:	2104      	movs	r1, #4
 80015cc:	f240 3282 	movw	r2, #898	; 0x382
 80015d0:	f7ff fdee 	bl	80011b0 <_pal_lld_setgroupmode.4362>
 80015d4:	4630      	mov	r0, r6
 80015d6:	2108      	movs	r1, #8
 80015d8:	f240 3282 	movw	r2, #898	; 0x382
 80015dc:	f7ff fde8 	bl	80011b0 <_pal_lld_setgroupmode.4362>
 80015e0:	4628      	mov	r0, r5
 80015e2:	2180      	movs	r1, #128	; 0x80
 80015e4:	f240 2202 	movw	r2, #514	; 0x202
 80015e8:	f7ff fde2 	bl	80011b0 <_pal_lld_setgroupmode.4362>
 80015ec:	4628      	mov	r0, r5
 80015ee:	2140      	movs	r1, #64	; 0x40
 80015f0:	f240 2202 	movw	r2, #514	; 0x202
 80015f4:	f7ff fddc 	bl	80011b0 <_pal_lld_setgroupmode.4362>
 80015f8:	4620      	mov	r0, r4
 80015fa:	f44f 7100 	mov.w	r1, #512	; 0x200
 80015fe:	f240 2202 	movw	r2, #514	; 0x202
 8001602:	f7ff fdd5 	bl	80011b0 <_pal_lld_setgroupmode.4362>
 8001606:	4630      	mov	r0, r6
 8001608:	f44f 7180 	mov.w	r1, #256	; 0x100
 800160c:	f240 2202 	movw	r2, #514	; 0x202
 8001610:	f7ff fdce 	bl	80011b0 <_pal_lld_setgroupmode.4362>
 8001614:	4628      	mov	r0, r5
 8001616:	2108      	movs	r1, #8
 8001618:	2219      	movs	r2, #25
 800161a:	f7ff fdc9 	bl	80011b0 <_pal_lld_setgroupmode.4362>
 800161e:	4628      	mov	r0, r5
 8001620:	2120      	movs	r1, #32
 8001622:	2219      	movs	r2, #25
 8001624:	f7ff fdc4 	bl	80011b0 <_pal_lld_setgroupmode.4362>
 8001628:	4630      	mov	r0, r6
 800162a:	f44f 4100 	mov.w	r1, #32768	; 0x8000
 800162e:	2219      	movs	r2, #25
 8001630:	f7ff fdbe 	bl	80011b0 <_pal_lld_setgroupmode.4362>
 8001634:	4810      	ldr	r0, [pc, #64]	; (8001678 <boardInit+0xe8>)
 8001636:	2104      	movs	r1, #4
 8001638:	2220      	movs	r2, #32
 800163a:	f7ff fdb9 	bl	80011b0 <_pal_lld_setgroupmode.4362>
 800163e:	4620      	mov	r0, r4
 8001640:	f44f 6180 	mov.w	r1, #1024	; 0x400
 8001644:	f240 229a 	movw	r2, #666	; 0x29a
 8001648:	f7ff fdb2 	bl	80011b0 <_pal_lld_setgroupmode.4362>
 800164c:	4620      	mov	r0, r4
 800164e:	f44f 5180 	mov.w	r1, #4096	; 0x1000
 8001652:	f240 229a 	movw	r2, #666	; 0x29a
 8001656:	f7ff fdab 	bl	80011b0 <_pal_lld_setgroupmode.4362>
 800165a:	4620      	mov	r0, r4
 800165c:	f44f 6100 	mov.w	r1, #2048	; 0x800
 8001660:	f240 2282 	movw	r2, #642	; 0x282
 8001664:	e8bd 4070 	ldmia.w	sp!, {r4, r5, r6, lr}
 8001668:	f7ff bda2 	b.w	80011b0 <_pal_lld_setgroupmode.4362>
 800166c:	40020800 	.word	0x40020800
 8001670:	40020400 	.word	0x40020400
 8001674:	40020000 	.word	0x40020000
 8001678:	40020c00 	.word	0x40020c00
 800167c:	f3af 8000 	nop.w

08001680 <dmaStreamRelease>:
 8001680:	7a82      	ldrb	r2, [r0, #10]
 8001682:	4b16      	ldr	r3, [pc, #88]	; (80016dc <dmaStreamRelease+0x5c>)
 8001684:	4916      	ldr	r1, [pc, #88]	; (80016e0 <dmaStreamRelease+0x60>)
 8001686:	b470      	push	{r4, r5, r6}
 8001688:	0955      	lsrs	r5, r2, #5
 800168a:	2401      	movs	r4, #1
 800168c:	f002 061f 	and.w	r6, r2, #31
 8001690:	3520      	adds	r5, #32
 8001692:	f102 4260 	add.w	r2, r2, #3758096384	; 0xe0000000
 8001696:	f502 4261 	add.w	r2, r2, #57600	; 0xe100
 800169a:	fa04 f606 	lsl.w	r6, r4, r6
 800169e:	f843 6025 	str.w	r6, [r3, r5, lsl #2]
 80016a2:	2300      	movs	r3, #0
 80016a4:	f882 3300 	strb.w	r3, [r2, #768]	; 0x300
 80016a8:	7a43      	ldrb	r3, [r0, #9]
 80016aa:	680a      	ldr	r2, [r1, #0]
 80016ac:	fa04 f303 	lsl.w	r3, r4, r3
 80016b0:	ea22 0303 	bic.w	r3, r2, r3
 80016b4:	f013 0fff 	tst.w	r3, #255	; 0xff
 80016b8:	600b      	str	r3, [r1, #0]
 80016ba:	d104      	bne.n	80016c6 <dmaStreamRelease+0x46>
 80016bc:	4a09      	ldr	r2, [pc, #36]	; (80016e4 <dmaStreamRelease+0x64>)
 80016be:	6b11      	ldr	r1, [r2, #48]	; 0x30
 80016c0:	f421 1100 	bic.w	r1, r1, #2097152	; 0x200000
 80016c4:	6311      	str	r1, [r2, #48]	; 0x30
 80016c6:	f413 4f7f 	tst.w	r3, #65280	; 0xff00
 80016ca:	d104      	bne.n	80016d6 <dmaStreamRelease+0x56>
 80016cc:	4b05      	ldr	r3, [pc, #20]	; (80016e4 <dmaStreamRelease+0x64>)
 80016ce:	6b1a      	ldr	r2, [r3, #48]	; 0x30
 80016d0:	f422 0280 	bic.w	r2, r2, #4194304	; 0x400000
 80016d4:	631a      	str	r2, [r3, #48]	; 0x30
 80016d6:	bc70      	pop	{r4, r5, r6}
 80016d8:	4770      	bx	lr
 80016da:	bf00      	nop
 80016dc:	e000e100 	.word	0xe000e100
 80016e0:	2000080c 	.word	0x2000080c
 80016e4:	40023800 	.word	0x40023800
 80016e8:	f3af 8000 	nop.w
 80016ec:	f3af 8000 	nop.w

080016f0 <dmaStreamAllocate>:
 80016f0:	e92d 01f0 	stmdb	sp!, {r4, r5, r6, r7, r8}
 80016f4:	4d2b      	ldr	r5, [pc, #172]	; (80017a4 <dmaStreamAllocate+0xb4>)
 80016f6:	7a44      	ldrb	r4, [r0, #9]
 80016f8:	682e      	ldr	r6, [r5, #0]
 80016fa:	f04f 0c01 	mov.w	ip, #1
 80016fe:	fa0c f704 	lsl.w	r7, ip, r4
 8001702:	4237      	tst	r7, r6
 8001704:	d146      	bne.n	8001794 <dmaStreamAllocate+0xa4>
 8001706:	f8df c0a4 	ldr.w	ip, [pc, #164]	; 80017ac <dmaStreamAllocate+0xbc>
 800170a:	433e      	orrs	r6, r7
 800170c:	eb0c 08c4 	add.w	r8, ip, r4, lsl #3
 8001710:	f016 0fff 	tst.w	r6, #255	; 0xff
 8001714:	f84c 2034 	str.w	r2, [ip, r4, lsl #3]
 8001718:	602e      	str	r6, [r5, #0]
 800171a:	f8c8 3004 	str.w	r3, [r8, #4]
 800171e:	d004      	beq.n	800172a <dmaStreamAllocate+0x3a>
 8001720:	4b21      	ldr	r3, [pc, #132]	; (80017a8 <dmaStreamAllocate+0xb8>)
 8001722:	6b1c      	ldr	r4, [r3, #48]	; 0x30
 8001724:	f444 1400 	orr.w	r4, r4, #2097152	; 0x200000
 8001728:	631c      	str	r4, [r3, #48]	; 0x30
 800172a:	f416 4f7f 	tst.w	r6, #65280	; 0xff00
 800172e:	d12b      	bne.n	8001788 <dmaStreamAllocate+0x98>
 8001730:	6804      	ldr	r4, [r0, #0]
 8001732:	6823      	ldr	r3, [r4, #0]
 8001734:	f023 031f 	bic.w	r3, r3, #31
 8001738:	6023      	str	r3, [r4, #0]
 800173a:	6823      	ldr	r3, [r4, #0]
 800173c:	f013 0301 	ands.w	r3, r3, #1
 8001740:	d1fb      	bne.n	800173a <dmaStreamAllocate+0x4a>
 8001742:	7a06      	ldrb	r6, [r0, #8]
 8001744:	6845      	ldr	r5, [r0, #4]
 8001746:	273d      	movs	r7, #61	; 0x3d
 8001748:	40b7      	lsls	r7, r6
 800174a:	2621      	movs	r6, #33	; 0x21
 800174c:	602f      	str	r7, [r5, #0]
 800174e:	6023      	str	r3, [r4, #0]
 8001750:	6166      	str	r6, [r4, #20]
 8001752:	b31a      	cbz	r2, 800179c <dmaStreamAllocate+0xac>
 8001754:	7a80      	ldrb	r0, [r0, #10]
 8001756:	0944      	lsrs	r4, r0, #5
 8001758:	00a4      	lsls	r4, r4, #2
 800175a:	f100 4260 	add.w	r2, r0, #3758096384	; 0xe0000000
 800175e:	f104 4460 	add.w	r4, r4, #3758096384	; 0xe0000000
 8001762:	f504 4461 	add.w	r4, r4, #57600	; 0xe100
 8001766:	f000 001f 	and.w	r0, r0, #31
 800176a:	0109      	lsls	r1, r1, #4
 800176c:	f502 4261 	add.w	r2, r2, #57600	; 0xe100
 8001770:	2501      	movs	r5, #1
 8001772:	4085      	lsls	r5, r0
 8001774:	b2c9      	uxtb	r1, r1
 8001776:	f882 1300 	strb.w	r1, [r2, #768]	; 0x300
 800177a:	f8c4 5180 	str.w	r5, [r4, #384]	; 0x180
 800177e:	6025      	str	r5, [r4, #0]
 8001780:	4618      	mov	r0, r3
 8001782:	e8bd 01f0 	ldmia.w	sp!, {r4, r5, r6, r7, r8}
 8001786:	4770      	bx	lr
 8001788:	4b07      	ldr	r3, [pc, #28]	; (80017a8 <dmaStreamAllocate+0xb8>)
 800178a:	6b1c      	ldr	r4, [r3, #48]	; 0x30
 800178c:	f444 0480 	orr.w	r4, r4, #4194304	; 0x400000
 8001790:	631c      	str	r4, [r3, #48]	; 0x30
 8001792:	e7cd      	b.n	8001730 <dmaStreamAllocate+0x40>
 8001794:	4660      	mov	r0, ip
 8001796:	e8bd 01f0 	ldmia.w	sp!, {r4, r5, r6, r7, r8}
 800179a:	4770      	bx	lr
 800179c:	4610      	mov	r0, r2
 800179e:	e8bd 01f0 	ldmia.w	sp!, {r4, r5, r6, r7, r8}
 80017a2:	4770      	bx	lr
 80017a4:	2000080c 	.word	0x2000080c
 80017a8:	40023800 	.word	0x40023800
 80017ac:	200015f0 	.word	0x200015f0

080017b0 <chSchDoRescheduleAhead>:
 80017b0:	4a0d      	ldr	r2, [pc, #52]	; (80017e8 <chSchDoRescheduleAhead+0x38>)
 80017b2:	6810      	ldr	r0, [r2, #0]
 80017b4:	b470      	push	{r4, r5, r6}
 80017b6:	6803      	ldr	r3, [r0, #0]
 80017b8:	6995      	ldr	r5, [r2, #24]
 80017ba:	6013      	str	r3, [r2, #0]
 80017bc:	2601      	movs	r6, #1
 80017be:	2100      	movs	r1, #0
 80017c0:	68ac      	ldr	r4, [r5, #8]
 80017c2:	605a      	str	r2, [r3, #4]
 80017c4:	7706      	strb	r6, [r0, #28]
 80017c6:	4603      	mov	r3, r0
 80017c8:	6190      	str	r0, [r2, #24]
 80017ca:	7729      	strb	r1, [r5, #28]
 80017cc:	e000      	b.n	80017d0 <chSchDoRescheduleAhead+0x20>
 80017ce:	681b      	ldr	r3, [r3, #0]
 80017d0:	689a      	ldr	r2, [r3, #8]
 80017d2:	42a2      	cmp	r2, r4
 80017d4:	d8fb      	bhi.n	80017ce <chSchDoRescheduleAhead+0x1e>
 80017d6:	685a      	ldr	r2, [r3, #4]
 80017d8:	606a      	str	r2, [r5, #4]
 80017da:	602b      	str	r3, [r5, #0]
 80017dc:	4629      	mov	r1, r5
 80017de:	605d      	str	r5, [r3, #4]
 80017e0:	6015      	str	r5, [r2, #0]
 80017e2:	bc70      	pop	{r4, r5, r6}
 80017e4:	f7ff b84c 	b.w	8000880 <_port_switch>
 80017e8:	20002cd4 	.word	0x20002cd4
 80017ec:	f3af 8000 	nop.w

080017f0 <chSchGoSleepS>:
 80017f0:	4b07      	ldr	r3, [pc, #28]	; (8001810 <chSchGoSleepS+0x20>)
 80017f2:	b430      	push	{r4, r5}
 80017f4:	681a      	ldr	r2, [r3, #0]
 80017f6:	6999      	ldr	r1, [r3, #24]
 80017f8:	6814      	ldr	r4, [r2, #0]
 80017fa:	7708      	strb	r0, [r1, #28]
 80017fc:	2501      	movs	r5, #1
 80017fe:	6063      	str	r3, [r4, #4]
 8001800:	7715      	strb	r5, [r2, #28]
 8001802:	601c      	str	r4, [r3, #0]
 8001804:	4610      	mov	r0, r2
 8001806:	bc30      	pop	{r4, r5}
 8001808:	619a      	str	r2, [r3, #24]
 800180a:	f7ff b839 	b.w	8000880 <_port_switch>
 800180e:	bf00      	nop
 8001810:	20002cd4 	.word	0x20002cd4
 8001814:	f3af 8000 	nop.w
 8001818:	f3af 8000 	nop.w
 800181c:	f3af 8000 	nop.w

08001820 <_port_irq_epilogue>:
 8001820:	2320      	movs	r3, #32
 8001822:	f383 8811 	msr	BASEPRI, r3
 8001826:	4b12      	ldr	r3, [pc, #72]	; (8001870 <_port_irq_epilogue+0x50>)
 8001828:	685b      	ldr	r3, [r3, #4]
 800182a:	f413 6300 	ands.w	r3, r3, #2048	; 0x800
 800182e:	d102      	bne.n	8001836 <_port_irq_epilogue+0x16>
 8001830:	f383 8811 	msr	BASEPRI, r3
 8001834:	4770      	bx	lr
 8001836:	eef1 3a10 	vmrs	r3, fpscr
 800183a:	f3ef 8309 	mrs	r3, PSP
 800183e:	4a0d      	ldr	r2, [pc, #52]	; (8001874 <_port_irq_epilogue+0x54>)
 8001840:	f04f 7180 	mov.w	r1, #16777216	; 0x1000000
 8001844:	68d2      	ldr	r2, [r2, #12]
 8001846:	f843 2c08 	str.w	r2, [r3, #-8]
 800184a:	f843 1c4c 	str.w	r1, [r3, #-76]
 800184e:	f1a3 0268 	sub.w	r2, r3, #104	; 0x68
 8001852:	f382 8809 	msr	PSP, r2
 8001856:	4a08      	ldr	r2, [pc, #32]	; (8001878 <_port_irq_epilogue+0x58>)
 8001858:	6811      	ldr	r1, [r2, #0]
 800185a:	6992      	ldr	r2, [r2, #24]
 800185c:	6889      	ldr	r1, [r1, #8]
 800185e:	6892      	ldr	r2, [r2, #8]
 8001860:	4291      	cmp	r1, r2
 8001862:	bf8c      	ite	hi
 8001864:	4a05      	ldrhi	r2, [pc, #20]	; (800187c <_port_irq_epilogue+0x5c>)
 8001866:	4a06      	ldrls	r2, [pc, #24]	; (8001880 <_port_irq_epilogue+0x60>)
 8001868:	f843 2c50 	str.w	r2, [r3, #-80]
 800186c:	4770      	bx	lr
 800186e:	bf00      	nop
 8001870:	e000ed00 	.word	0xe000ed00
 8001874:	e000ef30 	.word	0xe000ef30
 8001878:	20002cd4 	.word	0x20002cd4
 800187c:	080008a7 	.word	0x080008a7
 8001880:	080008aa 	.word	0x080008aa
 8001884:	f3af 8000 	nop.w
 8001888:	f3af 8000 	nop.w
 800188c:	f3af 8000 	nop.w

08001890 <VectorD4>:
 8001890:	b570      	push	{r4, r5, r6, lr}
 8001892:	4e1a      	ldr	r6, [pc, #104]	; (80018fc <VectorD4+0x6c>)
 8001894:	68b4      	ldr	r4, [r6, #8]
 8001896:	6825      	ldr	r5, [r4, #0]
 8001898:	6863      	ldr	r3, [r4, #4]
 800189a:	f240 130f 	movw	r3, #271	; 0x10f
 800189e:	402b      	ands	r3, r5
 80018a0:	b1eb      	cbz	r3, 80018de <VectorD4+0x4e>
 80018a2:	6873      	ldr	r3, [r6, #4]
 80018a4:	691a      	ldr	r2, [r3, #16]
 80018a6:	f46f 7380 	mvn.w	r3, #256	; 0x100
 80018aa:	6023      	str	r3, [r4, #0]
 80018ac:	b1ba      	cbz	r2, 80018de <VectorD4+0x4e>
 80018ae:	b2ab      	uxth	r3, r5
 80018b0:	f013 0f08 	tst.w	r3, #8
 80018b4:	bf14      	ite	ne
 80018b6:	2110      	movne	r1, #16
 80018b8:	2100      	moveq	r1, #0
 80018ba:	07d8      	lsls	r0, r3, #31
 80018bc:	bf48      	it	mi
 80018be:	f041 0104 	orrmi.w	r1, r1, #4
 80018c2:	0798      	lsls	r0, r3, #30
 80018c4:	bf48      	it	mi
 80018c6:	f041 0108 	orrmi.w	r1, r1, #8
 80018ca:	0758      	lsls	r0, r3, #29
 80018cc:	bf48      	it	mi
 80018ce:	f041 0120 	orrmi.w	r1, r1, #32
 80018d2:	05d8      	lsls	r0, r3, #23
 80018d4:	bf48      	it	mi
 80018d6:	f041 0140 	orrmi.w	r1, r1, #64	; 0x40
 80018da:	4808      	ldr	r0, [pc, #32]	; (80018fc <VectorD4+0x6c>)
 80018dc:	4790      	blx	r2
 80018de:	066b      	lsls	r3, r5, #25
 80018e0:	d507      	bpl.n	80018f2 <VectorD4+0x62>
 80018e2:	6873      	ldr	r3, [r6, #4]
 80018e4:	685b      	ldr	r3, [r3, #4]
 80018e6:	f06f 0240 	mvn.w	r2, #64	; 0x40
 80018ea:	6022      	str	r2, [r4, #0]
 80018ec:	b10b      	cbz	r3, 80018f2 <VectorD4+0x62>
 80018ee:	4803      	ldr	r0, [pc, #12]	; (80018fc <VectorD4+0x6c>)
 80018f0:	4798      	blx	r3
 80018f2:	e8bd 4070 	ldmia.w	sp!, {r4, r5, r6, lr}
 80018f6:	f7ff bf93 	b.w	8001820 <_port_irq_epilogue>
 80018fa:	bf00      	nop
 80018fc:	20001670 	.word	0x20001670

08001900 <Vector158>:
 8001900:	4b08      	ldr	r3, [pc, #32]	; (8001924 <Vector158+0x24>)
 8001902:	4809      	ldr	r0, [pc, #36]	; (8001928 <Vector158+0x28>)
 8001904:	6859      	ldr	r1, [r3, #4]
 8001906:	6f82      	ldr	r2, [r0, #120]	; 0x78
 8001908:	0d89      	lsrs	r1, r1, #22
 800190a:	f001 013d 	and.w	r1, r1, #61	; 0x3d
 800190e:	b510      	push	{r4, lr}
 8001910:	058c      	lsls	r4, r1, #22
 8001912:	60dc      	str	r4, [r3, #12]
 8001914:	b10a      	cbz	r2, 800191a <Vector158+0x1a>
 8001916:	6fc0      	ldr	r0, [r0, #124]	; 0x7c
 8001918:	4790      	blx	r2
 800191a:	e8bd 4010 	ldmia.w	sp!, {r4, lr}
 800191e:	f7ff bf7f 	b.w	8001820 <_port_irq_epilogue>
 8001922:	bf00      	nop
 8001924:	40026400 	.word	0x40026400
 8001928:	200015f0 	.word	0x200015f0
 800192c:	f3af 8000 	nop.w

08001930 <Vector154>:
 8001930:	4b08      	ldr	r3, [pc, #32]	; (8001954 <Vector154+0x24>)
 8001932:	4809      	ldr	r0, [pc, #36]	; (8001958 <Vector154+0x28>)
 8001934:	6859      	ldr	r1, [r3, #4]
 8001936:	6f02      	ldr	r2, [r0, #112]	; 0x70
 8001938:	0c09      	lsrs	r1, r1, #16
 800193a:	f001 013d 	and.w	r1, r1, #61	; 0x3d
 800193e:	b510      	push	{r4, lr}
 8001940:	040c      	lsls	r4, r1, #16
 8001942:	60dc      	str	r4, [r3, #12]
 8001944:	b10a      	cbz	r2, 800194a <Vector154+0x1a>
 8001946:	6f40      	ldr	r0, [r0, #116]	; 0x74
 8001948:	4790      	blx	r2
 800194a:	e8bd 4010 	ldmia.w	sp!, {r4, lr}
 800194e:	f7ff bf67 	b.w	8001820 <_port_irq_epilogue>
 8001952:	bf00      	nop
 8001954:	40026400 	.word	0x40026400
 8001958:	200015f0 	.word	0x200015f0
 800195c:	f3af 8000 	nop.w

08001960 <Vector150>:
 8001960:	4b08      	ldr	r3, [pc, #32]	; (8001984 <Vector150+0x24>)
 8001962:	4809      	ldr	r0, [pc, #36]	; (8001988 <Vector150+0x28>)
 8001964:	6859      	ldr	r1, [r3, #4]
 8001966:	6e82      	ldr	r2, [r0, #104]	; 0x68
 8001968:	0989      	lsrs	r1, r1, #6
 800196a:	f001 013d 	and.w	r1, r1, #61	; 0x3d
 800196e:	b510      	push	{r4, lr}
 8001970:	018c      	lsls	r4, r1, #6
 8001972:	60dc      	str	r4, [r3, #12]
 8001974:	b10a      	cbz	r2, 800197a <Vector150+0x1a>
 8001976:	6ec0      	ldr	r0, [r0, #108]	; 0x6c
 8001978:	4790      	blx	r2
 800197a:	e8bd 4010 	ldmia.w	sp!, {r4, lr}
 800197e:	f7ff bf4f 	b.w	8001820 <_port_irq_epilogue>
 8001982:	bf00      	nop
 8001984:	40026400 	.word	0x40026400
 8001988:	200015f0 	.word	0x200015f0
 800198c:	f3af 8000 	nop.w

08001990 <Vector130>:
 8001990:	b508      	push	{r3, lr}
 8001992:	4b07      	ldr	r3, [pc, #28]	; (80019b0 <Vector130+0x20>)
 8001994:	4807      	ldr	r0, [pc, #28]	; (80019b4 <Vector130+0x24>)
 8001996:	6859      	ldr	r1, [r3, #4]
 8001998:	6e02      	ldr	r2, [r0, #96]	; 0x60
 800199a:	f001 013d 	and.w	r1, r1, #61	; 0x3d
 800199e:	60d9      	str	r1, [r3, #12]
 80019a0:	b10a      	cbz	r2, 80019a6 <Vector130+0x16>
 80019a2:	6e40      	ldr	r0, [r0, #100]	; 0x64
 80019a4:	4790      	blx	r2
 80019a6:	e8bd 4008 	ldmia.w	sp!, {r3, lr}
 80019aa:	f7ff bf39 	b.w	8001820 <_port_irq_epilogue>
 80019ae:	bf00      	nop
 80019b0:	40026400 	.word	0x40026400
 80019b4:	200015f0 	.word	0x200015f0
 80019b8:	f3af 8000 	nop.w
 80019bc:	f3af 8000 	nop.w

080019c0 <Vector12C>:
 80019c0:	4b08      	ldr	r3, [pc, #32]	; (80019e4 <Vector12C+0x24>)
 80019c2:	4809      	ldr	r0, [pc, #36]	; (80019e8 <Vector12C+0x28>)
 80019c4:	6819      	ldr	r1, [r3, #0]
 80019c6:	6d82      	ldr	r2, [r0, #88]	; 0x58
 80019c8:	0d89      	lsrs	r1, r1, #22
 80019ca:	f001 013d 	and.w	r1, r1, #61	; 0x3d
 80019ce:	b510      	push	{r4, lr}
 80019d0:	058c      	lsls	r4, r1, #22
 80019d2:	609c      	str	r4, [r3, #8]
 80019d4:	b10a      	cbz	r2, 80019da <Vector12C+0x1a>
 80019d6:	6dc0      	ldr	r0, [r0, #92]	; 0x5c
 80019d8:	4790      	blx	r2
 80019da:	e8bd 4010 	ldmia.w	sp!, {r4, lr}
 80019de:	f7ff bf1f 	b.w	8001820 <_port_irq_epilogue>
 80019e2:	bf00      	nop
 80019e4:	40026400 	.word	0x40026400
 80019e8:	200015f0 	.word	0x200015f0
 80019ec:	f3af 8000 	nop.w

080019f0 <Vector128>:
 80019f0:	4b08      	ldr	r3, [pc, #32]	; (8001a14 <Vector128+0x24>)
 80019f2:	4809      	ldr	r0, [pc, #36]	; (8001a18 <Vector128+0x28>)
 80019f4:	6819      	ldr	r1, [r3, #0]
 80019f6:	6d02      	ldr	r2, [r0, #80]	; 0x50
 80019f8:	0c09      	lsrs	r1, r1, #16
 80019fa:	f001 013d 	and.w	r1, r1, #61	; 0x3d
 80019fe:	b510      	push	{r4, lr}
 8001a00:	040c      	lsls	r4, r1, #16
 8001a02:	609c      	str	r4, [r3, #8]
 8001a04:	b10a      	cbz	r2, 8001a0a <Vector128+0x1a>
 8001a06:	6d40      	ldr	r0, [r0, #84]	; 0x54
 8001a08:	4790      	blx	r2
 8001a0a:	e8bd 4010 	ldmia.w	sp!, {r4, lr}
 8001a0e:	f7ff bf07 	b.w	8001820 <_port_irq_epilogue>
 8001a12:	bf00      	nop
 8001a14:	40026400 	.word	0x40026400
 8001a18:	200015f0 	.word	0x200015f0
 8001a1c:	f3af 8000 	nop.w

08001a20 <Vector124>:
 8001a20:	4b08      	ldr	r3, [pc, #32]	; (8001a44 <Vector124+0x24>)
 8001a22:	4809      	ldr	r0, [pc, #36]	; (8001a48 <Vector124+0x28>)
 8001a24:	6819      	ldr	r1, [r3, #0]
 8001a26:	6c82      	ldr	r2, [r0, #72]	; 0x48
 8001a28:	0989      	lsrs	r1, r1, #6
 8001a2a:	f001 013d 	and.w	r1, r1, #61	; 0x3d
 8001a2e:	b510      	push	{r4, lr}
 8001a30:	018c      	lsls	r4, r1, #6
 8001a32:	609c      	str	r4, [r3, #8]
 8001a34:	b10a      	cbz	r2, 8001a3a <Vector124+0x1a>
 8001a36:	6cc0      	ldr	r0, [r0, #76]	; 0x4c
 8001a38:	4790      	blx	r2
 8001a3a:	e8bd 4010 	ldmia.w	sp!, {r4, lr}
 8001a3e:	f7ff beef 	b.w	8001820 <_port_irq_epilogue>
 8001a42:	bf00      	nop
 8001a44:	40026400 	.word	0x40026400
 8001a48:	200015f0 	.word	0x200015f0
 8001a4c:	f3af 8000 	nop.w

08001a50 <Vector120>:
 8001a50:	b508      	push	{r3, lr}
 8001a52:	4b07      	ldr	r3, [pc, #28]	; (8001a70 <Vector120+0x20>)
 8001a54:	4807      	ldr	r0, [pc, #28]	; (8001a74 <Vector120+0x24>)
 8001a56:	6819      	ldr	r1, [r3, #0]
 8001a58:	6c02      	ldr	r2, [r0, #64]	; 0x40
 8001a5a:	f001 013d 	and.w	r1, r1, #61	; 0x3d
 8001a5e:	6099      	str	r1, [r3, #8]
 8001a60:	b10a      	cbz	r2, 8001a66 <Vector120+0x16>
 8001a62:	6c40      	ldr	r0, [r0, #68]	; 0x44
 8001a64:	4790      	blx	r2
 8001a66:	e8bd 4008 	ldmia.w	sp!, {r3, lr}
 8001a6a:	f7ff bed9 	b.w	8001820 <_port_irq_epilogue>
 8001a6e:	bf00      	nop
 8001a70:	40026400 	.word	0x40026400
 8001a74:	200015f0 	.word	0x200015f0
 8001a78:	f3af 8000 	nop.w
 8001a7c:	f3af 8000 	nop.w

08001a80 <VectorFC>:
 8001a80:	4b08      	ldr	r3, [pc, #32]	; (8001aa4 <VectorFC+0x24>)
 8001a82:	4809      	ldr	r0, [pc, #36]	; (8001aa8 <VectorFC+0x28>)
 8001a84:	6859      	ldr	r1, [r3, #4]
 8001a86:	6b82      	ldr	r2, [r0, #56]	; 0x38
 8001a88:	0d89      	lsrs	r1, r1, #22
 8001a8a:	f001 013d 	and.w	r1, r1, #61	; 0x3d
 8001a8e:	b510      	push	{r4, lr}
 8001a90:	058c      	lsls	r4, r1, #22
 8001a92:	60dc      	str	r4, [r3, #12]
 8001a94:	b10a      	cbz	r2, 8001a9a <VectorFC+0x1a>
 8001a96:	6bc0      	ldr	r0, [r0, #60]	; 0x3c
 8001a98:	4790      	blx	r2
 8001a9a:	e8bd 4010 	ldmia.w	sp!, {r4, lr}
 8001a9e:	f7ff bebf 	b.w	8001820 <_port_irq_epilogue>
 8001aa2:	bf00      	nop
 8001aa4:	40026000 	.word	0x40026000
 8001aa8:	200015f0 	.word	0x200015f0
 8001aac:	f3af 8000 	nop.w

08001ab0 <Vector84>:
 8001ab0:	4b08      	ldr	r3, [pc, #32]	; (8001ad4 <Vector84+0x24>)
 8001ab2:	4809      	ldr	r0, [pc, #36]	; (8001ad8 <Vector84+0x28>)
 8001ab4:	6859      	ldr	r1, [r3, #4]
 8001ab6:	6b02      	ldr	r2, [r0, #48]	; 0x30
 8001ab8:	0c09      	lsrs	r1, r1, #16
 8001aba:	f001 013d 	and.w	r1, r1, #61	; 0x3d
 8001abe:	b510      	push	{r4, lr}
 8001ac0:	040c      	lsls	r4, r1, #16
 8001ac2:	60dc      	str	r4, [r3, #12]
 8001ac4:	b10a      	cbz	r2, 8001aca <Vector84+0x1a>
 8001ac6:	6b40      	ldr	r0, [r0, #52]	; 0x34
 8001ac8:	4790      	blx	r2
 8001aca:	e8bd 4010 	ldmia.w	sp!, {r4, lr}
 8001ace:	f7ff bea7 	b.w	8001820 <_port_irq_epilogue>
 8001ad2:	bf00      	nop
 8001ad4:	40026000 	.word	0x40026000
 8001ad8:	200015f0 	.word	0x200015f0
 8001adc:	f3af 8000 	nop.w

08001ae0 <Vector80>:
 8001ae0:	4b08      	ldr	r3, [pc, #32]	; (8001b04 <Vector80+0x24>)
 8001ae2:	4809      	ldr	r0, [pc, #36]	; (8001b08 <Vector80+0x28>)
 8001ae4:	6859      	ldr	r1, [r3, #4]
 8001ae6:	6a82      	ldr	r2, [r0, #40]	; 0x28
 8001ae8:	0989      	lsrs	r1, r1, #6
 8001aea:	f001 013d 	and.w	r1, r1, #61	; 0x3d
 8001aee:	b510      	push	{r4, lr}
 8001af0:	018c      	lsls	r4, r1, #6
 8001af2:	60dc      	str	r4, [r3, #12]
 8001af4:	b10a      	cbz	r2, 8001afa <Vector80+0x1a>
 8001af6:	6ac0      	ldr	r0, [r0, #44]	; 0x2c
 8001af8:	4790      	blx	r2
 8001afa:	e8bd 4010 	ldmia.w	sp!, {r4, lr}
 8001afe:	f7ff be8f 	b.w	8001820 <_port_irq_epilogue>
 8001b02:	bf00      	nop
 8001b04:	40026000 	.word	0x40026000
 8001b08:	200015f0 	.word	0x200015f0
 8001b0c:	f3af 8000 	nop.w

08001b10 <Vector7C>:
 8001b10:	b508      	push	{r3, lr}
 8001b12:	4b07      	ldr	r3, [pc, #28]	; (8001b30 <Vector7C+0x20>)
 8001b14:	4807      	ldr	r0, [pc, #28]	; (8001b34 <Vector7C+0x24>)
 8001b16:	6859      	ldr	r1, [r3, #4]
 8001b18:	6a02      	ldr	r2, [r0, #32]
 8001b1a:	f001 013d 	and.w	r1, r1, #61	; 0x3d
 8001b1e:	60d9      	str	r1, [r3, #12]
 8001b20:	b10a      	cbz	r2, 8001b26 <Vector7C+0x16>
 8001b22:	6a40      	ldr	r0, [r0, #36]	; 0x24
 8001b24:	4790      	blx	r2
 8001b26:	e8bd 4008 	ldmia.w	sp!, {r3, lr}
 8001b2a:	f7ff be79 	b.w	8001820 <_port_irq_epilogue>
 8001b2e:	bf00      	nop
 8001b30:	40026000 	.word	0x40026000
 8001b34:	200015f0 	.word	0x200015f0
 8001b38:	f3af 8000 	nop.w
 8001b3c:	f3af 8000 	nop.w

08001b40 <Vector78>:
 8001b40:	4b08      	ldr	r3, [pc, #32]	; (8001b64 <Vector78+0x24>)
 8001b42:	4809      	ldr	r0, [pc, #36]	; (8001b68 <Vector78+0x28>)
 8001b44:	6819      	ldr	r1, [r3, #0]
 8001b46:	6982      	ldr	r2, [r0, #24]
 8001b48:	0d89      	lsrs	r1, r1, #22
 8001b4a:	f001 013d 	and.w	r1, r1, #61	; 0x3d
 8001b4e:	b510      	push	{r4, lr}
 8001b50:	058c      	lsls	r4, r1, #22
 8001b52:	609c      	str	r4, [r3, #8]
 8001b54:	b10a      	cbz	r2, 8001b5a <Vector78+0x1a>
 8001b56:	69c0      	ldr	r0, [r0, #28]
 8001b58:	4790      	blx	r2
 8001b5a:	e8bd 4010 	ldmia.w	sp!, {r4, lr}
 8001b5e:	f7ff be5f 	b.w	8001820 <_port_irq_epilogue>
 8001b62:	bf00      	nop
 8001b64:	40026000 	.word	0x40026000
 8001b68:	200015f0 	.word	0x200015f0
 8001b6c:	f3af 8000 	nop.w

08001b70 <Vector74>:
 8001b70:	4b08      	ldr	r3, [pc, #32]	; (8001b94 <Vector74+0x24>)
 8001b72:	4809      	ldr	r0, [pc, #36]	; (8001b98 <Vector74+0x28>)
 8001b74:	6819      	ldr	r1, [r3, #0]
 8001b76:	6902      	ldr	r2, [r0, #16]
 8001b78:	0c09      	lsrs	r1, r1, #16
 8001b7a:	f001 013d 	and.w	r1, r1, #61	; 0x3d
 8001b7e:	b510      	push	{r4, lr}
 8001b80:	040c      	lsls	r4, r1, #16
 8001b82:	609c      	str	r4, [r3, #8]
 8001b84:	b10a      	cbz	r2, 8001b8a <Vector74+0x1a>
 8001b86:	6940      	ldr	r0, [r0, #20]
 8001b88:	4790      	blx	r2
 8001b8a:	e8bd 4010 	ldmia.w	sp!, {r4, lr}
 8001b8e:	f7ff be47 	b.w	8001820 <_port_irq_epilogue>
 8001b92:	bf00      	nop
 8001b94:	40026000 	.word	0x40026000
 8001b98:	200015f0 	.word	0x200015f0
 8001b9c:	f3af 8000 	nop.w

08001ba0 <Vector70>:
 8001ba0:	4b08      	ldr	r3, [pc, #32]	; (8001bc4 <Vector70+0x24>)
 8001ba2:	4809      	ldr	r0, [pc, #36]	; (8001bc8 <Vector70+0x28>)
 8001ba4:	6819      	ldr	r1, [r3, #0]
 8001ba6:	6882      	ldr	r2, [r0, #8]
 8001ba8:	0989      	lsrs	r1, r1, #6
 8001baa:	f001 013d 	and.w	r1, r1, #61	; 0x3d
 8001bae:	b510      	push	{r4, lr}
 8001bb0:	018c      	lsls	r4, r1, #6
 8001bb2:	609c      	str	r4, [r3, #8]
 8001bb4:	b10a      	cbz	r2, 8001bba <Vector70+0x1a>
 8001bb6:	68c0      	ldr	r0, [r0, #12]
 8001bb8:	4790      	blx	r2
 8001bba:	e8bd 4010 	ldmia.w	sp!, {r4, lr}
 8001bbe:	f7ff be2f 	b.w	8001820 <_port_irq_epilogue>
 8001bc2:	bf00      	nop
 8001bc4:	40026000 	.word	0x40026000
 8001bc8:	200015f0 	.word	0x200015f0
 8001bcc:	f3af 8000 	nop.w

08001bd0 <Vector6C>:
 8001bd0:	b508      	push	{r3, lr}
 8001bd2:	4b07      	ldr	r3, [pc, #28]	; (8001bf0 <Vector6C+0x20>)
 8001bd4:	4a07      	ldr	r2, [pc, #28]	; (8001bf4 <Vector6C+0x24>)
 8001bd6:	6819      	ldr	r1, [r3, #0]
 8001bd8:	f001 013d 	and.w	r1, r1, #61	; 0x3d
 8001bdc:	6099      	str	r1, [r3, #8]
 8001bde:	6813      	ldr	r3, [r2, #0]
 8001be0:	b10b      	cbz	r3, 8001be6 <Vector6C+0x16>
 8001be2:	6850      	ldr	r0, [r2, #4]
 8001be4:	4798      	blx	r3
 8001be6:	e8bd 4008 	ldmia.w	sp!, {r3, lr}
 8001bea:	f7ff be19 	b.w	8001820 <_port_irq_epilogue>
 8001bee:	bf00      	nop
 8001bf0:	40026000 	.word	0x40026000
 8001bf4:	200015f0 	.word	0x200015f0
 8001bf8:	f3af 8000 	nop.w
 8001bfc:	f3af 8000 	nop.w

08001c00 <chSchReadyI>:
 8001c00:	2200      	movs	r2, #0
 8001c02:	6881      	ldr	r1, [r0, #8]
 8001c04:	4b08      	ldr	r3, [pc, #32]	; (8001c28 <chSchReadyI+0x28>)
 8001c06:	b410      	push	{r4}
 8001c08:	4604      	mov	r4, r0
 8001c0a:	7702      	strb	r2, [r0, #28]
 8001c0c:	681b      	ldr	r3, [r3, #0]
 8001c0e:	689a      	ldr	r2, [r3, #8]
 8001c10:	428a      	cmp	r2, r1
 8001c12:	d2fb      	bcs.n	8001c0c <chSchReadyI+0xc>
 8001c14:	685a      	ldr	r2, [r3, #4]
 8001c16:	6062      	str	r2, [r4, #4]
 8001c18:	6023      	str	r3, [r4, #0]
 8001c1a:	4620      	mov	r0, r4
 8001c1c:	605c      	str	r4, [r3, #4]
 8001c1e:	6014      	str	r4, [r2, #0]
 8001c20:	f85d 4b04 	ldr.w	r4, [sp], #4
 8001c24:	4770      	bx	lr
 8001c26:	bf00      	nop
 8001c28:	20002cd4 	.word	0x20002cd4
 8001c2c:	f3af 8000 	nop.w

08001c30 <chEvtBroadcastFlagsI>:
 8001c30:	b5f8      	push	{r3, r4, r5, r6, r7, lr}
 8001c32:	6804      	ldr	r4, [r0, #0]
 8001c34:	42a0      	cmp	r0, r4
 8001c36:	4607      	mov	r7, r0
 8001c38:	460d      	mov	r5, r1
 8001c3a:	d01f      	beq.n	8001c7c <chEvtBroadcastFlagsI+0x4c>
 8001c3c:	2600      	movs	r6, #0
 8001c3e:	e002      	b.n	8001c46 <chEvtBroadcastFlagsI+0x16>
 8001c40:	6824      	ldr	r4, [r4, #0]
 8001c42:	42a7      	cmp	r7, r4
 8001c44:	d01a      	beq.n	8001c7c <chEvtBroadcastFlagsI+0x4c>
 8001c46:	68e3      	ldr	r3, [r4, #12]
 8001c48:	432b      	orrs	r3, r5
 8001c4a:	60e3      	str	r3, [r4, #12]
 8001c4c:	b115      	cbz	r5, 8001c54 <chEvtBroadcastFlagsI+0x24>
 8001c4e:	6922      	ldr	r2, [r4, #16]
 8001c50:	4213      	tst	r3, r2
 8001c52:	d0f5      	beq.n	8001c40 <chEvtBroadcastFlagsI+0x10>
 8001c54:	6860      	ldr	r0, [r4, #4]
 8001c56:	68a2      	ldr	r2, [r4, #8]
 8001c58:	6b41      	ldr	r1, [r0, #52]	; 0x34
 8001c5a:	7f03      	ldrb	r3, [r0, #28]
 8001c5c:	430a      	orrs	r2, r1
 8001c5e:	2b0a      	cmp	r3, #10
 8001c60:	6342      	str	r2, [r0, #52]	; 0x34
 8001c62:	d00c      	beq.n	8001c7e <chEvtBroadcastFlagsI+0x4e>
 8001c64:	2b0b      	cmp	r3, #11
 8001c66:	d1eb      	bne.n	8001c40 <chEvtBroadcastFlagsI+0x10>
 8001c68:	6a03      	ldr	r3, [r0, #32]
 8001c6a:	401a      	ands	r2, r3
 8001c6c:	4293      	cmp	r3, r2
 8001c6e:	d1e7      	bne.n	8001c40 <chEvtBroadcastFlagsI+0x10>
 8001c70:	6206      	str	r6, [r0, #32]
 8001c72:	f7ff ffc5 	bl	8001c00 <chSchReadyI>
 8001c76:	6824      	ldr	r4, [r4, #0]
 8001c78:	42a7      	cmp	r7, r4
 8001c7a:	d1e4      	bne.n	8001c46 <chEvtBroadcastFlagsI+0x16>
 8001c7c:	bdf8      	pop	{r3, r4, r5, r6, r7, pc}
 8001c7e:	6a03      	ldr	r3, [r0, #32]
 8001c80:	421a      	tst	r2, r3
 8001c82:	d0dd      	beq.n	8001c40 <chEvtBroadcastFlagsI+0x10>
 8001c84:	6206      	str	r6, [r0, #32]
 8001c86:	f7ff ffbb 	bl	8001c00 <chSchReadyI>
 8001c8a:	e7f4      	b.n	8001c76 <chEvtBroadcastFlagsI+0x46>
 8001c8c:	f3af 8000 	nop.w

08001c90 <chMtxLockS>:
 8001c90:	b570      	push	{r4, r5, r6, lr}
 8001c92:	4b2f      	ldr	r3, [pc, #188]	; (8001d50 <chMtxLockS+0xc0>)
 8001c94:	4605      	mov	r5, r0
 8001c96:	6880      	ldr	r0, [r0, #8]
 8001c98:	699c      	ldr	r4, [r3, #24]
 8001c9a:	2800      	cmp	r0, #0
 8001c9c:	d053      	beq.n	8001d46 <chMtxLockS+0xb6>
 8001c9e:	68a2      	ldr	r2, [r4, #8]
 8001ca0:	6883      	ldr	r3, [r0, #8]
 8001ca2:	4293      	cmp	r3, r2
 8001ca4:	d206      	bcs.n	8001cb4 <chMtxLockS+0x24>
 8001ca6:	7f03      	ldrb	r3, [r0, #28]
 8001ca8:	6082      	str	r2, [r0, #8]
 8001caa:	2b06      	cmp	r3, #6
 8001cac:	d032      	beq.n	8001d14 <chMtxLockS+0x84>
 8001cae:	2b07      	cmp	r3, #7
 8001cb0:	d01c      	beq.n	8001cec <chMtxLockS+0x5c>
 8001cb2:	b19b      	cbz	r3, 8001cdc <chMtxLockS+0x4c>
 8001cb4:	462b      	mov	r3, r5
 8001cb6:	e003      	b.n	8001cc0 <chMtxLockS+0x30>
 8001cb8:	6899      	ldr	r1, [r3, #8]
 8001cba:	68a2      	ldr	r2, [r4, #8]
 8001cbc:	4291      	cmp	r1, r2
 8001cbe:	d302      	bcc.n	8001cc6 <chMtxLockS+0x36>
 8001cc0:	681b      	ldr	r3, [r3, #0]
 8001cc2:	429d      	cmp	r5, r3
 8001cc4:	d1f8      	bne.n	8001cb8 <chMtxLockS+0x28>
 8001cc6:	685a      	ldr	r2, [r3, #4]
 8001cc8:	6062      	str	r2, [r4, #4]
 8001cca:	6023      	str	r3, [r4, #0]
 8001ccc:	605c      	str	r4, [r3, #4]
 8001cce:	6014      	str	r4, [r2, #0]
 8001cd0:	6225      	str	r5, [r4, #32]
 8001cd2:	2006      	movs	r0, #6
 8001cd4:	e8bd 4070 	ldmia.w	sp!, {r4, r5, r6, lr}
 8001cd8:	f7ff bd8a 	b.w	80017f0 <chSchGoSleepS>
 8001cdc:	e890 000c 	ldmia.w	r0, {r2, r3}
 8001ce0:	601a      	str	r2, [r3, #0]
 8001ce2:	6802      	ldr	r2, [r0, #0]
 8001ce4:	6053      	str	r3, [r2, #4]
 8001ce6:	f7ff ff8b 	bl	8001c00 <chSchReadyI>
 8001cea:	e7e3      	b.n	8001cb4 <chMtxLockS+0x24>
 8001cec:	e890 000a 	ldmia.w	r0, {r1, r3}
 8001cf0:	6019      	str	r1, [r3, #0]
 8001cf2:	6a06      	ldr	r6, [r0, #32]
 8001cf4:	6801      	ldr	r1, [r0, #0]
 8001cf6:	604b      	str	r3, [r1, #4]
 8001cf8:	4633      	mov	r3, r6
 8001cfa:	e002      	b.n	8001d02 <chMtxLockS+0x72>
 8001cfc:	6899      	ldr	r1, [r3, #8]
 8001cfe:	4291      	cmp	r1, r2
 8001d00:	d302      	bcc.n	8001d08 <chMtxLockS+0x78>
 8001d02:	681b      	ldr	r3, [r3, #0]
 8001d04:	429e      	cmp	r6, r3
 8001d06:	d1f9      	bne.n	8001cfc <chMtxLockS+0x6c>
 8001d08:	685a      	ldr	r2, [r3, #4]
 8001d0a:	6042      	str	r2, [r0, #4]
 8001d0c:	6003      	str	r3, [r0, #0]
 8001d0e:	6058      	str	r0, [r3, #4]
 8001d10:	6010      	str	r0, [r2, #0]
 8001d12:	e7cf      	b.n	8001cb4 <chMtxLockS+0x24>
 8001d14:	e890 000a 	ldmia.w	r0, {r1, r3}
 8001d18:	6019      	str	r1, [r3, #0]
 8001d1a:	6a06      	ldr	r6, [r0, #32]
 8001d1c:	6801      	ldr	r1, [r0, #0]
 8001d1e:	604b      	str	r3, [r1, #4]
 8001d20:	4633      	mov	r3, r6
 8001d22:	e002      	b.n	8001d2a <chMtxLockS+0x9a>
 8001d24:	6899      	ldr	r1, [r3, #8]
 8001d26:	4291      	cmp	r1, r2
 8001d28:	d302      	bcc.n	8001d30 <chMtxLockS+0xa0>
 8001d2a:	681b      	ldr	r3, [r3, #0]
 8001d2c:	429e      	cmp	r6, r3
 8001d2e:	d1f9      	bne.n	8001d24 <chMtxLockS+0x94>
 8001d30:	685a      	ldr	r2, [r3, #4]
 8001d32:	6042      	str	r2, [r0, #4]
 8001d34:	6003      	str	r3, [r0, #0]
 8001d36:	6058      	str	r0, [r3, #4]
 8001d38:	6010      	str	r0, [r2, #0]
 8001d3a:	68b0      	ldr	r0, [r6, #8]
 8001d3c:	68a2      	ldr	r2, [r4, #8]
 8001d3e:	6883      	ldr	r3, [r0, #8]
 8001d40:	4293      	cmp	r3, r2
 8001d42:	d3b0      	bcc.n	8001ca6 <chMtxLockS+0x16>
 8001d44:	e7b6      	b.n	8001cb4 <chMtxLockS+0x24>
 8001d46:	6ba3      	ldr	r3, [r4, #56]	; 0x38
 8001d48:	60eb      	str	r3, [r5, #12]
 8001d4a:	60ac      	str	r4, [r5, #8]
 8001d4c:	63a5      	str	r5, [r4, #56]	; 0x38
 8001d4e:	bd70      	pop	{r4, r5, r6, pc}
 8001d50:	20002cd4 	.word	0x20002cd4
 8001d54:	f3af 8000 	nop.w
 8001d58:	f3af 8000 	nop.w
 8001d5c:	f3af 8000 	nop.w

08001d60 <chThdResumeI>:
 8001d60:	6803      	ldr	r3, [r0, #0]
 8001d62:	b12b      	cbz	r3, 8001d70 <chThdResumeI+0x10>
 8001d64:	2200      	movs	r2, #0
 8001d66:	6002      	str	r2, [r0, #0]
 8001d68:	4618      	mov	r0, r3
 8001d6a:	6219      	str	r1, [r3, #32]
 8001d6c:	f7ff bf48 	b.w	8001c00 <chSchReadyI>
 8001d70:	4770      	bx	lr
 8001d72:	bf00      	nop
 8001d74:	f3af 8000 	nop.w
 8001d78:	f3af 8000 	nop.w
 8001d7c:	f3af 8000 	nop.w

08001d80 <i2c_lld_serve_error_interrupt.11412.4355>:
 8001d80:	b570      	push	{r4, r5, r6, lr}
 8001d82:	6b05      	ldr	r5, [r0, #48]	; 0x30
 8001d84:	682a      	ldr	r2, [r5, #0]
 8001d86:	6813      	ldr	r3, [r2, #0]
 8001d88:	f023 031f 	bic.w	r3, r3, #31
 8001d8c:	6013      	str	r3, [r2, #0]
 8001d8e:	6813      	ldr	r3, [r2, #0]
 8001d90:	07de      	lsls	r6, r3, #31
 8001d92:	d4fc      	bmi.n	8001d8e <i2c_lld_serve_error_interrupt.11412.4355+0xe>
 8001d94:	7a2e      	ldrb	r6, [r5, #8]
 8001d96:	6ac4      	ldr	r4, [r0, #44]	; 0x2c
 8001d98:	686b      	ldr	r3, [r5, #4]
 8001d9a:	6822      	ldr	r2, [r4, #0]
 8001d9c:	253d      	movs	r5, #61	; 0x3d
 8001d9e:	40b5      	lsls	r5, r6
 8001da0:	601d      	str	r5, [r3, #0]
 8001da2:	6813      	ldr	r3, [r2, #0]
 8001da4:	f023 031f 	bic.w	r3, r3, #31
 8001da8:	6013      	str	r3, [r2, #0]
 8001daa:	6813      	ldr	r3, [r2, #0]
 8001dac:	f013 0301 	ands.w	r3, r3, #1
 8001db0:	d1fb      	bne.n	8001daa <i2c_lld_serve_error_interrupt.11412.4355+0x2a>
 8001db2:	7a25      	ldrb	r5, [r4, #8]
 8001db4:	6862      	ldr	r2, [r4, #4]
 8001db6:	243d      	movs	r4, #61	; 0x3d
 8001db8:	40ac      	lsls	r4, r5
 8001dba:	05cd      	lsls	r5, r1, #23
 8001dbc:	6014      	str	r4, [r2, #0]
 8001dbe:	bf48      	it	mi
 8001dc0:	2301      	movmi	r3, #1
 8001dc2:	058c      	lsls	r4, r1, #22
 8001dc4:	6083      	str	r3, [r0, #8]
 8001dc6:	bf44      	itt	mi
 8001dc8:	f043 0302 	orrmi.w	r3, r3, #2
 8001dcc:	6083      	strmi	r3, [r0, #8]
 8001dce:	054a      	lsls	r2, r1, #21
 8001dd0:	d50b      	bpl.n	8001dea <i2c_lld_serve_error_interrupt.11412.4355+0x6a>
 8001dd2:	6b42      	ldr	r2, [r0, #52]	; 0x34
 8001dd4:	6854      	ldr	r4, [r2, #4]
 8001dd6:	f424 7400 	bic.w	r4, r4, #512	; 0x200
 8001dda:	6054      	str	r4, [r2, #4]
 8001ddc:	6814      	ldr	r4, [r2, #0]
 8001dde:	f043 0304 	orr.w	r3, r3, #4
 8001de2:	f444 7400 	orr.w	r4, r4, #512	; 0x200
 8001de6:	6014      	str	r4, [r2, #0]
 8001de8:	6083      	str	r3, [r0, #8]
 8001dea:	050e      	lsls	r6, r1, #20
 8001dec:	bf44      	itt	mi
 8001dee:	f043 0308 	orrmi.w	r3, r3, #8
 8001df2:	6083      	strmi	r3, [r0, #8]
 8001df4:	044d      	lsls	r5, r1, #17
 8001df6:	bf44      	itt	mi
 8001df8:	f043 0320 	orrmi.w	r3, r3, #32
 8001dfc:	6083      	strmi	r3, [r0, #8]
 8001dfe:	04cc      	lsls	r4, r1, #19
 8001e00:	bf44      	itt	mi
 8001e02:	f043 0310 	orrmi.w	r3, r3, #16
 8001e06:	6083      	strmi	r3, [r0, #8]
 8001e08:	040a      	lsls	r2, r1, #16
 8001e0a:	d401      	bmi.n	8001e10 <i2c_lld_serve_error_interrupt.11412.4355+0x90>
 8001e0c:	b91b      	cbnz	r3, 8001e16 <i2c_lld_serve_error_interrupt.11412.4355+0x96>
 8001e0e:	bd70      	pop	{r4, r5, r6, pc}
 8001e10:	f043 0340 	orr.w	r3, r3, #64	; 0x40
 8001e14:	6083      	str	r3, [r0, #8]
 8001e16:	2320      	movs	r3, #32
 8001e18:	f383 8811 	msr	BASEPRI, r3
 8001e1c:	f06f 0101 	mvn.w	r1, #1
 8001e20:	301c      	adds	r0, #28
 8001e22:	f7ff ff9d 	bl	8001d60 <chThdResumeI>
 8001e26:	2300      	movs	r3, #0
 8001e28:	f383 8811 	msr	BASEPRI, r3
 8001e2c:	bd70      	pop	{r4, r5, r6, pc}
 8001e2e:	bf00      	nop

08001e30 <Vector164>:
 8001e30:	4807      	ldr	r0, [pc, #28]	; (8001e50 <Vector164+0x20>)
 8001e32:	b508      	push	{r3, lr}
 8001e34:	6b43      	ldr	r3, [r0, #52]	; 0x34
 8001e36:	6959      	ldr	r1, [r3, #20]
 8001e38:	b289      	uxth	r1, r1
 8001e3a:	f401 425f 	and.w	r2, r1, #57088	; 0xdf00
 8001e3e:	43d2      	mvns	r2, r2
 8001e40:	615a      	str	r2, [r3, #20]
 8001e42:	f7ff ff9d 	bl	8001d80 <i2c_lld_serve_error_interrupt.11412.4355>
 8001e46:	e8bd 4008 	ldmia.w	sp!, {r3, lr}
 8001e4a:	f7ff bce9 	b.w	8001820 <_port_irq_epilogue>
 8001e4e:	bf00      	nop
 8001e50:	20002e34 	.word	0x20002e34
 8001e54:	f3af 8000 	nop.w
 8001e58:	f3af 8000 	nop.w
 8001e5c:	f3af 8000 	nop.w

08001e60 <VectorC0>:
 8001e60:	4807      	ldr	r0, [pc, #28]	; (8001e80 <VectorC0+0x20>)
 8001e62:	b508      	push	{r3, lr}
 8001e64:	6b43      	ldr	r3, [r0, #52]	; 0x34
 8001e66:	6959      	ldr	r1, [r3, #20]
 8001e68:	b289      	uxth	r1, r1
 8001e6a:	f401 425f 	and.w	r2, r1, #57088	; 0xdf00
 8001e6e:	43d2      	mvns	r2, r2
 8001e70:	615a      	str	r2, [r3, #20]
 8001e72:	f7ff ff85 	bl	8001d80 <i2c_lld_serve_error_interrupt.11412.4355>
 8001e76:	e8bd 4008 	ldmia.w	sp!, {r3, lr}
 8001e7a:	f7ff bcd1 	b.w	8001820 <_port_irq_epilogue>
 8001e7e:	bf00      	nop
 8001e80:	20002e6c 	.word	0x20002e6c
 8001e84:	f3af 8000 	nop.w
 8001e88:	f3af 8000 	nop.w
 8001e8c:	f3af 8000 	nop.w

08001e90 <i2c_lld_serve_event_interrupt.11409.4359>:
 8001e90:	b570      	push	{r4, r5, r6, lr}
 8001e92:	6b44      	ldr	r4, [r0, #52]	; 0x34
 8001e94:	4a3a      	ldr	r2, [pc, #232]	; (8001f80 <i2c_lld_serve_event_interrupt.11409.4359+0xf0>)
 8001e96:	69a3      	ldr	r3, [r4, #24]
 8001e98:	6965      	ldr	r5, [r4, #20]
 8001e9a:	ea45 4303 	orr.w	r3, r5, r3, lsl #16
 8001e9e:	f023 437f 	bic.w	r3, r3, #4278190080	; 0xff000000
 8001ea2:	4293      	cmp	r3, r2
 8001ea4:	d04b      	beq.n	8001f3e <i2c_lld_serve_event_interrupt.11409.4359+0xae>
 8001ea6:	d81b      	bhi.n	8001ee0 <i2c_lld_serve_event_interrupt.11409.4359+0x50>
 8001ea8:	3a07      	subs	r2, #7
 8001eaa:	4293      	cmp	r3, r2
 8001eac:	d03b      	beq.n	8001f26 <i2c_lld_serve_event_interrupt.11409.4359+0x96>
 8001eae:	3201      	adds	r2, #1
 8001eb0:	4293      	cmp	r3, r2
 8001eb2:	d110      	bne.n	8001ed6 <i2c_lld_serve_event_interrupt.11409.4359+0x46>
 8001eb4:	6862      	ldr	r2, [r4, #4]
 8001eb6:	6ac3      	ldr	r3, [r0, #44]	; 0x2c
 8001eb8:	f422 7200 	bic.w	r2, r2, #512	; 0x200
 8001ebc:	681b      	ldr	r3, [r3, #0]
 8001ebe:	6062      	str	r2, [r4, #4]
 8001ec0:	681a      	ldr	r2, [r3, #0]
 8001ec2:	f042 0201 	orr.w	r2, r2, #1
 8001ec6:	601a      	str	r2, [r3, #0]
 8001ec8:	6862      	ldr	r2, [r4, #4]
 8001eca:	f442 5280 	orr.w	r2, r2, #4096	; 0x1000
 8001ece:	6062      	str	r2, [r4, #4]
 8001ed0:	685b      	ldr	r3, [r3, #4]
 8001ed2:	2b01      	cmp	r3, #1
 8001ed4:	d94e      	bls.n	8001f74 <i2c_lld_serve_event_interrupt.11409.4359+0xe4>
 8001ed6:	f015 0f0a 	tst.w	r5, #10
 8001eda:	bf18      	it	ne
 8001edc:	69a3      	ldrne	r3, [r4, #24]
 8001ede:	bd70      	pop	{r4, r5, r6, pc}
 8001ee0:	4a28      	ldr	r2, [pc, #160]	; (8001f84 <i2c_lld_serve_event_interrupt.11409.4359+0xf4>)
 8001ee2:	4293      	cmp	r3, r2
 8001ee4:	d010      	beq.n	8001f08 <i2c_lld_serve_event_interrupt.11409.4359+0x78>
 8001ee6:	3202      	adds	r2, #2
 8001ee8:	4293      	cmp	r3, r2
 8001eea:	d1f4      	bne.n	8001ed6 <i2c_lld_serve_event_interrupt.11409.4359+0x46>
 8001eec:	6ac3      	ldr	r3, [r0, #44]	; 0x2c
 8001eee:	681b      	ldr	r3, [r3, #0]
 8001ef0:	685e      	ldr	r6, [r3, #4]
 8001ef2:	2e00      	cmp	r6, #0
 8001ef4:	d02c      	beq.n	8001f50 <i2c_lld_serve_event_interrupt.11409.4359+0xc0>
 8001ef6:	8c02      	ldrh	r2, [r0, #32]
 8001ef8:	6823      	ldr	r3, [r4, #0]
 8001efa:	f042 0201 	orr.w	r2, r2, #1
 8001efe:	f443 63a0 	orr.w	r3, r3, #1280	; 0x500
 8001f02:	8402      	strh	r2, [r0, #32]
 8001f04:	6023      	str	r3, [r4, #0]
 8001f06:	bd70      	pop	{r4, r5, r6, pc}
 8001f08:	6862      	ldr	r2, [r4, #4]
 8001f0a:	6b03      	ldr	r3, [r0, #48]	; 0x30
 8001f0c:	f422 7200 	bic.w	r2, r2, #512	; 0x200
 8001f10:	681b      	ldr	r3, [r3, #0]
 8001f12:	6062      	str	r2, [r4, #4]
 8001f14:	681a      	ldr	r2, [r3, #0]
 8001f16:	f042 0201 	orr.w	r2, r2, #1
 8001f1a:	601a      	str	r2, [r3, #0]
 8001f1c:	f015 0f0a 	tst.w	r5, #10
 8001f20:	bf18      	it	ne
 8001f22:	69a3      	ldrne	r3, [r4, #24]
 8001f24:	bd70      	pop	{r4, r5, r6, pc}
 8001f26:	8c03      	ldrh	r3, [r0, #32]
 8001f28:	0a1a      	lsrs	r2, r3, #8
 8001f2a:	d00b      	beq.n	8001f44 <i2c_lld_serve_event_interrupt.11409.4359+0xb4>
 8001f2c:	f003 0301 	and.w	r3, r3, #1
 8001f30:	f043 03f0 	orr.w	r3, r3, #240	; 0xf0
 8001f34:	f002 0206 	and.w	r2, r2, #6
 8001f38:	431a      	orrs	r2, r3
 8001f3a:	6122      	str	r2, [r4, #16]
 8001f3c:	e7cb      	b.n	8001ed6 <i2c_lld_serve_event_interrupt.11409.4359+0x46>
 8001f3e:	8c03      	ldrh	r3, [r0, #32]
 8001f40:	f3c3 0347 	ubfx	r3, r3, #1, #8
 8001f44:	6123      	str	r3, [r4, #16]
 8001f46:	f015 0f0a 	tst.w	r5, #10
 8001f4a:	bf18      	it	ne
 8001f4c:	69a3      	ldrne	r3, [r4, #24]
 8001f4e:	bd70      	pop	{r4, r5, r6, pc}
 8001f50:	6863      	ldr	r3, [r4, #4]
 8001f52:	f423 7300 	bic.w	r3, r3, #512	; 0x200
 8001f56:	6063      	str	r3, [r4, #4]
 8001f58:	6823      	ldr	r3, [r4, #0]
 8001f5a:	f443 7300 	orr.w	r3, r3, #512	; 0x200
 8001f5e:	6023      	str	r3, [r4, #0]
 8001f60:	2320      	movs	r3, #32
 8001f62:	f383 8811 	msr	BASEPRI, r3
 8001f66:	301c      	adds	r0, #28
 8001f68:	4631      	mov	r1, r6
 8001f6a:	f7ff fef9 	bl	8001d60 <chThdResumeI>
 8001f6e:	f386 8811 	msr	BASEPRI, r6
 8001f72:	e7b0      	b.n	8001ed6 <i2c_lld_serve_event_interrupt.11409.4359+0x46>
 8001f74:	6823      	ldr	r3, [r4, #0]
 8001f76:	f423 6380 	bic.w	r3, r3, #1024	; 0x400
 8001f7a:	6023      	str	r3, [r4, #0]
 8001f7c:	e7ab      	b.n	8001ed6 <i2c_lld_serve_event_interrupt.11409.4359+0x46>
 8001f7e:	bf00      	nop
 8001f80:	00030008 	.word	0x00030008
 8001f84:	00070082 	.word	0x00070082
 8001f88:	f3af 8000 	nop.w
 8001f8c:	f3af 8000 	nop.w

08001f90 <Vector160>:
 8001f90:	b508      	push	{r3, lr}
 8001f92:	4803      	ldr	r0, [pc, #12]	; (8001fa0 <Vector160+0x10>)
 8001f94:	f7ff ff7c 	bl	8001e90 <i2c_lld_serve_event_interrupt.11409.4359>
 8001f98:	e8bd 4008 	ldmia.w	sp!, {r3, lr}
 8001f9c:	f7ff bc40 	b.w	8001820 <_port_irq_epilogue>
 8001fa0:	20002e34 	.word	0x20002e34
 8001fa4:	f3af 8000 	nop.w
 8001fa8:	f3af 8000 	nop.w
 8001fac:	f3af 8000 	nop.w

08001fb0 <VectorBC>:
 8001fb0:	b508      	push	{r3, lr}
 8001fb2:	4803      	ldr	r0, [pc, #12]	; (8001fc0 <VectorBC+0x10>)
 8001fb4:	f7ff ff6c 	bl	8001e90 <i2c_lld_serve_event_interrupt.11409.4359>
 8001fb8:	e8bd 4008 	ldmia.w	sp!, {r3, lr}
 8001fbc:	f7ff bc30 	b.w	8001820 <_port_irq_epilogue>
 8001fc0:	20002e6c 	.word	0x20002e6c
 8001fc4:	f3af 8000 	nop.w
 8001fc8:	f3af 8000 	nop.w
 8001fcc:	f3af 8000 	nop.w

08001fd0 <Vector88>:
 8001fd0:	b538      	push	{r3, r4, r5, lr}
 8001fd2:	4b16      	ldr	r3, [pc, #88]	; (800202c <Vector88+0x5c>)
 8001fd4:	681a      	ldr	r2, [r3, #0]
 8001fd6:	2100      	movs	r1, #0
 8001fd8:	6019      	str	r1, [r3, #0]
 8001fda:	0693      	lsls	r3, r2, #26
 8001fdc:	d522      	bpl.n	8002024 <Vector88+0x54>
 8001fde:	4c14      	ldr	r4, [pc, #80]	; (8002030 <Vector88+0x60>)
 8001fe0:	6ae3      	ldr	r3, [r4, #44]	; 0x2c
 8001fe2:	681b      	ldr	r3, [r3, #0]
 8001fe4:	685b      	ldr	r3, [r3, #4]
 8001fe6:	b1eb      	cbz	r3, 8002024 <Vector88+0x54>
 8001fe8:	6923      	ldr	r3, [r4, #16]
 8001fea:	b1db      	cbz	r3, 8002024 <Vector88+0x54>
 8001fec:	4620      	mov	r0, r4
 8001fee:	f7ff f947 	bl	8001280 <adc_lld_stop_conversion.4457>
 8001ff2:	6923      	ldr	r3, [r4, #16]
 8001ff4:	689b      	ldr	r3, [r3, #8]
 8001ff6:	b14b      	cbz	r3, 800200c <Vector88+0x3c>
 8001ff8:	2205      	movs	r2, #5
 8001ffa:	7022      	strb	r2, [r4, #0]
 8001ffc:	4620      	mov	r0, r4
 8001ffe:	2101      	movs	r1, #1
 8002000:	4798      	blx	r3
 8002002:	7823      	ldrb	r3, [r4, #0]
 8002004:	2b05      	cmp	r3, #5
 8002006:	bf04      	itt	eq
 8002008:	2302      	moveq	r3, #2
 800200a:	7023      	strbeq	r3, [r4, #0]
 800200c:	2500      	movs	r5, #0
 800200e:	6125      	str	r5, [r4, #16]
 8002010:	2320      	movs	r3, #32
 8002012:	f383 8811 	msr	BASEPRI, r3
 8002016:	4807      	ldr	r0, [pc, #28]	; (8002034 <Vector88+0x64>)
 8002018:	f04f 31ff 	mov.w	r1, #4294967295	; 0xffffffff
 800201c:	f7ff fea0 	bl	8001d60 <chThdResumeI>
 8002020:	f385 8811 	msr	BASEPRI, r5
 8002024:	e8bd 4038 	ldmia.w	sp!, {r3, r4, r5, lr}
 8002028:	f7ff bbfa 	b.w	8001820 <_port_irq_epilogue>
 800202c:	40012000 	.word	0x40012000
 8002030:	20002848 	.word	0x20002848
 8002034:	2000285c 	.word	0x2000285c
 8002038:	f3af 8000 	nop.w
 800203c:	f3af 8000 	nop.w

08002040 <adc_lld_serve_rx_interrupt.11091>:
 8002040:	f011 0f0c 	tst.w	r1, #12
 8002044:	b538      	push	{r3, r4, r5, lr}
 8002046:	4604      	mov	r4, r0
 8002048:	d11d      	bne.n	8002086 <adc_lld_serve_rx_interrupt.11091+0x46>
 800204a:	6903      	ldr	r3, [r0, #16]
 800204c:	b1d3      	cbz	r3, 8002084 <adc_lld_serve_rx_interrupt.11091+0x44>
 800204e:	068d      	lsls	r5, r1, #26
 8002050:	d510      	bpl.n	8002074 <adc_lld_serve_rx_interrupt.11091+0x34>
 8002052:	781d      	ldrb	r5, [r3, #0]
 8002054:	2d00      	cmp	r5, #0
 8002056:	d036      	beq.n	80020c6 <adc_lld_serve_rx_interrupt.11091+0x86>
 8002058:	685d      	ldr	r5, [r3, #4]
 800205a:	b19d      	cbz	r5, 8002084 <adc_lld_serve_rx_interrupt.11091+0x44>
 800205c:	68c2      	ldr	r2, [r0, #12]
 800205e:	2a01      	cmp	r2, #1
 8002060:	d92e      	bls.n	80020c0 <adc_lld_serve_rx_interrupt.11091+0x80>
 8002062:	8859      	ldrh	r1, [r3, #2]
 8002064:	6883      	ldr	r3, [r0, #8]
 8002066:	0852      	lsrs	r2, r2, #1
 8002068:	fb01 f102 	mul.w	r1, r1, r2
 800206c:	eb03 0141 	add.w	r1, r3, r1, lsl #1
 8002070:	47a8      	blx	r5
 8002072:	bd38      	pop	{r3, r4, r5, pc}
 8002074:	06ca      	lsls	r2, r1, #27
 8002076:	d505      	bpl.n	8002084 <adc_lld_serve_rx_interrupt.11091+0x44>
 8002078:	685b      	ldr	r3, [r3, #4]
 800207a:	b11b      	cbz	r3, 8002084 <adc_lld_serve_rx_interrupt.11091+0x44>
 800207c:	68c2      	ldr	r2, [r0, #12]
 800207e:	6881      	ldr	r1, [r0, #8]
 8002080:	0852      	lsrs	r2, r2, #1
 8002082:	4798      	blx	r3
 8002084:	bd38      	pop	{r3, r4, r5, pc}
 8002086:	f7ff f8fb 	bl	8001280 <adc_lld_stop_conversion.4457>
 800208a:	6923      	ldr	r3, [r4, #16]
 800208c:	689b      	ldr	r3, [r3, #8]
 800208e:	b14b      	cbz	r3, 80020a4 <adc_lld_serve_rx_interrupt.11091+0x64>
 8002090:	2205      	movs	r2, #5
 8002092:	7022      	strb	r2, [r4, #0]
 8002094:	4620      	mov	r0, r4
 8002096:	2100      	movs	r1, #0
 8002098:	4798      	blx	r3
 800209a:	7823      	ldrb	r3, [r4, #0]
 800209c:	2b05      	cmp	r3, #5
 800209e:	bf04      	itt	eq
 80020a0:	2302      	moveq	r3, #2
 80020a2:	7023      	strbeq	r3, [r4, #0]
 80020a4:	2500      	movs	r5, #0
 80020a6:	6125      	str	r5, [r4, #16]
 80020a8:	2320      	movs	r3, #32
 80020aa:	f383 8811 	msr	BASEPRI, r3
 80020ae:	f04f 31ff 	mov.w	r1, #4294967295	; 0xffffffff
 80020b2:	f104 0014 	add.w	r0, r4, #20
 80020b6:	f7ff fe53 	bl	8001d60 <chThdResumeI>
 80020ba:	f385 8811 	msr	BASEPRI, r5
 80020be:	bd38      	pop	{r3, r4, r5, pc}
 80020c0:	6881      	ldr	r1, [r0, #8]
 80020c2:	47a8      	blx	r5
 80020c4:	bd38      	pop	{r3, r4, r5, pc}
 80020c6:	f7ff f8db 	bl	8001280 <adc_lld_stop_conversion.4457>
 80020ca:	6923      	ldr	r3, [r4, #16]
 80020cc:	685b      	ldr	r3, [r3, #4]
 80020ce:	b1c3      	cbz	r3, 8002102 <adc_lld_serve_rx_interrupt.11091+0xc2>
 80020d0:	2204      	movs	r2, #4
 80020d2:	7022      	strb	r2, [r4, #0]
 80020d4:	4620      	mov	r0, r4
 80020d6:	68a1      	ldr	r1, [r4, #8]
 80020d8:	68e2      	ldr	r2, [r4, #12]
 80020da:	4798      	blx	r3
 80020dc:	7823      	ldrb	r3, [r4, #0]
 80020de:	2b04      	cmp	r3, #4
 80020e0:	d00b      	beq.n	80020fa <adc_lld_serve_rx_interrupt.11091+0xba>
 80020e2:	2320      	movs	r3, #32
 80020e4:	f383 8811 	msr	BASEPRI, r3
 80020e8:	2100      	movs	r1, #0
 80020ea:	f104 0014 	add.w	r0, r4, #20
 80020ee:	f7ff fe37 	bl	8001d60 <chThdResumeI>
 80020f2:	2300      	movs	r3, #0
 80020f4:	f383 8811 	msr	BASEPRI, r3
 80020f8:	bd38      	pop	{r3, r4, r5, pc}
 80020fa:	2302      	movs	r3, #2
 80020fc:	6125      	str	r5, [r4, #16]
 80020fe:	7023      	strb	r3, [r4, #0]
 8002100:	e7ef      	b.n	80020e2 <adc_lld_serve_rx_interrupt.11091+0xa2>
 8002102:	2202      	movs	r2, #2
 8002104:	6123      	str	r3, [r4, #16]
 8002106:	7022      	strb	r2, [r4, #0]
 8002108:	e7eb      	b.n	80020e2 <adc_lld_serve_rx_interrupt.11091+0xa2>
 800210a:	bf00      	nop
 800210c:	f3af 8000 	nop.w

08002110 <chTMStopMeasurementX>:
 8002110:	4a0e      	ldr	r2, [pc, #56]	; (800214c <chTMStopMeasurementX+0x3c>)
 8002112:	4b0f      	ldr	r3, [pc, #60]	; (8002150 <chTMStopMeasurementX+0x40>)
 8002114:	6851      	ldr	r1, [r2, #4]
 8002116:	b4f0      	push	{r4, r5, r6, r7}
 8002118:	6886      	ldr	r6, [r0, #8]
 800211a:	6b1f      	ldr	r7, [r3, #48]	; 0x30
 800211c:	68c5      	ldr	r5, [r0, #12]
 800211e:	6844      	ldr	r4, [r0, #4]
 8002120:	e9d0 2304 	ldrd	r2, r3, [r0, #16]
 8002124:	1b89      	subs	r1, r1, r6
 8002126:	1bc9      	subs	r1, r1, r7
 8002128:	1852      	adds	r2, r2, r1
 800212a:	f143 0300 	adc.w	r3, r3, #0
 800212e:	3501      	adds	r5, #1
 8002130:	42a1      	cmp	r1, r4
 8002132:	60c5      	str	r5, [r0, #12]
 8002134:	6081      	str	r1, [r0, #8]
 8002136:	e9c0 2304 	strd	r2, r3, [r0, #16]
 800213a:	d805      	bhi.n	8002148 <chTMStopMeasurementX+0x38>
 800213c:	6803      	ldr	r3, [r0, #0]
 800213e:	4299      	cmp	r1, r3
 8002140:	bf38      	it	cc
 8002142:	6001      	strcc	r1, [r0, #0]
 8002144:	bcf0      	pop	{r4, r5, r6, r7}
 8002146:	4770      	bx	lr
 8002148:	6041      	str	r1, [r0, #4]
 800214a:	e7fb      	b.n	8002144 <chTMStopMeasurementX+0x34>
 800214c:	e0001000 	.word	0xe0001000
 8002150:	20002cd4 	.word	0x20002cd4
 8002154:	f3af 8000 	nop.w
 8002158:	f3af 8000 	nop.w
 800215c:	f3af 8000 	nop.w

08002160 <BusFault_Handler>:
 8002160:	e7fe      	b.n	8002160 <BusFault_Handler>
 8002162:	bf00      	nop
 8002164:	f3af 8000 	nop.w
 8002168:	f3af 8000 	nop.w
 800216c:	f3af 8000 	nop.w

08002170 <serve_interrupt.12021.4555>:
 8002170:	e92d 43f8 	stmdb	sp!, {r3, r4, r5, r6, r7, r8, r9, lr}
 8002174:	f8d0 6454 	ldr.w	r6, [r0, #1108]	; 0x454
 8002178:	f8d6 900c 	ldr.w	r9, [r6, #12]
 800217c:	6833      	ldr	r3, [r6, #0]
 800217e:	05df      	lsls	r7, r3, #23
 8002180:	4604      	mov	r4, r0
 8002182:	b29d      	uxth	r5, r3
 8002184:	d472      	bmi.n	800226c <serve_interrupt.12021.4555+0xfc>
 8002186:	2320      	movs	r3, #32
 8002188:	f383 8811 	msr	BASEPRI, r3
 800218c:	06a8      	lsls	r0, r5, #26
 800218e:	d528      	bpl.n	80021e2 <serve_interrupt.12021.4555+0x72>
 8002190:	f104 0804 	add.w	r8, r4, #4
 8002194:	f104 070c 	add.w	r7, r4, #12
 8002198:	0729      	lsls	r1, r5, #28
 800219a:	d150      	bne.n	800223e <serve_interrupt.12021.4555+0xce>
 800219c:	6872      	ldr	r2, [r6, #4]
 800219e:	6963      	ldr	r3, [r4, #20]
 80021a0:	b2d5      	uxtb	r5, r2
 80021a2:	2b00      	cmp	r3, #0
 80021a4:	d03b      	beq.n	800221e <serve_interrupt.12021.4555+0xae>
 80021a6:	6a22      	ldr	r2, [r4, #32]
 80021a8:	6a61      	ldr	r1, [r4, #36]	; 0x24
 80021aa:	428a      	cmp	r2, r1
 80021ac:	d042      	beq.n	8002234 <serve_interrupt.12021.4555+0xc4>
 80021ae:	3301      	adds	r3, #1
 80021b0:	1c51      	adds	r1, r2, #1
 80021b2:	6163      	str	r3, [r4, #20]
 80021b4:	6221      	str	r1, [r4, #32]
 80021b6:	7015      	strb	r5, [r2, #0]
 80021b8:	6a22      	ldr	r2, [r4, #32]
 80021ba:	69e3      	ldr	r3, [r4, #28]
 80021bc:	429a      	cmp	r2, r3
 80021be:	d301      	bcc.n	80021c4 <serve_interrupt.12021.4555+0x54>
 80021c0:	69a3      	ldr	r3, [r4, #24]
 80021c2:	6223      	str	r3, [r4, #32]
 80021c4:	68e3      	ldr	r3, [r4, #12]
 80021c6:	429f      	cmp	r7, r3
 80021c8:	d007      	beq.n	80021da <serve_interrupt.12021.4555+0x6a>
 80021ca:	681a      	ldr	r2, [r3, #0]
 80021cc:	60e2      	str	r2, [r4, #12]
 80021ce:	2100      	movs	r1, #0
 80021d0:	6057      	str	r7, [r2, #4]
 80021d2:	4618      	mov	r0, r3
 80021d4:	6219      	str	r1, [r3, #32]
 80021d6:	f7ff fd13 	bl	8001c00 <chSchReadyI>
 80021da:	6835      	ldr	r5, [r6, #0]
 80021dc:	b2ad      	uxth	r5, r5
 80021de:	06a9      	lsls	r1, r5, #26
 80021e0:	d4da      	bmi.n	8002198 <serve_interrupt.12021.4555+0x28>
 80021e2:	2300      	movs	r3, #0
 80021e4:	f383 8811 	msr	BASEPRI, r3
 80021e8:	f019 0f80 	tst.w	r9, #128	; 0x80
 80021ec:	d001      	beq.n	80021f2 <serve_interrupt.12021.4555+0x82>
 80021ee:	062a      	lsls	r2, r5, #24
 80021f0:	d44b      	bmi.n	800228a <serve_interrupt.12021.4555+0x11a>
 80021f2:	066b      	lsls	r3, r5, #25
 80021f4:	d538      	bpl.n	8002268 <serve_interrupt.12021.4555+0xf8>
 80021f6:	2320      	movs	r3, #32
 80021f8:	f383 8811 	msr	BASEPRI, r3
 80021fc:	6c62      	ldr	r2, [r4, #68]	; 0x44
 80021fe:	6ca3      	ldr	r3, [r4, #72]	; 0x48
 8002200:	429a      	cmp	r2, r3
 8002202:	d068      	beq.n	80022d6 <serve_interrupt.12021.4555+0x166>
 8002204:	f64f 73bf 	movw	r3, #65471	; 0xffbf
 8002208:	ea09 0303 	and.w	r3, r9, r3
 800220c:	f06f 0240 	mvn.w	r2, #64	; 0x40
 8002210:	60f3      	str	r3, [r6, #12]
 8002212:	2300      	movs	r3, #0
 8002214:	6032      	str	r2, [r6, #0]
 8002216:	f383 8811 	msr	BASEPRI, r3
 800221a:	e8bd 83f8 	ldmia.w	sp!, {r3, r4, r5, r6, r7, r8, r9, pc}
 800221e:	2104      	movs	r1, #4
 8002220:	4640      	mov	r0, r8
 8002222:	f7ff fd05 	bl	8001c30 <chEvtBroadcastFlagsI>
 8002226:	6a22      	ldr	r2, [r4, #32]
 8002228:	6a61      	ldr	r1, [r4, #36]	; 0x24
 800222a:	6963      	ldr	r3, [r4, #20]
 800222c:	428a      	cmp	r2, r1
 800222e:	d1be      	bne.n	80021ae <serve_interrupt.12021.4555+0x3e>
 8002230:	2b00      	cmp	r3, #0
 8002232:	d0bc      	beq.n	80021ae <serve_interrupt.12021.4555+0x3e>
 8002234:	4640      	mov	r0, r8
 8002236:	2180      	movs	r1, #128	; 0x80
 8002238:	f7ff fcfa 	bl	8001c30 <chEvtBroadcastFlagsI>
 800223c:	e7cd      	b.n	80021da <serve_interrupt.12021.4555+0x6a>
 800223e:	f015 0f08 	tst.w	r5, #8
 8002242:	bf14      	ite	ne
 8002244:	2180      	movne	r1, #128	; 0x80
 8002246:	2100      	moveq	r1, #0
 8002248:	07ea      	lsls	r2, r5, #31
 800224a:	bf48      	it	mi
 800224c:	f041 0120 	orrmi.w	r1, r1, #32
 8002250:	07ab      	lsls	r3, r5, #30
 8002252:	bf48      	it	mi
 8002254:	f041 0140 	orrmi.w	r1, r1, #64	; 0x40
 8002258:	0768      	lsls	r0, r5, #29
 800225a:	bf48      	it	mi
 800225c:	f441 7180 	orrmi.w	r1, r1, #256	; 0x100
 8002260:	4640      	mov	r0, r8
 8002262:	f7ff fce5 	bl	8001c30 <chEvtBroadcastFlagsI>
 8002266:	e799      	b.n	800219c <serve_interrupt.12021.4555+0x2c>
 8002268:	e8bd 83f8 	ldmia.w	sp!, {r3, r4, r5, r6, r7, r8, r9, pc}
 800226c:	2320      	movs	r3, #32
 800226e:	f383 8811 	msr	BASEPRI, r3
 8002272:	f44f 7100 	mov.w	r1, #512	; 0x200
 8002276:	3004      	adds	r0, #4
 8002278:	f7ff fcda 	bl	8001c30 <chEvtBroadcastFlagsI>
 800227c:	f46f 7380 	mvn.w	r3, #256	; 0x100
 8002280:	6033      	str	r3, [r6, #0]
 8002282:	2300      	movs	r3, #0
 8002284:	f383 8811 	msr	BASEPRI, r3
 8002288:	e77d      	b.n	8002186 <serve_interrupt.12021.4555+0x16>
 800228a:	2320      	movs	r3, #32
 800228c:	f383 8811 	msr	BASEPRI, r3
 8002290:	6c62      	ldr	r2, [r4, #68]	; 0x44
 8002292:	6ca3      	ldr	r3, [r4, #72]	; 0x48
 8002294:	429a      	cmp	r2, r3
 8002296:	6ba2      	ldr	r2, [r4, #56]	; 0x38
 8002298:	d025      	beq.n	80022e6 <serve_interrupt.12021.4555+0x176>
 800229a:	6c21      	ldr	r1, [r4, #64]	; 0x40
 800229c:	1c50      	adds	r0, r2, #1
 800229e:	1c5a      	adds	r2, r3, #1
 80022a0:	63a0      	str	r0, [r4, #56]	; 0x38
 80022a2:	64a2      	str	r2, [r4, #72]	; 0x48
 80022a4:	428a      	cmp	r2, r1
 80022a6:	781f      	ldrb	r7, [r3, #0]
 80022a8:	d301      	bcc.n	80022ae <serve_interrupt.12021.4555+0x13e>
 80022aa:	6be3      	ldr	r3, [r4, #60]	; 0x3c
 80022ac:	64a3      	str	r3, [r4, #72]	; 0x48
 80022ae:	6b23      	ldr	r3, [r4, #48]	; 0x30
 80022b0:	f104 0230 	add.w	r2, r4, #48	; 0x30
 80022b4:	429a      	cmp	r2, r3
 80022b6:	d009      	beq.n	80022cc <serve_interrupt.12021.4555+0x15c>
 80022b8:	6819      	ldr	r1, [r3, #0]
 80022ba:	6321      	str	r1, [r4, #48]	; 0x30
 80022bc:	f04f 0e00 	mov.w	lr, #0
 80022c0:	604a      	str	r2, [r1, #4]
 80022c2:	4618      	mov	r0, r3
 80022c4:	f8c3 e020 	str.w	lr, [r3, #32]
 80022c8:	f7ff fc9a 	bl	8001c00 <chSchReadyI>
 80022cc:	6077      	str	r7, [r6, #4]
 80022ce:	2300      	movs	r3, #0
 80022d0:	f383 8811 	msr	BASEPRI, r3
 80022d4:	e78d      	b.n	80021f2 <serve_interrupt.12021.4555+0x82>
 80022d6:	6ba3      	ldr	r3, [r4, #56]	; 0x38
 80022d8:	2b00      	cmp	r3, #0
 80022da:	d093      	beq.n	8002204 <serve_interrupt.12021.4555+0x94>
 80022dc:	1d20      	adds	r0, r4, #4
 80022de:	2110      	movs	r1, #16
 80022e0:	f7ff fca6 	bl	8001c30 <chEvtBroadcastFlagsI>
 80022e4:	e78e      	b.n	8002204 <serve_interrupt.12021.4555+0x94>
 80022e6:	2a00      	cmp	r2, #0
 80022e8:	d0d7      	beq.n	800229a <serve_interrupt.12021.4555+0x12a>
 80022ea:	1d20      	adds	r0, r4, #4
 80022ec:	2108      	movs	r1, #8
 80022ee:	f7ff fc9f 	bl	8001c30 <chEvtBroadcastFlagsI>
 80022f2:	f64f 733f 	movw	r3, #65343	; 0xff3f
 80022f6:	ea09 0303 	and.w	r3, r9, r3
 80022fa:	f043 0340 	orr.w	r3, r3, #64	; 0x40
 80022fe:	60f3      	str	r3, [r6, #12]
 8002300:	e7e5      	b.n	80022ce <serve_interrupt.12021.4555+0x15e>
 8002302:	bf00      	nop
 8002304:	f3af 8000 	nop.w
 8002308:	f3af 8000 	nop.w
 800230c:	f3af 8000 	nop.w

08002310 <Vector15C>:
 8002310:	b508      	push	{r3, lr}
 8002312:	4803      	ldr	r0, [pc, #12]	; (8002320 <Vector15C+0x10>)
 8002314:	f7ff ff2c 	bl	8002170 <serve_interrupt.12021.4555>
 8002318:	e8bd 4008 	ldmia.w	sp!, {r3, lr}
 800231c:	f7ff ba80 	b.w	8001820 <_port_irq_epilogue>
 8002320:	2000287c 	.word	0x2000287c
 8002324:	f3af 8000 	nop.w
 8002328:	f3af 8000 	nop.w
 800232c:	f3af 8000 	nop.w

08002330 <VectorD8>:
 8002330:	b508      	push	{r3, lr}
 8002332:	4803      	ldr	r0, [pc, #12]	; (8002340 <VectorD8+0x10>)
 8002334:	f7ff ff1c 	bl	8002170 <serve_interrupt.12021.4555>
 8002338:	e8bd 4008 	ldmia.w	sp!, {r3, lr}
 800233c:	f7ff ba70 	b.w	8001820 <_port_irq_epilogue>
 8002340:	20000838 	.word	0x20000838
 8002344:	f3af 8000 	nop.w
 8002348:	f3af 8000 	nop.w
 800234c:	f3af 8000 	nop.w

08002350 <i2c_lld_serve_rx_end_irq.11402.4627>:
 8002350:	f011 0f0c 	tst.w	r1, #12
 8002354:	b538      	push	{r3, r4, r5, lr}
 8002356:	6b43      	ldr	r3, [r0, #52]	; 0x34
 8002358:	d124      	bne.n	80023a4 <i2c_lld_serve_rx_end_irq.11402.4627+0x54>
 800235a:	6ac1      	ldr	r1, [r0, #44]	; 0x2c
 800235c:	680c      	ldr	r4, [r1, #0]
 800235e:	6822      	ldr	r2, [r4, #0]
 8002360:	f022 021f 	bic.w	r2, r2, #31
 8002364:	6022      	str	r2, [r4, #0]
 8002366:	6822      	ldr	r2, [r4, #0]
 8002368:	f012 0501 	ands.w	r5, r2, #1
 800236c:	d1fb      	bne.n	8002366 <i2c_lld_serve_rx_end_irq.11402.4627+0x16>
 800236e:	7a0c      	ldrb	r4, [r1, #8]
 8002370:	684a      	ldr	r2, [r1, #4]
 8002372:	213d      	movs	r1, #61	; 0x3d
 8002374:	40a1      	lsls	r1, r4
 8002376:	6011      	str	r1, [r2, #0]
 8002378:	685a      	ldr	r2, [r3, #4]
 800237a:	f422 5280 	bic.w	r2, r2, #4096	; 0x1000
 800237e:	605a      	str	r2, [r3, #4]
 8002380:	681a      	ldr	r2, [r3, #0]
 8002382:	f422 6280 	bic.w	r2, r2, #1024	; 0x400
 8002386:	601a      	str	r2, [r3, #0]
 8002388:	681a      	ldr	r2, [r3, #0]
 800238a:	f442 7200 	orr.w	r2, r2, #512	; 0x200
 800238e:	601a      	str	r2, [r3, #0]
 8002390:	2320      	movs	r3, #32
 8002392:	f383 8811 	msr	BASEPRI, r3
 8002396:	301c      	adds	r0, #28
 8002398:	4629      	mov	r1, r5
 800239a:	f7ff fce1 	bl	8001d60 <chThdResumeI>
 800239e:	f385 8811 	msr	BASEPRI, r5
 80023a2:	bd38      	pop	{r3, r4, r5, pc}
 80023a4:	b672      	cpsid	i
 80023a6:	4b02      	ldr	r3, [pc, #8]	; (80023b0 <i2c_lld_serve_rx_end_irq.11402.4627+0x60>)
 80023a8:	4a02      	ldr	r2, [pc, #8]	; (80023b4 <i2c_lld_serve_rx_end_irq.11402.4627+0x64>)
 80023aa:	62da      	str	r2, [r3, #44]	; 0x2c
 80023ac:	e7fe      	b.n	80023ac <i2c_lld_serve_rx_end_irq.11402.4627+0x5c>
 80023ae:	bf00      	nop
 80023b0:	20002cd4 	.word	0x20002cd4
 80023b4:	08003ba0 	.word	0x08003ba0
 80023b8:	f3af 8000 	nop.w
 80023bc:	f3af 8000 	nop.w

080023c0 <I2CSensor_transact.constprop.6>:
 80023c0:	e92d 4ff0 	stmdb	sp!, {r4, r5, r6, r7, r8, r9, sl, fp, lr}
 80023c4:	460e      	mov	r6, r1
 80023c6:	7801      	ldrb	r1, [r0, #0]
 80023c8:	b083      	sub	sp, #12
 80023ca:	4607      	mov	r7, r0
 80023cc:	4692      	mov	sl, r2
 80023ce:	469b      	mov	fp, r3
 80023d0:	2900      	cmp	r1, #0
 80023d2:	d075      	beq.n	80024c0 <I2CSensor_transact.constprop.6+0x100>
 80023d4:	6840      	ldr	r0, [r0, #4]
 80023d6:	f04f 0920 	mov.w	r9, #32
 80023da:	300c      	adds	r0, #12
 80023dc:	f389 8811 	msr	BASEPRI, r9
 80023e0:	f7ff fc56 	bl	8001c90 <chMtxLockS>
 80023e4:	2000      	movs	r0, #0
 80023e6:	f380 8811 	msr	BASEPRI, r0
 80023ea:	f8d7 8004 	ldr.w	r8, [r7, #4]
 80023ee:	787a      	ldrb	r2, [r7, #1]
 80023f0:	68b9      	ldr	r1, [r7, #8]
 80023f2:	f389 8811 	msr	BASEPRI, r9
 80023f6:	2303      	movs	r3, #3
 80023f8:	0052      	lsls	r2, r2, #1
 80023fa:	f8a8 2020 	strh.w	r2, [r8, #32]
 80023fe:	f8c8 0008 	str.w	r0, [r8, #8]
 8002402:	f888 3000 	strb.w	r3, [r8]
 8002406:	f8d8 4034 	ldr.w	r4, [r8, #52]	; 0x34
 800240a:	f380 8811 	msr	BASEPRI, r0
 800240e:	f8d8 3030 	ldr.w	r3, [r8, #48]	; 0x30
 8002412:	f8d8 502c 	ldr.w	r5, [r8, #44]	; 0x2c
 8002416:	f8d3 e000 	ldr.w	lr, [r3]
 800241a:	f8d8 2028 	ldr.w	r2, [r8, #40]	; 0x28
 800241e:	682b      	ldr	r3, [r5, #0]
 8002420:	f8d8 c024 	ldr.w	ip, [r8, #36]	; 0x24
 8002424:	f8ce 2000 	str.w	r2, [lr]
 8002428:	f04f 4580 	mov.w	r5, #1073741824	; 0x40000000
 800242c:	2201      	movs	r2, #1
 800242e:	f8ce 600c 	str.w	r6, [lr, #12]
 8002432:	f8ce 2004 	str.w	r2, [lr, #4]
 8002436:	f8c3 c000 	str.w	ip, [r3]
 800243a:	f8c3 a00c 	str.w	sl, [r3, #12]
 800243e:	f8c3 b004 	str.w	fp, [r3, #4]
 8002442:	6a6e      	ldr	r6, [r5, #36]	; 0x24
 8002444:	464a      	mov	r2, r9
 8002446:	e001      	b.n	800244c <I2CSensor_transact.constprop.6+0x8c>
 8002448:	f380 8811 	msr	BASEPRI, r0
 800244c:	f382 8811 	msr	BASEPRI, r2
 8002450:	69a3      	ldr	r3, [r4, #24]
 8002452:	079b      	lsls	r3, r3, #30
 8002454:	d402      	bmi.n	800245c <I2CSensor_transact.constprop.6+0x9c>
 8002456:	6823      	ldr	r3, [r4, #0]
 8002458:	059b      	lsls	r3, r3, #22
 800245a:	d50a      	bpl.n	8002472 <I2CSensor_transact.constprop.6+0xb2>
 800245c:	6a6b      	ldr	r3, [r5, #36]	; 0x24
 800245e:	1b9b      	subs	r3, r3, r6
 8002460:	f5b3 7ffa 	cmp.w	r3, #500	; 0x1f4
 8002464:	d3f0      	bcc.n	8002448 <I2CSensor_transact.constprop.6+0x88>
 8002466:	2305      	movs	r3, #5
 8002468:	f888 3000 	strb.w	r3, [r8]
 800246c:	f04f 34ff 	mov.w	r4, #4294967295	; 0xffffffff
 8002470:	e01b      	b.n	80024aa <I2CSensor_transact.constprop.6+0xea>
 8002472:	6862      	ldr	r2, [r4, #4]
 8002474:	4b14      	ldr	r3, [pc, #80]	; (80024c8 <I2CSensor_transact.constprop.6+0x108>)
 8002476:	f442 7200 	orr.w	r2, r2, #512	; 0x200
 800247a:	6062      	str	r2, [r4, #4]
 800247c:	6820      	ldr	r0, [r4, #0]
 800247e:	699b      	ldr	r3, [r3, #24]
 8002480:	f440 7080 	orr.w	r0, r0, #256	; 0x100
 8002484:	f108 021c 	add.w	r2, r8, #28
 8002488:	6020      	str	r0, [r4, #0]
 800248a:	9201      	str	r2, [sp, #4]
 800248c:	2900      	cmp	r1, #0
 800248e:	d0ea      	beq.n	8002466 <I2CSensor_transact.constprop.6+0xa6>
 8002490:	aa01      	add	r2, sp, #4
 8002492:	f8c8 301c 	str.w	r3, [r8, #28]
 8002496:	2003      	movs	r0, #3
 8002498:	621a      	str	r2, [r3, #32]
 800249a:	f000 f9c9 	bl	8002830 <chSchGoSleepTimeoutS>
 800249e:	1c43      	adds	r3, r0, #1
 80024a0:	4604      	mov	r4, r0
 80024a2:	d0e0      	beq.n	8002466 <I2CSensor_transact.constprop.6+0xa6>
 80024a4:	2302      	movs	r3, #2
 80024a6:	f888 3000 	strb.w	r3, [r8]
 80024aa:	2300      	movs	r3, #0
 80024ac:	f383 8811 	msr	BASEPRI, r3
 80024b0:	6878      	ldr	r0, [r7, #4]
 80024b2:	300c      	adds	r0, #12
 80024b4:	f000 fd74 	bl	8002fa0 <chMtxUnlock>
 80024b8:	4620      	mov	r0, r4
 80024ba:	b003      	add	sp, #12
 80024bc:	e8bd 8ff0 	ldmia.w	sp!, {r4, r5, r6, r7, r8, r9, sl, fp, pc}
 80024c0:	f06f 0463 	mvn.w	r4, #99	; 0x63
 80024c4:	e7f8      	b.n	80024b8 <I2CSensor_transact.constprop.6+0xf8>
 80024c6:	bf00      	nop
 80024c8:	20002cd4 	.word	0x20002cd4
 80024cc:	f3af 8000 	nop.w

080024d0 <i2c_lld_start>:
 80024d0:	e92d 47f0 	stmdb	sp!, {r4, r5, r6, r7, r8, r9, sl, lr}
 80024d4:	7806      	ldrb	r6, [r0, #0]
 80024d6:	6b45      	ldr	r5, [r0, #52]	; 0x34
 80024d8:	f240 4356 	movw	r3, #1110	; 0x456
 80024dc:	6283      	str	r3, [r0, #40]	; 0x28
 80024de:	2e01      	cmp	r6, #1
 80024e0:	f240 4316 	movw	r3, #1046	; 0x416
 80024e4:	4604      	mov	r4, r0
 80024e6:	6243      	str	r3, [r0, #36]	; 0x24
 80024e8:	d050      	beq.n	800258c <i2c_lld_start+0xbc>
 80024ea:	462b      	mov	r3, r5
 80024ec:	6ae1      	ldr	r1, [r4, #44]	; 0x2c
 80024ee:	6b22      	ldr	r2, [r4, #48]	; 0x30
 80024f0:	f8d1 9000 	ldr.w	r9, [r1]
 80024f4:	f8d2 a000 	ldr.w	sl, [r2]
 80024f8:	6862      	ldr	r2, [r4, #4]
 80024fa:	4e6c      	ldr	r6, [pc, #432]	; (80026ac <i2c_lld_start+0x1dc>)
 80024fc:	6850      	ldr	r0, [r2, #4]
 80024fe:	f892 c008 	ldrb.w	ip, [r2, #8]
 8002502:	f105 0110 	add.w	r1, r5, #16
 8002506:	f44f 6710 	mov.w	r7, #2304	; 0x900
 800250a:	f44f 4800 	mov.w	r8, #32768	; 0x8000
 800250e:	2400      	movs	r4, #0
 8002510:	f8c9 1008 	str.w	r1, [r9, #8]
 8002514:	f8ca 1008 	str.w	r1, [sl, #8]
 8002518:	f8c5 8000 	str.w	r8, [r5]
 800251c:	602c      	str	r4, [r5, #0]
 800251e:	606f      	str	r7, [r5, #4]
 8002520:	685f      	ldr	r7, [r3, #4]
 8002522:	f64f 71c0 	movw	r1, #65472	; 0xffc0
 8002526:	4039      	ands	r1, r7
 8002528:	6059      	str	r1, [r3, #4]
 800252a:	6859      	ldr	r1, [r3, #4]
 800252c:	42b0      	cmp	r0, r6
 800252e:	f041 012a 	orr.w	r1, r1, #42	; 0x2a
 8002532:	6059      	str	r1, [r3, #4]
 8002534:	dd21      	ble.n	800257a <i2c_lld_start+0xaa>
 8002536:	495e      	ldr	r1, [pc, #376]	; (80026b0 <i2c_lld_start+0x1e0>)
 8002538:	4288      	cmp	r0, r1
 800253a:	dc09      	bgt.n	8002550 <i2c_lld_start+0x80>
 800253c:	f1bc 0f02 	cmp.w	ip, #2
 8002540:	d075      	beq.n	800262e <i2c_lld_start+0x15e>
 8002542:	f1bc 0f03 	cmp.w	ip, #3
 8002546:	d065      	beq.n	8002614 <i2c_lld_start+0x144>
 8002548:	f648 74ff 	movw	r4, #36863	; 0x8fff
 800254c:	210d      	movs	r1, #13
 800254e:	6219      	str	r1, [r3, #32]
 8002550:	7811      	ldrb	r1, [r2, #0]
 8002552:	61dc      	str	r4, [r3, #28]
 8002554:	681a      	ldr	r2, [r3, #0]
 8002556:	2902      	cmp	r1, #2
 8002558:	b292      	uxth	r2, r2
 800255a:	d055      	beq.n	8002608 <i2c_lld_start+0x138>
 800255c:	2903      	cmp	r1, #3
 800255e:	d050      	beq.n	8002602 <i2c_lld_start+0x132>
 8002560:	2901      	cmp	r1, #1
 8002562:	d006      	beq.n	8002572 <i2c_lld_start+0xa2>
 8002564:	601a      	str	r2, [r3, #0]
 8002566:	682b      	ldr	r3, [r5, #0]
 8002568:	f043 0301 	orr.w	r3, r3, #1
 800256c:	602b      	str	r3, [r5, #0]
 800256e:	e8bd 87f0 	ldmia.w	sp!, {r4, r5, r6, r7, r8, r9, sl, pc}
 8002572:	f022 020a 	bic.w	r2, r2, #10
 8002576:	b292      	uxth	r2, r2
 8002578:	e7f4      	b.n	8002564 <i2c_lld_start+0x94>
 800257a:	4c4e      	ldr	r4, [pc, #312]	; (80026b4 <i2c_lld_start+0x1e4>)
 800257c:	0040      	lsls	r0, r0, #1
 800257e:	fb94 f4f0 	sdiv	r4, r4, r0
 8002582:	212b      	movs	r1, #43	; 0x2b
 8002584:	f3c4 040b 	ubfx	r4, r4, #0, #12
 8002588:	6219      	str	r1, [r3, #32]
 800258a:	e7e1      	b.n	8002550 <i2c_lld_start+0x80>
 800258c:	4b4a      	ldr	r3, [pc, #296]	; (80026b8 <i2c_lld_start+0x1e8>)
 800258e:	4298      	cmp	r0, r3
 8002590:	d058      	beq.n	8002644 <i2c_lld_start+0x174>
 8002592:	4b4a      	ldr	r3, [pc, #296]	; (80026bc <i2c_lld_start+0x1ec>)
 8002594:	4298      	cmp	r0, r3
 8002596:	d1a8      	bne.n	80024ea <i2c_lld_start+0x1a>
 8002598:	4e49      	ldr	r6, [pc, #292]	; (80026c0 <i2c_lld_start+0x1f0>)
 800259a:	6ac0      	ldr	r0, [r0, #44]	; 0x2c
 800259c:	6a31      	ldr	r1, [r6, #32]
 800259e:	4a49      	ldr	r2, [pc, #292]	; (80026c4 <i2c_lld_start+0x1f4>)
 80025a0:	f441 0100 	orr.w	r1, r1, #8388608	; 0x800000
 80025a4:	2300      	movs	r3, #0
 80025a6:	6231      	str	r1, [r6, #32]
 80025a8:	2105      	movs	r1, #5
 80025aa:	6233      	str	r3, [r6, #32]
 80025ac:	4623      	mov	r3, r4
 80025ae:	f7ff f89f 	bl	80016f0 <dmaStreamAllocate>
 80025b2:	4a45      	ldr	r2, [pc, #276]	; (80026c8 <i2c_lld_start+0x1f8>)
 80025b4:	6b20      	ldr	r0, [r4, #48]	; 0x30
 80025b6:	2105      	movs	r1, #5
 80025b8:	4623      	mov	r3, r4
 80025ba:	f7ff f899 	bl	80016f0 <dmaStreamAllocate>
 80025be:	6c37      	ldr	r7, [r6, #64]	; 0x40
 80025c0:	4b42      	ldr	r3, [pc, #264]	; (80026cc <i2c_lld_start+0x1fc>)
 80025c2:	2150      	movs	r1, #80	; 0x50
 80025c4:	f44f 7200 	mov.w	r2, #512	; 0x200
 80025c8:	f44f 7080 	mov.w	r0, #256	; 0x100
 80025cc:	f447 0700 	orr.w	r7, r7, #8388608	; 0x800000
 80025d0:	6437      	str	r7, [r6, #64]	; 0x40
 80025d2:	f883 1348 	strb.w	r1, [r3, #840]	; 0x348
 80025d6:	f8c3 0188 	str.w	r0, [r3, #392]	; 0x188
 80025da:	6098      	str	r0, [r3, #8]
 80025dc:	f883 1349 	strb.w	r1, [r3, #841]	; 0x349
 80025e0:	f8c3 2188 	str.w	r2, [r3, #392]	; 0x188
 80025e4:	609a      	str	r2, [r3, #8]
 80025e6:	6a61      	ldr	r1, [r4, #36]	; 0x24
 80025e8:	6aa2      	ldr	r2, [r4, #40]	; 0x28
 80025ea:	6b63      	ldr	r3, [r4, #52]	; 0x34
 80025ec:	f041 61c0 	orr.w	r1, r1, #100663296	; 0x6000000
 80025f0:	f042 62c0 	orr.w	r2, r2, #100663296	; 0x6000000
 80025f4:	f441 3140 	orr.w	r1, r1, #196608	; 0x30000
 80025f8:	f442 3240 	orr.w	r2, r2, #196608	; 0x30000
 80025fc:	6261      	str	r1, [r4, #36]	; 0x24
 80025fe:	62a2      	str	r2, [r4, #40]	; 0x28
 8002600:	e774      	b.n	80024ec <i2c_lld_start+0x1c>
 8002602:	f042 020a 	orr.w	r2, r2, #10
 8002606:	e7ad      	b.n	8002564 <i2c_lld_start+0x94>
 8002608:	f022 0208 	bic.w	r2, r2, #8
 800260c:	b292      	uxth	r2, r2
 800260e:	f042 0202 	orr.w	r2, r2, #2
 8002612:	e7a7      	b.n	8002564 <i2c_lld_start+0x94>
 8002614:	eb00 0080 	add.w	r0, r0, r0, lsl #2
 8002618:	4c26      	ldr	r4, [pc, #152]	; (80026b4 <i2c_lld_start+0x1e4>)
 800261a:	eb00 0080 	add.w	r0, r0, r0, lsl #2
 800261e:	fb94 f4f0 	sdiv	r4, r4, r0
 8002622:	ea6f 4484 	mvn.w	r4, r4, lsl #18
 8002626:	ea6f 4494 	mvn.w	r4, r4, lsr #18
 800262a:	b2a4      	uxth	r4, r4
 800262c:	e78e      	b.n	800254c <i2c_lld_start+0x7c>
 800262e:	4c21      	ldr	r4, [pc, #132]	; (80026b4 <i2c_lld_start+0x1e4>)
 8002630:	eb00 0040 	add.w	r0, r0, r0, lsl #1
 8002634:	fb94 f4f0 	sdiv	r4, r4, r0
 8002638:	ea6f 4444 	mvn.w	r4, r4, lsl #17
 800263c:	ea6f 4454 	mvn.w	r4, r4, lsr #17
 8002640:	b2a4      	uxth	r4, r4
 8002642:	e783      	b.n	800254c <i2c_lld_start+0x7c>
 8002644:	4f1e      	ldr	r7, [pc, #120]	; (80026c0 <i2c_lld_start+0x1f0>)
 8002646:	6ac0      	ldr	r0, [r0, #44]	; 0x2c
 8002648:	6a39      	ldr	r1, [r7, #32]
 800264a:	4a1e      	ldr	r2, [pc, #120]	; (80026c4 <i2c_lld_start+0x1f4>)
 800264c:	f441 1100 	orr.w	r1, r1, #2097152	; 0x200000
 8002650:	2300      	movs	r3, #0
 8002652:	6239      	str	r1, [r7, #32]
 8002654:	2105      	movs	r1, #5
 8002656:	623b      	str	r3, [r7, #32]
 8002658:	4623      	mov	r3, r4
 800265a:	f7ff f849 	bl	80016f0 <dmaStreamAllocate>
 800265e:	4a1a      	ldr	r2, [pc, #104]	; (80026c8 <i2c_lld_start+0x1f8>)
 8002660:	6b20      	ldr	r0, [r4, #48]	; 0x30
 8002662:	2105      	movs	r1, #5
 8002664:	4623      	mov	r3, r4
 8002666:	f7ff f843 	bl	80016f0 <dmaStreamAllocate>
 800266a:	6c38      	ldr	r0, [r7, #64]	; 0x40
 800266c:	4b17      	ldr	r3, [pc, #92]	; (80026cc <i2c_lld_start+0x1fc>)
 800266e:	2250      	movs	r2, #80	; 0x50
 8002670:	f04f 4100 	mov.w	r1, #2147483648	; 0x80000000
 8002674:	f440 1000 	orr.w	r0, r0, #2097152	; 0x200000
 8002678:	6438      	str	r0, [r7, #64]	; 0x40
 800267a:	f883 231f 	strb.w	r2, [r3, #799]	; 0x31f
 800267e:	f8c3 1180 	str.w	r1, [r3, #384]	; 0x180
 8002682:	6019      	str	r1, [r3, #0]
 8002684:	f883 2320 	strb.w	r2, [r3, #800]	; 0x320
 8002688:	f8c3 6184 	str.w	r6, [r3, #388]	; 0x184
 800268c:	605e      	str	r6, [r3, #4]
 800268e:	6a61      	ldr	r1, [r4, #36]	; 0x24
 8002690:	6aa2      	ldr	r2, [r4, #40]	; 0x28
 8002692:	6b63      	ldr	r3, [r4, #52]	; 0x34
 8002694:	f041 7100 	orr.w	r1, r1, #33554432	; 0x2000000
 8002698:	f042 7200 	orr.w	r2, r2, #33554432	; 0x2000000
 800269c:	f441 3140 	orr.w	r1, r1, #196608	; 0x30000
 80026a0:	f442 3240 	orr.w	r2, r2, #196608	; 0x30000
 80026a4:	6261      	str	r1, [r4, #36]	; 0x24
 80026a6:	62a2      	str	r2, [r4, #40]	; 0x28
 80026a8:	e720      	b.n	80024ec <i2c_lld_start+0x1c>
 80026aa:	bf00      	nop
 80026ac:	000186a0 	.word	0x000186a0
 80026b0:	00061a80 	.word	0x00061a80
 80026b4:	0280de80 	.word	0x0280de80
 80026b8:	20002e6c 	.word	0x20002e6c
 80026bc:	20002e34 	.word	0x20002e34
 80026c0:	40023800 	.word	0x40023800
 80026c4:	08002351 	.word	0x08002351
 80026c8:	08001141 	.word	0x08001141
 80026cc:	e000e100 	.word	0xe000e100

080026d0 <VectorB0>:
 80026d0:	f04f 4380 	mov.w	r3, #1073741824	; 0x40000000
 80026d4:	2100      	movs	r1, #0
 80026d6:	e92d 47f0 	stmdb	sp!, {r4, r5, r6, r7, r8, r9, sl, lr}
 80026da:	6119      	str	r1, [r3, #16]
 80026dc:	2720      	movs	r7, #32
 80026de:	f387 8811 	msr	BASEPRI, r7
 80026e2:	4c1b      	ldr	r4, [pc, #108]	; (8002750 <VectorB0+0x80>)
 80026e4:	f8d3 9024 	ldr.w	r9, [r3, #36]	; 0x24
 80026e8:	69e3      	ldr	r3, [r4, #28]
 80026ea:	6aa0      	ldr	r0, [r4, #40]	; 0x28
 80026ec:	689a      	ldr	r2, [r3, #8]
 80026ee:	ebc0 0509 	rsb	r5, r0, r9
 80026f2:	4295      	cmp	r5, r2
 80026f4:	bf38      	it	cc
 80026f6:	f104 061c 	addcc.w	r6, r4, #28
 80026fa:	d31a      	bcc.n	8002732 <VectorB0+0x62>
 80026fc:	468a      	mov	sl, r1
 80026fe:	f104 061c 	add.w	r6, r4, #28
 8002702:	46a0      	mov	r8, r4
 8002704:	e001      	b.n	800270a <VectorB0+0x3a>
 8002706:	f8d8 0028 	ldr.w	r0, [r8, #40]	; 0x28
 800270a:	6819      	ldr	r1, [r3, #0]
 800270c:	f8d3 c00c 	ldr.w	ip, [r3, #12]
 8002710:	4410      	add	r0, r2
 8002712:	62a0      	str	r0, [r4, #40]	; 0x28
 8002714:	1aad      	subs	r5, r5, r2
 8002716:	f8c3 a00c 	str.w	sl, [r3, #12]
 800271a:	604e      	str	r6, [r1, #4]
 800271c:	61e1      	str	r1, [r4, #28]
 800271e:	f38a 8811 	msr	BASEPRI, sl
 8002722:	6918      	ldr	r0, [r3, #16]
 8002724:	47e0      	blx	ip
 8002726:	f387 8811 	msr	BASEPRI, r7
 800272a:	69e3      	ldr	r3, [r4, #28]
 800272c:	689a      	ldr	r2, [r3, #8]
 800272e:	42aa      	cmp	r2, r5
 8002730:	d9e9      	bls.n	8002706 <VectorB0+0x36>
 8002732:	42b3      	cmp	r3, r6
 8002734:	f04f 4380 	mov.w	r3, #1073741824	; 0x40000000
 8002738:	bf0b      	itete	eq
 800273a:	2200      	moveq	r2, #0
 800273c:	444a      	addne	r2, r9
 800273e:	60da      	streq	r2, [r3, #12]
 8002740:	635a      	strne	r2, [r3, #52]	; 0x34
 8002742:	2300      	movs	r3, #0
 8002744:	f383 8811 	msr	BASEPRI, r3
 8002748:	e8bd 47f0 	ldmia.w	sp!, {r4, r5, r6, r7, r8, r9, sl, lr}
 800274c:	f7ff b868 	b.w	8001820 <_port_irq_epilogue>
 8002750:	20002cd4 	.word	0x20002cd4
 8002754:	f3af 8000 	nop.w
 8002758:	f3af 8000 	nop.w
 800275c:	f3af 8000 	nop.w

08002760 <sd_lld_start>:
 8002760:	4a2a      	ldr	r2, [pc, #168]	; (800280c <sd_lld_start+0xac>)
 8002762:	7a03      	ldrb	r3, [r0, #8]
 8002764:	2900      	cmp	r1, #0
 8002766:	bf08      	it	eq
 8002768:	4611      	moveq	r1, r2
 800276a:	2b01      	cmp	r3, #1
 800276c:	b470      	push	{r4, r5, r6}
 800276e:	d024      	beq.n	80027ba <sd_lld_start+0x5a>
 8002770:	f8d0 3454 	ldr.w	r3, [r0, #1108]	; 0x454
 8002774:	4a26      	ldr	r2, [pc, #152]	; (8002810 <sd_lld_start+0xb0>)
 8002776:	4293      	cmp	r3, r2
 8002778:	d033      	beq.n	80027e2 <sd_lld_start+0x82>
 800277a:	f502 6280 	add.w	r2, r2, #1024	; 0x400
 800277e:	4293      	cmp	r3, r2
 8002780:	d02f      	beq.n	80027e2 <sd_lld_start+0x82>
 8002782:	680a      	ldr	r2, [r1, #0]
 8002784:	4823      	ldr	r0, [pc, #140]	; (8002814 <sd_lld_start+0xb4>)
 8002786:	fbb0 f2f2 	udiv	r2, r0, r2
 800278a:	609a      	str	r2, [r3, #8]
 800278c:	888a      	ldrh	r2, [r1, #4]
 800278e:	88cc      	ldrh	r4, [r1, #6]
 8002790:	8908      	ldrh	r0, [r1, #8]
 8002792:	f442 5204 	orr.w	r2, r2, #8448	; 0x2100
 8002796:	f044 0440 	orr.w	r4, r4, #64	; 0x40
 800279a:	f042 022c 	orr.w	r2, r2, #44	; 0x2c
 800279e:	f040 0001 	orr.w	r0, r0, #1
 80027a2:	b2a4      	uxth	r4, r4
 80027a4:	b292      	uxth	r2, r2
 80027a6:	b280      	uxth	r0, r0
 80027a8:	2100      	movs	r1, #0
 80027aa:	611c      	str	r4, [r3, #16]
 80027ac:	6158      	str	r0, [r3, #20]
 80027ae:	60da      	str	r2, [r3, #12]
 80027b0:	6019      	str	r1, [r3, #0]
 80027b2:	681a      	ldr	r2, [r3, #0]
 80027b4:	685b      	ldr	r3, [r3, #4]
 80027b6:	bc70      	pop	{r4, r5, r6}
 80027b8:	4770      	bx	lr
 80027ba:	4b17      	ldr	r3, [pc, #92]	; (8002818 <sd_lld_start+0xb8>)
 80027bc:	4298      	cmp	r0, r3
 80027be:	d016      	beq.n	80027ee <sd_lld_start+0x8e>
 80027c0:	4b16      	ldr	r3, [pc, #88]	; (800281c <sd_lld_start+0xbc>)
 80027c2:	4298      	cmp	r0, r3
 80027c4:	d1d4      	bne.n	8002770 <sd_lld_start+0x10>
 80027c6:	4c16      	ldr	r4, [pc, #88]	; (8002820 <sd_lld_start+0xc0>)
 80027c8:	4b16      	ldr	r3, [pc, #88]	; (8002824 <sd_lld_start+0xc4>)
 80027ca:	6c66      	ldr	r6, [r4, #68]	; 0x44
 80027cc:	2280      	movs	r2, #128	; 0x80
 80027ce:	25c0      	movs	r5, #192	; 0xc0
 80027d0:	f046 0620 	orr.w	r6, r6, #32
 80027d4:	6466      	str	r6, [r4, #68]	; 0x44
 80027d6:	f883 5347 	strb.w	r5, [r3, #839]	; 0x347
 80027da:	f8c3 2188 	str.w	r2, [r3, #392]	; 0x188
 80027de:	609a      	str	r2, [r3, #8]
 80027e0:	e7c6      	b.n	8002770 <sd_lld_start+0x10>
 80027e2:	680a      	ldr	r2, [r1, #0]
 80027e4:	4810      	ldr	r0, [pc, #64]	; (8002828 <sd_lld_start+0xc8>)
 80027e6:	fbb0 f2f2 	udiv	r2, r0, r2
 80027ea:	609a      	str	r2, [r3, #8]
 80027ec:	e7ce      	b.n	800278c <sd_lld_start+0x2c>
 80027ee:	4c0c      	ldr	r4, [pc, #48]	; (8002820 <sd_lld_start+0xc0>)
 80027f0:	4b0c      	ldr	r3, [pc, #48]	; (8002824 <sd_lld_start+0xc4>)
 80027f2:	6c26      	ldr	r6, [r4, #64]	; 0x40
 80027f4:	2240      	movs	r2, #64	; 0x40
 80027f6:	25c0      	movs	r5, #192	; 0xc0
 80027f8:	f446 3600 	orr.w	r6, r6, #131072	; 0x20000
 80027fc:	6426      	str	r6, [r4, #64]	; 0x40
 80027fe:	f883 5326 	strb.w	r5, [r3, #806]	; 0x326
 8002802:	f8c3 2184 	str.w	r2, [r3, #388]	; 0x184
 8002806:	605a      	str	r2, [r3, #4]
 8002808:	e7b2      	b.n	8002770 <sd_lld_start+0x10>
 800280a:	bf00      	nop
 800280c:	08003ce0 	.word	0x08003ce0
 8002810:	40011000 	.word	0x40011000
 8002814:	0280de80 	.word	0x0280de80
 8002818:	20000838 	.word	0x20000838
 800281c:	2000287c 	.word	0x2000287c
 8002820:	40023800 	.word	0x40023800
 8002824:	e000e100 	.word	0xe000e100
 8002828:	0501bd00 	.word	0x0501bd00
 800282c:	f3af 8000 	nop.w

08002830 <chSchGoSleepTimeoutS>:
 8002830:	b5f0      	push	{r4, r5, r6, r7, lr}
 8002832:	1c4b      	adds	r3, r1, #1
 8002834:	b087      	sub	sp, #28
 8002836:	4607      	mov	r7, r0
 8002838:	d04e      	beq.n	80028d8 <chSchGoSleepTimeoutS+0xa8>
 800283a:	4c33      	ldr	r4, [pc, #204]	; (8002908 <chSchGoSleepTimeoutS+0xd8>)
 800283c:	4a33      	ldr	r2, [pc, #204]	; (800290c <chSchGoSleepTimeoutS+0xdc>)
 800283e:	69a3      	ldr	r3, [r4, #24]
 8002840:	9305      	str	r3, [sp, #20]
 8002842:	4625      	mov	r5, r4
 8002844:	2901      	cmp	r1, #1
 8002846:	f855 3f1c 	ldr.w	r3, [r5, #28]!
 800284a:	f04f 4680 	mov.w	r6, #1073741824	; 0x40000000
 800284e:	bf98      	it	ls
 8002850:	2102      	movls	r1, #2
 8002852:	42ab      	cmp	r3, r5
 8002854:	f8d6 e024 	ldr.w	lr, [r6, #36]	; 0x24
 8002858:	9204      	str	r2, [sp, #16]
 800285a:	d048      	beq.n	80028ee <chSchGoSleepTimeoutS+0xbe>
 800285c:	6aa0      	ldr	r0, [r4, #40]	; 0x28
 800285e:	689a      	ldr	r2, [r3, #8]
 8002860:	ebc0 0e0e 	rsb	lr, r0, lr
 8002864:	4471      	add	r1, lr
 8002866:	4291      	cmp	r1, r2
 8002868:	bf3c      	itt	cc
 800286a:	1840      	addcc	r0, r0, r1
 800286c:	6370      	strcc	r0, [r6, #52]	; 0x34
 800286e:	4291      	cmp	r1, r2
 8002870:	d904      	bls.n	800287c <chSchGoSleepTimeoutS+0x4c>
 8002872:	681b      	ldr	r3, [r3, #0]
 8002874:	1a89      	subs	r1, r1, r2
 8002876:	689a      	ldr	r2, [r3, #8]
 8002878:	428a      	cmp	r2, r1
 800287a:	d3fa      	bcc.n	8002872 <chSchGoSleepTimeoutS+0x42>
 800287c:	685e      	ldr	r6, [r3, #4]
 800287e:	9602      	str	r6, [sp, #8]
 8002880:	aa01      	add	r2, sp, #4
 8002882:	605a      	str	r2, [r3, #4]
 8002884:	9301      	str	r3, [sp, #4]
 8002886:	6032      	str	r2, [r6, #0]
 8002888:	9103      	str	r1, [sp, #12]
 800288a:	689a      	ldr	r2, [r3, #8]
 800288c:	4e1e      	ldr	r6, [pc, #120]	; (8002908 <chSchGoSleepTimeoutS+0xd8>)
 800288e:	1a51      	subs	r1, r2, r1
 8002890:	6099      	str	r1, [r3, #8]
 8002892:	4638      	mov	r0, r7
 8002894:	f04f 37ff 	mov.w	r7, #4294967295	; 0xffffffff
 8002898:	6267      	str	r7, [r4, #36]	; 0x24
 800289a:	f7fe ffa9 	bl	80017f0 <chSchGoSleepS>
 800289e:	9b04      	ldr	r3, [sp, #16]
 80028a0:	b1b3      	cbz	r3, 80028d0 <chSchGoSleepTimeoutS+0xa0>
 80028a2:	9b01      	ldr	r3, [sp, #4]
 80028a4:	f8dd c00c 	ldr.w	ip, [sp, #12]
 80028a8:	6899      	ldr	r1, [r3, #8]
 80028aa:	9a02      	ldr	r2, [sp, #8]
 80028ac:	69f0      	ldr	r0, [r6, #28]
 80028ae:	448c      	add	ip, r1
 80028b0:	f8c3 c008 	str.w	ip, [r3, #8]
 80028b4:	6013      	str	r3, [r2, #0]
 80028b6:	9901      	ldr	r1, [sp, #4]
 80028b8:	2300      	movs	r3, #0
 80028ba:	42a8      	cmp	r0, r5
 80028bc:	604a      	str	r2, [r1, #4]
 80028be:	6277      	str	r7, [r6, #36]	; 0x24
 80028c0:	9304      	str	r3, [sp, #16]
 80028c2:	d010      	beq.n	80028e6 <chSchGoSleepTimeoutS+0xb6>
 80028c4:	6881      	ldr	r1, [r0, #8]
 80028c6:	6ab2      	ldr	r2, [r6, #40]	; 0x28
 80028c8:	f04f 4380 	mov.w	r3, #1073741824	; 0x40000000
 80028cc:	440a      	add	r2, r1
 80028ce:	635a      	str	r2, [r3, #52]	; 0x34
 80028d0:	69a3      	ldr	r3, [r4, #24]
 80028d2:	6a18      	ldr	r0, [r3, #32]
 80028d4:	b007      	add	sp, #28
 80028d6:	bdf0      	pop	{r4, r5, r6, r7, pc}
 80028d8:	4c0b      	ldr	r4, [pc, #44]	; (8002908 <chSchGoSleepTimeoutS+0xd8>)
 80028da:	f7fe ff89 	bl	80017f0 <chSchGoSleepS>
 80028de:	69a3      	ldr	r3, [r4, #24]
 80028e0:	6a18      	ldr	r0, [r3, #32]
 80028e2:	b007      	add	sp, #28
 80028e4:	bdf0      	pop	{r4, r5, r6, r7, pc}
 80028e6:	f04f 4280 	mov.w	r2, #1073741824	; 0x40000000
 80028ea:	60d3      	str	r3, [r2, #12]
 80028ec:	e7f0      	b.n	80028d0 <chSchGoSleepTimeoutS+0xa0>
 80028ee:	2202      	movs	r2, #2
 80028f0:	eb01 0c0e 	add.w	ip, r1, lr
 80028f4:	2000      	movs	r0, #0
 80028f6:	f8c4 e028 	str.w	lr, [r4, #40]	; 0x28
 80028fa:	f8c6 c034 	str.w	ip, [r6, #52]	; 0x34
 80028fe:	6130      	str	r0, [r6, #16]
 8002900:	60f2      	str	r2, [r6, #12]
 8002902:	6a62      	ldr	r2, [r4, #36]	; 0x24
 8002904:	e7b3      	b.n	800286e <chSchGoSleepTimeoutS+0x3e>
 8002906:	bf00      	nop
 8002908:	20002cd4 	.word	0x20002cd4
 800290c:	08001301 	.word	0x08001301

08002910 <chThdSleep>:
 8002910:	b508      	push	{r3, lr}
 8002912:	4601      	mov	r1, r0
 8002914:	2320      	movs	r3, #32
 8002916:	f383 8811 	msr	BASEPRI, r3
 800291a:	2008      	movs	r0, #8
 800291c:	f7ff ff88 	bl	8002830 <chSchGoSleepTimeoutS>
 8002920:	2300      	movs	r3, #0
 8002922:	f383 8811 	msr	BASEPRI, r3
 8002926:	bd08      	pop	{r3, pc}
 8002928:	f3af 8000 	nop.w
 800292c:	f3af 8000 	nop.w

08002930 <chThdEnqueueTimeoutS.4393>:
 8002930:	b410      	push	{r4}
 8002932:	4602      	mov	r2, r0
 8002934:	b159      	cbz	r1, 800294e <chThdEnqueueTimeoutS.4393+0x1e>
 8002936:	4b08      	ldr	r3, [pc, #32]	; (8002958 <chThdEnqueueTimeoutS.4393+0x28>)
 8002938:	6844      	ldr	r4, [r0, #4]
 800293a:	699b      	ldr	r3, [r3, #24]
 800293c:	2004      	movs	r0, #4
 800293e:	e883 0014 	stmia.w	r3, {r2, r4}
 8002942:	6053      	str	r3, [r2, #4]
 8002944:	6023      	str	r3, [r4, #0]
 8002946:	f85d 4b04 	ldr.w	r4, [sp], #4
 800294a:	f7ff bf71 	b.w	8002830 <chSchGoSleepTimeoutS>
 800294e:	f04f 30ff 	mov.w	r0, #4294967295	; 0xffffffff
 8002952:	f85d 4b04 	ldr.w	r4, [sp], #4
 8002956:	4770      	bx	lr
 8002958:	20002cd4 	.word	0x20002cd4
 800295c:	f3af 8000 	nop.w

08002960 <chIQGetTimeout.4338>:
 8002960:	b570      	push	{r4, r5, r6, lr}
 8002962:	2320      	movs	r3, #32
 8002964:	460e      	mov	r6, r1
 8002966:	4604      	mov	r4, r0
 8002968:	f383 8811 	msr	BASEPRI, r3
 800296c:	69c3      	ldr	r3, [r0, #28]
 800296e:	b12b      	cbz	r3, 800297c <chIQGetTimeout.4338+0x1c>
 8002970:	4798      	blx	r3
 8002972:	e003      	b.n	800297c <chIQGetTimeout.4338+0x1c>
 8002974:	f7ff ffdc 	bl	8002930 <chThdEnqueueTimeoutS.4393>
 8002978:	2800      	cmp	r0, #0
 800297a:	db15      	blt.n	80029a8 <chIQGetTimeout.4338+0x48>
 800297c:	68a5      	ldr	r5, [r4, #8]
 800297e:	4620      	mov	r0, r4
 8002980:	4631      	mov	r1, r6
 8002982:	2d00      	cmp	r5, #0
 8002984:	d0f6      	beq.n	8002974 <chIQGetTimeout.4338+0x14>
 8002986:	69a2      	ldr	r2, [r4, #24]
 8002988:	6921      	ldr	r1, [r4, #16]
 800298a:	1c53      	adds	r3, r2, #1
 800298c:	428b      	cmp	r3, r1
 800298e:	f105 35ff 	add.w	r5, r5, #4294967295	; 0xffffffff
 8002992:	61a3      	str	r3, [r4, #24]
 8002994:	60a5      	str	r5, [r4, #8]
 8002996:	bf28      	it	cs
 8002998:	68e3      	ldrcs	r3, [r4, #12]
 800299a:	7810      	ldrb	r0, [r2, #0]
 800299c:	bf28      	it	cs
 800299e:	61a3      	strcs	r3, [r4, #24]
 80029a0:	2300      	movs	r3, #0
 80029a2:	f383 8811 	msr	BASEPRI, r3
 80029a6:	bd70      	pop	{r4, r5, r6, pc}
 80029a8:	f385 8811 	msr	BASEPRI, r5
 80029ac:	bd70      	pop	{r4, r5, r6, pc}
 80029ae:	bf00      	nop

080029b0 <gett.10196>:
 80029b0:	300c      	adds	r0, #12
 80029b2:	f7ff bfd5 	b.w	8002960 <chIQGetTimeout.4338>
 80029b6:	bf00      	nop
 80029b8:	f3af 8000 	nop.w
 80029bc:	f3af 8000 	nop.w

080029c0 <get.10200>:
 80029c0:	300c      	adds	r0, #12
 80029c2:	f04f 31ff 	mov.w	r1, #4294967295	; 0xffffffff
 80029c6:	f7ff bfcb 	b.w	8002960 <chIQGetTimeout.4338>
 80029ca:	bf00      	nop
 80029cc:	f3af 8000 	nop.w

080029d0 <chIQReadTimeout.4353>:
 80029d0:	e92d 4ff8 	stmdb	sp!, {r3, r4, r5, r6, r7, r8, r9, sl, fp, lr}
 80029d4:	4604      	mov	r4, r0
 80029d6:	461d      	mov	r5, r3
 80029d8:	f8d0 801c 	ldr.w	r8, [r0, #28]
 80029dc:	f04f 0b20 	mov.w	fp, #32
 80029e0:	f38b 8811 	msr	BASEPRI, fp
 80029e4:	2600      	movs	r6, #0
 80029e6:	eb01 0a02 	add.w	sl, r1, r2
 80029ea:	f101 0901 	add.w	r9, r1, #1
 80029ee:	f1b8 0f00 	cmp.w	r8, #0
 80029f2:	d005      	beq.n	8002a00 <chIQReadTimeout.4353+0x30>
 80029f4:	4620      	mov	r0, r4
 80029f6:	47c0      	blx	r8
 80029f8:	e002      	b.n	8002a00 <chIQReadTimeout.4353+0x30>
 80029fa:	f7ff ff99 	bl	8002930 <chThdEnqueueTimeoutS.4393>
 80029fe:	b9f0      	cbnz	r0, 8002a3e <chIQReadTimeout.4353+0x6e>
 8002a00:	68a7      	ldr	r7, [r4, #8]
 8002a02:	4620      	mov	r0, r4
 8002a04:	4629      	mov	r1, r5
 8002a06:	2f00      	cmp	r7, #0
 8002a08:	d0f7      	beq.n	80029fa <chIQReadTimeout.4353+0x2a>
 8002a0a:	69a2      	ldr	r2, [r4, #24]
 8002a0c:	1e7b      	subs	r3, r7, #1
 8002a0e:	1c51      	adds	r1, r2, #1
 8002a10:	61a1      	str	r1, [r4, #24]
 8002a12:	60a3      	str	r3, [r4, #8]
 8002a14:	7813      	ldrb	r3, [r2, #0]
 8002a16:	f809 3c01 	strb.w	r3, [r9, #-1]
 8002a1a:	6923      	ldr	r3, [r4, #16]
 8002a1c:	69a2      	ldr	r2, [r4, #24]
 8002a1e:	429a      	cmp	r2, r3
 8002a20:	bf24      	itt	cs
 8002a22:	68e3      	ldrcs	r3, [r4, #12]
 8002a24:	61a3      	strcs	r3, [r4, #24]
 8002a26:	2300      	movs	r3, #0
 8002a28:	f383 8811 	msr	BASEPRI, r3
 8002a2c:	45d1      	cmp	r9, sl
 8002a2e:	f106 0601 	add.w	r6, r6, #1
 8002a32:	d006      	beq.n	8002a42 <chIQReadTimeout.4353+0x72>
 8002a34:	f38b 8811 	msr	BASEPRI, fp
 8002a38:	f109 0901 	add.w	r9, r9, #1
 8002a3c:	e7d7      	b.n	80029ee <chIQReadTimeout.4353+0x1e>
 8002a3e:	f387 8811 	msr	BASEPRI, r7
 8002a42:	4630      	mov	r0, r6
 8002a44:	e8bd 8ff8 	ldmia.w	sp!, {r3, r4, r5, r6, r7, r8, r9, sl, fp, pc}
 8002a48:	f3af 8000 	nop.w
 8002a4c:	f3af 8000 	nop.w

08002a50 <readt.10173>:
 8002a50:	300c      	adds	r0, #12
 8002a52:	f7ff bfbd 	b.w	80029d0 <chIQReadTimeout.4353>
 8002a56:	bf00      	nop
 8002a58:	f3af 8000 	nop.w
 8002a5c:	f3af 8000 	nop.w

08002a60 <read.10180>:
 8002a60:	300c      	adds	r0, #12
 8002a62:	f04f 33ff 	mov.w	r3, #4294967295	; 0xffffffff
 8002a66:	f7ff bfb3 	b.w	80029d0 <chIQReadTimeout.4353>
 8002a6a:	bf00      	nop
 8002a6c:	f3af 8000 	nop.w

08002a70 <chOQPutTimeout.4368>:
 8002a70:	b5f8      	push	{r3, r4, r5, r6, r7, lr}
 8002a72:	4604      	mov	r4, r0
 8002a74:	460f      	mov	r7, r1
 8002a76:	4616      	mov	r6, r2
 8002a78:	2320      	movs	r3, #32
 8002a7a:	f383 8811 	msr	BASEPRI, r3
 8002a7e:	e003      	b.n	8002a88 <chOQPutTimeout.4368+0x18>
 8002a80:	f7ff ff56 	bl	8002930 <chThdEnqueueTimeoutS.4393>
 8002a84:	2800      	cmp	r0, #0
 8002a86:	db18      	blt.n	8002aba <chOQPutTimeout.4368+0x4a>
 8002a88:	68a5      	ldr	r5, [r4, #8]
 8002a8a:	4620      	mov	r0, r4
 8002a8c:	4631      	mov	r1, r6
 8002a8e:	2d00      	cmp	r5, #0
 8002a90:	d0f6      	beq.n	8002a80 <chOQPutTimeout.4368+0x10>
 8002a92:	6963      	ldr	r3, [r4, #20]
 8002a94:	3d01      	subs	r5, #1
 8002a96:	1c5a      	adds	r2, r3, #1
 8002a98:	6162      	str	r2, [r4, #20]
 8002a9a:	60a5      	str	r5, [r4, #8]
 8002a9c:	701f      	strb	r7, [r3, #0]
 8002a9e:	6923      	ldr	r3, [r4, #16]
 8002aa0:	6962      	ldr	r2, [r4, #20]
 8002aa2:	429a      	cmp	r2, r3
 8002aa4:	bf24      	itt	cs
 8002aa6:	68e3      	ldrcs	r3, [r4, #12]
 8002aa8:	6163      	strcs	r3, [r4, #20]
 8002aaa:	69e3      	ldr	r3, [r4, #28]
 8002aac:	b10b      	cbz	r3, 8002ab2 <chOQPutTimeout.4368+0x42>
 8002aae:	4620      	mov	r0, r4
 8002ab0:	4798      	blx	r3
 8002ab2:	2000      	movs	r0, #0
 8002ab4:	f380 8811 	msr	BASEPRI, r0
 8002ab8:	bdf8      	pop	{r3, r4, r5, r6, r7, pc}
 8002aba:	f385 8811 	msr	BASEPRI, r5
 8002abe:	bdf8      	pop	{r3, r4, r5, r6, r7, pc}

08002ac0 <putt.10203>:
 8002ac0:	3030      	adds	r0, #48	; 0x30
 8002ac2:	f7ff bfd5 	b.w	8002a70 <chOQPutTimeout.4368>
 8002ac6:	bf00      	nop
 8002ac8:	f3af 8000 	nop.w
 8002acc:	f3af 8000 	nop.w

08002ad0 <put.10208>:
 8002ad0:	3030      	adds	r0, #48	; 0x30
 8002ad2:	f04f 32ff 	mov.w	r2, #4294967295	; 0xffffffff
 8002ad6:	f7ff bfcb 	b.w	8002a70 <chOQPutTimeout.4368>
 8002ada:	bf00      	nop
 8002adc:	f3af 8000 	nop.w

08002ae0 <chOQWriteTimeout.4387>:
 8002ae0:	e92d 4ff0 	stmdb	sp!, {r4, r5, r6, r7, r8, r9, sl, fp, lr}
 8002ae4:	b083      	sub	sp, #12
 8002ae6:	4604      	mov	r4, r0
 8002ae8:	468b      	mov	fp, r1
 8002aea:	4616      	mov	r6, r2
 8002aec:	9301      	str	r3, [sp, #4]
 8002aee:	f8d0 801c 	ldr.w	r8, [r0, #28]
 8002af2:	f04f 0a20 	mov.w	sl, #32
 8002af6:	f38a 8811 	msr	BASEPRI, sl
 8002afa:	2700      	movs	r7, #0
 8002afc:	46b9      	mov	r9, r7
 8002afe:	68a5      	ldr	r5, [r4, #8]
 8002b00:	f10b 0a01 	add.w	sl, fp, #1
 8002b04:	4620      	mov	r0, r4
 8002b06:	1e6a      	subs	r2, r5, #1
 8002b08:	b1dd      	cbz	r5, 8002b42 <chOQWriteTimeout.4387+0x62>
 8002b0a:	6963      	ldr	r3, [r4, #20]
 8002b0c:	60a2      	str	r2, [r4, #8]
 8002b0e:	1c5a      	adds	r2, r3, #1
 8002b10:	6162      	str	r2, [r4, #20]
 8002b12:	f89b 2000 	ldrb.w	r2, [fp]
 8002b16:	701a      	strb	r2, [r3, #0]
 8002b18:	6923      	ldr	r3, [r4, #16]
 8002b1a:	6962      	ldr	r2, [r4, #20]
 8002b1c:	429a      	cmp	r2, r3
 8002b1e:	bf24      	itt	cs
 8002b20:	68e3      	ldrcs	r3, [r4, #12]
 8002b22:	6163      	strcs	r3, [r4, #20]
 8002b24:	f1b8 0f00 	cmp.w	r8, #0
 8002b28:	d000      	beq.n	8002b2c <chOQWriteTimeout.4387+0x4c>
 8002b2a:	47c0      	blx	r8
 8002b2c:	f389 8811 	msr	BASEPRI, r9
 8002b30:	3e01      	subs	r6, #1
 8002b32:	f107 0701 	add.w	r7, r7, #1
 8002b36:	d00c      	beq.n	8002b52 <chOQWriteTimeout.4387+0x72>
 8002b38:	2320      	movs	r3, #32
 8002b3a:	f383 8811 	msr	BASEPRI, r3
 8002b3e:	46d3      	mov	fp, sl
 8002b40:	e7dd      	b.n	8002afe <chOQWriteTimeout.4387+0x1e>
 8002b42:	4620      	mov	r0, r4
 8002b44:	9901      	ldr	r1, [sp, #4]
 8002b46:	f7ff fef3 	bl	8002930 <chThdEnqueueTimeoutS.4393>
 8002b4a:	2800      	cmp	r0, #0
 8002b4c:	d0d7      	beq.n	8002afe <chOQWriteTimeout.4387+0x1e>
 8002b4e:	f385 8811 	msr	BASEPRI, r5
 8002b52:	4638      	mov	r0, r7
 8002b54:	b003      	add	sp, #12
 8002b56:	e8bd 8ff0 	ldmia.w	sp!, {r4, r5, r6, r7, r8, r9, sl, fp, pc}
 8002b5a:	bf00      	nop
 8002b5c:	f3af 8000 	nop.w

08002b60 <writet.10185>:
 8002b60:	3030      	adds	r0, #48	; 0x30
 8002b62:	f7ff bfbd 	b.w	8002ae0 <chOQWriteTimeout.4387>
 8002b66:	bf00      	nop
 8002b68:	f3af 8000 	nop.w
 8002b6c:	f3af 8000 	nop.w

08002b70 <write.10191>:
 8002b70:	3030      	adds	r0, #48	; 0x30
 8002b72:	f04f 33ff 	mov.w	r3, #4294967295	; 0xffffffff
 8002b76:	f7ff bfb3 	b.w	8002ae0 <chOQWriteTimeout.4387>
 8002b7a:	bf00      	nop
 8002b7c:	f3af 8000 	nop.w

08002b80 <chprintf.16710.constprop.29>:
 8002b80:	b40e      	push	{r1, r2, r3}
 8002b82:	e92d 4ff0 	stmdb	sp!, {r4, r5, r6, r7, r8, r9, sl, fp, lr}
 8002b86:	ed2d 8b02 	vpush	{d8}
 8002b8a:	b08e      	sub	sp, #56	; 0x38
 8002b8c:	ab19      	add	r3, sp, #100	; 0x64
 8002b8e:	a808      	add	r0, sp, #32
 8002b90:	f853 6b04 	ldr.w	r6, [r3], #4
 8002b94:	9001      	str	r0, [sp, #4]
 8002b96:	f10d 0221 	add.w	r2, sp, #33	; 0x21
 8002b9a:	9307      	str	r3, [sp, #28]
 8002b9c:	4698      	mov	r8, r3
 8002b9e:	1a13      	subs	r3, r2, r0
 8002ba0:	2000      	movs	r0, #0
 8002ba2:	9200      	str	r2, [sp, #0]
 8002ba4:	9303      	str	r3, [sp, #12]
 8002ba6:	9002      	str	r0, [sp, #8]
 8002ba8:	7831      	ldrb	r1, [r6, #0]
 8002baa:	1c74      	adds	r4, r6, #1
 8002bac:	b171      	cbz	r1, 8002bcc <chprintf.16710.constprop.29+0x4c>
 8002bae:	2925      	cmp	r1, #37	; 0x25
 8002bb0:	d014      	beq.n	8002bdc <chprintf.16710.constprop.29+0x5c>
 8002bb2:	4f85      	ldr	r7, [pc, #532]	; (8002dc8 <chprintf.16710.constprop.29+0x248>)
 8002bb4:	9b02      	ldr	r3, [sp, #8]
 8002bb6:	683a      	ldr	r2, [r7, #0]
 8002bb8:	4626      	mov	r6, r4
 8002bba:	3301      	adds	r3, #1
 8002bbc:	6892      	ldr	r2, [r2, #8]
 8002bbe:	9302      	str	r3, [sp, #8]
 8002bc0:	4638      	mov	r0, r7
 8002bc2:	4790      	blx	r2
 8002bc4:	7831      	ldrb	r1, [r6, #0]
 8002bc6:	1c74      	adds	r4, r6, #1
 8002bc8:	2900      	cmp	r1, #0
 8002bca:	d1f0      	bne.n	8002bae <chprintf.16710.constprop.29+0x2e>
 8002bcc:	9802      	ldr	r0, [sp, #8]
 8002bce:	b00e      	add	sp, #56	; 0x38
 8002bd0:	ecbd 8b02 	vpop	{d8}
 8002bd4:	e8bd 4ff0 	ldmia.w	sp!, {r4, r5, r6, r7, r8, r9, sl, fp, lr}
 8002bd8:	b003      	add	sp, #12
 8002bda:	4770      	bx	lr
 8002bdc:	7872      	ldrb	r2, [r6, #1]
 8002bde:	2a2d      	cmp	r2, #45	; 0x2d
 8002be0:	bf03      	ittte	eq
 8002be2:	78b2      	ldrbeq	r2, [r6, #2]
 8002be4:	1cb4      	addeq	r4, r6, #2
 8002be6:	2701      	moveq	r7, #1
 8002be8:	2700      	movne	r7, #0
 8002bea:	2a30      	cmp	r2, #48	; 0x30
 8002bec:	bf04      	itt	eq
 8002bee:	7862      	ldrbeq	r2, [r4, #1]
 8002bf0:	3401      	addeq	r4, #1
 8002bf2:	4626      	mov	r6, r4
 8002bf4:	bf0c      	ite	eq
 8002bf6:	2530      	moveq	r5, #48	; 0x30
 8002bf8:	2520      	movne	r5, #32
 8002bfa:	2400      	movs	r4, #0
 8002bfc:	e008      	b.n	8002c10 <chprintf.16710.constprop.29+0x90>
 8002bfe:	f898 3000 	ldrb.w	r3, [r8]
 8002c02:	f108 0804 	add.w	r8, r8, #4
 8002c06:	eb04 0484 	add.w	r4, r4, r4, lsl #2
 8002c0a:	7832      	ldrb	r2, [r6, #0]
 8002c0c:	eb03 0444 	add.w	r4, r3, r4, lsl #1
 8002c10:	f1a2 0330 	sub.w	r3, r2, #48	; 0x30
 8002c14:	b2db      	uxtb	r3, r3
 8002c16:	2b09      	cmp	r3, #9
 8002c18:	f106 0601 	add.w	r6, r6, #1
 8002c1c:	d9f3      	bls.n	8002c06 <chprintf.16710.constprop.29+0x86>
 8002c1e:	2a2a      	cmp	r2, #42	; 0x2a
 8002c20:	d0ed      	beq.n	8002bfe <chprintf.16710.constprop.29+0x7e>
 8002c22:	2a2e      	cmp	r2, #46	; 0x2e
 8002c24:	f04f 0b00 	mov.w	fp, #0
 8002c28:	d047      	beq.n	8002cba <chprintf.16710.constprop.29+0x13a>
 8002c2a:	f002 03df 	and.w	r3, r2, #223	; 0xdf
 8002c2e:	2b4c      	cmp	r3, #76	; 0x4c
 8002c30:	d050      	beq.n	8002cd4 <chprintf.16710.constprop.29+0x154>
 8002c32:	f1a2 0344 	sub.w	r3, r2, #68	; 0x44
 8002c36:	2b34      	cmp	r3, #52	; 0x34
 8002c38:	f200 813b 	bhi.w	8002eb2 <chprintf.16710.constprop.29+0x332>
 8002c3c:	e8df f013 	tbh	[pc, r3, lsl #1]
 8002c40:	01390127 	.word	0x01390127
 8002c44:	01390139 	.word	0x01390139
 8002c48:	01270139 	.word	0x01270139
 8002c4c:	01390139 	.word	0x01390139
 8002c50:	01390139 	.word	0x01390139
 8002c54:	01250139 	.word	0x01250139
 8002c58:	01390139 	.word	0x01390139
 8002c5c:	01390139 	.word	0x01390139
 8002c60:	00500139 	.word	0x00500139
 8002c64:	01390139 	.word	0x01390139
 8002c68:	013900c1 	.word	0x013900c1
 8002c6c:	01390139 	.word	0x01390139
 8002c70:	01390139 	.word	0x01390139
 8002c74:	01390139 	.word	0x01390139
 8002c78:	01390139 	.word	0x01390139
 8002c7c:	01180139 	.word	0x01180139
 8002c80:	01390127 	.word	0x01390127
 8002c84:	013900c8 	.word	0x013900c8
 8002c88:	01270139 	.word	0x01270139
 8002c8c:	01390139 	.word	0x01390139
 8002c90:	01390139 	.word	0x01390139
 8002c94:	01250139 	.word	0x01250139
 8002c98:	01390139 	.word	0x01390139
 8002c9c:	009c0139 	.word	0x009c0139
 8002ca0:	00500139 	.word	0x00500139
 8002ca4:	01390139 	.word	0x01390139
 8002ca8:	00c1      	.short	0x00c1
 8002caa:	f898 3000 	ldrb.w	r3, [r8]
 8002cae:	f108 0804 	add.w	r8, r8, #4
 8002cb2:	eb0b 0b8b 	add.w	fp, fp, fp, lsl #2
 8002cb6:	eb03 0b4b 	add.w	fp, r3, fp, lsl #1
 8002cba:	f816 2b01 	ldrb.w	r2, [r6], #1
 8002cbe:	f1a2 0330 	sub.w	r3, r2, #48	; 0x30
 8002cc2:	b2db      	uxtb	r3, r3
 8002cc4:	2b09      	cmp	r3, #9
 8002cc6:	d9f4      	bls.n	8002cb2 <chprintf.16710.constprop.29+0x132>
 8002cc8:	2a2a      	cmp	r2, #42	; 0x2a
 8002cca:	d0ee      	beq.n	8002caa <chprintf.16710.constprop.29+0x12a>
 8002ccc:	f002 03df 	and.w	r3, r2, #223	; 0xdf
 8002cd0:	2b4c      	cmp	r3, #76	; 0x4c
 8002cd2:	d1ae      	bne.n	8002c32 <chprintf.16710.constprop.29+0xb2>
 8002cd4:	7833      	ldrb	r3, [r6, #0]
 8002cd6:	2b00      	cmp	r3, #0
 8002cd8:	d0ab      	beq.n	8002c32 <chprintf.16710.constprop.29+0xb2>
 8002cda:	3601      	adds	r6, #1
 8002cdc:	461a      	mov	r2, r3
 8002cde:	e7a8      	b.n	8002c32 <chprintf.16710.constprop.29+0xb2>
 8002ce0:	220a      	movs	r2, #10
 8002ce2:	f8d8 1000 	ldr.w	r1, [r8]
 8002ce6:	2300      	movs	r3, #0
 8002ce8:	a808      	add	r0, sp, #32
 8002cea:	f7fe fc29 	bl	8001540 <long_to_string_with_divisor.13049>
 8002cee:	9b01      	ldr	r3, [sp, #4]
 8002cf0:	1ac0      	subs	r0, r0, r3
 8002cf2:	f108 0804 	add.w	r8, r8, #4
 8002cf6:	f100 3bff 	add.w	fp, r0, #4294967295	; 0xffffffff
 8002cfa:	f10d 0a20 	add.w	sl, sp, #32
 8002cfe:	1a24      	subs	r4, r4, r0
 8002d00:	ea24 74e4 	bic.w	r4, r4, r4, asr #31
 8002d04:	b9a7      	cbnz	r7, 8002d30 <chprintf.16710.constprop.29+0x1b0>
 8002d06:	4264      	negs	r4, r4
 8002d08:	b194      	cbz	r4, 8002d30 <chprintf.16710.constprop.29+0x1b0>
 8002d0a:	f89a 1000 	ldrb.w	r1, [sl]
 8002d0e:	4f2e      	ldr	r7, [pc, #184]	; (8002dc8 <chprintf.16710.constprop.29+0x248>)
 8002d10:	292d      	cmp	r1, #45	; 0x2d
 8002d12:	f000 80d6 	beq.w	8002ec2 <chprintf.16710.constprop.29+0x342>
 8002d16:	46a1      	mov	r9, r4
 8002d18:	683b      	ldr	r3, [r7, #0]
 8002d1a:	482b      	ldr	r0, [pc, #172]	; (8002dc8 <chprintf.16710.constprop.29+0x248>)
 8002d1c:	689b      	ldr	r3, [r3, #8]
 8002d1e:	4629      	mov	r1, r5
 8002d20:	4798      	blx	r3
 8002d22:	f119 0901 	adds.w	r9, r9, #1
 8002d26:	d1f7      	bne.n	8002d18 <chprintf.16710.constprop.29+0x198>
 8002d28:	9a02      	ldr	r2, [sp, #8]
 8002d2a:	1b12      	subs	r2, r2, r4
 8002d2c:	9202      	str	r2, [sp, #8]
 8002d2e:	464c      	mov	r4, r9
 8002d30:	f1bb 0f00 	cmp.w	fp, #0
 8002d34:	db0f      	blt.n	8002d56 <chprintf.16710.constprop.29+0x1d6>
 8002d36:	4f24      	ldr	r7, [pc, #144]	; (8002dc8 <chprintf.16710.constprop.29+0x248>)
 8002d38:	f10a 39ff 	add.w	r9, sl, #4294967295	; 0xffffffff
 8002d3c:	44da      	add	sl, fp
 8002d3e:	683b      	ldr	r3, [r7, #0]
 8002d40:	f819 1f01 	ldrb.w	r1, [r9, #1]!
 8002d44:	689b      	ldr	r3, [r3, #8]
 8002d46:	4820      	ldr	r0, [pc, #128]	; (8002dc8 <chprintf.16710.constprop.29+0x248>)
 8002d48:	4798      	blx	r3
 8002d4a:	45d1      	cmp	r9, sl
 8002d4c:	d1f7      	bne.n	8002d3e <chprintf.16710.constprop.29+0x1be>
 8002d4e:	9b02      	ldr	r3, [sp, #8]
 8002d50:	1c5f      	adds	r7, r3, #1
 8002d52:	445f      	add	r7, fp
 8002d54:	9702      	str	r7, [sp, #8]
 8002d56:	2c00      	cmp	r4, #0
 8002d58:	f43f af26 	beq.w	8002ba8 <chprintf.16710.constprop.29+0x28>
 8002d5c:	4f1a      	ldr	r7, [pc, #104]	; (8002dc8 <chprintf.16710.constprop.29+0x248>)
 8002d5e:	46a1      	mov	r9, r4
 8002d60:	683b      	ldr	r3, [r7, #0]
 8002d62:	4819      	ldr	r0, [pc, #100]	; (8002dc8 <chprintf.16710.constprop.29+0x248>)
 8002d64:	689b      	ldr	r3, [r3, #8]
 8002d66:	4629      	mov	r1, r5
 8002d68:	4798      	blx	r3
 8002d6a:	f1b9 0901 	subs.w	r9, r9, #1
 8002d6e:	d1f7      	bne.n	8002d60 <chprintf.16710.constprop.29+0x1e0>
 8002d70:	9802      	ldr	r0, [sp, #8]
 8002d72:	4420      	add	r0, r4
 8002d74:	9002      	str	r0, [sp, #8]
 8002d76:	e717      	b.n	8002ba8 <chprintf.16710.constprop.29+0x28>
 8002d78:	f8d8 a000 	ldr.w	sl, [r8]
 8002d7c:	4b13      	ldr	r3, [pc, #76]	; (8002dcc <chprintf.16710.constprop.29+0x24c>)
 8002d7e:	f1ba 0f00 	cmp.w	sl, #0
 8002d82:	bf08      	it	eq
 8002d84:	469a      	moveq	sl, r3
 8002d86:	f647 73ff 	movw	r3, #32767	; 0x7fff
 8002d8a:	f89a 0000 	ldrb.w	r0, [sl]
 8002d8e:	f108 0804 	add.w	r8, r8, #4
 8002d92:	f1bb 0f00 	cmp.w	fp, #0
 8002d96:	bf08      	it	eq
 8002d98:	469b      	moveq	fp, r3
 8002d9a:	2800      	cmp	r0, #0
 8002d9c:	f000 80b5 	beq.w	8002f0a <chprintf.16710.constprop.29+0x38a>
 8002da0:	eb0b 000a 	add.w	r0, fp, sl
 8002da4:	4653      	mov	r3, sl
 8002da6:	e002      	b.n	8002dae <chprintf.16710.constprop.29+0x22e>
 8002da8:	4298      	cmp	r0, r3
 8002daa:	f000 8099 	beq.w	8002ee0 <chprintf.16710.constprop.29+0x360>
 8002dae:	785a      	ldrb	r2, [r3, #1]
 8002db0:	3301      	adds	r3, #1
 8002db2:	2a00      	cmp	r2, #0
 8002db4:	d1f8      	bne.n	8002da8 <chprintf.16710.constprop.29+0x228>
 8002db6:	ebca 0003 	rsb	r0, sl, r3
 8002dba:	f100 3bff 	add.w	fp, r0, #4294967295	; 0xffffffff
 8002dbe:	2520      	movs	r5, #32
 8002dc0:	e79d      	b.n	8002cfe <chprintf.16710.constprop.29+0x17e>
 8002dc2:	2210      	movs	r2, #16
 8002dc4:	e78d      	b.n	8002ce2 <chprintf.16710.constprop.29+0x162>
 8002dc6:	bf00      	nop
 8002dc8:	2000287c 	.word	0x2000287c
 8002dcc:	08003d10 	.word	0x08003d10
 8002dd0:	f108 0807 	add.w	r8, r8, #7
 8002dd4:	f028 0807 	bic.w	r8, r8, #7
 8002dd8:	e9d8 0100 	ldrd	r0, r1, [r8]
 8002ddc:	f7fe f960 	bl	80010a0 <__aeabi_d2f>
 8002de0:	ee08 0a10 	vmov	s16, r0
 8002de4:	eeb5 8ac0 	vcmpe.f32	s16, #0.0
 8002de8:	eef1 fa10 	vmrs	APSR_nzcv, fpscr
 8002dec:	f108 0808 	add.w	r8, r8, #8
 8002df0:	f100 8083 	bmi.w	8002efa <chprintf.16710.constprop.29+0x37a>
 8002df4:	a808      	add	r0, sp, #32
 8002df6:	eefd 7ac8 	vcvt.s32.f32	s15, s16
 8002dfa:	f10b 3bff 	add.w	fp, fp, #4294967295	; 0xffffffff
 8002dfe:	f8df e118 	ldr.w	lr, [pc, #280]	; 8002f18 <chprintf.16710.constprop.29+0x398>
 8002e02:	f1bb 0f08 	cmp.w	fp, #8
 8002e06:	bf28      	it	cs
 8002e08:	f04f 0b08 	movcs.w	fp, #8
 8002e0c:	ee17 1a90 	vmov	r1, s15
 8002e10:	220a      	movs	r2, #10
 8002e12:	2300      	movs	r3, #0
 8002e14:	f85e b02b 	ldr.w	fp, [lr, fp, lsl #2]
 8002e18:	ee17 9a90 	vmov	r9, s15
 8002e1c:	f7fe fb90 	bl	8001540 <long_to_string_with_divisor.13049>
 8002e20:	4682      	mov	sl, r0
 8002e22:	232e      	movs	r3, #46	; 0x2e
 8002e24:	f80a 3b01 	strb.w	r3, [sl], #1
 8002e28:	ee18 0a10 	vmov	r0, s16
 8002e2c:	f7fd fea4 	bl	8000b78 <__aeabi_f2d>
 8002e30:	e9cd 0104 	strd	r0, r1, [sp, #16]
 8002e34:	4648      	mov	r0, r9
 8002e36:	f7fd fe8d 	bl	8000b54 <__aeabi_i2d>
 8002e3a:	4602      	mov	r2, r0
 8002e3c:	460b      	mov	r3, r1
 8002e3e:	e9dd 0104 	ldrd	r0, r1, [sp, #16]
 8002e42:	f7fd fd39 	bl	80008b8 <__aeabi_dsub>
 8002e46:	e9cd 0104 	strd	r0, r1, [sp, #16]
 8002e4a:	4658      	mov	r0, fp
 8002e4c:	f7fd fe72 	bl	8000b34 <__aeabi_ui2d>
 8002e50:	4602      	mov	r2, r0
 8002e52:	460b      	mov	r3, r1
 8002e54:	e9dd 0104 	ldrd	r0, r1, [sp, #16]
 8002e58:	f7fd fee2 	bl	8000c20 <__aeabi_dmul>
 8002e5c:	f7fe f8f8 	bl	8001050 <__aeabi_d2iz>
 8002e60:	4b2c      	ldr	r3, [pc, #176]	; (8002f14 <chprintf.16710.constprop.29+0x394>)
 8002e62:	4601      	mov	r1, r0
 8002e64:	fba3 030b 	umull	r0, r3, r3, fp
 8002e68:	08db      	lsrs	r3, r3, #3
 8002e6a:	4650      	mov	r0, sl
 8002e6c:	220a      	movs	r2, #10
 8002e6e:	e017      	b.n	8002ea0 <chprintf.16710.constprop.29+0x320>
 8002e70:	9803      	ldr	r0, [sp, #12]
 8002e72:	f8d8 3000 	ldr.w	r3, [r8]
 8002e76:	f88d 3020 	strb.w	r3, [sp, #32]
 8002e7a:	2520      	movs	r5, #32
 8002e7c:	f108 0804 	add.w	r8, r8, #4
 8002e80:	f100 3bff 	add.w	fp, r0, #4294967295	; 0xffffffff
 8002e84:	eb0d 0a05 	add.w	sl, sp, r5
 8002e88:	e739      	b.n	8002cfe <chprintf.16710.constprop.29+0x17e>
 8002e8a:	2208      	movs	r2, #8
 8002e8c:	e729      	b.n	8002ce2 <chprintf.16710.constprop.29+0x162>
 8002e8e:	f8d8 1000 	ldr.w	r1, [r8]
 8002e92:	2900      	cmp	r1, #0
 8002e94:	f108 0804 	add.w	r8, r8, #4
 8002e98:	db28      	blt.n	8002eec <chprintf.16710.constprop.29+0x36c>
 8002e9a:	a808      	add	r0, sp, #32
 8002e9c:	220a      	movs	r2, #10
 8002e9e:	2300      	movs	r3, #0
 8002ea0:	f7fe fb4e 	bl	8001540 <long_to_string_with_divisor.13049>
 8002ea4:	9a01      	ldr	r2, [sp, #4]
 8002ea6:	1a80      	subs	r0, r0, r2
 8002ea8:	f100 3bff 	add.w	fp, r0, #4294967295	; 0xffffffff
 8002eac:	f10d 0a20 	add.w	sl, sp, #32
 8002eb0:	e725      	b.n	8002cfe <chprintf.16710.constprop.29+0x17e>
 8002eb2:	9803      	ldr	r0, [sp, #12]
 8002eb4:	f88d 2020 	strb.w	r2, [sp, #32]
 8002eb8:	f100 3bff 	add.w	fp, r0, #4294967295	; 0xffffffff
 8002ebc:	f10d 0a20 	add.w	sl, sp, #32
 8002ec0:	e71d      	b.n	8002cfe <chprintf.16710.constprop.29+0x17e>
 8002ec2:	2d30      	cmp	r5, #48	; 0x30
 8002ec4:	f47f af27 	bne.w	8002d16 <chprintf.16710.constprop.29+0x196>
 8002ec8:	683a      	ldr	r2, [r7, #0]
 8002eca:	4638      	mov	r0, r7
 8002ecc:	6892      	ldr	r2, [r2, #8]
 8002ece:	4790      	blx	r2
 8002ed0:	9802      	ldr	r0, [sp, #8]
 8002ed2:	3001      	adds	r0, #1
 8002ed4:	f10a 0a01 	add.w	sl, sl, #1
 8002ed8:	9002      	str	r0, [sp, #8]
 8002eda:	f10b 3bff 	add.w	fp, fp, #4294967295	; 0xffffffff
 8002ede:	e71a      	b.n	8002d16 <chprintf.16710.constprop.29+0x196>
 8002ee0:	ebca 0000 	rsb	r0, sl, r0
 8002ee4:	f100 3bff 	add.w	fp, r0, #4294967295	; 0xffffffff
 8002ee8:	2520      	movs	r5, #32
 8002eea:	e708      	b.n	8002cfe <chprintf.16710.constprop.29+0x17e>
 8002eec:	232d      	movs	r3, #45	; 0x2d
 8002eee:	4249      	negs	r1, r1
 8002ef0:	f88d 3020 	strb.w	r3, [sp, #32]
 8002ef4:	f10d 0021 	add.w	r0, sp, #33	; 0x21
 8002ef8:	e7d0      	b.n	8002e9c <chprintf.16710.constprop.29+0x31c>
 8002efa:	232d      	movs	r3, #45	; 0x2d
 8002efc:	eeb1 8a48 	vneg.f32	s16, s16
 8002f00:	f88d 3020 	strb.w	r3, [sp, #32]
 8002f04:	f10d 0021 	add.w	r0, sp, #33	; 0x21
 8002f08:	e775      	b.n	8002df6 <chprintf.16710.constprop.29+0x276>
 8002f0a:	f04f 3bff 	mov.w	fp, #4294967295	; 0xffffffff
 8002f0e:	2520      	movs	r5, #32
 8002f10:	e6f5      	b.n	8002cfe <chprintf.16710.constprop.29+0x17e>
 8002f12:	bf00      	nop
 8002f14:	cccccccd 	.word	0xcccccccd
 8002f18:	08003d30 	.word	0x08003d30
 8002f1c:	f3af 8000 	nop.w

08002f20 <chThdCreateStatic>:
 8002f20:	e92d 4ff8 	stmdb	sp!, {r3, r4, r5, r6, r7, r8, r9, sl, fp, lr}
 8002f24:	4699      	mov	r9, r3
 8002f26:	4604      	mov	r4, r0
 8002f28:	2320      	movs	r3, #32
 8002f2a:	f383 8811 	msr	BASEPRI, r3
 8002f2e:	4e19      	ldr	r6, [pc, #100]	; (8002f94 <chThdCreateStatic+0x74>)
 8002f30:	9b0a      	ldr	r3, [sp, #40]	; 0x28
 8002f32:	f8d6 b014 	ldr.w	fp, [r6, #20]
 8002f36:	f8df 8060 	ldr.w	r8, [pc, #96]	; 8002f98 <chThdCreateStatic+0x78>
 8002f3a:	3964      	subs	r1, #100	; 0x64
 8002f3c:	4401      	add	r1, r0
 8002f3e:	2500      	movs	r5, #0
 8002f40:	f100 0728 	add.w	r7, r0, #40	; 0x28
 8002f44:	f04f 0c01 	mov.w	ip, #1
 8002f48:	f100 0e24 	add.w	lr, r0, #36	; 0x24
 8002f4c:	f04f 0a02 	mov.w	sl, #2
 8002f50:	60c1      	str	r1, [r0, #12]
 8002f52:	f8c1 9040 	str.w	r9, [r1, #64]	; 0x40
 8002f56:	644b      	str	r3, [r1, #68]	; 0x44
 8002f58:	f8c1 8060 	str.w	r8, [r1, #96]	; 0x60
 8002f5c:	6082      	str	r2, [r0, #8]
 8002f5e:	6106      	str	r6, [r0, #16]
 8002f60:	f8c0 b014 	str.w	fp, [r0, #20]
 8002f64:	63c2      	str	r2, [r0, #60]	; 0x3c
 8002f66:	f880 a01c 	strb.w	sl, [r0, #28]
 8002f6a:	f880 c01e 	strb.w	ip, [r0, #30]
 8002f6e:	7745      	strb	r5, [r0, #29]
 8002f70:	6170      	str	r0, [r6, #20]
 8002f72:	6385      	str	r5, [r0, #56]	; 0x38
 8002f74:	6345      	str	r5, [r0, #52]	; 0x34
 8002f76:	6185      	str	r5, [r0, #24]
 8002f78:	f8cb 0010 	str.w	r0, [fp, #16]
 8002f7c:	f8c0 e024 	str.w	lr, [r0, #36]	; 0x24
 8002f80:	62c7      	str	r7, [r0, #44]	; 0x2c
 8002f82:	6287      	str	r7, [r0, #40]	; 0x28
 8002f84:	f7fe fa14 	bl	80013b0 <chSchWakeupS.constprop.28>
 8002f88:	f385 8811 	msr	BASEPRI, r5
 8002f8c:	4620      	mov	r0, r4
 8002f8e:	e8bd 8ff8 	ldmia.w	sp!, {r3, r4, r5, r6, r7, r8, r9, sl, fp, pc}
 8002f92:	bf00      	nop
 8002f94:	20002cd4 	.word	0x20002cd4
 8002f98:	08000899 	.word	0x08000899
 8002f9c:	f3af 8000 	nop.w

08002fa0 <chMtxUnlock>:
 8002fa0:	b538      	push	{r3, r4, r5, lr}
 8002fa2:	4b16      	ldr	r3, [pc, #88]	; (8002ffc <chMtxUnlock+0x5c>)
 8002fa4:	4604      	mov	r4, r0
 8002fa6:	6998      	ldr	r0, [r3, #24]
 8002fa8:	2320      	movs	r3, #32
 8002faa:	f383 8811 	msr	BASEPRI, r3
 8002fae:	6825      	ldr	r5, [r4, #0]
 8002fb0:	68e3      	ldr	r3, [r4, #12]
 8002fb2:	6383      	str	r3, [r0, #56]	; 0x38
 8002fb4:	42ac      	cmp	r4, r5
 8002fb6:	d01a      	beq.n	8002fee <chMtxUnlock+0x4e>
 8002fb8:	6bc1      	ldr	r1, [r0, #60]	; 0x3c
 8002fba:	b14b      	cbz	r3, 8002fd0 <chMtxUnlock+0x30>
 8002fbc:	681a      	ldr	r2, [r3, #0]
 8002fbe:	4293      	cmp	r3, r2
 8002fc0:	d003      	beq.n	8002fca <chMtxUnlock+0x2a>
 8002fc2:	6892      	ldr	r2, [r2, #8]
 8002fc4:	4291      	cmp	r1, r2
 8002fc6:	bf38      	it	cc
 8002fc8:	4611      	movcc	r1, r2
 8002fca:	68db      	ldr	r3, [r3, #12]
 8002fcc:	2b00      	cmp	r3, #0
 8002fce:	d1f5      	bne.n	8002fbc <chMtxUnlock+0x1c>
 8002fd0:	682b      	ldr	r3, [r5, #0]
 8002fd2:	6baa      	ldr	r2, [r5, #56]	; 0x38
 8002fd4:	6081      	str	r1, [r0, #8]
 8002fd6:	6023      	str	r3, [r4, #0]
 8002fd8:	4628      	mov	r0, r5
 8002fda:	605c      	str	r4, [r3, #4]
 8002fdc:	60a5      	str	r5, [r4, #8]
 8002fde:	60e2      	str	r2, [r4, #12]
 8002fe0:	63ac      	str	r4, [r5, #56]	; 0x38
 8002fe2:	f7fe f9e5 	bl	80013b0 <chSchWakeupS.constprop.28>
 8002fe6:	2300      	movs	r3, #0
 8002fe8:	f383 8811 	msr	BASEPRI, r3
 8002fec:	bd38      	pop	{r3, r4, r5, pc}
 8002fee:	2300      	movs	r3, #0
 8002ff0:	60a3      	str	r3, [r4, #8]
 8002ff2:	2300      	movs	r3, #0
 8002ff4:	f383 8811 	msr	BASEPRI, r3
 8002ff8:	bd38      	pop	{r3, r4, r5, pc}
 8002ffa:	bf00      	nop
 8002ffc:	20002cd4 	.word	0x20002cd4

08003000 <gpsThread>:
 8003000:	e92d 4ff0 	stmdb	sp!, {r4, r5, r6, r7, r8, r9, sl, fp, lr}
 8003004:	7883      	ldrb	r3, [r0, #2]
 8003006:	4cb8      	ldr	r4, [pc, #736]	; (80032e8 <gpsThread+0x2e8>)
 8003008:	4eb8      	ldr	r6, [pc, #736]	; (80032ec <gpsThread+0x2ec>)
 800300a:	6064      	str	r4, [r4, #4]
 800300c:	2201      	movs	r2, #1
 800300e:	b083      	sub	sp, #12
 8003010:	4680      	mov	r8, r0
 8003012:	6024      	str	r4, [r4, #0]
 8003014:	60a2      	str	r2, [r4, #8]
 8003016:	2b00      	cmp	r3, #0
 8003018:	d04d      	beq.n	80030b6 <gpsThread+0xb6>
 800301a:	4fb5      	ldr	r7, [pc, #724]	; (80032f0 <gpsThread+0x2f0>)
 800301c:	f06f 0501 	mvn.w	r5, #1
 8003020:	2320      	movs	r3, #32
 8003022:	f383 8811 	msr	BASEPRI, r3
 8003026:	68a3      	ldr	r3, [r4, #8]
 8003028:	3b01      	subs	r3, #1
 800302a:	2b00      	cmp	r3, #0
 800302c:	60a3      	str	r3, [r4, #8]
 800302e:	f2c0 8088 	blt.w	8003142 <gpsThread+0x142>
 8003032:	2300      	movs	r3, #0
 8003034:	f383 8811 	msr	BASEPRI, r3
 8003038:	2320      	movs	r3, #32
 800303a:	f383 8811 	msr	BASEPRI, r3
 800303e:	68a3      	ldr	r3, [r4, #8]
 8003040:	2201      	movs	r2, #1
 8003042:	eb03 0a02 	add.w	sl, r3, r2
 8003046:	f1ba 0f00 	cmp.w	sl, #0
 800304a:	60a2      	str	r2, [r4, #8]
 800304c:	dc0b      	bgt.n	8003066 <gpsThread+0x66>
 800304e:	6860      	ldr	r0, [r4, #4]
 8003050:	6843      	ldr	r3, [r0, #4]
 8003052:	6063      	str	r3, [r4, #4]
 8003054:	601c      	str	r4, [r3, #0]
 8003056:	f7fe fdd3 	bl	8001c00 <chSchReadyI>
 800305a:	f10a 0a01 	add.w	sl, sl, #1
 800305e:	f1ba 0f01 	cmp.w	sl, #1
 8003062:	6205      	str	r5, [r0, #32]
 8003064:	d1f3      	bne.n	800304e <gpsThread+0x4e>
 8003066:	683a      	ldr	r2, [r7, #0]
 8003068:	69bb      	ldr	r3, [r7, #24]
 800306a:	6892      	ldr	r2, [r2, #8]
 800306c:	689b      	ldr	r3, [r3, #8]
 800306e:	429a      	cmp	r2, r3
 8003070:	d901      	bls.n	8003076 <gpsThread+0x76>
 8003072:	f7fe fb9d 	bl	80017b0 <chSchDoRescheduleAhead>
 8003076:	2300      	movs	r3, #0
 8003078:	f383 8811 	msr	BASEPRI, r3
 800307c:	2320      	movs	r3, #32
 800307e:	6831      	ldr	r1, [r6, #0]
 8003080:	f383 8811 	msr	BASEPRI, r3
 8003084:	788b      	ldrb	r3, [r1, #2]
 8003086:	2b01      	cmp	r3, #1
 8003088:	d028      	beq.n	80030dc <gpsThread+0xdc>
 800308a:	2300      	movs	r3, #0
 800308c:	f383 8811 	msr	BASEPRI, r3
 8003090:	f896 a0cd 	ldrb.w	sl, [r6, #205]	; 0xcd
 8003094:	f8df c254 	ldr.w	ip, [pc, #596]	; 80032ec <gpsThread+0x2ec>
 8003098:	f04f 0b64 	mov.w	fp, #100	; 0x64
 800309c:	fb0b 6a0a 	mla	sl, fp, sl, r6
 80030a0:	f89a 3004 	ldrb.w	r3, [sl, #4]
 80030a4:	2b24      	cmp	r3, #36	; 0x24
 80030a6:	d059      	beq.n	800315c <gpsThread+0x15c>
 80030a8:	20c8      	movs	r0, #200	; 0xc8
 80030aa:	f7ff fc31 	bl	8002910 <chThdSleep>
 80030ae:	f898 3002 	ldrb.w	r3, [r8, #2]
 80030b2:	2b00      	cmp	r3, #0
 80030b4:	d1b4      	bne.n	8003020 <gpsThread+0x20>
 80030b6:	6834      	ldr	r4, [r6, #0]
 80030b8:	2320      	movs	r3, #32
 80030ba:	f383 8811 	msr	BASEPRI, r3
 80030be:	7823      	ldrb	r3, [r4, #0]
 80030c0:	2b02      	cmp	r3, #2
 80030c2:	f000 80b6 	beq.w	8003232 <gpsThread+0x232>
 80030c6:	2300      	movs	r3, #0
 80030c8:	2201      	movs	r2, #1
 80030ca:	7022      	strb	r2, [r4, #0]
 80030cc:	7063      	strb	r3, [r4, #1]
 80030ce:	70a3      	strb	r3, [r4, #2]
 80030d0:	f383 8811 	msr	BASEPRI, r3
 80030d4:	4618      	mov	r0, r3
 80030d6:	b003      	add	sp, #12
 80030d8:	e8bd 8ff0 	ldmia.w	sp!, {r4, r5, r6, r7, r8, r9, sl, fp, pc}
 80030dc:	f8d1 e010 	ldr.w	lr, [r1, #16]
 80030e0:	f8de 2000 	ldr.w	r2, [lr]
 80030e4:	6813      	ldr	r3, [r2, #0]
 80030e6:	f023 031f 	bic.w	r3, r3, #31
 80030ea:	6013      	str	r3, [r2, #0]
 80030ec:	6813      	ldr	r3, [r2, #0]
 80030ee:	f013 0301 	ands.w	r3, r3, #1
 80030f2:	d1fb      	bne.n	80030ec <gpsThread+0xec>
 80030f4:	6848      	ldr	r0, [r1, #4]
 80030f6:	f89e a008 	ldrb.w	sl, [lr, #8]
 80030fa:	f8de c004 	ldr.w	ip, [lr, #4]
 80030fe:	f8d0 e00c 	ldr.w	lr, [r0, #12]
 8003102:	203d      	movs	r0, #61	; 0x3d
 8003104:	fa00 f00a 	lsl.w	r0, r0, sl
 8003108:	f8cc 0000 	str.w	r0, [ip]
 800310c:	6850      	ldr	r0, [r2, #4]
 800310e:	68c8      	ldr	r0, [r1, #12]
 8003110:	f1be 0f00 	cmp.w	lr, #0
 8003114:	bf14      	ite	ne
 8003116:	f44f 7e88 	movne.w	lr, #272	; 0x110
 800311a:	f44f 7e80 	moveq.w	lr, #256	; 0x100
 800311e:	ea4e 0900 	orr.w	r9, lr, r0
 8003122:	f101 0c18 	add.w	ip, r1, #24
 8003126:	f04f 0e01 	mov.w	lr, #1
 800312a:	f8c2 c00c 	str.w	ip, [r2, #12]
 800312e:	f8c2 e004 	str.w	lr, [r2, #4]
 8003132:	f8c2 9000 	str.w	r9, [r2]
 8003136:	6810      	ldr	r0, [r2, #0]
 8003138:	ea40 000e 	orr.w	r0, r0, lr
 800313c:	6010      	str	r0, [r2, #0]
 800313e:	708b      	strb	r3, [r1, #2]
 8003140:	e7a3      	b.n	800308a <gpsThread+0x8a>
 8003142:	4869      	ldr	r0, [pc, #420]	; (80032e8 <gpsThread+0x2e8>)
 8003144:	69bb      	ldr	r3, [r7, #24]
 8003146:	6842      	ldr	r2, [r0, #4]
 8003148:	4967      	ldr	r1, [pc, #412]	; (80032e8 <gpsThread+0x2e8>)
 800314a:	6018      	str	r0, [r3, #0]
 800314c:	6218      	str	r0, [r3, #32]
 800314e:	605a      	str	r2, [r3, #4]
 8003150:	2005      	movs	r0, #5
 8003152:	604b      	str	r3, [r1, #4]
 8003154:	6013      	str	r3, [r2, #0]
 8003156:	f7fe fb4b 	bl	80017f0 <chSchGoSleepS>
 800315a:	e76a      	b.n	8003032 <gpsThread+0x32>
 800315c:	f10a 0005 	add.w	r0, sl, #5
 8003160:	4964      	ldr	r1, [pc, #400]	; (80032f4 <gpsThread+0x2f4>)
 8003162:	f8cd c004 	str.w	ip, [sp, #4]
 8003166:	2202      	movs	r2, #2
 8003168:	f000 fcba 	bl	8003ae0 <strncmp>
 800316c:	2800      	cmp	r0, #0
 800316e:	d19b      	bne.n	80030a8 <gpsThread+0xa8>
 8003170:	f10a 0a07 	add.w	sl, sl, #7
 8003174:	4650      	mov	r0, sl
 8003176:	4960      	ldr	r1, [pc, #384]	; (80032f8 <gpsThread+0x2f8>)
 8003178:	2203      	movs	r2, #3
 800317a:	f000 fcb1 	bl	8003ae0 <strncmp>
 800317e:	2800      	cmp	r0, #0
 8003180:	d092      	beq.n	80030a8 <gpsThread+0xa8>
 8003182:	4650      	mov	r0, sl
 8003184:	495d      	ldr	r1, [pc, #372]	; (80032fc <gpsThread+0x2fc>)
 8003186:	2203      	movs	r2, #3
 8003188:	f000 fcaa 	bl	8003ae0 <strncmp>
 800318c:	f8dd c004 	ldr.w	ip, [sp, #4]
 8003190:	4682      	mov	sl, r0
 8003192:	2800      	cmp	r0, #0
 8003194:	d188      	bne.n	80030a8 <gpsThread+0xa8>
 8003196:	2320      	movs	r3, #32
 8003198:	f383 8811 	msr	BASEPRI, r3
 800319c:	f50c 7098 	add.w	r0, ip, #304	; 0x130
 80031a0:	f8cd c004 	str.w	ip, [sp, #4]
 80031a4:	f7fe fd74 	bl	8001c90 <chMtxLockS>
 80031a8:	f38a 8811 	msr	BASEPRI, sl
 80031ac:	f8dd c004 	ldr.w	ip, [sp, #4]
 80031b0:	4952      	ldr	r1, [pc, #328]	; (80032fc <gpsThread+0x2fc>)
 80031b2:	f89c a0cd 	ldrb.w	sl, [ip, #205]	; 0xcd
 80031b6:	fb0b ca0a 	mla	sl, fp, sl, ip
 80031ba:	f10a 0007 	add.w	r0, sl, #7
 80031be:	2203      	movs	r2, #3
 80031c0:	f000 fc8e 	bl	8003ae0 <strncmp>
 80031c4:	2800      	cmp	r0, #0
 80031c6:	f040 80e2 	bne.w	800338e <gpsThread+0x38e>
 80031ca:	f10a 0a0b 	add.w	sl, sl, #11
 80031ce:	f89a 3000 	ldrb.w	r3, [sl]
 80031d2:	f8df b13c 	ldr.w	fp, [pc, #316]	; 8003310 <gpsThread+0x310>
 80031d6:	f04f 0902 	mov.w	r9, #2
 80031da:	f109 3eff 	add.w	lr, r9, #4294967295	; 0xffffffff
 80031de:	2b2c      	cmp	r3, #44	; 0x2c
 80031e0:	fa5f fe8e 	uxtb.w	lr, lr
 80031e4:	d06b      	beq.n	80032be <gpsThread+0x2be>
 80031e6:	2b00      	cmp	r3, #0
 80031e8:	f000 80d9 	beq.w	800339e <gpsThread+0x39e>
 80031ec:	f10a 0001 	add.w	r0, sl, #1
 80031f0:	2200      	movs	r2, #0
 80031f2:	f80b 3002 	strb.w	r3, [fp, r2]
 80031f6:	7803      	ldrb	r3, [r0, #0]
 80031f8:	1c51      	adds	r1, r2, #1
 80031fa:	2b2c      	cmp	r3, #44	; 0x2c
 80031fc:	4682      	mov	sl, r0
 80031fe:	460a      	mov	r2, r1
 8003200:	f100 0001 	add.w	r0, r0, #1
 8003204:	b2c9      	uxtb	r1, r1
 8003206:	d003      	beq.n	8003210 <gpsThread+0x210>
 8003208:	b113      	cbz	r3, 8003210 <gpsThread+0x210>
 800320a:	2a10      	cmp	r2, #16
 800320c:	d1f1      	bne.n	80031f2 <gpsThread+0x1f2>
 800320e:	4611      	mov	r1, r2
 8003210:	2000      	movs	r0, #0
 8003212:	f10e 3eff 	add.w	lr, lr, #4294967295	; 0xffffffff
 8003216:	f10a 0a01 	add.w	sl, sl, #1
 800321a:	f80b 0001 	strb.w	r0, [fp, r1]
 800321e:	f1be 0f08 	cmp.w	lr, #8
 8003222:	d83d      	bhi.n	80032a0 <gpsThread+0x2a0>
 8003224:	e8df f00e 	tbb	[pc, lr]
 8003228:	5876818c 	.word	0x5876818c
 800322c:	3c883c4d 	.word	0x3c883c4d
 8003230:	b0          	.byte	0xb0
 8003231:	00          	.byte	0x00
 8003232:	6920      	ldr	r0, [r4, #16]
 8003234:	6802      	ldr	r2, [r0, #0]
 8003236:	6813      	ldr	r3, [r2, #0]
 8003238:	f023 031f 	bic.w	r3, r3, #31
 800323c:	6013      	str	r3, [r2, #0]
 800323e:	6813      	ldr	r3, [r2, #0]
 8003240:	07db      	lsls	r3, r3, #31
 8003242:	d4fc      	bmi.n	800323e <gpsThread+0x23e>
 8003244:	7a05      	ldrb	r5, [r0, #8]
 8003246:	6961      	ldr	r1, [r4, #20]
 8003248:	6843      	ldr	r3, [r0, #4]
 800324a:	680a      	ldr	r2, [r1, #0]
 800324c:	263d      	movs	r6, #61	; 0x3d
 800324e:	fa06 f505 	lsl.w	r5, r6, r5
 8003252:	601d      	str	r5, [r3, #0]
 8003254:	6813      	ldr	r3, [r2, #0]
 8003256:	f023 031f 	bic.w	r3, r3, #31
 800325a:	6013      	str	r3, [r2, #0]
 800325c:	6813      	ldr	r3, [r2, #0]
 800325e:	f013 0501 	ands.w	r5, r3, #1
 8003262:	d1fb      	bne.n	800325c <gpsThread+0x25c>
 8003264:	7a0e      	ldrb	r6, [r1, #8]
 8003266:	684a      	ldr	r2, [r1, #4]
 8003268:	68a3      	ldr	r3, [r4, #8]
 800326a:	213d      	movs	r1, #61	; 0x3d
 800326c:	40b1      	lsls	r1, r6
 800326e:	6011      	str	r1, [r2, #0]
 8003270:	60dd      	str	r5, [r3, #12]
 8003272:	611d      	str	r5, [r3, #16]
 8003274:	615d      	str	r5, [r3, #20]
 8003276:	f7fe fa03 	bl	8001680 <dmaStreamRelease>
 800327a:	6960      	ldr	r0, [r4, #20]
 800327c:	f7fe fa00 	bl	8001680 <dmaStreamRelease>
 8003280:	4b1f      	ldr	r3, [pc, #124]	; (8003300 <gpsThread+0x300>)
 8003282:	429c      	cmp	r4, r3
 8003284:	f47f af1f 	bne.w	80030c6 <gpsThread+0xc6>
 8003288:	4a1e      	ldr	r2, [pc, #120]	; (8003304 <gpsThread+0x304>)
 800328a:	4b1f      	ldr	r3, [pc, #124]	; (8003308 <gpsThread+0x308>)
 800328c:	2120      	movs	r1, #32
 800328e:	f8c2 1084 	str.w	r1, [r2, #132]	; 0x84
 8003292:	f882 5325 	strb.w	r5, [r2, #805]	; 0x325
 8003296:	6c5a      	ldr	r2, [r3, #68]	; 0x44
 8003298:	f022 0210 	bic.w	r2, r2, #16
 800329c:	645a      	str	r2, [r3, #68]	; 0x44
 800329e:	e712      	b.n	80030c6 <gpsThread+0xc6>
 80032a0:	f1b9 0f0a 	cmp.w	r9, #10
 80032a4:	d073      	beq.n	800338e <gpsThread+0x38e>
 80032a6:	f109 0c01 	add.w	ip, r9, #1
 80032aa:	f89a 3000 	ldrb.w	r3, [sl]
 80032ae:	fa5f f98c 	uxtb.w	r9, ip
 80032b2:	f109 3eff 	add.w	lr, r9, #4294967295	; 0xffffffff
 80032b6:	2b2c      	cmp	r3, #44	; 0x2c
 80032b8:	fa5f fe8e 	uxtb.w	lr, lr
 80032bc:	d193      	bne.n	80031e6 <gpsThread+0x1e6>
 80032be:	2100      	movs	r1, #0
 80032c0:	e7a6      	b.n	8003210 <gpsThread+0x210>
 80032c2:	f89b 3000 	ldrb.w	r3, [fp]
 80032c6:	2b57      	cmp	r3, #87	; 0x57
 80032c8:	d070      	beq.n	80033ac <gpsThread+0x3ac>
 80032ca:	2b45      	cmp	r3, #69	; 0x45
 80032cc:	d1eb      	bne.n	80032a6 <gpsThread+0x2a6>
 80032ce:	480f      	ldr	r0, [pc, #60]	; (800330c <gpsThread+0x30c>)
 80032d0:	212b      	movs	r1, #43	; 0x2b
 80032d2:	f7fe f91d 	bl	8001510 <uStrPrependChar>
 80032d6:	e7e6      	b.n	80032a6 <gpsThread+0x2a6>
 80032d8:	2003      	movs	r0, #3
 80032da:	f7fe f8f9 	bl	80014d0 <uStrInsertChar.constprop.1>
 80032de:	480b      	ldr	r0, [pc, #44]	; (800330c <gpsThread+0x30c>)
 80032e0:	f7fe f8d6 	bl	8001490 <uStrCpy.constprop.2>
 80032e4:	e7df      	b.n	80032a6 <gpsThread+0x2a6>
 80032e6:	bf00      	nop
 80032e8:	2000283c 	.word	0x2000283c
 80032ec:	200014b0 	.word	0x200014b0
 80032f0:	20002cd4 	.word	0x20002cd4
 80032f4:	08003d18 	.word	0x08003d18
 80032f8:	08003d1c 	.word	0x08003d1c
 80032fc:	08003d20 	.word	0x08003d20
 8003300:	20001670 	.word	0x20001670
 8003304:	e000e100 	.word	0xe000e100
 8003308:	40023800 	.word	0x40023800
 800330c:	200015a6 	.word	0x200015a6
 8003310:	20002828 	.word	0x20002828
 8003314:	f89b 3000 	ldrb.w	r3, [fp]
 8003318:	2b53      	cmp	r3, #83	; 0x53
 800331a:	d042      	beq.n	80033a2 <gpsThread+0x3a2>
 800331c:	2b4e      	cmp	r3, #78	; 0x4e
 800331e:	d1c2      	bne.n	80032a6 <gpsThread+0x2a6>
 8003320:	4825      	ldr	r0, [pc, #148]	; (80033b8 <gpsThread+0x3b8>)
 8003322:	212b      	movs	r1, #43	; 0x2b
 8003324:	f7fe f8f4 	bl	8001510 <uStrPrependChar>
 8003328:	e7bd      	b.n	80032a6 <gpsThread+0x2a6>
 800332a:	2002      	movs	r0, #2
 800332c:	f7fe f8d0 	bl	80014d0 <uStrInsertChar.constprop.1>
 8003330:	4821      	ldr	r0, [pc, #132]	; (80033b8 <gpsThread+0x3b8>)
 8003332:	f7fe f8ad 	bl	8001490 <uStrCpy.constprop.2>
 8003336:	e7b6      	b.n	80032a6 <gpsThread+0x2a6>
 8003338:	4820      	ldr	r0, [pc, #128]	; (80033bc <gpsThread+0x3bc>)
 800333a:	f7fe f8a9 	bl	8001490 <uStrCpy.constprop.2>
 800333e:	e7b2      	b.n	80032a6 <gpsThread+0x2a6>
 8003340:	4b1f      	ldr	r3, [pc, #124]	; (80033c0 <gpsThread+0x3c0>)
 8003342:	9301      	str	r3, [sp, #4]
 8003344:	4618      	mov	r0, r3
 8003346:	f000 fb9b 	bl	8003a80 <strlen>
 800334a:	2801      	cmp	r0, #1
 800334c:	9b01      	ldr	r3, [sp, #4]
 800334e:	d922      	bls.n	8003396 <gpsThread+0x396>
 8003350:	781a      	ldrb	r2, [r3, #0]
 8003352:	7859      	ldrb	r1, [r3, #1]
 8003354:	f886 20ce 	strb.w	r2, [r6, #206]	; 0xce
 8003358:	223a      	movs	r2, #58	; 0x3a
 800335a:	f893 e002 	ldrb.w	lr, [r3, #2]
 800335e:	78d8      	ldrb	r0, [r3, #3]
 8003360:	f886 10cf 	strb.w	r1, [r6, #207]	; 0xcf
 8003364:	f886 20d0 	strb.w	r2, [r6, #208]	; 0xd0
 8003368:	7919      	ldrb	r1, [r3, #4]
 800336a:	f886 20d3 	strb.w	r2, [r6, #211]	; 0xd3
 800336e:	795b      	ldrb	r3, [r3, #5]
 8003370:	f886 e0d1 	strb.w	lr, [r6, #209]	; 0xd1
 8003374:	2200      	movs	r2, #0
 8003376:	f886 00d2 	strb.w	r0, [r6, #210]	; 0xd2
 800337a:	f886 10d4 	strb.w	r1, [r6, #212]	; 0xd4
 800337e:	f886 30d5 	strb.w	r3, [r6, #213]	; 0xd5
 8003382:	f886 20d6 	strb.w	r2, [r6, #214]	; 0xd6
 8003386:	e78e      	b.n	80032a6 <gpsThread+0x2a6>
 8003388:	480e      	ldr	r0, [pc, #56]	; (80033c4 <gpsThread+0x3c4>)
 800338a:	f7fe f881 	bl	8001490 <uStrCpy.constprop.2>
 800338e:	480e      	ldr	r0, [pc, #56]	; (80033c8 <gpsThread+0x3c8>)
 8003390:	f7ff fe06 	bl	8002fa0 <chMtxUnlock>
 8003394:	e688      	b.n	80030a8 <gpsThread+0xa8>
 8003396:	2300      	movs	r3, #0
 8003398:	f886 30ce 	strb.w	r3, [r6, #206]	; 0xce
 800339c:	e783      	b.n	80032a6 <gpsThread+0x2a6>
 800339e:	4619      	mov	r1, r3
 80033a0:	e736      	b.n	8003210 <gpsThread+0x210>
 80033a2:	4805      	ldr	r0, [pc, #20]	; (80033b8 <gpsThread+0x3b8>)
 80033a4:	212d      	movs	r1, #45	; 0x2d
 80033a6:	f7fe f8b3 	bl	8001510 <uStrPrependChar>
 80033aa:	e77c      	b.n	80032a6 <gpsThread+0x2a6>
 80033ac:	4807      	ldr	r0, [pc, #28]	; (80033cc <gpsThread+0x3cc>)
 80033ae:	212d      	movs	r1, #45	; 0x2d
 80033b0:	f7fe f8ae 	bl	8001510 <uStrPrependChar>
 80033b4:	e777      	b.n	80032a6 <gpsThread+0x2a6>
 80033b6:	bf00      	nop
 80033b8:	2000158e 	.word	0x2000158e
 80033bc:	200015ce 	.word	0x200015ce
 80033c0:	20002828 	.word	0x20002828
 80033c4:	200015be 	.word	0x200015be
 80033c8:	200015e0 	.word	0x200015e0
 80033cc:	200015a6 	.word	0x200015a6

080033d0 <sensorThread>:
 80033d0:	e92d 4ff0 	stmdb	sp!, {r4, r5, r6, r7, r8, r9, sl, fp, lr}
 80033d4:	4bd0      	ldr	r3, [pc, #832]	; (8003718 <sensorThread+0x348>)
 80033d6:	4ad1      	ldr	r2, [pc, #836]	; (800371c <sensorThread+0x34c>)
 80033d8:	ed2d 8b04 	vpush	{d8-d9}
 80033dc:	f04f 0800 	mov.w	r8, #0
 80033e0:	601a      	str	r2, [r3, #0]
 80033e2:	1d03      	adds	r3, r0, #4
 80033e4:	b091      	sub	sp, #68	; 0x44
 80033e6:	4606      	mov	r6, r0
 80033e8:	6083      	str	r3, [r0, #8]
 80033ea:	6043      	str	r3, [r0, #4]
 80033ec:	f8c0 800c 	str.w	r8, [r0, #12]
 80033f0:	2420      	movs	r4, #32
 80033f2:	f384 8811 	msr	BASEPRI, r4
 80033f6:	4dca      	ldr	r5, [pc, #808]	; (8003720 <sensorThread+0x350>)
 80033f8:	f8df 9350 	ldr.w	r9, [pc, #848]	; 800374c <sensorThread+0x37c>
 80033fc:	f8c5 9004 	str.w	r9, [r5, #4]
 8003400:	4628      	mov	r0, r5
 8003402:	2702      	movs	r7, #2
 8003404:	f7ff f864 	bl	80024d0 <i2c_lld_start>
 8003408:	702f      	strb	r7, [r5, #0]
 800340a:	f388 8811 	msr	BASEPRI, r8
 800340e:	f384 8811 	msr	BASEPRI, r4
 8003412:	4cc4      	ldr	r4, [pc, #784]	; (8003724 <sensorThread+0x354>)
 8003414:	4620      	mov	r0, r4
 8003416:	f8c4 9004 	str.w	r9, [r4, #4]
 800341a:	f7ff f859 	bl	80024d0 <i2c_lld_start>
 800341e:	7027      	strb	r7, [r4, #0]
 8003420:	f388 8811 	msr	BASEPRI, r8
 8003424:	2328      	movs	r3, #40	; 0x28
 8003426:	2748      	movs	r7, #72	; 0x48
 8003428:	2240      	movs	r2, #64	; 0x40
 800342a:	2076      	movs	r0, #118	; 0x76
 800342c:	21c8      	movs	r1, #200	; 0xc8
 800342e:	f8c6 4188 	str.w	r4, [r6, #392]	; 0x188
 8003432:	f8c6 417c 	str.w	r4, [r6, #380]	; 0x17c
 8003436:	f8c6 5170 	str.w	r5, [r6, #368]	; 0x170
 800343a:	f8c6 4150 	str.w	r4, [r6, #336]	; 0x150
 800343e:	f886 7185 	strb.w	r7, [r6, #389]	; 0x185
 8003442:	f886 014d 	strb.w	r0, [r6, #333]	; 0x14d
 8003446:	f8c6 1154 	str.w	r1, [r6, #340]	; 0x154
 800344a:	f8c6 318c 	str.w	r3, [r6, #396]	; 0x18c
 800344e:	f8c6 3180 	str.w	r3, [r6, #384]	; 0x180
 8003452:	f8c6 3174 	str.w	r3, [r6, #372]	; 0x174
 8003456:	f886 2179 	strb.w	r2, [r6, #377]	; 0x179
 800345a:	f886 216d 	strb.w	r2, [r6, #365]	; 0x16d
 800345e:	f506 77a6 	add.w	r7, r6, #332	; 0x14c
 8003462:	f506 75ab 	add.w	r5, r6, #342	; 0x156
 8003466:	f10d 0b3c 	add.w	fp, sp, #60	; 0x3c
 800346a:	24a1      	movs	r4, #161	; 0xa1
 800346c:	465a      	mov	r2, fp
 800346e:	2302      	movs	r3, #2
 8003470:	4638      	mov	r0, r7
 8003472:	a90e      	add	r1, sp, #56	; 0x38
 8003474:	f88d 4038 	strb.w	r4, [sp, #56]	; 0x38
 8003478:	f7fe ffa2 	bl	80023c0 <I2CSensor_transact.constprop.6>
 800347c:	3401      	adds	r4, #1
 800347e:	f89d 203c 	ldrb.w	r2, [sp, #60]	; 0x3c
 8003482:	f89d 303d 	ldrb.w	r3, [sp, #61]	; 0x3d
 8003486:	b2e4      	uxtb	r4, r4
 8003488:	eb03 2302 	add.w	r3, r3, r2, lsl #8
 800348c:	2ca6      	cmp	r4, #166	; 0xa6
 800348e:	f825 3f02 	strh.w	r3, [r5, #2]!
 8003492:	d1eb      	bne.n	800346c <sensorThread+0x9c>
 8003494:	78b3      	ldrb	r3, [r6, #2]
 8003496:	2b00      	cmp	r3, #0
 8003498:	f000 817b 	beq.w	8003792 <sensorThread+0x3c2>
 800349c:	f506 74c2 	add.w	r4, r6, #388	; 0x184
 80034a0:	f506 75b6 	add.w	r5, r6, #364	; 0x16c
 80034a4:	f8df 82a8 	ldr.w	r8, [pc, #680]	; 8003750 <sensorThread+0x380>
 80034a8:	ed9f 9a9f 	vldr	s18, [pc, #636]	; 8003728 <sensorThread+0x358>
 80034ac:	eddf 8a9f 	vldr	s17, [pc, #636]	; 800372c <sensorThread+0x35c>
 80034b0:	ed9f 8a9f 	vldr	s16, [pc, #636]	; 8003730 <sensorThread+0x360>
 80034b4:	eddf 9a9f 	vldr	s19, [pc, #636]	; 8003734 <sensorThread+0x364>
 80034b8:	940b      	str	r4, [sp, #44]	; 0x2c
 80034ba:	950a      	str	r5, [sp, #40]	; 0x28
 80034bc:	46ba      	mov	sl, r7
 80034be:	2400      	movs	r4, #0
 80034c0:	980b      	ldr	r0, [sp, #44]	; 0x2c
 80034c2:	f88d 4034 	strb.w	r4, [sp, #52]	; 0x34
 80034c6:	a90d      	add	r1, sp, #52	; 0x34
 80034c8:	aa0e      	add	r2, sp, #56	; 0x38
 80034ca:	2302      	movs	r3, #2
 80034cc:	f7fe ff78 	bl	80023c0 <I2CSensor_transact.constprop.6>
 80034d0:	b970      	cbnz	r0, 80034f0 <sensorThread+0x120>
 80034d2:	f89d 2038 	ldrb.w	r2, [sp, #56]	; 0x38
 80034d6:	f89d 3039 	ldrb.w	r3, [sp, #57]	; 0x39
 80034da:	ea43 2302 	orr.w	r3, r3, r2, lsl #8
 80034de:	b21b      	sxth	r3, r3
 80034e0:	ee07 3a90 	vmov	s15, r3
 80034e4:	eef8 7ae7 	vcvt.f32.s32	s15, s15
 80034e8:	ee67 7a89 	vmul.f32	s15, s15, s18
 80034ec:	edc6 7a06 	vstr	s15, [r6, #24]
 80034f0:	24f5      	movs	r4, #245	; 0xf5
 80034f2:	980a      	ldr	r0, [sp, #40]	; 0x28
 80034f4:	f88d 4034 	strb.w	r4, [sp, #52]	; 0x34
 80034f8:	a90d      	add	r1, sp, #52	; 0x34
 80034fa:	aa0e      	add	r2, sp, #56	; 0x38
 80034fc:	2302      	movs	r3, #2
 80034fe:	f7fe ff5f 	bl	80023c0 <I2CSensor_transact.constprop.6>
 8003502:	b9f8      	cbnz	r0, 8003544 <sensorThread+0x174>
 8003504:	f89d 2038 	ldrb.w	r2, [sp, #56]	; 0x38
 8003508:	f89d 3039 	ldrb.w	r3, [sp, #57]	; 0x39
 800350c:	eb03 2302 	add.w	r3, r3, r2, lsl #8
 8003510:	b29b      	uxth	r3, r3
 8003512:	ee07 3a10 	vmov	s14, r3
 8003516:	eeb8 7ac7 	vcvt.f32.s32	s14, s14
 800351a:	eef9 7a08 	vmov.f32	s15, #152	; 0x98
 800351e:	ee27 7a28 	vmul.f32	s14, s14, s17
 8003522:	eee7 7a08 	vfma.f32	s15, s14, s16
 8003526:	eefd 7ae7 	vcvt.s32.f32	s15, s15
 800352a:	ee17 3a90 	vmov	r3, s15
 800352e:	2b64      	cmp	r3, #100	; 0x64
 8003530:	bfa8      	it	ge
 8003532:	2364      	movge	r3, #100	; 0x64
 8003534:	ea23 73e3 	bic.w	r3, r3, r3, asr #31
 8003538:	ee06 3a90 	vmov	s13, r3
 800353c:	eef8 7ae6 	vcvt.f32.s32	s15, s13
 8003540:	edc6 7a0c 	vstr	s15, [r6, #48]	; 0x30
 8003544:	2200      	movs	r2, #0
 8003546:	4613      	mov	r3, r2
 8003548:	f10d 0133 	add.w	r1, sp, #51	; 0x33
 800354c:	2458      	movs	r4, #88	; 0x58
 800354e:	4650      	mov	r0, sl
 8003550:	f88d 4033 	strb.w	r4, [sp, #51]	; 0x33
 8003554:	f7fe ff34 	bl	80023c0 <I2CSensor_transact.constprop.6>
 8003558:	4605      	mov	r5, r0
 800355a:	206e      	movs	r0, #110	; 0x6e
 800355c:	f7ff f9d8 	bl	8002910 <chThdSleep>
 8003560:	2400      	movs	r4, #0
 8003562:	f10d 0133 	add.w	r1, sp, #51	; 0x33
 8003566:	aa0e      	add	r2, sp, #56	; 0x38
 8003568:	2303      	movs	r3, #3
 800356a:	4650      	mov	r0, sl
 800356c:	f88d 4033 	strb.w	r4, [sp, #51]	; 0x33
 8003570:	f7fe ff26 	bl	80023c0 <I2CSensor_transact.constprop.6>
 8003574:	2748      	movs	r7, #72	; 0x48
 8003576:	4622      	mov	r2, r4
 8003578:	4623      	mov	r3, r4
 800357a:	f10d 0133 	add.w	r1, sp, #51	; 0x33
 800357e:	4305      	orrs	r5, r0
 8003580:	4650      	mov	r0, sl
 8003582:	f88d 7033 	strb.w	r7, [sp, #51]	; 0x33
 8003586:	f7fe ff1b 	bl	80023c0 <I2CSensor_transact.constprop.6>
 800358a:	4305      	orrs	r5, r0
 800358c:	206e      	movs	r0, #110	; 0x6e
 800358e:	f7ff f9bf 	bl	8002910 <chThdSleep>
 8003592:	4650      	mov	r0, sl
 8003594:	f10d 0133 	add.w	r1, sp, #51	; 0x33
 8003598:	aa0d      	add	r2, sp, #52	; 0x34
 800359a:	2303      	movs	r3, #3
 800359c:	f88d 4033 	strb.w	r4, [sp, #51]	; 0x33
 80035a0:	f7fe ff0e 	bl	80023c0 <I2CSensor_transact.constprop.6>
 80035a4:	4328      	orrs	r0, r5
 80035a6:	f040 8093 	bne.w	80036d0 <sensorThread+0x300>
 80035aa:	f89d 3039 	ldrb.w	r3, [sp, #57]	; 0x39
 80035ae:	f89d 4038 	ldrb.w	r4, [sp, #56]	; 0x38
 80035b2:	f89d 003a 	ldrb.w	r0, [sp, #58]	; 0x3a
 80035b6:	f8b6 2160 	ldrh.w	r2, [r6, #352]	; 0x160
 80035ba:	f8b6 1162 	ldrh.w	r1, [r6, #354]	; 0x162
 80035be:	f8b6 715a 	ldrh.w	r7, [r6, #346]	; 0x15a
 80035c2:	f8b6 915e 	ldrh.w	r9, [r6, #350]	; 0x15e
 80035c6:	9702      	str	r7, [sp, #8]
 80035c8:	021b      	lsls	r3, r3, #8
 80035ca:	eb03 4304 	add.w	r3, r3, r4, lsl #16
 80035ce:	4403      	add	r3, r0
 80035d0:	eba3 2302 	sub.w	r3, r3, r2, lsl #8
 80035d4:	fb01 f103 	mul.w	r1, r1, r3
 80035d8:	15c9      	asrs	r1, r1, #23
 80035da:	fb01 f201 	mul.w	r2, r1, r1
 80035de:	f8b6 c158 	ldrh.w	ip, [r6, #344]	; 0x158
 80035e2:	f8b6 e15c 	ldrh.w	lr, [r6, #348]	; 0x15c
 80035e6:	f8cd c010 	str.w	ip, [sp, #16]
 80035ea:	ebc2 1002 	rsb	r0, r2, r2, lsl #4
 80035ee:	f8dd c008 	ldr.w	ip, [sp, #8]
 80035f2:	9001      	str	r0, [sp, #4]
 80035f4:	fb09 f903 	mul.w	r9, r9, r3
 80035f8:	9804      	ldr	r0, [sp, #16]
 80035fa:	f89d 5035 	ldrb.w	r5, [sp, #53]	; 0x35
 80035fe:	f89d 7034 	ldrb.w	r7, [sp, #52]	; 0x34
 8003602:	f89d 4036 	ldrb.w	r4, [sp, #54]	; 0x36
 8003606:	fb0e fe03 	mul.w	lr, lr, r3
 800360a:	ea4f 19a9 	mov.w	r9, r9, asr #6
 800360e:	eb09 494c 	add.w	r9, r9, ip, lsl #17
 8003612:	ea4f 1eee 	mov.w	lr, lr, asr #7
 8003616:	eb0e 4e00 	add.w	lr, lr, r0, lsl #16
 800361a:	f501 6cfa 	add.w	ip, r1, #2000	; 0x7d0
 800361e:	4648      	mov	r0, r9
 8003620:	ea4f 71e9 	mov.w	r1, r9, asr #31
 8003624:	e9cd 0104 	strd	r0, r1, [sp, #16]
 8003628:	022d      	lsls	r5, r5, #8
 800362a:	4670      	mov	r0, lr
 800362c:	ea4f 71ee 	mov.w	r1, lr, asr #31
 8003630:	e9cd 0102 	strd	r0, r1, [sp, #8]
 8003634:	eb05 4507 	add.w	r5, r5, r7, lsl #16
 8003638:	192f      	adds	r7, r5, r4
 800363a:	9901      	ldr	r1, [sp, #4]
 800363c:	e9dd 4502 	ldrd	r4, r5, [sp, #8]
 8003640:	eb12 0081 	adds.w	r0, r2, r1, lsl #2
 8003644:	ea4f 0242 	mov.w	r2, r2, lsl #1
 8003648:	bf48      	it	mi
 800364a:	300f      	addmi	r0, #15
 800364c:	1aa4      	subs	r4, r4, r2
 800364e:	eb65 75e2 	sbc.w	r5, r5, r2, asr #31
 8003652:	e9cd 4502 	strd	r4, r5, [sp, #8]
 8003656:	9902      	ldr	r1, [sp, #8]
 8003658:	fb07 f205 	mul.w	r2, r7, r5
 800365c:	17fd      	asrs	r5, r7, #31
 800365e:	fb01 2205 	mla	r2, r1, r5, r2
 8003662:	fba7 4501 	umull	r4, r5, r7, r1
 8003666:	4415      	add	r5, r2
 8003668:	0d62      	lsrs	r2, r4, #21
 800366a:	1104      	asrs	r4, r0, #4
 800366c:	e9dd 0104 	ldrd	r0, r1, [sp, #16]
 8003670:	1b00      	subs	r0, r0, r4
 8003672:	eb61 71e4 	sbc.w	r1, r1, r4, asr #31
 8003676:	ea42 27c5 	orr.w	r7, r2, r5, lsl #11
 800367a:	e9cd 0104 	strd	r0, r1, [sp, #16]
 800367e:	1569      	asrs	r1, r5, #21
 8003680:	9706      	str	r7, [sp, #24]
 8003682:	9107      	str	r1, [sp, #28]
 8003684:	e9dd 4506 	ldrd	r4, r5, [sp, #24]
 8003688:	e9dd 0104 	ldrd	r0, r1, [sp, #16]
 800368c:	1a24      	subs	r4, r4, r0
 800368e:	eb65 0501 	sbc.w	r5, r5, r1
 8003692:	0be1      	lsrs	r1, r4, #15
 8003694:	ea41 4245 	orr.w	r2, r1, r5, lsl #17
 8003698:	fb03 f303 	mul.w	r3, r3, r3
 800369c:	ee06 2a90 	vmov	s13, r2
 80036a0:	0fdb      	lsrs	r3, r3, #31
 80036a2:	ebc3 030c 	rsb	r3, r3, ip
 80036a6:	eeb8 7ae6 	vcvt.f32.s32	s14, s13
 80036aa:	ee06 3a90 	vmov	s13, r3
 80036ae:	eef8 7ae6 	vcvt.f32.s32	s15, s13
 80036b2:	ee27 7a29 	vmul.f32	s14, s14, s19
 80036b6:	ee67 7aa9 	vmul.f32	s15, s15, s19
 80036ba:	13ef      	asrs	r7, r5, #15
 80036bc:	9208      	str	r2, [sp, #32]
 80036be:	9709      	str	r7, [sp, #36]	; 0x24
 80036c0:	ed86 7a5a 	vstr	s14, [r6, #360]	; 0x168
 80036c4:	ed86 7a0b 	vstr	s14, [r6, #44]	; 0x2c
 80036c8:	edc6 7a59 	vstr	s15, [r6, #356]	; 0x164
 80036cc:	edc6 7a08 	vstr	s15, [r6, #32]
 80036d0:	2320      	movs	r3, #32
 80036d2:	f383 8811 	msr	BASEPRI, r3
 80036d6:	f8d8 302c 	ldr.w	r3, [r8, #44]	; 0x2c
 80036da:	4817      	ldr	r0, [pc, #92]	; (8003738 <sensorThread+0x368>)
 80036dc:	681c      	ldr	r4, [r3, #0]
 80036de:	f8d8 2030 	ldr.w	r2, [r8, #48]	; 0x30
 80036e2:	f8c8 0010 	str.w	r0, [r8, #16]
 80036e6:	4d15      	ldr	r5, [pc, #84]	; (800373c <sensorThread+0x36c>)
 80036e8:	f8c8 5008 	str.w	r5, [r8, #8]
 80036ec:	2003      	movs	r0, #3
 80036ee:	2132      	movs	r1, #50	; 0x32
 80036f0:	2396      	movs	r3, #150	; 0x96
 80036f2:	f8c8 100c 	str.w	r1, [r8, #12]
 80036f6:	f888 0000 	strb.w	r0, [r8]
 80036fa:	60e5      	str	r5, [r4, #12]
 80036fc:	6063      	str	r3, [r4, #4]
 80036fe:	6022      	str	r2, [r4, #0]
 8003700:	6825      	ldr	r5, [r4, #0]
 8003702:	4f0f      	ldr	r7, [pc, #60]	; (8003740 <sensorThread+0x370>)
 8003704:	f8d8 3028 	ldr.w	r3, [r8, #40]	; 0x28
 8003708:	69ba      	ldr	r2, [r7, #24]
 800370a:	490e      	ldr	r1, [pc, #56]	; (8003744 <sensorThread+0x374>)
 800370c:	4f0e      	ldr	r7, [pc, #56]	; (8003748 <sensorThread+0x378>)
 800370e:	f045 0501 	orr.w	r5, r5, #1
 8003712:	6025      	str	r5, [r4, #0]
 8003714:	2400      	movs	r4, #0
 8003716:	e01d      	b.n	8003754 <sensorThread+0x384>
 8003718:	20002ea4 	.word	0x20002ea4
 800371c:	2000287c 	.word	0x2000287c
 8003720:	20002e6c 	.word	0x20002e6c
 8003724:	20002e34 	.word	0x20002e34
 8003728:	3daaaaab 	.word	0x3daaaaab
 800372c:	42fa0000 	.word	0x42fa0000
 8003730:	37800000 	.word	0x37800000
 8003734:	3c23d70a 	.word	0x3c23d70a
 8003738:	08003d60 	.word	0x08003d60
 800373c:	20002d08 	.word	0x20002d08
 8003740:	20002cd4 	.word	0x20002cd4
 8003744:	40000303 	.word	0x40000303
 8003748:	2000285c 	.word	0x2000285c
 800374c:	08003d90 	.word	0x08003d90
 8003750:	20002848 	.word	0x20002848
 8003754:	251b      	movs	r5, #27
 8003756:	601c      	str	r4, [r3, #0]
 8003758:	60dd      	str	r5, [r3, #12]
 800375a:	f44f 1500 	mov.w	r5, #2097152	; 0x200000
 800375e:	6118      	str	r0, [r3, #16]
 8003760:	62dd      	str	r5, [r3, #44]	; 0x2c
 8003762:	f44f 5535 	mov.w	r5, #11584	; 0x2d40
 8003766:	631c      	str	r4, [r3, #48]	; 0x30
 8003768:	635d      	str	r5, [r3, #52]	; 0x34
 800376a:	4d0d      	ldr	r5, [pc, #52]	; (80037a0 <sensorThread+0x3d0>)
 800376c:	605d      	str	r5, [r3, #4]
 800376e:	6099      	str	r1, [r3, #8]
 8003770:	970f      	str	r7, [sp, #60]	; 0x3c
 8003772:	f8c8 2014 	str.w	r2, [r8, #20]
 8003776:	f8c2 b020 	str.w	fp, [r2, #32]
 800377a:	f7fe f839 	bl	80017f0 <chSchGoSleepS>
 800377e:	f384 8811 	msr	BASEPRI, r4
 8003782:	f44f 707a 	mov.w	r0, #1000	; 0x3e8
 8003786:	f7ff f8c3 	bl	8002910 <chThdSleep>
 800378a:	78b3      	ldrb	r3, [r6, #2]
 800378c:	2b00      	cmp	r3, #0
 800378e:	f47f ae96 	bne.w	80034be <sensorThread+0xee>
 8003792:	2000      	movs	r0, #0
 8003794:	b011      	add	sp, #68	; 0x44
 8003796:	ecbd 8b04 	vpop	{d8-d9}
 800379a:	e8bd 8ff0 	ldmia.w	sp!, {r4, r5, r6, r7, r8, r9, sl, fp, pc}
 800379e:	bf00      	nop
 80037a0:	04000100 	.word	0x04000100
 80037a4:	f3af 8000 	nop.w
 80037a8:	f3af 8000 	nop.w
 80037ac:	f3af 8000 	nop.w

080037b0 <Reset_Handler>:
 80037b0:	b672      	cpsid	i
 80037b2:	4956      	ldr	r1, [pc, #344]	; (800390c <Reset_Handler+0x15c>)
 80037b4:	f381 8809 	msr	PSP, r1
 80037b8:	4b55      	ldr	r3, [pc, #340]	; (8003910 <Reset_Handler+0x160>)
 80037ba:	4856      	ldr	r0, [pc, #344]	; (8003914 <Reset_Handler+0x164>)
 80037bc:	681a      	ldr	r2, [r3, #0]
 80037be:	f04f 4440 	mov.w	r4, #3221225472	; 0xc0000000
 80037c2:	f442 0270 	orr.w	r2, r2, #15728640	; 0xf00000
 80037c6:	601a      	str	r2, [r3, #0]
 80037c8:	6004      	str	r4, [r0, #0]
 80037ca:	2300      	movs	r3, #0
 80037cc:	eee1 3a10 	vmsr	fpscr, r3
 80037d0:	2206      	movs	r2, #6
 80037d2:	6083      	str	r3, [r0, #8]
 80037d4:	f382 8814 	msr	CONTROL, r2
 80037d8:	f3bf 8f6f 	isb	sy
 80037dc:	484e      	ldr	r0, [pc, #312]	; (8003918 <Reset_Handler+0x168>)
 80037de:	4b4f      	ldr	r3, [pc, #316]	; (800391c <Reset_Handler+0x16c>)
 80037e0:	f04f 5480 	mov.w	r4, #268435456	; 0x10000000
 80037e4:	f44f 4200 	mov.w	r2, #32768	; 0x8000
 80037e8:	6404      	str	r4, [r0, #64]	; 0x40
 80037ea:	601a      	str	r2, [r3, #0]
 80037ec:	6803      	ldr	r3, [r0, #0]
 80037ee:	f043 0301 	orr.w	r3, r3, #1
 80037f2:	6003      	str	r3, [r0, #0]
 80037f4:	6803      	ldr	r3, [r0, #0]
 80037f6:	4a48      	ldr	r2, [pc, #288]	; (8003918 <Reset_Handler+0x168>)
 80037f8:	079d      	lsls	r5, r3, #30
 80037fa:	d5fb      	bpl.n	80037f4 <Reset_Handler+0x44>
 80037fc:	6810      	ldr	r0, [r2, #0]
 80037fe:	2300      	movs	r3, #0
 8003800:	f000 00f9 	and.w	r0, r0, #249	; 0xf9
 8003804:	6010      	str	r0, [r2, #0]
 8003806:	4610      	mov	r0, r2
 8003808:	6093      	str	r3, [r2, #8]
 800380a:	6883      	ldr	r3, [r0, #8]
 800380c:	4a42      	ldr	r2, [pc, #264]	; (8003918 <Reset_Handler+0x168>)
 800380e:	f013 0f0c 	tst.w	r3, #12
 8003812:	d1fa      	bne.n	800380a <Reset_Handler+0x5a>
 8003814:	6f53      	ldr	r3, [r2, #116]	; 0x74
 8003816:	f043 0301 	orr.w	r3, r3, #1
 800381a:	6753      	str	r3, [r2, #116]	; 0x74
 800381c:	4610      	mov	r0, r2
 800381e:	6f43      	ldr	r3, [r0, #116]	; 0x74
 8003820:	4a3d      	ldr	r2, [pc, #244]	; (8003918 <Reset_Handler+0x168>)
 8003822:	079c      	lsls	r4, r3, #30
 8003824:	d5fb      	bpl.n	800381e <Reset_Handler+0x6e>
 8003826:	4b3e      	ldr	r3, [pc, #248]	; (8003920 <Reset_Handler+0x170>)
 8003828:	6053      	str	r3, [r2, #4]
 800382a:	6813      	ldr	r3, [r2, #0]
 800382c:	483b      	ldr	r0, [pc, #236]	; (800391c <Reset_Handler+0x16c>)
 800382e:	f043 7380 	orr.w	r3, r3, #16777216	; 0x1000000
 8003832:	6013      	str	r3, [r2, #0]
 8003834:	6843      	ldr	r3, [r0, #4]
 8003836:	045a      	lsls	r2, r3, #17
 8003838:	d5fc      	bpl.n	8003834 <Reset_Handler+0x84>
 800383a:	4837      	ldr	r0, [pc, #220]	; (8003918 <Reset_Handler+0x168>)
 800383c:	6803      	ldr	r3, [r0, #0]
 800383e:	4a36      	ldr	r2, [pc, #216]	; (8003918 <Reset_Handler+0x168>)
 8003840:	019b      	lsls	r3, r3, #6
 8003842:	d5fb      	bpl.n	800383c <Reset_Handler+0x8c>
 8003844:	4b37      	ldr	r3, [pc, #220]	; (8003924 <Reset_Handler+0x174>)
 8003846:	4838      	ldr	r0, [pc, #224]	; (8003928 <Reset_Handler+0x178>)
 8003848:	6090      	str	r0, [r2, #8]
 800384a:	f240 7002 	movw	r0, #1794	; 0x702
 800384e:	6018      	str	r0, [r3, #0]
 8003850:	6893      	ldr	r3, [r2, #8]
 8003852:	f043 0302 	orr.w	r3, r3, #2
 8003856:	6093      	str	r3, [r2, #8]
 8003858:	4610      	mov	r0, r2
 800385a:	6883      	ldr	r3, [r0, #8]
 800385c:	4a2e      	ldr	r2, [pc, #184]	; (8003918 <Reset_Handler+0x168>)
 800385e:	f003 030c 	and.w	r3, r3, #12
 8003862:	2b08      	cmp	r3, #8
 8003864:	d1f9      	bne.n	800385a <Reset_Handler+0xaa>
 8003866:	6c54      	ldr	r4, [r2, #68]	; 0x44
 8003868:	4b30      	ldr	r3, [pc, #192]	; (800392c <Reset_Handler+0x17c>)
 800386a:	4831      	ldr	r0, [pc, #196]	; (8003930 <Reset_Handler+0x180>)
 800386c:	f444 4480 	orr.w	r4, r4, #16384	; 0x4000
 8003870:	6454      	str	r4, [r2, #68]	; 0x44
 8003872:	6e54      	ldr	r4, [r2, #100]	; 0x64
 8003874:	4283      	cmp	r3, r0
 8003876:	f444 4480 	orr.w	r4, r4, #16384	; 0x4000
 800387a:	6654      	str	r4, [r2, #100]	; 0x64
 800387c:	d20b      	bcs.n	8003896 <Reset_Handler+0xe6>
 800387e:	43da      	mvns	r2, r3
 8003880:	4410      	add	r0, r2
 8003882:	f020 0003 	bic.w	r0, r0, #3
 8003886:	4418      	add	r0, r3
 8003888:	f04f 3255 	mov.w	r2, #1431655765	; 0x55555555
 800388c:	3b04      	subs	r3, #4
 800388e:	f843 2f04 	str.w	r2, [r3, #4]!
 8003892:	4283      	cmp	r3, r0
 8003894:	d1fb      	bne.n	800388e <Reset_Handler+0xde>
 8003896:	4b27      	ldr	r3, [pc, #156]	; (8003934 <Reset_Handler+0x184>)
 8003898:	428b      	cmp	r3, r1
 800389a:	d20c      	bcs.n	80038b6 <Reset_Handler+0x106>
 800389c:	4926      	ldr	r1, [pc, #152]	; (8003938 <Reset_Handler+0x188>)
 800389e:	1d1a      	adds	r2, r3, #4
 80038a0:	1a89      	subs	r1, r1, r2
 80038a2:	f021 0103 	bic.w	r1, r1, #3
 80038a6:	4419      	add	r1, r3
 80038a8:	f04f 3255 	mov.w	r2, #1431655765	; 0x55555555
 80038ac:	3b04      	subs	r3, #4
 80038ae:	f843 2f04 	str.w	r2, [r3, #4]!
 80038b2:	428b      	cmp	r3, r1
 80038b4:	d1fb      	bne.n	80038ae <Reset_Handler+0xfe>
 80038b6:	4921      	ldr	r1, [pc, #132]	; (800393c <Reset_Handler+0x18c>)
 80038b8:	4b21      	ldr	r3, [pc, #132]	; (8003940 <Reset_Handler+0x190>)
 80038ba:	4299      	cmp	r1, r3
 80038bc:	d20b      	bcs.n	80038d6 <Reset_Handler+0x126>
 80038be:	43c8      	mvns	r0, r1
 80038c0:	4418      	add	r0, r3
 80038c2:	f020 0003 	bic.w	r0, r0, #3
 80038c6:	4c1f      	ldr	r4, [pc, #124]	; (8003944 <Reset_Handler+0x194>)
 80038c8:	3004      	adds	r0, #4
 80038ca:	2300      	movs	r3, #0
 80038cc:	58e2      	ldr	r2, [r4, r3]
 80038ce:	50ca      	str	r2, [r1, r3]
 80038d0:	3304      	adds	r3, #4
 80038d2:	4283      	cmp	r3, r0
 80038d4:	d1fa      	bne.n	80038cc <Reset_Handler+0x11c>
 80038d6:	4b1c      	ldr	r3, [pc, #112]	; (8003948 <Reset_Handler+0x198>)
 80038d8:	4a1c      	ldr	r2, [pc, #112]	; (800394c <Reset_Handler+0x19c>)
 80038da:	4293      	cmp	r3, r2
 80038dc:	d20a      	bcs.n	80038f4 <Reset_Handler+0x144>
 80038de:	43d9      	mvns	r1, r3
 80038e0:	4411      	add	r1, r2
 80038e2:	f021 0103 	bic.w	r1, r1, #3
 80038e6:	4419      	add	r1, r3
 80038e8:	2200      	movs	r2, #0
 80038ea:	3b04      	subs	r3, #4
 80038ec:	f843 2f04 	str.w	r2, [r3, #4]!
 80038f0:	428b      	cmp	r3, r1
 80038f2:	d1fb      	bne.n	80038ec <Reset_Handler+0x13c>
 80038f4:	4c16      	ldr	r4, [pc, #88]	; (8003950 <Reset_Handler+0x1a0>)
 80038f6:	4d17      	ldr	r5, [pc, #92]	; (8003954 <Reset_Handler+0x1a4>)
 80038f8:	42ac      	cmp	r4, r5
 80038fa:	d204      	bcs.n	8003906 <Reset_Handler+0x156>
 80038fc:	f854 3b04 	ldr.w	r3, [r4], #4
 8003900:	4798      	blx	r3
 8003902:	42ac      	cmp	r4, r5
 8003904:	d3fa      	bcc.n	80038fc <Reset_Handler+0x14c>
 8003906:	f7fc fc5b 	bl	80001c0 <main>
 800390a:	bf00      	nop
 800390c:	20000800 	.word	0x20000800
 8003910:	e000ed88 	.word	0xe000ed88
 8003914:	e000ef34 	.word	0xe000ef34
 8003918:	40023800 	.word	0x40023800
 800391c:	40007000 	.word	0x40007000
 8003920:	07015410 	.word	0x07015410
 8003924:	40023c00 	.word	0x40023c00
 8003928:	38081000 	.word	0x38081000
 800392c:	20000000 	.word	0x20000000
 8003930:	20000400 	.word	0x20000400
 8003934:	20000400 	.word	0x20000400
 8003938:	20000803 	.word	0x20000803
 800393c:	20000800 	.word	0x20000800
 8003940:	2000080c 	.word	0x2000080c
 8003944:	08003da0 	.word	0x08003da0
 8003948:	2000080c 	.word	0x2000080c
 800394c:	20002ea8 	.word	0x20002ea8
 8003950:	080001c0 	.word	0x080001c0
 8003954:	080001c0 	.word	0x080001c0
 8003958:	f3af 8000 	nop.w
 800395c:	f3af 8000 	nop.w

08003960 <chThdExit>:
 8003960:	b538      	push	{r3, r4, r5, lr}
 8003962:	2220      	movs	r2, #32
 8003964:	4603      	mov	r3, r0
 8003966:	f382 8811 	msr	BASEPRI, r2
 800396a:	4a0e      	ldr	r2, [pc, #56]	; (80039a4 <chThdExit+0x44>)
 800396c:	6994      	ldr	r4, [r2, #24]
 800396e:	6a60      	ldr	r0, [r4, #36]	; 0x24
 8003970:	6223      	str	r3, [r4, #32]
 8003972:	f104 0524 	add.w	r5, r4, #36	; 0x24
 8003976:	42a8      	cmp	r0, r5
 8003978:	d006      	beq.n	8003988 <chThdExit+0x28>
 800397a:	6803      	ldr	r3, [r0, #0]
 800397c:	6263      	str	r3, [r4, #36]	; 0x24
 800397e:	f7fe f93f 	bl	8001c00 <chSchReadyI>
 8003982:	6a60      	ldr	r0, [r4, #36]	; 0x24
 8003984:	42a8      	cmp	r0, r5
 8003986:	d1f8      	bne.n	800397a <chThdExit+0x1a>
 8003988:	7f63      	ldrb	r3, [r4, #29]
 800398a:	079b      	lsls	r3, r3, #30
 800398c:	d104      	bne.n	8003998 <chThdExit+0x38>
 800398e:	6963      	ldr	r3, [r4, #20]
 8003990:	6922      	ldr	r2, [r4, #16]
 8003992:	611a      	str	r2, [r3, #16]
 8003994:	6922      	ldr	r2, [r4, #16]
 8003996:	6153      	str	r3, [r2, #20]
 8003998:	200f      	movs	r0, #15
 800399a:	e8bd 4038 	ldmia.w	sp!, {r3, r4, r5, lr}
 800399e:	f7fd bf27 	b.w	80017f0 <chSchGoSleepS>
 80039a2:	bf00      	nop
 80039a4:	20002cd4 	.word	0x20002cd4
 80039a8:	f3af 8000 	nop.w
 80039ac:	f3af 8000 	nop.w

080039b0 <chSchDoReschedule>:
 80039b0:	f7fd befe 	b.w	80017b0 <chSchDoRescheduleAhead>
 80039b4:	f3af 8000 	nop.w
 80039b8:	f3af 8000 	nop.w
 80039bc:	f3af 8000 	nop.w

080039c0 <strcpy>:
 80039c0:	ea80 0201 	eor.w	r2, r0, r1
 80039c4:	4684      	mov	ip, r0
 80039c6:	f012 0f03 	tst.w	r2, #3
 80039ca:	d14f      	bne.n	8003a6c <strcpy+0xac>
 80039cc:	f011 0f03 	tst.w	r1, #3
 80039d0:	d132      	bne.n	8003a38 <strcpy+0x78>
 80039d2:	f84d 4d04 	str.w	r4, [sp, #-4]!
 80039d6:	f011 0f04 	tst.w	r1, #4
 80039da:	f851 3b04 	ldr.w	r3, [r1], #4
 80039de:	d00b      	beq.n	80039f8 <strcpy+0x38>
 80039e0:	f1a3 3201 	sub.w	r2, r3, #16843009	; 0x1010101
 80039e4:	439a      	bics	r2, r3
 80039e6:	f012 3f80 	tst.w	r2, #2155905152	; 0x80808080
 80039ea:	bf04      	itt	eq
 80039ec:	f84c 3b04 	streq.w	r3, [ip], #4
 80039f0:	f851 3b04 	ldreq.w	r3, [r1], #4
 80039f4:	d116      	bne.n	8003a24 <strcpy+0x64>
 80039f6:	bf00      	nop
 80039f8:	f851 4b04 	ldr.w	r4, [r1], #4
 80039fc:	f1a3 3201 	sub.w	r2, r3, #16843009	; 0x1010101
 8003a00:	439a      	bics	r2, r3
 8003a02:	f012 3f80 	tst.w	r2, #2155905152	; 0x80808080
 8003a06:	f1a4 3201 	sub.w	r2, r4, #16843009	; 0x1010101
 8003a0a:	d10b      	bne.n	8003a24 <strcpy+0x64>
 8003a0c:	f84c 3b04 	str.w	r3, [ip], #4
 8003a10:	43a2      	bics	r2, r4
 8003a12:	f012 3f80 	tst.w	r2, #2155905152	; 0x80808080
 8003a16:	bf04      	itt	eq
 8003a18:	f851 3b04 	ldreq.w	r3, [r1], #4
 8003a1c:	f84c 4b04 	streq.w	r4, [ip], #4
 8003a20:	d0ea      	beq.n	80039f8 <strcpy+0x38>
 8003a22:	4623      	mov	r3, r4
 8003a24:	f80c 3b01 	strb.w	r3, [ip], #1
 8003a28:	f013 0fff 	tst.w	r3, #255	; 0xff
 8003a2c:	ea4f 2333 	mov.w	r3, r3, ror #8
 8003a30:	d1f8      	bne.n	8003a24 <strcpy+0x64>
 8003a32:	f85d 4b04 	ldr.w	r4, [sp], #4
 8003a36:	4770      	bx	lr
 8003a38:	f011 0f01 	tst.w	r1, #1
 8003a3c:	d006      	beq.n	8003a4c <strcpy+0x8c>
 8003a3e:	f811 2b01 	ldrb.w	r2, [r1], #1
 8003a42:	f80c 2b01 	strb.w	r2, [ip], #1
 8003a46:	2a00      	cmp	r2, #0
 8003a48:	bf08      	it	eq
 8003a4a:	4770      	bxeq	lr
 8003a4c:	f011 0f02 	tst.w	r1, #2
 8003a50:	d0bf      	beq.n	80039d2 <strcpy+0x12>
 8003a52:	f831 2b02 	ldrh.w	r2, [r1], #2
 8003a56:	f012 0fff 	tst.w	r2, #255	; 0xff
 8003a5a:	bf16      	itet	ne
 8003a5c:	f82c 2b02 	strhne.w	r2, [ip], #2
 8003a60:	f88c 2000 	strbeq.w	r2, [ip]
 8003a64:	f412 4f7f 	tstne.w	r2, #65280	; 0xff00
 8003a68:	d1b3      	bne.n	80039d2 <strcpy+0x12>
 8003a6a:	4770      	bx	lr
 8003a6c:	f811 2b01 	ldrb.w	r2, [r1], #1
 8003a70:	f80c 2b01 	strb.w	r2, [ip], #1
 8003a74:	2a00      	cmp	r2, #0
 8003a76:	d1f9      	bne.n	8003a6c <strcpy+0xac>
 8003a78:	4770      	bx	lr
 8003a7a:	bf00      	nop
 8003a7c:	0000      	movs	r0, r0
	...

08003a80 <strlen>:
 8003a80:	f020 0103 	bic.w	r1, r0, #3
 8003a84:	f010 0003 	ands.w	r0, r0, #3
 8003a88:	f1c0 0000 	rsb	r0, r0, #0
 8003a8c:	f851 3b04 	ldr.w	r3, [r1], #4
 8003a90:	f100 0c04 	add.w	ip, r0, #4
 8003a94:	ea4f 0ccc 	mov.w	ip, ip, lsl #3
 8003a98:	f06f 0200 	mvn.w	r2, #0
 8003a9c:	bf1c      	itt	ne
 8003a9e:	fa22 f20c 	lsrne.w	r2, r2, ip
 8003aa2:	4313      	orrne	r3, r2
 8003aa4:	f04f 0c01 	mov.w	ip, #1
 8003aa8:	ea4c 2c0c 	orr.w	ip, ip, ip, lsl #8
 8003aac:	ea4c 4c0c 	orr.w	ip, ip, ip, lsl #16
 8003ab0:	eba3 020c 	sub.w	r2, r3, ip
 8003ab4:	ea22 0203 	bic.w	r2, r2, r3
 8003ab8:	ea12 12cc 	ands.w	r2, r2, ip, lsl #7
 8003abc:	bf04      	itt	eq
 8003abe:	f851 3b04 	ldreq.w	r3, [r1], #4
 8003ac2:	3004      	addeq	r0, #4
 8003ac4:	d0f4      	beq.n	8003ab0 <strlen+0x30>
 8003ac6:	f013 0fff 	tst.w	r3, #255	; 0xff
 8003aca:	bf1f      	itttt	ne
 8003acc:	3001      	addne	r0, #1
 8003ace:	f413 4f7f 	tstne.w	r3, #65280	; 0xff00
 8003ad2:	3001      	addne	r0, #1
 8003ad4:	f413 0f7f 	tstne.w	r3, #16711680	; 0xff0000
 8003ad8:	bf18      	it	ne
 8003ada:	3001      	addne	r0, #1
 8003adc:	4770      	bx	lr
 8003ade:	bf00      	nop

08003ae0 <strncmp>:
 8003ae0:	b430      	push	{r4, r5}
 8003ae2:	2a00      	cmp	r2, #0
 8003ae4:	d04a      	beq.n	8003b7c <strncmp+0x9c>
 8003ae6:	ea40 0301 	orr.w	r3, r0, r1
 8003aea:	f013 0303 	ands.w	r3, r3, #3
 8003aee:	d12d      	bne.n	8003b4c <strncmp+0x6c>
 8003af0:	2a03      	cmp	r2, #3
 8003af2:	d92b      	bls.n	8003b4c <strncmp+0x6c>
 8003af4:	6804      	ldr	r4, [r0, #0]
 8003af6:	680d      	ldr	r5, [r1, #0]
 8003af8:	42ac      	cmp	r4, r5
 8003afa:	d127      	bne.n	8003b4c <strncmp+0x6c>
 8003afc:	3a04      	subs	r2, #4
 8003afe:	d03d      	beq.n	8003b7c <strncmp+0x9c>
 8003b00:	f1a4 3501 	sub.w	r5, r4, #16843009	; 0x1010101
 8003b04:	ea25 0404 	bic.w	r4, r5, r4
 8003b08:	f014 3f80 	tst.w	r4, #2155905152	; 0x80808080
 8003b0c:	d13c      	bne.n	8003b88 <strncmp+0xa8>
 8003b0e:	460c      	mov	r4, r1
 8003b10:	4603      	mov	r3, r0
 8003b12:	e00e      	b.n	8003b32 <strncmp+0x52>
 8003b14:	685b      	ldr	r3, [r3, #4]
 8003b16:	6864      	ldr	r4, [r4, #4]
 8003b18:	f1a3 3501 	sub.w	r5, r3, #16843009	; 0x1010101
 8003b1c:	42a3      	cmp	r3, r4
 8003b1e:	ea25 0503 	bic.w	r5, r5, r3
 8003b22:	d113      	bne.n	8003b4c <strncmp+0x6c>
 8003b24:	3a04      	subs	r2, #4
 8003b26:	d029      	beq.n	8003b7c <strncmp+0x9c>
 8003b28:	f015 3f80 	tst.w	r5, #2155905152	; 0x80808080
 8003b2c:	d129      	bne.n	8003b82 <strncmp+0xa2>
 8003b2e:	4603      	mov	r3, r0
 8003b30:	460c      	mov	r4, r1
 8003b32:	2a03      	cmp	r2, #3
 8003b34:	f100 0004 	add.w	r0, r0, #4
 8003b38:	f101 0104 	add.w	r1, r1, #4
 8003b3c:	d8ea      	bhi.n	8003b14 <strncmp+0x34>
 8003b3e:	1e55      	subs	r5, r2, #1
 8003b40:	b92a      	cbnz	r2, 8003b4e <strncmp+0x6e>
 8003b42:	7918      	ldrb	r0, [r3, #4]
 8003b44:	7922      	ldrb	r2, [r4, #4]
 8003b46:	1a80      	subs	r0, r0, r2
 8003b48:	bc30      	pop	{r4, r5}
 8003b4a:	4770      	bx	lr
 8003b4c:	1e55      	subs	r5, r2, #1
 8003b4e:	7803      	ldrb	r3, [r0, #0]
 8003b50:	780a      	ldrb	r2, [r1, #0]
 8003b52:	4293      	cmp	r3, r2
 8003b54:	d11a      	bne.n	8003b8c <strncmp+0xac>
 8003b56:	b1dd      	cbz	r5, 8003b90 <strncmp+0xb0>
 8003b58:	b1b3      	cbz	r3, 8003b88 <strncmp+0xa8>
 8003b5a:	1c6c      	adds	r4, r5, #1
 8003b5c:	440c      	add	r4, r1
 8003b5e:	1c8b      	adds	r3, r1, #2
 8003b60:	4601      	mov	r1, r0
 8003b62:	e004      	b.n	8003b6e <strncmp+0x8e>
 8003b64:	42a3      	cmp	r3, r4
 8003b66:	d00c      	beq.n	8003b82 <strncmp+0xa2>
 8003b68:	3301      	adds	r3, #1
 8003b6a:	2800      	cmp	r0, #0
 8003b6c:	d0ec      	beq.n	8003b48 <strncmp+0x68>
 8003b6e:	f811 0f01 	ldrb.w	r0, [r1, #1]!
 8003b72:	f813 2c01 	ldrb.w	r2, [r3, #-1]
 8003b76:	4290      	cmp	r0, r2
 8003b78:	d0f4      	beq.n	8003b64 <strncmp+0x84>
 8003b7a:	e7e4      	b.n	8003b46 <strncmp+0x66>
 8003b7c:	4610      	mov	r0, r2
 8003b7e:	bc30      	pop	{r4, r5}
 8003b80:	4770      	bx	lr
 8003b82:	2000      	movs	r0, #0
 8003b84:	bc30      	pop	{r4, r5}
 8003b86:	4770      	bx	lr
 8003b88:	4618      	mov	r0, r3
 8003b8a:	e7dd      	b.n	8003b48 <strncmp+0x68>
 8003b8c:	4618      	mov	r0, r3
 8003b8e:	e7da      	b.n	8003b46 <strncmp+0x66>
 8003b90:	4628      	mov	r0, r5
 8003b92:	e7d9      	b.n	8003b48 <strncmp+0x68>
	...
 8003ba0:	20414d44 	.word	0x20414d44
 8003ba4:	6c696166 	.word	0x6c696166
 8003ba8:	00657275 	.word	0x00657275
 8003bac:	656c6469 	.word	0x656c6469
	...
 8003bc0:	52415453 	.word	0x52415453
 8003bc4:	00000a54 	.word	0x00000a54
 8003bc8:	454d4954 	.word	0x454d4954
 8003bcc:	2c73253a 	.word	0x2c73253a
 8003bd0:	54414c20 	.word	0x54414c20
 8003bd4:	2c73253a 	.word	0x2c73253a
 8003bd8:	4e4f4c20 	.word	0x4e4f4c20
 8003bdc:	73253a47 	.word	0x73253a47
 8003be0:	4c41202c 	.word	0x4c41202c
 8003be4:	73253a54 	.word	0x73253a54
 8003be8:	4153202c 	.word	0x4153202c
 8003bec:	73253a54 	.word	0x73253a54
 8003bf0:	0000000a 	.word	0x0000000a
 8003bf4:	504f4f4c 	.word	0x504f4f4c
 8003bf8:	0000000a 	.word	0x0000000a
 8003bfc:	00000000 	.word	0x00000000

08003c00 <ch_debug.4806>:
 8003c00:	6e69616d 18001600 08440404 1814100c     main......D.....
 8003c10:	1e1d1c00 00000000 00000000 00000000     ................

08003c20 <_stm32_dma_streams.4866>:
 8003c20:	40026010 40026008 000b0000 40026028     .`.@.`.@....(`.@
 8003c30:	40026008 000c0106 40026040 40026008     .`.@....@`.@.`.@
 8003c40:	000d0210 40026058 40026008 000e0316     ....X`.@.`.@....
 8003c50:	40026070 4002600c 000f0400 40026088     p`.@.`.@.....`.@
 8003c60:	4002600c 00100506 400260a0 4002600c     .`.@.....`.@.`.@
 8003c70:	00110610 400260b8 4002600c 002f0716     .....`.@.`.@../.
 8003c80:	40026410 40026408 00380800 40026428     .d.@.d.@..8.(d.@
 8003c90:	40026408 00390906 40026440 40026408     .d.@..9.@d.@.d.@
 8003ca0:	003a0a10 40026458 40026408 003b0b16     ..:.Xd.@.d.@..;.
 8003cb0:	40026470 4002640c 003c0c00 40026488     pd.@.d.@..<..d.@
 8003cc0:	4002640c 00440d06 400264a0 4002640c     .d.@..D..d.@.d.@
 8003cd0:	00450e10 400264b8 4002640c 00460f16     ..E..d.@.d.@..F.

08003ce0 <default_config.12052.4559>:
 8003ce0:	0001c200 40000000 00000000 00000000     .......@........

08003cf0 <vmt.10284>:
 8003cf0:	08002b71 08002a61 08002ad1 080029c1     q+..a*...*...)..
 8003d00:	08002ac1 080029b1 08002b61 08002a51     .*...)..a+..Q*..
 8003d10:	6c756e28 0000296c 00005047 004d4c41     (null)..GP..ALM.
 8003d20:	00414747 00000000 00000000 00000000     GGA.............

08003d30 <pow10.13100.4561>:
 8003d30:	0000000a 00000064 000003e8 00002710     ....d........'..
 8003d40:	000186a0 000f4240 00989680 05f5e100     ....@B..........
 8003d50:	3b9aca00 00000000 00000000 00000000     ...;............

08003d60 <analogGrp.15245.4553>:
 8003d60:	00030000 00000000 00000000 00000000     ................
 8003d70:	40000000 0000001b 00000003 00200000     ...@.......... .
 8003d80:	00000000 00002d40 00000000 00000000     ....@-..........

08003d90 <i2cfg.15249.4556>:
 8003d90:	00000001 00061a80 00000002              ............
