Archive member included because of file (symbol)

/usr/bin/../lib/gcc/arm-none-eabi/4.8.4/armv7e-m/fpu/libgcc.a(_arm_addsubdf3.o)
                              /tmp/cc7nikyl.ltrans1.ltrans.o (__aeabi_dsub)
/usr/bin/../lib/gcc/arm-none-eabi/4.8.4/armv7e-m/fpu/libgcc.a(_arm_muldivdf3.o)
                              /tmp/cc7nikyl.ltrans1.ltrans.o (__aeabi_dmul)
/usr/bin/../lib/gcc/arm-none-eabi/4.8.4/armv7e-m/fpu/libgcc.a(_arm_fixdfsi.o)
                              /tmp/cc7nikyl.ltrans1.ltrans.o (__aeabi_d2iz)
/usr/bin/../lib/gcc/arm-none-eabi/4.8.4/armv7e-m/fpu/libgcc.a(_arm_truncdfsf2.o)
                              /tmp/cc7nikyl.ltrans1.ltrans.o (__aeabi_d2f)
/usr/bin/../lib/gcc/arm-none-eabi/4.8.4/../../../../arm-none-eabi/lib/armv7e-m/fpu/libc.a(lib_a-strcpy.o)
                              /tmp/cc7nikyl.ltrans0.ltrans.o (strcpy)
/usr/bin/../lib/gcc/arm-none-eabi/4.8.4/../../../../arm-none-eabi/lib/armv7e-m/fpu/libc.a(lib_a-strlen.o)
                              /tmp/cc7nikyl.ltrans3.ltrans.o (strlen)
/usr/bin/../lib/gcc/arm-none-eabi/4.8.4/../../../../arm-none-eabi/lib/armv7e-m/fpu/libc.a(lib_a-strncmp.o)
                              /tmp/cc7nikyl.ltrans3.ltrans.o (strncmp)

Discarded input sections

 .data          0x0000000000000000        0x0 build/obj/chcoreasm_v7m.o
 .bss           0x0000000000000000        0x0 build/obj/chcoreasm_v7m.o
 .text          0x0000000000000000        0x0 build/obj/crt0.o (symbol from plugin)
 .text          0x0000000000000000        0x0 /tmp/cc7nikyl.ltrans0.ltrans.o
 .data          0x0000000000000000        0x0 /tmp/cc7nikyl.ltrans0.ltrans.o
 .bss           0x0000000000000000        0x0 /tmp/cc7nikyl.ltrans0.ltrans.o
 .text          0x0000000000000000        0x0 /tmp/cc7nikyl.ltrans1.ltrans.o
 .data          0x0000000000000000        0x0 /tmp/cc7nikyl.ltrans1.ltrans.o
 .bss           0x0000000000000000        0x0 /tmp/cc7nikyl.ltrans1.ltrans.o
 .text          0x0000000000000000        0x0 /tmp/cc7nikyl.ltrans2.ltrans.o
 .data          0x0000000000000000        0x0 /tmp/cc7nikyl.ltrans2.ltrans.o
 .bss           0x0000000000000000        0x0 /tmp/cc7nikyl.ltrans2.ltrans.o
 .text          0x0000000000000000        0x0 /tmp/cc7nikyl.ltrans3.ltrans.o
 .data          0x0000000000000000        0x0 /tmp/cc7nikyl.ltrans3.ltrans.o
 .bss           0x0000000000000000        0x0 /tmp/cc7nikyl.ltrans3.ltrans.o
 .text          0x0000000000000000        0x0 /tmp/cc7nikyl.ltrans4.ltrans.o
 .data          0x0000000000000000        0x0 /tmp/cc7nikyl.ltrans4.ltrans.o
 .bss           0x0000000000000000        0x0 /tmp/cc7nikyl.ltrans4.ltrans.o
 .data          0x0000000000000000        0x0 /usr/bin/../lib/gcc/arm-none-eabi/4.8.4/armv7e-m/fpu/libgcc.a(_arm_addsubdf3.o)
 .bss           0x0000000000000000        0x0 /usr/bin/../lib/gcc/arm-none-eabi/4.8.4/armv7e-m/fpu/libgcc.a(_arm_addsubdf3.o)
 .data          0x0000000000000000        0x0 /usr/bin/../lib/gcc/arm-none-eabi/4.8.4/armv7e-m/fpu/libgcc.a(_arm_muldivdf3.o)
 .bss           0x0000000000000000        0x0 /usr/bin/../lib/gcc/arm-none-eabi/4.8.4/armv7e-m/fpu/libgcc.a(_arm_muldivdf3.o)
 .data          0x0000000000000000        0x0 /usr/bin/../lib/gcc/arm-none-eabi/4.8.4/armv7e-m/fpu/libgcc.a(_arm_fixdfsi.o)
 .bss           0x0000000000000000        0x0 /usr/bin/../lib/gcc/arm-none-eabi/4.8.4/armv7e-m/fpu/libgcc.a(_arm_fixdfsi.o)
 .data          0x0000000000000000        0x0 /usr/bin/../lib/gcc/arm-none-eabi/4.8.4/armv7e-m/fpu/libgcc.a(_arm_truncdfsf2.o)
 .bss           0x0000000000000000        0x0 /usr/bin/../lib/gcc/arm-none-eabi/4.8.4/armv7e-m/fpu/libgcc.a(_arm_truncdfsf2.o)
 .text          0x0000000000000000        0x0 /usr/bin/../lib/gcc/arm-none-eabi/4.8.4/../../../../arm-none-eabi/lib/armv7e-m/fpu/libc.a(lib_a-strcpy.o)
 .data          0x0000000000000000        0x0 /usr/bin/../lib/gcc/arm-none-eabi/4.8.4/../../../../arm-none-eabi/lib/armv7e-m/fpu/libc.a(lib_a-strcpy.o)
 .bss           0x0000000000000000        0x0 /usr/bin/../lib/gcc/arm-none-eabi/4.8.4/../../../../arm-none-eabi/lib/armv7e-m/fpu/libc.a(lib_a-strcpy.o)
 .text          0x0000000000000000        0x0 /usr/bin/../lib/gcc/arm-none-eabi/4.8.4/../../../../arm-none-eabi/lib/armv7e-m/fpu/libc.a(lib_a-strlen.o)
 .data          0x0000000000000000        0x0 /usr/bin/../lib/gcc/arm-none-eabi/4.8.4/../../../../arm-none-eabi/lib/armv7e-m/fpu/libc.a(lib_a-strlen.o)
 .bss           0x0000000000000000        0x0 /usr/bin/../lib/gcc/arm-none-eabi/4.8.4/../../../../arm-none-eabi/lib/armv7e-m/fpu/libc.a(lib_a-strlen.o)
 .text          0x0000000000000000        0x0 /usr/bin/../lib/gcc/arm-none-eabi/4.8.4/../../../../arm-none-eabi/lib/armv7e-m/fpu/libc.a(lib_a-strncmp.o)
 .data          0x0000000000000000        0x0 /usr/bin/../lib/gcc/arm-none-eabi/4.8.4/../../../../arm-none-eabi/lib/armv7e-m/fpu/libc.a(lib_a-strncmp.o)
 .bss           0x0000000000000000        0x0 /usr/bin/../lib/gcc/arm-none-eabi/4.8.4/../../../../arm-none-eabi/lib/armv7e-m/fpu/libc.a(lib_a-strncmp.o)
 .text          0x0000000000000000        0x0 build/obj/vectors.o (symbol from plugin)
 .text          0x0000000000000000        0x0 build/obj/chcore.o (symbol from plugin)
 .text          0x0000000000000000        0x0 build/obj/chcore_v7m.o (symbol from plugin)
 .text          0x0000000000000000        0x0 build/obj/chsys.o (symbol from plugin)
 .text          0x0000000000000000        0x0 build/obj/chdebug.o (symbol from plugin)
 .text          0x0000000000000000        0x0 build/obj/chtm.o (symbol from plugin)
 .text          0x0000000000000000        0x0 build/obj/chstats.o (symbol from plugin)
 .text          0x0000000000000000        0x0 build/obj/chschd.o (symbol from plugin)
 .text          0x0000000000000000        0x0 build/obj/chvt.o (symbol from plugin)
 .text          0x0000000000000000        0x0 build/obj/chthreads.o (symbol from plugin)
 .text          0x0000000000000000        0x0 build/obj/chdynamic.o (symbol from plugin)
 .text          0x0000000000000000        0x0 build/obj/chregistry.o (symbol from plugin)
 .text          0x0000000000000000        0x0 build/obj/chsem.o (symbol from plugin)
 .text          0x0000000000000000        0x0 build/obj/chmtx.o (symbol from plugin)
 .text          0x0000000000000000        0x0 build/obj/chcond.o (symbol from plugin)
 .text          0x0000000000000000        0x0 build/obj/chevents.o (symbol from plugin)
 .text          0x0000000000000000        0x0 build/obj/chmsg.o (symbol from plugin)
 .text          0x0000000000000000        0x0 build/obj/chmboxes.o (symbol from plugin)
 .text          0x0000000000000000        0x0 build/obj/chqueues.o (symbol from plugin)
 .text          0x0000000000000000        0x0 build/obj/chmemcore.o (symbol from plugin)
 .text          0x0000000000000000        0x0 build/obj/chheap.o (symbol from plugin)
 .text          0x0000000000000000        0x0 build/obj/chmempools.o (symbol from plugin)
 .text          0x0000000000000000        0x0 build/obj/test.o (symbol from plugin)
 .text          0x0000000000000000        0x0 build/obj/testthd.o (symbol from plugin)
 .text          0x0000000000000000        0x0 build/obj/testsem.o (symbol from plugin)
 .text          0x0000000000000000        0x0 build/obj/testmtx.o (symbol from plugin)
 .text          0x0000000000000000        0x0 build/obj/testmsg.o (symbol from plugin)
 .text          0x0000000000000000        0x0 build/obj/testmbox.o (symbol from plugin)
 .text          0x0000000000000000        0x0 build/obj/testevt.o (symbol from plugin)
 .text          0x0000000000000000        0x0 build/obj/testheap.o (symbol from plugin)
 .text          0x0000000000000000        0x0 build/obj/testpools.o (symbol from plugin)
 .text          0x0000000000000000        0x0 build/obj/testdyn.o (symbol from plugin)
 .text          0x0000000000000000        0x0 build/obj/testqueues.o (symbol from plugin)
 .text          0x0000000000000000        0x0 build/obj/testbmk.o (symbol from plugin)
 .text          0x0000000000000000        0x0 build/obj/hal.o (symbol from plugin)
 .text          0x0000000000000000        0x0 build/obj/hal_queues.o (symbol from plugin)
 .text          0x0000000000000000        0x0 build/obj/hal_mmcsd.o (symbol from plugin)
 .text          0x0000000000000000        0x0 build/obj/adc.o (symbol from plugin)
 .text          0x0000000000000000        0x0 build/obj/can.o (symbol from plugin)
 .text          0x0000000000000000        0x0 build/obj/dac.o (symbol from plugin)
 .text          0x0000000000000000        0x0 build/obj/ext.o (symbol from plugin)
 .text          0x0000000000000000        0x0 build/obj/gpt.o (symbol from plugin)
 .text          0x0000000000000000        0x0 build/obj/i2c.o (symbol from plugin)
 .text          0x0000000000000000        0x0 build/obj/i2s.o (symbol from plugin)
 .text          0x0000000000000000        0x0 build/obj/icu.o (symbol from plugin)
 .text          0x0000000000000000        0x0 build/obj/mac.o (symbol from plugin)
 .text          0x0000000000000000        0x0 build/obj/mmc_spi.o (symbol from plugin)
 .text          0x0000000000000000        0x0 build/obj/pal.o (symbol from plugin)
 .text          0x0000000000000000        0x0 build/obj/pwm.o (symbol from plugin)
 .text          0x0000000000000000        0x0 build/obj/rtc.o (symbol from plugin)
 .text          0x0000000000000000        0x0 build/obj/sdc.o (symbol from plugin)
 .text          0x0000000000000000        0x0 build/obj/serial.o (symbol from plugin)
 .text          0x0000000000000000        0x0 build/obj/serial_usb.o (symbol from plugin)
 .text          0x0000000000000000        0x0 build/obj/spi.o (symbol from plugin)
 .text          0x0000000000000000        0x0 build/obj/st.o (symbol from plugin)
 .text          0x0000000000000000        0x0 build/obj/uart.o (symbol from plugin)
 .text          0x0000000000000000        0x0 build/obj/usb.o (symbol from plugin)
 .text          0x0000000000000000        0x0 build/obj/osal.o (symbol from plugin)
 .text          0x0000000000000000        0x0 build/obj/nvic.o (symbol from plugin)
 .text          0x0000000000000000        0x0 build/obj/stm32_dma.o (symbol from plugin)
 .text          0x0000000000000000        0x0 build/obj/hal_lld.o (symbol from plugin)
 .text          0x0000000000000000        0x0 build/obj/adc_lld.o (symbol from plugin)
 .text          0x0000000000000000        0x0 build/obj/ext_lld_isr.o (symbol from plugin)
 .text          0x0000000000000000        0x0 build/obj/can_lld.o (symbol from plugin)
 .text          0x0000000000000000        0x0 build/obj/ext_lld.o (symbol from plugin)
 .text          0x0000000000000000        0x0 build/obj/mac_lld.o (symbol from plugin)
 .text          0x0000000000000000        0x0 build/obj/sdc_lld.o (symbol from plugin)
 .text          0x0000000000000000        0x0 build/obj/dac_lld.o (symbol from plugin)
 .text          0x0000000000000000        0x0 build/obj/pal_lld.o (symbol from plugin)
 .text          0x0000000000000000        0x0 build/obj/i2c_lld.o (symbol from plugin)
 .text          0x0000000000000000        0x0 build/obj/usb_lld.o (symbol from plugin)
 .text          0x0000000000000000        0x0 build/obj/rtc_lld.o (symbol from plugin)
 .text          0x0000000000000000        0x0 build/obj/i2s_lld.o (symbol from plugin)
 .text          0x0000000000000000        0x0 build/obj/spi_lld.o (symbol from plugin)
 .text          0x0000000000000000        0x0 build/obj/gpt_lld.o (symbol from plugin)
 .text          0x0000000000000000        0x0 build/obj/icu_lld.o (symbol from plugin)
 .text          0x0000000000000000        0x0 build/obj/pwm_lld.o (symbol from plugin)
 .text          0x0000000000000000        0x0 build/obj/st_lld.o (symbol from plugin)
 .text          0x0000000000000000        0x0 build/obj/serial_lld.o (symbol from plugin)
 .text          0x0000000000000000        0x0 build/obj/uart_lld.o (symbol from plugin)
 .text          0x0000000000000000        0x0 build/obj/board.o (symbol from plugin)
 .text          0x0000000000000000        0x0 build/obj/fatfs_diskio.o (symbol from plugin)
 .text          0x0000000000000000        0x0 build/obj/fatfs_syscall.o (symbol from plugin)
 .text          0x0000000000000000        0x0 build/obj/ff.o (symbol from plugin)
 .text          0x0000000000000000        0x0 build/obj/unicode.o (symbol from plugin)
 .text          0x0000000000000000        0x0 build/obj/chprintf.o (symbol from plugin)
 .text          0x0000000000000000        0x0 build/obj/memstreams.o (symbol from plugin)
 .text          0x0000000000000000        0x0 build/obj/i2c_sensor.o (symbol from plugin)
 .text          0x0000000000000000        0x0 build/obj/bmp280.o (symbol from plugin)
 .text          0x0000000000000000        0x0 build/obj/si70x0.o (symbol from plugin)
 .text          0x0000000000000000        0x0 build/obj/ms5607.o (symbol from plugin)
 .text          0x0000000000000000        0x0 build/obj/hih6030.o (symbol from plugin)
 .text          0x0000000000000000        0x0 build/obj/lsm303.o (symbol from plugin)
 .text          0x0000000000000000        0x0 build/obj/rfm23bp.o (symbol from plugin)
 .text          0x0000000000000000        0x0 build/obj/rtd.o (symbol from plugin)
 .text          0x0000000000000000        0x0 build/obj/tmp275.o (symbol from plugin)
 .text          0x0000000000000000        0x0 build/obj/mpxm2102.o (symbol from plugin)
 .text          0x0000000000000000        0x0 build/obj/datasample.o (symbol from plugin)
 .text          0x0000000000000000        0x0 build/obj/sensor_thread.o (symbol from plugin)
 .text          0x0000000000000000        0x0 build/obj/ustr.o (symbol from plugin)
 .text          0x0000000000000000        0x0 build/obj/umath.o (symbol from plugin)
 .text          0x0000000000000000        0x0 build/obj/gps.o (symbol from plugin)
 .text          0x0000000000000000        0x0 build/obj/sdmmcsimple.o (symbol from plugin)
 .text          0x0000000000000000        0x0 build/obj/datalogger.o (symbol from plugin)
 .text          0x0000000000000000        0x0 build/obj/main.o (symbol from plugin)

Memory Configuration

Name             Origin             Length             Attributes
flash            0x0000000008000000 0x0000000000040000
ram              0x0000000020000000 0x0000000000010000
*default*        0x0000000000000000 0xffffffffffffffff

Linker script and memory map

LOAD build/obj/chcoreasm_v7m.o
LOAD build/obj/crt0.o
LOAD /tmp/cc7nikyl.ltrans0.ltrans.o
LOAD /tmp/cc7nikyl.ltrans1.ltrans.o
LOAD /tmp/cc7nikyl.ltrans2.ltrans.o
LOAD /tmp/cc7nikyl.ltrans3.ltrans.o
LOAD /tmp/cc7nikyl.ltrans4.ltrans.o
LOAD /usr/bin/../lib/gcc/arm-none-eabi/4.8.4/armv7e-m/fpu/libgcc.a
LOAD /usr/bin/../lib/gcc/arm-none-eabi/4.8.4/../../../../arm-none-eabi/lib/armv7e-m/fpu/libc.a
LOAD build/obj/vectors.o
LOAD build/obj/chcore.o
LOAD build/obj/chcore_v7m.o
LOAD build/obj/chsys.o
LOAD build/obj/chdebug.o
LOAD build/obj/chtm.o
LOAD build/obj/chstats.o
LOAD build/obj/chschd.o
LOAD build/obj/chvt.o
LOAD build/obj/chthreads.o
LOAD build/obj/chdynamic.o
LOAD build/obj/chregistry.o
LOAD build/obj/chsem.o
LOAD build/obj/chmtx.o
LOAD build/obj/chcond.o
LOAD build/obj/chevents.o
LOAD build/obj/chmsg.o
LOAD build/obj/chmboxes.o
LOAD build/obj/chqueues.o
LOAD build/obj/chmemcore.o
LOAD build/obj/chheap.o
LOAD build/obj/chmempools.o
LOAD build/obj/test.o
LOAD build/obj/testthd.o
LOAD build/obj/testsem.o
LOAD build/obj/testmtx.o
LOAD build/obj/testmsg.o
LOAD build/obj/testmbox.o
LOAD build/obj/testevt.o
LOAD build/obj/testheap.o
LOAD build/obj/testpools.o
LOAD build/obj/testdyn.o
LOAD build/obj/testqueues.o
LOAD build/obj/testbmk.o
LOAD build/obj/hal.o
LOAD build/obj/hal_queues.o
LOAD build/obj/hal_mmcsd.o
LOAD build/obj/adc.o
LOAD build/obj/can.o
LOAD build/obj/dac.o
LOAD build/obj/ext.o
LOAD build/obj/gpt.o
LOAD build/obj/i2c.o
LOAD build/obj/i2s.o
LOAD build/obj/icu.o
LOAD build/obj/mac.o
LOAD build/obj/mmc_spi.o
LOAD build/obj/pal.o
LOAD build/obj/pwm.o
LOAD build/obj/rtc.o
LOAD build/obj/sdc.o
LOAD build/obj/serial.o
LOAD build/obj/serial_usb.o
LOAD build/obj/spi.o
LOAD build/obj/st.o
LOAD build/obj/uart.o
LOAD build/obj/usb.o
LOAD build/obj/osal.o
LOAD build/obj/nvic.o
LOAD build/obj/stm32_dma.o
LOAD build/obj/hal_lld.o
LOAD build/obj/adc_lld.o
LOAD build/obj/ext_lld_isr.o
LOAD build/obj/can_lld.o
LOAD build/obj/ext_lld.o
LOAD build/obj/mac_lld.o
LOAD build/obj/sdc_lld.o
LOAD build/obj/dac_lld.o
LOAD build/obj/pal_lld.o
LOAD build/obj/i2c_lld.o
LOAD build/obj/usb_lld.o
LOAD build/obj/rtc_lld.o
LOAD build/obj/i2s_lld.o
LOAD build/obj/spi_lld.o
LOAD build/obj/gpt_lld.o
LOAD build/obj/icu_lld.o
LOAD build/obj/pwm_lld.o
LOAD build/obj/st_lld.o
LOAD build/obj/serial_lld.o
LOAD build/obj/uart_lld.o
LOAD build/obj/board.o
LOAD build/obj/fatfs_diskio.o
LOAD build/obj/fatfs_syscall.o
LOAD build/obj/ff.o
LOAD build/obj/unicode.o
LOAD build/obj/chprintf.o
LOAD build/obj/memstreams.o
LOAD build/obj/i2c_sensor.o
LOAD build/obj/bmp280.o
LOAD build/obj/si70x0.o
LOAD build/obj/ms5607.o
LOAD build/obj/hih6030.o
LOAD build/obj/lsm303.o
LOAD build/obj/rfm23bp.o
LOAD build/obj/rtd.o
LOAD build/obj/tmp275.o
LOAD build/obj/mpxm2102.o
LOAD build/obj/datasample.o
LOAD build/obj/sensor_thread.o
LOAD build/obj/ustr.o
LOAD build/obj/umath.o
LOAD build/obj/gps.o
LOAD build/obj/sdmmcsimple.o
LOAD build/obj/datalogger.o
LOAD build/obj/main.o
                0x0000000020000000                __ram_start__ = ORIGIN (ram)
                0x0000000000010000                __ram_size__ = 0x10000
                0x0000000020010000                __ram_end__ = (__ram_start__ + __ram_size__)
                0x0000000000000000                . = 0x0
                0x0000000000000000                _text = .

startup         0x0000000008000000      0x1c0
 *(vectors)
 vectors        0x0000000008000000      0x1c0 /tmp/cc7nikyl.ltrans4.ltrans.o
                0x0000000008000000                _vectors

constructors    0x00000000080001c0        0x0
                0x00000000080001c0                PROVIDE (__init_array_start, .)
 *(SORT(.init_array.*))
 *(.init_array)
                0x00000000080001c0                PROVIDE (__init_array_end, .)

destructors     0x00000000080001c0        0x0
                0x00000000080001c0                PROVIDE (__fini_array_start, .)
 *(.fini_array)
 *(SORT(.fini_array.*))
                0x00000000080001c0                PROVIDE (__fini_array_end, .)

.text           0x00000000080001c0     0x440c
 *(.text.startup.*)
 .text.startup.main
                0x00000000080001c0      0x820 /tmp/cc7nikyl.ltrans0.ltrans.o
                0x00000000080001c0                main
 *(.text)
 .text          0x00000000080009e0       0x2e build/obj/chcoreasm_v7m.o
                0x00000000080009e0                _port_switch
                0x00000000080009f8                _port_thread_start
                0x0000000008000a06                _port_switch_from_isr
                0x0000000008000a0a                _port_exit_from_isr
 *fill*         0x0000000008000a0e        0x2 
 .text          0x0000000008000a10      0x370 /usr/bin/../lib/gcc/arm-none-eabi/4.8.4/armv7e-m/fpu/libgcc.a(_arm_addsubdf3.o)
                0x0000000008000a10                __aeabi_drsub
                0x0000000008000a18                __aeabi_dsub
                0x0000000008000a18                __subdf3
                0x0000000008000a1c                __adddf3
                0x0000000008000a1c                __aeabi_dadd
                0x0000000008000c94                __aeabi_ui2d
                0x0000000008000c94                __floatunsidf
                0x0000000008000cb4                __floatsidf
                0x0000000008000cb4                __aeabi_i2d
                0x0000000008000cd8                __extendsfdf2
                0x0000000008000cd8                __aeabi_f2d
                0x0000000008000d14                __aeabi_ul2d
                0x0000000008000d14                __floatundidf
                0x0000000008000d24                __floatdidf
                0x0000000008000d24                __aeabi_l2d
 .text          0x0000000008000d80      0x424 /usr/bin/../lib/gcc/arm-none-eabi/4.8.4/armv7e-m/fpu/libgcc.a(_arm_muldivdf3.o)
                0x0000000008000d80                __aeabi_dmul
                0x0000000008000d80                __muldf3
                0x0000000008000fd4                __aeabi_ddiv
                0x0000000008000fd4                __divdf3
 *fill*         0x00000000080011a4        0xc 
 .text          0x00000000080011b0       0x50 /usr/bin/../lib/gcc/arm-none-eabi/4.8.4/armv7e-m/fpu/libgcc.a(_arm_fixdfsi.o)
                0x00000000080011b0                __fixdfsi
                0x00000000080011b0                __aeabi_d2iz
 .text          0x0000000008001200       0xa0 /usr/bin/../lib/gcc/arm-none-eabi/4.8.4/armv7e-m/fpu/libgcc.a(_arm_truncdfsf2.o)
                0x0000000008001200                __aeabi_d2f
                0x0000000008001200                __truncdfsf2
 *(.text.*)
 .text.serve_interrupt.12020.4582
                0x00000000080012a0      0x1a0 /tmp/cc7nikyl.ltrans0.ltrans.o
 .text.Vector15C
                0x0000000008001440       0x20 /tmp/cc7nikyl.ltrans0.ltrans.o
                0x0000000008001440                Vector15C
 .text.VectorD8
                0x0000000008001460       0x20 /tmp/cc7nikyl.ltrans0.ltrans.o
                0x0000000008001460                VectorD8
 .text.I2CSensor_transact
                0x0000000008001480      0x140 /tmp/cc7nikyl.ltrans0.ltrans.o
                0x0000000008001480                I2CSensor_transact
 .text.I2CSensor_transact_buf
                0x00000000080015c0       0x20 /tmp/cc7nikyl.ltrans0.ltrans.o
                0x00000000080015c0                I2CSensor_transact_buf
 .text.si70x0_init.constprop.10
                0x00000000080015e0       0x90 /tmp/cc7nikyl.ltrans0.ltrans.o
                0x00000000080015e0                si70x0_init.constprop.10
 .text.i2c_lld_serve_tx_end_irq.11398
                0x0000000008001670       0x50 /tmp/cc7nikyl.ltrans1.ltrans.o
                0x0000000008001670                i2c_lld_serve_tx_end_irq.11398
 .text.uart_lld_serve_rx_end_irq.12164
                0x00000000080016c0       0x90 /tmp/cc7nikyl.ltrans1.ltrans.o
                0x00000000080016c0                uart_lld_serve_rx_end_irq.12164
 .text.uart_lld_serve_tx_end_irq.12160
                0x0000000008001750       0x60 /tmp/cc7nikyl.ltrans1.ltrans.o
                0x0000000008001750                uart_lld_serve_tx_end_irq.12160
 .text.gpsRxErr.15789
                0x00000000080017b0       0x10 /tmp/cc7nikyl.ltrans1.ltrans.o
                0x00000000080017b0                gpsRxErr.15789
 .text.gpsRxEnd.15786
                0x00000000080017c0       0x10 /tmp/cc7nikyl.ltrans1.ltrans.o
                0x00000000080017c0                gpsRxEnd.15786
 .text.gpsTxC.15783
                0x00000000080017d0       0x10 /tmp/cc7nikyl.ltrans1.ltrans.o
                0x00000000080017d0                gpsTxC.15783
 .text.gpsTxbufEnd.15780
                0x00000000080017e0       0x10 /tmp/cc7nikyl.ltrans1.ltrans.o
                0x00000000080017e0                gpsTxbufEnd.15780
 .text.long_to_string_with_divisor.13048.4512
                0x00000000080017f0       0x50 /tmp/cc7nikyl.ltrans1.ltrans.o
 .text.chvprintf.constprop.40.4391
                0x0000000008001840      0x390 /tmp/cc7nikyl.ltrans1.ltrans.o
 .text.notify6.12010
                0x0000000008001bd0       0x10 /tmp/cc7nikyl.ltrans1.ltrans.o
                0x0000000008001bd0                notify6.12010
 .text.notify2.12013
                0x0000000008001be0       0x10 /tmp/cc7nikyl.ltrans1.ltrans.o
                0x0000000008001be0                notify2.12013
 .text.VectorB0
                0x0000000008001bf0       0x90 /tmp/cc7nikyl.ltrans1.ltrans.o
                0x0000000008001bf0                VectorB0
 .text.VectorD4
                0x0000000008001c80       0x70 /tmp/cc7nikyl.ltrans1.ltrans.o
                0x0000000008001c80                VectorD4
 .text.chSchWakeupS.constprop.38.4414
                0x0000000008001cf0       0x60 /tmp/cc7nikyl.ltrans1.ltrans.o
 .text.i2c_lld_serve_rx_end_irq.11402
                0x0000000008001d50       0x70 /tmp/cc7nikyl.ltrans1.ltrans.o
                0x0000000008001d50                i2c_lld_serve_rx_end_irq.11402
 .text.gpsRxChar.15810
                0x0000000008001dc0       0x90 /tmp/cc7nikyl.ltrans1.ltrans.o
                0x0000000008001dc0                gpsRxChar.15810
 .text.Vector164
                0x0000000008001e50       0x30 /tmp/cc7nikyl.ltrans1.ltrans.o
                0x0000000008001e50                Vector164
 .text.VectorC0
                0x0000000008001e80       0x30 /tmp/cc7nikyl.ltrans1.ltrans.o
                0x0000000008001e80                VectorC0
 .text.Vector160
                0x0000000008001eb0       0x20 /tmp/cc7nikyl.ltrans1.ltrans.o
                0x0000000008001eb0                Vector160
 .text.VectorBC
                0x0000000008001ed0       0x20 /tmp/cc7nikyl.ltrans1.ltrans.o
                0x0000000008001ed0                VectorBC
 .text.chSchGoSleepTimeoutS
                0x0000000008001ef0       0xe0 /tmp/cc7nikyl.ltrans1.ltrans.o
                0x0000000008001ef0                chSchGoSleepTimeoutS
 .text.chThdEnqueueTimeoutS
                0x0000000008001fd0       0x30 /tmp/cc7nikyl.ltrans1.ltrans.o
                0x0000000008001fd0                chThdEnqueueTimeoutS
 .text.chprintf.15796.constprop.1
                0x0000000008002000       0x20 /tmp/cc7nikyl.ltrans1.ltrans.o
                0x0000000008002000                chprintf.15796.constprop.1
 .text.chprintf.15417.constprop.5
                0x0000000008002020       0x20 /tmp/cc7nikyl.ltrans1.ltrans.o
                0x0000000008002020                chprintf.15417.constprop.5
 .text.chprintf.13297.constprop.13
                0x0000000008002040       0x20 /tmp/cc7nikyl.ltrans1.ltrans.o
                0x0000000008002040                chprintf.13297.constprop.13
 .text.I2CSensor_init
                0x0000000008002060       0x60 /tmp/cc7nikyl.ltrans1.ltrans.o
                0x0000000008002060                I2CSensor_init
 .text.chprintf.17017.constprop.39
                0x00000000080020c0       0x20 /tmp/cc7nikyl.ltrans1.ltrans.o
                0x00000000080020c0                chprintf.17017.constprop.39
 .text.chThdCreateStatic
                0x00000000080020e0       0x80 /tmp/cc7nikyl.ltrans1.ltrans.o
                0x00000000080020e0                chThdCreateStatic
 .text.chMtxUnlock
                0x0000000008002160       0x60 /tmp/cc7nikyl.ltrans1.ltrans.o
                0x0000000008002160                chMtxUnlock
 .text.chTMStartMeasurementX.constprop.32
                0x00000000080021c0       0x10 /tmp/cc7nikyl.ltrans1.ltrans.o
                0x00000000080021c0                chTMStartMeasurementX.constprop.32
 .text.sdObjectInit.constprop.27
                0x00000000080021d0       0x70 /tmp/cc7nikyl.ltrans1.ltrans.o
                0x00000000080021d0                sdObjectInit.constprop.27
 .text.uStrCpy.constprop.4
                0x0000000008002240       0x40 /tmp/cc7nikyl.ltrans1.ltrans.o
                0x0000000008002240                uStrCpy.constprop.4
 .text.uStrInsertChar.constprop.3
                0x0000000008002280       0x40 /tmp/cc7nikyl.ltrans1.ltrans.o
                0x0000000008002280                uStrInsertChar.constprop.3
 .text.uStrPrependChar
                0x00000000080022c0       0x30 /tmp/cc7nikyl.ltrans1.ltrans.o
                0x00000000080022c0                uStrPrependChar
 .text.boardInit
                0x00000000080022f0       0xf0 /tmp/cc7nikyl.ltrans1.ltrans.o
                0x00000000080022f0                boardInit
 .text.usart_stop.12171
                0x00000000080023e0       0x50 /tmp/cc7nikyl.ltrans1.ltrans.o
                0x00000000080023e0                usart_stop.12171
 .text.adc_lld_stop_conversion.4261
                0x0000000008002430       0x40 /tmp/cc7nikyl.ltrans2.ltrans.o
 .text.chCoreAlloc
                0x0000000008002470       0x40 /tmp/cc7nikyl.ltrans2.ltrans.o
                0x0000000008002470                chCoreAlloc
 .text.wakeup.4718
                0x00000000080024b0       0x70 /tmp/cc7nikyl.ltrans2.ltrans.o
                0x00000000080024b0                wakeup.4718
 .text._idle_thread.4338
                0x0000000008002520       0x20 /tmp/cc7nikyl.ltrans2.ltrans.o
                0x0000000008002520                _idle_thread.4338
 .text.SVC_Handler
                0x0000000008002540       0x20 /tmp/cc7nikyl.ltrans2.ltrans.o
                0x0000000008002540                SVC_Handler
 .text._pal_lld_setgroupmode
                0x0000000008002560       0xd0 /tmp/cc7nikyl.ltrans2.ltrans.o
                0x0000000008002560                _pal_lld_setgroupmode
 .text.dmaStreamRelease
                0x0000000008002630       0x70 /tmp/cc7nikyl.ltrans2.ltrans.o
                0x0000000008002630                dmaStreamRelease
 .text.dmaStreamAllocate
                0x00000000080026a0       0xc0 /tmp/cc7nikyl.ltrans2.ltrans.o
                0x00000000080026a0                dmaStreamAllocate
 .text.chSchDoRescheduleAhead
                0x0000000008002760       0x40 /tmp/cc7nikyl.ltrans2.ltrans.o
                0x0000000008002760                chSchDoRescheduleAhead
 .text.chSchRescheduleS
                0x00000000080027a0       0x20 /tmp/cc7nikyl.ltrans2.ltrans.o
                0x00000000080027a0                chSchRescheduleS
 .text.chSchGoSleepS
                0x00000000080027c0       0x30 /tmp/cc7nikyl.ltrans2.ltrans.o
                0x00000000080027c0                chSchGoSleepS
 .text._port_irq_epilogue
                0x00000000080027f0       0x70 /tmp/cc7nikyl.ltrans2.ltrans.o
                0x00000000080027f0                _port_irq_epilogue
 .text.Vector158
                0x0000000008002860       0x30 /tmp/cc7nikyl.ltrans2.ltrans.o
                0x0000000008002860                Vector158
 .text.Vector154
                0x0000000008002890       0x30 /tmp/cc7nikyl.ltrans2.ltrans.o
                0x0000000008002890                Vector154
 .text.Vector150
                0x00000000080028c0       0x30 /tmp/cc7nikyl.ltrans2.ltrans.o
                0x00000000080028c0                Vector150
 .text.Vector130
                0x00000000080028f0       0x30 /tmp/cc7nikyl.ltrans2.ltrans.o
                0x00000000080028f0                Vector130
 .text.Vector12C
                0x0000000008002920       0x30 /tmp/cc7nikyl.ltrans2.ltrans.o
                0x0000000008002920                Vector12C
 .text.Vector128
                0x0000000008002950       0x30 /tmp/cc7nikyl.ltrans2.ltrans.o
                0x0000000008002950                Vector128
 .text.Vector124
                0x0000000008002980       0x30 /tmp/cc7nikyl.ltrans2.ltrans.o
                0x0000000008002980                Vector124
 .text.Vector120
                0x00000000080029b0       0x30 /tmp/cc7nikyl.ltrans2.ltrans.o
                0x00000000080029b0                Vector120
 .text.VectorFC
                0x00000000080029e0       0x30 /tmp/cc7nikyl.ltrans2.ltrans.o
                0x00000000080029e0                VectorFC
 .text.Vector84
                0x0000000008002a10       0x30 /tmp/cc7nikyl.ltrans2.ltrans.o
                0x0000000008002a10                Vector84
 .text.Vector80
                0x0000000008002a40       0x30 /tmp/cc7nikyl.ltrans2.ltrans.o
                0x0000000008002a40                Vector80
 .text.Vector7C
                0x0000000008002a70       0x30 /tmp/cc7nikyl.ltrans2.ltrans.o
                0x0000000008002a70                Vector7C
 .text.Vector78
                0x0000000008002aa0       0x30 /tmp/cc7nikyl.ltrans2.ltrans.o
                0x0000000008002aa0                Vector78
 .text.Vector74
                0x0000000008002ad0       0x30 /tmp/cc7nikyl.ltrans2.ltrans.o
                0x0000000008002ad0                Vector74
 .text.Vector70
                0x0000000008002b00       0x30 /tmp/cc7nikyl.ltrans2.ltrans.o
                0x0000000008002b00                Vector70
 .text.Vector6C
                0x0000000008002b30       0x30 /tmp/cc7nikyl.ltrans2.ltrans.o
                0x0000000008002b30                Vector6C
 .text.chSchReadyI
                0x0000000008002b60       0x30 /tmp/cc7nikyl.ltrans2.ltrans.o
                0x0000000008002b60                chSchReadyI
 .text.chEvtBroadcastFlagsI
                0x0000000008002b90       0x60 /tmp/cc7nikyl.ltrans2.ltrans.o
                0x0000000008002b90                chEvtBroadcastFlagsI
 .text.chMtxLockS
                0x0000000008002bf0       0xd0 /tmp/cc7nikyl.ltrans2.ltrans.o
                0x0000000008002bf0                chMtxLockS
 .text.chThdResumeI
                0x0000000008002cc0       0x20 /tmp/cc7nikyl.ltrans2.ltrans.o
                0x0000000008002cc0                chThdResumeI
 .text.i2c_lld_serve_error_interrupt.11412
                0x0000000008002ce0       0xb0 /tmp/cc7nikyl.ltrans2.ltrans.o
                0x0000000008002ce0                i2c_lld_serve_error_interrupt.11412
 .text.i2c_lld_serve_event_interrupt.11409
                0x0000000008002d90      0x100 /tmp/cc7nikyl.ltrans2.ltrans.o
                0x0000000008002d90                i2c_lld_serve_event_interrupt.11409
 .text.Vector88
                0x0000000008002e90       0x70 /tmp/cc7nikyl.ltrans2.ltrans.o
                0x0000000008002e90                Vector88
 .text.adc_lld_serve_rx_interrupt.11091
                0x0000000008002f00       0xd0 /tmp/cc7nikyl.ltrans2.ltrans.o
                0x0000000008002f00                adc_lld_serve_rx_interrupt.11091
 .text.chTMStopMeasurementX
                0x0000000008002fd0       0x50 /tmp/cc7nikyl.ltrans2.ltrans.o
                0x0000000008002fd0                chTMStopMeasurementX
 .text._unhandled_exception.4397
                0x0000000008003020       0x10 /tmp/cc7nikyl.ltrans2.ltrans.o
                0x0000000008003020                Vector58
                0x0000000008003020                VectorE8
                0x0000000008003020                Vector9C
                0x0000000008003020                VectorAC
                0x0000000008003020                DebugMon_Handler
                0x0000000008003020                Vector1A0
                0x0000000008003020                Vector5C
                0x0000000008003020                Vector11C
                0x0000000008003020                HardFault_Handler
                0x0000000008003020                Vector1B8
                0x0000000008003020                Vector19C
                0x0000000008003020                Vector8C
                0x0000000008003020                SysTick_Handler
                0x0000000008003020                VectorDC
                0x0000000008003020                PendSV_Handler
                0x0000000008003020                Vector168
                0x0000000008003020                NMI_Handler
                0x0000000008003020                Vector110
                0x0000000008003020                VectorC8
                0x0000000008003020                Vector94
                0x0000000008003020                VectorA8
                0x0000000008003020                VectorB4
                0x0000000008003020                Vector1B0
                0x0000000008003020                UsageFault_Handler
                0x0000000008003020                VectorEC
                0x0000000008003020                Vector40
                0x0000000008003020                VectorF8
                0x0000000008003020                Vector108
                0x0000000008003020                Vector190
                0x0000000008003020                Vector148
                0x0000000008003020                Vector188
                0x0000000008003020                Vector198
                0x0000000008003020                Vector118
                0x0000000008003020                Vector64
                0x0000000008003020                VectorCC
                0x0000000008003020                Vector54
                0x0000000008003020                Vector98
                0x0000000008003020                Vector138
                0x0000000008003020                Vector24
                0x0000000008003020                Vector1AC
                0x0000000008003020                Vector178
                0x0000000008003020                Vector1A4
                0x0000000008003020                VectorD0
                0x0000000008003020                Vector1B4
                0x0000000008003020                Vector140
                0x0000000008003020                VectorE4
                0x0000000008003020                Vector134
                0x0000000008003020                VectorF0
                0x0000000008003020                Vector13C
                0x0000000008003020                Vector100
                0x0000000008003020                VectorE0
                0x0000000008003020                VectorF4
                0x0000000008003020                MemManage_Handler
                0x0000000008003020                VectorA0
                0x0000000008003020                VectorC4
                0x0000000008003020                Vector180
                0x0000000008003020                Vector90
                0x0000000008003020                Vector114
                0x0000000008003020                Vector60
                0x0000000008003020                Vector1C
                0x0000000008003020                Vector1BC
                0x0000000008003020                Vector17C
                0x0000000008003020                Vector48
                0x0000000008003020                Vector1A8
                0x0000000008003020                Vector16C
                0x0000000008003020                Vector4C
                0x0000000008003020                Vector144
                0x0000000008003020                Vector68
                0x0000000008003020                Vector170
                0x0000000008003020                Vector104
                0x0000000008003020                Vector184
                0x0000000008003020                Vector10C
                0x0000000008003020                Vector14C
                0x0000000008003020                BusFault_Handler
                0x0000000008003020                Vector50
                0x0000000008003020                Vector194
                0x0000000008003020                Vector44
                0x0000000008003020                Vector28
                0x0000000008003020                VectorB8
                0x0000000008003020                Vector34
                0x0000000008003020                VectorA4
                0x0000000008003020                Vector20
                0x0000000008003020                Vector18C
                0x0000000008003020                Vector174
 .text.gpsThread
                0x0000000008003030      0x3f0 /tmp/cc7nikyl.ltrans3.ltrans.o
                0x0000000008003030                gpsThread
 .text.chIQGetTimeout.4395
                0x0000000008003420       0x50 /tmp/cc7nikyl.ltrans3.ltrans.o
 .text.gett.10196
                0x0000000008003470       0x10 /tmp/cc7nikyl.ltrans3.ltrans.o
                0x0000000008003470                gett.10196
 .text.get.10200
                0x0000000008003480       0x10 /tmp/cc7nikyl.ltrans3.ltrans.o
                0x0000000008003480                get.10200
 .text.chIQReadTimeout.4410
                0x0000000008003490       0x80 /tmp/cc7nikyl.ltrans3.ltrans.o
 .text.readt.10173
                0x0000000008003510       0x10 /tmp/cc7nikyl.ltrans3.ltrans.o
                0x0000000008003510                readt.10173
 .text.read.10180
                0x0000000008003520       0x10 /tmp/cc7nikyl.ltrans3.ltrans.o
                0x0000000008003520                read.10180
 .text.chOQPutTimeout.4425
                0x0000000008003530       0x50 /tmp/cc7nikyl.ltrans3.ltrans.o
 .text.putt.10203
                0x0000000008003580       0x10 /tmp/cc7nikyl.ltrans3.ltrans.o
                0x0000000008003580                putt.10203
 .text.put.10208
                0x0000000008003590       0x10 /tmp/cc7nikyl.ltrans3.ltrans.o
                0x0000000008003590                put.10208
 .text.chOQWriteTimeout.4444
                0x00000000080035a0       0x80 /tmp/cc7nikyl.ltrans3.ltrans.o
 .text.writet.10185
                0x0000000008003620       0x10 /tmp/cc7nikyl.ltrans3.ltrans.o
                0x0000000008003620                writet.10185
 .text.write.10191
                0x0000000008003630       0x10 /tmp/cc7nikyl.ltrans3.ltrans.o
                0x0000000008003630                write.10191
 .text.sd_lld_start
                0x0000000008003640       0xd0 /tmp/cc7nikyl.ltrans3.ltrans.o
                0x0000000008003640                sd_lld_start
 .text.i2c_lld_start
                0x0000000008003710      0x200 /tmp/cc7nikyl.ltrans3.ltrans.o
                0x0000000008003710                i2c_lld_start
 .text.chThdSleep
                0x0000000008003910       0x20 /tmp/cc7nikyl.ltrans3.ltrans.o
                0x0000000008003910                chThdSleep
 .text.chThdSleepUntil
                0x0000000008003930       0x20 /tmp/cc7nikyl.ltrans3.ltrans.o
                0x0000000008003930                chThdSleepUntil
 .text.sensorThread
                0x0000000008003950      0x5a0 /tmp/cc7nikyl.ltrans4.ltrans.o
                0x0000000008003950                sensorThread
 .text.Reset_Handler
                0x0000000008003ef0      0x1c0 /tmp/cc7nikyl.ltrans4.ltrans.o
                0x0000000008003ef0                Reset_Handler
 .text.chThdExit
                0x00000000080040b0       0x50 /tmp/cc7nikyl.ltrans4.ltrans.o
                0x00000000080040b0                chThdExit
 .text.chSchDoReschedule
                0x0000000008004100       0x10 /tmp/cc7nikyl.ltrans4.ltrans.o
                0x0000000008004100                chSchDoReschedule
 .text.strcpy   0x0000000008004110       0xbc /usr/bin/../lib/gcc/arm-none-eabi/4.8.4/../../../../arm-none-eabi/lib/armv7e-m/fpu/libc.a(lib_a-strcpy.o)
                0x0000000008004110                strcpy
 *fill*         0x00000000080041cc        0x4 
 .text.strlen   0x00000000080041d0       0x60 /usr/bin/../lib/gcc/arm-none-eabi/4.8.4/../../../../arm-none-eabi/lib/armv7e-m/fpu/libc.a(lib_a-strlen.o)
                0x00000000080041d0                strlen
 .text.strncmp  0x0000000008004230       0xb4 /usr/bin/../lib/gcc/arm-none-eabi/4.8.4/../../../../arm-none-eabi/lib/armv7e-m/fpu/libc.a(lib_a-strncmp.o)
                0x0000000008004230                strncmp
 *(.rodata)
 *fill*         0x00000000080042e4        0xc 
 .rodata        0x00000000080042f0        0xc /tmp/cc7nikyl.ltrans0.ltrans.o
 *fill*         0x00000000080042fc        0x4 
 .rodata        0x0000000008004300       0x18 /tmp/cc7nikyl.ltrans4.ltrans.o
 *(.rodata.*)
 *fill*         0x0000000008004318        0x8 
 .rodata.str1.4
                0x0000000008004320       0x7d /tmp/cc7nikyl.ltrans0.ltrans.o
                                         0x84 (size before relaxing)
 *fill*         0x000000000800439d        0x3 
 .rodata.ch_debug
                0x00000000080043a0       0x18 /tmp/cc7nikyl.ltrans0.ltrans.o
 *fill*         0x00000000080043b8        0x8 
 .rodata._stm32_dma_streams
                0x00000000080043c0       0xc0 /tmp/cc7nikyl.ltrans0.ltrans.o
 .rodata.pow10.13099.4659
                0x0000000008004480       0x24 /tmp/cc7nikyl.ltrans1.ltrans.o
 *fill*         0x00000000080044a4        0xc 
 .rodata.str1.4
                0x00000000080044b0       0x37 /tmp/cc7nikyl.ltrans1.ltrans.o
                                         0x38 (size before relaxing)
 *fill*         0x00000000080044e7        0x9 
 .rodata.str1.4
                0x00000000080044f0        0x5 /tmp/cc7nikyl.ltrans2.ltrans.o
                                          0x8 (size before relaxing)
 *fill*         0x00000000080044f5        0xb 
 .rodata.default_config.12051.4563
                0x0000000008004500        0xc /tmp/cc7nikyl.ltrans3.ltrans.o
 *fill*         0x000000000800450c        0x4 
 .rodata.vmt.10284
                0x0000000008004510       0x20 /tmp/cc7nikyl.ltrans3.ltrans.o
                0x0000000008004510                vmt.10284
 .rodata.str1.4
                0x0000000008004530        0xc /tmp/cc7nikyl.ltrans3.ltrans.o
                                         0x18 (size before relaxing)
 *fill*         0x000000000800453c        0x4 
 .rodata.analogGrp.15486.4647
                0x0000000008004540       0x28 /tmp/cc7nikyl.ltrans4.ltrans.o
 *fill*         0x0000000008004568        0x8 
 .rodata.str1.4
                0x0000000008004570       0x44 /tmp/cc7nikyl.ltrans4.ltrans.o
 *fill*         0x00000000080045b4        0xc 
 .rodata.i2cfg.15491.4651
                0x00000000080045c0        0xc /tmp/cc7nikyl.ltrans4.ltrans.o
 *(.glue_7t)
 .glue_7t       0x0000000000000000        0x0 linker stubs
 *(.glue_7)
 .glue_7        0x0000000000000000        0x0 linker stubs
 *(.gcc*)

.vfp11_veneer   0x00000000080045cc        0x0
 .vfp11_veneer  0x0000000000000000        0x0 linker stubs

.v4_bx          0x00000000080045cc        0x0
 .v4_bx         0x0000000000000000        0x0 linker stubs

.iplt           0x00000000080045cc        0x0
 .iplt          0x0000000000000000        0x0 build/obj/chcoreasm_v7m.o

.rel.dyn        0x00000000080045cc        0x0
 .rel.iplt      0x0000000000000000        0x0 build/obj/chcoreasm_v7m.o

.ARM.extab
 *(.ARM.extab* .gnu.linkonce.armextab.*)

.ARM.exidx      0x00000000080045cc        0x0
                0x00000000080045cc                PROVIDE (__exidx_start, .)
 *(.ARM.exidx* .gnu.linkonce.armexidx.*)
                0x00000000080045cc                PROVIDE (__exidx_end, .)

.eh_frame_hdr
 *(.eh_frame_hdr)

.eh_frame
 *(.eh_frame)

.textalign      0x00000000080045cc        0x4
                0x00000000080045d0                . = ALIGN (0x8)
 *fill*         0x00000000080045cc        0x4 
                0x00000000080045d0                . = ALIGN (0x4)
                0x00000000080045d0                _etext = .
                0x00000000080045d0                _textdata = _etext

.stacks         0x0000000020000000      0x800
                0x0000000020000000                . = ALIGN (0x8)
                0x0000000020000000                __main_stack_base__ = .
                0x0000000020000400                . = (. + __main_stack_size__)
 *fill*         0x0000000020000000      0x400 
                0x0000000020000400                . = ALIGN (0x8)
                0x0000000020000400                __main_stack_end__ = .
                0x0000000020000400                __process_stack_base__ = .
                0x0000000020000400                __main_thread_stack_base__ = .
                0x0000000020000800                . = (. + __process_stack_size__)
 *fill*         0x0000000020000400      0x400 
                0x0000000020000800                . = ALIGN (0x8)
                0x0000000020000800                __process_stack_end__ = .
                0x0000000020000800                __main_thread_stack_end__ = .

.data           0x0000000020000800       0x2c load address 0x00000000080045d0
                0x0000000020000800                . = ALIGN (0x4)
                0x0000000020000800                PROVIDE (_data, .)
 *(.data)
 *(.data.*)
 .data.serGpsCfg.15882.4813
                0x0000000020000800       0x20 /tmp/cc7nikyl.ltrans0.ltrans.o
 .data.serCfg.17081.4811
                0x0000000020000820        0xc /tmp/cc7nikyl.ltrans0.ltrans.o
 *(.ramtext)
                0x000000002000082c                . = ALIGN (0x4)
                0x000000002000082c                PROVIDE (_edata, .)

.igot.plt       0x000000002000082c        0x0 load address 0x00000000080045fc
 .igot.plt      0x0000000000000000        0x0 build/obj/chcoreasm_v7m.o

.bss            0x000000002000082c     0x2674
                0x000000002000082c                . = ALIGN (0x4)
                0x000000002000082c                PROVIDE (_bss_start, .)
 *(.bss)
 *(.bss.*)
 .bss.dma_streams_mask.10838
                0x000000002000082c        0x4 /tmp/cc7nikyl.ltrans0.ltrans.o
                0x000000002000082c                dma_streams_mask.10838
 .bss.dummytx.11757.4807
                0x0000000020000830        0x2 /tmp/cc7nikyl.ltrans0.ltrans.o
 *fill*         0x0000000020000832        0x2 
 .bss.mainthread.6320.4386.4814
                0x0000000020000834       0x44 /tmp/cc7nikyl.ltrans0.ltrans.o
 .bss.GPS.15883
                0x0000000020000878      0x140 /tmp/cc7nikyl.ltrans0.ltrans.o
                0x0000000020000878                GPS.15883
 .bss.SD2       0x00000000200009b8      0x458 /tmp/cc7nikyl.ltrans0.ltrans.o
                0x00000000200009b8                SD2
 .bss.default_heap.6947.4920
                0x0000000020000e10       0x20 /tmp/cc7nikyl.ltrans0.ltrans.o
 .bss.SPID3.4815
                0x0000000020000e30       0x30 /tmp/cc7nikyl.ltrans0.ltrans.o
 .bss.waSensor.17084.4833
                0x0000000020000e60     0x1150 /tmp/cc7nikyl.ltrans0.ltrans.o
 .bss.dma_isr_redir.10833
                0x0000000020001fb0       0x80 /tmp/cc7nikyl.ltrans0.ltrans.o
                0x0000000020001fb0                dma_isr_redir.10833
 .bss.UARTD1    0x0000000020002030       0x1c /tmp/cc7nikyl.ltrans0.ltrans.o
                0x0000000020002030                UARTD1
 .bss.sensCount.13794.4809
                0x000000002000204c        0x1 /tmp/cc7nikyl.ltrans0.ltrans.o
 *fill*         0x000000002000204d        0x3 
 .bss._idle_thread_wa.4385.4919
                0x0000000020002050      0x160 /tmp/cc7nikyl.ltrans0.ltrans.o
 .bss.waGps.17085.4831
                0x00000000200021b0      0x658 /tmp/cc7nikyl.ltrans0.ltrans.o
 .bss.endmem.6822
                0x0000000020002808        0x4 /tmp/cc7nikyl.ltrans0.ltrans.o
                0x0000000020002808                endmem.6822
 .bss.errors.13409.4808
                0x000000002000280c        0x4 /tmp/cc7nikyl.ltrans0.ltrans.o
 .bss.nextmem.6820
                0x0000000020002810        0x4 /tmp/cc7nikyl.ltrans0.ltrans.o
                0x0000000020002810                nextmem.6820
 .bss.tokBuf.15884
                0x0000000020002814       0x14 /tmp/cc7nikyl.ltrans3.ltrans.o
                0x0000000020002814                tokBuf.15884
 .bss.gpsSem    0x0000000020002828        0xc /tmp/cc7nikyl.ltrans3.ltrans.o
                0x0000000020002828                gpsSem
 .bss.ADCD1     0x0000000020002834       0x34 /tmp/cc7nikyl.ltrans4.ltrans.o
                0x0000000020002834                ADCD1
 .bss.SD6       0x0000000020002868      0x458 /tmp/cc7nikyl.ltrans4.ltrans.o
                0x0000000020002868                SD6
 .bss.sensCount.13980.4642
                0x0000000020002cc0        0x1 /tmp/cc7nikyl.ltrans4.ltrans.o
 *fill*         0x0000000020002cc1        0x3 
 .bss.ch        0x0000000020002cc4       0x34 /tmp/cc7nikyl.ltrans4.ltrans.o
                0x0000000020002cc4                ch
 .bss.sensCount.14332.4643
                0x0000000020002cf8        0x1 /tmp/cc7nikyl.ltrans4.ltrans.o
 .bss.sensCount.13591.4641
                0x0000000020002cf9        0x1 /tmp/cc7nikyl.ltrans4.ltrans.o
 *fill*         0x0000000020002cfa        0x2 
 .bss.DEBUG.15492.4645
                0x0000000020002cfc        0x4 /tmp/cc7nikyl.ltrans4.ltrans.o
 .bss.analogSamples.15487.4648
                0x0000000020002d00      0x12c /tmp/cc7nikyl.ltrans4.ltrans.o
 .bss.sensCount.14734.4644
                0x0000000020002e2c        0x1 /tmp/cc7nikyl.ltrans4.ltrans.o
 *fill*         0x0000000020002e2d        0x3 
 .bss.I2CD1     0x0000000020002e30       0x38 /tmp/cc7nikyl.ltrans4.ltrans.o
                0x0000000020002e30                I2CD1
 .bss.I2CD3     0x0000000020002e68       0x38 /tmp/cc7nikyl.ltrans4.ltrans.o
                0x0000000020002e68                I2CD3
 *(COMMON)
                0x0000000020002ea0                . = ALIGN (0x4)
                0x0000000020002ea0                PROVIDE (_bss_end, .)
                0x0000000020002ea0                PROVIDE (end, .)
                0x0000000020002ea0                _end = .
                0x0000000020002ea0                __heap_base__ = _end
                0x0000000020010000                __heap_end__ = __ram_end__
                0x0000000000000400                __process_stack_size__ = 0x400
                0x0000000000000400                __main_stack_size__ = 0x400
START GROUP
LOAD /usr/bin/../lib/gcc/arm-none-eabi/4.8.4/armv7e-m/fpu/libgcc.a
LOAD /usr/bin/../lib/gcc/arm-none-eabi/4.8.4/../../../../arm-none-eabi/lib/armv7e-m/fpu/libc.a
END GROUP
OUTPUT(build/stribog.elf elf32-littlearm)

.ARM.attributes
                0x0000000000000000       0x35
 .ARM.attributes
                0x0000000000000000       0x25 build/obj/chcoreasm_v7m.o
 .ARM.attributes
                0x0000000000000025       0x37 /tmp/cc7nikyl.ltrans0.ltrans.o
 .ARM.attributes
                0x000000000000005c       0x37 /tmp/cc7nikyl.ltrans1.ltrans.o
 .ARM.attributes
                0x0000000000000093       0x37 /tmp/cc7nikyl.ltrans2.ltrans.o
 .ARM.attributes
                0x00000000000000ca       0x37 /tmp/cc7nikyl.ltrans3.ltrans.o
 .ARM.attributes
                0x0000000000000101       0x37 /tmp/cc7nikyl.ltrans4.ltrans.o
 .ARM.attributes
                0x0000000000000138       0x22 /usr/bin/../lib/gcc/arm-none-eabi/4.8.4/armv7e-m/fpu/libgcc.a(_arm_addsubdf3.o)
 .ARM.attributes
                0x000000000000015a       0x22 /usr/bin/../lib/gcc/arm-none-eabi/4.8.4/armv7e-m/fpu/libgcc.a(_arm_muldivdf3.o)
 .ARM.attributes
                0x000000000000017c       0x22 /usr/bin/../lib/gcc/arm-none-eabi/4.8.4/armv7e-m/fpu/libgcc.a(_arm_fixdfsi.o)
 .ARM.attributes
                0x000000000000019e       0x22 /usr/bin/../lib/gcc/arm-none-eabi/4.8.4/armv7e-m/fpu/libgcc.a(_arm_truncdfsf2.o)
 .ARM.attributes
                0x00000000000001c0       0x34 /usr/bin/../lib/gcc/arm-none-eabi/4.8.4/../../../../arm-none-eabi/lib/armv7e-m/fpu/libc.a(lib_a-strcpy.o)
 .ARM.attributes
                0x00000000000001f4       0x34 /usr/bin/../lib/gcc/arm-none-eabi/4.8.4/../../../../arm-none-eabi/lib/armv7e-m/fpu/libc.a(lib_a-strlen.o)
 .ARM.attributes
                0x0000000000000228       0x34 /usr/bin/../lib/gcc/arm-none-eabi/4.8.4/../../../../arm-none-eabi/lib/armv7e-m/fpu/libc.a(lib_a-strncmp.o)

.comment        0x0000000000000000       0x70
 .comment       0x0000000000000000       0x70 /tmp/cc7nikyl.ltrans0.ltrans.o
                                         0x71 (size before relaxing)
 .comment       0x0000000000000000       0x71 /tmp/cc7nikyl.ltrans1.ltrans.o
 .comment       0x0000000000000000       0x71 /tmp/cc7nikyl.ltrans2.ltrans.o
 .comment       0x0000000000000000       0x71 /tmp/cc7nikyl.ltrans3.ltrans.o
 .comment       0x0000000000000000       0x71 /tmp/cc7nikyl.ltrans4.ltrans.o

.debug_frame    0x0000000000000000       0x68
 .debug_frame   0x0000000000000000       0x20 /usr/bin/../lib/gcc/arm-none-eabi/4.8.4/../../../../arm-none-eabi/lib/armv7e-m/fpu/libc.a(lib_a-strcpy.o)
 .debug_frame   0x0000000000000020       0x20 /usr/bin/../lib/gcc/arm-none-eabi/4.8.4/../../../../arm-none-eabi/lib/armv7e-m/fpu/libc.a(lib_a-strlen.o)
 .debug_frame   0x0000000000000040       0x28 /usr/bin/../lib/gcc/arm-none-eabi/4.8.4/../../../../arm-none-eabi/lib/armv7e-m/fpu/libc.a(lib_a-strncmp.o)

Cross Reference Table

Symbol                                            File
ADCD1                                             /tmp/cc7nikyl.ltrans4.ltrans.o
                                                  /tmp/cc7nikyl.ltrans2.ltrans.o
                                                  /tmp/cc7nikyl.ltrans0.ltrans.o
BusFault_Handler                                  /tmp/cc7nikyl.ltrans2.ltrans.o
                                                  /tmp/cc7nikyl.ltrans4.ltrans.o
DebugMon_Handler                                  /tmp/cc7nikyl.ltrans2.ltrans.o
                                                  /tmp/cc7nikyl.ltrans4.ltrans.o
GPS.15883                                         /tmp/cc7nikyl.ltrans0.ltrans.o
                                                  /tmp/cc7nikyl.ltrans3.ltrans.o
                                                  /tmp/cc7nikyl.ltrans1.ltrans.o
HardFault_Handler                                 /tmp/cc7nikyl.ltrans2.ltrans.o
                                                  /tmp/cc7nikyl.ltrans4.ltrans.o
I2CD1                                             /tmp/cc7nikyl.ltrans4.ltrans.o
                                                  /tmp/cc7nikyl.ltrans3.ltrans.o
                                                  /tmp/cc7nikyl.ltrans1.ltrans.o
                                                  /tmp/cc7nikyl.ltrans0.ltrans.o
I2CD3                                             /tmp/cc7nikyl.ltrans4.ltrans.o
                                                  /tmp/cc7nikyl.ltrans3.ltrans.o
                                                  /tmp/cc7nikyl.ltrans1.ltrans.o
                                                  /tmp/cc7nikyl.ltrans0.ltrans.o
I2CSensor_init                                    /tmp/cc7nikyl.ltrans1.ltrans.o
                                                  /tmp/cc7nikyl.ltrans4.ltrans.o
                                                  /tmp/cc7nikyl.ltrans0.ltrans.o
I2CSensor_transact                                /tmp/cc7nikyl.ltrans0.ltrans.o
                                                  /tmp/cc7nikyl.ltrans4.ltrans.o
I2CSensor_transact_buf                            /tmp/cc7nikyl.ltrans0.ltrans.o
                                                  /tmp/cc7nikyl.ltrans4.ltrans.o
MemManage_Handler                                 /tmp/cc7nikyl.ltrans2.ltrans.o
                                                  /tmp/cc7nikyl.ltrans4.ltrans.o
NMI_Handler                                       /tmp/cc7nikyl.ltrans2.ltrans.o
                                                  /tmp/cc7nikyl.ltrans4.ltrans.o
PendSV_Handler                                    /tmp/cc7nikyl.ltrans2.ltrans.o
                                                  /tmp/cc7nikyl.ltrans4.ltrans.o
Reset_Handler                                     /tmp/cc7nikyl.ltrans4.ltrans.o
SD2                                               /tmp/cc7nikyl.ltrans0.ltrans.o
                                                  /tmp/cc7nikyl.ltrans3.ltrans.o
SD6                                               /tmp/cc7nikyl.ltrans4.ltrans.o
                                                  /tmp/cc7nikyl.ltrans3.ltrans.o
                                                  /tmp/cc7nikyl.ltrans1.ltrans.o
                                                  /tmp/cc7nikyl.ltrans0.ltrans.o
SVC_Handler                                       /tmp/cc7nikyl.ltrans2.ltrans.o
                                                  /tmp/cc7nikyl.ltrans4.ltrans.o
SysTick_Handler                                   /tmp/cc7nikyl.ltrans2.ltrans.o
                                                  /tmp/cc7nikyl.ltrans4.ltrans.o
UARTD1                                            /tmp/cc7nikyl.ltrans0.ltrans.o
                                                  /tmp/cc7nikyl.ltrans3.ltrans.o
                                                  /tmp/cc7nikyl.ltrans1.ltrans.o
UsageFault_Handler                                /tmp/cc7nikyl.ltrans2.ltrans.o
                                                  /tmp/cc7nikyl.ltrans4.ltrans.o
Vector100                                         /tmp/cc7nikyl.ltrans2.ltrans.o
                                                  /tmp/cc7nikyl.ltrans4.ltrans.o
Vector104                                         /tmp/cc7nikyl.ltrans2.ltrans.o
                                                  /tmp/cc7nikyl.ltrans4.ltrans.o
Vector108                                         /tmp/cc7nikyl.ltrans2.ltrans.o
                                                  /tmp/cc7nikyl.ltrans4.ltrans.o
Vector10C                                         /tmp/cc7nikyl.ltrans2.ltrans.o
                                                  /tmp/cc7nikyl.ltrans4.ltrans.o
Vector110                                         /tmp/cc7nikyl.ltrans2.ltrans.o
                                                  /tmp/cc7nikyl.ltrans4.ltrans.o
Vector114                                         /tmp/cc7nikyl.ltrans2.ltrans.o
                                                  /tmp/cc7nikyl.ltrans4.ltrans.o
Vector118                                         /tmp/cc7nikyl.ltrans2.ltrans.o
                                                  /tmp/cc7nikyl.ltrans4.ltrans.o
Vector11C                                         /tmp/cc7nikyl.ltrans2.ltrans.o
                                                  /tmp/cc7nikyl.ltrans4.ltrans.o
Vector120                                         /tmp/cc7nikyl.ltrans2.ltrans.o
                                                  /tmp/cc7nikyl.ltrans4.ltrans.o
Vector124                                         /tmp/cc7nikyl.ltrans2.ltrans.o
                                                  /tmp/cc7nikyl.ltrans4.ltrans.o
Vector128                                         /tmp/cc7nikyl.ltrans2.ltrans.o
                                                  /tmp/cc7nikyl.ltrans4.ltrans.o
Vector12C                                         /tmp/cc7nikyl.ltrans2.ltrans.o
                                                  /tmp/cc7nikyl.ltrans4.ltrans.o
Vector130                                         /tmp/cc7nikyl.ltrans2.ltrans.o
                                                  /tmp/cc7nikyl.ltrans4.ltrans.o
Vector134                                         /tmp/cc7nikyl.ltrans2.ltrans.o
                                                  /tmp/cc7nikyl.ltrans4.ltrans.o
Vector138                                         /tmp/cc7nikyl.ltrans2.ltrans.o
                                                  /tmp/cc7nikyl.ltrans4.ltrans.o
Vector13C                                         /tmp/cc7nikyl.ltrans2.ltrans.o
                                                  /tmp/cc7nikyl.ltrans4.ltrans.o
Vector140                                         /tmp/cc7nikyl.ltrans2.ltrans.o
                                                  /tmp/cc7nikyl.ltrans4.ltrans.o
Vector144                                         /tmp/cc7nikyl.ltrans2.ltrans.o
                                                  /tmp/cc7nikyl.ltrans4.ltrans.o
Vector148                                         /tmp/cc7nikyl.ltrans2.ltrans.o
                                                  /tmp/cc7nikyl.ltrans4.ltrans.o
Vector14C                                         /tmp/cc7nikyl.ltrans2.ltrans.o
                                                  /tmp/cc7nikyl.ltrans4.ltrans.o
Vector150                                         /tmp/cc7nikyl.ltrans2.ltrans.o
                                                  /tmp/cc7nikyl.ltrans4.ltrans.o
Vector154                                         /tmp/cc7nikyl.ltrans2.ltrans.o
                                                  /tmp/cc7nikyl.ltrans4.ltrans.o
Vector158                                         /tmp/cc7nikyl.ltrans2.ltrans.o
                                                  /tmp/cc7nikyl.ltrans4.ltrans.o
Vector15C                                         /tmp/cc7nikyl.ltrans0.ltrans.o
                                                  /tmp/cc7nikyl.ltrans4.ltrans.o
Vector160                                         /tmp/cc7nikyl.ltrans1.ltrans.o
                                                  /tmp/cc7nikyl.ltrans4.ltrans.o
Vector164                                         /tmp/cc7nikyl.ltrans1.ltrans.o
                                                  /tmp/cc7nikyl.ltrans4.ltrans.o
Vector168                                         /tmp/cc7nikyl.ltrans2.ltrans.o
                                                  /tmp/cc7nikyl.ltrans4.ltrans.o
Vector16C                                         /tmp/cc7nikyl.ltrans2.ltrans.o
                                                  /tmp/cc7nikyl.ltrans4.ltrans.o
Vector170                                         /tmp/cc7nikyl.ltrans2.ltrans.o
                                                  /tmp/cc7nikyl.ltrans4.ltrans.o
Vector174                                         /tmp/cc7nikyl.ltrans2.ltrans.o
                                                  /tmp/cc7nikyl.ltrans4.ltrans.o
Vector178                                         /tmp/cc7nikyl.ltrans2.ltrans.o
                                                  /tmp/cc7nikyl.ltrans4.ltrans.o
Vector17C                                         /tmp/cc7nikyl.ltrans2.ltrans.o
                                                  /tmp/cc7nikyl.ltrans4.ltrans.o
Vector180                                         /tmp/cc7nikyl.ltrans2.ltrans.o
                                                  /tmp/cc7nikyl.ltrans4.ltrans.o
Vector184                                         /tmp/cc7nikyl.ltrans2.ltrans.o
                                                  /tmp/cc7nikyl.ltrans4.ltrans.o
Vector188                                         /tmp/cc7nikyl.ltrans2.ltrans.o
                                                  /tmp/cc7nikyl.ltrans4.ltrans.o
Vector18C                                         /tmp/cc7nikyl.ltrans2.ltrans.o
                                                  /tmp/cc7nikyl.ltrans4.ltrans.o
Vector190                                         /tmp/cc7nikyl.ltrans2.ltrans.o
                                                  /tmp/cc7nikyl.ltrans4.ltrans.o
Vector194                                         /tmp/cc7nikyl.ltrans2.ltrans.o
                                                  /tmp/cc7nikyl.ltrans4.ltrans.o
Vector198                                         /tmp/cc7nikyl.ltrans2.ltrans.o
                                                  /tmp/cc7nikyl.ltrans4.ltrans.o
Vector19C                                         /tmp/cc7nikyl.ltrans2.ltrans.o
                                                  /tmp/cc7nikyl.ltrans4.ltrans.o
Vector1A0                                         /tmp/cc7nikyl.ltrans2.ltrans.o
                                                  /tmp/cc7nikyl.ltrans4.ltrans.o
Vector1A4                                         /tmp/cc7nikyl.ltrans2.ltrans.o
                                                  /tmp/cc7nikyl.ltrans4.ltrans.o
Vector1A8                                         /tmp/cc7nikyl.ltrans2.ltrans.o
                                                  /tmp/cc7nikyl.ltrans4.ltrans.o
Vector1AC                                         /tmp/cc7nikyl.ltrans2.ltrans.o
                                                  /tmp/cc7nikyl.ltrans4.ltrans.o
Vector1B0                                         /tmp/cc7nikyl.ltrans2.ltrans.o
                                                  /tmp/cc7nikyl.ltrans4.ltrans.o
Vector1B4                                         /tmp/cc7nikyl.ltrans2.ltrans.o
                                                  /tmp/cc7nikyl.ltrans4.ltrans.o
Vector1B8                                         /tmp/cc7nikyl.ltrans2.ltrans.o
                                                  /tmp/cc7nikyl.ltrans4.ltrans.o
Vector1BC                                         /tmp/cc7nikyl.ltrans2.ltrans.o
                                                  /tmp/cc7nikyl.ltrans4.ltrans.o
Vector1C                                          /tmp/cc7nikyl.ltrans2.ltrans.o
                                                  /tmp/cc7nikyl.ltrans4.ltrans.o
Vector20                                          /tmp/cc7nikyl.ltrans2.ltrans.o
                                                  /tmp/cc7nikyl.ltrans4.ltrans.o
Vector24                                          /tmp/cc7nikyl.ltrans2.ltrans.o
                                                  /tmp/cc7nikyl.ltrans4.ltrans.o
Vector28                                          /tmp/cc7nikyl.ltrans2.ltrans.o
                                                  /tmp/cc7nikyl.ltrans4.ltrans.o
Vector34                                          /tmp/cc7nikyl.ltrans2.ltrans.o
                                                  /tmp/cc7nikyl.ltrans4.ltrans.o
Vector40                                          /tmp/cc7nikyl.ltrans2.ltrans.o
                                                  /tmp/cc7nikyl.ltrans4.ltrans.o
Vector44                                          /tmp/cc7nikyl.ltrans2.ltrans.o
                                                  /tmp/cc7nikyl.ltrans4.ltrans.o
Vector48                                          /tmp/cc7nikyl.ltrans2.ltrans.o
                                                  /tmp/cc7nikyl.ltrans4.ltrans.o
Vector4C                                          /tmp/cc7nikyl.ltrans2.ltrans.o
                                                  /tmp/cc7nikyl.ltrans4.ltrans.o
Vector50                                          /tmp/cc7nikyl.ltrans2.ltrans.o
                                                  /tmp/cc7nikyl.ltrans4.ltrans.o
Vector54                                          /tmp/cc7nikyl.ltrans2.ltrans.o
                                                  /tmp/cc7nikyl.ltrans4.ltrans.o
Vector58                                          /tmp/cc7nikyl.ltrans2.ltrans.o
                                                  /tmp/cc7nikyl.ltrans4.ltrans.o
Vector5C                                          /tmp/cc7nikyl.ltrans2.ltrans.o
                                                  /tmp/cc7nikyl.ltrans4.ltrans.o
Vector60                                          /tmp/cc7nikyl.ltrans2.ltrans.o
                                                  /tmp/cc7nikyl.ltrans4.ltrans.o
Vector64                                          /tmp/cc7nikyl.ltrans2.ltrans.o
                                                  /tmp/cc7nikyl.ltrans4.ltrans.o
Vector68                                          /tmp/cc7nikyl.ltrans2.ltrans.o
                                                  /tmp/cc7nikyl.ltrans4.ltrans.o
Vector6C                                          /tmp/cc7nikyl.ltrans2.ltrans.o
                                                  /tmp/cc7nikyl.ltrans4.ltrans.o
Vector70                                          /tmp/cc7nikyl.ltrans2.ltrans.o
                                                  /tmp/cc7nikyl.ltrans4.ltrans.o
Vector74                                          /tmp/cc7nikyl.ltrans2.ltrans.o
                                                  /tmp/cc7nikyl.ltrans4.ltrans.o
Vector78                                          /tmp/cc7nikyl.ltrans2.ltrans.o
                                                  /tmp/cc7nikyl.ltrans4.ltrans.o
Vector7C                                          /tmp/cc7nikyl.ltrans2.ltrans.o
                                                  /tmp/cc7nikyl.ltrans4.ltrans.o
Vector80                                          /tmp/cc7nikyl.ltrans2.ltrans.o
                                                  /tmp/cc7nikyl.ltrans4.ltrans.o
Vector84                                          /tmp/cc7nikyl.ltrans2.ltrans.o
                                                  /tmp/cc7nikyl.ltrans4.ltrans.o
Vector88                                          /tmp/cc7nikyl.ltrans2.ltrans.o
                                                  /tmp/cc7nikyl.ltrans4.ltrans.o
Vector8C                                          /tmp/cc7nikyl.ltrans2.ltrans.o
                                                  /tmp/cc7nikyl.ltrans4.ltrans.o
Vector90                                          /tmp/cc7nikyl.ltrans2.ltrans.o
                                                  /tmp/cc7nikyl.ltrans4.ltrans.o
Vector94                                          /tmp/cc7nikyl.ltrans2.ltrans.o
                                                  /tmp/cc7nikyl.ltrans4.ltrans.o
Vector98                                          /tmp/cc7nikyl.ltrans2.ltrans.o
                                                  /tmp/cc7nikyl.ltrans4.ltrans.o
Vector9C                                          /tmp/cc7nikyl.ltrans2.ltrans.o
                                                  /tmp/cc7nikyl.ltrans4.ltrans.o
VectorA0                                          /tmp/cc7nikyl.ltrans2.ltrans.o
                                                  /tmp/cc7nikyl.ltrans4.ltrans.o
VectorA4                                          /tmp/cc7nikyl.ltrans2.ltrans.o
                                                  /tmp/cc7nikyl.ltrans4.ltrans.o
VectorA8                                          /tmp/cc7nikyl.ltrans2.ltrans.o
                                                  /tmp/cc7nikyl.ltrans4.ltrans.o
VectorAC                                          /tmp/cc7nikyl.ltrans2.ltrans.o
                                                  /tmp/cc7nikyl.ltrans4.ltrans.o
VectorB0                                          /tmp/cc7nikyl.ltrans1.ltrans.o
                                                  /tmp/cc7nikyl.ltrans4.ltrans.o
VectorB4                                          /tmp/cc7nikyl.ltrans2.ltrans.o
                                                  /tmp/cc7nikyl.ltrans4.ltrans.o
VectorB8                                          /tmp/cc7nikyl.ltrans2.ltrans.o
                                                  /tmp/cc7nikyl.ltrans4.ltrans.o
VectorBC                                          /tmp/cc7nikyl.ltrans1.ltrans.o
                                                  /tmp/cc7nikyl.ltrans4.ltrans.o
VectorC0                                          /tmp/cc7nikyl.ltrans1.ltrans.o
                                                  /tmp/cc7nikyl.ltrans4.ltrans.o
VectorC4                                          /tmp/cc7nikyl.ltrans2.ltrans.o
                                                  /tmp/cc7nikyl.ltrans4.ltrans.o
VectorC8                                          /tmp/cc7nikyl.ltrans2.ltrans.o
                                                  /tmp/cc7nikyl.ltrans4.ltrans.o
VectorCC                                          /tmp/cc7nikyl.ltrans2.ltrans.o
                                                  /tmp/cc7nikyl.ltrans4.ltrans.o
VectorD0                                          /tmp/cc7nikyl.ltrans2.ltrans.o
                                                  /tmp/cc7nikyl.ltrans4.ltrans.o
VectorD4                                          /tmp/cc7nikyl.ltrans1.ltrans.o
                                                  /tmp/cc7nikyl.ltrans4.ltrans.o
VectorD8                                          /tmp/cc7nikyl.ltrans0.ltrans.o
                                                  /tmp/cc7nikyl.ltrans4.ltrans.o
VectorDC                                          /tmp/cc7nikyl.ltrans2.ltrans.o
                                                  /tmp/cc7nikyl.ltrans4.ltrans.o
VectorE0                                          /tmp/cc7nikyl.ltrans2.ltrans.o
                                                  /tmp/cc7nikyl.ltrans4.ltrans.o
VectorE4                                          /tmp/cc7nikyl.ltrans2.ltrans.o
                                                  /tmp/cc7nikyl.ltrans4.ltrans.o
VectorE8                                          /tmp/cc7nikyl.ltrans2.ltrans.o
                                                  /tmp/cc7nikyl.ltrans4.ltrans.o
VectorEC                                          /tmp/cc7nikyl.ltrans2.ltrans.o
                                                  /tmp/cc7nikyl.ltrans4.ltrans.o
VectorF0                                          /tmp/cc7nikyl.ltrans2.ltrans.o
                                                  /tmp/cc7nikyl.ltrans4.ltrans.o
VectorF4                                          /tmp/cc7nikyl.ltrans2.ltrans.o
                                                  /tmp/cc7nikyl.ltrans4.ltrans.o
VectorF8                                          /tmp/cc7nikyl.ltrans2.ltrans.o
                                                  /tmp/cc7nikyl.ltrans4.ltrans.o
VectorFC                                          /tmp/cc7nikyl.ltrans2.ltrans.o
                                                  /tmp/cc7nikyl.ltrans4.ltrans.o
__adddf3                                          /usr/bin/../lib/gcc/arm-none-eabi/4.8.4/armv7e-m/fpu/libgcc.a(_arm_addsubdf3.o)
__aeabi_d2f                                       /usr/bin/../lib/gcc/arm-none-eabi/4.8.4/armv7e-m/fpu/libgcc.a(_arm_truncdfsf2.o)
                                                  /tmp/cc7nikyl.ltrans1.ltrans.o
__aeabi_d2iz                                      /usr/bin/../lib/gcc/arm-none-eabi/4.8.4/armv7e-m/fpu/libgcc.a(_arm_fixdfsi.o)
                                                  /tmp/cc7nikyl.ltrans1.ltrans.o
__aeabi_dadd                                      /usr/bin/../lib/gcc/arm-none-eabi/4.8.4/armv7e-m/fpu/libgcc.a(_arm_addsubdf3.o)
__aeabi_ddiv                                      /usr/bin/../lib/gcc/arm-none-eabi/4.8.4/armv7e-m/fpu/libgcc.a(_arm_muldivdf3.o)
__aeabi_dmul                                      /usr/bin/../lib/gcc/arm-none-eabi/4.8.4/armv7e-m/fpu/libgcc.a(_arm_muldivdf3.o)
                                                  /tmp/cc7nikyl.ltrans1.ltrans.o
__aeabi_drsub                                     /usr/bin/../lib/gcc/arm-none-eabi/4.8.4/armv7e-m/fpu/libgcc.a(_arm_addsubdf3.o)
__aeabi_dsub                                      /usr/bin/../lib/gcc/arm-none-eabi/4.8.4/armv7e-m/fpu/libgcc.a(_arm_addsubdf3.o)
                                                  /tmp/cc7nikyl.ltrans1.ltrans.o
__aeabi_f2d                                       /usr/bin/../lib/gcc/arm-none-eabi/4.8.4/armv7e-m/fpu/libgcc.a(_arm_addsubdf3.o)
                                                  /tmp/cc7nikyl.ltrans4.ltrans.o
                                                  /tmp/cc7nikyl.ltrans1.ltrans.o
__aeabi_i2d                                       /usr/bin/../lib/gcc/arm-none-eabi/4.8.4/armv7e-m/fpu/libgcc.a(_arm_addsubdf3.o)
                                                  /tmp/cc7nikyl.ltrans1.ltrans.o
__aeabi_l2d                                       /usr/bin/../lib/gcc/arm-none-eabi/4.8.4/armv7e-m/fpu/libgcc.a(_arm_addsubdf3.o)
__aeabi_ui2d                                      /usr/bin/../lib/gcc/arm-none-eabi/4.8.4/armv7e-m/fpu/libgcc.a(_arm_addsubdf3.o)
                                                  /tmp/cc7nikyl.ltrans1.ltrans.o
__aeabi_ul2d                                      /usr/bin/../lib/gcc/arm-none-eabi/4.8.4/armv7e-m/fpu/libgcc.a(_arm_addsubdf3.o)
__divdf3                                          /usr/bin/../lib/gcc/arm-none-eabi/4.8.4/armv7e-m/fpu/libgcc.a(_arm_muldivdf3.o)
__extendsfdf2                                     /usr/bin/../lib/gcc/arm-none-eabi/4.8.4/armv7e-m/fpu/libgcc.a(_arm_addsubdf3.o)
__fixdfsi                                         /usr/bin/../lib/gcc/arm-none-eabi/4.8.4/armv7e-m/fpu/libgcc.a(_arm_fixdfsi.o)
__floatdidf                                       /usr/bin/../lib/gcc/arm-none-eabi/4.8.4/armv7e-m/fpu/libgcc.a(_arm_addsubdf3.o)
__floatsidf                                       /usr/bin/../lib/gcc/arm-none-eabi/4.8.4/armv7e-m/fpu/libgcc.a(_arm_addsubdf3.o)
__floatundidf                                     /usr/bin/../lib/gcc/arm-none-eabi/4.8.4/armv7e-m/fpu/libgcc.a(_arm_addsubdf3.o)
__floatunsidf                                     /usr/bin/../lib/gcc/arm-none-eabi/4.8.4/armv7e-m/fpu/libgcc.a(_arm_addsubdf3.o)
__heap_base__                                     /tmp/cc7nikyl.ltrans0.ltrans.o
__heap_end__                                      /tmp/cc7nikyl.ltrans0.ltrans.o
__init_array_end                                  /tmp/cc7nikyl.ltrans4.ltrans.o
__init_array_start                                /tmp/cc7nikyl.ltrans4.ltrans.o
__main_stack_base__                               /tmp/cc7nikyl.ltrans4.ltrans.o
__main_stack_end__                                /tmp/cc7nikyl.ltrans4.ltrans.o
__muldf3                                          /usr/bin/../lib/gcc/arm-none-eabi/4.8.4/armv7e-m/fpu/libgcc.a(_arm_muldivdf3.o)
__process_stack_base__                            /tmp/cc7nikyl.ltrans4.ltrans.o
__process_stack_end__                             /tmp/cc7nikyl.ltrans4.ltrans.o
__subdf3                                          /usr/bin/../lib/gcc/arm-none-eabi/4.8.4/armv7e-m/fpu/libgcc.a(_arm_addsubdf3.o)
__truncdfsf2                                      /usr/bin/../lib/gcc/arm-none-eabi/4.8.4/armv7e-m/fpu/libgcc.a(_arm_truncdfsf2.o)
_bss_end                                          /tmp/cc7nikyl.ltrans4.ltrans.o
_bss_start                                        /tmp/cc7nikyl.ltrans4.ltrans.o
_data                                             /tmp/cc7nikyl.ltrans4.ltrans.o
_edata                                            /tmp/cc7nikyl.ltrans4.ltrans.o
_idle_thread.4338                                 /tmp/cc7nikyl.ltrans2.ltrans.o
                                                  /tmp/cc7nikyl.ltrans0.ltrans.o
_pal_lld_setgroupmode                             /tmp/cc7nikyl.ltrans2.ltrans.o
                                                  /tmp/cc7nikyl.ltrans1.ltrans.o
_port_exit_from_isr                               build/obj/chcoreasm_v7m.o
                                                  /tmp/cc7nikyl.ltrans2.ltrans.o
_port_irq_epilogue                                /tmp/cc7nikyl.ltrans2.ltrans.o
                                                  /tmp/cc7nikyl.ltrans1.ltrans.o
                                                  /tmp/cc7nikyl.ltrans0.ltrans.o
_port_switch                                      build/obj/chcoreasm_v7m.o
                                                  /tmp/cc7nikyl.ltrans3.ltrans.o
                                                  /tmp/cc7nikyl.ltrans2.ltrans.o
                                                  /tmp/cc7nikyl.ltrans1.ltrans.o
_port_switch_from_isr                             build/obj/chcoreasm_v7m.o
                                                  /tmp/cc7nikyl.ltrans2.ltrans.o
_port_thread_start                                build/obj/chcoreasm_v7m.o
                                                  /tmp/cc7nikyl.ltrans1.ltrans.o
_textdata                                         /tmp/cc7nikyl.ltrans4.ltrans.o
_vectors                                          /tmp/cc7nikyl.ltrans4.ltrans.o
adc_lld_serve_rx_interrupt.11091                  /tmp/cc7nikyl.ltrans2.ltrans.o
                                                  /tmp/cc7nikyl.ltrans0.ltrans.o
boardInit                                         /tmp/cc7nikyl.ltrans1.ltrans.o
                                                  /tmp/cc7nikyl.ltrans0.ltrans.o
ch                                                /tmp/cc7nikyl.ltrans4.ltrans.o
                                                  /tmp/cc7nikyl.ltrans3.ltrans.o
                                                  /tmp/cc7nikyl.ltrans2.ltrans.o
                                                  /tmp/cc7nikyl.ltrans1.ltrans.o
                                                  /tmp/cc7nikyl.ltrans0.ltrans.o
chCoreAlloc                                       /tmp/cc7nikyl.ltrans2.ltrans.o
                                                  /tmp/cc7nikyl.ltrans0.ltrans.o
chEvtBroadcastFlagsI                              /tmp/cc7nikyl.ltrans2.ltrans.o
                                                  /tmp/cc7nikyl.ltrans0.ltrans.o
chMtxLockS                                        /tmp/cc7nikyl.ltrans2.ltrans.o
                                                  /tmp/cc7nikyl.ltrans3.ltrans.o
                                                  /tmp/cc7nikyl.ltrans0.ltrans.o
chMtxUnlock                                       /tmp/cc7nikyl.ltrans1.ltrans.o
                                                  /tmp/cc7nikyl.ltrans3.ltrans.o
                                                  /tmp/cc7nikyl.ltrans0.ltrans.o
chSchDoReschedule                                 /tmp/cc7nikyl.ltrans4.ltrans.o
                                                  build/obj/chcoreasm_v7m.o
chSchDoRescheduleAhead                            /tmp/cc7nikyl.ltrans2.ltrans.o
                                                  /tmp/cc7nikyl.ltrans4.ltrans.o
chSchGoSleepS                                     /tmp/cc7nikyl.ltrans2.ltrans.o
                                                  /tmp/cc7nikyl.ltrans4.ltrans.o
                                                  /tmp/cc7nikyl.ltrans3.ltrans.o
                                                  /tmp/cc7nikyl.ltrans1.ltrans.o
chSchGoSleepTimeoutS                              /tmp/cc7nikyl.ltrans1.ltrans.o
                                                  /tmp/cc7nikyl.ltrans3.ltrans.o
                                                  /tmp/cc7nikyl.ltrans0.ltrans.o
chSchReadyI                                       /tmp/cc7nikyl.ltrans2.ltrans.o
                                                  /tmp/cc7nikyl.ltrans4.ltrans.o
                                                  /tmp/cc7nikyl.ltrans3.ltrans.o
                                                  /tmp/cc7nikyl.ltrans1.ltrans.o
                                                  /tmp/cc7nikyl.ltrans0.ltrans.o
chSchRescheduleS                                  /tmp/cc7nikyl.ltrans2.ltrans.o
                                                  /tmp/cc7nikyl.ltrans3.ltrans.o
                                                  /tmp/cc7nikyl.ltrans1.ltrans.o
chTMStartMeasurementX.constprop.32                /tmp/cc7nikyl.ltrans1.ltrans.o
                                                  /tmp/cc7nikyl.ltrans0.ltrans.o
chTMStopMeasurementX                              /tmp/cc7nikyl.ltrans2.ltrans.o
                                                  /tmp/cc7nikyl.ltrans0.ltrans.o
chThdCreateStatic                                 /tmp/cc7nikyl.ltrans1.ltrans.o
                                                  /tmp/cc7nikyl.ltrans0.ltrans.o
chThdEnqueueTimeoutS                              /tmp/cc7nikyl.ltrans1.ltrans.o
                                                  /tmp/cc7nikyl.ltrans3.ltrans.o
chThdExit                                         /tmp/cc7nikyl.ltrans4.ltrans.o
                                                  build/obj/chcoreasm_v7m.o
chThdResumeI                                      /tmp/cc7nikyl.ltrans2.ltrans.o
                                                  /tmp/cc7nikyl.ltrans1.ltrans.o
chThdSleep                                        /tmp/cc7nikyl.ltrans3.ltrans.o
                                                  /tmp/cc7nikyl.ltrans4.ltrans.o
                                                  /tmp/cc7nikyl.ltrans0.ltrans.o
chThdSleepUntil                                   /tmp/cc7nikyl.ltrans3.ltrans.o
                                                  /tmp/cc7nikyl.ltrans4.ltrans.o
                                                  /tmp/cc7nikyl.ltrans0.ltrans.o
chprintf.13297.constprop.13                       /tmp/cc7nikyl.ltrans1.ltrans.o
                                                  /tmp/cc7nikyl.ltrans0.ltrans.o
chprintf.15417.constprop.5                        /tmp/cc7nikyl.ltrans1.ltrans.o
                                                  /tmp/cc7nikyl.ltrans4.ltrans.o
chprintf.15796.constprop.1                        /tmp/cc7nikyl.ltrans1.ltrans.o
                                                  /tmp/cc7nikyl.ltrans3.ltrans.o
chprintf.17017.constprop.39                       /tmp/cc7nikyl.ltrans1.ltrans.o
                                                  /tmp/cc7nikyl.ltrans0.ltrans.o
dmaStreamAllocate                                 /tmp/cc7nikyl.ltrans2.ltrans.o
                                                  /tmp/cc7nikyl.ltrans3.ltrans.o
                                                  /tmp/cc7nikyl.ltrans0.ltrans.o
dmaStreamRelease                                  /tmp/cc7nikyl.ltrans2.ltrans.o
                                                  /tmp/cc7nikyl.ltrans3.ltrans.o
dma_isr_redir.10833                               /tmp/cc7nikyl.ltrans0.ltrans.o
                                                  /tmp/cc7nikyl.ltrans2.ltrans.o
dma_streams_mask.10838                            /tmp/cc7nikyl.ltrans0.ltrans.o
                                                  /tmp/cc7nikyl.ltrans2.ltrans.o
endmem.6822                                       /tmp/cc7nikyl.ltrans0.ltrans.o
                                                  /tmp/cc7nikyl.ltrans2.ltrans.o
get.10200                                         /tmp/cc7nikyl.ltrans3.ltrans.o
gett.10196                                        /tmp/cc7nikyl.ltrans3.ltrans.o
gpsRxChar.15810                                   /tmp/cc7nikyl.ltrans1.ltrans.o
                                                  /tmp/cc7nikyl.ltrans0.ltrans.o
gpsRxEnd.15786                                    /tmp/cc7nikyl.ltrans1.ltrans.o
                                                  /tmp/cc7nikyl.ltrans0.ltrans.o
gpsRxErr.15789                                    /tmp/cc7nikyl.ltrans1.ltrans.o
                                                  /tmp/cc7nikyl.ltrans0.ltrans.o
gpsSem                                            /tmp/cc7nikyl.ltrans3.ltrans.o
                                                  /tmp/cc7nikyl.ltrans1.ltrans.o
gpsThread                                         /tmp/cc7nikyl.ltrans3.ltrans.o
                                                  /tmp/cc7nikyl.ltrans0.ltrans.o
gpsTxC.15783                                      /tmp/cc7nikyl.ltrans1.ltrans.o
                                                  /tmp/cc7nikyl.ltrans0.ltrans.o
gpsTxbufEnd.15780                                 /tmp/cc7nikyl.ltrans1.ltrans.o
                                                  /tmp/cc7nikyl.ltrans0.ltrans.o
i2c_lld_serve_error_interrupt.11412               /tmp/cc7nikyl.ltrans2.ltrans.o
                                                  /tmp/cc7nikyl.ltrans1.ltrans.o
i2c_lld_serve_event_interrupt.11409               /tmp/cc7nikyl.ltrans2.ltrans.o
                                                  /tmp/cc7nikyl.ltrans1.ltrans.o
i2c_lld_serve_rx_end_irq.11402                    /tmp/cc7nikyl.ltrans1.ltrans.o
                                                  /tmp/cc7nikyl.ltrans3.ltrans.o
i2c_lld_serve_tx_end_irq.11398                    /tmp/cc7nikyl.ltrans1.ltrans.o
                                                  /tmp/cc7nikyl.ltrans3.ltrans.o
i2c_lld_start                                     /tmp/cc7nikyl.ltrans3.ltrans.o
                                                  /tmp/cc7nikyl.ltrans4.ltrans.o
main                                              /tmp/cc7nikyl.ltrans0.ltrans.o
                                                  /tmp/cc7nikyl.ltrans4.ltrans.o
nextmem.6820                                      /tmp/cc7nikyl.ltrans0.ltrans.o
                                                  /tmp/cc7nikyl.ltrans2.ltrans.o
notify2.12013                                     /tmp/cc7nikyl.ltrans1.ltrans.o
                                                  /tmp/cc7nikyl.ltrans0.ltrans.o
notify6.12010                                     /tmp/cc7nikyl.ltrans1.ltrans.o
                                                  /tmp/cc7nikyl.ltrans0.ltrans.o
put.10208                                         /tmp/cc7nikyl.ltrans3.ltrans.o
putt.10203                                        /tmp/cc7nikyl.ltrans3.ltrans.o
read.10180                                        /tmp/cc7nikyl.ltrans3.ltrans.o
readt.10173                                       /tmp/cc7nikyl.ltrans3.ltrans.o
sdObjectInit.constprop.27                         /tmp/cc7nikyl.ltrans1.ltrans.o
                                                  /tmp/cc7nikyl.ltrans0.ltrans.o
sd_lld_start                                      /tmp/cc7nikyl.ltrans3.ltrans.o
                                                  /tmp/cc7nikyl.ltrans0.ltrans.o
sensorThread                                      /tmp/cc7nikyl.ltrans4.ltrans.o
                                                  /tmp/cc7nikyl.ltrans0.ltrans.o
si70x0_init.constprop.10                          /tmp/cc7nikyl.ltrans0.ltrans.o
                                                  /tmp/cc7nikyl.ltrans4.ltrans.o
strcpy                                            /usr/bin/../lib/gcc/arm-none-eabi/4.8.4/../../../../arm-none-eabi/lib/armv7e-m/fpu/libc.a(lib_a-strcpy.o)
                                                  /tmp/cc7nikyl.ltrans0.ltrans.o
strlen                                            /usr/bin/../lib/gcc/arm-none-eabi/4.8.4/../../../../arm-none-eabi/lib/armv7e-m/fpu/libc.a(lib_a-strlen.o)
                                                  /tmp/cc7nikyl.ltrans3.ltrans.o
strncmp                                           /usr/bin/../lib/gcc/arm-none-eabi/4.8.4/../../../../arm-none-eabi/lib/armv7e-m/fpu/libc.a(lib_a-strncmp.o)
                                                  /tmp/cc7nikyl.ltrans3.ltrans.o
tokBuf.15884                                      /tmp/cc7nikyl.ltrans3.ltrans.o
                                                  /tmp/cc7nikyl.ltrans1.ltrans.o
uStrCpy.constprop.4                               /tmp/cc7nikyl.ltrans1.ltrans.o
                                                  /tmp/cc7nikyl.ltrans3.ltrans.o
uStrInsertChar.constprop.3                        /tmp/cc7nikyl.ltrans1.ltrans.o
                                                  /tmp/cc7nikyl.ltrans3.ltrans.o
uStrPrependChar                                   /tmp/cc7nikyl.ltrans1.ltrans.o
                                                  /tmp/cc7nikyl.ltrans3.ltrans.o
uart_lld_serve_rx_end_irq.12164                   /tmp/cc7nikyl.ltrans1.ltrans.o
                                                  /tmp/cc7nikyl.ltrans0.ltrans.o
uart_lld_serve_tx_end_irq.12160                   /tmp/cc7nikyl.ltrans1.ltrans.o
                                                  /tmp/cc7nikyl.ltrans0.ltrans.o
usart_stop.12171                                  /tmp/cc7nikyl.ltrans1.ltrans.o
                                                  /tmp/cc7nikyl.ltrans3.ltrans.o
                                                  /tmp/cc7nikyl.ltrans0.ltrans.o
vmt.10284                                         /tmp/cc7nikyl.ltrans3.ltrans.o
                                                  /tmp/cc7nikyl.ltrans1.ltrans.o
wakeup.4718                                       /tmp/cc7nikyl.ltrans2.ltrans.o
                                                  /tmp/cc7nikyl.ltrans1.ltrans.o
write.10191                                       /tmp/cc7nikyl.ltrans3.ltrans.o
writet.10185                                      /tmp/cc7nikyl.ltrans3.ltrans.o
