Archive member included because of file (symbol)

/usr/bin/../lib/gcc/arm-none-eabi/4.8.4/armv7e-m/fpu/libgcc.a(_arm_addsubdf3.o)
                              /tmp/ccBGbIcp.ltrans0.ltrans.o (__aeabi_dsub)
/usr/bin/../lib/gcc/arm-none-eabi/4.8.4/armv7e-m/fpu/libgcc.a(_arm_muldivdf3.o)
                              /tmp/ccBGbIcp.ltrans0.ltrans.o (__aeabi_dmul)
/usr/bin/../lib/gcc/arm-none-eabi/4.8.4/armv7e-m/fpu/libgcc.a(_arm_fixdfsi.o)
                              /tmp/ccBGbIcp.ltrans0.ltrans.o (__aeabi_d2iz)
/usr/bin/../lib/gcc/arm-none-eabi/4.8.4/armv7e-m/fpu/libgcc.a(_arm_truncdfsf2.o)
                              /tmp/ccBGbIcp.ltrans0.ltrans.o (__aeabi_d2f)
/usr/bin/../lib/gcc/arm-none-eabi/4.8.4/../../../../arm-none-eabi/lib/armv7e-m/fpu/libc.a(lib_a-strcpy.o)
                              /tmp/ccBGbIcp.ltrans1.ltrans.o (strcpy)
/usr/bin/../lib/gcc/arm-none-eabi/4.8.4/../../../../arm-none-eabi/lib/armv7e-m/fpu/libc.a(lib_a-strlen.o)
                              /tmp/ccBGbIcp.ltrans2.ltrans.o (strlen)
/usr/bin/../lib/gcc/arm-none-eabi/4.8.4/../../../../arm-none-eabi/lib/armv7e-m/fpu/libc.a(lib_a-strncmp.o)
                              /tmp/ccBGbIcp.ltrans2.ltrans.o (strncmp)

Discarded input sections

 .data          0x0000000000000000        0x0 build/obj/chcoreasm_v7m.o
 .bss           0x0000000000000000        0x0 build/obj/chcoreasm_v7m.o
 .text          0x0000000000000000        0x0 build/obj/crt0.o (symbol from plugin)
 .text          0x0000000000000000        0x0 /tmp/ccBGbIcp.ltrans0.ltrans.o
 .data          0x0000000000000000        0x0 /tmp/ccBGbIcp.ltrans0.ltrans.o
 .bss           0x0000000000000000        0x0 /tmp/ccBGbIcp.ltrans0.ltrans.o
 .text          0x0000000000000000        0x0 /tmp/ccBGbIcp.ltrans1.ltrans.o
 .data          0x0000000000000000        0x0 /tmp/ccBGbIcp.ltrans1.ltrans.o
 .bss           0x0000000000000000        0x0 /tmp/ccBGbIcp.ltrans1.ltrans.o
 .text          0x0000000000000000        0x0 /tmp/ccBGbIcp.ltrans2.ltrans.o
 .data          0x0000000000000000        0x0 /tmp/ccBGbIcp.ltrans2.ltrans.o
 .bss           0x0000000000000000        0x0 /tmp/ccBGbIcp.ltrans2.ltrans.o
 .text          0x0000000000000000        0x0 /tmp/ccBGbIcp.ltrans3.ltrans.o
 .data          0x0000000000000000        0x0 /tmp/ccBGbIcp.ltrans3.ltrans.o
 .bss           0x0000000000000000        0x0 /tmp/ccBGbIcp.ltrans3.ltrans.o
 .data          0x0000000000000000        0x0 /usr/bin/../lib/gcc/arm-none-eabi/4.8.4/armv7e-m/fpu/libgcc.a(_arm_addsubdf3.o)
 .bss           0x0000000000000000        0x0 /usr/bin/../lib/gcc/arm-none-eabi/4.8.4/armv7e-m/fpu/libgcc.a(_arm_addsubdf3.o)
 .data          0x0000000000000000        0x0 /usr/bin/../lib/gcc/arm-none-eabi/4.8.4/armv7e-m/fpu/libgcc.a(_arm_muldivdf3.o)
 .bss           0x0000000000000000        0x0 /usr/bin/../lib/gcc/arm-none-eabi/4.8.4/armv7e-m/fpu/libgcc.a(_arm_muldivdf3.o)
 .data          0x0000000000000000        0x0 /usr/bin/../lib/gcc/arm-none-eabi/4.8.4/armv7e-m/fpu/libgcc.a(_arm_fixdfsi.o)
 .bss           0x0000000000000000        0x0 /usr/bin/../lib/gcc/arm-none-eabi/4.8.4/armv7e-m/fpu/libgcc.a(_arm_fixdfsi.o)
 .data          0x0000000000000000        0x0 /usr/bin/../lib/gcc/arm-none-eabi/4.8.4/armv7e-m/fpu/libgcc.a(_arm_truncdfsf2.o)
 .bss           0x0000000000000000        0x0 /usr/bin/../lib/gcc/arm-none-eabi/4.8.4/armv7e-m/fpu/libgcc.a(_arm_truncdfsf2.o)
 .text          0x0000000000000000        0x0 /usr/bin/../lib/gcc/arm-none-eabi/4.8.4/../../../../arm-none-eabi/lib/armv7e-m/fpu/libc.a(lib_a-strcpy.o)
 .data          0x0000000000000000        0x0 /usr/bin/../lib/gcc/arm-none-eabi/4.8.4/../../../../arm-none-eabi/lib/armv7e-m/fpu/libc.a(lib_a-strcpy.o)
 .bss           0x0000000000000000        0x0 /usr/bin/../lib/gcc/arm-none-eabi/4.8.4/../../../../arm-none-eabi/lib/armv7e-m/fpu/libc.a(lib_a-strcpy.o)
 .text          0x0000000000000000        0x0 /usr/bin/../lib/gcc/arm-none-eabi/4.8.4/../../../../arm-none-eabi/lib/armv7e-m/fpu/libc.a(lib_a-strlen.o)
 .data          0x0000000000000000        0x0 /usr/bin/../lib/gcc/arm-none-eabi/4.8.4/../../../../arm-none-eabi/lib/armv7e-m/fpu/libc.a(lib_a-strlen.o)
 .bss           0x0000000000000000        0x0 /usr/bin/../lib/gcc/arm-none-eabi/4.8.4/../../../../arm-none-eabi/lib/armv7e-m/fpu/libc.a(lib_a-strlen.o)
 .text          0x0000000000000000        0x0 /usr/bin/../lib/gcc/arm-none-eabi/4.8.4/../../../../arm-none-eabi/lib/armv7e-m/fpu/libc.a(lib_a-strncmp.o)
 .data          0x0000000000000000        0x0 /usr/bin/../lib/gcc/arm-none-eabi/4.8.4/../../../../arm-none-eabi/lib/armv7e-m/fpu/libc.a(lib_a-strncmp.o)
 .bss           0x0000000000000000        0x0 /usr/bin/../lib/gcc/arm-none-eabi/4.8.4/../../../../arm-none-eabi/lib/armv7e-m/fpu/libc.a(lib_a-strncmp.o)
 .text          0x0000000000000000        0x0 build/obj/vectors.o (symbol from plugin)
 .text          0x0000000000000000        0x0 build/obj/chcore.o (symbol from plugin)
 .text          0x0000000000000000        0x0 build/obj/chcore_v7m.o (symbol from plugin)
 .text          0x0000000000000000        0x0 build/obj/chsys.o (symbol from plugin)
 .text          0x0000000000000000        0x0 build/obj/chdebug.o (symbol from plugin)
 .text          0x0000000000000000        0x0 build/obj/chtm.o (symbol from plugin)
 .text          0x0000000000000000        0x0 build/obj/chstats.o (symbol from plugin)
 .text          0x0000000000000000        0x0 build/obj/chschd.o (symbol from plugin)
 .text          0x0000000000000000        0x0 build/obj/chvt.o (symbol from plugin)
 .text          0x0000000000000000        0x0 build/obj/chthreads.o (symbol from plugin)
 .text          0x0000000000000000        0x0 build/obj/chdynamic.o (symbol from plugin)
 .text          0x0000000000000000        0x0 build/obj/chregistry.o (symbol from plugin)
 .text          0x0000000000000000        0x0 build/obj/chsem.o (symbol from plugin)
 .text          0x0000000000000000        0x0 build/obj/chmtx.o (symbol from plugin)
 .text          0x0000000000000000        0x0 build/obj/chcond.o (symbol from plugin)
 .text          0x0000000000000000        0x0 build/obj/chevents.o (symbol from plugin)
 .text          0x0000000000000000        0x0 build/obj/chmsg.o (symbol from plugin)
 .text          0x0000000000000000        0x0 build/obj/chmboxes.o (symbol from plugin)
 .text          0x0000000000000000        0x0 build/obj/chqueues.o (symbol from plugin)
 .text          0x0000000000000000        0x0 build/obj/chmemcore.o (symbol from plugin)
 .text          0x0000000000000000        0x0 build/obj/chheap.o (symbol from plugin)
 .text          0x0000000000000000        0x0 build/obj/chmempools.o (symbol from plugin)
 .text          0x0000000000000000        0x0 build/obj/test.o (symbol from plugin)
 .text          0x0000000000000000        0x0 build/obj/testthd.o (symbol from plugin)
 .text          0x0000000000000000        0x0 build/obj/testsem.o (symbol from plugin)
 .text          0x0000000000000000        0x0 build/obj/testmtx.o (symbol from plugin)
 .text          0x0000000000000000        0x0 build/obj/testmsg.o (symbol from plugin)
 .text          0x0000000000000000        0x0 build/obj/testmbox.o (symbol from plugin)
 .text          0x0000000000000000        0x0 build/obj/testevt.o (symbol from plugin)
 .text          0x0000000000000000        0x0 build/obj/testheap.o (symbol from plugin)
 .text          0x0000000000000000        0x0 build/obj/testpools.o (symbol from plugin)
 .text          0x0000000000000000        0x0 build/obj/testdyn.o (symbol from plugin)
 .text          0x0000000000000000        0x0 build/obj/testqueues.o (symbol from plugin)
 .text          0x0000000000000000        0x0 build/obj/testbmk.o (symbol from plugin)
 .text          0x0000000000000000        0x0 build/obj/hal.o (symbol from plugin)
 .text          0x0000000000000000        0x0 build/obj/hal_queues.o (symbol from plugin)
 .text          0x0000000000000000        0x0 build/obj/hal_mmcsd.o (symbol from plugin)
 .text          0x0000000000000000        0x0 build/obj/adc.o (symbol from plugin)
 .text          0x0000000000000000        0x0 build/obj/can.o (symbol from plugin)
 .text          0x0000000000000000        0x0 build/obj/dac.o (symbol from plugin)
 .text          0x0000000000000000        0x0 build/obj/ext.o (symbol from plugin)
 .text          0x0000000000000000        0x0 build/obj/gpt.o (symbol from plugin)
 .text          0x0000000000000000        0x0 build/obj/i2c.o (symbol from plugin)
 .text          0x0000000000000000        0x0 build/obj/i2s.o (symbol from plugin)
 .text          0x0000000000000000        0x0 build/obj/icu.o (symbol from plugin)
 .text          0x0000000000000000        0x0 build/obj/mac.o (symbol from plugin)
 .text          0x0000000000000000        0x0 build/obj/mmc_spi.o (symbol from plugin)
 .text          0x0000000000000000        0x0 build/obj/pal.o (symbol from plugin)
 .text          0x0000000000000000        0x0 build/obj/pwm.o (symbol from plugin)
 .text          0x0000000000000000        0x0 build/obj/rtc.o (symbol from plugin)
 .text          0x0000000000000000        0x0 build/obj/sdc.o (symbol from plugin)
 .text          0x0000000000000000        0x0 build/obj/serial.o (symbol from plugin)
 .text          0x0000000000000000        0x0 build/obj/serial_usb.o (symbol from plugin)
 .text          0x0000000000000000        0x0 build/obj/spi.o (symbol from plugin)
 .text          0x0000000000000000        0x0 build/obj/st.o (symbol from plugin)
 .text          0x0000000000000000        0x0 build/obj/uart.o (symbol from plugin)
 .text          0x0000000000000000        0x0 build/obj/usb.o (symbol from plugin)
 .text          0x0000000000000000        0x0 build/obj/osal.o (symbol from plugin)
 .text          0x0000000000000000        0x0 build/obj/nvic.o (symbol from plugin)
 .text          0x0000000000000000        0x0 build/obj/stm32_dma.o (symbol from plugin)
 .text          0x0000000000000000        0x0 build/obj/hal_lld.o (symbol from plugin)
 .text          0x0000000000000000        0x0 build/obj/adc_lld.o (symbol from plugin)
 .text          0x0000000000000000        0x0 build/obj/ext_lld_isr.o (symbol from plugin)
 .text          0x0000000000000000        0x0 build/obj/can_lld.o (symbol from plugin)
 .text          0x0000000000000000        0x0 build/obj/ext_lld.o (symbol from plugin)
 .text          0x0000000000000000        0x0 build/obj/mac_lld.o (symbol from plugin)
 .text          0x0000000000000000        0x0 build/obj/sdc_lld.o (symbol from plugin)
 .text          0x0000000000000000        0x0 build/obj/dac_lld.o (symbol from plugin)
 .text          0x0000000000000000        0x0 build/obj/pal_lld.o (symbol from plugin)
 .text          0x0000000000000000        0x0 build/obj/i2c_lld.o (symbol from plugin)
 .text          0x0000000000000000        0x0 build/obj/usb_lld.o (symbol from plugin)
 .text          0x0000000000000000        0x0 build/obj/rtc_lld.o (symbol from plugin)
 .text          0x0000000000000000        0x0 build/obj/i2s_lld.o (symbol from plugin)
 .text          0x0000000000000000        0x0 build/obj/spi_lld.o (symbol from plugin)
 .text          0x0000000000000000        0x0 build/obj/gpt_lld.o (symbol from plugin)
 .text          0x0000000000000000        0x0 build/obj/icu_lld.o (symbol from plugin)
 .text          0x0000000000000000        0x0 build/obj/pwm_lld.o (symbol from plugin)
 .text          0x0000000000000000        0x0 build/obj/st_lld.o (symbol from plugin)
 .text          0x0000000000000000        0x0 build/obj/serial_lld.o (symbol from plugin)
 .text          0x0000000000000000        0x0 build/obj/uart_lld.o (symbol from plugin)
 .text          0x0000000000000000        0x0 build/obj/board.o (symbol from plugin)
 .text          0x0000000000000000        0x0 build/obj/fatfs_diskio.o (symbol from plugin)
 .text          0x0000000000000000        0x0 build/obj/fatfs_syscall.o (symbol from plugin)
 .text          0x0000000000000000        0x0 build/obj/ff.o (symbol from plugin)
 .text          0x0000000000000000        0x0 build/obj/unicode.o (symbol from plugin)
 .text          0x0000000000000000        0x0 build/obj/chprintf.o (symbol from plugin)
 .text          0x0000000000000000        0x0 build/obj/memstreams.o (symbol from plugin)
 .text          0x0000000000000000        0x0 build/obj/i2c_sensor.o (symbol from plugin)
 .text          0x0000000000000000        0x0 build/obj/bmp280.o (symbol from plugin)
 .text          0x0000000000000000        0x0 build/obj/si70x0.o (symbol from plugin)
 .text          0x0000000000000000        0x0 build/obj/ms5607.o (symbol from plugin)
 .text          0x0000000000000000        0x0 build/obj/hih6030.o (symbol from plugin)
 .text          0x0000000000000000        0x0 build/obj/lsm303.o (symbol from plugin)
 .text          0x0000000000000000        0x0 build/obj/rfm23bp.o (symbol from plugin)
 .text          0x0000000000000000        0x0 build/obj/rtd.o (symbol from plugin)
 .text          0x0000000000000000        0x0 build/obj/tmp275.o (symbol from plugin)
 .text          0x0000000000000000        0x0 build/obj/mpxm2102.o (symbol from plugin)
 .text          0x0000000000000000        0x0 build/obj/xbeepro.o (symbol from plugin)
 .text          0x0000000000000000        0x0 build/obj/datasample.o (symbol from plugin)
 .text          0x0000000000000000        0x0 build/obj/sensor_thread.o (symbol from plugin)
 .text          0x0000000000000000        0x0 build/obj/ustr.o (symbol from plugin)
 .text          0x0000000000000000        0x0 build/obj/umath.o (symbol from plugin)
 .text          0x0000000000000000        0x0 build/obj/gps.o (symbol from plugin)
 .text          0x0000000000000000        0x0 build/obj/sdmmcsimple.o (symbol from plugin)
 .text          0x0000000000000000        0x0 build/obj/datalogger.o (symbol from plugin)
 .text          0x0000000000000000        0x0 build/obj/main.o (symbol from plugin)

Memory Configuration

Name             Origin             Length             Attributes
flash            0x0000000008000000 0x0000000000040000
ram              0x0000000020000000 0x0000000000010000
*default*        0x0000000000000000 0xffffffffffffffff

Linker script and memory map

LOAD build/obj/chcoreasm_v7m.o
LOAD build/obj/crt0.o
LOAD /tmp/ccBGbIcp.ltrans0.ltrans.o
LOAD /tmp/ccBGbIcp.ltrans1.ltrans.o
LOAD /tmp/ccBGbIcp.ltrans2.ltrans.o
LOAD /tmp/ccBGbIcp.ltrans3.ltrans.o
LOAD /usr/bin/../lib/gcc/arm-none-eabi/4.8.4/armv7e-m/fpu/libgcc.a
LOAD /usr/bin/../lib/gcc/arm-none-eabi/4.8.4/../../../../arm-none-eabi/lib/armv7e-m/fpu/libc.a
LOAD build/obj/vectors.o
LOAD build/obj/chcore.o
LOAD build/obj/chcore_v7m.o
LOAD build/obj/chsys.o
LOAD build/obj/chdebug.o
LOAD build/obj/chtm.o
LOAD build/obj/chstats.o
LOAD build/obj/chschd.o
LOAD build/obj/chvt.o
LOAD build/obj/chthreads.o
LOAD build/obj/chdynamic.o
LOAD build/obj/chregistry.o
LOAD build/obj/chsem.o
LOAD build/obj/chmtx.o
LOAD build/obj/chcond.o
LOAD build/obj/chevents.o
LOAD build/obj/chmsg.o
LOAD build/obj/chmboxes.o
LOAD build/obj/chqueues.o
LOAD build/obj/chmemcore.o
LOAD build/obj/chheap.o
LOAD build/obj/chmempools.o
LOAD build/obj/test.o
LOAD build/obj/testthd.o
LOAD build/obj/testsem.o
LOAD build/obj/testmtx.o
LOAD build/obj/testmsg.o
LOAD build/obj/testmbox.o
LOAD build/obj/testevt.o
LOAD build/obj/testheap.o
LOAD build/obj/testpools.o
LOAD build/obj/testdyn.o
LOAD build/obj/testqueues.o
LOAD build/obj/testbmk.o
LOAD build/obj/hal.o
LOAD build/obj/hal_queues.o
LOAD build/obj/hal_mmcsd.o
LOAD build/obj/adc.o
LOAD build/obj/can.o
LOAD build/obj/dac.o
LOAD build/obj/ext.o
LOAD build/obj/gpt.o
LOAD build/obj/i2c.o
LOAD build/obj/i2s.o
LOAD build/obj/icu.o
LOAD build/obj/mac.o
LOAD build/obj/mmc_spi.o
LOAD build/obj/pal.o
LOAD build/obj/pwm.o
LOAD build/obj/rtc.o
LOAD build/obj/sdc.o
LOAD build/obj/serial.o
LOAD build/obj/serial_usb.o
LOAD build/obj/spi.o
LOAD build/obj/st.o
LOAD build/obj/uart.o
LOAD build/obj/usb.o
LOAD build/obj/osal.o
LOAD build/obj/nvic.o
LOAD build/obj/stm32_dma.o
LOAD build/obj/hal_lld.o
LOAD build/obj/adc_lld.o
LOAD build/obj/ext_lld_isr.o
LOAD build/obj/can_lld.o
LOAD build/obj/ext_lld.o
LOAD build/obj/mac_lld.o
LOAD build/obj/sdc_lld.o
LOAD build/obj/dac_lld.o
LOAD build/obj/pal_lld.o
LOAD build/obj/i2c_lld.o
LOAD build/obj/usb_lld.o
LOAD build/obj/rtc_lld.o
LOAD build/obj/i2s_lld.o
LOAD build/obj/spi_lld.o
LOAD build/obj/gpt_lld.o
LOAD build/obj/icu_lld.o
LOAD build/obj/pwm_lld.o
LOAD build/obj/st_lld.o
LOAD build/obj/serial_lld.o
LOAD build/obj/uart_lld.o
LOAD build/obj/board.o
LOAD build/obj/fatfs_diskio.o
LOAD build/obj/fatfs_syscall.o
LOAD build/obj/ff.o
LOAD build/obj/unicode.o
LOAD build/obj/chprintf.o
LOAD build/obj/memstreams.o
LOAD build/obj/i2c_sensor.o
LOAD build/obj/bmp280.o
LOAD build/obj/si70x0.o
LOAD build/obj/ms5607.o
LOAD build/obj/hih6030.o
LOAD build/obj/lsm303.o
LOAD build/obj/rfm23bp.o
LOAD build/obj/rtd.o
LOAD build/obj/tmp275.o
LOAD build/obj/mpxm2102.o
LOAD build/obj/xbeepro.o
LOAD build/obj/datasample.o
LOAD build/obj/sensor_thread.o
LOAD build/obj/ustr.o
LOAD build/obj/umath.o
LOAD build/obj/gps.o
LOAD build/obj/sdmmcsimple.o
LOAD build/obj/datalogger.o
LOAD build/obj/main.o
                0x0000000020000000                __ram_start__ = ORIGIN (ram)
                0x0000000000010000                __ram_size__ = 0x10000
                0x0000000020010000                __ram_end__ = (__ram_start__ + __ram_size__)
                0x0000000000000000                . = 0x0
                0x0000000000000000                _text = .

startup         0x0000000008000000      0x1c0
 *(vectors)
 vectors        0x0000000008000000      0x1c0 /tmp/ccBGbIcp.ltrans3.ltrans.o
                0x0000000008000000                _vectors

constructors    0x00000000080001c0        0x0
                0x00000000080001c0                PROVIDE (__init_array_start, .)
 *(SORT(.init_array.*))
 *(.init_array)
                0x00000000080001c0                PROVIDE (__init_array_end, .)

destructors     0x00000000080001c0        0x0
                0x00000000080001c0                PROVIDE (__fini_array_start, .)
 *(.fini_array)
 *(SORT(.fini_array.*))
                0x00000000080001c0                PROVIDE (__fini_array_end, .)

.text           0x00000000080001c0     0x452c
 *(.text.startup.*)
 .text.startup.main
                0x00000000080001c0      0x860 /tmp/ccBGbIcp.ltrans1.ltrans.o
                0x00000000080001c0                main
 *(.text)
 .text          0x0000000008000a20       0x2e build/obj/chcoreasm_v7m.o
                0x0000000008000a20                _port_switch
                0x0000000008000a38                _port_thread_start
                0x0000000008000a46                _port_switch_from_isr
                0x0000000008000a4a                _port_exit_from_isr
 *fill*         0x0000000008000a4e        0x2 
 .text          0x0000000008000a50      0x370 /usr/bin/../lib/gcc/arm-none-eabi/4.8.4/armv7e-m/fpu/libgcc.a(_arm_addsubdf3.o)
                0x0000000008000a50                __aeabi_drsub
                0x0000000008000a58                __aeabi_dsub
                0x0000000008000a58                __subdf3
                0x0000000008000a5c                __adddf3
                0x0000000008000a5c                __aeabi_dadd
                0x0000000008000cd4                __aeabi_ui2d
                0x0000000008000cd4                __floatunsidf
                0x0000000008000cf4                __floatsidf
                0x0000000008000cf4                __aeabi_i2d
                0x0000000008000d18                __extendsfdf2
                0x0000000008000d18                __aeabi_f2d
                0x0000000008000d54                __aeabi_ul2d
                0x0000000008000d54                __floatundidf
                0x0000000008000d64                __floatdidf
                0x0000000008000d64                __aeabi_l2d
 .text          0x0000000008000dc0      0x424 /usr/bin/../lib/gcc/arm-none-eabi/4.8.4/armv7e-m/fpu/libgcc.a(_arm_muldivdf3.o)
                0x0000000008000dc0                __aeabi_dmul
                0x0000000008000dc0                __muldf3
                0x0000000008001014                __aeabi_ddiv
                0x0000000008001014                __divdf3
 *fill*         0x00000000080011e4        0xc 
 .text          0x00000000080011f0       0x50 /usr/bin/../lib/gcc/arm-none-eabi/4.8.4/armv7e-m/fpu/libgcc.a(_arm_fixdfsi.o)
                0x00000000080011f0                __fixdfsi
                0x00000000080011f0                __aeabi_d2iz
 .text          0x0000000008001240       0xa0 /usr/bin/../lib/gcc/arm-none-eabi/4.8.4/armv7e-m/fpu/libgcc.a(_arm_truncdfsf2.o)
                0x0000000008001240                __aeabi_d2f
                0x0000000008001240                __truncdfsf2
 *(.text.*)
 .text.gpsRxErr.15990
                0x00000000080012e0       0x10 /tmp/ccBGbIcp.ltrans0.ltrans.o
                0x00000000080012e0                gpsRxErr.15990
 .text.gpsRxEnd.15987
                0x00000000080012f0       0x10 /tmp/ccBGbIcp.ltrans0.ltrans.o
                0x00000000080012f0                gpsRxEnd.15987
 .text.gpsTxC.15984
                0x0000000008001300       0x10 /tmp/ccBGbIcp.ltrans0.ltrans.o
                0x0000000008001300                gpsTxC.15984
 .text.gpsTxbufEnd.15981
                0x0000000008001310       0x10 /tmp/ccBGbIcp.ltrans0.ltrans.o
                0x0000000008001310                gpsTxbufEnd.15981
 .text.long_to_string_with_divisor.13045.4435
                0x0000000008001320       0x50 /tmp/ccBGbIcp.ltrans0.ltrans.o
 .text.chvprintf.4421
                0x0000000008001370      0x3a0 /tmp/ccBGbIcp.ltrans0.ltrans.o
 .text.notify6.12010
                0x0000000008001710       0x10 /tmp/ccBGbIcp.ltrans0.ltrans.o
                0x0000000008001710                notify6.12010
 .text.notify2.12013
                0x0000000008001720       0x10 /tmp/ccBGbIcp.ltrans0.ltrans.o
                0x0000000008001720                notify2.12013
 .text.adc_lld_stop_conversion.4532
                0x0000000008001730       0x40 /tmp/ccBGbIcp.ltrans0.ltrans.o
 .text.chCoreAlloc
                0x0000000008001770       0x40 /tmp/ccBGbIcp.ltrans0.ltrans.o
                0x0000000008001770                chCoreAlloc
 .text.wakeup.4718
                0x00000000080017b0       0x70 /tmp/ccBGbIcp.ltrans0.ltrans.o
                0x00000000080017b0                wakeup.4718
 .text._idle_thread.4338
                0x0000000008001820       0x20 /tmp/ccBGbIcp.ltrans0.ltrans.o
                0x0000000008001820                _idle_thread.4338
 .text.SVC_Handler
                0x0000000008001840       0x20 /tmp/ccBGbIcp.ltrans0.ltrans.o
                0x0000000008001840                SVC_Handler
 .text.chSchWakeupS.constprop.36
                0x0000000008001860       0x60 /tmp/ccBGbIcp.ltrans0.ltrans.o
                0x0000000008001860                chSchWakeupS.constprop.36
 .text.chTMStartMeasurementX.constprop.30
                0x00000000080018c0       0x10 /tmp/ccBGbIcp.ltrans0.ltrans.o
                0x00000000080018c0                chTMStartMeasurementX.constprop.30
 .text.sdObjectInit.constprop.25
                0x00000000080018d0       0x70 /tmp/ccBGbIcp.ltrans0.ltrans.o
                0x00000000080018d0                sdObjectInit.constprop.25
 .text.chprintf.13294.constprop.12
                0x0000000008001940       0x30 /tmp/ccBGbIcp.ltrans0.ltrans.o
                0x0000000008001940                chprintf.13294.constprop.12
 .text.I2CSensor_init
                0x0000000008001970       0x60 /tmp/ccBGbIcp.ltrans0.ltrans.o
                0x0000000008001970                I2CSensor_init
 .text.chprintf.15614.constprop.5
                0x00000000080019d0       0x30 /tmp/ccBGbIcp.ltrans0.ltrans.o
                0x00000000080019d0                chprintf.15614.constprop.5
 .text.uStrCpy.constprop.4
                0x0000000008001a00       0x40 /tmp/ccBGbIcp.ltrans0.ltrans.o
                0x0000000008001a00                uStrCpy.constprop.4
 .text.uStrInsertChar.constprop.3
                0x0000000008001a40       0x40 /tmp/ccBGbIcp.ltrans0.ltrans.o
                0x0000000008001a40                uStrInsertChar.constprop.3
 .text.chprintf.15997.constprop.1
                0x0000000008001a80       0x30 /tmp/ccBGbIcp.ltrans0.ltrans.o
                0x0000000008001a80                chprintf.15997.constprop.1
 .text.chprintf.17224
                0x0000000008001ab0       0x20 /tmp/ccBGbIcp.ltrans0.ltrans.o
                0x0000000008001ab0                chprintf.17224
 .text.uStrPrependChar
                0x0000000008001ad0       0x30 /tmp/ccBGbIcp.ltrans0.ltrans.o
                0x0000000008001ad0                uStrPrependChar
 .text.usart_stop.12171
                0x0000000008001b00       0x50 /tmp/ccBGbIcp.ltrans0.ltrans.o
                0x0000000008001b00                usart_stop.12171
 .text.dmaStreamRelease
                0x0000000008001b50       0x70 /tmp/ccBGbIcp.ltrans0.ltrans.o
                0x0000000008001b50                dmaStreamRelease
 .text.dmaStreamAllocate
                0x0000000008001bc0       0xc0 /tmp/ccBGbIcp.ltrans0.ltrans.o
                0x0000000008001bc0                dmaStreamAllocate
 .text.chSchDoRescheduleAhead
                0x0000000008001c80       0x40 /tmp/ccBGbIcp.ltrans0.ltrans.o
                0x0000000008001c80                chSchDoRescheduleAhead
 .text.chSchRescheduleS
                0x0000000008001cc0       0x20 /tmp/ccBGbIcp.ltrans0.ltrans.o
                0x0000000008001cc0                chSchRescheduleS
 .text.chSchGoSleepS
                0x0000000008001ce0       0x30 /tmp/ccBGbIcp.ltrans0.ltrans.o
                0x0000000008001ce0                chSchGoSleepS
 .text._port_irq_epilogue
                0x0000000008001d10       0x70 /tmp/ccBGbIcp.ltrans0.ltrans.o
                0x0000000008001d10                _port_irq_epilogue
 .text.VectorD4
                0x0000000008001d80       0x70 /tmp/ccBGbIcp.ltrans0.ltrans.o
                0x0000000008001d80                VectorD4
 .text.Vector158
                0x0000000008001df0       0x30 /tmp/ccBGbIcp.ltrans0.ltrans.o
                0x0000000008001df0                Vector158
 .text.Vector154
                0x0000000008001e20       0x30 /tmp/ccBGbIcp.ltrans0.ltrans.o
                0x0000000008001e20                Vector154
 .text.Vector150
                0x0000000008001e50       0x30 /tmp/ccBGbIcp.ltrans0.ltrans.o
                0x0000000008001e50                Vector150
 .text.Vector130
                0x0000000008001e80       0x30 /tmp/ccBGbIcp.ltrans0.ltrans.o
                0x0000000008001e80                Vector130
 .text.Vector12C
                0x0000000008001eb0       0x30 /tmp/ccBGbIcp.ltrans0.ltrans.o
                0x0000000008001eb0                Vector12C
 .text.Vector128
                0x0000000008001ee0       0x30 /tmp/ccBGbIcp.ltrans0.ltrans.o
                0x0000000008001ee0                Vector128
 .text.Vector124
                0x0000000008001f10       0x30 /tmp/ccBGbIcp.ltrans0.ltrans.o
                0x0000000008001f10                Vector124
 .text.Vector120
                0x0000000008001f40       0x30 /tmp/ccBGbIcp.ltrans0.ltrans.o
                0x0000000008001f40                Vector120
 .text.VectorFC
                0x0000000008001f70       0x30 /tmp/ccBGbIcp.ltrans0.ltrans.o
                0x0000000008001f70                VectorFC
 .text.Vector84
                0x0000000008001fa0       0x30 /tmp/ccBGbIcp.ltrans0.ltrans.o
                0x0000000008001fa0                Vector84
 .text.Vector80
                0x0000000008001fd0       0x30 /tmp/ccBGbIcp.ltrans0.ltrans.o
                0x0000000008001fd0                Vector80
 .text.Vector7C
                0x0000000008002000       0x30 /tmp/ccBGbIcp.ltrans0.ltrans.o
                0x0000000008002000                Vector7C
 .text.Vector78
                0x0000000008002030       0x30 /tmp/ccBGbIcp.ltrans0.ltrans.o
                0x0000000008002030                Vector78
 .text.Vector74
                0x0000000008002060       0x30 /tmp/ccBGbIcp.ltrans0.ltrans.o
                0x0000000008002060                Vector74
 .text.Vector70
                0x0000000008002090       0x30 /tmp/ccBGbIcp.ltrans0.ltrans.o
                0x0000000008002090                Vector70
 .text.Vector6C
                0x00000000080020c0       0x30 /tmp/ccBGbIcp.ltrans0.ltrans.o
                0x00000000080020c0                Vector6C
 .text.chSchReadyI
                0x00000000080020f0       0x30 /tmp/ccBGbIcp.ltrans0.ltrans.o
                0x00000000080020f0                chSchReadyI
 .text.gpsRxChar.16011
                0x0000000008002120       0x90 /tmp/ccBGbIcp.ltrans0.ltrans.o
                0x0000000008002120                gpsRxChar.16011
 .text.chEvtBroadcastFlagsI
                0x00000000080021b0       0x60 /tmp/ccBGbIcp.ltrans0.ltrans.o
                0x00000000080021b0                chEvtBroadcastFlagsI
 .text.chMtxLockS
                0x0000000008002210       0xd0 /tmp/ccBGbIcp.ltrans0.ltrans.o
                0x0000000008002210                chMtxLockS
 .text.chThdResumeI.4609
                0x00000000080022e0       0x20 /tmp/ccBGbIcp.ltrans0.ltrans.o
 .text.i2c_lld_serve_rx_end_irq.11402
                0x0000000008002300       0x70 /tmp/ccBGbIcp.ltrans0.ltrans.o
                0x0000000008002300                i2c_lld_serve_rx_end_irq.11402
 .text.i2c_lld_serve_error_interrupt.11412.4459
                0x0000000008002370       0xb0 /tmp/ccBGbIcp.ltrans0.ltrans.o
 .text.Vector164
                0x0000000008002420       0x30 /tmp/ccBGbIcp.ltrans0.ltrans.o
                0x0000000008002420                Vector164
 .text.VectorC0
                0x0000000008002450       0x30 /tmp/ccBGbIcp.ltrans0.ltrans.o
                0x0000000008002450                VectorC0
 .text.i2c_lld_serve_event_interrupt.11409.4463
                0x0000000008002480      0x100 /tmp/ccBGbIcp.ltrans0.ltrans.o
 .text.Vector160
                0x0000000008002580       0x20 /tmp/ccBGbIcp.ltrans0.ltrans.o
                0x0000000008002580                Vector160
 .text.VectorBC
                0x00000000080025a0       0x20 /tmp/ccBGbIcp.ltrans0.ltrans.o
                0x00000000080025a0                VectorBC
 .text.Vector88
                0x00000000080025c0       0x70 /tmp/ccBGbIcp.ltrans0.ltrans.o
                0x00000000080025c0                Vector88
 .text.adc_lld_serve_rx_interrupt.11091
                0x0000000008002630       0xd0 /tmp/ccBGbIcp.ltrans0.ltrans.o
                0x0000000008002630                adc_lld_serve_rx_interrupt.11091
 .text.chTMStopMeasurementX
                0x0000000008002700       0x50 /tmp/ccBGbIcp.ltrans0.ltrans.o
                0x0000000008002700                chTMStopMeasurementX
 .text._unhandled_exception.4643
                0x0000000008002750       0x10 /tmp/ccBGbIcp.ltrans0.ltrans.o
                0x0000000008002750                Vector58
                0x0000000008002750                VectorE8
                0x0000000008002750                Vector9C
                0x0000000008002750                VectorAC
                0x0000000008002750                DebugMon_Handler
                0x0000000008002750                Vector1A0
                0x0000000008002750                Vector5C
                0x0000000008002750                Vector11C
                0x0000000008002750                HardFault_Handler
                0x0000000008002750                Vector1B8
                0x0000000008002750                Vector19C
                0x0000000008002750                Vector8C
                0x0000000008002750                SysTick_Handler
                0x0000000008002750                VectorDC
                0x0000000008002750                PendSV_Handler
                0x0000000008002750                Vector168
                0x0000000008002750                NMI_Handler
                0x0000000008002750                Vector110
                0x0000000008002750                VectorC8
                0x0000000008002750                Vector94
                0x0000000008002750                VectorA8
                0x0000000008002750                VectorB4
                0x0000000008002750                Vector1B0
                0x0000000008002750                UsageFault_Handler
                0x0000000008002750                VectorEC
                0x0000000008002750                Vector40
                0x0000000008002750                VectorF8
                0x0000000008002750                Vector108
                0x0000000008002750                Vector190
                0x0000000008002750                Vector148
                0x0000000008002750                Vector188
                0x0000000008002750                Vector198
                0x0000000008002750                Vector118
                0x0000000008002750                Vector64
                0x0000000008002750                VectorCC
                0x0000000008002750                Vector54
                0x0000000008002750                Vector98
                0x0000000008002750                Vector138
                0x0000000008002750                Vector24
                0x0000000008002750                Vector1AC
                0x0000000008002750                Vector178
                0x0000000008002750                Vector1A4
                0x0000000008002750                VectorD0
                0x0000000008002750                Vector1B4
                0x0000000008002750                Vector140
                0x0000000008002750                VectorE4
                0x0000000008002750                Vector134
                0x0000000008002750                VectorF0
                0x0000000008002750                Vector13C
                0x0000000008002750                Vector100
                0x0000000008002750                VectorE0
                0x0000000008002750                VectorF4
                0x0000000008002750                MemManage_Handler
                0x0000000008002750                VectorA0
                0x0000000008002750                VectorC4
                0x0000000008002750                Vector180
                0x0000000008002750                Vector90
                0x0000000008002750                Vector114
                0x0000000008002750                Vector60
                0x0000000008002750                Vector1C
                0x0000000008002750                Vector1BC
                0x0000000008002750                Vector17C
                0x0000000008002750                Vector48
                0x0000000008002750                Vector1A8
                0x0000000008002750                Vector16C
                0x0000000008002750                Vector4C
                0x0000000008002750                Vector144
                0x0000000008002750                Vector68
                0x0000000008002750                Vector170
                0x0000000008002750                Vector104
                0x0000000008002750                Vector184
                0x0000000008002750                Vector10C
                0x0000000008002750                Vector14C
                0x0000000008002750                BusFault_Handler
                0x0000000008002750                Vector50
                0x0000000008002750                Vector194
                0x0000000008002750                Vector44
                0x0000000008002750                Vector28
                0x0000000008002750                VectorB8
                0x0000000008002750                Vector34
                0x0000000008002750                VectorA4
                0x0000000008002750                Vector20
                0x0000000008002750                Vector18C
                0x0000000008002750                Vector174
 .text.i2c_lld_serve_tx_end_irq.11398
                0x0000000008002760       0x50 /tmp/ccBGbIcp.ltrans1.ltrans.o
                0x0000000008002760                i2c_lld_serve_tx_end_irq.11398
 .text.uart_lld_serve_rx_end_irq.12164.4442
                0x00000000080027b0       0x90 /tmp/ccBGbIcp.ltrans1.ltrans.o
 .text.uart_lld_serve_tx_end_irq.12160.4446
                0x0000000008002840       0x60 /tmp/ccBGbIcp.ltrans1.ltrans.o
 .text.I2CSensor_transact
                0x00000000080028a0      0x130 /tmp/ccBGbIcp.ltrans1.ltrans.o
                0x00000000080028a0                I2CSensor_transact
 .text.I2CSensor_transact_buf
                0x00000000080029d0       0x20 /tmp/ccBGbIcp.ltrans1.ltrans.o
                0x00000000080029d0                I2CSensor_transact_buf
 .text.si70x0_init
                0x00000000080029f0       0x90 /tmp/ccBGbIcp.ltrans1.ltrans.o
                0x00000000080029f0                si70x0_init
 .text.si70x0_heaterEnable
                0x0000000008002a80       0x50 /tmp/ccBGbIcp.ltrans1.ltrans.o
                0x0000000008002a80                si70x0_heaterEnable
 .text.si70x0_readTemperature
                0x0000000008002ad0       0x60 /tmp/ccBGbIcp.ltrans1.ltrans.o
                0x0000000008002ad0                si70x0_readTemperature
 .text.si70x0_readHumidity
                0x0000000008002b30       0x70 /tmp/ccBGbIcp.ltrans1.ltrans.o
                0x0000000008002b30                si70x0_readHumidity
 .text.chThdSleep
                0x0000000008002ba0       0x20 /tmp/ccBGbIcp.ltrans1.ltrans.o
                0x0000000008002ba0                chThdSleep
 .text.VectorB0
                0x0000000008002bc0       0x90 /tmp/ccBGbIcp.ltrans2.ltrans.o
                0x0000000008002bc0                VectorB0
 .text.chSchGoSleepTimeoutS
                0x0000000008002c50       0xe0 /tmp/ccBGbIcp.ltrans2.ltrans.o
                0x0000000008002c50                chSchGoSleepTimeoutS
 .text.chThdSleepUntil
                0x0000000008002d30       0x20 /tmp/ccBGbIcp.ltrans2.ltrans.o
                0x0000000008002d30                chThdSleepUntil
 .text.chThdEnqueueTimeoutS.4305
                0x0000000008002d50       0x30 /tmp/ccBGbIcp.ltrans2.ltrans.o
 .text.chIQGetTimeout.4250
                0x0000000008002d80       0x50 /tmp/ccBGbIcp.ltrans2.ltrans.o
 .text.gett.10196
                0x0000000008002dd0       0x10 /tmp/ccBGbIcp.ltrans2.ltrans.o
                0x0000000008002dd0                gett.10196
 .text.get.10200
                0x0000000008002de0       0x10 /tmp/ccBGbIcp.ltrans2.ltrans.o
                0x0000000008002de0                get.10200
 .text.chIQReadTimeout.4265
                0x0000000008002df0       0x80 /tmp/ccBGbIcp.ltrans2.ltrans.o
 .text.readt.10173
                0x0000000008002e70       0x10 /tmp/ccBGbIcp.ltrans2.ltrans.o
                0x0000000008002e70                readt.10173
 .text.read.10180
                0x0000000008002e80       0x10 /tmp/ccBGbIcp.ltrans2.ltrans.o
                0x0000000008002e80                read.10180
 .text.chOQPutTimeout.4280
                0x0000000008002e90       0x50 /tmp/ccBGbIcp.ltrans2.ltrans.o
 .text.putt.10203
                0x0000000008002ee0       0x10 /tmp/ccBGbIcp.ltrans2.ltrans.o
                0x0000000008002ee0                putt.10203
 .text.put.10208
                0x0000000008002ef0       0x10 /tmp/ccBGbIcp.ltrans2.ltrans.o
                0x0000000008002ef0                put.10208
 .text.chOQWriteTimeout.4299
                0x0000000008002f00       0x80 /tmp/ccBGbIcp.ltrans2.ltrans.o
 .text.writet.10185
                0x0000000008002f80       0x10 /tmp/ccBGbIcp.ltrans2.ltrans.o
                0x0000000008002f80                writet.10185
 .text.write.10191
                0x0000000008002f90       0x10 /tmp/ccBGbIcp.ltrans2.ltrans.o
                0x0000000008002f90                write.10191
 .text.sd_lld_start
                0x0000000008002fa0       0xd0 /tmp/ccBGbIcp.ltrans2.ltrans.o
                0x0000000008002fa0                sd_lld_start
 .text.i2c_lld_start
                0x0000000008003070      0x200 /tmp/ccBGbIcp.ltrans2.ltrans.o
                0x0000000008003070                i2c_lld_start
 .text.chThdCreateStatic
                0x0000000008003270       0x80 /tmp/ccBGbIcp.ltrans2.ltrans.o
                0x0000000008003270                chThdCreateStatic
 .text.chMtxUnlock
                0x00000000080032f0       0x60 /tmp/ccBGbIcp.ltrans2.ltrans.o
                0x00000000080032f0                chMtxUnlock
 .text.gpsThread
                0x0000000008003350      0x3f0 /tmp/ccBGbIcp.ltrans2.ltrans.o
                0x0000000008003350                gpsThread
 .text.sensorThread
                0x0000000008003740      0x6c0 /tmp/ccBGbIcp.ltrans3.ltrans.o
                0x0000000008003740                sensorThread
 .text.serve_interrupt.12020.4423
                0x0000000008003e00      0x1a0 /tmp/ccBGbIcp.ltrans3.ltrans.o
 .text.Vector15C.4418
                0x0000000008003fa0       0x20 /tmp/ccBGbIcp.ltrans3.ltrans.o
 .text.VectorD8.4421
                0x0000000008003fc0       0x20 /tmp/ccBGbIcp.ltrans3.ltrans.o
 .text.Reset_Handler
                0x0000000008003fe0      0x1c0 /tmp/ccBGbIcp.ltrans3.ltrans.o
                0x0000000008003fe0                Reset_Handler
 .text.chThdExit
                0x00000000080041a0       0x50 /tmp/ccBGbIcp.ltrans3.ltrans.o
                0x00000000080041a0                chThdExit
 .text.chSchDoReschedule
                0x00000000080041f0       0x10 /tmp/ccBGbIcp.ltrans3.ltrans.o
                0x00000000080041f0                chSchDoReschedule
 .text.strcpy   0x0000000008004200       0xbc /usr/bin/../lib/gcc/arm-none-eabi/4.8.4/../../../../arm-none-eabi/lib/armv7e-m/fpu/libc.a(lib_a-strcpy.o)
                0x0000000008004200                strcpy
 *fill*         0x00000000080042bc        0x4 
 .text.strlen   0x00000000080042c0       0x60 /usr/bin/../lib/gcc/arm-none-eabi/4.8.4/../../../../arm-none-eabi/lib/armv7e-m/fpu/libc.a(lib_a-strlen.o)
                0x00000000080042c0                strlen
 .text.strncmp  0x0000000008004320       0xb4 /usr/bin/../lib/gcc/arm-none-eabi/4.8.4/../../../../arm-none-eabi/lib/armv7e-m/fpu/libc.a(lib_a-strncmp.o)
                0x0000000008004320                strncmp
 *(.rodata)
 *fill*         0x00000000080043d4        0xc 
 .rodata        0x00000000080043e0        0xc /tmp/ccBGbIcp.ltrans1.ltrans.o
 *fill*         0x00000000080043ec        0x4 
 .rodata        0x00000000080043f0       0x18 /tmp/ccBGbIcp.ltrans3.ltrans.o
 *(.rodata.*)
 *fill*         0x0000000008004408        0x8 
 .rodata.str1.4
                0x0000000008004410       0x40 /tmp/ccBGbIcp.ltrans0.ltrans.o
 .rodata.pow10.13096.4834
                0x0000000008004450       0x24 /tmp/ccBGbIcp.ltrans0.ltrans.o
 *fill*         0x0000000008004474        0xc 
 .rodata.str1.4
                0x0000000008004480       0x77 /tmp/ccBGbIcp.ltrans1.ltrans.o
                                         0x88 (size before relaxing)
 *fill*         0x00000000080044f7        0x9 
 .rodata.ch_debug
                0x0000000008004500       0x18 /tmp/ccBGbIcp.ltrans1.ltrans.o
 *fill*         0x0000000008004518        0x8 
 .rodata._stm32_dma_streams
                0x0000000008004520       0xc0 /tmp/ccBGbIcp.ltrans1.ltrans.o
 .rodata.default_config.12051.4606
                0x00000000080045e0        0xc /tmp/ccBGbIcp.ltrans2.ltrans.o
 *fill*         0x00000000080045ec        0x4 
 .rodata.vmt.10284
                0x00000000080045f0       0x20 /tmp/ccBGbIcp.ltrans2.ltrans.o
                0x00000000080045f0                vmt.10284
 .rodata.str1.4
                0x0000000008004610        0xc /tmp/ccBGbIcp.ltrans2.ltrans.o
                                         0x18 (size before relaxing)
 *fill*         0x000000000800461c        0x4 
 .rodata.str1.4
                0x0000000008004620       0x7c /tmp/ccBGbIcp.ltrans3.ltrans.o
 *fill*         0x000000000800469c        0x4 
 .rodata.analogGrp.15686.4677
                0x00000000080046a0       0x28 /tmp/ccBGbIcp.ltrans3.ltrans.o
 *fill*         0x00000000080046c8        0x8 
 .rodata.ii2cCfg.15692.4718
                0x00000000080046d0        0xc /tmp/ccBGbIcp.ltrans3.ltrans.o
 *fill*         0x00000000080046dc        0x4 
 .rodata.ei2cCfg.15691.4719
                0x00000000080046e0        0xc /tmp/ccBGbIcp.ltrans3.ltrans.o
 *(.glue_7t)
 .glue_7t       0x0000000000000000        0x0 linker stubs
 *(.glue_7)
 .glue_7        0x0000000000000000        0x0 linker stubs
 *(.gcc*)

.vfp11_veneer   0x00000000080046ec        0x0
 .vfp11_veneer  0x0000000000000000        0x0 linker stubs

.v4_bx          0x00000000080046ec        0x0
 .v4_bx         0x0000000000000000        0x0 linker stubs

.iplt           0x00000000080046ec        0x0
 .iplt          0x0000000000000000        0x0 build/obj/chcoreasm_v7m.o

.rel.dyn        0x00000000080046ec        0x0
 .rel.iplt      0x0000000000000000        0x0 build/obj/chcoreasm_v7m.o

.ARM.extab
 *(.ARM.extab* .gnu.linkonce.armextab.*)

.ARM.exidx      0x00000000080046ec        0x0
                0x00000000080046ec                PROVIDE (__exidx_start, .)
 *(.ARM.exidx* .gnu.linkonce.armexidx.*)
                0x00000000080046ec                PROVIDE (__exidx_end, .)

.eh_frame_hdr
 *(.eh_frame_hdr)

.eh_frame
 *(.eh_frame)

.textalign      0x00000000080046ec        0x4
                0x00000000080046f0                . = ALIGN (0x8)
 *fill*         0x00000000080046ec        0x4 
                0x00000000080046f0                . = ALIGN (0x4)
                0x00000000080046f0                _etext = .
                0x00000000080046f0                _textdata = _etext

.stacks         0x0000000020000000      0x800
                0x0000000020000000                . = ALIGN (0x8)
                0x0000000020000000                __main_stack_base__ = .
                0x0000000020000400                . = (. + __main_stack_size__)
 *fill*         0x0000000020000000      0x400 
                0x0000000020000400                . = ALIGN (0x8)
                0x0000000020000400                __main_stack_end__ = .
                0x0000000020000400                __process_stack_base__ = .
                0x0000000020000400                __main_thread_stack_base__ = .
                0x0000000020000800                . = (. + __process_stack_size__)
 *fill*         0x0000000020000400      0x400 
                0x0000000020000800                . = ALIGN (0x8)
                0x0000000020000800                __process_stack_end__ = .
                0x0000000020000800                __main_thread_stack_end__ = .

.data           0x0000000020000800       0x38 load address 0x00000000080046f0
                0x0000000020000800                . = ALIGN (0x4)
                0x0000000020000800                PROVIDE (_data, .)
 *(.data)
 *(.data.*)
 .data.xbeeSerCfg.14944.4851
                0x0000000020000800        0xc /tmp/ccBGbIcp.ltrans1.ltrans.o
 .data.serCfg.17290.4850
                0x000000002000080c        0xc /tmp/ccBGbIcp.ltrans1.ltrans.o
 .data.serGpsCfg.16083.4820
                0x0000000020000818       0x20 /tmp/ccBGbIcp.ltrans1.ltrans.o
 *(.ramtext)
                0x0000000020000838                . = ALIGN (0x4)
                0x0000000020000838                PROVIDE (_edata, .)

.igot.plt       0x0000000020000838        0x0 load address 0x0000000008004728
 .igot.plt      0x0000000000000000        0x0 build/obj/chcoreasm_v7m.o

.bss            0x0000000020000838     0x2680
                0x0000000020000838                . = ALIGN (0x4)
                0x0000000020000838                PROVIDE (_bss_start, .)
 *(.bss)
 *(.bss.*)
 .bss.nextmem.6820
                0x0000000020000838        0x4 /tmp/ccBGbIcp.ltrans1.ltrans.o
                0x0000000020000838                nextmem.6820
 .bss.dummytx.11757.4813
                0x000000002000083c        0x2 /tmp/ccBGbIcp.ltrans1.ltrans.o
 *fill*         0x000000002000083e        0x2 
 .bss.dma_streams_mask.10838
                0x0000000020000840        0x4 /tmp/ccBGbIcp.ltrans1.ltrans.o
                0x0000000020000840                dma_streams_mask.10838
 .bss.mainthread.6320.4386.4821
                0x0000000020000844       0x44 /tmp/ccBGbIcp.ltrans1.ltrans.o
 .bss.waSensor.17292.4840
                0x0000000020000888     0x1150 /tmp/ccBGbIcp.ltrans1.ltrans.o
 .bss.GPS.16084
                0x00000000200019d8      0x140 /tmp/ccBGbIcp.ltrans1.ltrans.o
                0x00000000200019d8                GPS.16084
 .bss.SPID3.4822
                0x0000000020001b18       0x30 /tmp/ccBGbIcp.ltrans1.ltrans.o
 .bss._idle_thread_wa.4385.4927
                0x0000000020001b48      0x160 /tmp/ccBGbIcp.ltrans1.ltrans.o
 .bss.dma_isr_redir.10833
                0x0000000020001ca8       0x80 /tmp/ccBGbIcp.ltrans1.ltrans.o
                0x0000000020001ca8                dma_isr_redir.10833
 .bss.UARTD1    0x0000000020001d28       0x1c /tmp/ccBGbIcp.ltrans1.ltrans.o
                0x0000000020001d28                UARTD1
 *fill*         0x0000000020001d44        0x4 
 .bss.waGps.17293.4838
                0x0000000020001d48      0x658 /tmp/ccBGbIcp.ltrans1.ltrans.o
 .bss.sensCount.13793.4815
                0x00000000200023a0        0x1 /tmp/ccBGbIcp.ltrans1.ltrans.o
 *fill*         0x00000000200023a1        0x7 
 .bss.default_heap.6947.4928
                0x00000000200023a8       0x20 /tmp/ccBGbIcp.ltrans1.ltrans.o
 .bss.endmem.6822
                0x00000000200023c8        0x4 /tmp/ccBGbIcp.ltrans1.ltrans.o
                0x00000000200023c8                endmem.6822
 .bss.xbee.17287.4817
                0x00000000200023cc        0x8 /tmp/ccBGbIcp.ltrans1.ltrans.o
 .bss.errors.13409.4814
                0x00000000200023d4        0x4 /tmp/ccBGbIcp.ltrans1.ltrans.o
 .bss.gpsSem    0x00000000200023d8        0xc /tmp/ccBGbIcp.ltrans2.ltrans.o
                0x00000000200023d8                gpsSem
 .bss.tokBuf.16085
                0x00000000200023e4       0x14 /tmp/ccBGbIcp.ltrans2.ltrans.o
                0x00000000200023e4                tokBuf.16085
 .bss.sensCount.13979.4672
                0x00000000200023f8        0x1 /tmp/ccBGbIcp.ltrans3.ltrans.o
 .bss.sensCount.13591.4671
                0x00000000200023f9        0x1 /tmp/ccBGbIcp.ltrans3.ltrans.o
 *fill*         0x00000000200023fa        0x2 
 .bss.ADCD1     0x00000000200023fc       0x34 /tmp/ccBGbIcp.ltrans3.ltrans.o
                0x00000000200023fc                ADCD1
 .bss.SD6       0x0000000020002430      0x458 /tmp/ccBGbIcp.ltrans3.ltrans.o
                0x0000000020002430                SD6
 .bss.DEBUG.15693.4675
                0x0000000020002888        0x4 /tmp/ccBGbIcp.ltrans3.ltrans.o
 .bss.analogSamples.15687.4678
                0x000000002000288c      0x12c /tmp/ccBGbIcp.ltrans3.ltrans.o
 .bss.sensCount.14733.4674
                0x00000000200029b8        0x1 /tmp/ccBGbIcp.ltrans3.ltrans.o
 .bss.sensCount.14331.4673
                0x00000000200029b9        0x1 /tmp/ccBGbIcp.ltrans3.ltrans.o
 *fill*         0x00000000200029ba        0x2 
 .bss.SD2       0x00000000200029bc      0x458 /tmp/ccBGbIcp.ltrans3.ltrans.o
                0x00000000200029bc                SD2
 .bss.ch        0x0000000020002e14       0x34 /tmp/ccBGbIcp.ltrans3.ltrans.o
                0x0000000020002e14                ch
 .bss.I2CD1     0x0000000020002e48       0x38 /tmp/ccBGbIcp.ltrans3.ltrans.o
                0x0000000020002e48                I2CD1
 .bss.I2CD3     0x0000000020002e80       0x38 /tmp/ccBGbIcp.ltrans3.ltrans.o
                0x0000000020002e80                I2CD3
 *(COMMON)
                0x0000000020002eb8                . = ALIGN (0x4)
                0x0000000020002eb8                PROVIDE (_bss_end, .)
                0x0000000020002eb8                PROVIDE (end, .)
                0x0000000020002eb8                _end = .
                0x0000000020002eb8                __heap_base__ = _end
                0x0000000020010000                __heap_end__ = __ram_end__
                0x0000000000000400                __process_stack_size__ = 0x400
                0x0000000000000400                __main_stack_size__ = 0x400
START GROUP
LOAD /usr/bin/../lib/gcc/arm-none-eabi/4.8.4/armv7e-m/fpu/libgcc.a
LOAD /usr/bin/../lib/gcc/arm-none-eabi/4.8.4/../../../../arm-none-eabi/lib/armv7e-m/fpu/libc.a
END GROUP
OUTPUT(build/stribog.elf elf32-littlearm)

.ARM.attributes
                0x0000000000000000       0x35
 .ARM.attributes
                0x0000000000000000       0x25 build/obj/chcoreasm_v7m.o
 .ARM.attributes
                0x0000000000000025       0x37 /tmp/ccBGbIcp.ltrans0.ltrans.o
 .ARM.attributes
                0x000000000000005c       0x37 /tmp/ccBGbIcp.ltrans1.ltrans.o
 .ARM.attributes
                0x0000000000000093       0x37 /tmp/ccBGbIcp.ltrans2.ltrans.o
 .ARM.attributes
                0x00000000000000ca       0x37 /tmp/ccBGbIcp.ltrans3.ltrans.o
 .ARM.attributes
                0x0000000000000101       0x22 /usr/bin/../lib/gcc/arm-none-eabi/4.8.4/armv7e-m/fpu/libgcc.a(_arm_addsubdf3.o)
 .ARM.attributes
                0x0000000000000123       0x22 /usr/bin/../lib/gcc/arm-none-eabi/4.8.4/armv7e-m/fpu/libgcc.a(_arm_muldivdf3.o)
 .ARM.attributes
                0x0000000000000145       0x22 /usr/bin/../lib/gcc/arm-none-eabi/4.8.4/armv7e-m/fpu/libgcc.a(_arm_fixdfsi.o)
 .ARM.attributes
                0x0000000000000167       0x22 /usr/bin/../lib/gcc/arm-none-eabi/4.8.4/armv7e-m/fpu/libgcc.a(_arm_truncdfsf2.o)
 .ARM.attributes
                0x0000000000000189       0x34 /usr/bin/../lib/gcc/arm-none-eabi/4.8.4/../../../../arm-none-eabi/lib/armv7e-m/fpu/libc.a(lib_a-strcpy.o)
 .ARM.attributes
                0x00000000000001bd       0x34 /usr/bin/../lib/gcc/arm-none-eabi/4.8.4/../../../../arm-none-eabi/lib/armv7e-m/fpu/libc.a(lib_a-strlen.o)
 .ARM.attributes
                0x00000000000001f1       0x34 /usr/bin/../lib/gcc/arm-none-eabi/4.8.4/../../../../arm-none-eabi/lib/armv7e-m/fpu/libc.a(lib_a-strncmp.o)

.comment        0x0000000000000000       0x70
 .comment       0x0000000000000000       0x70 /tmp/ccBGbIcp.ltrans0.ltrans.o
                                         0x71 (size before relaxing)
 .comment       0x0000000000000000       0x71 /tmp/ccBGbIcp.ltrans1.ltrans.o
 .comment       0x0000000000000000       0x71 /tmp/ccBGbIcp.ltrans2.ltrans.o
 .comment       0x0000000000000000       0x71 /tmp/ccBGbIcp.ltrans3.ltrans.o

.debug_frame    0x0000000000000000       0x68
 .debug_frame   0x0000000000000000       0x20 /usr/bin/../lib/gcc/arm-none-eabi/4.8.4/../../../../arm-none-eabi/lib/armv7e-m/fpu/libc.a(lib_a-strcpy.o)
 .debug_frame   0x0000000000000020       0x20 /usr/bin/../lib/gcc/arm-none-eabi/4.8.4/../../../../arm-none-eabi/lib/armv7e-m/fpu/libc.a(lib_a-strlen.o)
 .debug_frame   0x0000000000000040       0x28 /usr/bin/../lib/gcc/arm-none-eabi/4.8.4/../../../../arm-none-eabi/lib/armv7e-m/fpu/libc.a(lib_a-strncmp.o)

Cross Reference Table

Symbol                                            File
ADCD1                                             /tmp/ccBGbIcp.ltrans3.ltrans.o
                                                  /tmp/ccBGbIcp.ltrans1.ltrans.o
                                                  /tmp/ccBGbIcp.ltrans0.ltrans.o
BusFault_Handler                                  /tmp/ccBGbIcp.ltrans0.ltrans.o
                                                  /tmp/ccBGbIcp.ltrans3.ltrans.o
DebugMon_Handler                                  /tmp/ccBGbIcp.ltrans0.ltrans.o
                                                  /tmp/ccBGbIcp.ltrans3.ltrans.o
GPS.16084                                         /tmp/ccBGbIcp.ltrans1.ltrans.o
                                                  /tmp/ccBGbIcp.ltrans2.ltrans.o
                                                  /tmp/ccBGbIcp.ltrans0.ltrans.o
HardFault_Handler                                 /tmp/ccBGbIcp.ltrans0.ltrans.o
                                                  /tmp/ccBGbIcp.ltrans3.ltrans.o
I2CD1                                             /tmp/ccBGbIcp.ltrans3.ltrans.o
                                                  /tmp/ccBGbIcp.ltrans2.ltrans.o
                                                  /tmp/ccBGbIcp.ltrans1.ltrans.o
                                                  /tmp/ccBGbIcp.ltrans0.ltrans.o
I2CD3                                             /tmp/ccBGbIcp.ltrans3.ltrans.o
                                                  /tmp/ccBGbIcp.ltrans2.ltrans.o
                                                  /tmp/ccBGbIcp.ltrans1.ltrans.o
                                                  /tmp/ccBGbIcp.ltrans0.ltrans.o
I2CSensor_init                                    /tmp/ccBGbIcp.ltrans0.ltrans.o
                                                  /tmp/ccBGbIcp.ltrans3.ltrans.o
                                                  /tmp/ccBGbIcp.ltrans1.ltrans.o
I2CSensor_transact                                /tmp/ccBGbIcp.ltrans1.ltrans.o
                                                  /tmp/ccBGbIcp.ltrans3.ltrans.o
I2CSensor_transact_buf                            /tmp/ccBGbIcp.ltrans1.ltrans.o
                                                  /tmp/ccBGbIcp.ltrans3.ltrans.o
MemManage_Handler                                 /tmp/ccBGbIcp.ltrans0.ltrans.o
                                                  /tmp/ccBGbIcp.ltrans3.ltrans.o
NMI_Handler                                       /tmp/ccBGbIcp.ltrans0.ltrans.o
                                                  /tmp/ccBGbIcp.ltrans3.ltrans.o
PendSV_Handler                                    /tmp/ccBGbIcp.ltrans0.ltrans.o
                                                  /tmp/ccBGbIcp.ltrans3.ltrans.o
Reset_Handler                                     /tmp/ccBGbIcp.ltrans3.ltrans.o
SD2                                               /tmp/ccBGbIcp.ltrans3.ltrans.o
                                                  /tmp/ccBGbIcp.ltrans2.ltrans.o
                                                  /tmp/ccBGbIcp.ltrans1.ltrans.o
SD6                                               /tmp/ccBGbIcp.ltrans3.ltrans.o
                                                  /tmp/ccBGbIcp.ltrans2.ltrans.o
                                                  /tmp/ccBGbIcp.ltrans1.ltrans.o
                                                  /tmp/ccBGbIcp.ltrans0.ltrans.o
SVC_Handler                                       /tmp/ccBGbIcp.ltrans0.ltrans.o
                                                  /tmp/ccBGbIcp.ltrans3.ltrans.o
SysTick_Handler                                   /tmp/ccBGbIcp.ltrans0.ltrans.o
                                                  /tmp/ccBGbIcp.ltrans3.ltrans.o
UARTD1                                            /tmp/ccBGbIcp.ltrans1.ltrans.o
                                                  /tmp/ccBGbIcp.ltrans2.ltrans.o
                                                  /tmp/ccBGbIcp.ltrans0.ltrans.o
UsageFault_Handler                                /tmp/ccBGbIcp.ltrans0.ltrans.o
                                                  /tmp/ccBGbIcp.ltrans3.ltrans.o
Vector100                                         /tmp/ccBGbIcp.ltrans0.ltrans.o
                                                  /tmp/ccBGbIcp.ltrans3.ltrans.o
Vector104                                         /tmp/ccBGbIcp.ltrans0.ltrans.o
                                                  /tmp/ccBGbIcp.ltrans3.ltrans.o
Vector108                                         /tmp/ccBGbIcp.ltrans0.ltrans.o
                                                  /tmp/ccBGbIcp.ltrans3.ltrans.o
Vector10C                                         /tmp/ccBGbIcp.ltrans0.ltrans.o
                                                  /tmp/ccBGbIcp.ltrans3.ltrans.o
Vector110                                         /tmp/ccBGbIcp.ltrans0.ltrans.o
                                                  /tmp/ccBGbIcp.ltrans3.ltrans.o
Vector114                                         /tmp/ccBGbIcp.ltrans0.ltrans.o
                                                  /tmp/ccBGbIcp.ltrans3.ltrans.o
Vector118                                         /tmp/ccBGbIcp.ltrans0.ltrans.o
                                                  /tmp/ccBGbIcp.ltrans3.ltrans.o
Vector11C                                         /tmp/ccBGbIcp.ltrans0.ltrans.o
                                                  /tmp/ccBGbIcp.ltrans3.ltrans.o
Vector120                                         /tmp/ccBGbIcp.ltrans0.ltrans.o
                                                  /tmp/ccBGbIcp.ltrans3.ltrans.o
Vector124                                         /tmp/ccBGbIcp.ltrans0.ltrans.o
                                                  /tmp/ccBGbIcp.ltrans3.ltrans.o
Vector128                                         /tmp/ccBGbIcp.ltrans0.ltrans.o
                                                  /tmp/ccBGbIcp.ltrans3.ltrans.o
Vector12C                                         /tmp/ccBGbIcp.ltrans0.ltrans.o
                                                  /tmp/ccBGbIcp.ltrans3.ltrans.o
Vector130                                         /tmp/ccBGbIcp.ltrans0.ltrans.o
                                                  /tmp/ccBGbIcp.ltrans3.ltrans.o
Vector134                                         /tmp/ccBGbIcp.ltrans0.ltrans.o
                                                  /tmp/ccBGbIcp.ltrans3.ltrans.o
Vector138                                         /tmp/ccBGbIcp.ltrans0.ltrans.o
                                                  /tmp/ccBGbIcp.ltrans3.ltrans.o
Vector13C                                         /tmp/ccBGbIcp.ltrans0.ltrans.o
                                                  /tmp/ccBGbIcp.ltrans3.ltrans.o
Vector140                                         /tmp/ccBGbIcp.ltrans0.ltrans.o
                                                  /tmp/ccBGbIcp.ltrans3.ltrans.o
Vector144                                         /tmp/ccBGbIcp.ltrans0.ltrans.o
                                                  /tmp/ccBGbIcp.ltrans3.ltrans.o
Vector148                                         /tmp/ccBGbIcp.ltrans0.ltrans.o
                                                  /tmp/ccBGbIcp.ltrans3.ltrans.o
Vector14C                                         /tmp/ccBGbIcp.ltrans0.ltrans.o
                                                  /tmp/ccBGbIcp.ltrans3.ltrans.o
Vector150                                         /tmp/ccBGbIcp.ltrans0.ltrans.o
                                                  /tmp/ccBGbIcp.ltrans3.ltrans.o
Vector154                                         /tmp/ccBGbIcp.ltrans0.ltrans.o
                                                  /tmp/ccBGbIcp.ltrans3.ltrans.o
Vector158                                         /tmp/ccBGbIcp.ltrans0.ltrans.o
                                                  /tmp/ccBGbIcp.ltrans3.ltrans.o
Vector160                                         /tmp/ccBGbIcp.ltrans0.ltrans.o
                                                  /tmp/ccBGbIcp.ltrans3.ltrans.o
Vector164                                         /tmp/ccBGbIcp.ltrans0.ltrans.o
                                                  /tmp/ccBGbIcp.ltrans3.ltrans.o
Vector168                                         /tmp/ccBGbIcp.ltrans0.ltrans.o
                                                  /tmp/ccBGbIcp.ltrans3.ltrans.o
Vector16C                                         /tmp/ccBGbIcp.ltrans0.ltrans.o
                                                  /tmp/ccBGbIcp.ltrans3.ltrans.o
Vector170                                         /tmp/ccBGbIcp.ltrans0.ltrans.o
                                                  /tmp/ccBGbIcp.ltrans3.ltrans.o
Vector174                                         /tmp/ccBGbIcp.ltrans0.ltrans.o
                                                  /tmp/ccBGbIcp.ltrans3.ltrans.o
Vector178                                         /tmp/ccBGbIcp.ltrans0.ltrans.o
                                                  /tmp/ccBGbIcp.ltrans3.ltrans.o
Vector17C                                         /tmp/ccBGbIcp.ltrans0.ltrans.o
                                                  /tmp/ccBGbIcp.ltrans3.ltrans.o
Vector180                                         /tmp/ccBGbIcp.ltrans0.ltrans.o
                                                  /tmp/ccBGbIcp.ltrans3.ltrans.o
Vector184                                         /tmp/ccBGbIcp.ltrans0.ltrans.o
                                                  /tmp/ccBGbIcp.ltrans3.ltrans.o
Vector188                                         /tmp/ccBGbIcp.ltrans0.ltrans.o
                                                  /tmp/ccBGbIcp.ltrans3.ltrans.o
Vector18C                                         /tmp/ccBGbIcp.ltrans0.ltrans.o
                                                  /tmp/ccBGbIcp.ltrans3.ltrans.o
Vector190                                         /tmp/ccBGbIcp.ltrans0.ltrans.o
                                                  /tmp/ccBGbIcp.ltrans3.ltrans.o
Vector194                                         /tmp/ccBGbIcp.ltrans0.ltrans.o
                                                  /tmp/ccBGbIcp.ltrans3.ltrans.o
Vector198                                         /tmp/ccBGbIcp.ltrans0.ltrans.o
                                                  /tmp/ccBGbIcp.ltrans3.ltrans.o
Vector19C                                         /tmp/ccBGbIcp.ltrans0.ltrans.o
                                                  /tmp/ccBGbIcp.ltrans3.ltrans.o
Vector1A0                                         /tmp/ccBGbIcp.ltrans0.ltrans.o
                                                  /tmp/ccBGbIcp.ltrans3.ltrans.o
Vector1A4                                         /tmp/ccBGbIcp.ltrans0.ltrans.o
                                                  /tmp/ccBGbIcp.ltrans3.ltrans.o
Vector1A8                                         /tmp/ccBGbIcp.ltrans0.ltrans.o
                                                  /tmp/ccBGbIcp.ltrans3.ltrans.o
Vector1AC                                         /tmp/ccBGbIcp.ltrans0.ltrans.o
                                                  /tmp/ccBGbIcp.ltrans3.ltrans.o
Vector1B0                                         /tmp/ccBGbIcp.ltrans0.ltrans.o
                                                  /tmp/ccBGbIcp.ltrans3.ltrans.o
Vector1B4                                         /tmp/ccBGbIcp.ltrans0.ltrans.o
                                                  /tmp/ccBGbIcp.ltrans3.ltrans.o
Vector1B8                                         /tmp/ccBGbIcp.ltrans0.ltrans.o
                                                  /tmp/ccBGbIcp.ltrans3.ltrans.o
Vector1BC                                         /tmp/ccBGbIcp.ltrans0.ltrans.o
                                                  /tmp/ccBGbIcp.ltrans3.ltrans.o
Vector1C                                          /tmp/ccBGbIcp.ltrans0.ltrans.o
                                                  /tmp/ccBGbIcp.ltrans3.ltrans.o
Vector20                                          /tmp/ccBGbIcp.ltrans0.ltrans.o
                                                  /tmp/ccBGbIcp.ltrans3.ltrans.o
Vector24                                          /tmp/ccBGbIcp.ltrans0.ltrans.o
                                                  /tmp/ccBGbIcp.ltrans3.ltrans.o
Vector28                                          /tmp/ccBGbIcp.ltrans0.ltrans.o
                                                  /tmp/ccBGbIcp.ltrans3.ltrans.o
Vector34                                          /tmp/ccBGbIcp.ltrans0.ltrans.o
                                                  /tmp/ccBGbIcp.ltrans3.ltrans.o
Vector40                                          /tmp/ccBGbIcp.ltrans0.ltrans.o
                                                  /tmp/ccBGbIcp.ltrans3.ltrans.o
Vector44                                          /tmp/ccBGbIcp.ltrans0.ltrans.o
                                                  /tmp/ccBGbIcp.ltrans3.ltrans.o
Vector48                                          /tmp/ccBGbIcp.ltrans0.ltrans.o
                                                  /tmp/ccBGbIcp.ltrans3.ltrans.o
Vector4C                                          /tmp/ccBGbIcp.ltrans0.ltrans.o
                                                  /tmp/ccBGbIcp.ltrans3.ltrans.o
Vector50                                          /tmp/ccBGbIcp.ltrans0.ltrans.o
                                                  /tmp/ccBGbIcp.ltrans3.ltrans.o
Vector54                                          /tmp/ccBGbIcp.ltrans0.ltrans.o
                                                  /tmp/ccBGbIcp.ltrans3.ltrans.o
Vector58                                          /tmp/ccBGbIcp.ltrans0.ltrans.o
                                                  /tmp/ccBGbIcp.ltrans3.ltrans.o
Vector5C                                          /tmp/ccBGbIcp.ltrans0.ltrans.o
                                                  /tmp/ccBGbIcp.ltrans3.ltrans.o
Vector60                                          /tmp/ccBGbIcp.ltrans0.ltrans.o
                                                  /tmp/ccBGbIcp.ltrans3.ltrans.o
Vector64                                          /tmp/ccBGbIcp.ltrans0.ltrans.o
                                                  /tmp/ccBGbIcp.ltrans3.ltrans.o
Vector68                                          /tmp/ccBGbIcp.ltrans0.ltrans.o
                                                  /tmp/ccBGbIcp.ltrans3.ltrans.o
Vector6C                                          /tmp/ccBGbIcp.ltrans0.ltrans.o
                                                  /tmp/ccBGbIcp.ltrans3.ltrans.o
Vector70                                          /tmp/ccBGbIcp.ltrans0.ltrans.o
                                                  /tmp/ccBGbIcp.ltrans3.ltrans.o
Vector74                                          /tmp/ccBGbIcp.ltrans0.ltrans.o
                                                  /tmp/ccBGbIcp.ltrans3.ltrans.o
Vector78                                          /tmp/ccBGbIcp.ltrans0.ltrans.o
                                                  /tmp/ccBGbIcp.ltrans3.ltrans.o
Vector7C                                          /tmp/ccBGbIcp.ltrans0.ltrans.o
                                                  /tmp/ccBGbIcp.ltrans3.ltrans.o
Vector80                                          /tmp/ccBGbIcp.ltrans0.ltrans.o
                                                  /tmp/ccBGbIcp.ltrans3.ltrans.o
Vector84                                          /tmp/ccBGbIcp.ltrans0.ltrans.o
                                                  /tmp/ccBGbIcp.ltrans3.ltrans.o
Vector88                                          /tmp/ccBGbIcp.ltrans0.ltrans.o
                                                  /tmp/ccBGbIcp.ltrans3.ltrans.o
Vector8C                                          /tmp/ccBGbIcp.ltrans0.ltrans.o
                                                  /tmp/ccBGbIcp.ltrans3.ltrans.o
Vector90                                          /tmp/ccBGbIcp.ltrans0.ltrans.o
                                                  /tmp/ccBGbIcp.ltrans3.ltrans.o
Vector94                                          /tmp/ccBGbIcp.ltrans0.ltrans.o
                                                  /tmp/ccBGbIcp.ltrans3.ltrans.o
Vector98                                          /tmp/ccBGbIcp.ltrans0.ltrans.o
                                                  /tmp/ccBGbIcp.ltrans3.ltrans.o
Vector9C                                          /tmp/ccBGbIcp.ltrans0.ltrans.o
                                                  /tmp/ccBGbIcp.ltrans3.ltrans.o
VectorA0                                          /tmp/ccBGbIcp.ltrans0.ltrans.o
                                                  /tmp/ccBGbIcp.ltrans3.ltrans.o
VectorA4                                          /tmp/ccBGbIcp.ltrans0.ltrans.o
                                                  /tmp/ccBGbIcp.ltrans3.ltrans.o
VectorA8                                          /tmp/ccBGbIcp.ltrans0.ltrans.o
                                                  /tmp/ccBGbIcp.ltrans3.ltrans.o
VectorAC                                          /tmp/ccBGbIcp.ltrans0.ltrans.o
                                                  /tmp/ccBGbIcp.ltrans3.ltrans.o
VectorB0                                          /tmp/ccBGbIcp.ltrans2.ltrans.o
                                                  /tmp/ccBGbIcp.ltrans3.ltrans.o
VectorB4                                          /tmp/ccBGbIcp.ltrans0.ltrans.o
                                                  /tmp/ccBGbIcp.ltrans3.ltrans.o
VectorB8                                          /tmp/ccBGbIcp.ltrans0.ltrans.o
                                                  /tmp/ccBGbIcp.ltrans3.ltrans.o
VectorBC                                          /tmp/ccBGbIcp.ltrans0.ltrans.o
                                                  /tmp/ccBGbIcp.ltrans3.ltrans.o
VectorC0                                          /tmp/ccBGbIcp.ltrans0.ltrans.o
                                                  /tmp/ccBGbIcp.ltrans3.ltrans.o
VectorC4                                          /tmp/ccBGbIcp.ltrans0.ltrans.o
                                                  /tmp/ccBGbIcp.ltrans3.ltrans.o
VectorC8                                          /tmp/ccBGbIcp.ltrans0.ltrans.o
                                                  /tmp/ccBGbIcp.ltrans3.ltrans.o
VectorCC                                          /tmp/ccBGbIcp.ltrans0.ltrans.o
                                                  /tmp/ccBGbIcp.ltrans3.ltrans.o
VectorD0                                          /tmp/ccBGbIcp.ltrans0.ltrans.o
                                                  /tmp/ccBGbIcp.ltrans3.ltrans.o
VectorD4                                          /tmp/ccBGbIcp.ltrans0.ltrans.o
                                                  /tmp/ccBGbIcp.ltrans3.ltrans.o
VectorDC                                          /tmp/ccBGbIcp.ltrans0.ltrans.o
                                                  /tmp/ccBGbIcp.ltrans3.ltrans.o
VectorE0                                          /tmp/ccBGbIcp.ltrans0.ltrans.o
                                                  /tmp/ccBGbIcp.ltrans3.ltrans.o
VectorE4                                          /tmp/ccBGbIcp.ltrans0.ltrans.o
                                                  /tmp/ccBGbIcp.ltrans3.ltrans.o
VectorE8                                          /tmp/ccBGbIcp.ltrans0.ltrans.o
                                                  /tmp/ccBGbIcp.ltrans3.ltrans.o
VectorEC                                          /tmp/ccBGbIcp.ltrans0.ltrans.o
                                                  /tmp/ccBGbIcp.ltrans3.ltrans.o
VectorF0                                          /tmp/ccBGbIcp.ltrans0.ltrans.o
                                                  /tmp/ccBGbIcp.ltrans3.ltrans.o
VectorF4                                          /tmp/ccBGbIcp.ltrans0.ltrans.o
                                                  /tmp/ccBGbIcp.ltrans3.ltrans.o
VectorF8                                          /tmp/ccBGbIcp.ltrans0.ltrans.o
                                                  /tmp/ccBGbIcp.ltrans3.ltrans.o
VectorFC                                          /tmp/ccBGbIcp.ltrans0.ltrans.o
                                                  /tmp/ccBGbIcp.ltrans3.ltrans.o
__adddf3                                          /usr/bin/../lib/gcc/arm-none-eabi/4.8.4/armv7e-m/fpu/libgcc.a(_arm_addsubdf3.o)
__aeabi_d2f                                       /usr/bin/../lib/gcc/arm-none-eabi/4.8.4/armv7e-m/fpu/libgcc.a(_arm_truncdfsf2.o)
                                                  /tmp/ccBGbIcp.ltrans0.ltrans.o
__aeabi_d2iz                                      /usr/bin/../lib/gcc/arm-none-eabi/4.8.4/armv7e-m/fpu/libgcc.a(_arm_fixdfsi.o)
                                                  /tmp/ccBGbIcp.ltrans0.ltrans.o
__aeabi_dadd                                      /usr/bin/../lib/gcc/arm-none-eabi/4.8.4/armv7e-m/fpu/libgcc.a(_arm_addsubdf3.o)
__aeabi_ddiv                                      /usr/bin/../lib/gcc/arm-none-eabi/4.8.4/armv7e-m/fpu/libgcc.a(_arm_muldivdf3.o)
__aeabi_dmul                                      /usr/bin/../lib/gcc/arm-none-eabi/4.8.4/armv7e-m/fpu/libgcc.a(_arm_muldivdf3.o)
                                                  /tmp/ccBGbIcp.ltrans0.ltrans.o
__aeabi_drsub                                     /usr/bin/../lib/gcc/arm-none-eabi/4.8.4/armv7e-m/fpu/libgcc.a(_arm_addsubdf3.o)
__aeabi_dsub                                      /usr/bin/../lib/gcc/arm-none-eabi/4.8.4/armv7e-m/fpu/libgcc.a(_arm_addsubdf3.o)
                                                  /tmp/ccBGbIcp.ltrans0.ltrans.o
__aeabi_f2d                                       /usr/bin/../lib/gcc/arm-none-eabi/4.8.4/armv7e-m/fpu/libgcc.a(_arm_addsubdf3.o)
                                                  /tmp/ccBGbIcp.ltrans3.ltrans.o
                                                  /tmp/ccBGbIcp.ltrans0.ltrans.o
__aeabi_i2d                                       /usr/bin/../lib/gcc/arm-none-eabi/4.8.4/armv7e-m/fpu/libgcc.a(_arm_addsubdf3.o)
                                                  /tmp/ccBGbIcp.ltrans0.ltrans.o
__aeabi_l2d                                       /usr/bin/../lib/gcc/arm-none-eabi/4.8.4/armv7e-m/fpu/libgcc.a(_arm_addsubdf3.o)
__aeabi_ui2d                                      /usr/bin/../lib/gcc/arm-none-eabi/4.8.4/armv7e-m/fpu/libgcc.a(_arm_addsubdf3.o)
                                                  /tmp/ccBGbIcp.ltrans0.ltrans.o
__aeabi_ul2d                                      /usr/bin/../lib/gcc/arm-none-eabi/4.8.4/armv7e-m/fpu/libgcc.a(_arm_addsubdf3.o)
__divdf3                                          /usr/bin/../lib/gcc/arm-none-eabi/4.8.4/armv7e-m/fpu/libgcc.a(_arm_muldivdf3.o)
__extendsfdf2                                     /usr/bin/../lib/gcc/arm-none-eabi/4.8.4/armv7e-m/fpu/libgcc.a(_arm_addsubdf3.o)
__fixdfsi                                         /usr/bin/../lib/gcc/arm-none-eabi/4.8.4/armv7e-m/fpu/libgcc.a(_arm_fixdfsi.o)
__floatdidf                                       /usr/bin/../lib/gcc/arm-none-eabi/4.8.4/armv7e-m/fpu/libgcc.a(_arm_addsubdf3.o)
__floatsidf                                       /usr/bin/../lib/gcc/arm-none-eabi/4.8.4/armv7e-m/fpu/libgcc.a(_arm_addsubdf3.o)
__floatundidf                                     /usr/bin/../lib/gcc/arm-none-eabi/4.8.4/armv7e-m/fpu/libgcc.a(_arm_addsubdf3.o)
__floatunsidf                                     /usr/bin/../lib/gcc/arm-none-eabi/4.8.4/armv7e-m/fpu/libgcc.a(_arm_addsubdf3.o)
__heap_base__                                     /tmp/ccBGbIcp.ltrans1.ltrans.o
__heap_end__                                      /tmp/ccBGbIcp.ltrans1.ltrans.o
__init_array_end                                  /tmp/ccBGbIcp.ltrans3.ltrans.o
__init_array_start                                /tmp/ccBGbIcp.ltrans3.ltrans.o
__main_stack_base__                               /tmp/ccBGbIcp.ltrans3.ltrans.o
__main_stack_end__                                /tmp/ccBGbIcp.ltrans3.ltrans.o
__muldf3                                          /usr/bin/../lib/gcc/arm-none-eabi/4.8.4/armv7e-m/fpu/libgcc.a(_arm_muldivdf3.o)
__process_stack_base__                            /tmp/ccBGbIcp.ltrans3.ltrans.o
__process_stack_end__                             /tmp/ccBGbIcp.ltrans3.ltrans.o
__subdf3                                          /usr/bin/../lib/gcc/arm-none-eabi/4.8.4/armv7e-m/fpu/libgcc.a(_arm_addsubdf3.o)
__truncdfsf2                                      /usr/bin/../lib/gcc/arm-none-eabi/4.8.4/armv7e-m/fpu/libgcc.a(_arm_truncdfsf2.o)
_bss_end                                          /tmp/ccBGbIcp.ltrans3.ltrans.o
_bss_start                                        /tmp/ccBGbIcp.ltrans3.ltrans.o
_data                                             /tmp/ccBGbIcp.ltrans3.ltrans.o
_edata                                            /tmp/ccBGbIcp.ltrans3.ltrans.o
_idle_thread.4338                                 /tmp/ccBGbIcp.ltrans0.ltrans.o
                                                  /tmp/ccBGbIcp.ltrans1.ltrans.o
_port_exit_from_isr                               build/obj/chcoreasm_v7m.o
                                                  /tmp/ccBGbIcp.ltrans0.ltrans.o
_port_irq_epilogue                                /tmp/ccBGbIcp.ltrans0.ltrans.o
                                                  /tmp/ccBGbIcp.ltrans3.ltrans.o
                                                  /tmp/ccBGbIcp.ltrans2.ltrans.o
_port_switch                                      build/obj/chcoreasm_v7m.o
                                                  /tmp/ccBGbIcp.ltrans2.ltrans.o
                                                  /tmp/ccBGbIcp.ltrans0.ltrans.o
_port_switch_from_isr                             build/obj/chcoreasm_v7m.o
                                                  /tmp/ccBGbIcp.ltrans0.ltrans.o
_port_thread_start                                build/obj/chcoreasm_v7m.o
                                                  /tmp/ccBGbIcp.ltrans2.ltrans.o
_textdata                                         /tmp/ccBGbIcp.ltrans3.ltrans.o
_vectors                                          /tmp/ccBGbIcp.ltrans3.ltrans.o
adc_lld_serve_rx_interrupt.11091                  /tmp/ccBGbIcp.ltrans0.ltrans.o
                                                  /tmp/ccBGbIcp.ltrans1.ltrans.o
ch                                                /tmp/ccBGbIcp.ltrans3.ltrans.o
                                                  /tmp/ccBGbIcp.ltrans2.ltrans.o
                                                  /tmp/ccBGbIcp.ltrans1.ltrans.o
                                                  /tmp/ccBGbIcp.ltrans0.ltrans.o
chCoreAlloc                                       /tmp/ccBGbIcp.ltrans0.ltrans.o
                                                  /tmp/ccBGbIcp.ltrans1.ltrans.o
chEvtBroadcastFlagsI                              /tmp/ccBGbIcp.ltrans0.ltrans.o
                                                  /tmp/ccBGbIcp.ltrans3.ltrans.o
chMtxLockS                                        /tmp/ccBGbIcp.ltrans0.ltrans.o
                                                  /tmp/ccBGbIcp.ltrans2.ltrans.o
                                                  /tmp/ccBGbIcp.ltrans1.ltrans.o
chMtxUnlock                                       /tmp/ccBGbIcp.ltrans2.ltrans.o
                                                  /tmp/ccBGbIcp.ltrans1.ltrans.o
chSchDoReschedule                                 /tmp/ccBGbIcp.ltrans3.ltrans.o
                                                  build/obj/chcoreasm_v7m.o
chSchDoRescheduleAhead                            /tmp/ccBGbIcp.ltrans0.ltrans.o
                                                  /tmp/ccBGbIcp.ltrans3.ltrans.o
chSchGoSleepS                                     /tmp/ccBGbIcp.ltrans0.ltrans.o
                                                  /tmp/ccBGbIcp.ltrans3.ltrans.o
                                                  /tmp/ccBGbIcp.ltrans2.ltrans.o
chSchGoSleepTimeoutS                              /tmp/ccBGbIcp.ltrans2.ltrans.o
                                                  /tmp/ccBGbIcp.ltrans1.ltrans.o
chSchReadyI                                       /tmp/ccBGbIcp.ltrans0.ltrans.o
                                                  /tmp/ccBGbIcp.ltrans3.ltrans.o
                                                  /tmp/ccBGbIcp.ltrans2.ltrans.o
chSchRescheduleS                                  /tmp/ccBGbIcp.ltrans0.ltrans.o
                                                  /tmp/ccBGbIcp.ltrans2.ltrans.o
chSchWakeupS.constprop.36                         /tmp/ccBGbIcp.ltrans0.ltrans.o
                                                  /tmp/ccBGbIcp.ltrans2.ltrans.o
chTMStartMeasurementX.constprop.30                /tmp/ccBGbIcp.ltrans0.ltrans.o
                                                  /tmp/ccBGbIcp.ltrans1.ltrans.o
chTMStopMeasurementX                              /tmp/ccBGbIcp.ltrans0.ltrans.o
                                                  /tmp/ccBGbIcp.ltrans1.ltrans.o
chThdCreateStatic                                 /tmp/ccBGbIcp.ltrans2.ltrans.o
                                                  /tmp/ccBGbIcp.ltrans1.ltrans.o
chThdExit                                         /tmp/ccBGbIcp.ltrans3.ltrans.o
                                                  build/obj/chcoreasm_v7m.o
chThdSleep                                        /tmp/ccBGbIcp.ltrans1.ltrans.o
                                                  /tmp/ccBGbIcp.ltrans3.ltrans.o
chThdSleepUntil                                   /tmp/ccBGbIcp.ltrans2.ltrans.o
                                                  /tmp/ccBGbIcp.ltrans3.ltrans.o
                                                  /tmp/ccBGbIcp.ltrans1.ltrans.o
chprintf.13294.constprop.12                       /tmp/ccBGbIcp.ltrans0.ltrans.o
                                                  /tmp/ccBGbIcp.ltrans1.ltrans.o
chprintf.15614.constprop.5                        /tmp/ccBGbIcp.ltrans0.ltrans.o
                                                  /tmp/ccBGbIcp.ltrans3.ltrans.o
chprintf.15997.constprop.1                        /tmp/ccBGbIcp.ltrans0.ltrans.o
                                                  /tmp/ccBGbIcp.ltrans2.ltrans.o
chprintf.17224                                    /tmp/ccBGbIcp.ltrans0.ltrans.o
                                                  /tmp/ccBGbIcp.ltrans1.ltrans.o
dmaStreamAllocate                                 /tmp/ccBGbIcp.ltrans0.ltrans.o
                                                  /tmp/ccBGbIcp.ltrans2.ltrans.o
                                                  /tmp/ccBGbIcp.ltrans1.ltrans.o
dmaStreamRelease                                  /tmp/ccBGbIcp.ltrans0.ltrans.o
                                                  /tmp/ccBGbIcp.ltrans2.ltrans.o
dma_isr_redir.10833                               /tmp/ccBGbIcp.ltrans1.ltrans.o
                                                  /tmp/ccBGbIcp.ltrans0.ltrans.o
dma_streams_mask.10838                            /tmp/ccBGbIcp.ltrans1.ltrans.o
                                                  /tmp/ccBGbIcp.ltrans0.ltrans.o
endmem.6822                                       /tmp/ccBGbIcp.ltrans1.ltrans.o
                                                  /tmp/ccBGbIcp.ltrans0.ltrans.o
get.10200                                         /tmp/ccBGbIcp.ltrans2.ltrans.o
gett.10196                                        /tmp/ccBGbIcp.ltrans2.ltrans.o
gpsRxChar.16011                                   /tmp/ccBGbIcp.ltrans0.ltrans.o
                                                  /tmp/ccBGbIcp.ltrans1.ltrans.o
gpsRxEnd.15987                                    /tmp/ccBGbIcp.ltrans0.ltrans.o
                                                  /tmp/ccBGbIcp.ltrans1.ltrans.o
gpsRxErr.15990                                    /tmp/ccBGbIcp.ltrans0.ltrans.o
                                                  /tmp/ccBGbIcp.ltrans1.ltrans.o
gpsSem                                            /tmp/ccBGbIcp.ltrans2.ltrans.o
                                                  /tmp/ccBGbIcp.ltrans0.ltrans.o
gpsThread                                         /tmp/ccBGbIcp.ltrans2.ltrans.o
                                                  /tmp/ccBGbIcp.ltrans1.ltrans.o
gpsTxC.15984                                      /tmp/ccBGbIcp.ltrans0.ltrans.o
                                                  /tmp/ccBGbIcp.ltrans1.ltrans.o
gpsTxbufEnd.15981                                 /tmp/ccBGbIcp.ltrans0.ltrans.o
                                                  /tmp/ccBGbIcp.ltrans1.ltrans.o
i2c_lld_serve_rx_end_irq.11402                    /tmp/ccBGbIcp.ltrans0.ltrans.o
                                                  /tmp/ccBGbIcp.ltrans2.ltrans.o
i2c_lld_serve_tx_end_irq.11398                    /tmp/ccBGbIcp.ltrans1.ltrans.o
                                                  /tmp/ccBGbIcp.ltrans2.ltrans.o
i2c_lld_start                                     /tmp/ccBGbIcp.ltrans2.ltrans.o
                                                  /tmp/ccBGbIcp.ltrans3.ltrans.o
main                                              /tmp/ccBGbIcp.ltrans1.ltrans.o
                                                  /tmp/ccBGbIcp.ltrans3.ltrans.o
nextmem.6820                                      /tmp/ccBGbIcp.ltrans1.ltrans.o
                                                  /tmp/ccBGbIcp.ltrans0.ltrans.o
notify2.12013                                     /tmp/ccBGbIcp.ltrans0.ltrans.o
                                                  /tmp/ccBGbIcp.ltrans1.ltrans.o
notify6.12010                                     /tmp/ccBGbIcp.ltrans0.ltrans.o
                                                  /tmp/ccBGbIcp.ltrans1.ltrans.o
put.10208                                         /tmp/ccBGbIcp.ltrans2.ltrans.o
putt.10203                                        /tmp/ccBGbIcp.ltrans2.ltrans.o
read.10180                                        /tmp/ccBGbIcp.ltrans2.ltrans.o
readt.10173                                       /tmp/ccBGbIcp.ltrans2.ltrans.o
sdObjectInit.constprop.25                         /tmp/ccBGbIcp.ltrans0.ltrans.o
                                                  /tmp/ccBGbIcp.ltrans1.ltrans.o
sd_lld_start                                      /tmp/ccBGbIcp.ltrans2.ltrans.o
                                                  /tmp/ccBGbIcp.ltrans1.ltrans.o
sensorThread                                      /tmp/ccBGbIcp.ltrans3.ltrans.o
                                                  /tmp/ccBGbIcp.ltrans1.ltrans.o
si70x0_heaterEnable                               /tmp/ccBGbIcp.ltrans1.ltrans.o
                                                  /tmp/ccBGbIcp.ltrans3.ltrans.o
si70x0_init                                       /tmp/ccBGbIcp.ltrans1.ltrans.o
                                                  /tmp/ccBGbIcp.ltrans3.ltrans.o
si70x0_readHumidity                               /tmp/ccBGbIcp.ltrans1.ltrans.o
                                                  /tmp/ccBGbIcp.ltrans3.ltrans.o
si70x0_readTemperature                            /tmp/ccBGbIcp.ltrans1.ltrans.o
                                                  /tmp/ccBGbIcp.ltrans3.ltrans.o
strcpy                                            /usr/bin/../lib/gcc/arm-none-eabi/4.8.4/../../../../arm-none-eabi/lib/armv7e-m/fpu/libc.a(lib_a-strcpy.o)
                                                  /tmp/ccBGbIcp.ltrans1.ltrans.o
strlen                                            /usr/bin/../lib/gcc/arm-none-eabi/4.8.4/../../../../arm-none-eabi/lib/armv7e-m/fpu/libc.a(lib_a-strlen.o)
                                                  /tmp/ccBGbIcp.ltrans2.ltrans.o
strncmp                                           /usr/bin/../lib/gcc/arm-none-eabi/4.8.4/../../../../arm-none-eabi/lib/armv7e-m/fpu/libc.a(lib_a-strncmp.o)
                                                  /tmp/ccBGbIcp.ltrans2.ltrans.o
tokBuf.16085                                      /tmp/ccBGbIcp.ltrans2.ltrans.o
                                                  /tmp/ccBGbIcp.ltrans0.ltrans.o
uStrCpy.constprop.4                               /tmp/ccBGbIcp.ltrans0.ltrans.o
                                                  /tmp/ccBGbIcp.ltrans2.ltrans.o
uStrInsertChar.constprop.3                        /tmp/ccBGbIcp.ltrans0.ltrans.o
                                                  /tmp/ccBGbIcp.ltrans2.ltrans.o
uStrPrependChar                                   /tmp/ccBGbIcp.ltrans0.ltrans.o
                                                  /tmp/ccBGbIcp.ltrans2.ltrans.o
usart_stop.12171                                  /tmp/ccBGbIcp.ltrans0.ltrans.o
                                                  /tmp/ccBGbIcp.ltrans2.ltrans.o
                                                  /tmp/ccBGbIcp.ltrans1.ltrans.o
vmt.10284                                         /tmp/ccBGbIcp.ltrans2.ltrans.o
                                                  /tmp/ccBGbIcp.ltrans0.ltrans.o
wakeup.4718                                       /tmp/ccBGbIcp.ltrans0.ltrans.o
                                                  /tmp/ccBGbIcp.ltrans2.ltrans.o
write.10191                                       /tmp/ccBGbIcp.ltrans2.ltrans.o
writet.10185                                      /tmp/ccBGbIcp.ltrans2.ltrans.o
