Archive member included because of file (symbol)

/usr/bin/../lib/gcc/arm-none-eabi/4.8.4/armv7e-m/fpu/libgcc.a(_arm_addsubdf3.o)
                              /tmp/ccYi0lZ1.ltrans2.ltrans.o (__aeabi_dsub)
/usr/bin/../lib/gcc/arm-none-eabi/4.8.4/armv7e-m/fpu/libgcc.a(_arm_muldivdf3.o)
                              /tmp/ccYi0lZ1.ltrans2.ltrans.o (__aeabi_dmul)
/usr/bin/../lib/gcc/arm-none-eabi/4.8.4/armv7e-m/fpu/libgcc.a(_arm_fixdfsi.o)
                              /tmp/ccYi0lZ1.ltrans2.ltrans.o (__aeabi_d2iz)
/usr/bin/../lib/gcc/arm-none-eabi/4.8.4/armv7e-m/fpu/libgcc.a(_arm_truncdfsf2.o)
                              /tmp/ccYi0lZ1.ltrans2.ltrans.o (__aeabi_d2f)
/usr/bin/../lib/gcc/arm-none-eabi/4.8.4/../../../../arm-none-eabi/lib/armv7e-m/fpu/libc.a(lib_a-strcpy.o)
                              /tmp/ccYi0lZ1.ltrans3.ltrans.o (strcpy)
/usr/bin/../lib/gcc/arm-none-eabi/4.8.4/../../../../arm-none-eabi/lib/armv7e-m/fpu/libc.a(lib_a-strlen.o)
                              /tmp/ccYi0lZ1.ltrans1.ltrans.o (strlen)
/usr/bin/../lib/gcc/arm-none-eabi/4.8.4/../../../../arm-none-eabi/lib/armv7e-m/fpu/libc.a(lib_a-strncmp.o)
                              /tmp/ccYi0lZ1.ltrans1.ltrans.o (strncmp)

Discarded input sections

 .data          0x0000000000000000        0x0 build/obj/chcoreasm_v7m.o
 .bss           0x0000000000000000        0x0 build/obj/chcoreasm_v7m.o
 .text          0x0000000000000000        0x0 build/obj/crt0.o (symbol from plugin)
 .text          0x0000000000000000        0x0 /tmp/ccYi0lZ1.ltrans0.ltrans.o
 .data          0x0000000000000000        0x0 /tmp/ccYi0lZ1.ltrans0.ltrans.o
 .bss           0x0000000000000000        0x0 /tmp/ccYi0lZ1.ltrans0.ltrans.o
 .text          0x0000000000000000        0x0 /tmp/ccYi0lZ1.ltrans1.ltrans.o
 .data          0x0000000000000000        0x0 /tmp/ccYi0lZ1.ltrans1.ltrans.o
 .bss           0x0000000000000000        0x0 /tmp/ccYi0lZ1.ltrans1.ltrans.o
 .text          0x0000000000000000        0x0 /tmp/ccYi0lZ1.ltrans2.ltrans.o
 .data          0x0000000000000000        0x0 /tmp/ccYi0lZ1.ltrans2.ltrans.o
 .bss           0x0000000000000000        0x0 /tmp/ccYi0lZ1.ltrans2.ltrans.o
 .text          0x0000000000000000        0x0 /tmp/ccYi0lZ1.ltrans3.ltrans.o
 .data          0x0000000000000000        0x0 /tmp/ccYi0lZ1.ltrans3.ltrans.o
 .bss           0x0000000000000000        0x0 /tmp/ccYi0lZ1.ltrans3.ltrans.o
 .text          0x0000000000000000        0x0 /tmp/ccYi0lZ1.ltrans4.ltrans.o
 .data          0x0000000000000000        0x0 /tmp/ccYi0lZ1.ltrans4.ltrans.o
 .bss           0x0000000000000000        0x0 /tmp/ccYi0lZ1.ltrans4.ltrans.o
 .data          0x0000000000000000        0x0 /usr/bin/../lib/gcc/arm-none-eabi/4.8.4/armv7e-m/fpu/libgcc.a(_arm_addsubdf3.o)
 .bss           0x0000000000000000        0x0 /usr/bin/../lib/gcc/arm-none-eabi/4.8.4/armv7e-m/fpu/libgcc.a(_arm_addsubdf3.o)
 .data          0x0000000000000000        0x0 /usr/bin/../lib/gcc/arm-none-eabi/4.8.4/armv7e-m/fpu/libgcc.a(_arm_muldivdf3.o)
 .bss           0x0000000000000000        0x0 /usr/bin/../lib/gcc/arm-none-eabi/4.8.4/armv7e-m/fpu/libgcc.a(_arm_muldivdf3.o)
 .data          0x0000000000000000        0x0 /usr/bin/../lib/gcc/arm-none-eabi/4.8.4/armv7e-m/fpu/libgcc.a(_arm_fixdfsi.o)
 .bss           0x0000000000000000        0x0 /usr/bin/../lib/gcc/arm-none-eabi/4.8.4/armv7e-m/fpu/libgcc.a(_arm_fixdfsi.o)
 .data          0x0000000000000000        0x0 /usr/bin/../lib/gcc/arm-none-eabi/4.8.4/armv7e-m/fpu/libgcc.a(_arm_truncdfsf2.o)
 .bss           0x0000000000000000        0x0 /usr/bin/../lib/gcc/arm-none-eabi/4.8.4/armv7e-m/fpu/libgcc.a(_arm_truncdfsf2.o)
 .text          0x0000000000000000        0x0 /usr/bin/../lib/gcc/arm-none-eabi/4.8.4/../../../../arm-none-eabi/lib/armv7e-m/fpu/libc.a(lib_a-strcpy.o)
 .data          0x0000000000000000        0x0 /usr/bin/../lib/gcc/arm-none-eabi/4.8.4/../../../../arm-none-eabi/lib/armv7e-m/fpu/libc.a(lib_a-strcpy.o)
 .bss           0x0000000000000000        0x0 /usr/bin/../lib/gcc/arm-none-eabi/4.8.4/../../../../arm-none-eabi/lib/armv7e-m/fpu/libc.a(lib_a-strcpy.o)
 .text          0x0000000000000000        0x0 /usr/bin/../lib/gcc/arm-none-eabi/4.8.4/../../../../arm-none-eabi/lib/armv7e-m/fpu/libc.a(lib_a-strlen.o)
 .data          0x0000000000000000        0x0 /usr/bin/../lib/gcc/arm-none-eabi/4.8.4/../../../../arm-none-eabi/lib/armv7e-m/fpu/libc.a(lib_a-strlen.o)
 .bss           0x0000000000000000        0x0 /usr/bin/../lib/gcc/arm-none-eabi/4.8.4/../../../../arm-none-eabi/lib/armv7e-m/fpu/libc.a(lib_a-strlen.o)
 .text          0x0000000000000000        0x0 /usr/bin/../lib/gcc/arm-none-eabi/4.8.4/../../../../arm-none-eabi/lib/armv7e-m/fpu/libc.a(lib_a-strncmp.o)
 .data          0x0000000000000000        0x0 /usr/bin/../lib/gcc/arm-none-eabi/4.8.4/../../../../arm-none-eabi/lib/armv7e-m/fpu/libc.a(lib_a-strncmp.o)
 .bss           0x0000000000000000        0x0 /usr/bin/../lib/gcc/arm-none-eabi/4.8.4/../../../../arm-none-eabi/lib/armv7e-m/fpu/libc.a(lib_a-strncmp.o)
 .text          0x0000000000000000        0x0 build/obj/vectors.o (symbol from plugin)
 .text          0x0000000000000000        0x0 build/obj/chcore.o (symbol from plugin)
 .text          0x0000000000000000        0x0 build/obj/chcore_v7m.o (symbol from plugin)
 .text          0x0000000000000000        0x0 build/obj/chsys.o (symbol from plugin)
 .text          0x0000000000000000        0x0 build/obj/chdebug.o (symbol from plugin)
 .text          0x0000000000000000        0x0 build/obj/chtm.o (symbol from plugin)
 .text          0x0000000000000000        0x0 build/obj/chstats.o (symbol from plugin)
 .text          0x0000000000000000        0x0 build/obj/chschd.o (symbol from plugin)
 .text          0x0000000000000000        0x0 build/obj/chvt.o (symbol from plugin)
 .text          0x0000000000000000        0x0 build/obj/chthreads.o (symbol from plugin)
 .text          0x0000000000000000        0x0 build/obj/chdynamic.o (symbol from plugin)
 .text          0x0000000000000000        0x0 build/obj/chregistry.o (symbol from plugin)
 .text          0x0000000000000000        0x0 build/obj/chsem.o (symbol from plugin)
 .text          0x0000000000000000        0x0 build/obj/chmtx.o (symbol from plugin)
 .text          0x0000000000000000        0x0 build/obj/chcond.o (symbol from plugin)
 .text          0x0000000000000000        0x0 build/obj/chevents.o (symbol from plugin)
 .text          0x0000000000000000        0x0 build/obj/chmsg.o (symbol from plugin)
 .text          0x0000000000000000        0x0 build/obj/chmboxes.o (symbol from plugin)
 .text          0x0000000000000000        0x0 build/obj/chqueues.o (symbol from plugin)
 .text          0x0000000000000000        0x0 build/obj/chmemcore.o (symbol from plugin)
 .text          0x0000000000000000        0x0 build/obj/chheap.o (symbol from plugin)
 .text          0x0000000000000000        0x0 build/obj/chmempools.o (symbol from plugin)
 .text          0x0000000000000000        0x0 build/obj/test.o (symbol from plugin)
 .text          0x0000000000000000        0x0 build/obj/testthd.o (symbol from plugin)
 .text          0x0000000000000000        0x0 build/obj/testsem.o (symbol from plugin)
 .text          0x0000000000000000        0x0 build/obj/testmtx.o (symbol from plugin)
 .text          0x0000000000000000        0x0 build/obj/testmsg.o (symbol from plugin)
 .text          0x0000000000000000        0x0 build/obj/testmbox.o (symbol from plugin)
 .text          0x0000000000000000        0x0 build/obj/testevt.o (symbol from plugin)
 .text          0x0000000000000000        0x0 build/obj/testheap.o (symbol from plugin)
 .text          0x0000000000000000        0x0 build/obj/testpools.o (symbol from plugin)
 .text          0x0000000000000000        0x0 build/obj/testdyn.o (symbol from plugin)
 .text          0x0000000000000000        0x0 build/obj/testqueues.o (symbol from plugin)
 .text          0x0000000000000000        0x0 build/obj/testbmk.o (symbol from plugin)
 .text          0x0000000000000000        0x0 build/obj/hal.o (symbol from plugin)
 .text          0x0000000000000000        0x0 build/obj/hal_queues.o (symbol from plugin)
 .text          0x0000000000000000        0x0 build/obj/hal_mmcsd.o (symbol from plugin)
 .text          0x0000000000000000        0x0 build/obj/adc.o (symbol from plugin)
 .text          0x0000000000000000        0x0 build/obj/can.o (symbol from plugin)
 .text          0x0000000000000000        0x0 build/obj/dac.o (symbol from plugin)
 .text          0x0000000000000000        0x0 build/obj/ext.o (symbol from plugin)
 .text          0x0000000000000000        0x0 build/obj/gpt.o (symbol from plugin)
 .text          0x0000000000000000        0x0 build/obj/i2c.o (symbol from plugin)
 .text          0x0000000000000000        0x0 build/obj/i2s.o (symbol from plugin)
 .text          0x0000000000000000        0x0 build/obj/icu.o (symbol from plugin)
 .text          0x0000000000000000        0x0 build/obj/mac.o (symbol from plugin)
 .text          0x0000000000000000        0x0 build/obj/mmc_spi.o (symbol from plugin)
 .text          0x0000000000000000        0x0 build/obj/pal.o (symbol from plugin)
 .text          0x0000000000000000        0x0 build/obj/pwm.o (symbol from plugin)
 .text          0x0000000000000000        0x0 build/obj/rtc.o (symbol from plugin)
 .text          0x0000000000000000        0x0 build/obj/sdc.o (symbol from plugin)
 .text          0x0000000000000000        0x0 build/obj/serial.o (symbol from plugin)
 .text          0x0000000000000000        0x0 build/obj/serial_usb.o (symbol from plugin)
 .text          0x0000000000000000        0x0 build/obj/spi.o (symbol from plugin)
 .text          0x0000000000000000        0x0 build/obj/st.o (symbol from plugin)
 .text          0x0000000000000000        0x0 build/obj/uart.o (symbol from plugin)
 .text          0x0000000000000000        0x0 build/obj/usb.o (symbol from plugin)
 .text          0x0000000000000000        0x0 build/obj/osal.o (symbol from plugin)
 .text          0x0000000000000000        0x0 build/obj/nvic.o (symbol from plugin)
 .text          0x0000000000000000        0x0 build/obj/stm32_dma.o (symbol from plugin)
 .text          0x0000000000000000        0x0 build/obj/hal_lld.o (symbol from plugin)
 .text          0x0000000000000000        0x0 build/obj/adc_lld.o (symbol from plugin)
 .text          0x0000000000000000        0x0 build/obj/ext_lld_isr.o (symbol from plugin)
 .text          0x0000000000000000        0x0 build/obj/can_lld.o (symbol from plugin)
 .text          0x0000000000000000        0x0 build/obj/ext_lld.o (symbol from plugin)
 .text          0x0000000000000000        0x0 build/obj/mac_lld.o (symbol from plugin)
 .text          0x0000000000000000        0x0 build/obj/sdc_lld.o (symbol from plugin)
 .text          0x0000000000000000        0x0 build/obj/dac_lld.o (symbol from plugin)
 .text          0x0000000000000000        0x0 build/obj/pal_lld.o (symbol from plugin)
 .text          0x0000000000000000        0x0 build/obj/i2c_lld.o (symbol from plugin)
 .text          0x0000000000000000        0x0 build/obj/usb_lld.o (symbol from plugin)
 .text          0x0000000000000000        0x0 build/obj/rtc_lld.o (symbol from plugin)
 .text          0x0000000000000000        0x0 build/obj/i2s_lld.o (symbol from plugin)
 .text          0x0000000000000000        0x0 build/obj/spi_lld.o (symbol from plugin)
 .text          0x0000000000000000        0x0 build/obj/gpt_lld.o (symbol from plugin)
 .text          0x0000000000000000        0x0 build/obj/icu_lld.o (symbol from plugin)
 .text          0x0000000000000000        0x0 build/obj/pwm_lld.o (symbol from plugin)
 .text          0x0000000000000000        0x0 build/obj/st_lld.o (symbol from plugin)
 .text          0x0000000000000000        0x0 build/obj/serial_lld.o (symbol from plugin)
 .text          0x0000000000000000        0x0 build/obj/uart_lld.o (symbol from plugin)
 .text          0x0000000000000000        0x0 build/obj/board.o (symbol from plugin)
 .text          0x0000000000000000        0x0 build/obj/fatfs_diskio.o (symbol from plugin)
 .text          0x0000000000000000        0x0 build/obj/fatfs_syscall.o (symbol from plugin)
 .text          0x0000000000000000        0x0 build/obj/ff.o (symbol from plugin)
 .text          0x0000000000000000        0x0 build/obj/unicode.o (symbol from plugin)
 .text          0x0000000000000000        0x0 build/obj/chprintf.o (symbol from plugin)
 .text          0x0000000000000000        0x0 build/obj/memstreams.o (symbol from plugin)
 .text          0x0000000000000000        0x0 build/obj/analog_sensor.o (symbol from plugin)
 .text          0x0000000000000000        0x0 build/obj/i2c_sensor.o (symbol from plugin)
 .text          0x0000000000000000        0x0 build/obj/bmp280.o (symbol from plugin)
 .text          0x0000000000000000        0x0 build/obj/si70x0.o (symbol from plugin)
 .text          0x0000000000000000        0x0 build/obj/ms5607.o (symbol from plugin)
 .text          0x0000000000000000        0x0 build/obj/hih6030.o (symbol from plugin)
 .text          0x0000000000000000        0x0 build/obj/lsm303.o (symbol from plugin)
 .text          0x0000000000000000        0x0 build/obj/rfm23bp.o (symbol from plugin)
 .text          0x0000000000000000        0x0 build/obj/rtd.o (symbol from plugin)
 .text          0x0000000000000000        0x0 build/obj/tmp275.o (symbol from plugin)
 .text          0x0000000000000000        0x0 build/obj/datasample.o (symbol from plugin)
 .text          0x0000000000000000        0x0 build/obj/sensor_thread.o (symbol from plugin)
 .text          0x0000000000000000        0x0 build/obj/ustr.o (symbol from plugin)
 .text          0x0000000000000000        0x0 build/obj/umath.o (symbol from plugin)
 .text          0x0000000000000000        0x0 build/obj/gps.o (symbol from plugin)
 .text          0x0000000000000000        0x0 build/obj/sdmmcsimple.o (symbol from plugin)
 .text          0x0000000000000000        0x0 build/obj/datalogger.o (symbol from plugin)
 .text          0x0000000000000000        0x0 build/obj/main.o (symbol from plugin)

Memory Configuration

Name             Origin             Length             Attributes
flash            0x0000000008000000 0x0000000000080000
ram              0x0000000020000000 0x0000000000018000
*default*        0x0000000000000000 0xffffffffffffffff

Linker script and memory map

LOAD build/obj/chcoreasm_v7m.o
LOAD build/obj/crt0.o
LOAD /tmp/ccYi0lZ1.ltrans0.ltrans.o
LOAD /tmp/ccYi0lZ1.ltrans1.ltrans.o
LOAD /tmp/ccYi0lZ1.ltrans2.ltrans.o
LOAD /tmp/ccYi0lZ1.ltrans3.ltrans.o
LOAD /tmp/ccYi0lZ1.ltrans4.ltrans.o
LOAD /usr/bin/../lib/gcc/arm-none-eabi/4.8.4/armv7e-m/fpu/libgcc.a
LOAD /usr/bin/../lib/gcc/arm-none-eabi/4.8.4/../../../../arm-none-eabi/lib/armv7e-m/fpu/libc.a
LOAD build/obj/vectors.o
LOAD build/obj/chcore.o
LOAD build/obj/chcore_v7m.o
LOAD build/obj/chsys.o
LOAD build/obj/chdebug.o
LOAD build/obj/chtm.o
LOAD build/obj/chstats.o
LOAD build/obj/chschd.o
LOAD build/obj/chvt.o
LOAD build/obj/chthreads.o
LOAD build/obj/chdynamic.o
LOAD build/obj/chregistry.o
LOAD build/obj/chsem.o
LOAD build/obj/chmtx.o
LOAD build/obj/chcond.o
LOAD build/obj/chevents.o
LOAD build/obj/chmsg.o
LOAD build/obj/chmboxes.o
LOAD build/obj/chqueues.o
LOAD build/obj/chmemcore.o
LOAD build/obj/chheap.o
LOAD build/obj/chmempools.o
LOAD build/obj/test.o
LOAD build/obj/testthd.o
LOAD build/obj/testsem.o
LOAD build/obj/testmtx.o
LOAD build/obj/testmsg.o
LOAD build/obj/testmbox.o
LOAD build/obj/testevt.o
LOAD build/obj/testheap.o
LOAD build/obj/testpools.o
LOAD build/obj/testdyn.o
LOAD build/obj/testqueues.o
LOAD build/obj/testbmk.o
LOAD build/obj/hal.o
LOAD build/obj/hal_queues.o
LOAD build/obj/hal_mmcsd.o
LOAD build/obj/adc.o
LOAD build/obj/can.o
LOAD build/obj/dac.o
LOAD build/obj/ext.o
LOAD build/obj/gpt.o
LOAD build/obj/i2c.o
LOAD build/obj/i2s.o
LOAD build/obj/icu.o
LOAD build/obj/mac.o
LOAD build/obj/mmc_spi.o
LOAD build/obj/pal.o
LOAD build/obj/pwm.o
LOAD build/obj/rtc.o
LOAD build/obj/sdc.o
LOAD build/obj/serial.o
LOAD build/obj/serial_usb.o
LOAD build/obj/spi.o
LOAD build/obj/st.o
LOAD build/obj/uart.o
LOAD build/obj/usb.o
LOAD build/obj/osal.o
LOAD build/obj/nvic.o
LOAD build/obj/stm32_dma.o
LOAD build/obj/hal_lld.o
LOAD build/obj/adc_lld.o
LOAD build/obj/ext_lld_isr.o
LOAD build/obj/can_lld.o
LOAD build/obj/ext_lld.o
LOAD build/obj/mac_lld.o
LOAD build/obj/sdc_lld.o
LOAD build/obj/dac_lld.o
LOAD build/obj/pal_lld.o
LOAD build/obj/i2c_lld.o
LOAD build/obj/usb_lld.o
LOAD build/obj/rtc_lld.o
LOAD build/obj/i2s_lld.o
LOAD build/obj/spi_lld.o
LOAD build/obj/gpt_lld.o
LOAD build/obj/icu_lld.o
LOAD build/obj/pwm_lld.o
LOAD build/obj/st_lld.o
LOAD build/obj/serial_lld.o
LOAD build/obj/uart_lld.o
LOAD build/obj/board.o
LOAD build/obj/fatfs_diskio.o
LOAD build/obj/fatfs_syscall.o
LOAD build/obj/ff.o
LOAD build/obj/unicode.o
LOAD build/obj/chprintf.o
LOAD build/obj/memstreams.o
LOAD build/obj/analog_sensor.o
LOAD build/obj/i2c_sensor.o
LOAD build/obj/bmp280.o
LOAD build/obj/si70x0.o
LOAD build/obj/ms5607.o
LOAD build/obj/hih6030.o
LOAD build/obj/lsm303.o
LOAD build/obj/rfm23bp.o
LOAD build/obj/rtd.o
LOAD build/obj/tmp275.o
LOAD build/obj/datasample.o
LOAD build/obj/sensor_thread.o
LOAD build/obj/ustr.o
LOAD build/obj/umath.o
LOAD build/obj/gps.o
LOAD build/obj/sdmmcsimple.o
LOAD build/obj/datalogger.o
LOAD build/obj/main.o
                0x0000000020000000                __ram_start__ = ORIGIN (ram)
                0x0000000000018000                __ram_size__ = 0x18000
                0x0000000020018000                __ram_end__ = (__ram_start__ + __ram_size__)
                0x0000000000000000                . = 0x0
                0x0000000000000000                _text = .

startup         0x0000000008000000      0x1c0
 *(vectors)
 vectors        0x0000000008000000      0x1c0 /tmp/ccYi0lZ1.ltrans3.ltrans.o
                0x0000000008000000                _vectors

constructors    0x00000000080001c0        0x0
                0x00000000080001c0                PROVIDE (__init_array_start, .)
 *(SORT(.init_array.*))
 *(.init_array)
                0x00000000080001c0                PROVIDE (__init_array_end, .)

destructors     0x00000000080001c0        0x0
                0x00000000080001c0                PROVIDE (__fini_array_start, .)
 *(.fini_array)
 *(SORT(.fini_array.*))
                0x00000000080001c0                PROVIDE (__fini_array_end, .)

.text           0x00000000080001c0     0x4800
 *(.text.startup.*)
 .text.startup.main.4451
                0x00000000080001c0      0x8d0 /tmp/ccYi0lZ1.ltrans3.ltrans.o
 *(.text)
 .text          0x0000000008000a90       0x2e build/obj/chcoreasm_v7m.o
                0x0000000008000a90                _port_switch
                0x0000000008000aa8                _port_thread_start
                0x0000000008000ab6                _port_switch_from_isr
                0x0000000008000aba                _port_exit_from_isr
 *fill*         0x0000000008000abe        0x2 
 .text          0x0000000008000ac0      0x370 /usr/bin/../lib/gcc/arm-none-eabi/4.8.4/armv7e-m/fpu/libgcc.a(_arm_addsubdf3.o)
                0x0000000008000ac0                __aeabi_drsub
                0x0000000008000ac8                __aeabi_dsub
                0x0000000008000ac8                __subdf3
                0x0000000008000acc                __adddf3
                0x0000000008000acc                __aeabi_dadd
                0x0000000008000d44                __aeabi_ui2d
                0x0000000008000d44                __floatunsidf
                0x0000000008000d64                __floatsidf
                0x0000000008000d64                __aeabi_i2d
                0x0000000008000d88                __extendsfdf2
                0x0000000008000d88                __aeabi_f2d
                0x0000000008000dc4                __aeabi_ul2d
                0x0000000008000dc4                __floatundidf
                0x0000000008000dd4                __floatdidf
                0x0000000008000dd4                __aeabi_l2d
 .text          0x0000000008000e30      0x424 /usr/bin/../lib/gcc/arm-none-eabi/4.8.4/armv7e-m/fpu/libgcc.a(_arm_muldivdf3.o)
                0x0000000008000e30                __aeabi_dmul
                0x0000000008000e30                __muldf3
                0x0000000008001084                __aeabi_ddiv
                0x0000000008001084                __divdf3
 *fill*         0x0000000008001254        0xc 
 .text          0x0000000008001260       0x50 /usr/bin/../lib/gcc/arm-none-eabi/4.8.4/armv7e-m/fpu/libgcc.a(_arm_fixdfsi.o)
                0x0000000008001260                __fixdfsi
                0x0000000008001260                __aeabi_d2iz
 .text          0x00000000080012b0       0xa0 /usr/bin/../lib/gcc/arm-none-eabi/4.8.4/armv7e-m/fpu/libgcc.a(_arm_truncdfsf2.o)
                0x00000000080012b0                __aeabi_d2f
                0x00000000080012b0                __truncdfsf2
 *(.text.*)
 .text.adc_lld_stop_conversion.4317
                0x0000000008001350       0x40 /tmp/ccYi0lZ1.ltrans0.ltrans.o
 .text.mmcGetInfo
                0x0000000008001390       0x20 /tmp/ccYi0lZ1.ltrans0.ltrans.o
                0x0000000008001390                mmcGetInfo
 .text.chCoreAlloc
                0x00000000080013b0       0x40 /tmp/ccYi0lZ1.ltrans0.ltrans.o
                0x00000000080013b0                chCoreAlloc
 .text.wakeup.4718
                0x00000000080013f0       0x70 /tmp/ccYi0lZ1.ltrans0.ltrans.o
                0x00000000080013f0                wakeup.4718
 .text._idle_thread.4338
                0x0000000008001460       0x20 /tmp/ccYi0lZ1.ltrans0.ltrans.o
                0x0000000008001460                _idle_thread.4338
 .text.SVC_Handler
                0x0000000008001480       0x20 /tmp/ccYi0lZ1.ltrans0.ltrans.o
                0x0000000008001480                SVC_Handler
 .text._pal_lld_setgroupmode
                0x00000000080014a0       0xd0 /tmp/ccYi0lZ1.ltrans0.ltrans.o
                0x00000000080014a0                _pal_lld_setgroupmode
 .text.dmaStreamRelease
                0x0000000008001570       0x70 /tmp/ccYi0lZ1.ltrans0.ltrans.o
                0x0000000008001570                dmaStreamRelease
 .text.dmaStreamAllocate
                0x00000000080015e0       0xc0 /tmp/ccYi0lZ1.ltrans0.ltrans.o
                0x00000000080015e0                dmaStreamAllocate
 .text.spiStart
                0x00000000080016a0       0xe0 /tmp/ccYi0lZ1.ltrans0.ltrans.o
                0x00000000080016a0                spiStart
 .text.chSchDoRescheduleAhead
                0x0000000008001780       0x40 /tmp/ccYi0lZ1.ltrans0.ltrans.o
                0x0000000008001780                chSchDoRescheduleAhead
 .text.chSchGoSleepS
                0x00000000080017c0       0x30 /tmp/ccYi0lZ1.ltrans0.ltrans.o
                0x00000000080017c0                chSchGoSleepS
 .text.chThdSuspendS
                0x00000000080017f0       0x30 /tmp/ccYi0lZ1.ltrans0.ltrans.o
                0x00000000080017f0                chThdSuspendS
 .text._port_irq_epilogue
                0x0000000008001820       0x70 /tmp/ccYi0lZ1.ltrans0.ltrans.o
                0x0000000008001820                _port_irq_epilogue
 .text.Vector158
                0x0000000008001890       0x30 /tmp/ccYi0lZ1.ltrans0.ltrans.o
                0x0000000008001890                Vector158
 .text.Vector154
                0x00000000080018c0       0x30 /tmp/ccYi0lZ1.ltrans0.ltrans.o
                0x00000000080018c0                Vector154
 .text.Vector150
                0x00000000080018f0       0x30 /tmp/ccYi0lZ1.ltrans0.ltrans.o
                0x00000000080018f0                Vector150
 .text.Vector130
                0x0000000008001920       0x30 /tmp/ccYi0lZ1.ltrans0.ltrans.o
                0x0000000008001920                Vector130
 .text.Vector12C
                0x0000000008001950       0x30 /tmp/ccYi0lZ1.ltrans0.ltrans.o
                0x0000000008001950                Vector12C
 .text.Vector128
                0x0000000008001980       0x30 /tmp/ccYi0lZ1.ltrans0.ltrans.o
                0x0000000008001980                Vector128
 .text.Vector124
                0x00000000080019b0       0x30 /tmp/ccYi0lZ1.ltrans0.ltrans.o
                0x00000000080019b0                Vector124
 .text.Vector120
                0x00000000080019e0       0x30 /tmp/ccYi0lZ1.ltrans0.ltrans.o
                0x00000000080019e0                Vector120
 .text.VectorFC
                0x0000000008001a10       0x30 /tmp/ccYi0lZ1.ltrans0.ltrans.o
                0x0000000008001a10                VectorFC
 .text.Vector84
                0x0000000008001a40       0x30 /tmp/ccYi0lZ1.ltrans0.ltrans.o
                0x0000000008001a40                Vector84
 .text.Vector80
                0x0000000008001a70       0x30 /tmp/ccYi0lZ1.ltrans0.ltrans.o
                0x0000000008001a70                Vector80
 .text.Vector7C
                0x0000000008001aa0       0x30 /tmp/ccYi0lZ1.ltrans0.ltrans.o
                0x0000000008001aa0                Vector7C
 .text.Vector78
                0x0000000008001ad0       0x30 /tmp/ccYi0lZ1.ltrans0.ltrans.o
                0x0000000008001ad0                Vector78
 .text.Vector74
                0x0000000008001b00       0x30 /tmp/ccYi0lZ1.ltrans0.ltrans.o
                0x0000000008001b00                Vector74
 .text.Vector70
                0x0000000008001b30       0x30 /tmp/ccYi0lZ1.ltrans0.ltrans.o
                0x0000000008001b30                Vector70
 .text.Vector6C
                0x0000000008001b60       0x30 /tmp/ccYi0lZ1.ltrans0.ltrans.o
                0x0000000008001b60                Vector6C
 .text.chSchReadyI
                0x0000000008001b90       0x30 /tmp/ccYi0lZ1.ltrans0.ltrans.o
                0x0000000008001b90                chSchReadyI
 .text.chEvtBroadcastFlagsI
                0x0000000008001bc0       0x60 /tmp/ccYi0lZ1.ltrans0.ltrans.o
                0x0000000008001bc0                chEvtBroadcastFlagsI
 .text.chMtxLockS
                0x0000000008001c20       0xd0 /tmp/ccYi0lZ1.ltrans0.ltrans.o
                0x0000000008001c20                chMtxLockS
 .text.chThdResumeI
                0x0000000008001cf0       0x20 /tmp/ccYi0lZ1.ltrans0.ltrans.o
                0x0000000008001cf0                chThdResumeI
 .text.i2c_lld_serve_error_interrupt.11412.4195
                0x0000000008001d10       0xb0 /tmp/ccYi0lZ1.ltrans0.ltrans.o
 .text.Vector164
                0x0000000008001dc0       0x30 /tmp/ccYi0lZ1.ltrans0.ltrans.o
                0x0000000008001dc0                Vector164
 .text.VectorC0
                0x0000000008001df0       0x30 /tmp/ccYi0lZ1.ltrans0.ltrans.o
                0x0000000008001df0                VectorC0
 .text.i2c_lld_serve_event_interrupt.11409.4238
                0x0000000008001e20      0x100 /tmp/ccYi0lZ1.ltrans0.ltrans.o
 .text.Vector160
                0x0000000008001f20       0x20 /tmp/ccYi0lZ1.ltrans0.ltrans.o
                0x0000000008001f20                Vector160
 .text.VectorBC
                0x0000000008001f40       0x20 /tmp/ccYi0lZ1.ltrans0.ltrans.o
                0x0000000008001f40                VectorBC
 .text.Vector88
                0x0000000008001f60       0x70 /tmp/ccYi0lZ1.ltrans0.ltrans.o
                0x0000000008001f60                Vector88
 .text.adc_lld_serve_rx_interrupt.11091
                0x0000000008001fd0       0xd0 /tmp/ccYi0lZ1.ltrans0.ltrans.o
                0x0000000008001fd0                adc_lld_serve_rx_interrupt.11091
 .text.chTMStopMeasurementX
                0x00000000080020a0       0x50 /tmp/ccYi0lZ1.ltrans0.ltrans.o
                0x00000000080020a0                chTMStopMeasurementX
 .text._unhandled_exception.4489
                0x00000000080020f0       0x10 /tmp/ccYi0lZ1.ltrans0.ltrans.o
                0x00000000080020f0                Vector58
                0x00000000080020f0                VectorE8
                0x00000000080020f0                Vector9C
                0x00000000080020f0                VectorAC
                0x00000000080020f0                DebugMon_Handler
                0x00000000080020f0                Vector1A0
                0x00000000080020f0                Vector5C
                0x00000000080020f0                Vector11C
                0x00000000080020f0                HardFault_Handler
                0x00000000080020f0                Vector1B8
                0x00000000080020f0                Vector19C
                0x00000000080020f0                Vector8C
                0x00000000080020f0                SysTick_Handler
                0x00000000080020f0                VectorDC
                0x00000000080020f0                PendSV_Handler
                0x00000000080020f0                Vector168
                0x00000000080020f0                NMI_Handler
                0x00000000080020f0                Vector110
                0x00000000080020f0                VectorC8
                0x00000000080020f0                Vector94
                0x00000000080020f0                VectorA8
                0x00000000080020f0                VectorB4
                0x00000000080020f0                Vector1B0
                0x00000000080020f0                UsageFault_Handler
                0x00000000080020f0                VectorEC
                0x00000000080020f0                Vector40
                0x00000000080020f0                VectorF8
                0x00000000080020f0                Vector108
                0x00000000080020f0                Vector190
                0x00000000080020f0                Vector148
                0x00000000080020f0                Vector188
                0x00000000080020f0                Vector198
                0x00000000080020f0                Vector118
                0x00000000080020f0                Vector64
                0x00000000080020f0                VectorCC
                0x00000000080020f0                Vector54
                0x00000000080020f0                Vector98
                0x00000000080020f0                Vector138
                0x00000000080020f0                Vector24
                0x00000000080020f0                Vector1AC
                0x00000000080020f0                Vector178
                0x00000000080020f0                Vector1A4
                0x00000000080020f0                VectorD0
                0x00000000080020f0                Vector1B4
                0x00000000080020f0                Vector140
                0x00000000080020f0                VectorE4
                0x00000000080020f0                Vector134
                0x00000000080020f0                VectorF0
                0x00000000080020f0                Vector13C
                0x00000000080020f0                Vector100
                0x00000000080020f0                VectorE0
                0x00000000080020f0                VectorF4
                0x00000000080020f0                MemManage_Handler
                0x00000000080020f0                VectorA0
                0x00000000080020f0                VectorC4
                0x00000000080020f0                Vector180
                0x00000000080020f0                Vector90
                0x00000000080020f0                Vector114
                0x00000000080020f0                Vector60
                0x00000000080020f0                Vector1C
                0x00000000080020f0                Vector1BC
                0x00000000080020f0                Vector17C
                0x00000000080020f0                Vector48
                0x00000000080020f0                Vector1A8
                0x00000000080020f0                Vector16C
                0x00000000080020f0                Vector4C
                0x00000000080020f0                Vector144
                0x00000000080020f0                Vector68
                0x00000000080020f0                Vector170
                0x00000000080020f0                Vector104
                0x00000000080020f0                Vector184
                0x00000000080020f0                Vector10C
                0x00000000080020f0                Vector14C
                0x00000000080020f0                BusFault_Handler
                0x00000000080020f0                Vector50
                0x00000000080020f0                Vector194
                0x00000000080020f0                Vector44
                0x00000000080020f0                Vector28
                0x00000000080020f0                VectorB8
                0x00000000080020f0                Vector34
                0x00000000080020f0                VectorA4
                0x00000000080020f0                Vector20
                0x00000000080020f0                Vector18C
                0x00000000080020f0                Vector174
 .text.spi_lld_serve_tx_interrupt.11700
                0x0000000008002100       0x20 /tmp/ccYi0lZ1.ltrans1.ltrans.o
                0x0000000008002100                spi_lld_serve_tx_interrupt.11700
 .text.VectorB0
                0x0000000008002120       0x90 /tmp/ccYi0lZ1.ltrans1.ltrans.o
                0x0000000008002120                VectorB0
 .text.chIQGetTimeout.4579
                0x00000000080021b0       0x50 /tmp/ccYi0lZ1.ltrans1.ltrans.o
 .text.gett.10196
                0x0000000008002200       0x10 /tmp/ccYi0lZ1.ltrans1.ltrans.o
                0x0000000008002200                gett.10196
 .text.get.10200
                0x0000000008002210       0x10 /tmp/ccYi0lZ1.ltrans1.ltrans.o
                0x0000000008002210                get.10200
 .text.chIQReadTimeout.4594
                0x0000000008002220       0x80 /tmp/ccYi0lZ1.ltrans1.ltrans.o
 .text.readt.10173
                0x00000000080022a0       0x10 /tmp/ccYi0lZ1.ltrans1.ltrans.o
                0x00000000080022a0                readt.10173
 .text.read.10180
                0x00000000080022b0       0x10 /tmp/ccYi0lZ1.ltrans1.ltrans.o
                0x00000000080022b0                read.10180
 .text.putt.10203
                0x00000000080022c0       0x10 /tmp/ccYi0lZ1.ltrans1.ltrans.o
                0x00000000080022c0                putt.10203
 .text.put.10208
                0x00000000080022d0       0x10 /tmp/ccYi0lZ1.ltrans1.ltrans.o
                0x00000000080022d0                put.10208
 .text.sd_lld_start
                0x00000000080022e0       0xd0 /tmp/ccYi0lZ1.ltrans1.ltrans.o
                0x00000000080022e0                sd_lld_start
 .text.chThdSleep
                0x00000000080023b0       0x20 /tmp/ccYi0lZ1.ltrans1.ltrans.o
                0x00000000080023b0                chThdSleep
 .text.gpsThread
                0x00000000080023d0      0x3d0 /tmp/ccYi0lZ1.ltrans1.ltrans.o
                0x00000000080023d0                gpsThread
 .text.wait.isra.1.9875.4550
                0x00000000080027a0       0x50 /tmp/ccYi0lZ1.ltrans1.ltrans.o
 .text.mmcSequentialWrite
                0x00000000080027f0       0x80 /tmp/ccYi0lZ1.ltrans1.ltrans.o
                0x00000000080027f0                mmcSequentialWrite
 .text.send_hdr.9878.4545
                0x0000000008002870       0x70 /tmp/ccYi0lZ1.ltrans1.ltrans.o
 .text.mmcStartSequentialWrite
                0x00000000080028e0       0x60 /tmp/ccYi0lZ1.ltrans1.ltrans.o
                0x00000000080028e0                mmcStartSequentialWrite
 .text.disk_write.constprop.25.4468
                0x0000000008002940       0x60 /tmp/ccYi0lZ1.ltrans1.ltrans.o
 .text.sync_window.part.3.12805
                0x00000000080029a0       0x60 /tmp/ccYi0lZ1.ltrans1.ltrans.o
                0x00000000080029a0                sync_window.part.3.12805
 .text.mmcStartSequentialRead.4518
                0x0000000008002a00       0x60 /tmp/ccYi0lZ1.ltrans1.ltrans.o
 .text.disk_read.constprop.27
                0x0000000008002a60       0x50 /tmp/ccYi0lZ1.ltrans1.ltrans.o
                0x0000000008002a60                disk_read.constprop.27
 .text.mmc_read.9961
                0x0000000008002ab0       0x40 /tmp/ccYi0lZ1.ltrans1.ltrans.o
                0x0000000008002ab0                mmc_read.9961
 .text.read_CxD.9894
                0x0000000008002af0       0xb0 /tmp/ccYi0lZ1.ltrans1.ltrans.o
                0x0000000008002af0                read_CxD.9894
 .text.send_command_R1.9889
                0x0000000008002ba0       0x30 /tmp/ccYi0lZ1.ltrans1.ltrans.o
                0x0000000008002ba0                send_command_R1.9889
 .text.send_command_R3.9883
                0x0000000008002bd0       0x40 /tmp/ccYi0lZ1.ltrans1.ltrans.o
                0x0000000008002bd0                send_command_R3.9883
 .text.sync.isra.2.9902.4565
                0x0000000008002c10       0x40 /tmp/ccYi0lZ1.ltrans1.ltrans.o
 .text.mmcSync  0x0000000008002c50       0x30 /tmp/ccYi0lZ1.ltrans1.ltrans.o
                0x0000000008002c50                mmcSync
 .text.mmcDisconnect
                0x0000000008002c80       0x50 /tmp/ccYi0lZ1.ltrans1.ltrans.o
                0x0000000008002c80                mmcDisconnect
 .text.long_to_string_with_divisor.13049.4542
                0x0000000008002cd0       0x50 /tmp/ccYi0lZ1.ltrans2.ltrans.o
 .text.chvprintf.4528
                0x0000000008002d20      0x380 /tmp/ccYi0lZ1.ltrans2.ltrans.o
 .text.mmc_lld_is_write_protected
                0x00000000080030a0       0x10 /tmp/ccYi0lZ1.ltrans2.ltrans.o
                0x00000000080030a0                mmc_lld_is_write_protected
 .text.mmc_lld_is_card_inserted
                0x00000000080030b0       0x10 /tmp/ccYi0lZ1.ltrans2.ltrans.o
                0x00000000080030b0                mmc_lld_is_card_inserted
 .text.notify6.12011
                0x00000000080030c0       0x10 /tmp/ccYi0lZ1.ltrans2.ltrans.o
                0x00000000080030c0                notify6.12011
 .text.notify2.12014
                0x00000000080030d0       0x10 /tmp/ccYi0lZ1.ltrans2.ltrans.o
                0x00000000080030d0                notify2.12014
 .text.spi_lld_serve_rx_interrupt.11704
                0x00000000080030e0       0x90 /tmp/ccYi0lZ1.ltrans2.ltrans.o
                0x00000000080030e0                spi_lld_serve_rx_interrupt.11704
 .text.VectorD4
                0x0000000008003170       0x70 /tmp/ccYi0lZ1.ltrans2.ltrans.o
                0x0000000008003170                VectorD4
 .text.chSchGoSleepTimeoutS
                0x00000000080031e0       0xe0 /tmp/ccYi0lZ1.ltrans2.ltrans.o
                0x00000000080031e0                chSchGoSleepTimeoutS
 .text.chThdEnqueueTimeoutS
                0x00000000080032c0       0x30 /tmp/ccYi0lZ1.ltrans2.ltrans.o
                0x00000000080032c0                chThdEnqueueTimeoutS
 .text.chOQPutTimeout
                0x00000000080032f0       0x50 /tmp/ccYi0lZ1.ltrans2.ltrans.o
                0x00000000080032f0                chOQPutTimeout
 .text.chOQWriteTimeout.4251
                0x0000000008003340       0x80 /tmp/ccYi0lZ1.ltrans2.ltrans.o
 .text.writet.10185
                0x00000000080033c0       0x10 /tmp/ccYi0lZ1.ltrans2.ltrans.o
                0x00000000080033c0                writet.10185
 .text.write.10191
                0x00000000080033d0       0x10 /tmp/ccYi0lZ1.ltrans2.ltrans.o
                0x00000000080033d0                write.10191
 .text.chSchWakeupS.constprop.36
                0x00000000080033e0       0x60 /tmp/ccYi0lZ1.ltrans2.ltrans.o
                0x00000000080033e0                chSchWakeupS.constprop.36
 .text.chMtxUnlock.constprop.35
                0x0000000008003440       0x80 /tmp/ccYi0lZ1.ltrans2.ltrans.o
                0x0000000008003440                chMtxUnlock.constprop.35
 .text.chprintf.16654.constprop.32
                0x00000000080034c0       0x30 /tmp/ccYi0lZ1.ltrans2.ltrans.o
                0x00000000080034c0                chprintf.16654.constprop.32
 .text.spiSend  0x00000000080034f0       0x50 /tmp/ccYi0lZ1.ltrans2.ltrans.o
                0x00000000080034f0                spiSend
 .text.spiReceive
                0x0000000008003540       0x50 /tmp/ccYi0lZ1.ltrans2.ltrans.o
                0x0000000008003540                spiReceive
 .text.recvr1.isra.0.9868
                0x0000000008003590       0x30 /tmp/ccYi0lZ1.ltrans2.ltrans.o
                0x0000000008003590                recvr1.isra.0.9868
 .text.spiIgnore
                0x00000000080035c0       0x60 /tmp/ccYi0lZ1.ltrans2.ltrans.o
                0x00000000080035c0                spiIgnore
 .text.chTMStartMeasurementX.constprop.16
                0x0000000008003620       0x10 /tmp/ccYi0lZ1.ltrans2.ltrans.o
                0x0000000008003620                chTMStartMeasurementX.constprop.16
 .text.sdObjectInit.constprop.12
                0x0000000008003630       0x70 /tmp/ccYi0lZ1.ltrans2.ltrans.o
                0x0000000008003630                sdObjectInit.constprop.12
 .text.uStrCpy.constprop.2
                0x00000000080036a0       0x40 /tmp/ccYi0lZ1.ltrans2.ltrans.o
                0x00000000080036a0                uStrCpy.constprop.2
 .text.uStrInsertChar.constprop.1
                0x00000000080036e0       0x40 /tmp/ccYi0lZ1.ltrans2.ltrans.o
                0x00000000080036e0                uStrInsertChar.constprop.1
 .text.chprintf.16128
                0x0000000008003720       0x20 /tmp/ccYi0lZ1.ltrans2.ltrans.o
                0x0000000008003720                chprintf.16128
 .text.chprintf.15767
                0x0000000008003740       0x20 /tmp/ccYi0lZ1.ltrans2.ltrans.o
                0x0000000008003740                chprintf.15767
 .text.uStrPrependChar
                0x0000000008003760       0x30 /tmp/ccYi0lZ1.ltrans2.ltrans.o
                0x0000000008003760                uStrPrependChar
 .text.get_ldnumber.12788
                0x0000000008003790       0x40 /tmp/ccYi0lZ1.ltrans2.ltrans.o
                0x0000000008003790                get_ldnumber.12788
 .text.boardInit
                0x00000000080037d0       0xf0 /tmp/ccYi0lZ1.ltrans2.ltrans.o
                0x00000000080037d0                boardInit
 .text.spiUnselect
                0x00000000080038c0       0x20 /tmp/ccYi0lZ1.ltrans2.ltrans.o
                0x00000000080038c0                spiUnselect
 .text.mmcStopSequentialRead.part.7.9923
                0x00000000080038e0       0x30 /tmp/ccYi0lZ1.ltrans2.ltrans.o
                0x00000000080038e0                mmcStopSequentialRead.part.7.9923
 .text.spiSelect
                0x0000000008003910       0x20 /tmp/ccYi0lZ1.ltrans2.ltrans.o
                0x0000000008003910                spiSelect
 .text.spiStop  0x0000000008003930       0x60 /tmp/ccYi0lZ1.ltrans2.ltrans.o
                0x0000000008003930                spiStop
 .text.mmcSequentialRead
                0x0000000008003990       0x60 /tmp/ccYi0lZ1.ltrans2.ltrans.o
                0x0000000008003990                mmcSequentialRead
 .text.Reset_Handler
                0x00000000080039f0      0x1b0 /tmp/ccYi0lZ1.ltrans3.ltrans.o
                0x00000000080039f0                Reset_Handler
 .text.mmc_write.9978.4678
                0x0000000008003ba0       0x60 /tmp/ccYi0lZ1.ltrans3.ltrans.o
 .text.chThdExit
                0x0000000008003c00       0x50 /tmp/ccYi0lZ1.ltrans3.ltrans.o
                0x0000000008003c00                chThdExit
 .text.chSchDoReschedule
                0x0000000008003c50       0x10 /tmp/ccYi0lZ1.ltrans3.ltrans.o
                0x0000000008003c50                chSchDoReschedule
 .text.serve_interrupt.12021.4025
                0x0000000008003c60      0x1a0 /tmp/ccYi0lZ1.ltrans4.ltrans.o
 .text.Vector15C
                0x0000000008003e00       0x20 /tmp/ccYi0lZ1.ltrans4.ltrans.o
                0x0000000008003e00                Vector15C
 .text.VectorD8
                0x0000000008003e20       0x20 /tmp/ccYi0lZ1.ltrans4.ltrans.o
                0x0000000008003e20                VectorD8
 .text.check_fs.12822.4366
                0x0000000008003e40       0xa0 /tmp/ccYi0lZ1.ltrans4.ltrans.o
 .text.mmcConnect
                0x0000000008003ee0      0x170 /tmp/ccYi0lZ1.ltrans4.ltrans.o
                0x0000000008003ee0                mmcConnect
 .text.f_mount  0x0000000008004050      0x360 /tmp/ccYi0lZ1.ltrans4.ltrans.o
                0x0000000008004050                f_mount
 .text.strcpy   0x00000000080043b0       0xbc /usr/bin/../lib/gcc/arm-none-eabi/4.8.4/../../../../arm-none-eabi/lib/armv7e-m/fpu/libc.a(lib_a-strcpy.o)
                0x00000000080043b0                strcpy
 *fill*         0x000000000800446c        0x4 
 .text.strlen   0x0000000008004470       0x60 /usr/bin/../lib/gcc/arm-none-eabi/4.8.4/../../../../arm-none-eabi/lib/armv7e-m/fpu/libc.a(lib_a-strlen.o)
                0x0000000008004470                strlen
 .text.strncmp  0x00000000080044d0       0xb4 /usr/bin/../lib/gcc/arm-none-eabi/4.8.4/../../../../arm-none-eabi/lib/armv7e-m/fpu/libc.a(lib_a-strncmp.o)
                0x00000000080044d0                strncmp
 *(.rodata)
 *(.rodata.*)
 *fill*         0x0000000008004584        0xc 
 .rodata.str1.4
                0x0000000008004590        0x5 /tmp/ccYi0lZ1.ltrans0.ltrans.o
                                          0x8 (size before relaxing)
 *fill*         0x0000000008004595        0xb 
 .rodata.crc7_lookup_table.10006.4759
                0x00000000080045a0      0x100 /tmp/ccYi0lZ1.ltrans1.ltrans.o
 .rodata.vmt.10284
                0x00000000080046a0       0x20 /tmp/ccYi0lZ1.ltrans1.ltrans.o
                0x00000000080046a0                vmt.10284
 .rodata.str1.4
                0x00000000080046c0       0x18 /tmp/ccYi0lZ1.ltrans1.ltrans.o
 *fill*         0x00000000080046d8        0x8 
 .rodata.default_config.12052.4754
                0x00000000080046e0        0xc /tmp/ccYi0lZ1.ltrans1.ltrans.o
 *fill*         0x00000000080046ec        0x4 
 .rodata.start.7727.10005.4758
                0x00000000080046f0        0x4 /tmp/ccYi0lZ1.ltrans1.ltrans.o
 *fill*         0x00000000080046f4        0xc 
 .rodata.stopcmd.7716.10003.4674
                0x0000000008004700        0x8 /tmp/ccYi0lZ1.ltrans2.ltrans.o
 *fill*         0x0000000008004708        0x8 
 .rodata.str1.4
                0x0000000008004710        0x7 /tmp/ccYi0lZ1.ltrans2.ltrans.o
                                         0x14 (size before relaxing)
 *fill*         0x0000000008004717        0x9 
 .rodata.pow10.13100.4681
                0x0000000008004720       0x24 /tmp/ccYi0lZ1.ltrans2.ltrans.o
 *fill*         0x0000000008004744        0xc 
 .rodata.stop.7733.10004
                0x0000000008004750        0x4 /tmp/ccYi0lZ1.ltrans3.ltrans.o
                0x0000000008004750                stop.7733.10004
 *fill*         0x0000000008004754        0xc 
 .rodata._stm32_dma_streams
                0x0000000008004760       0xc0 /tmp/ccYi0lZ1.ltrans3.ltrans.o
 .rodata.ch_debug
                0x0000000008004820       0x18 /tmp/ccYi0lZ1.ltrans3.ltrans.o
 *fill*         0x0000000008004838        0x8 
 .rodata.str1.4
                0x0000000008004840      0x160 /tmp/ccYi0lZ1.ltrans3.ltrans.o
                                        0x164 (size before relaxing)
 .rodata.mmc_vmt.10007.5061
                0x00000000080049a0       0x20 /tmp/ccYi0lZ1.ltrans3.ltrans.o
 *(.glue_7t)
 .glue_7t       0x0000000000000000        0x0 linker stubs
 *(.glue_7)
 .glue_7        0x0000000000000000        0x0 linker stubs
 *(.gcc*)

.vfp11_veneer   0x00000000080049c0        0x0
 .vfp11_veneer  0x0000000000000000        0x0 linker stubs

.v4_bx          0x00000000080049c0        0x0
 .v4_bx         0x0000000000000000        0x0 linker stubs

.iplt           0x00000000080049c0        0x0
 .iplt          0x0000000000000000        0x0 build/obj/chcoreasm_v7m.o

.rel.dyn        0x00000000080049c0        0x0
 .rel.iplt      0x0000000000000000        0x0 build/obj/chcoreasm_v7m.o

.ARM.extab
 *(.ARM.extab* .gnu.linkonce.armextab.*)

.ARM.exidx      0x00000000080049c0        0x0
                0x00000000080049c0                PROVIDE (__exidx_start, .)
 *(.ARM.exidx* .gnu.linkonce.armexidx.*)
                0x00000000080049c0                PROVIDE (__exidx_end, .)

.eh_frame_hdr
 *(.eh_frame_hdr)

.eh_frame
 *(.eh_frame)

.textalign      0x00000000080049c0        0x0
                0x00000000080049c0                . = ALIGN (0x8)
                0x00000000080049c0                . = ALIGN (0x4)
                0x00000000080049c0                _etext = .
                0x00000000080049c0                _textdata = _etext

.stacks         0x0000000020000000      0x800
                0x0000000020000000                . = ALIGN (0x8)
                0x0000000020000000                __main_stack_base__ = .
                0x0000000020000400                . = (. + __main_stack_size__)
 *fill*         0x0000000020000000      0x400 
                0x0000000020000400                . = ALIGN (0x8)
                0x0000000020000400                __main_stack_end__ = .
                0x0000000020000400                __process_stack_base__ = .
                0x0000000020000400                __main_thread_stack_base__ = .
                0x0000000020000800                . = (. + __process_stack_size__)
 *fill*         0x0000000020000400      0x400 
                0x0000000020000800                . = ALIGN (0x8)
                0x0000000020000800                __process_stack_end__ = .
                0x0000000020000800                __main_thread_stack_end__ = .

.data           0x0000000020000800       0x30 load address 0x00000000080049c0
                0x0000000020000800                . = ALIGN (0x4)
                0x0000000020000800                PROVIDE (_data, .)
 *(.data)
 *(.data.*)
 .data.serCfg.16722.4990
                0x0000000020000800        0xc /tmp/ccYi0lZ1.ltrans3.ltrans.o
 .data.hsCfg.15907.4989
                0x000000002000080c        0xc /tmp/ccYi0lZ1.ltrans3.ltrans.o
 .data.mmcCfg.15904.4986
                0x0000000020000818        0xc /tmp/ccYi0lZ1.ltrans3.ltrans.o
 .data.lsCfg.15906.4988
                0x0000000020000824        0xc /tmp/ccYi0lZ1.ltrans3.ltrans.o
 *(.ramtext)
                0x0000000020000830                . = ALIGN (0x4)
                0x0000000020000830                PROVIDE (_edata, .)

.igot.plt       0x0000000020000830        0x0 load address 0x00000000080049f0
 .igot.plt      0x0000000000000000        0x0 build/obj/chcoreasm_v7m.o

.bss            0x0000000020000830     0x16ac
                0x0000000020000830                . = ALIGN (0x4)
                0x0000000020000830                PROVIDE (_bss_start, .)
 *(.bss)
 *(.bss.*)
 .bss.tokBuf.15554
                0x0000000020000830       0x14 /tmp/ccYi0lZ1.ltrans1.ltrans.o
                0x0000000020000830                tokBuf.15554
 .bss.gpsSem.4712
                0x0000000020000844        0xc /tmp/ccYi0lZ1.ltrans1.ltrans.o
 .bss.dummyrx.11760.4678
                0x0000000020000850        0x2 /tmp/ccYi0lZ1.ltrans2.ltrans.o
 *fill*         0x0000000020000852        0x2 
 .bss.DEBUG.16284.4978
                0x0000000020000854        0x4 /tmp/ccYi0lZ1.ltrans3.ltrans.o
 .bss.nextmem.6820
                0x0000000020000858        0x4 /tmp/ccYi0lZ1.ltrans3.ltrans.o
                0x0000000020000858                nextmem.6820
 .bss.ch        0x000000002000085c       0x34 /tmp/ccYi0lZ1.ltrans3.ltrans.o
                0x000000002000085c                ch
 .bss.SPID2     0x0000000020000890       0x30 /tmp/ccYi0lZ1.ltrans3.ltrans.o
                0x0000000020000890                SPID2
 .bss.SD2       0x00000000200008c0      0x458 /tmp/ccYi0lZ1.ltrans3.ltrans.o
                0x00000000200008c0                SD2
 .bss._idle_thread_wa.4385.5102
                0x0000000020000d18      0x160 /tmp/ccYi0lZ1.ltrans3.ltrans.o
 .bss.serialPort.15908.4976
                0x0000000020000e78        0x4 /tmp/ccYi0lZ1.ltrans3.ltrans.o
 .bss.I2CD1     0x0000000020000e7c       0x38 /tmp/ccYi0lZ1.ltrans3.ltrans.o
                0x0000000020000e7c                I2CD1
 .bss.endmem.6822
                0x0000000020000eb4        0x4 /tmp/ccYi0lZ1.ltrans3.ltrans.o
                0x0000000020000eb4                endmem.6822
 .bss.SD.15910.4977
                0x0000000020000eb8        0x4 /tmp/ccYi0lZ1.ltrans3.ltrans.o
 .bss.FS.15903.5060
                0x0000000020000ebc      0x230 /tmp/ccYi0lZ1.ltrans3.ltrans.o
 .bss.mainthread.6320.4386.4991
                0x00000000200010ec       0x44 /tmp/ccYi0lZ1.ltrans3.ltrans.o
 .bss.MMCD1     0x0000000020001130       0x34 /tmp/ccYi0lZ1.ltrans3.ltrans.o
                0x0000000020001130                MMCD1
 .bss.dma_isr_redir.10833
                0x0000000020001164       0x80 /tmp/ccYi0lZ1.ltrans3.ltrans.o
                0x0000000020001164                dma_isr_redir.10833
 .bss.dma_streams_mask.10838
                0x00000000200011e4        0x4 /tmp/ccYi0lZ1.ltrans3.ltrans.o
                0x00000000200011e4                dma_streams_mask.10838
 .bss.sd.16719.4983
                0x00000000200011e8       0x10 /tmp/ccYi0lZ1.ltrans3.ltrans.o
 .bss.SPID3     0x00000000200011f8       0x30 /tmp/ccYi0lZ1.ltrans3.ltrans.o
                0x00000000200011f8                SPID3
 .bss.ADCD1     0x0000000020001228       0x34 /tmp/ccYi0lZ1.ltrans3.ltrans.o
                0x0000000020001228                ADCD1
 .bss.logger.16715.4982
                0x000000002000125c       0x10 /tmp/ccYi0lZ1.ltrans3.ltrans.o
 .bss.dummytx.11758
                0x000000002000126c        0x2 /tmp/ccYi0lZ1.ltrans3.ltrans.o
                0x000000002000126c                dummytx.11758
 *fill*         0x000000002000126e        0x2 
 .bss.GPS.15553
                0x0000000020001270      0x140 /tmp/ccYi0lZ1.ltrans3.ltrans.o
                0x0000000020001270                GPS.15553
 .bss.waGps.16723.5056
                0x00000000200013b0      0x658 /tmp/ccYi0lZ1.ltrans3.ltrans.o
 .bss.SD6       0x0000000020001a08      0x458 /tmp/ccYi0lZ1.ltrans3.ltrans.o
                0x0000000020001a08                SD6
 .bss.default_heap.6947.5103
                0x0000000020001e60       0x20 /tmp/ccYi0lZ1.ltrans3.ltrans.o
 .bss.I2CD3     0x0000000020001e80       0x38 /tmp/ccYi0lZ1.ltrans3.ltrans.o
                0x0000000020001e80                I2CD3
 .bss.UARTD1    0x0000000020001eb8       0x1c /tmp/ccYi0lZ1.ltrans3.ltrans.o
                0x0000000020001eb8                UARTD1
 .bss.Fsid.13003.4429
                0x0000000020001ed4        0x2 /tmp/ccYi0lZ1.ltrans4.ltrans.o
 *fill*         0x0000000020001ed6        0x2 
 .bss.FatFs.13002.4428
                0x0000000020001ed8        0x4 /tmp/ccYi0lZ1.ltrans4.ltrans.o
 *(COMMON)
                0x0000000020001edc                . = ALIGN (0x4)
                0x0000000020001edc                PROVIDE (_bss_end, .)
                0x0000000020001edc                PROVIDE (end, .)
                0x0000000020001edc                _end = .
                0x0000000020001edc                __heap_base__ = _end
                0x0000000020018000                __heap_end__ = __ram_end__
                0x0000000000000400                __process_stack_size__ = 0x400
                0x0000000000000400                __main_stack_size__ = 0x400
START GROUP
LOAD /usr/bin/../lib/gcc/arm-none-eabi/4.8.4/armv7e-m/fpu/libgcc.a
LOAD /usr/bin/../lib/gcc/arm-none-eabi/4.8.4/../../../../arm-none-eabi/lib/armv7e-m/fpu/libc.a
END GROUP
OUTPUT(build/aoss584Final.elf elf32-littlearm)

.ARM.attributes
                0x0000000000000000       0x35
 .ARM.attributes
                0x0000000000000000       0x25 build/obj/chcoreasm_v7m.o
 .ARM.attributes
                0x0000000000000025       0x37 /tmp/ccYi0lZ1.ltrans0.ltrans.o
 .ARM.attributes
                0x000000000000005c       0x37 /tmp/ccYi0lZ1.ltrans1.ltrans.o
 .ARM.attributes
                0x0000000000000093       0x37 /tmp/ccYi0lZ1.ltrans2.ltrans.o
 .ARM.attributes
                0x00000000000000ca       0x37 /tmp/ccYi0lZ1.ltrans3.ltrans.o
 .ARM.attributes
                0x0000000000000101       0x37 /tmp/ccYi0lZ1.ltrans4.ltrans.o
 .ARM.attributes
                0x0000000000000138       0x22 /usr/bin/../lib/gcc/arm-none-eabi/4.8.4/armv7e-m/fpu/libgcc.a(_arm_addsubdf3.o)
 .ARM.attributes
                0x000000000000015a       0x22 /usr/bin/../lib/gcc/arm-none-eabi/4.8.4/armv7e-m/fpu/libgcc.a(_arm_muldivdf3.o)
 .ARM.attributes
                0x000000000000017c       0x22 /usr/bin/../lib/gcc/arm-none-eabi/4.8.4/armv7e-m/fpu/libgcc.a(_arm_fixdfsi.o)
 .ARM.attributes
                0x000000000000019e       0x22 /usr/bin/../lib/gcc/arm-none-eabi/4.8.4/armv7e-m/fpu/libgcc.a(_arm_truncdfsf2.o)
 .ARM.attributes
                0x00000000000001c0       0x34 /usr/bin/../lib/gcc/arm-none-eabi/4.8.4/../../../../arm-none-eabi/lib/armv7e-m/fpu/libc.a(lib_a-strcpy.o)
 .ARM.attributes
                0x00000000000001f4       0x34 /usr/bin/../lib/gcc/arm-none-eabi/4.8.4/../../../../arm-none-eabi/lib/armv7e-m/fpu/libc.a(lib_a-strlen.o)
 .ARM.attributes
                0x0000000000000228       0x34 /usr/bin/../lib/gcc/arm-none-eabi/4.8.4/../../../../arm-none-eabi/lib/armv7e-m/fpu/libc.a(lib_a-strncmp.o)

.comment        0x0000000000000000       0x70
 .comment       0x0000000000000000       0x70 /tmp/ccYi0lZ1.ltrans0.ltrans.o
                                         0x71 (size before relaxing)
 .comment       0x0000000000000000       0x71 /tmp/ccYi0lZ1.ltrans1.ltrans.o
 .comment       0x0000000000000000       0x71 /tmp/ccYi0lZ1.ltrans2.ltrans.o
 .comment       0x0000000000000000       0x71 /tmp/ccYi0lZ1.ltrans3.ltrans.o
 .comment       0x0000000000000000       0x71 /tmp/ccYi0lZ1.ltrans4.ltrans.o

.debug_frame    0x0000000000000000       0x68
 .debug_frame   0x0000000000000000       0x20 /usr/bin/../lib/gcc/arm-none-eabi/4.8.4/../../../../arm-none-eabi/lib/armv7e-m/fpu/libc.a(lib_a-strcpy.o)
 .debug_frame   0x0000000000000020       0x20 /usr/bin/../lib/gcc/arm-none-eabi/4.8.4/../../../../arm-none-eabi/lib/armv7e-m/fpu/libc.a(lib_a-strlen.o)
 .debug_frame   0x0000000000000040       0x28 /usr/bin/../lib/gcc/arm-none-eabi/4.8.4/../../../../arm-none-eabi/lib/armv7e-m/fpu/libc.a(lib_a-strncmp.o)

Cross Reference Table

Symbol                                            File
ADCD1                                             /tmp/ccYi0lZ1.ltrans3.ltrans.o
                                                  /tmp/ccYi0lZ1.ltrans0.ltrans.o
BusFault_Handler                                  /tmp/ccYi0lZ1.ltrans0.ltrans.o
                                                  /tmp/ccYi0lZ1.ltrans3.ltrans.o
DebugMon_Handler                                  /tmp/ccYi0lZ1.ltrans0.ltrans.o
                                                  /tmp/ccYi0lZ1.ltrans3.ltrans.o
GPS.15553                                         /tmp/ccYi0lZ1.ltrans3.ltrans.o
                                                  /tmp/ccYi0lZ1.ltrans2.ltrans.o
                                                  /tmp/ccYi0lZ1.ltrans1.ltrans.o
HardFault_Handler                                 /tmp/ccYi0lZ1.ltrans0.ltrans.o
                                                  /tmp/ccYi0lZ1.ltrans3.ltrans.o
I2CD1                                             /tmp/ccYi0lZ1.ltrans3.ltrans.o
                                                  /tmp/ccYi0lZ1.ltrans0.ltrans.o
I2CD3                                             /tmp/ccYi0lZ1.ltrans3.ltrans.o
                                                  /tmp/ccYi0lZ1.ltrans0.ltrans.o
MMCD1                                             /tmp/ccYi0lZ1.ltrans3.ltrans.o
                                                  /tmp/ccYi0lZ1.ltrans4.ltrans.o
                                                  /tmp/ccYi0lZ1.ltrans1.ltrans.o
MemManage_Handler                                 /tmp/ccYi0lZ1.ltrans0.ltrans.o
                                                  /tmp/ccYi0lZ1.ltrans3.ltrans.o
NMI_Handler                                       /tmp/ccYi0lZ1.ltrans0.ltrans.o
                                                  /tmp/ccYi0lZ1.ltrans3.ltrans.o
PendSV_Handler                                    /tmp/ccYi0lZ1.ltrans0.ltrans.o
                                                  /tmp/ccYi0lZ1.ltrans3.ltrans.o
Reset_Handler                                     /tmp/ccYi0lZ1.ltrans3.ltrans.o
SD2                                               /tmp/ccYi0lZ1.ltrans3.ltrans.o
                                                  /tmp/ccYi0lZ1.ltrans4.ltrans.o
                                                  /tmp/ccYi0lZ1.ltrans2.ltrans.o
                                                  /tmp/ccYi0lZ1.ltrans1.ltrans.o
SD6                                               /tmp/ccYi0lZ1.ltrans3.ltrans.o
                                                  /tmp/ccYi0lZ1.ltrans4.ltrans.o
                                                  /tmp/ccYi0lZ1.ltrans1.ltrans.o
SPID2                                             /tmp/ccYi0lZ1.ltrans3.ltrans.o
                                                  /tmp/ccYi0lZ1.ltrans2.ltrans.o
                                                  /tmp/ccYi0lZ1.ltrans0.ltrans.o
SPID3                                             /tmp/ccYi0lZ1.ltrans3.ltrans.o
                                                  /tmp/ccYi0lZ1.ltrans2.ltrans.o
                                                  /tmp/ccYi0lZ1.ltrans0.ltrans.o
SVC_Handler                                       /tmp/ccYi0lZ1.ltrans0.ltrans.o
                                                  /tmp/ccYi0lZ1.ltrans3.ltrans.o
SysTick_Handler                                   /tmp/ccYi0lZ1.ltrans0.ltrans.o
                                                  /tmp/ccYi0lZ1.ltrans3.ltrans.o
UARTD1                                            /tmp/ccYi0lZ1.ltrans3.ltrans.o
                                                  /tmp/ccYi0lZ1.ltrans2.ltrans.o
                                                  /tmp/ccYi0lZ1.ltrans1.ltrans.o
UsageFault_Handler                                /tmp/ccYi0lZ1.ltrans0.ltrans.o
                                                  /tmp/ccYi0lZ1.ltrans3.ltrans.o
Vector100                                         /tmp/ccYi0lZ1.ltrans0.ltrans.o
                                                  /tmp/ccYi0lZ1.ltrans3.ltrans.o
Vector104                                         /tmp/ccYi0lZ1.ltrans0.ltrans.o
                                                  /tmp/ccYi0lZ1.ltrans3.ltrans.o
Vector108                                         /tmp/ccYi0lZ1.ltrans0.ltrans.o
                                                  /tmp/ccYi0lZ1.ltrans3.ltrans.o
Vector10C                                         /tmp/ccYi0lZ1.ltrans0.ltrans.o
                                                  /tmp/ccYi0lZ1.ltrans3.ltrans.o
Vector110                                         /tmp/ccYi0lZ1.ltrans0.ltrans.o
                                                  /tmp/ccYi0lZ1.ltrans3.ltrans.o
Vector114                                         /tmp/ccYi0lZ1.ltrans0.ltrans.o
                                                  /tmp/ccYi0lZ1.ltrans3.ltrans.o
Vector118                                         /tmp/ccYi0lZ1.ltrans0.ltrans.o
                                                  /tmp/ccYi0lZ1.ltrans3.ltrans.o
Vector11C                                         /tmp/ccYi0lZ1.ltrans0.ltrans.o
                                                  /tmp/ccYi0lZ1.ltrans3.ltrans.o
Vector120                                         /tmp/ccYi0lZ1.ltrans0.ltrans.o
                                                  /tmp/ccYi0lZ1.ltrans3.ltrans.o
Vector124                                         /tmp/ccYi0lZ1.ltrans0.ltrans.o
                                                  /tmp/ccYi0lZ1.ltrans3.ltrans.o
Vector128                                         /tmp/ccYi0lZ1.ltrans0.ltrans.o
                                                  /tmp/ccYi0lZ1.ltrans3.ltrans.o
Vector12C                                         /tmp/ccYi0lZ1.ltrans0.ltrans.o
                                                  /tmp/ccYi0lZ1.ltrans3.ltrans.o
Vector130                                         /tmp/ccYi0lZ1.ltrans0.ltrans.o
                                                  /tmp/ccYi0lZ1.ltrans3.ltrans.o
Vector134                                         /tmp/ccYi0lZ1.ltrans0.ltrans.o
                                                  /tmp/ccYi0lZ1.ltrans3.ltrans.o
Vector138                                         /tmp/ccYi0lZ1.ltrans0.ltrans.o
                                                  /tmp/ccYi0lZ1.ltrans3.ltrans.o
Vector13C                                         /tmp/ccYi0lZ1.ltrans0.ltrans.o
                                                  /tmp/ccYi0lZ1.ltrans3.ltrans.o
Vector140                                         /tmp/ccYi0lZ1.ltrans0.ltrans.o
                                                  /tmp/ccYi0lZ1.ltrans3.ltrans.o
Vector144                                         /tmp/ccYi0lZ1.ltrans0.ltrans.o
                                                  /tmp/ccYi0lZ1.ltrans3.ltrans.o
Vector148                                         /tmp/ccYi0lZ1.ltrans0.ltrans.o
                                                  /tmp/ccYi0lZ1.ltrans3.ltrans.o
Vector14C                                         /tmp/ccYi0lZ1.ltrans0.ltrans.o
                                                  /tmp/ccYi0lZ1.ltrans3.ltrans.o
Vector150                                         /tmp/ccYi0lZ1.ltrans0.ltrans.o
                                                  /tmp/ccYi0lZ1.ltrans3.ltrans.o
Vector154                                         /tmp/ccYi0lZ1.ltrans0.ltrans.o
                                                  /tmp/ccYi0lZ1.ltrans3.ltrans.o
Vector158                                         /tmp/ccYi0lZ1.ltrans0.ltrans.o
                                                  /tmp/ccYi0lZ1.ltrans3.ltrans.o
Vector15C                                         /tmp/ccYi0lZ1.ltrans4.ltrans.o
                                                  /tmp/ccYi0lZ1.ltrans3.ltrans.o
Vector160                                         /tmp/ccYi0lZ1.ltrans0.ltrans.o
                                                  /tmp/ccYi0lZ1.ltrans3.ltrans.o
Vector164                                         /tmp/ccYi0lZ1.ltrans0.ltrans.o
                                                  /tmp/ccYi0lZ1.ltrans3.ltrans.o
Vector168                                         /tmp/ccYi0lZ1.ltrans0.ltrans.o
                                                  /tmp/ccYi0lZ1.ltrans3.ltrans.o
Vector16C                                         /tmp/ccYi0lZ1.ltrans0.ltrans.o
                                                  /tmp/ccYi0lZ1.ltrans3.ltrans.o
Vector170                                         /tmp/ccYi0lZ1.ltrans0.ltrans.o
                                                  /tmp/ccYi0lZ1.ltrans3.ltrans.o
Vector174                                         /tmp/ccYi0lZ1.ltrans0.ltrans.o
                                                  /tmp/ccYi0lZ1.ltrans3.ltrans.o
Vector178                                         /tmp/ccYi0lZ1.ltrans0.ltrans.o
                                                  /tmp/ccYi0lZ1.ltrans3.ltrans.o
Vector17C                                         /tmp/ccYi0lZ1.ltrans0.ltrans.o
                                                  /tmp/ccYi0lZ1.ltrans3.ltrans.o
Vector180                                         /tmp/ccYi0lZ1.ltrans0.ltrans.o
                                                  /tmp/ccYi0lZ1.ltrans3.ltrans.o
Vector184                                         /tmp/ccYi0lZ1.ltrans0.ltrans.o
                                                  /tmp/ccYi0lZ1.ltrans3.ltrans.o
Vector188                                         /tmp/ccYi0lZ1.ltrans0.ltrans.o
                                                  /tmp/ccYi0lZ1.ltrans3.ltrans.o
Vector18C                                         /tmp/ccYi0lZ1.ltrans0.ltrans.o
                                                  /tmp/ccYi0lZ1.ltrans3.ltrans.o
Vector190                                         /tmp/ccYi0lZ1.ltrans0.ltrans.o
                                                  /tmp/ccYi0lZ1.ltrans3.ltrans.o
Vector194                                         /tmp/ccYi0lZ1.ltrans0.ltrans.o
                                                  /tmp/ccYi0lZ1.ltrans3.ltrans.o
Vector198                                         /tmp/ccYi0lZ1.ltrans0.ltrans.o
                                                  /tmp/ccYi0lZ1.ltrans3.ltrans.o
Vector19C                                         /tmp/ccYi0lZ1.ltrans0.ltrans.o
                                                  /tmp/ccYi0lZ1.ltrans3.ltrans.o
Vector1A0                                         /tmp/ccYi0lZ1.ltrans0.ltrans.o
                                                  /tmp/ccYi0lZ1.ltrans3.ltrans.o
Vector1A4                                         /tmp/ccYi0lZ1.ltrans0.ltrans.o
                                                  /tmp/ccYi0lZ1.ltrans3.ltrans.o
Vector1A8                                         /tmp/ccYi0lZ1.ltrans0.ltrans.o
                                                  /tmp/ccYi0lZ1.ltrans3.ltrans.o
Vector1AC                                         /tmp/ccYi0lZ1.ltrans0.ltrans.o
                                                  /tmp/ccYi0lZ1.ltrans3.ltrans.o
Vector1B0                                         /tmp/ccYi0lZ1.ltrans0.ltrans.o
                                                  /tmp/ccYi0lZ1.ltrans3.ltrans.o
Vector1B4                                         /tmp/ccYi0lZ1.ltrans0.ltrans.o
                                                  /tmp/ccYi0lZ1.ltrans3.ltrans.o
Vector1B8                                         /tmp/ccYi0lZ1.ltrans0.ltrans.o
                                                  /tmp/ccYi0lZ1.ltrans3.ltrans.o
Vector1BC                                         /tmp/ccYi0lZ1.ltrans0.ltrans.o
                                                  /tmp/ccYi0lZ1.ltrans3.ltrans.o
Vector1C                                          /tmp/ccYi0lZ1.ltrans0.ltrans.o
                                                  /tmp/ccYi0lZ1.ltrans3.ltrans.o
Vector20                                          /tmp/ccYi0lZ1.ltrans0.ltrans.o
                                                  /tmp/ccYi0lZ1.ltrans3.ltrans.o
Vector24                                          /tmp/ccYi0lZ1.ltrans0.ltrans.o
                                                  /tmp/ccYi0lZ1.ltrans3.ltrans.o
Vector28                                          /tmp/ccYi0lZ1.ltrans0.ltrans.o
                                                  /tmp/ccYi0lZ1.ltrans3.ltrans.o
Vector34                                          /tmp/ccYi0lZ1.ltrans0.ltrans.o
                                                  /tmp/ccYi0lZ1.ltrans3.ltrans.o
Vector40                                          /tmp/ccYi0lZ1.ltrans0.ltrans.o
                                                  /tmp/ccYi0lZ1.ltrans3.ltrans.o
Vector44                                          /tmp/ccYi0lZ1.ltrans0.ltrans.o
                                                  /tmp/ccYi0lZ1.ltrans3.ltrans.o
Vector48                                          /tmp/ccYi0lZ1.ltrans0.ltrans.o
                                                  /tmp/ccYi0lZ1.ltrans3.ltrans.o
Vector4C                                          /tmp/ccYi0lZ1.ltrans0.ltrans.o
                                                  /tmp/ccYi0lZ1.ltrans3.ltrans.o
Vector50                                          /tmp/ccYi0lZ1.ltrans0.ltrans.o
                                                  /tmp/ccYi0lZ1.ltrans3.ltrans.o
Vector54                                          /tmp/ccYi0lZ1.ltrans0.ltrans.o
                                                  /tmp/ccYi0lZ1.ltrans3.ltrans.o
Vector58                                          /tmp/ccYi0lZ1.ltrans0.ltrans.o
                                                  /tmp/ccYi0lZ1.ltrans3.ltrans.o
Vector5C                                          /tmp/ccYi0lZ1.ltrans0.ltrans.o
                                                  /tmp/ccYi0lZ1.ltrans3.ltrans.o
Vector60                                          /tmp/ccYi0lZ1.ltrans0.ltrans.o
                                                  /tmp/ccYi0lZ1.ltrans3.ltrans.o
Vector64                                          /tmp/ccYi0lZ1.ltrans0.ltrans.o
                                                  /tmp/ccYi0lZ1.ltrans3.ltrans.o
Vector68                                          /tmp/ccYi0lZ1.ltrans0.ltrans.o
                                                  /tmp/ccYi0lZ1.ltrans3.ltrans.o
Vector6C                                          /tmp/ccYi0lZ1.ltrans0.ltrans.o
                                                  /tmp/ccYi0lZ1.ltrans3.ltrans.o
Vector70                                          /tmp/ccYi0lZ1.ltrans0.ltrans.o
                                                  /tmp/ccYi0lZ1.ltrans3.ltrans.o
Vector74                                          /tmp/ccYi0lZ1.ltrans0.ltrans.o
                                                  /tmp/ccYi0lZ1.ltrans3.ltrans.o
Vector78                                          /tmp/ccYi0lZ1.ltrans0.ltrans.o
                                                  /tmp/ccYi0lZ1.ltrans3.ltrans.o
Vector7C                                          /tmp/ccYi0lZ1.ltrans0.ltrans.o
                                                  /tmp/ccYi0lZ1.ltrans3.ltrans.o
Vector80                                          /tmp/ccYi0lZ1.ltrans0.ltrans.o
                                                  /tmp/ccYi0lZ1.ltrans3.ltrans.o
Vector84                                          /tmp/ccYi0lZ1.ltrans0.ltrans.o
                                                  /tmp/ccYi0lZ1.ltrans3.ltrans.o
Vector88                                          /tmp/ccYi0lZ1.ltrans0.ltrans.o
                                                  /tmp/ccYi0lZ1.ltrans3.ltrans.o
Vector8C                                          /tmp/ccYi0lZ1.ltrans0.ltrans.o
                                                  /tmp/ccYi0lZ1.ltrans3.ltrans.o
Vector90                                          /tmp/ccYi0lZ1.ltrans0.ltrans.o
                                                  /tmp/ccYi0lZ1.ltrans3.ltrans.o
Vector94                                          /tmp/ccYi0lZ1.ltrans0.ltrans.o
                                                  /tmp/ccYi0lZ1.ltrans3.ltrans.o
Vector98                                          /tmp/ccYi0lZ1.ltrans0.ltrans.o
                                                  /tmp/ccYi0lZ1.ltrans3.ltrans.o
Vector9C                                          /tmp/ccYi0lZ1.ltrans0.ltrans.o
                                                  /tmp/ccYi0lZ1.ltrans3.ltrans.o
VectorA0                                          /tmp/ccYi0lZ1.ltrans0.ltrans.o
                                                  /tmp/ccYi0lZ1.ltrans3.ltrans.o
VectorA4                                          /tmp/ccYi0lZ1.ltrans0.ltrans.o
                                                  /tmp/ccYi0lZ1.ltrans3.ltrans.o
VectorA8                                          /tmp/ccYi0lZ1.ltrans0.ltrans.o
                                                  /tmp/ccYi0lZ1.ltrans3.ltrans.o
VectorAC                                          /tmp/ccYi0lZ1.ltrans0.ltrans.o
                                                  /tmp/ccYi0lZ1.ltrans3.ltrans.o
VectorB0                                          /tmp/ccYi0lZ1.ltrans1.ltrans.o
                                                  /tmp/ccYi0lZ1.ltrans3.ltrans.o
VectorB4                                          /tmp/ccYi0lZ1.ltrans0.ltrans.o
                                                  /tmp/ccYi0lZ1.ltrans3.ltrans.o
VectorB8                                          /tmp/ccYi0lZ1.ltrans0.ltrans.o
                                                  /tmp/ccYi0lZ1.ltrans3.ltrans.o
VectorBC                                          /tmp/ccYi0lZ1.ltrans0.ltrans.o
                                                  /tmp/ccYi0lZ1.ltrans3.ltrans.o
VectorC0                                          /tmp/ccYi0lZ1.ltrans0.ltrans.o
                                                  /tmp/ccYi0lZ1.ltrans3.ltrans.o
VectorC4                                          /tmp/ccYi0lZ1.ltrans0.ltrans.o
                                                  /tmp/ccYi0lZ1.ltrans3.ltrans.o
VectorC8                                          /tmp/ccYi0lZ1.ltrans0.ltrans.o
                                                  /tmp/ccYi0lZ1.ltrans3.ltrans.o
VectorCC                                          /tmp/ccYi0lZ1.ltrans0.ltrans.o
                                                  /tmp/ccYi0lZ1.ltrans3.ltrans.o
VectorD0                                          /tmp/ccYi0lZ1.ltrans0.ltrans.o
                                                  /tmp/ccYi0lZ1.ltrans3.ltrans.o
VectorD4                                          /tmp/ccYi0lZ1.ltrans2.ltrans.o
                                                  /tmp/ccYi0lZ1.ltrans3.ltrans.o
VectorD8                                          /tmp/ccYi0lZ1.ltrans4.ltrans.o
                                                  /tmp/ccYi0lZ1.ltrans3.ltrans.o
VectorDC                                          /tmp/ccYi0lZ1.ltrans0.ltrans.o
                                                  /tmp/ccYi0lZ1.ltrans3.ltrans.o
VectorE0                                          /tmp/ccYi0lZ1.ltrans0.ltrans.o
                                                  /tmp/ccYi0lZ1.ltrans3.ltrans.o
VectorE4                                          /tmp/ccYi0lZ1.ltrans0.ltrans.o
                                                  /tmp/ccYi0lZ1.ltrans3.ltrans.o
VectorE8                                          /tmp/ccYi0lZ1.ltrans0.ltrans.o
                                                  /tmp/ccYi0lZ1.ltrans3.ltrans.o
VectorEC                                          /tmp/ccYi0lZ1.ltrans0.ltrans.o
                                                  /tmp/ccYi0lZ1.ltrans3.ltrans.o
VectorF0                                          /tmp/ccYi0lZ1.ltrans0.ltrans.o
                                                  /tmp/ccYi0lZ1.ltrans3.ltrans.o
VectorF4                                          /tmp/ccYi0lZ1.ltrans0.ltrans.o
                                                  /tmp/ccYi0lZ1.ltrans3.ltrans.o
VectorF8                                          /tmp/ccYi0lZ1.ltrans0.ltrans.o
                                                  /tmp/ccYi0lZ1.ltrans3.ltrans.o
VectorFC                                          /tmp/ccYi0lZ1.ltrans0.ltrans.o
                                                  /tmp/ccYi0lZ1.ltrans3.ltrans.o
__adddf3                                          /usr/bin/../lib/gcc/arm-none-eabi/4.8.4/armv7e-m/fpu/libgcc.a(_arm_addsubdf3.o)
__aeabi_d2f                                       /usr/bin/../lib/gcc/arm-none-eabi/4.8.4/armv7e-m/fpu/libgcc.a(_arm_truncdfsf2.o)
                                                  /tmp/ccYi0lZ1.ltrans2.ltrans.o
__aeabi_d2iz                                      /usr/bin/../lib/gcc/arm-none-eabi/4.8.4/armv7e-m/fpu/libgcc.a(_arm_fixdfsi.o)
                                                  /tmp/ccYi0lZ1.ltrans2.ltrans.o
__aeabi_dadd                                      /usr/bin/../lib/gcc/arm-none-eabi/4.8.4/armv7e-m/fpu/libgcc.a(_arm_addsubdf3.o)
__aeabi_ddiv                                      /usr/bin/../lib/gcc/arm-none-eabi/4.8.4/armv7e-m/fpu/libgcc.a(_arm_muldivdf3.o)
__aeabi_dmul                                      /usr/bin/../lib/gcc/arm-none-eabi/4.8.4/armv7e-m/fpu/libgcc.a(_arm_muldivdf3.o)
                                                  /tmp/ccYi0lZ1.ltrans2.ltrans.o
__aeabi_drsub                                     /usr/bin/../lib/gcc/arm-none-eabi/4.8.4/armv7e-m/fpu/libgcc.a(_arm_addsubdf3.o)
__aeabi_dsub                                      /usr/bin/../lib/gcc/arm-none-eabi/4.8.4/armv7e-m/fpu/libgcc.a(_arm_addsubdf3.o)
                                                  /tmp/ccYi0lZ1.ltrans2.ltrans.o
__aeabi_f2d                                       /usr/bin/../lib/gcc/arm-none-eabi/4.8.4/armv7e-m/fpu/libgcc.a(_arm_addsubdf3.o)
                                                  /tmp/ccYi0lZ1.ltrans2.ltrans.o
__aeabi_i2d                                       /usr/bin/../lib/gcc/arm-none-eabi/4.8.4/armv7e-m/fpu/libgcc.a(_arm_addsubdf3.o)
                                                  /tmp/ccYi0lZ1.ltrans2.ltrans.o
__aeabi_l2d                                       /usr/bin/../lib/gcc/arm-none-eabi/4.8.4/armv7e-m/fpu/libgcc.a(_arm_addsubdf3.o)
__aeabi_ui2d                                      /usr/bin/../lib/gcc/arm-none-eabi/4.8.4/armv7e-m/fpu/libgcc.a(_arm_addsubdf3.o)
                                                  /tmp/ccYi0lZ1.ltrans2.ltrans.o
__aeabi_ul2d                                      /usr/bin/../lib/gcc/arm-none-eabi/4.8.4/armv7e-m/fpu/libgcc.a(_arm_addsubdf3.o)
__divdf3                                          /usr/bin/../lib/gcc/arm-none-eabi/4.8.4/armv7e-m/fpu/libgcc.a(_arm_muldivdf3.o)
__extendsfdf2                                     /usr/bin/../lib/gcc/arm-none-eabi/4.8.4/armv7e-m/fpu/libgcc.a(_arm_addsubdf3.o)
__fixdfsi                                         /usr/bin/../lib/gcc/arm-none-eabi/4.8.4/armv7e-m/fpu/libgcc.a(_arm_fixdfsi.o)
__floatdidf                                       /usr/bin/../lib/gcc/arm-none-eabi/4.8.4/armv7e-m/fpu/libgcc.a(_arm_addsubdf3.o)
__floatsidf                                       /usr/bin/../lib/gcc/arm-none-eabi/4.8.4/armv7e-m/fpu/libgcc.a(_arm_addsubdf3.o)
__floatundidf                                     /usr/bin/../lib/gcc/arm-none-eabi/4.8.4/armv7e-m/fpu/libgcc.a(_arm_addsubdf3.o)
__floatunsidf                                     /usr/bin/../lib/gcc/arm-none-eabi/4.8.4/armv7e-m/fpu/libgcc.a(_arm_addsubdf3.o)
__heap_base__                                     /tmp/ccYi0lZ1.ltrans3.ltrans.o
__heap_end__                                      /tmp/ccYi0lZ1.ltrans3.ltrans.o
__init_array_end                                  /tmp/ccYi0lZ1.ltrans3.ltrans.o
__init_array_start                                /tmp/ccYi0lZ1.ltrans3.ltrans.o
__main_stack_base__                               /tmp/ccYi0lZ1.ltrans3.ltrans.o
__main_stack_end__                                /tmp/ccYi0lZ1.ltrans3.ltrans.o
__muldf3                                          /usr/bin/../lib/gcc/arm-none-eabi/4.8.4/armv7e-m/fpu/libgcc.a(_arm_muldivdf3.o)
__process_stack_base__                            /tmp/ccYi0lZ1.ltrans3.ltrans.o
__process_stack_end__                             /tmp/ccYi0lZ1.ltrans3.ltrans.o
__subdf3                                          /usr/bin/../lib/gcc/arm-none-eabi/4.8.4/armv7e-m/fpu/libgcc.a(_arm_addsubdf3.o)
__truncdfsf2                                      /usr/bin/../lib/gcc/arm-none-eabi/4.8.4/armv7e-m/fpu/libgcc.a(_arm_truncdfsf2.o)
_bss_end                                          /tmp/ccYi0lZ1.ltrans3.ltrans.o
_bss_start                                        /tmp/ccYi0lZ1.ltrans3.ltrans.o
_data                                             /tmp/ccYi0lZ1.ltrans3.ltrans.o
_edata                                            /tmp/ccYi0lZ1.ltrans3.ltrans.o
_idle_thread.4338                                 /tmp/ccYi0lZ1.ltrans0.ltrans.o
                                                  /tmp/ccYi0lZ1.ltrans3.ltrans.o
_pal_lld_setgroupmode                             /tmp/ccYi0lZ1.ltrans0.ltrans.o
                                                  /tmp/ccYi0lZ1.ltrans3.ltrans.o
                                                  /tmp/ccYi0lZ1.ltrans2.ltrans.o
_port_exit_from_isr                               build/obj/chcoreasm_v7m.o
                                                  /tmp/ccYi0lZ1.ltrans0.ltrans.o
_port_irq_epilogue                                /tmp/ccYi0lZ1.ltrans0.ltrans.o
                                                  /tmp/ccYi0lZ1.ltrans4.ltrans.o
                                                  /tmp/ccYi0lZ1.ltrans2.ltrans.o
                                                  /tmp/ccYi0lZ1.ltrans1.ltrans.o
_port_switch                                      build/obj/chcoreasm_v7m.o
                                                  /tmp/ccYi0lZ1.ltrans2.ltrans.o
                                                  /tmp/ccYi0lZ1.ltrans0.ltrans.o
_port_switch_from_isr                             build/obj/chcoreasm_v7m.o
                                                  /tmp/ccYi0lZ1.ltrans0.ltrans.o
_port_thread_start                                build/obj/chcoreasm_v7m.o
                                                  /tmp/ccYi0lZ1.ltrans3.ltrans.o
_textdata                                         /tmp/ccYi0lZ1.ltrans3.ltrans.o
_vectors                                          /tmp/ccYi0lZ1.ltrans3.ltrans.o
adc_lld_serve_rx_interrupt.11091                  /tmp/ccYi0lZ1.ltrans0.ltrans.o
                                                  /tmp/ccYi0lZ1.ltrans3.ltrans.o
boardInit                                         /tmp/ccYi0lZ1.ltrans2.ltrans.o
                                                  /tmp/ccYi0lZ1.ltrans3.ltrans.o
ch                                                /tmp/ccYi0lZ1.ltrans3.ltrans.o
                                                  /tmp/ccYi0lZ1.ltrans2.ltrans.o
                                                  /tmp/ccYi0lZ1.ltrans1.ltrans.o
                                                  /tmp/ccYi0lZ1.ltrans0.ltrans.o
chCoreAlloc                                       /tmp/ccYi0lZ1.ltrans0.ltrans.o
                                                  /tmp/ccYi0lZ1.ltrans3.ltrans.o
chEvtBroadcastFlagsI                              /tmp/ccYi0lZ1.ltrans0.ltrans.o
                                                  /tmp/ccYi0lZ1.ltrans4.ltrans.o
chMtxLockS                                        /tmp/ccYi0lZ1.ltrans0.ltrans.o
                                                  /tmp/ccYi0lZ1.ltrans3.ltrans.o
                                                  /tmp/ccYi0lZ1.ltrans1.ltrans.o
chMtxUnlock.constprop.35                          /tmp/ccYi0lZ1.ltrans2.ltrans.o
                                                  /tmp/ccYi0lZ1.ltrans3.ltrans.o
                                                  /tmp/ccYi0lZ1.ltrans1.ltrans.o
chOQPutTimeout                                    /tmp/ccYi0lZ1.ltrans2.ltrans.o
                                                  /tmp/ccYi0lZ1.ltrans1.ltrans.o
chSchDoReschedule                                 /tmp/ccYi0lZ1.ltrans3.ltrans.o
                                                  build/obj/chcoreasm_v7m.o
chSchDoRescheduleAhead                            /tmp/ccYi0lZ1.ltrans0.ltrans.o
                                                  /tmp/ccYi0lZ1.ltrans3.ltrans.o
                                                  /tmp/ccYi0lZ1.ltrans1.ltrans.o
chSchGoSleepS                                     /tmp/ccYi0lZ1.ltrans0.ltrans.o
                                                  /tmp/ccYi0lZ1.ltrans3.ltrans.o
                                                  /tmp/ccYi0lZ1.ltrans2.ltrans.o
                                                  /tmp/ccYi0lZ1.ltrans1.ltrans.o
chSchGoSleepTimeoutS                              /tmp/ccYi0lZ1.ltrans2.ltrans.o
                                                  /tmp/ccYi0lZ1.ltrans1.ltrans.o
chSchReadyI                                       /tmp/ccYi0lZ1.ltrans0.ltrans.o
                                                  /tmp/ccYi0lZ1.ltrans4.ltrans.o
                                                  /tmp/ccYi0lZ1.ltrans3.ltrans.o
                                                  /tmp/ccYi0lZ1.ltrans1.ltrans.o
chSchWakeupS.constprop.36                         /tmp/ccYi0lZ1.ltrans2.ltrans.o
                                                  /tmp/ccYi0lZ1.ltrans3.ltrans.o
chTMStartMeasurementX.constprop.16                /tmp/ccYi0lZ1.ltrans2.ltrans.o
                                                  /tmp/ccYi0lZ1.ltrans3.ltrans.o
chTMStopMeasurementX                              /tmp/ccYi0lZ1.ltrans0.ltrans.o
                                                  /tmp/ccYi0lZ1.ltrans3.ltrans.o
chThdEnqueueTimeoutS                              /tmp/ccYi0lZ1.ltrans2.ltrans.o
                                                  /tmp/ccYi0lZ1.ltrans1.ltrans.o
chThdExit                                         /tmp/ccYi0lZ1.ltrans3.ltrans.o
                                                  build/obj/chcoreasm_v7m.o
chThdResumeI                                      /tmp/ccYi0lZ1.ltrans0.ltrans.o
                                                  /tmp/ccYi0lZ1.ltrans2.ltrans.o
chThdSleep                                        /tmp/ccYi0lZ1.ltrans1.ltrans.o
                                                  /tmp/ccYi0lZ1.ltrans4.ltrans.o
                                                  /tmp/ccYi0lZ1.ltrans3.ltrans.o
chThdSuspendS                                     /tmp/ccYi0lZ1.ltrans0.ltrans.o
                                                  /tmp/ccYi0lZ1.ltrans2.ltrans.o
chprintf.15767                                    /tmp/ccYi0lZ1.ltrans2.ltrans.o
                                                  /tmp/ccYi0lZ1.ltrans3.ltrans.o
chprintf.16128                                    /tmp/ccYi0lZ1.ltrans2.ltrans.o
                                                  /tmp/ccYi0lZ1.ltrans3.ltrans.o
chprintf.16654.constprop.32                       /tmp/ccYi0lZ1.ltrans2.ltrans.o
                                                  /tmp/ccYi0lZ1.ltrans3.ltrans.o
disk_read.constprop.27                            /tmp/ccYi0lZ1.ltrans1.ltrans.o
                                                  /tmp/ccYi0lZ1.ltrans4.ltrans.o
dmaStreamAllocate                                 /tmp/ccYi0lZ1.ltrans0.ltrans.o
                                                  /tmp/ccYi0lZ1.ltrans3.ltrans.o
dmaStreamRelease                                  /tmp/ccYi0lZ1.ltrans0.ltrans.o
                                                  /tmp/ccYi0lZ1.ltrans2.ltrans.o
                                                  /tmp/ccYi0lZ1.ltrans1.ltrans.o
dma_isr_redir.10833                               /tmp/ccYi0lZ1.ltrans3.ltrans.o
                                                  /tmp/ccYi0lZ1.ltrans0.ltrans.o
dma_streams_mask.10838                            /tmp/ccYi0lZ1.ltrans3.ltrans.o
                                                  /tmp/ccYi0lZ1.ltrans0.ltrans.o
dummytx.11758                                     /tmp/ccYi0lZ1.ltrans3.ltrans.o
                                                  /tmp/ccYi0lZ1.ltrans2.ltrans.o
endmem.6822                                       /tmp/ccYi0lZ1.ltrans3.ltrans.o
                                                  /tmp/ccYi0lZ1.ltrans0.ltrans.o
f_mount                                           /tmp/ccYi0lZ1.ltrans4.ltrans.o
                                                  /tmp/ccYi0lZ1.ltrans3.ltrans.o
get.10200                                         /tmp/ccYi0lZ1.ltrans1.ltrans.o
get_ldnumber.12788                                /tmp/ccYi0lZ1.ltrans2.ltrans.o
                                                  /tmp/ccYi0lZ1.ltrans4.ltrans.o
gett.10196                                        /tmp/ccYi0lZ1.ltrans1.ltrans.o
gpsThread                                         /tmp/ccYi0lZ1.ltrans1.ltrans.o
                                                  /tmp/ccYi0lZ1.ltrans3.ltrans.o
mmcConnect                                        /tmp/ccYi0lZ1.ltrans4.ltrans.o
                                                  /tmp/ccYi0lZ1.ltrans3.ltrans.o
mmcDisconnect                                     /tmp/ccYi0lZ1.ltrans1.ltrans.o
                                                  /tmp/ccYi0lZ1.ltrans3.ltrans.o
mmcGetInfo                                        /tmp/ccYi0lZ1.ltrans0.ltrans.o
                                                  /tmp/ccYi0lZ1.ltrans3.ltrans.o
mmcSequentialRead                                 /tmp/ccYi0lZ1.ltrans2.ltrans.o
                                                  /tmp/ccYi0lZ1.ltrans1.ltrans.o
mmcSequentialWrite                                /tmp/ccYi0lZ1.ltrans1.ltrans.o
                                                  /tmp/ccYi0lZ1.ltrans3.ltrans.o
mmcStartSequentialWrite                           /tmp/ccYi0lZ1.ltrans1.ltrans.o
                                                  /tmp/ccYi0lZ1.ltrans3.ltrans.o
mmcStopSequentialRead.part.7.9923                 /tmp/ccYi0lZ1.ltrans2.ltrans.o
                                                  /tmp/ccYi0lZ1.ltrans1.ltrans.o
mmcSync                                           /tmp/ccYi0lZ1.ltrans1.ltrans.o
                                                  /tmp/ccYi0lZ1.ltrans3.ltrans.o
mmc_lld_is_card_inserted                          /tmp/ccYi0lZ1.ltrans2.ltrans.o
                                                  /tmp/ccYi0lZ1.ltrans3.ltrans.o
mmc_lld_is_write_protected                        /tmp/ccYi0lZ1.ltrans2.ltrans.o
                                                  /tmp/ccYi0lZ1.ltrans3.ltrans.o
mmc_read.9961                                     /tmp/ccYi0lZ1.ltrans1.ltrans.o
                                                  /tmp/ccYi0lZ1.ltrans3.ltrans.o
nextmem.6820                                      /tmp/ccYi0lZ1.ltrans3.ltrans.o
                                                  /tmp/ccYi0lZ1.ltrans0.ltrans.o
notify2.12014                                     /tmp/ccYi0lZ1.ltrans2.ltrans.o
                                                  /tmp/ccYi0lZ1.ltrans3.ltrans.o
notify6.12011                                     /tmp/ccYi0lZ1.ltrans2.ltrans.o
                                                  /tmp/ccYi0lZ1.ltrans3.ltrans.o
put.10208                                         /tmp/ccYi0lZ1.ltrans1.ltrans.o
putt.10203                                        /tmp/ccYi0lZ1.ltrans1.ltrans.o
read.10180                                        /tmp/ccYi0lZ1.ltrans1.ltrans.o
read_CxD.9894                                     /tmp/ccYi0lZ1.ltrans1.ltrans.o
                                                  /tmp/ccYi0lZ1.ltrans4.ltrans.o
readt.10173                                       /tmp/ccYi0lZ1.ltrans1.ltrans.o
recvr1.isra.0.9868                                /tmp/ccYi0lZ1.ltrans2.ltrans.o
                                                  /tmp/ccYi0lZ1.ltrans1.ltrans.o
sdObjectInit.constprop.12                         /tmp/ccYi0lZ1.ltrans2.ltrans.o
                                                  /tmp/ccYi0lZ1.ltrans3.ltrans.o
sd_lld_start                                      /tmp/ccYi0lZ1.ltrans1.ltrans.o
                                                  /tmp/ccYi0lZ1.ltrans3.ltrans.o
send_command_R1.9889                              /tmp/ccYi0lZ1.ltrans1.ltrans.o
                                                  /tmp/ccYi0lZ1.ltrans4.ltrans.o
send_command_R3.9883                              /tmp/ccYi0lZ1.ltrans1.ltrans.o
                                                  /tmp/ccYi0lZ1.ltrans4.ltrans.o
spiIgnore                                         /tmp/ccYi0lZ1.ltrans2.ltrans.o
                                                  /tmp/ccYi0lZ1.ltrans4.ltrans.o
                                                  /tmp/ccYi0lZ1.ltrans1.ltrans.o
spiReceive                                        /tmp/ccYi0lZ1.ltrans2.ltrans.o
                                                  /tmp/ccYi0lZ1.ltrans1.ltrans.o
spiSelect                                         /tmp/ccYi0lZ1.ltrans2.ltrans.o
                                                  /tmp/ccYi0lZ1.ltrans1.ltrans.o
spiSend                                           /tmp/ccYi0lZ1.ltrans2.ltrans.o
                                                  /tmp/ccYi0lZ1.ltrans3.ltrans.o
                                                  /tmp/ccYi0lZ1.ltrans1.ltrans.o
spiStart                                          /tmp/ccYi0lZ1.ltrans0.ltrans.o
                                                  /tmp/ccYi0lZ1.ltrans4.ltrans.o
                                                  /tmp/ccYi0lZ1.ltrans1.ltrans.o
spiStop                                           /tmp/ccYi0lZ1.ltrans2.ltrans.o
                                                  /tmp/ccYi0lZ1.ltrans4.ltrans.o
                                                  /tmp/ccYi0lZ1.ltrans1.ltrans.o
spiUnselect                                       /tmp/ccYi0lZ1.ltrans2.ltrans.o
                                                  /tmp/ccYi0lZ1.ltrans3.ltrans.o
                                                  /tmp/ccYi0lZ1.ltrans1.ltrans.o
spi_lld_serve_rx_interrupt.11704                  /tmp/ccYi0lZ1.ltrans2.ltrans.o
                                                  /tmp/ccYi0lZ1.ltrans0.ltrans.o
spi_lld_serve_tx_interrupt.11700                  /tmp/ccYi0lZ1.ltrans1.ltrans.o
                                                  /tmp/ccYi0lZ1.ltrans0.ltrans.o
stop.7733.10004                                   /tmp/ccYi0lZ1.ltrans3.ltrans.o
                                                  /tmp/ccYi0lZ1.ltrans1.ltrans.o
strcpy                                            /usr/bin/../lib/gcc/arm-none-eabi/4.8.4/../../../../arm-none-eabi/lib/armv7e-m/fpu/libc.a(lib_a-strcpy.o)
                                                  /tmp/ccYi0lZ1.ltrans3.ltrans.o
strlen                                            /usr/bin/../lib/gcc/arm-none-eabi/4.8.4/../../../../arm-none-eabi/lib/armv7e-m/fpu/libc.a(lib_a-strlen.o)
                                                  /tmp/ccYi0lZ1.ltrans1.ltrans.o
strncmp                                           /usr/bin/../lib/gcc/arm-none-eabi/4.8.4/../../../../arm-none-eabi/lib/armv7e-m/fpu/libc.a(lib_a-strncmp.o)
                                                  /tmp/ccYi0lZ1.ltrans1.ltrans.o
sync_window.part.3.12805                          /tmp/ccYi0lZ1.ltrans1.ltrans.o
                                                  /tmp/ccYi0lZ1.ltrans4.ltrans.o
tokBuf.15554                                      /tmp/ccYi0lZ1.ltrans1.ltrans.o
                                                  /tmp/ccYi0lZ1.ltrans2.ltrans.o
uStrCpy.constprop.2                               /tmp/ccYi0lZ1.ltrans2.ltrans.o
                                                  /tmp/ccYi0lZ1.ltrans1.ltrans.o
uStrInsertChar.constprop.1                        /tmp/ccYi0lZ1.ltrans2.ltrans.o
                                                  /tmp/ccYi0lZ1.ltrans1.ltrans.o
uStrPrependChar                                   /tmp/ccYi0lZ1.ltrans2.ltrans.o
                                                  /tmp/ccYi0lZ1.ltrans1.ltrans.o
vmt.10284                                         /tmp/ccYi0lZ1.ltrans1.ltrans.o
                                                  /tmp/ccYi0lZ1.ltrans2.ltrans.o
wakeup.4718                                       /tmp/ccYi0lZ1.ltrans0.ltrans.o
                                                  /tmp/ccYi0lZ1.ltrans2.ltrans.o
write.10191                                       /tmp/ccYi0lZ1.ltrans2.ltrans.o
                                                  /tmp/ccYi0lZ1.ltrans1.ltrans.o
writet.10185                                      /tmp/ccYi0lZ1.ltrans2.ltrans.o
                                                  /tmp/ccYi0lZ1.ltrans1.ltrans.o
