Archive member included because of file (symbol)

/usr/bin/../lib/gcc/arm-none-eabi/4.8.4/armv7e-m/fpu/libgcc.a(_arm_addsubdf3.o)
                              /tmp/ccgCS5SK.ltrans0.ltrans.o (__aeabi_dsub)
/usr/bin/../lib/gcc/arm-none-eabi/4.8.4/armv7e-m/fpu/libgcc.a(_arm_muldivdf3.o)
                              /tmp/ccgCS5SK.ltrans0.ltrans.o (__aeabi_dmul)
/usr/bin/../lib/gcc/arm-none-eabi/4.8.4/armv7e-m/fpu/libgcc.a(_arm_fixdfsi.o)
                              /tmp/ccgCS5SK.ltrans0.ltrans.o (__aeabi_d2iz)
/usr/bin/../lib/gcc/arm-none-eabi/4.8.4/armv7e-m/fpu/libgcc.a(_arm_truncdfsf2.o)
                              /tmp/ccgCS5SK.ltrans0.ltrans.o (__aeabi_d2f)
/usr/bin/../lib/gcc/arm-none-eabi/4.8.4/../../../../arm-none-eabi/lib/armv7e-m/fpu/libc.a(lib_a-memset.o)
                              /tmp/ccgCS5SK.ltrans0.ltrans.o (memset)

Discarded input sections

 .data          0x0000000000000000        0x0 build/obj/chcoreasm_v7m.o
 .bss           0x0000000000000000        0x0 build/obj/chcoreasm_v7m.o
 .text          0x0000000000000000        0x0 build/obj/crt0.o (symbol from plugin)
 .text          0x0000000000000000        0x0 /tmp/ccgCS5SK.ltrans0.ltrans.o
 .data          0x0000000000000000        0x0 /tmp/ccgCS5SK.ltrans0.ltrans.o
 .bss           0x0000000000000000        0x0 /tmp/ccgCS5SK.ltrans0.ltrans.o
 .text          0x0000000000000000        0x0 /tmp/ccgCS5SK.ltrans1.ltrans.o
 .data          0x0000000000000000        0x0 /tmp/ccgCS5SK.ltrans1.ltrans.o
 .bss           0x0000000000000000        0x0 /tmp/ccgCS5SK.ltrans1.ltrans.o
 .text          0x0000000000000000        0x0 /tmp/ccgCS5SK.ltrans2.ltrans.o
 .data          0x0000000000000000        0x0 /tmp/ccgCS5SK.ltrans2.ltrans.o
 .bss           0x0000000000000000        0x0 /tmp/ccgCS5SK.ltrans2.ltrans.o
 .text          0x0000000000000000        0x0 /tmp/ccgCS5SK.ltrans3.ltrans.o
 .data          0x0000000000000000        0x0 /tmp/ccgCS5SK.ltrans3.ltrans.o
 .bss           0x0000000000000000        0x0 /tmp/ccgCS5SK.ltrans3.ltrans.o
 .text          0x0000000000000000        0x0 /tmp/ccgCS5SK.ltrans4.ltrans.o
 .data          0x0000000000000000        0x0 /tmp/ccgCS5SK.ltrans4.ltrans.o
 .bss           0x0000000000000000        0x0 /tmp/ccgCS5SK.ltrans4.ltrans.o
 .data          0x0000000000000000        0x0 /usr/bin/../lib/gcc/arm-none-eabi/4.8.4/armv7e-m/fpu/libgcc.a(_arm_addsubdf3.o)
 .bss           0x0000000000000000        0x0 /usr/bin/../lib/gcc/arm-none-eabi/4.8.4/armv7e-m/fpu/libgcc.a(_arm_addsubdf3.o)
 .data          0x0000000000000000        0x0 /usr/bin/../lib/gcc/arm-none-eabi/4.8.4/armv7e-m/fpu/libgcc.a(_arm_muldivdf3.o)
 .bss           0x0000000000000000        0x0 /usr/bin/../lib/gcc/arm-none-eabi/4.8.4/armv7e-m/fpu/libgcc.a(_arm_muldivdf3.o)
 .data          0x0000000000000000        0x0 /usr/bin/../lib/gcc/arm-none-eabi/4.8.4/armv7e-m/fpu/libgcc.a(_arm_fixdfsi.o)
 .bss           0x0000000000000000        0x0 /usr/bin/../lib/gcc/arm-none-eabi/4.8.4/armv7e-m/fpu/libgcc.a(_arm_fixdfsi.o)
 .data          0x0000000000000000        0x0 /usr/bin/../lib/gcc/arm-none-eabi/4.8.4/armv7e-m/fpu/libgcc.a(_arm_truncdfsf2.o)
 .bss           0x0000000000000000        0x0 /usr/bin/../lib/gcc/arm-none-eabi/4.8.4/armv7e-m/fpu/libgcc.a(_arm_truncdfsf2.o)
 .text          0x0000000000000000        0x0 /usr/bin/../lib/gcc/arm-none-eabi/4.8.4/../../../../arm-none-eabi/lib/armv7e-m/fpu/libc.a(lib_a-memset.o)
 .data          0x0000000000000000        0x0 /usr/bin/../lib/gcc/arm-none-eabi/4.8.4/../../../../arm-none-eabi/lib/armv7e-m/fpu/libc.a(lib_a-memset.o)
 .bss           0x0000000000000000        0x0 /usr/bin/../lib/gcc/arm-none-eabi/4.8.4/../../../../arm-none-eabi/lib/armv7e-m/fpu/libc.a(lib_a-memset.o)
 .text          0x0000000000000000        0x0 build/obj/vectors.o (symbol from plugin)
 .text          0x0000000000000000        0x0 build/obj/chcore.o (symbol from plugin)
 .text          0x0000000000000000        0x0 build/obj/chcore_v7m.o (symbol from plugin)
 .text          0x0000000000000000        0x0 build/obj/chsys.o (symbol from plugin)
 .text          0x0000000000000000        0x0 build/obj/chdebug.o (symbol from plugin)
 .text          0x0000000000000000        0x0 build/obj/chtm.o (symbol from plugin)
 .text          0x0000000000000000        0x0 build/obj/chstats.o (symbol from plugin)
 .text          0x0000000000000000        0x0 build/obj/chschd.o (symbol from plugin)
 .text          0x0000000000000000        0x0 build/obj/chvt.o (symbol from plugin)
 .text          0x0000000000000000        0x0 build/obj/chthreads.o (symbol from plugin)
 .text          0x0000000000000000        0x0 build/obj/chdynamic.o (symbol from plugin)
 .text          0x0000000000000000        0x0 build/obj/chregistry.o (symbol from plugin)
 .text          0x0000000000000000        0x0 build/obj/chsem.o (symbol from plugin)
 .text          0x0000000000000000        0x0 build/obj/chmtx.o (symbol from plugin)
 .text          0x0000000000000000        0x0 build/obj/chcond.o (symbol from plugin)
 .text          0x0000000000000000        0x0 build/obj/chevents.o (symbol from plugin)
 .text          0x0000000000000000        0x0 build/obj/chmsg.o (symbol from plugin)
 .text          0x0000000000000000        0x0 build/obj/chmboxes.o (symbol from plugin)
 .text          0x0000000000000000        0x0 build/obj/chqueues.o (symbol from plugin)
 .text          0x0000000000000000        0x0 build/obj/chmemcore.o (symbol from plugin)
 .text          0x0000000000000000        0x0 build/obj/chheap.o (symbol from plugin)
 .text          0x0000000000000000        0x0 build/obj/chmempools.o (symbol from plugin)
 .text          0x0000000000000000        0x0 build/obj/test.o (symbol from plugin)
 .text          0x0000000000000000        0x0 build/obj/testthd.o (symbol from plugin)
 .text          0x0000000000000000        0x0 build/obj/testsem.o (symbol from plugin)
 .text          0x0000000000000000        0x0 build/obj/testmtx.o (symbol from plugin)
 .text          0x0000000000000000        0x0 build/obj/testmsg.o (symbol from plugin)
 .text          0x0000000000000000        0x0 build/obj/testmbox.o (symbol from plugin)
 .text          0x0000000000000000        0x0 build/obj/testevt.o (symbol from plugin)
 .text          0x0000000000000000        0x0 build/obj/testheap.o (symbol from plugin)
 .text          0x0000000000000000        0x0 build/obj/testpools.o (symbol from plugin)
 .text          0x0000000000000000        0x0 build/obj/testdyn.o (symbol from plugin)
 .text          0x0000000000000000        0x0 build/obj/testqueues.o (symbol from plugin)
 .text          0x0000000000000000        0x0 build/obj/testbmk.o (symbol from plugin)
 .text          0x0000000000000000        0x0 build/obj/hal.o (symbol from plugin)
 .text          0x0000000000000000        0x0 build/obj/hal_queues.o (symbol from plugin)
 .text          0x0000000000000000        0x0 build/obj/hal_mmcsd.o (symbol from plugin)
 .text          0x0000000000000000        0x0 build/obj/adc.o (symbol from plugin)
 .text          0x0000000000000000        0x0 build/obj/can.o (symbol from plugin)
 .text          0x0000000000000000        0x0 build/obj/dac.o (symbol from plugin)
 .text          0x0000000000000000        0x0 build/obj/ext.o (symbol from plugin)
 .text          0x0000000000000000        0x0 build/obj/gpt.o (symbol from plugin)
 .text          0x0000000000000000        0x0 build/obj/i2c.o (symbol from plugin)
 .text          0x0000000000000000        0x0 build/obj/i2s.o (symbol from plugin)
 .text          0x0000000000000000        0x0 build/obj/icu.o (symbol from plugin)
 .text          0x0000000000000000        0x0 build/obj/mac.o (symbol from plugin)
 .text          0x0000000000000000        0x0 build/obj/mmc_spi.o (symbol from plugin)
 .text          0x0000000000000000        0x0 build/obj/pal.o (symbol from plugin)
 .text          0x0000000000000000        0x0 build/obj/pwm.o (symbol from plugin)
 .text          0x0000000000000000        0x0 build/obj/rtc.o (symbol from plugin)
 .text          0x0000000000000000        0x0 build/obj/sdc.o (symbol from plugin)
 .text          0x0000000000000000        0x0 build/obj/serial.o (symbol from plugin)
 .text          0x0000000000000000        0x0 build/obj/serial_usb.o (symbol from plugin)
 .text          0x0000000000000000        0x0 build/obj/spi.o (symbol from plugin)
 .text          0x0000000000000000        0x0 build/obj/st.o (symbol from plugin)
 .text          0x0000000000000000        0x0 build/obj/uart.o (symbol from plugin)
 .text          0x0000000000000000        0x0 build/obj/usb.o (symbol from plugin)
 .text          0x0000000000000000        0x0 build/obj/osal.o (symbol from plugin)
 .text          0x0000000000000000        0x0 build/obj/nvic.o (symbol from plugin)
 .text          0x0000000000000000        0x0 build/obj/stm32_dma.o (symbol from plugin)
 .text          0x0000000000000000        0x0 build/obj/hal_lld.o (symbol from plugin)
 .text          0x0000000000000000        0x0 build/obj/adc_lld.o (symbol from plugin)
 .text          0x0000000000000000        0x0 build/obj/ext_lld_isr.o (symbol from plugin)
 .text          0x0000000000000000        0x0 build/obj/can_lld.o (symbol from plugin)
 .text          0x0000000000000000        0x0 build/obj/ext_lld.o (symbol from plugin)
 .text          0x0000000000000000        0x0 build/obj/mac_lld.o (symbol from plugin)
 .text          0x0000000000000000        0x0 build/obj/sdc_lld.o (symbol from plugin)
 .text          0x0000000000000000        0x0 build/obj/dac_lld.o (symbol from plugin)
 .text          0x0000000000000000        0x0 build/obj/pal_lld.o (symbol from plugin)
 .text          0x0000000000000000        0x0 build/obj/i2c_lld.o (symbol from plugin)
 .text          0x0000000000000000        0x0 build/obj/usb_lld.o (symbol from plugin)
 .text          0x0000000000000000        0x0 build/obj/rtc_lld.o (symbol from plugin)
 .text          0x0000000000000000        0x0 build/obj/i2s_lld.o (symbol from plugin)
 .text          0x0000000000000000        0x0 build/obj/spi_lld.o (symbol from plugin)
 .text          0x0000000000000000        0x0 build/obj/gpt_lld.o (symbol from plugin)
 .text          0x0000000000000000        0x0 build/obj/icu_lld.o (symbol from plugin)
 .text          0x0000000000000000        0x0 build/obj/pwm_lld.o (symbol from plugin)
 .text          0x0000000000000000        0x0 build/obj/st_lld.o (symbol from plugin)
 .text          0x0000000000000000        0x0 build/obj/serial_lld.o (symbol from plugin)
 .text          0x0000000000000000        0x0 build/obj/uart_lld.o (symbol from plugin)
 .text          0x0000000000000000        0x0 build/obj/board.o (symbol from plugin)
 .text          0x0000000000000000        0x0 build/obj/chprintf.o (symbol from plugin)
 .text          0x0000000000000000        0x0 build/obj/memstreams.o (symbol from plugin)
 .text          0x0000000000000000        0x0 build/obj/xbeepro.o (symbol from plugin)
 .text          0x0000000000000000        0x0 build/obj/ustr.o (symbol from plugin)
 .text          0x0000000000000000        0x0 build/obj/traktor.o (symbol from plugin)

Memory Configuration

Name             Origin             Length             Attributes
flash            0x0000000008000000 0x0000000000040000
ram              0x0000000020000000 0x0000000000010000
*default*        0x0000000000000000 0xffffffffffffffff

Linker script and memory map

LOAD build/obj/chcoreasm_v7m.o
LOAD build/obj/crt0.o
LOAD /tmp/ccgCS5SK.ltrans0.ltrans.o
LOAD /tmp/ccgCS5SK.ltrans1.ltrans.o
LOAD /tmp/ccgCS5SK.ltrans2.ltrans.o
LOAD /tmp/ccgCS5SK.ltrans3.ltrans.o
LOAD /tmp/ccgCS5SK.ltrans4.ltrans.o
LOAD /usr/bin/../lib/gcc/arm-none-eabi/4.8.4/armv7e-m/fpu/libgcc.a
LOAD /usr/bin/../lib/gcc/arm-none-eabi/4.8.4/../../../../arm-none-eabi/lib/armv7e-m/fpu/libc.a
LOAD build/obj/vectors.o
LOAD build/obj/chcore.o
LOAD build/obj/chcore_v7m.o
LOAD build/obj/chsys.o
LOAD build/obj/chdebug.o
LOAD build/obj/chtm.o
LOAD build/obj/chstats.o
LOAD build/obj/chschd.o
LOAD build/obj/chvt.o
LOAD build/obj/chthreads.o
LOAD build/obj/chdynamic.o
LOAD build/obj/chregistry.o
LOAD build/obj/chsem.o
LOAD build/obj/chmtx.o
LOAD build/obj/chcond.o
LOAD build/obj/chevents.o
LOAD build/obj/chmsg.o
LOAD build/obj/chmboxes.o
LOAD build/obj/chqueues.o
LOAD build/obj/chmemcore.o
LOAD build/obj/chheap.o
LOAD build/obj/chmempools.o
LOAD build/obj/test.o
LOAD build/obj/testthd.o
LOAD build/obj/testsem.o
LOAD build/obj/testmtx.o
LOAD build/obj/testmsg.o
LOAD build/obj/testmbox.o
LOAD build/obj/testevt.o
LOAD build/obj/testheap.o
LOAD build/obj/testpools.o
LOAD build/obj/testdyn.o
LOAD build/obj/testqueues.o
LOAD build/obj/testbmk.o
LOAD build/obj/hal.o
LOAD build/obj/hal_queues.o
LOAD build/obj/hal_mmcsd.o
LOAD build/obj/adc.o
LOAD build/obj/can.o
LOAD build/obj/dac.o
LOAD build/obj/ext.o
LOAD build/obj/gpt.o
LOAD build/obj/i2c.o
LOAD build/obj/i2s.o
LOAD build/obj/icu.o
LOAD build/obj/mac.o
LOAD build/obj/mmc_spi.o
LOAD build/obj/pal.o
LOAD build/obj/pwm.o
LOAD build/obj/rtc.o
LOAD build/obj/sdc.o
LOAD build/obj/serial.o
LOAD build/obj/serial_usb.o
LOAD build/obj/spi.o
LOAD build/obj/st.o
LOAD build/obj/uart.o
LOAD build/obj/usb.o
LOAD build/obj/osal.o
LOAD build/obj/nvic.o
LOAD build/obj/stm32_dma.o
LOAD build/obj/hal_lld.o
LOAD build/obj/adc_lld.o
LOAD build/obj/ext_lld_isr.o
LOAD build/obj/can_lld.o
LOAD build/obj/ext_lld.o
LOAD build/obj/mac_lld.o
LOAD build/obj/sdc_lld.o
LOAD build/obj/dac_lld.o
LOAD build/obj/pal_lld.o
LOAD build/obj/i2c_lld.o
LOAD build/obj/usb_lld.o
LOAD build/obj/rtc_lld.o
LOAD build/obj/i2s_lld.o
LOAD build/obj/spi_lld.o
LOAD build/obj/gpt_lld.o
LOAD build/obj/icu_lld.o
LOAD build/obj/pwm_lld.o
LOAD build/obj/st_lld.o
LOAD build/obj/serial_lld.o
LOAD build/obj/uart_lld.o
LOAD build/obj/board.o
LOAD build/obj/chprintf.o
LOAD build/obj/memstreams.o
LOAD build/obj/xbeepro.o
LOAD build/obj/ustr.o
LOAD build/obj/traktor.o
                0x0000000020000000                __ram_start__ = ORIGIN (ram)
                0x0000000000010000                __ram_size__ = 0x10000
                0x0000000020010000                __ram_end__ = (__ram_start__ + __ram_size__)
                0x0000000000000000                . = 0x0
                0x0000000000000000                _text = .

startup         0x0000000008000000      0x1c0
 *(vectors)
 vectors        0x0000000008000000      0x1c0 /tmp/ccgCS5SK.ltrans4.ltrans.o
                0x0000000008000000                _vectors

constructors    0x00000000080001c0        0x0
                0x00000000080001c0                PROVIDE (__init_array_start, .)
 *(SORT(.init_array.*))
 *(.init_array)
                0x00000000080001c0                PROVIDE (__init_array_end, .)

destructors     0x00000000080001c0        0x0
                0x00000000080001c0                PROVIDE (__fini_array_start, .)
 *(.fini_array)
 *(SORT(.fini_array.*))
                0x00000000080001c0                PROVIDE (__fini_array_end, .)

.text           0x00000000080001c0     0x3df0
 *(.text.startup.*)
 .text.startup.main
                0x00000000080001c0      0x6e0 /tmp/ccgCS5SK.ltrans3.ltrans.o
                0x00000000080001c0                main
 *(.text)
 .text          0x00000000080008a0       0x2e build/obj/chcoreasm_v7m.o
                0x00000000080008a0                _port_switch
                0x00000000080008b8                _port_thread_start
                0x00000000080008c6                _port_switch_from_isr
                0x00000000080008ca                _port_exit_from_isr
 *fill*         0x00000000080008ce        0x2 
 .text          0x00000000080008d0      0x370 /usr/bin/../lib/gcc/arm-none-eabi/4.8.4/armv7e-m/fpu/libgcc.a(_arm_addsubdf3.o)
                0x00000000080008d0                __aeabi_drsub
                0x00000000080008d8                __aeabi_dsub
                0x00000000080008d8                __subdf3
                0x00000000080008dc                __adddf3
                0x00000000080008dc                __aeabi_dadd
                0x0000000008000b54                __aeabi_ui2d
                0x0000000008000b54                __floatunsidf
                0x0000000008000b74                __floatsidf
                0x0000000008000b74                __aeabi_i2d
                0x0000000008000b98                __extendsfdf2
                0x0000000008000b98                __aeabi_f2d
                0x0000000008000bd4                __aeabi_ul2d
                0x0000000008000bd4                __floatundidf
                0x0000000008000be4                __floatdidf
                0x0000000008000be4                __aeabi_l2d
 .text          0x0000000008000c40      0x424 /usr/bin/../lib/gcc/arm-none-eabi/4.8.4/armv7e-m/fpu/libgcc.a(_arm_muldivdf3.o)
                0x0000000008000c40                __aeabi_dmul
                0x0000000008000c40                __muldf3
                0x0000000008000e94                __aeabi_ddiv
                0x0000000008000e94                __divdf3
 *fill*         0x0000000008001064        0xc 
 .text          0x0000000008001070       0x50 /usr/bin/../lib/gcc/arm-none-eabi/4.8.4/armv7e-m/fpu/libgcc.a(_arm_fixdfsi.o)
                0x0000000008001070                __fixdfsi
                0x0000000008001070                __aeabi_d2iz
 .text          0x00000000080010c0       0xa0 /usr/bin/../lib/gcc/arm-none-eabi/4.8.4/armv7e-m/fpu/libgcc.a(_arm_truncdfsf2.o)
                0x00000000080010c0                __aeabi_d2f
                0x00000000080010c0                __truncdfsf2
 *(.text.*)
 .text.get_descriptor.13097
                0x0000000008001160       0x40 /tmp/ccgCS5SK.ltrans0.ltrans.o
                0x0000000008001160                get_descriptor.13097
 .text.long_to_string_with_divisor.12382.4336
                0x00000000080011a0       0x50 /tmp/ccgCS5SK.ltrans0.ltrans.o
 .text.notify6.12073
                0x00000000080011f0       0x10 /tmp/ccgCS5SK.ltrans0.ltrans.o
                0x00000000080011f0                notify6.12073
 .text.notify2.12076
                0x0000000008001200       0x10 /tmp/ccgCS5SK.ltrans0.ltrans.o
                0x0000000008001200                notify2.12076
 .text.sduInterruptTransmitted
                0x0000000008001210       0x10 /tmp/ccgCS5SK.ltrans0.ltrans.o
                0x0000000008001210                sduInterruptTransmitted
 .text.sduRequestsHook
                0x0000000008001220       0x40 /tmp/ccgCS5SK.ltrans0.ltrans.o
                0x0000000008001220                sduRequestsHook
 .text.chCoreAlloc
                0x0000000008001260       0x40 /tmp/ccgCS5SK.ltrans0.ltrans.o
                0x0000000008001260                chCoreAlloc
 .text.wakeup.4718
                0x00000000080012a0       0x70 /tmp/ccgCS5SK.ltrans0.ltrans.o
                0x00000000080012a0                wakeup.4718
 .text._idle_thread.4338
                0x0000000008001310       0x20 /tmp/ccgCS5SK.ltrans0.ltrans.o
                0x0000000008001310                _idle_thread.4338
 .text.SVC_Handler
                0x0000000008001330       0x20 /tmp/ccgCS5SK.ltrans0.ltrans.o
                0x0000000008001330                SVC_Handler
 .text.chprintf.13103
                0x0000000008001350      0x3a0 /tmp/ccgCS5SK.ltrans0.ltrans.o
                0x0000000008001350                chprintf.13103
 .text.usbStartTransmitI
                0x00000000080016f0       0x40 /tmp/ccgCS5SK.ltrans0.ltrans.o
                0x00000000080016f0                usbStartTransmitI
 .text.usbStartReceiveI
                0x0000000008001730       0x40 /tmp/ccgCS5SK.ltrans0.ltrans.o
                0x0000000008001730                usbStartReceiveI
 .text.usb_lld_prepare_transmit
                0x0000000008001770       0x50 /tmp/ccgCS5SK.ltrans0.ltrans.o
                0x0000000008001770                usb_lld_prepare_transmit
 .text.usb_lld_prepare_receive
                0x00000000080017c0       0x50 /tmp/ccgCS5SK.ltrans0.ltrans.o
                0x00000000080017c0                usb_lld_prepare_receive
 .text.inotify.9854
                0x0000000008001810       0x90 /tmp/ccgCS5SK.ltrans0.ltrans.o
                0x0000000008001810                inotify.9854
 .text.otg_epout_handler.11674
                0x00000000080018a0       0x90 /tmp/ccgCS5SK.ltrans0.ltrans.o
                0x00000000080018a0                otg_epout_handler.11674
 .text.otg_disable_ep.isra.0.11627
                0x0000000008001930       0x80 /tmp/ccgCS5SK.ltrans0.ltrans.o
                0x0000000008001930                otg_disable_ep.isra.0.11627
 .text.chSchDoRescheduleAhead
                0x00000000080019b0       0x40 /tmp/ccgCS5SK.ltrans0.ltrans.o
                0x00000000080019b0                chSchDoRescheduleAhead
 .text.chSchRescheduleS
                0x00000000080019f0       0x20 /tmp/ccgCS5SK.ltrans0.ltrans.o
                0x00000000080019f0                chSchRescheduleS
 .text.chSchGoSleepS
                0x0000000008001a10       0x30 /tmp/ccgCS5SK.ltrans0.ltrans.o
                0x0000000008001a10                chSchGoSleepS
 .text._port_irq_epilogue
                0x0000000008001a40       0x70 /tmp/ccgCS5SK.ltrans0.ltrans.o
                0x0000000008001a40                _port_irq_epilogue
 .text.Vector158
                0x0000000008001ab0       0x30 /tmp/ccgCS5SK.ltrans0.ltrans.o
                0x0000000008001ab0                Vector158
 .text.Vector154
                0x0000000008001ae0       0x30 /tmp/ccgCS5SK.ltrans0.ltrans.o
                0x0000000008001ae0                Vector154
 .text.Vector150
                0x0000000008001b10       0x30 /tmp/ccgCS5SK.ltrans0.ltrans.o
                0x0000000008001b10                Vector150
 .text.Vector130
                0x0000000008001b40       0x30 /tmp/ccgCS5SK.ltrans0.ltrans.o
                0x0000000008001b40                Vector130
 .text.Vector12C
                0x0000000008001b70       0x30 /tmp/ccgCS5SK.ltrans0.ltrans.o
                0x0000000008001b70                Vector12C
 .text.Vector128
                0x0000000008001ba0       0x30 /tmp/ccgCS5SK.ltrans0.ltrans.o
                0x0000000008001ba0                Vector128
 .text.Vector124
                0x0000000008001bd0       0x30 /tmp/ccgCS5SK.ltrans0.ltrans.o
                0x0000000008001bd0                Vector124
 .text.Vector120
                0x0000000008001c00       0x30 /tmp/ccgCS5SK.ltrans0.ltrans.o
                0x0000000008001c00                Vector120
 .text.VectorFC
                0x0000000008001c30       0x30 /tmp/ccgCS5SK.ltrans0.ltrans.o
                0x0000000008001c30                VectorFC
 .text.Vector84
                0x0000000008001c60       0x30 /tmp/ccgCS5SK.ltrans0.ltrans.o
                0x0000000008001c60                Vector84
 .text.Vector80
                0x0000000008001c90       0x30 /tmp/ccgCS5SK.ltrans0.ltrans.o
                0x0000000008001c90                Vector80
 .text.Vector7C
                0x0000000008001cc0       0x30 /tmp/ccgCS5SK.ltrans0.ltrans.o
                0x0000000008001cc0                Vector7C
 .text.Vector78
                0x0000000008001cf0       0x30 /tmp/ccgCS5SK.ltrans0.ltrans.o
                0x0000000008001cf0                Vector78
 .text.Vector74
                0x0000000008001d20       0x30 /tmp/ccgCS5SK.ltrans0.ltrans.o
                0x0000000008001d20                Vector74
 .text.Vector70
                0x0000000008001d50       0x30 /tmp/ccgCS5SK.ltrans0.ltrans.o
                0x0000000008001d50                Vector70
 .text.Vector6C
                0x0000000008001d80       0x30 /tmp/ccgCS5SK.ltrans0.ltrans.o
                0x0000000008001d80                Vector6C
 .text.chSchReadyI
                0x0000000008001db0       0x30 /tmp/ccgCS5SK.ltrans0.ltrans.o
                0x0000000008001db0                chSchReadyI
 .text.chEvtBroadcastFlagsI
                0x0000000008001de0       0x60 /tmp/ccgCS5SK.ltrans0.ltrans.o
                0x0000000008001de0                chEvtBroadcastFlagsI
 .text.chThdDequeueAllI
                0x0000000008001e40       0x30 /tmp/ccgCS5SK.ltrans0.ltrans.o
                0x0000000008001e40                chThdDequeueAllI
 .text.usb_lld_pump
                0x0000000008001e70      0x330 /tmp/ccgCS5SK.ltrans0.ltrans.o
                0x0000000008001e70                usb_lld_pump
 .text.chTMStopMeasurementX
                0x00000000080021a0       0x50 /tmp/ccgCS5SK.ltrans0.ltrans.o
                0x00000000080021a0                chTMStopMeasurementX
 .text.chSysPolledDelayX
                0x00000000080021f0       0x40 /tmp/ccgCS5SK.ltrans0.ltrans.o
                0x00000000080021f0                chSysPolledDelayX
 .text.usbInitEndpointI
                0x0000000008002230      0x180 /tmp/ccgCS5SK.ltrans0.ltrans.o
                0x0000000008002230                usbInitEndpointI
 .text._unhandled_exception.4539
                0x00000000080023b0       0x10 /tmp/ccgCS5SK.ltrans0.ltrans.o
                0x00000000080023b0                Vector58
                0x00000000080023b0                VectorE8
                0x00000000080023b0                Vector9C
                0x00000000080023b0                VectorAC
                0x00000000080023b0                DebugMon_Handler
                0x00000000080023b0                Vector1A0
                0x00000000080023b0                Vector5C
                0x00000000080023b0                Vector11C
                0x00000000080023b0                HardFault_Handler
                0x00000000080023b0                Vector1B8
                0x00000000080023b0                Vector19C
                0x00000000080023b0                Vector8C
                0x00000000080023b0                SysTick_Handler
                0x00000000080023b0                VectorDC
                0x00000000080023b0                PendSV_Handler
                0x00000000080023b0                Vector168
                0x00000000080023b0                NMI_Handler
                0x00000000080023b0                Vector110
                0x00000000080023b0                VectorC8
                0x00000000080023b0                Vector94
                0x00000000080023b0                VectorA8
                0x00000000080023b0                VectorB4
                0x00000000080023b0                Vector160
                0x00000000080023b0                Vector1B0
                0x00000000080023b0                UsageFault_Handler
                0x00000000080023b0                VectorEC
                0x00000000080023b0                Vector40
                0x00000000080023b0                VectorF8
                0x00000000080023b0                Vector108
                0x00000000080023b0                VectorBC
                0x00000000080023b0                Vector190
                0x00000000080023b0                Vector148
                0x00000000080023b0                Vector188
                0x00000000080023b0                Vector198
                0x00000000080023b0                Vector118
                0x00000000080023b0                Vector64
                0x00000000080023b0                VectorCC
                0x00000000080023b0                Vector54
                0x00000000080023b0                Vector98
                0x00000000080023b0                Vector138
                0x00000000080023b0                Vector24
                0x00000000080023b0                Vector1AC
                0x00000000080023b0                Vector178
                0x00000000080023b0                Vector1A4
                0x00000000080023b0                VectorD0
                0x00000000080023b0                Vector1B4
                0x00000000080023b0                Vector140
                0x00000000080023b0                VectorE4
                0x00000000080023b0                VectorC0
                0x00000000080023b0                Vector134
                0x00000000080023b0                VectorF0
                0x00000000080023b0                Vector13C
                0x00000000080023b0                Vector100
                0x00000000080023b0                VectorE0
                0x00000000080023b0                VectorF4
                0x00000000080023b0                MemManage_Handler
                0x00000000080023b0                VectorA0
                0x00000000080023b0                VectorC4
                0x00000000080023b0                Vector180
                0x00000000080023b0                Vector90
                0x00000000080023b0                Vector114
                0x00000000080023b0                Vector164
                0x00000000080023b0                Vector60
                0x00000000080023b0                Vector1C
                0x00000000080023b0                Vector1BC
                0x00000000080023b0                Vector17C
                0x00000000080023b0                Vector48
                0x00000000080023b0                Vector1A8
                0x00000000080023b0                Vector16C
                0x00000000080023b0                Vector4C
                0x00000000080023b0                Vector144
                0x00000000080023b0                Vector68
                0x00000000080023b0                Vector170
                0x00000000080023b0                Vector104
                0x00000000080023b0                Vector184
                0x00000000080023b0                Vector10C
                0x00000000080023b0                BusFault_Handler
                0x00000000080023b0                Vector50
                0x00000000080023b0                Vector194
                0x00000000080023b0                Vector44
                0x00000000080023b0                Vector28
                0x00000000080023b0                VectorB8
                0x00000000080023b0                Vector34
                0x00000000080023b0                VectorA4
                0x00000000080023b0                Vector20
                0x00000000080023b0                Vector18C
                0x00000000080023b0                Vector174
 .text.sduDataTransmitted.4416
                0x00000000080023c0       0x90 /tmp/ccgCS5SK.ltrans1.ltrans.o
 .text.sduDataReceived.4427
                0x0000000008002450       0x80 /tmp/ccgCS5SK.ltrans1.ltrans.o
 .text._usb_ep0in.4591
                0x00000000080024d0       0xd0 /tmp/ccgCS5SK.ltrans1.ltrans.o
 .text.Vector88
                0x00000000080025a0       0x90 /tmp/ccgCS5SK.ltrans1.ltrans.o
                0x00000000080025a0                Vector88
 .text.otg_epin_handler.11682.4464
                0x0000000008002630       0xe0 /tmp/ccgCS5SK.ltrans1.ltrans.o
 .text.serve_interrupt.12083.4493
                0x0000000008002710      0x1a0 /tmp/ccgCS5SK.ltrans1.ltrans.o
 .text.Vector15C
                0x00000000080028b0       0x20 /tmp/ccgCS5SK.ltrans1.ltrans.o
                0x00000000080028b0                Vector15C
 .text.VectorD8
                0x00000000080028d0       0x20 /tmp/ccgCS5SK.ltrans1.ltrans.o
                0x00000000080028d0                VectorD8
 .text.Vector14C
                0x00000000080028f0      0x210 /tmp/ccgCS5SK.ltrans1.ltrans.o
                0x00000000080028f0                Vector14C
 .text.usb_event.13118
                0x0000000008002b00       0xa0 /tmp/ccgCS5SK.ltrans1.ltrans.o
                0x0000000008002b00                usb_event.13118
 .text._usb_ep0setup.4547
                0x0000000008002ba0      0x390 /tmp/ccgCS5SK.ltrans1.ltrans.o
 .text._usb_ep0out
                0x0000000008002f30       0x90 /tmp/ccgCS5SK.ltrans2.ltrans.o
                0x0000000008002f30                _usb_ep0out
 .text.chSchGoSleepTimeoutS.4598
                0x0000000008002fc0       0xe0 /tmp/ccgCS5SK.ltrans2.ltrans.o
 .text.chThdEnqueueTimeoutS.4594
                0x00000000080030a0       0x30 /tmp/ccgCS5SK.ltrans2.ltrans.o
 .text.chIQGetTimeout.4498
                0x00000000080030d0       0x50 /tmp/ccgCS5SK.ltrans2.ltrans.o
 .text.gett.9880
                0x0000000008003120       0x10 /tmp/ccgCS5SK.ltrans2.ltrans.o
                0x0000000008003120                gett.9880
 .text.get.9884
                0x0000000008003130       0x10 /tmp/ccgCS5SK.ltrans2.ltrans.o
                0x0000000008003130                get.9884
 .text.gett.9646.4491
                0x0000000008003140       0x10 /tmp/ccgCS5SK.ltrans2.ltrans.o
 .text.get.9650.4495
                0x0000000008003150       0x10 /tmp/ccgCS5SK.ltrans2.ltrans.o
 .text.chIQReadTimeout.4534
                0x0000000008003160       0x80 /tmp/ccgCS5SK.ltrans2.ltrans.o
 .text.serialXChangeThread
                0x00000000080031e0       0x90 /tmp/ccgCS5SK.ltrans2.ltrans.o
                0x00000000080031e0                serialXChangeThread
 .text.readt.9857
                0x0000000008003270       0x10 /tmp/ccgCS5SK.ltrans2.ltrans.o
                0x0000000008003270                readt.9857
 .text.read.9864
                0x0000000008003280       0x10 /tmp/ccgCS5SK.ltrans2.ltrans.o
                0x0000000008003280                read.9864
 .text.readt.9623.4523
                0x0000000008003290       0x10 /tmp/ccgCS5SK.ltrans2.ltrans.o
 .text.read.9630.4529
                0x00000000080032a0       0x10 /tmp/ccgCS5SK.ltrans2.ltrans.o
 .text.chOQPutTimeout.4558
                0x00000000080032b0       0x50 /tmp/ccgCS5SK.ltrans2.ltrans.o
 .text.putt.9887
                0x0000000008003300       0x10 /tmp/ccgCS5SK.ltrans2.ltrans.o
                0x0000000008003300                putt.9887
 .text.put.9892
                0x0000000008003310       0x10 /tmp/ccgCS5SK.ltrans2.ltrans.o
                0x0000000008003310                put.9892
 .text.putt.9653.4549
                0x0000000008003320       0x10 /tmp/ccgCS5SK.ltrans2.ltrans.o
 .text.put.9658.4554
                0x0000000008003330       0x10 /tmp/ccgCS5SK.ltrans2.ltrans.o
 .text.chOQWriteTimeout.4588
                0x0000000008003340       0x80 /tmp/ccgCS5SK.ltrans2.ltrans.o
 .text.writet.9869
                0x00000000080033c0       0x10 /tmp/ccgCS5SK.ltrans2.ltrans.o
                0x00000000080033c0                writet.9869
 .text.write.9875
                0x00000000080033d0       0x10 /tmp/ccgCS5SK.ltrans2.ltrans.o
                0x00000000080033d0                write.9875
 .text.writet.9635.4577
                0x00000000080033e0       0x10 /tmp/ccgCS5SK.ltrans2.ltrans.o
 .text.write.9641.4583
                0x00000000080033f0       0x10 /tmp/ccgCS5SK.ltrans2.ltrans.o
 .text.VectorB0
                0x0000000008003400       0x90 /tmp/ccgCS5SK.ltrans2.ltrans.o
                0x0000000008003400                VectorB0
 .text.VectorD4
                0x0000000008003490       0x70 /tmp/ccgCS5SK.ltrans2.ltrans.o
                0x0000000008003490                VectorD4
 .text.sdObjectInit.constprop.11
                0x0000000008003500       0x70 /tmp/ccgCS5SK.ltrans2.ltrans.o
                0x0000000008003500                sdObjectInit.constprop.11
 .text.sd_lld_start
                0x0000000008003570       0xd0 /tmp/ccgCS5SK.ltrans2.ltrans.o
                0x0000000008003570                sd_lld_start
 .text.usbStart.constprop.20
                0x0000000008003640      0x180 /tmp/ccgCS5SK.ltrans2.ltrans.o
                0x0000000008003640                usbStart.constprop.20
 .text.chThdSleep
                0x00000000080037c0       0x20 /tmp/ccgCS5SK.ltrans2.ltrans.o
                0x00000000080037c0                chThdSleep
 .text.chSchWakeupS.constprop.23
                0x00000000080037e0       0x60 /tmp/ccgCS5SK.ltrans2.ltrans.o
                0x00000000080037e0                chSchWakeupS.constprop.23
 .text.chTMStartMeasurementX.constprop.14
                0x0000000008003840       0x10 /tmp/ccgCS5SK.ltrans2.ltrans.o
                0x0000000008003840                chTMStartMeasurementX.constprop.14
 .text.onotify.9851
                0x0000000008003850       0x70 /tmp/ccgCS5SK.ltrans4.ltrans.o
                0x0000000008003850                onotify.9851
 .text.Reset_Handler
                0x00000000080038c0      0x1b0 /tmp/ccgCS5SK.ltrans4.ltrans.o
                0x00000000080038c0                Reset_Handler
 .text.chThdExit
                0x0000000008003a70       0x50 /tmp/ccgCS5SK.ltrans4.ltrans.o
                0x0000000008003a70                chThdExit
 .text.chSchDoReschedule
                0x0000000008003ac0       0x10 /tmp/ccgCS5SK.ltrans4.ltrans.o
                0x0000000008003ac0                chSchDoReschedule
 .text.memset   0x0000000008003ad0       0x94 /usr/bin/../lib/gcc/arm-none-eabi/4.8.4/../../../../arm-none-eabi/lib/armv7e-m/fpu/libc.a(lib_a-memset.o)
                0x0000000008003ad0                memset
 *(.rodata)
 *(.rodata.*)
 *fill*         0x0000000008003b64        0xc 
 .rodata.vcom_string1.13168.4642
                0x0000000008003b70       0x28 /tmp/ccgCS5SK.ltrans0.ltrans.o
 *fill*         0x0000000008003b98        0x8 
 .rodata.vcom_string3.13170.4644
                0x0000000008003ba0        0x8 /tmp/ccgCS5SK.ltrans0.ltrans.o
 *fill*         0x0000000008003ba8        0x8 
 .rodata.pow10.12433.4639
                0x0000000008003bb0       0x24 /tmp/ccgCS5SK.ltrans0.ltrans.o
 *fill*         0x0000000008003bd4        0xc 
 .rodata.vcom_configuration_descriptor_data.13174.4648
                0x0000000008003be0       0x44 /tmp/ccgCS5SK.ltrans0.ltrans.o
 *fill*         0x0000000008003c24        0xc 
 .rodata.vcom_configuration_descriptor.13173.4647
                0x0000000008003c30        0x8 /tmp/ccgCS5SK.ltrans0.ltrans.o
 *fill*         0x0000000008003c38        0x8 
 .rodata.vcom_device_descriptor.13171.4645
                0x0000000008003c40        0x8 /tmp/ccgCS5SK.ltrans0.ltrans.o
 *fill*         0x0000000008003c48        0x8 
 .rodata.vcom_string2.13169.4643
                0x0000000008003c50       0x38 /tmp/ccgCS5SK.ltrans0.ltrans.o
 *fill*         0x0000000008003c88        0x8 
 .rodata.str1.4
                0x0000000008003c90       0x1d /tmp/ccgCS5SK.ltrans0.ltrans.o
                                         0x20 (size before relaxing)
 *fill*         0x0000000008003cad        0x3 
 .rodata.vcom_device_descriptor_data.13172.4646
                0x0000000008003cb0       0x14 /tmp/ccgCS5SK.ltrans0.ltrans.o
 *fill*         0x0000000008003cc4        0xc 
 .rodata.vcom_strings.13166.4640
                0x0000000008003cd0       0x20 /tmp/ccgCS5SK.ltrans0.ltrans.o
 .rodata.vcom_string0.13167.4641
                0x0000000008003cf0        0x4 /tmp/ccgCS5SK.ltrans0.ltrans.o
 *fill*         0x0000000008003cf4        0xc 
 .rodata.zero_status.10740.4662
                0x0000000008003d00        0x4 /tmp/ccgCS5SK.ltrans1.ltrans.o
 *fill*         0x0000000008003d04        0xc 
 .rodata.ep0config.11769.4649
                0x0000000008003d10       0x24 /tmp/ccgCS5SK.ltrans1.ltrans.o
 *fill*         0x0000000008003d34        0xc 
 .rodata.ep2config.13157.4658
                0x0000000008003d40       0x24 /tmp/ccgCS5SK.ltrans1.ltrans.o
 *fill*         0x0000000008003d64        0xc 
 .rodata.halted_status.10741.4663
                0x0000000008003d70        0x4 /tmp/ccgCS5SK.ltrans1.ltrans.o
 *fill*         0x0000000008003d74        0xc 
 .rodata.ep1config.13154.4655
                0x0000000008003d80       0x24 /tmp/ccgCS5SK.ltrans1.ltrans.o
 *fill*         0x0000000008003da4        0xc 
 .rodata.active_status.10742.4664
                0x0000000008003db0        0x4 /tmp/ccgCS5SK.ltrans1.ltrans.o
 *fill*         0x0000000008003db4        0xc 
 .rodata.vmt.9734.4722
                0x0000000008003dc0       0x20 /tmp/ccgCS5SK.ltrans2.ltrans.o
 .rodata.default_config.12114.4723
                0x0000000008003de0        0xc /tmp/ccgCS5SK.ltrans2.ltrans.o
 *fill*         0x0000000008003dec        0x4 
 .rodata.str1.4
                0x0000000008003df0        0x3 /tmp/ccgCS5SK.ltrans2.ltrans.o
                                          0x4 (size before relaxing)
 *fill*         0x0000000008003df3        0xd 
 .rodata.serusbcfg.13165.4804
                0x0000000008003e00        0x8 /tmp/ccgCS5SK.ltrans3.ltrans.o
 *fill*         0x0000000008003e08        0x8 
 .rodata.str1.4
                0x0000000008003e10       0x74 /tmp/ccgCS5SK.ltrans3.ltrans.o
 *fill*         0x0000000008003e84        0xc 
 .rodata.fsparams.11768.4925
                0x0000000008003e90        0xc /tmp/ccgCS5SK.ltrans3.ltrans.o
 *fill*         0x0000000008003e9c        0x4 
 .rodata.ch_debug
                0x0000000008003ea0       0x18 /tmp/ccgCS5SK.ltrans3.ltrans.o
 *fill*         0x0000000008003eb8        0x8 
 .rodata._stm32_dma_streams
                0x0000000008003ec0       0xc0 /tmp/ccgCS5SK.ltrans3.ltrans.o
 .rodata.vmt.10162.4861
                0x0000000008003f80       0x20 /tmp/ccgCS5SK.ltrans3.ltrans.o
 .rodata.usbcfg.13164
                0x0000000008003fa0       0x10 /tmp/ccgCS5SK.ltrans3.ltrans.o
                0x0000000008003fa0                usbcfg.13164
 *(.glue_7t)
 .glue_7t       0x0000000000000000        0x0 linker stubs
 *(.glue_7)
 .glue_7        0x0000000000000000        0x0 linker stubs
 *(.gcc*)

.vfp11_veneer   0x0000000008003fb0        0x0
 .vfp11_veneer  0x0000000000000000        0x0 linker stubs

.v4_bx          0x0000000008003fb0        0x0
 .v4_bx         0x0000000000000000        0x0 linker stubs

.iplt           0x0000000008003fb0        0x0
 .iplt          0x0000000000000000        0x0 build/obj/chcoreasm_v7m.o

.rel.dyn        0x0000000008003fb0        0x0
 .rel.iplt      0x0000000000000000        0x0 build/obj/chcoreasm_v7m.o

.ARM.extab
 *(.ARM.extab* .gnu.linkonce.armextab.*)

.ARM.exidx      0x0000000008003fb0        0x0
                0x0000000008003fb0                PROVIDE (__exidx_start, .)
 *(.ARM.exidx* .gnu.linkonce.armexidx.*)
                0x0000000008003fb0                PROVIDE (__exidx_end, .)

.eh_frame_hdr
 *(.eh_frame_hdr)

.eh_frame
 *(.eh_frame)

.textalign      0x0000000008003fb0        0x0
                0x0000000008003fb0                . = ALIGN (0x8)
                0x0000000008003fb0                . = ALIGN (0x4)
                0x0000000008003fb0                _etext = .
                0x0000000008003fb0                _textdata = _etext

.stacks         0x0000000020000000      0x800
                0x0000000020000000                . = ALIGN (0x8)
                0x0000000020000000                __main_stack_base__ = .
                0x0000000020000400                . = (. + __main_stack_size__)
 *fill*         0x0000000020000000      0x400 
                0x0000000020000400                . = ALIGN (0x8)
                0x0000000020000400                __main_stack_end__ = .
                0x0000000020000400                __process_stack_base__ = .
                0x0000000020000400                __main_thread_stack_base__ = .
                0x0000000020000800                . = (. + __process_stack_size__)
 *fill*         0x0000000020000400      0x400 
                0x0000000020000800                . = ALIGN (0x8)
                0x0000000020000800                __process_stack_end__ = .
                0x0000000020000800                __main_thread_stack_end__ = .

.data           0x0000000020000800       0x20 load address 0x0000000008003fb0
                0x0000000020000800                . = ALIGN (0x4)
                0x0000000020000800                PROVIDE (_data, .)
 *(.data)
 *(.data.*)
 .data.linecoding.10155.4685
                0x0000000020000800        0x8 /tmp/ccgCS5SK.ltrans0.ltrans.o
 .data.xbeeSerCfg.12694.4864
                0x0000000020000808        0xc /tmp/ccgCS5SK.ltrans3.ltrans.o
 .data.serCfg.13161.4863
                0x0000000020000814        0xc /tmp/ccgCS5SK.ltrans3.ltrans.o
 *(.ramtext)
                0x0000000020000820                . = ALIGN (0x4)
                0x0000000020000820                PROVIDE (_edata, .)

.igot.plt       0x0000000020000820        0x0 load address 0x0000000008003fd0
 .igot.plt      0x0000000000000000        0x0 build/obj/chcoreasm_v7m.o

.bss            0x0000000020000820     0x16d4
                0x0000000020000820                . = ALIGN (0x4)
                0x0000000020000820                PROVIDE (_bss_start, .)
 *(.bss)
 *(.bss.*)
 .bss.ep1instate.13155.4656
                0x0000000020000820       0x14 /tmp/ccgCS5SK.ltrans1.ltrans.o
 .bss.ep1outstate.13156.4657
                0x0000000020000834       0x14 /tmp/ccgCS5SK.ltrans1.ltrans.o
 .bss.ep0setup_buffer.11774.4654
                0x0000000020000848        0x8 /tmp/ccgCS5SK.ltrans1.ltrans.o
 .bss.ep2instate.13158.4659
                0x0000000020000850       0x14 /tmp/ccgCS5SK.ltrans1.ltrans.o
 .bss.ep0_state.11770.4650
                0x0000000020000864       0x14 /tmp/ccgCS5SK.ltrans1.ltrans.o
 .bss.dma_streams_mask.10901.4801
                0x0000000020000878        0x4 /tmp/ccgCS5SK.ltrans3.ltrans.o
 .bss.nextmem.6820
                0x000000002000087c        0x4 /tmp/ccgCS5SK.ltrans3.ltrans.o
                0x000000002000087c                nextmem.6820
 .bss.USBD1     0x0000000020000880      0x238 /tmp/ccgCS5SK.ltrans3.ltrans.o
                0x0000000020000880                USBD1
 .bss.SD2       0x0000000020000ab8      0x458 /tmp/ccgCS5SK.ltrans3.ltrans.o
                0x0000000020000ab8                SD2
 .bss.waXbee.13162.4825
                0x0000000020000f10      0x658 /tmp/ccgCS5SK.ltrans3.ltrans.o
 .bss.ADCD1     0x0000000020001568       0x34 /tmp/ccgCS5SK.ltrans3.ltrans.o
                0x0000000020001568                ADCD1
 *fill*         0x000000002000159c        0x4 
 .bss.default_heap.6947.4906
                0x00000000200015a0       0x20 /tmp/ccgCS5SK.ltrans3.ltrans.o
 .bss.SD6       0x00000000200015c0      0x458 /tmp/ccgCS5SK.ltrans3.ltrans.o
                0x00000000200015c0                SD6
 .bss.xbee.13160.4805
                0x0000000020001a18        0x8 /tmp/ccgCS5SK.ltrans3.ltrans.o
 .bss.mainthread.6322.4386.4807
                0x0000000020001a20       0x44 /tmp/ccgCS5SK.ltrans3.ltrans.o
 *fill*         0x0000000020001a64        0x4 
 .bss._idle_thread_wa.4385.4905
                0x0000000020001a68      0x160 /tmp/ccgCS5SK.ltrans3.ltrans.o
 .bss.dma_isr_redir.10896
                0x0000000020001bc8       0x80 /tmp/ccgCS5SK.ltrans3.ltrans.o
                0x0000000020001bc8                dma_isr_redir.10896
 .bss.SDU1.13159
                0x0000000020001c48      0x258 /tmp/ccgCS5SK.ltrans3.ltrans.o
                0x0000000020001c48                SDU1.13159
 .bss.UARTD1    0x0000000020001ea0       0x1c /tmp/ccgCS5SK.ltrans3.ltrans.o
                0x0000000020001ea0                UARTD1
 .bss.endmem.6822
                0x0000000020001ebc        0x4 /tmp/ccgCS5SK.ltrans3.ltrans.o
                0x0000000020001ebc                endmem.6822
 .bss.ch        0x0000000020001ec0       0x34 /tmp/ccgCS5SK.ltrans4.ltrans.o
                0x0000000020001ec0                ch
 *(COMMON)
                0x0000000020001ef4                . = ALIGN (0x4)
                0x0000000020001ef4                PROVIDE (_bss_end, .)
                0x0000000020001ef4                PROVIDE (end, .)
                0x0000000020001ef4                _end = .
                0x0000000020001ef4                __heap_base__ = _end
                0x0000000020010000                __heap_end__ = __ram_end__
                0x0000000000000400                __process_stack_size__ = 0x400
                0x0000000000000400                __main_stack_size__ = 0x400
START GROUP
LOAD /usr/bin/../lib/gcc/arm-none-eabi/4.8.4/armv7e-m/fpu/libgcc.a
LOAD /usr/bin/../lib/gcc/arm-none-eabi/4.8.4/../../../../arm-none-eabi/lib/armv7e-m/fpu/libc.a
END GROUP
OUTPUT(build/traktor.elf elf32-littlearm)

.ARM.attributes
                0x0000000000000000       0x35
 .ARM.attributes
                0x0000000000000000       0x25 build/obj/chcoreasm_v7m.o
 .ARM.attributes
                0x0000000000000025       0x37 /tmp/ccgCS5SK.ltrans0.ltrans.o
 .ARM.attributes
                0x000000000000005c       0x37 /tmp/ccgCS5SK.ltrans1.ltrans.o
 .ARM.attributes
                0x0000000000000093       0x37 /tmp/ccgCS5SK.ltrans2.ltrans.o
 .ARM.attributes
                0x00000000000000ca       0x37 /tmp/ccgCS5SK.ltrans3.ltrans.o
 .ARM.attributes
                0x0000000000000101       0x37 /tmp/ccgCS5SK.ltrans4.ltrans.o
 .ARM.attributes
                0x0000000000000138       0x22 /usr/bin/../lib/gcc/arm-none-eabi/4.8.4/armv7e-m/fpu/libgcc.a(_arm_addsubdf3.o)
 .ARM.attributes
                0x000000000000015a       0x22 /usr/bin/../lib/gcc/arm-none-eabi/4.8.4/armv7e-m/fpu/libgcc.a(_arm_muldivdf3.o)
 .ARM.attributes
                0x000000000000017c       0x22 /usr/bin/../lib/gcc/arm-none-eabi/4.8.4/armv7e-m/fpu/libgcc.a(_arm_fixdfsi.o)
 .ARM.attributes
                0x000000000000019e       0x22 /usr/bin/../lib/gcc/arm-none-eabi/4.8.4/armv7e-m/fpu/libgcc.a(_arm_truncdfsf2.o)
 .ARM.attributes
                0x00000000000001c0       0x34 /usr/bin/../lib/gcc/arm-none-eabi/4.8.4/../../../../arm-none-eabi/lib/armv7e-m/fpu/libc.a(lib_a-memset.o)

.comment        0x0000000000000000       0x70
 .comment       0x0000000000000000       0x70 /tmp/ccgCS5SK.ltrans0.ltrans.o
                                         0x71 (size before relaxing)
 .comment       0x0000000000000000       0x71 /tmp/ccgCS5SK.ltrans1.ltrans.o
 .comment       0x0000000000000000       0x71 /tmp/ccgCS5SK.ltrans2.ltrans.o
 .comment       0x0000000000000000       0x71 /tmp/ccgCS5SK.ltrans3.ltrans.o
 .comment       0x0000000000000000       0x71 /tmp/ccgCS5SK.ltrans4.ltrans.o

.debug_frame    0x0000000000000000       0x2c
 .debug_frame   0x0000000000000000       0x2c /usr/bin/../lib/gcc/arm-none-eabi/4.8.4/../../../../arm-none-eabi/lib/armv7e-m/fpu/libc.a(lib_a-memset.o)

Cross Reference Table

Symbol                                            File
ADCD1                                             /tmp/ccgCS5SK.ltrans3.ltrans.o
                                                  /tmp/ccgCS5SK.ltrans1.ltrans.o
BusFault_Handler                                  /tmp/ccgCS5SK.ltrans0.ltrans.o
                                                  /tmp/ccgCS5SK.ltrans4.ltrans.o
DebugMon_Handler                                  /tmp/ccgCS5SK.ltrans0.ltrans.o
                                                  /tmp/ccgCS5SK.ltrans4.ltrans.o
HardFault_Handler                                 /tmp/ccgCS5SK.ltrans0.ltrans.o
                                                  /tmp/ccgCS5SK.ltrans4.ltrans.o
MemManage_Handler                                 /tmp/ccgCS5SK.ltrans0.ltrans.o
                                                  /tmp/ccgCS5SK.ltrans4.ltrans.o
NMI_Handler                                       /tmp/ccgCS5SK.ltrans0.ltrans.o
                                                  /tmp/ccgCS5SK.ltrans4.ltrans.o
PendSV_Handler                                    /tmp/ccgCS5SK.ltrans0.ltrans.o
                                                  /tmp/ccgCS5SK.ltrans4.ltrans.o
Reset_Handler                                     /tmp/ccgCS5SK.ltrans4.ltrans.o
SD2                                               /tmp/ccgCS5SK.ltrans3.ltrans.o
                                                  /tmp/ccgCS5SK.ltrans2.ltrans.o
                                                  /tmp/ccgCS5SK.ltrans1.ltrans.o
SD6                                               /tmp/ccgCS5SK.ltrans3.ltrans.o
                                                  /tmp/ccgCS5SK.ltrans2.ltrans.o
                                                  /tmp/ccgCS5SK.ltrans1.ltrans.o
SDU1.13159                                        /tmp/ccgCS5SK.ltrans3.ltrans.o
                                                  /tmp/ccgCS5SK.ltrans1.ltrans.o
SVC_Handler                                       /tmp/ccgCS5SK.ltrans0.ltrans.o
                                                  /tmp/ccgCS5SK.ltrans4.ltrans.o
SysTick_Handler                                   /tmp/ccgCS5SK.ltrans0.ltrans.o
                                                  /tmp/ccgCS5SK.ltrans4.ltrans.o
UARTD1                                            /tmp/ccgCS5SK.ltrans3.ltrans.o
                                                  /tmp/ccgCS5SK.ltrans2.ltrans.o
USBD1                                             /tmp/ccgCS5SK.ltrans3.ltrans.o
                                                  /tmp/ccgCS5SK.ltrans2.ltrans.o
                                                  /tmp/ccgCS5SK.ltrans1.ltrans.o
UsageFault_Handler                                /tmp/ccgCS5SK.ltrans0.ltrans.o
                                                  /tmp/ccgCS5SK.ltrans4.ltrans.o
Vector100                                         /tmp/ccgCS5SK.ltrans0.ltrans.o
                                                  /tmp/ccgCS5SK.ltrans4.ltrans.o
Vector104                                         /tmp/ccgCS5SK.ltrans0.ltrans.o
                                                  /tmp/ccgCS5SK.ltrans4.ltrans.o
Vector108                                         /tmp/ccgCS5SK.ltrans0.ltrans.o
                                                  /tmp/ccgCS5SK.ltrans4.ltrans.o
Vector10C                                         /tmp/ccgCS5SK.ltrans0.ltrans.o
                                                  /tmp/ccgCS5SK.ltrans4.ltrans.o
Vector110                                         /tmp/ccgCS5SK.ltrans0.ltrans.o
                                                  /tmp/ccgCS5SK.ltrans4.ltrans.o
Vector114                                         /tmp/ccgCS5SK.ltrans0.ltrans.o
                                                  /tmp/ccgCS5SK.ltrans4.ltrans.o
Vector118                                         /tmp/ccgCS5SK.ltrans0.ltrans.o
                                                  /tmp/ccgCS5SK.ltrans4.ltrans.o
Vector11C                                         /tmp/ccgCS5SK.ltrans0.ltrans.o
                                                  /tmp/ccgCS5SK.ltrans4.ltrans.o
Vector120                                         /tmp/ccgCS5SK.ltrans0.ltrans.o
                                                  /tmp/ccgCS5SK.ltrans4.ltrans.o
Vector124                                         /tmp/ccgCS5SK.ltrans0.ltrans.o
                                                  /tmp/ccgCS5SK.ltrans4.ltrans.o
Vector128                                         /tmp/ccgCS5SK.ltrans0.ltrans.o
                                                  /tmp/ccgCS5SK.ltrans4.ltrans.o
Vector12C                                         /tmp/ccgCS5SK.ltrans0.ltrans.o
                                                  /tmp/ccgCS5SK.ltrans4.ltrans.o
Vector130                                         /tmp/ccgCS5SK.ltrans0.ltrans.o
                                                  /tmp/ccgCS5SK.ltrans4.ltrans.o
Vector134                                         /tmp/ccgCS5SK.ltrans0.ltrans.o
                                                  /tmp/ccgCS5SK.ltrans4.ltrans.o
Vector138                                         /tmp/ccgCS5SK.ltrans0.ltrans.o
                                                  /tmp/ccgCS5SK.ltrans4.ltrans.o
Vector13C                                         /tmp/ccgCS5SK.ltrans0.ltrans.o
                                                  /tmp/ccgCS5SK.ltrans4.ltrans.o
Vector140                                         /tmp/ccgCS5SK.ltrans0.ltrans.o
                                                  /tmp/ccgCS5SK.ltrans4.ltrans.o
Vector144                                         /tmp/ccgCS5SK.ltrans0.ltrans.o
                                                  /tmp/ccgCS5SK.ltrans4.ltrans.o
Vector148                                         /tmp/ccgCS5SK.ltrans0.ltrans.o
                                                  /tmp/ccgCS5SK.ltrans4.ltrans.o
Vector14C                                         /tmp/ccgCS5SK.ltrans1.ltrans.o
                                                  /tmp/ccgCS5SK.ltrans4.ltrans.o
Vector150                                         /tmp/ccgCS5SK.ltrans0.ltrans.o
                                                  /tmp/ccgCS5SK.ltrans4.ltrans.o
Vector154                                         /tmp/ccgCS5SK.ltrans0.ltrans.o
                                                  /tmp/ccgCS5SK.ltrans4.ltrans.o
Vector158                                         /tmp/ccgCS5SK.ltrans0.ltrans.o
                                                  /tmp/ccgCS5SK.ltrans4.ltrans.o
Vector15C                                         /tmp/ccgCS5SK.ltrans1.ltrans.o
                                                  /tmp/ccgCS5SK.ltrans4.ltrans.o
Vector160                                         /tmp/ccgCS5SK.ltrans0.ltrans.o
                                                  /tmp/ccgCS5SK.ltrans4.ltrans.o
Vector164                                         /tmp/ccgCS5SK.ltrans0.ltrans.o
                                                  /tmp/ccgCS5SK.ltrans4.ltrans.o
Vector168                                         /tmp/ccgCS5SK.ltrans0.ltrans.o
                                                  /tmp/ccgCS5SK.ltrans4.ltrans.o
Vector16C                                         /tmp/ccgCS5SK.ltrans0.ltrans.o
                                                  /tmp/ccgCS5SK.ltrans4.ltrans.o
Vector170                                         /tmp/ccgCS5SK.ltrans0.ltrans.o
                                                  /tmp/ccgCS5SK.ltrans4.ltrans.o
Vector174                                         /tmp/ccgCS5SK.ltrans0.ltrans.o
                                                  /tmp/ccgCS5SK.ltrans4.ltrans.o
Vector178                                         /tmp/ccgCS5SK.ltrans0.ltrans.o
                                                  /tmp/ccgCS5SK.ltrans4.ltrans.o
Vector17C                                         /tmp/ccgCS5SK.ltrans0.ltrans.o
                                                  /tmp/ccgCS5SK.ltrans4.ltrans.o
Vector180                                         /tmp/ccgCS5SK.ltrans0.ltrans.o
                                                  /tmp/ccgCS5SK.ltrans4.ltrans.o
Vector184                                         /tmp/ccgCS5SK.ltrans0.ltrans.o
                                                  /tmp/ccgCS5SK.ltrans4.ltrans.o
Vector188                                         /tmp/ccgCS5SK.ltrans0.ltrans.o
                                                  /tmp/ccgCS5SK.ltrans4.ltrans.o
Vector18C                                         /tmp/ccgCS5SK.ltrans0.ltrans.o
                                                  /tmp/ccgCS5SK.ltrans4.ltrans.o
Vector190                                         /tmp/ccgCS5SK.ltrans0.ltrans.o
                                                  /tmp/ccgCS5SK.ltrans4.ltrans.o
Vector194                                         /tmp/ccgCS5SK.ltrans0.ltrans.o
                                                  /tmp/ccgCS5SK.ltrans4.ltrans.o
Vector198                                         /tmp/ccgCS5SK.ltrans0.ltrans.o
                                                  /tmp/ccgCS5SK.ltrans4.ltrans.o
Vector19C                                         /tmp/ccgCS5SK.ltrans0.ltrans.o
                                                  /tmp/ccgCS5SK.ltrans4.ltrans.o
Vector1A0                                         /tmp/ccgCS5SK.ltrans0.ltrans.o
                                                  /tmp/ccgCS5SK.ltrans4.ltrans.o
Vector1A4                                         /tmp/ccgCS5SK.ltrans0.ltrans.o
                                                  /tmp/ccgCS5SK.ltrans4.ltrans.o
Vector1A8                                         /tmp/ccgCS5SK.ltrans0.ltrans.o
                                                  /tmp/ccgCS5SK.ltrans4.ltrans.o
Vector1AC                                         /tmp/ccgCS5SK.ltrans0.ltrans.o
                                                  /tmp/ccgCS5SK.ltrans4.ltrans.o
Vector1B0                                         /tmp/ccgCS5SK.ltrans0.ltrans.o
                                                  /tmp/ccgCS5SK.ltrans4.ltrans.o
Vector1B4                                         /tmp/ccgCS5SK.ltrans0.ltrans.o
                                                  /tmp/ccgCS5SK.ltrans4.ltrans.o
Vector1B8                                         /tmp/ccgCS5SK.ltrans0.ltrans.o
                                                  /tmp/ccgCS5SK.ltrans4.ltrans.o
Vector1BC                                         /tmp/ccgCS5SK.ltrans0.ltrans.o
                                                  /tmp/ccgCS5SK.ltrans4.ltrans.o
Vector1C                                          /tmp/ccgCS5SK.ltrans0.ltrans.o
                                                  /tmp/ccgCS5SK.ltrans4.ltrans.o
Vector20                                          /tmp/ccgCS5SK.ltrans0.ltrans.o
                                                  /tmp/ccgCS5SK.ltrans4.ltrans.o
Vector24                                          /tmp/ccgCS5SK.ltrans0.ltrans.o
                                                  /tmp/ccgCS5SK.ltrans4.ltrans.o
Vector28                                          /tmp/ccgCS5SK.ltrans0.ltrans.o
                                                  /tmp/ccgCS5SK.ltrans4.ltrans.o
Vector34                                          /tmp/ccgCS5SK.ltrans0.ltrans.o
                                                  /tmp/ccgCS5SK.ltrans4.ltrans.o
Vector40                                          /tmp/ccgCS5SK.ltrans0.ltrans.o
                                                  /tmp/ccgCS5SK.ltrans4.ltrans.o
Vector44                                          /tmp/ccgCS5SK.ltrans0.ltrans.o
                                                  /tmp/ccgCS5SK.ltrans4.ltrans.o
Vector48                                          /tmp/ccgCS5SK.ltrans0.ltrans.o
                                                  /tmp/ccgCS5SK.ltrans4.ltrans.o
Vector4C                                          /tmp/ccgCS5SK.ltrans0.ltrans.o
                                                  /tmp/ccgCS5SK.ltrans4.ltrans.o
Vector50                                          /tmp/ccgCS5SK.ltrans0.ltrans.o
                                                  /tmp/ccgCS5SK.ltrans4.ltrans.o
Vector54                                          /tmp/ccgCS5SK.ltrans0.ltrans.o
                                                  /tmp/ccgCS5SK.ltrans4.ltrans.o
Vector58                                          /tmp/ccgCS5SK.ltrans0.ltrans.o
                                                  /tmp/ccgCS5SK.ltrans4.ltrans.o
Vector5C                                          /tmp/ccgCS5SK.ltrans0.ltrans.o
                                                  /tmp/ccgCS5SK.ltrans4.ltrans.o
Vector60                                          /tmp/ccgCS5SK.ltrans0.ltrans.o
                                                  /tmp/ccgCS5SK.ltrans4.ltrans.o
Vector64                                          /tmp/ccgCS5SK.ltrans0.ltrans.o
                                                  /tmp/ccgCS5SK.ltrans4.ltrans.o
Vector68                                          /tmp/ccgCS5SK.ltrans0.ltrans.o
                                                  /tmp/ccgCS5SK.ltrans4.ltrans.o
Vector6C                                          /tmp/ccgCS5SK.ltrans0.ltrans.o
                                                  /tmp/ccgCS5SK.ltrans4.ltrans.o
Vector70                                          /tmp/ccgCS5SK.ltrans0.ltrans.o
                                                  /tmp/ccgCS5SK.ltrans4.ltrans.o
Vector74                                          /tmp/ccgCS5SK.ltrans0.ltrans.o
                                                  /tmp/ccgCS5SK.ltrans4.ltrans.o
Vector78                                          /tmp/ccgCS5SK.ltrans0.ltrans.o
                                                  /tmp/ccgCS5SK.ltrans4.ltrans.o
Vector7C                                          /tmp/ccgCS5SK.ltrans0.ltrans.o
                                                  /tmp/ccgCS5SK.ltrans4.ltrans.o
Vector80                                          /tmp/ccgCS5SK.ltrans0.ltrans.o
                                                  /tmp/ccgCS5SK.ltrans4.ltrans.o
Vector84                                          /tmp/ccgCS5SK.ltrans0.ltrans.o
                                                  /tmp/ccgCS5SK.ltrans4.ltrans.o
Vector88                                          /tmp/ccgCS5SK.ltrans1.ltrans.o
                                                  /tmp/ccgCS5SK.ltrans4.ltrans.o
Vector8C                                          /tmp/ccgCS5SK.ltrans0.ltrans.o
                                                  /tmp/ccgCS5SK.ltrans4.ltrans.o
Vector90                                          /tmp/ccgCS5SK.ltrans0.ltrans.o
                                                  /tmp/ccgCS5SK.ltrans4.ltrans.o
Vector94                                          /tmp/ccgCS5SK.ltrans0.ltrans.o
                                                  /tmp/ccgCS5SK.ltrans4.ltrans.o
Vector98                                          /tmp/ccgCS5SK.ltrans0.ltrans.o
                                                  /tmp/ccgCS5SK.ltrans4.ltrans.o
Vector9C                                          /tmp/ccgCS5SK.ltrans0.ltrans.o
                                                  /tmp/ccgCS5SK.ltrans4.ltrans.o
VectorA0                                          /tmp/ccgCS5SK.ltrans0.ltrans.o
                                                  /tmp/ccgCS5SK.ltrans4.ltrans.o
VectorA4                                          /tmp/ccgCS5SK.ltrans0.ltrans.o
                                                  /tmp/ccgCS5SK.ltrans4.ltrans.o
VectorA8                                          /tmp/ccgCS5SK.ltrans0.ltrans.o
                                                  /tmp/ccgCS5SK.ltrans4.ltrans.o
VectorAC                                          /tmp/ccgCS5SK.ltrans0.ltrans.o
                                                  /tmp/ccgCS5SK.ltrans4.ltrans.o
VectorB0                                          /tmp/ccgCS5SK.ltrans2.ltrans.o
                                                  /tmp/ccgCS5SK.ltrans4.ltrans.o
VectorB4                                          /tmp/ccgCS5SK.ltrans0.ltrans.o
                                                  /tmp/ccgCS5SK.ltrans4.ltrans.o
VectorB8                                          /tmp/ccgCS5SK.ltrans0.ltrans.o
                                                  /tmp/ccgCS5SK.ltrans4.ltrans.o
VectorBC                                          /tmp/ccgCS5SK.ltrans0.ltrans.o
                                                  /tmp/ccgCS5SK.ltrans4.ltrans.o
VectorC0                                          /tmp/ccgCS5SK.ltrans0.ltrans.o
                                                  /tmp/ccgCS5SK.ltrans4.ltrans.o
VectorC4                                          /tmp/ccgCS5SK.ltrans0.ltrans.o
                                                  /tmp/ccgCS5SK.ltrans4.ltrans.o
VectorC8                                          /tmp/ccgCS5SK.ltrans0.ltrans.o
                                                  /tmp/ccgCS5SK.ltrans4.ltrans.o
VectorCC                                          /tmp/ccgCS5SK.ltrans0.ltrans.o
                                                  /tmp/ccgCS5SK.ltrans4.ltrans.o
VectorD0                                          /tmp/ccgCS5SK.ltrans0.ltrans.o
                                                  /tmp/ccgCS5SK.ltrans4.ltrans.o
VectorD4                                          /tmp/ccgCS5SK.ltrans2.ltrans.o
                                                  /tmp/ccgCS5SK.ltrans4.ltrans.o
VectorD8                                          /tmp/ccgCS5SK.ltrans1.ltrans.o
                                                  /tmp/ccgCS5SK.ltrans4.ltrans.o
VectorDC                                          /tmp/ccgCS5SK.ltrans0.ltrans.o
                                                  /tmp/ccgCS5SK.ltrans4.ltrans.o
VectorE0                                          /tmp/ccgCS5SK.ltrans0.ltrans.o
                                                  /tmp/ccgCS5SK.ltrans4.ltrans.o
VectorE4                                          /tmp/ccgCS5SK.ltrans0.ltrans.o
                                                  /tmp/ccgCS5SK.ltrans4.ltrans.o
VectorE8                                          /tmp/ccgCS5SK.ltrans0.ltrans.o
                                                  /tmp/ccgCS5SK.ltrans4.ltrans.o
VectorEC                                          /tmp/ccgCS5SK.ltrans0.ltrans.o
                                                  /tmp/ccgCS5SK.ltrans4.ltrans.o
VectorF0                                          /tmp/ccgCS5SK.ltrans0.ltrans.o
                                                  /tmp/ccgCS5SK.ltrans4.ltrans.o
VectorF4                                          /tmp/ccgCS5SK.ltrans0.ltrans.o
                                                  /tmp/ccgCS5SK.ltrans4.ltrans.o
VectorF8                                          /tmp/ccgCS5SK.ltrans0.ltrans.o
                                                  /tmp/ccgCS5SK.ltrans4.ltrans.o
VectorFC                                          /tmp/ccgCS5SK.ltrans0.ltrans.o
                                                  /tmp/ccgCS5SK.ltrans4.ltrans.o
__adddf3                                          /usr/bin/../lib/gcc/arm-none-eabi/4.8.4/armv7e-m/fpu/libgcc.a(_arm_addsubdf3.o)
__aeabi_d2f                                       /usr/bin/../lib/gcc/arm-none-eabi/4.8.4/armv7e-m/fpu/libgcc.a(_arm_truncdfsf2.o)
                                                  /tmp/ccgCS5SK.ltrans0.ltrans.o
__aeabi_d2iz                                      /usr/bin/../lib/gcc/arm-none-eabi/4.8.4/armv7e-m/fpu/libgcc.a(_arm_fixdfsi.o)
                                                  /tmp/ccgCS5SK.ltrans0.ltrans.o
__aeabi_dadd                                      /usr/bin/../lib/gcc/arm-none-eabi/4.8.4/armv7e-m/fpu/libgcc.a(_arm_addsubdf3.o)
__aeabi_ddiv                                      /usr/bin/../lib/gcc/arm-none-eabi/4.8.4/armv7e-m/fpu/libgcc.a(_arm_muldivdf3.o)
__aeabi_dmul                                      /usr/bin/../lib/gcc/arm-none-eabi/4.8.4/armv7e-m/fpu/libgcc.a(_arm_muldivdf3.o)
                                                  /tmp/ccgCS5SK.ltrans0.ltrans.o
__aeabi_drsub                                     /usr/bin/../lib/gcc/arm-none-eabi/4.8.4/armv7e-m/fpu/libgcc.a(_arm_addsubdf3.o)
__aeabi_dsub                                      /usr/bin/../lib/gcc/arm-none-eabi/4.8.4/armv7e-m/fpu/libgcc.a(_arm_addsubdf3.o)
                                                  /tmp/ccgCS5SK.ltrans0.ltrans.o
__aeabi_f2d                                       /usr/bin/../lib/gcc/arm-none-eabi/4.8.4/armv7e-m/fpu/libgcc.a(_arm_addsubdf3.o)
                                                  /tmp/ccgCS5SK.ltrans0.ltrans.o
__aeabi_i2d                                       /usr/bin/../lib/gcc/arm-none-eabi/4.8.4/armv7e-m/fpu/libgcc.a(_arm_addsubdf3.o)
                                                  /tmp/ccgCS5SK.ltrans0.ltrans.o
__aeabi_l2d                                       /usr/bin/../lib/gcc/arm-none-eabi/4.8.4/armv7e-m/fpu/libgcc.a(_arm_addsubdf3.o)
__aeabi_ui2d                                      /usr/bin/../lib/gcc/arm-none-eabi/4.8.4/armv7e-m/fpu/libgcc.a(_arm_addsubdf3.o)
                                                  /tmp/ccgCS5SK.ltrans0.ltrans.o
__aeabi_ul2d                                      /usr/bin/../lib/gcc/arm-none-eabi/4.8.4/armv7e-m/fpu/libgcc.a(_arm_addsubdf3.o)
__divdf3                                          /usr/bin/../lib/gcc/arm-none-eabi/4.8.4/armv7e-m/fpu/libgcc.a(_arm_muldivdf3.o)
__extendsfdf2                                     /usr/bin/../lib/gcc/arm-none-eabi/4.8.4/armv7e-m/fpu/libgcc.a(_arm_addsubdf3.o)
__fixdfsi                                         /usr/bin/../lib/gcc/arm-none-eabi/4.8.4/armv7e-m/fpu/libgcc.a(_arm_fixdfsi.o)
__floatdidf                                       /usr/bin/../lib/gcc/arm-none-eabi/4.8.4/armv7e-m/fpu/libgcc.a(_arm_addsubdf3.o)
__floatsidf                                       /usr/bin/../lib/gcc/arm-none-eabi/4.8.4/armv7e-m/fpu/libgcc.a(_arm_addsubdf3.o)
__floatundidf                                     /usr/bin/../lib/gcc/arm-none-eabi/4.8.4/armv7e-m/fpu/libgcc.a(_arm_addsubdf3.o)
__floatunsidf                                     /usr/bin/../lib/gcc/arm-none-eabi/4.8.4/armv7e-m/fpu/libgcc.a(_arm_addsubdf3.o)
__heap_base__                                     /tmp/ccgCS5SK.ltrans3.ltrans.o
__heap_end__                                      /tmp/ccgCS5SK.ltrans3.ltrans.o
__init_array_end                                  /tmp/ccgCS5SK.ltrans4.ltrans.o
__init_array_start                                /tmp/ccgCS5SK.ltrans4.ltrans.o
__main_stack_base__                               /tmp/ccgCS5SK.ltrans4.ltrans.o
__main_stack_end__                                /tmp/ccgCS5SK.ltrans4.ltrans.o
__muldf3                                          /usr/bin/../lib/gcc/arm-none-eabi/4.8.4/armv7e-m/fpu/libgcc.a(_arm_muldivdf3.o)
__process_stack_base__                            /tmp/ccgCS5SK.ltrans4.ltrans.o
__process_stack_end__                             /tmp/ccgCS5SK.ltrans4.ltrans.o
__subdf3                                          /usr/bin/../lib/gcc/arm-none-eabi/4.8.4/armv7e-m/fpu/libgcc.a(_arm_addsubdf3.o)
__truncdfsf2                                      /usr/bin/../lib/gcc/arm-none-eabi/4.8.4/armv7e-m/fpu/libgcc.a(_arm_truncdfsf2.o)
_bss_end                                          /tmp/ccgCS5SK.ltrans4.ltrans.o
_bss_start                                        /tmp/ccgCS5SK.ltrans4.ltrans.o
_data                                             /tmp/ccgCS5SK.ltrans4.ltrans.o
_edata                                            /tmp/ccgCS5SK.ltrans4.ltrans.o
_idle_thread.4338                                 /tmp/ccgCS5SK.ltrans0.ltrans.o
                                                  /tmp/ccgCS5SK.ltrans3.ltrans.o
_port_exit_from_isr                               build/obj/chcoreasm_v7m.o
                                                  /tmp/ccgCS5SK.ltrans0.ltrans.o
_port_irq_epilogue                                /tmp/ccgCS5SK.ltrans0.ltrans.o
                                                  /tmp/ccgCS5SK.ltrans2.ltrans.o
                                                  /tmp/ccgCS5SK.ltrans1.ltrans.o
_port_switch                                      build/obj/chcoreasm_v7m.o
                                                  /tmp/ccgCS5SK.ltrans2.ltrans.o
                                                  /tmp/ccgCS5SK.ltrans0.ltrans.o
_port_switch_from_isr                             build/obj/chcoreasm_v7m.o
                                                  /tmp/ccgCS5SK.ltrans0.ltrans.o
_port_thread_start                                build/obj/chcoreasm_v7m.o
                                                  /tmp/ccgCS5SK.ltrans3.ltrans.o
                                                  /tmp/ccgCS5SK.ltrans2.ltrans.o
_textdata                                         /tmp/ccgCS5SK.ltrans4.ltrans.o
_usb_ep0out                                       /tmp/ccgCS5SK.ltrans2.ltrans.o
                                                  /tmp/ccgCS5SK.ltrans1.ltrans.o
_vectors                                          /tmp/ccgCS5SK.ltrans4.ltrans.o
ch                                                /tmp/ccgCS5SK.ltrans4.ltrans.o
                                                  /tmp/ccgCS5SK.ltrans3.ltrans.o
                                                  /tmp/ccgCS5SK.ltrans2.ltrans.o
                                                  /tmp/ccgCS5SK.ltrans0.ltrans.o
chCoreAlloc                                       /tmp/ccgCS5SK.ltrans0.ltrans.o
                                                  /tmp/ccgCS5SK.ltrans3.ltrans.o
chEvtBroadcastFlagsI                              /tmp/ccgCS5SK.ltrans0.ltrans.o
                                                  /tmp/ccgCS5SK.ltrans1.ltrans.o
chSchDoReschedule                                 /tmp/ccgCS5SK.ltrans4.ltrans.o
                                                  build/obj/chcoreasm_v7m.o
chSchDoRescheduleAhead                            /tmp/ccgCS5SK.ltrans0.ltrans.o
                                                  /tmp/ccgCS5SK.ltrans4.ltrans.o
chSchGoSleepS                                     /tmp/ccgCS5SK.ltrans0.ltrans.o
                                                  /tmp/ccgCS5SK.ltrans4.ltrans.o
                                                  /tmp/ccgCS5SK.ltrans2.ltrans.o
chSchReadyI                                       /tmp/ccgCS5SK.ltrans0.ltrans.o
                                                  /tmp/ccgCS5SK.ltrans4.ltrans.o
                                                  /tmp/ccgCS5SK.ltrans2.ltrans.o
                                                  /tmp/ccgCS5SK.ltrans1.ltrans.o
chSchRescheduleS                                  /tmp/ccgCS5SK.ltrans0.ltrans.o
                                                  /tmp/ccgCS5SK.ltrans2.ltrans.o
chSchWakeupS.constprop.23                         /tmp/ccgCS5SK.ltrans2.ltrans.o
                                                  /tmp/ccgCS5SK.ltrans3.ltrans.o
chSysPolledDelayX                                 /tmp/ccgCS5SK.ltrans0.ltrans.o
                                                  /tmp/ccgCS5SK.ltrans2.ltrans.o
                                                  /tmp/ccgCS5SK.ltrans1.ltrans.o
chTMStartMeasurementX.constprop.14                /tmp/ccgCS5SK.ltrans2.ltrans.o
                                                  /tmp/ccgCS5SK.ltrans3.ltrans.o
chTMStopMeasurementX                              /tmp/ccgCS5SK.ltrans0.ltrans.o
                                                  /tmp/ccgCS5SK.ltrans3.ltrans.o
chThdDequeueAllI                                  /tmp/ccgCS5SK.ltrans0.ltrans.o
                                                  /tmp/ccgCS5SK.ltrans1.ltrans.o
chThdExit                                         /tmp/ccgCS5SK.ltrans4.ltrans.o
                                                  build/obj/chcoreasm_v7m.o
chThdSleep                                        /tmp/ccgCS5SK.ltrans2.ltrans.o
                                                  /tmp/ccgCS5SK.ltrans3.ltrans.o
chprintf.13103                                    /tmp/ccgCS5SK.ltrans0.ltrans.o
                                                  /tmp/ccgCS5SK.ltrans3.ltrans.o
                                                  /tmp/ccgCS5SK.ltrans2.ltrans.o
dma_isr_redir.10896                               /tmp/ccgCS5SK.ltrans3.ltrans.o
                                                  /tmp/ccgCS5SK.ltrans0.ltrans.o
endmem.6822                                       /tmp/ccgCS5SK.ltrans3.ltrans.o
                                                  /tmp/ccgCS5SK.ltrans0.ltrans.o
get.9884                                          /tmp/ccgCS5SK.ltrans2.ltrans.o
                                                  /tmp/ccgCS5SK.ltrans3.ltrans.o
get_descriptor.13097                              /tmp/ccgCS5SK.ltrans0.ltrans.o
                                                  /tmp/ccgCS5SK.ltrans3.ltrans.o
gett.9880                                         /tmp/ccgCS5SK.ltrans2.ltrans.o
                                                  /tmp/ccgCS5SK.ltrans3.ltrans.o
inotify.9854                                      /tmp/ccgCS5SK.ltrans0.ltrans.o
                                                  /tmp/ccgCS5SK.ltrans3.ltrans.o
main                                              /tmp/ccgCS5SK.ltrans3.ltrans.o
                                                  /tmp/ccgCS5SK.ltrans4.ltrans.o
memset                                            /usr/bin/../lib/gcc/arm-none-eabi/4.8.4/../../../../arm-none-eabi/lib/armv7e-m/fpu/libc.a(lib_a-memset.o)
                                                  /tmp/ccgCS5SK.ltrans0.ltrans.o
nextmem.6820                                      /tmp/ccgCS5SK.ltrans3.ltrans.o
                                                  /tmp/ccgCS5SK.ltrans0.ltrans.o
notify2.12076                                     /tmp/ccgCS5SK.ltrans0.ltrans.o
                                                  /tmp/ccgCS5SK.ltrans3.ltrans.o
notify6.12073                                     /tmp/ccgCS5SK.ltrans0.ltrans.o
                                                  /tmp/ccgCS5SK.ltrans3.ltrans.o
onotify.9851                                      /tmp/ccgCS5SK.ltrans4.ltrans.o
                                                  /tmp/ccgCS5SK.ltrans3.ltrans.o
otg_disable_ep.isra.0.11627                       /tmp/ccgCS5SK.ltrans0.ltrans.o
                                                  /tmp/ccgCS5SK.ltrans3.ltrans.o
                                                  /tmp/ccgCS5SK.ltrans2.ltrans.o
otg_epout_handler.11674                           /tmp/ccgCS5SK.ltrans0.ltrans.o
                                                  /tmp/ccgCS5SK.ltrans1.ltrans.o
put.9892                                          /tmp/ccgCS5SK.ltrans2.ltrans.o
                                                  /tmp/ccgCS5SK.ltrans3.ltrans.o
putt.9887                                         /tmp/ccgCS5SK.ltrans2.ltrans.o
                                                  /tmp/ccgCS5SK.ltrans3.ltrans.o
read.9864                                         /tmp/ccgCS5SK.ltrans2.ltrans.o
                                                  /tmp/ccgCS5SK.ltrans3.ltrans.o
readt.9857                                        /tmp/ccgCS5SK.ltrans2.ltrans.o
                                                  /tmp/ccgCS5SK.ltrans3.ltrans.o
sdObjectInit.constprop.11                         /tmp/ccgCS5SK.ltrans2.ltrans.o
                                                  /tmp/ccgCS5SK.ltrans3.ltrans.o
sd_lld_start                                      /tmp/ccgCS5SK.ltrans2.ltrans.o
                                                  /tmp/ccgCS5SK.ltrans3.ltrans.o
sduInterruptTransmitted                           /tmp/ccgCS5SK.ltrans0.ltrans.o
                                                  /tmp/ccgCS5SK.ltrans1.ltrans.o
sduRequestsHook                                   /tmp/ccgCS5SK.ltrans0.ltrans.o
                                                  /tmp/ccgCS5SK.ltrans3.ltrans.o
serialXChangeThread                               /tmp/ccgCS5SK.ltrans2.ltrans.o
                                                  /tmp/ccgCS5SK.ltrans3.ltrans.o
usbInitEndpointI                                  /tmp/ccgCS5SK.ltrans0.ltrans.o
                                                  /tmp/ccgCS5SK.ltrans1.ltrans.o
usbStart.constprop.20                             /tmp/ccgCS5SK.ltrans2.ltrans.o
                                                  /tmp/ccgCS5SK.ltrans3.ltrans.o
usbStartReceiveI                                  /tmp/ccgCS5SK.ltrans0.ltrans.o
                                                  /tmp/ccgCS5SK.ltrans1.ltrans.o
usbStartTransmitI                                 /tmp/ccgCS5SK.ltrans0.ltrans.o
                                                  /tmp/ccgCS5SK.ltrans4.ltrans.o
                                                  /tmp/ccgCS5SK.ltrans2.ltrans.o
                                                  /tmp/ccgCS5SK.ltrans1.ltrans.o
usb_event.13118                                   /tmp/ccgCS5SK.ltrans1.ltrans.o
                                                  /tmp/ccgCS5SK.ltrans3.ltrans.o
usb_lld_prepare_receive                           /tmp/ccgCS5SK.ltrans0.ltrans.o
                                                  /tmp/ccgCS5SK.ltrans1.ltrans.o
usb_lld_prepare_transmit                          /tmp/ccgCS5SK.ltrans0.ltrans.o
                                                  /tmp/ccgCS5SK.ltrans4.ltrans.o
                                                  /tmp/ccgCS5SK.ltrans2.ltrans.o
                                                  /tmp/ccgCS5SK.ltrans1.ltrans.o
usb_lld_pump                                      /tmp/ccgCS5SK.ltrans0.ltrans.o
                                                  /tmp/ccgCS5SK.ltrans2.ltrans.o
usbcfg.13164                                      /tmp/ccgCS5SK.ltrans3.ltrans.o
                                                  /tmp/ccgCS5SK.ltrans2.ltrans.o
wakeup.4718                                       /tmp/ccgCS5SK.ltrans0.ltrans.o
                                                  /tmp/ccgCS5SK.ltrans2.ltrans.o
write.9875                                        /tmp/ccgCS5SK.ltrans2.ltrans.o
                                                  /tmp/ccgCS5SK.ltrans3.ltrans.o
writet.9869                                       /tmp/ccgCS5SK.ltrans2.ltrans.o
                                                  /tmp/ccgCS5SK.ltrans3.ltrans.o
