
Discarded input sections

 .data          0x0000000000000000        0x0 build/obj/chcoreasm_v7m.o
 .bss           0x0000000000000000        0x0 build/obj/chcoreasm_v7m.o
 .text          0x0000000000000000        0x0 build/obj/crt0.o (symbol from plugin)
 .text          0x0000000000000000        0x0 /tmp/ccPVnegP.ltrans0.ltrans.o
 .data          0x0000000000000000        0x0 /tmp/ccPVnegP.ltrans0.ltrans.o
 .bss           0x0000000000000000        0x0 /tmp/ccPVnegP.ltrans0.ltrans.o
 .text          0x0000000000000000        0x0 /tmp/ccPVnegP.ltrans1.ltrans.o
 .data          0x0000000000000000        0x0 /tmp/ccPVnegP.ltrans1.ltrans.o
 .bss           0x0000000000000000        0x0 /tmp/ccPVnegP.ltrans1.ltrans.o
 .text          0x0000000000000000        0x0 /tmp/ccPVnegP.ltrans2.ltrans.o
 .data          0x0000000000000000        0x0 /tmp/ccPVnegP.ltrans2.ltrans.o
 .bss           0x0000000000000000        0x0 /tmp/ccPVnegP.ltrans2.ltrans.o
 .text          0x0000000000000000        0x0 /tmp/ccPVnegP.ltrans3.ltrans.o
 .data          0x0000000000000000        0x0 /tmp/ccPVnegP.ltrans3.ltrans.o
 .bss           0x0000000000000000        0x0 /tmp/ccPVnegP.ltrans3.ltrans.o
 .text          0x0000000000000000        0x0 /tmp/ccPVnegP.ltrans4.ltrans.o
 .data          0x0000000000000000        0x0 /tmp/ccPVnegP.ltrans4.ltrans.o
 .bss           0x0000000000000000        0x0 /tmp/ccPVnegP.ltrans4.ltrans.o
 .text          0x0000000000000000        0x0 build/obj/vectors.o (symbol from plugin)
 .text          0x0000000000000000        0x0 build/obj/chcore.o (symbol from plugin)
 .text          0x0000000000000000        0x0 build/obj/chcore_v7m.o (symbol from plugin)
 .text          0x0000000000000000        0x0 build/obj/chsys.o (symbol from plugin)
 .text          0x0000000000000000        0x0 build/obj/chdebug.o (symbol from plugin)
 .text          0x0000000000000000        0x0 build/obj/chtm.o (symbol from plugin)
 .text          0x0000000000000000        0x0 build/obj/chstats.o (symbol from plugin)
 .text          0x0000000000000000        0x0 build/obj/chschd.o (symbol from plugin)
 .text          0x0000000000000000        0x0 build/obj/chvt.o (symbol from plugin)
 .text          0x0000000000000000        0x0 build/obj/chthreads.o (symbol from plugin)
 .text          0x0000000000000000        0x0 build/obj/chdynamic.o (symbol from plugin)
 .text          0x0000000000000000        0x0 build/obj/chregistry.o (symbol from plugin)
 .text          0x0000000000000000        0x0 build/obj/chsem.o (symbol from plugin)
 .text          0x0000000000000000        0x0 build/obj/chmtx.o (symbol from plugin)
 .text          0x0000000000000000        0x0 build/obj/chcond.o (symbol from plugin)
 .text          0x0000000000000000        0x0 build/obj/chevents.o (symbol from plugin)
 .text          0x0000000000000000        0x0 build/obj/chmsg.o (symbol from plugin)
 .text          0x0000000000000000        0x0 build/obj/chmboxes.o (symbol from plugin)
 .text          0x0000000000000000        0x0 build/obj/chqueues.o (symbol from plugin)
 .text          0x0000000000000000        0x0 build/obj/chmemcore.o (symbol from plugin)
 .text          0x0000000000000000        0x0 build/obj/chheap.o (symbol from plugin)
 .text          0x0000000000000000        0x0 build/obj/chmempools.o (symbol from plugin)
 .text          0x0000000000000000        0x0 build/obj/test.o (symbol from plugin)
 .text          0x0000000000000000        0x0 build/obj/testthd.o (symbol from plugin)
 .text          0x0000000000000000        0x0 build/obj/testsem.o (symbol from plugin)
 .text          0x0000000000000000        0x0 build/obj/testmtx.o (symbol from plugin)
 .text          0x0000000000000000        0x0 build/obj/testmsg.o (symbol from plugin)
 .text          0x0000000000000000        0x0 build/obj/testmbox.o (symbol from plugin)
 .text          0x0000000000000000        0x0 build/obj/testevt.o (symbol from plugin)
 .text          0x0000000000000000        0x0 build/obj/testheap.o (symbol from plugin)
 .text          0x0000000000000000        0x0 build/obj/testpools.o (symbol from plugin)
 .text          0x0000000000000000        0x0 build/obj/testdyn.o (symbol from plugin)
 .text          0x0000000000000000        0x0 build/obj/testqueues.o (symbol from plugin)
 .text          0x0000000000000000        0x0 build/obj/testbmk.o (symbol from plugin)
 .text          0x0000000000000000        0x0 build/obj/hal.o (symbol from plugin)
 .text          0x0000000000000000        0x0 build/obj/hal_queues.o (symbol from plugin)
 .text          0x0000000000000000        0x0 build/obj/hal_mmcsd.o (symbol from plugin)
 .text          0x0000000000000000        0x0 build/obj/adc.o (symbol from plugin)
 .text          0x0000000000000000        0x0 build/obj/can.o (symbol from plugin)
 .text          0x0000000000000000        0x0 build/obj/dac.o (symbol from plugin)
 .text          0x0000000000000000        0x0 build/obj/ext.o (symbol from plugin)
 .text          0x0000000000000000        0x0 build/obj/gpt.o (symbol from plugin)
 .text          0x0000000000000000        0x0 build/obj/i2c.o (symbol from plugin)
 .text          0x0000000000000000        0x0 build/obj/i2s.o (symbol from plugin)
 .text          0x0000000000000000        0x0 build/obj/icu.o (symbol from plugin)
 .text          0x0000000000000000        0x0 build/obj/mac.o (symbol from plugin)
 .text          0x0000000000000000        0x0 build/obj/mmc_spi.o (symbol from plugin)
 .text          0x0000000000000000        0x0 build/obj/pal.o (symbol from plugin)
 .text          0x0000000000000000        0x0 build/obj/pwm.o (symbol from plugin)
 .text          0x0000000000000000        0x0 build/obj/rtc.o (symbol from plugin)
 .text          0x0000000000000000        0x0 build/obj/sdc.o (symbol from plugin)
 .text          0x0000000000000000        0x0 build/obj/serial.o (symbol from plugin)
 .text          0x0000000000000000        0x0 build/obj/serial_usb.o (symbol from plugin)
 .text          0x0000000000000000        0x0 build/obj/spi.o (symbol from plugin)
 .text          0x0000000000000000        0x0 build/obj/st.o (symbol from plugin)
 .text          0x0000000000000000        0x0 build/obj/uart.o (symbol from plugin)
 .text          0x0000000000000000        0x0 build/obj/usb.o (symbol from plugin)
 .text          0x0000000000000000        0x0 build/obj/osal.o (symbol from plugin)
 .text          0x0000000000000000        0x0 build/obj/nvic.o (symbol from plugin)
 .text          0x0000000000000000        0x0 build/obj/stm32_dma.o (symbol from plugin)
 .text          0x0000000000000000        0x0 build/obj/hal_lld.o (symbol from plugin)
 .text          0x0000000000000000        0x0 build/obj/adc_lld.o (symbol from plugin)
 .text          0x0000000000000000        0x0 build/obj/ext_lld_isr.o (symbol from plugin)
 .text          0x0000000000000000        0x0 build/obj/can_lld.o (symbol from plugin)
 .text          0x0000000000000000        0x0 build/obj/ext_lld.o (symbol from plugin)
 .text          0x0000000000000000        0x0 build/obj/mac_lld.o (symbol from plugin)
 .text          0x0000000000000000        0x0 build/obj/sdc_lld.o (symbol from plugin)
 .text          0x0000000000000000        0x0 build/obj/pal_lld.o (symbol from plugin)
 .text          0x0000000000000000        0x0 build/obj/i2c_lld.o (symbol from plugin)
 .text          0x0000000000000000        0x0 build/obj/rtc_lld.o (symbol from plugin)
 .text          0x0000000000000000        0x0 build/obj/spi_lld.o (symbol from plugin)
 .text          0x0000000000000000        0x0 build/obj/gpt_lld.o (symbol from plugin)
 .text          0x0000000000000000        0x0 build/obj/icu_lld.o (symbol from plugin)
 .text          0x0000000000000000        0x0 build/obj/pwm_lld.o (symbol from plugin)
 .text          0x0000000000000000        0x0 build/obj/st_lld.o (symbol from plugin)
 .text          0x0000000000000000        0x0 build/obj/serial_lld.o (symbol from plugin)
 .text          0x0000000000000000        0x0 build/obj/uart_lld.o (symbol from plugin)
 .text          0x0000000000000000        0x0 build/obj/usb_lld.o (symbol from plugin)
 .text          0x0000000000000000        0x0 build/obj/board.o (symbol from plugin)
 .text          0x0000000000000000        0x0 build/obj/fatfs_diskio.o (symbol from plugin)
 .text          0x0000000000000000        0x0 build/obj/fatfs_syscall.o (symbol from plugin)
 .text          0x0000000000000000        0x0 build/obj/ff.o (symbol from plugin)
 .text          0x0000000000000000        0x0 build/obj/unicode.o (symbol from plugin)
 .text          0x0000000000000000        0x0 build/obj/chprintf.o (symbol from plugin)
 .text          0x0000000000000000        0x0 build/obj/shell.o (symbol from plugin)
 .text          0x0000000000000000        0x0 build/obj/sdmmcsimple.o (symbol from plugin)
 .text          0x0000000000000000        0x0 build/obj/datalogger.o (symbol from plugin)
 .text          0x0000000000000000        0x0 build/obj/main.o (symbol from plugin)

Memory Configuration

Name             Origin             Length             Attributes
flash            0x0000000008000000 0x0000000000020000
ram              0x0000000020000000 0x0000000000005000
*default*        0x0000000000000000 0xffffffffffffffff

Linker script and memory map

LOAD build/obj/chcoreasm_v7m.o
LOAD build/obj/crt0.o
LOAD /tmp/ccPVnegP.ltrans0.ltrans.o
LOAD /tmp/ccPVnegP.ltrans1.ltrans.o
LOAD /tmp/ccPVnegP.ltrans2.ltrans.o
LOAD /tmp/ccPVnegP.ltrans3.ltrans.o
LOAD /tmp/ccPVnegP.ltrans4.ltrans.o
LOAD /usr/bin/../lib/gcc/arm-none-eabi/4.8.4/armv7-m/libgcc.a
LOAD /usr/bin/../lib/gcc/arm-none-eabi/4.8.4/../../../../arm-none-eabi/lib/armv7-m/libc.a
LOAD build/obj/vectors.o
LOAD build/obj/chcore.o
LOAD build/obj/chcore_v7m.o
LOAD build/obj/chsys.o
LOAD build/obj/chdebug.o
LOAD build/obj/chtm.o
LOAD build/obj/chstats.o
LOAD build/obj/chschd.o
LOAD build/obj/chvt.o
LOAD build/obj/chthreads.o
LOAD build/obj/chdynamic.o
LOAD build/obj/chregistry.o
LOAD build/obj/chsem.o
LOAD build/obj/chmtx.o
LOAD build/obj/chcond.o
LOAD build/obj/chevents.o
LOAD build/obj/chmsg.o
LOAD build/obj/chmboxes.o
LOAD build/obj/chqueues.o
LOAD build/obj/chmemcore.o
LOAD build/obj/chheap.o
LOAD build/obj/chmempools.o
LOAD build/obj/test.o
LOAD build/obj/testthd.o
LOAD build/obj/testsem.o
LOAD build/obj/testmtx.o
LOAD build/obj/testmsg.o
LOAD build/obj/testmbox.o
LOAD build/obj/testevt.o
LOAD build/obj/testheap.o
LOAD build/obj/testpools.o
LOAD build/obj/testdyn.o
LOAD build/obj/testqueues.o
LOAD build/obj/testbmk.o
LOAD build/obj/hal.o
LOAD build/obj/hal_queues.o
LOAD build/obj/hal_mmcsd.o
LOAD build/obj/adc.o
LOAD build/obj/can.o
LOAD build/obj/dac.o
LOAD build/obj/ext.o
LOAD build/obj/gpt.o
LOAD build/obj/i2c.o
LOAD build/obj/i2s.o
LOAD build/obj/icu.o
LOAD build/obj/mac.o
LOAD build/obj/mmc_spi.o
LOAD build/obj/pal.o
LOAD build/obj/pwm.o
LOAD build/obj/rtc.o
LOAD build/obj/sdc.o
LOAD build/obj/serial.o
LOAD build/obj/serial_usb.o
LOAD build/obj/spi.o
LOAD build/obj/st.o
LOAD build/obj/uart.o
LOAD build/obj/usb.o
LOAD build/obj/osal.o
LOAD build/obj/nvic.o
LOAD build/obj/stm32_dma.o
LOAD build/obj/hal_lld.o
LOAD build/obj/adc_lld.o
LOAD build/obj/ext_lld_isr.o
LOAD build/obj/can_lld.o
LOAD build/obj/ext_lld.o
LOAD build/obj/mac_lld.o
LOAD build/obj/sdc_lld.o
LOAD build/obj/pal_lld.o
LOAD build/obj/i2c_lld.o
LOAD build/obj/rtc_lld.o
LOAD build/obj/spi_lld.o
LOAD build/obj/gpt_lld.o
LOAD build/obj/icu_lld.o
LOAD build/obj/pwm_lld.o
LOAD build/obj/st_lld.o
LOAD build/obj/serial_lld.o
LOAD build/obj/uart_lld.o
LOAD build/obj/usb_lld.o
LOAD build/obj/board.o
LOAD build/obj/fatfs_diskio.o
LOAD build/obj/fatfs_syscall.o
LOAD build/obj/ff.o
LOAD build/obj/unicode.o
LOAD build/obj/chprintf.o
LOAD build/obj/shell.o
LOAD build/obj/sdmmcsimple.o
LOAD build/obj/datalogger.o
LOAD build/obj/main.o
                0x0000000020000000                __ram_start__ = ORIGIN (ram)
                0x0000000000005000                __ram_size__ = 0x5000
                0x0000000020005000                __ram_end__ = (__ram_start__ + __ram_size__)
                0x0000000000000000                . = 0x0
                0x0000000000000000                _text = .

startup         0x0000000008000000      0x140
 *(vectors)
 vectors        0x0000000008000000      0x140 /tmp/ccPVnegP.ltrans4.ltrans.o
                0x0000000008000000                _vectors

constructors    0x0000000008000140        0x0
                0x0000000008000140                PROVIDE (__init_array_start, .)
 *(SORT(.init_array.*))
 *(.init_array)
                0x0000000008000140                PROVIDE (__init_array_end, .)

destructors     0x0000000008000140        0x0
                0x0000000008000140                PROVIDE (__fini_array_start, .)
 *(.fini_array)
 *(SORT(.fini_array.*))
                0x0000000008000140                PROVIDE (__fini_array_end, .)

.text           0x0000000008000140     0x3a20
 *(.text.startup.*)
 .text.startup.main
                0x0000000008000140      0xd50 /tmp/ccPVnegP.ltrans0.ltrans.o
                0x0000000008000140                main
 *(.text)
 .text          0x0000000008000e90       0x26 build/obj/chcoreasm_v7m.o
                0x0000000008000e90                _port_switch
                0x0000000008000ea0                _port_thread_start
                0x0000000008000eae                _port_switch_from_isr
                0x0000000008000eb2                _port_exit_from_isr
 *(.text.*)
 *fill*         0x0000000008000eb6        0xa 
 .text.wakeup.4630.4156
                0x0000000008000ec0       0x70 /tmp/ccPVnegP.ltrans1.ltrans.o
 .text.long_to_string_with_divisor.11314.constprop.36.4243
                0x0000000008000f30       0x50 /tmp/ccPVnegP.ltrans1.ltrans.o
 .text.chvprintf.4228
                0x0000000008000f80      0x280 /tmp/ccPVnegP.ltrans1.ltrans.o
 .text.anaSensorCallback.12633
                0x0000000008001200       0x20 /tmp/ccPVnegP.ltrans1.ltrans.o
                0x0000000008001200                anaSensorCallback.12633
 .text.accCallback.12628
                0x0000000008001220       0x10 /tmp/ccPVnegP.ltrans1.ltrans.o
                0x0000000008001220                accCallback.12628
 .text.mmc_lld_is_write_protected
                0x0000000008001230       0x20 /tmp/ccPVnegP.ltrans1.ltrans.o
                0x0000000008001230                mmc_lld_is_write_protected
 .text.mmc_lld_is_card_inserted
                0x0000000008001250       0x10 /tmp/ccPVnegP.ltrans1.ltrans.o
                0x0000000008001250                mmc_lld_is_card_inserted
 .text.notify2.10677
                0x0000000008001260       0x20 /tmp/ccPVnegP.ltrans1.ltrans.o
                0x0000000008001260                notify2.10677
 .text.notify1.10680
                0x0000000008001280       0x20 /tmp/ccPVnegP.ltrans1.ltrans.o
                0x0000000008001280                notify1.10680
 .text.dmaStreamRelease.4568
                0x00000000080012a0       0x60 /tmp/ccPVnegP.ltrans1.ltrans.o
 .text.mmcGetInfo
                0x0000000008001300       0x20 /tmp/ccPVnegP.ltrans1.ltrans.o
                0x0000000008001300                mmcGetInfo
 .text.chCoreAlloc
                0x0000000008001320       0x40 /tmp/ccPVnegP.ltrans1.ltrans.o
                0x0000000008001320                chCoreAlloc
 .text._idle_thread.4264
                0x0000000008001360       0x20 /tmp/ccPVnegP.ltrans1.ltrans.o
                0x0000000008001360                _idle_thread.4264
 .text.SVC_Handler
                0x0000000008001380       0x20 /tmp/ccPVnegP.ltrans1.ltrans.o
                0x0000000008001380                SVC_Handler
 .text.chprintf.12638.constprop.35
                0x00000000080013a0       0x30 /tmp/ccPVnegP.ltrans1.ltrans.o
                0x00000000080013a0                chprintf.12638.constprop.35
 .text.chprintf.12140
                0x00000000080013d0       0x20 /tmp/ccPVnegP.ltrans1.ltrans.o
                0x00000000080013d0                chprintf.12140
 .text.chprintf.11792
                0x00000000080013f0       0x20 /tmp/ccPVnegP.ltrans1.ltrans.o
                0x00000000080013f0                chprintf.11792
 .text.adc_lld_start_conversion.constprop.34
                0x0000000008001410       0x80 /tmp/ccPVnegP.ltrans1.ltrans.o
                0x0000000008001410                adc_lld_start_conversion.constprop.34
 .text.chTMStartMeasurementX.constprop.8
                0x0000000008001490       0x10 /tmp/ccPVnegP.ltrans1.ltrans.o
                0x0000000008001490                chTMStartMeasurementX.constprop.8
 .text.sdObjectInit.constprop.4
                0x00000000080014a0       0x70 /tmp/ccPVnegP.ltrans1.ltrans.o
                0x00000000080014a0                sdObjectInit.constprop.4
 .text.disk_status
                0x0000000008001510       0x30 /tmp/ccPVnegP.ltrans1.ltrans.o
                0x0000000008001510                disk_status
 .text.validate.11056
                0x0000000008001540       0x30 /tmp/ccPVnegP.ltrans1.ltrans.o
                0x0000000008001540                validate.11056
 .text.get_ldnumber.11053
                0x0000000008001570       0x40 /tmp/ccPVnegP.ltrans1.ltrans.o
                0x0000000008001570                get_ldnumber.11053
 .text.spiUnselect
                0x00000000080015b0       0x20 /tmp/ccPVnegP.ltrans1.ltrans.o
                0x00000000080015b0                spiUnselect
 .text.spiSelect
                0x00000000080015d0       0x20 /tmp/ccPVnegP.ltrans1.ltrans.o
                0x00000000080015d0                spiSelect
 .text.spiStop  0x00000000080015f0       0x50 /tmp/ccPVnegP.ltrans1.ltrans.o
                0x00000000080015f0                spiStop
 .text._pal_lld_setgroupmode
                0x0000000008001640       0x70 /tmp/ccPVnegP.ltrans1.ltrans.o
                0x0000000008001640                _pal_lld_setgroupmode
 .text.dmaStreamAllocate
                0x00000000080016b0       0xa0 /tmp/ccPVnegP.ltrans1.ltrans.o
                0x00000000080016b0                dmaStreamAllocate
 .text.spiStart
                0x0000000008001750       0xb0 /tmp/ccPVnegP.ltrans1.ltrans.o
                0x0000000008001750                spiStart
 .text.chSchGoSleepS
                0x0000000008001800       0x30 /tmp/ccPVnegP.ltrans1.ltrans.o
                0x0000000008001800                chSchGoSleepS
 .text.chSchGoSleepTimeoutS
                0x0000000008001830      0x100 /tmp/ccPVnegP.ltrans1.ltrans.o
                0x0000000008001830                chSchGoSleepTimeoutS
 .text.chThdEnqueueTimeoutS
                0x0000000008001930       0x30 /tmp/ccPVnegP.ltrans1.ltrans.o
                0x0000000008001930                chThdEnqueueTimeoutS
 .text.chOQWriteTimeout
                0x0000000008001960       0x80 /tmp/ccPVnegP.ltrans1.ltrans.o
                0x0000000008001960                chOQWriteTimeout
 .text.chThdSuspendS
                0x00000000080019e0       0x30 /tmp/ccPVnegP.ltrans1.ltrans.o
                0x00000000080019e0                chThdSuspendS
 .text.spiSend  0x0000000008001a10       0x50 /tmp/ccPVnegP.ltrans1.ltrans.o
                0x0000000008001a10                spiSend
 .text.spiReceive
                0x0000000008001a60       0x50 /tmp/ccPVnegP.ltrans1.ltrans.o
                0x0000000008001a60                spiReceive
 .text.recvr1.isra.0.9200
                0x0000000008001ab0       0x30 /tmp/ccPVnegP.ltrans1.ltrans.o
                0x0000000008001ab0                recvr1.isra.0.9200
 .text.mmcStopSequentialRead.part.7.9255
                0x0000000008001ae0       0x30 /tmp/ccPVnegP.ltrans1.ltrans.o
                0x0000000008001ae0                mmcStopSequentialRead.part.7.9255
 .text.spiIgnore
                0x0000000008001b10       0x60 /tmp/ccPVnegP.ltrans1.ltrans.o
                0x0000000008001b10                spiIgnore
 .text.mmcSequentialRead
                0x0000000008001b70       0x60 /tmp/ccPVnegP.ltrans1.ltrans.o
                0x0000000008001b70                mmcSequentialRead
 .text._port_irq_epilogue
                0x0000000008001bd0       0x60 /tmp/ccPVnegP.ltrans1.ltrans.o
                0x0000000008001bd0                _port_irq_epilogue
 .text.Vector84
                0x0000000008001c30       0x30 /tmp/ccPVnegP.ltrans1.ltrans.o
                0x0000000008001c30                Vector84
 .text.Vector80
                0x0000000008001c60       0x30 /tmp/ccPVnegP.ltrans1.ltrans.o
                0x0000000008001c60                Vector80
 .text.Vector7C
                0x0000000008001c90       0x30 /tmp/ccPVnegP.ltrans1.ltrans.o
                0x0000000008001c90                Vector7C
 .text.Vector78
                0x0000000008001cc0       0x30 /tmp/ccPVnegP.ltrans1.ltrans.o
                0x0000000008001cc0                Vector78
 .text.Vector74
                0x0000000008001cf0       0x30 /tmp/ccPVnegP.ltrans1.ltrans.o
                0x0000000008001cf0                Vector74
 .text.Vector70
                0x0000000008001d20       0x30 /tmp/ccPVnegP.ltrans1.ltrans.o
                0x0000000008001d20                Vector70
 .text.Vector6C
                0x0000000008001d50       0x30 /tmp/ccPVnegP.ltrans1.ltrans.o
                0x0000000008001d50                Vector6C
 .text.chSchReadyI
                0x0000000008001d80       0x30 /tmp/ccPVnegP.ltrans1.ltrans.o
                0x0000000008001d80                chSchReadyI
 .text.chEvtBroadcastFlagsI
                0x0000000008001db0       0x60 /tmp/ccPVnegP.ltrans1.ltrans.o
                0x0000000008001db0                chEvtBroadcastFlagsI
 .text.chTMStopMeasurementX
                0x0000000008001e10       0x50 /tmp/ccPVnegP.ltrans1.ltrans.o
                0x0000000008001e10                chTMStopMeasurementX
 .text._unhandled_exception.4649
                0x0000000008001e60       0x10 /tmp/ccPVnegP.ltrans1.ltrans.o
                0x0000000008001e60                Vector58
                0x0000000008001e60                VectorE8
                0x0000000008001e60                Vector9C
                0x0000000008001e60                VectorAC
                0x0000000008001e60                DebugMon_Handler
                0x0000000008001e60                Vector5C
                0x0000000008001e60                Vector11C
                0x0000000008001e60                HardFault_Handler
                0x0000000008001e60                Vector8C
                0x0000000008001e60                SysTick_Handler
                0x0000000008001e60                VectorDC
                0x0000000008001e60                PendSV_Handler
                0x0000000008001e60                NMI_Handler
                0x0000000008001e60                Vector110
                0x0000000008001e60                Vector120
                0x0000000008001e60                VectorC8
                0x0000000008001e60                Vector94
                0x0000000008001e60                VectorA8
                0x0000000008001e60                VectorB4
                0x0000000008001e60                UsageFault_Handler
                0x0000000008001e60                VectorEC
                0x0000000008001e60                Vector40
                0x0000000008001e60                VectorF8
                0x0000000008001e60                Vector108
                0x0000000008001e60                VectorBC
                0x0000000008001e60                Vector124
                0x0000000008001e60                Vector118
                0x0000000008001e60                Vector64
                0x0000000008001e60                VectorCC
                0x0000000008001e60                Vector54
                0x0000000008001e60                Vector98
                0x0000000008001e60                Vector138
                0x0000000008001e60                Vector24
                0x0000000008001e60                VectorD0
                0x0000000008001e60                VectorE4
                0x0000000008001e60                VectorC0
                0x0000000008001e60                Vector130
                0x0000000008001e60                Vector134
                0x0000000008001e60                VectorF0
                0x0000000008001e60                Vector12C
                0x0000000008001e60                Vector13C
                0x0000000008001e60                Vector100
                0x0000000008001e60                VectorE0
                0x0000000008001e60                VectorF4
                0x0000000008001e60                MemManage_Handler
                0x0000000008001e60                VectorA0
                0x0000000008001e60                VectorC4
                0x0000000008001e60                Vector90
                0x0000000008001e60                Vector114
                0x0000000008001e60                Vector60
                0x0000000008001e60                Vector1C
                0x0000000008001e60                Vector48
                0x0000000008001e60                Vector4C
                0x0000000008001e60                Vector68
                0x0000000008001e60                Vector88
                0x0000000008001e60                Vector104
                0x0000000008001e60                Vector10C
                0x0000000008001e60                BusFault_Handler
                0x0000000008001e60                Vector50
                0x0000000008001e60                Vector44
                0x0000000008001e60                Vector28
                0x0000000008001e60                VectorB8
                0x0000000008001e60                VectorFC
                0x0000000008001e60                Vector34
                0x0000000008001e60                Vector128
                0x0000000008001e60                VectorA4
                0x0000000008001e60                Vector20
 .text.spi_lld_serve_tx_interrupt.10416
                0x0000000008001e70       0x20 /tmp/ccPVnegP.ltrans2.ltrans.o
                0x0000000008001e70                spi_lld_serve_tx_interrupt.10416
 .text.mmc_write.9310
                0x0000000008001e90       0x60 /tmp/ccPVnegP.ltrans2.ltrans.o
                0x0000000008001e90                mmc_write.9310
 .text.VectorB0
                0x0000000008001ef0       0xa0 /tmp/ccPVnegP.ltrans2.ltrans.o
                0x0000000008001ef0                VectorB0
 .text.serve_interrupt.10687.4202
                0x0000000008001f90      0x1a0 /tmp/ccPVnegP.ltrans2.ltrans.o
 .text.VectorD8
                0x0000000008002130       0x20 /tmp/ccPVnegP.ltrans2.ltrans.o
                0x0000000008002130                VectorD8
 .text.VectorD4
                0x0000000008002150       0x20 /tmp/ccPVnegP.ltrans2.ltrans.o
                0x0000000008002150                VectorD4
 .text.adc_lld_serve_rx_interrupt.10185
                0x0000000008002170      0x100 /tmp/ccPVnegP.ltrans2.ltrans.o
                0x0000000008002170                adc_lld_serve_rx_interrupt.10185
 .text.spi_lld_serve_rx_interrupt.10420
                0x0000000008002270       0x80 /tmp/ccPVnegP.ltrans2.ltrans.o
                0x0000000008002270                spi_lld_serve_rx_interrupt.10420
 .text.mmcConnect
                0x00000000080022f0      0x160 /tmp/ccPVnegP.ltrans2.ltrans.o
                0x00000000080022f0                mmcConnect
 .text.sd_lld_start
                0x0000000008002450       0xb0 /tmp/ccPVnegP.ltrans2.ltrans.o
                0x0000000008002450                sd_lld_start
 .text.put_fat.part.8.11110
                0x0000000008002500      0x100 /tmp/ccPVnegP.ltrans2.ltrans.o
                0x0000000008002500                put_fat.part.8.11110
 .text.dir_next.11119
                0x0000000008002600      0x200 /tmp/ccPVnegP.ltrans2.ltrans.o
                0x0000000008002600                dir_next.11119
 .text.dir_sdi.11100.constprop.21
                0x0000000008002800       0x80 /tmp/ccPVnegP.ltrans2.ltrans.o
                0x0000000008002800                dir_sdi.11100.constprop.21
 .text.chIQGetTimeout.4367
                0x0000000008002880       0x50 /tmp/ccPVnegP.ltrans3.ltrans.o
 .text.gett.9502
                0x00000000080028d0       0x10 /tmp/ccPVnegP.ltrans3.ltrans.o
                0x00000000080028d0                gett.9502
 .text.get.9506
                0x00000000080028e0       0x10 /tmp/ccPVnegP.ltrans3.ltrans.o
                0x00000000080028e0                get.9506
 .text.chIQReadTimeout.4395
                0x00000000080028f0       0x80 /tmp/ccPVnegP.ltrans3.ltrans.o
 .text.readt.9477
                0x0000000008002970       0x10 /tmp/ccPVnegP.ltrans3.ltrans.o
                0x0000000008002970                readt.9477
 .text.read.9486
                0x0000000008002980       0x10 /tmp/ccPVnegP.ltrans3.ltrans.o
                0x0000000008002980                read.9486
 .text.chOQPutTimeout.4410
                0x0000000008002990       0x50 /tmp/ccPVnegP.ltrans3.ltrans.o
 .text.putt.9509
                0x00000000080029e0       0x10 /tmp/ccPVnegP.ltrans3.ltrans.o
                0x00000000080029e0                putt.9509
 .text.put.9514
                0x00000000080029f0       0x10 /tmp/ccPVnegP.ltrans3.ltrans.o
                0x00000000080029f0                put.9514
 .text.writet.9491
                0x0000000008002a00       0x10 /tmp/ccPVnegP.ltrans3.ltrans.o
                0x0000000008002a00                writet.9491
 .text.write.9497
                0x0000000008002a10       0x10 /tmp/ccPVnegP.ltrans3.ltrans.o
                0x0000000008002a10                write.9497
 .text.chThdSleep
                0x0000000008002a20       0x20 /tmp/ccPVnegP.ltrans3.ltrans.o
                0x0000000008002a20                chThdSleep
 .text.wait.isra.1.9207.4336
                0x0000000008002a40       0x40 /tmp/ccPVnegP.ltrans3.ltrans.o
 .text.mmcSequentialWrite
                0x0000000008002a80       0x80 /tmp/ccPVnegP.ltrans3.ltrans.o
                0x0000000008002a80                mmcSequentialWrite
 .text.send_hdr.9210.4331
                0x0000000008002b00       0x70 /tmp/ccPVnegP.ltrans3.ltrans.o
 .text.mmcStartSequentialWrite
                0x0000000008002b70       0x60 /tmp/ccPVnegP.ltrans3.ltrans.o
                0x0000000008002b70                mmcStartSequentialWrite
 .text.disk_write.constprop.25
                0x0000000008002bd0       0x70 /tmp/ccPVnegP.ltrans3.ltrans.o
                0x0000000008002bd0                disk_write.constprop.25
 .text.sync_window.part.3.11070
                0x0000000008002c40       0x60 /tmp/ccPVnegP.ltrans3.ltrans.o
                0x0000000008002c40                sync_window.part.3.11070
 .text.mmcStartSequentialRead.4304
                0x0000000008002ca0       0x60 /tmp/ccPVnegP.ltrans3.ltrans.o
 .text.move_window.11080
                0x0000000008002d00       0x70 /tmp/ccPVnegP.ltrans3.ltrans.o
                0x0000000008002d00                move_window.11080
 .text.get_fat.part.6.11096
                0x0000000008002d70       0xd0 /tmp/ccPVnegP.ltrans3.ltrans.o
                0x0000000008002d70                get_fat.part.6.11096
 .text.check_fs.11087.4232
                0x0000000008002e40       0x90 /tmp/ccPVnegP.ltrans3.ltrans.o
 .text.find_volume.11091
                0x0000000008002ed0      0x330 /tmp/ccPVnegP.ltrans3.ltrans.o
                0x0000000008002ed0                find_volume.11091
 .text.f_mount  0x0000000008003200       0x60 /tmp/ccPVnegP.ltrans3.ltrans.o
                0x0000000008003200                f_mount
 .text.mmc_read.9293
                0x0000000008003260       0x40 /tmp/ccPVnegP.ltrans3.ltrans.o
                0x0000000008003260                mmc_read.9293
 .text.read_CxD.9226
                0x00000000080032a0       0xb0 /tmp/ccPVnegP.ltrans3.ltrans.o
                0x00000000080032a0                read_CxD.9226
 .text.send_command_R1.9221
                0x0000000008003350       0x30 /tmp/ccPVnegP.ltrans3.ltrans.o
                0x0000000008003350                send_command_R1.9221
 .text.send_command_R3.9215
                0x0000000008003380       0x40 /tmp/ccPVnegP.ltrans3.ltrans.o
                0x0000000008003380                send_command_R3.9215
 .text.sync.isra.2.9234.4351
                0x00000000080033c0       0x40 /tmp/ccPVnegP.ltrans3.ltrans.o
 .text.mmcSync  0x0000000008003400       0x30 /tmp/ccPVnegP.ltrans3.ltrans.o
                0x0000000008003400                mmcSync
 .text.mmcDisconnect
                0x0000000008003430       0x50 /tmp/ccPVnegP.ltrans3.ltrans.o
                0x0000000008003430                mmcDisconnect
 .text.Reset_Handler
                0x0000000008003480      0x150 /tmp/ccPVnegP.ltrans4.ltrans.o
                0x0000000008003480                Reset_Handler
 .text.chThdExit
                0x00000000080035d0       0x50 /tmp/ccPVnegP.ltrans4.ltrans.o
                0x00000000080035d0                chThdExit
 .text.chSchDoReschedule
                0x0000000008003620       0x40 /tmp/ccPVnegP.ltrans4.ltrans.o
                0x0000000008003620                chSchDoReschedule
 *(.rodata)
 *(.rodata.*)
 .rodata.sensorConvGrp.12685.4851
                0x0000000008003660       0x28 /tmp/ccPVnegP.ltrans0.ltrans.o
 *fill*         0x0000000008003688        0x8 
 .rodata.mmc_vmt.9339.4858
                0x0000000008003690       0x20 /tmp/ccPVnegP.ltrans0.ltrans.o
 .rodata._stm32_dma_streams
                0x00000000080036b0       0x54 /tmp/ccPVnegP.ltrans0.ltrans.o
 *fill*         0x0000000008003704        0xc 
 .rodata.ch_debug
                0x0000000008003710       0x18 /tmp/ccPVnegP.ltrans0.ltrans.o
 *fill*         0x0000000008003728        0x8 
 .rodata.str1.4
                0x0000000008003730      0x1db /tmp/ccPVnegP.ltrans0.ltrans.o
                                        0x1dc (size before relaxing)
 *fill*         0x000000000800390b        0x5 
 .rodata.ExCvt.11266.4856
                0x0000000008003910       0x80 /tmp/ccPVnegP.ltrans0.ltrans.o
 .rodata.accelConvGrp.12687.4849
                0x0000000008003990       0x28 /tmp/ccPVnegP.ltrans0.ltrans.o
 *fill*         0x00000000080039b8        0x8 
 .rodata.stopcmd.7333.9335.4800
                0x00000000080039c0        0x8 /tmp/ccPVnegP.ltrans1.ltrans.o
 *fill*         0x00000000080039c8        0x8 
 .rodata.cfgtab.6851.10271.4809
                0x00000000080039d0       0x14 /tmp/ccPVnegP.ltrans1.ltrans.o
 *fill*         0x00000000080039e4        0xc 
 .rodata.str1.4
                0x00000000080039f0        0xd /tmp/ccPVnegP.ltrans1.ltrans.o
                                         0x10 (size before relaxing)
 *fill*         0x00000000080039fd        0x3 
 .rodata.default_config.10714.4581
                0x0000000008003a00        0xc /tmp/ccPVnegP.ltrans2.ltrans.o
 *fill*         0x0000000008003a0c        0x4 
 .rodata.stop.7350.9336
                0x0000000008003a10        0x4 /tmp/ccPVnegP.ltrans2.ltrans.o
                0x0000000008003a10                stop.7350.9336
 *fill*         0x0000000008003a14        0xc 
 .rodata.str1.4
                0x0000000008003a20        0xc /tmp/ccPVnegP.ltrans2.ltrans.o
 *fill*         0x0000000008003a2c        0x4 
 .rodata.vmt.9595
                0x0000000008003a30       0x20 /tmp/ccPVnegP.ltrans3.ltrans.o
                0x0000000008003a30                vmt.9595
 .rodata.start.7344.9337.4497
                0x0000000008003a50        0x4 /tmp/ccPVnegP.ltrans3.ltrans.o
 *fill*         0x0000000008003a54        0xc 
 .rodata.crc7_lookup_table.9338.4498
                0x0000000008003a60      0x100 /tmp/ccPVnegP.ltrans3.ltrans.o
 *(.glue_7t)
 .glue_7t       0x0000000000000000        0x0 linker stubs
 *(.glue_7)
 .glue_7        0x0000000000000000        0x0 linker stubs
 *(.gcc*)

.vfp11_veneer   0x0000000008003b60        0x0
 .vfp11_veneer  0x0000000000000000        0x0 linker stubs

.v4_bx          0x0000000008003b60        0x0
 .v4_bx         0x0000000000000000        0x0 linker stubs

.iplt           0x0000000008003b60        0x0
 .iplt          0x0000000000000000        0x0 build/obj/chcoreasm_v7m.o

.rel.dyn        0x0000000008003b60        0x0
 .rel.iplt      0x0000000000000000        0x0 build/obj/chcoreasm_v7m.o

.ARM.extab
 *(.ARM.extab* .gnu.linkonce.armextab.*)

.ARM.exidx      0x0000000008003b60        0x0
                0x0000000008003b60                PROVIDE (__exidx_start, .)
 *(.ARM.exidx* .gnu.linkonce.armexidx.*)
                0x0000000008003b60                PROVIDE (__exidx_end, .)

.eh_frame_hdr
 *(.eh_frame_hdr)

.eh_frame
 *(.eh_frame)

.textalign      0x0000000008003b60        0x0
                0x0000000008003b60                . = ALIGN (0x8)
                0x0000000008003b60                . = ALIGN (0x4)
                0x0000000008003b60                _etext = .
                0x0000000008003b60                _textdata = _etext

.stacks         0x0000000020000000      0x800
                0x0000000020000000                . = ALIGN (0x8)
                0x0000000020000000                __main_stack_base__ = .
                0x0000000020000400                . = (. + __main_stack_size__)
 *fill*         0x0000000020000000      0x400 
                0x0000000020000400                . = ALIGN (0x8)
                0x0000000020000400                __main_stack_end__ = .
                0x0000000020000400                __process_stack_base__ = .
                0x0000000020000400                __main_thread_stack_base__ = .
                0x0000000020000800                . = (. + __process_stack_size__)
 *fill*         0x0000000020000400      0x400 
                0x0000000020000800                . = ALIGN (0x8)
                0x0000000020000800                __process_stack_end__ = .
                0x0000000020000800                __main_thread_stack_end__ = .

.data           0x0000000020000800       0x3c load address 0x0000000008003b60
                0x0000000020000800                . = ALIGN (0x4)
                0x0000000020000800                PROVIDE (_data, .)
 *(.data)
 *(.data.*)
 .data.serGpsCfg.12684.4854
                0x0000000020000800        0xc /tmp/ccPVnegP.ltrans0.ltrans.o
 .data.serCfg.12682.4855
                0x000000002000080c        0xc /tmp/ccPVnegP.ltrans0.ltrans.o
 .data.lsCfg.11938.4836
                0x0000000020000818        0xc /tmp/ccPVnegP.ltrans0.ltrans.o
 .data.hsCfg.11939.4837
                0x0000000020000824        0xc /tmp/ccPVnegP.ltrans0.ltrans.o
 .data.mmcCfg.11936.4834
                0x0000000020000830        0xc /tmp/ccPVnegP.ltrans0.ltrans.o
 *(.ramtext)
                0x000000002000083c                . = ALIGN (0x4)
                0x000000002000083c                PROVIDE (_edata, .)

.igot.plt       0x000000002000083c        0x0 load address 0x0000000008003b9c
 .igot.plt      0x0000000000000000        0x0 build/obj/chcoreasm_v7m.o

.bss            0x000000002000083c      0x7f0
                0x000000002000083c                . = ALIGN (0x4)
                0x000000002000083c                PROVIDE (_bss_start, .)
 *(.bss)
 *(.bss.*)
 .bss.ADCD1.4827
                0x000000002000083c       0x34 /tmp/ccPVnegP.ltrans0.ltrans.o
 .bss.dummytx.10473
                0x0000000020000870        0x2 /tmp/ccPVnegP.ltrans0.ltrans.o
                0x0000000020000870                dummytx.10473
 *fill*         0x0000000020000872        0x2 
 .bss.SD.11941.4819
                0x0000000020000874        0x4 /tmp/ccPVnegP.ltrans0.ltrans.o
 .bss.mainthread.6158.4314.4839
                0x0000000020000878       0x44 /tmp/ccPVnegP.ltrans0.ltrans.o
 .bss.dma_streams_mask.9990
                0x00000000200008bc        0x4 /tmp/ccPVnegP.ltrans0.ltrans.o
                0x00000000200008bc                dma_streams_mask.9990
 .bss.SPID1     0x00000000200008c0       0x30 /tmp/ccPVnegP.ltrans0.ltrans.o
                0x00000000200008c0                SPID1
 .bss.SD1       0x00000000200008f0       0x78 /tmp/ccPVnegP.ltrans0.ltrans.o
                0x00000000200008f0                SD1
 .bss.SD2       0x0000000020000968       0x78 /tmp/ccPVnegP.ltrans0.ltrans.o
                0x0000000020000968                SD2
 .bss.dma_isr_redir.9985
                0x00000000200009e0       0x38 /tmp/ccPVnegP.ltrans0.ltrans.o
                0x00000000200009e0                dma_isr_redir.9985
 .bss.default_heap.6671.4934
                0x0000000020000a18       0x20 /tmp/ccPVnegP.ltrans0.ltrans.o
 .bss.sensorLog.12677.4828
                0x0000000020000a38       0x10 /tmp/ccPVnegP.ltrans0.ltrans.o
 .bss.lFile.4830
                0x0000000020000a48      0x224 /tmp/ccPVnegP.ltrans0.ltrans.o
 .bss.logger.12678.4829
                0x0000000020000c6c       0x10 /tmp/ccPVnegP.ltrans0.ltrans.o
 .bss.accSamples.12688.4850
                0x0000000020000c7c        0x8 /tmp/ccPVnegP.ltrans0.ltrans.o
 .bss.serialPort.11940.4818
                0x0000000020000c84        0x4 /tmp/ccPVnegP.ltrans0.ltrans.o
 .bss.sd.12680.4831
                0x0000000020000c88       0x10 /tmp/ccPVnegP.ltrans0.ltrans.o
 .bss.DEBUG.12282.4820
                0x0000000020000c98        0x4 /tmp/ccPVnegP.ltrans0.ltrans.o
 *fill*         0x0000000020000c9c        0x4 
 .bss._idle_thread_wa.4313.4838
                0x0000000020000ca0       0xd8 /tmp/ccPVnegP.ltrans0.ltrans.o
 .bss.sensorSamples.12686.4852
                0x0000000020000d78        0x8 /tmp/ccPVnegP.ltrans0.ltrans.o
 .bss.nextmem.6560
                0x0000000020000d80        0x4 /tmp/ccPVnegP.ltrans0.ltrans.o
                0x0000000020000d80                nextmem.6560
 .bss.FS.11935.4857
                0x0000000020000d84      0x230 /tmp/ccPVnegP.ltrans0.ltrans.o
 .bss.SENSORS.12689
                0x0000000020000fb4        0x8 /tmp/ccPVnegP.ltrans0.ltrans.o
                0x0000000020000fb4                SENSORS.12689
 .bss.MMCD1     0x0000000020000fbc       0x34 /tmp/ccPVnegP.ltrans0.ltrans.o
                0x0000000020000fbc                MMCD1
 .bss.endmem.6562
                0x0000000020000ff0        0x4 /tmp/ccPVnegP.ltrans0.ltrans.o
                0x0000000020000ff0                endmem.6562
 .bss.dummyrx.10475.4804
                0x0000000020000ff4        0x2 /tmp/ccPVnegP.ltrans1.ltrans.o
 .bss.Fsid.11268.4493
                0x0000000020000ff6        0x2 /tmp/ccPVnegP.ltrans3.ltrans.o
 .bss.FatFs.11267.4492
                0x0000000020000ff8        0x4 /tmp/ccPVnegP.ltrans3.ltrans.o
 .bss.ch        0x0000000020000ffc       0x30 /tmp/ccPVnegP.ltrans4.ltrans.o
                0x0000000020000ffc                ch
 *(COMMON)
                0x000000002000102c                . = ALIGN (0x4)
                0x000000002000102c                PROVIDE (_bss_end, .)
                0x000000002000102c                PROVIDE (end, .)
                0x000000002000102c                _end = .
                0x000000002000102c                __heap_base__ = _end
                0x0000000020005000                __heap_end__ = __ram_end__
                0x0000000000000400                __process_stack_size__ = 0x400
                0x0000000000000400                __main_stack_size__ = 0x400
START GROUP
LOAD /usr/bin/../lib/gcc/arm-none-eabi/4.8.4/armv7-m/libgcc.a
LOAD /usr/bin/../lib/gcc/arm-none-eabi/4.8.4/../../../../arm-none-eabi/lib/armv7-m/libc.a
END GROUP
OUTPUT(build/aoss584Lab.elf elf32-littlearm)

.ARM.attributes
                0x0000000000000000       0x2d
 .ARM.attributes
                0x0000000000000000       0x21 build/obj/chcoreasm_v7m.o
 .ARM.attributes
                0x0000000000000021       0x31 /tmp/ccPVnegP.ltrans0.ltrans.o
 .ARM.attributes
                0x0000000000000052       0x31 /tmp/ccPVnegP.ltrans1.ltrans.o
 .ARM.attributes
                0x0000000000000083       0x31 /tmp/ccPVnegP.ltrans2.ltrans.o
 .ARM.attributes
                0x00000000000000b4       0x31 /tmp/ccPVnegP.ltrans3.ltrans.o
 .ARM.attributes
                0x00000000000000e5       0x31 /tmp/ccPVnegP.ltrans4.ltrans.o

.comment        0x0000000000000000       0x70
 .comment       0x0000000000000000       0x70 /tmp/ccPVnegP.ltrans0.ltrans.o
                                         0x71 (size before relaxing)
 .comment       0x0000000000000000       0x71 /tmp/ccPVnegP.ltrans1.ltrans.o
 .comment       0x0000000000000000       0x71 /tmp/ccPVnegP.ltrans2.ltrans.o
 .comment       0x0000000000000000       0x71 /tmp/ccPVnegP.ltrans3.ltrans.o
 .comment       0x0000000000000000       0x71 /tmp/ccPVnegP.ltrans4.ltrans.o

Cross Reference Table

Symbol                                            File
BusFault_Handler                                  /tmp/ccPVnegP.ltrans1.ltrans.o
                                                  /tmp/ccPVnegP.ltrans4.ltrans.o
DebugMon_Handler                                  /tmp/ccPVnegP.ltrans1.ltrans.o
                                                  /tmp/ccPVnegP.ltrans4.ltrans.o
HardFault_Handler                                 /tmp/ccPVnegP.ltrans1.ltrans.o
                                                  /tmp/ccPVnegP.ltrans4.ltrans.o
MMCD1                                             /tmp/ccPVnegP.ltrans0.ltrans.o
                                                  /tmp/ccPVnegP.ltrans3.ltrans.o
                                                  /tmp/ccPVnegP.ltrans1.ltrans.o
MemManage_Handler                                 /tmp/ccPVnegP.ltrans1.ltrans.o
                                                  /tmp/ccPVnegP.ltrans4.ltrans.o
NMI_Handler                                       /tmp/ccPVnegP.ltrans1.ltrans.o
                                                  /tmp/ccPVnegP.ltrans4.ltrans.o
PendSV_Handler                                    /tmp/ccPVnegP.ltrans1.ltrans.o
                                                  /tmp/ccPVnegP.ltrans4.ltrans.o
Reset_Handler                                     /tmp/ccPVnegP.ltrans4.ltrans.o
SD1                                               /tmp/ccPVnegP.ltrans0.ltrans.o
                                                  /tmp/ccPVnegP.ltrans2.ltrans.o
SD2                                               /tmp/ccPVnegP.ltrans0.ltrans.o
                                                  /tmp/ccPVnegP.ltrans2.ltrans.o
                                                  /tmp/ccPVnegP.ltrans1.ltrans.o
SENSORS.12689                                     /tmp/ccPVnegP.ltrans0.ltrans.o
                                                  /tmp/ccPVnegP.ltrans1.ltrans.o
SPID1                                             /tmp/ccPVnegP.ltrans0.ltrans.o
                                                  /tmp/ccPVnegP.ltrans1.ltrans.o
SVC_Handler                                       /tmp/ccPVnegP.ltrans1.ltrans.o
                                                  /tmp/ccPVnegP.ltrans4.ltrans.o
SysTick_Handler                                   /tmp/ccPVnegP.ltrans1.ltrans.o
                                                  /tmp/ccPVnegP.ltrans4.ltrans.o
UsageFault_Handler                                /tmp/ccPVnegP.ltrans1.ltrans.o
                                                  /tmp/ccPVnegP.ltrans4.ltrans.o
Vector100                                         /tmp/ccPVnegP.ltrans1.ltrans.o
                                                  /tmp/ccPVnegP.ltrans4.ltrans.o
Vector104                                         /tmp/ccPVnegP.ltrans1.ltrans.o
                                                  /tmp/ccPVnegP.ltrans4.ltrans.o
Vector108                                         /tmp/ccPVnegP.ltrans1.ltrans.o
                                                  /tmp/ccPVnegP.ltrans4.ltrans.o
Vector10C                                         /tmp/ccPVnegP.ltrans1.ltrans.o
                                                  /tmp/ccPVnegP.ltrans4.ltrans.o
Vector110                                         /tmp/ccPVnegP.ltrans1.ltrans.o
                                                  /tmp/ccPVnegP.ltrans4.ltrans.o
Vector114                                         /tmp/ccPVnegP.ltrans1.ltrans.o
                                                  /tmp/ccPVnegP.ltrans4.ltrans.o
Vector118                                         /tmp/ccPVnegP.ltrans1.ltrans.o
                                                  /tmp/ccPVnegP.ltrans4.ltrans.o
Vector11C                                         /tmp/ccPVnegP.ltrans1.ltrans.o
                                                  /tmp/ccPVnegP.ltrans4.ltrans.o
Vector120                                         /tmp/ccPVnegP.ltrans1.ltrans.o
                                                  /tmp/ccPVnegP.ltrans4.ltrans.o
Vector124                                         /tmp/ccPVnegP.ltrans1.ltrans.o
                                                  /tmp/ccPVnegP.ltrans4.ltrans.o
Vector128                                         /tmp/ccPVnegP.ltrans1.ltrans.o
                                                  /tmp/ccPVnegP.ltrans4.ltrans.o
Vector12C                                         /tmp/ccPVnegP.ltrans1.ltrans.o
                                                  /tmp/ccPVnegP.ltrans4.ltrans.o
Vector130                                         /tmp/ccPVnegP.ltrans1.ltrans.o
                                                  /tmp/ccPVnegP.ltrans4.ltrans.o
Vector134                                         /tmp/ccPVnegP.ltrans1.ltrans.o
                                                  /tmp/ccPVnegP.ltrans4.ltrans.o
Vector138                                         /tmp/ccPVnegP.ltrans1.ltrans.o
                                                  /tmp/ccPVnegP.ltrans4.ltrans.o
Vector13C                                         /tmp/ccPVnegP.ltrans1.ltrans.o
                                                  /tmp/ccPVnegP.ltrans4.ltrans.o
Vector1C                                          /tmp/ccPVnegP.ltrans1.ltrans.o
                                                  /tmp/ccPVnegP.ltrans4.ltrans.o
Vector20                                          /tmp/ccPVnegP.ltrans1.ltrans.o
                                                  /tmp/ccPVnegP.ltrans4.ltrans.o
Vector24                                          /tmp/ccPVnegP.ltrans1.ltrans.o
                                                  /tmp/ccPVnegP.ltrans4.ltrans.o
Vector28                                          /tmp/ccPVnegP.ltrans1.ltrans.o
                                                  /tmp/ccPVnegP.ltrans4.ltrans.o
Vector34                                          /tmp/ccPVnegP.ltrans1.ltrans.o
                                                  /tmp/ccPVnegP.ltrans4.ltrans.o
Vector40                                          /tmp/ccPVnegP.ltrans1.ltrans.o
                                                  /tmp/ccPVnegP.ltrans4.ltrans.o
Vector44                                          /tmp/ccPVnegP.ltrans1.ltrans.o
                                                  /tmp/ccPVnegP.ltrans4.ltrans.o
Vector48                                          /tmp/ccPVnegP.ltrans1.ltrans.o
                                                  /tmp/ccPVnegP.ltrans4.ltrans.o
Vector4C                                          /tmp/ccPVnegP.ltrans1.ltrans.o
                                                  /tmp/ccPVnegP.ltrans4.ltrans.o
Vector50                                          /tmp/ccPVnegP.ltrans1.ltrans.o
                                                  /tmp/ccPVnegP.ltrans4.ltrans.o
Vector54                                          /tmp/ccPVnegP.ltrans1.ltrans.o
                                                  /tmp/ccPVnegP.ltrans4.ltrans.o
Vector58                                          /tmp/ccPVnegP.ltrans1.ltrans.o
                                                  /tmp/ccPVnegP.ltrans4.ltrans.o
Vector5C                                          /tmp/ccPVnegP.ltrans1.ltrans.o
                                                  /tmp/ccPVnegP.ltrans4.ltrans.o
Vector60                                          /tmp/ccPVnegP.ltrans1.ltrans.o
                                                  /tmp/ccPVnegP.ltrans4.ltrans.o
Vector64                                          /tmp/ccPVnegP.ltrans1.ltrans.o
                                                  /tmp/ccPVnegP.ltrans4.ltrans.o
Vector68                                          /tmp/ccPVnegP.ltrans1.ltrans.o
                                                  /tmp/ccPVnegP.ltrans4.ltrans.o
Vector6C                                          /tmp/ccPVnegP.ltrans1.ltrans.o
                                                  /tmp/ccPVnegP.ltrans4.ltrans.o
Vector70                                          /tmp/ccPVnegP.ltrans1.ltrans.o
                                                  /tmp/ccPVnegP.ltrans4.ltrans.o
Vector74                                          /tmp/ccPVnegP.ltrans1.ltrans.o
                                                  /tmp/ccPVnegP.ltrans4.ltrans.o
Vector78                                          /tmp/ccPVnegP.ltrans1.ltrans.o
                                                  /tmp/ccPVnegP.ltrans4.ltrans.o
Vector7C                                          /tmp/ccPVnegP.ltrans1.ltrans.o
                                                  /tmp/ccPVnegP.ltrans4.ltrans.o
Vector80                                          /tmp/ccPVnegP.ltrans1.ltrans.o
                                                  /tmp/ccPVnegP.ltrans4.ltrans.o
Vector84                                          /tmp/ccPVnegP.ltrans1.ltrans.o
                                                  /tmp/ccPVnegP.ltrans4.ltrans.o
Vector88                                          /tmp/ccPVnegP.ltrans1.ltrans.o
                                                  /tmp/ccPVnegP.ltrans4.ltrans.o
Vector8C                                          /tmp/ccPVnegP.ltrans1.ltrans.o
                                                  /tmp/ccPVnegP.ltrans4.ltrans.o
Vector90                                          /tmp/ccPVnegP.ltrans1.ltrans.o
                                                  /tmp/ccPVnegP.ltrans4.ltrans.o
Vector94                                          /tmp/ccPVnegP.ltrans1.ltrans.o
                                                  /tmp/ccPVnegP.ltrans4.ltrans.o
Vector98                                          /tmp/ccPVnegP.ltrans1.ltrans.o
                                                  /tmp/ccPVnegP.ltrans4.ltrans.o
Vector9C                                          /tmp/ccPVnegP.ltrans1.ltrans.o
                                                  /tmp/ccPVnegP.ltrans4.ltrans.o
VectorA0                                          /tmp/ccPVnegP.ltrans1.ltrans.o
                                                  /tmp/ccPVnegP.ltrans4.ltrans.o
VectorA4                                          /tmp/ccPVnegP.ltrans1.ltrans.o
                                                  /tmp/ccPVnegP.ltrans4.ltrans.o
VectorA8                                          /tmp/ccPVnegP.ltrans1.ltrans.o
                                                  /tmp/ccPVnegP.ltrans4.ltrans.o
VectorAC                                          /tmp/ccPVnegP.ltrans1.ltrans.o
                                                  /tmp/ccPVnegP.ltrans4.ltrans.o
VectorB0                                          /tmp/ccPVnegP.ltrans2.ltrans.o
                                                  /tmp/ccPVnegP.ltrans4.ltrans.o
VectorB4                                          /tmp/ccPVnegP.ltrans1.ltrans.o
                                                  /tmp/ccPVnegP.ltrans4.ltrans.o
VectorB8                                          /tmp/ccPVnegP.ltrans1.ltrans.o
                                                  /tmp/ccPVnegP.ltrans4.ltrans.o
VectorBC                                          /tmp/ccPVnegP.ltrans1.ltrans.o
                                                  /tmp/ccPVnegP.ltrans4.ltrans.o
VectorC0                                          /tmp/ccPVnegP.ltrans1.ltrans.o
                                                  /tmp/ccPVnegP.ltrans4.ltrans.o
VectorC4                                          /tmp/ccPVnegP.ltrans1.ltrans.o
                                                  /tmp/ccPVnegP.ltrans4.ltrans.o
VectorC8                                          /tmp/ccPVnegP.ltrans1.ltrans.o
                                                  /tmp/ccPVnegP.ltrans4.ltrans.o
VectorCC                                          /tmp/ccPVnegP.ltrans1.ltrans.o
                                                  /tmp/ccPVnegP.ltrans4.ltrans.o
VectorD0                                          /tmp/ccPVnegP.ltrans1.ltrans.o
                                                  /tmp/ccPVnegP.ltrans4.ltrans.o
VectorD4                                          /tmp/ccPVnegP.ltrans2.ltrans.o
                                                  /tmp/ccPVnegP.ltrans4.ltrans.o
VectorD8                                          /tmp/ccPVnegP.ltrans2.ltrans.o
                                                  /tmp/ccPVnegP.ltrans4.ltrans.o
VectorDC                                          /tmp/ccPVnegP.ltrans1.ltrans.o
                                                  /tmp/ccPVnegP.ltrans4.ltrans.o
VectorE0                                          /tmp/ccPVnegP.ltrans1.ltrans.o
                                                  /tmp/ccPVnegP.ltrans4.ltrans.o
VectorE4                                          /tmp/ccPVnegP.ltrans1.ltrans.o
                                                  /tmp/ccPVnegP.ltrans4.ltrans.o
VectorE8                                          /tmp/ccPVnegP.ltrans1.ltrans.o
                                                  /tmp/ccPVnegP.ltrans4.ltrans.o
VectorEC                                          /tmp/ccPVnegP.ltrans1.ltrans.o
                                                  /tmp/ccPVnegP.ltrans4.ltrans.o
VectorF0                                          /tmp/ccPVnegP.ltrans1.ltrans.o
                                                  /tmp/ccPVnegP.ltrans4.ltrans.o
VectorF4                                          /tmp/ccPVnegP.ltrans1.ltrans.o
                                                  /tmp/ccPVnegP.ltrans4.ltrans.o
VectorF8                                          /tmp/ccPVnegP.ltrans1.ltrans.o
                                                  /tmp/ccPVnegP.ltrans4.ltrans.o
VectorFC                                          /tmp/ccPVnegP.ltrans1.ltrans.o
                                                  /tmp/ccPVnegP.ltrans4.ltrans.o
__heap_base__                                     /tmp/ccPVnegP.ltrans0.ltrans.o
__heap_end__                                      /tmp/ccPVnegP.ltrans0.ltrans.o
__init_array_end                                  /tmp/ccPVnegP.ltrans4.ltrans.o
__init_array_start                                /tmp/ccPVnegP.ltrans4.ltrans.o
__main_stack_base__                               /tmp/ccPVnegP.ltrans4.ltrans.o
__main_stack_end__                                /tmp/ccPVnegP.ltrans4.ltrans.o
__process_stack_base__                            /tmp/ccPVnegP.ltrans4.ltrans.o
__process_stack_end__                             /tmp/ccPVnegP.ltrans4.ltrans.o
_bss_end                                          /tmp/ccPVnegP.ltrans4.ltrans.o
_bss_start                                        /tmp/ccPVnegP.ltrans4.ltrans.o
_data                                             /tmp/ccPVnegP.ltrans4.ltrans.o
_edata                                            /tmp/ccPVnegP.ltrans4.ltrans.o
_idle_thread.4264                                 /tmp/ccPVnegP.ltrans1.ltrans.o
                                                  /tmp/ccPVnegP.ltrans0.ltrans.o
_pal_lld_setgroupmode                             /tmp/ccPVnegP.ltrans1.ltrans.o
                                                  /tmp/ccPVnegP.ltrans0.ltrans.o
_port_exit_from_isr                               build/obj/chcoreasm_v7m.o
                                                  /tmp/ccPVnegP.ltrans1.ltrans.o
_port_irq_epilogue                                /tmp/ccPVnegP.ltrans1.ltrans.o
                                                  /tmp/ccPVnegP.ltrans2.ltrans.o
_port_switch                                      build/obj/chcoreasm_v7m.o
                                                  /tmp/ccPVnegP.ltrans4.ltrans.o
                                                  /tmp/ccPVnegP.ltrans1.ltrans.o
_port_switch_from_isr                             build/obj/chcoreasm_v7m.o
                                                  /tmp/ccPVnegP.ltrans1.ltrans.o
_port_thread_start                                build/obj/chcoreasm_v7m.o
                                                  /tmp/ccPVnegP.ltrans0.ltrans.o
_textdata                                         /tmp/ccPVnegP.ltrans4.ltrans.o
_vectors                                          /tmp/ccPVnegP.ltrans4.ltrans.o
accCallback.12628                                 /tmp/ccPVnegP.ltrans1.ltrans.o
                                                  /tmp/ccPVnegP.ltrans0.ltrans.o
adc_lld_serve_rx_interrupt.10185                  /tmp/ccPVnegP.ltrans2.ltrans.o
                                                  /tmp/ccPVnegP.ltrans0.ltrans.o
adc_lld_start_conversion.constprop.34             /tmp/ccPVnegP.ltrans1.ltrans.o
                                                  /tmp/ccPVnegP.ltrans0.ltrans.o
anaSensorCallback.12633                           /tmp/ccPVnegP.ltrans1.ltrans.o
                                                  /tmp/ccPVnegP.ltrans0.ltrans.o
ch                                                /tmp/ccPVnegP.ltrans4.ltrans.o
                                                  /tmp/ccPVnegP.ltrans2.ltrans.o
                                                  /tmp/ccPVnegP.ltrans1.ltrans.o
                                                  /tmp/ccPVnegP.ltrans0.ltrans.o
chCoreAlloc                                       /tmp/ccPVnegP.ltrans1.ltrans.o
                                                  /tmp/ccPVnegP.ltrans0.ltrans.o
chEvtBroadcastFlagsI                              /tmp/ccPVnegP.ltrans1.ltrans.o
                                                  /tmp/ccPVnegP.ltrans2.ltrans.o
chOQWriteTimeout                                  /tmp/ccPVnegP.ltrans1.ltrans.o
                                                  /tmp/ccPVnegP.ltrans3.ltrans.o
chSchDoReschedule                                 /tmp/ccPVnegP.ltrans4.ltrans.o
                                                  build/obj/chcoreasm_v7m.o
chSchGoSleepS                                     /tmp/ccPVnegP.ltrans1.ltrans.o
                                                  /tmp/ccPVnegP.ltrans4.ltrans.o
chSchGoSleepTimeoutS                              /tmp/ccPVnegP.ltrans1.ltrans.o
                                                  /tmp/ccPVnegP.ltrans3.ltrans.o
chSchReadyI                                       /tmp/ccPVnegP.ltrans1.ltrans.o
                                                  /tmp/ccPVnegP.ltrans4.ltrans.o
                                                  /tmp/ccPVnegP.ltrans2.ltrans.o
chTMStartMeasurementX.constprop.8                 /tmp/ccPVnegP.ltrans1.ltrans.o
                                                  /tmp/ccPVnegP.ltrans0.ltrans.o
chTMStopMeasurementX                              /tmp/ccPVnegP.ltrans1.ltrans.o
                                                  /tmp/ccPVnegP.ltrans0.ltrans.o
chThdEnqueueTimeoutS                              /tmp/ccPVnegP.ltrans1.ltrans.o
                                                  /tmp/ccPVnegP.ltrans3.ltrans.o
chThdExit                                         /tmp/ccPVnegP.ltrans4.ltrans.o
                                                  build/obj/chcoreasm_v7m.o
chThdSleep                                        /tmp/ccPVnegP.ltrans3.ltrans.o
                                                  /tmp/ccPVnegP.ltrans2.ltrans.o
                                                  /tmp/ccPVnegP.ltrans0.ltrans.o
chThdSuspendS                                     /tmp/ccPVnegP.ltrans1.ltrans.o
                                                  /tmp/ccPVnegP.ltrans0.ltrans.o
chprintf.11792                                    /tmp/ccPVnegP.ltrans1.ltrans.o
                                                  /tmp/ccPVnegP.ltrans0.ltrans.o
chprintf.12140                                    /tmp/ccPVnegP.ltrans1.ltrans.o
                                                  /tmp/ccPVnegP.ltrans0.ltrans.o
chprintf.12638.constprop.35                       /tmp/ccPVnegP.ltrans1.ltrans.o
                                                  /tmp/ccPVnegP.ltrans0.ltrans.o
dir_next.11119                                    /tmp/ccPVnegP.ltrans2.ltrans.o
                                                  /tmp/ccPVnegP.ltrans0.ltrans.o
dir_sdi.11100.constprop.21                        /tmp/ccPVnegP.ltrans2.ltrans.o
                                                  /tmp/ccPVnegP.ltrans0.ltrans.o
disk_status                                       /tmp/ccPVnegP.ltrans1.ltrans.o
                                                  /tmp/ccPVnegP.ltrans3.ltrans.o
disk_write.constprop.25                           /tmp/ccPVnegP.ltrans3.ltrans.o
                                                  /tmp/ccPVnegP.ltrans0.ltrans.o
dmaStreamAllocate                                 /tmp/ccPVnegP.ltrans1.ltrans.o
                                                  /tmp/ccPVnegP.ltrans0.ltrans.o
dma_isr_redir.9985                                /tmp/ccPVnegP.ltrans0.ltrans.o
                                                  /tmp/ccPVnegP.ltrans1.ltrans.o
dma_streams_mask.9990                             /tmp/ccPVnegP.ltrans0.ltrans.o
                                                  /tmp/ccPVnegP.ltrans1.ltrans.o
dummytx.10473                                     /tmp/ccPVnegP.ltrans0.ltrans.o
                                                  /tmp/ccPVnegP.ltrans1.ltrans.o
endmem.6562                                       /tmp/ccPVnegP.ltrans0.ltrans.o
                                                  /tmp/ccPVnegP.ltrans1.ltrans.o
f_mount                                           /tmp/ccPVnegP.ltrans3.ltrans.o
                                                  /tmp/ccPVnegP.ltrans0.ltrans.o
find_volume.11091                                 /tmp/ccPVnegP.ltrans3.ltrans.o
                                                  /tmp/ccPVnegP.ltrans0.ltrans.o
get.9506                                          /tmp/ccPVnegP.ltrans3.ltrans.o
get_fat.part.6.11096                              /tmp/ccPVnegP.ltrans3.ltrans.o
                                                  /tmp/ccPVnegP.ltrans2.ltrans.o
                                                  /tmp/ccPVnegP.ltrans0.ltrans.o
get_ldnumber.11053                                /tmp/ccPVnegP.ltrans1.ltrans.o
                                                  /tmp/ccPVnegP.ltrans3.ltrans.o
gett.9502                                         /tmp/ccPVnegP.ltrans3.ltrans.o
main                                              /tmp/ccPVnegP.ltrans0.ltrans.o
                                                  /tmp/ccPVnegP.ltrans4.ltrans.o
mmcConnect                                        /tmp/ccPVnegP.ltrans2.ltrans.o
                                                  /tmp/ccPVnegP.ltrans0.ltrans.o
mmcDisconnect                                     /tmp/ccPVnegP.ltrans3.ltrans.o
                                                  /tmp/ccPVnegP.ltrans0.ltrans.o
mmcGetInfo                                        /tmp/ccPVnegP.ltrans1.ltrans.o
                                                  /tmp/ccPVnegP.ltrans0.ltrans.o
mmcSequentialRead                                 /tmp/ccPVnegP.ltrans1.ltrans.o
                                                  /tmp/ccPVnegP.ltrans3.ltrans.o
mmcSequentialWrite                                /tmp/ccPVnegP.ltrans3.ltrans.o
                                                  /tmp/ccPVnegP.ltrans2.ltrans.o
mmcStartSequentialWrite                           /tmp/ccPVnegP.ltrans3.ltrans.o
                                                  /tmp/ccPVnegP.ltrans2.ltrans.o
mmcStopSequentialRead.part.7.9255                 /tmp/ccPVnegP.ltrans1.ltrans.o
                                                  /tmp/ccPVnegP.ltrans3.ltrans.o
mmcSync                                           /tmp/ccPVnegP.ltrans3.ltrans.o
                                                  /tmp/ccPVnegP.ltrans0.ltrans.o
mmc_lld_is_card_inserted                          /tmp/ccPVnegP.ltrans1.ltrans.o
                                                  /tmp/ccPVnegP.ltrans0.ltrans.o
mmc_lld_is_write_protected                        /tmp/ccPVnegP.ltrans1.ltrans.o
                                                  /tmp/ccPVnegP.ltrans3.ltrans.o
                                                  /tmp/ccPVnegP.ltrans0.ltrans.o
mmc_read.9293                                     /tmp/ccPVnegP.ltrans3.ltrans.o
                                                  /tmp/ccPVnegP.ltrans0.ltrans.o
mmc_write.9310                                    /tmp/ccPVnegP.ltrans2.ltrans.o
                                                  /tmp/ccPVnegP.ltrans0.ltrans.o
move_window.11080                                 /tmp/ccPVnegP.ltrans3.ltrans.o
                                                  /tmp/ccPVnegP.ltrans2.ltrans.o
                                                  /tmp/ccPVnegP.ltrans0.ltrans.o
nextmem.6560                                      /tmp/ccPVnegP.ltrans0.ltrans.o
                                                  /tmp/ccPVnegP.ltrans1.ltrans.o
notify1.10680                                     /tmp/ccPVnegP.ltrans1.ltrans.o
                                                  /tmp/ccPVnegP.ltrans0.ltrans.o
notify2.10677                                     /tmp/ccPVnegP.ltrans1.ltrans.o
                                                  /tmp/ccPVnegP.ltrans0.ltrans.o
put.9514                                          /tmp/ccPVnegP.ltrans3.ltrans.o
put_fat.part.8.11110                              /tmp/ccPVnegP.ltrans2.ltrans.o
                                                  /tmp/ccPVnegP.ltrans0.ltrans.o
putt.9509                                         /tmp/ccPVnegP.ltrans3.ltrans.o
read.9486                                         /tmp/ccPVnegP.ltrans3.ltrans.o
read_CxD.9226                                     /tmp/ccPVnegP.ltrans3.ltrans.o
                                                  /tmp/ccPVnegP.ltrans2.ltrans.o
readt.9477                                        /tmp/ccPVnegP.ltrans3.ltrans.o
recvr1.isra.0.9200                                /tmp/ccPVnegP.ltrans1.ltrans.o
                                                  /tmp/ccPVnegP.ltrans3.ltrans.o
sdObjectInit.constprop.4                          /tmp/ccPVnegP.ltrans1.ltrans.o
                                                  /tmp/ccPVnegP.ltrans0.ltrans.o
sd_lld_start                                      /tmp/ccPVnegP.ltrans2.ltrans.o
                                                  /tmp/ccPVnegP.ltrans0.ltrans.o
send_command_R1.9221                              /tmp/ccPVnegP.ltrans3.ltrans.o
                                                  /tmp/ccPVnegP.ltrans2.ltrans.o
send_command_R3.9215                              /tmp/ccPVnegP.ltrans3.ltrans.o
                                                  /tmp/ccPVnegP.ltrans2.ltrans.o
spiIgnore                                         /tmp/ccPVnegP.ltrans1.ltrans.o
                                                  /tmp/ccPVnegP.ltrans3.ltrans.o
                                                  /tmp/ccPVnegP.ltrans2.ltrans.o
spiReceive                                        /tmp/ccPVnegP.ltrans1.ltrans.o
                                                  /tmp/ccPVnegP.ltrans3.ltrans.o
spiSelect                                         /tmp/ccPVnegP.ltrans1.ltrans.o
                                                  /tmp/ccPVnegP.ltrans3.ltrans.o
spiSend                                           /tmp/ccPVnegP.ltrans1.ltrans.o
                                                  /tmp/ccPVnegP.ltrans3.ltrans.o
                                                  /tmp/ccPVnegP.ltrans2.ltrans.o
spiStart                                          /tmp/ccPVnegP.ltrans1.ltrans.o
                                                  /tmp/ccPVnegP.ltrans3.ltrans.o
                                                  /tmp/ccPVnegP.ltrans2.ltrans.o
spiStop                                           /tmp/ccPVnegP.ltrans1.ltrans.o
                                                  /tmp/ccPVnegP.ltrans3.ltrans.o
                                                  /tmp/ccPVnegP.ltrans2.ltrans.o
spiUnselect                                       /tmp/ccPVnegP.ltrans1.ltrans.o
                                                  /tmp/ccPVnegP.ltrans3.ltrans.o
                                                  /tmp/ccPVnegP.ltrans2.ltrans.o
spi_lld_serve_rx_interrupt.10420                  /tmp/ccPVnegP.ltrans2.ltrans.o
                                                  /tmp/ccPVnegP.ltrans1.ltrans.o
spi_lld_serve_tx_interrupt.10416                  /tmp/ccPVnegP.ltrans2.ltrans.o
                                                  /tmp/ccPVnegP.ltrans1.ltrans.o
stop.7350.9336                                    /tmp/ccPVnegP.ltrans2.ltrans.o
                                                  /tmp/ccPVnegP.ltrans3.ltrans.o
sync_window.part.3.11070                          /tmp/ccPVnegP.ltrans3.ltrans.o
                                                  /tmp/ccPVnegP.ltrans2.ltrans.o
                                                  /tmp/ccPVnegP.ltrans0.ltrans.o
validate.11056                                    /tmp/ccPVnegP.ltrans1.ltrans.o
                                                  /tmp/ccPVnegP.ltrans0.ltrans.o
vmt.9595                                          /tmp/ccPVnegP.ltrans3.ltrans.o
                                                  /tmp/ccPVnegP.ltrans1.ltrans.o
write.9497                                        /tmp/ccPVnegP.ltrans3.ltrans.o
writet.9491                                       /tmp/ccPVnegP.ltrans3.ltrans.o
