Archive member included because of file (symbol)

/usr/bin/../lib/gcc/arm-none-eabi/4.8.4/armv7e-m/fpu/libgcc.a(_arm_addsubdf3.o)
                              /tmp/cch6NLmb.ltrans3.ltrans.o (__aeabi_dsub)
/usr/bin/../lib/gcc/arm-none-eabi/4.8.4/armv7e-m/fpu/libgcc.a(_arm_muldivdf3.o)
                              /tmp/cch6NLmb.ltrans3.ltrans.o (__aeabi_dmul)
/usr/bin/../lib/gcc/arm-none-eabi/4.8.4/armv7e-m/fpu/libgcc.a(_arm_fixdfsi.o)
                              /tmp/cch6NLmb.ltrans3.ltrans.o (__aeabi_d2iz)
/usr/bin/../lib/gcc/arm-none-eabi/4.8.4/armv7e-m/fpu/libgcc.a(_arm_truncdfsf2.o)
                              /tmp/cch6NLmb.ltrans3.ltrans.o (__aeabi_d2f)
/usr/bin/../lib/gcc/arm-none-eabi/4.8.4/../../../../arm-none-eabi/lib/armv7e-m/fpu/libc.a(lib_a-memcpy.o)
                              /tmp/cch6NLmb.ltrans3.ltrans.o (memcpy)

Discarded input sections

 .data          0x0000000000000000        0x0 build/obj/chcoreasm_v7m.o
 .bss           0x0000000000000000        0x0 build/obj/chcoreasm_v7m.o
 .text          0x0000000000000000        0x0 build/obj/crt0.o (symbol from plugin)
 .text          0x0000000000000000        0x0 /tmp/cch6NLmb.ltrans0.ltrans.o
 .data          0x0000000000000000        0x0 /tmp/cch6NLmb.ltrans0.ltrans.o
 .bss           0x0000000000000000        0x0 /tmp/cch6NLmb.ltrans0.ltrans.o
 .text          0x0000000000000000        0x0 /tmp/cch6NLmb.ltrans1.ltrans.o
 .data          0x0000000000000000        0x0 /tmp/cch6NLmb.ltrans1.ltrans.o
 .bss           0x0000000000000000        0x0 /tmp/cch6NLmb.ltrans1.ltrans.o
 .text          0x0000000000000000        0x0 /tmp/cch6NLmb.ltrans2.ltrans.o
 .data          0x0000000000000000        0x0 /tmp/cch6NLmb.ltrans2.ltrans.o
 .bss           0x0000000000000000        0x0 /tmp/cch6NLmb.ltrans2.ltrans.o
 .text          0x0000000000000000        0x0 /tmp/cch6NLmb.ltrans3.ltrans.o
 .data          0x0000000000000000        0x0 /tmp/cch6NLmb.ltrans3.ltrans.o
 .bss           0x0000000000000000        0x0 /tmp/cch6NLmb.ltrans3.ltrans.o
 .text          0x0000000000000000        0x0 /tmp/cch6NLmb.ltrans4.ltrans.o
 .data          0x0000000000000000        0x0 /tmp/cch6NLmb.ltrans4.ltrans.o
 .bss           0x0000000000000000        0x0 /tmp/cch6NLmb.ltrans4.ltrans.o
 .text          0x0000000000000000        0x0 /tmp/cch6NLmb.ltrans5.ltrans.o
 .data          0x0000000000000000        0x0 /tmp/cch6NLmb.ltrans5.ltrans.o
 .bss           0x0000000000000000        0x0 /tmp/cch6NLmb.ltrans5.ltrans.o
 .text.unlikely.logfileOpenAppend
                0x0000000000000000      0x15c /tmp/cch6NLmb.ltrans5.ltrans.o
 .text          0x0000000000000000        0x0 /tmp/cch6NLmb.ltrans6.ltrans.o
 .data          0x0000000000000000        0x0 /tmp/cch6NLmb.ltrans6.ltrans.o
 .bss           0x0000000000000000        0x0 /tmp/cch6NLmb.ltrans6.ltrans.o
 .data          0x0000000000000000        0x0 /usr/bin/../lib/gcc/arm-none-eabi/4.8.4/armv7e-m/fpu/libgcc.a(_arm_addsubdf3.o)
 .bss           0x0000000000000000        0x0 /usr/bin/../lib/gcc/arm-none-eabi/4.8.4/armv7e-m/fpu/libgcc.a(_arm_addsubdf3.o)
 .data          0x0000000000000000        0x0 /usr/bin/../lib/gcc/arm-none-eabi/4.8.4/armv7e-m/fpu/libgcc.a(_arm_muldivdf3.o)
 .bss           0x0000000000000000        0x0 /usr/bin/../lib/gcc/arm-none-eabi/4.8.4/armv7e-m/fpu/libgcc.a(_arm_muldivdf3.o)
 .data          0x0000000000000000        0x0 /usr/bin/../lib/gcc/arm-none-eabi/4.8.4/armv7e-m/fpu/libgcc.a(_arm_fixdfsi.o)
 .bss           0x0000000000000000        0x0 /usr/bin/../lib/gcc/arm-none-eabi/4.8.4/armv7e-m/fpu/libgcc.a(_arm_fixdfsi.o)
 .data          0x0000000000000000        0x0 /usr/bin/../lib/gcc/arm-none-eabi/4.8.4/armv7e-m/fpu/libgcc.a(_arm_truncdfsf2.o)
 .bss           0x0000000000000000        0x0 /usr/bin/../lib/gcc/arm-none-eabi/4.8.4/armv7e-m/fpu/libgcc.a(_arm_truncdfsf2.o)
 .data          0x0000000000000000        0x0 /usr/bin/../lib/gcc/arm-none-eabi/4.8.4/../../../../arm-none-eabi/lib/armv7e-m/fpu/libc.a(lib_a-memcpy.o)
 .bss           0x0000000000000000        0x0 /usr/bin/../lib/gcc/arm-none-eabi/4.8.4/../../../../arm-none-eabi/lib/armv7e-m/fpu/libc.a(lib_a-memcpy.o)
 .text          0x0000000000000000        0x0 build/obj/vectors.o (symbol from plugin)
 .text          0x0000000000000000        0x0 build/obj/chcore.o (symbol from plugin)
 .text          0x0000000000000000        0x0 build/obj/chcore_v7m.o (symbol from plugin)
 .text          0x0000000000000000        0x0 build/obj/chsys.o (symbol from plugin)
 .text          0x0000000000000000        0x0 build/obj/chdebug.o (symbol from plugin)
 .text          0x0000000000000000        0x0 build/obj/chtm.o (symbol from plugin)
 .text          0x0000000000000000        0x0 build/obj/chstats.o (symbol from plugin)
 .text          0x0000000000000000        0x0 build/obj/chschd.o (symbol from plugin)
 .text          0x0000000000000000        0x0 build/obj/chvt.o (symbol from plugin)
 .text          0x0000000000000000        0x0 build/obj/chthreads.o (symbol from plugin)
 .text          0x0000000000000000        0x0 build/obj/chdynamic.o (symbol from plugin)
 .text          0x0000000000000000        0x0 build/obj/chregistry.o (symbol from plugin)
 .text          0x0000000000000000        0x0 build/obj/chsem.o (symbol from plugin)
 .text          0x0000000000000000        0x0 build/obj/chmtx.o (symbol from plugin)
 .text          0x0000000000000000        0x0 build/obj/chcond.o (symbol from plugin)
 .text          0x0000000000000000        0x0 build/obj/chevents.o (symbol from plugin)
 .text          0x0000000000000000        0x0 build/obj/chmsg.o (symbol from plugin)
 .text          0x0000000000000000        0x0 build/obj/chmboxes.o (symbol from plugin)
 .text          0x0000000000000000        0x0 build/obj/chqueues.o (symbol from plugin)
 .text          0x0000000000000000        0x0 build/obj/chmemcore.o (symbol from plugin)
 .text          0x0000000000000000        0x0 build/obj/chheap.o (symbol from plugin)
 .text          0x0000000000000000        0x0 build/obj/chmempools.o (symbol from plugin)
 .text          0x0000000000000000        0x0 build/obj/test.o (symbol from plugin)
 .text          0x0000000000000000        0x0 build/obj/testthd.o (symbol from plugin)
 .text          0x0000000000000000        0x0 build/obj/testsem.o (symbol from plugin)
 .text          0x0000000000000000        0x0 build/obj/testmtx.o (symbol from plugin)
 .text          0x0000000000000000        0x0 build/obj/testmsg.o (symbol from plugin)
 .text          0x0000000000000000        0x0 build/obj/testmbox.o (symbol from plugin)
 .text          0x0000000000000000        0x0 build/obj/testevt.o (symbol from plugin)
 .text          0x0000000000000000        0x0 build/obj/testheap.o (symbol from plugin)
 .text          0x0000000000000000        0x0 build/obj/testpools.o (symbol from plugin)
 .text          0x0000000000000000        0x0 build/obj/testdyn.o (symbol from plugin)
 .text          0x0000000000000000        0x0 build/obj/testqueues.o (symbol from plugin)
 .text          0x0000000000000000        0x0 build/obj/testbmk.o (symbol from plugin)
 .text          0x0000000000000000        0x0 build/obj/hal.o (symbol from plugin)
 .text          0x0000000000000000        0x0 build/obj/hal_queues.o (symbol from plugin)
 .text          0x0000000000000000        0x0 build/obj/hal_mmcsd.o (symbol from plugin)
 .text          0x0000000000000000        0x0 build/obj/adc.o (symbol from plugin)
 .text          0x0000000000000000        0x0 build/obj/can.o (symbol from plugin)
 .text          0x0000000000000000        0x0 build/obj/dac.o (symbol from plugin)
 .text          0x0000000000000000        0x0 build/obj/ext.o (symbol from plugin)
 .text          0x0000000000000000        0x0 build/obj/gpt.o (symbol from plugin)
 .text          0x0000000000000000        0x0 build/obj/i2c.o (symbol from plugin)
 .text          0x0000000000000000        0x0 build/obj/i2s.o (symbol from plugin)
 .text          0x0000000000000000        0x0 build/obj/icu.o (symbol from plugin)
 .text          0x0000000000000000        0x0 build/obj/mac.o (symbol from plugin)
 .text          0x0000000000000000        0x0 build/obj/mmc_spi.o (symbol from plugin)
 .text          0x0000000000000000        0x0 build/obj/pal.o (symbol from plugin)
 .text          0x0000000000000000        0x0 build/obj/pwm.o (symbol from plugin)
 .text          0x0000000000000000        0x0 build/obj/rtc.o (symbol from plugin)
 .text          0x0000000000000000        0x0 build/obj/sdc.o (symbol from plugin)
 .text          0x0000000000000000        0x0 build/obj/serial.o (symbol from plugin)
 .text          0x0000000000000000        0x0 build/obj/serial_usb.o (symbol from plugin)
 .text          0x0000000000000000        0x0 build/obj/spi.o (symbol from plugin)
 .text          0x0000000000000000        0x0 build/obj/st.o (symbol from plugin)
 .text          0x0000000000000000        0x0 build/obj/uart.o (symbol from plugin)
 .text          0x0000000000000000        0x0 build/obj/usb.o (symbol from plugin)
 .text          0x0000000000000000        0x0 build/obj/osal.o (symbol from plugin)
 .text          0x0000000000000000        0x0 build/obj/nvic.o (symbol from plugin)
 .text          0x0000000000000000        0x0 build/obj/stm32_dma.o (symbol from plugin)
 .text          0x0000000000000000        0x0 build/obj/hal_lld.o (symbol from plugin)
 .text          0x0000000000000000        0x0 build/obj/adc_lld.o (symbol from plugin)
 .text          0x0000000000000000        0x0 build/obj/ext_lld_isr.o (symbol from plugin)
 .text          0x0000000000000000        0x0 build/obj/can_lld.o (symbol from plugin)
 .text          0x0000000000000000        0x0 build/obj/ext_lld.o (symbol from plugin)
 .text          0x0000000000000000        0x0 build/obj/mac_lld.o (symbol from plugin)
 .text          0x0000000000000000        0x0 build/obj/sdc_lld.o (symbol from plugin)
 .text          0x0000000000000000        0x0 build/obj/dac_lld.o (symbol from plugin)
 .text          0x0000000000000000        0x0 build/obj/pal_lld.o (symbol from plugin)
 .text          0x0000000000000000        0x0 build/obj/i2c_lld.o (symbol from plugin)
 .text          0x0000000000000000        0x0 build/obj/usb_lld.o (symbol from plugin)
 .text          0x0000000000000000        0x0 build/obj/rtc_lld.o (symbol from plugin)
 .text          0x0000000000000000        0x0 build/obj/i2s_lld.o (symbol from plugin)
 .text          0x0000000000000000        0x0 build/obj/spi_lld.o (symbol from plugin)
 .text          0x0000000000000000        0x0 build/obj/gpt_lld.o (symbol from plugin)
 .text          0x0000000000000000        0x0 build/obj/icu_lld.o (symbol from plugin)
 .text          0x0000000000000000        0x0 build/obj/pwm_lld.o (symbol from plugin)
 .text          0x0000000000000000        0x0 build/obj/st_lld.o (symbol from plugin)
 .text          0x0000000000000000        0x0 build/obj/serial_lld.o (symbol from plugin)
 .text          0x0000000000000000        0x0 build/obj/uart_lld.o (symbol from plugin)
 .text          0x0000000000000000        0x0 build/obj/board.o (symbol from plugin)
 .text          0x0000000000000000        0x0 build/obj/fatfs_diskio.o (symbol from plugin)
 .text          0x0000000000000000        0x0 build/obj/fatfs_syscall.o (symbol from plugin)
 .text          0x0000000000000000        0x0 build/obj/ff.o (symbol from plugin)
 .text          0x0000000000000000        0x0 build/obj/unicode.o (symbol from plugin)
 .text          0x0000000000000000        0x0 build/obj/chprintf.o (symbol from plugin)
 .text          0x0000000000000000        0x0 build/obj/memstreams.o (symbol from plugin)
 .text          0x0000000000000000        0x0 build/obj/ustr.o (symbol from plugin)
 .text          0x0000000000000000        0x0 build/obj/gps.o (symbol from plugin)
 .text          0x0000000000000000        0x0 build/obj/sdmmcsimple.o (symbol from plugin)
 .text          0x0000000000000000        0x0 build/obj/datalogger.o (symbol from plugin)
 .text          0x0000000000000000        0x0 build/obj/main.o (symbol from plugin)

Memory Configuration

Name             Origin             Length             Attributes
flash            0x0000000008000000 0x0000000000080000
ram              0x0000000020000000 0x0000000000018000
*default*        0x0000000000000000 0xffffffffffffffff

Linker script and memory map

LOAD build/obj/chcoreasm_v7m.o
LOAD build/obj/crt0.o
LOAD /tmp/cch6NLmb.ltrans0.ltrans.o
LOAD /tmp/cch6NLmb.ltrans1.ltrans.o
LOAD /tmp/cch6NLmb.ltrans2.ltrans.o
LOAD /tmp/cch6NLmb.ltrans3.ltrans.o
LOAD /tmp/cch6NLmb.ltrans4.ltrans.o
LOAD /tmp/cch6NLmb.ltrans5.ltrans.o
LOAD /tmp/cch6NLmb.ltrans6.ltrans.o
LOAD /usr/bin/../lib/gcc/arm-none-eabi/4.8.4/armv7e-m/fpu/libgcc.a
LOAD /usr/bin/../lib/gcc/arm-none-eabi/4.8.4/../../../../arm-none-eabi/lib/armv7e-m/fpu/libc.a
LOAD build/obj/vectors.o
LOAD build/obj/chcore.o
LOAD build/obj/chcore_v7m.o
LOAD build/obj/chsys.o
LOAD build/obj/chdebug.o
LOAD build/obj/chtm.o
LOAD build/obj/chstats.o
LOAD build/obj/chschd.o
LOAD build/obj/chvt.o
LOAD build/obj/chthreads.o
LOAD build/obj/chdynamic.o
LOAD build/obj/chregistry.o
LOAD build/obj/chsem.o
LOAD build/obj/chmtx.o
LOAD build/obj/chcond.o
LOAD build/obj/chevents.o
LOAD build/obj/chmsg.o
LOAD build/obj/chmboxes.o
LOAD build/obj/chqueues.o
LOAD build/obj/chmemcore.o
LOAD build/obj/chheap.o
LOAD build/obj/chmempools.o
LOAD build/obj/test.o
LOAD build/obj/testthd.o
LOAD build/obj/testsem.o
LOAD build/obj/testmtx.o
LOAD build/obj/testmsg.o
LOAD build/obj/testmbox.o
LOAD build/obj/testevt.o
LOAD build/obj/testheap.o
LOAD build/obj/testpools.o
LOAD build/obj/testdyn.o
LOAD build/obj/testqueues.o
LOAD build/obj/testbmk.o
LOAD build/obj/hal.o
LOAD build/obj/hal_queues.o
LOAD build/obj/hal_mmcsd.o
LOAD build/obj/adc.o
LOAD build/obj/can.o
LOAD build/obj/dac.o
LOAD build/obj/ext.o
LOAD build/obj/gpt.o
LOAD build/obj/i2c.o
LOAD build/obj/i2s.o
LOAD build/obj/icu.o
LOAD build/obj/mac.o
LOAD build/obj/mmc_spi.o
LOAD build/obj/pal.o
LOAD build/obj/pwm.o
LOAD build/obj/rtc.o
LOAD build/obj/sdc.o
LOAD build/obj/serial.o
LOAD build/obj/serial_usb.o
LOAD build/obj/spi.o
LOAD build/obj/st.o
LOAD build/obj/uart.o
LOAD build/obj/usb.o
LOAD build/obj/osal.o
LOAD build/obj/nvic.o
LOAD build/obj/stm32_dma.o
LOAD build/obj/hal_lld.o
LOAD build/obj/adc_lld.o
LOAD build/obj/ext_lld_isr.o
LOAD build/obj/can_lld.o
LOAD build/obj/ext_lld.o
LOAD build/obj/mac_lld.o
LOAD build/obj/sdc_lld.o
LOAD build/obj/dac_lld.o
LOAD build/obj/pal_lld.o
LOAD build/obj/i2c_lld.o
LOAD build/obj/usb_lld.o
LOAD build/obj/rtc_lld.o
LOAD build/obj/i2s_lld.o
LOAD build/obj/spi_lld.o
LOAD build/obj/gpt_lld.o
LOAD build/obj/icu_lld.o
LOAD build/obj/pwm_lld.o
LOAD build/obj/st_lld.o
LOAD build/obj/serial_lld.o
LOAD build/obj/uart_lld.o
LOAD build/obj/board.o
LOAD build/obj/fatfs_diskio.o
LOAD build/obj/fatfs_syscall.o
LOAD build/obj/ff.o
LOAD build/obj/unicode.o
LOAD build/obj/chprintf.o
LOAD build/obj/memstreams.o
LOAD build/obj/ustr.o
LOAD build/obj/gps.o
LOAD build/obj/sdmmcsimple.o
LOAD build/obj/datalogger.o
LOAD build/obj/main.o
                0x0000000020000000                __ram_start__ = ORIGIN (ram)
                0x0000000000018000                __ram_size__ = 0x18000
                0x0000000020018000                __ram_end__ = (__ram_start__ + __ram_size__)
                0x0000000000000000                . = 0x0
                0x0000000000000000                _text = .

startup         0x0000000008000000      0x1c0
 *(vectors)
 vectors        0x0000000008000000      0x1c0 /tmp/cch6NLmb.ltrans6.ltrans.o
                0x0000000008000000                _vectors

constructors    0x00000000080001c0        0x0
                0x00000000080001c0                PROVIDE (__init_array_start, .)
 *(SORT(.init_array.*))
 *(.init_array)
                0x00000000080001c0                PROVIDE (__init_array_end, .)

destructors     0x00000000080001c0        0x0
                0x00000000080001c0                PROVIDE (__fini_array_start, .)
 *(.fini_array)
 *(SORT(.fini_array.*))
                0x00000000080001c0                PROVIDE (__fini_array_end, .)

.text           0x00000000080001c0     0x50d8
 *(.text.startup.*)
 .text.startup.main
                0x00000000080001c0      0xc80 /tmp/cch6NLmb.ltrans0.ltrans.o
                0x00000000080001c0                main
 *(.text)
 .text          0x0000000008000e40       0x2e build/obj/chcoreasm_v7m.o
                0x0000000008000e40                _port_switch
                0x0000000008000e58                _port_thread_start
                0x0000000008000e66                _port_switch_from_isr
                0x0000000008000e6a                _port_exit_from_isr
 *fill*         0x0000000008000e6e        0x2 
 .text          0x0000000008000e70      0x370 /usr/bin/../lib/gcc/arm-none-eabi/4.8.4/armv7e-m/fpu/libgcc.a(_arm_addsubdf3.o)
                0x0000000008000e70                __aeabi_drsub
                0x0000000008000e78                __aeabi_dsub
                0x0000000008000e78                __subdf3
                0x0000000008000e7c                __adddf3
                0x0000000008000e7c                __aeabi_dadd
                0x00000000080010f4                __aeabi_ui2d
                0x00000000080010f4                __floatunsidf
                0x0000000008001114                __floatsidf
                0x0000000008001114                __aeabi_i2d
                0x0000000008001138                __extendsfdf2
                0x0000000008001138                __aeabi_f2d
                0x0000000008001174                __aeabi_ul2d
                0x0000000008001174                __floatundidf
                0x0000000008001184                __floatdidf
                0x0000000008001184                __aeabi_l2d
 .text          0x00000000080011e0      0x424 /usr/bin/../lib/gcc/arm-none-eabi/4.8.4/armv7e-m/fpu/libgcc.a(_arm_muldivdf3.o)
                0x00000000080011e0                __aeabi_dmul
                0x00000000080011e0                __muldf3
                0x0000000008001434                __aeabi_ddiv
                0x0000000008001434                __divdf3
 *fill*         0x0000000008001604        0xc 
 .text          0x0000000008001610       0x50 /usr/bin/../lib/gcc/arm-none-eabi/4.8.4/armv7e-m/fpu/libgcc.a(_arm_fixdfsi.o)
                0x0000000008001610                __fixdfsi
                0x0000000008001610                __aeabi_d2iz
 .text          0x0000000008001660       0xa0 /usr/bin/../lib/gcc/arm-none-eabi/4.8.4/armv7e-m/fpu/libgcc.a(_arm_truncdfsf2.o)
                0x0000000008001660                __aeabi_d2f
                0x0000000008001660                __truncdfsf2
 .text          0x0000000008001700      0x134 /usr/bin/../lib/gcc/arm-none-eabi/4.8.4/../../../../arm-none-eabi/lib/armv7e-m/fpu/libc.a(lib_a-memcpy.o)
                0x0000000008001700                memcpy
 *(.text.*)
 *fill*         0x0000000008001834        0xc 
 .text.chIQGetTimeout.4403
                0x0000000008001840       0x50 /tmp/cch6NLmb.ltrans1.ltrans.o
 .text.gett.10003
                0x0000000008001890       0x10 /tmp/cch6NLmb.ltrans1.ltrans.o
                0x0000000008001890                gett.10003
 .text.get.10007
                0x00000000080018a0       0x10 /tmp/cch6NLmb.ltrans1.ltrans.o
                0x00000000080018a0                get.10007
 .text.chIQReadTimeout.4431
                0x00000000080018b0       0x80 /tmp/cch6NLmb.ltrans1.ltrans.o
 .text.readt.9980
                0x0000000008001930       0x10 /tmp/cch6NLmb.ltrans1.ltrans.o
                0x0000000008001930                readt.9980
 .text.read.9987
                0x0000000008001940       0x10 /tmp/cch6NLmb.ltrans1.ltrans.o
                0x0000000008001940                read.9987
 .text.putt.10010
                0x0000000008001950       0x10 /tmp/cch6NLmb.ltrans1.ltrans.o
                0x0000000008001950                putt.10010
 .text.put.10015
                0x0000000008001960       0x10 /tmp/cch6NLmb.ltrans1.ltrans.o
                0x0000000008001960                put.10015
 .text.chThdSleep
                0x0000000008001970       0x20 /tmp/cch6NLmb.ltrans1.ltrans.o
                0x0000000008001970                chThdSleep
 .text.wait.isra.1.9682.4372
                0x0000000008001990       0x50 /tmp/cch6NLmb.ltrans1.ltrans.o
 .text.mmcSequentialWrite
                0x00000000080019e0       0x80 /tmp/cch6NLmb.ltrans1.ltrans.o
                0x00000000080019e0                mmcSequentialWrite
 .text.send_hdr.9685.4367
                0x0000000008001a60       0x70 /tmp/cch6NLmb.ltrans1.ltrans.o
 .text.mmcStartSequentialWrite
                0x0000000008001ad0       0x60 /tmp/cch6NLmb.ltrans1.ltrans.o
                0x0000000008001ad0                mmcStartSequentialWrite
 .text.disk_write
                0x0000000008001b30       0x80 /tmp/cch6NLmb.ltrans1.ltrans.o
                0x0000000008001b30                disk_write
 .text.sync_window.part.3.12312
                0x0000000008001bb0       0x60 /tmp/cch6NLmb.ltrans1.ltrans.o
                0x0000000008001bb0                sync_window.part.3.12312
 .text.mmcStartSequentialRead.4340
                0x0000000008001c10       0x60 /tmp/cch6NLmb.ltrans1.ltrans.o
 .text.disk_read.constprop.40
                0x0000000008001c70       0x50 /tmp/cch6NLmb.ltrans1.ltrans.o
                0x0000000008001c70                disk_read.constprop.40
 .text.move_window.12322
                0x0000000008001cc0       0x40 /tmp/cch6NLmb.ltrans1.ltrans.o
                0x0000000008001cc0                move_window.12322
 .text.get_fat.part.6.12338
                0x0000000008001d00       0xd0 /tmp/cch6NLmb.ltrans1.ltrans.o
                0x0000000008001d00                get_fat.part.6.12338
 .text.dir_sdi.12342.constprop.38
                0x0000000008001dd0       0x80 /tmp/cch6NLmb.ltrans1.ltrans.o
                0x0000000008001dd0                dir_sdi.12342.constprop.38
 .text.check_fs.12329.4269
                0x0000000008001e50       0x90 /tmp/cch6NLmb.ltrans1.ltrans.o
 .text.find_volume.12333
                0x0000000008001ee0      0x320 /tmp/cch6NLmb.ltrans1.ltrans.o
                0x0000000008001ee0                find_volume.12333
 .text.f_mount  0x0000000008002200       0x60 /tmp/cch6NLmb.ltrans1.ltrans.o
                0x0000000008002200                f_mount
 .text.mmc_read.9768
                0x0000000008002260       0x40 /tmp/cch6NLmb.ltrans1.ltrans.o
                0x0000000008002260                mmc_read.9768
 .text.read_CxD.9701
                0x00000000080022a0       0xb0 /tmp/cch6NLmb.ltrans1.ltrans.o
                0x00000000080022a0                read_CxD.9701
 .text.send_command_R1.9696
                0x0000000008002350       0x30 /tmp/cch6NLmb.ltrans1.ltrans.o
                0x0000000008002350                send_command_R1.9696
 .text.send_command_R3.9690
                0x0000000008002380       0x40 /tmp/cch6NLmb.ltrans1.ltrans.o
                0x0000000008002380                send_command_R3.9690
 .text.sync.isra.2.9709.4387
                0x00000000080023c0       0x40 /tmp/cch6NLmb.ltrans1.ltrans.o
 .text.mmcSync  0x0000000008002400       0x30 /tmp/cch6NLmb.ltrans1.ltrans.o
                0x0000000008002400                mmcSync
 .text.mmcDisconnect
                0x0000000008002430       0x50 /tmp/cch6NLmb.ltrans1.ltrans.o
                0x0000000008002430                mmcDisconnect
 .text.put_fat.part.8.12352.4145
                0x0000000008002480      0x100 /tmp/cch6NLmb.ltrans2.ltrans.o
 .text.f_close  0x0000000008002580      0x170 /tmp/cch6NLmb.ltrans2.ltrans.o
                0x0000000008002580                f_close
 .text.create_chain.12357
                0x00000000080026f0       0xd0 /tmp/cch6NLmb.ltrans2.ltrans.o
                0x00000000080026f0                create_chain.12357
 .text.dir_next.12361.4100
                0x00000000080027c0      0x140 /tmp/cch6NLmb.ltrans2.ltrans.o
 .text.f_open   0x0000000008002900      0x470 /tmp/cch6NLmb.ltrans2.ltrans.o
                0x0000000008002900                f_open
 .text.f_write  0x0000000008002d70      0x1d0 /tmp/cch6NLmb.ltrans2.ltrans.o
                0x0000000008002d70                f_write
 .text.mmc_lld_is_write_protected
                0x0000000008002f40       0x10 /tmp/cch6NLmb.ltrans3.ltrans.o
                0x0000000008002f40                mmc_lld_is_write_protected
 .text.get.12632.4530
                0x0000000008002f50       0x20 /tmp/cch6NLmb.ltrans3.ltrans.o
 .text.put.12622.4533
                0x0000000008002f70       0x20 /tmp/cch6NLmb.ltrans3.ltrans.o
 .text.long_to_string_with_divisor.12556.4550
                0x0000000008002f90       0x50 /tmp/cch6NLmb.ltrans3.ltrans.o
 .text.chvprintf.4537
                0x0000000008002fe0      0x3a0 /tmp/cch6NLmb.ltrans3.ltrans.o
 .text.mmc_lld_is_card_inserted
                0x0000000008003380       0x10 /tmp/cch6NLmb.ltrans3.ltrans.o
                0x0000000008003380                mmc_lld_is_card_inserted
 .text.notify2.11528
                0x0000000008003390       0x10 /tmp/cch6NLmb.ltrans3.ltrans.o
                0x0000000008003390                notify2.11528
 .text.VectorB0
                0x00000000080033a0       0x90 /tmp/cch6NLmb.ltrans3.ltrans.o
                0x00000000080033a0                VectorB0
 .text.VectorD4
                0x0000000008003430       0x70 /tmp/cch6NLmb.ltrans3.ltrans.o
                0x0000000008003430                VectorD4
 .text.spi_lld_serve_rx_interrupt.11222
                0x00000000080034a0       0x90 /tmp/cch6NLmb.ltrans3.ltrans.o
                0x00000000080034a0                spi_lld_serve_rx_interrupt.11222
 .text.writes.12641.4520
                0x0000000008003530       0x30 /tmp/cch6NLmb.ltrans3.ltrans.o
 .text.reads.12635.4525
                0x0000000008003560       0x30 /tmp/cch6NLmb.ltrans3.ltrans.o
 .text.chSchGoSleepTimeoutS
                0x0000000008003590       0xe0 /tmp/cch6NLmb.ltrans3.ltrans.o
                0x0000000008003590                chSchGoSleepTimeoutS
 .text.chThdEnqueueTimeoutS
                0x0000000008003670       0x30 /tmp/cch6NLmb.ltrans3.ltrans.o
                0x0000000008003670                chThdEnqueueTimeoutS
 .text.chOQPutTimeout
                0x00000000080036a0       0x50 /tmp/cch6NLmb.ltrans3.ltrans.o
                0x00000000080036a0                chOQPutTimeout
 .text.chOQWriteTimeout.4235
                0x00000000080036f0       0x80 /tmp/cch6NLmb.ltrans3.ltrans.o
 .text.writet.9992
                0x0000000008003770       0x10 /tmp/cch6NLmb.ltrans3.ltrans.o
                0x0000000008003770                writet.9992
 .text.write.9998
                0x0000000008003780       0x10 /tmp/cch6NLmb.ltrans3.ltrans.o
                0x0000000008003780                write.9998
 .text.disk_status
                0x0000000008003790       0x20 /tmp/cch6NLmb.ltrans3.ltrans.o
                0x0000000008003790                disk_status
 .text.validate.12298
                0x00000000080037b0       0x30 /tmp/cch6NLmb.ltrans3.ltrans.o
                0x00000000080037b0                validate.12298
 .text.spiSend  0x00000000080037e0       0x50 /tmp/cch6NLmb.ltrans3.ltrans.o
                0x00000000080037e0                spiSend
 .text.spiReceive
                0x0000000008003830       0x50 /tmp/cch6NLmb.ltrans3.ltrans.o
                0x0000000008003830                spiReceive
 .text.recvr1.isra.0.9675
                0x0000000008003880       0x30 /tmp/cch6NLmb.ltrans3.ltrans.o
                0x0000000008003880                recvr1.isra.0.9675
 .text.spiIgnore
                0x00000000080038b0       0x60 /tmp/cch6NLmb.ltrans3.ltrans.o
                0x00000000080038b0                spiIgnore
 .text.chsnprintf
                0x0000000008003910       0x60 /tmp/cch6NLmb.ltrans3.ltrans.o
                0x0000000008003910                chsnprintf
 .text.chprintf.14065.constprop.30
                0x0000000008003970       0x30 /tmp/cch6NLmb.ltrans3.ltrans.o
                0x0000000008003970                chprintf.14065.constprop.30
 .text.chTMStartMeasurementX.constprop.11
                0x00000000080039a0       0x10 /tmp/cch6NLmb.ltrans3.ltrans.o
                0x00000000080039a0                chTMStartMeasurementX.constprop.11
 .text.chprintf.13526
                0x00000000080039b0       0x20 /tmp/cch6NLmb.ltrans3.ltrans.o
                0x00000000080039b0                chprintf.13526
 .text.chprintf.13166
                0x00000000080039d0       0x20 /tmp/cch6NLmb.ltrans3.ltrans.o
                0x00000000080039d0                chprintf.13166
 .text.uStrCpy  0x00000000080039f0       0x30 /tmp/cch6NLmb.ltrans3.ltrans.o
                0x00000000080039f0                uStrCpy
 .text.get_ldnumber.12295
                0x0000000008003a20       0x50 /tmp/cch6NLmb.ltrans3.ltrans.o
                0x0000000008003a20                get_ldnumber.12295
 .text.spiUnselect
                0x0000000008003a70       0x20 /tmp/cch6NLmb.ltrans3.ltrans.o
                0x0000000008003a70                spiUnselect
 .text.mmcStopSequentialRead.part.7.9730
                0x0000000008003a90       0x30 /tmp/cch6NLmb.ltrans3.ltrans.o
                0x0000000008003a90                mmcStopSequentialRead.part.7.9730
 .text.spiSelect
                0x0000000008003ac0       0x20 /tmp/cch6NLmb.ltrans3.ltrans.o
                0x0000000008003ac0                spiSelect
 .text.spiStop  0x0000000008003ae0       0x50 /tmp/cch6NLmb.ltrans3.ltrans.o
                0x0000000008003ae0                spiStop
 .text.mmcSequentialRead
                0x0000000008003b30       0x60 /tmp/cch6NLmb.ltrans3.ltrans.o
                0x0000000008003b30                mmcSequentialRead
 .text.adc_lld_stop_conversion.4262
                0x0000000008003b90       0x40 /tmp/cch6NLmb.ltrans4.ltrans.o
 .text.mmcGetInfo
                0x0000000008003bd0       0x20 /tmp/cch6NLmb.ltrans4.ltrans.o
                0x0000000008003bd0                mmcGetInfo
 .text.chCoreAlloc
                0x0000000008003bf0       0x40 /tmp/cch6NLmb.ltrans4.ltrans.o
                0x0000000008003bf0                chCoreAlloc
 .text.wakeup.4718
                0x0000000008003c30       0x70 /tmp/cch6NLmb.ltrans4.ltrans.o
                0x0000000008003c30                wakeup.4718
 .text._idle_thread.4338
                0x0000000008003ca0       0x20 /tmp/cch6NLmb.ltrans4.ltrans.o
                0x0000000008003ca0                _idle_thread.4338
 .text.SVC_Handler
                0x0000000008003cc0       0x20 /tmp/cch6NLmb.ltrans4.ltrans.o
                0x0000000008003cc0                SVC_Handler
 .text._pal_lld_setgroupmode
                0x0000000008003ce0       0xd0 /tmp/cch6NLmb.ltrans4.ltrans.o
                0x0000000008003ce0                _pal_lld_setgroupmode
 .text.dmaStreamRelease
                0x0000000008003db0       0x70 /tmp/cch6NLmb.ltrans4.ltrans.o
                0x0000000008003db0                dmaStreamRelease
 .text.dmaStreamAllocate
                0x0000000008003e20       0xc0 /tmp/cch6NLmb.ltrans4.ltrans.o
                0x0000000008003e20                dmaStreamAllocate
 .text.spiStart
                0x0000000008003ee0       0xb0 /tmp/cch6NLmb.ltrans4.ltrans.o
                0x0000000008003ee0                spiStart
 .text.chSchGoSleepS
                0x0000000008003f90       0x30 /tmp/cch6NLmb.ltrans4.ltrans.o
                0x0000000008003f90                chSchGoSleepS
 .text.chThdSuspendS
                0x0000000008003fc0       0x30 /tmp/cch6NLmb.ltrans4.ltrans.o
                0x0000000008003fc0                chThdSuspendS
 .text._port_irq_epilogue
                0x0000000008003ff0       0x70 /tmp/cch6NLmb.ltrans4.ltrans.o
                0x0000000008003ff0                _port_irq_epilogue
 .text.Vector158
                0x0000000008004060       0x30 /tmp/cch6NLmb.ltrans4.ltrans.o
                0x0000000008004060                Vector158
 .text.Vector154
                0x0000000008004090       0x30 /tmp/cch6NLmb.ltrans4.ltrans.o
                0x0000000008004090                Vector154
 .text.Vector150
                0x00000000080040c0       0x30 /tmp/cch6NLmb.ltrans4.ltrans.o
                0x00000000080040c0                Vector150
 .text.Vector130
                0x00000000080040f0       0x30 /tmp/cch6NLmb.ltrans4.ltrans.o
                0x00000000080040f0                Vector130
 .text.Vector12C
                0x0000000008004120       0x30 /tmp/cch6NLmb.ltrans4.ltrans.o
                0x0000000008004120                Vector12C
 .text.Vector128
                0x0000000008004150       0x30 /tmp/cch6NLmb.ltrans4.ltrans.o
                0x0000000008004150                Vector128
 .text.Vector124
                0x0000000008004180       0x30 /tmp/cch6NLmb.ltrans4.ltrans.o
                0x0000000008004180                Vector124
 .text.Vector120
                0x00000000080041b0       0x30 /tmp/cch6NLmb.ltrans4.ltrans.o
                0x00000000080041b0                Vector120
 .text.VectorFC
                0x00000000080041e0       0x30 /tmp/cch6NLmb.ltrans4.ltrans.o
                0x00000000080041e0                VectorFC
 .text.Vector84
                0x0000000008004210       0x30 /tmp/cch6NLmb.ltrans4.ltrans.o
                0x0000000008004210                Vector84
 .text.Vector80
                0x0000000008004240       0x30 /tmp/cch6NLmb.ltrans4.ltrans.o
                0x0000000008004240                Vector80
 .text.Vector7C
                0x0000000008004270       0x30 /tmp/cch6NLmb.ltrans4.ltrans.o
                0x0000000008004270                Vector7C
 .text.Vector78
                0x00000000080042a0       0x30 /tmp/cch6NLmb.ltrans4.ltrans.o
                0x00000000080042a0                Vector78
 .text.Vector74
                0x00000000080042d0       0x30 /tmp/cch6NLmb.ltrans4.ltrans.o
                0x00000000080042d0                Vector74
 .text.Vector70
                0x0000000008004300       0x30 /tmp/cch6NLmb.ltrans4.ltrans.o
                0x0000000008004300                Vector70
 .text.Vector6C
                0x0000000008004330       0x30 /tmp/cch6NLmb.ltrans4.ltrans.o
                0x0000000008004330                Vector6C
 .text.chSchReadyI
                0x0000000008004360       0x30 /tmp/cch6NLmb.ltrans4.ltrans.o
                0x0000000008004360                chSchReadyI
 .text.chEvtBroadcastFlagsI
                0x0000000008004390       0x60 /tmp/cch6NLmb.ltrans4.ltrans.o
                0x0000000008004390                chEvtBroadcastFlagsI
 .text.chThdResumeI
                0x00000000080043f0       0x20 /tmp/cch6NLmb.ltrans4.ltrans.o
                0x00000000080043f0                chThdResumeI
 .text.Vector88
                0x0000000008004410       0x70 /tmp/cch6NLmb.ltrans4.ltrans.o
                0x0000000008004410                Vector88
 .text.adc_lld_serve_rx_interrupt.10898
                0x0000000008004480       0xd0 /tmp/cch6NLmb.ltrans4.ltrans.o
                0x0000000008004480                adc_lld_serve_rx_interrupt.10898
 .text.chTMStopMeasurementX
                0x0000000008004550       0x50 /tmp/cch6NLmb.ltrans4.ltrans.o
                0x0000000008004550                chTMStopMeasurementX
 .text._unhandled_exception.4428
                0x00000000080045a0       0x10 /tmp/cch6NLmb.ltrans4.ltrans.o
                0x00000000080045a0                Vector58
                0x00000000080045a0                VectorE8
                0x00000000080045a0                Vector9C
                0x00000000080045a0                VectorAC
                0x00000000080045a0                DebugMon_Handler
                0x00000000080045a0                Vector1A0
                0x00000000080045a0                Vector5C
                0x00000000080045a0                Vector11C
                0x00000000080045a0                HardFault_Handler
                0x00000000080045a0                Vector1B8
                0x00000000080045a0                Vector19C
                0x00000000080045a0                Vector8C
                0x00000000080045a0                SysTick_Handler
                0x00000000080045a0                VectorDC
                0x00000000080045a0                PendSV_Handler
                0x00000000080045a0                Vector168
                0x00000000080045a0                NMI_Handler
                0x00000000080045a0                Vector110
                0x00000000080045a0                VectorC8
                0x00000000080045a0                Vector94
                0x00000000080045a0                VectorA8
                0x00000000080045a0                VectorB4
                0x00000000080045a0                Vector160
                0x00000000080045a0                Vector1B0
                0x00000000080045a0                UsageFault_Handler
                0x00000000080045a0                VectorEC
                0x00000000080045a0                Vector40
                0x00000000080045a0                VectorF8
                0x00000000080045a0                Vector108
                0x00000000080045a0                VectorBC
                0x00000000080045a0                Vector190
                0x00000000080045a0                Vector148
                0x00000000080045a0                Vector188
                0x00000000080045a0                Vector198
                0x00000000080045a0                Vector118
                0x00000000080045a0                Vector64
                0x00000000080045a0                VectorCC
                0x00000000080045a0                Vector54
                0x00000000080045a0                Vector98
                0x00000000080045a0                Vector138
                0x00000000080045a0                Vector24
                0x00000000080045a0                Vector1AC
                0x00000000080045a0                Vector178
                0x00000000080045a0                Vector1A4
                0x00000000080045a0                VectorD0
                0x00000000080045a0                Vector1B4
                0x00000000080045a0                Vector140
                0x00000000080045a0                VectorE4
                0x00000000080045a0                VectorC0
                0x00000000080045a0                Vector134
                0x00000000080045a0                VectorF0
                0x00000000080045a0                Vector13C
                0x00000000080045a0                Vector100
                0x00000000080045a0                VectorE0
                0x00000000080045a0                VectorF4
                0x00000000080045a0                MemManage_Handler
                0x00000000080045a0                VectorA0
                0x00000000080045a0                VectorC4
                0x00000000080045a0                Vector180
                0x00000000080045a0                Vector90
                0x00000000080045a0                Vector114
                0x00000000080045a0                Vector164
                0x00000000080045a0                Vector60
                0x00000000080045a0                Vector1C
                0x00000000080045a0                Vector1BC
                0x00000000080045a0                Vector17C
                0x00000000080045a0                Vector48
                0x00000000080045a0                Vector1A8
                0x00000000080045a0                Vector16C
                0x00000000080045a0                Vector4C
                0x00000000080045a0                Vector144
                0x00000000080045a0                Vector15C
                0x00000000080045a0                Vector68
                0x00000000080045a0                Vector170
                0x00000000080045a0                Vector104
                0x00000000080045a0                Vector184
                0x00000000080045a0                Vector10C
                0x00000000080045a0                Vector14C
                0x00000000080045a0                BusFault_Handler
                0x00000000080045a0                Vector50
                0x00000000080045a0                Vector194
                0x00000000080045a0                Vector44
                0x00000000080045a0                Vector28
                0x00000000080045a0                VectorB8
                0x00000000080045a0                Vector34
                0x00000000080045a0                VectorA4
                0x00000000080045a0                Vector20
                0x00000000080045a0                Vector18C
                0x00000000080045a0                Vector174
 .text.spi_lld_serve_tx_interrupt.11218
                0x00000000080045b0       0x20 /tmp/cch6NLmb.ltrans5.ltrans.o
                0x00000000080045b0                spi_lld_serve_tx_interrupt.11218
 .text.mmc_write.9785
                0x00000000080045d0       0x60 /tmp/cch6NLmb.ltrans5.ltrans.o
                0x00000000080045d0                mmc_write.9785
 .text.VectorD8
                0x0000000008004630      0x1a0 /tmp/cch6NLmb.ltrans5.ltrans.o
                0x0000000008004630                VectorD8
 .text.mmcConnect
                0x00000000080047d0      0x170 /tmp/cch6NLmb.ltrans5.ltrans.o
                0x00000000080047d0                mmcConnect
 .text.openNewLogfile.part.0.14077
                0x0000000008004940       0xa0 /tmp/cch6NLmb.ltrans5.ltrans.o
                0x0000000008004940                openNewLogfile.part.0.14077
 .text.writeMSHeader
                0x00000000080049e0       0x40 /tmp/cch6NLmb.ltrans5.ltrans.o
                0x00000000080049e0                writeMSHeader
 .text.Reset_Handler
                0x0000000008004a20      0x1b0 /tmp/cch6NLmb.ltrans6.ltrans.o
                0x0000000008004a20                Reset_Handler
 .text.chThdExit
                0x0000000008004bd0       0x50 /tmp/cch6NLmb.ltrans6.ltrans.o
                0x0000000008004bd0                chThdExit
 .text.chSchDoReschedule
                0x0000000008004c20       0x40 /tmp/cch6NLmb.ltrans6.ltrans.o
                0x0000000008004c20                chSchDoReschedule
 *(.rodata)
 *(.rodata.*)
 .rodata._stm32_dma_streams
                0x0000000008004c60       0xc0 /tmp/cch6NLmb.ltrans0.ltrans.o
 .rodata.analogGrp.14180.4911
                0x0000000008004d20       0x28 /tmp/cch6NLmb.ltrans0.ltrans.o
 *fill*         0x0000000008004d48        0x8 
 .rodata.ch_debug
                0x0000000008004d50       0x18 /tmp/cch6NLmb.ltrans0.ltrans.o
 *fill*         0x0000000008004d68        0x8 
 .rodata.str1.4
                0x0000000008004d70      0x1ef /tmp/cch6NLmb.ltrans0.ltrans.o
                                        0x1f8 (size before relaxing)
 *fill*         0x0000000008004f5f        0x1 
 .rodata.vmt.10091.5039
                0x0000000008004f60       0x20 /tmp/cch6NLmb.ltrans0.ltrans.o
 .rodata.mmc_vmt.9814.4941
                0x0000000008004f80       0x20 /tmp/cch6NLmb.ltrans0.ltrans.o
 .rodata.crc7_lookup_table.9813.4510
                0x0000000008004fa0      0x100 /tmp/cch6NLmb.ltrans1.ltrans.o
 .rodata.start.7634.9812.4509
                0x00000000080050a0        0x4 /tmp/cch6NLmb.ltrans1.ltrans.o
 *fill*         0x00000000080050a4        0xc 
 .rodata.ExCvt.12508.4187
                0x00000000080050b0       0x80 /tmp/cch6NLmb.ltrans2.ltrans.o
 .rodata.str1.4
                0x0000000008005130        0xf /tmp/cch6NLmb.ltrans2.ltrans.o
                                         0x10 (size before relaxing)
 *fill*         0x000000000800513f        0x1 
 .rodata.stopcmd.7623.9810.4634
                0x0000000008005140        0x8 /tmp/cch6NLmb.ltrans3.ltrans.o
 *fill*         0x0000000008005148        0x8 
 .rodata.vmt.12665.4640
                0x0000000008005150       0x10 /tmp/cch6NLmb.ltrans3.ltrans.o
 .rodata.pow10.12607.4641
                0x0000000008005160       0x24 /tmp/cch6NLmb.ltrans3.ltrans.o
 *fill*         0x0000000008005184        0xc 
 .rodata.str1.4
                0x0000000008005190       0x14 /tmp/cch6NLmb.ltrans3.ltrans.o
 *fill*         0x00000000080051a4        0xc 
 .rodata.str1.4
                0x00000000080051b0        0x5 /tmp/cch6NLmb.ltrans4.ltrans.o
                                          0x8 (size before relaxing)
 *fill*         0x00000000080051b5        0xb 
 .rodata.stop.7640.9811
                0x00000000080051c0        0x4 /tmp/cch6NLmb.ltrans5.ltrans.o
                0x00000000080051c0                stop.7640.9811
 *fill*         0x00000000080051c4        0xc 
 .rodata.str1.4
                0x00000000080051d0       0xc8 /tmp/cch6NLmb.ltrans5.ltrans.o
                                         0xd4 (size before relaxing)
 *(.glue_7t)
 .glue_7t       0x0000000000000000        0x0 linker stubs
 *(.glue_7)
 .glue_7        0x0000000000000000        0x0 linker stubs
 *(.gcc*)

.vfp11_veneer   0x0000000008005298        0x0
 .vfp11_veneer  0x0000000000000000        0x0 linker stubs

.v4_bx          0x0000000008005298        0x0
 .v4_bx         0x0000000000000000        0x0 linker stubs

.iplt           0x0000000008005298        0x0
 .iplt          0x0000000000000000        0x0 build/obj/chcoreasm_v7m.o

.rel.dyn        0x0000000008005298        0x0
 .rel.iplt      0x0000000000000000        0x0 build/obj/chcoreasm_v7m.o

.ARM.extab
 *(.ARM.extab* .gnu.linkonce.armextab.*)

.ARM.exidx      0x0000000008005298        0x0
                0x0000000008005298                PROVIDE (__exidx_start, .)
 *(.ARM.exidx* .gnu.linkonce.armexidx.*)
                0x0000000008005298                PROVIDE (__exidx_end, .)

.eh_frame_hdr
 *(.eh_frame_hdr)

.eh_frame
 *(.eh_frame)

.textalign      0x0000000008005298        0x0
                0x0000000008005298                . = ALIGN (0x8)
                0x0000000008005298                . = ALIGN (0x4)
                0x0000000008005298                _etext = .
                0x0000000008005298                _textdata = _etext

.stacks         0x0000000020000000      0x800
                0x0000000020000000                . = ALIGN (0x8)
                0x0000000020000000                __main_stack_base__ = .
                0x0000000020000400                . = (. + __main_stack_size__)
 *fill*         0x0000000020000000      0x400 
                0x0000000020000400                . = ALIGN (0x8)
                0x0000000020000400                __main_stack_end__ = .
                0x0000000020000400                __process_stack_base__ = .
                0x0000000020000400                __main_thread_stack_base__ = .
                0x0000000020000800                . = (. + __process_stack_size__)
 *fill*         0x0000000020000400      0x400 
                0x0000000020000800                . = ALIGN (0x8)
                0x0000000020000800                __process_stack_end__ = .
                0x0000000020000800                __main_thread_stack_end__ = .

.data           0x0000000020000800       0x30 load address 0x0000000008005298
                0x0000000020000800                . = ALIGN (0x4)
                0x0000000020000800                PROVIDE (_data, .)
 *(.data)
 *(.data.*)
 .data.serCfg.14177.4921
                0x0000000020000800        0xc /tmp/cch6NLmb.ltrans0.ltrans.o
 .data.lsCfg.13305.4919
                0x000000002000080c        0xc /tmp/cch6NLmb.ltrans0.ltrans.o
 .data.mmcCfg.13303.4917
                0x0000000020000818        0xc /tmp/cch6NLmb.ltrans0.ltrans.o
 .data.hsCfg.13306.4920
                0x0000000020000824        0xc /tmp/cch6NLmb.ltrans0.ltrans.o
 *(.ramtext)
                0x0000000020000830                . = ALIGN (0x4)
                0x0000000020000830                PROVIDE (_edata, .)

.igot.plt       0x0000000020000830        0x0 load address 0x00000000080052c8
 .igot.plt      0x0000000000000000        0x0 build/obj/chcoreasm_v7m.o

.bss            0x0000000020000830      0xe50
                0x0000000020000830                . = ALIGN (0x4)
                0x0000000020000830                PROVIDE (_bss_start, .)
 *(.bss)
 *(.bss.*)
 .bss.analogSamples.14181.4912
                0x0000000020000830       0x10 /tmp/cch6NLmb.ltrans0.ltrans.o
 .bss.nextmem.6820
                0x0000000020000840        0x4 /tmp/cch6NLmb.ltrans0.ltrans.o
                0x0000000020000840                nextmem.6820
 .bss.SD.13308.4906
                0x0000000020000844        0x4 /tmp/cch6NLmb.ltrans0.ltrans.o
 .bss.SPID1     0x0000000020000848       0x30 /tmp/cch6NLmb.ltrans0.ltrans.o
                0x0000000020000848                SPID1
 .bss.DEBUG.13682
                0x0000000020000878        0x4 /tmp/cch6NLmb.ltrans0.ltrans.o
                0x0000000020000878                DEBUG.13682
 .bss.SD2       0x000000002000087c      0x458 /tmp/cch6NLmb.ltrans0.ltrans.o
                0x000000002000087c                SD2
 .bss.masterSample.14179.4908
                0x0000000020000cd4       0x84 /tmp/cch6NLmb.ltrans0.ltrans.o
 .bss.serialPort.13307.4905
                0x0000000020000d58        0x4 /tmp/cch6NLmb.ltrans0.ltrans.o
 .bss.endmem.6822
                0x0000000020000d5c        0x4 /tmp/cch6NLmb.ltrans0.ltrans.o
                0x0000000020000d5c                endmem.6822
 .bss.dma_isr_redir.10640
                0x0000000020000d60       0x80 /tmp/cch6NLmb.ltrans0.ltrans.o
                0x0000000020000d60                dma_isr_redir.10640
 .bss.dummytx.11275
                0x0000000020000de0        0x2 /tmp/cch6NLmb.ltrans0.ltrans.o
                0x0000000020000de0                dummytx.11275
 *fill*         0x0000000020000de2        0x2 
 .bss.dma_streams_mask.10645
                0x0000000020000de4        0x4 /tmp/cch6NLmb.ltrans0.ltrans.o
                0x0000000020000de4                dma_streams_mask.10645
 .bss.dataPrintBuf.14178.4939
                0x0000000020000de8      0x180 /tmp/cch6NLmb.ltrans0.ltrans.o
 .bss._idle_thread_wa.4385.4922
                0x0000000020000f68      0x160 /tmp/cch6NLmb.ltrans0.ltrans.o
 .bss.sensorLog.14170
                0x00000000200010c8       0x18 /tmp/cch6NLmb.ltrans0.ltrans.o
                0x00000000200010c8                sensorLog.14170
 .bss.ADCD1     0x00000000200010e0       0x34 /tmp/cch6NLmb.ltrans0.ltrans.o
                0x00000000200010e0                ADCD1
 .bss.mainthread.6318.4386.4923
                0x0000000020001114       0x44 /tmp/cch6NLmb.ltrans0.ltrans.o
 .bss.sd.14175.4914
                0x0000000020001158       0x10 /tmp/cch6NLmb.ltrans0.ltrans.o
 .bss.FS.13302.4940
                0x0000000020001168      0x230 /tmp/cch6NLmb.ltrans0.ltrans.o
 .bss.MMCD1     0x0000000020001398       0x34 /tmp/cch6NLmb.ltrans0.ltrans.o
                0x0000000020001398                MMCD1
 .bss.logger.14171
                0x00000000200013cc       0x10 /tmp/cch6NLmb.ltrans0.ltrans.o
                0x00000000200013cc                logger.14171
 *fill*         0x00000000200013dc        0x4 
 .bss.default_heap.6947.5018
                0x00000000200013e0       0x20 /tmp/cch6NLmb.ltrans0.ltrans.o
 .bss.UARTD1    0x0000000020001400       0x1c /tmp/cch6NLmb.ltrans0.ltrans.o
                0x0000000020001400                UARTD1
 .bss.Fsid.12510.4505
                0x000000002000141c        0x2 /tmp/cch6NLmb.ltrans1.ltrans.o
 *fill*         0x000000002000141e        0x2 
 .bss.FatFs.12509.4504
                0x0000000020001420        0x4 /tmp/cch6NLmb.ltrans1.ltrans.o
 .bss.dummyrx.11277.4638
                0x0000000020001424        0x2 /tmp/cch6NLmb.ltrans3.ltrans.o
 *fill*         0x0000000020001426        0x2 
 .bss.lFile.4549
                0x0000000020001428      0x224 /tmp/cch6NLmb.ltrans5.ltrans.o
 .bss.ch        0x000000002000164c       0x34 /tmp/cch6NLmb.ltrans6.ltrans.o
                0x000000002000164c                ch
 *(COMMON)
                0x0000000020001680                . = ALIGN (0x4)
                0x0000000020001680                PROVIDE (_bss_end, .)
                0x0000000020001680                PROVIDE (end, .)
                0x0000000020001680                _end = .
                0x0000000020001680                __heap_base__ = _end
                0x0000000020018000                __heap_end__ = __ram_end__
                0x0000000000000400                __process_stack_size__ = 0x400
                0x0000000000000400                __main_stack_size__ = 0x400
START GROUP
LOAD /usr/bin/../lib/gcc/arm-none-eabi/4.8.4/armv7e-m/fpu/libgcc.a
LOAD /usr/bin/../lib/gcc/arm-none-eabi/4.8.4/../../../../arm-none-eabi/lib/armv7e-m/fpu/libc.a
END GROUP
OUTPUT(build/aoss584Lab.elf elf32-littlearm)

.ARM.attributes
                0x0000000000000000       0x33
 .ARM.attributes
                0x0000000000000000       0x25 build/obj/chcoreasm_v7m.o
 .ARM.attributes
                0x0000000000000025       0x37 /tmp/cch6NLmb.ltrans0.ltrans.o
 .ARM.attributes
                0x000000000000005c       0x37 /tmp/cch6NLmb.ltrans1.ltrans.o
 .ARM.attributes
                0x0000000000000093       0x37 /tmp/cch6NLmb.ltrans2.ltrans.o
 .ARM.attributes
                0x00000000000000ca       0x37 /tmp/cch6NLmb.ltrans3.ltrans.o
 .ARM.attributes
                0x0000000000000101       0x37 /tmp/cch6NLmb.ltrans4.ltrans.o
 .ARM.attributes
                0x0000000000000138       0x37 /tmp/cch6NLmb.ltrans5.ltrans.o
 .ARM.attributes
                0x000000000000016f       0x37 /tmp/cch6NLmb.ltrans6.ltrans.o
 .ARM.attributes
                0x00000000000001a6       0x22 /usr/bin/../lib/gcc/arm-none-eabi/4.8.4/armv7e-m/fpu/libgcc.a(_arm_addsubdf3.o)
 .ARM.attributes
                0x00000000000001c8       0x22 /usr/bin/../lib/gcc/arm-none-eabi/4.8.4/armv7e-m/fpu/libgcc.a(_arm_muldivdf3.o)
 .ARM.attributes
                0x00000000000001ea       0x22 /usr/bin/../lib/gcc/arm-none-eabi/4.8.4/armv7e-m/fpu/libgcc.a(_arm_fixdfsi.o)
 .ARM.attributes
                0x000000000000020c       0x22 /usr/bin/../lib/gcc/arm-none-eabi/4.8.4/armv7e-m/fpu/libgcc.a(_arm_truncdfsf2.o)
 .ARM.attributes
                0x000000000000022e       0x20 /usr/bin/../lib/gcc/arm-none-eabi/4.8.4/../../../../arm-none-eabi/lib/armv7e-m/fpu/libc.a(lib_a-memcpy.o)

.comment        0x0000000000000000       0x70
 .comment       0x0000000000000000       0x70 /tmp/cch6NLmb.ltrans0.ltrans.o
                                         0x71 (size before relaxing)
 .comment       0x0000000000000000       0x71 /tmp/cch6NLmb.ltrans1.ltrans.o
 .comment       0x0000000000000000       0x71 /tmp/cch6NLmb.ltrans2.ltrans.o
 .comment       0x0000000000000000       0x71 /tmp/cch6NLmb.ltrans3.ltrans.o
 .comment       0x0000000000000000       0x71 /tmp/cch6NLmb.ltrans4.ltrans.o
 .comment       0x0000000000000000       0x71 /tmp/cch6NLmb.ltrans5.ltrans.o
 .comment       0x0000000000000000       0x71 /tmp/cch6NLmb.ltrans6.ltrans.o

Cross Reference Table

Symbol                                            File
ADCD1                                             /tmp/cch6NLmb.ltrans0.ltrans.o
                                                  /tmp/cch6NLmb.ltrans4.ltrans.o
BusFault_Handler                                  /tmp/cch6NLmb.ltrans4.ltrans.o
                                                  /tmp/cch6NLmb.ltrans6.ltrans.o
DEBUG.13682                                       /tmp/cch6NLmb.ltrans0.ltrans.o
                                                  /tmp/cch6NLmb.ltrans5.ltrans.o
DebugMon_Handler                                  /tmp/cch6NLmb.ltrans4.ltrans.o
                                                  /tmp/cch6NLmb.ltrans6.ltrans.o
HardFault_Handler                                 /tmp/cch6NLmb.ltrans4.ltrans.o
                                                  /tmp/cch6NLmb.ltrans6.ltrans.o
MMCD1                                             /tmp/cch6NLmb.ltrans0.ltrans.o
                                                  /tmp/cch6NLmb.ltrans3.ltrans.o
                                                  /tmp/cch6NLmb.ltrans1.ltrans.o
MemManage_Handler                                 /tmp/cch6NLmb.ltrans4.ltrans.o
                                                  /tmp/cch6NLmb.ltrans6.ltrans.o
NMI_Handler                                       /tmp/cch6NLmb.ltrans4.ltrans.o
                                                  /tmp/cch6NLmb.ltrans6.ltrans.o
PendSV_Handler                                    /tmp/cch6NLmb.ltrans4.ltrans.o
                                                  /tmp/cch6NLmb.ltrans6.ltrans.o
Reset_Handler                                     /tmp/cch6NLmb.ltrans6.ltrans.o
SD2                                               /tmp/cch6NLmb.ltrans0.ltrans.o
                                                  /tmp/cch6NLmb.ltrans5.ltrans.o
                                                  /tmp/cch6NLmb.ltrans3.ltrans.o
SPID1                                             /tmp/cch6NLmb.ltrans0.ltrans.o
                                                  /tmp/cch6NLmb.ltrans4.ltrans.o
                                                  /tmp/cch6NLmb.ltrans3.ltrans.o
SVC_Handler                                       /tmp/cch6NLmb.ltrans4.ltrans.o
                                                  /tmp/cch6NLmb.ltrans6.ltrans.o
SysTick_Handler                                   /tmp/cch6NLmb.ltrans4.ltrans.o
                                                  /tmp/cch6NLmb.ltrans6.ltrans.o
UARTD1                                            /tmp/cch6NLmb.ltrans0.ltrans.o
                                                  /tmp/cch6NLmb.ltrans3.ltrans.o
UsageFault_Handler                                /tmp/cch6NLmb.ltrans4.ltrans.o
                                                  /tmp/cch6NLmb.ltrans6.ltrans.o
Vector100                                         /tmp/cch6NLmb.ltrans4.ltrans.o
                                                  /tmp/cch6NLmb.ltrans6.ltrans.o
Vector104                                         /tmp/cch6NLmb.ltrans4.ltrans.o
                                                  /tmp/cch6NLmb.ltrans6.ltrans.o
Vector108                                         /tmp/cch6NLmb.ltrans4.ltrans.o
                                                  /tmp/cch6NLmb.ltrans6.ltrans.o
Vector10C                                         /tmp/cch6NLmb.ltrans4.ltrans.o
                                                  /tmp/cch6NLmb.ltrans6.ltrans.o
Vector110                                         /tmp/cch6NLmb.ltrans4.ltrans.o
                                                  /tmp/cch6NLmb.ltrans6.ltrans.o
Vector114                                         /tmp/cch6NLmb.ltrans4.ltrans.o
                                                  /tmp/cch6NLmb.ltrans6.ltrans.o
Vector118                                         /tmp/cch6NLmb.ltrans4.ltrans.o
                                                  /tmp/cch6NLmb.ltrans6.ltrans.o
Vector11C                                         /tmp/cch6NLmb.ltrans4.ltrans.o
                                                  /tmp/cch6NLmb.ltrans6.ltrans.o
Vector120                                         /tmp/cch6NLmb.ltrans4.ltrans.o
                                                  /tmp/cch6NLmb.ltrans6.ltrans.o
Vector124                                         /tmp/cch6NLmb.ltrans4.ltrans.o
                                                  /tmp/cch6NLmb.ltrans6.ltrans.o
Vector128                                         /tmp/cch6NLmb.ltrans4.ltrans.o
                                                  /tmp/cch6NLmb.ltrans6.ltrans.o
Vector12C                                         /tmp/cch6NLmb.ltrans4.ltrans.o
                                                  /tmp/cch6NLmb.ltrans6.ltrans.o
Vector130                                         /tmp/cch6NLmb.ltrans4.ltrans.o
                                                  /tmp/cch6NLmb.ltrans6.ltrans.o
Vector134                                         /tmp/cch6NLmb.ltrans4.ltrans.o
                                                  /tmp/cch6NLmb.ltrans6.ltrans.o
Vector138                                         /tmp/cch6NLmb.ltrans4.ltrans.o
                                                  /tmp/cch6NLmb.ltrans6.ltrans.o
Vector13C                                         /tmp/cch6NLmb.ltrans4.ltrans.o
                                                  /tmp/cch6NLmb.ltrans6.ltrans.o
Vector140                                         /tmp/cch6NLmb.ltrans4.ltrans.o
                                                  /tmp/cch6NLmb.ltrans6.ltrans.o
Vector144                                         /tmp/cch6NLmb.ltrans4.ltrans.o
                                                  /tmp/cch6NLmb.ltrans6.ltrans.o
Vector148                                         /tmp/cch6NLmb.ltrans4.ltrans.o
                                                  /tmp/cch6NLmb.ltrans6.ltrans.o
Vector14C                                         /tmp/cch6NLmb.ltrans4.ltrans.o
                                                  /tmp/cch6NLmb.ltrans6.ltrans.o
Vector150                                         /tmp/cch6NLmb.ltrans4.ltrans.o
                                                  /tmp/cch6NLmb.ltrans6.ltrans.o
Vector154                                         /tmp/cch6NLmb.ltrans4.ltrans.o
                                                  /tmp/cch6NLmb.ltrans6.ltrans.o
Vector158                                         /tmp/cch6NLmb.ltrans4.ltrans.o
                                                  /tmp/cch6NLmb.ltrans6.ltrans.o
Vector15C                                         /tmp/cch6NLmb.ltrans4.ltrans.o
                                                  /tmp/cch6NLmb.ltrans6.ltrans.o
Vector160                                         /tmp/cch6NLmb.ltrans4.ltrans.o
                                                  /tmp/cch6NLmb.ltrans6.ltrans.o
Vector164                                         /tmp/cch6NLmb.ltrans4.ltrans.o
                                                  /tmp/cch6NLmb.ltrans6.ltrans.o
Vector168                                         /tmp/cch6NLmb.ltrans4.ltrans.o
                                                  /tmp/cch6NLmb.ltrans6.ltrans.o
Vector16C                                         /tmp/cch6NLmb.ltrans4.ltrans.o
                                                  /tmp/cch6NLmb.ltrans6.ltrans.o
Vector170                                         /tmp/cch6NLmb.ltrans4.ltrans.o
                                                  /tmp/cch6NLmb.ltrans6.ltrans.o
Vector174                                         /tmp/cch6NLmb.ltrans4.ltrans.o
                                                  /tmp/cch6NLmb.ltrans6.ltrans.o
Vector178                                         /tmp/cch6NLmb.ltrans4.ltrans.o
                                                  /tmp/cch6NLmb.ltrans6.ltrans.o
Vector17C                                         /tmp/cch6NLmb.ltrans4.ltrans.o
                                                  /tmp/cch6NLmb.ltrans6.ltrans.o
Vector180                                         /tmp/cch6NLmb.ltrans4.ltrans.o
                                                  /tmp/cch6NLmb.ltrans6.ltrans.o
Vector184                                         /tmp/cch6NLmb.ltrans4.ltrans.o
                                                  /tmp/cch6NLmb.ltrans6.ltrans.o
Vector188                                         /tmp/cch6NLmb.ltrans4.ltrans.o
                                                  /tmp/cch6NLmb.ltrans6.ltrans.o
Vector18C                                         /tmp/cch6NLmb.ltrans4.ltrans.o
                                                  /tmp/cch6NLmb.ltrans6.ltrans.o
Vector190                                         /tmp/cch6NLmb.ltrans4.ltrans.o
                                                  /tmp/cch6NLmb.ltrans6.ltrans.o
Vector194                                         /tmp/cch6NLmb.ltrans4.ltrans.o
                                                  /tmp/cch6NLmb.ltrans6.ltrans.o
Vector198                                         /tmp/cch6NLmb.ltrans4.ltrans.o
                                                  /tmp/cch6NLmb.ltrans6.ltrans.o
Vector19C                                         /tmp/cch6NLmb.ltrans4.ltrans.o
                                                  /tmp/cch6NLmb.ltrans6.ltrans.o
Vector1A0                                         /tmp/cch6NLmb.ltrans4.ltrans.o
                                                  /tmp/cch6NLmb.ltrans6.ltrans.o
Vector1A4                                         /tmp/cch6NLmb.ltrans4.ltrans.o
                                                  /tmp/cch6NLmb.ltrans6.ltrans.o
Vector1A8                                         /tmp/cch6NLmb.ltrans4.ltrans.o
                                                  /tmp/cch6NLmb.ltrans6.ltrans.o
Vector1AC                                         /tmp/cch6NLmb.ltrans4.ltrans.o
                                                  /tmp/cch6NLmb.ltrans6.ltrans.o
Vector1B0                                         /tmp/cch6NLmb.ltrans4.ltrans.o
                                                  /tmp/cch6NLmb.ltrans6.ltrans.o
Vector1B4                                         /tmp/cch6NLmb.ltrans4.ltrans.o
                                                  /tmp/cch6NLmb.ltrans6.ltrans.o
Vector1B8                                         /tmp/cch6NLmb.ltrans4.ltrans.o
                                                  /tmp/cch6NLmb.ltrans6.ltrans.o
Vector1BC                                         /tmp/cch6NLmb.ltrans4.ltrans.o
                                                  /tmp/cch6NLmb.ltrans6.ltrans.o
Vector1C                                          /tmp/cch6NLmb.ltrans4.ltrans.o
                                                  /tmp/cch6NLmb.ltrans6.ltrans.o
Vector20                                          /tmp/cch6NLmb.ltrans4.ltrans.o
                                                  /tmp/cch6NLmb.ltrans6.ltrans.o
Vector24                                          /tmp/cch6NLmb.ltrans4.ltrans.o
                                                  /tmp/cch6NLmb.ltrans6.ltrans.o
Vector28                                          /tmp/cch6NLmb.ltrans4.ltrans.o
                                                  /tmp/cch6NLmb.ltrans6.ltrans.o
Vector34                                          /tmp/cch6NLmb.ltrans4.ltrans.o
                                                  /tmp/cch6NLmb.ltrans6.ltrans.o
Vector40                                          /tmp/cch6NLmb.ltrans4.ltrans.o
                                                  /tmp/cch6NLmb.ltrans6.ltrans.o
Vector44                                          /tmp/cch6NLmb.ltrans4.ltrans.o
                                                  /tmp/cch6NLmb.ltrans6.ltrans.o
Vector48                                          /tmp/cch6NLmb.ltrans4.ltrans.o
                                                  /tmp/cch6NLmb.ltrans6.ltrans.o
Vector4C                                          /tmp/cch6NLmb.ltrans4.ltrans.o
                                                  /tmp/cch6NLmb.ltrans6.ltrans.o
Vector50                                          /tmp/cch6NLmb.ltrans4.ltrans.o
                                                  /tmp/cch6NLmb.ltrans6.ltrans.o
Vector54                                          /tmp/cch6NLmb.ltrans4.ltrans.o
                                                  /tmp/cch6NLmb.ltrans6.ltrans.o
Vector58                                          /tmp/cch6NLmb.ltrans4.ltrans.o
                                                  /tmp/cch6NLmb.ltrans6.ltrans.o
Vector5C                                          /tmp/cch6NLmb.ltrans4.ltrans.o
                                                  /tmp/cch6NLmb.ltrans6.ltrans.o
Vector60                                          /tmp/cch6NLmb.ltrans4.ltrans.o
                                                  /tmp/cch6NLmb.ltrans6.ltrans.o
Vector64                                          /tmp/cch6NLmb.ltrans4.ltrans.o
                                                  /tmp/cch6NLmb.ltrans6.ltrans.o
Vector68                                          /tmp/cch6NLmb.ltrans4.ltrans.o
                                                  /tmp/cch6NLmb.ltrans6.ltrans.o
Vector6C                                          /tmp/cch6NLmb.ltrans4.ltrans.o
                                                  /tmp/cch6NLmb.ltrans6.ltrans.o
Vector70                                          /tmp/cch6NLmb.ltrans4.ltrans.o
                                                  /tmp/cch6NLmb.ltrans6.ltrans.o
Vector74                                          /tmp/cch6NLmb.ltrans4.ltrans.o
                                                  /tmp/cch6NLmb.ltrans6.ltrans.o
Vector78                                          /tmp/cch6NLmb.ltrans4.ltrans.o
                                                  /tmp/cch6NLmb.ltrans6.ltrans.o
Vector7C                                          /tmp/cch6NLmb.ltrans4.ltrans.o
                                                  /tmp/cch6NLmb.ltrans6.ltrans.o
Vector80                                          /tmp/cch6NLmb.ltrans4.ltrans.o
                                                  /tmp/cch6NLmb.ltrans6.ltrans.o
Vector84                                          /tmp/cch6NLmb.ltrans4.ltrans.o
                                                  /tmp/cch6NLmb.ltrans6.ltrans.o
Vector88                                          /tmp/cch6NLmb.ltrans4.ltrans.o
                                                  /tmp/cch6NLmb.ltrans6.ltrans.o
Vector8C                                          /tmp/cch6NLmb.ltrans4.ltrans.o
                                                  /tmp/cch6NLmb.ltrans6.ltrans.o
Vector90                                          /tmp/cch6NLmb.ltrans4.ltrans.o
                                                  /tmp/cch6NLmb.ltrans6.ltrans.o
Vector94                                          /tmp/cch6NLmb.ltrans4.ltrans.o
                                                  /tmp/cch6NLmb.ltrans6.ltrans.o
Vector98                                          /tmp/cch6NLmb.ltrans4.ltrans.o
                                                  /tmp/cch6NLmb.ltrans6.ltrans.o
Vector9C                                          /tmp/cch6NLmb.ltrans4.ltrans.o
                                                  /tmp/cch6NLmb.ltrans6.ltrans.o
VectorA0                                          /tmp/cch6NLmb.ltrans4.ltrans.o
                                                  /tmp/cch6NLmb.ltrans6.ltrans.o
VectorA4                                          /tmp/cch6NLmb.ltrans4.ltrans.o
                                                  /tmp/cch6NLmb.ltrans6.ltrans.o
VectorA8                                          /tmp/cch6NLmb.ltrans4.ltrans.o
                                                  /tmp/cch6NLmb.ltrans6.ltrans.o
VectorAC                                          /tmp/cch6NLmb.ltrans4.ltrans.o
                                                  /tmp/cch6NLmb.ltrans6.ltrans.o
VectorB0                                          /tmp/cch6NLmb.ltrans3.ltrans.o
                                                  /tmp/cch6NLmb.ltrans6.ltrans.o
VectorB4                                          /tmp/cch6NLmb.ltrans4.ltrans.o
                                                  /tmp/cch6NLmb.ltrans6.ltrans.o
VectorB8                                          /tmp/cch6NLmb.ltrans4.ltrans.o
                                                  /tmp/cch6NLmb.ltrans6.ltrans.o
VectorBC                                          /tmp/cch6NLmb.ltrans4.ltrans.o
                                                  /tmp/cch6NLmb.ltrans6.ltrans.o
VectorC0                                          /tmp/cch6NLmb.ltrans4.ltrans.o
                                                  /tmp/cch6NLmb.ltrans6.ltrans.o
VectorC4                                          /tmp/cch6NLmb.ltrans4.ltrans.o
                                                  /tmp/cch6NLmb.ltrans6.ltrans.o
VectorC8                                          /tmp/cch6NLmb.ltrans4.ltrans.o
                                                  /tmp/cch6NLmb.ltrans6.ltrans.o
VectorCC                                          /tmp/cch6NLmb.ltrans4.ltrans.o
                                                  /tmp/cch6NLmb.ltrans6.ltrans.o
VectorD0                                          /tmp/cch6NLmb.ltrans4.ltrans.o
                                                  /tmp/cch6NLmb.ltrans6.ltrans.o
VectorD4                                          /tmp/cch6NLmb.ltrans3.ltrans.o
                                                  /tmp/cch6NLmb.ltrans6.ltrans.o
VectorD8                                          /tmp/cch6NLmb.ltrans5.ltrans.o
                                                  /tmp/cch6NLmb.ltrans6.ltrans.o
VectorDC                                          /tmp/cch6NLmb.ltrans4.ltrans.o
                                                  /tmp/cch6NLmb.ltrans6.ltrans.o
VectorE0                                          /tmp/cch6NLmb.ltrans4.ltrans.o
                                                  /tmp/cch6NLmb.ltrans6.ltrans.o
VectorE4                                          /tmp/cch6NLmb.ltrans4.ltrans.o
                                                  /tmp/cch6NLmb.ltrans6.ltrans.o
VectorE8                                          /tmp/cch6NLmb.ltrans4.ltrans.o
                                                  /tmp/cch6NLmb.ltrans6.ltrans.o
VectorEC                                          /tmp/cch6NLmb.ltrans4.ltrans.o
                                                  /tmp/cch6NLmb.ltrans6.ltrans.o
VectorF0                                          /tmp/cch6NLmb.ltrans4.ltrans.o
                                                  /tmp/cch6NLmb.ltrans6.ltrans.o
VectorF4                                          /tmp/cch6NLmb.ltrans4.ltrans.o
                                                  /tmp/cch6NLmb.ltrans6.ltrans.o
VectorF8                                          /tmp/cch6NLmb.ltrans4.ltrans.o
                                                  /tmp/cch6NLmb.ltrans6.ltrans.o
VectorFC                                          /tmp/cch6NLmb.ltrans4.ltrans.o
                                                  /tmp/cch6NLmb.ltrans6.ltrans.o
__adddf3                                          /usr/bin/../lib/gcc/arm-none-eabi/4.8.4/armv7e-m/fpu/libgcc.a(_arm_addsubdf3.o)
__aeabi_d2f                                       /usr/bin/../lib/gcc/arm-none-eabi/4.8.4/armv7e-m/fpu/libgcc.a(_arm_truncdfsf2.o)
                                                  /tmp/cch6NLmb.ltrans3.ltrans.o
__aeabi_d2iz                                      /usr/bin/../lib/gcc/arm-none-eabi/4.8.4/armv7e-m/fpu/libgcc.a(_arm_fixdfsi.o)
                                                  /tmp/cch6NLmb.ltrans3.ltrans.o
__aeabi_dadd                                      /usr/bin/../lib/gcc/arm-none-eabi/4.8.4/armv7e-m/fpu/libgcc.a(_arm_addsubdf3.o)
__aeabi_ddiv                                      /usr/bin/../lib/gcc/arm-none-eabi/4.8.4/armv7e-m/fpu/libgcc.a(_arm_muldivdf3.o)
__aeabi_dmul                                      /usr/bin/../lib/gcc/arm-none-eabi/4.8.4/armv7e-m/fpu/libgcc.a(_arm_muldivdf3.o)
                                                  /tmp/cch6NLmb.ltrans3.ltrans.o
__aeabi_drsub                                     /usr/bin/../lib/gcc/arm-none-eabi/4.8.4/armv7e-m/fpu/libgcc.a(_arm_addsubdf3.o)
__aeabi_dsub                                      /usr/bin/../lib/gcc/arm-none-eabi/4.8.4/armv7e-m/fpu/libgcc.a(_arm_addsubdf3.o)
                                                  /tmp/cch6NLmb.ltrans3.ltrans.o
__aeabi_f2d                                       /usr/bin/../lib/gcc/arm-none-eabi/4.8.4/armv7e-m/fpu/libgcc.a(_arm_addsubdf3.o)
                                                  /tmp/cch6NLmb.ltrans3.ltrans.o
                                                  /tmp/cch6NLmb.ltrans0.ltrans.o
__aeabi_i2d                                       /usr/bin/../lib/gcc/arm-none-eabi/4.8.4/armv7e-m/fpu/libgcc.a(_arm_addsubdf3.o)
                                                  /tmp/cch6NLmb.ltrans3.ltrans.o
__aeabi_l2d                                       /usr/bin/../lib/gcc/arm-none-eabi/4.8.4/armv7e-m/fpu/libgcc.a(_arm_addsubdf3.o)
__aeabi_ui2d                                      /usr/bin/../lib/gcc/arm-none-eabi/4.8.4/armv7e-m/fpu/libgcc.a(_arm_addsubdf3.o)
                                                  /tmp/cch6NLmb.ltrans3.ltrans.o
__aeabi_ul2d                                      /usr/bin/../lib/gcc/arm-none-eabi/4.8.4/armv7e-m/fpu/libgcc.a(_arm_addsubdf3.o)
__divdf3                                          /usr/bin/../lib/gcc/arm-none-eabi/4.8.4/armv7e-m/fpu/libgcc.a(_arm_muldivdf3.o)
__extendsfdf2                                     /usr/bin/../lib/gcc/arm-none-eabi/4.8.4/armv7e-m/fpu/libgcc.a(_arm_addsubdf3.o)
__fixdfsi                                         /usr/bin/../lib/gcc/arm-none-eabi/4.8.4/armv7e-m/fpu/libgcc.a(_arm_fixdfsi.o)
__floatdidf                                       /usr/bin/../lib/gcc/arm-none-eabi/4.8.4/armv7e-m/fpu/libgcc.a(_arm_addsubdf3.o)
__floatsidf                                       /usr/bin/../lib/gcc/arm-none-eabi/4.8.4/armv7e-m/fpu/libgcc.a(_arm_addsubdf3.o)
__floatundidf                                     /usr/bin/../lib/gcc/arm-none-eabi/4.8.4/armv7e-m/fpu/libgcc.a(_arm_addsubdf3.o)
__floatunsidf                                     /usr/bin/../lib/gcc/arm-none-eabi/4.8.4/armv7e-m/fpu/libgcc.a(_arm_addsubdf3.o)
__heap_base__                                     /tmp/cch6NLmb.ltrans0.ltrans.o
__heap_end__                                      /tmp/cch6NLmb.ltrans0.ltrans.o
__init_array_end                                  /tmp/cch6NLmb.ltrans6.ltrans.o
__init_array_start                                /tmp/cch6NLmb.ltrans6.ltrans.o
__main_stack_base__                               /tmp/cch6NLmb.ltrans6.ltrans.o
__main_stack_end__                                /tmp/cch6NLmb.ltrans6.ltrans.o
__muldf3                                          /usr/bin/../lib/gcc/arm-none-eabi/4.8.4/armv7e-m/fpu/libgcc.a(_arm_muldivdf3.o)
__process_stack_base__                            /tmp/cch6NLmb.ltrans6.ltrans.o
__process_stack_end__                             /tmp/cch6NLmb.ltrans6.ltrans.o
__subdf3                                          /usr/bin/../lib/gcc/arm-none-eabi/4.8.4/armv7e-m/fpu/libgcc.a(_arm_addsubdf3.o)
__truncdfsf2                                      /usr/bin/../lib/gcc/arm-none-eabi/4.8.4/armv7e-m/fpu/libgcc.a(_arm_truncdfsf2.o)
_bss_end                                          /tmp/cch6NLmb.ltrans6.ltrans.o
_bss_start                                        /tmp/cch6NLmb.ltrans6.ltrans.o
_data                                             /tmp/cch6NLmb.ltrans6.ltrans.o
_edata                                            /tmp/cch6NLmb.ltrans6.ltrans.o
_idle_thread.4338                                 /tmp/cch6NLmb.ltrans4.ltrans.o
                                                  /tmp/cch6NLmb.ltrans0.ltrans.o
_pal_lld_setgroupmode                             /tmp/cch6NLmb.ltrans4.ltrans.o
                                                  /tmp/cch6NLmb.ltrans0.ltrans.o
_port_exit_from_isr                               build/obj/chcoreasm_v7m.o
                                                  /tmp/cch6NLmb.ltrans4.ltrans.o
_port_irq_epilogue                                /tmp/cch6NLmb.ltrans4.ltrans.o
                                                  /tmp/cch6NLmb.ltrans5.ltrans.o
                                                  /tmp/cch6NLmb.ltrans3.ltrans.o
_port_switch                                      build/obj/chcoreasm_v7m.o
                                                  /tmp/cch6NLmb.ltrans6.ltrans.o
                                                  /tmp/cch6NLmb.ltrans4.ltrans.o
_port_switch_from_isr                             build/obj/chcoreasm_v7m.o
                                                  /tmp/cch6NLmb.ltrans4.ltrans.o
_port_thread_start                                build/obj/chcoreasm_v7m.o
                                                  /tmp/cch6NLmb.ltrans0.ltrans.o
_textdata                                         /tmp/cch6NLmb.ltrans6.ltrans.o
_vectors                                          /tmp/cch6NLmb.ltrans6.ltrans.o
adc_lld_serve_rx_interrupt.10898                  /tmp/cch6NLmb.ltrans4.ltrans.o
                                                  /tmp/cch6NLmb.ltrans0.ltrans.o
ch                                                /tmp/cch6NLmb.ltrans6.ltrans.o
                                                  /tmp/cch6NLmb.ltrans5.ltrans.o
                                                  /tmp/cch6NLmb.ltrans4.ltrans.o
                                                  /tmp/cch6NLmb.ltrans3.ltrans.o
                                                  /tmp/cch6NLmb.ltrans0.ltrans.o
chCoreAlloc                                       /tmp/cch6NLmb.ltrans4.ltrans.o
                                                  /tmp/cch6NLmb.ltrans0.ltrans.o
chEvtBroadcastFlagsI                              /tmp/cch6NLmb.ltrans4.ltrans.o
                                                  /tmp/cch6NLmb.ltrans5.ltrans.o
chOQPutTimeout                                    /tmp/cch6NLmb.ltrans3.ltrans.o
                                                  /tmp/cch6NLmb.ltrans1.ltrans.o
chSchDoReschedule                                 /tmp/cch6NLmb.ltrans6.ltrans.o
                                                  build/obj/chcoreasm_v7m.o
chSchGoSleepS                                     /tmp/cch6NLmb.ltrans4.ltrans.o
                                                  /tmp/cch6NLmb.ltrans6.ltrans.o
                                                  /tmp/cch6NLmb.ltrans3.ltrans.o
chSchGoSleepTimeoutS                              /tmp/cch6NLmb.ltrans3.ltrans.o
                                                  /tmp/cch6NLmb.ltrans1.ltrans.o
chSchReadyI                                       /tmp/cch6NLmb.ltrans4.ltrans.o
                                                  /tmp/cch6NLmb.ltrans6.ltrans.o
                                                  /tmp/cch6NLmb.ltrans5.ltrans.o
chTMStartMeasurementX.constprop.11                /tmp/cch6NLmb.ltrans3.ltrans.o
                                                  /tmp/cch6NLmb.ltrans0.ltrans.o
chTMStopMeasurementX                              /tmp/cch6NLmb.ltrans4.ltrans.o
                                                  /tmp/cch6NLmb.ltrans0.ltrans.o
chThdEnqueueTimeoutS                              /tmp/cch6NLmb.ltrans3.ltrans.o
                                                  /tmp/cch6NLmb.ltrans1.ltrans.o
chThdExit                                         /tmp/cch6NLmb.ltrans6.ltrans.o
                                                  build/obj/chcoreasm_v7m.o
chThdResumeI                                      /tmp/cch6NLmb.ltrans4.ltrans.o
                                                  /tmp/cch6NLmb.ltrans3.ltrans.o
chThdSleep                                        /tmp/cch6NLmb.ltrans1.ltrans.o
                                                  /tmp/cch6NLmb.ltrans5.ltrans.o
                                                  /tmp/cch6NLmb.ltrans0.ltrans.o
chThdSuspendS                                     /tmp/cch6NLmb.ltrans4.ltrans.o
                                                  /tmp/cch6NLmb.ltrans3.ltrans.o
                                                  /tmp/cch6NLmb.ltrans0.ltrans.o
chprintf.13166                                    /tmp/cch6NLmb.ltrans3.ltrans.o
                                                  /tmp/cch6NLmb.ltrans0.ltrans.o
chprintf.13526                                    /tmp/cch6NLmb.ltrans3.ltrans.o
                                                  /tmp/cch6NLmb.ltrans5.ltrans.o
                                                  /tmp/cch6NLmb.ltrans0.ltrans.o
chprintf.14065.constprop.30                       /tmp/cch6NLmb.ltrans3.ltrans.o
                                                  /tmp/cch6NLmb.ltrans0.ltrans.o
chsnprintf                                        /tmp/cch6NLmb.ltrans3.ltrans.o
                                                  /tmp/cch6NLmb.ltrans5.ltrans.o
                                                  /tmp/cch6NLmb.ltrans0.ltrans.o
create_chain.12357                                /tmp/cch6NLmb.ltrans2.ltrans.o
                                                  /tmp/cch6NLmb.ltrans5.ltrans.o
dir_sdi.12342.constprop.38                        /tmp/cch6NLmb.ltrans1.ltrans.o
                                                  /tmp/cch6NLmb.ltrans2.ltrans.o
disk_read.constprop.40                            /tmp/cch6NLmb.ltrans1.ltrans.o
                                                  /tmp/cch6NLmb.ltrans5.ltrans.o
                                                  /tmp/cch6NLmb.ltrans2.ltrans.o
disk_status                                       /tmp/cch6NLmb.ltrans3.ltrans.o
                                                  /tmp/cch6NLmb.ltrans1.ltrans.o
disk_write                                        /tmp/cch6NLmb.ltrans1.ltrans.o
                                                  /tmp/cch6NLmb.ltrans5.ltrans.o
                                                  /tmp/cch6NLmb.ltrans2.ltrans.o
dmaStreamAllocate                                 /tmp/cch6NLmb.ltrans4.ltrans.o
                                                  /tmp/cch6NLmb.ltrans0.ltrans.o
dmaStreamRelease                                  /tmp/cch6NLmb.ltrans4.ltrans.o
                                                  /tmp/cch6NLmb.ltrans3.ltrans.o
dma_isr_redir.10640                               /tmp/cch6NLmb.ltrans0.ltrans.o
                                                  /tmp/cch6NLmb.ltrans4.ltrans.o
dma_streams_mask.10645                            /tmp/cch6NLmb.ltrans0.ltrans.o
                                                  /tmp/cch6NLmb.ltrans4.ltrans.o
dummytx.11275                                     /tmp/cch6NLmb.ltrans0.ltrans.o
                                                  /tmp/cch6NLmb.ltrans3.ltrans.o
endmem.6822                                       /tmp/cch6NLmb.ltrans0.ltrans.o
                                                  /tmp/cch6NLmb.ltrans4.ltrans.o
f_close                                           /tmp/cch6NLmb.ltrans2.ltrans.o
                                                  /tmp/cch6NLmb.ltrans5.ltrans.o
                                                  /tmp/cch6NLmb.ltrans0.ltrans.o
f_mount                                           /tmp/cch6NLmb.ltrans1.ltrans.o
                                                  /tmp/cch6NLmb.ltrans0.ltrans.o
f_open                                            /tmp/cch6NLmb.ltrans2.ltrans.o
                                                  /tmp/cch6NLmb.ltrans5.ltrans.o
f_write                                           /tmp/cch6NLmb.ltrans2.ltrans.o
                                                  /tmp/cch6NLmb.ltrans5.ltrans.o
                                                  /tmp/cch6NLmb.ltrans0.ltrans.o
find_volume.12333                                 /tmp/cch6NLmb.ltrans1.ltrans.o
                                                  /tmp/cch6NLmb.ltrans2.ltrans.o
get.10007                                         /tmp/cch6NLmb.ltrans1.ltrans.o
                                                  /tmp/cch6NLmb.ltrans0.ltrans.o
get_fat.part.6.12338                              /tmp/cch6NLmb.ltrans1.ltrans.o
                                                  /tmp/cch6NLmb.ltrans5.ltrans.o
                                                  /tmp/cch6NLmb.ltrans2.ltrans.o
get_ldnumber.12295                                /tmp/cch6NLmb.ltrans3.ltrans.o
                                                  /tmp/cch6NLmb.ltrans1.ltrans.o
gett.10003                                        /tmp/cch6NLmb.ltrans1.ltrans.o
                                                  /tmp/cch6NLmb.ltrans0.ltrans.o
logfileOpenAppend                                 /tmp/cch6NLmb.ltrans5.ltrans.o
logger.14171                                      /tmp/cch6NLmb.ltrans0.ltrans.o
                                                  /tmp/cch6NLmb.ltrans5.ltrans.o
main                                              /tmp/cch6NLmb.ltrans0.ltrans.o
                                                  /tmp/cch6NLmb.ltrans6.ltrans.o
memcpy                                            /usr/bin/../lib/gcc/arm-none-eabi/4.8.4/../../../../arm-none-eabi/lib/armv7e-m/fpu/libc.a(lib_a-memcpy.o)
                                                  /tmp/cch6NLmb.ltrans3.ltrans.o
mmcConnect                                        /tmp/cch6NLmb.ltrans5.ltrans.o
                                                  /tmp/cch6NLmb.ltrans0.ltrans.o
mmcDisconnect                                     /tmp/cch6NLmb.ltrans1.ltrans.o
                                                  /tmp/cch6NLmb.ltrans0.ltrans.o
mmcGetInfo                                        /tmp/cch6NLmb.ltrans4.ltrans.o
                                                  /tmp/cch6NLmb.ltrans0.ltrans.o
mmcSequentialRead                                 /tmp/cch6NLmb.ltrans3.ltrans.o
                                                  /tmp/cch6NLmb.ltrans1.ltrans.o
mmcSequentialWrite                                /tmp/cch6NLmb.ltrans1.ltrans.o
                                                  /tmp/cch6NLmb.ltrans5.ltrans.o
mmcStartSequentialWrite                           /tmp/cch6NLmb.ltrans1.ltrans.o
                                                  /tmp/cch6NLmb.ltrans5.ltrans.o
mmcStopSequentialRead.part.7.9730                 /tmp/cch6NLmb.ltrans3.ltrans.o
                                                  /tmp/cch6NLmb.ltrans1.ltrans.o
mmcSync                                           /tmp/cch6NLmb.ltrans1.ltrans.o
                                                  /tmp/cch6NLmb.ltrans0.ltrans.o
mmc_lld_is_card_inserted                          /tmp/cch6NLmb.ltrans3.ltrans.o
                                                  /tmp/cch6NLmb.ltrans0.ltrans.o
mmc_lld_is_write_protected                        /tmp/cch6NLmb.ltrans3.ltrans.o
                                                  /tmp/cch6NLmb.ltrans0.ltrans.o
mmc_read.9768                                     /tmp/cch6NLmb.ltrans1.ltrans.o
                                                  /tmp/cch6NLmb.ltrans0.ltrans.o
mmc_write.9785                                    /tmp/cch6NLmb.ltrans5.ltrans.o
                                                  /tmp/cch6NLmb.ltrans0.ltrans.o
move_window.12322                                 /tmp/cch6NLmb.ltrans1.ltrans.o
                                                  /tmp/cch6NLmb.ltrans2.ltrans.o
nextmem.6820                                      /tmp/cch6NLmb.ltrans0.ltrans.o
                                                  /tmp/cch6NLmb.ltrans4.ltrans.o
notify2.11528                                     /tmp/cch6NLmb.ltrans3.ltrans.o
                                                  /tmp/cch6NLmb.ltrans0.ltrans.o
openNewLogfile.part.0.14077                       /tmp/cch6NLmb.ltrans5.ltrans.o
                                                  /tmp/cch6NLmb.ltrans0.ltrans.o
put.10015                                         /tmp/cch6NLmb.ltrans1.ltrans.o
                                                  /tmp/cch6NLmb.ltrans0.ltrans.o
putt.10010                                        /tmp/cch6NLmb.ltrans1.ltrans.o
                                                  /tmp/cch6NLmb.ltrans0.ltrans.o
read.9987                                         /tmp/cch6NLmb.ltrans1.ltrans.o
                                                  /tmp/cch6NLmb.ltrans0.ltrans.o
read_CxD.9701                                     /tmp/cch6NLmb.ltrans1.ltrans.o
                                                  /tmp/cch6NLmb.ltrans5.ltrans.o
readt.9980                                        /tmp/cch6NLmb.ltrans1.ltrans.o
                                                  /tmp/cch6NLmb.ltrans0.ltrans.o
recvr1.isra.0.9675                                /tmp/cch6NLmb.ltrans3.ltrans.o
                                                  /tmp/cch6NLmb.ltrans1.ltrans.o
send_command_R1.9696                              /tmp/cch6NLmb.ltrans1.ltrans.o
                                                  /tmp/cch6NLmb.ltrans5.ltrans.o
send_command_R3.9690                              /tmp/cch6NLmb.ltrans1.ltrans.o
                                                  /tmp/cch6NLmb.ltrans5.ltrans.o
sensorLog.14170                                   /tmp/cch6NLmb.ltrans0.ltrans.o
                                                  /tmp/cch6NLmb.ltrans5.ltrans.o
spiIgnore                                         /tmp/cch6NLmb.ltrans3.ltrans.o
                                                  /tmp/cch6NLmb.ltrans5.ltrans.o
                                                  /tmp/cch6NLmb.ltrans1.ltrans.o
spiReceive                                        /tmp/cch6NLmb.ltrans3.ltrans.o
                                                  /tmp/cch6NLmb.ltrans1.ltrans.o
spiSelect                                         /tmp/cch6NLmb.ltrans3.ltrans.o
                                                  /tmp/cch6NLmb.ltrans1.ltrans.o
spiSend                                           /tmp/cch6NLmb.ltrans3.ltrans.o
                                                  /tmp/cch6NLmb.ltrans5.ltrans.o
                                                  /tmp/cch6NLmb.ltrans1.ltrans.o
spiStart                                          /tmp/cch6NLmb.ltrans4.ltrans.o
                                                  /tmp/cch6NLmb.ltrans5.ltrans.o
                                                  /tmp/cch6NLmb.ltrans1.ltrans.o
spiStop                                           /tmp/cch6NLmb.ltrans3.ltrans.o
                                                  /tmp/cch6NLmb.ltrans5.ltrans.o
                                                  /tmp/cch6NLmb.ltrans1.ltrans.o
spiUnselect                                       /tmp/cch6NLmb.ltrans3.ltrans.o
                                                  /tmp/cch6NLmb.ltrans5.ltrans.o
                                                  /tmp/cch6NLmb.ltrans1.ltrans.o
spi_lld_serve_rx_interrupt.11222                  /tmp/cch6NLmb.ltrans3.ltrans.o
                                                  /tmp/cch6NLmb.ltrans4.ltrans.o
spi_lld_serve_tx_interrupt.11218                  /tmp/cch6NLmb.ltrans5.ltrans.o
                                                  /tmp/cch6NLmb.ltrans4.ltrans.o
stop.7640.9811                                    /tmp/cch6NLmb.ltrans5.ltrans.o
                                                  /tmp/cch6NLmb.ltrans1.ltrans.o
sync_window.part.3.12312                          /tmp/cch6NLmb.ltrans1.ltrans.o
                                                  /tmp/cch6NLmb.ltrans2.ltrans.o
uStrCpy                                           /tmp/cch6NLmb.ltrans3.ltrans.o
                                                  /tmp/cch6NLmb.ltrans0.ltrans.o
validate.12298                                    /tmp/cch6NLmb.ltrans3.ltrans.o
                                                  /tmp/cch6NLmb.ltrans5.ltrans.o
                                                  /tmp/cch6NLmb.ltrans2.ltrans.o
wakeup.4718                                       /tmp/cch6NLmb.ltrans4.ltrans.o
                                                  /tmp/cch6NLmb.ltrans3.ltrans.o
write.9998                                        /tmp/cch6NLmb.ltrans3.ltrans.o
                                                  /tmp/cch6NLmb.ltrans0.ltrans.o
writeMSHeader                                     /tmp/cch6NLmb.ltrans5.ltrans.o
                                                  /tmp/cch6NLmb.ltrans0.ltrans.o
writet.9992                                       /tmp/cch6NLmb.ltrans3.ltrans.o
                                                  /tmp/cch6NLmb.ltrans0.ltrans.o
