Archive member included because of file (symbol)

/usr/bin/../lib/gcc/arm-none-eabi/4.8.4/../../../../arm-none-eabi/lib/armv7e-m/fpu/libc.a(lib_a-strcpy.o)
                              /tmp/ccVkhsJg.ltrans0.ltrans.o (strcpy)
/usr/bin/../lib/gcc/arm-none-eabi/4.8.4/../../../../arm-none-eabi/lib/armv7e-m/fpu/libc.a(lib_a-strlen.o)
                              /tmp/ccVkhsJg.ltrans2.ltrans.o (strlen)
/usr/bin/../lib/gcc/arm-none-eabi/4.8.4/../../../../arm-none-eabi/lib/armv7e-m/fpu/libc.a(lib_a-strncmp.o)
                              /tmp/ccVkhsJg.ltrans4.ltrans.o (strncmp)

Discarded input sections

 .data          0x0000000000000000        0x0 build/obj/chcoreasm_v7m.o
 .bss           0x0000000000000000        0x0 build/obj/chcoreasm_v7m.o
 .text          0x0000000000000000        0x0 build/obj/crt0.o (symbol from plugin)
 .text          0x0000000000000000        0x0 /tmp/ccVkhsJg.ltrans0.ltrans.o
 .data          0x0000000000000000        0x0 /tmp/ccVkhsJg.ltrans0.ltrans.o
 .bss           0x0000000000000000        0x0 /tmp/ccVkhsJg.ltrans0.ltrans.o
 .text          0x0000000000000000        0x0 /tmp/ccVkhsJg.ltrans1.ltrans.o
 .data          0x0000000000000000        0x0 /tmp/ccVkhsJg.ltrans1.ltrans.o
 .bss           0x0000000000000000        0x0 /tmp/ccVkhsJg.ltrans1.ltrans.o
 .text          0x0000000000000000        0x0 /tmp/ccVkhsJg.ltrans2.ltrans.o
 .data          0x0000000000000000        0x0 /tmp/ccVkhsJg.ltrans2.ltrans.o
 .bss           0x0000000000000000        0x0 /tmp/ccVkhsJg.ltrans2.ltrans.o
 .text          0x0000000000000000        0x0 /tmp/ccVkhsJg.ltrans3.ltrans.o
 .data          0x0000000000000000        0x0 /tmp/ccVkhsJg.ltrans3.ltrans.o
 .bss           0x0000000000000000        0x0 /tmp/ccVkhsJg.ltrans3.ltrans.o
 .text          0x0000000000000000        0x0 /tmp/ccVkhsJg.ltrans4.ltrans.o
 .data          0x0000000000000000        0x0 /tmp/ccVkhsJg.ltrans4.ltrans.o
 .bss           0x0000000000000000        0x0 /tmp/ccVkhsJg.ltrans4.ltrans.o
 .text          0x0000000000000000        0x0 /tmp/ccVkhsJg.ltrans5.ltrans.o
 .data          0x0000000000000000        0x0 /tmp/ccVkhsJg.ltrans5.ltrans.o
 .bss           0x0000000000000000        0x0 /tmp/ccVkhsJg.ltrans5.ltrans.o
 .text          0x0000000000000000        0x0 /tmp/ccVkhsJg.ltrans6.ltrans.o
 .data          0x0000000000000000        0x0 /tmp/ccVkhsJg.ltrans6.ltrans.o
 .bss           0x0000000000000000        0x0 /tmp/ccVkhsJg.ltrans6.ltrans.o
 .text          0x0000000000000000        0x0 /usr/bin/../lib/gcc/arm-none-eabi/4.8.4/../../../../arm-none-eabi/lib/armv7e-m/fpu/libc.a(lib_a-strcpy.o)
 .data          0x0000000000000000        0x0 /usr/bin/../lib/gcc/arm-none-eabi/4.8.4/../../../../arm-none-eabi/lib/armv7e-m/fpu/libc.a(lib_a-strcpy.o)
 .bss           0x0000000000000000        0x0 /usr/bin/../lib/gcc/arm-none-eabi/4.8.4/../../../../arm-none-eabi/lib/armv7e-m/fpu/libc.a(lib_a-strcpy.o)
 .text          0x0000000000000000        0x0 /usr/bin/../lib/gcc/arm-none-eabi/4.8.4/../../../../arm-none-eabi/lib/armv7e-m/fpu/libc.a(lib_a-strlen.o)
 .data          0x0000000000000000        0x0 /usr/bin/../lib/gcc/arm-none-eabi/4.8.4/../../../../arm-none-eabi/lib/armv7e-m/fpu/libc.a(lib_a-strlen.o)
 .bss           0x0000000000000000        0x0 /usr/bin/../lib/gcc/arm-none-eabi/4.8.4/../../../../arm-none-eabi/lib/armv7e-m/fpu/libc.a(lib_a-strlen.o)
 .text          0x0000000000000000        0x0 /usr/bin/../lib/gcc/arm-none-eabi/4.8.4/../../../../arm-none-eabi/lib/armv7e-m/fpu/libc.a(lib_a-strncmp.o)
 .data          0x0000000000000000        0x0 /usr/bin/../lib/gcc/arm-none-eabi/4.8.4/../../../../arm-none-eabi/lib/armv7e-m/fpu/libc.a(lib_a-strncmp.o)
 .bss           0x0000000000000000        0x0 /usr/bin/../lib/gcc/arm-none-eabi/4.8.4/../../../../arm-none-eabi/lib/armv7e-m/fpu/libc.a(lib_a-strncmp.o)
 .text          0x0000000000000000        0x0 build/obj/vectors.o (symbol from plugin)
 .text          0x0000000000000000        0x0 build/obj/chcore.o (symbol from plugin)
 .text          0x0000000000000000        0x0 build/obj/chcore_v7m.o (symbol from plugin)
 .text          0x0000000000000000        0x0 build/obj/chsys.o (symbol from plugin)
 .text          0x0000000000000000        0x0 build/obj/chdebug.o (symbol from plugin)
 .text          0x0000000000000000        0x0 build/obj/chtm.o (symbol from plugin)
 .text          0x0000000000000000        0x0 build/obj/chstats.o (symbol from plugin)
 .text          0x0000000000000000        0x0 build/obj/chschd.o (symbol from plugin)
 .text          0x0000000000000000        0x0 build/obj/chvt.o (symbol from plugin)
 .text          0x0000000000000000        0x0 build/obj/chthreads.o (symbol from plugin)
 .text          0x0000000000000000        0x0 build/obj/chdynamic.o (symbol from plugin)
 .text          0x0000000000000000        0x0 build/obj/chregistry.o (symbol from plugin)
 .text          0x0000000000000000        0x0 build/obj/chsem.o (symbol from plugin)
 .text          0x0000000000000000        0x0 build/obj/chmtx.o (symbol from plugin)
 .text          0x0000000000000000        0x0 build/obj/chcond.o (symbol from plugin)
 .text          0x0000000000000000        0x0 build/obj/chevents.o (symbol from plugin)
 .text          0x0000000000000000        0x0 build/obj/chmsg.o (symbol from plugin)
 .text          0x0000000000000000        0x0 build/obj/chmboxes.o (symbol from plugin)
 .text          0x0000000000000000        0x0 build/obj/chqueues.o (symbol from plugin)
 .text          0x0000000000000000        0x0 build/obj/chmemcore.o (symbol from plugin)
 .text          0x0000000000000000        0x0 build/obj/chheap.o (symbol from plugin)
 .text          0x0000000000000000        0x0 build/obj/chmempools.o (symbol from plugin)
 .text          0x0000000000000000        0x0 build/obj/test.o (symbol from plugin)
 .text          0x0000000000000000        0x0 build/obj/testthd.o (symbol from plugin)
 .text          0x0000000000000000        0x0 build/obj/testsem.o (symbol from plugin)
 .text          0x0000000000000000        0x0 build/obj/testmtx.o (symbol from plugin)
 .text          0x0000000000000000        0x0 build/obj/testmsg.o (symbol from plugin)
 .text          0x0000000000000000        0x0 build/obj/testmbox.o (symbol from plugin)
 .text          0x0000000000000000        0x0 build/obj/testevt.o (symbol from plugin)
 .text          0x0000000000000000        0x0 build/obj/testheap.o (symbol from plugin)
 .text          0x0000000000000000        0x0 build/obj/testpools.o (symbol from plugin)
 .text          0x0000000000000000        0x0 build/obj/testdyn.o (symbol from plugin)
 .text          0x0000000000000000        0x0 build/obj/testqueues.o (symbol from plugin)
 .text          0x0000000000000000        0x0 build/obj/testbmk.o (symbol from plugin)
 .text          0x0000000000000000        0x0 build/obj/hal.o (symbol from plugin)
 .text          0x0000000000000000        0x0 build/obj/hal_queues.o (symbol from plugin)
 .text          0x0000000000000000        0x0 build/obj/hal_mmcsd.o (symbol from plugin)
 .text          0x0000000000000000        0x0 build/obj/adc.o (symbol from plugin)
 .text          0x0000000000000000        0x0 build/obj/can.o (symbol from plugin)
 .text          0x0000000000000000        0x0 build/obj/dac.o (symbol from plugin)
 .text          0x0000000000000000        0x0 build/obj/ext.o (symbol from plugin)
 .text          0x0000000000000000        0x0 build/obj/gpt.o (symbol from plugin)
 .text          0x0000000000000000        0x0 build/obj/i2c.o (symbol from plugin)
 .text          0x0000000000000000        0x0 build/obj/i2s.o (symbol from plugin)
 .text          0x0000000000000000        0x0 build/obj/icu.o (symbol from plugin)
 .text          0x0000000000000000        0x0 build/obj/mac.o (symbol from plugin)
 .text          0x0000000000000000        0x0 build/obj/mmc_spi.o (symbol from plugin)
 .text          0x0000000000000000        0x0 build/obj/pal.o (symbol from plugin)
 .text          0x0000000000000000        0x0 build/obj/pwm.o (symbol from plugin)
 .text          0x0000000000000000        0x0 build/obj/rtc.o (symbol from plugin)
 .text          0x0000000000000000        0x0 build/obj/sdc.o (symbol from plugin)
 .text          0x0000000000000000        0x0 build/obj/serial.o (symbol from plugin)
 .text          0x0000000000000000        0x0 build/obj/serial_usb.o (symbol from plugin)
 .text          0x0000000000000000        0x0 build/obj/spi.o (symbol from plugin)
 .text          0x0000000000000000        0x0 build/obj/st.o (symbol from plugin)
 .text          0x0000000000000000        0x0 build/obj/uart.o (symbol from plugin)
 .text          0x0000000000000000        0x0 build/obj/usb.o (symbol from plugin)
 .text          0x0000000000000000        0x0 build/obj/osal.o (symbol from plugin)
 .text          0x0000000000000000        0x0 build/obj/nvic.o (symbol from plugin)
 .text          0x0000000000000000        0x0 build/obj/stm32_dma.o (symbol from plugin)
 .text          0x0000000000000000        0x0 build/obj/hal_lld.o (symbol from plugin)
 .text          0x0000000000000000        0x0 build/obj/adc_lld.o (symbol from plugin)
 .text          0x0000000000000000        0x0 build/obj/ext_lld_isr.o (symbol from plugin)
 .text          0x0000000000000000        0x0 build/obj/can_lld.o (symbol from plugin)
 .text          0x0000000000000000        0x0 build/obj/ext_lld.o (symbol from plugin)
 .text          0x0000000000000000        0x0 build/obj/mac_lld.o (symbol from plugin)
 .text          0x0000000000000000        0x0 build/obj/sdc_lld.o (symbol from plugin)
 .text          0x0000000000000000        0x0 build/obj/dac_lld.o (symbol from plugin)
 .text          0x0000000000000000        0x0 build/obj/pal_lld.o (symbol from plugin)
 .text          0x0000000000000000        0x0 build/obj/i2c_lld.o (symbol from plugin)
 .text          0x0000000000000000        0x0 build/obj/usb_lld.o (symbol from plugin)
 .text          0x0000000000000000        0x0 build/obj/rtc_lld.o (symbol from plugin)
 .text          0x0000000000000000        0x0 build/obj/i2s_lld.o (symbol from plugin)
 .text          0x0000000000000000        0x0 build/obj/spi_lld.o (symbol from plugin)
 .text          0x0000000000000000        0x0 build/obj/gpt_lld.o (symbol from plugin)
 .text          0x0000000000000000        0x0 build/obj/icu_lld.o (symbol from plugin)
 .text          0x0000000000000000        0x0 build/obj/pwm_lld.o (symbol from plugin)
 .text          0x0000000000000000        0x0 build/obj/st_lld.o (symbol from plugin)
 .text          0x0000000000000000        0x0 build/obj/serial_lld.o (symbol from plugin)
 .text          0x0000000000000000        0x0 build/obj/uart_lld.o (symbol from plugin)
 .text          0x0000000000000000        0x0 build/obj/board.o (symbol from plugin)
 .text          0x0000000000000000        0x0 build/obj/fatfs_diskio.o (symbol from plugin)
 .text          0x0000000000000000        0x0 build/obj/fatfs_syscall.o (symbol from plugin)
 .text          0x0000000000000000        0x0 build/obj/ff.o (symbol from plugin)
 .text          0x0000000000000000        0x0 build/obj/unicode.o (symbol from plugin)
 .text          0x0000000000000000        0x0 build/obj/chprintf.o (symbol from plugin)
 .text          0x0000000000000000        0x0 build/obj/memstreams.o (symbol from plugin)
 .text          0x0000000000000000        0x0 build/obj/gps.o (symbol from plugin)
 .text          0x0000000000000000        0x0 build/obj/sdmmcsimple.o (symbol from plugin)
 .text          0x0000000000000000        0x0 build/obj/datalogger.o (symbol from plugin)
 .text          0x0000000000000000        0x0 build/obj/main.o (symbol from plugin)

Memory Configuration

Name             Origin             Length             Attributes
flash            0x0000000008000000 0x0000000000080000
ram              0x0000000020000000 0x0000000000018000
*default*        0x0000000000000000 0xffffffffffffffff

Linker script and memory map

LOAD build/obj/chcoreasm_v7m.o
LOAD build/obj/crt0.o
LOAD /tmp/ccVkhsJg.ltrans0.ltrans.o
LOAD /tmp/ccVkhsJg.ltrans1.ltrans.o
LOAD /tmp/ccVkhsJg.ltrans2.ltrans.o
LOAD /tmp/ccVkhsJg.ltrans3.ltrans.o
LOAD /tmp/ccVkhsJg.ltrans4.ltrans.o
LOAD /tmp/ccVkhsJg.ltrans5.ltrans.o
LOAD /tmp/ccVkhsJg.ltrans6.ltrans.o
LOAD /usr/bin/../lib/gcc/arm-none-eabi/4.8.4/armv7e-m/fpu/libgcc.a
LOAD /usr/bin/../lib/gcc/arm-none-eabi/4.8.4/../../../../arm-none-eabi/lib/armv7e-m/fpu/libc.a
LOAD build/obj/vectors.o
LOAD build/obj/chcore.o
LOAD build/obj/chcore_v7m.o
LOAD build/obj/chsys.o
LOAD build/obj/chdebug.o
LOAD build/obj/chtm.o
LOAD build/obj/chstats.o
LOAD build/obj/chschd.o
LOAD build/obj/chvt.o
LOAD build/obj/chthreads.o
LOAD build/obj/chdynamic.o
LOAD build/obj/chregistry.o
LOAD build/obj/chsem.o
LOAD build/obj/chmtx.o
LOAD build/obj/chcond.o
LOAD build/obj/chevents.o
LOAD build/obj/chmsg.o
LOAD build/obj/chmboxes.o
LOAD build/obj/chqueues.o
LOAD build/obj/chmemcore.o
LOAD build/obj/chheap.o
LOAD build/obj/chmempools.o
LOAD build/obj/test.o
LOAD build/obj/testthd.o
LOAD build/obj/testsem.o
LOAD build/obj/testmtx.o
LOAD build/obj/testmsg.o
LOAD build/obj/testmbox.o
LOAD build/obj/testevt.o
LOAD build/obj/testheap.o
LOAD build/obj/testpools.o
LOAD build/obj/testdyn.o
LOAD build/obj/testqueues.o
LOAD build/obj/testbmk.o
LOAD build/obj/hal.o
LOAD build/obj/hal_queues.o
LOAD build/obj/hal_mmcsd.o
LOAD build/obj/adc.o
LOAD build/obj/can.o
LOAD build/obj/dac.o
LOAD build/obj/ext.o
LOAD build/obj/gpt.o
LOAD build/obj/i2c.o
LOAD build/obj/i2s.o
LOAD build/obj/icu.o
LOAD build/obj/mac.o
LOAD build/obj/mmc_spi.o
LOAD build/obj/pal.o
LOAD build/obj/pwm.o
LOAD build/obj/rtc.o
LOAD build/obj/sdc.o
LOAD build/obj/serial.o
LOAD build/obj/serial_usb.o
LOAD build/obj/spi.o
LOAD build/obj/st.o
LOAD build/obj/uart.o
LOAD build/obj/usb.o
LOAD build/obj/osal.o
LOAD build/obj/nvic.o
LOAD build/obj/stm32_dma.o
LOAD build/obj/hal_lld.o
LOAD build/obj/adc_lld.o
LOAD build/obj/ext_lld_isr.o
LOAD build/obj/can_lld.o
LOAD build/obj/ext_lld.o
LOAD build/obj/mac_lld.o
LOAD build/obj/sdc_lld.o
LOAD build/obj/dac_lld.o
LOAD build/obj/pal_lld.o
LOAD build/obj/i2c_lld.o
LOAD build/obj/usb_lld.o
LOAD build/obj/rtc_lld.o
LOAD build/obj/i2s_lld.o
LOAD build/obj/spi_lld.o
LOAD build/obj/gpt_lld.o
LOAD build/obj/icu_lld.o
LOAD build/obj/pwm_lld.o
LOAD build/obj/st_lld.o
LOAD build/obj/serial_lld.o
LOAD build/obj/uart_lld.o
LOAD build/obj/board.o
LOAD build/obj/fatfs_diskio.o
LOAD build/obj/fatfs_syscall.o
LOAD build/obj/ff.o
LOAD build/obj/unicode.o
LOAD build/obj/chprintf.o
LOAD build/obj/memstreams.o
LOAD build/obj/gps.o
LOAD build/obj/sdmmcsimple.o
LOAD build/obj/datalogger.o
LOAD build/obj/main.o
                0x0000000020000000                __ram_start__ = ORIGIN (ram)
                0x0000000000018000                __ram_size__ = 0x18000
                0x0000000020018000                __ram_end__ = (__ram_start__ + __ram_size__)
                0x0000000000000000                . = 0x0
                0x0000000000000000                _text = .

startup         0x0000000008000000      0x1c0
 *(vectors)
 vectors        0x0000000008000000      0x1c0 /tmp/ccVkhsJg.ltrans6.ltrans.o
                0x0000000008000000                _vectors

constructors    0x00000000080001c0        0x0
                0x00000000080001c0                PROVIDE (__init_array_start, .)
 *(SORT(.init_array.*))
 *(.init_array)
                0x00000000080001c0                PROVIDE (__init_array_end, .)

destructors     0x00000000080001c0        0x0
                0x00000000080001c0                PROVIDE (__fini_array_start, .)
 *(.fini_array)
 *(SORT(.fini_array.*))
                0x00000000080001c0                PROVIDE (__fini_array_end, .)

.text           0x00000000080001c0     0x4c60
 *(.text.startup.*)
 .text.startup.main
                0x00000000080001c0      0xdc0 /tmp/ccVkhsJg.ltrans0.ltrans.o
                0x00000000080001c0                main
 *(.text)
 .text          0x0000000008000f80       0x2e build/obj/chcoreasm_v7m.o
                0x0000000008000f80                _port_switch
                0x0000000008000f98                _port_thread_start
                0x0000000008000fa6                _port_switch_from_isr
                0x0000000008000faa                _port_exit_from_isr
 *(.text.*)
 *fill*         0x0000000008000fae        0x2 
 .text.chIQGetTimeout.4403
                0x0000000008000fb0       0x50 /tmp/ccVkhsJg.ltrans1.ltrans.o
 .text.gett.10003
                0x0000000008001000       0x10 /tmp/ccVkhsJg.ltrans1.ltrans.o
                0x0000000008001000                gett.10003
 .text.get.10007
                0x0000000008001010       0x10 /tmp/ccVkhsJg.ltrans1.ltrans.o
                0x0000000008001010                get.10007
 .text.chIQReadTimeout.4431
                0x0000000008001020       0x80 /tmp/ccVkhsJg.ltrans1.ltrans.o
 .text.readt.9980
                0x00000000080010a0       0x10 /tmp/ccVkhsJg.ltrans1.ltrans.o
                0x00000000080010a0                readt.9980
 .text.read.9987
                0x00000000080010b0       0x10 /tmp/ccVkhsJg.ltrans1.ltrans.o
                0x00000000080010b0                read.9987
 .text.putt.10010
                0x00000000080010c0       0x10 /tmp/ccVkhsJg.ltrans1.ltrans.o
                0x00000000080010c0                putt.10010
 .text.put.10015
                0x00000000080010d0       0x10 /tmp/ccVkhsJg.ltrans1.ltrans.o
                0x00000000080010d0                put.10015
 .text.chThdSleep
                0x00000000080010e0       0x20 /tmp/ccVkhsJg.ltrans1.ltrans.o
                0x00000000080010e0                chThdSleep
 .text.wait.isra.1.9682.4372
                0x0000000008001100       0x40 /tmp/ccVkhsJg.ltrans1.ltrans.o
 .text.mmcSequentialWrite
                0x0000000008001140       0x80 /tmp/ccVkhsJg.ltrans1.ltrans.o
                0x0000000008001140                mmcSequentialWrite
 .text.send_hdr.9685.4367
                0x00000000080011c0       0x70 /tmp/ccVkhsJg.ltrans1.ltrans.o
 .text.mmcStartSequentialWrite
                0x0000000008001230       0x60 /tmp/ccVkhsJg.ltrans1.ltrans.o
                0x0000000008001230                mmcStartSequentialWrite
 .text.disk_write
                0x0000000008001290       0x80 /tmp/ccVkhsJg.ltrans1.ltrans.o
                0x0000000008001290                disk_write
 .text.sync_window.part.3.12312
                0x0000000008001310       0x60 /tmp/ccVkhsJg.ltrans1.ltrans.o
                0x0000000008001310                sync_window.part.3.12312
 .text.mmcStartSequentialRead.4340
                0x0000000008001370       0x60 /tmp/ccVkhsJg.ltrans1.ltrans.o
 .text.disk_read.constprop.37
                0x00000000080013d0       0x50 /tmp/ccVkhsJg.ltrans1.ltrans.o
                0x00000000080013d0                disk_read.constprop.37
 .text.move_window.12322
                0x0000000008001420       0x40 /tmp/ccVkhsJg.ltrans1.ltrans.o
                0x0000000008001420                move_window.12322
 .text.get_fat.part.6.12338
                0x0000000008001460       0xd0 /tmp/ccVkhsJg.ltrans1.ltrans.o
                0x0000000008001460                get_fat.part.6.12338
 .text.dir_sdi.12342.constprop.32
                0x0000000008001530       0x80 /tmp/ccVkhsJg.ltrans1.ltrans.o
                0x0000000008001530                dir_sdi.12342.constprop.32
 .text.check_fs.12329.4269
                0x00000000080015b0       0x90 /tmp/ccVkhsJg.ltrans1.ltrans.o
 .text.find_volume.12333
                0x0000000008001640      0x310 /tmp/ccVkhsJg.ltrans1.ltrans.o
                0x0000000008001640                find_volume.12333
 .text.f_mount  0x0000000008001950       0x60 /tmp/ccVkhsJg.ltrans1.ltrans.o
                0x0000000008001950                f_mount
 .text.mmc_read.9768
                0x00000000080019b0       0x40 /tmp/ccVkhsJg.ltrans1.ltrans.o
                0x00000000080019b0                mmc_read.9768
 .text.read_CxD.9701
                0x00000000080019f0       0xb0 /tmp/ccVkhsJg.ltrans1.ltrans.o
                0x00000000080019f0                read_CxD.9701
 .text.send_command_R1.9696
                0x0000000008001aa0       0x30 /tmp/ccVkhsJg.ltrans1.ltrans.o
                0x0000000008001aa0                send_command_R1.9696
 .text.send_command_R3.9690
                0x0000000008001ad0       0x40 /tmp/ccVkhsJg.ltrans1.ltrans.o
                0x0000000008001ad0                send_command_R3.9690
 .text.sync.isra.2.9709.4387
                0x0000000008001b10       0x40 /tmp/ccVkhsJg.ltrans1.ltrans.o
 .text.mmcSync  0x0000000008001b50       0x30 /tmp/ccVkhsJg.ltrans1.ltrans.o
                0x0000000008001b50                mmcSync
 .text.mmcDisconnect
                0x0000000008001b80       0x50 /tmp/ccVkhsJg.ltrans1.ltrans.o
                0x0000000008001b80                mmcDisconnect
 .text.mmc_lld_is_write_protected
                0x0000000008001bd0       0x10 /tmp/ccVkhsJg.ltrans2.ltrans.o
                0x0000000008001bd0                mmc_lld_is_write_protected
 .text.long_to_string_with_divisor.12556.constprop.52.4450
                0x0000000008001be0       0x50 /tmp/ccVkhsJg.ltrans2.ltrans.o
 .text.chvprintf.4435
                0x0000000008001c30      0x280 /tmp/ccVkhsJg.ltrans2.ltrans.o
 .text.anaSensorCallback.14049
                0x0000000008001eb0       0x20 /tmp/ccVkhsJg.ltrans2.ltrans.o
                0x0000000008001eb0                anaSensorCallback.14049
 .text.accCallback.14044
                0x0000000008001ed0       0x20 /tmp/ccVkhsJg.ltrans2.ltrans.o
                0x0000000008001ed0                accCallback.14044
 .text.gpsRxErr.12829
                0x0000000008001ef0       0x10 /tmp/ccVkhsJg.ltrans2.ltrans.o
                0x0000000008001ef0                gpsRxErr.12829
 .text.gpsRxEnd.12826
                0x0000000008001f00       0x10 /tmp/ccVkhsJg.ltrans2.ltrans.o
                0x0000000008001f00                gpsRxEnd.12826
 .text.gpsTxC.12823
                0x0000000008001f10       0x10 /tmp/ccVkhsJg.ltrans2.ltrans.o
                0x0000000008001f10                gpsTxC.12823
 .text.gpsTxbufEnd.12820
                0x0000000008001f20       0x10 /tmp/ccVkhsJg.ltrans2.ltrans.o
                0x0000000008001f20                gpsTxbufEnd.12820
 .text.mmc_lld_is_card_inserted
                0x0000000008001f30       0x10 /tmp/ccVkhsJg.ltrans2.ltrans.o
                0x0000000008001f30                mmc_lld_is_card_inserted
 .text.notify2.11528
                0x0000000008001f40       0x10 /tmp/ccVkhsJg.ltrans2.ltrans.o
                0x0000000008001f40                notify2.11528
 .text.VectorB0
                0x0000000008001f50       0x90 /tmp/ccVkhsJg.ltrans2.ltrans.o
                0x0000000008001f50                VectorB0
 .text.VectorD4
                0x0000000008001fe0       0x70 /tmp/ccVkhsJg.ltrans2.ltrans.o
                0x0000000008001fe0                VectorD4
 .text.spi_lld_serve_rx_interrupt.11222
                0x0000000008002050       0x90 /tmp/ccVkhsJg.ltrans2.ltrans.o
                0x0000000008002050                spi_lld_serve_rx_interrupt.11222
 .text.gpsRxChar.12842
                0x00000000080020e0       0x90 /tmp/ccVkhsJg.ltrans2.ltrans.o
                0x00000000080020e0                gpsRxChar.12842
 .text.chSchGoSleepTimeoutS
                0x0000000008002170       0xe0 /tmp/ccVkhsJg.ltrans2.ltrans.o
                0x0000000008002170                chSchGoSleepTimeoutS
 .text.chThdEnqueueTimeoutS
                0x0000000008002250       0x30 /tmp/ccVkhsJg.ltrans2.ltrans.o
                0x0000000008002250                chThdEnqueueTimeoutS
 .text.chOQPutTimeout
                0x0000000008002280       0x50 /tmp/ccVkhsJg.ltrans2.ltrans.o
                0x0000000008002280                chOQPutTimeout
 .text.chOQWriteTimeout.4262
                0x00000000080022d0       0x80 /tmp/ccVkhsJg.ltrans2.ltrans.o
 .text.writet.9992
                0x0000000008002350       0x10 /tmp/ccVkhsJg.ltrans2.ltrans.o
                0x0000000008002350                writet.9992
 .text.write.9998
                0x0000000008002360       0x10 /tmp/ccVkhsJg.ltrans2.ltrans.o
                0x0000000008002360                write.9998
 .text.disk_status
                0x0000000008002370       0x20 /tmp/ccVkhsJg.ltrans2.ltrans.o
                0x0000000008002370                disk_status
 .text.validate.12298
                0x0000000008002390       0x30 /tmp/ccVkhsJg.ltrans2.ltrans.o
                0x0000000008002390                validate.12298
 .text.chprintf.14054.constprop.51
                0x00000000080023c0       0x30 /tmp/ccVkhsJg.ltrans2.ltrans.o
                0x00000000080023c0                chprintf.14054.constprop.51
 .text.chprintf.13487
                0x00000000080023f0       0x20 /tmp/ccVkhsJg.ltrans2.ltrans.o
                0x00000000080023f0                chprintf.13487
 .text.chprintf.13127
                0x0000000008002410       0x20 /tmp/ccVkhsJg.ltrans2.ltrans.o
                0x0000000008002410                chprintf.13127
 .text.adc_lld_start_conversion.constprop.50
                0x0000000008002430       0x90 /tmp/ccVkhsJg.ltrans2.ltrans.o
                0x0000000008002430                adc_lld_start_conversion.constprop.50
 .text.chSchWakeupS.constprop.48
                0x00000000080024c0       0x60 /tmp/ccVkhsJg.ltrans2.ltrans.o
                0x00000000080024c0                chSchWakeupS.constprop.48
 .text.chMtxUnlock.constprop.47
                0x0000000008002520       0x80 /tmp/ccVkhsJg.ltrans2.ltrans.o
                0x0000000008002520                chMtxUnlock.constprop.47
 .text.spiSend  0x00000000080025a0       0x50 /tmp/ccVkhsJg.ltrans2.ltrans.o
                0x00000000080025a0                spiSend
 .text.spiReceive
                0x00000000080025f0       0x50 /tmp/ccVkhsJg.ltrans2.ltrans.o
                0x00000000080025f0                spiReceive
 .text.recvr1.isra.0.9675
                0x0000000008002640       0x30 /tmp/ccVkhsJg.ltrans2.ltrans.o
                0x0000000008002640                recvr1.isra.0.9675
 .text.spiIgnore
                0x0000000008002670       0x60 /tmp/ccVkhsJg.ltrans2.ltrans.o
                0x0000000008002670                spiIgnore
 .text.chTMStartMeasurementX.constprop.18
                0x00000000080026d0       0x10 /tmp/ccVkhsJg.ltrans2.ltrans.o
                0x00000000080026d0                chTMStartMeasurementX.constprop.18
 .text.gpsStrCpy.12836.constprop.1
                0x00000000080026e0       0x30 /tmp/ccVkhsJg.ltrans2.ltrans.o
                0x00000000080026e0                gpsStrCpy.12836.constprop.1
 .text.get_ldnumber.12295
                0x0000000008002710       0x40 /tmp/ccVkhsJg.ltrans2.ltrans.o
                0x0000000008002710                get_ldnumber.12295
 .text.usart_stop.11683
                0x0000000008002750       0x50 /tmp/ccVkhsJg.ltrans2.ltrans.o
                0x0000000008002750                usart_stop.11683
 .text.spiUnselect
                0x00000000080027a0       0x20 /tmp/ccVkhsJg.ltrans2.ltrans.o
                0x00000000080027a0                spiUnselect
 .text.mmcStopSequentialRead.part.7.9730
                0x00000000080027c0       0x30 /tmp/ccVkhsJg.ltrans2.ltrans.o
                0x00000000080027c0                mmcStopSequentialRead.part.7.9730
 .text.spiSelect
                0x00000000080027f0       0x20 /tmp/ccVkhsJg.ltrans2.ltrans.o
                0x00000000080027f0                spiSelect
 .text.spiStop  0x0000000008002810       0x50 /tmp/ccVkhsJg.ltrans2.ltrans.o
                0x0000000008002810                spiStop
 .text.mmcSequentialRead
                0x0000000008002860       0x60 /tmp/ccVkhsJg.ltrans2.ltrans.o
                0x0000000008002860                mmcSequentialRead
 .text.adc_lld_stop_conversion.4262
                0x00000000080028c0       0x40 /tmp/ccVkhsJg.ltrans3.ltrans.o
 .text.mmcGetInfo
                0x0000000008002900       0x20 /tmp/ccVkhsJg.ltrans3.ltrans.o
                0x0000000008002900                mmcGetInfo
 .text.chCoreAlloc
                0x0000000008002920       0x40 /tmp/ccVkhsJg.ltrans3.ltrans.o
                0x0000000008002920                chCoreAlloc
 .text.wakeup.4718
                0x0000000008002960       0x70 /tmp/ccVkhsJg.ltrans3.ltrans.o
                0x0000000008002960                wakeup.4718
 .text._idle_thread.4338
                0x00000000080029d0       0x20 /tmp/ccVkhsJg.ltrans3.ltrans.o
                0x00000000080029d0                _idle_thread.4338
 .text.SVC_Handler
                0x00000000080029f0       0x20 /tmp/ccVkhsJg.ltrans3.ltrans.o
                0x00000000080029f0                SVC_Handler
 .text._pal_lld_setgroupmode
                0x0000000008002a10       0xd0 /tmp/ccVkhsJg.ltrans3.ltrans.o
                0x0000000008002a10                _pal_lld_setgroupmode
 .text.dmaStreamRelease
                0x0000000008002ae0       0x70 /tmp/ccVkhsJg.ltrans3.ltrans.o
                0x0000000008002ae0                dmaStreamRelease
 .text.dmaStreamAllocate
                0x0000000008002b50       0xc0 /tmp/ccVkhsJg.ltrans3.ltrans.o
                0x0000000008002b50                dmaStreamAllocate
 .text.spiStart
                0x0000000008002c10       0xb0 /tmp/ccVkhsJg.ltrans3.ltrans.o
                0x0000000008002c10                spiStart
 .text.chSchDoRescheduleAhead
                0x0000000008002cc0       0x40 /tmp/ccVkhsJg.ltrans3.ltrans.o
                0x0000000008002cc0                chSchDoRescheduleAhead
 .text.chSchRescheduleS
                0x0000000008002d00       0x20 /tmp/ccVkhsJg.ltrans3.ltrans.o
                0x0000000008002d00                chSchRescheduleS
 .text.chSchGoSleepS
                0x0000000008002d20       0x30 /tmp/ccVkhsJg.ltrans3.ltrans.o
                0x0000000008002d20                chSchGoSleepS
 .text.chThdSuspendS
                0x0000000008002d50       0x30 /tmp/ccVkhsJg.ltrans3.ltrans.o
                0x0000000008002d50                chThdSuspendS
 .text._port_irq_epilogue
                0x0000000008002d80       0x70 /tmp/ccVkhsJg.ltrans3.ltrans.o
                0x0000000008002d80                _port_irq_epilogue
 .text.Vector158
                0x0000000008002df0       0x30 /tmp/ccVkhsJg.ltrans3.ltrans.o
                0x0000000008002df0                Vector158
 .text.Vector154
                0x0000000008002e20       0x30 /tmp/ccVkhsJg.ltrans3.ltrans.o
                0x0000000008002e20                Vector154
 .text.Vector150
                0x0000000008002e50       0x30 /tmp/ccVkhsJg.ltrans3.ltrans.o
                0x0000000008002e50                Vector150
 .text.Vector130
                0x0000000008002e80       0x30 /tmp/ccVkhsJg.ltrans3.ltrans.o
                0x0000000008002e80                Vector130
 .text.Vector12C
                0x0000000008002eb0       0x30 /tmp/ccVkhsJg.ltrans3.ltrans.o
                0x0000000008002eb0                Vector12C
 .text.Vector128
                0x0000000008002ee0       0x30 /tmp/ccVkhsJg.ltrans3.ltrans.o
                0x0000000008002ee0                Vector128
 .text.Vector124
                0x0000000008002f10       0x30 /tmp/ccVkhsJg.ltrans3.ltrans.o
                0x0000000008002f10                Vector124
 .text.Vector120
                0x0000000008002f40       0x30 /tmp/ccVkhsJg.ltrans3.ltrans.o
                0x0000000008002f40                Vector120
 .text.VectorFC
                0x0000000008002f70       0x30 /tmp/ccVkhsJg.ltrans3.ltrans.o
                0x0000000008002f70                VectorFC
 .text.Vector84
                0x0000000008002fa0       0x30 /tmp/ccVkhsJg.ltrans3.ltrans.o
                0x0000000008002fa0                Vector84
 .text.Vector80
                0x0000000008002fd0       0x30 /tmp/ccVkhsJg.ltrans3.ltrans.o
                0x0000000008002fd0                Vector80
 .text.Vector7C
                0x0000000008003000       0x30 /tmp/ccVkhsJg.ltrans3.ltrans.o
                0x0000000008003000                Vector7C
 .text.Vector78
                0x0000000008003030       0x30 /tmp/ccVkhsJg.ltrans3.ltrans.o
                0x0000000008003030                Vector78
 .text.Vector74
                0x0000000008003060       0x30 /tmp/ccVkhsJg.ltrans3.ltrans.o
                0x0000000008003060                Vector74
 .text.Vector70
                0x0000000008003090       0x30 /tmp/ccVkhsJg.ltrans3.ltrans.o
                0x0000000008003090                Vector70
 .text.Vector6C
                0x00000000080030c0       0x30 /tmp/ccVkhsJg.ltrans3.ltrans.o
                0x00000000080030c0                Vector6C
 .text.chSchReadyI
                0x00000000080030f0       0x30 /tmp/ccVkhsJg.ltrans3.ltrans.o
                0x00000000080030f0                chSchReadyI
 .text.chEvtBroadcastFlagsI
                0x0000000008003120       0x60 /tmp/ccVkhsJg.ltrans3.ltrans.o
                0x0000000008003120                chEvtBroadcastFlagsI
 .text.chMtxLockS
                0x0000000008003180       0xd0 /tmp/ccVkhsJg.ltrans3.ltrans.o
                0x0000000008003180                chMtxLockS
 .text.chThdResumeI
                0x0000000008003250       0x20 /tmp/ccVkhsJg.ltrans3.ltrans.o
                0x0000000008003250                chThdResumeI
 .text.Vector88
                0x0000000008003270       0x70 /tmp/ccVkhsJg.ltrans3.ltrans.o
                0x0000000008003270                Vector88
 .text.adc_lld_serve_rx_interrupt.10898
                0x00000000080032e0       0xd0 /tmp/ccVkhsJg.ltrans3.ltrans.o
                0x00000000080032e0                adc_lld_serve_rx_interrupt.10898
 .text.chTMStopMeasurementX
                0x00000000080033b0       0x50 /tmp/ccVkhsJg.ltrans3.ltrans.o
                0x00000000080033b0                chTMStopMeasurementX
 .text._unhandled_exception.4436
                0x0000000008003400       0x10 /tmp/ccVkhsJg.ltrans3.ltrans.o
                0x0000000008003400                Vector58
                0x0000000008003400                VectorE8
                0x0000000008003400                Vector9C
                0x0000000008003400                VectorAC
                0x0000000008003400                DebugMon_Handler
                0x0000000008003400                Vector1A0
                0x0000000008003400                Vector5C
                0x0000000008003400                Vector11C
                0x0000000008003400                HardFault_Handler
                0x0000000008003400                Vector1B8
                0x0000000008003400                Vector19C
                0x0000000008003400                Vector8C
                0x0000000008003400                SysTick_Handler
                0x0000000008003400                VectorDC
                0x0000000008003400                PendSV_Handler
                0x0000000008003400                Vector168
                0x0000000008003400                NMI_Handler
                0x0000000008003400                Vector110
                0x0000000008003400                VectorC8
                0x0000000008003400                Vector94
                0x0000000008003400                VectorA8
                0x0000000008003400                VectorB4
                0x0000000008003400                Vector160
                0x0000000008003400                Vector1B0
                0x0000000008003400                UsageFault_Handler
                0x0000000008003400                VectorEC
                0x0000000008003400                Vector40
                0x0000000008003400                VectorF8
                0x0000000008003400                Vector108
                0x0000000008003400                VectorBC
                0x0000000008003400                Vector190
                0x0000000008003400                Vector148
                0x0000000008003400                Vector188
                0x0000000008003400                Vector198
                0x0000000008003400                Vector118
                0x0000000008003400                Vector64
                0x0000000008003400                VectorCC
                0x0000000008003400                Vector54
                0x0000000008003400                Vector98
                0x0000000008003400                Vector138
                0x0000000008003400                Vector24
                0x0000000008003400                Vector1AC
                0x0000000008003400                Vector178
                0x0000000008003400                Vector1A4
                0x0000000008003400                VectorD0
                0x0000000008003400                Vector1B4
                0x0000000008003400                Vector140
                0x0000000008003400                VectorE4
                0x0000000008003400                VectorC0
                0x0000000008003400                Vector134
                0x0000000008003400                VectorF0
                0x0000000008003400                Vector13C
                0x0000000008003400                Vector100
                0x0000000008003400                VectorE0
                0x0000000008003400                VectorF4
                0x0000000008003400                MemManage_Handler
                0x0000000008003400                VectorA0
                0x0000000008003400                VectorC4
                0x0000000008003400                Vector180
                0x0000000008003400                Vector90
                0x0000000008003400                Vector114
                0x0000000008003400                Vector164
                0x0000000008003400                Vector60
                0x0000000008003400                Vector1C
                0x0000000008003400                Vector1BC
                0x0000000008003400                Vector17C
                0x0000000008003400                Vector48
                0x0000000008003400                Vector1A8
                0x0000000008003400                Vector16C
                0x0000000008003400                Vector4C
                0x0000000008003400                Vector144
                0x0000000008003400                Vector15C
                0x0000000008003400                Vector68
                0x0000000008003400                Vector170
                0x0000000008003400                Vector104
                0x0000000008003400                Vector184
                0x0000000008003400                Vector10C
                0x0000000008003400                Vector14C
                0x0000000008003400                BusFault_Handler
                0x0000000008003400                Vector50
                0x0000000008003400                Vector194
                0x0000000008003400                Vector44
                0x0000000008003400                Vector28
                0x0000000008003400                VectorB8
                0x0000000008003400                Vector34
                0x0000000008003400                VectorA4
                0x0000000008003400                Vector20
                0x0000000008003400                Vector18C
                0x0000000008003400                Vector174
 .text.spi_lld_serve_tx_interrupt.11218
                0x0000000008003410       0x20 /tmp/ccVkhsJg.ltrans4.ltrans.o
                0x0000000008003410                spi_lld_serve_tx_interrupt.11218
 .text.uart_lld_serve_rx_end_irq.11676
                0x0000000008003430       0x90 /tmp/ccVkhsJg.ltrans4.ltrans.o
                0x0000000008003430                uart_lld_serve_rx_end_irq.11676
 .text.uart_lld_serve_tx_end_irq.11672
                0x00000000080034c0       0x60 /tmp/ccVkhsJg.ltrans4.ltrans.o
                0x00000000080034c0                uart_lld_serve_tx_end_irq.11672
 .text.mmc_write.9785
                0x0000000008003520       0x60 /tmp/ccVkhsJg.ltrans4.ltrans.o
                0x0000000008003520                mmc_write.9785
 .text.VectorD8
                0x0000000008003580      0x1a0 /tmp/ccVkhsJg.ltrans4.ltrans.o
                0x0000000008003580                VectorD8
 .text.mmcConnect
                0x0000000008003720      0x160 /tmp/ccVkhsJg.ltrans4.ltrans.o
                0x0000000008003720                mmcConnect
 .text.gpsThread
                0x0000000008003880      0x320 /tmp/ccVkhsJg.ltrans4.ltrans.o
                0x0000000008003880                gpsThread
 .text.put_fat.part.8.12352.4133
                0x0000000008003ba0      0x100 /tmp/ccVkhsJg.ltrans5.ltrans.o
 .text.f_close  0x0000000008003ca0      0x160 /tmp/ccVkhsJg.ltrans5.ltrans.o
                0x0000000008003ca0                f_close
 .text.create_chain.12357
                0x0000000008003e00       0xd0 /tmp/ccVkhsJg.ltrans5.ltrans.o
                0x0000000008003e00                create_chain.12357
 .text.dir_next.12361.4100
                0x0000000008003ed0      0x140 /tmp/ccVkhsJg.ltrans5.ltrans.o
 .text.f_open   0x0000000008004010      0x450 /tmp/ccVkhsJg.ltrans5.ltrans.o
                0x0000000008004010                f_open
 .text.Reset_Handler
                0x0000000008004460      0x1b0 /tmp/ccVkhsJg.ltrans6.ltrans.o
                0x0000000008004460                Reset_Handler
 .text.chThdExit
                0x0000000008004610       0x50 /tmp/ccVkhsJg.ltrans6.ltrans.o
                0x0000000008004610                chThdExit
 .text.chSchDoReschedule
                0x0000000008004660       0x10 /tmp/ccVkhsJg.ltrans6.ltrans.o
                0x0000000008004660                chSchDoReschedule
 .text.strcpy   0x0000000008004670       0xbc /usr/bin/../lib/gcc/arm-none-eabi/4.8.4/../../../../arm-none-eabi/lib/armv7e-m/fpu/libc.a(lib_a-strcpy.o)
                0x0000000008004670                strcpy
 *fill*         0x000000000800472c        0x4 
 .text.strlen   0x0000000008004730       0x60 /usr/bin/../lib/gcc/arm-none-eabi/4.8.4/../../../../arm-none-eabi/lib/armv7e-m/fpu/libc.a(lib_a-strlen.o)
                0x0000000008004730                strlen
 .text.strncmp  0x0000000008004790       0xb4 /usr/bin/../lib/gcc/arm-none-eabi/4.8.4/../../../../arm-none-eabi/lib/armv7e-m/fpu/libc.a(lib_a-strncmp.o)
                0x0000000008004790                strncmp
 *(.rodata)
 *(.rodata.*)
 *fill*         0x0000000008004844        0xc 
 .rodata.vmt.10091.5117
                0x0000000008004850       0x20 /tmp/ccVkhsJg.ltrans0.ltrans.o
 .rodata.mmc_vmt.9814.5053
                0x0000000008004870       0x20 /tmp/ccVkhsJg.ltrans0.ltrans.o
 .rodata._stm32_dma_streams
                0x0000000008004890       0xc0 /tmp/ccVkhsJg.ltrans0.ltrans.o
 .rodata.ch_debug
                0x0000000008004950       0x18 /tmp/ccVkhsJg.ltrans0.ltrans.o
 *fill*         0x0000000008004968        0x8 
 .rodata.str1.4
                0x0000000008004970      0x24b /tmp/ccVkhsJg.ltrans0.ltrans.o
                                        0x250 (size before relaxing)
 *fill*         0x0000000008004bbb        0x5 
 .rodata.accelConvGrp.14135.5013
                0x0000000008004bc0       0x28 /tmp/ccVkhsJg.ltrans0.ltrans.o
 *fill*         0x0000000008004be8        0x8 
 .rodata.sensorConvGrp.14133.5015
                0x0000000008004bf0       0x28 /tmp/ccVkhsJg.ltrans0.ltrans.o
 *fill*         0x0000000008004c18        0x8 
 .rodata.crc7_lookup_table.9813.4510
                0x0000000008004c20      0x100 /tmp/ccVkhsJg.ltrans1.ltrans.o
 .rodata.start.7634.9812.4509
                0x0000000008004d20        0x4 /tmp/ccVkhsJg.ltrans1.ltrans.o
 *fill*         0x0000000008004d24        0xc 
 .rodata.stopcmd.7623.9810.4750
                0x0000000008004d30        0x8 /tmp/ccVkhsJg.ltrans2.ltrans.o
 *fill*         0x0000000008004d38        0x8 
 .rodata.str1.4
                0x0000000008004d40       0x14 /tmp/ccVkhsJg.ltrans2.ltrans.o
 *fill*         0x0000000008004d54        0xc 
 .rodata.str1.4
                0x0000000008004d60        0x5 /tmp/ccVkhsJg.ltrans3.ltrans.o
                                          0x8 (size before relaxing)
 *fill*         0x0000000008004d65        0xb 
 .rodata.stop.7640.9811
                0x0000000008004d70        0x4 /tmp/ccVkhsJg.ltrans4.ltrans.o
                0x0000000008004d70                stop.7640.9811
 *fill*         0x0000000008004d74        0xc 
 .rodata.str1.4
                0x0000000008004d80        0xc /tmp/ccVkhsJg.ltrans4.ltrans.o
                                         0x18 (size before relaxing)
 *fill*         0x0000000008004d8c        0x4 
 .rodata.ExCvt.12508.4168
                0x0000000008004d90       0x80 /tmp/ccVkhsJg.ltrans5.ltrans.o
 .rodata.str1.4
                0x0000000008004e10       0x10 /tmp/ccVkhsJg.ltrans5.ltrans.o
 *(.glue_7t)
 .glue_7t       0x0000000000000000        0x0 linker stubs
 *(.glue_7)
 .glue_7        0x0000000000000000        0x0 linker stubs
 *(.gcc*)

.vfp11_veneer   0x0000000008004e20        0x0
 .vfp11_veneer  0x0000000000000000        0x0 linker stubs

.v4_bx          0x0000000008004e20        0x0
 .v4_bx         0x0000000000000000        0x0 linker stubs

.iplt           0x0000000008004e20        0x0
 .iplt          0x0000000000000000        0x0 build/obj/chcoreasm_v7m.o

.rel.dyn        0x0000000008004e20        0x0
 .rel.iplt      0x0000000000000000        0x0 build/obj/chcoreasm_v7m.o

.ARM.extab
 *(.ARM.extab* .gnu.linkonce.armextab.*)

.ARM.exidx      0x0000000008004e20        0x0
                0x0000000008004e20                PROVIDE (__exidx_start, .)
 *(.ARM.exidx* .gnu.linkonce.armexidx.*)
                0x0000000008004e20                PROVIDE (__exidx_end, .)

.eh_frame_hdr
 *(.eh_frame_hdr)

.eh_frame
 *(.eh_frame)

.textalign      0x0000000008004e20        0x0
                0x0000000008004e20                . = ALIGN (0x8)
                0x0000000008004e20                . = ALIGN (0x4)
                0x0000000008004e20                _etext = .
                0x0000000008004e20                _textdata = _etext

.stacks         0x0000000020000000      0x800
                0x0000000020000000                . = ALIGN (0x8)
                0x0000000020000000                __main_stack_base__ = .
                0x0000000020000400                . = (. + __main_stack_size__)
 *fill*         0x0000000020000000      0x400 
                0x0000000020000400                . = ALIGN (0x8)
                0x0000000020000400                __main_stack_end__ = .
                0x0000000020000400                __process_stack_base__ = .
                0x0000000020000400                __main_thread_stack_base__ = .
                0x0000000020000800                . = (. + __process_stack_size__)
 *fill*         0x0000000020000400      0x400 
                0x0000000020000800                . = ALIGN (0x8)
                0x0000000020000800                __process_stack_end__ = .
                0x0000000020000800                __main_thread_stack_end__ = .

.data           0x0000000020000800       0x50 load address 0x0000000008004e20
                0x0000000020000800                . = ALIGN (0x4)
                0x0000000020000800                PROVIDE (_data, .)
 *(.data)
 *(.data.*)
 .data.mmcCfg.13264.4989
                0x0000000020000800        0xc /tmp/ccVkhsJg.ltrans0.ltrans.o
 .data.serGpsCfg.12908.4995
                0x000000002000080c       0x20 /tmp/ccVkhsJg.ltrans0.ltrans.o
 .data.serCfg.14131.4993
                0x000000002000082c        0xc /tmp/ccVkhsJg.ltrans0.ltrans.o
 .data.lsCfg.13266.4991
                0x0000000020000838        0xc /tmp/ccVkhsJg.ltrans0.ltrans.o
 .data.hsCfg.13267.4992
                0x0000000020000844        0xc /tmp/ccVkhsJg.ltrans0.ltrans.o
 *(.ramtext)
                0x0000000020000850                . = ALIGN (0x4)
                0x0000000020000850                PROVIDE (_edata, .)

.igot.plt       0x0000000020000850        0x0 load address 0x0000000008004e70
 .igot.plt      0x0000000000000000        0x0 build/obj/chcoreasm_v7m.o

.bss            0x0000000020000850     0x13f8
                0x0000000020000850                . = ALIGN (0x4)
                0x0000000020000850                PROVIDE (_bss_start, .)
 *(.bss)
 *(.bss.*)
 .bss.lFile.4985
                0x0000000020000850      0x224 /tmp/ccVkhsJg.ltrans0.ltrans.o
 .bss.nextmem.6820
                0x0000000020000a74        0x4 /tmp/ccVkhsJg.ltrans0.ltrans.o
                0x0000000020000a74                nextmem.6820
 .bss.SPID1     0x0000000020000a78       0x30 /tmp/ccVkhsJg.ltrans0.ltrans.o
                0x0000000020000a78                SPID1
 .bss.SD2       0x0000000020000aa8      0x458 /tmp/ccVkhsJg.ltrans0.ltrans.o
                0x0000000020000aa8                SD2
 .bss.sensorLog.14126.4983
                0x0000000020000f00       0x14 /tmp/ccVkhsJg.ltrans0.ltrans.o
 .bss.sd.14129.4986
                0x0000000020000f14       0x10 /tmp/ccVkhsJg.ltrans0.ltrans.o
 *fill*         0x0000000020000f24        0x4 
 .bss.default_heap.6947.5096
                0x0000000020000f28       0x20 /tmp/ccVkhsJg.ltrans0.ltrans.o
 .bss.accSamples.14136.5014
                0x0000000020000f48        0x8 /tmp/ccVkhsJg.ltrans0.ltrans.o
 .bss.waGps.14137.5011
                0x0000000020000f50      0x658 /tmp/ccVkhsJg.ltrans0.ltrans.o
 .bss.logger.14127.4984
                0x00000000200015a8       0x10 /tmp/ccVkhsJg.ltrans0.ltrans.o
 .bss.dma_isr_redir.10640
                0x00000000200015b8       0x80 /tmp/ccVkhsJg.ltrans0.ltrans.o
                0x00000000200015b8                dma_isr_redir.10640
 .bss.dummytx.11275
                0x0000000020001638        0x2 /tmp/ccVkhsJg.ltrans0.ltrans.o
                0x0000000020001638                dummytx.11275
 *fill*         0x000000002000163a        0x2 
 .bss.dma_streams_mask.10645
                0x000000002000163c        0x4 /tmp/ccVkhsJg.ltrans0.ltrans.o
                0x000000002000163c                dma_streams_mask.10645
 .bss.GPS.12909
                0x0000000020001640      0x128 /tmp/ccVkhsJg.ltrans0.ltrans.o
                0x0000000020001640                GPS.12909
 .bss._idle_thread_wa.4385.5095
                0x0000000020001768      0x160 /tmp/ccVkhsJg.ltrans0.ltrans.o
 .bss.DEBUG.13642.4973
                0x00000000200018c8        0x4 /tmp/ccVkhsJg.ltrans0.ltrans.o
 .bss.mainthread.6318.4386.4996
                0x00000000200018cc       0x44 /tmp/ccVkhsJg.ltrans0.ltrans.o
 .bss.serialPort.13268.4971
                0x0000000020001910        0x4 /tmp/ccVkhsJg.ltrans0.ltrans.o
 .bss.ADCD1     0x0000000020001914       0x34 /tmp/ccVkhsJg.ltrans0.ltrans.o
                0x0000000020001914                ADCD1
 .bss.SD.13269.4972
                0x0000000020001948        0x4 /tmp/ccVkhsJg.ltrans0.ltrans.o
 .bss.endmem.6822
                0x000000002000194c        0x4 /tmp/ccVkhsJg.ltrans0.ltrans.o
                0x000000002000194c                endmem.6822
 .bss.SENSORS.14139
                0x0000000020001950        0x8 /tmp/ccVkhsJg.ltrans0.ltrans.o
                0x0000000020001950                SENSORS.14139
 .bss.MMCD1     0x0000000020001958       0x34 /tmp/ccVkhsJg.ltrans0.ltrans.o
                0x0000000020001958                MMCD1
 .bss.sensorSamples.14134.5016
                0x000000002000198c        0x8 /tmp/ccVkhsJg.ltrans0.ltrans.o
 .bss.FS.13263.5052
                0x0000000020001994      0x230 /tmp/ccVkhsJg.ltrans0.ltrans.o
 .bss.UARTD1    0x0000000020001bc4       0x1c /tmp/ccVkhsJg.ltrans0.ltrans.o
                0x0000000020001bc4                UARTD1
 .bss.Fsid.12510.4505
                0x0000000020001be0        0x2 /tmp/ccVkhsJg.ltrans1.ltrans.o
 *fill*         0x0000000020001be2        0x2 
 .bss.FatFs.12509.4504
                0x0000000020001be4        0x4 /tmp/ccVkhsJg.ltrans1.ltrans.o
 .bss.ACC.14138.4704
                0x0000000020001be8        0x8 /tmp/ccVkhsJg.ltrans2.ltrans.o
 .bss.dummyrx.11277.4754
                0x0000000020001bf0        0x2 /tmp/ccVkhsJg.ltrans2.ltrans.o
 *fill*         0x0000000020001bf2        0x2 
 .bss.gpsSem    0x0000000020001bf4        0xc /tmp/ccVkhsJg.ltrans4.ltrans.o
                0x0000000020001bf4                gpsSem
 .bss.tokBuf.12910
                0x0000000020001c00       0x14 /tmp/ccVkhsJg.ltrans4.ltrans.o
                0x0000000020001c00                tokBuf.12910
 .bss.ch        0x0000000020001c14       0x34 /tmp/ccVkhsJg.ltrans6.ltrans.o
                0x0000000020001c14                ch
 *(COMMON)
                0x0000000020001c48                . = ALIGN (0x4)
                0x0000000020001c48                PROVIDE (_bss_end, .)
                0x0000000020001c48                PROVIDE (end, .)
                0x0000000020001c48                _end = .
                0x0000000020001c48                __heap_base__ = _end
                0x0000000020018000                __heap_end__ = __ram_end__
                0x0000000000000400                __process_stack_size__ = 0x400
                0x0000000000000400                __main_stack_size__ = 0x400
START GROUP
LOAD /usr/bin/../lib/gcc/arm-none-eabi/4.8.4/armv7e-m/fpu/libgcc.a
LOAD /usr/bin/../lib/gcc/arm-none-eabi/4.8.4/../../../../arm-none-eabi/lib/armv7e-m/fpu/libc.a
END GROUP
OUTPUT(build/aoss584Lab.elf elf32-littlearm)

.ARM.attributes
                0x0000000000000000       0x35
 .ARM.attributes
                0x0000000000000000       0x25 build/obj/chcoreasm_v7m.o
 .ARM.attributes
                0x0000000000000025       0x37 /tmp/ccVkhsJg.ltrans0.ltrans.o
 .ARM.attributes
                0x000000000000005c       0x37 /tmp/ccVkhsJg.ltrans1.ltrans.o
 .ARM.attributes
                0x0000000000000093       0x37 /tmp/ccVkhsJg.ltrans2.ltrans.o
 .ARM.attributes
                0x00000000000000ca       0x37 /tmp/ccVkhsJg.ltrans3.ltrans.o
 .ARM.attributes
                0x0000000000000101       0x37 /tmp/ccVkhsJg.ltrans4.ltrans.o
 .ARM.attributes
                0x0000000000000138       0x37 /tmp/ccVkhsJg.ltrans5.ltrans.o
 .ARM.attributes
                0x000000000000016f       0x37 /tmp/ccVkhsJg.ltrans6.ltrans.o
 .ARM.attributes
                0x00000000000001a6       0x34 /usr/bin/../lib/gcc/arm-none-eabi/4.8.4/../../../../arm-none-eabi/lib/armv7e-m/fpu/libc.a(lib_a-strcpy.o)
 .ARM.attributes
                0x00000000000001da       0x34 /usr/bin/../lib/gcc/arm-none-eabi/4.8.4/../../../../arm-none-eabi/lib/armv7e-m/fpu/libc.a(lib_a-strlen.o)
 .ARM.attributes
                0x000000000000020e       0x34 /usr/bin/../lib/gcc/arm-none-eabi/4.8.4/../../../../arm-none-eabi/lib/armv7e-m/fpu/libc.a(lib_a-strncmp.o)

.comment        0x0000000000000000       0x70
 .comment       0x0000000000000000       0x70 /tmp/ccVkhsJg.ltrans0.ltrans.o
                                         0x71 (size before relaxing)
 .comment       0x0000000000000000       0x71 /tmp/ccVkhsJg.ltrans1.ltrans.o
 .comment       0x0000000000000000       0x71 /tmp/ccVkhsJg.ltrans2.ltrans.o
 .comment       0x0000000000000000       0x71 /tmp/ccVkhsJg.ltrans3.ltrans.o
 .comment       0x0000000000000000       0x71 /tmp/ccVkhsJg.ltrans4.ltrans.o
 .comment       0x0000000000000000       0x71 /tmp/ccVkhsJg.ltrans5.ltrans.o
 .comment       0x0000000000000000       0x71 /tmp/ccVkhsJg.ltrans6.ltrans.o

.debug_frame    0x0000000000000000       0x68
 .debug_frame   0x0000000000000000       0x20 /usr/bin/../lib/gcc/arm-none-eabi/4.8.4/../../../../arm-none-eabi/lib/armv7e-m/fpu/libc.a(lib_a-strcpy.o)
 .debug_frame   0x0000000000000020       0x20 /usr/bin/../lib/gcc/arm-none-eabi/4.8.4/../../../../arm-none-eabi/lib/armv7e-m/fpu/libc.a(lib_a-strlen.o)
 .debug_frame   0x0000000000000040       0x28 /usr/bin/../lib/gcc/arm-none-eabi/4.8.4/../../../../arm-none-eabi/lib/armv7e-m/fpu/libc.a(lib_a-strncmp.o)

Cross Reference Table

Symbol                                            File
ADCD1                                             /tmp/ccVkhsJg.ltrans0.ltrans.o
                                                  /tmp/ccVkhsJg.ltrans3.ltrans.o
BusFault_Handler                                  /tmp/ccVkhsJg.ltrans3.ltrans.o
                                                  /tmp/ccVkhsJg.ltrans6.ltrans.o
DebugMon_Handler                                  /tmp/ccVkhsJg.ltrans3.ltrans.o
                                                  /tmp/ccVkhsJg.ltrans6.ltrans.o
GPS.12909                                         /tmp/ccVkhsJg.ltrans0.ltrans.o
                                                  /tmp/ccVkhsJg.ltrans4.ltrans.o
                                                  /tmp/ccVkhsJg.ltrans2.ltrans.o
HardFault_Handler                                 /tmp/ccVkhsJg.ltrans3.ltrans.o
                                                  /tmp/ccVkhsJg.ltrans6.ltrans.o
MMCD1                                             /tmp/ccVkhsJg.ltrans0.ltrans.o
                                                  /tmp/ccVkhsJg.ltrans2.ltrans.o
                                                  /tmp/ccVkhsJg.ltrans1.ltrans.o
MemManage_Handler                                 /tmp/ccVkhsJg.ltrans3.ltrans.o
                                                  /tmp/ccVkhsJg.ltrans6.ltrans.o
NMI_Handler                                       /tmp/ccVkhsJg.ltrans3.ltrans.o
                                                  /tmp/ccVkhsJg.ltrans6.ltrans.o
PendSV_Handler                                    /tmp/ccVkhsJg.ltrans3.ltrans.o
                                                  /tmp/ccVkhsJg.ltrans6.ltrans.o
Reset_Handler                                     /tmp/ccVkhsJg.ltrans6.ltrans.o
SD2                                               /tmp/ccVkhsJg.ltrans0.ltrans.o
                                                  /tmp/ccVkhsJg.ltrans4.ltrans.o
                                                  /tmp/ccVkhsJg.ltrans2.ltrans.o
SENSORS.14139                                     /tmp/ccVkhsJg.ltrans0.ltrans.o
                                                  /tmp/ccVkhsJg.ltrans2.ltrans.o
SPID1                                             /tmp/ccVkhsJg.ltrans0.ltrans.o
                                                  /tmp/ccVkhsJg.ltrans3.ltrans.o
                                                  /tmp/ccVkhsJg.ltrans2.ltrans.o
SVC_Handler                                       /tmp/ccVkhsJg.ltrans3.ltrans.o
                                                  /tmp/ccVkhsJg.ltrans6.ltrans.o
SysTick_Handler                                   /tmp/ccVkhsJg.ltrans3.ltrans.o
                                                  /tmp/ccVkhsJg.ltrans6.ltrans.o
UARTD1                                            /tmp/ccVkhsJg.ltrans0.ltrans.o
                                                  /tmp/ccVkhsJg.ltrans4.ltrans.o
                                                  /tmp/ccVkhsJg.ltrans2.ltrans.o
UsageFault_Handler                                /tmp/ccVkhsJg.ltrans3.ltrans.o
                                                  /tmp/ccVkhsJg.ltrans6.ltrans.o
Vector100                                         /tmp/ccVkhsJg.ltrans3.ltrans.o
                                                  /tmp/ccVkhsJg.ltrans6.ltrans.o
Vector104                                         /tmp/ccVkhsJg.ltrans3.ltrans.o
                                                  /tmp/ccVkhsJg.ltrans6.ltrans.o
Vector108                                         /tmp/ccVkhsJg.ltrans3.ltrans.o
                                                  /tmp/ccVkhsJg.ltrans6.ltrans.o
Vector10C                                         /tmp/ccVkhsJg.ltrans3.ltrans.o
                                                  /tmp/ccVkhsJg.ltrans6.ltrans.o
Vector110                                         /tmp/ccVkhsJg.ltrans3.ltrans.o
                                                  /tmp/ccVkhsJg.ltrans6.ltrans.o
Vector114                                         /tmp/ccVkhsJg.ltrans3.ltrans.o
                                                  /tmp/ccVkhsJg.ltrans6.ltrans.o
Vector118                                         /tmp/ccVkhsJg.ltrans3.ltrans.o
                                                  /tmp/ccVkhsJg.ltrans6.ltrans.o
Vector11C                                         /tmp/ccVkhsJg.ltrans3.ltrans.o
                                                  /tmp/ccVkhsJg.ltrans6.ltrans.o
Vector120                                         /tmp/ccVkhsJg.ltrans3.ltrans.o
                                                  /tmp/ccVkhsJg.ltrans6.ltrans.o
Vector124                                         /tmp/ccVkhsJg.ltrans3.ltrans.o
                                                  /tmp/ccVkhsJg.ltrans6.ltrans.o
Vector128                                         /tmp/ccVkhsJg.ltrans3.ltrans.o
                                                  /tmp/ccVkhsJg.ltrans6.ltrans.o
Vector12C                                         /tmp/ccVkhsJg.ltrans3.ltrans.o
                                                  /tmp/ccVkhsJg.ltrans6.ltrans.o
Vector130                                         /tmp/ccVkhsJg.ltrans3.ltrans.o
                                                  /tmp/ccVkhsJg.ltrans6.ltrans.o
Vector134                                         /tmp/ccVkhsJg.ltrans3.ltrans.o
                                                  /tmp/ccVkhsJg.ltrans6.ltrans.o
Vector138                                         /tmp/ccVkhsJg.ltrans3.ltrans.o
                                                  /tmp/ccVkhsJg.ltrans6.ltrans.o
Vector13C                                         /tmp/ccVkhsJg.ltrans3.ltrans.o
                                                  /tmp/ccVkhsJg.ltrans6.ltrans.o
Vector140                                         /tmp/ccVkhsJg.ltrans3.ltrans.o
                                                  /tmp/ccVkhsJg.ltrans6.ltrans.o
Vector144                                         /tmp/ccVkhsJg.ltrans3.ltrans.o
                                                  /tmp/ccVkhsJg.ltrans6.ltrans.o
Vector148                                         /tmp/ccVkhsJg.ltrans3.ltrans.o
                                                  /tmp/ccVkhsJg.ltrans6.ltrans.o
Vector14C                                         /tmp/ccVkhsJg.ltrans3.ltrans.o
                                                  /tmp/ccVkhsJg.ltrans6.ltrans.o
Vector150                                         /tmp/ccVkhsJg.ltrans3.ltrans.o
                                                  /tmp/ccVkhsJg.ltrans6.ltrans.o
Vector154                                         /tmp/ccVkhsJg.ltrans3.ltrans.o
                                                  /tmp/ccVkhsJg.ltrans6.ltrans.o
Vector158                                         /tmp/ccVkhsJg.ltrans3.ltrans.o
                                                  /tmp/ccVkhsJg.ltrans6.ltrans.o
Vector15C                                         /tmp/ccVkhsJg.ltrans3.ltrans.o
                                                  /tmp/ccVkhsJg.ltrans6.ltrans.o
Vector160                                         /tmp/ccVkhsJg.ltrans3.ltrans.o
                                                  /tmp/ccVkhsJg.ltrans6.ltrans.o
Vector164                                         /tmp/ccVkhsJg.ltrans3.ltrans.o
                                                  /tmp/ccVkhsJg.ltrans6.ltrans.o
Vector168                                         /tmp/ccVkhsJg.ltrans3.ltrans.o
                                                  /tmp/ccVkhsJg.ltrans6.ltrans.o
Vector16C                                         /tmp/ccVkhsJg.ltrans3.ltrans.o
                                                  /tmp/ccVkhsJg.ltrans6.ltrans.o
Vector170                                         /tmp/ccVkhsJg.ltrans3.ltrans.o
                                                  /tmp/ccVkhsJg.ltrans6.ltrans.o
Vector174                                         /tmp/ccVkhsJg.ltrans3.ltrans.o
                                                  /tmp/ccVkhsJg.ltrans6.ltrans.o
Vector178                                         /tmp/ccVkhsJg.ltrans3.ltrans.o
                                                  /tmp/ccVkhsJg.ltrans6.ltrans.o
Vector17C                                         /tmp/ccVkhsJg.ltrans3.ltrans.o
                                                  /tmp/ccVkhsJg.ltrans6.ltrans.o
Vector180                                         /tmp/ccVkhsJg.ltrans3.ltrans.o
                                                  /tmp/ccVkhsJg.ltrans6.ltrans.o
Vector184                                         /tmp/ccVkhsJg.ltrans3.ltrans.o
                                                  /tmp/ccVkhsJg.ltrans6.ltrans.o
Vector188                                         /tmp/ccVkhsJg.ltrans3.ltrans.o
                                                  /tmp/ccVkhsJg.ltrans6.ltrans.o
Vector18C                                         /tmp/ccVkhsJg.ltrans3.ltrans.o
                                                  /tmp/ccVkhsJg.ltrans6.ltrans.o
Vector190                                         /tmp/ccVkhsJg.ltrans3.ltrans.o
                                                  /tmp/ccVkhsJg.ltrans6.ltrans.o
Vector194                                         /tmp/ccVkhsJg.ltrans3.ltrans.o
                                                  /tmp/ccVkhsJg.ltrans6.ltrans.o
Vector198                                         /tmp/ccVkhsJg.ltrans3.ltrans.o
                                                  /tmp/ccVkhsJg.ltrans6.ltrans.o
Vector19C                                         /tmp/ccVkhsJg.ltrans3.ltrans.o
                                                  /tmp/ccVkhsJg.ltrans6.ltrans.o
Vector1A0                                         /tmp/ccVkhsJg.ltrans3.ltrans.o
                                                  /tmp/ccVkhsJg.ltrans6.ltrans.o
Vector1A4                                         /tmp/ccVkhsJg.ltrans3.ltrans.o
                                                  /tmp/ccVkhsJg.ltrans6.ltrans.o
Vector1A8                                         /tmp/ccVkhsJg.ltrans3.ltrans.o
                                                  /tmp/ccVkhsJg.ltrans6.ltrans.o
Vector1AC                                         /tmp/ccVkhsJg.ltrans3.ltrans.o
                                                  /tmp/ccVkhsJg.ltrans6.ltrans.o
Vector1B0                                         /tmp/ccVkhsJg.ltrans3.ltrans.o
                                                  /tmp/ccVkhsJg.ltrans6.ltrans.o
Vector1B4                                         /tmp/ccVkhsJg.ltrans3.ltrans.o
                                                  /tmp/ccVkhsJg.ltrans6.ltrans.o
Vector1B8                                         /tmp/ccVkhsJg.ltrans3.ltrans.o
                                                  /tmp/ccVkhsJg.ltrans6.ltrans.o
Vector1BC                                         /tmp/ccVkhsJg.ltrans3.ltrans.o
                                                  /tmp/ccVkhsJg.ltrans6.ltrans.o
Vector1C                                          /tmp/ccVkhsJg.ltrans3.ltrans.o
                                                  /tmp/ccVkhsJg.ltrans6.ltrans.o
Vector20                                          /tmp/ccVkhsJg.ltrans3.ltrans.o
                                                  /tmp/ccVkhsJg.ltrans6.ltrans.o
Vector24                                          /tmp/ccVkhsJg.ltrans3.ltrans.o
                                                  /tmp/ccVkhsJg.ltrans6.ltrans.o
Vector28                                          /tmp/ccVkhsJg.ltrans3.ltrans.o
                                                  /tmp/ccVkhsJg.ltrans6.ltrans.o
Vector34                                          /tmp/ccVkhsJg.ltrans3.ltrans.o
                                                  /tmp/ccVkhsJg.ltrans6.ltrans.o
Vector40                                          /tmp/ccVkhsJg.ltrans3.ltrans.o
                                                  /tmp/ccVkhsJg.ltrans6.ltrans.o
Vector44                                          /tmp/ccVkhsJg.ltrans3.ltrans.o
                                                  /tmp/ccVkhsJg.ltrans6.ltrans.o
Vector48                                          /tmp/ccVkhsJg.ltrans3.ltrans.o
                                                  /tmp/ccVkhsJg.ltrans6.ltrans.o
Vector4C                                          /tmp/ccVkhsJg.ltrans3.ltrans.o
                                                  /tmp/ccVkhsJg.ltrans6.ltrans.o
Vector50                                          /tmp/ccVkhsJg.ltrans3.ltrans.o
                                                  /tmp/ccVkhsJg.ltrans6.ltrans.o
Vector54                                          /tmp/ccVkhsJg.ltrans3.ltrans.o
                                                  /tmp/ccVkhsJg.ltrans6.ltrans.o
Vector58                                          /tmp/ccVkhsJg.ltrans3.ltrans.o
                                                  /tmp/ccVkhsJg.ltrans6.ltrans.o
Vector5C                                          /tmp/ccVkhsJg.ltrans3.ltrans.o
                                                  /tmp/ccVkhsJg.ltrans6.ltrans.o
Vector60                                          /tmp/ccVkhsJg.ltrans3.ltrans.o
                                                  /tmp/ccVkhsJg.ltrans6.ltrans.o
Vector64                                          /tmp/ccVkhsJg.ltrans3.ltrans.o
                                                  /tmp/ccVkhsJg.ltrans6.ltrans.o
Vector68                                          /tmp/ccVkhsJg.ltrans3.ltrans.o
                                                  /tmp/ccVkhsJg.ltrans6.ltrans.o
Vector6C                                          /tmp/ccVkhsJg.ltrans3.ltrans.o
                                                  /tmp/ccVkhsJg.ltrans6.ltrans.o
Vector70                                          /tmp/ccVkhsJg.ltrans3.ltrans.o
                                                  /tmp/ccVkhsJg.ltrans6.ltrans.o
Vector74                                          /tmp/ccVkhsJg.ltrans3.ltrans.o
                                                  /tmp/ccVkhsJg.ltrans6.ltrans.o
Vector78                                          /tmp/ccVkhsJg.ltrans3.ltrans.o
                                                  /tmp/ccVkhsJg.ltrans6.ltrans.o
Vector7C                                          /tmp/ccVkhsJg.ltrans3.ltrans.o
                                                  /tmp/ccVkhsJg.ltrans6.ltrans.o
Vector80                                          /tmp/ccVkhsJg.ltrans3.ltrans.o
                                                  /tmp/ccVkhsJg.ltrans6.ltrans.o
Vector84                                          /tmp/ccVkhsJg.ltrans3.ltrans.o
                                                  /tmp/ccVkhsJg.ltrans6.ltrans.o
Vector88                                          /tmp/ccVkhsJg.ltrans3.ltrans.o
                                                  /tmp/ccVkhsJg.ltrans6.ltrans.o
Vector8C                                          /tmp/ccVkhsJg.ltrans3.ltrans.o
                                                  /tmp/ccVkhsJg.ltrans6.ltrans.o
Vector90                                          /tmp/ccVkhsJg.ltrans3.ltrans.o
                                                  /tmp/ccVkhsJg.ltrans6.ltrans.o
Vector94                                          /tmp/ccVkhsJg.ltrans3.ltrans.o
                                                  /tmp/ccVkhsJg.ltrans6.ltrans.o
Vector98                                          /tmp/ccVkhsJg.ltrans3.ltrans.o
                                                  /tmp/ccVkhsJg.ltrans6.ltrans.o
Vector9C                                          /tmp/ccVkhsJg.ltrans3.ltrans.o
                                                  /tmp/ccVkhsJg.ltrans6.ltrans.o
VectorA0                                          /tmp/ccVkhsJg.ltrans3.ltrans.o
                                                  /tmp/ccVkhsJg.ltrans6.ltrans.o
VectorA4                                          /tmp/ccVkhsJg.ltrans3.ltrans.o
                                                  /tmp/ccVkhsJg.ltrans6.ltrans.o
VectorA8                                          /tmp/ccVkhsJg.ltrans3.ltrans.o
                                                  /tmp/ccVkhsJg.ltrans6.ltrans.o
VectorAC                                          /tmp/ccVkhsJg.ltrans3.ltrans.o
                                                  /tmp/ccVkhsJg.ltrans6.ltrans.o
VectorB0                                          /tmp/ccVkhsJg.ltrans2.ltrans.o
                                                  /tmp/ccVkhsJg.ltrans6.ltrans.o
VectorB4                                          /tmp/ccVkhsJg.ltrans3.ltrans.o
                                                  /tmp/ccVkhsJg.ltrans6.ltrans.o
VectorB8                                          /tmp/ccVkhsJg.ltrans3.ltrans.o
                                                  /tmp/ccVkhsJg.ltrans6.ltrans.o
VectorBC                                          /tmp/ccVkhsJg.ltrans3.ltrans.o
                                                  /tmp/ccVkhsJg.ltrans6.ltrans.o
VectorC0                                          /tmp/ccVkhsJg.ltrans3.ltrans.o
                                                  /tmp/ccVkhsJg.ltrans6.ltrans.o
VectorC4                                          /tmp/ccVkhsJg.ltrans3.ltrans.o
                                                  /tmp/ccVkhsJg.ltrans6.ltrans.o
VectorC8                                          /tmp/ccVkhsJg.ltrans3.ltrans.o
                                                  /tmp/ccVkhsJg.ltrans6.ltrans.o
VectorCC                                          /tmp/ccVkhsJg.ltrans3.ltrans.o
                                                  /tmp/ccVkhsJg.ltrans6.ltrans.o
VectorD0                                          /tmp/ccVkhsJg.ltrans3.ltrans.o
                                                  /tmp/ccVkhsJg.ltrans6.ltrans.o
VectorD4                                          /tmp/ccVkhsJg.ltrans2.ltrans.o
                                                  /tmp/ccVkhsJg.ltrans6.ltrans.o
VectorD8                                          /tmp/ccVkhsJg.ltrans4.ltrans.o
                                                  /tmp/ccVkhsJg.ltrans6.ltrans.o
VectorDC                                          /tmp/ccVkhsJg.ltrans3.ltrans.o
                                                  /tmp/ccVkhsJg.ltrans6.ltrans.o
VectorE0                                          /tmp/ccVkhsJg.ltrans3.ltrans.o
                                                  /tmp/ccVkhsJg.ltrans6.ltrans.o
VectorE4                                          /tmp/ccVkhsJg.ltrans3.ltrans.o
                                                  /tmp/ccVkhsJg.ltrans6.ltrans.o
VectorE8                                          /tmp/ccVkhsJg.ltrans3.ltrans.o
                                                  /tmp/ccVkhsJg.ltrans6.ltrans.o
VectorEC                                          /tmp/ccVkhsJg.ltrans3.ltrans.o
                                                  /tmp/ccVkhsJg.ltrans6.ltrans.o
VectorF0                                          /tmp/ccVkhsJg.ltrans3.ltrans.o
                                                  /tmp/ccVkhsJg.ltrans6.ltrans.o
VectorF4                                          /tmp/ccVkhsJg.ltrans3.ltrans.o
                                                  /tmp/ccVkhsJg.ltrans6.ltrans.o
VectorF8                                          /tmp/ccVkhsJg.ltrans3.ltrans.o
                                                  /tmp/ccVkhsJg.ltrans6.ltrans.o
VectorFC                                          /tmp/ccVkhsJg.ltrans3.ltrans.o
                                                  /tmp/ccVkhsJg.ltrans6.ltrans.o
__heap_base__                                     /tmp/ccVkhsJg.ltrans0.ltrans.o
__heap_end__                                      /tmp/ccVkhsJg.ltrans0.ltrans.o
__init_array_end                                  /tmp/ccVkhsJg.ltrans6.ltrans.o
__init_array_start                                /tmp/ccVkhsJg.ltrans6.ltrans.o
__main_stack_base__                               /tmp/ccVkhsJg.ltrans6.ltrans.o
__main_stack_end__                                /tmp/ccVkhsJg.ltrans6.ltrans.o
__process_stack_base__                            /tmp/ccVkhsJg.ltrans6.ltrans.o
__process_stack_end__                             /tmp/ccVkhsJg.ltrans6.ltrans.o
_bss_end                                          /tmp/ccVkhsJg.ltrans6.ltrans.o
_bss_start                                        /tmp/ccVkhsJg.ltrans6.ltrans.o
_data                                             /tmp/ccVkhsJg.ltrans6.ltrans.o
_edata                                            /tmp/ccVkhsJg.ltrans6.ltrans.o
_idle_thread.4338                                 /tmp/ccVkhsJg.ltrans3.ltrans.o
                                                  /tmp/ccVkhsJg.ltrans0.ltrans.o
_pal_lld_setgroupmode                             /tmp/ccVkhsJg.ltrans3.ltrans.o
                                                  /tmp/ccVkhsJg.ltrans0.ltrans.o
_port_exit_from_isr                               build/obj/chcoreasm_v7m.o
                                                  /tmp/ccVkhsJg.ltrans3.ltrans.o
_port_irq_epilogue                                /tmp/ccVkhsJg.ltrans3.ltrans.o
                                                  /tmp/ccVkhsJg.ltrans4.ltrans.o
                                                  /tmp/ccVkhsJg.ltrans2.ltrans.o
_port_switch                                      build/obj/chcoreasm_v7m.o
                                                  /tmp/ccVkhsJg.ltrans3.ltrans.o
                                                  /tmp/ccVkhsJg.ltrans2.ltrans.o
_port_switch_from_isr                             build/obj/chcoreasm_v7m.o
                                                  /tmp/ccVkhsJg.ltrans3.ltrans.o
_port_thread_start                                build/obj/chcoreasm_v7m.o
                                                  /tmp/ccVkhsJg.ltrans0.ltrans.o
_textdata                                         /tmp/ccVkhsJg.ltrans6.ltrans.o
_vectors                                          /tmp/ccVkhsJg.ltrans6.ltrans.o
accCallback.14044                                 /tmp/ccVkhsJg.ltrans2.ltrans.o
                                                  /tmp/ccVkhsJg.ltrans0.ltrans.o
adc_lld_serve_rx_interrupt.10898                  /tmp/ccVkhsJg.ltrans3.ltrans.o
                                                  /tmp/ccVkhsJg.ltrans0.ltrans.o
adc_lld_start_conversion.constprop.50             /tmp/ccVkhsJg.ltrans2.ltrans.o
                                                  /tmp/ccVkhsJg.ltrans0.ltrans.o
anaSensorCallback.14049                           /tmp/ccVkhsJg.ltrans2.ltrans.o
                                                  /tmp/ccVkhsJg.ltrans0.ltrans.o
ch                                                /tmp/ccVkhsJg.ltrans6.ltrans.o
                                                  /tmp/ccVkhsJg.ltrans4.ltrans.o
                                                  /tmp/ccVkhsJg.ltrans3.ltrans.o
                                                  /tmp/ccVkhsJg.ltrans2.ltrans.o
                                                  /tmp/ccVkhsJg.ltrans0.ltrans.o
chCoreAlloc                                       /tmp/ccVkhsJg.ltrans3.ltrans.o
                                                  /tmp/ccVkhsJg.ltrans0.ltrans.o
chEvtBroadcastFlagsI                              /tmp/ccVkhsJg.ltrans3.ltrans.o
                                                  /tmp/ccVkhsJg.ltrans4.ltrans.o
chMtxLockS                                        /tmp/ccVkhsJg.ltrans3.ltrans.o
                                                  /tmp/ccVkhsJg.ltrans4.ltrans.o
                                                  /tmp/ccVkhsJg.ltrans0.ltrans.o
chMtxUnlock.constprop.47                          /tmp/ccVkhsJg.ltrans2.ltrans.o
                                                  /tmp/ccVkhsJg.ltrans4.ltrans.o
                                                  /tmp/ccVkhsJg.ltrans0.ltrans.o
chOQPutTimeout                                    /tmp/ccVkhsJg.ltrans2.ltrans.o
                                                  /tmp/ccVkhsJg.ltrans1.ltrans.o
chSchDoReschedule                                 /tmp/ccVkhsJg.ltrans6.ltrans.o
                                                  build/obj/chcoreasm_v7m.o
chSchDoRescheduleAhead                            /tmp/ccVkhsJg.ltrans3.ltrans.o
                                                  /tmp/ccVkhsJg.ltrans6.ltrans.o
chSchGoSleepS                                     /tmp/ccVkhsJg.ltrans3.ltrans.o
                                                  /tmp/ccVkhsJg.ltrans6.ltrans.o
                                                  /tmp/ccVkhsJg.ltrans4.ltrans.o
                                                  /tmp/ccVkhsJg.ltrans2.ltrans.o
chSchGoSleepTimeoutS                              /tmp/ccVkhsJg.ltrans2.ltrans.o
                                                  /tmp/ccVkhsJg.ltrans1.ltrans.o
chSchReadyI                                       /tmp/ccVkhsJg.ltrans3.ltrans.o
                                                  /tmp/ccVkhsJg.ltrans6.ltrans.o
                                                  /tmp/ccVkhsJg.ltrans4.ltrans.o
                                                  /tmp/ccVkhsJg.ltrans2.ltrans.o
chSchRescheduleS                                  /tmp/ccVkhsJg.ltrans3.ltrans.o
                                                  /tmp/ccVkhsJg.ltrans4.ltrans.o
                                                  /tmp/ccVkhsJg.ltrans2.ltrans.o
chSchWakeupS.constprop.48                         /tmp/ccVkhsJg.ltrans2.ltrans.o
                                                  /tmp/ccVkhsJg.ltrans0.ltrans.o
chTMStartMeasurementX.constprop.18                /tmp/ccVkhsJg.ltrans2.ltrans.o
                                                  /tmp/ccVkhsJg.ltrans0.ltrans.o
chTMStopMeasurementX                              /tmp/ccVkhsJg.ltrans3.ltrans.o
                                                  /tmp/ccVkhsJg.ltrans0.ltrans.o
chThdEnqueueTimeoutS                              /tmp/ccVkhsJg.ltrans2.ltrans.o
                                                  /tmp/ccVkhsJg.ltrans1.ltrans.o
chThdExit                                         /tmp/ccVkhsJg.ltrans6.ltrans.o
                                                  build/obj/chcoreasm_v7m.o
chThdResumeI                                      /tmp/ccVkhsJg.ltrans3.ltrans.o
                                                  /tmp/ccVkhsJg.ltrans2.ltrans.o
chThdSleep                                        /tmp/ccVkhsJg.ltrans1.ltrans.o
                                                  /tmp/ccVkhsJg.ltrans4.ltrans.o
                                                  /tmp/ccVkhsJg.ltrans0.ltrans.o
chThdSuspendS                                     /tmp/ccVkhsJg.ltrans3.ltrans.o
                                                  /tmp/ccVkhsJg.ltrans2.ltrans.o
                                                  /tmp/ccVkhsJg.ltrans0.ltrans.o
chprintf.13127                                    /tmp/ccVkhsJg.ltrans2.ltrans.o
                                                  /tmp/ccVkhsJg.ltrans0.ltrans.o
chprintf.13487                                    /tmp/ccVkhsJg.ltrans2.ltrans.o
                                                  /tmp/ccVkhsJg.ltrans0.ltrans.o
chprintf.14054.constprop.51                       /tmp/ccVkhsJg.ltrans2.ltrans.o
                                                  /tmp/ccVkhsJg.ltrans0.ltrans.o
create_chain.12357                                /tmp/ccVkhsJg.ltrans5.ltrans.o
                                                  /tmp/ccVkhsJg.ltrans0.ltrans.o
dir_sdi.12342.constprop.32                        /tmp/ccVkhsJg.ltrans1.ltrans.o
                                                  /tmp/ccVkhsJg.ltrans5.ltrans.o
disk_read.constprop.37                            /tmp/ccVkhsJg.ltrans1.ltrans.o
                                                  /tmp/ccVkhsJg.ltrans0.ltrans.o
disk_status                                       /tmp/ccVkhsJg.ltrans2.ltrans.o
                                                  /tmp/ccVkhsJg.ltrans1.ltrans.o
disk_write                                        /tmp/ccVkhsJg.ltrans1.ltrans.o
                                                  /tmp/ccVkhsJg.ltrans5.ltrans.o
                                                  /tmp/ccVkhsJg.ltrans0.ltrans.o
dmaStreamAllocate                                 /tmp/ccVkhsJg.ltrans3.ltrans.o
                                                  /tmp/ccVkhsJg.ltrans0.ltrans.o
dmaStreamRelease                                  /tmp/ccVkhsJg.ltrans3.ltrans.o
                                                  /tmp/ccVkhsJg.ltrans4.ltrans.o
                                                  /tmp/ccVkhsJg.ltrans2.ltrans.o
dma_isr_redir.10640                               /tmp/ccVkhsJg.ltrans0.ltrans.o
                                                  /tmp/ccVkhsJg.ltrans3.ltrans.o
dma_streams_mask.10645                            /tmp/ccVkhsJg.ltrans0.ltrans.o
                                                  /tmp/ccVkhsJg.ltrans3.ltrans.o
dummytx.11275                                     /tmp/ccVkhsJg.ltrans0.ltrans.o
                                                  /tmp/ccVkhsJg.ltrans2.ltrans.o
endmem.6822                                       /tmp/ccVkhsJg.ltrans0.ltrans.o
                                                  /tmp/ccVkhsJg.ltrans3.ltrans.o
f_close                                           /tmp/ccVkhsJg.ltrans5.ltrans.o
                                                  /tmp/ccVkhsJg.ltrans0.ltrans.o
f_mount                                           /tmp/ccVkhsJg.ltrans1.ltrans.o
                                                  /tmp/ccVkhsJg.ltrans0.ltrans.o
f_open                                            /tmp/ccVkhsJg.ltrans5.ltrans.o
                                                  /tmp/ccVkhsJg.ltrans0.ltrans.o
find_volume.12333                                 /tmp/ccVkhsJg.ltrans1.ltrans.o
                                                  /tmp/ccVkhsJg.ltrans5.ltrans.o
get.10007                                         /tmp/ccVkhsJg.ltrans1.ltrans.o
                                                  /tmp/ccVkhsJg.ltrans0.ltrans.o
get_fat.part.6.12338                              /tmp/ccVkhsJg.ltrans1.ltrans.o
                                                  /tmp/ccVkhsJg.ltrans5.ltrans.o
get_ldnumber.12295                                /tmp/ccVkhsJg.ltrans2.ltrans.o
                                                  /tmp/ccVkhsJg.ltrans1.ltrans.o
gett.10003                                        /tmp/ccVkhsJg.ltrans1.ltrans.o
                                                  /tmp/ccVkhsJg.ltrans0.ltrans.o
gpsRxChar.12842                                   /tmp/ccVkhsJg.ltrans2.ltrans.o
                                                  /tmp/ccVkhsJg.ltrans0.ltrans.o
gpsRxEnd.12826                                    /tmp/ccVkhsJg.ltrans2.ltrans.o
                                                  /tmp/ccVkhsJg.ltrans0.ltrans.o
gpsRxErr.12829                                    /tmp/ccVkhsJg.ltrans2.ltrans.o
                                                  /tmp/ccVkhsJg.ltrans0.ltrans.o
gpsSem                                            /tmp/ccVkhsJg.ltrans4.ltrans.o
                                                  /tmp/ccVkhsJg.ltrans2.ltrans.o
gpsStrCpy.12836.constprop.1                       /tmp/ccVkhsJg.ltrans2.ltrans.o
                                                  /tmp/ccVkhsJg.ltrans4.ltrans.o
gpsThread                                         /tmp/ccVkhsJg.ltrans4.ltrans.o
                                                  /tmp/ccVkhsJg.ltrans0.ltrans.o
gpsTxC.12823                                      /tmp/ccVkhsJg.ltrans2.ltrans.o
                                                  /tmp/ccVkhsJg.ltrans0.ltrans.o
gpsTxbufEnd.12820                                 /tmp/ccVkhsJg.ltrans2.ltrans.o
                                                  /tmp/ccVkhsJg.ltrans0.ltrans.o
main                                              /tmp/ccVkhsJg.ltrans0.ltrans.o
                                                  /tmp/ccVkhsJg.ltrans6.ltrans.o
mmcConnect                                        /tmp/ccVkhsJg.ltrans4.ltrans.o
                                                  /tmp/ccVkhsJg.ltrans0.ltrans.o
mmcDisconnect                                     /tmp/ccVkhsJg.ltrans1.ltrans.o
                                                  /tmp/ccVkhsJg.ltrans0.ltrans.o
mmcGetInfo                                        /tmp/ccVkhsJg.ltrans3.ltrans.o
                                                  /tmp/ccVkhsJg.ltrans0.ltrans.o
mmcSequentialRead                                 /tmp/ccVkhsJg.ltrans2.ltrans.o
                                                  /tmp/ccVkhsJg.ltrans1.ltrans.o
mmcSequentialWrite                                /tmp/ccVkhsJg.ltrans1.ltrans.o
                                                  /tmp/ccVkhsJg.ltrans4.ltrans.o
mmcStartSequentialWrite                           /tmp/ccVkhsJg.ltrans1.ltrans.o
                                                  /tmp/ccVkhsJg.ltrans4.ltrans.o
mmcStopSequentialRead.part.7.9730                 /tmp/ccVkhsJg.ltrans2.ltrans.o
                                                  /tmp/ccVkhsJg.ltrans1.ltrans.o
mmcSync                                           /tmp/ccVkhsJg.ltrans1.ltrans.o
                                                  /tmp/ccVkhsJg.ltrans0.ltrans.o
mmc_lld_is_card_inserted                          /tmp/ccVkhsJg.ltrans2.ltrans.o
                                                  /tmp/ccVkhsJg.ltrans0.ltrans.o
mmc_lld_is_write_protected                        /tmp/ccVkhsJg.ltrans2.ltrans.o
                                                  /tmp/ccVkhsJg.ltrans0.ltrans.o
mmc_read.9768                                     /tmp/ccVkhsJg.ltrans1.ltrans.o
                                                  /tmp/ccVkhsJg.ltrans0.ltrans.o
mmc_write.9785                                    /tmp/ccVkhsJg.ltrans4.ltrans.o
                                                  /tmp/ccVkhsJg.ltrans0.ltrans.o
move_window.12322                                 /tmp/ccVkhsJg.ltrans1.ltrans.o
                                                  /tmp/ccVkhsJg.ltrans5.ltrans.o
nextmem.6820                                      /tmp/ccVkhsJg.ltrans0.ltrans.o
                                                  /tmp/ccVkhsJg.ltrans3.ltrans.o
notify2.11528                                     /tmp/ccVkhsJg.ltrans2.ltrans.o
                                                  /tmp/ccVkhsJg.ltrans0.ltrans.o
put.10015                                         /tmp/ccVkhsJg.ltrans1.ltrans.o
                                                  /tmp/ccVkhsJg.ltrans0.ltrans.o
putt.10010                                        /tmp/ccVkhsJg.ltrans1.ltrans.o
                                                  /tmp/ccVkhsJg.ltrans0.ltrans.o
read.9987                                         /tmp/ccVkhsJg.ltrans1.ltrans.o
                                                  /tmp/ccVkhsJg.ltrans0.ltrans.o
read_CxD.9701                                     /tmp/ccVkhsJg.ltrans1.ltrans.o
                                                  /tmp/ccVkhsJg.ltrans4.ltrans.o
readt.9980                                        /tmp/ccVkhsJg.ltrans1.ltrans.o
                                                  /tmp/ccVkhsJg.ltrans0.ltrans.o
recvr1.isra.0.9675                                /tmp/ccVkhsJg.ltrans2.ltrans.o
                                                  /tmp/ccVkhsJg.ltrans1.ltrans.o
send_command_R1.9696                              /tmp/ccVkhsJg.ltrans1.ltrans.o
                                                  /tmp/ccVkhsJg.ltrans4.ltrans.o
send_command_R3.9690                              /tmp/ccVkhsJg.ltrans1.ltrans.o
                                                  /tmp/ccVkhsJg.ltrans4.ltrans.o
spiIgnore                                         /tmp/ccVkhsJg.ltrans2.ltrans.o
                                                  /tmp/ccVkhsJg.ltrans4.ltrans.o
                                                  /tmp/ccVkhsJg.ltrans1.ltrans.o
spiReceive                                        /tmp/ccVkhsJg.ltrans2.ltrans.o
                                                  /tmp/ccVkhsJg.ltrans1.ltrans.o
spiSelect                                         /tmp/ccVkhsJg.ltrans2.ltrans.o
                                                  /tmp/ccVkhsJg.ltrans1.ltrans.o
spiSend                                           /tmp/ccVkhsJg.ltrans2.ltrans.o
                                                  /tmp/ccVkhsJg.ltrans4.ltrans.o
                                                  /tmp/ccVkhsJg.ltrans1.ltrans.o
spiStart                                          /tmp/ccVkhsJg.ltrans3.ltrans.o
                                                  /tmp/ccVkhsJg.ltrans4.ltrans.o
                                                  /tmp/ccVkhsJg.ltrans1.ltrans.o
spiStop                                           /tmp/ccVkhsJg.ltrans2.ltrans.o
                                                  /tmp/ccVkhsJg.ltrans4.ltrans.o
                                                  /tmp/ccVkhsJg.ltrans1.ltrans.o
spiUnselect                                       /tmp/ccVkhsJg.ltrans2.ltrans.o
                                                  /tmp/ccVkhsJg.ltrans4.ltrans.o
                                                  /tmp/ccVkhsJg.ltrans1.ltrans.o
spi_lld_serve_rx_interrupt.11222                  /tmp/ccVkhsJg.ltrans2.ltrans.o
                                                  /tmp/ccVkhsJg.ltrans3.ltrans.o
spi_lld_serve_tx_interrupt.11218                  /tmp/ccVkhsJg.ltrans4.ltrans.o
                                                  /tmp/ccVkhsJg.ltrans3.ltrans.o
stop.7640.9811                                    /tmp/ccVkhsJg.ltrans4.ltrans.o
                                                  /tmp/ccVkhsJg.ltrans1.ltrans.o
strcpy                                            /usr/bin/../lib/gcc/arm-none-eabi/4.8.4/../../../../arm-none-eabi/lib/armv7e-m/fpu/libc.a(lib_a-strcpy.o)
                                                  /tmp/ccVkhsJg.ltrans0.ltrans.o
strlen                                            /usr/bin/../lib/gcc/arm-none-eabi/4.8.4/../../../../arm-none-eabi/lib/armv7e-m/fpu/libc.a(lib_a-strlen.o)
                                                  /tmp/ccVkhsJg.ltrans4.ltrans.o
                                                  /tmp/ccVkhsJg.ltrans2.ltrans.o
strncmp                                           /usr/bin/../lib/gcc/arm-none-eabi/4.8.4/../../../../arm-none-eabi/lib/armv7e-m/fpu/libc.a(lib_a-strncmp.o)
                                                  /tmp/ccVkhsJg.ltrans4.ltrans.o
sync_window.part.3.12312                          /tmp/ccVkhsJg.ltrans1.ltrans.o
                                                  /tmp/ccVkhsJg.ltrans5.ltrans.o
tokBuf.12910                                      /tmp/ccVkhsJg.ltrans4.ltrans.o
                                                  /tmp/ccVkhsJg.ltrans2.ltrans.o
uart_lld_serve_rx_end_irq.11676                   /tmp/ccVkhsJg.ltrans4.ltrans.o
                                                  /tmp/ccVkhsJg.ltrans0.ltrans.o
uart_lld_serve_tx_end_irq.11672                   /tmp/ccVkhsJg.ltrans4.ltrans.o
                                                  /tmp/ccVkhsJg.ltrans0.ltrans.o
usart_stop.11683                                  /tmp/ccVkhsJg.ltrans2.ltrans.o
                                                  /tmp/ccVkhsJg.ltrans4.ltrans.o
                                                  /tmp/ccVkhsJg.ltrans0.ltrans.o
validate.12298                                    /tmp/ccVkhsJg.ltrans2.ltrans.o
                                                  /tmp/ccVkhsJg.ltrans5.ltrans.o
                                                  /tmp/ccVkhsJg.ltrans0.ltrans.o
wakeup.4718                                       /tmp/ccVkhsJg.ltrans3.ltrans.o
                                                  /tmp/ccVkhsJg.ltrans2.ltrans.o
write.9998                                        /tmp/ccVkhsJg.ltrans2.ltrans.o
                                                  /tmp/ccVkhsJg.ltrans0.ltrans.o
writet.9992                                       /tmp/ccVkhsJg.ltrans2.ltrans.o
                                                  /tmp/ccVkhsJg.ltrans0.ltrans.o
