ARM GAS  /tmp/cc5Am63S.s 			page 1


   1              		.syntax unified
   2              		.cpu cortex-m3
   3              		.fpu softvfp
   4              		.eabi_attribute 20, 1
   5              		.eabi_attribute 21, 1
   6              		.eabi_attribute 23, 3
   7              		.eabi_attribute 24, 1
   8              		.eabi_attribute 25, 1
   9              		.eabi_attribute 26, 1
  10              		.eabi_attribute 30, 2
  11              		.eabi_attribute 34, 1
  12              		.eabi_attribute 18, 4
  13              		.thumb
  14              		.file	"adc.c"
  15              		.section	.gnu.lto_.jmpfuncs.82a111112bca6df8,"",%progbits
  16 0000 789C754D 		.ascii	"x\234uM\333\015\2000\020\202\273\3726\351z\256\340\002"
  16      DB0D8030 
  16      1082BBFA 
  16      36E97AAE 
  16      E002
  17 0012 FEBA8E63 		.ascii	"\376\272\216c8\231Jc\323\364C\3718\0109\300`\370\302"
  17      38994A63 
  17      D3F443F9 
  17      380839C0 
  17      60F8C2
  18 0025 917906E9 		.ascii	"\221y\006\351\342\215\351\321\026\256\304ugp\007e\222"
  18      E28DE9D1 
  18      16AEC475 
  18      67700765 
  18      92
  19 0036 E1942F09 		.ascii	"\341\224/\011w\335\220d\023\251(R\300\034m|[*\253\343"
  19      77DD9064 
  19      13A92852 
  19      C01C6D7C 
  19      5B2AABE3 
  20 004a 5F615F26 		.ascii	"_a_&\007\225\240\356\031\313\0261U\032\017\345\317\035"
  20      0795A0EE 
  20      19CB1631 
  20      551A0FE5 
  20      CF1D
  21 005c 15       		.ascii	"\025"
  22              		.text
  23              		.section	.gnu.lto_.inline.82a111112bca6df8,"",%progbits
  24 0000 789C7D90 		.ascii	"x\234}\2201\022\2020\024D\367\177\002\204\004\005\307"
  24      31128230 
  24      1444F77F 
  24      02840405 
  24      C7
  25 0011 C2C28292 		.ascii	"\302\302\202\222\216\361\004\034\201\261\364\006\352"
  25      8EF1041C 
  25      81B1F406 
  25      EA
  26 001e 35AC28F1 		.ascii	"5\254(\361\006\034\205#x\006+K\216`\002dD\3061M\222"
  26      061C8523 
  26      78062B4B 
  26      8E600264 
  26      44C6314D 
ARM GAS  /tmp/cc5Am63S.s 			page 2


  27 0033 79FB7737 		.ascii	"y\373w7a0~\255;\215{\014\250=\021\354\225\371\221@\366"
  27      61307EAD 
  27      3B8D7B0C 
  27      A83D11EC 
  27      95F99140 
  28 0048 C530C11A 		.ascii	"\3050\301\032\240\246\362\214\200\233\312p\021\323\340"
  28      A0A6F28C 
  28      809BCA70 
  28      11D3E0
  29 0057 15B4D920 		.ascii	"\025\264\331  eU\320[7\035\364\005\342\246\372\232F"
  29      206555D0 
  29      5B371DF4 
  29      05E2A6FA 
  29      9A46
  30 0069 B4A1912C 		.ascii	"\264\241\221,|\005dj\210_\347\010\353|N|k\011\226]\011"
  30      7C05646A 
  30      885FE708 
  30      EB7C4E7C 
  30      6B09965D 
  31 007e D5957312 		.ascii	"\325\225s\022\214n\242\315\226$D\262s5\364\355\210\350"
  31      8C6EA2CD 
  31      962444B2 
  31      7335F4ED 
  31      88E8
  32 0090 7918B06B 		.ascii	"y\030\260k?\311$dL\036.'\272\0223<\340\3749\232a\017"
  32      3FC92464 
  32      4C1E2E27 
  32      BA12333C 
  32      E0FC399A 
  33 00a6 C23D905E 		.ascii	"\302=\220^a\3120\365\322)FX\203\010\353\314\345\314"
  33      61CA30F5 
  33      D2294658 
  33      8308EBCC 
  33      E5CC
  34 00b8 0BDA1C83 		.ascii	"\013\332\034\203\247\030\005\177\345T\263\017\233\250"
  34      A718057F 
  34      E554B30F 
  34      9BA8
  35 00c6 FE4BF106 		.ascii	"\376K\361\006Zb&b"
  35      5A622662 
  36              		.text
  37              		.section	.gnu.lto_.pureconst.82a111112bca6df8,"",%progbits
  38 0000 789C6362 		.ascii	"x\234cb`b\220d\200\000\036\006)F\011&)f+\026+V+6)v+"
  38      60629064 
  38      80001E06 
  38      29460926 
  38      29662B16 
  39 001b 0E494E2B 		.ascii	"\016IN+.\011n\011\000\035\035\002="
  39      2E096E09 
  39      001D1D02 
  39      3D
  40              		.text
  41              		.section	.gnu.lto_adcStopConversionI.part.0.82a111112bca6df8,"",%progbits
  42 0000 789C8D90 		.ascii	"x\234\215\2201K\003A\020\205\347\355\335\305h\243?\301"
  42      314B0341 
  42      1085E7ED 
  42      DDC568A3 
ARM GAS  /tmp/cc5Am63S.s 			page 3


  42      3FC1
  43 0012 4E30902D 		.ascii	"N0\220-\362SL@\313\313&x\213\306\203$\012\232\"\027"
  43      F2534C40 
  43      CBCB2678 
  43      8BC68324 
  43      0A9A2217 
  44 0026 8D28D8A4 		.ascii	"\215(\330\244\326\"\330jaaaJ[\013\015v\"\010ic!V\022"
  44      D622D86A 
  44      6161614A 
  44      5B0B0D76 
  44      22086963 
  45 003d 5218676F 		.ascii	"R\030goM\0201\340\300\356\233\335\235\367-3\202\004"
  45      4D1031E0 
  45      C0EE9BDD 
  45      9DF72D33 
  45      8204
  46 004f FD8E14AF 		.ascii	"\375\216\024\257\033\020\025X\341\021\334\326\003'."
  46      1B101558 
  46      E111DCD6 
  46      03272E
  47 005e 44AC028E 		.ascii	"D\254\002\216\321F\322\001LB\240\272+\034\324\327\020"
  47      D146D201 
  47      4C42A0BA 
  47      2B1CD4D7 
  47      10
  48 006f BBAF44D4 		.ascii	"\273\257D\324\033\215^:m$\201\022\230\257\343\007\217"
  48      1B8D5E3A 
  48      6D248112 
  48      98AFE307 
  48      8F
  49 0080 9A51D45A 		.ascii	"\232Q\324Z$R\3611\313\273\261g\341\032ur\020\261v\251"
  49      2452F131 
  49      CBBBB167 
  49      E11A7572 
  49      10B176A9 
  50 0094 D9EB1FCD 		.ascii	"\331\353\037\315\3738\347\257\211j4\214\216\243\005"
  50      FB38E7AF 
  50      896A348C 
  50      8EA305
  51 00a3 0D2858FE 		.ascii	"\015(X\376:\240\271\226\356i\277\3634\274\023\2662E"
  51      3AA0B996 
  51      EE69BFF3 
  51      34BC13B6 
  51      3245
  52 00b5 17114746 		.ascii	"\027\021GF\3039\243\323Fd,.\227\256r\261\027\373\362"
  52      C339A3D3 
  52      46642C2E 
  52      97AE72B1 
  52      17FBF2
  53 00c8 D64EE6C6 		.ascii	"\326N\346\3061\211\001\014\376\000$\246\0020\001$\204"
  53      3189010C 
  53      FE0024A6 
  53      02300124 
  53      84
  54 00d9 050C0FAE 		.ascii	"\005\014\017\256\333\236\005\254C\324h\217{M\321\262"
  54      DB9E05AC 
  54      43D4688F 
ARM GAS  /tmp/cc5Am63S.s 			page 4


  54      7B4DD1B2 
  55 00e9 C6CC54C8 		.ascii	"\306\314T\310\217yw\351\360\275\377\374:\300d66\271"
  55      8F7977E9 
  55      F0BDFFFC 
  55      3AC06436 
  55      36B9
  56 00fb 3DF95821 		.ascii	"=\371X!\262X56L&\221Tp|\\Z \377j\340\263\237\243\357"
  56      B2583536 
  56      4C269154 
  56      707C5C5A 
  56      20FF6AE0 
  57 0113 405D63CE 		.ascii	"@]c\316:r\334\247\031\351#5zoK\343\211\332\310r3\374"
  57      3A72DCA7 
  57      19E92335 
  57      7A6F4BE3 
  57      89DAC872 
  58 0129 66D86919 		.ascii	"f\330i\031\204\245\242TaaW\026\212;R\005:\257\303\212"
  58      84A5A254 
  58      61615716 
  58      8A3B5205 
  58      3AAFC38A 
  59 013d AC96B7B7 		.ascii	"\254\226\267\2676$'\201\277)+e%\375\202J+\312\374\247"
  59      36242781 
  59      BF292B65 
  59      25FD824A 
  59      2BCAFCA7 
  60 0151 3CACF056 		.ascii	"<\254\360V\256\306\232\016\350\013\304\035\224\214"
  60      AEC69A0E 
  60      E80BC41D 
  60      948C
  61              		.text
  62              		.section	.gnu.lto_adcInit.82a111112bca6df8,"",%progbits
  63 0000 789C6362 		.ascii	"x\234cb`b@\007\222@\\\011\304\006@\314\310\314\300\310"
  63      60624007 
  63      92405C09 
  63      C40640CC 
  63      C8CCC0C8 
  64 0014 34E11C03 		.ascii	"4\341\034\003C#\007\023##\210\301\300\310P\317\304X"
  64      43230713 
  64      232388C1 
  64      C0C850CF 
  64      C458
  65 0026 1FC90856 		.ascii	"\037\311\010V\273\236\351\300\203\377\377\327\375\330"
  65      BB9EE9C0 
  65      83FFFFD7 
  65      FDD8
  66 0034 F8B01EA8 		.ascii	"\370\260\036\250\224\201\201\225\241\245\241a\202\002"
  66      94818195 
  66      A1A5A161 
  66      8202
  67 0042 03433258 		.ascii	"\003C2X>\004H\2024\20522\201h\346\363\014\315\017\376"
  67      3E044882 
  67      34853232 
  67      8168E6F3 
  67      0CCD0FFE 
  68 0056 D925322E 		.ascii	"\331%2.dd\005\312V3\374j\350h\020\310d\004\252\206\030"
  68      646405CA 
ARM GAS  /tmp/cc5Am63S.s 			page 5


  68      5633FC6A 
  68      E86810C8 
  68      6404AA86 
  69 006b 9709A22F 		.ascii	"\227\011\242/24>\370\317\004S\004\001!@\011\240\001"
  69      32343EF8 
  69      CF045304 
  69      01214009 
  69      A001
  70 007d 20C7EAE9 		.ascii	" \307\352\351g\344\347\246\352'\347\247T\352\247\244"
  70      67E4E7A6 
  70      EA27E7A7 
  70      54EAA7A4 
  71 008d 96E92767 		.ascii	"\226\351'gd&e\346\027\353\227\024\225\346e\353\003\031"
  71      642665E6 
  71      17EB9714 
  71      95E665EB 
  71      0319
  72 009f 198939FA 		.ascii	"\031\2119\372\305E\311\372\211)\311z\311\014\000\243"
  72      C545C9FA 
  72      8929C97A 
  72      C90C00A3 
  73 00af AC32CF   		.ascii	"\2542\317"
  74              		.text
  75              		.section	.gnu.lto_adcObjectInit.82a111112bca6df8,"",%progbits
  76 0000 789C8DD2 		.ascii	"x\234\215\322\275K\0031\024\000\360\367r\275~\250\240"
  76      BD4B0331 
  76      1400F0F7 
  76      72BD7EA8 
  76      A0
  77 0011 AB9BE028 		.ascii	"\253\233\340(\\\006\377\225\012:\2669\351\005\255\007"
  77      5C06FF95 
  77      0A3AB639 
  77      E905AD07 
  78 0021 6D156A87 		.ascii	"m\025j\207^\265\203\203BG\261\223\213\203\203\025\247"
  78      5EB58383 
  78      4247B193 
  78      8B838315 
  78      A7
  79 0032 8E9D5C44 		.ascii	"\216\235\\D\255\203\320\261.\212N\202\213t\251/w\327"
  79      AD83D0B1 
  79      2E8A4E82 
  79      8B74A92F 
  79      77D7
  80 0044 08368381 		.ascii	"\0106\203\201\313\313\335\345\367^H\302\200\301\337"
  80      CBCBDDE5 
  80      F75E48C2 
  80      80C1DF
  81 0053 B6488FA0 		.ascii	"\266H\217\240\317.E\264\000Y\353\001\240\221f\210j\000"
  81      CF2E45B4 
  81      0059EB01 
  81      A0916688 
  81      6A00
  82 0065 087586F5 		.ascii	"\010u\206\365\015\014\347vXo8\036_]\337^\034c\233\315"
  82      0D0CE776 
  82      586F381E 
  82      5F5DDF5E 
  82      1C639BCD 
ARM GAS  /tmp/cc5Am63S.s 			page 6


  83 0079 312C2264 		.ascii	"1,\"d@\206?mh\006Ak\211\222\205\257Y\352U\2025d*Z\367"
  83      40863F6D 
  83      6806416B 
  83      899285AF 
  83      59EA5582 
  84 0092 70D01DBC 		.ascii	"p\320\035\274\366Y\016\317\321\206\025\270\014\250\315"
  84      F6590ECF 
  84      D18615B8 
  84      0CA8CD
  85 00a1 4BC4369C 		.ascii	"K\3046\234\241DV@\266N\321\012\353\344\243r\240\276"
  85      A1445640 
  85      B64ED10A 
  85      EBE4A372 
  85      A0BE
  86 00b3 A01A2BFD 		.ascii	"\240\032+\375m\320\011\263F\255\023\020\353\323\267"
  86      6DD009B3 
  86      46AD1310 
  86      EBD3B7
  87 00c2 696D9B35 		.ascii	"im\2335\323\332\236\350\256A'\315\332\322:9\321\003"
  87      D3DA9EE8 
  87      AE4127CD 
  87      DAD23A39 
  87      D103
  88 00d4 834E9975 		.ascii	"\203N\231uB\353\224^\371\307\264N\233\265\255u:\326"
  88      42EB945E 
  88      F9C7B44E 
  88      9BB5AD75 
  88      3AD6
  89 00e6 A3C3CE89 		.ascii	"\243\303\316\211\023\351\002fj\260O\207\025\247\251"
  89      13E90266 
  89      6AB04F87 
  89      15A7A9
  90 00f5 4ACC98D3 		.ascii	"J\314\230\323$\177o\307#4?\337\007_}\246\2177\032\364"
  90      247F6FC7 
  90      23343FDF 
  90      075F7DA6 
  90      8F371AF4 
  91 0109 EE9E5FA8 		.ascii	"\356\236_\250Z\224Y\304\033\0165\030\005G\301\202\304"
  91      5A9459C4 
  91      1B0E3518 
  91      0547C182 
  91      C4
  92 011a 1981B4E6 		.ascii	"\031\201\264\346\233hATX\342,\300\0234\206\335\345\210"
  92      9B684154 
  92      58E22CC0 
  92      133486DD 
  92      E588
  93 012c 4C5A9628 		.ascii	"LZ\226(]\017\265\345\016\367\374\342&\027\276[\345\356"
  93      5D0FB5E5 
  93      0EF7FCE2 
  93      2617BE5B 
  93      E5EE
  94 013e E61E179E 		.ascii	"\346\036\027\236\314K\277\314+\245\335\235-N\003/\267"
  94      CC4BBFCC 
  94      2BA5DD9D 
  94      2D4E032F 
  94      B7
ARM GAS  /tmp/cc5Am63S.s 			page 7


  95 014f CDCB25C1 		.ascii	"\315\313%\301s\256p\004\254\376g\272_\246\256T\011\243"
  95      73AE7004 
  95      ACFE67BA 
  95      5FA6AE54 
  95      09A3
  96 0161 E3C10FF7 		.ascii	"\343\301\017\367*\255\324"
  96      2AADD4
  97              		.text
  98              		.section	.gnu.lto_adcStart.82a111112bca6df8,"",%progbits
  99 0000 789C8D50 		.ascii	"x\234\215P=K\003A\020}\263\027M\320BKm$\215 (Y\177B"
  99      3D4B0341 
  99      107DB317 
  99      4DD0424B 
  99      6D248D20 
 100 0018 40102CD2 		.ascii	"@\020,\322\030\005\255\344\2629\222\305\\\"\027#\006"
 100      1805ADE4 
 100      B23992C5 
 100      5C221723 
 100      06
 101 0029 8B5C3E10 		.ascii	"\213\\>\020\033\305B$(\026\202 Xh+hag!F\254\265\010"
 101      1BC54224 
 101      28168220 
 101      58682B68 
 101      61672146 
 102 0040 DA285868 		.ascii	"\332(Xh\245\330\304\333\273\030E\004\035\330\235\201"
 102      A5D8C4DB 
 102      BB184504 
 102      1DD89D81 
 103 0050 7933EFBD 		.ascii	"y3\357\275a`\370\031\275\316\333#`\325\311\244\201\330"
 103      6160F819 
 103      BDCEDB23 
 103      60D5C9A4 
 103      81D8
 104 0062 7A0D2806 		.ascii	"z\015(\006\030\221*@(0*L\223\213=bg\365F\343p\363\374"
 104      18912A40 
 104      28302A4C 
 104      938B3D62 
 104      67F546E3 
 105 0079 F4897658 		.ascii	"\364\211vX\247F&\301\347|\252\333\206\212m\257\007\001"
 105      A74626C1 
 105      E77CAADB 
 105      868A6DAF 
 105      0701
 106 008b E162279C 		.ascii	"\341b'\234_-\230$\246\262VC\351\345q\343\276\247\005"
 106      5F2D9824 
 106      A6B25643 
 106      E9E571E3 
 106      BEA705
 107 009e D36997DA 		.ascii	"\323i\227\332\3402\020,M)\323<y}(\323\216]\015K\217"
 107      E032102C 
 107      4D29D33C 
 107      797D28D3 
 107      8E5D0D4B 
 108 00b3 748A2451 		.ascii	"t\212$QPU\255\376r\263\337ts\211\322\305\355\303\332"
 108      5055ADFE 
 108      72B3DF74 
 108      7389D2C5 
ARM GAS  /tmp/cc5Am63S.s 			page 8


 108      EDC3DA
 109 00c6 80B77210 		.ascii	"\200\267r\020\007\266\023]\222\264ml9\303\276\004ij"
 109      07B6135D 
 109      92B46D6C 
 109      39C3BE04 
 109      696A
 110 00d8 89CB8698 		.ascii	"\211\313\206\230\267\025\011\362\001W\250\324o\312\035"
 110      B71509F2 
 110      0157A8D4 
 110      6FCA1D
 111 00e7 9F5A96F0 		.ascii	"\237Z\226\360n\257\330\335\222\332\005Q\023\245I\362"
 111      6EAFD8DD 
 111      92DA0551 
 111      13A549F2 
 112 00f7 BB14C7D5 		.ascii	"\273\024\307\325\3277\372I\021\370\235\342Ky@i\374\217"
 112      D737FA49 
 112      11F89DE2 
 112      4B794069 
 112      FC8F
 113 0109 799DF69C 		.ascii	"y\235\366\234\363\273f\361\315\254N\373\324\347)\276"
 113      F3BB66F1 
 113      CDAC4EFB 
 113      D4E729BE 
 114 0119 46F1F9EE 		.ascii	"F\361\371\356\304\327\232\205wgR\367U\330\020OfL\203"
 114      C4D79A85 
 114      776752F7 
 114      55D8104F 
 114      664C83
 115 012c 8B4C3CCF 		.ascii	"\213L<\317\343\306\002\027I\031\223\231,\237\267r\351"
 115      E3C60217 
 115      49199399 
 115      2C9FB772 
 115      E9
 116 013d 59EE1449 		.ascii	"Y\356\024I=\305\263\226\340z\\\204\004\302\177\301\215"
 116      3DC5B396 
 116      E07A5C84 
 116      04C27FC1 
 116      8D
 117 014e C5793E12 		.ascii	"\305y>\022\211\216E\271L\213T.\256\260\2261#\314\321"
 117      898E45B9 
 117      4C8B542E 
 117      AEB09631 
 117      23CCD1
 118 0161 5C5A8492 		.ascii	"\\Z\204\222\350\216D\307\2031=k\314Yr(\330?\014f\301"
 118      E88E44C7 
 118      83313D6B 
 118      CC597228 
 118      D83F0C66 
 119 0176 6F1A66C6 		.ascii	"o\032f\306\312\343\003:\357\211\246"
 119      CAE3033A 
 119      EF89A6
 120              		.text
 121              		.section	.gnu.lto_adcStop.82a111112bca6df8,"",%progbits
 122 0000 789C8D50 		.ascii	"x\234\215P=K\003A\020\235\331\313\031\255L\251M\270"
 122      3D4B0341 
 122      109DD9CB 
 122      19AD4CA9 
ARM GAS  /tmp/cc5Am63S.s 			page 9


 122      4DB8
 123 0012 C64AC9FA 		.ascii	"\306J\311\372\023\002\202`\221\306(h%\227\275\303[\314"
 123      13028260 
 123      91C62868 
 123      2597BDC3 
 123      5BCC
 124 0024 E5649388 		.ascii	"\345d\223\210A!\227(b#\004\261\020?\020AP,\264\265\323"
 124      41219728 
 124      622304B1 
 124      103F1041 
 124      502CB4B5 
 125 0039 CECA48FE 		.ascii	"\316\312H\376\200\2106\332\305\326&\356\336\306 6:\260"
 125      808836DA 
 125      C5D626EE 
 125      DEC62036 
 125      3AB0
 126 004b 3B8F9DF7 		.ascii	";\217\235\367\336\314\016\001\002\277cX\036\206\000"
 126      DECC0E01 
 126      02BF6358 
 126      1E8600
 127 005a 3B32A301 		.ascii	";2\243\001H\032M\200Z?AT\000\020\252\004\253\363\030"
 127      481A4D80 
 127      5A3F4154 
 127      0010AA04 
 127      ABF318
 128 006d 71AFC9DD 		.ascii	"q\257\311\335s\247s\365t\177r\204\027d\300@?z7a3\014"
 128      73A773F5 
 128      747F7284 
 128      1764C040 
 128      3F7A3761 
 129 0083 1B96F601 		.ascii	"\033\226\366\001\230\221\267\322\316\"Q\331hB\375\343"
 129      9891B7D2 
 129      CE2251D9 
 129      6842FDE3 
 130 0093 7DEF75A8 		.ascii	"}\357u\250G\263\361\024M\210\314\021\204\241\2062\364"
 130      47B3F114 
 130      4D88CC11 
 130      84A18632 
 130      F4
 131 00a4 6449D8C0 		.ascii	"dI\330\300\343p?\315u\2779\344\210\226B\275\372V\267"
 131      E3703FCD 
 131      75BF39E4 
 131      889642BD 
 131      FA56B7
 132 00b7 DEFDC823 		.ascii	"\336\375\310#l\266_n\327\277\035\327\3403\334\016\023"
 132      6CB65F6E 
 132      D7BF1DD7 
 132      E033DC0E 
 132      13
 133 00c8 1C0D86DA 		.ascii	"\034\015\206\332b\021\015\2161\200\007\250\337\274U"
 133      62110D8E 
 133      318007A8 
 133      DFBC55
 134 00d7 356F142E 		.ascii	"5o\024.C\031\203\034\315C8\220=\372$K\365\212G\222\234"
 134      4319831C 
 134      CD433890 
 134      3DFA244B 
ARM GAS  /tmp/cc5Am63S.s 			page 10


 134      F58A4792 
 135 00ec 5646DD4D 		.ascii	"VF\335M\205\377\363\001\033\317\344\366\242\201\341"
 135      85FFF301 
 135      1BCFE4F6 
 135      A281E1
 136 00fb C7C0369E 		.ascii	"\307\3006\236cR\333\265\240\326\336m\305zZ\320\273B"
 136      6352DBB5 
 136      A0D6DE6D 
 136      C57A5AD0 
 136      BB42
 137 010d B523C54D 		.ascii	"\265#\305MQ/\360]\312\002\247B\035w\2052\217\347xP\244"
 137      512FF05D 
 137      CA02A742 
 137      1D778532 
 137      8FE77850 
 138 0122 25512E2C 		.ascii	"%Q.,Q\011<;O\213\202Q\333a)\006\351\277\350\356j\211"
 138      51093C3B 
 138      4F8B8251 
 138      DB612906 
 138      E9BFE8EE 
 139 0138 4E64B253 		.ascii	"Nd\262SY\312\013,_v\024W\270\013\314\237,\027X\312\203"
 139      59CA0B2C 
 139      5F761457 
 139      B80BCC9F 
 139      2C1758CA 
 140 014d 44263B6D 		.ascii	"D&;m\345\354\242\273,\370\23052\016D@\334w\375@T\340"
 140      E5ECA2BB 
 140      2CF89835 
 140      320E4440 
 140      DC77FD40 
 141 0163 0B207F7B 		.ascii	"\013 \177{\241"
 141      A1
 142              		.text
 143              		.section	.gnu.lto_adcStartConversion.82a111112bca6df8,"",%progbits
 144 0000 789C8D92 		.ascii	"x\234\215\222\277K\034A\024\307\277o\346\356\274\244"
 144      BF4B1C41 
 144      14C7BF6F 
 144      E6EEBCA4 
 145 0010 48AE4C1A 		.ascii	"H\256L\032\271\306F\303M\376\004!\020Ha\223SH*\335\233"
 145      B9C646C3 
 145      4DFE0421 
 145      10486193 
 145      53482ADD 
 146 0025 5BBC21EE 		.ascii	"[\274!\356]\330\363B\304\3029\025\261\011X\030\022\""
 146      5DD8F342 
 146      C4C23915 
 146      B1095818 
 146      1222
 147 0037 1682E02F 		.ascii	"\026\202\340/H\300\312\"\020kE\203URX\010)$\235v&\215"
 147      48C0CA22 
 147      106B4583 
 147      55525808 
 147      29249D76 
 148 004d 99B77B59 		.ascii	"\231\267{Y\016\361\320\205}\363f\346\373>\337\331}#"
 148      0EF1D085 
 148      7DF366E6 
 148      FB3EDFD9 
ARM GAS  /tmp/cc5Am63S.s 			page 11


 148      7D23
 149 005f 2070F579 		.ascii	" p\365y\350\336\021\267\374\316\215$Ab\341\020hf\005"
 149      E8DE11B7 
 149      FCCE8D24 
 149      4162E110 
 149      686605
 150 0072 1127204C 		.ascii	"\021' L\011\232zI\221\366\213\330=\271\274\374|\274"
 150      099A7A49 
 150      91F68BD8 
 150      3DB9BCFC 
 150      7CBC
 151 0084 B7F695B6 		.ascii	"\267\366\225\266DNR@H\271@i\027D\306\005\351Ti\314Z"
 151      444E5240 
 151      48B94069 
 151      1744C605 
 151      E95469CC 
 152 0099 BB900774 		.ascii	"\273\220\007tT5\350\"\243\206H\360(\0171}\376{\361\327"
 152      5435E822 
 152      A38648F0 
 152      280F317D 
 152      FE7BF1D7 
 153 00ad 8344E6D1 		.ascii	"\203D\346\321\012\245\021y\021B\311g\224\361A\2731C"
 153      0AA51179 
 153      1142C967 
 153      94F141BB 
 153      3143
 154 00bf CBF663BF 		.ascii	"\313\366c\277\211\355_\220!\312s\226\354\317\265\366"
 154      89ED5F90 
 154      21CA7396 
 154      ECCFB5F6 
 155 00cf 5BDF7580 		.ascii	"[\337u\200\351\375\343\263\017\275\011;N\354\351\373"
 155      E9FDE3B3 
 155      0FBD093B 
 155      4EECE9FB 
 156 00df C27F1F4D 		.ascii	"\302\177\037M\021\254\017\233\326\332\335?\373\322\220"
 156      11AC0F9B 
 156      D6DADD3F 
 156      FBD290
 157 00ee 5CC2A7A6 		.ascii	"\\\302\247\246\2659C\251Q\222\354\022\035\007%Vz\264"
 157      B53943A9 
 157      5192EC12 
 157      1D072556 
 157      7AB4
 158 0100 C1D3510E 		.ascii	"\301\323Q\016\214\337\371v$<Zw\323\030a\357\033\312"
 158      8CDFF976 
 158      243C5A77 
 158      D31861EF 
 158      1BCA
 159 0112 7404501B 		.ascii	"t\004P\033 \023\003~^\003\350\352\010\020m\200T\004"
 159      2013037E 
 159      5E03E8EA 
 159      08106D80 
 159      5404
 160 0124 D8B9B806 		.ascii	"\330\271\270\006\220\355\010\220\011\200W\263\334\240"
 160      90ED0890 
 160      098057B3 
 160      DCA0
ARM GAS  /tmp/cc5Am63S.s 			page 12


 161 0132 EF983D99 		.ascii	"\357\230=\231?\275\0273\200I\374\265\363\\zG\223hi\331"
 161      3FBD1733 
 161      8049FCB5 
 161      F35C7A47 
 161      936869D9 
 162 0146 CEFD99BB 		.ascii	"\316\375\231\273\300m\332\345\321\252\363\211\332\203"
 162      C06DDAE5 
 162      D1AAF389 
 162      DA83
 163 0154 B6F678B4 		.ascii	"\266\366x\264F\335qc\216\320<\333\376\221Jj\021\337"
 163      46DD7163 
 163      8ED03CDB 
 163      FE914A6A 
 163      11DF
 164 0166 0CE21BC1 		.ascii	"\014\342\033\301\332\202\252\324\002_\351ZyB\225\375"
 164      DA82AAD4 
 164      025FE95A 
 164      794295FD 
 165 0176 374A574C 		.ascii	"7JWL\311\324\352j<lT_)\227T\2741U\017\265\362\312\272"
 165      C9D4EA6A 
 165      3C6C545F 
 165      299754BC 
 165      31550FB5 
 166 018d A0D17F93 		.ascii	"\240\321\177\223\334\177;\256\236\014\024\237\025\225"
 166      DC7F3BAE 
 166      9E0C149F 
 166      1595
 167 019b A9EAB146 		.ascii	"\251\352\261F\231\265\241?\254\203\247\215\252.T\220"
 167      99B5A13F 
 167      AC83A78D 
 167      AA2E5490 
 168 01ab 1B283ECF 		.ascii	"\033(>\317\227\274\272\377:4\217\362=\217!Bt\005~P\013"
 168      97BCBAFF 
 168      3A348FF2 
 168      3D8F2142 
 168      74057E50 
 169 01c0 27F00F12 		.ascii	"'\360\017\022H\270\007"
 169      48B807
 170              		.text
 171              		.section	.gnu.lto_adcStartConversionI.82a111112bca6df8,"",%progbits
 172 0000 789C6D90 		.ascii	"x\234m\2201K\003A\020\205\337\314\272F\020\324\326\316"
 172      314B0341 
 172      1085DFCC 
 172      BA4610D4 
 172      D6CE
 173 0012 CE42C8FA 		.ascii	"\316B\310\372c\"hy\331\013\311\242\361 QA,\356\")\""
 173      63226879 
 173      D90BC9A2 
 173      F1205141 
 173      2CEE2229 
 174 0027 3629456D 		.ascii	"6)EmlE\264\275N{Q\011XX^\347_\020\2338{\027-d\007\366"
 174      6C45B4BD 
 174      4E7B5109 
 174      58585EE7 
 174      5F109B38 
 175 0041 BD6179DF 		.ascii	"\275ay\337\314\262\014\306\377Z\225\223\022\260)N\012"
 175      CCB20CC6 
ARM GAS  /tmp/cc5Am63S.s 			page 13


 175      FF5A9593 
 175      12B0294E 
 175      0A
 176 0052 C4E35760 		.ascii	"\304\343W`\260\300D\276\001!eJw\250\314>\360S1\235\336"
 176      B0C044BE 
 176      0121654A 
 176      77A8CC3E 
 176      F053319D 
 177 0067 BF9FDF5D 		.ascii	"\277\237\337]S\316\213L]\202\022!-\3025\021%)\215a\226"
 177      53CE8B4C 
 177      5D821221 
 177      2DC23511 
 177      25298D61 
 178 007c 8DD7005B 		.ascii	"\215\327\000[R\015Q?j\213\330\273z\301\351\363\305\343"
 178      520D513F 
 178      6A8BD8BB 
 178      7AC1E9F3 
 178      C5E3
 179 008e 8423BA21 		.ascii	"\204#\272!\215\015\334fR\313\216p\205KrDm\342m\361\352"
 179      8D0DDC66 
 179      52CB8E70 
 179      854B7244 
 179      6DE26DF1 
 180 00a3 A5CD6A31 		.ascii	"\245\315j1\332~\262'\363\000\251\302$\315H]\221\037"
 180      DA7EB227 
 180      F300A9C2 
 180      24CD485D 
 180      911F
 181 00b5 01722E4C 		.ascii	"\001r.L\362\214\254\225d\376\025 u\230T\245\373\033"
 181      F28CAC95 
 181      64FE1520 
 181      759854A5 
 181      FB1B
 182 00c7 EDDB370C 		.ascii	"\355\3337\014\213\321\347R\005\003'\370\316F\331\212"
 182      8BD1E752 
 182      050327F8 
 182      CE46D98A 
 183 00d7 A379FBF7 		.ascii	"\243y\373\367:v~\315\004\203\342l\3757WUC2\362a~t\335"
 183      3A767ECD 
 183      0483E26C 
 183      FD375755 
 183      4332F261 
 184 00ee 74926ECB 		.ascii	"t\222n\313\330$>6q\353\310\330\216k\272\244o\016z\207"
 184      D8243E36 
 184      71EBC8D8 
 184      8E6BBAA4 
 184      6F0E7A87 
 185 0102 FBBB469A 		.ascii	"\373\273F\232N\264g\372=k\242\330\326-~\000\247\257"
 185      4EB467FA 
 185      3D6BA2D8 
 185      D62D7E00 
 185      A7AF
 186 0114 6779     		.ascii	"gy"
 187              		.text
 188              		.section	.gnu.lto_adcStopConversion.82a111112bca6df8,"",%progbits
 189 0000 789C8D52 		.ascii	"x\234\215RAk\023A\024~of\3266\261\265=\012\305\232\213"
 189      416B1341 
ARM GAS  /tmp/cc5Am63S.s 			page 14


 189      147E6F66 
 189      D636B1B5 
 189      3D0AC59A 
 190 0015 172B9960 		.ascii	"\027+\231`\377@\241P\360\320\213iAO\262\231,\315`7+"
 190      FF40A150 
 190      F0D08B69 
 190      414FB299 
 190      2CCD6037 
 191 002a 9B445A7B 		.ascii	"\233DZ{\310\246MU\020\241\207\036\212\022A\020\004\321"
 191      C8A64D55 
 191      10A1871E 
 191      8A124110 
 191      04D1
 192 003c 2AF652D4 		.ascii	"*\366R\324C\275\305\203)\336Dz(\364$z\250'\245\007\343"
 192      43BDC583 
 192      29DE447A 
 192      28F4247A 
 192      A827A507 
 193 0051 CC4E7609 		.ascii	"\314Nv\011\022\264\003;\363v\346\373\276\371\336{C\200"
 193      12B4033B 
 193      F376E6FB 
 193      BEF9DE7B 
 193      4380
 194 0063 C0DFE3A2 		.ascii	"\300\337\343\242\3726\325\366{\265\242\005H\326Z\000"
 194      FA36D5F6 
 194      7BB5A205 
 194      48D65A00 
 195 0073 B57E4268 		.ascii	"\265~Bh3\003A\2225\317@0@\221\231m\206\250\003@\250"
 195      33034192 
 195      35CF4030 
 195      4091996D 
 195      86A80340 
 196 0088 12CAB07A 		.ascii	"\022\312\260z\025C\221\227dg\277\335\336|\323z\376\016"
 196      15439197 
 196      6467BFDD 
 196      DE7CD37A 
 196      FE0E
 197 009a DF922186 		.ascii	"\337\222!\206.\202\005\022!\241&\015\261\240\036\004"
 197      2E820512 
 197      21A1260D 
 197      B1A01E04 
 198 00aa 6B290011 		.ascii	"k)\000\021\022f\324\254uf\221\350\225\266`\371\307\327"
 198      1266D4AC 
 198      756691E8 
 198      95B660F9 
 198      C7D7
 199 00bc F583D331 		.ascii	"\365\203\3231\314\306\307\312Lx\021\202O\265oj\314\217"
 199      CCC6C7CA 
 199      4C781182 
 199      4FB56F6A 
 199      CC8F
 200 00ce C20A3682 		.ascii	"\302\0126\202\215\011\211\341\357\025\224HS:\212\317"
 200      8D0989E1 
 200      EF159448 
 200      533A8ACF 
 201 00de 6F77CE99 		.ascii	"ow\316\231I\360#,\177\331{\325\0301\222sh\215\301y\211"
 201      49F0232C 
ARM GAS  /tmp/cc5Am63S.s 			page 15


 201      7FD97BD5 
 201      18319273 
 201      688DC179 
 202 00f3 D64378A0 		.ascii	"\326Cx\240\250'\346\220i\211\276\020\232\303\250*M\250"
 202      A827E690 
 202      6989BE10 
 202      9AC3A82A 
 202      4DA8
 203 0105 7FAF0DC6 		.ascii	"\177\257\015\306\024\015\261\272k7\213\024\232\031\272"
 203      140DB1BA 
 203      6B378B14 
 203      9A19BA
 204 0114 0BF5FD17 		.ascii	"\013\365\375\027w\206\"\267Kp\024\334\015\206%\366\013"
 204      778622B7 
 204      4B7014DC 
 204      0D8625F6 
 204      0B
 205 0125 34524A5E 		.ascii	"4RJ^b\"4\261\375\371\333\007b\220c\360,Pc\\b\262\267"
 205      622234B1 
 205      FDF9DB07 
 205      629063F0 
 205      2C50635C 
 206 013c 0D43D63B 		.ascii	"\015C\326;\311N\012\333\277z\260\377\231D\354Y\261\217"
 206      C94E0ADB 
 206      BF7AB0FF 
 206      9944EC59 
 206      B18F
 207 014e 560E1A56 		.ascii	"V\016\032V\224Mb\011n\251\256\204e8\331[\241+\325]X"
 207      944D6209 
 207      6EA9AE84 
 207      6538D95B 
 207      A12BD55D 
 208 0163 3D7CB4BA 		.ascii	"=|\264\272u\377l\334\033\023\354\334\333\313F}\022\021"
 208      75FF6CDC 
 208      1B13ECDC 
 208      DBCB467D 
 208      1211
 209 0175 212EC080 		.ascii	"!.\300\200@j\343\226\351\241\272R\213\017\376nw\006"
 209      406AE396 
 209      E9A1BA52 
 209      8B0FFE6E 
 209      7706
 210 0187 56259E8A 		.ascii	"V%\236\212\012\311\216\375\002l|\242\312\036v\034\272"
 210      0AC98EFD 
 210      026C7CA2 
 210      CA1E761C 
 210      BA
 211 0198 3A6EE353 		.ascii	":n\343S\0345j\237\240v\370\372'\213\271`\036\033\352"
 211      1C356A9F 
 211      A076F8FA 
 211      278BB960 
 211      1E1BEA
 212 01ab 2B3436CD 		.ascii	"+46\315\013\236\353p\341\345\027y\336\271\311EA\346"
 212      0B9EEB70 
 212      E1E51779 
 212      DEB9C945 
 212      41E6
ARM GAS  /tmp/cc5Am63S.s 			page 16


 213 01bd A457E265 		.ascii	"\244W\342e\277R\274\316UP\260\347y\311\027\334\316\213"
 213      BF52BCCE 
 213      5550B0E7 
 213      79C917DC 
 213      CE8B
 214 01cf B48089FF 		.ascii	"\264\200\211\377\301\235\2052\237\234\316^\312rY\024"
 214      C19D8532 
 214      9F9CCE5E 
 214      CA725914 
 215 01df F395BCC6 		.ascii	"\363\225\274\306\372\3165\341NU\212\"]\200\341\351\354"
 215      FACE35E1 
 215      4E558A22 
 215      5D80E1E9 
 215      EC
 216 01f0 E554CE2E 		.ascii	"\345T\316.97|y!u.\003\304\207>\327q=\177\021\306\217"
 216      39377C79 
 216      21752E03 
 216      C4873ED7 
 216      713D7F11 
 217 0206 E3C52BA9 		.ascii	"\343\305+\251\311/\207\253\322\373\003C\357\335N"
 217      C92F87AB 
 217      D2FB0343 
 217      EFDD4E
 218              		.text
 219              		.section	.gnu.lto_adcStopConversionI.82a111112bca6df8,"",%progbits
 220 0000 789C5D4F 		.ascii	"x\234]OAJ\0031\024}/\231b\021\005/ \270\023\024\232"
 220      414A0331 
 220      147D2F99 
 220      6211052F 
 220      20B81314 
 221 0015 F12E2DE8 		.ascii	"\361.-\350r\232\226N\320:\320\252 .\232\221Y\270\263"
 221      729A964E 
 221      D03AD0AA 
 221      202E9A91 
 221      59B8B3
 222 0028 4B51103C 		.ascii	"KQ\020<\200z\003q9\033\025\227\272\352\001J\017\320"
 222      807A0371 
 222      391B1597 
 222      BAEA014A 
 222      0FD0
 223 003a 4D4D3254 		.ascii	"MM2T\304\017/\357'\377\277\367\177\004\004\376\307\236"
 223      C40F2FEF 
 223      27FFBFF7 
 223      7F0404FE 
 223      C79E
 224 004c C3CC2176 		.ascii	"\303\314!v`\015\024\343w \257\013!\313\030v5*7a\327"
 224      600D14E3 
 224      7720AF0B 
 224      21CB1876 
 224      352A3761 
 225 0061 2423FFCC 		.ascii	"$#\377\314\210\364\014b$d\304\321\001\203\307\263x\235"
 225      88F40C62 
 225      2464C4D1 
 225      0183C7B3 
 225      789D
 226 0073 2C164FF7 		.ascii	",\026O\367\327\217S\276\210\025\301>!aB\261\206\302"
 226      D78F53BE 
ARM GAS  /tmp/cc5Am63S.s 			page 17


 226      8815C13E 
 226      216142B1 
 226      86C2
 227 0085 DAF116A0 		.ascii	"\332\361\026\240\303\265\351No\321\242\360,\337p\371"
 227      C3B5E94E 
 227      6FD1A2F0 
 227      2CDF70F9 
 228 0095 7D33FF62 		.ascii	"}3\377b\302\0077\275G\271\213\035C\336\341\226\206\242"
 228      C20737BD 
 228      47B98B1D 
 228      43DEE196 
 228      86A2
 229 00a7 47B1EF58 		.ascii	"G\261\357X\206)m.w.QL\363\365_\211o\341\337\237\265"
 229      86296D2E 
 229      772E514C 
 229      F3F55F89 
 229      6FE1DF9F 
 230 00bc 9CA28CE5 		.ascii	"\234\242\214\345\007\212z\325\004\\`n\257\354\206a\244"
 230      078A7AD5 
 230      045C606E 
 230      AFEC8661 
 230      A4
 231 00cd 59F9386F 		.ascii	"Y\3718o\023JA\020\205m>\221Of\333KM\025M\327\357j\336"
 231      134A4110 
 231      856D3E91 
 231      4F66DB4B 
 231      4D154DD7 
 232 00e4 BFA1D2AC 		.ascii	"\277\241\322\254\337U:\353\234\253N\367L\351\324\264"
 232      DF553AEB 
 232      9CAB4EF7 
 232      4CE9D4B4 
 233 00f4 4D365427 		.ascii	"M6T'\203\323\343C\345\22249R\303\201VIG74~\0004\020"
 233      83D3E343 
 233      E5923439 
 233      52C38156 
 233      49473734 
 234 010c 49AB     		.ascii	"I\253"
 235              		.text
 236              		.section	.gnu.lto_adcConvert.82a111112bca6df8,"",%progbits
 237 0000 789C8D92 		.ascii	"x\234\215\222\317k\023A\024\307\337\233\331\244k\243"
 237      CF6B1341 
 237      14C7DF9B 
 237      D9A46BA3 
 238 0010 6D0F1EF4 		.ascii	"m\017\036\364Rr\351E%#\370\017\024\004\241\207^L\005"
 238      5272E945 
 238      2523F80F 
 238      1404A187 
 238      5E4C05
 239 0023 3DC966B2 		.ascii	"=\311f\262$\203MV6\211\330\366\320I[J\017\036\212\012"
 239      24834D56 
 239      3689D8F6 
 239      D0495B4A 
 239      0F1E8A0A 
 240 0037 15454168 		.ascii	"\025EAh\361\307A\305\213\275\031\317\321J/\342\241\207"
 240      F1C741C5 
 240      8BBD19CF 
 240      D14A2FE2 
ARM GAS  /tmp/cc5Am63S.s 			page 18


 240      A187
 241 0049 4211F156 		.ascii	"B\021\361VOj.\365\315N\262\015\265\301.\354\23373o>"
 241      4F6A2EF5 
 241      CD4EB20D 
 241      B5C12EEC 
 241      9B37336F 
 242 005e DF37F31E 		.ascii	"\3377\363\036\003\006\007\277\323\364\267h\371\003\215"
 242      030607BF 
 242      D3F4B768 
 242      F9038D
 243 006d C801D9F2 		.ascii	"\310\001\331\362\006@\335e\210\306\001\204Y\206\263"
 243      0640DD65 
 243      88C60184 
 243      5986B3
 244 007c D7308A7D 		.ascii	"\3270\212}\315\032\333{{\257\276\334]\375\210Mv\222"
 244      CD1ADB7B 
 244      7BAFBEDC 
 244      5DFD884D 
 244      7692
 245 008e 6309C121 		.ascii	"c\011\301!\203\0112,I\206\273\240\020Rd\314\211\004"
 245      8309322C 
 245      4986BBA0 
 245      105264CC 
 245      8904
 246 00a0 2C68BD9C 		.ascii	",h\275\234\006\220\321\371\011\262\006z\005\231\031"
 246      0690D1F9 
 246      09B2067A 
 246      059919
 247 00af F906CCFD 		.ascii	"\371\006\314\375\374q\177\347T\034\346\341SL@\244\212"
 247      FC717FE7 
 247      541CE6E1 
 247      534C40A4 
 247      8A
 248 00c0 1072932D 		.ascii	"\020r\223-\267)\017\303<>\326\017F\025F\323\253\250"
 248      B7290FC3 
 248      3C3ED60F 
 248      461546D3 
 248      ABA8
 249 00d2 90A78D17 		.ascii	"\220\247\215\027\357/\266\367\035{\255O0\327\334\332"
 249      EF2FB6F7 
 249      1D7BAD4F 
 249      30D7DCDA 
 250 00e2 5D3913B3 		.ascii	"]9\023\263\255\243w\3262\035\035\031\345\010g\341\245"
 250      ADA377D6 
 250      321D1D19 
 250      E50867E1 
 250      A5
 251 00f3 D6BAF1A7 		.ascii	"\326\272\361\247\311\025&\036\301\303\272\326C\012\223"
 251      C915261E 
 251      C1C3BAD6 
 251      430A93
 252 0102 05E446A5 		.ascii	"\005\344F\245/\242\345L\244\207/Lv\005c\014~\375\375"
 252      2FA2E54C 
 252      A4872F4C 
 252      7605630C 
 252      7EFDFD
 253 0115 26F3F039 		.ascii	"&\363\3609M-B\017*t{\002\260\013\220\264\200\257\207"
ARM GAS  /tmp/cc5Am63S.s 			page 19


 253      4D2D420F 
 253      2A747B02 
 253      B00B90B4 
 253      80AF87
 254 0128 008EF504 		.ascii	"\000\216\365\004\260.\200\023\001\326\177\037\002\350"
 254      B02E8013 
 254      01D67F1F 
 254      02E8
 255 0136 EF09E031 		.ascii	"\357\011\3401\300\254\366\323\024>\303\302\366\322\367"
 255      C0ACF6D3 
 255      143EC3C2 
 255      F6D2F7
 256 0145 01CB0098 		.ascii	"\001\313\000\230\201\226^2GS\022Y;\326\310\321\313\034"
 256      81965E32 
 256      47531259 
 256      3BD6C8D1 
 256      CB1C
 257 0157 8F145BF3 		.ascii	"\217\024[\363\337F\354\343\025\320\235\201i\252u[\371"
 257      DF46ECE3 
 257      15D09D81 
 257      69AA755B 
 257      F9
 258 0168 1E214F90 		.ascii	"\036!O\2204\376\253\353\3547\033\351\355>Y\373u\207"
 258      34FEABEB 
 258      EC371BE9 
 258      ED3E59FB 
 258      7587
 259 017a 1F284BA3 		.ascii	"\037(K\243\271U\335/\013\267\252\2518\235\001\211\216"
 259      B955DD2F 
 259      0BB7AAA9 
 259      389D0189 
 259      8E
 260 018b 87EF3AE9 		.ascii	"\207\357:\351\270\012\007\001\216\322=\036\256\022-"
 260      B80A0701 
 260      8ED23D1E 
 260      AE122D
 261 019a EA16E8EA 		.ascii	"\352\026\350\352\026\017\237\341\260\315h\023\352o\336"
 261      160F9FE1 
 261      B0CD6813 
 261      EA6FDE
 262 01a9 AE60E752 		.ascii	"\256`\347R)\273:A\345\242\0165\301\031Q\014J\276\220"
 262      29BB3A41 
 262      E5A20E35 
 262      C119510C 
 262      4ABE90
 263 01bc 417E4AE4 		.ascii	"A~J\344\375[B\026UN\005\025Q\015k\345\033\202\234\242"
 263      FD5B4216 
 263      554E0515 
 263      510D6BE5 
 263      1B829CA2 
 264 01d0 37292AA1 		.ascii	"7)*\241\024^^f$\214\376/\334\277]\025\027\307\263cY"
 264      145E5E66 
 264      248CFE2F 
 264      DCBF5D15 
 264      17C7B363 
 265 01e5 A1CA72B2 		.ascii	"\241\312r\262\2267\261\241\177]\226.\325\3122S\204\241"
 265      9637B1A1 
ARM GAS  /tmp/cc5Am63S.s 			page 20


 265      7F5D962E 
 265      D5CA3253 
 265      84A1
 266 01f7 F1ECE574 		.ascii	"\361\354\345t\316\253\3707Cu.=r\036X\010}%\277\024\204"
 266      CEABF837 
 266      43752E3D 
 266      721E5808 
 266      7D25BF14 
 267 020c 5370E128 		.ascii	"Sp\341(\271\004\0252a5\032\211\367\027\256\373\356Y"
 267      B9041532 
 267      61351A89 
 267      F717AEFB 
 267      EE59
 268              		.text
 269              		.section	.gnu.lto_adcAcquireBus.82a111112bca6df8,"",%progbits
 270 0000 789C8D50 		.ascii	"x\234\215P\241N\303P\024=\347\225\022$\026\207\204\220"
 270      A14EC350 
 270      143DE795 
 270      12241687 
 270      8490
 271 0012 EC097E65 		.ascii	"\354\011~e$ \020\335\353\262\276\300h\322\016\022\230"
 271      242010DD 
 271      EBB2BEC0 
 271      68D20E12 
 271      98
 272 0023 58071508 		.ascii	"X\007\025\010\3044(L\005\002P\350y\262\021\302\017T"
 272      C434284C 
 272      050250E8 
 272      79B211C2 
 272      0F54
 273 0035 821A0A31 		.ascii	"\202\032\0121Sn[ \004\305I\356=\347\345\336s\357\315"
 273      536E5B20 
 273      04C549EE 
 273      3DE7E5DE 
 273      73EFCD
 274 0048 5350F88B 		.ascii	"SP\370\213\025\211\231\204/A\007T\243)0\\Rd)@\014\024"
 274      15899984 
 274      2F410754 
 274      A329305C 
 274      52642940 
 275 005e 073BAC7A 		.ascii	"\007;\254z\357\3248/\212\333\207\227\354\202S\265Hv"
 275      EFD4382F 
 275      8ADB8797 
 275      EC8253B5 
 275      4876
 276 0070 29136D55 		.ascii	")\023mUt\221&\311h\0250\325\263)\271\034\260EU\2623"
 276      749126C9 
 276      681530D5 
 276      B329B91C 
 276      B04555B2 
 277 0085 C1E9FCAC 		.ascii	"\301\351\374\254\310\326<^\323E\207\252\217\0231n\340"
 277      C8D63C5E 
 277      D34587AA 
 277      8F13316E 
 277      E0
 278 0096 2611EC5A 		.ascii	"&\021\354Z\362\012\227\264T\035r[\330\251\026\266\370"
 278      F20A97B4 
ARM GAS  /tmp/cc5Am63S.s 			page 21


 278      541D725B 
 278      D8A916B6 
 278      F8
 279 00a7 EBD227A4 		.ascii	"\353\322'\244\357o\367\0379\177V\325b\3748K]\240\236"
 279      EF6FF71F 
 279      397F56D5 
 279      62FC384B 
 279      5DA09E
 280 00ba 6CF865E9 		.ascii	"l\370e\351c\236\234'\313\226\013\206\312c&5\201,\266"
 280      639E9C27 
 280      CB960B86 
 280      CA632635 
 280      812CB6
 281 00cd A57AC630 		.ascii	"\245z\3060\177]\257-\337h\212UN-\277\250\241\203\260"
 281      7F5DAF2D 
 281      DF688A55 
 281      4E2DBFA8 
 281      A183B0
 282 00e0 DBD626F4 		.ascii	"\333\326&\364\217\265\337>\322&\260-\033\306\272\027"
 282      8FB5DF3E 
 282      D226B02D 
 282      1BC6BA17 
 283 00f0 1D1EEC69 		.ascii	"\035\036\354i\021\201\267\257\343\310h\3177\015\203"
 283      1181B7AF 
 283      E3C868CF 
 283      370D83
 284 00ff CDFFB487 		.ascii	"\315\377\264\207\261\244\250Wq#\300'@\335aL"
 284      B1A4A857 
 284      7123C027 
 284      40DD614C 
 285              		.text
 286              		.section	.gnu.lto_adcReleaseBus.82a111112bca6df8,"",%progbits
 287 0000 789C8D50 		.ascii	"x\234\215P\261J\303P\024=\347\305\210\243\253\233\263"
 287      B14AC350 
 287      143DE7C5 
 287      88A3AB9B 
 287      B3
 288 0011 85BCC15F 		.ascii	"\205\274\301_iA\307\364\2454\017\255\301\244\012\332"
 288      6941C7F4 
 288      A5340FAD 
 288      C1A40ADA 
 289 0021 A1A976E8 		.ascii	"\241\251v\350\340\220Y'A*8\350/t\027\025qq\354\352d"
 289      E0905927 
 289      412A38E8 
 289      2F741715 
 289      7171ECEA 
 290 0036 270B5DE2 		.ascii	"'\013]\342M\242\"N\036\270\367\234\307\275\347\336\313"
 290      4DA2224E 
 290      1EB8F79C 
 290      C7BDE7DE 
 290      CB
 291 0047 5350F88B 		.ascii	"SP\370\2135\211w\211@\202\016\250\262G`\260\242\310"
 291      35897789 
 291      40820EA8 
 291      B24760B0 
 291      A2C8
 292 0059 4280E82B 		.ascii	"B\200\350+\366\267Y\366\336\251\3114\317o?^\306g|U\313"
ARM GAS  /tmp/cc5Am63S.s 			page 22


 292      F6B759F6 
 292      DEA9C934 
 292      CF6F3F5E 
 292      C6677C55 
 293 006e 648732D1 		.ascii	"d\2072\321\226E\027\3034\315\326\001S>\353\222\213\001"
 293      964517C3 
 293      34CDD601 
 293      533EEB92 
 293      8B01
 294 0080 0DAA829D 		.ascii	"\015\252\202\235\007\234,N\363\353\015\237\227t\321"
 294      079C2C4E 
 294      F3EB0D9F 
 294      9774D1
 295 008f A6EAE158 		.ascii	"\246\352\341X\2145\334\244\202}K^\340\234\226\252Mn"
 295      8C35DCA4 
 295      827D4B5E 
 295      E09C96AA 
 295      4D6E
 296 00a1 093BE5C2 		.ascii	"\011;\345\302&\177]\372\204\341\354-\233\317\370\263"
 296      267F5DFA 
 296      84E1EC2D 
 296      9BCFF8B3 
 297 00b1 AA1293FB 		.ascii	"\252\022\223\373\374\312\005\252\311\206_\226\036\026"
 297      FCCA05AA 
 297      C9865F96 
 297      1E16
 298 00bf E9285DB5 		.ascii	"\351(]\265\\2T>\307R\023\310b[\250g\014\246\243Ze\371"
 298      5C32543E 
 298      C75213C8 
 298      625BA867 
 298      0CA6A35A 
 299 00d5 465DAC72 		.ascii	"F]\254rj\361E\236\016\243NK\233(8\322A\353P\233\320"
 299      6AF1459E 
 299      0EA34E4B 
 299      9B2838D2 
 299      41EB509B 
 300 00ea 366D94E8 		.ascii	"6m\224\350n|\260\267\243E\204\376\256Nb\243\375\300"
 300      6E7CB0B7 
 300      A34584FE 
 300      AE4E62A3 
 300      FDC0
 301 00fc 78069BFF 		.ascii	"x\006\233\377i\217\022Iq\267d/\304'\234*ap"
 301      698F1249 
 301      71B7642F 
 301      C4279C2A 
 301      6170
 302              		.text
 303              		.section	.gnu.lto_.symbol_nodes.82a111112bca6df8,"",%progbits
 304 0000 789C4DCC 		.ascii	"x\234M\314\271N\003A\020\204\341\252Y_k\257\257\365"
 304      B94E0341 
 304      1084E1AA 
 304      595F6BAF 
 304      AFF5
 305 0012 F1BA65C9 		.ascii	"\361\272e\311\011!/\000\211\337\004\002l\203\327\\\022"
 305      09212F00 
 305      89DF0402 
 305      6C83D75C 
ARM GAS  /tmp/cc5Am63S.s 			page 23


 305      12
 306 0023 420881B5 		.ascii	"B\010\201\265\"'\200\0241\303X\364L\362\353ku\217\203"
 306      22278014 
 306      31C358F4 
 306      4CF2EB6B 
 306      758F83
 307 0036 C39A88CF 		.ascii	"\303\232\210\317}R\300i\005Hg'tW\024\217<\367\\S.\341"
 307      7D52C069 
 307      05486727 
 307      7457148F 
 307      3CF75C53 
 308 004c 86CA126E 		.ascii	"\206\312\022n\251F\302k\252\231\360\206j%\334Q\355\204"
 308      A946C26B 
 308      AA99F086 
 308      6A25DC51 
 308      ED84
 309 005e 15D549B8 		.ascii	"\025\325I\270\247\362\204\267T7\341\035\3253\362\205"
 309      A7F284B7 
 309      5437E11D 
 309      D533F285 
 310 006e 2A22170B 		.ascii	"*\"\027\013\362\215\352\233\356\251\201\351\201\032"
 310      F28DEA9B 
 310      EEA981E9 
 310      811A
 311 007c 9A1EA991 		.ascii	"\232\036\251\221\351\211\032\233\236\251\322\364JML"
 311      E9891A9B 
 311      9EA9D2F4 
 311      4A4D4C
 312 008b 076A6AAA 		.ascii	"\007jj\252\251\231\351\203\232\377+C\037\313\303\217"
 312      A999E983 
 312      9AFF2B43 
 312      1FCBC38F 
 313 009b 6F81E5BB 		.ascii	"o\201\345\273/\007\261n\210:\314\263\021.\203\033c\254"
 313      2F07B16E 
 313      883ACCB3 
 313      112E831B 
 313      63AC
 314 00ad 429B2556 		.ascii	"B\233%Va\336*\343]\273@\375U\371NP\177\373v\200\213"
 314      61DE2AE3 
 314      5DBB40FD 
 314      55F94E50 
 314      7FFB7680 
 315 00c2 E0FCB897 		.ascii	"\340\374\270\227O\343?\335Y\274\357\315\377\212_#\214"
 315      4FE33FDD 
 315      59BCEFCD 
 315      FF8A5F23 
 315      8C
 316 00d3 91B2     		.ascii	"\221\262"
 317              		.text
 318              		.section	.gnu.lto_.refs.82a111112bca6df8,"",%progbits
 319 0000 789C6362 		.ascii	"x\234cb`b`d\200\002\000\000F\000\006"
 319      60626064 
 319      80020000 
 319      460006
 320              		.text
 321              		.section	.gnu.lto_.decls.82a111112bca6df8,"",%progbits
 322 0000 789CBD5C 		.ascii	"x\234\275\\\013t\024U\232\256\252\356\316\203\004\010"
ARM GAS  /tmp/cc5Am63S.s 			page 24


 322      0B741455 
 322      9AAEAAEE 
 322      CE830408 
 323 0010 6155DC33 		.ascii	"aU\3343{l\317:{<:\022\022X\205\231Y\204\011(0\004\330"
 323      7B6CCF3A 
 323      7B3C3A12 
 323      12588599 
 323      59840928 
 324 0027 04D6DD39 		.ascii	"\004\326\3359\273\247-:\005\3511\351n\273;\010\263g"
 324      BBA72D3A 
 324      05E931E9 
 324      6EBB3B08 
 324      B367
 325 0039 8F45028C 		.ascii	"\217E\002\214\004\006B\302SB\002(\212:\362R\210 `\343"
 325      040642C2 
 325      53420228 
 325      8A3AF252 
 325      882060E3 
 326 004d 2244A201 		.ascii	"\"D\242\001\203\021Q\224 \342\003\361\021\302\033!\373"
 326      83115194 
 326      20E203F1 
 326      11C21B21 
 326      FB
 327 005e DFBFAABA 		.ascii	"\337\277\252\272\353\336\256\352T\305q\373\234\373W"
 327      EBDEAEEA 
 327      54C571FB 
 327      9CFB57
 328 006d 75D5BDDF 		.ascii	"u\325\275\337\375\337\365\337[\235\010\234\300\335\345"
 328      FDDFF5DF 
 328      5B9D089C 
 328      C0DDE5
 329 007c E2B82EF8 		.ascii	"\342\270.\370\024N\340\270\305\351\034\327\233\343\270"
 329      144EE0B8 
 329      C5E91CD7 
 329      9BE3B8
 330 008b E1D01CD0 		.ascii	"\341\320\034\320\326A{\011\332ox\016?\267A\033\017\347"
 330      D6417B09 
 330      DA6F780E 
 330      3FB7411B 
 330      0FE7
 331 009d BD058EEB 		.ascii	"\275\005\216\353\007\3556hw@\373Gh9\320\356\207\366"
 331      07ED3668 
 331      7740FB47 
 331      6839D0EE 
 331      87F6
 332 00af 6B68C3A1 		.ascii	"kh\303\241\215\2036\001Z!\264\311\320\376\000\355?\241"
 332      8D833601 
 332      5A21B4C9 
 332      D0FE00ED 
 332      3FA1
 333 00c1 3D0A6D2A 		.ascii	"=\012m*\264bh\323\240\225@+\205\346\027\270\204\017"
 333      B46268D3 
 333      A095402B 
 333      85E617B8 
 333      840F
 334 00d3 992B038E 		.ascii	"\231+\003\216\217\300\275 \264lh\021\2706\011\332D^"
 334      8FC0BD20 
ARM GAS  /tmp/cc5Am63S.s 			page 25


 334      B46C6811 
 334      B83609DA 
 334      445E
 335 00e5 E16B33B4 		.ascii	"\341k3\264\307\005\205\327)\202\302w\030\256M\201\266"
 335      C70585D7 
 335      2982C277 
 335      18AE4D81 
 335      B6
 336 00f6 099A53C5 		.ascii	"\011\232S\305!|\204T^\2108\275\230\371\210L\344\322"
 336      217C8454 
 336      5E8838BD 
 336      98F9884C 
 336      E4D2
 337 0108 2C207DD4 		.ascii	", }\324{\202z\375\017\006\274\021\3713\3418L\345C\343"
 337      7B827AFD 
 337      0F06BC11 
 337      F933E138 
 337      4CE543E3 
 338 011c E9DFA179 		.ascii	"\351\337\241y\241\005x\205W\302\037\321\341\237\240"
 338      A1057885 
 338      57C21FD1 
 338      E19FA0
 339 012b FF7F414B 		.ascii	"\377\177AK\345\024\336\036\2016\025\232\237W\370%\274"
 339      E514DE1E 
 339      8136159A 
 339      9F57F825 
 339      BC
 340 013c BEC22BFC 		.ascii	"\276\302+\374\023\354\377V\365Ex\275\205\231\237\350"
 340      13ECFF56 
 340      F54578BD 
 340      85999FE8 
 341 014c 1D4CC5C9 		.ascii	"\035L\305\311pl\202c\205\240\314\253\361\240\351\212"
 341      706C8263 
 341      85A0CCAB 
 341      F1A0E98A 
 342 015c F045863E 		.ascii	"\360E\206>\242\352CP\307>\252\312\372\013 \377\300`"
 342      A2EA4350 
 342      C73EAACA 
 342      FA0B20FF 
 342      C060
 343 016e 137BA631 		.ascii	"\023{\2461\330z<m\016\236\213c\336\241\332\224\\\273"
 343      D87A3C6D 
 343      0E9E8B63 
 343      DEA1DA94 
 343      5CBB
 344 0180 93C123BE 		.ascii	"\223\301#\276\221\301\340yu8\232\236~\243\343\233\330"
 344      91C1E079 
 344      75389A9E 
 344      7EA3E39B 
 344      D8
 345 0191 4CAF9B29 		.ascii	"L\257\233)\252^4?+V\373\334\003\307{\241\375\012\332"
 345      AA5E343F 
 345      2B56FBDC 
 345      03C77BA1 
 345      FD0ADA
 346 01a4 7DCCBC39 		.ascii	"}\314\2749\252\034=\231K\340\350yr\3418\030\332\020"
 346      AA1C3D99 
ARM GAS  /tmp/cc5Am63S.s 			page 26


 346      4BE0E879 
 346      72E13818 
 346      DA10
 347 01b6 6879CC3C 		.ascii	"hy\314<\304\347\373\302q8\257\370\251^N\275\276\364"
 347      C4E7FBC2 
 347      7138AFF8 
 347      A95E4EBD 
 347      BEF4
 348 01c8 FE6BE4B3 		.ascii	"\376k\344\263St~\340Tq\211\317\316Q\343\204\350v(37"
 348      53747EE0 
 348      547189CF 
 348      CE51E384 
 348      E8762833 
 349 01dd 89B51475 		.ascii	"\211\265\024un\375\\\363\341z\001c#\322w\274z\355\267"
 349      6EFD5CF3 
 349      E17A0163 
 349      23D277BC 
 349      7AEDB7
 350 01f0 0C0E89D7 		.ascii	"\014\016\211\327,N\341\177\235M[\021Y\252\340\350\203"
 350      2C4EE17F 
 350      9D4D5B11 
 350      59AAE0E8 
 350      83
 351 0201 E632D025 		.ascii	"\3462\320%\221\307\245\316\241\351t\201\032\367D\316"
 351      91C7A5CE 
 351      A1E97481 
 351      1AF744CE 
 352 0211 D1707C08 		.ascii	"\321p|\010\332\303\320\3060|\215S\345\033\246\306\220"
 352      DAC3D0C6 
 352      307C8D53 
 352      E51BA6C6 
 352      90
 353 0222 C687164B 		.ascii	"\306\207\026KD\026-fH\337\305j.!\327\3073X\023l`\221"
 353      44162D66 
 353      48DFC56A 
 353      2E21D7C7 
 353      3358136C 
 354 0238 BEB56A4E 		.ascii	"\276\265jN\"\327'1X\351\334S2|\326\316\223\3074\365"
 354      22D72731 
 354      58E9DC53 
 354      327CD6CE 
 354      93C734F5 
 355 024c 21A127F2 		.ascii	"!\241'\362}\32297\236d\246\243X\277\344\236\225\345"
 355      7DD23937 
 355      9E64A6A3 
 355      58BFE49E 
 355      95E5
 356 025e EAF6B7BE 		.ascii	"\352\366\267\276\374\312!\313i\"\277\216O\0073\374\236"
 356      FCCA21CB 
 356      6922BF8E 
 356      4F0733FC 
 356      9E
 357 026f E7EEE15E 		.ascii	"\347\356\341^\200\241\325\262\274\376\036\236K\374X"
 357      80A1D5B2 
 357      BCFE1E9E 
 357      4BFC58
 358 027e 87EE38B0 		.ascii	"\207\3568\260\177+_!\313pc\003\202\377\017\317\211\374"
ARM GAS  /tmp/cc5Am63S.s 			page 27


 358      7F2B5F21 
 358      CB706303 
 358      82FF0FCF 
 358      89FC
 359 0290 B3FC3DB6 		.ascii	"\263\374=\266\221V\037j\034\212LnD\234]<\015$\362)\351"
 359      91561F6A 
 359      1C8A4C6E 
 359      449C5D3C 
 359      0D24F229 
 360 02a5 7A16F1BB 		.ascii	"z\026\361\273\326\201\240\301W2\323\025\362\030\341"
 360      D681A0C1 
 360      5732D315 
 360      F218E1
 361 02b4 9F54AF90 		.ascii	"\237T\257\220/\251\334\377\373\270ln\011\271\347\326"
 361      2FA9DCFF 
 361      FBB86C6E 
 361      09B9E7D6 
 362 02c4 892CF39A 		.ascii	"\211,\363\232\314Yq\231W\265\354\030\2102\277\304g\203"
 362      CC597199 
 362      57B5EC18 
 362      8832BFC4 
 362      6783
 363 02d6 CC571899 		.ascii	"\314W\030\231\273\205\021 H\310\220M0\\\031\210\300"
 363      BB851120 
 363      48C8904D 
 363      305C1988 
 363      C0
 364 02e7 72F4A2E8 		.ascii	"r\364\242\350V\256r\024 \365\271\223[K\272^>\223.\327"
 364      56AE7214 
 364      20F5B993 
 364      5B4BBA5E 
 364      3E932ED7 
 365 02fb 641A4C35 		.ascii	"d\032L5B\233)-\316\360\232\232\226%\374\0344\3676d\371"
 365      429B292D 
 365      CEF09A9A 
 365      9625FC1C 
 365      34F73664 
 366 0310 0DC190E5 		.ascii	"\015\301\220\345\265#\314\200\004\3560\016\331\316\260"
 366      B523CC80 
 366      04EE300E 
 366      D9CEB0
 367 031f DCBEE4D8 		.ascii	"\334\276\344\330\373\263\371\331\010\275\335\002\343"
 367      FBB3F9D9 
 367      08BDDD02 
 367      E3
 368 032c 15D1B679 		.ascii	"\025\321\266ykn\227\327\276\311gpU\360Uu1\0039\326:"
 368      6B6E97D7 
 368      BEC96770 
 368      55F05575 
 368      310339D6 
 369 0341 B5F947C5 		.ascii	"\265\371G\305\005\251\253\331\317\243\346w\241\030\313"
 369      05A9ABD9 
 369      CFA3E677 
 369      A118CB
 370 0350 1CDD6A9E 		.ascii	"\034\335j\236\206\021\270z\034\262'A\214\025\237jb\354"
 370      8611B87A 
 370      1CB22741 
ARM GAS  /tmp/cc5Am63S.s 			page 28


 370      8C159F6A 
 370      62EC
 371 0362 B124C675 		.ascii	"\261$\306uU\014\221\337\011\242\010\334\306\030\256"
 371      550C91DF 
 371      09A208DC 
 371      C618AE
 372 0371 51B0A8A7 		.ascii	"Q\260\250\247\312G\355@\343\335<\220Y-j`\233m\203\271"
 372      CA47ED40 
 372      E3DD3C90 
 372      592D6A60 
 372      9B6D83B9 
 373 0385 29B0DA83 		.ascii	")\260\332\203u\310\034\206q\205\2250\336\240\345\232"
 373      75C81C86 
 373      71859530 
 373      DEA0E59A 
 374 0395 B7308C77 		.ascii	"\2670\214w8\014\362\201%\240\216yo\355S3K\023B\355\355"
 374      380CF281 
 374      25A08E79 
 374      6FED5333 
 374      4B1342ED 
 375 03aa 31D4EAAA 		.ascii	"1\324\352\252\335\303\220\247f\004:\350`SK*\223ZR\351"
 375      DDC390A7 
 375      66043AE8 
 375      60534B2A 
 375      935A52E9 
 376 03be 50C7DBEA 		.ascii	"P\307\333\352\011\211\360\276\334\317\334]\340Z\255"
 376      0989F0BE 
 376      DCCFDC5D 
 376      E05AAD
 377 03cd 182ECDCC 		.ascii	"\030.\315\314\013\344\366\352\025g\370Urt\216C\013\310"
 377      0BE4F6EA 
 377      1567F855 
 377      72748E43 
 377      0BC8
 378 03df 14331D09 		.ascii	"\0243\035\011\334q\234\353\010\353\311\265\015\337V"
 378      DC719CEB 
 378      08EBC9B5 
 378      0DDF56
 379 03ee A89E7CC4 		.ascii	"\250\236|\304\222'76\257\260\026\220\2026\377]8\377"
 379      92273736 
 379      AFB01690 
 379      8236FF5D 
 379      38FF
 380 0400 6A2799BF 		.ascii	"j'\231\277\215\235\277\341\364W\303W\312r\226r\253\373"
 380      8D9DBFE1 
 380      F457C357 
 380      CA729672 
 380      ABFB
 381 0412 E9B7B62E 		.ascii	"\351\267\266.M\234^\344\207\337\222\3145j\033\016\236"
 381      4D9C5EE4 
 381      87DF92CC 
 381      356A1B0E 
 381      9E
 382 0423 57853C8E 		.ascii	"W\205<\216\021s\306\311:\307\203\031\264\371\340\273"
 382      1173C6C9 
 382      3AC78319 
 382      B4F9E0BB 
ARM GAS  /tmp/cc5Am63S.s 			page 29


 383 0433 AE83C07D 		.ascii	"\256\203\300}\027c\277G\001\013r6\215}a\233,\317O\321"
 383      1763BF47 
 383      010B7236 
 383      8D7D619B 
 383      2CCF4FD1 
 384 0447 78E8B08D 		.ascii	"x\350\260\215\350\2464\361j+\246\000\005\354\202\025"
 384      E8A634F1 
 384      6A2BA600 
 384      05EC8215 
 385 0457 30534FAA 		.ascii	"0SO\252\210\356\320\203]\266\015Fs\366\232\036\354\232"
 385      88EED083 
 385      5DB60D46 
 385      73F69A1E 
 385      EC9A
 386 0469 15B02C73 		.ascii	"\025\260,s\316v\351\301n\330\006\2439\333\255\007\223"
 386      CE76E9C1 
 386      6ED806A3 
 386      39DBAD07 
 386      93
 387 047a 5D16C006 		.ascii	"]\026\300\006\230s\266W\0176\3076\030\315\331\021=\330"
 387      9873B657 
 387      0F36C736 
 387      18CDD911 
 387      3DD8
 388 048c 5356C0DC 		.ascii	"SV\300\334\006\234\305>F\343\210[\277\317\307\374\\"
 388      069CC53E 
 388      46E3885B 
 388      BFCFC7FC 
 388      5C
 389 049d E016B8B4 		.ascii	"\340\026\270\264\224`\323\247\2718\306b\227\335\024"
 389      9460D3A7 
 389      B938C662 
 389      97DD14
 390 04ac 46C90D4F 		.ascii	"F\311\015O\322/\326\361\265\225r\323 \355i\266\314\012"
 390      D22FD6F1 
 390      B59572D3 
 390      20ED69B6 
 390      CC0A
 391 04be 62128779 		.ascii	"b\022\207y\372\240\356\321\270\3066\030\343\312\004"
 391      FAA0EED1 
 391      B8C63618 
 391      E3CA04
 392 04cd 8CCA35EA 		.ascii	"\214\3125\352\003\251}Ct\300\312x\266K\323\260H\241"
 392      03A97D43 
 392      74C0CA78 
 392      B64BD3B0 
 392      48A1
 393 04df ADA436A8 		.ascii	"\255\2446\250\273\205Xgy\300\000\343\276\"\177\211\377"
 393      BB855867 
 393      79C000E3 
 393      BE227F89 
 393      FF
 394 04f0 25D0CB7C 		.ascii	"%\320\313|z\214\013\345\\;\353\302U\325\006\227Q\011"
 394      7A8C0BE5 
 394      5C3BEBC2 
 394      55D50697 
 394      5109
ARM GAS  /tmp/cc5Am63S.s 			page 30


 395 0502 8F00C987 		.ascii	"\217\000\311\207\232y\302\005\275'\274hEMIB\341\344"
 395      9A79C205 
 395      BD27BC68 
 395      454D4942 
 395      E1E4
 396 0514 C1BADBE4 		.ascii	"\301\272\333\344\366(\257\2237\251r`\265\362\205ZA\\"
 396      F628AF93 
 396      37A97260 
 396      B5F2855A 
 396      415C
 397 0526 C7A7F556 		.ascii	"\307\247\365V\227\341c\337\002P\307\274\227\357E\240"
 397      97E163DF 
 397      0250C7BC 
 397      97EF45A0 
 398 0536 9BCA8AA2 		.ascii	"\233\312\212\242\307@\253\253\352\225\245\311l\201\000"
 398      C740ABAB 
 398      EA95A5C9 
 398      6C8100
 399 0545 BDE9621F 		.ascii	"\275\351b\037\021<S?\360\364\023>\246yU\361?W_\201{"
 399      113C533F 
 399      F0F4133E 
 399      A67955F1 
 399      3F575F81 
 400 055a 87B51625 		.ascii	"\207\265\026%N\267\271\006\212\360\033K\370\316\012"
 400      4EB7B906 
 400      8AF01B4B 
 400      F8CE0A
 401 0569 79E520EB 		.ascii	"y\345 \353\332\331\240\331k\036j\347\375\004\355\334"
 401      DAD9A0D9 
 401      6B1E6AE7 
 401      FD04EDDC 
 402 0579 B4A91E81 		.ascii	"\264\251\036\201;a[\214\273i1V\354\257\261+\306\031"
 402      3B615B8C 
 402      BB693156 
 402      ECAFB12B 
 402      C619
 403 058b 4D8C0528 		.ascii	"M\214\005(\306\347\177\0031\316\331\026c\220N\014\262"
 403      C6E77F03 
 403      31CED916 
 403      63904E0C 
 403      B2
 404 059c 96B858A3 		.ascii	"\226\270X\243d\300\376\\M\362*\216\360S-\364\247W\201"
 404      64C0FE5C 
 404      4DF22A8E 
 404      F0532DF4 
 404      A75781
 405 05af C70FF16E 		.ascii	"\307\017\361n\345\262\205e\340\241:u\031\242l\022t\""
 405      E5B28565 
 405      E0A13A75 
 405      19A26C12 
 405      7422
 406 05c1 EF646C4F 		.ascii	"\357dlO\252\0329\272\264\031s\255\002v\355'\201UD_Y"
 406      AA1A39BA 
 406      B41973AD 
 406      0276ED27 
 406      8155445F 
 407 05d6 A0AD911E 		.ascii	"\240\255\221\036$\251\2732\345\247\301\275\327lwU3\367"
ARM GAS  /tmp/cc5Am63S.s 			page 31


 407      24A9BB32 
 407      E5A7C1BD 
 407      D76C7755 
 407      33F7
 408 05e8 ACEA1CAB 		.ascii	"\254\352\034\253\3209\252RX\347hb\235\303J\221\277\274"
 408      D039AA52 
 408      58E76862 
 408      9DC34A91 
 408      BFBC
 409 05fa A772C43E 		.ascii	"\247r\304>\360\030K\261\220\237\335\246v\202\210\277"
 409      F0184BB1 
 409      909FDDA6 
 409      768288BF 
 410 060a ACFA58B7 		.ascii	"\254\372X\267+\005m\017\240\365\300lu\017\240A \213"
 410      2B056D0F 
 410      A0F5C06C 
 410      750FA041 
 410      208B
 411 061c E7758C36 		.ascii	"\347u\2146,,9\266\340\220\365B\302\342\371]m\361L\356"
 411      2C2C39B6 
 411      E090F542 
 411      C2E2F95D 
 411      6DF14CEE 
 412 0630 59587250 		.ascii	"YXrP\213g\221\337\307\013*nO5J\0311\316 P\201<\2147"
 412      8B6791DF 
 412      C70B2A6E 
 412      4F354A19 
 412      31CE2050 
 413 0648 0877EAB5 		.ascii	"\010w\352\265\037\265\255}\267^\373\321\353\315u\274"
 413      1FB5AD7D 
 413      B75EFBD1 
 413      EBCD75BC 
 414 0658 C2BFB29D 		.ascii	"\302\277\262\235r\210\305\033\241/\224\324\323\273M"
 414      7288C51B 
 414      A12F94D4 
 414      D3BB4D
 415 0667 AD19AD69 		.ascii	"\255\031\255i\321E]\233\025\346\006\231\201UD\353\025"
 415      D1455D9B 
 415      15E60699 
 415      815544EB 
 415      15
 416 0678 30C5E53F 		.ascii	"0\305\345?\266\015\346\246\300\366,2\330\255Q\366\250"
 416      B60DE6A6 
 416      C0F62C32 
 416      D8AD51F6 
 416      A8
 417 0689 CCF2D926 		.ascii	"\314\362\331&AW\207|ae\376\241\346\302\264\265h\371"
 417      4157877C 
 417      6165FEA1 
 417      E6C2B4B5 
 417      68F9
 418 069b 4DD998F8 		.ascii	"M\331\230\370\3016\036-O\307\"*%]\267\0027\302\262\343"
 418      C1361E2D 
 418      4FC7222A 
 418      255DB702 
 418      37C2B2E3 
 419 06af C5B79544 		.ascii	"\305\267\225D\376\015\254\002\243\374\235@\337D\272"
ARM GAS  /tmp/cc5Am63S.s 			page 32


 419      FE0DAC02 
 419      A3FC9D40 
 419      DF44BA
 420 06be 1FE961A4 		.ascii	"\037\351a\244\337#\355@\332\211\364\032\322\271\002"
 420      DF23ED40 
 420      DA89F41A 
 420      D2B902
 421 06cd A1554817 		.ascii	"\241UH\027#\255G\372<\322\027\220\276\204\364e\244["
 421      23AD47FA 
 421      3CD21790 
 421      BE84F465 
 421      A45B
 422 06df 906ED3BB 		.ascii	"\220n\323\273\267\231]\224P\213\005\246\026u\333{\274"
 422      B7995D94 
 422      508B05A6 
 422      1675DB7B 
 422      BC
 423 06f0 65F5417C 		.ascii	"e\365A|\313J\344\377\3276\230;\231&\267\3534\331\210"
 423      CB4AE4FF 
 423      D736983B 
 423      9926B7EB 
 423      34D988
 424 0703 9A7C0DF5 		.ascii	"\232|\015\365\363*\035\310\225\251\332>j\222\3003\027"
 424      F32A1DC8 
 424      95A9DA3E 
 424      6A92C033 
 424      17
 425 0714 A17D65CB 		.ascii	"\241}e\313^j\027o\001\213gs\325}Sj\032\304\204\312K"
 425      5E6A176F 
 425      018B6773 
 425      D57D536A 
 425      1AC484CA 
 426 0729 494265A7 		.ascii	"IBe\247>Tjm\317\235T\203\233t\032\334\202\032\334\212"
 426      3E546A6D 
 426      CF9D5483 
 426      9B741ADC 
 426      821ADC8A 
 427 073d 1ADC811E 		.ascii	"\032\334\201\036\363\232^\217\251\334<\254\266\346V"
 427      F39A5E8F 
 427      A9DC3CAC 
 427      B6E656
 428 074c 74576D5D 		.ascii	"tWm]\274\326\364\367\225\230\350_\027R\201\347wS\351"
 428      BCD6F4F7 
 428      9598E85F 
 428      175281E7 
 428      7753E9
 429 075f 67880524 		.ascii	"g\210\005$\302\333^\030L\225<\333\347\365\225\235\312"
 429      C2DB5E18 
 429      4C953CDB 
 429      E7F5959D 
 429      CA
 430 0770 F5244F0F 		.ascii	"\365$O\017\007\207\357\036?LUv\323\235\351\361k\247"
 430      0787EF1E 
 430      3F4C5576 
 430      D39DE9F1 
 430      6BA7
 431 0782 E3D7785D 		.ascii	"\343\327x]\327s\361\313\202\356\362\245\370e\207\356"
ARM GAS  /tmp/cc5Am63S.s 			page 33


 431      D773F1CB 
 431      82EEF2A5 
 431      F86587EE 
 432 0792 F2ECB4D8 		.ascii	"\362\354\264\330e\247\356\362\242\370e\227\316\231\222"
 432      65A7EEF2 
 432      A2F86597 
 432      CE9992
 433 07a1 96FC7109 		.ascii	"\226\374q\011!\023\340#(*8\014\207\335\301\325\313\321"
 433      2113E023 
 433      282A380C 
 433      87DDC1D5 
 433      CBD1
 434 07b3 F6F68EF5 		.ascii	"\366\366\216\365W\177\273\274\262\242I\376\201T\031"
 434      577FBBBC 
 434      B2A249FE 
 434      815419
 435 07c2 B772CBD4 		.ascii	"\267r\313\324\367/2\0371\335\014#\023\275"
 435      F72F321F 
 435      31DD0C23 
 435      13BD
 436 07d0 2BDC1AD7 		.ascii	"+\334\032\327\015y[\332\315&\236C\003\030\022\267j\303"
 436      0D795BDA 
 436      CD269E43 
 436      031812B7 
 436      6AC3
 437 07e2 73EFDDBB 		.ascii	"s\357\335\273\013\267\354\216`e\2600\275\373mu\012G"
 437      0BB7EC8E 
 437      6065B030 
 437      BDFB6D75 
 437      0A47
 438 07f4 E45B0512 		.ascii	"\344[\005\022\376G\231\312 zcq&\261\353QKU\301\262\326"
 438      FE4799CA 
 438      207A6371 
 438      26B1EB51 
 438      4B55C1B2 
 439 0809 7A5C736A 		.ascii	"z\\sj\316\265\034\3318*$\255\303\343\366H\010\30655"
 439      CEB51CD9 
 439      382A24AD 
 439      C3E3F648 
 439      08C63535 
 440 081d 0DA61B9B 		.ascii	"\015\246\033\233\360\205O^0E;\017\363\356nk\"\221\377"
 440      F0854F5E 
 440      30453B0F 
 440      F3EE6E6B 
 440      2291FF
 441 0830 08ACDB6D 		.ascii	"\010\254\333m7\322\361\004\253\234\223\207Q9',)\247"
 441      37D2F104 
 441      AB9C9387 
 441      5139272C 
 441      29A7
 442 0842 E370BD9A 		.ascii	"\343p\275\232\251\224m\365:T\316\211\237P2i\356\371"
 442      A9946DF5 
 442      3A54CE89 
 442      9F503269 
 442      EEF9
 443 0854 09BAE7A7 		.ascii	"\011\272\347\247tb]\317\270\200\306\246nt\\\036\216"
 443      74625DCF 
ARM GAS  /tmp/cc5Am63S.s 			page 34


 443      B880C6A6 
 443      6E745C1E 
 443      8E
 444 0865 1D6FA682 		.ascii	"\035o\246\202\017\365\371\356\257\254y\255>1T\215l7"
 444      0FF5F9EE 
 444      AFAC79AD 
 444      3E31548D 
 444      6C37
 445 0877 32AFBA36 		.ascii	"2\257\2726\220\347\311wo\214\333\"K\203\023\342\346"
 445      90E7C977 
 445      6F8CDB22 
 445      4B8313E2 
 445      E6
 446 0888 6DA8BA85 		.ascii	"m\250\272\205h\377s,\223^a\304\265\014\323\3361\257"
 446      68FF732C 
 446      935E61C4 
 446      B50CD3DE 
 446      31AF
 447 089a F157B8C4 		.ascii	"\361W\270\304\370\022\201\336\3501\320\352\252\347\225"
 447      F81281DE 
 447      E831D0EA 
 447      AAE795
 448 08a9 B71D6711 		.ascii	"\267\035g\021\250)\301\000\016f\251\342\240\227*\216"
 448      A829C100 
 448      0E66A9E2 
 448      A0972A8E 
 449 08b9 F4F84957 		.ascii	"\364\370IW\227\203\373\031;\233\231\367\264\336\274"
 449      9783FB19 
 449      3B9B99F7 
 449      B4DEBC
 450 08c8 47AD98D7 		.ascii	"G\255\230\327\374Q\012I\251c\354\036\334_\267\276\336"
 450      FC510A49 
 450      A963EC1E 
 450      DC5FB7BE 
 450      DE
 451 08d9 BBBCE9D4 		.ascii	"\273\274\351\324\2577c\"\373\036\225\270\250\027\253"
 451      AF376322 
 451      FB1E95B8 
 451      A817AB
 452 08e8 4417A344 		.ascii	"D\027\243D\027-\252+=~\022[\357-\353eW\0227#\311{\343"
 452      172DAA2B 
 452      3D7E125B 
 452      EF2DEB65 
 452      57123723 
 453 08ff F6A22486 		.ascii	"\366\242$\206\231H\2462Q4\366\226\345\356\270\257\036"
 453      9948A632 
 453      5134F696 
 453      E5EEB8AF 
 453      1E
 454 0910 8DA722B7 		.ascii	"\215\247\"\267i_\221\277\024OE\346\335H\307+\011\251"
 454      695F91BF 
 454      144F45E6 
 454      DD48C72B 
 454      09A9
 455 0922 A81953D1 		.ascii	"\250\031S\321\025K\251\350r\263\222\247\323\270?+\017"
 455      154BA9E8 
 455      72B392A7 
ARM GAS  /tmp/cc5Am63S.s 			page 35


 455      D3B83F2B 
 455      0F
 456 0933 7B7936FF 		.ascii	"{y6\377x\222\262\0017NE\376\272\220F\336\032\3652\335"
 456      7892B201 
 456      374E45FE 
 456      BA9046DE 
 456      1AF532DD 
 457 0947 F6241D34 		.ascii	"\366$\0354%*\347\332\031n\313\254C3\\\351\361\343\340"
 457      252AE7DA 
 457      196ECBAC 
 457      43335CE9 
 457      F1E3E0
 458 095a E682CC23 		.ascii	"\346\202\314#\217Z\317\017;\225\374 ;\310\325\027\023"
 458      8F5ACF0F 
 458      3B95FC20 
 458      3BC8D517 
 458      13
 459 096b 1C8984BB 		.ascii	"\034\211\204\273\255\240\021\270=\254\000\324\264F\002"
 459      ADA011B8 
 459      3DAC00D4 
 459      B44602
 460 097a 645102AC 		.ascii	"dQ\002\254h\251OLx\326+\205y\016\252R\200\225\010\204"
 460      68A94F4C 
 460      78D62B85 
 460      790EAA52 
 460      80950884 
 461 098e 6BEC8B1A 		.ascii	"k\354\213\032\273\261\357\337+\362\211\374\224xvH\362"
 461      BBB1EFDF 
 461      2BF289FC 
 461      94787648 
 461      F2
 462 099f B05CB5E0 		.ascii	"\260\\\265\340\357\210\266\346:H\025}\210\321\026S\021"
 462      EF88B6E6 
 462      3A48157D 
 462      88D11653 
 462      11
 463 09b0 1346CC98 		.ascii	"\023F\314\230\\\350\3100\361\277\204{P\010\262\012\265"
 463      5CE8C830 
 463      F1BF847B 
 463      5008B20A 
 463      B5
 464 09c1 F90469F8 		.ascii	"\371\004i\370i\012\255N\242P\313%u\364c\334\355\253"
 464      690AAD4E 
 464      A250CB25 
 464      75F463DC 
 464      EDAB
 465 09d3 75908AE7 		.ascii	"u\220\212\347d\257\036\225\323\313\035L9}\254\012\313"
 465      64AF1E95 
 465      D3CB1D4C 
 465      397DAC0A 
 465      CB
 466 09e4 6972BDFB 		.ascii	"ir\275\373r\372l/]9\315Y\250m\343\323\211\374\012\007"
 466      72FA6C2F 
 466      5D39CD59 
 466      A86DE3D3 
 466      89FC0A07 
 467 09f8 291E563A 		.ascii	")\036V:\214k[\033\016\364\272\342@\213\321\201n$w\240"
ARM GAS  /tmp/cc5Am63S.s 			page 36


 467      8C6B5B1B 
 467      0EF4BAE2 
 467      408BD181 
 467      6E2477A0 
 468 0a0c EA240E54 		.ascii	"\352$\016T\227\304\201\352X\007\252\316\260\340@I\226"
 468      97C481EA 
 468      5807AACE 
 468      B0E04049 
 468      96
 469 0a1d 7B7B5AE8 		.ascii	"{{Z\350\242l\225m<\332!?R\266n\024\2605V\300\222\274"
 469      A26C956D 
 469      3CDA213F 
 469      52B66E14 
 469      B03556C0 
 470 0a33 36BBA407 		.ascii	"6\273\244\007[g\033\214\346\254\346\260\016\354y+`I"
 470      5B671B8C 
 470      E6ACE6B0 
 470      0EEC792B 
 470      6049
 471 0a45 5E2ED5E9 		.ascii	"^.\325\351\301^\266\015Fs\266C\017\266\315\012\230\333"
 471      C15EB60D 
 471      4673B643 
 471      0FB6CD0A 
 471      98DB
 472 0a57 9CB3237A 		.ascii	"\234\263#z\260F\333`\356\004\227S\242\344*\226\330\327"
 472      B046DB60 
 472      EE049753 
 472      A2E42A96 
 472      D8D7
 473 0a69 70E5DD85 		.ascii	"p\345\335\205t\216\203\320EH\353\221\256E\272\036\351"
 473      748E83D0 
 473      4548EB91 
 473      AE45BA1E 
 473      E9
 474 0a7a B3489F43 		.ascii	"\263H\237C\272\021\351\213\016\252<\337\235\301>\217"
 474      BA11E98B 
 474      0EAA3CDF 
 474      9DC13E8F 
 475 0a8a AEB0E5F9 		.ascii	"\256\260\345\371\025\252<\377\233\315m\026w\027\364"
 475      15AA3CFF 
 475      9BCD6D16 
 475      7717F4
 476 0a99 B5DFE10C 		.ascii	"\265\337\341\014\013\025S\022\327\375\264\225}I\253"
 476      0B155312 
 476      D7FDB495 
 476      7D49AB
 477 0aa8 FCE22B49 		.ascii	"\374\342+I\351w|\357\361_\374\025K\277\315\230B\026"
 477      E9777CEF 
 477      F15FFC15 
 477      4BBFCD98 
 477      4216
 478 0aba 66B21ADA 		.ascii	"f\262\032\332\3113\277\010a6\304\004\256!\323.\333z"
 478      C933BF08 
 478      6136C404 
 478      AE21D32E 
 478      DB7A
 479 0acc 5794A1D0 		.ascii	"W\224\241\320\373\372\367{*\224\237\204\274\204\333"
ARM GAS  /tmp/cc5Am63S.s 			page 37


 479      FBFAF77B 
 479      2A949F84 
 479      BC84DB
 480 0adb 2F9B7981 		.ascii	"/\233y\201F\244\177\010\330}\250\254\2515_\303R?0ti"
 480      46A47F08 
 480      D87DA8AC 
 480      A9355FC3 
 480      523F3074 
 481 0af0 6093E23A 		.ascii	"`\223\342:Ys\372\324\"~+*e\207\203,\354\333\031\245"
 481      5973FAD4 
 481      227E2B2A 
 481      6587832C 
 481      ECDB19A5 
 482 0b04 740B846A 		.ascii	"t\013\204jr\260\213\372\317\232\224\037\341\221;\335"
 482      72B08BFA 
 482      CF9A941F 
 482      E1913BDD 
 483 0b14 948B732A 		.ascii	"\224\213s*\243KN7\011\370\233&\254\275*\223\326\361"
 483      A34B4E37 
 483      09F89B26 
 483      ACBD2A93 
 483      D6F1
 484 0b26 22FF366E 		.ascii	"\"\3776nUYy\015s\016\205!<X}\372\323|\325\234\0061j"
 484      5559790D 
 484      730E8521 
 484      3C587DFA 
 484      D37CD59C 
 485 0b3d 32457E37 		.ascii	"2E~7\226x\337\333\206sSpKi\270N+pf\217\026\200[N\303"
 485      9678DFDB 
 485      86735370 
 485      4B69B84E 
 485      2B70668F 
 486 0b56 5DB60D47 		.ascii	"]\266\015Gs\267\222\206\273a\005\316,@\001\356i\032"
 486      73B79286 
 486      BB6105CE 
 486      2C4001EE 
 486      691A
 487 0b68 AEB2B75D 		.ascii	"\256\262\267]8\232\273:\032n\276\0258\263\240\001\270"
 487      389ABB3A 
 487      1A6EBE15 
 487      38B3A001 
 487      B8
 488 0b79 7A1A6EB1 		.ascii	"z\032n\261m8\232\273-4\3342+pns\356\266\321p\253m\303"
 488      6D389ABB 
 488      2D34DC32 
 488      2B706E73 
 488      EEB6D170 
 489 0b90 D1DCBD4A 		.ascii	"\321\334\275J\3035X\2013{\025\005p;h\270gl\303\321\334"
 489      C3355881 
 489      337B1505 
 489      703B68B8 
 489      676CC3D1 
 490 0ba5 BD46C36D 		.ascii	"\275F\303m\264\002g\366n\013\340v\321p/\333\206\243"
 490      B40267F6 
 490      6E0BE076 
 490      D1702FDB 
 490      86A3
ARM GAS  /tmp/cc5Am63S.s 			page 38


 491 0bb7 B9DB4DC3 		.ascii	"\271\333M\303m\263\002g\366\262\012\340\366\322p\215"
 491      6DB30267 
 491      F6B20AE0 
 491      F6D2708D 
 492 0bc7 B6E168EE 		.ascii	"\266\341h\356\216\320p\273\255\300\2150\347\256\225"
 492      8ED070BB 
 492      ADC08D30 
 492      E7AE95
 493 0bd6 86DB671B 		.ascii	"\206\333g\033\216\346\356}\032\356\200\025\2701\346"
 493      8EE6EE7D 
 493      1AEE8015 
 493      B831E6
 494 0be5 DC7D40C3 		.ascii	"\334}@\3035\333\206ss\246\037\3753\014\012\011\\\262"
 494      35DB8673 
 494      73A61FFD 
 494      330C0A09 
 494      5CB2
 495 0bf7 BC8EA5CD 		.ascii	"\274\216\245\315^\244Q\244o\"\335\217\364\000\322&\244"
 495      5EA451A4 
 495      6F22DD8F 
 495      F400D226 
 495      A4
 496 0c08 8790BE83 		.ascii	"\207\220\276\203\264\005\351\021\244\255H\337G\372\001"
 496      B405E911 
 496      A4AD48DF 
 496      47FA01
 497 0c17 D20F917E 		.ascii	"\322\017\221~\204\364\004\322O\221\266#\375\314J\031"
 497      84F404D2 
 497      4F91B623 
 497      FDCC4A19 
 498 0c27 B5DDA12B 		.ascii	"\265\335\241+\243Zz[\250GL_+\343\306S\201\345\215\247"
 498      A35A7A5B 
 498      A8474C5F 
 498      2BE3C653 
 498      81E58DA7 
 499 0c3b 473540F2 		.ascii	"G5@\362\207ij\001\321\366\335\276a\344u\217A\235@u\027"
 499      87696A01 
 499      D1F6DDBE 
 499      61E4758F 
 499      419D4075 
 500 0c50 F9AF1C86 		.ascii	"\371\257\034\206[OT/\322\357,[L\324\266\340\316\323"
 500      5B4F542F 
 500      D2EF2C5B 
 500      4CD4B6E0 
 500      CED3
 501 0c62 D9EE4B09 		.ascii	"\331\356K\011\362\206\300\350m\264\325\277\332\200j"
 501      F286C0E8 
 501      6DB4D5BF 
 501      DA806A
 502 0c71 E81DB51A 		.ascii	"\350\035\265\032\372\016\253\241U}\272\257\206( \302"
 502      FA0EABA1 
 502      557DBAAF 
 502      862820C2 
 503 0c81 60474235 		.ascii	"`GB5t^\255\206:\254UC\235j5\024\313a\310EG\317\313\230"
 503      745EAD86 
 503      3AAC5543 
 503      9D6A3514 
ARM GAS  /tmp/cc5Am63S.s 			page 39


 503      CB61C845 
 504 0c99 4E2A70B6 		.ascii	"N*p\266\332\206sSpKi\270F+p\311\312\030\032n\267m8\267"
 504      DA867353 
 504      704B69B8 
 504      462B70C9 
 504      CA181A6E 
 505 0cb1 912EB904 		.ascii	"\221.\271\004c\210\374y\014\353N\014\265\213H/#\275"
 505      6388FC79 
 505      0CEB4E0C 
 505      B58B482F 
 505      23BD
 506 0cc3 6A25ECBE 		.ascii	"j%\354\276\325\207\335>d\362l\317,\002a\327\366\335"
 506      D587DD3E 
 506      64F26CCF 
 506      2C0261D7 
 506      F6DD
 507 0cd5 F1A1BB12 		.ascii	"\361\241\273\022\303N\321\201\031\0077\364\034\274m"
 507      C34ED181 
 507      190737F4 
 507      1CBC6D
 508 0ce4 9B03B79E 		.ascii	"\233\003\267\236\203\350\252\226:\365M\232\362\033\312"
 508      83E8AA96 
 508      3AF54D9A 
 508      F21BCA
 509 0cf3 1616CF68 		.ascii	"\026\026\317h\3534\311>G]K\306\226G5\2606\333`i\024"
 509      EB34C93E 
 509      475D4BC6 
 509      964735B0 
 509      36DB6069 
 510 0d08 58BD1EEC 		.ascii	"X\275\036\354\244m\260\254\004/P\354\377\015\332\377"
 510      A46DB0AC 
 510      042F50EC 
 510      FF0DDAFF 
 511 0d18 1CDAFC47 		.ascii	"\034\332\374G\244]Hg;\011\255tR\353\347/\230\320\327"
 511      A45D4867 
 511      3B09AD74 
 511      52EBE72F 
 511      98D0D7
 512 0d2b 12900E35 		.ascii	"\022\220\0165\236\2518\253\270f\266\375Bo\333\253}\354"
 512      9EA938AB 
 512      B866B6FD 
 512      426FDBAB 
 512      7DEC
 513 0d3d 2675CAB6 		.ascii	"&u\312\266\344\275H\301\036\365\357\016\224}\012\271"
 513      E4BD48C1 
 513      1EF5EF0E 
 513      947D0AB9 
 514 0d4d AF0544A3 		.ascii	"\257\005D\243\242\312\350\243\177\211\013O7\334\270"
 514      A2CAE8A3 
 514      7F890B4F 
 514      37DCB8
 515 0d5c 68C36D83 		.ascii	"h\303m\203cH?C\372\035\322N\244\233P\035\257 }\025\351"
 515      63483F43 
 515      FA1DD24E 
 515      A49B501D 
 515      AF207D15 
 516 0d71 19A47FB6 		.ascii	"\031\244\177\266\242\232\303\361m\003j\247P\340\236"
ARM GAS  /tmp/cc5Am63S.s 			page 40


 516      A29AC3F1 
 516      6D036AA7 
 516      50E09E
 517 0d80 EA4B9BE8 		.ascii	"\352K\233\350.\356\031Y\256\301\367\344\357\200\370"
 517      2EEE1959 
 517      AEC1F7E4 
 517      EF80F8
 518 0d8f E9CA5881 		.ascii	"\351\312X\201[\217\375\336\021\3560\234#6\303?q\033"
 518      5B8FFDDE 
 518      11EE309C 
 518      2336C33F 
 518      711B
 519 0da1 C88B88BF 		.ascii	"\310\213\210\277\310s\263x\334\325\345\324Q\224\354"
 519      C873B378 
 519      DCD5E5D4 
 519      5194EC
 520 0db0 F39DD45F 		.ascii	"\363\235\324_k\222w\363k\333\243W$\345\265\274\365\255"
 520      6B9277F3 
 520      6BDBA357 
 520      24E5B5BC 
 520      F5AD
 521 0dc2 E145CE5B 		.ascii	"\341E\316[\031\231\004\356yF \225'\370l\224\0351\226"
 521      199904EE 
 521      79462095 
 521      27F86C94 
 521      1D3196
 522 0dd5 FEE26458 		.ascii	"\376\342dXZl\310\322\226\003\231\325\263\333\273\272"
 522      5A6CC8D2 
 522      960399D5 
 522      B3DBBBBA 
 523 0de5 EEB0CE53 		.ascii	"\356\260\316S\215\323`\273\232Q\372fC\245\313]\305c"
 523      8DD360BB 
 523      9A51FA66 
 523      43A5CB5D 
 523      C563
 524 0df7 B4EE0B9C 		.ascii	"\264\356\013\234dGc\211\323\212\272eF\335KX\331\226"
 524      64476389 
 524      D38ABA65 
 524      46DD4B58 
 524      D996
 525 0e09 1ACAB6FC 		.ascii	"\032\312\266\374\240m\331V\032\311\026\373\242\276v"
 525      A06DD956 
 525      1AC916FB 
 525      A2BE76
 526 0e18 6664DD63 		.ascii	"fd\335c,\353EV\326\025\311eU\207\035\225\306(\023\211"
 526      2CEB4556 
 526      D615C965 
 526      55871D95 
 526      C6281389 
 527 0e2c FC2921F9 		.ascii	"\374)!\371\260\017\223\250h\005\253\242\325\206*\372"
 527      B00F93A8 
 527      6805ABA2 
 527      D5862AFA 
 528 0e3c 54539162 		.ascii	"TS\221bV(\277\215\205\351d\205i\350\221\341\032X\256"
 528      5628BF8D 
 528      85E96485 
 528      69E891E1 
ARM GAS  /tmp/cc5Am63S.s 			page 41


 528      1A58AE
 529 0e4f D61A72F5 		.ascii	"\326\032r\365\301!\333\206{6\251\341.0/\245\254\274"
 529      C121DB86 
 529      7B36A9E1 
 529      2E302FA5 
 529      ACBC
 530 0e61 A482A79D 		.ascii	"\244\202\247\235\261.VI\214.\236\261b\330\350\361C\333"
 530      B12E5649 
 530      8C2E9EB1 
 530      62D8E8F1 
 530      43DB
 531 0e73 A1E61414 		.ascii	"\241\346\024\024fD\376eG\362\241\027tC?\256z^\031z\032"
 531      6644FE65 
 531      47F2A117 
 531      74433FAE 
 531      7A5E197A 
 532 0e88 877E2B24 		.ascii	"\207~+$\037zZ7\364\223\252g\225\241DD(n\272\031\252"
 532      1F7A5A37 
 532      F493AA67 
 532      95A14444 
 532      286EBA19 
 533 0e9d 2A42315E 		.ascii	"*B1^\364XU\345Z^N\211\231\357\031\326|/$\232\257\375"
 533      F45855E5 
 533      5A5E4E89 
 533      99EF19D6 
 533      7C2F249A 
 534 0eb3 87E8DE66 		.ascii	"\207\350\336f\305|\015#\024\273\010\334)cM\256f5\271"
 534      C57C0D23 
 534      14BB08DC 
 534      29634DAE 
 534      6635B9
 535 0ec6 D99226DF 		.ascii	"\331\222&\337[\260#Q\223\346C\365\232<\332l\240I\363"
 535      5BB02351 
 535      93E643F5 
 535      9A3CDA6C 
 535      A049F3
 536 0ed9 A17A4DB6 		.ascii	"\241zM\2665\033h\322|(\255\3117\026\320\232\334\314"
 536      351B68D2 
 536      7C28ADC9 
 536      3716D09A 
 536      DCCC
 537 0eeb 6A728B61 		.ascii	"jr\213a \354ja\302\363\242\261\"W\260\212\334\321\243"
 537      20EC6A61 
 537      C2F3A2B1 
 537      2257B08A 
 537      DCD1A3
 538 0efe F0DCC172 		.ascii	"\360\334\301r\325h\310U\375\341\270}\025\266\376\234"
 538      D568C855 
 538      FDE1B87D 
 538      15B6FE9C 
 539 0f0e 652D5276 		.ascii	"e-Rv\365\210\255],[\257\033\262\365^k3,\021\344\037"
 539      F588AD5D 
 539      2C5BAF1B 
 539      B2F55E6B 
 539      332C11E4 
 540 0f23 C95B7226 		.ascii	"\311[r&q\220\037D\233e\2167~\206\314\361\264\261>\256"
 540      71901F44 
ARM GAS  /tmp/cc5Am63S.s 			page 42


 540      9B658E37 
 540      7E86CCF1 
 540      B4B13EAE 
 541 0f37 B35974AF 		.ascii	"\263Yt\257%\177?Z\263)\321\337\315\207\352\375\275\255"
 541      257F3F5A 
 541      B329D1DF 
 541      CD87EAFD 
 541      BDAD
 542 0f49 B521D1DF 		.ascii	"\265!\321\337\315\207\352\375\375Xk]\242\277\233\017"
 542      CD87EAFD 
 542      FD586B5D 
 542      A2BF9B0F 
 543 0f59 A5FD1D6C 		.ascii	"\245\375\035l\261\216\227\263\025\315sI\006\252F\330"
 543      B18E97B3 
 543      15CD7349 
 543      06AA46D8 
 544 0f69 6F68D1C6 		.ascii	"oh\321\306\332\270E5W\333`\254\332\204\312\342P\217"
 544      DAB84535 
 544      57DB60AC 
 544      DA84CAE2 
 544      508F
 545 0f7b 5CED10EB 		.ascii	"\\\355\020\353j\315\206\214]:\312\304\345+\026\271j"
 545      6ACD868C 
 545      5D3ACAC4 
 545      E52B16B9 
 545      6A
 546 0f8c E911572D 		.ascii	"\351\021W-,W\207\015\362.\371\371\345)\317\312m\362"
 546      2C57870D 
 546      F22EF9F9 
 546      E529CFCA 
 546      6DF2
 547 0f9e 9CF9     		.ascii	"\234\371"
 548 0fa0 F2CDAE27 		.ascii	"\362\315\256'y\215\265}Yl\271\250`\0345\304\370po\307"
 548      798DB57D 
 548      596CB9A8 
 548      601C35C4 
 548      F8706FC7 
 549 0fb4 F055F29B 		.ascii	"\360U\362\233s\344\256\256'm\374z\264\315i\376\353Q"
 549      73E4AEAE 
 549      276DFC7A 
 549      B4CD69FE 
 549      EB51
 550 0fc6 E54D9AD9 		.ascii	"\345M\232\331\310c\316X\341\036\013*\305i\330\240:n"
 550      C863CE58 
 550      E11E0B2A 
 550      C569D8A0 
 550      3A6E
 551 0fd8 22C87143 		.ascii	"\"\310qCA\352\237\333\347\211\011\242\024\322\260\\"
 551      41EA9FDB 
 551      E78909A2 
 551      14D2B05C 
 552 0fe8 3381F8D8 		.ascii	"3\201\370\330\020b\345\242s|\017t\361\011\233Pv&\326"
 552      1062E5A2 
 552      737C0F74 
 552      F1099B50 
 552      7626D6
 553 0ffb C79D268C 		.ascii	"\307\235&\214\234"
ARM GAS  /tmp/cc5Am63S.s 			page 43


 553      9C
 554 1000 3491E56D 		.ascii	"4\221\345m\275,\212]+\373\031C\2342\202\210^8\266P\346"
 554      BD2C8A5D 
 554      2BFB1943 
 554      9C328288 
 554      5E38B650 
 555 1015 699F5D62 		.ascii	"i\237]b\002p\332\020\340R\"@\275\011\300\031\023\317"
 555      0270DA10 
 555      E0522240 
 555      BD09C019 
 555      13CF
 556 1027 BA3A5C27 		.ascii	"\272:\\'D\033B4\232@|i\310\303\361\303\013o\227\327"
 556      441B4234 
 556      9A407C69 
 556      C8C3F1C3 
 556      0B6F97D7 
 557 103b 5544BBBA 		.ascii	"UD\273\272\036\264\223\341\277f\015B|\2161\310~\023"
 557      1EB493E1 
 557      BF660D42 
 557      7C8E31C8 
 557      7E13
 558 104d 46BE3194 		.ascii	"F\2761\224eU\313\271\331\374\222\312\265\352\257\254"
 558      6555CBB9 
 558      D9FC92CA 
 558      B5EAAFAC 
 559 105d 159B0B5C 		.ascii	"\025\233\013\\\253\011\310\267\206\322\354:\250\323"
 559      AB09C8B7 
 559      86D2EC3A 
 559      A8D3
 560 106b A80270C2 		.ascii	"\250\002p\302\004\340{\032\200\011/b\0153\331\177\210"
 560      04E07B1A 
 560      80092F62 
 560      0D33D97F 
 560      88
 561 107c 871733AA 		.ascii	"\207\0273\252-\311\250\216\370(\374Y\371\017\355[7\177"
 561      2DC9A88E 
 561      F828FC59 
 561      F90FED5B 
 561      377F
 562 108e F422BF6F 		.ascii	"\364\"\277o\303<\2310\374dC4K\263`]\266\361\352\207"
 562      C33C9930 
 562      FC644334 
 562      4BB3605D 
 562      B6F1EA87 
 563 10a2 3CFA899E 		.ascii	"<\372\211\236\005n\023\3668o\232\3710\003\340\260jy"
 563      056E13F6 
 563      386F9AF9 
 563      3003E0B0 
 563      6A79
 564 10b4 352C4779 		.ascii	"5,Gy\355\017\230\266u3PM\023j\312<.O\032\020\313\230"
 564      ED0F98B6 
 564      7533504D 
 564      136ACA3C 
 564      2E4F1A10 
 565 10ca E7D98CD9 		.ascii	"\347\331\214\331\231T\203\213\222\350\342\252\251\006"
 565      9954838B 
 565      92E8E2AA 
ARM GAS  /tmp/cc5Am63S.s 			page 44


 565      A906
 566 10d8 3F4932EA 		.ascii	"?I2\352\032\253\301h+\356`\222\207Y\345SB\314ev\030"
 566      1AABC168 
 566      2BEE6092 
 566      8759E553 
 566      42CC6576 
 567 10ed AB0F5781 		.ascii	"\253\017W\201;q_\342\020\366\270n\252\205\235\324\203"
 567      3B715FE2 
 567      10F6B86E 
 567      AA859DD4 
 567      83
 568 10fe 83D2C275 		.ascii	"\203\322\302uV\013?\322Z\350\307Uc\014\215X\331G\371"
 568      560B3FD2 
 568      5AE8C755 
 568      630C8D58 
 568      D947F9
 569 1111 B3F0D8D6 		.ascii	"\263\360\330\326\230:\203\240\216\223]\375\360\214\372"
 569      983A83A0 
 569      8E935DFD 
 569      F08CFA
 570 1120 774ED8C3 		.ascii	"wN\330\303L\376\331\256\370\237\236g\246\307Oxzj73\363"
 570      4CFED9AE 
 570      F89F9E67 
 570      A6C74F78 
 570      7A6A3733 
 571 1135 50AD5FAA 		.ascii	"P\255_\252\212Sa{\346J\223\231Shs,\375\2066\207\342"
 571      8A53617B 
 571      E64A9399 
 571      5368732C 
 571      FD863687 
 572 114a CDEF76E3 		.ascii	"\315\357v\343\315\"\177\021\237\343s\\6\275\031\244"
 572      CD227F11 
 572      9FE3735C 
 572      36BD19A4 
 573 115a EC666012 		.ascii	"\354f`\022o&\203(;\316u%\363f\362\247\034f\332\231\357"
 573      6F268328 
 573      3BCE7525 
 573      F366F2A7 
 573      1C66DA99 
 574 116f 32F3E6AF 		.ascii	"2\363\346\257\223xs\225\213\365\346\306/\277\302\327"
 574      93787395 
 574      8BF5E6C6 
 574      2FBFC2D7 
 575 117f 0F249BDF 		.ascii	"\017$\233\337\251\014\026\270\223\306\332\273\312jo"
 575      A90C16B8 
 575      93C6DABB 
 575      CA6A6F
 576 118e 4172EDC5 		.ascii	"Ar\355\305\224\360\361\347\223\306\304KH\263Q*\217\013"
 576      94F0F1E7 
 576      93C6C44B 
 576      48B3512A 
 576      8F0B
 577 11a0 5D094916 		.ascii	"]\011I\026\370\\}\251]\317\247\022t\347\215\371l\324"
 577      F85C7DA9 
 577      5DCFA712 
 577      74E78DF9 
 577      6CD4
ARM GAS  /tmp/cc5Am63S.s 			page 45


 578 11b2 824EE46F 		.ascii	"\202N\344o\"\237\213M\371L\022t\213YcU\0332v\355\222"
 578      229F8B4D 
 578      F94C1274 
 578      8B596355 
 578      1B3276ED 
 579 11c7 513A90FB 		.ascii	"Q:\220\373\033r\366:\313YmO8\253e9[Js\306\215\311)\011"
 579      1B72F63A 
 579      CB596D4F 
 579      38AB6539 
 579      5B4A73C6 
 580 11df 944939DE 		.ascii	"\224I9\336@\361\254\234biF\216\267\3047\325\027\010"
 580      40F1AC9C 
 580      6269468E 
 580      B7C437D5 
 580      1708
 581 11f1 E74442E5 		.ascii	"\347DB\345\376\307r\340$\024\311\011\006B\221p\316\310"
 581      FEC772E0 
 581      2414C909 
 581      06429170 
 581      CEC8
 582 1203 C282FC82 		.ascii	"\302\202\374\202\231\320\263,\350+\225B\341\234\207"
 582      99D0B32C 
 582      E82B9542 
 582      E19C87
 583 1212 F3F3A17B 		.ascii	"\363\363\241{dVP\012\017,\341\\e\341\351\236H\312\303"
 583      6456500A 
 583      0F2CE15C 
 583      65E1E99E 
 583      48CAC3
 584 1225 13A6B8F3 		.ascii	"\023\246\270\363\271\273r\312\303\241\0341Tv\237?\340"
 584      B9BB72CA 
 584      C3A11C31 
 584      54769F3F 
 584      E0
 585 1236 97EE93C4 		.ascii	"\227\356\223\304\251\276\034\237\337[Z^,\345\204#\305"
 585      A9BE1C9F 
 585      DF5B5A5E 
 585      2CE58423 
 585      C5
 586 1247 3E7F0446 		.ascii	">\177\004F\244\302ap\236'2$I\3472\021\030\362K9\236"
 586      A4C26170 
 586      9E273224 
 586      49E73211 
 586      18F24B39 
 587 125c 62699A58 		.ascii	"bi\232X^\032\361h\323\245{<\352\360\301\026$\320\340"
 587      5E1AF168 
 587      D3A57B3C 
 587      EAF0C116 
 587      24D0E0
 588 126f BC256591 		.ascii	"\274%e\221\231d\352\262\362\2104\323\023q\341q\250-"
 588      9964EAB2 
 588      F28834D3 
 588      1371E171 
 588      A82D
 589 1281 84F0ACB0 		.ascii	"\204\360\254\260\306D\337HIH\022\213\303\236\307\313"
 589      C644DF48 
 589      4948128B 
ARM GAS  /tmp/cc5Am63S.s 			page 46


 589      C39EC7CB 
 590 1291 A572C913 		.ascii	"\245r\311\023\311\362\226x\250KC\354!{K\212\0015M\201"
 590      C9F29678 
 590      A84B43EC 
 590      217B4B8A 
 590      01354D81 
 591 12a5 F044D263 		.ascii	"\360D\322cp)A\217_\232\031\201C0$\315H\215\004C\276"
 591      7029418F 
 591      5F9A1981 
 591      433024CD 
 591      488D0443 
 592 12ba 80279256 		.ascii	"\200'\222V\256\252\240\227\307\243\235b\027_ \325\033"
 592      AEAAA097 
 592      C7A39D62 
 592      175F20D5 
 592      1B
 593 12cb F0836491 		.ascii	"\360\203d\221a\266\315[\342\015\204$\340\"\203\\&:\366"
 593      61B6CD5B 
 593      E20D8424 
 593      E022835C 
 593      263AF6
 594 12de 4666FE4B 		.ascii	"Ff\376K\317P<3\036(#\362\204\244\351`]OD\010\015\021"
 594      CF503C33 
 594      1E2823F2 
 594      84A4E960 
 594      5D4F4408 
 595 12f4 42FF2C84 		.ascii	"B\377,\204\356\027B\017\010\241\241Bh\230#\224;\010"
 595      EE17420F 
 595      08A1A142 
 595      68982394 
 595      3B08
 596 1306 5AAE501A 		.ascii	"Z\256P\032\202\303`W\320\003\263\245\022a\237\220Bp"
 596      82C36057 
 596      D003B3A5 
 596      12619F90 
 596      4270
 597 1318 0C94164B 		.ascii	"\014\224\026K!\247\267D\014\021\015\210eRZ$\034\021"
 597      21A7B744 
 597      0C110D88 
 597      65525A24 
 597      1C11
 598 132a 23A0EA54 		.ascii	"#\240\352T\"\360P\320\221\":\234Aw\274\227\032)\013"
 598      22F050D0 
 598      91223A9C 
 598      4177BC97 
 598      1A290B
 599 133d 144BF87D 		.ascii	"\024K\370}Z\2518=\234\032\011I\323\302\250\031r\222"
 599      5AA9383D 
 599      9C1A0949 
 599      D3C2A819 
 599      7292
 600 134f 122A9E05 		.ascii	"\022*\236\005\256\232&\315\364E@ )\345\211H`\352\037"
 600      AE9A26CD 
 600      F4454020 
 600      29E58948 
 600      60EA1F
 601 1362 8319D20C 		.ascii	"\203\031\322\014\311\037)\023\303\217AO\351\011r\342"
ARM GAS  /tmp/cc5Am63S.s 			page 47


 601      C91F2913 
 601      C38F414F 
 601      E90972E2 
 602 1372 087ACAFB 		.ascii	"\010z\312\373h\346,\365\205\301\371\372\352\014L\256"
 602      68E62CF5 
 602      85C1F9FA 
 602      EA0C4CAE 
 603 1382 A4073D4F 		.ascii	"\244\007=O\210\276\210\317?\275W\320\003\250ht\027\236"
 603      88BE88CF 
 603      3FBD57D0 
 603      03A86874 
 603      179E
 604 1394 C2052928 		.ascii	"\302\005)(\371\301\327\247C/p;\322\277\027\341A,E\013"
 604      F9C1D7A7 
 604      432F703B 
 604      D2BF17E1 
 604      412C450B 
 605 13a8 C1C56020 		.ascii	"\301\305` P\232Z\246\270\012\034\003O\370\245PJ\031"
 605      509A5AA6 
 605      B80A1C03 
 605      4FF8A550 
 605      4A19
 606 13ba 9A3AAF3B 		.ascii	"\232:\257;\225\227\210\2451\327\021\213\275\240\347"
 606      959788A5 
 606      31D7118B 
 606      BDA0E7
 607 13c9 5E7050B5 		.ascii	"^pP\265\323k\344\250|\317\224\011c'\214\235\234FN\213"
 607      D36BE4A8 
 607      7CCF9409 
 607      63278C9D 
 607      9C464E8B 
 608 13dd 264F9C94 		.ascii	"&O\234\224NN\012G\217\034\365\037xwd\376\344\261\377"
 608      4E4E0A47 
 608      8F1CF51F 
 608      787764FE 
 608      E4B1FF
 609 13f0 363A939C 		.ascii	"6:\223\234\346O,\2304~\364\344\321\330cta\341\304\302"
 609      E64F2C98 
 609      347EF4E4 
 609      D1D86374 
 609      61E1C4C2 
 610 1404 8156660F 		.ascii	"\201Vf\017\207\2748\263\227\033e\245\273\342 E\223\013"
 610      87BC38B3 
 610      971B65A5 
 610      BBE22045 
 610      930B
 611 1416 06E729F4 		.ascii	"\006\347)\364\241\334\2313\011\200\247\264\224\270="
 611      A1DC9933 
 611      0980A7B4 
 611      94B83D
 612 1425 997D54C8 		.ascii	"\231}T\3107C\012\271P\012WqyY\331,r5?\340\237\346\233"
 612      37430AB9 
 612      500A5771 
 612      7959D92C 
 612      72353FE0 
 613 143c 9EE2C543 		.ascii	"\236\342\305C\006\221R,\013\226Jj\000\344\336\037\013"
 613      0691522C 
ARM GAS  /tmp/cc5Am63S.s 			page 48


 613      0B964A6A 
 613      00E4DE1F 
 613      0B
 614 144d 00729AAA 		.ascii	"\000r\232\252\334\014\347aV)\365M\315\231\356\3652\331"
 614      DC0CE761 
 614      5629F54D 
 614      CD99EEF5 
 614      32D9
 615 145f 65C8C0A1 		.ascii	"e\310\300\241\003\207\350\023\022d\027\340 %\354\373"
 615      0387E813 
 615      126417E0 
 615      2025ECFB 
 616 146f 13A0BA8A 		.ascii	"\023\240\272\212\245`\244\304\345\371\035X'\315\353"
 616      A560A4C4 
 616      E5F91D58 
 616      27CDEB
 617 147e 0B79CB4B 		.ascii	"\013y\313K\305P6a\024\034\321\357\227J\303\036\1779"
 617      C5503661 
 617      141CD1EF 
 617      974AC31E 
 617      7F39
 618 1490 B87326A1 		.ascii	"\270s&\241\332\245\336p\337+\226\226N\025\275\350A\376"
 618      DAA5DE70 
 618      DF2B9696 
 618      4E15BDE8 
 618      41FE
 619 14a2 628F772A 		.ascii	"b\217w*\261\210\024\012\005B\236H\266\252[\317\250\202"
 619      B188140A 
 619      05429E48 
 619      B6AA5BCF 
 619      A882
 620 14b4 910F8D1C 		.ascii	"\221\017\215\034;~J\341\350l\355n|\\\232\322\333;\325"
 620      3B7E4AE1 
 620      E86CED6E 
 620      7C5C9AD2 
 620      DB3BD5
 621 14c7 E10DE542 		.ascii	"\341\015\345B\313s\205\313\202\241\\\244y\316\360\343"
 621      CB7385CB 
 621      82A15CA4 
 621      79CEF0E3 
 622 14d7 A15C42F0 		.ascii	"\241\\B\360lp\266\242\031\320W\330\027\360?\034\012"
 622      6C70B6A2 
 622      19D057D8 
 622      17F03F1C 
 622      0A
 623 14e8 94079DD3 		.ascii	"\224\007\235\323C\301\340\003\266r\216\352\315 }\266"
 623      43C1E003 
 623      B6728EEA 
 623      CD207DB6 
 624 14f8 9A762048 		.ascii	"\232v H\244\220\344\367\202&R\224K\335&\021\360\327"
 624      A490E4F7 
 624      82265294 
 624      4BDD2611 
 624      F0D7
 625 150a 9CFC82A2 		.ascii	"\234\374\202\242\261E`XPg\331\340\274i\271\203H\236"
 625      B1456058 
 625      5067D9E0 
ARM GAS  /tmp/cc5Am63S.s 			page 49


 625      BC69B983 
 625      489E
 626 151c CD20524F 		.ascii	"\315 RO\206l9J\232&\024\025:\362\013s\241\345\271\212"
 626      866C394A 
 626      9A261415 
 626      3AF20B73 
 626      A1E5B98A 
 627 1530 0A2615E6 		.ascii	"\012&\025\346\"\315s\215\233\370\020\234\023\252\234"
 627      22CD738D 
 627      9BF8109C 
 627      13AA9C
 628 153f 0F463AC4 		.ascii	"\017F:\3041fr\241c\374\344Bg\321\277\026\346\022\222"
 628      316672A1 
 628      63FCE442 
 628      67D1BF16 
 628      E61292
 629 1552 47C860E7 		.ascii	"G\310`\3478\240\316q\243\340\032\220<B\006\0232D\030"
 629      38A0CE71 
 629      A3E01A90 
 629      3C420613 
 629      324418
 630 1565 55E80085 		.ascii	"U\350\000\205>\324sWD\306=\305e\"0\336\037\314\344\311"
 630      3ED47357 
 630      44C63DC5 
 630      652230DE 
 630      1FCCE4C9 
 631 1579 576CAB09 		.ascii	"Wl\253\011\340\310\317/t\345O\030\005<\345O\032\011"
 631      E0C8CF2F 
 631      74E54F18 
 631      053CE54F 
 631      1A09
 632 158b A4606461 		.ascii	"\244`da\252j\177\247o\2327\224\342\013\227\370\246E"
 632      AA6A7FA7 
 632      6F9A3794 
 632      E20B97F8 
 632      A645
 633 159d D2C352E9 		.ascii	"\322\303R\3514\237\277X\232\2312C\362F\002\241\354\030"
 633      349FBF58 
 633      9A993243 
 633      F24602A1 
 633      EC18
 634 15af 32642850 		.ascii	"2d(P(\370N\012|\011G\202\251p \331\352v\340\274(\022"
 634      28F84E0A 
 634      7C094782 
 634      A97020D9 
 634      EA76E0BC 
 635 15c5 08C6ED39 		.ascii	"\010\306\3559v`P\014E\006\016r\302\235`*\220\261~_\204"
 635      7660500C 
 635      45060E72 
 635      C29D602A 
 635      90B17E5F 
 636 15da 38D9C4A9 		.ascii	"8\331\304\251\177\004P\362-\015\007A\257Tut\266v!\016"
 636      7F0450F2 
 636      2D0D0741 
 636      AF547574 
 636      B676210E 
 637 15ee D33FF1D2 		.ascii	"\323?\361\322\330~\011\223e'NO\\W\371\212\263\216\364"
ARM GAS  /tmp/cc5Am63S.s 			page 50


 637      D87E0993 
 637      65274E4F 
 637      5C57F98A 
 637      B38EF4
 638 1601 3E5EEE0B 		.ascii	">^\356\013I\277+GG/\224J%1L\276\335\246\306/\010\026"
 638      49BF2B47 
 638      472F944A 
 638      25314CBE 
 638      DDA6C62F 
 639 1617 80E41D1B 		.ascii	"\200\344\035\033\237\351-\231\\R\\(\205\313\313\244"
 639      9FE92D99 
 639      5C525C28 
 639      85CBCBA4 
 640 1627 B1995A27 		.ascii	"\261\231Z'\037p\015)\264 23.E\3578\002\260\231\251\307"
 640      1F700D29 
 640      B4203233 
 640      2E45EF38 
 640      02B099A9 
 641 163c 1B40DD32 		.ascii	"\033@\3352A/\352\215_\212\312\303$\333\026\245#\374"
 641      412FEA8D 
 641      5F8ACAC3 
 641      24DB16A5 
 641      23FC
 642 164e F880F7B1 		.ascii	"\370\200\367\261\014<\233\342/\205\363nk\004\342\025"
 642      0C3C9BE2 
 642      2F85F36E 
 642      6B04E215 
 643 165e 81301008 		.ascii	"\2010\020\010\016r\004\027\350G\216\2231\000T9\034\221"
 643      0E720417 
 643      E8478E93 
 643      31005439 
 643      1C91
 644 1670 50D001A9 		.ascii	"P\320\001\251\275?\271S@*\207\270\030BY0a@Qv\374\212"
 644      BD3FB953 
 644      402A87B8 
 644      18425930 
 644      61405176 
 645 1686 C65FEFD8 		.ascii	"\306_\357\330X\302c\337\3307\205\317\377\003\333a\377"
 645      58C263DF 
 645      D83785CF 
 645      FF03DB61 
 645      FF
 646 1697 46       		.ascii	"F"
 647              		.text
 648              		.section	.gnu.lto_.symtab.82a111112bca6df8,"",%progbits
 649 0000 61646349 		.ascii	"adcInit\000\000\000\000\000\000\000\000\000\000\000"
 649      6E697400 
 649      00000000 
 649      00000000 
 649      0000
 650 0012 000D0200 		.ascii	"\000\015\002\000\000adcObjectInit\000\000\000\000\000"
 650      00616463 
 650      4F626A65 
 650      6374496E 
 650      69740000 
 651 0029 00000000 		.ascii	"\000\000\000\000\000\000\000\021\002\000\000adcStar"
 651      00000011 
ARM GAS  /tmp/cc5Am63S.s 			page 51


 651      02000061 
 651      64635374 
 651      6172
 652 003b 74000000 		.ascii	"t\000\000\000\000\000\000\000\000\000\000\000\000\027"
 652      00000000 
 652      00000000 
 652      0017
 653 0049 02000061 		.ascii	"\002\000\000adcStop\000\000\000\000\000\000\000\000"
 653      64635374 
 653      6F700000 
 653      00000000 
 653      0000
 654 005b 00000000 		.ascii	"\000\000\000\000\037\002\000\000adcStartConversion\000"
 654      1F020000 
 654      61646353 
 654      74617274 
 654      436F6E76 
 655 0076 00000000 		.ascii	"\000\000\000\000\000\000\000\000\000\000\000#\002\000"
 655      00000000 
 655      00000023 
 655      0200
 656 0084 00616463 		.ascii	"\000adcStartConversionI\000\000\000\000\000\000\000"
 656      53746172 
 656      74436F6E 
 656      76657273 
 656      696F6E49 
 657 009f 00000000 		.ascii	"\000\000\000\000\000/\002\000\000adcStopConversion\000"
 657      002F0200 
 657      00616463 
 657      53746F70 
 657      436F6E76 
 658 00ba 00000000 		.ascii	"\000\000\000\000\000\000\000\000\000\000\0006\002\000"
 658      00000000 
 658      00000036 
 658      0200
 659 00c8 00616463 		.ascii	"\000adcStopConversionI\000\000\000\000\000\000\000\000"
 659      53746F70 
 659      436F6E76 
 659      65727369 
 659      6F6E4900 
 660 00e3 00000000 		.ascii	"\000\000\000\000:\002\000\000adcConvert\000\000\000"
 660      3A020000 
 660      61646343 
 660      6F6E7665 
 660      72740000 
 661 00f8 00000000 		.ascii	"\000\000\000\000\000\000\000\000\000>\002\000\000ad"
 661      00000000 
 661      003E0200 
 661      006164
 662 0107 63416371 		.ascii	"cAcquireBus\000\000\000\000\000\000\000\000\000\000"
 662      75697265 
 662      42757300 
 662      00000000 
 662      00000000 
 663 011c 00004A02 		.ascii	"\000\000J\002\000\000adcReleaseBus\000\000\000\000\000"
 663      00006164 
 663      6352656C 
ARM GAS  /tmp/cc5Am63S.s 			page 52


 663      65617365 
 663      42757300 
 664 0134 00000000 		.ascii	"\000\000\000\000\000\000\000N\002\000\000adc_lld_st"
 664      0000004E 
 664      02000061 
 664      64635F6C 
 664      6C645F73 
 665 0149 6F705F63 		.ascii	"op_conversion\000\000\002\000\000\000\000\000\000\000"
 665      6F6E7665 
 665      7273696F 
 665      6E000002 
 665      00000000 
 666 0160 00005202 		.ascii	"\000\000R\002\000\000chThdResumeI\000\000\002\000\000"
 666      00006368 
 666      54686452 
 666      6573756D 
 666      65490000 
 667 0177 00000000 		.ascii	"\000\000\000\000\000\000\000T\002\000\000adc_lld_in"
 667      00000054 
 667      02000061 
 667      64635F6C 
 667      6C645F69 
 668 018c 69740000 		.ascii	"it\000\000\002\000\000\000\000\000\000\000\000\000Z"
 668      02000000 
 668      00000000 
 668      00005A
 669 019b 02000063 		.ascii	"\002\000\000chMtxObjectInit\000\000\002\000\000\000"
 669      684D7478 
 669      4F626A65 
 669      6374496E 
 669      69740000 
 670 01b3 00000000 		.ascii	"\000\000\000\000\000\000\\\002\000\000adc_lld_start"
 670      00005C02 
 670      00006164 
 670      635F6C6C 
 670      645F7374 
 671 01ca 00000200 		.ascii	"\000\000\002\000\000\000\000\000\000\000\000\000`\002"
 671      00000000 
 671      00000000 
 671      6002
 672 01d8 00006164 		.ascii	"\000\000adc_lld_stop\000\000\002\000\000\000\000\000"
 672      635F6C6C 
 672      645F7374 
 672      6F700000 
 672      02000000 
 673 01ee 00000000 		.ascii	"\000\000\000\000b\002\000\000adc_lld_start_conversi"
 673      62020000 
 673      6164635F 
 673      6C6C645F 
 673      73746172 
 674 020c 6F6E0000 		.ascii	"on\000\000\002\000\000\000\000\000\000\000\000\000d"
 674      02000000 
 674      00000000 
 674      000064
 675 021b 02000063 		.ascii	"\002\000\000chThdResumeS\000\000\002\000\000\000\000"
 675      68546864 
 675      52657375 
ARM GAS  /tmp/cc5Am63S.s 			page 53


 675      6D655300 
 675      00020000 
 676 0231 00000000 		.ascii	"\000\000\000\000\000f\002\000\000chThdSuspendS\000\000"
 676      00660200 
 676      00636854 
 676      68645375 
 676      7370656E 
 677 0249 02000000 		.ascii	"\002\000\000\000\000\000\000\000\000\000h\002\000\000"
 677      00000000 
 677      00006802 
 677      0000
 678 0257 63684D74 		.ascii	"chMtxLock\000\000\002\000\000\000\000\000\000\000\000"
 678      784C6F63 
 678      6B000002 
 678      00000000 
 678      00000000 
 679 026b 006C0200 		.ascii	"\000l\002\000\000chMtxUnlock\000\000\002\000\000\000"
 679      0063684D 
 679      7478556E 
 679      6C6F636B 
 679      00000200 
 680 0281 00000000 		.ascii	"\000\000\000\000\000\000n\002\000\000"
 680      00006E02 
 680      0000
 681              		.text
 682              		.section	.gnu.lto_.opts,"",%progbits
 683 0000 272D6D63 		.ascii	"'-mcpu=cortex-m3' '-mno-thumb-interwork' '-mthumb' "
 683      70753D63 
 683      6F727465 
 683      782D6D33 
 683      2720272D 
 684 0033 272D4F32 		.ascii	"'-O2' '-fomit-frame-pointer' '-falign-functions=16'"
 684      2720272D 
 684      666F6D69 
 684      742D6672 
 684      616D652D 
 685 0066 20272D66 		.ascii	" '-ffunction-sections' '-fdata-sections' '-fno-comm"
 685      66756E63 
 685      74696F6E 
 685      2D736563 
 685      74696F6E 
 686 0099 6F6E2720 		.ascii	"on' '-flto'\000"
 686      272D666C 
 686      746F2700 
 687              		.text
 688              		.section	.text.adcInit,"ax",%progbits
 689              		.align	2
 690              		.p2align 4,,15
 691              		.global	adcInit
 692              		.thumb
 693              		.thumb_func
 694              		.type	adcInit, %function
 695              	adcInit:
 696              		@ args = 0, pretend = 0, frame = 0
 697              		@ frame_needed = 0, uses_anonymous_args = 0
 698              		@ link register save eliminated.
 699 0000 FFF7FEBF 		b	adc_lld_init
ARM GAS  /tmp/cc5Am63S.s 			page 54


 700              		.size	adcInit, .-adcInit
 701 0004 AFF30080 		.section	.text.adcObjectInit,"ax",%progbits
 701      AFF30080 
 701      AFF30080 
 702              		.align	2
 703              		.p2align 4,,15
 704              		.global	adcObjectInit
 705              		.thumb
 706              		.thumb_func
 707              		.type	adcObjectInit, %function
 708              	adcObjectInit:
 709              		@ args = 0, pretend = 0, frame = 0
 710              		@ frame_needed = 0, uses_anonymous_args = 0
 711              		@ link register save eliminated.
 712 0000 0023     		movs	r3, #0
 713 0002 0122     		movs	r2, #1
 714 0004 0270     		strb	r2, [r0]
 715 0006 4360     		str	r3, [r0, #4]
 716 0008 8360     		str	r3, [r0, #8]
 717 000a C360     		str	r3, [r0, #12]
 718 000c 0361     		str	r3, [r0, #16]
 719 000e 4361     		str	r3, [r0, #20]
 720 0010 1830     		adds	r0, r0, #24
 721 0012 FFF7FEBF 		b	chMtxObjectInit
 722              		.size	adcObjectInit, .-adcObjectInit
 723 0016 00BFAFF3 		.section	.text.adcStart,"ax",%progbits
 723      0080AFF3 
 723      0080
 724              		.align	2
 725              		.p2align 4,,15
 726              		.global	adcStart
 727              		.thumb
 728              		.thumb_func
 729              		.type	adcStart, %function
 730              	adcStart:
 731              		@ args = 0, pretend = 0, frame = 0
 732              		@ frame_needed = 0, uses_anonymous_args = 0
 733 0000 10B5     		push	{r4, lr}
 734 0002 2023     		movs	r3, #32
 735 0004 0446     		mov	r4, r0
 736              	@ 546 "/home/cody/dev/chibios/trunk/os/ext/CMSIS/include/core_cmFunc.h" 1
 737 0006 83F31188 		MSR basepri, r3
 738              	@ 0 "" 2
 739              		.thumb
 740 000a 4160     		str	r1, [r0, #4]
 741 000c FFF7FEFF 		bl	adc_lld_start
 742 0010 0223     		movs	r3, #2
 743 0012 2370     		strb	r3, [r4]
 744 0014 0023     		movs	r3, #0
 745              	@ 546 "/home/cody/dev/chibios/trunk/os/ext/CMSIS/include/core_cmFunc.h" 1
 746 0016 83F31188 		MSR basepri, r3
 747              	@ 0 "" 2
 748              		.thumb
 749 001a 10BD     		pop	{r4, pc}
 750              		.size	adcStart, .-adcStart
 751 001c AFF30080 		.section	.text.adcStop,"ax",%progbits
 752              		.align	2
ARM GAS  /tmp/cc5Am63S.s 			page 55


 753              		.p2align 4,,15
 754              		.global	adcStop
 755              		.thumb
 756              		.thumb_func
 757              		.type	adcStop, %function
 758              	adcStop:
 759              		@ args = 0, pretend = 0, frame = 0
 760              		@ frame_needed = 0, uses_anonymous_args = 0
 761 0000 10B5     		push	{r4, lr}
 762 0002 2023     		movs	r3, #32
 763 0004 0446     		mov	r4, r0
 764              	@ 546 "/home/cody/dev/chibios/trunk/os/ext/CMSIS/include/core_cmFunc.h" 1
 765 0006 83F31188 		MSR basepri, r3
 766              	@ 0 "" 2
 767              		.thumb
 768 000a FFF7FEFF 		bl	adc_lld_stop
 769 000e 0123     		movs	r3, #1
 770 0010 2370     		strb	r3, [r4]
 771 0012 0023     		movs	r3, #0
 772              	@ 546 "/home/cody/dev/chibios/trunk/os/ext/CMSIS/include/core_cmFunc.h" 1
 773 0014 83F31188 		MSR basepri, r3
 774              	@ 0 "" 2
 775              		.thumb
 776 0018 10BD     		pop	{r4, pc}
 777              		.size	adcStop, .-adcStop
 778              		.section	.text.adcStartConversion,"ax",%progbits
 779              		.align	2
 780              		.p2align 4,,15
 781              		.global	adcStartConversion
 782              		.thumb
 783              		.thumb_func
 784              		.type	adcStartConversion, %function
 785              	adcStartConversion:
 786              		@ args = 0, pretend = 0, frame = 0
 787              		@ frame_needed = 0, uses_anonymous_args = 0
 788 0000 38B5     		push	{r3, r4, r5, lr}
 789 0002 2025     		movs	r5, #32
 790              	@ 546 "/home/cody/dev/chibios/trunk/os/ext/CMSIS/include/core_cmFunc.h" 1
 791 0004 85F31188 		MSR basepri, r5
 792              	@ 0 "" 2
 793              		.thumb
 794 0008 0325     		movs	r5, #3
 795 000a C360     		str	r3, [r0, #12]
 796 000c 8260     		str	r2, [r0, #8]
 797 000e 0161     		str	r1, [r0, #16]
 798 0010 0570     		strb	r5, [r0]
 799 0012 FFF7FEFF 		bl	adc_lld_start_conversion
 800 0016 0023     		movs	r3, #0
 801              	@ 546 "/home/cody/dev/chibios/trunk/os/ext/CMSIS/include/core_cmFunc.h" 1
 802 0018 83F31188 		MSR basepri, r3
 803              	@ 0 "" 2
 804              		.thumb
 805 001c 38BD     		pop	{r3, r4, r5, pc}
 806              		.size	adcStartConversion, .-adcStartConversion
 807 001e 00BF     		.section	.text.adcStartConversionI,"ax",%progbits
 808              		.align	2
 809              		.p2align 4,,15
ARM GAS  /tmp/cc5Am63S.s 			page 56


 810              		.global	adcStartConversionI
 811              		.thumb
 812              		.thumb_func
 813              		.type	adcStartConversionI, %function
 814              	adcStartConversionI:
 815              		@ args = 0, pretend = 0, frame = 0
 816              		@ frame_needed = 0, uses_anonymous_args = 0
 817              		@ link register save eliminated.
 818 0000 30B4     		push	{r4, r5}
 819 0002 0325     		movs	r5, #3
 820 0004 0570     		strb	r5, [r0]
 821 0006 8260     		str	r2, [r0, #8]
 822 0008 C360     		str	r3, [r0, #12]
 823 000a 0161     		str	r1, [r0, #16]
 824 000c 30BC     		pop	{r4, r5}
 825 000e FFF7FEBF 		b	adc_lld_start_conversion
 826              		.size	adcStartConversionI, .-adcStartConversionI
 827 0012 00BFAFF3 		.section	.text.adcStopConversion,"ax",%progbits
 827      0080AFF3 
 827      0080AFF3 
 827      0080
 828              		.align	2
 829              		.p2align 4,,15
 830              		.global	adcStopConversion
 831              		.thumb
 832              		.thumb_func
 833              		.type	adcStopConversion, %function
 834              	adcStopConversion:
 835              		@ args = 0, pretend = 0, frame = 0
 836              		@ frame_needed = 0, uses_anonymous_args = 0
 837 0000 10B5     		push	{r4, lr}
 838 0002 2023     		movs	r3, #32
 839 0004 0446     		mov	r4, r0
 840              	@ 546 "/home/cody/dev/chibios/trunk/os/ext/CMSIS/include/core_cmFunc.h" 1
 841 0006 83F31188 		MSR basepri, r3
 842              	@ 0 "" 2
 843              		.thumb
 844 000a 0378     		ldrb	r3, [r0]	@ zero_extendqisi2
 845 000c 022B     		cmp	r3, #2
 846 000e 0BD0     		beq	.L8
 847 0010 FFF7FEFF 		bl	adc_lld_stop_conversion
 848 0014 0022     		movs	r2, #0
 849 0016 2046     		mov	r0, r4
 850 0018 0223     		movs	r3, #2
 851 001a 2261     		str	r2, [r4, #16]
 852 001c 6FF00101 		mvn	r1, #1
 853 0020 00F8143B 		strb	r3, [r0], #20
 854 0024 FFF7FEFF 		bl	chThdResumeS
 855              	.L8:
 856 0028 0023     		movs	r3, #0
 857              	@ 546 "/home/cody/dev/chibios/trunk/os/ext/CMSIS/include/core_cmFunc.h" 1
 858 002a 83F31188 		MSR basepri, r3
 859              	@ 0 "" 2
 860              		.thumb
 861 002e 10BD     		pop	{r4, pc}
 862              		.size	adcStopConversion, .-adcStopConversion
 863              		.section	.text.adcStopConversionI,"ax",%progbits
ARM GAS  /tmp/cc5Am63S.s 			page 57


 864              		.align	2
 865              		.p2align 4,,15
 866              		.global	adcStopConversionI
 867              		.thumb
 868              		.thumb_func
 869              		.type	adcStopConversionI, %function
 870              	adcStopConversionI:
 871              		@ args = 0, pretend = 0, frame = 0
 872              		@ frame_needed = 0, uses_anonymous_args = 0
 873 0000 0378     		ldrb	r3, [r0]	@ zero_extendqisi2
 874 0002 10B5     		push	{r4, lr}
 875 0004 022B     		cmp	r3, #2
 876 0006 0446     		mov	r4, r0
 877 0008 0DD0     		beq	.L13
 878 000a FFF7FEFF 		bl	adc_lld_stop_conversion
 879 000e 2046     		mov	r0, r4
 880 0010 0022     		movs	r2, #0
 881 0012 0223     		movs	r3, #2
 882 0014 2261     		str	r2, [r4, #16]
 883 0016 6FF00101 		mvn	r1, #1
 884 001a 00F8143B 		strb	r3, [r0], #20
 885 001e BDE81040 		pop	{r4, lr}
 886 0022 FFF7FEBF 		b	chThdResumeI
 887              	.L13:
 888 0026 10BD     		pop	{r4, pc}
 889              		.size	adcStopConversionI, .-adcStopConversionI
 890 0028 AFF30080 		.section	.text.adcConvert,"ax",%progbits
 890      AFF30080 
 891              		.align	2
 892              		.p2align 4,,15
 893              		.global	adcConvert
 894              		.thumb
 895              		.thumb_func
 896              		.type	adcConvert, %function
 897              	adcConvert:
 898              		@ args = 0, pretend = 0, frame = 0
 899              		@ frame_needed = 0, uses_anonymous_args = 0
 900 0000 70B5     		push	{r4, r5, r6, lr}
 901 0002 2025     		movs	r5, #32
 902              	@ 546 "/home/cody/dev/chibios/trunk/os/ext/CMSIS/include/core_cmFunc.h" 1
 903 0004 85F31188 		MSR basepri, r5
 904              	@ 0 "" 2
 905              		.thumb
 906 0008 0326     		movs	r6, #3
 907 000a 0546     		mov	r5, r0
 908 000c 8260     		str	r2, [r0, #8]
 909 000e C360     		str	r3, [r0, #12]
 910 0010 0161     		str	r1, [r0, #16]
 911 0012 05F8146B 		strb	r6, [r5], #20
 912 0016 FFF7FEFF 		bl	adc_lld_start_conversion
 913 001a 2846     		mov	r0, r5
 914 001c FFF7FEFF 		bl	chThdSuspendS
 915 0020 0023     		movs	r3, #0
 916              	@ 546 "/home/cody/dev/chibios/trunk/os/ext/CMSIS/include/core_cmFunc.h" 1
 917 0022 83F31188 		MSR basepri, r3
 918              	@ 0 "" 2
 919              		.thumb
ARM GAS  /tmp/cc5Am63S.s 			page 58


 920 0026 70BD     		pop	{r4, r5, r6, pc}
 921              		.size	adcConvert, .-adcConvert
 922 0028 AFF30080 		.section	.text.adcAcquireBus,"ax",%progbits
 922      AFF30080 
 923              		.align	2
 924              		.p2align 4,,15
 925              		.global	adcAcquireBus
 926              		.thumb
 927              		.thumb_func
 928              		.type	adcAcquireBus, %function
 929              	adcAcquireBus:
 930              		@ args = 0, pretend = 0, frame = 0
 931              		@ frame_needed = 0, uses_anonymous_args = 0
 932              		@ link register save eliminated.
 933 0000 1830     		adds	r0, r0, #24
 934 0002 FFF7FEBF 		b	chMtxLock
 935              		.size	adcAcquireBus, .-adcAcquireBus
 936 0006 00BFAFF3 		.section	.text.adcReleaseBus,"ax",%progbits
 936      0080AFF3 
 936      0080
 937              		.align	2
 938              		.p2align 4,,15
 939              		.global	adcReleaseBus
 940              		.thumb
 941              		.thumb_func
 942              		.type	adcReleaseBus, %function
 943              	adcReleaseBus:
 944              		@ args = 0, pretend = 0, frame = 0
 945              		@ frame_needed = 0, uses_anonymous_args = 0
 946              		@ link register save eliminated.
 947 0000 1830     		adds	r0, r0, #24
 948 0002 FFF7FEBF 		b	chMtxUnlock
 949              		.size	adcReleaseBus, .-adcReleaseBus
 950              		.comm	__gnu_lto_v1,1,1
 951 0006 00BFAFF3 		.ident	"GCC: (GNU Tools for ARM Embedded Processors) 4.8.4 20140526 (release) [ARM/embedded-4_8-br
 951      0080AFF3 
 951      0080
ARM GAS  /tmp/cc5Am63S.s 			page 59


DEFINED SYMBOLS
                            *ABS*:0000000000000000 adc.c
     /tmp/cc5Am63S.s:689    .text.adcInit:0000000000000000 $t
     /tmp/cc5Am63S.s:695    .text.adcInit:0000000000000000 adcInit
     /tmp/cc5Am63S.s:702    .text.adcObjectInit:0000000000000000 $t
     /tmp/cc5Am63S.s:708    .text.adcObjectInit:0000000000000000 adcObjectInit
     /tmp/cc5Am63S.s:724    .text.adcStart:0000000000000000 $t
     /tmp/cc5Am63S.s:730    .text.adcStart:0000000000000000 adcStart
     /tmp/cc5Am63S.s:752    .text.adcStop:0000000000000000 $t
     /tmp/cc5Am63S.s:758    .text.adcStop:0000000000000000 adcStop
     /tmp/cc5Am63S.s:779    .text.adcStartConversion:0000000000000000 $t
     /tmp/cc5Am63S.s:785    .text.adcStartConversion:0000000000000000 adcStartConversion
     /tmp/cc5Am63S.s:808    .text.adcStartConversionI:0000000000000000 $t
     /tmp/cc5Am63S.s:814    .text.adcStartConversionI:0000000000000000 adcStartConversionI
     /tmp/cc5Am63S.s:828    .text.adcStopConversion:0000000000000000 $t
     /tmp/cc5Am63S.s:834    .text.adcStopConversion:0000000000000000 adcStopConversion
     /tmp/cc5Am63S.s:864    .text.adcStopConversionI:0000000000000000 $t
     /tmp/cc5Am63S.s:870    .text.adcStopConversionI:0000000000000000 adcStopConversionI
     /tmp/cc5Am63S.s:891    .text.adcConvert:0000000000000000 $t
     /tmp/cc5Am63S.s:897    .text.adcConvert:0000000000000000 adcConvert
     /tmp/cc5Am63S.s:923    .text.adcAcquireBus:0000000000000000 $t
     /tmp/cc5Am63S.s:929    .text.adcAcquireBus:0000000000000000 adcAcquireBus
     /tmp/cc5Am63S.s:937    .text.adcReleaseBus:0000000000000000 $t
     /tmp/cc5Am63S.s:943    .text.adcReleaseBus:0000000000000000 adcReleaseBus
                            *COM*:0000000000000001 __gnu_lto_v1

UNDEFINED SYMBOLS
adc_lld_init
chMtxObjectInit
adc_lld_start
adc_lld_stop
adc_lld_start_conversion
adc_lld_stop_conversion
chThdResumeS
chThdResumeI
chThdSuspendS
chMtxLock
chMtxUnlock
