ARM GAS  /tmp/ccdzPRNH.s 			page 1


   1              		.syntax unified
   2              		.cpu cortex-m4
   3              		.eabi_attribute 27, 3
   4              		.eabi_attribute 28, 1
   5              		.fpu fpv4-sp-d16
   6              		.eabi_attribute 20, 1
   7              		.eabi_attribute 21, 1
   8              		.eabi_attribute 23, 3
   9              		.eabi_attribute 24, 1
  10              		.eabi_attribute 25, 1
  11              		.eabi_attribute 26, 1
  12              		.eabi_attribute 30, 2
  13              		.eabi_attribute 34, 1
  14              		.eabi_attribute 18, 4
  15              		.thumb
  16              		.file	"adc_lld.c"
  17              		.section	.gnu.lto_.jmpfuncs.e13d0e97d2d542a7,"",%progbits
  18 0000 789C7550 		.ascii	"x\234uP\273\016\3020\014\274s\322\224\267\020\277\321"
  18      BB0EC230 
  18      0CBC73D2 
  18      94B710BF 
  18      D1
  19 0011 1FEA0C53 		.ascii	"\037\352\014S\007V$\304\320\214|\013\237\310R\034\222"
  19      075624C4 
  19      D08C7C0B 
  19      9FC8521C 
  19      92
  20 0022 10688BA5 		.ascii	"\020h\213\245(\366\345.>[ \230\213+\343\275\005- -;"
  20      28F6E52E 
  20      3E5B2098 
  20      8B2BE3BD 
  20      052D202D 
  21 0037 C26972C3 		.ascii	"\302ir\303\323\337\375\276#O\221a\364\\\0101\222h\341"
  21      D3DFFDBE 
  21      234F9161 
  21      F45C0831 
  21      9268E1
  22 004a 3F663463 		.ascii	"?f4cC\016\366\237G\223\356\020=R\011\022Aa\354\010\377"
  22      430EF69F 
  22      4793EE10 
  22      3D520912 
  22      4161EC08 
  23 005f 53CAAFAA 		.ascii	"S\312\257\252\212\375l\342\302B\242\367\303\327\020"
  23      8AFD6CE2 
  23      C242A2F7 
  23      C3D710
  24 006e 2C5354E7 		.ascii	",ST\347\330\3371\273\252\011\205\026\\r\245\222\302"
  24      D8DF31BB 
  24      AA098516 
  24      5C72A592 
  24      C2
  25 007f 740D1EDE 		.ascii	"t\015\036\336\207\254V\315\221eU3\023N\033\310\004\032"
  25      87AC56CD 
  25      91655533 
  25      134E1BC8 
  25      041A
  26 0091 5BE6DBF2 		.ascii	"[\346\333\362\032\033\335\371\016x\001\332O:\312"
ARM GAS  /tmp/ccdzPRNH.s 			page 2


  26      1A1BDDF9 
  26      0E7801DA 
  26      4F3ACA
  27              		.text
  28              		.section	.gnu.lto_.inline.e13d0e97d2d542a7,"",%progbits
  29 0000 789C6D52 		.ascii	"x\234mR\275kSQ\024\377\235{\337g_\322<[\027\251\330"
  29      BD6B5351 
  29      14FF9D7B 
  29      DF675FD2 
  29      3C5B17A9 
  30 0015 E0D0A048 		.ascii	"\340\320\240H_\251\342\342\022\260\272\231E\0077\033"
  30      5FA9E2E2 
  30      12B0BA99 
  30      4507371B 
  31 0025 93D004D3 		.ascii	"\223\320\004\323F\372!-]\036\270d\314\340\320A$:u\350"
  31      46FA212D 
  31      5D1EB864 
  31      CCE0D041 
  31      243A75E8 
  32 0039 9F203438 		.ascii	"\237 48(n\235E\244\332\301L\"\350\344\242\347\336\233"
  32      286E9D45 
  32      A4DAC14C 
  32      22E8E4A2 
  32      E7DE9B
  33 004c BC3E9326 		.ascii	"\274>\223&p\316\357\234{\336\371\374\011\010\234\365"
  33      70CEEF9C 
  33      7BDEF9FC 
  33      09089CF5 
  34 005c FB2E813B 		.ascii	"\373.\201;\254\263\300\205,YX\331\305\237\270\035\037"
  34      ACB3C085 
  34      2C5958D9 
  34      C59FB81D 
  34      1F
  35 006d 3FFFF591 		.ascii	"?\377\365\221\032d\257\222\011\253\227\3515\3552\320"
  35      1A64AF92 
  35      09AB97E9 
  35      35ED32D0 
  36 007d 360B792C 		.ascii	"6\013y,\334\334\336\026\334vA\300\352\316\206\240\333"
  36      DCDCDE16 
  36      DC7641C0 
  36      EACE86A0 
  36      DB
  37 008e 794B68C9 		.ascii	"yKh\311\202Q\360\325\266T\260=\011\013V\247\004tJ\002"
  37      8251F0D5 
  37      B654B03D 
  37      090B56A7 
  37      04744A02 
  38 00a2 7DCC918F 		.ascii	"}\314\221\217\372CN\356q\226\230\260\222\3025\205}\202"
  38      FA434EEE 
  38      719698B0 
  38      92C23585 
  38      7D82
  39 00b4 5C463581 		.ascii	"\\F5\201\224\324\344\010\245\212Z.\353^\246\246\017"
  39      94D4E408 
  39      A58A5A2E 
  39      EB5EA6A6 
  39      0F
ARM GAS  /tmp/ccdzPRNH.s 			page 3


  40 00c5 E710FCE5 		.ascii	"\347\020\374\345&\234\237\363\374\360\336\216I\300\376"
  40      269C9FF3 
  40      FCF0DE8E 
  40      49C0FE
  41 00d4 32C3B199 		.ascii	"2\303\261\231\037\327\212\026\256\034D\334\321\036\305"
  41      1FD78A16 
  41      AE1C44DC 
  41      D11EC5
  42 00e3 42B5A735 		.ascii	"B\265\2475\304\211\210-6\275\303\2005\374wR\275\335"
  42      C489882D 
  42      36BDC380 
  42      35FC7752 
  42      BDDD
  43 00f5 8C453ED1 		.ascii	"\214E>\321\020\373\034\023Z\360\272>Kz\301\037\206\352"
  43      10FB1C13 
  43      5AF0BA3E 
  43      4B7AC11F 
  43      86EA
  44 0107 D500D592 		.ascii	"\325\000\325\222\314\360d\202'\023\001\003\352\224\330"
  44      CCF06482 
  44      27130103 
  44      EA94D8
  45 0116 31B495E9 		.ascii	"1\264\225\351L\261[vJ\352?\202\363i#L\014\373\234I "
  45      4CB15B76 
  45      4AEA3F82 
  45      F369234C 
  45      0CFB9C49 
  46 012b E1D804C1 		.ascii	"\341\330\004\301#\301\351\316\352\313Y\010.\216\270"
  46      23C1E9CE 
  46      EACB5908 
  46      2E8EB8
  47 013a 7439986A 		.ascii	"t9\230jp\340\371$\3156%\257\015f\311\006\252}A\365\254"
  47      70E0F924 
  47      CD3625AF 
  47      0D66C906 
  47      AA7D41F5 
  48 014f 3FA5BE1B 		.ascii	"?\245\276\033\362\216\332\205Pe\0316\357\"\347\223;"
  48      F28EDA85 
  48      50651936 
  48      EF22E793 
  48      3B
  49 0160 48204E13 		.ascii	"H N\023h8\240E\357\325\364\377\244x3$\205\034\262B_"
  49      6838A045 
  49      EFD5F4FF 
  49      A4783324 
  49      851CB242 
  50 0175 C54F952A 		.ascii	"\305O\225*\352R|\232\017\024\223Z\240\326J\261a\237"
  50      EA527C9A 
  50      0F14935A 
  50      A0D64AB1 
  50      619F
  51 0187 B84C8E97 		.ascii	"\270L\216\227\216:\212J4\241\226\221\264\344a\341*S"
  51      8E3A8A4A 
  51      34A19691 
  51      B4E461E1 
  51      2A53
  52 0199 E34C56A4 		.ascii	"\343LV\244\011\021\313SF\014Z\030\220\244'rK\361o\231"
ARM GAS  /tmp/ccdzPRNH.s 			page 4


  52      0911CB53 
  52      460C5A18 
  52      90A42772 
  52      4BF16F99 
  53 01ad 9E5B4925 		.ascii	"\236[I%\362<\330Q.\017\3619\340\026\235\203\231\"\304"
  53      F23CD851 
  53      2E0FF139 
  53      E0169D83 
  53      9922C4
  54 01c0 275BB1B7 		.ascii	"'[\261\267\357*\016i\245\2450\206\221\326@A\217y\376"
  54      EF2A0E69 
  54      A5A53086 
  54      91D64041 
  54      8F79FE
  55 01d3 168974D5 		.ascii	"\026\211t\325\236p.\355\177s\222z&Z\347\3644\364\324"
  55      9E702EED 
  55      7F73927A 
  55      265AE7F4 
  55      34F4D4
  56 01e6 7713285C 		.ascii	"w\023(\\\346[.\036\275\245\344\230<\372\310E5\031\200"
  56      E65B2E1E 
  56      BDA5E498 
  56      3CFAC845 
  56      351980
  57 01f9 609C0B99 		.ascii	"`\234\013\231qWv\33459\356\302RTo\255\326\242J\253\272"
  57      715776DC 
  57      3539EEC2 
  57      52546FAD 
  57      D6A24AAB 
  58 020e 13556BCF 		.ascii	"\023Uk\317\242J\275\361\270\321\332\2106\327\267\326"
  58      A24ABDF1 
  58      B8D1DA88 
  58      36D7B7D6 
  59 021e 9E440CEA 		.ascii	"\236D\014\352\345f\364\264\265\276\271\021\335\177p"
  59      E566F4B4 
  59      B5BEB911 
  59      DD7F70
  60 022d EFFAA291 		.ascii	"\357\372\242\221woloG\345j\345Q\263Y\235\257\340\037"
  60      776F6C6F 
  60      47E56AE5 
  60      51B3599D 
  60      AFE01F
  61 0240 779AA365 		.ascii	"w\232\243e"
  62              		.text
  63              		.section	.gnu.lto_.pureconst.e13d0e97d2d542a7,"",%progbits
  64 0000 789C6362 		.ascii	"x\234cb`b\220f\200\000^\006)&+f)\026\0116Iv)\016)N)"
  64      60629066 
  64      80005E06 
  64      29262B66 
  64      29160936 
  65 001b 2E2B6E29 		.ascii	".+n)\036)^)>)\000\036\220\002\037"
  65      1E295E29 
  65      3E29001E 
  65      90021F
  66              		.text
  67              		.section	.gnu.lto_adc_lld_start.part.0.e13d0e97d2d542a7,"",%progbits
  68 0000 789C9D94 		.ascii	"x\234\235\224MhSA\020\307g\336\276}/M[[\265\036\274"
ARM GAS  /tmp/ccdzPRNH.s 			page 5


  68      4D685341 
  68      10C767DE 
  68      BE7D2F4D 
  68      5B5BB51E 
  69 0015 89372DF4 		.ascii	"\2117-\364\241\365\240\007o~\036<\331\202z\221\364\245"
  69      A1F5A007 
  69      6F7E1E3C 
  69      D9827A91 
  69      F4A5
  70 0027 240F5323 		.ascii	"$\017S#m\225\212\207nl\300\334\014^\374\272\264H\021"
  70      6D958A87 
  70      6E6CC0DC 
  70      0C5EFCBA 
  70      B44811
  71 003a 2222DE5A 		.ascii	"\"\"\336Z\274D\021\251\242Vo\245\247\326\213\340\251"
  71      BC4411A9 
  71      A2566FA5 
  71      A7D68BE0 
  71      A9
  72 004b 50D02262 		.ascii	"P\320\"b\234\331\335\367\332(Bu!\263\233\235\375\377"
  72      9CD9DDF7 
  72      DA284275 
  72      21B39B9D 
  72      FDFF
  73 005d 66766712 		.ascii	"fvg\022\007\034\370}\034\245O\315\0058A3\372\200^\365"
  73      071CF87D 
  73      1CA54FCD 
  73      05384133 
  73      FA805EF5 
  74 0071 3D2D3C74 		.ascii	"=-<t\364\3548bR\202J\273+s\000\252M\240\313\333\245"
  74      F4EC3862 
  74      52824ABB 
  74      2B7300AA 
  74      4DA0CBDB 
  75 0086 948BD22C 		.ascii	"\224\213\322,$\"/\000a\334s\204+q\374,2\026w\303\224"
  75      24222F00 
  75      61DC7384 
  75      2B71FC2C 
  75      321677C3 
  76 009b 52B796A6 		.ascii	"R\267\226\246W\227\361\266\252\227&\325\217F\0031BJ"
  76      5797F1B6 
  76      AA9726D5 
  76      8F460331 
  76      424A
  77 00ad E1384288 		.ascii	"\3418B\210p\206\276`JO\0166\347\364\304QK\215\306\354"
  77      7086BE60 
  77      4A4F0E36 
  77      E7F4C451 
  77      4B8DC6EC 
  78 00c1 A37417E2 		.ascii	"\243t\027\342\020+\"\024\202\215K\306\225d\244\307\306"
  78      102B2214 
  78      828D4BC6 
  78      9564A4C7 
  78      C6
  79 00d2 679362D3 		.ascii	"g\223b\323\302&M\306#\271\204\262R\325]\300Qh\364\221"
  79      C2264DC6 
  79      23B984B2 
ARM GAS  /tmp/ccdzPRNH.s 			page 6


  79      52D55DC0 
  79      5168F491 
  80 00e6 E51CFBC8 		.ascii	"\345\034\373\310I\263\350GG\317s\360\362\363\363\273"
  80      49B3E847 
  80      47CF73F0 
  80      F2F3F3BB 
  81 00f6 37DB32F8 		.ascii	"7\3332\370\000%\344\020\257\301wUQ\2527B\177\010\233"
  81      0025E410 
  81      AFC17755 
  81      51AA3742 
  81      7F089B
  82 0109 53EA4701 		.ascii	"S\352G\001\223R\274\203\353\213\013\253\313\302F\310"
  82      9352BC83 
  82      EB8B0BAB 
  82      CBC246C8 
  83 0119 E014DD13 		.ascii	"\340\024\335\023\300\020h\344\320\351\206\275\224\350"
  83      C01068E4 
  83      D0E986BD 
  83      94E8
  84 0127 7DB85752 		.ascii	"}\270WR\2523\302\024q\371\212\276\306\014$\324y\270"
  84      AA33C214 
  84      71F98ABE 
  84      C60C24D4 
  84      79B8
  85 0139 51DF99C1 		.ascii	"Q\337\231\301i\2553\201\351tKh\343\022\210Ui\317\372"
  85      69AD3381 
  85      E9744B68 
  85      E3128855 
  85      69CFFA
  86 014c EA4FE77B 		.ascii	"\352O\347{\"l\015\321\261\232\034\277e\033\000g\264"
  86      226C0DD1 
  86      B19A1CBF 
  86      651B0067 
  86      B4
  87 015d F6F590D9 		.ascii	"\366\365\220\331\315\241\330dx\222\235\2135n7\324\370"
  87      CDA1D864 
  87      78929D8B 
  87      356E37D4 
  87      F8
  88 016e 6C7BA2DA 		.ascii	"l{\242\332B V\011\253\302D\365\342\240Q\261\244L':\022"
  88      42205609 
  88      ABC244F5 
  88      E2A051B1 
  88      A44C273A 
  89 0183 4D278158 		.ascii	"M'\201X\323n5\246\323xG\276\255\227\225k\344\213\225"
  89      D36E35A6 
  89      D37847BE 
  89      AD97956B 
  89      E48B95
  90 0196 6F18C795 		.ascii	"o\030\307\225\032R\352\264\224*S\266\262`\233Z\251\220"
  90      1A52EAB4 
  90      942A53B6 
  90      B2609B5A 
  90      A990
  91 01a8 402F2D4D 		.ascii	"@/-M$\031L\314\212\030\340\021C\007P\216\241\237\334"
  91      24194CCC 
  91      8A18E011 
ARM GAS  /tmp/ccdzPRNH.s 			page 7


  91      4307508E 
  91      A19FDC
  92 01bb 90DCBF70 		.ascii	"\220\334\277ps\272mt\231]\335\032\234\351\235\207\237"
  92      73BA6D74 
  92      995DDD1A 
  92      9CE99D87 
  92      9F
  93 01cc 9CB835FC 		.ascii	"\234\2705\374\246\373j\342v\306t\251WeK\354\262Dw=\323"
  93      A6FB6AE2 
  93      76C674A9 
  93      57654BEC 
  93      B244773D 
  94 01e1 67135F30 		.ascii	"g\023_0&P!|\223\253R\236\275\310\304O\021\273[\350\204"
  94      2650217C 
  94      93AB529E 
  94      BDC8C44F 
  94      11BB5BE8 
  95 01f6 75DB977A 		.ascii	"u\333\227z\375\3017Ns\033\265o\363\301\011g\032c\246"
  95      FDC1374E 
  95      731BB56F 
  95      F3C10967 
  95      1A63A6
  96 0209 F6264920 		.ascii	"\366&I \255;\303\373kg\310\365\032\317T[\233B\037\336"
  96      AD3BC3FB 
  96      6B67C8F5 
  96      1ACF545B 
  96      9B421FDE 
  97 021d 58E71D84 		.ascii	"X\347\035\204b\235gu^R\347\216X\276P\213_n3\000\377"
  97      629D6775 
  97      5E52E78E 
  97      58BE508B 
  97      5F6E3300 
  98 0232 4FC0DA7F 		.ascii	"O\300\332\177\002d\334\250\375$\345:~\204\322\322\343"
  98      0264DCA8 
  98      FD24E53A 
  98      7E84D2D2 
  98      E3
  99 0243 3DC9CF13 		.ascii	"=\311\317\023\314\337\001\262\217[\346H\220/\016\015"
  99      CCDF01B2 
  99      8F5BE648 
  99      902F0E0D 
 100 0253 0661317B 		.ascii	"\006a1{5\310\016^\011\302|4\020\025G\202\321\341\313"
 100      35C80E5E 
 100      09C27C34 
 100      10154782 
 100      D1E1CB
 101 0266 172F04B4 		.ascii	"\027/\004\264\310g\012\301\245\342\360\350Hp\272\357"
 101      C8670AC1 
 101      A5E2F0E8 
 101      4870BAEF 
 102 0276 54EF7E63 		.ascii	"T\357~c\217\035\030\033\0132\331\360|\241\220\355\011"
 102      8F1D181B 
 102      0B32D9F0 
 102      7CA190ED 
 102      09
 103 0287 01077E01 		.ascii	"\001\007~\001}\223'@"
 103      7D932740 
ARM GAS  /tmp/ccdzPRNH.s 			page 8


 104              		.text
 105              		.section	.gnu.lto_adc_lld_serve_rx_interrupt.e13d0e97d2d542a7,"",%progbits
 106 0000 789CBD56 		.ascii	"x\234\275VMlTU\024>\367\276\367\346\177:3\355\374\264"
 106      4D6C5455 
 106      143EF7BE 
 106      F7E67F3A 
 106      33EDFCB4 
 107 0014 D04EA7D8 		.ascii	"\320N\247\330\246\244\030\246\330\226\352\302@\242\301"
 107      A6A418A6 
 107      D896EAC2 
 107      40A2C1
 108 0023 98D88516 		.ascii	"\230\330\205\026\022u\323\0143c;\261\355\220i1E\026"
 108      1275D30C 
 108      33633BB1 
 108      ED906931 
 108      4516
 109 0035 3C683144 		.ascii	"<h1Dh\202nD~\022\011\351\0025!\301\230\220P#\011\004"
 109      68826E44 
 109      7E1209E9 
 109      023521C1 
 109      98905023 
 110 004b F9096D4C 		.ascii	"\371\011mL\272Q1\351\302\310\006Q\242\260@\223z\316"
 110      BA5131E9 
 110      C2C80651 
 110      A2B04093 
 110      7ACE
 111 005d 7D736FDF 		.ascii	"}so\337\224\211\235!\304\2678s\357=\347|\367\234s\317"
 111      94899D21 
 111      C4B73873 
 111      EF3DE77C 
 111      F79C73CF 
 112 0071 CF70E0B0 		.ascii	"\317p\340\260\362kf\000\272\037\340\016\256Y\014\030"
 112      F26B6600 
 112      BA1FE00E 
 112      AE590C18 
 113 0081 3F3A07B0 		.ascii	"?:\007\260\337\305\271\266\020\005\323\343\234\355\005"
 113      DFC5B9B6 
 113      1005D3E3 
 113      9CED05
 114 0090 D3A771FD 		.ascii	"\323\247q\375\304\213\270s<\010\342N\347\306\325&\332"
 114      C48BB873 
 114      3C08E24E 
 114      E7C6D526 
 114      DA
 115 00a1 DDE8C49D 		.ascii	"\335\350\304\235\301\034\226\212\203E\255\205\223\273"
 115      C11C968A 
 115      8345AD85 
 115      93BB
 116 00af 8E5F0514 		.ascii	"\216_\005\024\210>t\242\200\213\273\017\265\343\256"
 116      883E74A2 
 116      808BBB0F 
 116      B5E3AE
 117 00be 8EA8CFCD 		.ascii	"\216\250\317\315=\004\351\251!x\237\207{\355\242^\356"
 117      3D04E9A9 
 117      21789F87 
 117      7BEDA25E 
 117      EE
ARM GAS  /tmp/ccdzPRNH.s 			page 9


 118 00cf 3BF802EE 		.ascii	";\370\002\356\374\207#\270\363I@\277\\\324\360\300w"
 118      FC8723B8 
 118      F34940BF 
 118      5CD4F0C0 
 118      77
 119 00e0 9B911FBA 		.ascii	"\233\221\037\272\036C~\200\007\205\035\265\302\216 "
 119      1E437E80 
 119      07851DB5 
 119      C28E20
 120 00ef ABB58442 		.ascii	"\253\265\204BrQ+\325\352xx!I\227\314\306Q0\314#\302"
 120      72512BD5 
 120      EA787821 
 120      4997CCC6 
 120      5130CC23 
 121 0104 99A87026 		.ascii	"\231\250p&\"\205\242\214\321\002\030\354\343\232n8\234"
 121      2285A28C 
 121      D10218EC 
 121      E39A6E38 
 121      9C
 122 0115 2EB7C7EB 		.ascii	".\267\307\353\363\327\004\202\241\332\272p$\312\366"
 122      F3D70482 
 122      A1DABA70 
 122      24CAF6
 123 0124 BDC52860 		.ascii	"\275\305(`|\035\2346\315\217\027g\356]c\237\232\227"
 123      7C1D9C36 
 123      CD8F1767 
 123      EE5D639F 
 123      9A97
 124 0136 A63E33FF 		.ascii	"\246>3\377YZb,\3070\270\2570H3x\0237,!~\270^\032mK\327"
 124      595A622C 
 124      C730B8AF 
 124      30483378 
 124      13372C21 
 125 0151 3C6F9A6E 		.ascii	"<o\232n\241\247\011\265\327VS;\307/-.-\315~\365\313"
 125      A1A709B5 
 125      D756533B 
 125      C72F2D2E 
 125      2DCD7EF5 
 126 0166 9193EC24 		.ascii	"\221\223\354$\337\242\263\021\006\006\344\230\346\304"
 126      DFA2B311 
 126      0606E498 
 126      E6C4
 127 0174 1573E34A 		.ascii	"\025s\343J\367 1\374H\034!$\3160\235EH$\212\304\025"
 127      F72031FC 
 127      481C2124 
 127      CE309D45 
 127      48248AC4 
 128 0189 43E2AE47 		.ascii	"C\342\256G\342i\200\024;\315\326\301\032\334x\327\322"
 128      E2698014 
 128      3BCDD6C1 
 128      1ADC78D7 
 128      D2
 129 019a 49239E9C 		.ascii	"I#\236\234\301\223&\334\370\342t\322L\253\026\"\255"
 129      C19326DC 
 129      F8E274D2 
 129      4CAB1622 
 129      AD
ARM GAS  /tmp/ccdzPRNH.s 			page 10


 130 01ab 04D346CA 		.ascii	"\004\323F\312\355\264]O\334\016\272\244\223.\351\"\374"
 130      EDB45D4F 
 130      DC0EBAA4 
 130      932EE922 
 130      FC
 131 01bc 6EE2F610 		.ascii	"n\342\366\020w3q{\211\240\311\006L\231\346\321\004\220"
 131      7733717B 
 131      89A0C906 
 131      4C99E6D1 
 131      0490
 132 01ce 67F86D47 		.ascii	"g\370mGJ\341\335\3018\375j\267`\362\342\344\337G\342"
 132      4AE1DDC1 
 132      38FD6AB7 
 132      60F2E2E4 
 132      DF47E2
 133 01e1 2936C30C 		.ascii	")6\303\014\030d\306 \323\311s\315\207\302\327`\352\356"
 133      1864C620 
 133      D3C973CD 
 133      87C2D760 
 133      EAEE
 134 01f3 7EBF6289 		.ascii	"~\277b\211s{8v\340v!\252\315\303\324\342\3313\314\222"
 134      737B3876 
 134      E07621AA 
 134      CDC3D4E2 
 134      D933CC92 
 135 0207 03D80B8F 		.ascii	"\003\330\013\217\314Cf0\307\374i&\356D]g\216\325\000"
 135      CC436630 
 135      C7FC6926 
 135      EE445D67 
 135      8ED500
 136 021a DC82036F 		.ascii	"\334\202\003oK4\367\006\350@\237N\300qD\015\240\004"
 136      4B34F706 
 136      E8409F4E 
 136      C071440D 
 136      A004
 137 022c A10785F8 		.ascii	"\241\007\205\370N&/\260+x6\300\347\204\032\262Tj\021"
 137      4E262FB0 
 137      2B7836C0 
 137      E7841AB2 
 137      546A11
 138 023f 8254F4A2 		.ascii	"\202T\364\242\212\324!\233\231\322!\211\272R\223uX\014"
 138      8AD4219B 
 138      99D22189 
 138      BA529375 
 138      580C
 139 0251 A1DB079E 		.ascii	"\241\333\007\236\267\204\204\031\341\362fXUJ'arl\036"
 139      B7848419 
 139      E1F26658 
 139      554A2761 
 139      726C1E
 140 0264 0CE9E320 		.ascii	"\014\351\343 \305\266(\035\001\014u\264\324X\377\352"
 140      C5B6281D 
 140      010C75B4 
 140      D458FFEA 
 141 0274 B064EA95 		.ascii	"\260d\352\225;\312T\277\272f\331T\003~rTo*W\372\016"
 141      3BCA54BF 
 141      BA66D954 
ARM GAS  /tmp/ccdzPRNH.s 			page 11


 141      037E7254 
 141      6F2A57FA 
 142 0289 7A9D15FA 		.ascii	"z\235\025\372\377\031q\025\32098p\377\334\345\363G4"
 142      FF197115 
 142      D0393870 
 142      FFDCE5F3 
 142      4734
 143 029b 953ED273 		.ascii	"\225>\322s\254K\006\307\360\341\361\032\315\352cq8\313"
 143      AC4B06C7 
 143      F0E1F11A 
 143      CDEA6371 
 143      38CB
 144 02ad 4E99C7B6 		.ascii	"N\231\307\266\346\260o\025A\352\023\264R\374/\213\374"
 144      E6B06F15 
 144      41EA13B4 
 144      52FC2F8B 
 144      FC
 145 02be 06F5AC8F 		.ascii	"\006\365\254\217.\337\\x]\372\036\332\013\357c\032\013"
 145      2EDF5C78 
 145      5DFA1EDA 
 145      0BEF631A 
 145      0B
 146 02cf FBD694B7 		.ascii	"\373\326\224\267\317\226w\363p\360\217\2733_L7+\333"
 146      CF9677F3 
 146      70F08FBB 
 146      335F4C37 
 146      2BDB
 147 02e1 ACC52544 		.ascii	"\254\305%D\224v\246e\220U2\256M3-\305\276\261|\300+"
 147      9476A665 
 147      905532AE 
 147      4D332DC5 
 147      BEB17CC0 
 148 02f6 09BC7149 		.ascii	"\011\274qI~l_\2165U\352v\212}\215\013\341&\330\334L"
 148      7E6C5F8E 
 148      3555EA76 
 148      8A7D8D0B 
 148      E126D8DC 
 149 030b B10B2C6E 		.ascii	"\261\013,n\177>'\314\366R\370\177\274}a\272I\372\032"
 149      7F3E27CC 
 149      F652F87F 
 149      BC7D61BA 
 149      49FA1A
 150 031e AE24EF45 		.ascii	"\256$\357E\341mR*\313y\256\260]pw\223U\274\337NwH\301"
 150      E16D522A 
 150      CB79AEB0 
 150      5D707793 
 150      55BCDF4E 
 151 0335 882CDE84 		.ascii	"\210,\336\204\304\350Q\2542\305\353\206\207\365\302"
 151      C4E851AC 
 151      32C5EB86 
 151      87F5C2
 152 0344 BE0BD842 		.ascii	"\276\013\330B\245`\264XfqUfa{\231\3516\013\227uH\302"
 152      A560B458 
 152      66715566 
 152      617B99E9 
 152      360B9775 
 153 035a 550AEE81 		.ascii	"U\012\356\201\037D\231\251\222\210\025\201\233\313\003"
ARM GAS  /tmp/ccdzPRNH.s 			page 12


 153      1F4499A9 
 153      92881581 
 153      9BCB03
 154 0369 1BE58063 		.ascii	"\033\345\200c$\221(\005\366\302\237\201\022\340z\021"
 154      24912805 
 154      F6C29F81 
 154      12E07A11 
 155 0379 51281F51 		.ascii	"Q(\037Q\207\202\275\362\253\202\255'\011`%\260>\230"
 155      8782BDF2 
 155      AB82AD27 
 155      096025B0 
 155      3E98
 156 038b F35240A7 		.ascii	"\363R@\247\345\333[\355\331j\311\266<\030d\015\022\200"
 156      E5DB5BED 
 156      D96AC9B6 
 156      3C18640D 
 156      1280
 157 039d 832CFA1B 		.ascii	"\203,\372\033\002vM\321\303\226\362\036:\213w\241\312"
 157      02764DD1 
 157      C396F21E 
 157      3A8B77A1 
 157      CA
 158 03ae 3D4DEAAC 		.ascii	"=M\352\254E5:\232\374P\0355\212\323\206R\354&\341\244"
 158      45353A9A 
 158      FC501D35 
 158      8AD38652 
 158      EC26E1A4 
 159 03c2 AFBC932E 		.ascii	"\257\274\223.\205l\203\211#\222\315\314\311\303\212"
 159      856C8389 
 159      2392CDCC 
 159      C9C38A
 160 03d1 D38C7083 		.ascii	"\323\214p\203\224\252\363\340\260\316\310\255\230hh"
 160      94AAF3E0 
 160      B0CEC8AD 
 160      986868
 161 03e0 82DB9013 		.ascii	"\202\333\220\023>\213\270\370aF/\011wK%\226\010\344"
 161      3E8BB8F8 
 161      61462F09 
 161      774B2596 
 161      08E4
 162 03f2 9915C82D 		.ascii	"\231\025\310-\0308\033r\015\234r\342\354\320\253\233"
 162      18381B72 
 162      0D9C72E2 
 162      ECD0AB9B 
 163 0402 1BADD5CE 		.ascii	"\033\255\325\316\215\266\307\362\256u\325\274k+\223"
 163      8DB6C7F2 
 163      AE75D5BC 
 163      6B2B93
 164 0411 7701F8C0 		.ascii	"w\001\370\300\250\276\031\353+\254i\257\354\035\227"
 164      A8BE19EB 
 164      2BAC69AF 
 164      EC1D97
 165 0420 15D65792 		.ascii	"\025\326W\222\335%\341n+\206\273\035\225E\270\355p\035"
 165      DD25E16E 
 165      2B86BB1D 
 165      9545B8ED 
 165      701D
ARM GAS  /tmp/ccdzPRNH.s 			page 13


 166 0432 550FA60E 		.ascii	"U\017\246\016\345\307r,\202\360\027{\262\301\364D\323"
 166      E5C7722C 
 166      82F0177B 
 166      B2C1F444 
 166      D3
 167 0443 C8BA3404 		.ascii	"\310\2724\004\237\360\377\375\322ZJ\322\252\307\202"
 167      9FF0FFFD 
 167      D25A4AD2 
 167      AAC782
 168 0452 489DC7C7 		.ascii	"H\235\307\307\2025\367n\177\244\311\330v>\245\301\207"
 168      8235F76E 
 168      7FA4C9D8 
 168      763EA5C1 
 168      87
 169 0463 90AB4DBE 		.ascii	"\220\253M\276\337d\373\352\024\223\217\376\263<\365"
 169      DF64FBEA 
 169      14938FFE 
 169      B33CF5
 170 0472 8157670D 		.ascii	"\201Wg\015\224\311\213\227o\376|\337\220Nv\311\251\024"
 170      94C98B97 
 170      6FFE7CDF 
 170      904E76C9 
 170      A914
 171 0484 84E254DA 		.ascii	"\204\342T\332\242Xe\246R\030\216\007\254\251\364\373"
 171      A25865A6 
 171      52188E07 
 171      ACA9F4FB 
 172 0494 F254EA7E 		.ascii	"\362T\352~\202\341\321]\246\210#\360\300[\322\315z\252"
 172      82E1D15D 
 172      A68823F0 
 172      C05BD2CD 
 172      7AAA
 173 04a6 ADC7CD95 		.ascii	"\255\307\315\225\324\243\230#R\243\027\225T#.\251\324"
 173      D4A39823 
 173      52A31795 
 173      54232EA9 
 173      D4
 174 04b7 EE62A5F6 		.ascii	"\356b\245\366\240\220\2551F\305?\363\357a\377\342\365"
 174      A090AD31 
 174      46C53FF3 
 174      EF61FFE2 
 174      F5
 175 04c8 67D47388 		.ascii	"g\324s\210o;6F\344\021\320\313\311\241\374H6\231\316"
 175      6F3B3646 
 175      E411D0CB 
 175      C9A1FC48 
 175      3699CE
 176 04db 67F62433 		.ascii	"g\366$3\331\367\222\351\241\334\316\\~,9^\330=\372n"
 176      D9F792E9 
 176      A1DCCE5C 
 176      7E2C395E 
 176      D83DFA6E 
 177 04ef 121743A9 		.ascii	"\022\027C\251\341\344\256|a|,\331\277\275\257\3539\213"
 177      E1E4AE7C 
 177      617C2CD9 
 177      BFBDAFEB 
 177      398B
ARM GAS  /tmp/ccdzPRNH.s 			page 14


 178 0501 6EEB9E98 		.ascii	"n\353\236\230H\2462\351\201\341\341\314\3064\350(\364"
 178      48A632E9 
 178      81E1E1CC 
 178      C634E828 
 178      F4
 179 0512 8E87C840 		.ascii	"\216\207\310@n4\223\235\330\272\032hvb<\371R_\377\253"
 179      6E34939D 
 179      D8BA1A68 
 179      76623CF9 
 179      525FFFAB 
 180 0526 FDC9DC68 		.ascii	"\375\311\334hzxw\206d\013\331\201\364\310\266\335\243"
 180      7A787786 
 180      640BD981 
 180      F4C8B6DD 
 180      A3
 181 0537 E98D4310 		.ascii	"\351\215C\020\354\353\177#\26135\226\335U\310=\233h"
 181      ECEB7F23 
 181      B1333596 
 181      DD55C83D 
 181      9B68
 182 0549 EB045E00 		.ascii	"\353\004^\000\347Hv$_\330\003]\225X\234\037CR\030\027"
 182      E7487624 
 182      5FD8035D 
 182      95589C1F 
 182      43521817 
 183 055d BF88F72F 		.ascii	"\277\210\367/L$\317\366"
 183      4C24CFF6 
 184              		.text
 185              		.section	.gnu.lto_adc_lld_stop.part.1.e13d0e97d2d542a7,"",%progbits
 186 0000 789C954F 		.ascii	"x\234\225O\261J\003A\024|\263\267\027\304F[\273`'\001"
 186      B14A0341 
 186      147CB3B7 
 186      17C4465B 
 186      BB602701 
 187 0014 17D4CA5A 		.ascii	"\027\324\312Z\024\021A\360\002Z\311\345.\230\303\350"
 187      141141F0 
 187      025AC9E5 
 187      2E98C3E8 
 188 0024 85244AAC 		.ascii	"\205$J\254\262\247),\217T\242\215\301\316&`!H\272\200"
 188      B2A7292C 
 188      8F54A28D 
 188      C1CE2660 
 188      2148BA80 
 189 0038 65045BAB 		.ascii	"e\004[\253\374\200\340\017\350\371\366\216\024\332\371"
 189      FC80E00F 
 189      E8F9F68E 
 189      14DAF9
 190 0047 60DFCCEE 		.ascii	"`\337\314\356\333\235\231\025$\350o\025x\355\200h\213"
 190      DB9D9915 
 190      24E86F15 
 190      78ED8068 
 190      8B
 191 0058 113641C6 		.ascii	"\0216A\306\257L$D\212\002\226\301h\312\002\014!P[\012"
 191      AF4C2444 
 191      8A0296C1 
 191      68CA020C 
 191      21505B0A 
ARM GAS  /tmp/ccdzPRNH.s 			page 15


 192 006c 0BED7D98 		.ascii	"\013\355}\230\307\230\247\236\326\335\361K\377qN\337"
 192      C798A79E 
 192      D6DDF14B 
 192      FF714EDF 
 193 007c 5DC4FA3B 		.ascii	"]\304\372;I\020\200m6@\036h\2177\310\247 \344o\337\276"
 193      4910806D 
 193      36401E68 
 193      8F37C8A7 
 193      20E46FDF 
 194 0091 D0E32479 		.ascii	"\320\343$y\036L\333\240\000\2260\215\217m\352h\035\347"
 194      1E4CDBA0 
 194      0096308D 
 194      8F6DEA68 
 194      1DE7
 195 00a3 5DF4589B 		.ascii	"]\364X\233\214\006\227\303\335\270;\220\006\255\"D\212"
 195      8C0697C3 
 195      DDB83B90 
 195      06AD2244 
 195      8A
 196 00b4 231ABE5F 		.ascii	"#\032\276_?\255\272\270\347\344\207@\201\036t'\232\015"
 196      3FADBAB8 
 196      E7E48740 
 196      811E7427 
 196      9A0D
 197 00c6 206FE926 		.ascii	" o\351&\21253\333x\347\364\347\225\226i\214\\j^\302"
 197      8A3533DB 
 197      78E7F4E7 
 197      9596698C 
 197      5C6A5EC2 
 198 00da 24C6882E 		.ascii	"$\306\210.\007\326D@\260\206\271d%_I2\223N\207\233\331"
 198      07D64440 
 198      B086B964 
 198      255F4932 
 198      934E879B 
 199 00ef F0DFD2AC 		.ascii	"\360\337\322\254\226\221\"\377\313\204}\243h\374\261"
 199      969122FF 
 199      CB847DA3 
 199      68FCB1
 200 00fe 90A94DCA 		.ascii	"\220\251M\312\001\314\314\334\\S\225\360\270\254\274"
 200      01CCCCDC 
 200      5C5395F0 
 200      B8ACBC
 201 010d D03F577E 		.ascii	"\320?W~\371Ly\225\240\024\204\015\325\254\237\236\034"
 201      F94C7995 
 201      A014840D 
 201      D5AC9F9E 
 201      1C
 202 011e 292615B7 		.ascii	")&\025\267\252ja\275\331P\273\316\366\362R\326\327W"
 202      AA6A61BD 
 202      D950BBCE 
 202      F6F252D6 
 202      D757
 203 0130 5A2DE5FA 		.ascii	"Z-\345\372\336A\265\352/z$\231\326~\000Hmm,"
 203      DE41B5EA 
 203      2F7A2499 
 203      D67E0048 
 203      6D6D2C
ARM GAS  /tmp/ccdzPRNH.s 			page 16


 204              		.text
 205              		.section	.gnu.lto_adc_lld_init.e13d0e97d2d542a7,"",%progbits
 206 0000 789C6362 		.ascii	"x\234cb`b@\007\222@|\211\221\201\301\015H32302M8\307"
 206      60624007 
 206      92407C89 
 206      9181C10D 
 206      48333233 
 207 0019 C0D0C8C1 		.ascii	"\300\320\310\301\304\310\010b002\32431\326G2\202\325"
 207      C4C80862 
 207      303032D4 
 207      3331D647 
 207      3282D5
 208 002c AE673AF0 		.ascii	"\256g:\360\340\377\377u[N\317y\303\270\213\211\035("
 208      E0FFFF75 
 208      5B4ECF79 
 208      C3B88B89 
 208      1D28
 209 003e C2CAD0D2 		.ascii	"\302\312\320\322\3200A\201\201!\031\254\"\004H\202\264"
 209      D0304181 
 209      812119AC 
 209      22044882 
 209      B4
 210 004f 85323281 		.ascii	"\20522\201h\346\363\014-\017\356\265r%2.dd\005JW3\374"
 210      68E6F30C 
 210      2D0FEEB5 
 210      7225322E 
 210      6464054A 
 211 0066 6AE86810 		.ascii	"j\350h\020\310d\004*\207\230\010\022\341\310dd\314e"
 211      C864042A 
 211      87980812 
 211      E1C86464 
 211      CC65
 212 0078 64802ACA 		.ascii	"d\200*\312\004je8\313\320\264\343\307\366\227\214\020"
 212      046A6538 
 212      CBD0B4E3 
 212      C7F6978C 
 212      10
 213 0089 316D8655 		.ascii	"1m\206U\015@`\230\311\310<\233aVc\003\310\004\026\270"
 213      0D406098 
 213      C9C83C9B 
 213      61566303 
 213      C80416B8 
 214 009d 5920BD40 		.ascii	"Y \275@\020\301\230\01153\011B\201E\230\033\016\264"
 214      10C19809 
 214      35330942 
 214      8145981B 
 214      0EB4
 215 00af 34B03080 		.ascii	"4\2600\200M\374\325\274x\272&\272\211\254\304\231\210"
 215      4DFCD5BC 
 215      78BA26BA 
 215      89ACC499 
 215      88
 216 00c0 70ED8C86 		.ascii	"p\355\214\206\206p\2406]\2065 \245l\271\214\214 u\354"
 216      8670A036 
 216      5D863520 
 216      A56CB98C 
 216      8C2075EC 
ARM GAS  /tmp/ccdzPRNH.s 			page 17


 217 00d4 3C28810A 		.ascii	"<(\201\012r\377\216]'\231\320m\343 \3166&\270\3739\247"
 217      72FF8E5D 
 217      2799D06D 
 217      E320CE36 
 217      26B8FB39 
 218 00e9 DDE00032 		.ascii	"\335\340\0002\3173\264>X\373\0343\034\271\222\221\324"
 218      CF33B43E 
 218      58FB1C33 
 218      1CB99291 
 218      D4
 219 00fa 72084128 		.ascii	"r\010A(6`\030r30\\dh|\260N\035\246\005\002B\200V\000"
 219      36601872 
 219      33305C64 
 219      687CB04E 
 219      1DA60502 
 220 0112 E305A4C7 		.ascii	"\343\005\244\307E?#?7U?9?\245R?%\265L?9#3)3\277X\277"
 220      453F233F 
 220      37553F39 
 220      3FA5523F 
 220      25B54C3F 
 221 012e A4A8342F 		.ascii	"\244\2504/[\037\310\310H\314\321/\310/*)\326\017\016"
 221      5B1FC8C8 
 221      48CCD12F 
 221      C82F2A29 
 221      D60F0E
 222 0141 F1353682 		.ascii	"\36156\202\220n&\025\025\372\211)\311\36199)z\311\014"
 222      906E2615 
 222      15FA8929 
 222      C9F13939 
 222      297AC90C 
 223 0155 00F3CC89 		.ascii	"\000\363\314\211\370"
 223      F8
 224              		.text
 225              		.section	.gnu.lto_adc_lld_start.e13d0e97d2d542a7,"",%progbits
 226 0000 789C6362 		.ascii	"x\234cb`b@\007\206@\374\016\210\335\200\230\221\225"
 226      60624007 
 226      8640FC0E 
 226      88DD8098 
 226      9195
 227 0012 819169C2 		.ascii	"\201\221i\3029\006\206F\016&&\346c\262\014\015\\,\247"
 227      39068646 
 227      0E2626E6 
 227      63B20C0D 
 227      5C2CA7
 228 0025 0C181A78 		.ascii	"\014\030\032x\230\031Y@\302\214,\214\214 \232\201\221"
 228      98195940 
 228      C28C2C8C 
 228      8C209A81 
 228      91
 229 0036 A19E8999 		.ascii	"\241\236\211\231\205\261>\222\021l\306z\246\003\017"
 229      85B13E92 
 229      116CC67A 
 229      A6030F
 230 0045 FEFF5FF7 		.ascii	"\376\377_\367\357\334\262;\214\247\230\330\230\030s"
 230      EFDCB23B 
 230      8CA798D8 
 230      981873
ARM GAS  /tmp/ccdzPRNH.s 			page 18


 231 0054 19199819 		.ascii	"\031\031\230\0312\301\222\254\014-\015\015\023\024\030"
 231      32C192AC 
 231      0C2D0D0D 
 231      131418
 232 0063 1892C1DC 		.ascii	"\030\222\301\334\020 \0112\"\224\221\011D3\237eh\272"
 232      10200932 
 232      22949109 
 232      44339F65 
 232      68BA
 233 0075 75E3D34D 		.ascii	"u\343\323M\306D\306\205@\333\323\031\231\265\031\264"
 233      C644C685 
 233      40DBD319 
 233      99B519B4 
 234 0085 32191967 		.ascii	"2\031\031g3\314b\314ddJgd\212\000\322\314`[\222\030"
 234      33CC62CC 
 234      64644A67 
 234      648A00D2 
 234      CC605B92 
 235 009a 616E3EC1 		.ascii	"an>\301p\344y#/\\\013H\011##\222\237B\201:\216\3112"
 235      70E47923 
 235      2F5C0B48 
 235      09232392 
 235      9F42813A 
 236 00b1 9F6768E1 		.ascii	"\237gh\341\200(b`\250f\370\325\320\321 \220\311\310"
 236      80286260 
 236      A866F8D5 
 236      D0D12090 
 236      C9C8
 237 00c3 920C550A 		.ascii	"\222\014U\0124;\023,\005\326\300\002v\315E\206\306\007"
 237      343B132C 
 237      05D6C002 
 237      76CD4586 
 237      C607
 238 00d5 6B35617A 		.ascii	"k5az  \004\250\036(\007\0129\027\375\214\374\334T\375"
 238      202004A8 
 238      1E28070A 
 238      3917FD8C 
 238      FCDC54FD 
 239 00e9 E4FC944A 		.ascii	"\344\374\224J\375\224\3242\375\344\214\314\244\314\374"
 239      FD94D432 
 239      FDE48CCC 
 239      A4CCFC
 240 00f8 62FD92A2 		.ascii	"b\375\222\242\322\274l} ##1G\277 \277\250\244X?8\304"
 240      D2BC6C7D 
 240      20232331 
 240      47BF20BF 
 240      A8A4583F 
 241 010e D7D80842 		.ascii	"\327\330\010B\272\231TT\350'\246$\307\347\344\244\350"
 241      BA995454 
 241      E827A624 
 241      C7E7E4A4 
 241      E8
 242 011f 25330000 		.ascii	"%3\000\000\344~Q\215"
 242      E47E518D 
 243              		.text
 244              		.section	.gnu.lto_adc_lld_stop.e13d0e97d2d542a7,"",%progbits
 245 0000 789C8D91 		.ascii	"x\234\215\221\277K\034A\024\307\277of\367rz\006\375"
ARM GAS  /tmp/ccdzPRNH.s 			page 19


 245      BF4B1C41 
 245      14C7BF6F 
 245      66F7727A 
 245      06FD
 246 0012 13D246D1 		.ascii	"\023\322F\321\201\030\2602\244\010\327YyB\254\344\334"
 246      8118B032 
 246      A408D759 
 246      7942ACE4 
 246      DC
 247 0023 93BB2177 		.ascii	"\223\273!w^\360\027\206\024\316\352\025\226\2076b\010"
 247      5EF01786 
 247      14CEEA15 
 247      96873662 
 247      08
 248 0034 218D8585 		.ascii	"!\215\205\205\302\331X\252\210\310\201\212\235H\012"
 248      C2D958AA 
 248      88C8818A 
 248      9D480A
 249 0043 49130858 		.ascii	"I\023\010X\331\210\010\372f\367\346\360G\212\014\354"
 249      D98808FA 
 249      66F7E6F0 
 249      478A0CEC 
 250 0053 7B3B33EF 		.ascii	"{;3\357\363}?F@\340\351z\317_\037\037\247\331S\002$"
 250      F37D3F46 
 250      40E0E97A 
 250      CF5F1F1F 
 250      A7D95302 
 251 0068 AAC74098 		.ascii	"\252\307@\230\024B\036\264\303\264\372\365w0mRxW\035"
 251      14421EB4 
 251      C3B4FAF5 
 251      77306D52 
 251      78571D
 252 007b 76F7BD9F 		.ascii	"v\367\275\237w\036\3716\210|\"\353A\230\023\322\363"
 252      771EF936 
 252      887C22EB 
 252      419813D2 
 252      F3
 253 008c 696E9822 		.ascii	"in\230\"\311M\261sqw\267q\273\264\366\213\216EJP\211"
 253      C94DB173 
 253      7177B771 
 253      BBB4F68B 
 253      8E454A50 
 254 00a1 20A1091E 		.ascii	" \241\011\036\033\316\241\311\226\341\243bL\365\025"
 254      1BCEA1C9 
 254      96E1A362 
 254      4CF515
 255 00b0 10445486 		.ascii	"\020DT\206\255U\033\342K\366\362\010\363\347\333\265"
 255      AD551BE2 
 255      4BF6F208 
 255      F3E7DBB5 
 256 00c0 73CAD24F 		.ascii	"s\312\322O\362\221'\331\205NM\362\033VI\223\227'\361"
 256      F29127D9 
 256      854E4DF2 
 256      1B564993 
 256      9727F1
 257 00d3 91BD1FE5 		.ascii	"\221\275\037\345\033%\327\314!\366\377\204/\233\210"
 257      1B25D7CC 
ARM GAS  /tmp/ccdzPRNH.s 			page 20


 257      21F6FF84 
 257      2F9B88
 258 00e2 0D910F5B 		.ascii	"\015\221\017[\036\"\211\203\366H\373\254\366W\270@/"
 258      1E228983 
 258      F648FBAC 
 258      F657B840 
 258      2F
 259 00f3 D226D60E 		.ascii	"\322&\326\016\2151\323\317\365]\202\023Tv\272c\012\370"
 259      8D31D3CF 
 259      F55D8213 
 259      5476BA63 
 259      0AF8
 260 0105 8A1BB368 		.ascii	"\212\033\263h:4%\202F\000+iz\001X\375\353Z\275Y{\"\322"
 260      3A342582 
 260      46002B69 
 260      7A0158FD 
 260      EB5ABD59 
 261 011c 17FFAEDD 		.ascii	"\027\377\256\335\325w\204\275\355j*F\272\260n*\241\351"
 261      D57784BD 
 261      ED6A2A46 
 261      BAB06E2A 
 261      A1E9
 262 012e D7948CA1 		.ascii	"\327\224\214\241\026\026\261\220h@2\362\366$\351\330"
 262      1616B190 
 262      684032F2 
 262      F624E9D8 
 263 013e 95ADDFE2 		.ascii	"\225\255\337\342?i\3571m\247\266\373c\271\315\225+\342"
 263      3F69EF31 
 263      6DA7B6FB 
 263      63B9CD95 
 263      2BE2
 264 0150 CE4C2F17 		.ascii	"\316L/\027Yj\366\356&\350aC\312\023,$\237\315\2415h"
 264      596AF6EE 
 264      26E86143 
 264      CA132C24 
 264      9FCDA135 
 265 0165 64D09472 		.ascii	"d\320\224r\321~\364\230\247\010/._; ^\031V\346;K|P\205"
 265      D17EF498 
 265      A7082F2E 
 265      5F3B205E 
 265      1956E63B 
 266 017d 72694C05 		.ascii	"riL\005\345\334\027\225\033\233QAA\217\352\362\244\232"
 266      E5DC1795 
 266      1B9B5141 
 266      418FEAF2 
 266      A49A
 267 018f 9A981EFF 		.ascii	"\232\230\036\377\244\370\247\220-\252\317\345\211\251"
 267      A4F8A790 
 267      2DAACFE5 
 267      89A9
 268 019d 49359819 		.ascii	"I5\230\031\350}\023\333\364\333\331Y\225\315\005#\305"
 268      E87D13DB 
 268      F4DBD959 
 268      95CD0523 
 268      C5
 269 01ae 62AE27C0 		.ascii	"b\256'\300=\204\343\226\321"
 269      3D84E396 
ARM GAS  /tmp/ccdzPRNH.s 			page 21


 269      D1
 270              		.text
 271              		.section	.gnu.lto_adc_lld_start_conversion.e13d0e97d2d542a7,"",%progbits
 272 0000 789C9D95 		.ascii	"x\234\235\225Kh\\U\030\307\317w\356c\356\274\322y4\211"
 272      4B685C55 
 272      18C7CF77 
 272      EE63EEBC 
 272      D2793489 
 273 0014 699A2669 		.ascii	"i\232&ih\332<\350\305\307\246Bw\242\010\012\202\011"
 273      68DA3CE8 
 273      C5C7A642 
 273      77A2080A 
 273      8209
 274 0026 A81B99CE 		.ascii	"\250\033\231\316\204dh\342\304\264J]\365Nf\026A\\DW"
 274      846468E2 
 274      C4B44A5D 
 274      F54E6616 
 274      415C4457 
 275 003a F181368A 		.ascii	"\361\2016\212 \265*\301\205)\006\032\202\013Ki\241R"
 275      20B52AC1 
 275      8529061A 
 275      820B4B69 
 275      A152
 276 004c A40D2E42 		.ascii	"\244\015.B\202F\322\322@W]\210\343\367\335\363\230\031"
 276      8246D2D2 
 276      40575D88 
 276      E3F7DDF3 
 276      9819
 277 005e BD4E9A1C 		.ascii	"\275N\232\034\270\337y\334\363\377~\337w\316\275\347"
 277      B8DF79DC 
 277      F3FF7EDF 
 277      77CEBDE7 
 278 006e 70C6D9BF 		.ascii	"p\306\331\277K\016\237;a\306^\302\032\302\014\370\354"
 278      4B0E9F3B 
 278      61C65EC2 
 278      1AC20CF8 
 278      EC
 279 007f 0DC68A0E 		.ascii	"\015\306\212\016\347\306\314Q\346E,\2621\203\233\345"
 279      E7C6CC51 
 279      E6452CB2 
 279      31839BE5 
 280 008f 13D47BAF 		.ascii	"\023\324{\257\031{&Xb\222\305\355\245C8\034\272\345"
 280      197B2658 
 280      6292C5ED 
 280      A543381C 
 280      BAE5
 281 00a1 E2B00D8E 		.ascii	"\342\260\015\216\030\016\251\206\003@\015\006\354<7"
 281      180EA986 
 281      03400D06 
 281      EC3C37
 282 00b0 4CCB0E39 		.ascii	"L\313\0169p\376U *?\314\346=\357\203\265\337\257\254"
 282      70FE5520 
 282      2A3FCCE6 
 282      3DEF83B5 
 282      DFAFAC
 283 00c3 C387DE72 		.ascii	"\303\207\336r\371\202\367W\245\002\220\007\214\3609"
 283      F982F757 
ARM GAS  /tmp/ccdzPRNH.s 			page 22


 283      A5029007 
 283      8CF039
 284 00d2 605960AF 		.ascii	"`Y`\257`\007\272\374\212\233\365!\013\355\362\373\277"
 284      6007BAFC 
 284      8A9BF521 
 284      0BEDF2FB 
 284      BF
 285 00e3 7EDAE65D 		.ascii	"~\332\346]\230\236\365\376Fi\036\014\316^\330I\371\035"
 285      989EF5FE 
 285      46691E0C 
 285      CE5ED849 
 285      F91D
 286 00f5 5F5EAB54 		.ascii	"_^\253T\356}6\277q\015\232\217\003\313\300<\034f&L\000"
 286      EE7D36BF 
 286      710D9A8F 
 286      03CBC03C 
 286      1C66264C 
 287 010a B3B0F305 		.ascii	"\263\260\363\005vl9\030by0\035\331\011c\307\212\310"
 287      766C3918 
 287      6279301D 
 287      D90963C7 
 287      8AC8
 288 011c 4E143B76 		.ascii	"N\024;v\014M(\216\306iB\023N\240\211$\251\225\242\251"
 288      0C4D288E 
 288      C6694213 
 288      4EA08924 
 288      A995A2A9 
 289 0130 696AB590 		.ascii	"ij\265\220i%\323\206&\332N\255\0162\235d\272\311\364"
 289      6925D386 
 289      26DA4EAD 
 289      0E329D64 
 289      BAC9F4
 290 0143 903942A6 		.ascii	"\2209B\246\227\31412}d\372\311\014\222\301\250-V\366"
 290      97CC3132 
 290      7D64FAC9 
 290      0C92C1A8 
 290      2D56F6
 291 0156 BCD92E41 		.ascii	"\274\331.A\027Q2J\024\313\020ZZ\342a\340T\033\327\331"
 291      1751324A 
 291      14CB105A 
 291      5AE261E0 
 291      541BD7D9 
 292 016a F4EADCFA 		.ascii	"\364\352\334\372\226\221\201/\301b\243`\015\260\213"
 292      9691812F 
 292      C162A360 
 292      0DB08B
 293 0179 1E96055A 		.ascii	"\036\226\005Z\240\217\331GX\305F\301\244\265\211\373"
 293      A08FD947 
 293      58C546C1 
 293      A4B589FB 
 294 0189 2B720AD4 		.ascii	"+r\012\324\332\220\364\341\372\012(\251-\245'qS\202"
 294      DA90F4E1 
 294      FA0A28A9 
 294      2DA52771 
 294      5382
 295 019b 9550A39C 		.ascii	"\225P\243\234\333X\325\312\020)\023yh\022\262}\030\006"
 295      DB58D5CA 
ARM GAS  /tmp/ccdzPRNH.s 			page 23


 295      10291379 
 295      6812B27D 
 295      1806
 296 01ad C90C2953 		.ascii	"\311\014)S\337\340\317\254|\257\030\327\"\232R\267]"
 296      DFE0CFAC 
 296      7CAF18D7 
 296      229A52B7 
 296      5D
 297 01be C3A89839 		.ascii	"\303\250\2309\212)\225.\227~\270t@Mt04\232\033\366\270"
 297      8A29952E 
 297      977EB874 
 297      404D7430 
 297      349A1BF6 
 298 01d3 64DFDED8 		.ascii	"d\337\336\330\322\354\360\000\353\317C\"8`C\223\177"
 298      D2ECF000 
 298      EBCF4322 
 298      38604393 
 298      7F
 299 01e4 FAA3F8B8 		.ascii	"\372\243\370\270\226\320\224\004\324\221M\266rP\220"
 299      96D09404 
 299      D4914DB6 
 299      725090
 300 01f3 372F1D54 		.ascii	"7/\035T\023#\212<\303\365D\253\272\354\233:\304\250"
 300      13238A3C 
 300      C3F544AB 
 300      BAEC9B3A 
 300      C4A8
 301 0205 1F841D1C 		.ascii	"\037\204\035\034\204\312\0215\257)AL\256XRHR\350\202"
 301      84CA1135 
 301      AF29414C 
 301      AE585248 
 301      52E882
 302 0218 24B69458 		.ascii	"$\266\224X\001\222\270\317p\202\031vUp_\177\013M\243"
 302      0192B8CF 
 302      70821976 
 302      55705F7F 
 302      0B4DA3
 303 022b F4FE3A5B 		.ascii	"\364\376:[y^\214\020\263\214\242\264\360\261\037\303"
 303      795E8C10 
 303      B38CA2B4 
 303      F0B11FC3 
 304 023b 201F49E9 		.ascii	" \037I\351#\344\327(\023\213\374\325&W\216\0222\332"
 304      23E4D728 
 304      138BFCD5 
 304      26578E12 
 304      32DA
 305 024d E6E0FD75 		.ascii	"\346\340\375u\202\340I\224\325'\220z\224\235\302-xW"
 305      82E04994 
 305      D527907A 
 305      949DC22D 
 305      7857
 306 025f FB48FB6E 		.ascii	"\373H\373nR\273\310!,sH\373\232\253\177\252\034v\220"
 306      52BBC821 
 306      2C7348FB 
 306      9AAB7FAA 
 306      1C7690
 307 0272 45A40C7C 		.ascii	"E\244\014|\331\352\314\226N\275\305W\026\023;H\375\300"
ARM GAS  /tmp/ccdzPRNH.s 			page 24


 307      D9EACC96 
 307      4EBDC557 
 307      16133B48 
 307      FDC0
 308 0284 2FEBC05B 		.ascii	"/\353\300[Q\350\1778\300\376\023\374\216\276P.\177\316"
 308      51E87F38 
 308      C0FE13FC 
 308      8EBE502E 
 308      7FCE
 309 0296 ADA795C3 		.ascii	"\255\247\225\3036\177\355\242\301k\027\325!\254,\316"
 309      367FEDA2 
 309      C16B17D5 
 309      21AC2CCE 
 310 02a6 466B51DE 		.ascii	"FkQ\336\011\315jA'$\212JQ\314\257i$-\367nu\356\356/"
 310      09CD6A41 
 310      27248A4A 
 310      51CCAF69 
 310      242DF76E 
 311 02be 3A8376B9 		.ascii	":\203v\271\345\255\301[\036\257\"\257>2\262I\246\327"
 311      E5ADC15B 
 311      1EAF22AF 
 311      3E32B249 
 311      A6D7
 312 02d0 2E708B35 		.ascii	".p\2135\270\216\306\270}{\301%$\256C\036\0325\270\316"
 312      B88EC6B8 
 312      7D7BC125 
 312      24AE431E 
 312      1A35B8CE 
 313 02e4 C6B8E45E 		.ascii	"\306\270\344^p)\211\353\224\233W\203\353n\214K\357\005"
 313      702989EB 
 313      949B5783 
 313      EB6E8C4B 
 313      EF05
 314 02f6 B75FE2BA 		.ascii	"\267_\342\272\345\336\335\257\342z\032\343\232\367\202"
 314      E5DEDDAF 
 314      E27A1AE3 
 314      9AF782
 315 0305 6B91B81E 		.ascii	"k\221\270\036\211\333\256\342\2164\306\265\326\374 "
 315      89DBAEE2 
 315      8E34C6B5 
 315      D6FC20
 316 0314 A5CFB5AA 		.ascii	"\245\317\265\252\027\205\342T\237\366\272v\033\315c"
 316      1785E254 
 316      9FF6BA76 
 316      1BCD63
 317 0323 329A5E79 		.ascii	"2\232^yTm\353\377\365X\343`\332\252\301\374X\272\250"
 317      546DEBFF 
 317      F558E360 
 317      DAAAC1FC 
 317      58BAA8
 318 0336 2F913E14 		.ascii	"/\221>\024\212`\260\320y]\177U\365\371\357\230.w\030"
 318      8A60B0D0 
 318      795D7F55 
 318      F5F9EF98 
 318      2E7718
 319 0349 E0CDC097 		.ascii	"\340\315\300\227\0262x;\031\277-\344\361\2520?\371\376"
 319      1632783B 
ARM GAS  /tmp/ccdzPRNH.s 			page 25


 319      19BF2DE4 
 319      F1AA303F 
 319      F9FE
 320 035b 4DBA1F6C 		.ascii	"M\272\037l\266tH\\$\225o\306\224\203~\345\277d\313T"
 320      B674485C 
 320      24956FC6 
 320      94837EE5 
 320      BF64CB54 
 321 036f 6F6FAFF3 		.ascii	"oo\257\363\272dO\376o\262\007d\262\375\002>\214\007"
 321      BA644FFE 
 321      6FB20764 
 321      B2FD023E 
 321      8C07
 322 0381 F52D5720 		.ascii	"\365-W \276\376V#\006\025\242\250\020\213\017v\215\030"
 322      BEFE5623 
 322      0615A2A8 
 322      108B0F76 
 322      8D18
 323 0393 5408C7BF 		.ascii	"T\010\307\277\345n\262\342\332\265\001\341C\225!<$\361"
 323      E56EB2E2 
 323      DAB501E1 
 323      4395213C 
 323      24F1
 324 03a5 1D5D88CF 		.ascii	"\035]\210\317\270c\205\211\0217[\310\275\343\346F\336"
 324      B8638589 
 324      11375BC8 
 324      BDE3E646 
 324      DE
 325 03b6 76B363F9 		.ascii	"v\263c\371S\371\302\031\367\354\324[o\234v\2611\226"
 325      53F9C219 
 325      F7ECD45B 
 325      6F9C76B1 
 325      3196
 326 03c8 1977270B 		.ascii	"\031w'\013Sg\317\270/\017\275\370\344\023\302>\373\324"
 326      5367CFB8 
 326      2F0FBDF8 
 326      E413C23E 
 326      FBD4
 327 03da B9736E26 		.ascii	"\271sn&\227}}|<w<\313\314\211Bn\304\034\235\232\234"
 327      977D7D7C 
 327      3C773CCB 
 327      CC89426E 
 327      C41C9D9A 
 328 03ef FC075875 		.ascii	"\374\007Xu)\353"
 328      29EB
 329              		.text
 330              		.section	.gnu.lto_adc_lld_stop_conversion.e13d0e97d2d542a7,"",%progbits
 331 0000 789C9D92 		.ascii	"x\234\235\2221L\023Q\030\307\277\357\275{\327\366\256"
 331      314C1351 
 331      18C7BFEF 
 331      BD7BD7F6 
 331      AE
 332 0011 2D1D989C 		.ascii	"-\035\230\234\234i\342K\224E\242\203\211!qp\242M\224"
 332      9C69E24B 
 332      9445A283 
 332      89217170 
 332      A24D94
ARM GAS  /tmp/ccdzPRNH.s 			page 26


 333 0024 85942B69 		.ascii	"\205\224+i/\026j\000\015L\\\241\243\003\243\321\211"
 333      2F166A00 
 333      0D4C5CA1 
 333      A303A3D1 
 333      89
 334 0035 95A8AC4D 		.ascii	"\225\250\254M\\\010\013,\032u\3210\030fCX1.\365\373"
 334      5C080B2C 
 334      1A75D130 
 334      18664358 
 334      312EF5FB 
 335 0049 DEBBBB36 		.ascii	"\336\273\2736\320\001\270\344\376\337\345\373\356\367"
 335      D001B8E4 
 335      FEDFE5FB 
 335      EEF7
 336 0057 BDEFFDDF 		.ascii	"\275\357\375\337\023 \340\342\363\200\336\003\0110M"
 336      1320E0E2 
 336      F380DE03 
 336      09304D
 337 0066 115D40B1 		.ascii	"\021]@\261\375\025\240\223\025(\355\207\024\352\315"
 337      FD15A093 
 337      1528ED87 
 337      14EACD
 338 0075 2140E439 		.ascii	"!@\3449\335\014Dye\363\217\034D\216\200\260!\244rp\343"
 338      DD0C4479 
 338      65F38F1C 
 338      448E80B0 
 338      21A47270 
 339 008a 399A767B 		.ascii	"9\232v{b\377\244\337\377\324\373\271\367\001\177\213"
 339      62FFA4DF 
 339      FFD4FBB9 
 339      F7017F8B 
 340 009a 71818B08 		.ascii	"q\201\213\010\022B\004\207\004\025\211pY\262,9\026\217"
 340      12420487 
 340      04158970 
 340      59B22C39 
 340      168F
 341 00ac 44FA244E 		.ascii	"D\372$N\236D\025X\212\\(\221\270\324RA7\212\266o\003"
 341      9E441558 
 341      8A5C2891 
 341      B8D45241 
 341      378AB66F 
 342 00c1 0466890A 		.ascii	"\004f\211\012)\215REAA~\201\315\343_\347\267j\270C\315"
 342      298D5245 
 342      41417E81 
 342      CDE35FE7 
 342      B76AB843 
 343 00d6 1B28CB30 		.ascii	"\033(\3130A\213\275\207w\030b\246\201\342\031\305\254"
 343      418BBD87 
 343      771862A6 
 343      81E219C5 
 343      AC
 344 00e7 996C1E93 		.ascii	"\231l\036\223-\0233\233\000N\031v\243R\2109\213x\324"
 344      2D13339B 
 344      004E1976 
 344      A3528839 
 344      8B78D4
 345 00fa 82118811 		.ascii	"\202\021\210\021L\221\203\024Q\214t;\004\371\026\312"
ARM GAS  /tmp/ccdzPRNH.s 			page 27


 345      4C918314 
 345      518C743B 
 345      04F916CA 
 346 010a 531B8672 		.ascii	"S\033\206r1$Rh\353\263L(\227@\376I\220=\3751\333\362"
 346      31245268 
 346      EBB34C28 
 346      9740FE49 
 346      903DFD31 
 347 0120 892D5EAD 		.ascii	"\211-^\255_\303\230AO\025%\220\367rx\246\254\351\201"
 347      5FC39841 
 347      4F152590 
 347      F77278A6 
 347      ACE981
 348 0133 D71B2947 		.ascii	"\327\033)G\234\031\211wy\004\335SL+&=|M*\224\247{\200"
 348      9C198977 
 348      7904DD53 
 348      4C2B263D 
 348      7C4D2A94 
 349 014a 557462DB 		.ascii	"Utb\333\323\265\275\330\302\302h\013\345\010\327\375"
 349      D3B5BDD8 
 349      C2C2680B 
 349      E508D7FD 
 350 015a 18298E46 		.ascii	"\030)\216F\234\001r\226NK[\362\315\006>\246\251\002"
 350      9C017296 
 350      4E4B5BF2 
 350      CD063EA6 
 350      A902
 351 016c 43EA2117 		.ascii	"C\352!\027/\374\\\244\342\260\305\264N\307\330C\343"
 351      2FFC5CA4 
 351      E2B0C5B4 
 351      4EC7D843 
 351      E3
 352 017d 3254882D 		.ascii	"2T\210--\032\356\370\357\371TB\226\314\015rG\337 5\270"
 352      2D1AEEF8 
 352      EFF95442 
 352      96CC0D72 
 352      47DF2035 
 353 0192 0EBD6FDE 		.ascii	"\016\275o\336\360\351E\367S\357\307\250\011Cn\014\331"
 353      F0E945F7 
 353      53EFC7A8 
 353      09436E0C 
 353      D9
 354 01a3 C8193F61 		.ascii	"\310\031?a\337\376\373!\256Hg.\323\275\233\320\346\220"
 354      DFFEFB21 
 354      AE48672E 
 354      D3BD9BD0 
 354      E690
 355 01b5 BF43E7E4 		.ascii	"\277C\347\344O\331\262\203\223E:Q>\354\307\272\331^"
 355      4FD9B283 
 355      93453A51 
 355      3EECC7BA 
 355      D95E
 356 01c7 5CD041BB 		.ascii	"\\\320A\273\276\256\353\013\257u\320\014\347\303\366"
 356      BEAEEB0B 
 356      AF75D00C 
 356      E7C3F6
 357 01d6 8A5E5D7E 		.ascii	"\212^]~\265\364B\323G\263\326\322/\333\313\253+z\246"
ARM GAS  /tmp/ccdzPRNH.s 			page 28


 357      B5F442D3 
 357      47B3D6D2 
 357      2FDBCBAB 
 357      2B7AA6
 358 01e9 F2F4DE5D 		.ascii	"\362\364\336]\253\323\223kk\272V\017\346Z\255\372\235"
 358      ABD3936B 
 358      6BBA560F 
 358      E65AADFA 
 358      9D
 359 01fa 00FE039B 		.ascii	"\000\376\003\2335\326S"
 359      35D653
 360              		.text
 361              		.section	.gnu.lto_Vector88.e13d0e97d2d542a7,"",%progbits
 362 0000 789CA554 		.ascii	"x\234\245TMh\023A\024~ov\263\331\244\215\211U[\177\333"
 362      4D681341 
 362      147E6F76 
 362      B3D9A48D 
 362      89555B7F 
 363 0015 28F462C5 		.ascii	"(\364b\305\365\017\251\007AP\024\017\275\330\212? %"
 363      F50FA907 
 363      4150140F 
 363      BDD88A3F 
 363      2025
 364 0027 D904BB98 		.ascii	"\331\004\273\23045i\245\342\241\2336\202RE\361T\253"
 364      343569A5 
 364      E2A19B36 
 364      825245F1 
 364      54AB
 365 0039 A22282E8 		.ascii	"\242\"\202\350A\361$VJ\251\202\025i\203\322SO\221\""
 365      41F12456 
 365      4AA98215 
 365      6983D253 
 365      4F9122
 366 004c 5E3C5450 		.ascii	"^<TP\024-\3067\3733&z0\352\300\276\231\267\363\336\367"
 366      142DC637 
 366      FB33267A 
 366      30EAC0BE 
 366      99B7F3DE 
 367 0061 BEEFCDEE 		.ascii	"\276\357\315\3560`\360\353\350\245\347\210\0020C3\372"
 367      3060F0EB 
 367      E8A5E788 
 367      02304333 
 367      FA
 368 0072 01D9C529 		.ascii	"\001\331\305)\200\254\312\2304\255\201\351\367=\251"
 368      80ACCA98 
 368      34AD81E9 
 368      F73DA9
 369 0081 07B35A62 		.ascii	"\007\263Zbr\211'3\317\225\355\334\373\024\"\317\303"
 369      72892733 
 369      CF95EDDC 
 369      FB1422CF 
 369      C3
 370 0092 94E75BC9 		.ascii	"\224\347[\311S_\324\221\2470\357\334\022\356\335h&\317"
 370      535FD491 
 370      A730EFDC 
 370      12EEDD68 
 370      26CF
ARM GAS  /tmp/ccdzPRNH.s 			page 29


 371 00a4 8BAA0DA7 		.ascii	"\213\252\015\247\242\317^\370\020\371\002\020\372\230"
 371      A2CF5EF8 
 371      10F90210 
 371      FA98
 372 00b2 247B142F 		.ascii	"${\024/\275\351;\204\234\011\256\201\233\246y\251\360"
 372      BDE93B84 
 372      9C09AE81 
 372      9BA679A9 
 372      F0
 373 00c3 F673012F 		.ascii	"\366s\001/\233c\271\033\346|\261\210h \261\336\203\240"
 373      9B63B91B 
 373      E67CB188 
 373      6820B1DE 
 373      83A0
 374 00d5 231C2407 		.ascii	"#\034$\007\303\326\304\344r\031\367\331X\241X|?2\367"
 374      C3D6C4E4 
 374      7219F7D9 
 374      58A1587C 
 374      3F32F7
 375 00e8 66146B96 		.ascii	"f\024k\226\313\020\301\233\204\247\200\201\222\227\214"
 375      CB10C19B 
 375      84A78081 
 375      92978C
 376 00f7 AC92F1F8 		.ascii	"\254\222\361\370\270\353'\243Ts\023 \343\015\221Q\011"
 376      B8EB27A3 
 376      54731320 
 376      E30D9151 
 376      09
 377 0108 C00339D3 		.ascii	"\300\0039\323\274\030\266\363\200W\243\321F\226\323"
 377      BC18B6F3 
 377      8057A3D1 
 377      4696D3
 378 0117 DD8F8CCF 		.ascii	"\335\217\214\317\322$\214\317\014}\333\020\301[\350"
 378      D2248CCF 
 378      0C7DDB10 
 378      C15BE8
 379 0126 81A32837 		.ascii	"\201\243(7\301]3\2275\267\031\350\273\002\303D\313\317"
 379      C15D3397 
 379      35B719E8 
 379      BB02C344 
 379      CBCF
 380 0138 B9551179 		.ascii	"\271U\021yS\266hVY\344\242\350\322$\200GwN\331\371N"
 380      53B66856 
 380      59E4A2E8 
 380      D2248047 
 380      774ED9F9 
 381 014d 72B0C264 		.ascii	"r\260\302d\376\306gc\014\214\014\314^X\341\262P\210"
 381      FEC66763 
 381      0C8C0CCC 
 381      5E58E1B2 
 381      5088
 382 015f 08DF94C2 		.ascii	"\010\337\224\302\2649\001\271\367\331\200\330\262\336"
 382      B43901B9 
 382      F7D980D8 
 382      B2DE
 383 016d 97F6693F 		.ascii	"\227\366i?\271\323\032\011\351\237y\020t\303\274M\260"
 383      B9D31A09 
ARM GAS  /tmp/ccdzPRNH.s 			page 30


 383      E99F7910 
 383      74C3BC4D 
 383      B0
 384 017e 967A442C 		.ascii	"\226zD,\262\246\0312\260\372\024|5\317\360U \211n\355"
 384      B2A61932 
 384      B0FA147C 
 384      35CFF055 
 384      20896EED 
 385 0192 80C30685 		.ascii	"\200\303\006\205\224\376\303.\200\312\265P\370\002["
 385      94FEC32E 
 385      80CAB550 
 385      F8025B
 386 01a1 48902079 		.ascii	"H\220 y\212\354\2440\2212.R|\226|\024\342C\204\302s"
 386      8AECA430 
 386      91322E52 
 386      7C967C14 
 386      E24384C2 
 387 01b6 1638392E 		.ascii	"\02689.kKPFd\361\220\205\345\202d8\273\312\022\364\345"
 387      6B4B5046 
 387      64F19085 
 387      E5826438 
 387      BBCA12F4 
 388 01cb FB1CBA81 		.ascii	"\373\034\272\201~K\222R\231$\271\264\326F\001\301C\224"
 388      7E4B9252 
 388      9924B9B4 
 388      D64601C1 
 388      4394
 389 01dd F25A1E98 		.ascii	"\362Z\036\230\255\225\362\220+\314\317:\245\000\004"
 389      AD95F290 
 389      2BCCCF3A 
 389      A50004
 390 01ec 728DEE34 		.ascii	"r\215\3564\207\277Q\355JN\220\201\213\312;V\375/\374"
 390      87BF51ED 
 390      4A4E9081 
 390      8BCA3B56 
 390      FD2FFC
 391 01ff 4A01024E 		.ascii	"J\001\002N\313\027\333\355[B\220?\371F-b\256$\321\224"
 391      CB17DBED 
 391      5B42903F 
 391      F9462D62 
 391      AE24D194 
 392 0213 008FA82D 		.ascii	"\000\217\250-W\244\300\307 \357^\263\373Q\022\255\272"
 392      57A4C0C7 
 392      20EF5EB3 
 392      FB5112AD 
 392      BA
 393 0224 CA6829E2 		.ascii	"\312h)\342\273\254\343\345\362\340q[r\224\307\374\336"
 393      BBACE3E5 
 393      F2E0715B 
 393      7294C7FC 
 393      DE
 394 0235 051EBA14 		.ascii	"\005\036\272\024\251\031\313\312\265\204\376\276*W\366"
 394      A919CBCA 
 394      B584FEBE 
 394      2A57F6
 395 0244 EC9D5016 		.ascii	"\354\235P\026\022,~*\363\302c\371\377\2251\201\247\362"
 395      122C7E2A 
ARM GAS  /tmp/ccdzPRNH.s 			page 31


 395      F3C263F9 
 395      FF953181 
 395      A7F2
 396 0256 B3FF05EF 		.ascii	"\263\377\005\357\257\016P\234\317\024\364\177\030~\372"
 396      AF0E509C 
 396      CF14F47F 
 396      187EFA
 397 0265 F09CE45C 		.ascii	"\360\234\344\\:\3406\210\337\213\010\203\364\361SY\311"
 397      3AE03688 
 397      DF8B0883 
 397      F4F15359 
 397      C9
 398 0276 BEADEBE1 		.ascii	"\276\255\353\341*^3\207v\030\270\334\005\2010_\211\375"
 398      2A5E3387 
 398      7618B8DC 
 398      0581305F 
 398      89FD
 399 0288 EBCEFE0A 		.ascii	"\353\316\376\012\233i\036N\317\345o\337;\337 \320\355"
 399      9B691E4E 
 399      CFE56FDF 
 399      3BDF20D0 
 399      ED
 400 0299 C5D8E0F7 		.ascii	"\305\330\340\367\343n%\335\375'\005\353\225:J\021\234"
 400      E36E25DD 
 400      FD2705EB 
 400      953A4A11 
 400      9C
 401 02aa B4593847 		.ascii	"\264Y8G\267\312\322XOz\242\324M>J\016\262\241\350\016"
 401      B7CAD258 
 401      4F7AA2D4 
 401      4D3E4A0E 
 401      B2A1E80E 
 402 02be EC33305C 		.ascii	"\35430\\\251\252\010N\320\302R\001%*\"\370\022\353K"
 402      A9AA084E 
 402      D0C25201 
 402      252A22F8 
 402      12EB4B
 403 02d1 4FCF675D 		.ascii	"O\317g]\270y\030x\360\372\300o\177\332j\335i\251\301"
 403      B8791878 
 403      F0FAC06F 
 403      7FDA6ADD 
 403      69A9C1
 404 02e4 2FEB5790 		.ascii	"/\353W\220-\2146\212b\326h\243_\221\0008\366.\255#\225"
 404      2D8C368A 
 404      62D668A3 
 404      5F910038 
 404      F62EAD23 
 405 02f9 8C6B7A2A 		.ascii	"\214kz*vR\213\305Ohz\207\0215R\031\255;\335\323yL\243"
 405      76528BC5 
 405      4F687A87 
 405      11355219 
 405      AD3BDDD3 
 406 0310 454724A1 		.ascii	"EG$\241u\245\322\335\031\255\265\255e\363&\333\356\336"
 406      75A5D2DD 
 406      19ADB5AD 
 406      65F326DB 
 406      EEDE
ARM GAS  /tmp/ccdzPRNH.s 			page 32


 407 0322 D2DBAB45 		.ascii	"\322\333\253Ebz{\"\021[\257\003\313\244w\374\011'\336"
 407      627A7B22 
 407      115BAF03 
 407      CBA477FC 
 407      0927DE
 408 0335 DBADED6C 		.ascii	"\333\255\355li\335\333\252\031\235z\242'\306c\323\361"
 408      69DDDBAA 
 408      199D7AA2 
 408      27C663D3 
 408      F1
 409 0346 763DB9BB 		.ascii	"v=\271\273\247S_\337\001\241\226\326}\341h$\023\357"
 409      A7535FDF 
 409      01A196D6 
 409      7DE16824 
 409      13EF
 410 0358 4A1BEBC2 		.ascii	"J\033\353\302\215\033\200\245\301\233\214'S\351\223"
 410      8D1B80A5 
 410      C19B8C27 
 410      53E993
 411 0367 B0B91292 		.ascii	"\260\271\022\222\251\014\231t\2675\023\336\017(B\247"
 411      A90C9974 
 411      B73513DE 
 411      0F2842A7 
 412 0377 37       		.ascii	"7"
 413              		.text
 414              		.section	.gnu.lto_adcSTM32EnableTSVREFE.e13d0e97d2d542a7,"",%progbits
 415 0000 789C6362 		.ascii	"x\234cb`b@\007\222@\374\033\210\335\200\230\221\231"
 415      60624007 
 415      9240FC1B 
 415      88DD8098 
 415      9199
 416 0012 819169C2 		.ascii	"\201\221i\3029\006\206F\016&FF\020\203\201\221\241\236"
 416      39068646 
 416      0E264646 
 416      10838191 
 416      A19E
 417 0024 89B13E92 		.ascii	"\211\261>\222\021\254v=\323\201\007\377\377\257\373"
 417      11AC763D 
 417      D38107FF 
 417      FFAFFB
 418 0033 327DE91D 		.ascii	"2}\351\035\306\373L\254L\014\231\214\014\314 \002\010"
 418      C6FB4CAC 
 418      4C0C998C 
 418      0CCC2002 
 418      08
 419 0044 58195A1A 		.ascii	"X\031Z\032\032&(00$\203\271!@\022d@(#\023\210f>\313"
 419      1A262830 
 419      302483B9 
 419      21401264 
 419      40282313 
 420 005c 70E8D68C 		.ascii	"p\350\326\214\377\217\030\023\031\0272\2622\24432i3"
 420      FF8F1813 
 420      191732B2 
 420      32A43332 
 420      6933
 421 006e AC6A6869 		.ascii	"\254jhi\024\310dd\234\3150\2131\223\221)\002H07\034"
 421      14C86464 
ARM GAS  /tmp/ccdzPRNH.s 			page 33


 421      9CCD308B 
 421      31939129 
 421      02483037 
 422 0083 6B696061 		.ascii	"ki`a\0003\3016&1\302\334y\226\241y'3L7s:D=CC\003P9H"
 422      0033C136 
 422      2631C2DC 
 422      7996A179 
 422      27334C37 
 423 00a1 F2902744 		.ascii	"\362\220'D\2164c\323A\374\213\014\215\017\376jC\264"
 423      8E3463D3 
 423      41FC8B0C 
 423      8D0FFE6A 
 423      43B4
 424 00b3 C3400823 		.ascii	"\303@\010##\310\331\240\340r\321\317\310\317M\325O\316"
 424      23C8D9A0 
 424      E072D1CF 
 424      C8CF4DD5 
 424      4FCE
 425 00c5 4FA9D44F 		.ascii	"O\251\324OI-\323O\316\310L\312\314/\326/)*\315\313\326"
 425      492DD34F 
 425      CEC84CCA 
 425      CC2FD62F 
 425      292ACDCB 
 426 00da 07323212 		.ascii	"\00722\022s\364\013\362\213J\212\365\203C|\215\215 "
 426      73F40BF2 
 426      8B4A8AF5 
 426      83437C8D 
 426      8D20
 427 00ec A49B4945 		.ascii	"\244\233IE\205~bJr|NN\212^2\003\000>\237T\345"
 427      857E624A 
 427      727C4E4E 
 427      8A5E3203 
 427      003E9F54 
 428              		.text
 429              		.section	.gnu.lto_adcSTM32DisableTSVREFE.e13d0e97d2d542a7,"",%progbits
 430 0000 789C6362 		.ascii	"x\234cb`b@\007\222@\374\007\210\335\200\230\221\231"
 430      60624007 
 430      9240FC07 
 430      88DD8098 
 430      9199
 431 0012 819169C2 		.ascii	"\201\221i\3029\006\206F\016&FF\020\203\201\221\241\236"
 431      39068646 
 431      0E264646 
 431      10838191 
 431      A19E
 432 0024 89B13E92 		.ascii	"\211\261>\222\021\254v=\323\201\007\377\377\257\233"
 432      11AC763D 
 432      D38107FF 
 432      FFAF9B
 433 0033 756B690F 		.ascii	"uki\017\343K&V&\206LF\006f\020\001\004\254\014-\015"
 433      E34B2656 
 433      26864C46 
 433      06661001 
 433      04AC0C2D 
 434 0048 0D131418 		.ascii	"\015\023\024\030\030\222\301\334\020 \0112 \224\221"
 434      1892C1DC 
 434      10200932 
ARM GAS  /tmp/ccdzPRNH.s 			page 34


 434      209491
 435 0057 0944339F 		.ascii	"\011D3\237e8t\353\307\342\307\214\211\214\013\031Y\031"
 435      653874EB 
 435      C7E2C78C 
 435      898C0B19 
 435      5919
 436 0069 D21999B4 		.ascii	"\322\031\231\264\031V5\2644\012d22\316f\230\305\230"
 436      195635B4 
 436      340A6432 
 436      32CE6698 
 436      C598
 437 007b C9C81401 		.ascii	"\311\310\024\001$\230\033\216\2654\2600\200\231`\033"
 437      24981B8E 
 437      B534B030 
 437      8099601B 
 438 008b 931861EE 		.ascii	"\223\030a\356<\313\320\274\233\031\246\2339\035\242"
 438      3CCBD0BC 
 438      9B19A69B 
 438      391DA2
 439 009a 9EE1FFFF 		.ascii	"\236\341\377\377\377\277\371\301\262\207<!\222\244\231"
 439      FFBFF9C1 
 439      B2873C21 
 439      92A499
 440 00a9 9B0EE25F 		.ascii	"\233\016\342_dh|0C\027\242\035\006B\030\031A\356\006"
 440      64687C30 
 440      4317A21D 
 440      06421819 
 440      41EE06
 441 00bc 85978B7E 		.ascii	"\205\227\213~F~n\252~r~J\245~Jj\231~rFfRf~\261~IQi^"
 441      467E6EAA 
 441      7E727E4A 
 441      A57E4A6A 
 441      997E7246 
 442 00da B63E9091 		.ascii	"\266>\220\221\221\230\243_\220_TR\254\037\034\342kl"
 442      9198A35F 
 442      905F5452 
 442      AC1F1CE2 
 442      6B6C
 443 00ec 0421DD4C 		.ascii	"\004!\335L**\364\023S\222\343srR\364\222\031\000\201"
 443      2A2AF413 
 443      5392E373 
 443      7252F492 
 443      190081
 444 00ff 3956B0   		.ascii	"9V\260"
 445              		.text
 446              		.section	.gnu.lto_adcSTM32EnableVBATE.e13d0e97d2d542a7,"",%progbits
 447 0000 789C6362 		.ascii	"x\234cb`b@\007\222@\374\033\210\335\200\230\221\231"
 447      60624007 
 447      9240FC1B 
 447      88DD8098 
 447      9199
 448 0012 819169C2 		.ascii	"\201\221i\3029\006\206F\016&FF\020\203\201\221\241\236"
 448      39068646 
 448      0E264646 
 448      10838191 
 448      A19E
 449 0024 89B13E92 		.ascii	"\211\261>\222\021\254v=\323\201\007\377\377\257\273"
ARM GAS  /tmp/ccdzPRNH.s 			page 35


 449      11AC763D 
 449      D38107FF 
 449      FFAFBB
 450 0033 306BC91E 		.ascii	"0k\311\036\306WL\254L\014\231\214\014\314 \002\010X"
 450      C6574CAC 
 450      4C0C998C 
 450      0CCC2002 
 450      0858
 451 0045 195A1A1A 		.ascii	"\031Z\032\032&(00$\203\271!@\022d@(#\023\210f>\313p"
 451      26283030 
 451      2483B921 
 451      40126440 
 451      28231388 
 452 005d E8D68D55 		.ascii	"\350\326\215U\217\031\023\031\0272\2622\24432i3\254"
 452      8F191319 
 452      1732B232 
 452      A4333269 
 452      33AC
 453 006f 6A686914 		.ascii	"jhi\024\310dd\234\3150\2131\223\221)\002H07\034ki`a"
 453      C864649C 
 453      CD308B31 
 453      93912902 
 453      4830371C 
 454 0087 0033C136 		.ascii	"\0003\3016&1\302\334y\226\241y'3L7s:D=CCC\003\023X\362"
 454      2631C2DC 
 454      7996A179 
 454      27334C37 
 454      733A443D 
 455 00a2 9027448E 		.ascii	"\220'D\2164c\323A\374\213\014\215\017V\353B\264\303"
 455      3463D341 
 455      FC8B0C8D 
 455      0F56EB42 
 455      B4C3
 456 00b4 40082323 		.ascii	"@\010##\310\331 \263]\3643\362sS\365\223\363S*\365S"
 456      C8D920B3 
 456      5DF433F2 
 456      7353F593 
 456      F3532AF5 
 457 00c9 52CBF493 		.ascii	"R\313\364\22332\2232\363\213\365K\212J\363\262\365\201"
 457      33329332 
 457      F38BF54B 
 457      8A4AF3B2 
 457      F581
 458 00db 8C8CC41C 		.ascii	"\214\214\304\034\375\202\374\242\222b\375\340\020_c"
 458      FD82FCA2 
 458      9262FDE0 
 458      105F63
 459 00ea 2308E966 		.ascii	"#\010\351fRQ\241\237\230\222\034\237\223\223\242\227"
 459      5251A19F 
 459      98921C9F 
 459      9393A297 
 460 00fa CC0000CA 		.ascii	"\314\000\000\312.TH"
 460      2E5448
 461              		.text
 462              		.section	.gnu.lto_adcSTM32DisableVBATE.e13d0e97d2d542a7,"",%progbits
 463 0000 789C6362 		.ascii	"x\234cb`b@\007\222@\374\007\210\335\200\230\221\231"
 463      60624007 
ARM GAS  /tmp/ccdzPRNH.s 			page 36


 463      9240FC07 
 463      88DD8098 
 463      9199
 464 0012 819169C2 		.ascii	"\201\221i\3029\006\206F\016&FF\020\203\201\221\241\236"
 464      39068646 
 464      0E264646 
 464      10838191 
 464      A19E
 465 0024 89B13E92 		.ascii	"\211\261>\222\021\254v=\323\201\007\377\377\257\373"
 465      11AC763D 
 465      D38107FF 
 465      FFAFFB
 466 0033 766BC91B 		.ascii	"vk\311\033\306\327L\254L\014\231\214\014\314 \002\010"
 466      C6D74CAC 
 466      4C0C998C 
 466      0CCC2002 
 466      08
 467 0044 58195A1A 		.ascii	"X\031Z\032\032&(00$\203\271!@\022d@(#\023\210f>\313"
 467      1A262830 
 467      302483B9 
 467      21401264 
 467      40282313 
 468 005c 70E8D68E 		.ascii	"p\350\326\216\365\217\031\023\031\0272\2622\24432i3"
 468      F58F1913 
 468      191732B2 
 468      32A43332 
 468      6933
 469 006e AC6A6869 		.ascii	"\254jhi\024\310dd\234\3150\2131\223\221)\002H07\034"
 469      14C86464 
 469      9CCD308B 
 469      31939129 
 469      02483037 
 470 0083 6B696061 		.ascii	"ki`a\0003\3016&1\302\334y\226\241y73L7s:D=\303\377\377"
 470      0033C136 
 470      2631C2DC 
 470      7996A179 
 470      37334C37 
 471 009e FFFFF283 		.ascii	"\377\377\362\203e\017yB$I37\035\304\277\310\320\370"
 471      650F7942 
 471      24493337 
 471      1DC4BFC8 
 471      D0F8
 472 00b0 609F2E44 		.ascii	"`\237.D;\014\20402\202\334\015\012/\027\375\214\374"
 472      3B0C8430 
 472      3282DC0D 
 472      0A2F17FD 
 472      8CFC
 473 00c2 DC54FDE4 		.ascii	"\334T\375\344\374\224J\375\224\3242\375\344\214\314"
 473      FC944AFD 
 473      94D432FD 
 473      E48CCC
 474 00d1 A4CCFC62 		.ascii	"\244\314\374b\375\222\242\322\274l} ##1G\277 \277\250"
 474      FD92A2D2 
 474      BC6C7D20 
 474      23233147 
 474      BF20BFA8 
 475 00e5 A4583F38 		.ascii	"\244X?8\304\327\330\010B\272\231TT\350'\246$\307\347"
ARM GAS  /tmp/ccdzPRNH.s 			page 37


 475      C4D7D808 
 475      42BA9954 
 475      54E827A6 
 475      24C7E7
 476 00f8 E4A4E825 		.ascii	"\344\244\350%3\000\000?\324Wa"
 476      3300003F 
 476      D45761
 477              		.text
 478              		.section	.gnu.lto_.symbol_nodes.e13d0e97d2d542a7,"",%progbits
 479 0000 789C4DCD 		.ascii	"x\234M\315=O\002A\020\006\340w\337=89Q\016\2644\332"
 479      3D4F0241 
 479      1006E077 
 479      DF3D3839 
 479      510EB434 
 480 0015 D9194B7F 		.ascii	"\331\031K\177\217\277d\316;\025\020?\310\371\321\370"
 480      8FBF64CE 
 480      3B15103F 
 480      C8F9D1F8 
 481 0025 55D85868 		.ascii	"U\330Xh#\255\025\030,\214\226V\206h\210\211\205\035"
 481      23AD1518 
 481      2C8C9656 
 481      86688889 
 481      851D
 482 0037 BDBA1B88 		.ascii	"\275\272\033\210\273[\314\344\231\331\231!\210;\205"
 482      BB5BCCE4 
 482      99D99921 
 482      883B85
 483 0046 F1E31145 		.ascii	"\361\343\021E\241\375\002\210\2347T\341W\241 `B\301"
 483      A1FD0288 
 483      9C3754E1 
 483      57A12060 
 483      42C1
 484 0058 A47AD65C 		.ascii	"\244z\326\\\3471\205\356\023S\212\236\360\302\314\354"
 484      E73185EE 
 484      13538A9E 
 484      F0C2CCEC 
 485 0068 53C1CC64 		.ascii	"S\301\314d\224\300U\271I)x\334\242\024=nSB\217\033\224"
 485      94C055B9 
 485      492978DC 
 485      A2143D6E 
 485      53428F1B 
 486 007d 298F754A 		.ascii	")\217uJ\311c\203\022ylR\246=\356P\312\216\252M\231\031"
 486      C9638312 
 486      796C52A6 
 486      3DEE50CA 
 486      8EAA4D99 
 487 0092 334994DA 		.ascii	"3I\224\332\245\314:\035P*N{\224\330)\247T\235Z\224\332"
 487      A5CC3A1D 
 487      502A4E7B 
 487      94D829A7 
 487      549D5A94 
 488 00a7 BF342AE8 		.ascii	"\2774*\350\335\2245K\350^/k\306\350\325?\003\313\364"
 488      DD94354B 
 488      E85E2F6B 
 488      C6E8D53F 
 488      03CBF4
 489 00ba 70A0ACB3 		.ascii	"p\240\254\263\323\201\012\210\321\355\242\211\235\374"
ARM GAS  /tmp/ccdzPRNH.s 			page 38


 489      D3810A88 
 489      D1EDA289 
 489      9DFC
 490 00c8 9516F99A 		.ascii	"\225\026\371\232\215'\017\266\323\271|\243\016j\310"
 490      8D270FB6 
 490      D3B97CA3 
 490      0E6AC8
 491 00d7 DE7F940E 		.ascii	"\336\177\224\016\252\310>L.\002\335\257U\035\316ax\277"
 491      AAC83E4C 
 491      2E02DDAF 
 491      551DCE61 
 491      78BF
 492 00e9 A0438DB4 		.ascii	"\240C\215\264\277\242#s\244o\266G1\256\236l\236\307"
 492      BFA22373 
 492      A46FB647 
 492      31AE9E6C 
 492      9EC7
 493 00fb B0F5BD14 		.ascii	"\260\365\275\024D\030=>k\374\001\213a\177:"
 493      44183D3E 
 493      6BFC018B 
 493      617F3A
 494              		.text
 495              		.section	.gnu.lto_.refs.e13d0e97d2d542a7,"",%progbits
 496 0000 789C2D85 		.ascii	"x\234-\205\201\011\000 \014\303\332\340\020\366\213"
 496      81090020 
 496      0CC3DAE0 
 496      10F68B
 497 000f FFBFE7DC 		.ascii	"\377\277\347\334\014$A\350h@\030b\341\007Q\3318S\226"
 497      0C2441E8 
 497      68401862 
 497      E10751D9 
 497      385396
 498 0022 29FDDBBF 		.ascii	")\375\333\277\022\344\000\206"
 498      12E40086 
 499              		.text
 500              		.section	.gnu.lto_.decls.e13d0e97d2d542a7,"",%progbits
 501 0000 789CBD5C 		.ascii	"x\234\275\\y|\024U\236\257\252\356\316\001\021\002\212"
 501      797C1455 
 501      9EAFAAEE 
 501      CE011102 
 501      8A
 502 0011 8233BBF6 		.ascii	"\2023\273\366\\\273~\346\263\032\222\240\342\316.\202"
 502      5CBB7EE6 
 502      B31A92A0 
 502      E2CE2E82 
 503 0021 21087E40 		.ascii	"!\010~@\262\235\310\270;\373\261-:\015\351\231\\vw\020"
 503      B29DC8B8 
 503      3BFBB12D 
 503      3A0DE999 
 503      5C767710 
 504 0035 67FFB038 		.ascii	"g\377\2608D\035\025\"\341>EEa\360\340\276\344hE9\235"
 504      441D1522 
 504      E13E4545 
 504      61F0E0BE 
 504      E4684539 
 505 004a 100E136E 		.ascii	"\020\016\023n\002\312\241\303\310\035\221#\331\337\373"
 505      02CAA1C3 
ARM GAS  /tmp/ccdzPRNH.s 			page 39


 505      C81D9123 
 505      D9DFFB
 506 0059 5555D7AB 		.ascii	"UU\327\253\227\252\312\253\214\273\371\344\375\352u"
 506      97AACAAB 
 506      8CBBF9E4 
 506      FDEA75
 507 0068 D57BDFF7 		.ascii	"\325{\337\367\375\375\336\357\275\367\253W\325-\011"
 507      FDFDDEEF 
 507      BDF7AB57 
 507      D52D09
 508 0077 92702E45 		.ascii	"\222p.E\020Z\340/\364\264 \344t\024\204N\202 \364\201"
 508      105AE02F 
 508      F4B420E4 
 508      7414844E 
 508      8220F481 
 509 008b D401D202 		.ascii	"\324\001\322\002H\213 \325\210\202\260\034\216\002\034"
 509      488B20D5 
 509      8882B01C 
 509      8E021C
 510 009a 97C0A1A7 		.ascii	"\227\300\241\247$\010\377\010\371\023\220?\242\236\026"
 510      2408FF08 
 510      F913903F 
 510      A29E16
 511 00a9 FE01C4ED 		.ascii	"\376\001\304\355p\314\206k\275!\365\201\364(\244\001"
 511      70CC866B 
 511      BD21F581 
 511      F428A401 
 512 00b9 9006432A 		.ascii	"\220\006C*\200T\004\351)H\277\203\3644$\031R1\244\221"
 512      805404E9 
 512      2948BF83 
 512      F4342419 
 512      5231A491 
 513 00cd 90AA20FD 		.ascii	"\220\252 \375\021\322\013\220\306@z\021\022\374\013"
 513      11D20B90 
 513      C6407A11 
 513      12FC0B
 514 00dc 2F817885 		.ascii	"/\201x\205d\250?\202\177'\034\317\012*\337\014Hip\256"
 514      64A83F82 
 514      7F271CCF 
 514      0A2ADF0C 
 514      486970AE 
 515 00f0 33A454C8 		.ascii	"3\244T\3107h<\337\2074Q2\364(\201\374$H\351\220\216"
 515      37683CDF 
 515      87345132 
 515      F42881FC 
 515      2448E990 
 516 0105 41994C38 		.ascii	"A\231L8VC\332\013i\037\244\243\220\016\300\3714(\233"
 516      5643DA0B 
 516      691FA4A3 
 516      900EC0F9 
 516      34289B
 517 0118 0AF94E90 		.ascii	"\012\371N\220z@Z\015\351 \244z\270\326\010\351$$\217"
 517      7A405A0D 
 517      E920A47A 
 517      B8D608E9 
 517      24248F
 518 012b C68370CF 		.ascii	"\306\203p\317\326\270\376\233\244\362\245\377\310\265"
ARM GAS  /tmp/ccdzPRNH.s 			page 40


 518      D6B8FE9B 
 518      A4F2A5FF 
 518      C8B5
 519 0139 5F6876D2 		.ascii	"_hv\322\271\022\216\304v\035\001g\225fO\242\313\017"
 519      B9128EC4 
 519      761D0167 
 519      95664FA2 
 519      CB0F
 520 014b 907C828A 		.ascii	"\220|\202\212]\007\351\030\234\177LR\365 \372\034\207"
 520      5D07E918 
 520      9C7F4C52 
 520      F520FA1C 
 520      87
 521 015c FC493836 		.ascii	"\374I86JF\177\334\"X\232\216'\265~\371ZR\373l\024\034"
 521      4A467FDC 
 521      22589A8E 
 521      27B57EF9 
 521      5A52FB6C 
 522 0172 4F413A0D 		.ascii	"OA:\015\351\014i\003\322e(\227N0 \335\200\264L\353\273"
 522      E90C6903 
 522      D2652897 
 522      4E3020DD 
 522      80B44CEB 
 523 0187 3370BC08 		.ascii	"3p\274\010\3510\244s\220vC\362j\374I\277}\243\365\021"
 523      E930A473 
 523      907643F2 
 523      6AFC49BF 
 523      7DA3F511 
 524 019b 51EF0110 		.ascii	"Q\357\001\020\271\214\236}4\333/a\364$v\326mL\374d\265"
 524      B98C9E7D 
 524      34DB2F61 
 524      F42476D6 
 524      6D4CFC64 
 525 01b0 76ECC3D4 		.ascii	"v\354\303\324'\177\304_24\275\011\016\321\235\364\345"
 525      277FC45F 
 525      3234BD09 
 525      0ED19DF4 
 525      E5
 526 01c1 FB5AFF92 		.ascii	"\373Z\377\222~\363j~I\260/\300\347\377\221T{\221\276"
 526      7EF36A7E 
 526      49B02FC0 
 526      E7FF9154 
 526      7B91BE
 527 01d4 217D769F 		.ascii	"!}v\237\366\371Q\315\227\376\350\340G\3047\301\375\261"
 527      F6F951CD 
 527      97FEE8E0 
 527      47C437C1 
 527      FDB1
 528 01e6 0F960B86 		.ascii	"\017\226\013\206\235/\302\371\2075\236\304>\222V\266"
 528      9D2FC2F9 
 528      87359EC4 
 528      3E9256B6 
 529 01f6 B776EE71 		.ascii	"\267v\356q\006g\260\306{\225\306\263A4\343]\202sc5\237"
 529      0667B0C6 
 529      7B95C6B3 
 529      4134E35D 
 529      82736335 
ARM GAS  /tmp/ccdzPRNH.s 			page 41


 530 020b 23FE7519 		.ascii	"#\376u\031\362\217Hj_\023\374T\013\337\032\254\215\203"
 530      F28F486A 
 530      5F13FC54 
 530      0BDF1AAC 
 530      8D83
 531 021d 3E1AFF27 		.ascii	">\032\377',|\213\214\251\356\232=t\233\023\277:\253"
 531      2C7C8B8C 
 531      A9EE9A3D 
 531      749B13BF 
 531      3AAB
 532 022f F9913E26 		.ascii	"\371\221>&\3524{\021\\\335\236\204\327)\315\237\210"
 532      EA347B11 
 532      5CDD9E84 
 532      D729CD9F 
 532      88
 533 0240 6FB2E3E2 		.ascii	"o\262\343\342\2546\026\256\300\361'\232\277\020\333"
 533      AC3616AE 
 533      C0F1279A 
 533      BF10DB
 534 024f 9ED17C44 		.ascii	"\236\321|D\037\037\304O~\"\251>s\027\034\273i\272\034"
 534      1F1FC44F 
 534      7E22A93E 
 534      73171CBB 
 534      69BA1C
 535 0262 85D485F8 		.ascii	"\205\324\205\370\"\231\027 \235\206\324\215\340A\272"
 535      22991720 
 535      9D86D48D 
 535      E041BA
 536 0271 0B5213A4 		.ascii	"\013R\023\244\036\220\256A\272M\323\275\263\246\277"
 536      1E90AE41 
 536      BA4DD3BD 
 536      B3A6BF
 537 0280 A8E9468E 		.ascii	"\250\351F\216\001Fg\342\213\231\202y\274\377B+\353e"
 537      014667E2 
 537      8B998279 
 537      BCFF422B 
 537      EB65
 538 0292 F46375BA 		.ascii	"\364cu\272\012\251\311b\214\023\316?\207\364+\246\037"
 538      0AA9C962 
 538      8C13CE3F 
 538      87F42BA6 
 538      1F
 539 02a3 44AD3D72 		.ascii	"D\255=r\034\306\360xJ\033\327\264\355S)^\364\370\326"
 539      1CC6F078 
 539      4A1BD7B4 
 539      ED53295E 
 539      F4F8D6
 540 02b6 FBDD8A5B 		.ascii	"\373\335\212[\246\346\007\372Xw\032\343d|\223\261\255"
 540      A6E607FA 
 540      58771AE3 
 540      647C93B1 
 540      AD
 541 02c7 CFBFFA18 		.ascii	"\317\277\372\030\377\036R\236\244\352tT4\364\"\375A"
 541      FF1E529E 
 541      A4EA7454 
 541      34F422FD 
 541      41
ARM GAS  /tmp/ccdzPRNH.s 			page 42


 542 02d8 FA8D1EE7 		.ascii	"\372\215\036\347>\215;=\246_\324td\375\353w\332x\323"
 542      3E8D3B3D 
 542      A65FD474 
 542      64FDEB77 
 542      DA78D3
 543 02eb C7B13E47 		.ascii	"\307\261>G\222\262\007\265\343\357,\306\361\323\034"
 543      92B207B5 
 543      E3EF2CC6 
 543      F1D31C
 544 02fa F59EB6A8 		.ascii	"\365\236\266\250's\324\223-\352\025s\324+\266\250\227"
 544      2773D493 
 544      2DEA1573 
 544      D42BB6A8 
 544      97
 545 030b 2EBCAC28 		.ascii	".\274\254(c\2257'(\003\267C\037>%\312b\247t\301\217"
 545      63953727 
 545      2803B743 
 545      1F3E25CA 
 545      62A774C1 
 546 0320 998C7484 		.ascii	"\231\214t\204\374\225\360\216\242T7~~\262QR\2244Y\\"
 546      FC95F08E 
 546      A254377E 
 546      7EB25152 
 546      9434595C 
 547 0334 20A6C370 		.ascii	" \246\303p\374gQ\370\265\260X\201+P\377\356\326\300"
 547      FC6751F8 
 547      B5B05881 
 547      2B50FFEE 
 547      D6C0
 548 0346 2E908F9F 		.ascii	".\220\217\237\330\345A\344\205\210\\*\012\262\370\216"
 548      D8E541E4 
 548      85885C2A 
 548      0AB2F88E 
 549 0356 F86BDD22 		.ascii	"\370k\335\"bj\272\311B\344\263^\200\200\341e-C\226\361"
 549      626ABAC9 
 549      42E4B35E 
 549      8080E165 
 549      2D4396F1 
 550 036a CE82DBE2 		.ascii	"\316\202\333\342\035\205?\031T\357\024\246\202V\344"
 550      1D853F19 
 550      54EF14A6 
 550      8256E4
 551 0379 8322C665 		.ascii	"\203\"\306e\261O7K\352\004x\261x'\346<8;\231Q\272\012"
 551      B14F374B 
 551      EA0478B1 
 551      7827E63C 
 551      383B9951 
 552 038f 6F10143F 		.ascii	"o\020\024?\245\372\233\036\035\240\027\245\373\266["
 552      A5FA9B1E 
 552      1DA017A5 
 552      FBB65B
 553 039e EF88E3A0 		.ascii	"\357\210\343\240)Y|_\354\012@\033D\263\372m\002\311"
 553      29597C5F 
 553      EC0A401B 
 553      44B3FA6D 
 553      02C9
 554 03b0 E287A204 		.ascii	"\342\207\242\004\362#\250\256VDh%\3212+C\361\252\347"
ARM GAS  /tmp/ccdzPRNH.s 			page 43


 554      F223A8AE 
 554      56446825 
 554      D1322B43 
 554      F1AAE7
 555 03c3 0513A4E9 		.ascii	"\005\023\244\351\357g\302\233\300:1\375\360\274\273"
 555      EF67C29B 
 555      C03A31FD 
 555      F0BCBB
 556 03d2 94C68498 		.ascii	"\224\306\204\230*L J4\2768\266\373\014\243\3054\275"
 556      2A4C204A 
 556      34BE38B6 
 556      FB0CA3C5 
 556      34BD
 557 03e4 41D1603E 		.ascii	"A\321`>\267v\1776\366\332r\250$\011?0\2749\200\010\253"
 557      B7767F36 
 557      F6DA72A8 
 557      24093F30 
 557      BC398008 
 558 03f9 5550D9C4 		.ascii	"UP\331\304z\325\204\316\20459\357\300\032M.\011\343"
 558      7AD584CE 
 558      843539EF 
 558      C01A4D2E 
 558      09E3
 559 040b 251101BD 		.ascii	"%\021\001\275\351\306\271I\3069\221*:\3038-Q\247\337"
 559      E9C6B949 
 559      C639912A 
 559      3AC3382D 
 559      51A7DF
 560 041e 324E7BA8 		.ascii	"2N{\250\323\037\030\247\275\324\351\365\306i\237\306"
 560      D31F18A7 
 560      BDD4E9F5 
 560      C6699FC6 
 561 042e 847C14D3 		.ascii	"\204|\024\323\215L\213\310\270\237\241\241,\256\026"
 561      8D4C8BC8 
 561      B89FA1A1 
 561      2CAE16
 562 043d 7F05728D 		.ascii	"\177\005r\215\350\261\254&\011\237I\242\326\223V\366"
 562      E8B1AC26 
 562      099F49A2 
 562      D69356F6 
 563 044d D2B246BB 		.ascii	"\322\262F\273\235\222\003C\355E\360\2463\247\305\232"
 563      9D920343 
 563      ED45F0A6 
 563      33A7C59A 
 564 045d 71CAF69E 		.ascii	"q\312\366\236V\316\010\037D\347\241\230\270zH\364\353"
 564      56CE081F 
 564      44E7A198 
 564      B87A48F4 
 564      EB
 565 046e A553ECCA 		.ascii	"\245S\354\312\312\3426\320\243\315b\244\340\016\326"
 565      CAE236D0 
 565      A3CD62A4 
 565      E00ED6
 566 047d 292F1E42 		.ascii	")/\036B\247\334\301\345\224\227\017\315\353\241\274"
 566      A7DCC1E5 
 566      94970FCD 
 566      EBA1BC
ARM GAS  /tmp/ccdzPRNH.s 			page 44


 567 048c F9A9A8CF 		.ascii	"\371\251\250\3179;\321<;\014\363\230\332s0\017\325\035"
 567      393BD13C 
 567      3B0CF398 
 567      DA73300F 
 567      D51D
 568 049e 6A47ECC4 		.ascii	"jG\354\304\216\330%\376\314\270$\011u\022;\363\2504"
 568      8ED825FE 
 568      CCB82409 
 568      75123BF3 
 568      A834
 569 04b0 A9DA863E 		.ascii	"\251\332\206>\002[\337\316\004\237\213\035\215&\016"
 569      025BDFCE 
 569      049F8B1D 
 569      8D260E
 570 04bf B11DDCA6 		.ascii	"\261\035\334\246\006~\223E\326\314\236\217\0261u\257"
 570      067E9345 
 570      D6CC9E8F 
 570      163175AF 
 571 04cf 36D32A13 		.ascii	"6\323*\023\224{\027\031}\221\251\303IF\367\316\257\351"
 571      947B1719 
 571      7D91A9C3 
 571      4946F7CE 
 571      AFE9
 572 04e1 46ACBF07 		.ascii	"F\254\277\007\255y\202Q\227\033\246\361\363\331w\022"
 572      AD798251 
 572      971BA6F1 
 572      F3D97712 
 573 04f1 98FD08F3 		.ascii	"\230\375\010\363\267v\303\034_\267S\235\367\033\020"
 573      B776C31C 
 573      5FB7539D 
 573      F71B10
 574 0500 A8A995F9 		.ascii	"\250\251\225\371=\314\304\3571\317\344\236t#\323\322"
 574      3DCCC4EF 
 574      31CFE49E 
 574      7423D3D2 
 575 0510 E211FE0F 		.ascii	"\342\021\376\017\013\333un\035\335\271c<\034\235\233"
 575      0BDB756E 
 575      1DDDB963 
 575      3C1C9D9B 
 576 0520 4677AE40 		.ascii	"Fw\256@w.\214\336\363\365\352\350\345_;W\314\252\277"
 576      772E8CDE 
 576      F3F5EAE8 
 576      E55F3B57 
 576      CCAABF
 577 0533 2C8EC5F5 		.ascii	",\216\305\365\343\010Zq\203\207\265\242\217\261\242"
 577      E3085A71 
 577      8387B5A2 
 577      8FB1A2
 578 0542 CFACAB2F 		.ascii	"\317\254\253/\335\310h\353\241$lq\255\212\237Q\345\252"
 578      DDC868EB 
 578      A1246C71 
 578      AD8A9F51 
 578      E5AA
 579 0554 D344A498 		.ascii	"\323D\244\230&\242\204\244#\336k\270\352\227\306L\344"
 579      26A284A4 
 579      23DE6BB8 
 579      EA97C64C 
ARM GAS  /tmp/ccdzPRNH.s 			page 45


 579      E4
 580 0565 B72D2B8B 		.ascii	"\267-+\213_\0313\221}1R\360T\253\231\250\036g\242S\\"
 580      5F193391 
 580      7D3152F0 
 580      54AB99A8 
 580      1E67A253 
 581 057a 33D10FF5 		.ascii	"3\321\017\365\352\362\230&\274\244\256j\312\030\361"
 581      EAF29826 
 581      BCA4AE6A 
 581      CA18F1
 582 0589 5987E591 		.ascii	"Y\207\345\221DE\222,\236\205\012\222\260\303#ZA\223"
 582      4445922C 
 582      9E850A92 
 582      B0C3235A 
 582      4193
 583 059b 564901DD 		.ascii	"VI\001\335\210j^\317\341z\260\033\273\341T{\327\203"
 583      886A5ECF 
 583      E17AB01B 
 583      BBE1547B 
 583      D783
 584 05ad 44F5F48C 		.ascii	"D\365\364\214\272g\370\247\207u\352\364\3607t\244\003"
 584      BA67F8A7 
 584      8775EAF4 
 584      F03774A4 
 584      03
 585 05be AD1C69BF 		.ascii	"\255\034i\277\350r<J\302_Y\005L\315Z)\220iR`f\303\274"
 585      E8723C4A 
 585      C25F5905 
 585      4CCD5A29 
 585      90695260 
 586 05d5 D6F31D7F 		.ascii	"\326\363\035\177\204v\331\034\241\311\342\022@J~\320"
 586      8476D91C 
 586      A1C9E212 
 586      404A7ED0 
 587 05e5 066FF2F3 		.ascii	"\006o\362\363\021U?Y|\322\230\036\034\326\312\331\323"
 587      11553F59 
 587      7CD2981E 
 587      1CD6CAD9 
 587      D3
 588 05f6 EE20D6BA 		.ascii	"\356 \326\272\004(\222p\215\261\226\211\260J\304\216"
 588      04289270 
 588      8DB19689 
 588      B04AC48E 
 589 0606 E40F0060 		.ascii	"\344\017\000`\355\177\255\256I\302\004/cP\227\013\310"
 589      ED7FADAE 
 589      49C2042F 
 589      6350970B 
 589      C8
 590 0617 B2BFCFA0 		.ascii	"\262\277\317\240\267\034\014\312\035:&\216\356\023\375"
 590      B71C0CCA 
 590      1D3A268E 
 590      EE13FD
 591 0626 B2A84824 		.ascii	"\262\250H$n|\335\333\256\270q\234\304\304\215\0155\030"
 591      6E7CDDDB 
 591      AEB8719C 
 591      C4C48D0D 
 591      3518
ARM GAS  /tmp/ccdzPRNH.s 			page 46


 592 0638 3792F36D 		.ascii	"7\222\363m\307\2153\274\255\343\306%^s\334(p\304v\006"
 592      C78D33BC 
 592      ADE3C625 
 592      5E73DC28 
 592      70C47606 
 593 064c 0B591C2F 		.ascii	"\013Y\034/\221\220\342E\311:\266s\341W\033U\277\272"
 593      9190E245 
 593      C93AB673 
 593      E1571B55 
 593      BFBA
 594 065e 897EB5C1 		.ascii	"\211~\265\301\353\350W\267\034\374\352U\311\336\257"
 594      EBE857B7 
 594      1CFCEA55 
 594      C9DEAF
 595 066d 986B30D3 		.ascii	"\230k0\323\360\370\225\375\332\225\330\334`\016\325"
 595      F0F895FD 
 595      DA95D8DC 
 595      600ED5
 596 067c 0EB8C633 		.ascii	"\016\270\3063\373\351\221\206\214jY\007;\302\003\226"
 596      FBE99186 
 596      8C6A5907 
 596      3BC20396 
 597 068c 694FEE1A 		.ascii	"iO\356\032\015\326\350\032\314\314l\312!\012\3544\017"
 597      0DD6E81A 
 597      CCCC6CCA 
 597      210AEC34 
 597      0F
 598 069d 58777B66 		.ascii	"Xw{f\363h\260s\256\301\314\314\326\322`\027y\300\374"
 598      F368B073 
 598      AEC1CCCC 
 598      D6D26017 
 598      79C0FC
 599 06b0 F6CCF6D2 		.ascii	"\366\314\366\322`M\256\301\374\255\\N\035%\2471\360"
 599      604DAEC1 
 599      FCAD5C4E 
 599      1D25A731 
 599      F0
 600 06c1 3E0381B3 		.ascii	">\003\201\263,\236Cy\021\345\015\224\257KDNB\371\006"
 600      2C9E4379 
 600      11E50D94 
 600      AF4B444E 
 600      42F906
 601 06d4 CA1A9453 		.ascii	"\312\032\224SQNG9S2\005\3557\274\3542u\212\015\332O"
 601      514E4739 
 601      533205ED 
 601      37BCEC32 
 601      758A0DDA 
 602 06e9 9982F61F 		.ascii	"\231\202\366\037\255m\273qw\202\216\011'\3728\002)\007"
 602      AD6DBB71 
 602      77828E09 
 602      27FA3802 
 602      2907
 603 06fb D7BD7018 		.ascii	"\327\275p\030\272\241\315\235\005\257\216\324_HF\206"
 603      BAA1CD9D 
 603      05AF8ED4 
 603      5F484686 
 604 070b 0DDF26BA 		.ascii	"\015\337&\272\257W\224LY\234/\221\215\205/|mo,\230p"
ARM GAS  /tmp/ccdzPRNH.s 			page 47


 604      AF57944C 
 604      599C2F91 
 604      8D852F7C 
 604      6D6F2C98 
 605 0720 24E14BAC 		.ascii	"$\341K\254\362\226d\216\234\032[\276k\374\311\014D&"
 605      F296648E 
 605      9C1A5BBE 
 605      6BFCC90C 
 605      4426
 606 0732 97DA0E9E 		.ascii	"\227\332\016\236nL\230\333z\315Qi\331\331\360]v~\232"
 606      6E4C98DB 
 606      7ACD5169 
 606      D9D9F05D 
 606      767E9A
 607 0745 92A25371 		.ascii	"\222\242Sqy\353\247qh\336\212\356Lp%a\266k0\277\011"
 607      79EBA771 
 607      68DE8AEE 
 607      4C702561 
 607      B66B30BF 
 608 075a AC66DB1C 		.ascii	"\254f\333\034T\210?L\237z\371l\217\215h\262%\022\031"
 608      54883F4C 
 608      9F7AF96C 
 608      8F8D68B2 
 608      251219
 609 076d 507F4D61 		.ascii	"P\177Ma\275v\001\033\\\265\275m%\011\227y\024\261\235"
 609      BD76011B 
 609      5CB5BD6D 
 609      25099779 
 609      14B19D
 610 0780 B5494FD6 		.ascii	"\265IO\326\375t\335rEy%\245\315\273yI\270\216\215-e"
 610      FD74DD72 
 610      457925A5 
 610      CDBB7949 
 610      B88E8D2D 
 611 0795 BD61EAF5 		.ascii	"\275a\352\365\272\373ToX\312\345\015kvMo\355\015V\316"
 611      BAFB546F 
 611      58CAE50D 
 611      6B764D6F 
 611      ED0D56CE 
 612 07a9 98A2375F 		.ascii	"\230\2427_\214\315oH%\315\257b\233_\326|\266\217\332"
 612      8CCD6F48 
 612      25CDAF62 
 612      9B5FD67C 
 612      B68FDA
 613 07bc FC2AAEE6 		.ascii	"\374*\256\346\217\357\236b\345\21461\217\336}\327/\334"
 613      8FEF9E62 
 613      E58C3631 
 613      8FDE7DD7 
 613      2FDC
 614 07ce 3B1F     		.ascii	";\037"
 615 07d0 1B59870E 		.ascii	"\033Y\207\0164!\215\355\276G:\322m\341g\223\377NJ\323"
 615      34218DED 
 615      BE473AD2 
 615      6DE16793 
 615      FF4E4AD3 
 616 07e4 D9B7CB7F 		.ascii	"\331\267\313\177A\315\304#\213\261\247t\0165\256\021"
 616      41CDC423 
ARM GAS  /tmp/ccdzPRNH.s 			page 48


 616      8BB1A774 
 616      0E35AE11 
 617 07f4 CD4E7C69 		.ascii	"\315N|i7\216\010\025l:\017\230\303\362\177\205\006\233"
 617      378E0815 
 617      6C3A0F98 
 617      C3F27F85 
 617      069B
 618 0806 ED1ACCCC 		.ascii	"\355\032\314\314\254\211\006\233\317\003\346\264\366"
 618      AC89069B 
 618      CF03E6B4 
 618      F6
 619 0813 D3606FBB 		.ascii	"\323`o\273\00633\273N\203\275\307\003\346\260\366\337"
 619      063333BB 
 619      4E83BDC7 
 619      03E6B0F6 
 619      DF
 620 0824 A4C196B8 		.ascii	"\244\301\226\270\00633k\246\301>\342\001\363\3333\253"
 620      0633336B 
 620      A6C13EE2 
 620      01F3DB33 
 620      AB
 621 0835 DE4B81AD 		.ascii	"\336K\201\255p\015ff6\231\006[\303\003v\257=\263)4\330"
 621      700D6666 
 621      3699065B 
 621      C30376AF 
 621      3DB32934 
 622 084a C7AEC1CC 		.ascii	"\307\256\301\314\314\246\321`\233y\300z\3323\233A\203"
 622      CCA6D160 
 622      9B79C07A 
 622      DA339B41 
 622      83
 623 085b 6D710D66 		.ascii	"mq\015ff6\213\006\333\306\003\326\333\236\331\034\032"
 623      66368B06 
 623      DBC603D6 
 623      DB9ED91C 
 623      1A
 624 086c 6C976B30 		.ascii	"l\227k03\263\2454\330n\036\260\276\366\314\226\323`"
 624      33B3A534 
 624      D86E1EB0 
 624      BEF6CC96 
 624      D360
 625 087e 7B5D8399 		.ascii	"{]\203\231\231\255\244\301\276\344\001\033h\317l5\015"
 625      99ADA4C1 
 625      BEE4011B 
 625      68CF6C35 
 625      0D
 626 088f 76C03598 		.ascii	"v\3005\230\231\331Z\032\3540\017X\201=\263\3654\330"
 626      99D95A1A 
 626      EC300F58 
 626      813DB3F5 
 626      34D8
 627 08a1 31D76066 		.ascii	"1\327`ff\033h\260\023<`O\3313\333D\203\235r\015ffVG"
 627      661B68B0 
 627      133C604F 
 627      D933DB44 
 627      839D720D 
 628 08b9 837DC303 		.ascii	"\203}\303\003\366\214\005\263\344\237]\234\271R\242"
ARM GAS  /tmp/ccdzPRNH.s 			page 49


 628      F68C05B3 
 628      E49F5D9C 
 628      B952A2
 629 08c8 62F57369 		.ascii	"b\365siz\200\343r\215\026\014\214\013in#2\223\336$\266"
 629      7A80E372 
 629      8D160C8C 
 629      0B696E23 
 629      3293DE24 
 630 08dd FEE97A6D 		.ascii	"\376\351zm\235W\203\325&\036D\207\005p\3266*\362mv\015"
 630      9D5783D5 
 630      261E4487 
 630      0570D636 
 630      2AF26D76 
 631 08f2 C6B8F236 		.ascii	"\306\270\3626\366vD\213\201\033\027&\234w}pG4YX\351"
 631      F676448B 
 631      811B1726 
 631      9C777D70 
 631      47345958 
 632 0907 DEDDBAAC 		.ascii	"\336\335\272\254,6\341>\312\367Rz\222\205\232\327s\352"
 632      2C36E13E 
 632      CAF7527A 
 632      92859AD7 
 632      73EA
 633 0919 93B209E9 		.ascii	"\223\262\011\351\266{\252\316U\355<\341\012\355\011"
 633      B67BAACE 
 633      55ED3CE1 
 633      0AED09
 634 0928 AFA67398 		.ascii	"\257\246s\230\311ai?\276m\016n\027S\372\266\3614u\352"
 634      C961693F 
 634      BE6D0E6E 
 634      1753FAB6 
 634      F13475EA 
 635 093c E53AED06 		.ascii	"\345:\355\006\341\006\336 LN\267|\252\302\201\364y="
 635      E106DE20 
 635      4C4EB77C 
 635      AAC281F4 
 635      793D
 636 094e 6EE23623 		.ascii	"n\3426#\314\354v\303\034\277\370\211\372pf\214\207\000"
 636      CCEC76C3 
 636      1CBFF889 
 636      FA70668C 
 636      8700
 637 0960 BDCD0069 		.ascii	"\275\315\000i;\\\224\331E\363\375\212\343\276\331\217"
 637      3B5C94D9 
 637      45F3FD8A 
 637      E3BED98F 
 638 0970 5856123E 		.ascii	"XV\022>`;\313j\223\334>t\202!w\340\236u\037*\312\270"
 638      603BCB6A 
 638      93DC3E74 
 638      822177E0 
 638      9E751F2A 
 639 0986 1437DDB5 		.ascii	"\0247\335\265]\353\256\011h\236U\255\314\323,\271\263"
 639      5DEBAE09 
 639      689E55AD 
 639      CCD32CB9 
 639      B3
 640 0997 8F246C74 		.ascii	"\217$lt\255\307\275\214\036\211{\335\353q@\323\343U"
ARM GAS  /tmp/ccdzPRNH.s 			page 50


 640      ADC7BD8C 
 640      1E897BDD 
 640      EB7140D3 
 640      E355
 641 09a9 D4E3F31F 		.ascii	"\324\343\363\037A\217\277\270\326\243'\245\007\336\224"
 641      418FBFB8 
 641      D6A327A5 
 641      07DE94
 642 09b8 DEAFDE94 		.ascii	"\336\257\336\224\336.Lv\276)%|\252=\267\233\356\010"
 642      DE2E4C76 
 642      BE29257C 
 642      AA3DB79B 
 642      EE08
 643 09ca 13077792 		.ascii	"\023\007w\222\335er\272\255\273A%\361\375N\352N^\341"
 643      DD6572BA 
 643      ADBB4125 
 643      F1FD4EEA 
 643      4E5EE1
 644 09dd BB93BFA0 		.ascii	"\273\223\277\240Y\254\006-\266\337j\204q!-<y@}\241f"
 644      59AC062D 
 644      B6DF6A84 
 644      71212D3C 
 644      79407DA1 
 645 09f2 1A021D6A 		.ascii	"\032\002\035j7\320\361\215[\324\241:\023\201N\266\352"
 645      37D0F18D 
 645      5BD4A13A 
 645      13814EB6 
 645      EA
 646 0a03 C314A60B 		.ascii	"\303\024\246\013S\314]\010\037IK\327\310\266\202\370"
 646      53CC5D08 
 646      1F494BD7 
 646      C8B682F8 
 647 0a13 8276867C 		.ascii	"\202v\206|H\025\376\337\353\301*\214\364I\367\271\\"
 647      4815FEDF 
 647      EBC12A8C 
 647      F449F7B9 
 647      5C
 648 0a24 850DF7F9 		.ascii	"\205\015\367\371\227u\332\012\252v\321\345\277\013q"
 648      9775DA0A 
 648      AA76D1E5 
 648      BF0B71
 649 0a33 6C62C5AB 		.ascii	"lb\305\253s\265\275\355G\310\032z\363\357\204\333\263"
 649      73B5BDED 
 649      47C81A7A 
 649      F3EF84DB 
 649      B3
 650 0a44 CBFDEE51 		.ascii	"\313\375\356Q\342n\325\347\336B\205\306u\370Qv\217&"
 650      E26ED5E7 
 650      DE4285C6 
 650      75F85176 
 650      8F26
 651 0a56 7568A722 		.ascii	"uh\247\"\311?I\230\326\201c\245\364;\365\326\265\373"
 651      C93F4998 
 651      D68163A5 
 651      F43BF5D6 
 651      B5FB
 652 0a68 3977A092 		.ascii	"9w\240\222\373\232g\273oGc,\362\220}\315Y\21418v\262"
ARM GAS  /tmp/ccdzPRNH.s 			page 51


 652      FB9A67BB 
 652      6F47632C 
 652      F2907DCD 
 652      598C3138 
 653 0a7e 16639525 		.ascii	"\026c\225%\236V\373\232u=\324\255$r\211c'k\202\356\027"
 653      9E56FB9A 
 653      753DD4AD 
 653      24728963 
 653      276B82EE 
 654 0a93 EA76E57B 		.ascii	"\352v\345{\222\244\301\266\327\236\246.4\370\311\342"
 654      92A4C1B6 
 654      D79EA62E 
 654      34F8C9E2 
 655 0aa3 071E1214 		.ascii	"\007\036\022\024}\3501m}\257sm{?m\373\304\215]sD\302"
 655      7DE8316D 
 655      7DAF736D 
 655      7B3F6DFB 
 655      C48D5D73 
 656 0ab9 DF62F3AD 		.ascii	"\337b\363\255/\035\252&\015\337\330c\007\232g\031\032"
 656      2F1DAA26 
 656      0DDFD863 
 656      079A6719 
 656      1A
 657 0aca 7E8B8DE1 		.ascii	"~\213\215\341\373\332\341H\302>\254\262\262\265\341"
 657      FBDAE148 
 657      C23EACB2 
 657      B2B5E1
 658 0ad9 B7DFAD1A 		.ascii	"\267\337\255\032~%\227\341\277\2644\374J\367\206\327"
 658      7E2597E1 
 658      BFB434FC 
 658      4AF786D7 
 659 0ae9 F0EA8DCD 		.ascii	"\360\352\215\315aY\\\354\032\314\357\324\213+\251^\\"
 659      61595CEC 
 659      1ACCEFD4 
 659      8B2BA95E 
 659      5C
 660 0afa 8DBDB8C6 		.ascii	"\215\275\270\306C\036%\2545\367\345\327l_\232,\247e"
 660      431E25AC 
 660      35F7E5D7 
 660      6C5F9A2C 
 660      A765
 661 0b0c 6D374694 		.ascii	"m7F\224DM\355\034\315$\352\234w\236\3077\034\2663\346"
 661      444DED1C 
 661      CD24EA9C 
 661      779EC737 
 661      1CB633E6 
 662 0b20 D5A249D4 		.ascii	"\325\242I\324\371\346\252k0\277\011l\343D\213\007\000"
 662      F9E6AA6B 
 662      30BF096C 
 662      E3448B07 
 662      00
 663 0b31 165EA788 		.ascii	"\026^\247\210\364-\210$(\035I\273\011\326]\346\256\337"
 663      F42D8824 
 663      281D49BB 
 663      09D65DE6 
 663      AEDF
 664 0b43 F3923806 		.ascii	"\363\2228\006\337yIp\370\013\254\362\247\322\225\311"
ARM GAS  /tmp/ccdzPRNH.s 			page 52


 664      DF794970 
 664      F80BACF2 
 664      A7D295C9 
 665 0b53 19BADFAE 		.ascii	"\031\272\337\256O\242:\230\332\301[n|\263CD8\365\226"
 665      4FA23A98 
 665      DAC15B6E 
 665      7CB34344 
 665      38F596
 666 0b66 EA5316AE 		.ascii	"\352S\026\256\315;>3\\s\330\372%\031{\303h\317\211\017"
 666      CD3B3E33 
 666      5C73D8FA 
 666      25197BC3 
 666      68CF890F 
 667 0b7a AF2371CE 		.ascii	"\257#q\316\016\324igGvEP-C9b\202r\304O\321\021\267\240"
 667      0ED46967 
 667      47764550 
 667      2D433962 
 667      8272C44F 
 668 0b92 237E8E72 		.ascii	"#~\216r\033\355\216v\241\326v\017u\217\264\327\265\336"
 668      1BED8E76 
 668      A1D6760F 
 668      758FB4D7 
 668      B5DE
 669 0ba4 7EA677EC 		.ascii	"~\246w\354\232\331L7s\260#\207\357\331\357~\221I\375"
 669      9AD94C37 
 669      73B02387 
 669      EFD9EF7E 
 669      9149FD
 670 0bb7 5FF57040 		.ascii	"_\365p@}\366\362\225kD\2637_\234h\012\007\276\343\201"
 670      7DF6F295 
 670      6B44B337 
 670      5F9C680A 
 670      07BEE381 
 671 0bcb EB6B41D0 		.ascii	"\353kA\320\352\217~\332\006\022o\205\027\342\243\307"
 671      EA8F7EDA 
 671      06126F85 
 671      17E2A3C7 
 672 0bdb 4528FF8C 		.ascii	"E(\377\214\362#\224\347Q^Dy\031\345u\224/b\207\376\011"
 672      F22394E7 
 672      515E4479 
 672      19E57594 
 672      2F6287FE 
 673 0bf0 E52494EF 		.ascii	"\345$\224\357\241\\\212r=\312\015(7\241\254EY\327\226"
 673      A15C8A72 
 673      3DCA0D28 
 673      37A1AC45 
 673      59D796
 674 0c03 0368ABC0 		.ascii	"\003h\253\300\321\315\007\177\372>\316\325\363\320\375"
 674      D1CD077F 
 674      FA3ECED5 
 674      F3D0FD
 675 0c12 3FCC603D 		.ascii	"?\314`=\357]\211y\026\322\352a\336'\031n\037\212\322"
 675      EF5D8979 
 675      16D2EA61 
 675      DE27196E 
 675      1F8AD2
 676 0c25 3DA0341E 		.ascii	"=\2404\036\177\251\245^\254Q\224\355=U\377\227\305O"
ARM GAS  /tmp/ccdzPRNH.s 			page 53


 676      7FA9A55E 
 676      AC5194ED 
 676      3D55FF97 
 676      C54F
 677 0c37 3C9219D1 		.ascii	"<\222\031\321<b\254n:Ln\222\230?\317\342\305J\253\221"
 677      3C62AC6E 
 677      3A4C6E92 
 677      983FCFE2 
 677      C54AAB91 
 678 0c4b E8D3C10A 		.ascii	"\350\323\301\012\014\233,;\275\243\267\372\016\367\001"
 678      0C9B2C3B 
 678      BDA3B7FA 
 678      0EF701
 679 0c5a 1C8DE36F 		.ascii	"\034\215\343ok\363Q\253\031\207X\35103\315%\326\354"
 679      6BF351AB 
 679      198758E9 
 679      3033CD25 
 679      D6EC
 680 0c6c C217D40E 		.ascii	"\302\027\324\016\267=\305\215\037\227\370x\327\024#"
 680      B73DC58D 
 680      1F97F878 
 680      D71423
 681 0c7b A81CE718 		.ascii	"\250\034\347\030T\202\217\341Cx\236\020\261\03259\334"
 681      54828FE1 
 681      43789E10 
 681      B11A3539 
 681      DC
 682 0c8c BE951568 		.ascii	"\276\225\025hm\330\205\313\3101\\Fj\\\203\371M`\233"
 682      6DD885CB 
 682      C8315C46 
 682      6A5C83F9 
 682      4D609B
 683 0c9f 68B0E93C 		.ascii	"h\260\351<`v\323.\200\325\321`\263]\203\231\231\355"
 683      6076D32E 
 683      80D5D160 
 683      B35D8399 
 683      99ED
 684 0cb1 A5C116F0 		.ascii	"\245\301\026\360\200\331m\330\001\330~\032\354=\327"
 684      80D96DD8 
 684      01D87E1A 
 684      EC3DD7
 685 0cc0 606666F5 		.ascii	"`ff\3654\330\007<`v\203\004\300\016\320`+\\\203\231"
 685      34D8073C 
 685      60768304 
 685      C00ED060 
 685      2B5C8399 
 686 0cd4 991DA2C1 		.ascii	"\231\035\242\301\326\361\200\371\355\231\035\241\301"
 686      D6F180F9 
 686      ED991DA1 
 686      C1
 687 0ce1 36BB0633 		.ascii	"6\273\00633;F\203m\341\001\263\013\314\000\354\002\015"
 687      333B4683 
 687      6DE101B3 
 687      0BCC00EC 
 687      020D
 688 0cf3 B6CD3598 		.ascii	"\266\3155\230\231\331%\032\354\013\0360\273\020\017"
 688      99D9251A 
ARM GAS  /tmp/ccdzPRNH.s 			page 54


 688      EC0B1E30 
 688      BB100F
 689 0d02 C0AED060 		.ascii	"\300\256\320`{\\\203\231\2315\321`\365<`vk6\200]\243"
 689      7B5C8399 
 689      9935D160 
 689      F53C6076 
 689      6B36805D 
 690 0d17 C10EBB06 		.ascii	"\301\016\273\00633\273N\2035\362\200\365\265gv\223\006"
 690      3333BB4E 
 690      8335F280 
 690      F5B56776 
 690      9306
 691 0d29 3BE51ACC 		.ascii	";\345\032\314\314\254\231\006\373\226\007\314\356\211"
 691      CCAC9906 
 691      FB9607CC 
 691      EE89
 692 0d37 158055D7 		.ascii	"\025\200U\327R`\347]\203\371\005\333?zi\222\305#\030"
 692      5260E75D 
 692      83F905DB 
 692      3F7A6992 
 692      C52318
 693 0d4a 3A1EC598 		.ascii	":\036\305\230\241\021\345I\224_\243<\215\362,\312oQ"
 693      A111E549 
 693      945FA33C 
 693      8DF22CCA 
 693      6F51
 694 0d5c 9E43F91D 		.ascii	"\236C\371\035\312\013(/\241\274\202\262\011\3455\224"
 694      CA0B282F 
 694      A1BC82B2 
 694      09E53594 
 695 0d6c D751DE44 		.ascii	"\327Q\336D\331\214R\361\0229\026\345x/G\200\332@G\216"
 695      D98C52F1 
 695      123916E5 
 695      782F4780 
 695      DA40478E 
 696 0d80 976EE388 		.ascii	"\227n\343\2102\354\23757\036\337\366\2273\334\357\260"
 696      32EC9F35 
 696      371EDFF6 
 696      9733DCEF 
 696      B0
 697 0d91 3FA30392 		.ascii	"?\243\003\222/A\352\241\322\371\035\377F\302\002\213"
 697      2F41EAA1 
 697      D2F91DFF 
 697      46C2028B 
 698 0da1 E5DF541C 		.ascii	"\345\337T\034\2025\257\345[\354\246R\244\334k^&F\270"
 698      8235AFE5 
 698      5BECA652 
 698      A4DC6B5E 
 698      2646B8
 699 0db4 5A8B3102 		.ascii	"Z\2131\0029\337\366m\363\367\234\267a\211d\354\324]"
 699      39DFF66D 
 699      F3F79CB7 
 699      618964EC 
 699      D45D
 700 0dc6 A0639C3E 		.ascii	"\240c\234>j\214S\355%1\316\306Nm\3068f\034\302\257\206"
 700      6A8C53ED 
 700      2531CEC6 
ARM GAS  /tmp/ccdzPRNH.s 			page 55


 700      4E6DC638 
 700      661CC2AF 
 701 0ddb E5BF6237 		.ascii	"\345\277b7\362\257i\233?\270\370\032\355\325\035\335"
 701      F2AF699B 
 701      3FB8F81A 
 701      EDD51DDD 
 702 0deb CBEB9002 		.ascii	"\313\353\220\002\251\333\276\340d\355nj\310\354s\015"
 702      A9DBBEE0 
 702      64ED6E6A 
 702      C8EC730D 
 703 0dfb E63781AD 		.ascii	"\3467\201\255\247\301\016\360\2009\004'\033h\260#\256"
 703      A7C10EF0 
 703      80390427 
 703      1B68B023 
 703      AE
 704 0e0c C1CCCC36 		.ascii	"\301\314\3146\321`'x\300\034\202\223:\032\354\264k0"
 704      D1602778 
 704      C01C8293 
 704      3A1AECB4 
 704      6B30
 705 0e1e BF55F70A 		.ascii	"\277U\367\012\255\274C\026\247x\31143\025\207\376t\224"
 705      ADBC4316 
 705      A778C934 
 705      331587FE 
 705      7494
 706 0e30 3351CE46 		.ascii	"3Q\316F9\027\345|\236)a\222\227\232\022\276E\302\257"
 706      3917E57C 
 706      9E296192 
 706      979A12BE 
 706      45C2AF
 707 0e43 B5CF6360 		.ascii	"\265\317c`J8z\376\304o\324\247\263\314\353c\304\036"
 707      4A387AFE 
 707      C46FD4A7 
 707      B3CCEB63 
 707      C41E
 708 0e55 760CDEA6 		.ascii	"v\014\336\246\031\\t\315\300O3H\334\250U\237,\352\017"
 708      195C74CD 
 708      C04F3348 
 708      DCA8559F 
 708      2CEA0F
 709 0e68 F89A583C 		.ascii	"\370\232X<\253\207-N\273\017\265\035\227>\243\203\335"
 709      AB872D4E 
 709      BB0FB51D 
 709      973EA383 
 709      DD
 710 0e79 720D9666 		.ascii	"r\015\226f\002\253\336M\201\275\324\331-Xf+\217P}\341"
 710      02ABDE4D 
 710      81BDD4D9 
 710      2D58662B 
 710      8F507DE1 
 711 0e8d 75F48589 		.ascii	"u\364\205\211\330\347o\241\\\210\362=\224\213i/\220"
 711      D8E76FA1 
 711      5C88F23D 
 711      948B692F 
 711      90
 712 0e9e 84899DD9 		.ascii	"\204\211\235\331\373Qur\244P\215YT\340\305\265\353\333"
 712      FB517572 
ARM GAS  /tmp/ccdzPRNH.s 			page 56


 712      A4508D59 
 712      54E0C5B5 
 712      EBDB
 713 0eb0 97E9BE5D 		.ascii	"\227\351\276]\320\331\355\202c\352[Xpv7\250\013\216"
 713      D0D9ED82 
 713      63EA5B58 
 713      707637A8 
 713      0B8E
 714 0ec2 FEDEF522 		.ascii	"\376\336\365\"\036D\253\020\317\352\217\376\212\260"
 714      1E44AB10 
 714      CFEA8FFE 
 714      8AB0
 715 0ed0 2C2EC57B 		.ascii	",.\305{\300e\370\352\363g(w\243<\214\262\021\345\\\334"
 715      C065F8EA 
 715      F3672877 
 715      A33C8CB2 
 715      11E55CDC 
 716 0ee4 4FF812D7 		.ascii	"O\370\022\327\342z\224/\241i>\3401\315\022\3435\350"
 716      E27A942F 
 716      A1693EE0 
 716      31CD12E3 
 716      35E8
 717 0ef6 E4B74516 		.ascii	"\344\267E\026p~\303\206\024Yd\324g\006\033\331x\260"
 717      707EC386 
 717      145964D4 
 717      67061BD9 
 717      78B0
 718 0f08 ABB5D4E8 		.ascii	"\253\265\324\350\220{\204yJ\342B\343\236\033\007{\314"
 718      907B8479 
 718      4AE242E3 
 718      9E1B077B 
 718      CC
 719 0f19 25635669 		.ascii	"%cVinyAT\277\265-\011W\0317\371\245\360\266\242LV\032"
 719      6E794154 
 719      BFB52D09 
 719      571937F9 
 719      A5F0B6A2 
 720 0f30 C20355E6 		.ascii	"\302\003U\346p\353\233IJ,\363\336c\331\226\246\237V"
 720      70EB9B49 
 720      4A2CF3DE 
 720      63D996A6 
 720      9F56
 721 0f42 6DEAD68C 		.ascii	"m\352\326\214jQ\357\264\251mT\324\214\360O\302B\262"
 721      6A51EFB4 
 721      A96D54D4 
 721      8CF04FC2 
 721      42B2
 722 0f54 607EAC14 		.ascii	"`~\254\024t\307\327O\005\255\222\251\307\226{M\337\331"
 722      74C7D74F 
 722      05AD92A9 
 722      C7967B4D 
 722      DFD9
 723 0f66 47951A13 		.ascii	"G\225\032\023-\023w\215\021\241\331\233\344[V\374_\336"
 723      2D13778D 
 723      11A1D99B 
 723      E45B56FC 
 723      5FDE
ARM GAS  /tmp/ccdzPRNH.s 			page 57


 724 0f78 59E7B5F8 		.ascii	"Y\347\265\370\362\216\251/\340N8\323\322.-\305\003\365"
 724      F28EA92F 
 724      E04E38D3 
 724      D22E2DC5 
 724      03F5
 725 0f8a E22BBD64 		.ascii	"\342+\275d\253e\255\263]4\365\252\225\327\225\0273\305"
 725      AB65ADB3 
 725      5D34F5AA 
 725      95D79517 
 725      33C5
 726 0f9c A47E6B59 		.ascii	"\244~kY"
 727 0fa0 FD3EB6D4 		.ascii	"\375>\266\324\357\346\336\327\322\252\3074\266\264\334"
 727      EFE6DED7 
 727      D2AAC734 
 727      B6B4DC
 728 0faf C3AFDC66 		.ascii	"\303\257\334fM9C\037IX\312(\223d\245,R<IR\233XR\211"
 728      4D39431F 
 728      4958CA28 
 728      9364A52C 
 728      523C4952 
 729 0fc7 D6A4DE6C 		.ascii	"\326\244\336lL\254\204h\335%\247-\026\234>\263\346\244"
 729      4CAC8468 
 729      DD25A72D 
 729      169C3EB3 
 729      E6A4
 730 0fd9 98397DCA 		.ascii	"\2309}\312r\372\314\222Ss\255\312i~_~R\3338\274`\017"
 730      72FACC92 
 730      5373ADCA 
 730      697E5F7E 
 730      52DB38BC 
 731 0fef A7176CE5 		.ascii	"\247\027l\345\362\002\205\361\202\255\254r;,\225\273"
 731      F20285F1 
 731      82ADAC72 
 731      3B2C95BB 
 732 0fff B9       		.ascii	"\271"
 733 1000 57574E25 		.ascii	"WWN%-\011\307\255i\335bi}\321.Z_\260\264\376bMk\237"
 733      2D09C7AD 
 733      69DD6269 
 733      7DD12E5A 
 733      5FB0B4FE 
 734 1018 E6073AAB 		.ascii	"\346\007:\253s\326\254V\205\031Vu\355bU\307\262\332"
 734      73D6AC56 
 734      85195675 
 734      ED6255C7 
 734      B2DA
 735 102a D39A55E3 		.ascii	"\323\232U\343\205\304\332\006\206\325\213],Y\255`Y\355"
 735      85C4DA06 
 735      86D58B5D 
 735      2C59AD60 
 735      59ED
 736 103c 6F17ABFD 		.ascii	"o\027\253\375,\253/-m\265q\333\366\344<\245\016\007"
 736      2CAB2F2D 
 736      6DB571DB 
 736      F6E43CA5 
 736      0E07
 737 104e 4998DB85 		.ascii	"I\230\333\205g\000\034`\0338h\331\300\325\351\273Z5"
 737      67001C60 
ARM GAS  /tmp/ccdzPRNH.s 			page 58


 737      1B3868D9 
 737      C0D5E9BB 
 737      5A35
 738 1060 F02E5703 		.ascii	"\360.W\003\207\331\006\216X60\353P\322\256*\372\006"
 738      87D9068E 
 738      583630EB 
 738      50D2AE2A 
 738      FA06
 739 1072 2EF4632C 		.ascii	".\364c,\372qK\364:\026}\037\027\372\011\026\375\244"
 739      FA714BF4 
 739      3A167D1F 
 739      17FA0916 
 739      FDA4
 740 1084 257A138B 		.ascii	"%z\023\213~\206\013\375k\026\375\224\205\307\221\273"
 740      7E860BFD 
 740      6B16FD94 
 740      85C791BB 
 741 1094 DB3DA367 		.ascii	"\333=\243g,W\306\253\353*3\377\220o0\333M@g\331\011"
 741      2C57C6AB 
 741      EB2A33FF 
 741      906F30DB 
 741      4D4067D9 
 742 10a9 8804516C 		.ascii	"\210\004Ql\210`\365\233*\374s\334\337\330&\036i\335"
 742      8860F59B 
 742      2AFC73DC 
 742      DFD8261E 
 742      69DD
 743 10bb 02EFD731 		.ascii	"\002\357\3271WM\302\257c\236\363\342\273\037\214\005"
 743      574DC2AF 
 743      639EF3E2 
 743      BB1F8C05 
 744 10cb 99C884B4 		.ascii	"\231\310\204\264k\307\351\222\327\376\353\230\255\257"
 744      6BC7E992 
 744      D7FEEB98 
 744      ADAF
 745 10d9 D1CC59B2 		.ascii	"\321\314Y\262\222\360jW\266#\325BW\254{j\363\305>\266"
 745      92F06A57 
 745      B623D542 
 745      57AC7B6A 
 745      F3C53EB6 
 746 10ed 3DE560C5 		.ascii	"=\345`\305&\326\212K\351\216\252\361\2646#\214n\033"
 746      26D68A4B 
 746      E98EAAF1 
 746      B436238C 
 746      6E1B
 747 10ff 663F5832 		.ascii	"f?X2[\271\342R\217\231\312\247\343\225\226\226\027\\"
 747      5BB9E252 
 747      8F99CAA7 
 747      E3959696 
 747      175C
 748 1111 04323758 		.ascii	"\00427Xb\244K\035\373\027n\375l\2105[\022\233S{\313"
 748      62A44B1D 
 748      FB176EFD 
 748      6C88355B 
 748      129B537B 
 749 1126 9324A64F 		.ascii	"\223$\246O\2517l \024\237\025\304\221\363\027G\267C"
 749      A9376C20 
ARM GAS  /tmp/ccdzPRNH.s 			page 59


 749      149F15C4 
 749      91F31747 
 749      B743
 750 1138 B7B13E8B 		.ascii	"\267\261>\213\321\301\350\362\312\355\326D\306[\022"
 750      D1C1E8F2 
 750      CAEDD644 
 750      C65B12
 751 1147 59DA7CE1 		.ascii	"Y\332|\341\277)]\324\251`\226\015\304\0043\304\317\205"
 751      BF295DD4 
 751      A960960D 
 751      C40433C4 
 751      CF85
 752 1159 054A631D 		.ascii	"\005Jc\035\304\320\237\254\026\337P\224\355\344g\205"
 752      C4D09FAC 
 752      16DF5094 
 752      EDE46785 
 753 1169 5AC47BF4 		.ascii	"Z\304{\364\037+\372 \211\242\251c\376i\"\244o\000\022"
 753      1F2BFA20 
 753      89A2A963 
 753      FE6922A4 
 753      6F0012
 754 117c B00B64E2 		.ascii	"\260\013d\3428X\261c,qG\345Z\213\330\342\351\"Tk;G\262"
 754      3858B163 
 754      2C7147E5 
 754      5A8BD8E2 
 754      E922546B 
 755 1193 F88A71BB 		.ascii	"\370\212q\273\250d\350P\011\021\253\323\345^u(\007W"
 755      A864E850 
 755      0911ABD3 
 755      E55E7528 
 755      0757
 756 11a5 7D5D3067 		.ascii	"}]0gz\205\016\213\330Y\3755\237\361\316pF\272\221\241"
 756      7A850E8B 
 756      D859FD35 
 756      9FF1CE70 
 756      46BA91A1 
 757 11b9 7F4BCA28 		.ascii	"\177K\312(E\236~\260\232[\320x\335P\235\231'\316:\314"
 757      459E7EB0 
 757      9A5BD078 
 757      DD509D99 
 757      27CE3ACC 
 758 11cd 13137DAD 		.ascii	"\023\023}\255\357{\022X\253\332f\327\200\331\346\260"
 758      EF7B1258 
 758      ABDA66D7 
 758      80D9E6B0 
 759 11dd DA894BDE 		.ascii	"\332\211K\336{\277L\310%\267\364\276)\321\266\364|\244"
 759      7BBF4CC8 
 759      25B7F4BE 
 759      29D1B6F4 
 759      7CA4
 760 11ef 37B7323E 		.ascii	"7\2672>\3216\020\316\003>fOof\203\272\247\347\343\331"
 760      D13610CE 
 760      033E664F 
 760      6F6683BA 
 760      A7E7E3D9 
 761 1203 D39BDB40 		.ascii	"\323\233\333@\357\351\311\3424\014JH\335\366\355\351"
 761      EFE9C9E2 
ARM GAS  /tmp/ccdzPRNH.s 			page 60


 761      340C4A48 
 761      DDF6EDE9 
 762 1213 CD6BA0F6 		.ascii	"\315k\240\366\247\366\242Bn\300\374&\260\2454\330!\036"
 762      A7F6A242 
 762      6EC0FC26 
 762      B0A534D8 
 762      211E
 763 1225 30873DBD 		.ascii	"0\207=\275\3454\330q\327`ff+i\260\257x\300\034\366\364"
 763      E534D871 
 763      D7606666 
 763      2B69B0AF 
 763      78C01CF6 
 764 123a 56D360E7 		.ascii	"V\323`\347\\\203\231\231\255\245\301\256\362\2009<\225"
 764      5C839999 
 764      ADA5C1AE 
 764      F280393C 
 764      95
 765 124b 5F4F7F71 		.ascii	"_O\177q\277\3315\230\231\331\006\232\331\313wp\200\371"
 765      BFD93598 
 765      99D9069A 
 765      D9CB7770 
 765      80F9
 766 125d ED6DB689 		.ascii	"\355m\266\211\006{\3035\030\305\014FL\335o\253emv#o"
 766      067BC335 
 766      18C50C46 
 766      4CDD6FAB 
 766      656D7623 
 767 1272 CFA90A6B 		.ascii	"\317\251\012k%\373\232\275A\026\027\273\236\334\376"
 767      25FB9ABD 
 767      411617BB 
 767      9EDCFE
 768 1281 6C33B989 		.ascii	"l3\271\211\232J\260\032\260\012\230Z\265\332\2712[c"
 768      9A4AB01A 
 768      B00A985A 
 768      B5DAB932 
 768      5B63
 769 1293 2F6D8D77 		.ascii	"/m\215wx\254\341\360\\r?\015\366\276k0s\247\327\323"
 769      78ACE1F0 
 769      5C723F0D 
 769      F6BE6B30 
 769      73A7D7D3 
 770 12a7 602B79C0 		.ascii	"`+y\300\034\276Iw\200v\307\015\256\301\314\314\016\321"
 770      1CBE4977 
 770      8076C70D 
 770      AEC1CCCC 
 770      0ED1
 771 12b9 CCB6F280 		.ascii	"\314\266\362\200\365\265\267\331\021\032\254\3265\230"
 771      F5B5B7D9 
 771      111AACD6 
 771      3598
 772 12c7 D91D8FFD 		.ascii	"\331\035\217\375\226`\021?\223\204z\036\317px,y\201"
 772      9660113F 
 772      93847A1E 
 772      CF70782C 
 772      7981
 773 12d9 26D6C843 		.ascii	"&\326\310C\314\356\273o\344\3617\015\366\255k0\263\375"
 773      CCEEBB6F 
ARM GAS  /tmp/ccdzPRNH.s 			page 61


 773      E4F1370D 
 773      F6AD6B30 
 773      B3FD
 774 12eb AFD06057 		.ascii	"\257\320`Wx\300\034\276\373\326d\232\250\\\203\231\231"
 774      78C01CBE 
 774      FBD6649A 
 774      A85C8399 
 774      99
 775 12fc 5D334D54 		.ascii	"]3MT\3358\300\236\261\267\331u\032l\262k0\263g\334\244"
 775      DD38C09E 
 775      B1B7D975 
 775      1A6CB26B 
 775      30B367DC 
 776 1311 3C630E8B 		.ascii	"<c\016\213e\345\031%\366\304\232ib\357\362\020\253\264"
 776      65E51925 
 776      F6C49A69 
 776      62EFF210 
 776      ABB4
 777 1323 07AB3E44 		.ascii	"\007\253>D\201-q\015f\326r\362\177\031Z~\304\243\345"
 777      812D710D 
 777      66D672F2 
 777      7F195A7E 
 777      C4A3E5
 778 1336 687B6253 		.ascii	"h{bShb\353x\210)\242=\3324\032m\263{4\277`\373G\007"
 778      6862EB78 
 778      8829A23D 
 778      DA341A6D 
 778      B37B34BF 
 779 134e 72B238C5 		.ascii	"r\2628\305\207\217\337|d\267\177\032\312\031(g\241\234"
 779      878FDF7C 
 779      64B77F1A 
 779      CA192867 
 779      A19C
 780 1360 83721ECA 		.ascii	"\203r\036\3127Q\276\205\362\035\224\357\242\\\204\362"
 780      3751BE85 
 780      F21D94EF 
 780      A25C84F2 
 781 1370 7D941FA2 		.ascii	"}\224\037\242\\\212r9\312\225(W\243\\\213r=\312\015"
 781      5C8A7239 
 781      CA952857 
 781      A35C8B72 
 781      3DCA0D
 782 1383 2837A14C 		.ascii	"(7\241L\240\374\024\345g(\267\242\334\216r'\312/P\326"
 782      A0FC14E5 
 782      6728B7A2 
 782      DC8E7227 
 782      CA2F50D6 
 783 1397 A2ACF351 		.ascii	"\242\254\363QO%\230\200\273\332\306JD\357\275>\247\320"
 783      4F259880 
 783      BBDAC64A 
 783      44EFBD3E 
 783      A7D0
 784 13a9 F919BDB8 		.ascii	"\371\031\275\270\361`?\261\242\226\274y\273\017\203"
 784      F1603FB1 
 784      A296BC79 
 784      BB0F83
 785 13b8 E69DDDDA 		.ascii	"\346\235\335\332\014\232M\020\244\305z6d\236\256>\306"
ARM GAS  /tmp/ccdzPRNH.s 			page 62


 785      0C9A4D10 
 785      A4C57A36 
 785      649EAE3E 
 785      C6
 786 13c9 AFE70A99 		.ascii	"\257\347\012\231g\327\232C\346]>I\303\344\215r\315x"
 786      67D79A43 
 786      E65D3E49 
 786      C3E48D72 
 786      CD78
 787 13db 73E83747 		.ascii	"s\3507G\216\242:n\300\374&\260y4\330\011\0360\253\220"
 787      8EA23A6E 
 787      C0FC26B0 
 787      7934D809 
 787      1E30AB90 
 788 13ef D9DA41EB 		.ascii	"\331\332A\353)\007m@\007=\200\035\177\020\345a\207\356"
 788      29076D40 
 788      073D801D 
 788      7F10E561 
 788      87EE
 789 1401 DFE7D0FD 		.ascii	"\337\347\320\375G-\356\267\324Z\333\034\356\322\216"
 789      472DEEB7 
 789      D45ADB1C 
 789      EED28E
 790 1410 D9DEA5B9 		.ascii	"\331\336\245\271\370I.\316\232p[\214/\0023\265\223\021"
 790      F8492ECE 
 790      9A705B8C 
 790      2F0233B5 
 790      9311
 791 1422 E38C4EEA 		.ascii	"\343\214N\352\327[\265\272\246\237\330\303\355B-b4\""
 791      D75BB5BA 
 791      A69FD8C3 
 791      ED422D62 
 791      3422
 792 1434 C1E4BD34 		.ascii	"\301\344\2754S\265\267^5U\253p\322u\260\371\225M\260"
 792      53B5B75E 
 792      3555AB70 
 792      D275B0F9 
 792      954DB0
 793 1447 99626DE3 		.ascii	"\231bm\343&\007\033\177m\3308\371\273\213\011\333\337"
 793      26071B7F 
 793      6DD838F9 
 793      BB8B09DB 
 793      DF
 794 1458 5D94C56F 		.ascii	"]\224\305o\360\221\246\343O*2\026w\361\263|\2345\301"
 794      F091A6E3 
 794      4F2A3216 
 794      77F1B37C 
 794      9C35C1
 795 146b 9CC882A9 		.ascii	"\234\310\202\251\235\374\015\306\204\355o0\312\342w"
 795      9DFC0DC6 
 795      84ED6F30 
 795      CAE277
 796 147a 58B3AD1F 		.ascii	"X\263\255\037U\324\036k\316>\177\350\317\342'\013'("
 796      55D41E6B 
 796      CE3E7FE8 
 796      CFE2270B 
 796      2728
ARM GAS  /tmp/ccdzPRNH.s 			page 63


 797 148c 648BF785 		.ascii	"d\213\367\205\371\211L\325\226\2220\363N\313\215\377"
 797      F9894CD5 
 797      969230F3 
 797      4ECB8DFF 
 798 149c AB64E37F 		.ascii	"\253d\343\177)nb.\301\022\337\370\3546\376\361\031*"
 798      296E622E 
 798      C112DFF8 
 798      EC36FEF1 
 798      192A
 799 14ae 56AB5666 		.ascii	"V\253Vf\253O6\325/\225|\324FEmKP\333T>H?\331$\225L\203"
 799      AB4F36D5 
 799      2F957CD4 
 799      46456D4B 
 799      50DB543E 
 800 14c9 F95BF346 		.ascii	"\371[\363F\023\343\0267\034\334\342\202\355\200]\347"
 800      13E31637 
 800      1CDCE282 
 800      ED805DE7 
 801 14d9 50EBA26D 		.ascii	"P\353\242m-\262\343fW\353\222m\255\315\016m]6j%\277"
 801      2DB2E366 
 801      57EB926D 
 801      ADCD0E6D 
 801      5D366A25 
 802 14ee E497F811 		.ascii	"\344\227\370\021\336\307f|\220\363\245\023\216o\350"
 802      DEC7667C 
 802      90F3A513 
 802      8E6FE8
 803 14fd CB620BCE 		.ascii	"\313b\013\3160m|\267\2271\301\026\007\023|o\230@\370"
 803      306D7CB7 
 803      9731C116 
 803      07137C6F 
 803      9840F8
 804 1510 6556552C 		.ascii	"eVU,\232%G\313\356+\257(\017\337\027\226\207G\262\""
 804      9A2547CB 
 804      EE2BAF28 
 804      0FDF1796 
 804      8747B222 
 805 1524 E5A1D2AA 		.ascii	"\345\241\322\252\342pV,^\034)\217\337_\"\244U\30117"
 805      E270562C 
 805      5E1C298F 
 805      DF5F22A4 
 805      55C13137 
 806 1538 27184F79 		.ascii	"'\030Oy\354\211'\375yB/\207Jer\250$R\036\316\012\026"
 806      EC8927FD 
 806      79422F87 
 806      4A6572A8 
 806      24521ECE 
 807 154e 8747C855 		.ascii	"\207G\310U\245\361`\374\371\312p\014@:\004\203:L\377"
 807      A5F160FC 
 807      F9CA700C 
 807      403A0483 
 807      3A4CFF
 808 1561 AC928AB2 		.ascii	"\254\222\212\262pV\250\242\370\371\254\342\360\250,"
 808      7056A8A2 
 808      F8F9ACE2 
 808      F0A82C
 809 1570 A8313C52 		.ascii	"\2501<R\021\313\212G\253\312\377\220\005\231\022\271"
ARM GAS  /tmp/ccdzPRNH.s 			page 64


 809      11CB8A47 
 809      ABCAFF90 
 809      059912B9 
 810 1580 34ABB222 		.ascii	"4\253\262\"\032\217e\025\026\015\311\315Q\345\200^\243"
 810      1A8F6515 
 810      160DC9CD 
 810      51E5805E 
 810      A3
 811 1591 4767C9C5 		.ascii	"Gg\311\305\241`ii1\340\245\367\353\237\327?\032\031"
 811      A1606969 
 811      31E0A5F7 
 811      EB9FD73F 
 811      1A19
 812 15a3 158EE6F0 		.ascii	"\025\216\346\360\300\351\374\000\200\220\201C,.\307"
 812      C0E9FC00 
 812      80908143 
 812      2C2EC7
 813 15b2 C3C17807 		.ascii	"\303\301x\007\300\011>\371\304\240'\006\025\245\221"
 813      C0093EF9 
 813      C4A02706 
 813      15A591
 814 15c1 6C61D1D0 		.ascii	"la\321\320\002\202\035\014\344\367\353\377\237x\265"
 814      02821D0C 
 814      E4F7EBFF 
 814      9F78B5
 815 15d0 5F5ED1A0 		.ascii	"_^\321\240a\371\031$\2337tH\301\340\374\242|,\221\037"
 815      61F91924 
 815      9B377448 
 815      C1E0FCA2 
 815      7C2C911F 
 816 15e4 080C0DF8 		.ascii	"\010\014\015\370\020\307W\\UV\366<9\233WQ>\"22%\204"
 816      10C7575C 
 816      5556F63C 
 816      399B5751 
 816      3E223232 
 817 15fa 878EA41D 		.ascii	"\207\216\244\035\271\254\262\024\032B+f?\010-\252\226"
 817      B9ACB214 
 817      1A422B66 
 817      3F082DAA 
 817      96
 818 160b 20D954F5 		.ascii	" \331T\365b,\007-Z\032\031\23652\024b,\333\353\376\336"
 818      622C072D 
 818      5A1A199E 
 818      35321462 
 818      2CDBEBFE 
 819 1620 F7F7A23B 		.ascii	"\367\367\242;\005,\013*\244\304\"\177\004T_q\2702^\342"
 819      052C0B2A 
 819      A4C4227F 
 819      04545F71 
 819      B8325EE2 
 820 1634 0B3E5A51 		.ascii	"\013>ZQQ\232\026\212DCU\245r\264+1S\250D./\017\227\306"
 820      519A168A 
 820      444355A5 
 820      72B42B31 
 820      53A8442E 
 821 164c 82E55565 		.ascii	"\202\345Ue\301x\006\221\372\251\333\340zH.-\035.\207"
 821      C1780691 
ARM GAS  /tmp/ccdzPRNH.s 			page 65


 821      FAA9DBE0 
 821      7A482E2D 
 821      1D2E87
 822 165f FE00BD1A 		.ascii	"\376\000\275\032./\016\206\206\023\233\204\243\321\212"
 822      2E2F0E86 
 822      86139B84 
 822      A3D18A
 823 166e 6830DE55 		.ascii	"h0\336U\323.\330\177H\277\001\375\006\015~2\220\237"
 823      D32ED87F 
 823      48BF01FD 
 823      060D7E32 
 823      909F
 824 1680 A99F1A3A 		.ascii	"\251\237\032:,?0`\360\320\337v\325\213\033@ij\365\320"
 824      2C3F3060 
 824      F0D0DF76 
 824      D58B1B40 
 824      696AF5D0 
 825 1694 704F289A 		.ascii	"pO(\232\015)\307\027+\253\214f\243\314\361\306\236\215"
 825      0D29C717 
 825      2BAB8C66 
 825      A3CCF1C6 
 825      9E8D
 826 16a6 661381B9 		.ascii	"f\023\201\271\334\256\252\251\240\373b\221\212\362\307"
 826      DCAEAAA9 
 826      A0FB6291 
 826      8AF2C7
 827 16b5 A2155595 		.ascii	"\242\025U\225\336\221\321\312\312\336muf4\236\264E\250"
 827      DE91D1CA 
 827      CADE6D75 
 827      66349EB4 
 827      45A8
 828 16c7 24F67C4C 		.ascii	"$\366|L\367\257\264xI4,\027\007\343\351\241\222\240"
 828      F7AFB478 
 828      49342C17 
 828      07E3E9A1 
 828      92A0
 829 16d9 9AEFE50E 		.ascii	"\232\357\345\016+TB\374*\2452X\036\036\035\207Ce4<j"
 829      2B5442FC 
 829      2AA53258 
 829      1E1E1D87 
 829      4365343C 
 830 16ee 200784EA 		.ascii	" \007\204\352\251\375\002C\362\206\214\206\222e\225"
 830      A9FD0243 
 830      F2868C86 
 830      926595
 831 16fd 9152D02A 		.ascii	"\221R\320*\353\261\274<(\256\323K\215WF#\025A\0257R"
 831      EBB1BC3C 
 831      28AED34B 
 831      8D574623 
 831      15411537 
 832 1712 910AFE11 		.ascii	"\221\012\376\021\207f\036v\215_\022\252\210\206\001"
 832      87661E76 
 832      8D5F12AA 
 832      888601
 833 1721 B023391D 		.ascii	"\260#9\035\004?\012\305G\377{\373P\202\243\036*#\226"
 833      043F0AC5 
 833      47FF7BFB 
ARM GAS  /tmp/ccdzPRNH.s 			page 66


 833      5082A31E 
 833      2A2396
 834 1734 8B864782 		.ascii	"\213\206G\202\313\005\343\236X\366\203\220\036\202\324"
 834      CB05E39E 
 834      58F68390 
 834      1E82D4
 835 1743 1BD2C39E 		.ascii	"\033\322\303\236XNOH\331\220r \345B\352\005\351\001"
 835      584E4F48 
 835      D9907220 
 835      E542EA05 
 835      E901
 836 1755 48502E07 		.ascii	"HP.\007\312\345@\271\034(\227\013\345r\263\245h/)\372"
 836      CAE540B9 
 836      1C28970B 
 836      E572B3A5 
 836      682F29FA 
 837 1769 80147D50 		.ascii	"\200\024}P\212>$E{K\321\207=\321\354\236\220\262\245"
 837      8A3E2445 
 837      7B4BD187 
 837      3DD1EC9E 
 837      90B2A5
 838 177c D2281C72 		.ascii	"\322(\034r}\225A`\233J,\374\\8\012\307\212\322\342p"
 838      7D954160 
 838      9B4A2CFC 
 838      5C380AC7 
 838      8AD2E270 
 839 1790 D40B6E19 		.ascii	"\324\013n\031%f\227\313\302iqmX\246\222!\322\033zS\035"
 839      256697CB 
 839      C269716D 
 839      58A69221 
 839      D21B7A53 
 840 17a5 2C9083E2 		.ascii	",\220\203\342x-5^VQ\034\306\317#J\345\221\261\324x4"
 840      782D355E 
 840      56511CC6 
 840      CF234AE5 
 840      91B1D478 
 841 17ba 3C228696 		.ascii	"<\"\206\226%\031_Yl$\\\324\246\032\250\256\317]\321"
 841      25195F59 
 841      6C245CD4 
 841      A61AA8AE 
 841      CF5DD1
 842 17cd E2E7E1   		.ascii	"\342\347\341"
 843 17d0 525A7874 		.ascii	"RZxt$\016\206\012\247<\027\257\030\376\373\312\216\341"
 843      240E860A 
 843      A73C17AF 
 843      18FEFBCA 
 843      8EE1
 844 17e2 51E1F278 		.ascii	"Q\341\362x\231\034\303\201\360\034\311x*\203U\235T\017"
 844      991CC381 
 844      F01CC978 
 844      2A83559D 
 844      540F
 845 17f4 8A054B23 		.ascii	"\212\005K#1\230\303:'}J=\223^\031|N\216\304#\345#;\353"
 845      3198C33A 
 845      277D4A3D 
 845      935E197C 
 845      4E8EC423 
ARM GAS  /tmp/ccdzPRNH.s 			page 67


 846 180c A79FAD0A 		.ascii	"\247\237\255\012W\001\253L\252$\236\352P\031\204f1\353"
 846      5701AB4C 
 846      AA249EEA 
 846      50198466 
 846      31EB
 847 181e C32C9C08 		.ascii	"\303,\234\010W\302\220\203\312\276\262*p\202\\WnZ\026"
 847      57C29083 
 847      CABEB22A 
 847      70825C57 
 847      6E5A16
 848 1831 1F4DDCA9 		.ascii	"\037M\334\251LE\207c\305s\345`KD\002\025\312\320{\201"
 848      4C458763 
 848      C573E560 
 848      4B440215 
 848      CAD07B81 
 849 1845 1F94234C 		.ascii	"\037\224#L;\020\253\310\245\350sp\262\022\246\211\207"
 849      3B10ABC8 
 849      A5E87370 
 849      B212A689 
 849      87
 850 1856 5CB5A729 		.ascii	"\\\265\247)\003mv\325F\030X9\034\015\227\207@\333\024"
 850      036D76D5 
 850      46185839 
 850      1C0D9787 
 850      40DB14
 851 1869 F5D46FDA 		.ascii	"\365\324o\332B\004JYyC\012\007\025\302T\016SXYn\316"
 851      42044A59 
 851      79430A07 
 851      15C2540E 
 851      5358596E 
 852 187e 885E3DB3 		.ascii	"\210^=\263G\243\037\223\211\245\010FI\377\360\010\251"
 852      47A31F93 
 852      89A50846 
 852      49FFF008 
 852      A9
 853 188f 30E0C90B 		.ascii	"0\340\311\013dC\312\361\025\016)\010d\243\314\361=>"
 853      6443CAF1 
 853      150E2908 
 853      64A3CCF1 
 853      3D3E
 854 18a1 7400E489 		.ascii	"t\000\344\211T\363\271({y\006\026\005<\203\213\002\336"
 854      54F3B928 
 854      7B790616 
 854      053C838B 
 854      02DE
 855 18b3 C2FF0864 		.ascii	"\302\377\010d\023\221CD\256\367q\220\336\307\373\303"
 855      13914344 
 855      AEF77190 
 855      DEC7FBC3 
 856 18c3 39103944 		.ascii	"9\0209D\344\022\321K\352\037\360\300\2545\240\375\313"
 856      E412D14B 
 856      EA1FF0C0 
 856      AC35A0FD 
 856      CB
 857 18d4 0F520F16 		.ascii	"\017R\017\026\227\311\304\03409\006\013\301\371\344"
 857      97C9C41C 
 857      3039060B 
ARM GAS  /tmp/ccdzPRNH.s 			page 68


 857      C1F9E4
 858 18e3 B224FFBC 		.ascii	"\262$\377\274\200\367\211\376@\252\240_\300;\244'\021"
 858      80F789FE 
 858      40AAA05F 
 858      C03BA427 
 858      11
 859 18f4 D9FD029E 		.ascii	"\331\375\002\236\001y\201\224\030\026\364FF\204\242"
 859      01798194 
 859      1816F446 
 859      4684A2
 860 1903 29915849 		.ascii	")\221XIdD<=\026.\035\021)/\016\217N\031\025\016\305"
 860      64443C3D 
 860      162E1D11 
 860      292F0E8F 
 860      4E19150E 
 861 1918 2BA25D93 		.ascii	"+\242]\223\350A\2654\330\027>\304\342\225\251p N\377"
 861      E841B534 
 861      D8173EC4 
 861      E295A970 
 861      204EFF
 862 192b 232C9C21 		.ascii	"#,\234!\341n-\033\214\205\243\243\302\301\350h2B`\346"
 862      E16E2D1B 
 862      8C85A3A3 
 862      C2C1E868 
 862      324260E6 
 863 193f AEAA8C7B 		.ascii	"\256\252\214{\341R\245\017G\325\035\311Rq9\032\277\277"
 863      E152A50F 
 863      47D51DC9 
 863      5271391A 
 863      BFBF
 864 1951 92889EB7 		.ascii	"\222\210\236\267\033'+*\325s\331\031\372\271Hy$~\233"
 864      1B272B2A 
 864      D573D919 
 864      FAB94879 
 864      247E9B
 865 1964 A956065D 		.ascii	"\251V\006]\274\273\351R0\224\234\373\357\242KQ\347\323"
 865      BCBBE952 
 865      30949CFB 
 865      EFA24B51 
 865      E7D3
 866 1976 86A1557A 		.ascii	"\206\241Uz\367\356\006\005P\221\374ryxi\270\250pX \177"
 866      F7EE0605 
 866      5091FC72 
 866      797869B8 
 866      A8705820 
 867 198b 40FE9DFA 		.ascii	"@\376\235\372\331\376\221\030u\372vs\341a\217\366+\312"
 867      D9FE9118 
 867      75FA7673 
 867      E1618FF6 
 867      2BCA
 868 199d BF83298A 		.ascii	"\277\203)\212';%\255\035\211\301\222\327\0052jg\366"
 868      273B25AD 
 868      1D89C192 
 868      D705326A 
 868      67F6
 869 19af 2B2DAD08 		.ascii	"+-\255\010\301<\223\021*)*)\016\204cUe\341A\217\360"
 869      C13C9311 
ARM GAS  /tmp/ccdzPRNH.s 			page 69


 869      2A292A29 
 869      0E846355 
 869      65E1418F 
 870 19c4 5B1E5680 		.ascii	"[\036V\200\262\212r}\246-\037\025!\001G&9j\224P-b\251"
 870      B28A727D 
 870      A62D1F15 
 870      21014726 
 870      396A9450 
 871 19db A1C37F0F 		.ascii	"\241\303\177\017\371A`\267\314d\353\201piX\216\205\273"
 871      F94160B7 
 871      CC64EB81 
 871      7069588E 
 871      85BB
 872 19ed 06D5E93D 		.ascii	"\006\325\351=\372,L\026\221\322\212\2210{\220\200'\273"
 872      FA2C4C16 
 872      91D28A91 
 872      307B9080 
 872      27BB
 873 19ff 6B90F592 		.ascii	"k\220\365\222X\307@^r\004\245\026\014\036\2347\340\261"
 873      58C7405E 
 873      7204A516 
 873      0C1E9C37 
 873      E0B1
 874 1a11 8097084F 		.ascii	"\200\227\010O\336\240@Z\277\201\217f\007\012\2130\223"
 874      DEA0405A 
 874      BF818F66 
 874      070A8B30 
 874      93
 875 1a22 A3677249 		.ascii	"\243grI&=\220_\230\037\030\226\337\277gZ\277\002\275"
 875      263D905F 
 875      981F1896 
 875      DFBF675A 
 875      BF02BD
 876 1a35 50815A28 		.ascii	"P\201Z(y-;\225\000\344?\021 \307\034\355\230\013\307"
 876      792D3B95 
 876      00E43F11 
 876      20C71CED 
 876      980BC7
 877 1a48 64899C54 		.ascii	"d\211\234TR\033\257\024`\211\344\225\334tRwp\0019Gj"
 877      521BAF14 
 877      6089E495 
 877      DC745277 
 877      70013947 
 878 1a5d 2773B96A 		.ascii	"'s\271jN/\327+\235 hW\013\364r\372\325\007\274\217\366"
 878      4E2FD72B 
 878      9D206857 
 878      0BF472FA 
 878      D507BC8F 
 879 1a72 CF035D0A 		.ascii	"\317\003]\012\215S\017\372\012\013\363\036\013t\000"
 879      8D530FFA 
 879      0A0BF31E 
 879      0B7400
 880 1a81 6507E514 		.ascii	"e\007\345\024\022U1b\311C\313\353\246\360\344\221Z0"
 880      12553162 
 880      C943CBEB 
 880      A6F0E491 
 880      5A30
ARM GAS  /tmp/ccdzPRNH.s 			page 70


 881 1a93 F679BAAE 		.ascii	"\366y\272\256\"\006\002\346=r\204\356\352B\216E8\267"
 881      220602E6 
 881      3D7284EE 
 881      EA428E45 
 881      38B7
 882 1aa5 690EE089 		.ascii	"i\016\340\211G+=0{\377/\224\330\"\355"
 882      472B3D30 
 882      7BFF2F94 
 882      D822ED
 883              		.text
 884              		.section	.gnu.lto_.symtab.e13d0e97d2d542a7,"",%progbits
 885 0000 41444344 		.ascii	"ADCD1\000\000\000\000\000\000\000\000\000\000\000\000"
 885      31000000 
 885      00000000 
 885      00000000 
 885      00
 886 0011 87020000 		.ascii	"\207\002\000\000adc_lld_init\000\000\000\000\000\000"
 886      6164635F 
 886      6C6C645F 
 886      696E6974 
 886      00000000 
 887 0027 00000000 		.ascii	"\000\000\000\000\000\000B\002\000\000adc_lld_start\000"
 887      00004202 
 887      00006164 
 887      635F6C6C 
 887      645F7374 
 888 003f 00000000 		.ascii	"\000\000\000\000\000\000\000\000\000\000\000F\002\000"
 888      00000000 
 888      00000046 
 888      0200
 889 004d 00616463 		.ascii	"\000adc_lld_stop\000\000\000\000\000\000\000\000\000"
 889      5F6C6C64 
 889      5F73746F 
 889      70000000 
 889      00000000 
 890 0063 0000004C 		.ascii	"\000\000\000L\002\000\000adc_lld_start_conversion\000"
 890      02000061 
 890      64635F6C 
 890      6C645F73 
 890      74617274 
 891 0083 00000000 		.ascii	"\000\000\000\000\000\000\000\000\000\000\000P\002\000"
 891      00000000 
 891      00000050 
 891      0200
 892 0091 00616463 		.ascii	"\000adc_lld_stop_conversion\000\000\000\000\000\000"
 892      5F6C6C64 
 892      5F73746F 
 892      705F636F 
 892      6E766572 
 893 00af 00000000 		.ascii	"\000\000\000\000\000\000T\002\000\000Vector88\000\000"
 893      00005402 
 893      00005665 
 893      63746F72 
 893      38380000 
 894 00c3 00000000 		.ascii	"\000\000\000\000\000\000\000\000\000\000X\002\000\000"
 894      00000000 
 894      00005802 
ARM GAS  /tmp/ccdzPRNH.s 			page 71


 894      0000
 895 00d1 61646353 		.ascii	"adcSTM32EnableTSVREFE\000\000\000\000\000\000\000\000"
 895      544D3332 
 895      456E6162 
 895      6C655453 
 895      56524546 
 896 00ee 00000000 		.ascii	"\000\000\000\000[\002\000\000adcSTM32DisableTSVREFE"
 896      5B020000 
 896      61646353 
 896      544D3332 
 896      44697361 
 897 010c 00000000 		.ascii	"\000\000\000\000\000\000\000\000\000\000\000\000^\002"
 897      00000000 
 897      00000000 
 897      5E02
 898 011a 00006164 		.ascii	"\000\000adcSTM32EnableVBATE\000\000\000\000\000\000"
 898      6353544D 
 898      3332456E 
 898      61626C65 
 898      56424154 
 899 0135 00000000 		.ascii	"\000\000\000\000\000\000a\002\000\000adcSTM32Disabl"
 899      00006102 
 899      00006164 
 899      6353544D 
 899      33324469 
 900 014d 65564241 		.ascii	"eVBATE\000\000\000\000\000\000\000\000\000\000\000\000"
 900      54450000 
 900      00000000 
 900      00000000 
 900      0000
 901 015f 64020000 		.ascii	"d\002\000\000_stm32_dma_streams\000\000\002\000\000"
 901      5F73746D 
 901      33325F64 
 901      6D615F73 
 901      74726561 
 902 017a 00000000 		.ascii	"\000\000\000\000\000\000\000\211\002\000\000dmaStre"
 902      00000089 
 902      02000064 
 902      6D615374 
 902      7265
 903 018c 616D416C 		.ascii	"amAllocate\000\000\002\000\000\000\000\000\000\000\000"
 903      6C6F6361 
 903      74650000 
 903      02000000 
 903      00000000 
 904 01a1 00670200 		.ascii	"\000g\002\000\000chThdResumeI\000\000\002\000\000\000"
 904      00636854 
 904      68645265 
 904      73756D65 
 904      49000002 
 905 01b8 00000000 		.ascii	"\000\000\000\000\000\000u\002\000\000nvicEnableVect"
 905      00007502 
 905      00006E76 
 905      6963456E 
 905      61626C65 
 906 01d0 6F720000 		.ascii	"or\000\000\002\000\000\000\000\000\000\000\000\000z"
 906      02000000 
ARM GAS  /tmp/ccdzPRNH.s 			page 72


 906      00000000 
 906      00007A
 907 01df 02000061 		.ascii	"\002\000\000adcObjectInit\000\000\002\000\000\000\000"
 907      64634F62 
 907      6A656374 
 907      496E6974 
 907      00000200 
 908 01f6 00000000 		.ascii	"\000\000\000\000\000\177\002\000\000dmaStreamReleas"
 908      007F0200 
 908      00646D61 
 908      53747265 
 908      616D5265 
 909 020e 65000002 		.ascii	"e\000\000\002\000\000\000\000\000\000\000\000\000\201"
 909      00000000 
 909      00000000 
 909      0081
 910 021c 0200005F 		.ascii	"\002\000\000_port_irq_epilogue\000\000\002\000\000\000"
 910      706F7274 
 910      5F697271 
 910      5F657069 
 910      6C6F6775 
 911 0237 00000000 		.ascii	"\000\000\000\000\000\000\205\002\000\000"
 911      00008502 
 911      0000
 912              		.text
 913              		.section	.gnu.lto_.opts,"",%progbits
 914 0000 272D6D63 		.ascii	"'-mcpu=cortex-m4' '-mfloat-abi=hard' '-mfpu=fpv4-sp"
 914      70753D63 
 914      6F727465 
 914      782D6D34 
 914      2720272D 
 915 0033 2D643136 		.ascii	"-d16' '-mno-thumb-interwork' '-mthumb' '-O2' '-fomi"
 915      2720272D 
 915      6D6E6F2D 
 915      7468756D 
 915      622D696E 
 916 0066 742D6672 		.ascii	"t-frame-pointer' '-falign-functions=16' '-ffunction"
 916      616D652D 
 916      706F696E 
 916      74657227 
 916      20272D66 
 917 0099 2D736563 		.ascii	"-sections' '-fdata-sections' '-fno-common' '-flto' "
 917      74696F6E 
 917      73272027 
 917      2D666461 
 917      74612D73 
 918 00cc 272D6673 		.ascii	"'-fsingle-precision-constant'\000"
 918      696E676C 
 918      652D7072 
 918      65636973 
 918      696F6E2D 
 919              		.text
 920              		.section	.text.adc_lld_init,"ax",%progbits
 921              		.align	2
 922              		.p2align 4,,15
 923              		.global	adc_lld_init
 924              		.thumb
ARM GAS  /tmp/ccdzPRNH.s 			page 73


 925              		.thumb_func
 926              		.type	adc_lld_init, %function
 927              	adc_lld_init:
 928              		@ args = 0, pretend = 0, frame = 0
 929              		@ frame_needed = 0, uses_anonymous_args = 0
 930 0000 10B5     		push	{r4, lr}
 931 0002 084C     		ldr	r4, .L2
 932 0004 2046     		mov	r0, r4
 933 0006 FFF7FEFF 		bl	adcObjectInit
 934 000a 0749     		ldr	r1, .L2+4
 935 000c 074A     		ldr	r2, .L2+8
 936 000e 084B     		ldr	r3, .L2+12
 937 0010 A162     		str	r1, [r4, #40]
 938 0012 E262     		str	r2, [r4, #44]
 939 0014 2363     		str	r3, [r4, #48]
 940 0016 1220     		movs	r0, #18
 941 0018 0621     		movs	r1, #6
 942 001a BDE81040 		pop	{r4, lr}
 943 001e FFF7FEBF 		b	nvicEnableVector
 944              	.L3:
 945 0022 00BF     		.align	2
 946              	.L2:
 947 0024 00000000 		.word	.LANCHOR0
 948 0028 00200140 		.word	1073815552
 949 002c 90000000 		.word	_stm32_dma_streams+144
 950 0030 162C0200 		.word	142358
 951              		.size	adc_lld_init, .-adc_lld_init
 952 0034 AFF30080 		.section	.text.adc_lld_start,"ax",%progbits
 952      AFF30080 
 952      AFF30080 
 953              		.align	2
 954              		.p2align 4,,15
 955              		.global	adc_lld_start
 956              		.thumb
 957              		.thumb_func
 958              		.type	adc_lld_start, %function
 959              	adc_lld_start:
 960              		@ args = 0, pretend = 0, frame = 0
 961              		@ frame_needed = 0, uses_anonymous_args = 0
 962 0000 0378     		ldrb	r3, [r0]	@ zero_extendqisi2
 963 0002 012B     		cmp	r3, #1
 964 0004 10B5     		push	{r4, lr}
 965 0006 0446     		mov	r4, r0
 966 0008 00D0     		beq	.L8
 967 000a 10BD     		pop	{r4, pc}
 968              	.L8:
 969 000c 104B     		ldr	r3, .L10
 970 000e 9842     		cmp	r0, r3
 971 0010 0DD0     		beq	.L9
 972              	.L6:
 973 0012 1049     		ldr	r1, .L10+4
 974 0014 A36A     		ldr	r3, [r4, #40]
 975 0016 4C68     		ldr	r4, [r1, #4]
 976 0018 04F44004 		and	r4, r4, #12582912
 977 001c 0022     		movs	r2, #0
 978 001e 44F48034 		orr	r4, r4, #65536
 979 0022 0120     		movs	r0, #1
ARM GAS  /tmp/ccdzPRNH.s 			page 74


 980 0024 4C60     		str	r4, [r1, #4]
 981 0026 5A60     		str	r2, [r3, #4]
 982 0028 9A60     		str	r2, [r3, #8]
 983 002a 9860     		str	r0, [r3, #8]
 984 002c 10BD     		pop	{r4, pc}
 985              	.L9:
 986 002e 0A4A     		ldr	r2, .L10+8
 987 0030 C06A     		ldr	r0, [r0, #44]
 988 0032 0621     		movs	r1, #6
 989 0034 2346     		mov	r3, r4
 990 0036 FFF7FEFF 		bl	dmaStreamAllocate
 991 003a E36A     		ldr	r3, [r4, #44]
 992 003c 0749     		ldr	r1, .L10+12
 993 003e 1A68     		ldr	r2, [r3]
 994 0040 074B     		ldr	r3, .L10+16
 995 0042 9160     		str	r1, [r2, #8]
 996 0044 5A6C     		ldr	r2, [r3, #68]
 997 0046 42F48072 		orr	r2, r2, #256
 998 004a 5A64     		str	r2, [r3, #68]
 999 004c E1E7     		b	.L6
 1000              	.L11:
 1001 004e 00BF     		.align	2
 1002              	.L10:
 1003 0050 00000000 		.word	.LANCHOR0
 1004 0054 00230140 		.word	1073816320
 1005 0058 00000000 		.word	adc_lld_serve_rx_interrupt
 1006 005c 4C200140 		.word	1073815628
 1007 0060 00380240 		.word	1073887232
 1008              		.size	adc_lld_start, .-adc_lld_start
 1009 0064 AFF30080 		.section	.text.adc_lld_stop,"ax",%progbits
 1009      AFF30080 
 1009      AFF30080 
 1010              		.align	2
 1011              		.p2align 4,,15
 1012              		.global	adc_lld_stop
 1013              		.thumb
 1014              		.thumb_func
 1015              		.type	adc_lld_stop, %function
 1016              	adc_lld_stop:
 1017              		@ args = 0, pretend = 0, frame = 0
 1018              		@ frame_needed = 0, uses_anonymous_args = 0
 1019 0000 0378     		ldrb	r3, [r0]	@ zero_extendqisi2
 1020 0002 022B     		cmp	r3, #2
 1021 0004 10B5     		push	{r4, lr}
 1022 0006 0446     		mov	r4, r0
 1023 0008 00D0     		beq	.L16
 1024              	.L12:
 1025 000a 10BD     		pop	{r4, pc}
 1026              	.L16:
 1027 000c C06A     		ldr	r0, [r0, #44]
 1028 000e FFF7FEFF 		bl	dmaStreamRelease
 1029 0012 0649     		ldr	r1, .L17
 1030 0014 A36A     		ldr	r3, [r4, #40]
 1031 0016 0022     		movs	r2, #0
 1032 0018 8C42     		cmp	r4, r1
 1033 001a 5A60     		str	r2, [r3, #4]
 1034 001c 9A60     		str	r2, [r3, #8]
ARM GAS  /tmp/ccdzPRNH.s 			page 75


 1035 001e F4D1     		bne	.L12
 1036 0020 034B     		ldr	r3, .L17+4
 1037 0022 5A6C     		ldr	r2, [r3, #68]
 1038 0024 22F48072 		bic	r2, r2, #256
 1039 0028 5A64     		str	r2, [r3, #68]
 1040 002a EEE7     		b	.L12
 1041              	.L18:
 1042              		.align	2
 1043              	.L17:
 1044 002c 00000000 		.word	.LANCHOR0
 1045 0030 00380240 		.word	1073887232
 1046              		.size	adc_lld_stop, .-adc_lld_stop
 1047 0034 AFF30080 		.section	.text.adc_lld_start_conversion,"ax",%progbits
 1047      AFF30080 
 1047      AFF30080 
 1048              		.align	2
 1049              		.p2align 4,,15
 1050              		.global	adc_lld_start_conversion
 1051              		.thumb
 1052              		.thumb_func
 1053              		.type	adc_lld_start_conversion, %function
 1054              	adc_lld_start_conversion:
 1055              		@ args = 0, pretend = 0, frame = 0
 1056              		@ frame_needed = 0, uses_anonymous_args = 0
 1057              		@ link register save eliminated.
 1058 0000 0369     		ldr	r3, [r0, #16]
 1059 0002 026B     		ldr	r2, [r0, #48]
 1060 0004 1978     		ldrb	r1, [r3]	@ zero_extendqisi2
 1061 0006 2DE9F003 		push	{r4, r5, r6, r7, r8, r9}
 1062 000a C468     		ldr	r4, [r0, #12]
 1063 000c 29B1     		cbz	r1, .L21
 1064 000e 012C     		cmp	r4, #1
 1065 0010 94BF     		ite	ls
 1066 0012 42F48072 		orrls	r2, r2, #256
 1067 0016 42F48472 		orrhi	r2, r2, #264
 1068              	.L21:
 1069 001a C16A     		ldr	r1, [r0, #44]
 1070 001c 5E88     		ldrh	r6, [r3, #2]
 1071 001e 0968     		ldr	r1, [r1]
 1072 0020 8568     		ldr	r5, [r0, #8]
 1073 0022 CD60     		str	r5, [r1, #12]
 1074 0024 06FB04F4 		mul	r4, r6, r4
 1075 0028 4C60     		str	r4, [r1, #4]
 1076 002a D3F80C80 		ldr	r8, [r3, #12]
 1077 002e 0A60     		str	r2, [r1]
 1078 0030 826A     		ldr	r2, [r0, #40]
 1079 0032 1869     		ldr	r0, [r3, #16]
 1080 0034 D1F80090 		ldr	r9, [r1]
 1081 0038 9F69     		ldr	r7, [r3, #24]
 1082 003a DE69     		ldr	r6, [r3, #28]
 1083 003c 1D6A     		ldr	r5, [r3, #32]
 1084 003e 5C6A     		ldr	r4, [r3, #36]
 1085 0040 D3F814C0 		ldr	ip, [r3, #20]
 1086 0044 10F0804F 		tst	r0, #1073741824
 1087 0048 48F08063 		orr	r3, r8, #67108864
 1088 004c 40F44070 		orr	r0, r0, #768
 1089 0050 49F00109 		orr	r9, r9, #1
ARM GAS  /tmp/ccdzPRNH.s 			page 76


 1090 0054 4FF00008 		mov	r8, #0
 1091 0058 43F48073 		orr	r3, r3, #256
 1092 005c 14BF     		ite	ne
 1093 005e 40F00300 		orrne	r0, r0, #3
 1094 0062 40F00100 		orreq	r0, r0, #1
 1095 0066 C1F80090 		str	r9, [r1]
 1096 006a C2F80080 		str	r8, [r2]
 1097 006e C2F80CC0 		str	ip, [r2, #12]
 1098 0072 1761     		str	r7, [r2, #16]
 1099 0074 D662     		str	r6, [r2, #44]
 1100 0076 1563     		str	r5, [r2, #48]
 1101 0078 5463     		str	r4, [r2, #52]
 1102 007a 5360     		str	r3, [r2, #4]
 1103 007c BDE8F003 		pop	{r4, r5, r6, r7, r8, r9}
 1104 0080 9060     		str	r0, [r2, #8]
 1105 0082 7047     		bx	lr
 1106              		.size	adc_lld_start_conversion, .-adc_lld_start_conversion
 1107 0084 AFF30080 		.section	.text.adc_lld_stop_conversion,"ax",%progbits
 1107      AFF30080 
 1107      AFF30080 
 1108              		.align	2
 1109              		.p2align 4,,15
 1110              		.global	adc_lld_stop_conversion
 1111              		.thumb
 1112              		.thumb_func
 1113              		.type	adc_lld_stop_conversion, %function
 1114              	adc_lld_stop_conversion:
 1115              		@ args = 0, pretend = 0, frame = 0
 1116              		@ frame_needed = 0, uses_anonymous_args = 0
 1117              		@ link register save eliminated.
 1118 0000 C16A     		ldr	r1, [r0, #44]
 1119 0002 0A68     		ldr	r2, [r1]
 1120 0004 1368     		ldr	r3, [r2]
 1121 0006 23F01F03 		bic	r3, r3, #31
 1122 000a 10B4     		push	{r4}
 1123 000c 1360     		str	r3, [r2]
 1124              	.L27:
 1125 000e 1368     		ldr	r3, [r2]
 1126 0010 13F00103 		ands	r3, r3, #1
 1127 0014 FBD1     		bne	.L27
 1128 0016 0C7A     		ldrb	r4, [r1, #8]	@ zero_extendqisi2
 1129 0018 826A     		ldr	r2, [r0, #40]
 1130 001a 4868     		ldr	r0, [r1, #4]
 1131 001c 3D21     		movs	r1, #61
 1132 001e 01FA04F4 		lsl	r4, r1, r4
 1133 0022 0121     		movs	r1, #1
 1134 0024 0460     		str	r4, [r0]
 1135 0026 5360     		str	r3, [r2, #4]
 1136 0028 5DF8044B 		ldr	r4, [sp], #4
 1137 002c 9360     		str	r3, [r2, #8]
 1138 002e 9160     		str	r1, [r2, #8]
 1139 0030 7047     		bx	lr
 1140              		.size	adc_lld_stop_conversion, .-adc_lld_stop_conversion
 1141 0032 00BFAFF3 		.section	.text.Vector88,"ax",%progbits
 1141      0080AFF3 
 1141      0080AFF3 
 1141      0080
ARM GAS  /tmp/ccdzPRNH.s 			page 77


 1142              		.align	2
 1143              		.p2align 4,,15
 1144              		.global	Vector88
 1145              		.thumb
 1146              		.thumb_func
 1147              		.type	Vector88, %function
 1148              	Vector88:
 1149              		@ args = 0, pretend = 0, frame = 0
 1150              		@ frame_needed = 0, uses_anonymous_args = 0
 1151 0000 38B5     		push	{r3, r4, r5, lr}
 1152 0002 164B     		ldr	r3, .L42
 1153 0004 1A68     		ldr	r2, [r3]
 1154 0006 0021     		movs	r1, #0
 1155 0008 1960     		str	r1, [r3]
 1156 000a 9306     		lsls	r3, r2, #26
 1157 000c 22D5     		bpl	.L29
 1158 000e 144C     		ldr	r4, .L42+4
 1159 0010 E36A     		ldr	r3, [r4, #44]
 1160 0012 1B68     		ldr	r3, [r3]
 1161 0014 5B68     		ldr	r3, [r3, #4]
 1162 0016 EBB1     		cbz	r3, .L29
 1163 0018 2369     		ldr	r3, [r4, #16]
 1164 001a DBB1     		cbz	r3, .L29
 1165 001c 2046     		mov	r0, r4
 1166 001e FFF7FEFF 		bl	adc_lld_stop_conversion
 1167 0022 2369     		ldr	r3, [r4, #16]
 1168 0024 9B68     		ldr	r3, [r3, #8]
 1169 0026 4BB1     		cbz	r3, .L31
 1170 0028 0522     		movs	r2, #5
 1171 002a 2270     		strb	r2, [r4]
 1172 002c 2046     		mov	r0, r4
 1173 002e 0121     		movs	r1, #1
 1174 0030 9847     		blx	r3
 1175 0032 2378     		ldrb	r3, [r4]	@ zero_extendqisi2
 1176 0034 052B     		cmp	r3, #5
 1177 0036 04BF     		itt	eq
 1178 0038 0223     		moveq	r3, #2
 1179 003a 2370     		strbeq	r3, [r4]
 1180              	.L31:
 1181 003c 0025     		movs	r5, #0
 1182 003e 2561     		str	r5, [r4, #16]
 1183 0040 2023     		movs	r3, #32
 1184              	@ 546 "/home/cody/dev/chibios/trunk/os/ext/CMSIS/include/core_cmFunc.h" 1
 1185 0042 83F31188 		MSR basepri, r3
 1186              	@ 0 "" 2
 1187              		.thumb
 1188 0046 0748     		ldr	r0, .L42+8
 1189 0048 4FF0FF31 		mov	r1, #-1
 1190 004c FFF7FEFF 		bl	chThdResumeI
 1191              	@ 546 "/home/cody/dev/chibios/trunk/os/ext/CMSIS/include/core_cmFunc.h" 1
 1192 0050 85F31188 		MSR basepri, r5
 1193              	@ 0 "" 2
 1194              		.thumb
 1195              	.L29:
 1196 0054 BDE83840 		pop	{r3, r4, r5, lr}
 1197 0058 FFF7FEBF 		b	_port_irq_epilogue
 1198              	.L43:
ARM GAS  /tmp/ccdzPRNH.s 			page 78


 1199              		.align	2
 1200              	.L42:
 1201 005c 00200140 		.word	1073815552
 1202 0060 00000000 		.word	.LANCHOR0
 1203 0064 14000000 		.word	.LANCHOR0+20
 1204              		.size	Vector88, .-Vector88
 1205 0068 AFF30080 		.section	.text.adc_lld_serve_rx_interrupt,"ax",%progbits
 1205      AFF30080 
 1206              		.align	2
 1207              		.p2align 4,,15
 1208              		.thumb
 1209              		.thumb_func
 1210              		.type	adc_lld_serve_rx_interrupt, %function
 1211              	adc_lld_serve_rx_interrupt:
 1212              		@ args = 0, pretend = 0, frame = 0
 1213              		@ frame_needed = 0, uses_anonymous_args = 0
 1214 0000 11F00C0F 		tst	r1, #12
 1215 0004 38B5     		push	{r3, r4, r5, lr}
 1216 0006 0446     		mov	r4, r0
 1217 0008 1DD1     		bne	.L67
 1218 000a 0369     		ldr	r3, [r0, #16]
 1219 000c D3B1     		cbz	r3, .L44
 1220 000e 8D06     		lsls	r5, r1, #26
 1221 0010 10D5     		bpl	.L50
 1222 0012 1D78     		ldrb	r5, [r3]	@ zero_extendqisi2
 1223 0014 002D     		cmp	r5, #0
 1224 0016 36D0     		beq	.L51
 1225 0018 5D68     		ldr	r5, [r3, #4]
 1226 001a 9DB1     		cbz	r5, .L44
 1227 001c C268     		ldr	r2, [r0, #12]
 1228 001e 012A     		cmp	r2, #1
 1229 0020 2ED9     		bls	.L52
 1230 0022 5988     		ldrh	r1, [r3, #2]
 1231 0024 8368     		ldr	r3, [r0, #8]
 1232 0026 5208     		lsrs	r2, r2, #1
 1233 0028 01FB02F1 		mul	r1, r1, r2
 1234 002c 03EB4101 		add	r1, r3, r1, lsl #1
 1235 0030 A847     		blx	r5
 1236 0032 38BD     		pop	{r3, r4, r5, pc}
 1237              	.L50:
 1238 0034 CA06     		lsls	r2, r1, #27
 1239 0036 05D5     		bpl	.L44
 1240 0038 5B68     		ldr	r3, [r3, #4]
 1241 003a 1BB1     		cbz	r3, .L44
 1242 003c C268     		ldr	r2, [r0, #12]
 1243 003e 8168     		ldr	r1, [r0, #8]
 1244 0040 5208     		lsrs	r2, r2, #1
 1245 0042 9847     		blx	r3
 1246              	.L44:
 1247 0044 38BD     		pop	{r3, r4, r5, pc}
 1248              	.L67:
 1249 0046 FFF7FEFF 		bl	adc_lld_stop_conversion
 1250 004a 2369     		ldr	r3, [r4, #16]
 1251 004c 9B68     		ldr	r3, [r3, #8]
 1252 004e 4BB1     		cbz	r3, .L47
 1253 0050 0522     		movs	r2, #5
 1254 0052 2270     		strb	r2, [r4]
ARM GAS  /tmp/ccdzPRNH.s 			page 79


 1255 0054 2046     		mov	r0, r4
 1256 0056 0021     		movs	r1, #0
 1257 0058 9847     		blx	r3
 1258 005a 2378     		ldrb	r3, [r4]	@ zero_extendqisi2
 1259 005c 052B     		cmp	r3, #5
 1260 005e 04BF     		itt	eq
 1261 0060 0223     		moveq	r3, #2
 1262 0062 2370     		strbeq	r3, [r4]
 1263              	.L47:
 1264 0064 0025     		movs	r5, #0
 1265 0066 2561     		str	r5, [r4, #16]
 1266 0068 2023     		movs	r3, #32
 1267              	@ 546 "/home/cody/dev/chibios/trunk/os/ext/CMSIS/include/core_cmFunc.h" 1
 1268 006a 83F31188 		MSR basepri, r3
 1269              	@ 0 "" 2
 1270              		.thumb
 1271 006e 4FF0FF31 		mov	r1, #-1
 1272 0072 04F11400 		add	r0, r4, #20
 1273 0076 FFF7FEFF 		bl	chThdResumeI
 1274              	@ 546 "/home/cody/dev/chibios/trunk/os/ext/CMSIS/include/core_cmFunc.h" 1
 1275 007a 85F31188 		MSR basepri, r5
 1276              	@ 0 "" 2
 1277              		.thumb
 1278 007e 38BD     		pop	{r3, r4, r5, pc}
 1279              	.L52:
 1280 0080 8168     		ldr	r1, [r0, #8]
 1281 0082 A847     		blx	r5
 1282 0084 38BD     		pop	{r3, r4, r5, pc}
 1283              	.L51:
 1284 0086 FFF7FEFF 		bl	adc_lld_stop_conversion
 1285 008a 2369     		ldr	r3, [r4, #16]
 1286 008c 5B68     		ldr	r3, [r3, #4]
 1287 008e C3B1     		cbz	r3, .L53
 1288 0090 0422     		movs	r2, #4
 1289 0092 2270     		strb	r2, [r4]
 1290 0094 2046     		mov	r0, r4
 1291 0096 A168     		ldr	r1, [r4, #8]
 1292 0098 E268     		ldr	r2, [r4, #12]
 1293 009a 9847     		blx	r3
 1294 009c 2378     		ldrb	r3, [r4]	@ zero_extendqisi2
 1295 009e 042B     		cmp	r3, #4
 1296 00a0 0BD0     		beq	.L68
 1297              	.L54:
 1298 00a2 2023     		movs	r3, #32
 1299              	@ 546 "/home/cody/dev/chibios/trunk/os/ext/CMSIS/include/core_cmFunc.h" 1
 1300 00a4 83F31188 		MSR basepri, r3
 1301              	@ 0 "" 2
 1302              		.thumb
 1303 00a8 0021     		movs	r1, #0
 1304 00aa 04F11400 		add	r0, r4, #20
 1305 00ae FFF7FEFF 		bl	chThdResumeI
 1306 00b2 0023     		movs	r3, #0
 1307              	@ 546 "/home/cody/dev/chibios/trunk/os/ext/CMSIS/include/core_cmFunc.h" 1
 1308 00b4 83F31188 		MSR basepri, r3
 1309              	@ 0 "" 2
 1310              		.thumb
 1311 00b8 38BD     		pop	{r3, r4, r5, pc}
ARM GAS  /tmp/ccdzPRNH.s 			page 80


 1312              	.L68:
 1313 00ba 0223     		movs	r3, #2
 1314 00bc 2561     		str	r5, [r4, #16]
 1315 00be 2370     		strb	r3, [r4]
 1316 00c0 EFE7     		b	.L54
 1317              	.L53:
 1318 00c2 0222     		movs	r2, #2
 1319 00c4 2361     		str	r3, [r4, #16]
 1320 00c6 2270     		strb	r2, [r4]
 1321 00c8 EBE7     		b	.L54
 1322              		.size	adc_lld_serve_rx_interrupt, .-adc_lld_serve_rx_interrupt
 1323 00ca 00BFAFF3 		.section	.text.adcSTM32EnableTSVREFE,"ax",%progbits
 1323      0080
 1324              		.align	2
 1325              		.p2align 4,,15
 1326              		.global	adcSTM32EnableTSVREFE
 1327              		.thumb
 1328              		.thumb_func
 1329              		.type	adcSTM32EnableTSVREFE, %function
 1330              	adcSTM32EnableTSVREFE:
 1331              		@ args = 0, pretend = 0, frame = 0
 1332              		@ frame_needed = 0, uses_anonymous_args = 0
 1333              		@ link register save eliminated.
 1334 0000 024B     		ldr	r3, .L70
 1335 0002 5A68     		ldr	r2, [r3, #4]
 1336 0004 42F40002 		orr	r2, r2, #8388608
 1337 0008 5A60     		str	r2, [r3, #4]
 1338 000a 7047     		bx	lr
 1339              	.L71:
 1340              		.align	2
 1341              	.L70:
 1342 000c 00230140 		.word	1073816320
 1343              		.size	adcSTM32EnableTSVREFE, .-adcSTM32EnableTSVREFE
 1344              		.section	.text.adcSTM32DisableTSVREFE,"ax",%progbits
 1345              		.align	2
 1346              		.p2align 4,,15
 1347              		.global	adcSTM32DisableTSVREFE
 1348              		.thumb
 1349              		.thumb_func
 1350              		.type	adcSTM32DisableTSVREFE, %function
 1351              	adcSTM32DisableTSVREFE:
 1352              		@ args = 0, pretend = 0, frame = 0
 1353              		@ frame_needed = 0, uses_anonymous_args = 0
 1354              		@ link register save eliminated.
 1355 0000 024B     		ldr	r3, .L73
 1356 0002 5A68     		ldr	r2, [r3, #4]
 1357 0004 22F40002 		bic	r2, r2, #8388608
 1358 0008 5A60     		str	r2, [r3, #4]
 1359 000a 7047     		bx	lr
 1360              	.L74:
 1361              		.align	2
 1362              	.L73:
 1363 000c 00230140 		.word	1073816320
 1364              		.size	adcSTM32DisableTSVREFE, .-adcSTM32DisableTSVREFE
 1365              		.section	.text.adcSTM32EnableVBATE,"ax",%progbits
 1366              		.align	2
 1367              		.p2align 4,,15
ARM GAS  /tmp/ccdzPRNH.s 			page 81


 1368              		.global	adcSTM32EnableVBATE
 1369              		.thumb
 1370              		.thumb_func
 1371              		.type	adcSTM32EnableVBATE, %function
 1372              	adcSTM32EnableVBATE:
 1373              		@ args = 0, pretend = 0, frame = 0
 1374              		@ frame_needed = 0, uses_anonymous_args = 0
 1375              		@ link register save eliminated.
 1376 0000 024B     		ldr	r3, .L76
 1377 0002 5A68     		ldr	r2, [r3, #4]
 1378 0004 42F48002 		orr	r2, r2, #4194304
 1379 0008 5A60     		str	r2, [r3, #4]
 1380 000a 7047     		bx	lr
 1381              	.L77:
 1382              		.align	2
 1383              	.L76:
 1384 000c 00230140 		.word	1073816320
 1385              		.size	adcSTM32EnableVBATE, .-adcSTM32EnableVBATE
 1386              		.section	.text.adcSTM32DisableVBATE,"ax",%progbits
 1387              		.align	2
 1388              		.p2align 4,,15
 1389              		.global	adcSTM32DisableVBATE
 1390              		.thumb
 1391              		.thumb_func
 1392              		.type	adcSTM32DisableVBATE, %function
 1393              	adcSTM32DisableVBATE:
 1394              		@ args = 0, pretend = 0, frame = 0
 1395              		@ frame_needed = 0, uses_anonymous_args = 0
 1396              		@ link register save eliminated.
 1397 0000 024B     		ldr	r3, .L79
 1398 0002 5A68     		ldr	r2, [r3, #4]
 1399 0004 22F48002 		bic	r2, r2, #4194304
 1400 0008 5A60     		str	r2, [r3, #4]
 1401 000a 7047     		bx	lr
 1402              	.L80:
 1403              		.align	2
 1404              	.L79:
 1405 000c 00230140 		.word	1073816320
 1406              		.size	adcSTM32DisableVBATE, .-adcSTM32DisableVBATE
 1407              		.global	ADCD1
 1408              		.section	.bss.ADCD1,"aw",%nobits
 1409              		.align	2
 1410              		.set	.LANCHOR0,. + 0
 1411              		.type	ADCD1, %object
 1412              		.size	ADCD1, 52
 1413              	ADCD1:
 1414 0000 00000000 		.space	52
 1414      00000000 
 1414      00000000 
 1414      00000000 
 1414      00000000 
 1415              		.comm	__gnu_lto_v1,1,1
 1416              		.ident	"GCC: (GNU Tools for ARM Embedded Processors) 4.8.4 20140526 (release) [ARM/embedded-4_8-br
ARM GAS  /tmp/ccdzPRNH.s 			page 82


DEFINED SYMBOLS
                            *ABS*:0000000000000000 adc_lld.c
     /tmp/ccdzPRNH.s:921    .text.adc_lld_init:0000000000000000 $t
     /tmp/ccdzPRNH.s:927    .text.adc_lld_init:0000000000000000 adc_lld_init
     /tmp/ccdzPRNH.s:947    .text.adc_lld_init:0000000000000024 $d
     /tmp/ccdzPRNH.s:953    .text.adc_lld_start:0000000000000000 $t
     /tmp/ccdzPRNH.s:959    .text.adc_lld_start:0000000000000000 adc_lld_start
     /tmp/ccdzPRNH.s:1003   .text.adc_lld_start:0000000000000050 $d
     /tmp/ccdzPRNH.s:1211   .text.adc_lld_serve_rx_interrupt:0000000000000000 adc_lld_serve_rx_interrupt
     /tmp/ccdzPRNH.s:1010   .text.adc_lld_stop:0000000000000000 $t
     /tmp/ccdzPRNH.s:1016   .text.adc_lld_stop:0000000000000000 adc_lld_stop
     /tmp/ccdzPRNH.s:1044   .text.adc_lld_stop:000000000000002c $d
     /tmp/ccdzPRNH.s:1048   .text.adc_lld_start_conversion:0000000000000000 $t
     /tmp/ccdzPRNH.s:1054   .text.adc_lld_start_conversion:0000000000000000 adc_lld_start_conversion
     /tmp/ccdzPRNH.s:1108   .text.adc_lld_stop_conversion:0000000000000000 $t
     /tmp/ccdzPRNH.s:1114   .text.adc_lld_stop_conversion:0000000000000000 adc_lld_stop_conversion
     /tmp/ccdzPRNH.s:1142   .text.Vector88:0000000000000000 $t
     /tmp/ccdzPRNH.s:1148   .text.Vector88:0000000000000000 Vector88
     /tmp/ccdzPRNH.s:1201   .text.Vector88:000000000000005c $d
     /tmp/ccdzPRNH.s:1206   .text.adc_lld_serve_rx_interrupt:0000000000000000 $t
     /tmp/ccdzPRNH.s:1324   .text.adcSTM32EnableTSVREFE:0000000000000000 $t
     /tmp/ccdzPRNH.s:1330   .text.adcSTM32EnableTSVREFE:0000000000000000 adcSTM32EnableTSVREFE
     /tmp/ccdzPRNH.s:1342   .text.adcSTM32EnableTSVREFE:000000000000000c $d
     /tmp/ccdzPRNH.s:1345   .text.adcSTM32DisableTSVREFE:0000000000000000 $t
     /tmp/ccdzPRNH.s:1351   .text.adcSTM32DisableTSVREFE:0000000000000000 adcSTM32DisableTSVREFE
     /tmp/ccdzPRNH.s:1363   .text.adcSTM32DisableTSVREFE:000000000000000c $d
     /tmp/ccdzPRNH.s:1366   .text.adcSTM32EnableVBATE:0000000000000000 $t
     /tmp/ccdzPRNH.s:1372   .text.adcSTM32EnableVBATE:0000000000000000 adcSTM32EnableVBATE
     /tmp/ccdzPRNH.s:1384   .text.adcSTM32EnableVBATE:000000000000000c $d
     /tmp/ccdzPRNH.s:1387   .text.adcSTM32DisableVBATE:0000000000000000 $t
     /tmp/ccdzPRNH.s:1393   .text.adcSTM32DisableVBATE:0000000000000000 adcSTM32DisableVBATE
     /tmp/ccdzPRNH.s:1405   .text.adcSTM32DisableVBATE:000000000000000c $d
     /tmp/ccdzPRNH.s:1413   .bss.ADCD1:0000000000000000 ADCD1
     /tmp/ccdzPRNH.s:1409   .bss.ADCD1:0000000000000000 $d
                            *COM*:0000000000000001 __gnu_lto_v1
     /tmp/ccdzPRNH.s:952    .text.adc_lld_init:0000000000000034 $t
     /tmp/ccdzPRNH.s:1009   .text.adc_lld_start:0000000000000064 $t
     /tmp/ccdzPRNH.s:1047   .text.adc_lld_stop:0000000000000034 $t
     /tmp/ccdzPRNH.s:1205   .text.Vector88:0000000000000068 $t

UNDEFINED SYMBOLS
adcObjectInit
nvicEnableVector
_stm32_dma_streams
dmaStreamAllocate
dmaStreamRelease
chThdResumeI
_port_irq_epilogue
