ARM GAS  /tmp/cciivHZX.s 			page 1


   1              		.syntax unified
   2              		.cpu cortex-m3
   3              		.fpu softvfp
   4              		.eabi_attribute 20, 1
   5              		.eabi_attribute 21, 1
   6              		.eabi_attribute 23, 3
   7              		.eabi_attribute 24, 1
   8              		.eabi_attribute 25, 1
   9              		.eabi_attribute 26, 1
  10              		.eabi_attribute 30, 2
  11              		.eabi_attribute 34, 1
  12              		.eabi_attribute 18, 4
  13              		.thumb
  14              		.file	"adc_lld.c"
  15              		.section	.gnu.lto_.jmpfuncs.5d3ea61fa7948b27,"",%progbits
  16 0000 789C6D8E 		.ascii	"x\234m\216\261\016\3020\014D\3379\011P&>\217\235\251"
  16      B10EC230 
  16      0C44DF39 
  16      0950263E 
  16      8F9DA9
  17 0013 036B1786 		.ascii	"\003k\027\206v\344wYY\300i\334 \241Z\212|v\356^b\030"
  17      76E47759 
  17      59C069DC 
  17      20A15A8A 
  17      7C76EE5E 
  18 0029 7BF58A3E 		.ascii	"{\365\212>\240\014v\325(\016.\036\274\227\347r\031\245"
  18      A00C76D5 
  18      280E2E1E 
  18      BC97E772 
  18      19A5
  19 003b 9B5643F2 		.ascii	"\233VC\3623\011K\026\312\233&*vM\331g+\3154\017\022"
  19      33094B16 
  19      CA9B262A 
  19      764DD967 
  19      2BCD340F 
  20 0050 F52A9566 		.ascii	"\365*\225f\361\007\230\235\344kr\352\301\012\017&\341"
  20      F107989D 
  20      E46B72EA 
  20      C10A0F26 
  20      E1
  21 0061 D81B3B2D 		.ascii	"\330\033;-\377\355\267\261\240\337\267\313\275\305\217"
  21      FFEDB7B1 
  21      A0DFB7CB 
  21      BDC58F
  22 0070 52C04E5D 		.ascii	"R\300N]\015:\213/\002=\036\217"
  22      0D3A8B2F 
  22      023D1E8F 
  23              		.text
  24              		.section	.gnu.lto_.inline.5d3ea61fa7948b27,"",%progbits
  25 0000 789C6D52 		.ascii	"x\234mR=l\323@\030}\337\335\331\261\343\320\230\226"
  25      3D6CD340 
  25      187DDFDD 
  25      D9B1E3D0 
  25      9896
  26 0012 AD4303AA 		.ascii	"\255C\003\252T\204\252\232\237\205\201\301\022\245\033"
  26      5484AA9A 
  26      9F8581C1 
ARM GAS  /tmp/cciivHZX.s 			page 2


  26      12A51B
  27 0021 5E6060A3 		.ascii	"^``\243!\211\232\210\224TiAE]<0d\000\311\003\352\200"
  27      21899A88 
  27      94546941 
  27      455D3C30 
  27      6400C903 
  28 0037 8454FE24 		.ascii	"\204T\376$\006f\346H\014\300\226\211\001\030\012SF\206"
  28      0666E648 
  28      0CC09689 
  28      01180A53 
  28      4686
  29 0049 4E9590F8 		.ascii	"N\225\220\370\356\354\020W\211\207\367\336Yw\337\337"
  29      EEEC1057 
  29      8987F7DE 
  29      5977DFDF 
  30 0059 FB0404A6 		.ascii	"\373\004\004\246}\373\022\270\301\354\002g\034R\330"
  30      7DFB12B8 
  30      C1EC0267 
  30      1C52D8
  31 0068 D8C371DC 		.ascii	"\330\303q\334\213\017?\275\371J-\2626)\275\326\254\322"
  31      8B0F3FBD 
  31      F94A2DB2 
  31      3629BDD6 
  31      ACD2
  32 007a 2BDA6361 		.ascii	"+\332ca\316\014\362P\024\254\336\022\012\275%\001u\260"
  32      CE0CF250 
  32      14ACDE12 
  32      0ABD2501 
  32      75B0
  33 008c E083AE57 		.ascii	"\340\203\256W\2240\310\300\312\373e)}\331\232\201\202"
  33      9430C8C0 
  33      CAFB6529 
  33      7DD99A81 
  33      82
  34 009d 4A222089 		.ascii	"J\" \211\004\316\237#\213rA\014\365S\212\311\204w\027"
  34      04CE9F23 
  34      8B72410C 
  34      F5538AC9 
  34      847717
  35 00b0 7F3F2114 		.ascii	"\177?!\024?^\020\260\377\254p\264#\351\010\203\032|"
  35      3F5E10B0 
  35      FFAC70B4 
  35      23E90883 
  35      1A7C
  36 00c2 237D0D15 		.ascii	"#}\015\025#+:\230,\001\"\211\222(\023\260N\247,\341"
  36      232B3A98 
  36      2C012289 
  36      922813B0 
  36      4EA72CE1 
  37 00d6 CD1165C9 		.ascii	"\315\021e\311T\221\377\330\007\013\374nXP)\352\327\302"
  37      5491FFD8 
  37      070BFC6E 
  37      585029EA 
  37      D7C2
  38 00e8 E3729248 		.ascii	"\343r\222H\341\033\316\222\213\306\035n\335&\310u\324"
  38      E11BCE92 
  38      8BC61D6E 
ARM GAS  /tmp/cciivHZX.s 			page 3


  38      DD26C875 
  38      D4
  39 00f9 FFCB71D1 		.ascii	"\377\313q\321i\23124\270>\331\007\346\256\366\273(\355"
  39      69993234 
  39      B83ED907 
  39      E6AEF6BB 
  39      28ED
  40 010b 2F0A94DE 		.ascii	"/\012\224\336\257\371\020\357l\256T#\304K\031\012\203"
  40      AFF910EF 
  40      6CAE5423 
  40      C44B190A 
  40      83
  41 011c 907F554C 		.ascii	"\220\177UL\002\356\217\262\216wL\261\020)\031T\031\201"
  41      02EE8FB2 
  41      8E774CB1 
  41      10291954 
  41      1981
  42 012e AE85BA79 		.ascii	"\256\205\272yF\210/\"f\207\234\203\"\377~K\241\276\243"
  42      46882F22 
  42      66879C83 
  42      22FF7E4B 
  42      A1BEA3
  43 0141 29D73FEC 		.ascii	")\327?\354Y\036\266\324\203H\"\326NNO\221\026\346\217"
  43      591EB6D4 
  43      834822D6 
  43      4E4E4F91 
  43      16E68F
  44 0154 B862B13C 		.ascii	"\270b\261<\370\\J\3472\032\006\012p\\\222\330\320\375"
  44      F85C4AE7 
  44      321A060A 
  44      705C92D8 
  44      D0FD
  45 0166 4BEE9F57 		.ascii	"K\356\237W`,u\257\320yG\263dSx\031\374\354\271\322\303"
  45      602C75AF 
  45      D07947B3 
  45      64537819 
  45      FCECB9D2 
  46 017b 7450B4C9 		.ascii	"tP\264\311\316\002\210q\000#\263-\353\277\360N\356\330"
  46      CE028871 
  46      0023B32D 
  46      EBBFF04E 
  46      EED8
  47 018d EBD18EA5 		.ascii	"\353\321\216\245I`\345r\204&G\0105\364\364\030\322T"
  47      4960E572 
  47      84264708 
  47      35F4F418 
  47      D254
  48 019f BEC9E5E2 		.ascii	"\276\311\345\342\34229\323}\313[\026\313I\317\302\314"
  48      E23239D3 
  48      7DCB5B16 
  48      CB49CFC2 
  48      CC
  49 01b0 B9F2EAF3 		.ascii	"\271\362\352\363g*\337\220F\015\354\235\034\224\331"
  49      672ADF90 
  49      460DEC9D 
  49      1C94D9
  50 01bf BB9F1E97 		.ascii	"\273\237\036\227`\177\230\017!\276[z\313\207\005\355"
ARM GAS  /tmp/cciivHZX.s 			page 4


  50      607F980F 
  50      21BE5B7A 
  50      CB8705ED 
  51 01cf A0218322 		.ascii	"\240!\203\"=\244\2502\322\205\0261s\212\304\311M\261"
  51      3DA4A832 
  51      D2851631 
  51      738AC4C9 
  51      4DB1
  52 01e1 67074F69 		.ascii	"g\007Oib\031\031\034#\0353\222\325\240\331\331l\004"
  52      6219191C 
  52      231D3392 
  52      D5A0D9D9 
  52      6C04
  53 01f3 B54EFD71 		.ascii	"\265N\375qPo<\012j\315\326\275Vg;\330\351>|p?`\321\254"
  53      506F3C0A 
  53      6ACDD6BD 
  53      56673BD8 
  53      E93E7C70 
  54 020b B683AD4E 		.ascii	"\266\203\255Nwg;\270u\373\346\225\313)\256]\332\335"
  54      77673BB8 
  54      75FBE695 
  54      CB29AE5D 
  54      DADD
  55 021d 0DAAF5DA 		.ascii	"\015\252\365\332\335v\273\276R\303?\320\250\240\222"
  55      DD76BBBE 
  55      52C33FD0 
  55      A8A092
  56              		.text
  57              		.section	.gnu.lto_.pureconst.5d3ea61fa7948b27,"",%progbits
  58 0000 789C6362 		.ascii	"x\234cb`b\020f\200\000N\006)&+f)\026+V)vI\016IN).)\000"
  58      60621066 
  58      80004E06 
  58      29262B66 
  58      29162B56 
  59 001e 0FFD0179 		.ascii	"\017\375\001y"
  60              		.text
  61              		.section	.gnu.lto_adc_lld_start.part.0.5d3ea61fa7948b27,"",%progbits
  62 0000 789C9593 		.ascii	"x\234\225\223MhSA\020\307gv\337\276\244mj\242\236\274"
  62      4D685341 
  62      10C76776 
  62      DFBEA46D 
  62      6AA29EBC 
  63 0014 89E0C542 		.ascii	"\211\340\305B\037\332\213\036z\363\363\340\311\024\324"
  63      1FDA8B1E 
  63      7AF3F3E0 
  63      C914D4
  64 0023 8B242FE5 		.ascii	"\213$/\345\345ab\244\255\322\342\241\033\015X<\005/"
  64      E56162A4 
  64      ADD2E2A1 
  64      1B0D583C 
  64      052F
  65 0035 15454829 		.ascii	"\025EH)Z0\207\236\204x\213\342!\212\037x\355)9\210W"
  65      5A30879E 
  65      84788BE2 
  65      218A1F78 
  65      ED293988 
  66 004a AF8A1067 		.ascii	"\257\212\020gv\337{6\202P\0272;\331\335\337\177fg\347"
ARM GAS  /tmp/cciivHZX.s 			page 5


  66      76DF7B36 
  66      82501732 
  66      3BD9DDDF 
  66      7F6667E7 
  67 005e 0910F0F7 		.ascii	"\011\020\360\3678C\277u\011p\236fL\001\272\315O\344"
  67      3843BF75 
  67      09709E66 
  67      4C01BACD 
  67      4FE4
  68 0070 B828CC2C 		.ascii	"\270(\314,\204l)\320\343\316\367\036\200\316Htx\271"
  68      846C29D0 
  68      E3CEF71E 
  68      80CE4874 
  68      78B9
  69 0082 9E765059 		.ascii	"\236vPYG!\262\003\010\253\256\220\216\302\325+\310\262"
  69      4721B203 
  69      08ABAE90 
  69      8EC2D52B 
  69      C8B2
  70 0094 780436B4 		.ascii	"x\0046\264~\330\377\2729\300u\335\255\267\364\257\341"
  70      7ED8FFBA 
  70      39C075DD 
  70      ADB7F4AF 
  70      E1
  71 00a5 1031444A 		.ascii	"\0201DJ\341\034\202\217p\231\376`\332L\002Gs\332\026"
  71      E11C828F 
  71      7099FE60 
  71      DA4C0247 
  71      73DA16
  72 00b8 BA3F1CFE 		.ascii	"\272?\034\376h\217e\021\253L\204(%\033\207\214\243\310"
  72      688F6511 
  72      AB4C8428 
  72      251B878C 
  72      A3C8
  73 00ca 28974D8A 		.ascii	"(\227M\212\214K\347\0254\264n\036\006\226\245\221'\313"
  73      8C4BE715 
  73      34B46E1E 
  73      0696A591 
  73      27CB
  74 00dc 49E56993 		.ascii	"I\345i\223f9\207\302\314=x\373\355\365\323\007\231\002"
  74      663987C2 
  74      CC3D78FB 
  74      EDF5D307 
  74      9902
  75 00ee 6EA28200 		.ascii	"n\242\202\000\361\016\374\324kZ\317\204\230\252\342"
  75      F10EFCD4 
  75      6B5ACF84 
  75      98AAE2
  76 00fd 680E7328 		.ascii	"h\016s(\241\245\344G\270\273\363\350\371@F\021\012\270"
  76      A1A5E447 
  76      B8BBF3E8 
  76      F9404611 
  76      0AB8
  77 010f 411703B0 		.ascii	"A\027\003\260\0124\002\024Sp\2142{\002\217\353Z\347"
  77      0A340214 
  77      53708C32 
  77      7B028FEB 
ARM GAS  /tmp/cciivHZX.s 			page 6


  77      5AE7
  78 0121 424C932E 		.ascii	"BL\223.\337)ed\212\211\352g\270\337=T\300g\206\263\201"
  78      DF296564 
  78      8A89EA67 
  78      B8DF3D54 
  78      C06786B3 
  79 0136 E9F4981F 		.ascii	"\351\364\230\037\305%!\246\306\335h\257\373\362\375"
  79      C52521A6 
  79      C6DD68AF 
  79      FBF2FD
  80 0145 7488133E 		.ascii	"t\210\023>\212\210\011\270x\031\000\316\250\263u\312"
  80      8A8809B8 
  80      781900CE 
  80      A8B375CA 
  81 0155 AE0628F7 		.ascii	"\256\006(\367\030\236\260\2531\343L\301\013>;\231P\373"
  81      189EB0AB 
  81      31E34CC1 
  81      0B3E3B99 
  81      50FB
  82 0167 48882919 		.ascii	"H\210)\031Q\230PoNZ\212\221\006\235\310&L\216\204\230"
  82      5198506F 
  82      4E5A8A91 
  82      069DC826 
  82      4C8E8498 
  83 017b 998C18DB 		.ascii	"\231\214\030\333Z\274\242>\364\032\332\261\370No\013"
  83      5ABCA23E 
  83      F41ADAB1 
  83      F84E6F0B 
  84 018b E3B8CA88 		.ascii	"\343\270\312\210\324s\221J\223U\3663p@\267\326\0100"
  84      D473914A 
  84      9355F633 
  84      7040B7D6 
  84      0830
  85 019d 6EA42693 		.ascii	"n\244&\223\014\356\275\222\261\200K\032&@\254~aWr\377"
  85      0CEEBD92 
  85      B1804B1A 
  85      2640AC7E 
  85      615772FF 
  86 01b1 A31B98B6 		.ascii	"\243\033\230\2661\317\354\230\3260\357\334~\207qk\244"
  86      31CFEC98 
  86      D630EFDC 
  86      7E87716B 
  86      A4
  87 01c2 4C59DD7F 		.ascii	"LY\335\177\226\325\371S\240Ns\302R6\013=\273\273H\007"
  87      96D5F953 
  87      A04E73C2 
  87      52360B3D 
  87      BBBB4807 
  88 01d6 498A3937 		.ascii	"I\21297\342TR\244l\214w\332\003\261w\001wT\300\336A"
  88      E25452A4 
  88      6C8C77DA 
  88      03B17701 
  88      7754C0DE 
  89 01eb 993B7C81 		.ascii	"\231;|\201z\177\373h\322\232`?\005\344=~\233\323^\271"
  89      7A7FFB68 
  89      D29A603F 
  89      05E43D7E 
ARM GAS  /tmp/cciivHZX.s 			page 7


  89      9BD35EB9 
  90 01ff 569DF7FC 		.ascii	"V\235\367\374Zi\305+\315\337\366\374rX\014k\213\336"
  90      5A69C52B 
  90      CDDFF6FC 
  90      72580C6B 
  90      8BDE
  91 0211 D2C2AD1B 		.ascii	"\322\302\255\033\327=r\312\205\212w\263\266\260\264"
  91      D73D72CA 
  91      858A77B3 
  91      B6B0B4
  92 0220 E85DCA5F 		.ascii	"\350]\312_\2349a\355\331\343\313\313^\241\344_\253T"
  92      9C3961ED 
  92      D9E3CBCB 
  92      5EA1E45F 
  92      AB54
  93 0232 4AD33E60 		.ascii	"J\323>`\3617N\316\345\301"
  93      F1374ECE 
  93      E5C1
  94              		.text
  95              		.section	.gnu.lto_adc_lld_serve_rx_interrupt.5d3ea61fa7948b27,"",%progbits
  96 0000 789C9594 		.ascii	"x\234\225\224OL\024W\034\307\177\2777;;\303\256\270"
  96      4F4C1457 
  96      1CC77FBF 
  96      373B3BC3 
  96      AEB8
  97 0012 F8AFF277 		.ascii	"\370\257\362wY\232\030\215\030\007\365R\017MHjL<p)\230"
  97      599A188D 
  97      1807F552 
  97      0F4D486A 
  97      4C3C7029 
  98 0027 542F6699 		.ascii	"T/f\231\335\300D\226%\013\030\224\003\263@\023\222\332"
  98      DDC04496 
  98      250B1894 
  98      03B34013 
  98      92DA
  99 0039 945BA1B6 		.ascii	"\224[\241\266\0075\275T\333&\355\245\211\207\222bLC"
  99      0735BD54 
  99      DB26EDA5 
  99      89879262 
  99      4C43
 100 004b 45ECA986 		.ascii	"E\354\251\206\213^L/FQcb\360\260\376~\357\315<vQT&\231"
 100      8B5E4C2F 
 100      46516362 
 100      F0B0FE7E 
 100      EFCD3C76 
 101 0063 DF7B33EF 		.ascii	"\337{3\357}\276\277?\357\217\000\001\353\037\227\336"
 101      7DBEBF3F 
 101      EF8F0001 
 101      EB1F97DE 
 102 0073 CB5180FF 		.ascii	"\313Q\200\377\250\305*@1}\007\240h\013aL\355\005?f\261"
 102      A8C52A40 
 102      317D07A0 
 102      680B614C 
 102      ED053F66 
 103 0088 DD6288C8 		.ascii	"\335b\210\310\245O\351+\372\242\206\276\"\302\274\325"
 103      A54FE92B 
 103      FAA286BE 
ARM GAS  /tmp/cciivHZX.s 			page 8


 103      22C2BCD5 
 104 0098 C45F0B6D 		.ascii	"\304_\013m\364ebT!Q\264U\307R\035\264\021\271\005\204"
 104      F4656254 
 104      2151B455 
 104      C7521DB4 
 104      11B90584 
 105 00ac 316144CC 		.ascii	"1aD\314\250e\343\330)\224^\177\025s\017J\245_V\036^"
 105      A865E3D8 
 105      29945E7F 
 105      15730F4A 
 105      A55F561E 
 106 00c1 BC8EB362 		.ascii	"\274\216\263b\237\300\034\202\001\036\202I=\264\250"
 106      9FC01C82 
 106      011E8249 
 106      3DB4A8
 107 00d0 87361911 		.ascii	"\2076\031\021'c$\310Dj\311\230ud\242\365<\257\201M#"
 107      276324C8 
 107      446AC998 
 107      7564A2F5 
 107      3CAF814D 
 108 00e5 19AB898C 		.ascii	"\031\253\211\214\235$S\325\314&\305\003-db\344\306\204"
 108      9D2453D5 
 108      CC26C503 
 108      2D6462E4 
 108      C684
 109 00f7 49DF9F4E 		.ascii	"I\337\237NQ\226\322m\027Y\216\350$\012n\215E\230\270"
 109      5196D26D 
 109      17598EE8 
 109      240A6E8D 
 109      4598B8
 110 010a 31F1E439 		.ascii	"1\361\3449\246\3612\232\320\203F\017\212/\220x\233&"
 110      A6F1329A 
 110      D083460F 
 110      8A2F9078 
 110      9B26
 111 011c FF0D938F 		.ascii	"\377\015\223\217\212\325zH\376/\177N\242\001S{Ic|\371"
 111      8AD57A48 
 111      FE2F7F4E 
 111      A201537B 
 111      49637CF9 
 112 0130 E5B33AED 		.ascii	"\345\263:\355Iu\374W\255\000\212uQr=X\333\012?\371\276"
 112      4975FC57 
 112      AD008A75 
 112      51723D58 
 112      DB0A3FF9 
 113 0145 3FF7ED12 		.ascii	"?\367\355\022I\231\227\340\273\242\357\327x\030\357"
 113      499997E0 
 113      BBA2EFD7 
 113      7818EF
 114 0154 4193C5B7 		.ascii	"A\223\305\267H\325n\236\234\306\253\004\322C\342\247"
 114      48D56E9E 
 114      9CC6AB04 
 114      D243E2A7 
 115 0164 D3784546 		.ascii	"\323xEFP\3078\315\257\326\344V\322d\322\014H\254 \377"
 115      50C738CD 
 115      AFD6E456 
 115      D264D20C 
ARM GAS  /tmp/cciivHZX.s 			page 9


 115      48AC20FF 
 116 0178 D2643D93 		.ascii	"\322d=\223\223E\"\022\232\255!Af\253\003VT\260\0237"
 116      93452212 
 116      9AAD2141 
 116      66AB0356 
 116      54B01337 
 117 018c 8C106E20 		.ascii	"\214\020n ^\346\276R*\225\022J\371\204\032\334\224,"
 117      5EE6BE52 
 117      2A95124A 
 117      F9841ADC 
 117      942C
 118 019e 2955E6D3 		.ascii	")U\346\323\030\344\263m\303|\214\015*\321\024\220\333"
 118      18E4B36D 
 118      C37C8C0D 
 118      2AD11490 
 118      DB
 119 01af 37242395 		.ascii	"7$#\225\344c\235M\222h\231\340\317\372W3\203U\011\036"
 119      E4639D4D 
 119      926899E0 
 119      CFFA5733 
 119      8355091E 
 120 01c3 5C373945 		.ascii	"\\79E\203\345\371\262;\225/E\317\3246P+\233\222\340"
 120      83E5F9B2 
 120      3B952F45 
 120      CFD43650 
 120      2B9B92E0 
 121 01d7 F2CCF3A3 		.ascii	"\362\314\363\243!\332\322\012\373i\013n\270\310f\345"
 121      21DAD20A 
 121      FB690B6E 
 121      B8C866E5 
 122 01e7 52FD7137 		.ascii	"R\375q7V^R\377hyMw\220\034\263\261\200\215j\226\377"
 122      565E52FF 
 122      68794D77 
 122      901CB3B1 
 122      808D6A96 
 123 01fc 26821C97 		.ascii	"&\202\034\227\357\335\027\341f\265\244w$\005|\323\265"
 123      EFDD17E1 
 123      66B5A477 
 123      24057CD3 
 123      B5
 124 020d 15EC5F55 		.ascii	"\025\354_UQ\005\330AEw*d\027I0\202\001b\007\010\037"
 124      5105D841 
 124      45772A64 
 124      17493082 
 124      01620708 
 125 0222 097D586C 		.ascii	"\011}Xl\236\361Q\345\211\210\300b\222O\304'j\222\014"
 125      9EF151E5 
 125      8988C062 
 125      924FC427 
 125      6A920C
 126 0235 63F7DBC3 		.ascii	"c\367\333\303\250\222-\377\331\315UX\002S1\\O\233\215"
 126      A8922DFF 
 126      D9CD5558 
 126      0253315C 
 126      4F9B8D
 127 0248 9C5D0B74 		.ascii	"\234]\013t\222\353*\203\215\277_\226C\275\371\277\016"
 127      92EB2A83 
ARM GAS  /tmp/cciivHZX.s 			page 10


 127      8DBF5F96 
 127      43BDF9BF 
 127      0E
 128 0259 35AEDDAC 		.ascii	"5\256\335\254\205j\302B|\363\241\012\315G\203\303_\316"
 128      856AC242 
 128      7CF3A10A 
 128      CD4783C3 
 128      5FCE
 129 026b BFB3E2BA 		.ascii	"\277\263\342\272\240w`\374\3517\363\277]4\364\235\021"
 129      A07760FC 
 129      E937F3BF 
 129      5D34F49D 
 129      11
 130 027c 664E3725 		.ascii	"fN7%\302\024\355{rc\250\273:\011\263\370\203?\323\356"
 130      C214ED7B 
 130      7263A8BB 
 130      3A09B3F8 
 130      833FD3EE 
 131 0290 617D28D2 		.ascii	"a}(\322\220\342\236\036\377>\030o\324\313\272:\377\325"
 131      90E29E1E 
 131      FF3E186F 
 131      D4CBBA3A 
 131      FFD5
 132 02a2 9F66987B 		.ascii	"\237f\230{b\024.\320\365)\343kz{|\261\265\272,\301\227"
 132      62142ED0 
 132      F529E36B 
 132      7A7B7CB1 
 132      B5BA2CC1 
 133 02b7 2BB77FBC 		.ascii	"+\267\177\274\366u\363\272\373l\216\024\327.\264\240"
 133      F675F3BA 
 133      FB6C8E14 
 133      D72EB4A0 
 134 02c7 0AA3B0EA 		.ascii	"\012\243\260\352O\361\266I\272H\207\346\037\225\003"
 134      4FF1B649 
 134      BA4887E6 
 134      1F9503
 135 02d6 B964F1E6 		.ascii	"\271d\361\346R\370\340\230\307'\344\303\322N\343<ud"
 135      52F8E098 
 135      C727E4C3 
 135      D24EE33C 
 135      7564
 136 02e8 9A509666 		.ascii	"\232P\226f\032o\361\361\\[>\213\313O\321\332\241\210"
 136      1A6FF1F1 
 136      5C5B3E8B 
 136      CB4FD1DA 
 136      A188
 137 02fa 0EA6C5E5 		.ascii	"\016\246\305\345\343/\0031\351>\367\360\343\220\261"
 137      E32F0331 
 137      E93EF7F0 
 137      E390B1
 138 0309 E5A5FF2F 		.ascii	"\345\245\377/\024W\256\374\036\321\316\345\323EKC\203"
 138      1457AEFC 
 138      1ED1CEE5 
 138      D3454B43 
 138      83
 139 031a ECEB98D3 		.ascii	"\354\353\230\323\233\317e\0357\2379\357d\262\347\034"
 139      9BCF651D 
ARM GAS  /tmp/cciivHZX.s 			page 11


 139      379F39EF 
 139      64B2E71C 
 140 032a B7D7EBF6 		.ascii	"\267\327\353\366\362\203\316Pa\270\377\254C\235\336"
 140      F283CE50 
 140      61B8FFAC 
 140      439DDE
 141 0339 749F3390 		.ascii	"t\2373\220/\014\015:\235]\035G\016+{\374\320\310\210"
 141      2F0C0D3A 
 141      9D5D1D47 
 141      0E2B7BFC 
 141      D0C888
 142 034c 93CEB867 		.ascii	"\223\316\270g\372\3722\007]h\177\237Hvd\310\371\254"
 142      FAFA3207 
 142      5D687F9F 
 142      487664C8 
 142      F9AC
 143 035e A3F344A7 		.ascii	"\243\363D\247\343\365\273}\303\031\236[\310\236qs\307"
 143      E3F5BB7D 
 143      C3199E5B 
 143      C89E7173 
 143      C7
 144 036f 87FBDD83 		.ascii	"\207\373\335\203\275P\323\321\371y\252;=\230\035(x\007"
 144      BD50D3D1 
 144      F979AA3B 
 144      3D981D28 
 144      7807
 145 0381 527BDA40 		.ascii	"R{\332@\024\300\312es\371\302y8\362!\021\346\007\311"
 145      14C0CA65 
 145      73F9C279 
 145      38F22111 
 145      E607C9
 146 0394 1486644B 		.ascii	"\024\206dKz\257\001$\324\243\024"
 146      7AAF0124 
 146      D4A314
 147              		.text
 148              		.section	.gnu.lto_adc_lld_stop.part.1.5d3ea61fa7948b27,"",%progbits
 149 0000 789C9D91 		.ascii	"x\234\235\221=K\003A\020\206gv/\032\2571?\301\306\306"
 149      3D4B0341 
 149      10866776 
 149      2F1AAF31 
 149      3FC1C6C6 
 150 0014 808B5A88 		.ascii	"\200\213Z\210\275\004,\254\274\200V\222\334\205\344"
 150      BD042CAC 
 150      BC805692 
 150      DC85E4
 151 0023 30F12489 		.ascii	"0\361$\211\022\261\310\236\246H\231JD\033mm,\204\020"
 151      12B1C89E 
 151      A648994A 
 151      441B6D6D 
 151      2C8410
 152 0036 B0B3D222 		.ascii	"\260\263\322\"\212\235\004\002\371\021\026~\024\347"
 152      8A9D0402 
 152      F911167E 
 152      14E7
 153 0044 ECDE1D84 		.ascii	"\354\336\035\204t\272\2603\303\334\314\263\357\3141"
 153      74BAB033 
 153      C3DCCCB3 
ARM GAS  /tmp/cciivHZX.s 			page 12


 153      EFCC31
 154 0053 603079D2 		.ascii	"`0y\322tMJg\310c\002\320\350\274P` \323\236!W\336Or"
 154      744D4A67 
 154      C86302D0 
 154      E8BC5060 
 154      20D39E21 
 155 006b 44150042 		.ascii	"D\025\000B\323`\034\233;\250\273\357\230\034\005\301"
 155      D3601C9B 
 155      3BA8BBEF 
 155      981C05C1 
 156 007b F0E31C4D 		.ascii	"\360\343\034M\304\012\022\337E\340d\320P\206*\022\320"
 156      C40A12DF 
 156      45E064D0 
 156      50862A12 
 156      D0
 157 008c 92B23307 		.ascii	"\222\2623\007`\353\016\213\254\002YT@\236g\221i\337"
 157      60EB0E8B 
 157      AC025954 
 157      409E6791 
 157      69DF
 158 009e 87C7DEFB 		.ascii	"\207\307\336\373\3753\313\341\015\251H\303\255l\371"
 158      FD33CBE1 
 158      0DA948C3 
 158      AD6CF9
 159 00ad 72D54576 		.ascii	"r\325Ev\005\227~G\246\\\344\333\350\242!\237Z\322\000"
 159      05977E47 
 159      A65CE4DB 
 159      E8A2219F 
 159      5AD200
 160 00c0 1D6A01F9 		.ascii	"\035j\001\371P\207\316\350\341\024\350\363_ \234\004"
 160      5087CEE8 
 160      E114E8F3 
 160      5F209C04 
 161 00d0 9D0E2EBA 		.ascii	"\235\016.\272_\021\250\210,\015\0134\234\302H\205I\024"
 161      5F11A888 
 161      2C0D0B34 
 161      9CC24885 
 161      4914
 162 00e2 1155F154 		.ascii	"\021U\361T\324\036\257\366\025\214\260\005\340\004\276"
 162      D41EAFF6 
 162      158CB005 
 162      E004BE
 163 00f1 655BD54E 		.ascii	"e[\325N\333\021\2350.&\265\312A\257\273\026\263y\250"
 163      DB119D30 
 163      2E26B5CA 
 163      41AFBB16 
 163      B379A8
 164 0104 33352E73 		.ascii	"35.sF\301My\335\216d\232\321;<z\247\017g\017<\006\030"
 164      46C14D79 
 164      DD8E649A 
 164      D13B3C7A 
 164      A70F670F 
 165 011b C5702C0C 		.ascii	"\305p,\014~\202`6\\\303\306\370\012\376\200.F\033\201"
 165      7E826036 
 165      5CC3C6F8 
 165      0AFE802E 
 165      461B81
ARM GAS  /tmp/cciivHZX.s 			page 13


 166 012e 2C25D4BF 		.ascii	",%\324\277y\003\1774\234\217\207\012\217E\003\32175"
 166      79037F34 
 166      9C8F870A 
 166      8F4503D1 
 166      3735
 167 0140 F4BA2879 		.ascii	"\364\272(y\225\202\260=\347X8\205#a\227\334\274\353"
 167      9582B03D 
 167      E7583885 
 167      236197DC 
 167      BCEB
 168 0152 D544BD7A 		.ascii	"\325D\275z\270\277'((\345\312\342\300\253\326kb\313"
 168      B8BF2728 
 168      28E5CAE2 
 168      C0ABD66B 
 168      62CB
 169 0164 DA5C590E 		.ascii	"\332\\Y\016mf\251\321\0209\307\336-\227\235E\033~\001"
 169      6D66A9D1 
 169      1039C7DE 
 169      2D979D45 
 169      1B7E01
 170 0177 32609284 		.ascii	"2`\222\204"
 171              		.text
 172              		.section	.gnu.lto_adc_lld_serve_rx_interrupt.part.2.5d3ea61fa7948b27,"",%progbits
 173 0000 789CC556 		.ascii	"x\234\305Vkh\\E\024>s\037\373\270\373\316\373\271\331"
 173      6B685C45 
 173      143E731F 
 173      FBB8FBCE 
 173      FBB9D9
 174 0013 3C6A8A95 		.ascii	"<j\212\225nkA\015\"\024\224\226\376\310\237&\005\365"
 174      6E6B410D 
 174      22149496 
 174      FEC89F26 
 174      05F5
 175 0025 4FD86CD6 		.ascii	"O\330l\326\315b\036u\223Hj\177\364&\233B\260)\004\021"
 175      CD621E75 
 175      93486A7F 
 175      F4269B42 
 175      B0290411 
 176 0039 0C29428B 		.ascii	"\014)B\213\004\361\031(T\012\361G15>\212\215\025)\030"
 176      04F11928 
 176      540AF147 
 176      31353E8A 
 176      8D152918 
 177 004d 4443D556 		.ascii	"DC\325V\244\224ZQJ\021\327s\346\336;{o\310\2225\177"
 177      A4945A51 
 177      4A11D773 
 177      E6DE3B7B 
 177      6FC89235 
 178 0062 5CD873E7 		.ascii	"\\\330s\347\314\234\357\233s\316\314\234\031\011$\330"
 178      CC9CEF9B 
 178      73CECC9C 
 178      190924D8 
 179 0072 F8BB8EFF 		.ascii	"\370\273\216\377\203~\200[\370ee\300\"\263W\261\021"
 179      837E805B 
 179      F86565C0 
 179      22B357B1 
 179      11
ARM GAS  /tmp/cciivHZX.s 			page 14


 180 0083 6112FF4A 		.ascii	"a\022\377J\222<\335\016\272\026 \351\227%\205k\036\256"
 180      923CDD0E 
 180      BA1620E9 
 180      9725856B 
 180      1EAE
 181 0095 29923ABF 		.ascii	")\222:\277\002\250\206\377r\243\252J\256\223\035\250"
 181      02A886FF 
 181      72A3AA4A 
 181      AE931DA8 
 182 00a5 B94F55A2 		.ascii	"\271OU\242\346ba\"\230\360\270\255\206G\362~\366\030"
 182      E6626122 
 182      98F0B8AD 
 182      8647F27E 
 182      F618
 183 00b7 8EFBBEA8 		.ascii	"\216\373\276\250\306q\257\244\2554\242\346\377r\017"
 183      C671AFA4 
 183      AD34A2E6 
 183      FF720F
 184 00c6 6A1AF31B 		.ascii	"j\032\363\033F>\253\341\267`\001)\370m\234&\3718\212"
 184      463EABE1 
 184      B7600129 
 184      F86D9C26 
 184      F9388A
 185 00d9 86412974 		.ascii	"\206A)t\346)\322\376\014\243\026\262\214\302\214Q\003"
 185      E629D2FE 
 185      0CA316B2 
 185      8CC28C51 
 185      03
 186 00ea 189C8848 		.ascii	"\030\234\210H\262\242\272\334\036\257\346\363\007\202"
 186      B2A2BADC 
 186      1EAFE6F3 
 186      0782
 187 00f8 A1303BF1 		.ascii	"\2410;\361\034\2438\245\0268\247\353\257\255\377r\343"
 187      1CA338A5 
 187      1638A7EB 
 187      AFADFF72 
 187      E3
 188 0109 62AD7E76 		.ascii	"b\255~vrV\377'\237g\031\206\0319\310 \311\340YTX\214"
 188      7256FF27 
 188      9F671986 
 188      1939C820 
 188      C9E05954 
 189 011f 7F24C599 		.ascii	"\177$\305\231\"\003\251\237\327u\357Y\375\357|^\346"
 189      2203A99F 
 189      D775EF59 
 189      FDEF7C5E 
 189      E6
 190 0130 B0C35BC1 		.ascii	"\260\303[\301\026%}=\237\377\356\246\347q\306\006\011"
 190      16257D3D 
 190      9FFFEEA6 
 190      E771C606 
 190      09
 191 0141 9161B28C 		.ascii	"\221a\262\214-\246`KQQ\250.\024.7\012\267\007\022\354"
 191      2DA6604B 
 191      5151A82E 
 191      142E370A 
 191      B70712EC 
ARM GAS  /tmp/cciivHZX.s 			page 15


 192 0155 2DD6025E 		.ascii	"-\326\002^T<\032\365\370\260\347\034\366\370Q\361\006"
 192      543C1AF5 
 192      F8B0E71C 
 192      F6F851F1 
 192      06
 193 0166 A82748AD 		.ascii	"\250'H\255\020\2110\012-\202\302WF\254\345$*P\370+Q"
 193      1089300A 
 193      2D82C257 
 193      46ACE524 
 193      2A50F82B 
 194 017b 04AA5004 		.ascii	"\004\252P\004\253I\324\320@-\212P\035\315TO\330\006"
 194      AB49D4D0 
 194      402D8A50 
 194      1DCD544F 
 194      D806
 195 018d A26A4411 		.ascii	"\242jD\021\216\242\2104\221I\214<j&\223\0262i%\2236"
 195      8EA28834 
 195      91498C3C 
 195      6A269316 
 195      32692593 
 196 01a2 1218860A 		.ascii	"\022\030\206\012S\272>\033\003\212\026\177\335()\327"
 196      53BA3E1B 
 196      038A167F 
 196      DD2829D7 
 197 01b2 DD2C425F 		.ascii	"\335,B_\371\010\223\370\367+\310-\345\336\236\331\231"
 197      F90893F8 
 197      F72BC82D 
 197      E5DE9ED9 
 197      99
 198 01c3 600B4C85 		.ascii	"`\013L\2054\223\322\214QVd\332r\237\303\324\355\211"
 198      3493D28C 
 198      515664DA 
 198      729FC3D4 
 198      ED89
 199 01d5 BD6288F7 		.ascii	"\275b\210\367\333Su\004\325\351v\344\230\\\273\177\343"
 199      DB537504 
 199      D5E976E4 
 199      985CBB7F 
 199      E3
 200 01e6 09CB4ED9 		.ascii	"\011\313N\331\005\017\243_g`~B\327\303\031V\226f2A\313"
 200      050FA35F 
 200      67607E42 
 200      D7C31956 
 200      96663241 
 201 01fb 39A69759 		.ascii	"9\246\227Yh\204=oa\324]\360.\331V\010T%\022\021J1Q\026"
 201      68843D6F 
 201      61D45DF0 
 201      2ED95608 
 201      54251211 
 202 0213 8C7C6202 		.ascii	"\214|b\002F\026\252\323%\005.\227\313vn\227\311]U\224"
 202      4616AAD3 
 202      25052E97 
 202      CB766E97 
 202      C95D5594 
 203 0227 5BDA8CDB 		.ascii	"[\332\214\333E\026\325Nn\025V\"\016n7\217\025\212\306"
 203      4516D54E 
 203      6E155622 
ARM GAS  /tmp/cciivHZX.s 			page 16


 203      0E6E378F 
 203      158AC6
 204 023a 2A0BE6CB 		.ascii	"*\013\346\3137\005\263\233,\2009\230]\360\253\237\026"
 204      3705B39B 
 204      2C803998 
 204      5DF0AB9F 
 204      16
 205 024b E3B46C2E 		.ascii	"\343\264l.\234\261\257\214\275\004`@\361\227f\036\213"
 205      9CB1AF8C 
 205      BD046040 
 205      F197661E 
 205      8B
 206 025c 401239FC 		.ascii	"@\0229\374\220\323z\3158k\212\306i\355tD\335\221-\230"
 206      90D37ACD 
 206      386B8AC6 
 206      69ED7444 
 206      DD912D98 
 207 0270 8648EACA 		.ascii	"\206H\352\312\275*\272||\026\315I\357\347\241z\213\206"
 207      BD2ABA7C 
 207      7C16CD49 
 207      EFE7A17A 
 207      8B86
 208 0282 AA0A721B 		.ascii	"\252\012r\033S\000\311l\316\346N\211\221 2\3428\300"
 208      5300C96C 
 208      CEE64E89 
 208      912032E2 
 208      38C0
 209 0294 2AB88C3E 		.ascii	"*\270\214>\012\316EB\346\243\236\014\253\265\262\343"
 209      0ACE4542 
 209      E6A39E0C 
 209      ABB5B2E3 
 210 02a4 861F1447 		.ascii	"\206\037\024G\336C%:\303\311\0276\220\2070\2036r\217"
 210      DE43253A 
 210      C3C91736 
 210      90873083 
 210      36728F
 211 02b7 B961D6EE 		.ascii	"\271a\326\356\337\253\025\247\306h\350\2133n+\371Ic"
 211      DFAB15A7 
 211      C668E88B 
 211      336E2BF9 
 211      4963
 212 02c9 0BA65998 		.ascii	"\013\246Y\230\362\254\353\227\336X\305\011\265\242."
 212      F2ACEB97 
 212      DE58C509 
 212      B5A22E
 213 02d8 B808F891 		.ascii	"\270\010\370\221\341\211\341\372\005\356z\304\\\246"
 213      E189E1FA 
 213      05EE7AC4 
 213      5CA6
 214 02e6 3A81AC47 		.ascii	":\201\254GNBj&\322\355@~\"\220e\204\234\232@D\203\300"
 214      4E426A26 
 214      D2ED407E 
 214      22906584 
 214      9C9A4044 
 215 02fc 36222161 		.ascii	"6\"!a\353L\254\307\201\315-\311\026\270\034\361\374"
 215      EB4CACC7 
 215      81CD2DC9 
ARM GAS  /tmp/cciivHZX.s 			page 17


 215      16B81CF1 
 215      FC
 216 030d 00DFCDE7 		.ascii	"\000\337\315\347\363!\203\371\2201\370\237h\323\024"
 216      F32183F9 
 216      9031F89F 
 216      68D314
 217 031c A03D9E0A 		.ascii	"\240=\236\0123\236h\321x\274E2Qi\"\233\212\"5'\362\216"
 217      339E68D1 
 217      78BC4532 
 217      5169229B 
 217      8A223527 
 218 0332 88A60AD1 		.ascii	"\210\246\012\321<\300\017DW5\001\203!\032\334`\\\223"
 218      3CC00F44 
 218      57350183 
 218      211ADC60 
 218      5C93
 219 0344 A6735C88 		.ascii	"\246s\\\210\227\2463\342E\357\011\025\005cek8pm\356"
 219      97A633E2 
 219      45EF0915 
 219      0563656B 
 219      38706DEE 
 220 0358 8F0E0B5A 		.ascii	"\217\016\013Z\313\367Y\250\350\"\373\234Ku\361k\315"
 220      CBF759A8 
 220      E822FB9C 
 220      4B75F16B 
 220      CD
 221 0369 9E52BDC3 		.ascii	"\236R\275\303\236\323\030\322\0216db\375\002K\275\015"
 221      9ED318D2 
 221      11366462 
 221      FD024BBD 
 221      0D
 222 037a 668CF64A 		.ascii	"f\214\366JZ\267\275\312U\267I\345\362\3027\001\332\344"
 222      5AB7BDCA 
 222      55B749E5 
 222      F2C23701 
 222      DAE4
 223 038c 26370FAB 		.ascii	"&7\017\253\271hX\001\376\245\236f\005\234\225\272\276"
 223      B9685801 
 223      FEA59E66 
 223      059C95BA 
 223      BE
 224 039d E43250C0 		.ascii	"\3442P\3004\224X%\035\247\265\316<\255\270'\032\370"
 224      34945825 
 224      1DA7B5CE 
 224      3CADB827 
 224      1AF8
 225 03af 69B53336 		.ascii	"i\26536\226\024\000\257\273\267D^\032E@\205\274h\360"
 225      961400AF 
 225      BBB7445E 
 225      1A454085 
 225      BC68F0
 226 03c2 BABAADBC 		.ascii	"\272\272\255\274\230\325\327\216\333\352\312+,\034\237"
 226      98D5D78E 
 226      DBEACA2B 
 226      2C1C9F
 227 03d1 DA07F7FE 		.ascii	"\332\007\367\376\257\251\375T\362\256\302\344\357\213"
 227      AFA9FD54 
ARM GAS  /tmp/cciivHZX.s 			page 18


 227      F2AEC2E4 
 227      EF8B
 228 03df CBE76764 		.ascii	"\313\347gdQ\364\304-C\267\323\034.\013\316$\033\217"
 228      51F4C42D 
 228      43B7D31C 
 228      2E0BCE24 
 228      1B8F
 229 03f1 CF28BCC3 		.ascii	"\317(\274\303\336\324\347\366g\370u\304\371Zc\324\022"
 229      DED4E7F6 
 229      67F875C4 
 229      F95A63D4 
 229      12
 230 0402 E3EF9BE3 		.ascii	"\343\357\233\343mb\375\037,_\371\364%+\371\321\343\360"
 230      6D62FD1F 
 230      2C5FF9F4 
 230      252BF9D1 
 230      E3F0
 231 0414 4A868A1F 		.ascii	"J\206\212\037z\273\243\250\267\301\302\332\254\302\311"
 231      7ABBA3A8 
 231      B7C1C2DA 
 231      ACC2C9
 232 0423 BBB717DE 		.ascii	"\273\267\027\336;\335\264\241&_B\322BM6\017\300qx\240"
 232      3BDDB4A1 
 232      265F42D2 
 232      424D360F 
 232      C07178A0 
 233 0437 4F13E143 		.ascii	"O\023\341CI\206\347\376g\353\262\214\022y;\340\233h"
 233      4986E7FE 
 233      67EBB28C 
 233      12793BE0 
 233      9B68
 234 0449 27406901 		.ascii	"'@i\001'\330\367\330\340\001\202-\300\004\373\321\254"
 234      27D8F7D8 
 234      E001822D 
 234      C004FBD1 
 234      AC
 235 045a 13660E03 		.ascii	"\023f\016\003\306\323'\267\264|e\345\232j\205\331d\275"
 235      C6D327B7 
 235      B47C65E5 
 235      9A6A85D9 
 235      64BD
 236 046c 9F1430DF 		.ascii	"\237\0240\337OO\212\241M\336OA\370\255\332\270{~\022"
 236      4F4F8AA1 
 236      4DDE4F41 
 236      F8ADDAB8 
 236      7B7E12
 237 047f A73EB68D 		.ascii	"\247>\266\215\367S\363f\225\"\266e\245h\336\244R\204"
 237      F753F366 
 237      9522B665 
 237      A568DEA4 
 237      5284
 238 0491 E07A99E3 		.ascii	"\340z\231\343\256m\331\306\211o-\361\304\363\027\217"
 238      AE6DD9C6 
 238      896F2DF1 
 238      C4F3178F 
 239 04a1 056A439C 		.ascii	"\005jC\234x,8jA\263Y\013Z\320\310vs\207\371\023\366"
 239      782C386A 
ARM GAS  /tmp/cciivHZX.s 			page 19


 239      41B3590B 
 239      5AD0C876 
 239      7387F913 
 240 04b6 1A4CACCF 		.ascii	"\032L\254\317\267\212\245\344\277n\274\254q\214\210"
 240      B78AA5E4 
 240      BF6EBCAC 
 240      718C88
 241 04c5 9E89F70F 		.ascii	"\236\211\367\017\017\246\342\311\341\276c\361\276\324"
 241      0FA6E2C9 
 241      E1BE63F1 
 241      BED4
 242 04d3 CBF1647F 		.ascii	"\313\361d\177\24673<\022\037\315\216\015\275\030\307"
 242      A637333C 
 242      121FCD8E 
 242      0DBD18C7 
 243 04e3 467F6220 		.ascii	"F\177b ~t8;:\022\357\352\356\334\367\250!\017\354\035"
 243      7E74383B 
 243      3A12EFEA 
 243      EEDCF7A8 
 243      210FEC1D 
 244 04f7 1F8F27FA 		.ascii	"\037\217'\372\222=\003\003}\273\223\240\241\321\013"
 244      923D0303 
 244      7DBB93A0 
 244      A1D10B
 245 0506 3D99A1BE 		.ascii	"=\231\241\276\324\270B\315\375[\221\246\306G\343Owv"
 245      D4B842CD 
 245      FD5B91A6 
 245      C647E34F 
 245      7776
 246 0518 1DEA8A67 		.ascii	"\035\352\212g\206\222\003c}d\233M\365$\007\017\214\015"
 246      86920363 
 246      7D649B4D 
 246      F524070F 
 246      8C0D
 247 052a 2577F743 		.ascii	"%w\367C\270\263\353p\25471\222:\232\315<\022\333\261"
 247      B8B3EB70 
 247      AC373192 
 247      3A9ACD3C 
 247      12DBB1
 248 053d 07A42CB8 		.ascii	"\007\244,\270\007S\203\303\331c\260\257\024\217\207"
 248      075383C3 
 248      D963B0AF 
 248      148F87
 249 054c 47506447 		.ascii	"GPdG\371\027\371\376\005\343g\300\027"
 249      F917F9FE 
 249      05E367C0 
 249      17
 250              		.text
 251              		.section	.gnu.lto_adc_lld_init.5d3ea61fa7948b27,"",%progbits
 252 0000 789CA594 		.ascii	"x\234\245\224\317k\023A\024\307\337\233\375\231\230"
 252      CF6B1341 
 252      14C7DF9B 
 252      FD9998
 253 000f 90D02078 		.ascii	"\220\320 x\024<\211\350R\373\027\024\244 \342\311\004"
 253      143C89E8 
 253      52FB1714 
 253      A420E2C9 
ARM GAS  /tmp/cciivHZX.s 			page 20


 253      04
 254 0020 F554D24D 		.ascii	"\365T\322M1\213\211\221\266J\305Cg\315\036\212T\350"
 254      318B8991 
 254      B64AC543 
 254      67CD1E8A 
 254      54E8
 255 0032 31A8A05E 		.ascii	"1\250\240^E\364&\221\"H\016\232\213\212\267\320S\216"
 255      45F42691 
 255      22480E9A 
 255      8B8AB7D0 
 255      538E
 256 0044 1E04A105 		.ascii	"\036\004\241\005\015\311a}3\273\231\304\350!\232\201"
 256      0DC9617D 
 256      33BB99C4 
 256      E8219A81 
 257 0054 BC9DBC99 		.ascii	"\274\235\274\231\371\274\367}\263o\0310\230\034\313"
 257      F9BCF77D 
 257      B36F1930 
 257      981CCB
 258 0063 F4F30D80 		.ascii	"\364\363\015\200%zb\002\220\355~\"\207\315P\213&\032"
 258      257A6202 
 258      90ED7E22 
 258      87CD508B 
 258      261A
 259 0075 B3773E00 		.ascii	"\263w>\000\360\244\036X\300Sv\344_\324\321\210\326\015"
 259      F0A41E58 
 259      C05376E4 
 259      5FD4D188 
 259      D60D
 260 0087 6645EBA6 		.ascii	"fE\353\246\\\267\"\377\242\211(\236\200\260\3054[7,"
 260      5CB722FF 
 260      A289289E 
 260      80B0C534 
 260      5B372C
 261 009a 13B7AEA2 		.ascii	"\023\267\256\242\214\370\212\275\353\206\341\313\203"
 261      8CF88ABD 
 261      EB86E1CB 
 261      83
 262 00a7 F78F77F0 		.ascii	"\367\217w\360\011;j\202\207`\011\223\022&-LF\230\254"
 262      093B6A82 
 262      87600993 
 262      12262D4C 
 262      4698AC
 263 00ba 3073C2E4 		.ascii	"0s\302\344\204\241a@\300\371\356q\000W\376\315\223\245"
 263      84A16140 
 263      C0F9EE71 
 263      0057FECD 
 263      93A5
 264 00cc A00564F4 		.ascii	"\240\005d\364\320>C\320}[O\026\361\031\222\034\270\013"
 264      D03E43D0 
 264      7D5B4F16 
 264      F119921C 
 264      B80B
 265 00de 7DBECDB3 		.ascii	"}\276\315\263\036\242\213Q\\\341\261=dU\204x\223\207"
 265      1EA28B51 
 265      5CE1B13D 
 265      64558478 
ARM GAS  /tmp/cciivHZX.s 			page 21


 265      9387
 266 00f0 1AC047B8 		.ascii	"\032\300G\270\327\354|\377\212\221\357\024<\3474\346"
 266      D7EC7CFF 
 266      8A91EF14 
 266      3CE734E6 
 267 0100 3DD41FC1 		.ascii	"=\324\037\301C\237\013\202\241X\342,\215+HS\311\\\211"
 267      439F0B82 
 267      A158E22C 
 267      8D2B4853 
 267      C95C89
 268 0113 D0D2A3F3 		.ascii	"\320\322\243\363v\300u\220\304~=|pr\222hNG\034e\333"
 268      76C07590 
 268      C47E3D7C 
 268      70729268 
 268      4E471C65 
 269 0128 E0FC321D 		.ascii	"\340\3742\035;\015/\304V\253\212(\366\331\277_\240\310"
 269      3B0D2FC4 
 269      56AB8A28 
 269      F6D9BF5F 
 269      A0C8
 270 013a BF71D066 		.ascii	"\277q\320f\223\321\022\323Ec*\377\304\375\013\022\327"
 270      93D112D3 
 270      45632AFF 
 270      C4FD0B12 
 270      D7
 271 014b DAEF1C1E 		.ascii	"\332\357\034\036\213h\327\320\024\300\300\247\263I\342"
 271      8B68D7D0 
 271      14C0C0A7 
 271      B349E2
 272 015a D1AE2362 		.ascii	"\321\256#bk\212?\335&\251r\032s4\225N\375\2156<m\021"
 272      6B8A3FDD 
 272      26A9721A 
 272      7334954E 
 272      FD8D363C 
 273 0170 406C82B8 		.ascii	"@l\202\270.\255\363\243,\247\207\022G\036n\366\016\307"
 273      2EADF3A3 
 273      2CA78712 
 273      471E6EF6 
 273      0EC7
 274 0182 AF29F079 		.ascii	"\257)\360yF\021\322c7 \2471AW\362\222Qv\255f\343\307"
 274      4611D263 
 274      3720A731 
 274      4157F292 
 274      5176AD66 
 275 0198 3F530C45 		.ascii	"?S\014E\001\214)\275\231(\211\270Z\005\222H}\242\211"
 275      018C29BD 
 275      992889B8 
 275      5A059248 
 275      7DA289
 276 01ab AA377EF6 		.ascii	"\2527~\366pX\270\224\204\342\224HY\365\275\372ku<M\004"
 276      7058B894 
 276      84E29448 
 276      59F5BDFA 
 276      6B753C4D 
 277 01c0 1947BC2B 		.ascii	"\031G\274+m\010\276\371\013jI\372\307G\236\336(ja,\020"
 277      6D08BEF9 
 277      0B6A49FA 
ARM GAS  /tmp/cciivHZX.s 			page 22


 277      C7479EDE 
 277      286A612C 
 278 01d5 95FA4896 		.ascii	"\225\372H\226\250?\2138C\2113\224\270f\177$.3\233\270"
 278      A83F8B38 
 278      43893394 
 278      B8667F24 
 278      2E339BB8 
 279 01e9 2C11641C 		.ascii	",\021d\034\375\017q\331\277\210\263bq\346P\\s0\203\270"
 279      FD0F71D9 
 279      BF88B362 
 279      71E6505C 
 279      733083B8 
 280 01fd E15BB4DF 		.ascii	"\341[\264\337\031\250\036\231\373\217\036\331S=\222"
 280      19A81E99 
 280      FB8F1ED9 
 280      533D92
 281 020c 23804C3B 		.ascii	"#\200L;\034\204af\2466\311\001|\001\277\333;1\374\010"
 281      1C846166 
 281      A636C901 
 281      7C01BFDB 
 281      3B31FC08 
 282 0220 0E6B80A4 		.ascii	"\016k\200\244]4\3729\247\\\253\256:n\255t\307)\255\336"
 282      5D34FA39 
 282      A75CABAE 
 282      3A6EAD74 
 282      C729ADDE 
 283 0234 76DCB2B7 		.ascii	"v\334\262\267\342\325\326\235\215\265[7\256;4)\027+"
 283      E2D5D69D 
 283      8DB55B37 
 283      AE3B3429 
 283      172B
 284 0246 CECDDADA 		.ascii	"\316\315\332\332\306\272s)\177q\341ld\227\34677\235"
 284      C6BA7329 
 284      7F71E16C 
 284      6497E637 
 284      379D
 285 0258 62C95DAE 		.ascii	"b\311]\256TJg\\\370\005*c]\266"
 285      544A675C 
 285      F8052A63 
 285      5DB6
 286              		.text
 287              		.section	.gnu.lto_adc_lld_start.5d3ea61fa7948b27,"",%progbits
 288 0000 789C6362 		.ascii	"x\234cb`b@\007\206@\374\016\210\335\200\230\221\225"
 288      60624007 
 288      8640FC0E 
 288      88DD8098 
 288      9195
 289 0012 819169C2 		.ascii	"\201\221i\3029\006\206F\016&&\346c\262\014\015\\,\247"
 289      39068646 
 289      0E2626E6 
 289      63B20C0D 
 289      5C2CA7
 290 0025 0C181A78 		.ascii	"\014\030\032x\230\031Y@\302\214,\214\214 \232\201\221"
 290      98195940 
 290      C28C2C8C 
 290      8C209A81 
 290      91
ARM GAS  /tmp/cciivHZX.s 			page 23


 291 0036 A19E8999 		.ascii	"\241\236\211\231\205\261>\222\021l\306z\246\003\017"
 291      85B13E92 
 291      116CC67A 
 291      A6030F
 292 0045 FEFF5F37 		.ascii	"\376\377_7\351\324\262?\214\253\230\330\230\030s\031"
 292      E9D4B23F 
 292      8CAB98D8 
 292      98187319 
 293 0055 19981932 		.ascii	"\031\230\0312\301\222\254\014-\015\015\023\024\030\030"
 293      C192AC0C 
 293      2D0D0D13 
 293      141818
 294 0064 92C1DC10 		.ascii	"\222\301\334\020 \0112\"\224\221\011D3\237eh\2725c\361"
 294      20093222 
 294      94910944 
 294      339F6568 
 294      BA3563F1 
 295 0078 4DC644C6 		.ascii	"M\306D\306\205@\333\323\031\231\265\031\2642\031\031"
 295      8540DBD3 
 295      1999B519 
 295      B4321919 
 296 0088 6733CC62 		.ascii	"g3\314b\314ddJgd\212\000\322\314`[\222\030an>\301p\344"
 296      CC64644A 
 296      67648A00 
 296      D2CC605B 
 296      9218616E 
 297 00a0 79232F5C 		.ascii	"y#/\\\013H\011##\222\237B\201:\216\3112\237gh\341\200"
 297      0B480923 
 297      23929F42 
 297      813A8EC9 
 297      329F6768 
 298 00b6 286260A8 		.ascii	"(b`\250f\370\325\320\321 \220\311\310\222\014U\0124"
 298      66F8D5D0 
 298      D12090C9 
 298      C8920C55 
 298      0A34
 299 00c8 3B132C05 		.ascii	";\023,\005\326\300\002v\315E\206\306\007\353Uaz  \004"
 299      D6C00276 
 299      CD4586C6 
 299      07EB5561 
 299      7A202004 
 300 00dc A81E2807 		.ascii	"\250\036(\007\0129\027\375\214\374\334T\375\344\374"
 300      0A3917FD 
 300      8CFCDC54 
 300      FDE4FC
 301 00eb 944AFD94 		.ascii	"\224J\375\224\3242\375\344\214\314\244\314\374b\375"
 301      D432FDE4 
 301      8CCCA4CC 
 301      FC62FD
 302 00fa 92A2D2BC 		.ascii	"\222\242\322\274l} ##1G\277 \277\250\244X?8\304\327"
 302      6C7D2023 
 302      233147BF 
 302      20BFA8A4 
 302      583F38C4 
 303 010f D80842BA 		.ascii	"\330\010B\272\031VT\350'\246$\307\347\344\244\350%3"
 303      195654E8 
 303      27A624C7 
ARM GAS  /tmp/cciivHZX.s 			page 24


 303      E7E4A4E8 
 303      2533
 304 0121 0000DE8A 		.ascii	"\000\000\336\212P\211"
 304      5089
 305              		.text
 306              		.section	.gnu.lto_adc_lld_stop.5d3ea61fa7948b27,"",%progbits
 307 0000 789C5D8F 		.ascii	"x\234]\217\277J\003A\020\306\277\231\275\213A\"\370"
 307      BF4A0341 
 307      10C6BF99 
 307      BD8B4122 
 307      F8
 308 0011 02012D6C 		.ascii	"\002\001-l\024\\\377<\201 \351\254L@+I\356Br\230x\222"
 308      145CFF3C 
 308      8120E9AC 
 308      4C402B49 
 308      EE427298 
 309 0027 44895864 		.ascii	"D\211Xd#)\2044\251Mec\247\202O\240 A\004\025KE!\235"
 309      23298434 
 309      A94D6563 
 309      A7824FA0 
 309      20410415 
 310 003f 4F20884D 		.ascii	"O \210M\334\3353\242\016\354|;\314\357\233\335a0\376"
 310      DCDD33A2 
 310      0EEC7C3B 
 310      CCEF9BDD 
 310      6130FE
 311 0052 C7923E93 		.ascii	"\307\222>\223\004\244\264R\014\304\235{\240\031g\026"
 311      04A4B452 
 311      0CC49D7B 
 311      A0196716 
 312 0062 BD24D4A8 		.ascii	"\275$\324\250{;\007\225\020\354\274\217\230\252\333"
 312      7B3B0795 
 312      10ECBC8F 
 312      98AADB
 313 0071 832E1D72 		.ascii	"\203.\035r\015E.\221Q\020\032,\034\227\032\353dg\236"
 313      0D452E91 
 313      51101A2C 
 313      1C971AEB 
 313      64679E
 314 0084 F3657F30 		.ascii	"\363e\17708\353\264O^\350\224cLe\202@`\233.ZJu&\000"
 314      38EBB44F 
 314      5EE89463 
 314      4C658240 
 314      609B2E5A 
 315 009c CF96699D 		.ascii	"\317\226i\235\315\214\014\261Qq\207\203\347\217\213"
 315      CD8C0CB1 
 315      51718783 
 315      E78F8B
 316 00ab 27CAD231 		.ascii	"'\312\3221\271(\220\230\301t@\324\305\021\005\304\005"
 316      B9289098 
 316      C17440D4 
 316      C51105C4 
 316      05
 317 00bc E235ADC2 		.ascii	"\3425\255\302\276\222\243\341\0167\270~k\216\375X\014"
 317      BE92A3E1 
 317      0E37B87E 
 317      6B8EFD58 
ARM GAS  /tmp/cciivHZX.s 			page 25


 317      0C
 318 00cd 42BF37CD 		.ascii	"B\2777\315hG/)\014v\325m'\206 \357\343S\035*\265\250"
 318      68472F29 
 318      0C76D56D 
 318      278620EF 
 318      E3531D2A 
 319 00e3 27968980 		.ascii	"'\226\211\200?\026\007\003\026\017h\305#\034\210\350"
 319      3F160703 
 319      160F68C5 
 319      231C88E8 
 320 00f3 F1801CEF 		.ascii	"\361\200\034\357\033\326#\002\333\262\006\327.\360\210"
 320      1BD62302 
 320      DBB206D7 
 320      2EF088
 321 0102 66FF756A 		.ascii	"f\377uj\350\211\"\255y\3353_Z\226\305\260\234\227^\350"
 321      E88922AD 
 321      79DD335F 
 321      5A96C5B0 
 321      9C975EE8 
 322 0116 EF493FBF 		.ascii	"\357I?\277+\275b\220\013\302\252\254Uv\2666\245\276"
 322      2BBD6290 
 322      0BC2AAAC 
 322      5576B636 
 322      A5BE
 323 0128 14B325B9 		.ascii	"\024\263%\271\035VjU\271\232^Y\\\210rj\276^\227Y\337"
 323      1D566A55 
 323      B99A5E59 
 323      5C88726A 
 323      BE5E9759 
 324 013d DB2895FC 		.ascii	"\333(\225\374Y\017_m\236_\\"
 324      590F5F6D 
 324      9E5F5C
 325              		.text
 326              		.section	.gnu.lto_adc_lld_start_conversion.5d3ea61fa7948b27,"",%progbits
 327 0000 789C9D56 		.ascii	"x\234\235V]hTG\024\2363\367g7\373\347\376\344\247\233"
 327      5D685447 
 327      149E33F7 
 327      6737FBE7 
 327      FEE4A79B 
 328 0014 C44D621A 		.ascii	"\304Mb\032\2264\340E\373\224\207\"H\351\017\264Ph\002"
 328      9634E045 
 328      FB948722 
 328      48E90FB4 
 328      506802
 329 0027 AD2F76DD 		.ascii	"\255/v\335\015\233\245\211\033bZ\354\223w\335}\010\245"
 329      0D9BA589 
 329      1B625AEC 
 329      9377DD7D 
 329      08A5
 330 0039 0FA12F55 		.ascii	"\017\241/U\033Jl)\226\276\224\276E\024M\245\017JkQ\260"
 330      1B4A6C29 
 330      96BE94BE 
 330      45144DA5 
 330      0F4A6B51 
 331 004e A0623112 		.ascii	"\240b1\022\032\377\202 y\210\240\270\236sg\346\356\246"
 331      1AFF8220 
 331      7988A0B8 
ARM GAS  /tmp/cciivHZX.s 			page 26


 331      9E7367E6 
 331      EEA6
 332 0060 BD6C4C2E 		.ascii	"\275lL.\354\2319\367\236o\276o\316\2343,g\234\375\367"
 332      EC9939F7 
 332      9E6FBE6F 
 332      CE9C332C 
 332      679CFDF7 
 333 0074 D9873F08 		.ascii	"\331\207?\01006D\243\237\001\237\371\213\261\222\237"
 333      303644A3 
 333      9F019FF9 
 333      8BB1929F 
 334 0084 736D3ACD 		.ascii	"sm:\315\354\200A6\244q\2752H\336W-\350\351`\210 \203"
 334      EC804136 
 334      A471BD32 
 334      48DE572D 
 334      E8E96088 
 335 009a 9BD72C7C 		.ascii	"\233\327,|\355;\233\302\327&\370\304k\037\000M\030\260"
 335      ED3B9BC2 
 335      D726F8C4 
 335      6B1F004D 
 335      18B0
 336 00ac 235CD30D 		.ascii	"#\\\323\015\323\007G>\006\342\322v\260\223\266\375\365"
 336      D307473E 
 336      06E2D276 
 336      B093B6FD 
 336      F5
 337 00bd E2BF67EE 		.ascii	"\342\277g\356\300q{\2412g?\253V\001\012\200\272\336"
 337      C0717BA1 
 337      32673FAB 
 337      56010A80 
 337      BADE
 338 00cf 069605F6 		.ascii	"\006\226\005\366\021:\320\355\014\\_/T`\355\277s\027"
 338      113AD0ED 
 338      0C5C5F2F 
 338      5460EDBF 
 338      7317
 339 00e1 EDCA42B5 		.ascii	"\355\312B\265\272\307A\275\367r\250\205\307\177|\227"
 339      BAC741BD 
 339      F772A885 
 339      C77F7C97 
 340 00f1 B4E78ECE 		.ascii	"\264\347\216\316\330\317\221\260\000\032g\037l\204\374"
 340      D8CF91B0 
 340      001A671F 
 340      6C84FC
 341 0100 852F2C56 		.ascii	"\205/,V\253+\377\314-\315Cb'\260\014\234\204\035H\231"
 341      AB2BFFCC 
 341      2DCD4362 
 341      27B00C9C 
 341      841D4899 
 342 0114 811F70D4 		.ascii	"\201\037p\324a\034\230\201\316\217\350\230\362\243\217"
 342      611C9881 
 342      CE8FE898 
 342      F2A38F
 343 0123 1540F74B 		.ascii	"\025@\367K\247\011\035# \235 :f\010\215/\214\306\037"
 343      A7091D23 
 343      209D203A 
 343      66088D2F 
ARM GAS  /tmp/cciivHZX.s 			page 27


 343      8CC61F
 344 0136 41D31445 		.ascii	"A\323\024E\023\210\321,N\241\011\232\265\222i#\223D"
 344      1388D12C 
 344      4EA1099A 
 344      B5926923 
 344      9344
 345 0148 136CA759 		.ascii	"\023l\247Y\007\231\355dR\222\274\213\234n\351\364\220"
 345      0799ED64 
 345      5292BC8B 
 345      9C6EE9F4 
 345      90
 346 0159 D34BA68F 		.ascii	"\323K\246\217L\232L?\231\0012\270\021\203Ul{\246[\010"
 346      4C9A4C3F 
 346      990132B8 
 346      1183556C 
 346      7BA65B08 
 347 016d 1118219B 		.ascii	"\021\030!\233Q\006\360\031BK\0076\014\234F\3552;z\363"
 347      5106F019 
 347      424B0736 
 347      0C9C46ED 
 347      323B7AF3 
 348 0181 D8B9FB5A 		.ascii	"\330\271\373Z\006N\201\301\362`\014\260\237m|~\245\314"
 348      064E81C1 
 348      F2600CB0 
 348      9F6D7C7E 
 348      A5CC
 349 0193 7DCB4EE0 		.ascii	"}\313N\340\020\312\203NI\013;\251:\000*i\004}r\3567"
 349      10CA834E 
 349      490B3BA9 
 349      3A002A69 
 349      047D72EE 
 350 01a8 50505342 		.ascii	"PPSB\337\300\323\362FB\035\362\330\371\033.\322G\310"
 350      DFC0D3F2 
 350      46421DF2 
 350      D8F91B2E 
 350      D247C8
 351 01bb 68012202 		.ascii	"h\001\"\002\266\015e\020L\2230U\310\027Ye\245\024vA"
 351      B60D6510 
 351      4C933055 
 351      C8175965 
 351      A5147641 
 352 01cf 14B2EE1C 		.ascii	"\024\262\356\034\207\0211\235\306-\225O\227\327\276"
 352      8711319D 
 352      C62D954F 
 352      97D7BE
 353 01de 6957817E 		.ascii	"iW\201~\224F\261\230EA}\375\374}\227\0323\367Z\001\242"
 353      9446B198 
 353      45417DFD 
 353      FC7D971A 
 353      33F75A01 
 354 01f3 DE7A3597 		.ascii	"\336z5\227\370\367\345\322.\027B!QXG\254\263\013\235"
 354      F8F7E5D2 
 354      2E174221 
 354      515847AC 
 354      B30B9D
 355 0206 82F8D46C 		.ascii	"\202\370\324l\247\012\014(\342W\3358\243\226\364\245"
 355      A70A0C28 
ARM GAS  /tmp/cciivHZX.s 			page 28


 355      E257DD38 
 355      A396F4A5 
 356 0216 A48A0B3A 		.ascii	"\244\212\013:\032Lo\015j\207\210\331\247\000!\231\257"
 356      1A4C6F0D 
 356      6A8788D9 
 356      A7002199 
 356      AF
 357 0227 9880C471 		.ascii	"\230\200\304q\011\202\230\022bx@\302\016\207\337\233"
 357      09829812 
 357      627840C2 
 357      0E87DF9B 
 358 0237 C3AC011E 		.ascii	"\303\254\001\036\271\225\020\311\323\367\313\354\302"
 358      B99510C9 
 358      D3F7CBEC 
 358      C2
 359 0244 BBE20D71 		.ascii	"\273\342\015qV\020\224\020k4\243\014Z#&\327\3609#\302"
 359      56109410 
 359      6B34A30C 
 359      5A2326D7 
 359      F03923C2 
 360 0258 448E7F5A 		.ascii	"D\216\177ZrS\034\225j[\274O\327\357E\036C\330\372\015"
 360      72531C95 
 360      6A5BBC4F 
 360      D7EF451E 
 360      43D8FA0D 
 361 026c C45FE6A0 		.ascii	"\304_\346\240\360\004\276t\327H8\313\3047\261\207&\271"
 361      F004BE74 
 361      D74838CB 
 361      C437B187 
 361      26B9
 362 027e 878483B9 		.ascii	"\207\204\203\271tO\355a\003X@\302\300\201\335\234^v"
 362      744FED61 
 362      035840C2 
 362      C081DD9C 
 362      5E76
 363 0290 B7DEEA20 		.ascii	"\267\336\352 K\321\015\240\216\360\323\256\3606\004"
 363      4BD10DA0 
 363      8EF0D3AE 
 363      F03604
 364 029f 3A7503EC 		.ascii	":u\003\354\177\3427\\\013\341\2625\227\007\325\202I"
 364      7FE2375C 
 364      0BE1B235 
 364      9707D582 
 364      49
 365 02b0 277741EF 		.ascii	"'wA\357\334\005\353\232\362JDA\332\345\241\265z\037"
 365      DC05EB9A 
 365      F24A4441 
 365      DAE5A1B5 
 365      7A1F
 366 02c2 5AA84E77 		.ascii	"Z\250Nw\371{\256P\035\010t\224\333\\H\2774\023\254\027"
 366      F97BAE50 
 366      1D087494 
 366      DB5C48BF 
 366      3413AC17 
 367 02d6 6F0FBAEA 		.ascii	"o\017\272\352q\223I\012\015\312\025\303R}\207\274\036"
 367      7193490A 
 367      0DCA15C3 
ARM GAS  /tmp/cciivHZX.s 			page 29


 367      527D87BC 
 367      1E
 368 02e7 EED67A74 		.ascii	"\356\326zt{c-\221z-)\005J!\316\221R\022R\312g\312k\265"
 368      7B632D91 
 368      7A2D2905 
 368      4A21CE91 
 368      521252CA 
 369 02ff D6EC525F 		.ascii	"\326\354R_m{\257h\360\273\265\233\245\313\371Rk\357"
 369      6D7BAF68 
 369      F0BBB59B 
 369      A5CBF952 
 369      6BEF
 370 0311 1B0CB093 		.ascii	"\033\014\260\223\371\331\333\237\340e\242\335\272=\212"
 370      F9D9DB9F 
 370      E065A2DD 
 370      BA3D8A
 371 0320 ADADCF3E 		.ascii	"\255\255\317>\236\240\2066\3315K4\376\323Y\267\241\273"
 371      9EA08636 
 371      D9354B34 
 371      FED359B7 
 371      A1BB
 372 0332 D5EA6575 		.ascii	"\325\352euu\015c\177\210\316\307\310\352\354;*\262'"
 372      750D637F 
 372      88CEC7C8 
 372      EAEC3B2A 
 372      B227
 373 0344 0F1C8337 		.ascii	"\017\034\2037\231\253m2W=2W\017\256\272\265\323\333"
 373      99AB6D32 
 373      573D3257 
 373      0FAEBAB5 
 373      D3DB
 374 0356 38575137 		.ascii	"8WQ7W\233\240\213I\272^A7_G\327\327\230.\276\025\272"
 374      579BA08B 
 374      49BA5E41 
 374      375F47D7 
 374      D7982EBE 
 375 036c 84A4EB93 		.ascii	"\204\244\353\223\267u\035]\2721]\363V\350Z$]Z\266M\035"
 375      B7751D5D 
 375      BA315DF3 
 375      56E85A24 
 375      5D5AB64D 
 376 0381 5D7F63BA 		.ascii	"]\177c\272\326\255\320\265I\272~yv\017kt\003\215\351"
 376      D6ADD0B5 
 376      49BA7E79 
 376      760F6B74 
 376      038DE9
 377 0394 5ED90A5D 		.ascii	"^\331\012]R\322\015\010\334\223\207w\370&\213\014K\370"
 377      52D20D08 
 377      DC938777 
 377      F8268B0C 
 377      4BF8
 378 03a6 2A2B2DCE 		.ascii	"*+-\316\247\005N\265\004\226m\312\370s\265\023\253\335"
 378      A7054EB5 
 378      04966DCA 
 378      F873B513 
 378      ABDD
 379 03b8 5C59CDD1 		.ascii	"\\Y\315\321?\013\240\022\247\212\177\323\032-\216\217"
ARM GAS  /tmp/cciivHZX.s 			page 30


 379      3F0BA012 
 379      A78A7FD3 
 379      1A2D8E8F 
 380 03c8 58D962EE 		.ascii	"X\331b\356\013+7\362\271\225\035-\034(\024\017YS\223"
 380      0B2B37F2 
 380      B9951D2D 
 380      1C28140F 
 380      595393
 381 03db 9F1DFCD4 		.ascii	"\237\035\374\324\302\311hf\314\232(NN\035\262>\034z"
 381      C2C96866 
 381      CC9A284E 
 381      4E1DB23E 
 381      1C7A
 382 03ed FFF5DDC2 		.ascii	"\377\365\335\302\276\265\353\360a+\223\313\356\037\033"
 382      BEB5EBF0 
 382      612B93CB 
 382      EE1F1B
 383 03fc CBEDCC32 		.ascii	"\313\355\3142}\274\230\033\321\262\223\273\365\374\344"
 383      7DBC981B 
 383      D1B293BB 
 383      F5FCE4
 384 040b C4C40B80 		.ascii	"\304\304\013\200\3241\340"
 384      D431E0
 385              		.text
 386              		.section	.gnu.lto_adc_lld_stop_conversion.5d3ea61fa7948b27,"",%progbits
 387 0000 789C8D92 		.ascii	"x\234\215\222;K\003A\020\307g\366r\347].\017\333tv\202"
 387      3B4B0341 
 387      10C767F6 
 387      72E75D2E 
 387      0FDB7476 
 388 0015 0117B54A 		.ascii	"\001\027\265J/\202\205\225\021\324F\222KH\016\023O|"
 388      2F828595 
 388      11D44692 
 388      4B480E13 
 388      4F7C
 389 0027 A19589E6 		.ascii	"\241\225\211\346\003\210\225he+hJ\005-\304>>\332`\221"
 389      03889568 
 389      652B684A 
 389      052DC43E 
 389      3EDA6091 
 390 003b 4F20A28D 		.ascii	"O \242\215\3359s\257\004I\341\302\375g\331\235\337\354"
 390      DD3973AF 
 390      0449E1C2 
 390      FD67D99D 
 390      DFEC
 391 004d 3C4E8080 		.ascii	"<N\200\200\277+C\337-\035\317\221E\005P\234<\0034u\201"
 391      BF2B43DF 
 391      2D1DCF91 
 391      4505509C 
 391      3C033475 
 392 0062 C81B4038 		.ascii	"\310\033@8\024x\270\202\236o[<\366\\\367\346\364\245"
 392      1478B882 
 392      9E6F5B3C 
 392      F65CF7E6 
 392      F4A5
 393 0074 FD8E0F62 		.ascii	"\375\216\017bT`\035A\001\033!F\202*\211\320Xt\022\305"
 393      54601D41 
ARM GAS  /tmp/cciivHZX.s 			page 31


 393      011B2146 
 393      822A89D0 
 393      587412C5 
 394 0088 2089C549 		.ascii	" \211\305IT\223%\301\027)\022\215\002\251\320j4N\306"
 394      549325C1 
 394      1729128D 
 394      02A9D06A 
 394      344EC6
 395 009b 002C2F70 		.ascii	"\000,/p\236\224_[B\301V\351\300Q\367\347+S\300K\012"
 395      9E945F5B 
 395      42C156E9 
 395      C051F7E7 
 395      2B53C04B 
 396 00b0 5A41250B 		.ascii	"ZA%\013\023\364\310\005\234\243\215#\025\024\313du/"
 396      13F4C805 
 396      9CA38D23 
 396      1514CB64 
 396      752F
 397 00c2 A3228675 		.ascii	"\243\"\206u\020\263\032\002\261,\\5Fm4|$N!\030\201\000"
 397      10B31A02 
 397      B12C5C35 
 397      466D347C 
 397      244E2118 
 398 00d8 C108798A 		.ascii	"\301\010y\212\020\225\221V\223 \323\207\022\024\206"
 398      10959156 
 398      9320D387 
 398      121486
 399 00e7 21238044 		.ascii	"!#\200D\004\035\337+!\245\021\310N\342\323u\335\264"
 399      041DDF2B 
 399      21A511C8 
 399      4EE2D375 
 399      DDB4
 400 00f9 1F72DEBF 		.ascii	"\037r\336\277\374_\274\012\267c0u=H=9<ueH\265F\200\244"
 400      FC5FBC0A 
 400      B7633075 
 400      3D483D39 
 400      3C756548 
 401 0111 8623B13E 		.ascii	"\206#\261>\362\021%NN\206W\313utd2\244\246\371\362\217"
 401      F211254E 
 401      4E8657CB 
 401      75746432 
 401      A4A6F9F2 
 402 0126 33A56E0E 		.ascii	"3\245n\016\226F\3574[\344lR\272\014%\203R\022\036\327"
 402      9646EF34 
 402      5BE46C52 
 402      BA0C2583 
 402      52121ED7 
 403 013a 3DFBCE85 		.ascii	"=\373\316\205d\312\233\2346|rj\177\014w\257\361\301"
 403      64CA9B9C 
 403      367C726A 
 403      7F0C77AF 
 403      F1C1
 404 014c AE357251 		.ascii	"\2565rQ\333\322\024\204!-\200|\313'&o\336\240\331\353"
 404      DBD21484 
 404      212D807C 
 404      CB27266F 
 404      DEA0D9EB 
ARM GAS  /tmp/cciivHZX.s 			page 32


 405 0160 8CFB6CB8 		.ascii	"\214\373l\270\3624`\372\213\270\301\263\262\352\324"
 405      F23460FA 
 405      8BB8C1B3 
 405      B2EAD4
 406 016f CBD2724A 		.ascii	"\313\322rJ\007\262T\336\223V\325.\332\316\266\334\331"
 406      07B254DE 
 406      9356D52E 
 406      DACEB6DC 
 406      D9
 407 0180 DADD5897 		.ascii	"\332\335X\227\264\251\026jr\323\331\332\331\226\213"
 407      B4A9166A 
 407      72D3D9DA 
 407      D9968B
 408 018f F9859969 		.ascii	"\371\205\231i_\347\246\366\367e\241d\255\325j\245I\013"
 408      5FE7A6F6 
 408      F765A164 
 408      ADD56AA5 
 408      490B
 409 01a1 7E01A90C 		.ascii	"~\001\251\014\236\323"
 409      9ED3
 410              		.text
 411              		.section	.gnu.lto_.symbol_nodes.5d3ea61fa7948b27,"",%progbits
 412 0000 789C4DCC 		.ascii	"x\234M\314\273j\002a\020\005\340sf\376u\275\254>J|\003"
 412      BB6A0261 
 412      1005E073 
 412      66FE75BD 
 412      AC3E4A7C 
 413 0015 DFC52719 		.ascii	"\337\305'\031\211Mba\004\013\033\223'\260K\223Z\013"
 413      894D6261 
 413      040B1B93 
 413      27B04B93 
 413      5A0B
 414 0027 2F495422 		.ascii	"/IT\"Z\211H\004\261\263\020\354\"\356\242\344\337i\016"
 414      5A894804 
 414      B1B310EC 
 414      22EEA2E4 
 414      DF690E
 415 003a DF996104 		.ascii	"\337\231a\004\202\007\3426\262\244\021\255)`\366\372"
 415      8207E236 
 415      B2A411AD 
 415      2960F6FA 
 416 004a C4604804 		.ascii	"\304`H\004\006\031\321po\273\317UY\321\304\037\311\232"
 416      0619D170 
 416      6FBBCF55 
 416      59D1C41F 
 416      C99A
 417 005c A6298E69 		.ascii	"\246)\216i\356\316\267\370\305\214D\374bB\013|+\237"
 417      EECEB7F8 
 417      C58C44FC 
 417      62420B7C 
 417      2B9F
 418 006e B44C8A5F 		.ascii	"\264L\212_\2640\305oZ\326\223sZ\356\306Z\215\374\241"
 418      B430C56F 
 418      5AD69373 
 418      5AEEC65A 
 418      8DFCA1
 419 0081 E5BD16B4 		.ascii	"\345\275\026\264\202\327\224\026\375KQ\300\240\027\251"
ARM GAS  /tmp/cciivHZX.s 			page 33


 419      82D79416 
 419      FD4B51C0 
 419      A017A9
 420 0090 441834CF 		.ascii	"D\0304\317\241\212\303\343\3139t\202\323d\230Q-b\267"
 420      A18AC3E3 
 420      CB397482 
 420      D3649851 
 420      2D62B7
 421 00a3 BD505DBC 		.ascii	"\275P]\274\356\374\251sho\216I\274\267\217\022\307\242"
 421      EEFCA973 
 421      686F8E49 
 421      BCB78F12 
 421      C7A2
 422 00b5 5149BAC6 		.ascii	"QI\272\306^4(\241\236\234\206@\377P\326\254\342\367"
 422      5E3428A1 
 422      9E9C8640 
 422      FF50D6AC 
 422      E2F7
 423 00c7 437005E2 		.ascii	"Cp\005\342|[\346"
 423      7C5BE6
 424              		.text
 425              		.section	.gnu.lto_.refs.5d3ea61fa7948b27,"",%progbits
 426 0000 789C6362 		.ascii	"x\234cb`b\020g\200\000&\006&F&&VV&F\020`b\003\022\034"
 426      60621067 
 426      80002606 
 426      26462626 
 426      56562646 
 427 001a 4C8C0C00 		.ascii	"L\214\014\000\005\245\000L"
 427      05A5004C 
 428              		.text
 429              		.section	.gnu.lto_.decls.5d3ea61fa7948b27,"",%progbits
 430 0000 789CBD5C 		.ascii	"x\234\275\\\011x\024\305\236\357\356\231\311A\002\204"
 430      097814C5 
 430      9EEFEE99 
 430      C9410284 
 431 0010 78E1F196 		.ascii	"x\341\361\226\361=\335\307\363[\011\011\274'\356\241"
 431      F13DDDC7 
 431      F35B0909 
 431      BC27EEA1 
 432 0020 6040C14F 		.ascii	"`@\301O\216\027\342\036\337\267\273c3i\310\274\227d"
 432      8E17E21E 
 432      DFB7BB63 
 432      3369C8BC 
 432      9764
 433 0032 C69909C7 		.ascii	"\306\231\011\307\333\375\326\346\220S \004\020\204\020"
 433      DBFDD6E6 
 433      90532004 
 433      108410
 434 0041 4044C503 		.ascii	"@D\305\003\225S\316\035|*\201\270! \"\227\020PNA\011"
 434      9553CE1D 
 434      7C2A81B8 
 434      21202297 
 434      10504E41 
 435 0056 88C07264 		.ascii	"\210\300rd\377\365\357\356\351\256\232\356\231\356\321"
 435      FFF5EFEE 
 435      E9AE9AEE 
 435      99EED1
ARM GAS  /tmp/cciivHZX.s 			page 34


 436 0065 B7F3A5FE 		.ascii	"\267\363\245\376]S]\365\253\377UU\377\252\351\216\300"
 436      5D535DF5 
 436      ABFF5555 
 436      FFAAE98E 
 436      C0
 437 0076 095CE70C 		.ascii	"\011\\\347\014\216k\203\317\312A\034'es\\;\216\343\036"
 437      8E6B83CF 
 437      CA411C27 
 437      65735C3B 
 437      8EE31E
 438 0089 83940969 		.ascii	"\203\224\011i)\2447!=\317s\334*\270rp}\033.\2079\345"
 438      29A43721 
 438      3DCF73DC 
 438      2AB87270 
 438      7D1B2E87 
 439 009f D31E523B 		.ascii	"\323\036R;\201\343:A\272\013\322/ =\010\3517\220\012"
 439      81E33A41 
 439      BA0BD22F 
 439      203D08E9 
 439      37900A
 440 00b2 20F580F4 		.ascii	" \365\200\364\010\244\277\2034\000\322`HC!\301\037\367"
 440      08A4BF83 
 440      3400D260 
 440      484321C1 
 440      1FF7
 441 00c4 2C907F12 		.ascii	",\220\177\0228\352Cpn\207\353iH\035 \345B:\011}\236"
 441      38EA4370 
 441      6E87EB69 
 441      481D20E5 
 441      423A097D 
 442 00d9 E7157ED6 		.ascii	"\347\025~\326\252\375\277\003\351_\005\235\277\277\207"
 442      AAFDBF03 
 442      E95F059D 
 442      BFBF87
 443 00e8 FCBF413A 		.ascii	"\374\277A:\005\3677C\372\016\322\277\303\367Q\220\326"
 443      05F73743 
 443      FA0ED2BF 
 443      C3F75190 
 443      D6
 444 00f9 A96D4FC0 		.ascii	"\251mO\300\365\034\244+\220\202P\276\006\256[!\305 "
 444      F51CA42B 
 444      908250BE 
 444      06AE5B21 
 444      C520
 445 010b B9D4BE09 		.ascii	"\271\324\276\011\237\355T\376\356\020\024\036\215\037"
 445      9FED54FE 
 445      EE10141E 
 445      8D1F
 446 0119 72EF57AA 		.ascii	"r\357W\252n\216A\312\206\266k\341\372\214\240\363y\223"
 446      6E8E41CA 
 446      86B66BE1 
 446      FA8CA0F3 
 446      7993
 447 012b 4735716E 		.ascii	"G5qn\225_\302+\341\231\345o4|\037\243\362\367'\270\036"
 447      955FC22B 
 447      E199E56F 
 447      347C1FA3 
ARM GAS  /tmp/cciivHZX.s 			page 35


 447      F2F727B8 
 448 0140 873AFF21 		.ascii	"\207:\377!\350z\276\011\227\377Te\374/\270\336\007e"
 448      E87ABE09 
 448      97FF5465 
 448      FC2FB8DE 
 448      0765
 449 0152 2F088A2D 		.ascii	"/\010\212-\236\206\253\014\351\257 \345\030d\273\004"
 449      9E86AB0C 
 449      E9AF20E5 
 449      1864BB04 
 450 0162 E906A436 		.ascii	"\351\006\2446^\221\217\310\326\002\367\257C\372\000"
 450      5E918FC8 
 450      D602F7AF 
 450      43FA00
 451 0171 D2BDF0DD 		.ascii	"\322\275\360\335\243\312A\3542V\265\313/T\231;\000\311"
 451      A3CA41EC 
 451      3256B5CB 
 451      2F54993B 
 451      00C9
 452 0183 6564BE4B 		.ascii	"ed\276K\355\343\244\252G\302?\341\331(\333d\2503D\320"
 452      EDE3A4AA 
 452      47C23FE1 
 452      D928DB64 
 452      A83344D0 
 453 0197 754E64D7 		.ascii	"uNd\327t{B\325\267\240b\021\037 \372\271\227\351\207"
 453      747B42D5 
 453      B7A06211 
 453      1F20FAB9 
 453      97E987
 454 01aa F0F01BD5 		.ascii	"\360\360\033\325\2674\333kz&\376p\215Sx'\266j\346\254"
 454      B734DB6B 
 454      7A26FE70 
 454      8D537827 
 454      B66AE6AC 
 455 01be F5ADD943 		.ascii	"\365\255\331C\343m\212\252\333\251p\235\006\351%H\227"
 455      E36D8AAA 
 455      DBA9709D 
 455      06E92548 
 455      97
 456 01cf 52D86355 		.ascii	"R\330cU\012\335w\344\024\275\236\202\324\012\351\020"
 456      0ADD77E4 
 456      14BD9E82 
 456      D40AE910 
 457 01df A4739076 		.ascii	"\244s\220v\245\260\205f\003\267*\257\321\006D\035\277"
 457      A5B08566 
 457      03B72AAF 
 457      D106441D 
 457      BF
 458 01f0 02F24B46 		.ascii	"\002\362KF/d<uPu1]PdzH\320\365O\364pJ\305\\\252\332"
 458      2F643C75 
 458      5075315D 
 458      50647A48 
 458      D0F54FF4 
 459 020a C7E8FB30 		.ascii	"\307\350\3730\274\261\177\302W\246\240\330B\263\215"
 459      BCB17FC2 
 459      57A6A0D8 
 459      42B38D
ARM GAS  /tmp/cciivHZX.s 			page 36


 460 0219 A0E2271B 		.ascii	"\240\342'\033\223d,\023\014\242W\242\027M\2573\240<"
 460      93642C13 
 460      0CA257A2 
 460      174DAF33 
 460      A03C
 461 022b 5FB52591 		.ascii	"_\265%\221KP\353vR\313\036fp\012,pfByg\006\247@\235"
 461      4B50EB76 
 461      52CB1E66 
 461      700A2C70 
 461      66427967 
 462 0243 4F48BED0 		.ascii	"OH\276\320d\034\222y\245\263*\257\346+\232\237x\014"
 462      641C9279 
 462      A5B32AAF 
 462      E62B9A9F 
 462      780C
 463 0255 BED1ACEA 		.ascii	"\276\321\254\352\315\305\321\376\252\371\304a\023? "
 463      CDC5D1FE 
 463      AAF9C461 
 463      133F20
 464 0264 FE51A3EA 		.ascii	"\376Q\243\352\356\036\325\316Do\247T;k\366%\266\276"
 464      EE1ED5CE 
 464      446FA754 
 464      3B6BF625 
 464      B6BE
 465 0276 C62B76BF 		.ascii	"\306+v\277\254\332\233\3509G\235W\332\253:\356\010\351"
 465      ACDA9BE8 
 465      39479D57 
 465      DAAB3AEE 
 465      08E9
 466 0288 23489D20 		.ascii	"#H\235 }\014\3516H{ \335\001i/\244\273 \355S}\270\207"
 466      7D0CE936 
 466      487B20DD 
 466      01692FA4 
 466      BB20ED53 
 467 029f AA87DF32 		.ascii	"\252\207\3372\362\022?\311\343\350\2710\235y\3068\017"
 467      F2123FC9 
 467      E3E8B930 
 467      9D79C638 
 467      0F
 468 02b0 9AF927AF 		.ascii	"\232\371'\257\366E\256\2172<ds\223ey\234\274d\242\334"
 468      F645AE8F 
 468      323C6473 
 468      9365799C 
 468      BC64A2DC 
 469 02c4 BF0174FE 		.ascii	"\277\001t\376\317\274\310w\310\346\274\230\311\315F"
 469      CFBCC877 
 469      C8E6BC98 
 469      C9CD46
 470 02d3 361EE45E 		.ascii	"6\036\344^\223\345\232\226O\216\267\010\262\234%\362"
 470      93E59A96 
 470      4F8EB708 
 470      B29C25F2 
 471 02e3 4BF96C30 		.ascii	"K\371l0\341\257y\356!n\205\014w\240\375=\\\342\307>"
 471      E1AF79EE 
 471      216E850C 
 471      77A0FD3D 
 471      5CE2C73E 
ARM GAS  /tmp/cciivHZX.s 			page 37


 472 02f7 F2D1638D 		.ascii	"\362\321c\215.D^\216\310\025<'\362\257\361\017\2518"
 472      2E445E8E 
 472      C8153C27 
 472      F2AFF10F 
 472      A938
 473 0309 229F996D 		.ascii	"\"\237\231m\304\305\357Z\005\002\206\267\325\014Y\362"
 473      C4C5EF5A 
 473      050286B7 
 473      D50C59F2 
 474 0319 3A724EAB 		.ascii	":rN\253\347pSuV\357\344\346\202T\344\213\314GE\376\261"
 474      E7705375 
 474      56EFE4E6 
 474      8254E48B 
 474      CC4745FE 
 475 032e 3B4C5927 		.ascii	";LY'\300+\370;1\347B\217\246Q\362\271Y\004\305k\020"
 475      C02BF83B 
 475      31E7428F 
 475      A651F2B9 
 475      5904C56B 
 476 0343 7D894B03 		.ascii	"}\211K\003\350i\220}\322W\257\362\343\241+\221\177\207"
 476      E869907D 
 476      D257AFF2 
 476      E3A12B91 
 476      7F87
 477 0355 CF07A0CD 		.ascii	"\317\007\240\315<-~J \221_\311\013@\337\203\346JC\204"
 477      3C2D7E4A 
 477      20915FC9 
 477      0B40DF83 
 477      E64A4384 
 478 0369 96633767 		.ascii	"\226c7g\346\312n\245\234\243 \251\317\375\334\022\340"
 478      E6CA6EA5 
 478      9CA320A9 
 478      CFFDDC12 
 478      E0
 479 037a 3A36774F 		.ascii	":6wO\375]rK\214\317\344&\022!Z^\034\327y\276\336c\226"
 479      FD5D724B 
 479      8CCFE426 
 479      12215A5E 
 479      1CD779BE 
 480 0391 D621AF73 		.ascii	"\326!\257s\276\250io!Zm\0254\022`\320\320|\333\000\""
 480      BEA8696F 
 480      215A6D15 
 480      341260D0 
 480      D07CDB00 
 481 03a6 5CAD85C6 		.ascii	"\\\255\205\306\024\327k'v$\\\223\362$\\\243\312\005"
 481      14D76B27 
 481      76245C93 
 481      F2245CA3 
 481      CA05
 482 03b8 6E82C023 		.ascii	"n\202\300#\240;[/\233\251\227\361\206\252\363\365b\301"
 482      A03B5B2F 
 482      9BA997F1 
 482      86AAF3F5 
 482      62C1
 483 03ca 50FCAA5E 		.ascii	"P\374\252^\3542\024\277\253\027\273\015\305\033\365"
 483      EC3214BF 
 483      AB17BB0D 
ARM GAS  /tmp/cciivHZX.s 			page 38


 483      C51BF5
 484 03d9 628FCA09 		.ascii	"b\217\312\011\371\312g\353\2316\236q?]B\221_\307?\010"
 484      F9CA67EB 
 484      99369E71 
 484      3F5D4291 
 484      5FC73F08 
 485 03ed 743DEF32 		.ascii	"t=\3572m&p\037\013\274jI3}\251Y\275\337\016\361\201"
 485      6D26701F 
 485      0BBC6A49 
 485      337DA959 
 485      BDDF0EF1 
 486 0402 A15811BC 		.ascii	"\241X\021\274i\3737\374\354\361rCw3g\204/|\362\241\030"
 486      69FB37FC 
 486      ECF17243 
 486      77336784 
 486      2F7CF2A1 
 487 0417 BBB48BF7 		.ascii	"\273\264\213\367j\2653\254\352\212\374v\220#e5Rq\007"
 487      6AB533AC 
 487      EA8AFC76 
 487      90236535 
 487      527107
 488 042a EB944777 		.ascii	"\353\224Gw\241S\356\260\345\224\255\273\352\357\226"
 488      A153EEB0 
 488      E594ADBB 
 488      EAEF96
 489 0439 977CC46B 		.ascii	"\227|\304ks\316NT\317\016]=T\177I\324c0\207b\210\235"
 489      73CE4E54 
 489      CF0E5D3D 
 489      547F49D4 
 489      63308762 
 490 044f 688846FE 		.ascii	"h\210F\376~\375\226\3005\013\354\314\243\260ih\255\313"
 490      7EFD96C0 
 490      350BECCC 
 490      A3B06968 
 490      ADCB
 491 0461 C3B1EDAD 		.ascii	"\303\261\355\255T\360\011\237\243wq\2205pJ\011\274\224"
 491      54F0099F 
 491      A3777190 
 491      35704A09 
 491      BC94
 492 0473 46D6D62E 		.ascii	"F\326\326.F\215P\346UgZy\242\334\365M\335\026y\032\234"
 492      468D50E6 
 492      55675A79 
 492      A2DCF54D 
 492      DD16791A 
 493 0488 A09B77F1 		.ascii	"\240\233w\361\324;\210\366w\2436\2171\342\332\206i\371"
 493      D43B88F6 
 493      77A3368F 
 493      31E2DA86 
 493      69F9
 494 049a 64E19D04 		.ascii	"d\341\235\004f/\302\234O\033\346\350\206\235\312\274"
 494      662FC29C 
 494      4F1BE6E8 
 494      869DCABC 
 495 04aa FF2502FD 		.ascii	"\377%\002\375\230\240~\0273\361\273\350\231\334\225"
 495      98A07E17 
 495      33F1BBE8 
ARM GAS  /tmp/cciivHZX.s 			page 39


 495      99DC95
 496 04b9 AD67DADA 		.ascii	"\255g\332\332\\\334_\260\262\225q\233\215\306\035\353"
 496      5CDC5FB0 
 496      B295719B 
 496      8DC61DEB 
 497 04c9 B261DC2C 		.ascii	"\262a\334,\243q9\243qa\364\356\332\253\214^\373k\347"
 497      A37139A3 
 497      7161F4EE 
 497      DAAB8C5E 
 497      FB6BE7
 498 04dc EA05FB2E 		.ascii	"\352\005\373.\361\343p\3758\214Z\334\354b\265\350a\264"
 498      F1E370FD 
 498      388C5ADC 
 498      EC62B5E8 
 498      61B4
 499 04ee E8A165F5 		.ascii	"\350\241e\365d\353\031u=\024\270?;\026\305\313\210\362"
 499      64EB1975 
 499      3D14B83F 
 499      3B16C5CB 
 499      88F2
 500 0500 45B28948 		.ascii	"E\262\211H\246&\242\230\240!v\325]\365s}&\362Z\326\025"
 500      A626A298 
 500      A02176D5 
 500      5DF5737D 
 500      26F25AD6 
 501 0515 F9AFF599 		.ascii	"\371\257\365\231\310\272\032\251x\"a&j\304\231\350\204"
 501      C8BA1AA9 
 501      78226126 
 501      6AC499E8 
 501      84
 502 0526 AD99E84A 		.ascii	"\255\231\350J\243\262<fq\223\224UM\036\313?\237dy$Q"
 502      A3B23C66 
 502      71939455 
 502      4D1ECB3F 
 502      9F647924 
 503 053b 9120F2A7 		.ascii	"\221 \362\247\241\201\300\355p\361f\320\244WRAS\242"
 503      A181C0ED 
 503      70F166D0 
 503      A4575241 
 503      53A2
 504 054d 92D772B8 		.ascii	"\222\327r\270\036\354B3\234Hw=\210\335\232\226\333\374"
 504      1EEC4233 
 504      9C48773D 
 504      88DD9A96 
 504      DBFC
 505 055f 9CFDE961 		.ascii	"\234\375\351a\2032=\234GG\332\237\340H{y\207\343Q\340"
 505      83323D9C 
 505      4747DA9F 
 505      E0487B79 
 505      87E351E0 
 506 0573 BE6505A0 		.ascii	"\276e\005\240\2725\023 \217\022`^S}\342|g?B\273DGh\""
 506      BA351320 
 506      8F12605E 
 506      537DE27C 
 506      673F42BB 
 507 058b FF3620C5 		.ascii	"\3776 \305\277\250\2037\376\375\260\"\237\310?\253O"
 507      BFA88337 
ARM GAS  /tmp/cciivHZX.s 			page 40


 507      FEFDB022 
 507      9FC83FAB 
 507      4F
 508 059c 0F49D6CA 		.ascii	"\017I\326\312W\246\335N\264u\021P\004\356*\243-\212"
 508      57A6DD4E 
 508      B4751150 
 508      04EE2AA3 
 508      2D8A
 509 05ae 6185112B 		.ascii	"a\205\021+&\257\001\200\271\377%\334\023\270\211nF\241"
 509      26AF0180 
 509      B9FF25DC 
 509      13B8896E 
 509      46A1
 510 05c0 0E1790C5 		.ascii	"\016\027\220\305?M\2417\223(\324v\350\030;\264\223\367"
 510      3F4DA137 
 510      9328D476 
 510      E8183BB4 
 510      93F7
 511 05d2 8ABC2C90 		.ascii	"\212\274,\220\270q\272;\255\270q\274\300\304\215_N\305"
 511      B871BA3B 
 511      ADB871BC 
 511      C0C48D5F 
 511      4EC5
 512 05e4 B89194A7 		.ascii	"\270\221\224\247\216\033\347\273\015q#g#\210\323\273"
 512      8E1BE7BB 
 512      0D712367 
 512      2388D3BB 
 513 05f4 13F90902 		.ascii	"\023\371\011\002\211\035^\024\314\2038\007\016\264I"
 513      891D5E14 
 513      CC833807 
 513      0EB449
 514 0603 71A01BE8 		.ascii	"q\240\033\350@o\273\223:\320\315$\0164E\260v \346\236"
 514      406FBB93 
 514      3AD0CD24 
 514      0E3445B0 
 514      7620E69E 
 515 0617 C06DB5E3 		.ascii	"\300m\265\343@\326\213TlK\023\035\223mw\214G;\344\301"
 515      40D68B54 
 515      6C4B131D 
 515      936D778C 
 515      473BE4C1 
 516 062b A6DC1A51 		.ascii	"\246\334\032Q\003k\264\003\226g\315\334\217F\260]\216"
 516      036BB403 
 516      9667CDDC 
 516      8F46B05D 
 516      8E
 517 063c C168CE6A 		.ascii	"\301h\316jw\031\300\276\260\003\326\331\232\263:#\330"
 517      7719C0BE 
 517      B003D6D9 
 517      9AB33A23 
 517      D8
 518 064d 21C76034 		.ascii	"!\307`4g\353\214`-v\300\274\326\2345\033\301N8\006\363"
 518      67EB8C60 
 518      2D76C0BC 
 518      D69C351B 
 518      C14E3806 
 519 0662 26B89C32 		.ascii	"&\270\2342JNb\204}\012\"d\221?\207\264\025\351u\244"
ARM GAS  /tmp/cciivHZX.s 			page 41


 519      4A4E6284 
 519      7D0A2264 
 519      913F87B4 
 519      15E975A4 
 520 0676 D30442A7 		.ascii	"\323\004B\247#\235\211t\026\322\331H\347\"\235'P\321"
 520      239D8974 
 520      16D2D948 
 520      E7229D27 
 520      50D1
 521 0688 F95937BB 		.ascii	"\371Y7\273\036\235`\243\363\023Tt\376\263\365m5\356"
 521      1E9D60A3 
 521      F3135474 
 521      FEB3F56D 
 521      35EE
 522 069a 8E1983BF 		.ascii	"\216\031\203\277\233n\033\021S\022\327=\262\007\314"
 522      9B6E1B11 
 522      5312D73D 
 522      B207CC
 523 06a9 90F208C1 		.ascii	"\220\362\010\301\255!\365\345\342!\340\334\263\261\316"
 523      AD21F5E5 
 523      E221E0DC 
 523      B3B1CE
 524 06b8 1B65394F 		.ascii	"\033e9O\344\027\011\344\004a\223'\365\011\002\205\003"
 524      E41709E4 
 524      04619327 
 524      F5090285 
 524      03
 525 06c9 FB4E6CB2 		.ascii	"\373Nl\262D\240C\244\226-\337\265\334;\037\221\311\255"
 525      44A043A4 
 525      962DDFB5 
 525      DC3B1F91 
 525      C9AD
 526 06db D451D2F5 		.ascii	"\324Q\322\365\211\213\022\027\027\205-+\035\276\306"
 526      898B1217 
 526      17852D2B 
 526      1DBEC6
 527 06ea CE4FE333 		.ascii	"\316O\34334V\034\356\361\264\220\347Stg\202+pS\035\203"
 527      34561CEE 
 527      F1B490E7 
 527      53746782 
 527      2B70531D 
 528 06ff 7929B0D9 		.ascii	"y)\260\331\333\353P \373\361\370\347\027O\337\275\005"
 528      DBEB5020 
 528      FBF1F8E7 
 528      174FDFBD 
 528      05
 529 0710 55B64220 		.ascii	"U\266B \003\352`\006\353\265K\331(*\365\371\224\300"
 529      03EA6006 
 529      EBB54BD9 
 529      282AF5F9 
 529      94C0
 530 0722 1DB72388 		.ascii	"\035\267#\210\345\254M,\331|\337\206U\262<%#\345\266"
 530      E5AC4D2C 
 530      D97CDF86 
 530      55B23C25 
 530      23E5B6
 531 0735 5DE0CE60 		.ascii	"]\340\316`g+Yo\370\374J\363\303\2127\254\264\345\015"
ARM GAS  /tmp/cciivHZX.s 			page 42


 531      672B596F 
 531      F8FC4AF3 
 531      C38A37AC 
 531      B4E50D
 532 0748 EB1BE725 		.ascii	"\353\033\347%z\203\2313\306c\365\007\260\373\2673I\367"
 532      7A839933 
 532      C663F507 
 532      B0FBB733 
 532      49F7
 533 075a ABD9EE8F 		.ascii	"\253\331\356\217^?\375\230\322\375j[\335\177\260g\216"
 533      5E3FFD98 
 533      D2FD6A5B 
 533      DD7FB067 
 533      8E
 534 076b 99335A04 		.ascii	"\2313Z\0047\232\371\256\\\350\272\030;Y\217\016t9\223"
 534      379AF9AE 
 534      5CE8BA18 
 534      3B598F0E 
 534      743993
 535 077e 35DFE339 		.ascii	"5\337\3439\306\276\360;\345\277\267\342\334\247\345"
 535      C6BEF03B 
 535      E5BFB7E2 
 535      DCA7E5
 536 078d BF2066C3 		.ascii	"\277 f\303\200\025h)\215\207\261YN\021i'^\263\007G\204"
 536      80156829 
 536      8D87B159 
 536      4E116927 
 536      5EB30747 
 537 07a2 0236C10E 		.ascii	"\0026\301\016X\222\345\177\235\021l\222c0\232\263\017"
 537      5892E57F 
 537      9D116C92 
 537      63309AB3 
 537      0F
 538 07b3 8D6053ED 		.ascii	"\215`S\355\200%\231@7\032\301\246;\006\2439\333l\004"
 538      80259940 
 538      371AC1A6 
 538      3B06A339 
 538      DB6C04
 539 07c6 ABB10396 		.ascii	"\253\261\003\226d\355\337j\004\233"
 539      64EDDF6A 
 539      049B
 540 07d0 E3188CE6 		.ascii	"\343\030\214\346\254\331\0106\337\016\230\327\204\263"
 540      ACD90836 
 540      DF0E98D7 
 540      84B3
 541 07de F8C76A5E 		.ascii	"\370\307j^^%\030\326\266\205Y\332\204\340\320\2479\035"
 541      5E2518D6 
 541      B68559DA 
 541      84E0D0A7 
 541      391D
 542 07f0 637196D3 		.ascii	"cq\226\323\031\214\222\233\254E\367mT\307\2052\271/"
 542      198C929B 
 542      AC45F76D 
 542      54C78532 
 542      B92F
 543 0802 B78398C4 		.ascii	"\267\203\230\304a\026l7\254\024\357:\006c\\y;\273|\253"
 543      61166C37 
ARM GAS  /tmp/cciivHZX.s 			page 43


 543      AC14EF3A 
 543      06635C79 
 543      3BBB7CAB 
 544 0816 6B46CBF2 		.ascii	"kF\313\362X\362\355\020\036\025\304+\313\235;\233\327"
 544      58F2ED10 
 544      1E15C42B 
 544      CB9D3B9B 
 544      D7
 545 0827 85ED37EE 		.ascii	"\205\3557\356;\276\020\262\343\\(y-\247\034!\257\315"
 545      3BBE10B2 
 545      E35C2879 
 545      2DA71C21 
 545      AFCD
 546 0839 B23C6C48 		.ascii	"\262<lH\336\324\312\023\366\030=a\243\0355%\031\012"
 546      DED4CA13 
 546      F6183D61 
 546      A31D3525 
 546      190A
 547 084b 47B7D7E1 		.ascii	"G\267\327\3419\212A\336\024?3|~\261Y]P\017\340\202\272"
 547      398A41DE 
 547      143F337C 
 547      7EB1595D 
 547      500FE082 
 548 0860 2DCBF4B8 		.ascii	"-\313\364\270\321\006\322'\373\360t\3430\302\354L\033"
 548      D106D227 
 548      FBF074E3 
 548      30C2EC4C 
 548      1B
 549 0871 E668EB36 		.ascii	"\346h\3536\345\324\362(\002\355\311bW\010v}\347\351"
 549      E5D4F228 
 549      02EDC962 
 549      5708767D 
 549      E7E9
 550 0883 F53DE93E 		.ascii	"\365=\351>\363g\254+p\207Yc\231\235\036YO50\344\366"
 550      F367AC2B 
 550      70875963 
 550      999D1E59 
 550      4F3530E4 
 551 0898 77D9B052 		.ascii	"w\331\260R\226\307g81W\203j\256oP=\337$\250\347\260"
 551      96C76738 
 551      3157836A 
 551      AE6F503D 
 551      DF24A8E7 
 552 08ad E04C3F02 		.ascii	"\340L?\002w\316\261\034]\0319b]\235\313\261_\225\343"
 552      77CEB11C 
 552      5D193962 
 552      5D9DCBB1 
 552      5F95E3
 553 08c0 0CCAF1C3 		.ascii	"\014\312\361\303\317 \307\015\307rt7\310\201A\\7%\210"
 553      CF20C70D 
 553      C7727437 
 553      C881415C 
 553      372588
 554 08d3 BB8DAB4D 		.ascii	"\273\215\253M\375\333\313w\302m\364\021\311\001<v!\305"
 554      FDDBCB77 
 554      C26DF411 
 554      C9013C76 
ARM GAS  /tmp/cciivHZX.s 			page 44


 554      21C5
 555 08e5 A9A22739 		.ascii	"\251\242'9ve\247!\362\225\355E\276\027T\215\265\242"
 555      7665A721 
 555      F295ED45 
 555      BE17548D 
 555      B5A2
 556 08f7 C6C6679B 		.ascii	"\306\306g\233\2140[H\313\217\357W~i\376\001\201\246"
 556      8C305B48 
 556      CB8FEF57 
 556      7E69FE01 
 556      81A6
 557 0909 A40D7474 		.ascii	"\244\015tt\313\237\225\241z\005\201fe\2636\314`L\230"
 557      CB9F95A1 
 557      7A058166 
 557      65B336CC 
 557      604C98
 558 091c 419B10BE 		.ascii	"A\233\020\276\222\236\256\2220\234\177A-!_2\271\377"
 558      929EAE92 
 558      309C7F41 
 558      2D215F32 
 558      B9FF
 559 092e F776B00A 		.ascii	"\367v\260\012#\373\304|\351D\226\350>\177\263A]A\025"
 559      23FBC47C 
 559      E94496E8 
 559      3E7FB341 
 559      5D4115
 560 0941 13BDFA93 		.ascii	"\023\275\372\223\020\307\305VO[\244\236\005=\216GX?"
 560      10C7C556 
 560      4F5BA49E 
 560      053D8E47 
 560      583F
 561 0953 116E77A3 		.ascii	"\021nw\243\363\335V\354\036\305\347d\027\021hU\202\205"
 561      F3DD56EC 
 561      1EC5E764 
 561      17116855 
 561      8285
 562 0965 D3DA6D6D 		.ascii	"\323\332mmMW\220\370G\340>\311\266\261Rz\223Y\353j7"
 562      4D5790F8 
 562      47E03EC9 
 562      B6B1527A 
 562      9359EB6A 
 563 097a 9B3BB6F8 		.ascii	"\233;\266\3709\300\351\316\015\250\214\211.r\016\260"
 563      39C0E9CE 
 563      0DA88C89 
 563      2E720EB0 
 564 098a 8351868D 		.ascii	"\203Q\206\215\235\337~l2\305\225p\016\320|\267\262\365"
 564      9DDF7E6C 
 564      32C59570 
 564      0ED07CB7 
 564      B2F5
 565 099c 22B76CEC 		.ascii	"\"\267l\354\374&j~\241l\357\227\013\202\012\233\256"
 565      FC266A7E 
 565      A16CEF97 
 565      0B820A9B 
 565      AE
 566 09ad 3E2913EA 		.ascii	">)\023\352\374\211\3744\027\011\212^rQGE\247\035\353"
 566      FC89FC34 
ARM GAS  /tmp/cciivHZX.s 			page 45


 566      17098A5E 
 566      72514745 
 566      A71DEB
 567 09c0 DE6BD47D 		.ascii	"\336k\324}\354zc\035O\3707\331\254\3666\206\252q\305"
 567      EC7A631D 
 567      4FF837D9 
 567      ACF63686 
 567      AA71C5
 568 09d3 B7DCBD03 		.ascii	"\267\334\275\003\3253\023\025\177\321B\361\275\255p"
 568      D5331315 
 568      7FD142F1 
 568      BDAD70
 569 09e2 046E5C3B 		.ascii	"\004n\\;\322\2446Q\361\015\367(\212\257\265\245\370"
 569      D2A43651 
 569      F10DF728 
 569      8AAFB5A5 
 569      F8
 570 09f3 2F4C155F 		.ascii	"/L\025_\353\\\361*\336>\3750E\344\337p\014\346Mf\305"
 570      EB5CF12A 
 570      DE3EFD30 
 570      45E4DF70 
 570      0CE64D66 
 571 0a08 5A8315E7 		.ascii	"Z\203\025\347\240\025\347\272\310\321\333\313\264-g"
 571      A015E7BA 
 571      C8D1DBCB 
 571      B42D67
 572 0a17 B7636C49 		.ascii	"\267clIiN\315v\265\022A\216\315n\252SU\242\314y\365"
 572      694ECD76 
 572      B512418E 
 572      CD6EAA53 
 572      55A2CC79 
 573 0a2c 2C9E9914 		.ascii	",\236\231\024\335\255UR\257\0341+\363\315k\216\301\274"
 573      DDAD5552 
 573      AF1C312B 
 573      F3CD6B8E 
 573      C1BC
 574 0a3e 14D89619 		.ascii	"\024\330\226\031&\007f&^'\363\306-\210\300\275\207\375"
 574      26076626 
 574      5E27F3C6 
 574      2D88C0BD 
 574      87FD
 575 0a50 D6B3EE72 		.ascii	"\326\263\356rh\365\356I\374X\3741\270\336\206\277\300"
 575      68F5EE49 
 575      FC58FC31 
 575      B8DE86BF 
 575      C0
 576 0a61 2A7F225B 		.ascii	"*\177\"[\256\315\325\374\366L\0345\211\252\223x\313"
 576      AECDD5FC 
 576      F64C1C35 
 576      89AA9378 
 576      CB
 577 0a72 F5333B78 		.ascii	"\3653;x\204S\266T\255,\\\312\035\037\015wK2\377\365"
 577      8453B654 
 577      AD2C5CCA 
 577      1D1F0D77 
 577      4B32FFF5 
 578 0a86 D85A31DA 		.ascii	"\330Z1\332\317K\033H\234\363\006\312t\255\035\273\""
ARM GAS  /tmp/cciivHZX.s 			page 46


 578      CF4B1B48 
 578      9CF306CA 
 578      74AD1DBB 
 578      22
 579 0a97 289A3138 		.ascii	"(\23218b\275\301\021\227\240#.EG\\\206t\271\321\035"
 579      62BDC111 
 579      97A0232E 
 579      45475C86 
 579      74B9D11D 
 580 0aab AD42ADD7 		.ascii	"\255B\255\327]\306\307\000r\234\312\355e\254c\325\315"
 580      5DC6C700 
 580      729CCAED 
 580      65AC63D5 
 580      CD
 581 0abc 22633793 		.ascii	"\"c7\223sl\370^/K\365\222I\375o\265p@9\253\254u\214"
 581      736CF85E 
 581      2F4BF592 
 581      49FD6FB5 
 581      704039AB 
 582 0ad3 487B73EB 		.ascii	"H{s\353\014*\034Xd\007\256\267\011\203f\037\343\351"
 582      0C2A1C58 
 582      6407AEB7 
 582      0983661F 
 582      E3E9
 583 0ae5 B4C8BF8A 		.ascii	"\264\310\277\212[\341exT\377:\3227\221\276\213\364\177"
 583      5BE16578 
 583      54FF3AD2 
 583      3791BE8B 
 583      F47F
 584 0af7 90EE42BA 		.ascii	"\220\356B\272\033\351~\244_#=\215\364<\322\027\321\304"
 584      1BE97EA4 
 584      5F233D8D 
 584      F43CD217 
 584      D1C4
 585 0b09 3390CE47 		.ascii	"3\220\316G\272\000i\035\322w\220\256L\345\000\352*\260"
 585      BA00691D 
 585      D27790AE 
 585      4CE500EA 
 585      2AB0
 586 0b1b 70D381FB 		.ascii	"p\323\201\373\336\301\271\272\016\335\377\253\034\326"
 586      DEC1B9BA 
 586      0EDDFFAB 
 586      1CD6
 587 0b29 F35E1398 		.ascii	"\363^\023\230\263\303\204\303\357\0139N\177D0Z@n9\272"
 587      B3C384C3 
 587      EF0B394E 
 587      7F44305A 
 587      406E39BA 
 588 0b3d FDC85E7E 		.ascii	"\375\310^~\266,7tW\374_\344\027\273\004\032\221\036"
 588      B62C3774 
 588      57FC5FE4 
 588      17BB041A 
 588      911E
 589 0b4f 31669B0E 		.ascii	"1f\233\016\312Mb\213f\233<qd6\022=\032\330\020]'G\377"
 589      CA4D628B 
 589      669B3C71 
 589      6436123D 
ARM GAS  /tmp/cciivHZX.s 			page 47


 589      1AD8105D 
 590 0b66 FBD80CFE 		.ascii	"\373\330\014\376\003T\312:\034\216\037\344\246\374m"
 590      0354CA3A 
 590      1C8E1FE4 
 590      A6FC6D
 591 0b75 8206226A 		.ascii	"\202\006\"j\332\340b\237l<\336\300c\\\277!\365,7a|l"
 591      DAE0629F 
 591      6C3CDEC0 
 591      635CBF21 
 591      F52C3761 
 592 0b8b D6D70DC2 		.ascii	"\326\327\015\302+rl\202\013\003\313\361I\003K\360-\374"
 592      2B726C82 
 592      0B03CBF1 
 592      49034BF0 
 592      2DFC
 593 0b9d E1CA4E98 		.ascii	"\341\312N\230\270\005\205\331\220\336\352\012|\325~"
 593      B80585D9 
 593      90DEEA0A 
 593      7CD57E
 594 0bac DDA0CC97 		.ascii	"\335\240\314\227\233q1\2119\206\363Rpsh\270\217\355"
 594      9B713189 
 594      3986F352 
 594      707368B8 
 594      8FED
 595 0bbe C0594DBF 		.ascii	"\300YM\277\000\3672\015\327\340\030\216\346n>\015\327"
 595      00F7320D 
 595      D7E0188E 
 595      E66E3E0D 
 595      D7
 596 0bcf 6407CEEA 		.ascii	"d\007\316\352\360\016\340\026\320p{\035\303\321\334"
 596      F00EE016 
 596      D0707B1D 
 596      C3D1DC
 597 0bde D5D17007 		.ascii	"\325\321p\007\355\300Y\015\032\200\253\247\341Z\034"
 597      EDC0590D 
 597      1A80ABA7 
 597      E15A1C
 598 0bed C3D1DCBD 		.ascii	"\303\321\334\275O\303\235\264\003\347\265\346n\025\015"
 598      4FC39DB4 
 598      03E7B5E6 
 598      6E150D
 599 0bfc 77CE311C 		.ascii	"w\3161\034\315\335\032\032\356\202\0358\253\200\015"
 599      CDDD1A1A 
 599      EE821D38 
 599      AB800D
 600 0c0b E0D6D170 		.ascii	"\340\326\321p?8\206\243\271\373\220\206\273f\007\316"
 600      3F3886A3 
 600      B9FB9086 
 600      BB6607CE 
 601 0c1b 2AFC03B8 		.ascii	"*\374\003\270\2154\334-\307p4w\233i\270\361\355m\300"
 601      8D34DC2D 
 601      C7703477 
 601      9B69B8F1 
 601      ED6DC0
 602 0c2e 59ADE900 		.ascii	"Y\255\351\000\267\225\206\233\354\030\216\346\256\231"
 602      B795869B 
 602      EC188EE6 
ARM GAS  /tmp/cciivHZX.s 			page 48


 602      AE99
 603 0c3c 869B6E07 		.ascii	"\206\233n\007\256\2675w{h\270Z\307p4w{i\270yv\340\372"
 603      AEB73577 
 603      7B68B85A 
 603      C7703477 
 603      7B69B879 
 604 0c53 5B73B78F 		.ascii	"[s\267\217\206\253s\014\347\345,?\3065L\3447b\220\271"
 604      86AB730C 
 604      E7E52C3F 
 604      C6354CE4 
 604      376290B9 
 605 0c67 09A38BAD 		.ascii	"\011\243\213\255HcH?B\3721\322O\2216 \335\211\3643\244"
 605      4863483F 
 605      42FA31D2 
 605      4F913620 
 605      DD89F433 
 606 0c7c 4D489B91 		.ascii	"MH\233\221\356A\272\027\351>\244\373\221\036Dz\030\351"
 606      EE41BA17 
 606      E93EA4FB 
 606      911E447A 
 606      18E9
 607 0c8e 11A42D48 		.ascii	"\021\244-H\217\333\011e\327\032c\314\305\355m\304#\226"
 607      8FDB0965 
 607      D71A63CC 
 607      C5ED6DC4 
 607      2396
 608 0ca0 9B2FF218 		.ascii	"\233/\362\030\350y\373\217\201>\247\001\222\367~\324"
 608      E879FB8F 
 608      813EA701 
 608      92F77ED4 
 609 0cb0 0062DEB7 		.ascii	"\000b\336\267\333\036%oG\230\304\011Tu\010\353\\\246"
 609      DB1E256F 
 609      4798C409 
 609      547508EB 
 609      5CA6
 610 0cc2 0F8252B5 		.ascii	"\017\202R\265H\275\263l01\273\011\237\003=kk\203=7\255"
 610      48BDB36C 
 610      3031BB09 
 610      9F033D6B 
 610      6B833D37 
 611 0cd7 0D9B1E0D 		.ascii	"\015\233\036\015}\246FC\337a4t\266}\352h\210\002\"\014"
 611      7DA64643 
 611      DF613474 
 611      B67DEA68 
 611      8802220C 
 612 0ceb B6264443 		.ascii	"\266&DC\027\325h\250\325^4tI\215\206\342s\030r\321\232"
 612      17D568A8 
 612      D55E3474 
 612      498D86E2 
 612      731872D1 
 613 0d00 7E187389 		.ascii	"~\030s\211\0328\343:8\205\363Rpsh\270\311v\340\222\205"
 613      1A38E33A 
 613      3885F352 
 613      707368B8 
 613      C976E092 
 614 0d15 3134DC74 		.ascii	"14\334t\307p^3]r\011\306\020\371\2138\254/\341P\273"
 614      C7705E33 
ARM GAS  /tmp/cciivHZX.s 			page 49


 614      5D7209C6 
 614      10F98B38 
 614      AC2FE150 
 615 0d2a 8CF40AD2 		.ascii	"\214\364\012\322kv\206\335y\343\260\253E&\317\246{l"
 615      6B7686DD 
 615      79E3B0AB 
 615      4526CFA6 
 615      7B6C
 616 0d3c 03A3E640 		.ascii	"\003\243\346@/\345\267R\346\341\007\242\003+\016n\032"
 616      2FE5B752 
 616      E6E107A2 
 616      032B0E6E 
 616      1A
 617 0d4d 3958E098 		.ascii	"9X\340\230\003\257\221\203\330+M\312\357|\332\317m\213"
 617      03AF9183 
 617      D82B4DCA 
 617      EF7CDACF 
 617      6D8B
 618 0d5f 593CB39F 		.ascii	"Y<\263\237>\222\234\005\3245\345\274\377\234\006\366"
 618      3E929C05 
 618      D435E5BC 
 618      FF9C06F6 
 619 0d6f BA63B02C 		.ascii	"\272c\260,\012\254\336\010\366\276c\260\274\004/P\354"
 619      0AACDE08 
 619      F6BE63B0 
 619      BC042F50 
 619      EC
 620 0d80 FF2DDAFF 		.ascii	"\377-\332\377\034\332\374\006\3226\244c\335\204\216"
 620      1CDAFC06 
 620      D236A463 
 620      DD848E
 621 0d8f 7753C75A 		.ascii	"wS\307Z\353;\260\273\303\263\354\271\204>Sqvq\255l{"
 621      EB3BB0BB 
 621      C3B3ECB9 
 621      843E5371 
 621      7671AD6C 
 622 0da4 D268DB9D 		.ascii	"\322h\333\235\035\234N\352\224maR\377^}MA{jp\267\035"
 622      1D9C4EEA 
 622      946D6152 
 622      FF5E7D4D 
 622      417B6A70 
 623 0dba 44B3A0CA 		.ascii	"D\263\240\312\354c|\223M\344\337\307\335\330\007\370"
 623      EC637C93 
 623      4DE4DFC7 
 623      DDD807F8 
 624 0dca E0DEC748 		.ascii	"\340\336\307Hw!=\204\264\005\351B\334\313\257F\245\254"
 624      77213D84 
 624      B405E942 
 624      DCCBAF46 
 624      A5AC
 625 0ddc 417A02E9 		.ascii	"Az\002\351$;\252y[\177\210/\376P\363R\233\017\202\223"
 625      243BAA79 
 625      5B7F882F 
 625      FE50F352 
 625      9B0F8293 
 626 0df0 2A6FEAED 		.ascii	"*o\352\355\273p\365r\354B\313\245\037\267}\311\317\002"
 626      BB70F572 
ARM GAS  /tmp/cciivHZX.s 			page 50


 626      EC42CBA5 
 626      1FB77DC9 
 626      CF02
 627 0e02 FDC81760 		.ascii	"\375\310\027`\243\350U\336\023\024\270\372\216\264\305"
 627      A3E855DE 
 627      1314B8FA 
 627      8EB4C5
 628 0e11 1FE096C9 		.ascii	"\037\340\226\311r\255\374\245\324_aB\3406`\215\251\356"
 628      72ADFCA5 
 628      D45F6142 
 628      E036608D 
 628      A9EE
 629 0e23 2EA69DA9 		.ascii	".\246\235\251\254\252\315\346~\232[\303k\372\337\232"
 629      ACAACDE6 
 629      7E9A5BC3 
 629      6BFADF9A 
 630 0e33 A2A12ACF 		.ascii	"\242\241*\317_s\313\311\362\262I\036\322\031\237\203"
 630      5F73CBC9 
 630      F2B2491E 
 630      D2199F83 
 631 0e43 E2D44694 		.ascii	"\342\324F\224\362\247\271\2517DQ\246\226\330\354\251"
 631      F2A7B9A9 
 631      374451A6 
 631      96D8ECA9 
 632 0e53 8D63611A 		.ascii	"\215ca\032\225o\220\347\372\355?.^\3536y\\\234R+\354"
 632      956F90E7 
 632      FAED3F2E 
 632      5EEB3679 
 632      5C9C522B 
 633 0e68 53CDF5D2 		.ascii	"S\315\365\322V\326_\253>\335M\3160f%\327\213*^\215<"
 633      56D65FAB 
 633      3EDD4DCE 
 633      306625D7 
 633      8B2A5E8D 
 634 0e7d 5D7E318F 		.ascii	"]~1\217\217\3137\213\225o\216\251|5\215/e\325\214mi"
 634      8FCB378B 
 634      956F8EA9 
 634      7C358D2F 
 634      65D58C6D 
 635 0e92 6BEB625F 		.ascii	"k\353b_\270\3716\204;`.\334MV\270yi\0117\217\025n\201"
 635      B8F93684 
 635      3B602EDC 
 635      4D56B879 
 635      6909378F 
 636 0ea9 89701762 		.ascii	"\211p\027b\255\227\033\3221^\275\231|I\307\210\300\235"
 636      AD971BD2 
 636      315EBD99 
 636      7C49C788 
 636      C09D
 637 0ebb 4FE1E49A 		.ascii	"O\341\344\232\274\213\234:\271\310\317L\321\320\350"
 637      BC8B9C3A 
 637      B9C8CF4C 
 637      D1D0E8
 638 0eca E435B493 		.ascii	"\3445\264\223/b\365\2644QOKZb\227&6\246\241\246\327"
 638      2F62F5B4 
 638      34514F4B 
 638      5A629726 
ARM GAS  /tmp/cciivHZX.s 			page 51


 638      36A6A1A6 
 639 0edf 5535E99A 		.ascii	"U5\351\232\020\270\231y\264\032\342cO~Sv\305\331Z\316"
 639      10B89979 
 639      B41AE263 
 639      4F7E5376 
 639      C5D95ACE 
 640 0ef3 B2F58629 		.ascii	"\262\365\206)[\265;s\3215\027\367\266\317\324[6|\263"
 640      5BB53B73 
 640      D13517F7 
 640      B6CFD45B 
 640      367CB3
 641 0f06 2ECFDEC0 		.ascii	".\317\336\300[a\3137e\3067W\260\302\275c*\\M\243&\234"
 641      5B61CB37 
 641      65C63757 
 641      B0C2BD63 
 641      2A5C4DA3 
 642 0f1c C2B4C0BD 		.ascii	"\302\264\300\275e\316V\302\220y/-\266\336c\331z\337"
 642      65CE56C2 
 642      90792F2D 
 642      B6DE63D9 
 642      7ADF
 643 0f2e 94ADC32A 		.ascii	"\224\255\303*[]4\256\326\233s\265\226u\354\325iq\265"
 643      5B5D34AE 
 643      D69B73B5 
 643      9675ECD5 
 643      6971B5
 644 0f41 9AE56A4D 		.ascii	"\232\345jM\"W-\027\360\215\004ZY\315\346l\255f\331Z"
 644      22572D17 
 644      F08D045A 
 644      59CDE66C 
 644      AD66D95A 
 645 0f55 9F165BEB 		.ascii	"\237\026[\353Y\266>4a\213l\322\016\004\346\257\222'"
 645      59B63E34 
 645      618B6CD2 
 645      0E04E6AF 
 645      9227
 646 0f67 4C916FB5 		.ascii	"L\221o\265\275\3003NJ\336e\263\362\322\315\254\227\222"
 646      BDC0334E 
 646      4ADE65B3 
 646      F2D2CDAC 
 646      9792
 647 0f79 38859D61 		.ascii	"8\205\235a\314\336\256\267?\020\266\261]<\236b\0163"
 647      CCDEAEB7 
 647      3F10B6B1 
 647      5D3C9E62 
 647      0E33
 648 0f8b 03D25E49 		.ascii	"\003\322^I\234\201\357\353\304\334d\261>\315h\236\211"
 648      9C81EFEB 
 648      C4DC64B1 
 648      3ECD689E 
 648      89
 649 0f9c B449BF56 		.ascii	"\264I\277V"
 650 0fa0 3C7DEAB6 		.ascii	"<}\352\266~_'\361\236\221s\226Y\201\273\2220\323(\225"
 650      7E5F27F1 
 650      9E917396 
 650      5981BB92 
 650      30D32895 
ARM GAS  /tmp/cciivHZX.s 			page 52


 651 0fb4 1A4C2DB5 		.ascii	"\032L-\265pS\353c\226\226J\242\305\235n\353\377t\240"
 651      7053EB63 
 651      96964AA2 
 651      C59D6EEB 
 651      FF74A0
 652 0fc7 FCDE61D5 		.ascii	"\374\336a\325\3623wbx\325*\230-\035S:\231K\322d*\311"
 652      F2337762 
 652      78D52A98 
 652      2D1D533A 
 652      994BD264 
 653 0fdd CBDF5E0B 		.ascii	"\313\337^\013\274\"\1774Ank{\301\301d\335l\346q\014"
 653      BC227F34 
 653      416E6B7B 
 653      C1C164DD 
 653      6CE6710C 
 654 0ff1 232F5B30 		.ascii	"#/[0\262\307\224\221\272\246\233\2568#\332"
 654      B2C79491 
 654      BAA69BAE 
 654      3823DA
 655 1000 B07CC302 		.ascii	"\260|\303\002b/\015\361Kn\251\334\322\014\001\343\265"
 655      622F0DF1 
 655      4B6EA9DC 
 655      D20C01E3 
 655      B5
 656 1011 353CECFC 		.ascii	"5<\354\374\033`3\337\326\306w\321\376\025\304\3328\212"
 656      1B6033DF 
 656      D6C677D1 
 656      FE15C4DA 
 656      388A
 657 1023 2A0EFD8F 		.ascii	"*\016\375\217\037\010\340>\035\220\200] \203\361X\371"
 657      1F08E03E 
 657      1D90805D 
 657      2083F158 
 657      F9
 658 1034 8E71C4C4 		.ascii	"\216q\304\304\362\3256\330)t\342j\3243\005\221?\245"
 658      F2D536D8 
 658      2974E26A 
 658      D4330591 
 658      3FA5
 659 1046 EF7296C4 		.ascii	"\357r\226\304\177e)\305\326\306jg\254\253\211\374\001"
 659      7F6529C5 
 659      D6C66A67 
 659      ACAB89FC 
 659      01
 660 1057 7727CC51 		.ascii	"w'\314QOaa\015+\235\037t\353\217\235\346f\353\231\014"
 660      4F61610D 
 660      2B9D1F74 
 660      EB8F9DE6 
 660      66EB990C 
 661 106b 4A355A2D 		.ascii	"J5Z-\362\002K\202\334\011\\\034\322\345f\267\270I\006"
 661      F2024B82 
 661      DC095C1C 
 661      D2E566B7 
 661      B84906
 662 107e DE61DD19 		.ascii	"\336a\335\031\343\255b\330\352;\213\235.\2635O\371\246"
 662      E3AD62D8 
 662      EA3B8B9D 
ARM GAS  /tmp/cciivHZX.s 			page 53


 662      2EB3354F 
 662      F9A6
 663 1090 71FCA467 		.ascii	"q\374\244g\367+\374*<\3519\342&\246lb\034\302\326+\313"
 663      F72BFC2A 
 663      3CE939E2 
 663      26A66C62 
 663      1CC2D62B 
 664 10a5 C7DCCC49 		.ascii	"\307\334\314I\317\201e;\224\223\036r'\365I\317W\313"
 664      CF81653B 
 664      94931E72 
 664      27F549CF 
 664      57CB
 665 10b7 76D0273D 		.ascii	"v\320'=\007\221\013\3228\275\223\236#\313v\030\317R"
 665      07910BD2 
 665      38BD939E 
 665      23CB7618 
 665      CF52
 666 10c9 BE720CE7 		.ascii	"\276r\014\347\245\340.\320p\307\355\300%9\351\271H\303"
 666      A5E02ED0 
 666      70C7EDC0 
 666      2539E9B9 
 666      48C3
 667 10db 9D740C47 		.ascii	"\235t\014Gs\367\003\015\367\275\035\270$?X\375H\303"
 667      73F7030D 
 667      F7BD1DB8 
 667      243F58FD 
 667      48C3
 668 10ed 5D750C47 		.ascii	"]u\014Gsw\225\206k\263\003\227\344\007\253\377\245\341"
 668      73779586 
 668      6BB30397 
 668      E407ABFF 
 668      A5E1
 669 10ff 26E53B85 		.ascii	"&\345;\205\243\271\273A\303\315\264\003\347\265\346"
 669      A3B9BB41 
 669      C3CDB403 
 669      E7B5E6
 670 110e EE160D37 		.ascii	"\356\026\0157\3071\234\327l\224(\037\3430\023\371\343"
 670      C7319CD7 
 670      6C94281F 
 670      E33013F9 
 670      E3
 671 111f 6E72DCF0 		.ascii	"nr\334\3605\236\254\234@z\012\351\031\244\337\"=\217"
 671      359EAC9C 
 671      407A0AE9 
 671      19A4DF22 
 671      3D8F
 672 1131 F47BA4AD 		.ascii	"\364{\244\255H/!\275l<n`f\245#\026\314\222\376\257X"
 672      482F21BD 
 672      6C3C6E60 
 672      66A52316 
 672      CC92FEAF 
 673 1146 CE4A368F 		.ascii	"\316J6\217\353l\274i \362_\341#\023)\236Qf\372w\360"
 673      EB6CBC69 
 673      20F25FE1 
 673      2313299E 
 673      5166FA77 
 674 115b D2B1CD96 		.ascii	"\322\261\315\226\"?\011\371`Z\253\253\317\222\336\363"
ARM GAS  /tmp/cciivHZX.s 			page 54


 674      223F09F9 
 674      605AABAB 
 674      CF92DEF3 
 675 116b 3B282F24 		.ascii	";(/$\250m\251\377\026@Z\337p\274\372\334\264X}x\216"
 675      A86DA9FF 
 675      16405ADF 
 675      70BCFADC 
 675      B4587D78 
 676 1180 EADACBF4 		.ascii	"\352\332\313\364\334K\253\227\251\342\334R{6\254T\214"
 676      DC4BAB97 
 676      A9E2DC52 
 676      7B36AC54 
 676      8C
 677 1191 8D772659 		.ascii	"\215w&Yy\332Ll\254\264\252O\322J\366\260gK\255\253\016"
 677      79DA4C6C 
 677      ACB4AA4F 
 677      D24AF6B0 
 677      674BADAB 
 678 11a6 BEC56F5B 		.ascii	"\276\305o[>Q&\373\200\027\026\307\362\224n\005\356\263"
 678      3E5126FB 
 678      801716C7 
 678      F2946E05 
 678      EEB3
 679 11b8 7CD38DC0 		.ascii	"|\323\215\300e\262\021\370\014\003\326#Xc\254\307j#"
 679      65B211F8 
 679      0C03D623 
 679      5863ACC7 
 679      6A23
 680 11ca 80911A36 		.ascii	"\200\221\0326\253\221\027*\033o\345\211\271\343)\032"
 680      AB91172A 
 680      1B6FE589 
 680      B9E3291A 
 681 11da AAE19CBA 		.ascii	"\252\341\234\272\2038`\334x\223F\324X\033\347\241\002"
 681      833860DC 
 681      789346D4 
 681      581BE7A1 
 681      02
 682 11eb 204617CD 		.ascii	" F\027\315It1Y\327E\374\237p\304,\377\011\007\214X<"
 682      49743159 
 682      D745FC9F 
 682      70C42CFF 
 682      09078C58 
 683 1200 384CFAFF 		.ascii	"8L\372\3775\030\237u\360?\032l\266\204\261\215\\0\255"
 683      35189F75 
 683      F03F1A6C 
 683      B684B18D 
 683      5C30AD
 684 1213 E3FF9023 		.ascii	"\343\377\220#f\371\0179 \"\301\226\251\376\303\006\243"
 684      66F90F39 
 684      2022C196 
 684      A9FEC306 
 684      A3
 685 1224 C0B79228 		.ascii	"\300\267\222(p\272\307\312\005k\223\264\232a\331j~\222"
 685      70BAC7CA 
 685      056B93B4 
 685      9A61D96A 
 685      7E92
ARM GAS  /tmp/cciivHZX.s 			page 55


 686 1236 56333DEC 		.ascii	"V3=\354\344\244\250\312|{e\377\231\033\356\201\202\352"
 686      E4A4A8CA 
 686      7C7B65FF 
 686      991BEE81 
 686      82EA
 687 1248 48B8400C 		.ascii	"H\270@\014W>\\\025\254\222\036\226\304a\201\202@\225"
 687      573E5C15 
 687      AC921E96 
 687      C4618182 
 687      4095
 688 125a BFA2BA4C 		.ascii	"\277\242\272L*\210D\313\002U\321n\345\\V5\\{\024\371"
 688      2A8844CB 
 688      0255D16E 
 688      E55C5635 
 688      5C7B14F9 
 689 126e A2194F0D 		.ascii	"\242\031O\015z\326[\314\365L\322\250R\364\227\007\252"
 689      7AD65BCC 
 689      F54CD2A8 
 689      52F49707 
 689      AA
 690 127f A4025F99 		.ascii	"\244\002_\2314\\\254\256\210\372\242cBR\004@\332\371"
 690      345CACAE 
 690      88FAA263 
 690      42520440 
 690      DAF9
 691 1291 7C1A4CDF 		.ascii	"|\032L\337\202\362`\245T\340\017\226\215)(\223F\026"
 691      82F260A5 
 691      54E00F96 
 691      8D292893 
 691      4616
 692 12a3 408B6181 		.ascii	"@\213a\201`\244 \032\256\256\372c\001d\312\305\212\202"
 692      60A4201A 
 692      AEAEFA63 
 692      0164CAC5 
 692      8A82
 693 12b5 50301C8D 		.ascii	"P0\034\215\024\014-\035\330\243H\241O\026\216\036] "
 693      140C2D1D 
 693      D8A348A1 
 693      4F168E1E 
 693      5D20
 694 12c7 96F97D15 		.ascii	"\226\371}\025\025e\200\227\335\247oq\337p`\244\024."
 694      15658097 
 694      DDA76F71 
 694      DF7060A4 
 694      142E
 695 12d9 B203A7F1 		.ascii	"\262\003\247\361\007\000\204\031\270D\242bT\362E\333"
 695      07008419 
 695      B844A262 
 695      54F245DB 
 696 12e9 018EEFD9 		.ascii	"\001\216\357\331A\003\006\015(\315\"\331\241\245\203"
 696      4103060D 
 696      28CD22D9 
 696      A1A583
 697 12f8 87106C5F 		.ascii	"\207\020l_I\277>}\377\005\357\366).\035\360\217\375"
 697      49BF3E7D 
 697      FF05EFF6 
 697      292E1DF0 
ARM GAS  /tmp/cciivHZX.s 			page 56


 697      8FFD
 698 130a 7249B678 		.ascii	"rI\266x\360\300!\317\364+\355\2075\372\225\224\014."
 698      F0C021CF 
 698      F42BED87 
 698      35FA9594 
 698      0C2E
 699 131c F1208EA7 		.ascii	"\361 \216\247\254\272\262r\014)-\016V\015\017\214\310"
 699      ACBAB272 
 699      0C292D0E 
 699      560D0F8C 
 699      C8
 700 132d F0E32587 		.ascii	"\360\343%\207\364#V\206*\240#\324b\341\357\240GE\023"
 700      F4235686 
 700      2AA023D4 
 700      62E1EFA0 
 700      474513
 701 1340 249BA9DC 		.ascii	"$\233\251\334\214\024\241F+\002\303\012F\370\375\214"
 701      8C14A146 
 701      2B02C30A 
 701      46F8FD8C 
 702 1350 667B76EB 		.ascii	"f{v\353\325\255\247\321(\240Y\020!#\022\370\023\240"
 702      D5ADA7D1 
 702      28A05910 
 702      212312F8 
 702      13A0
 703 1362 7ACAA450 		.ascii	"z\312\244P\264\334\343{\"\030\254\310\362\007\302\376"
 703      B4DCE37B 
 703      2218ACC8 
 703      F207C2FE 
 704 1372 EA0A319C 		.ascii	"\352\0121\234O\324\344/\027\253\252\244\212\210\257"
 704      4FD4E42F 
 704      17ABAAA4 
 704      8A88AF
 705 1381 AABAD217 		.ascii	"\252\272\322\027\315%T+j\017\367\375bE\3050\321\377"
 705      CD25542B 
 705      6A0FF7FD 
 705      6245C530 
 705      D1FF
 706 1393 47B0AA54 		.ascii	"G\260\252TU\346\363\017#:\221\302\341`\330\027\315W"
 706      55E6F30F 
 706      233A91C2 
 706      E160D817 
 706      CD57
 707 13a5 A5F3F51D 		.ascii	"\245\363\365\035\330\347\311>\003\236y\266\244_\276"
 707      D8E7C93E 
 707      039E79B6 
 707      A45FBE
 708 13b4 76576F97 		.ascii	"vWo\227\245\324\366\017s\371\303\205\220\212<\221\312"
 708      A5D4F60F 
 708      73F9C385 
 708      908A3C91 
 708      CA
 709 13c5 50B81069 		.ascii	"P\270\020i\221;\362|\270\220\020\314\365\310W4\003\326"
 709      913BF27C 
 709      B89010CC 
 709      F5C85734 
 709      03D6
ARM GAS  /tmp/cciivHZX.s 			page 57


 710 13d7 8A048255 		.ascii	"\212\004\202UO\205\203\325!\367\210p(\324+\225\355\302"
 710      4F8583D5 
 710      21F78870 
 710      28D42B95 
 710      EDC2
 711 13e9 D1B8E8FE 		.ascii	"\321\270\350\376\362\310\230\210\346NY\321\362\260$"
 711      F2C89888 
 711      E64E59D1 
 711      F2B024
 712 13f8 96F9A2D9 		.ascii	"\226\371\242\331\376r\237\222\357\351\014\313_N\334"
 712      FE729F92 
 712      EFE90CCB 
 712      5F4EDC
 713 1407 2823E4AB 		.ascii	"(#\344\253\222FG\341\022\012K#\373\333\200P\034\263"
 713      924647E1 
 713      120A4B23 
 713      FBDB8050 
 713      1CB3
 714 1419 4FC9C0E2 		.ascii	"O\311\300\342\201\243\241fe(P\001R\025<U\\\014\3255"
 714      81A3A166 
 714      65285001 
 714      52153C55 
 714      5C0CD535 
 715 142d F632A3A1 		.ascii	"\3662\243\241p \350Sp\003\301Lp\207(t\363\250c\374r"
 715      7020E853 
 715      7003C14C 
 715      70872874 
 715      F3A863FC 
 716 1442 7F302C01 		.ascii	"\1770,\001`\016)\366\201\333\370\243\243\377!=\024\337"
 716      600E29F6 
 716      81DBF8A3 
 716      A3FF213D 
 716      14DF
 717 1454 C8472A89 		.ascii	"\310G*\211\346\302\322\010\3600_T\010\367\024\302\277"
 717      E6C2D208 
 717      F0305F54 
 717      08F714C2 
 717      BF
 718 1465 15C2BF13 		.ascii	"\025\302\277\023\302\217\010\341^B\370QW\270\260;\244"
 718      C28F08E1 
 718      5E42F851 
 718      57B8B03B 
 718      A4
 719 1476 42A1220C 		.ascii	"B\241\"\014\227\036\236\220\017z\313$\032\032%\205\341"
 719      971E9E90 
 719      0F7ACB24 
 719      1A1A2585 
 719      E1
 720 1487 1AAC2893 		.ascii	"\032\254(\223\302n\360\2420Q\233X)eE\325Q\224I<\272"
 720      C26EF0A2 
 720      30519B58 
 720      296545D5 
 720      5194493C 
 721 149c 175843F1 		.ascii	"\027XC\361m\310Au\274\227\031\255\014\226I\370}x\205"
 721      6DC84175 
 721      BC9719AD 
 721      0C9649F8 
ARM GAS  /tmp/cciivHZX.s 			page 58


 721      7D7885
 722 14af 38229219 		.ascii	"8\"\222\031\015K\303#\250\031\222\361TFF\300Muf\200"
 722      0D4BC323 
 722      A81992F1 
 722      544646C0 
 722      4D756680 
 723 14c3 E6DA5413 		.ascii	"\346\332T\023.\033\003\267\262\244\321\201(\010*e\214"
 723      2E1B03B7 
 723      B2A4D181 
 723      28082A65 
 723      8C
 724 14d4 8A0687FD 		.ascii	"\212\006\207\375!\224#\215\224\252\242\225b\004\375"
 724      2194238D 
 724      94AAA295 
 724      6204FD
 725 14e3 7614C9B8 		.ascii	"v\024\311\270B\276\352\016\212\007D|\025\201\010L9\035"
 725      42BEEA0E 
 725      8A07447C 
 725      1581084C 
 725      391D
 726 14f5 E33EA194 		.ascii	"\343>\241\224d\207|\243\304@4P5\242\243V\374|\265T\015"
 726      64877CA3 
 726      C4403450 
 726      35A2A356 
 726      FC7CB554 
 727 150a 5CE5196A 		.ascii	"\\\345\031jbQ\273\220\017\272\305\254\007\263P \205"
 727      6251BB90 
 727      0FBAC5AC 
 727      07B35020 
 727      85
 728 151b 60844063 		.ascii	"`\204@cOe5\030\261\207#7\253\214\216&\356P\251\240\303"
 728      4F653518 
 728      B1872337 
 728      AB8C8E26 
 728      EE50A9A0 
 729 1530 3538AA0A 		.ascii	"58\252\012t\211H B%z\037\360\007\365\010\247\355\210"
 729      74894820 
 729      42257A1F 
 729      F007F508 
 729      A7ED88
 730 1543 56C40AF4 		.ascii	"V\304\012\364\031(\014\301\250~\304Q\177\2520\320g\276"
 730      19280CC1 
 730      A87EC451 
 730      7FAA30D0 
 730      67BE
 731 1555 3A4240CB 		.ascii	":B@\313RX\252\362\203\264\031JQJ/\004\226\012\212\007"
 731      5258AAF2 
 731      83B4194A 
 731      514A2F04 
 731      960A8A07 
 732 1569 0E1D3014 		.ascii	"\016\0350\024f^\230q*{\024\015/\354N\344\310!\023C)"
 732      665E9871 
 732      2A7B140D 
 732      2FEC4EE4 
 732      C8211343 
 733 157e F8785F69 		.ascii	"\370x_i\2700\264\304U\\R\010\251\3103t\340\220\222B"
 733      B830B4C4 
ARM GAS  /tmp/cciivHZX.s 			page 59


 733      555C5208 
 733      A9C83374 
 733      E0909242 
 734 1592 A4459EA7 		.ascii	"\244E\236\247\007?\011yB\225|\017\244=]\375KK\\\317"
 734      073F0979 
 734      42957C0F 
 734      A43D5DFD 
 734      4B4B5CCF 
 735 15a6 9496B887 		.ascii	"\224\226\270\207\376\276\244\220\220\"Bz\270\237\006"
 735      FEBEA490 
 735      9022427A 
 735      B89F06
 736 15b5 EA7EBA2F 		.ascii	"\352~\272/\224\001)\"\244\007!=\205\276%.\230s\236L"
 736      94012922 
 736      A407213D 
 736      85BE252E 
 736      98739E4C 
 737 15c9 7FAD40C6 		.ascii	"\177\255@\306}e\225\"0~\033\314d\276be\372\323\004p"
 737      7D659522 
 737      307E1BCC 
 737      64BE6265 
 737      FAD30470 
 738 15dd 15179778 		.ascii	"\025\027\227x\212\007\365\005\236\212\207\364\0012\260"
 738      8A07F505 
 738      9E8A87F4 
 738      0132B0
 739 15ec 4F49A63A 		.ascii	"OI\246:E\272\003\303\375\341\214@\244<0<\232\035\221"
 739      45BA03C3 
 739      FDE18C40 
 739      A43C303C 
 739      9A1D91
 740 15ff 2A8607AA 		.ascii	"*\206\007\252\312\244\321\031#%\1774\030\316\217#\203"
 740      CAA4D119 
 740      23257F34 
 740      18CE8F23 
 740      83
 741 1610 8B834261 		.ascii	"\213\203Ba,e\300\227H4\224\011\027\342\356?\303\012"
 741      2C65C097 
 741      48349409 
 741      17E2EE3F 
 741      C30A
 742 1622 E7E7EE51 		.ascii	"\347\347\356Q\263\276\210\024\036)\371\302\243\311\330"
 742      B3BE8814 
 742      1E29F9C2 
 742      A3C9D8
 743 1631 8039B73A 		.ascii	"\2009\267:\024u\303\255\220\007\307\323\355\361ZQ1\034"
 743      1475C3AD 
 743      9007C7D3 
 743      EDF15A51 
 743      311C
 744 1643 ED1622A4 		.ascii	"\355\026\"\244\373mza0\244\224\025\336o\015\247\324"
 744      FB6D7A61 
 744      30A49415 
 744      DE6F0DA7 
 744      D4
 745 1654 28CAD56A 		.ascii	"(\312\325j\004\252\002\321\366\024n\256\021\2603u\313"
 745      04AA02D1 
ARM GAS  /tmp/cciivHZX.s 			page 60


 745      F6146EAE 
 745      11B03375 
 745      CB
 746 1665 E78FCFEB 		.ascii	"\347\217\317\353w\031k\031\312;\304\025\026\210\300"
 746      77196B19 
 746      CA3BC415 
 746      1688C0
 747 1674 F2D20932 		.ascii	"\362\322\0112CQq}**\202~\230$r\375\345\245\345e%R\244"
 747      4351717D 
 747      2A2A827E 
 747      982472FD 
 747      E5A5E565 
 748 168b BA521A90 		.ascii	"\272R\032\220\027\277]\"UHbD\"\254\014\036\366\007\320"
 748      17BF5D22 
 748      55486244 
 748      22AC0C1E 
 748      F607D0
 749 169e FD0060CC 		.ascii	"\375\000`\314C\026\376\302|\037k\204HNI\261\356\234"
 749      4316FEC2 
 749      7C1F6B84 
 749      484E49B1 
 749      EE9C
 750 16b0 C560CF27 		.ascii	"\305`\317'\237\002\017\035P\222\325g\310\023E%CK1SH"
 750      9F020F1D 
 750      5092D567 
 750      C8134525 
 750      434B3153 
 751 16c5 32197DFA 		.ascii	"2\031}\372?\321oPI&\271\241^\013\341\352~\242o1\264"
 751      3FD16F50 
 751      4926B9A1 
 751      5E0BE1EA 
 751      7EA26F31 
 752 16da 185A9272 		.ascii	"\030Z\222r\210\023\363\005#@`\354\221+xX'r-\305\361"
 752      8813F305 
 752      234060EC 
 752      912B7858 
 752      27722DC5 
 753 16ef A5CAE18A 		.ascii	"\245\312\341\212\206C.\230A\376\017\256=\372\004"
 753      86432E98 
 753      41FE0FAE 
 753      3DFA04
 754              		.text
 755              		.section	.gnu.lto_.symtab.5d3ea61fa7948b27,"",%progbits
 756 0000 41444344 		.ascii	"ADCD1\000\000\000\000\000\000\000\000\000\000\000\000"
 756      31000000 
 756      00000000 
 756      00000000 
 756      00
 757 0011 55020000 		.ascii	"U\002\000\000adc_lld_init\000\000\000\000\000\000\000"
 757      6164635F 
 757      6C6C645F 
 757      696E6974 
 757      00000000 
 758 0028 00000000 		.ascii	"\000\000\000\000\000%\002\000\000adc_lld_start\000\000"
 758      00250200 
 758      00616463 
 758      5F6C6C64 
ARM GAS  /tmp/cciivHZX.s 			page 61


 758      5F737461 
 759 0040 00000000 		.ascii	"\000\000\000\000\000\000\000\000\000\000)\002\000\000"
 759      00000000 
 759      00002902 
 759      0000
 760 004e 6164635F 		.ascii	"adc_lld_stop\000\000\000\000\000\000\000\000\000\000"
 760      6C6C645F 
 760      73746F70 
 760      00000000 
 760      00000000 
 761 0064 00002F02 		.ascii	"\000\000/\002\000\000adc_lld_start_conversion\000\000"
 761      00006164 
 761      635F6C6C 
 761      645F7374 
 761      6172745F 
 762 0084 00000000 		.ascii	"\000\000\000\000\000\000\000\000\000\0003\002\000\000"
 762      00000000 
 762      00003302 
 762      0000
 763 0092 6164635F 		.ascii	"adc_lld_stop_conversion\000\000\000\000\000\000\000"
 763      6C6C645F 
 763      73746F70 
 763      5F636F6E 
 763      76657273 
 764 00b0 00000000 		.ascii	"\000\000\000\000\0007\002\000\000_stm32_dma_streams"
 764      00370200 
 764      005F7374 
 764      6D33325F 
 764      646D615F 
 765 00cb 00000200 		.ascii	"\000\000\002\000\000\000\000\000\000\000\000\000W\002"
 765      00000000 
 765      00000000 
 765      5702
 766 00d9 0000646D 		.ascii	"\000\000dmaStreamAllocate\000\000\002\000\000\000\000"
 766      61537472 
 766      65616D41 
 766      6C6C6F63 
 766      61746500 
 767 00f3 00000000 		.ascii	"\000\000\000\000\000;\002\000\000chThdResumeI\000\000"
 767      003B0200 
 767      00636854 
 767      68645265 
 767      73756D65 
 768 010a 02000000 		.ascii	"\002\000\000\000\000\000\000\000\000\000I\002\000\000"
 768      00000000 
 768      00004902 
 768      0000
 769 0118 646D6153 		.ascii	"dmaStreamRelease\000\000\002\000\000\000\000\000\000"
 769      74726561 
 769      6D52656C 
 769      65617365 
 769      00000200 
 770 0131 0000004F 		.ascii	"\000\000\000O\002\000\000adcObjectInit\000\000\002\000"
 770      02000061 
 770      64634F62 
 770      6A656374 
 770      496E6974 
ARM GAS  /tmp/cciivHZX.s 			page 62


 771 0149 00000000 		.ascii	"\000\000\000\000\000\000\000\000S\002\000\000"
 771      00000000 
 771      53020000 
 772              		.text
 773              		.section	.gnu.lto_.opts,"",%progbits
 774 0000 272D6D63 		.ascii	"'-mcpu=cortex-m3' '-mno-thumb-interwork' '-mthumb' "
 774      70753D63 
 774      6F727465 
 774      782D6D33 
 774      2720272D 
 775 0033 272D4F32 		.ascii	"'-O2' '-fomit-frame-pointer' '-falign-functions=16'"
 775      2720272D 
 775      666F6D69 
 775      742D6672 
 775      616D652D 
 776 0066 20272D66 		.ascii	" '-ffunction-sections' '-fdata-sections' '-fno-comm"
 776      66756E63 
 776      74696F6E 
 776      2D736563 
 776      74696F6E 
 777 0099 6F6E2720 		.ascii	"on' '-flto'\000"
 777      272D666C 
 777      746F2700 
 778              		.text
 779              		.section	.text.adc_lld_serve_rx_interrupt,"ax",%progbits
 780              		.align	2
 781              		.p2align 4,,15
 782              		.thumb
 783              		.thumb_func
 784              		.type	adc_lld_serve_rx_interrupt, %function
 785              	adc_lld_serve_rx_interrupt:
 786              		@ args = 0, pretend = 0, frame = 0
 787              		@ frame_needed = 0, uses_anonymous_args = 0
 788 0000 F8B5     		push	{r3, r4, r5, r6, r7, lr}
 789 0002 0D07     		lsls	r5, r1, #28
 790 0004 0446     		mov	r4, r0
 791 0006 26D5     		bpl	.L2
 792 0008 C36A     		ldr	r3, [r0, #44]
 793 000a 0169     		ldr	r1, [r0, #16]
 794 000c 1A68     		ldr	r2, [r3]
 795 000e 5D68     		ldr	r5, [r3, #4]
 796 0010 1768     		ldr	r7, [r2]
 797 0012 0F26     		movs	r6, #15
 798 0014 27F00F07 		bic	r7, r7, #15
 799 0018 1760     		str	r7, [r2]
 800 001a 1A7A     		ldrb	r2, [r3, #8]	@ zero_extendqisi2
 801 001c 8B68     		ldr	r3, [r1, #8]
 802 001e 9640     		lsls	r6, r6, r2
 803 0020 826A     		ldr	r2, [r0, #40]
 804 0022 0021     		movs	r1, #0
 805 0024 2E60     		str	r6, [r5]
 806 0026 9160     		str	r1, [r2, #8]
 807 0028 3BB1     		cbz	r3, .L4
 808 002a 0522     		movs	r2, #5
 809 002c 0270     		strb	r2, [r0]
 810 002e 9847     		blx	r3
 811 0030 2378     		ldrb	r3, [r4]	@ zero_extendqisi2
ARM GAS  /tmp/cciivHZX.s 			page 63


 812 0032 052B     		cmp	r3, #5
 813 0034 04BF     		itt	eq
 814 0036 0223     		moveq	r3, #2
 815 0038 2370     		strbeq	r3, [r4]
 816              	.L4:
 817 003a 0025     		movs	r5, #0
 818 003c 2561     		str	r5, [r4, #16]
 819 003e 2023     		movs	r3, #32
 820              	@ 546 "/home/cody/dev/chibios/trunk/os/ext/CMSIS/include/core_cmFunc.h" 1
 821 0040 83F31188 		MSR basepri, r3
 822              	@ 0 "" 2
 823              		.thumb
 824 0044 4FF0FF31 		mov	r1, #-1
 825 0048 04F11400 		add	r0, r4, #20
 826 004c FFF7FEFF 		bl	chThdResumeI
 827              	@ 546 "/home/cody/dev/chibios/trunk/os/ext/CMSIS/include/core_cmFunc.h" 1
 828 0050 85F31188 		MSR basepri, r5
 829              	@ 0 "" 2
 830              		.thumb
 831 0054 F8BD     		pop	{r3, r4, r5, r6, r7, pc}
 832              	.L2:
 833 0056 8A07     		lsls	r2, r1, #30
 834 0058 10D5     		bpl	.L7
 835 005a 0369     		ldr	r3, [r0, #16]
 836 005c 1D78     		ldrb	r5, [r3]	@ zero_extendqisi2
 837 005e BDB1     		cbz	r5, .L8
 838 0060 5D68     		ldr	r5, [r3, #4]
 839 0062 A5B1     		cbz	r5, .L1
 840 0064 C268     		ldr	r2, [r0, #12]
 841 0066 012A     		cmp	r2, #1
 842 0068 3FD9     		bls	.L9
 843 006a 5988     		ldrh	r1, [r3, #2]
 844 006c 5208     		lsrs	r2, r2, #1
 845 006e 01FB02F1 		mul	r1, r1, r2
 846 0072 8368     		ldr	r3, [r0, #8]
 847 0074 03EB4101 		add	r1, r3, r1, lsl #1
 848 0078 A847     		blx	r5
 849 007a F8BD     		pop	{r3, r4, r5, r6, r7, pc}
 850              	.L7:
 851 007c 4B07     		lsls	r3, r1, #29
 852 007e 06D5     		bpl	.L1
 853 0080 0369     		ldr	r3, [r0, #16]
 854 0082 5B68     		ldr	r3, [r3, #4]
 855 0084 1BB1     		cbz	r3, .L1
 856 0086 C268     		ldr	r2, [r0, #12]
 857 0088 8168     		ldr	r1, [r0, #8]
 858 008a 5208     		lsrs	r2, r2, #1
 859 008c 9847     		blx	r3
 860              	.L1:
 861 008e F8BD     		pop	{r3, r4, r5, r6, r7, pc}
 862              	.L8:
 863 0090 C26A     		ldr	r2, [r0, #44]
 864 0092 5B68     		ldr	r3, [r3, #4]
 865 0094 1168     		ldr	r1, [r2]
 866 0096 5668     		ldr	r6, [r2, #4]
 867 0098 D1F800E0 		ldr	lr, [r1]
 868 009c 0F27     		movs	r7, #15
ARM GAS  /tmp/cciivHZX.s 			page 64


 869 009e 2EF00F0E 		bic	lr, lr, #15
 870 00a2 C1F800E0 		str	lr, [r1]
 871 00a6 117A     		ldrb	r1, [r2, #8]	@ zero_extendqisi2
 872 00a8 826A     		ldr	r2, [r0, #40]
 873 00aa 07FA01F1 		lsl	r1, r7, r1
 874 00ae 3160     		str	r1, [r6]
 875 00b0 9560     		str	r5, [r2, #8]
 876 00b2 B3B1     		cbz	r3, .L10
 877 00b4 0422     		movs	r2, #4
 878 00b6 0270     		strb	r2, [r0]
 879 00b8 8168     		ldr	r1, [r0, #8]
 880 00ba C268     		ldr	r2, [r0, #12]
 881 00bc 9847     		blx	r3
 882 00be 2378     		ldrb	r3, [r4]	@ zero_extendqisi2
 883 00c0 042B     		cmp	r3, #4
 884 00c2 02D1     		bne	.L11
 885 00c4 0223     		movs	r3, #2
 886 00c6 2561     		str	r5, [r4, #16]
 887 00c8 2370     		strb	r3, [r4]
 888              	.L11:
 889 00ca 2023     		movs	r3, #32
 890              	@ 546 "/home/cody/dev/chibios/trunk/os/ext/CMSIS/include/core_cmFunc.h" 1
 891 00cc 83F31188 		MSR basepri, r3
 892              	@ 0 "" 2
 893              		.thumb
 894 00d0 0021     		movs	r1, #0
 895 00d2 04F11400 		add	r0, r4, #20
 896 00d6 FFF7FEFF 		bl	chThdResumeI
 897 00da 0023     		movs	r3, #0
 898              	@ 546 "/home/cody/dev/chibios/trunk/os/ext/CMSIS/include/core_cmFunc.h" 1
 899 00dc 83F31188 		MSR basepri, r3
 900              	@ 0 "" 2
 901              		.thumb
 902 00e0 F8BD     		pop	{r3, r4, r5, r6, r7, pc}
 903              	.L10:
 904 00e2 0222     		movs	r2, #2
 905 00e4 0361     		str	r3, [r0, #16]
 906 00e6 0270     		strb	r2, [r0]
 907 00e8 EFE7     		b	.L11
 908              	.L9:
 909 00ea 8168     		ldr	r1, [r0, #8]
 910 00ec A847     		blx	r5
 911 00ee F8BD     		pop	{r3, r4, r5, r6, r7, pc}
 912              		.size	adc_lld_serve_rx_interrupt, .-adc_lld_serve_rx_interrupt
 913              		.section	.text.adc_lld_init,"ax",%progbits
 914              		.align	2
 915              		.p2align 4,,15
 916              		.global	adc_lld_init
 917              		.thumb
 918              		.thumb_func
 919              		.type	adc_lld_init, %function
 920              	adc_lld_init:
 921              		@ args = 0, pretend = 0, frame = 0
 922              		@ frame_needed = 0, uses_anonymous_args = 0
 923 0000 F8B5     		push	{r3, r4, r5, r6, r7, lr}
 924 0002 154C     		ldr	r4, .L27
 925 0004 42F28A57 		movw	r7, #9610
ARM GAS  /tmp/cciivHZX.s 			page 65


 926 0008 2046     		mov	r0, r4
 927 000a FFF7FEFF 		bl	adcObjectInit
 928 000e 134A     		ldr	r2, .L27+4
 929 0010 134B     		ldr	r3, .L27+8
 930 0012 9169     		ldr	r1, [r2, #24]
 931 0014 DFF84CC0 		ldr	ip, .L27+12
 932 0018 41F40071 		orr	r1, r1, #512
 933 001c 0026     		movs	r6, #0
 934 001e 0125     		movs	r5, #1
 935 0020 0920     		movs	r0, #9
 936 0022 C4F82CC0 		str	ip, [r4, #44]
 937 0026 2763     		str	r7, [r4, #48]
 938 0028 A362     		str	r3, [r4, #40]
 939 002a 9161     		str	r1, [r2, #24]
 940 002c 5E60     		str	r6, [r3, #4]
 941 002e 1946     		mov	r1, r3
 942 0030 9D60     		str	r5, [r3, #8]
 943 0032 9860     		str	r0, [r3, #8]
 944              	.L24:
 945 0034 8B68     		ldr	r3, [r1, #8]
 946 0036 0A4A     		ldr	r2, .L27+8
 947 0038 1B07     		lsls	r3, r3, #28
 948 003a FBD4     		bmi	.L24
 949 003c 0523     		movs	r3, #5
 950 003e 9360     		str	r3, [r2, #8]
 951              	.L26:
 952 0040 9368     		ldr	r3, [r2, #8]
 953 0042 0749     		ldr	r1, .L27+8
 954 0044 13F00403 		ands	r3, r3, #4
 955 0048 FAD1     		bne	.L26
 956 004a 044A     		ldr	r2, .L27+4
 957 004c 8B60     		str	r3, [r1, #8]
 958 004e 9369     		ldr	r3, [r2, #24]
 959 0050 23F40073 		bic	r3, r3, #512
 960 0054 9361     		str	r3, [r2, #24]
 961 0056 F8BD     		pop	{r3, r4, r5, r6, r7, pc}
 962              	.L28:
 963              		.align	2
 964              	.L27:
 965 0058 00000000 		.word	.LANCHOR0
 966 005c 00100240 		.word	1073876992
 967 0060 00240140 		.word	1073816576
 968 0064 00000000 		.word	_stm32_dma_streams
 969              		.size	adc_lld_init, .-adc_lld_init
 970 0068 AFF30080 		.section	.text.adc_lld_start,"ax",%progbits
 970      AFF30080 
 971              		.align	2
 972              		.p2align 4,,15
 973              		.global	adc_lld_start
 974              		.thumb
 975              		.thumb_func
 976              		.type	adc_lld_start, %function
 977              	adc_lld_start:
 978              		@ args = 0, pretend = 0, frame = 0
 979              		@ frame_needed = 0, uses_anonymous_args = 0
 980 0000 0378     		ldrb	r3, [r0]	@ zero_extendqisi2
 981 0002 10B5     		push	{r4, lr}
ARM GAS  /tmp/cciivHZX.s 			page 66


 982 0004 012B     		cmp	r3, #1
 983 0006 0446     		mov	r4, r0
 984 0008 00D0     		beq	.L32
 985 000a 10BD     		pop	{r4, pc}
 986              	.L32:
 987 000c 0B4B     		ldr	r3, .L34
 988 000e 9842     		cmp	r0, r3
 989 0010 04D0     		beq	.L33
 990              	.L31:
 991 0012 A36A     		ldr	r3, [r4, #40]
 992 0014 0022     		movs	r2, #0
 993 0016 5A60     		str	r2, [r3, #4]
 994 0018 9A60     		str	r2, [r3, #8]
 995 001a 10BD     		pop	{r4, pc}
 996              	.L33:
 997 001c 0621     		movs	r1, #6
 998 001e 084A     		ldr	r2, .L34+4
 999 0020 2346     		mov	r3, r4
 1000 0022 C06A     		ldr	r0, [r0, #44]
 1001 0024 FFF7FEFF 		bl	dmaStreamAllocate
 1002 0028 E36A     		ldr	r3, [r4, #44]
 1003 002a 0649     		ldr	r1, .L34+8
 1004 002c 1A68     		ldr	r2, [r3]
 1005 002e 064B     		ldr	r3, .L34+12
 1006 0030 9160     		str	r1, [r2, #8]
 1007 0032 9A69     		ldr	r2, [r3, #24]
 1008 0034 42F40072 		orr	r2, r2, #512
 1009 0038 9A61     		str	r2, [r3, #24]
 1010 003a EAE7     		b	.L31
 1011              	.L35:
 1012              		.align	2
 1013              	.L34:
 1014 003c 00000000 		.word	.LANCHOR0
 1015 0040 00000000 		.word	adc_lld_serve_rx_interrupt
 1016 0044 4C240140 		.word	1073816652
 1017 0048 00100240 		.word	1073876992
 1018              		.size	adc_lld_start, .-adc_lld_start
 1019 004c AFF30080 		.section	.text.adc_lld_stop,"ax",%progbits
 1020              		.align	2
 1021              		.p2align 4,,15
 1022              		.global	adc_lld_stop
 1023              		.thumb
 1024              		.thumb_func
 1025              		.type	adc_lld_stop, %function
 1026              	adc_lld_stop:
 1027              		@ args = 0, pretend = 0, frame = 0
 1028              		@ frame_needed = 0, uses_anonymous_args = 0
 1029 0000 08B5     		push	{r3, lr}
 1030 0002 0378     		ldrb	r3, [r0]	@ zero_extendqisi2
 1031 0004 022B     		cmp	r3, #2
 1032 0006 00D0     		beq	.L38
 1033              	.L36:
 1034 0008 08BD     		pop	{r3, pc}
 1035              	.L38:
 1036 000a 084B     		ldr	r3, .L39
 1037 000c 9842     		cmp	r0, r3
 1038 000e FBD1     		bne	.L36
ARM GAS  /tmp/cciivHZX.s 			page 67


 1039 0010 074B     		ldr	r3, .L39+4
 1040 0012 0022     		movs	r2, #0
 1041 0014 C06A     		ldr	r0, [r0, #44]
 1042 0016 5A60     		str	r2, [r3, #4]
 1043 0018 9A60     		str	r2, [r3, #8]
 1044 001a FFF7FEFF 		bl	dmaStreamRelease
 1045 001e 054B     		ldr	r3, .L39+8
 1046 0020 9A69     		ldr	r2, [r3, #24]
 1047 0022 22F40072 		bic	r2, r2, #512
 1048 0026 9A61     		str	r2, [r3, #24]
 1049 0028 EEE7     		b	.L36
 1050              	.L40:
 1051 002a 00BF     		.align	2
 1052              	.L39:
 1053 002c 00000000 		.word	.LANCHOR0
 1054 0030 00240140 		.word	1073816576
 1055 0034 00100240 		.word	1073876992
 1056              		.size	adc_lld_stop, .-adc_lld_stop
 1057 0038 AFF30080 		.section	.text.adc_lld_start_conversion,"ax",%progbits
 1057      AFF30080 
 1058              		.align	2
 1059              		.p2align 4,,15
 1060              		.global	adc_lld_start_conversion
 1061              		.thumb
 1062              		.thumb_func
 1063              		.type	adc_lld_start_conversion, %function
 1064              	adc_lld_start_conversion:
 1065              		@ args = 0, pretend = 0, frame = 0
 1066              		@ frame_needed = 0, uses_anonymous_args = 0
 1067              		@ link register save eliminated.
 1068 0000 0369     		ldr	r3, [r0, #16]
 1069 0002 F0B4     		push	{r4, r5, r6, r7}
 1070 0004 1978     		ldrb	r1, [r3]	@ zero_extendqisi2
 1071 0006 026B     		ldr	r2, [r0, #48]
 1072 0008 0029     		cmp	r1, #0
 1073 000a 2BD1     		bne	.L42
 1074 000c C168     		ldr	r1, [r0, #12]
 1075              	.L43:
 1076 000e 5D88     		ldrh	r5, [r3, #2]
 1077 0010 C46A     		ldr	r4, [r0, #44]
 1078 0012 05FB01F5 		mul	r5, r5, r1
 1079 0016 2168     		ldr	r1, [r4]
 1080 0018 8468     		ldr	r4, [r0, #8]
 1081 001a DE68     		ldr	r6, [r3, #12]
 1082 001c CC60     		str	r4, [r1, #12]
 1083 001e 4D60     		str	r5, [r1, #4]
 1084 0020 0A60     		str	r2, [r1]
 1085 0022 0D68     		ldr	r5, [r1]
 1086 0024 826A     		ldr	r2, [r0, #40]
 1087 0026 1869     		ldr	r0, [r3, #16]
 1088 0028 45F00105 		orr	r5, r5, #1
 1089 002c 10F4841F 		tst	r0, #1081344
 1090 0030 0D60     		str	r5, [r1]
 1091 0032 46F48074 		orr	r4, r6, #256
 1092 0036 14BF     		ite	ne
 1093 0038 40F48071 		orrne	r1, r0, #256
 1094 003c 40F48171 		orreq	r1, r0, #258
ARM GAS  /tmp/cciivHZX.s 			page 68


 1095 0040 5F69     		ldr	r7, [r3, #20]
 1096 0042 9E69     		ldr	r6, [r3, #24]
 1097 0044 DD69     		ldr	r5, [r3, #28]
 1098 0046 5460     		str	r4, [r2, #4]
 1099 0048 41F00101 		orr	r1, r1, #1
 1100 004c 1C6A     		ldr	r4, [r3, #32]
 1101 004e 5B6A     		ldr	r3, [r3, #36]
 1102 0050 0843     		orrs	r0, r0, r1
 1103 0052 9060     		str	r0, [r2, #8]
 1104 0054 D760     		str	r7, [r2, #12]
 1105 0056 1661     		str	r6, [r2, #16]
 1106 0058 D562     		str	r5, [r2, #44]
 1107 005a 1463     		str	r4, [r2, #48]
 1108 005c 5363     		str	r3, [r2, #52]
 1109 005e F0BC     		pop	{r4, r5, r6, r7}
 1110 0060 9160     		str	r1, [r2, #8]
 1111 0062 7047     		bx	lr
 1112              	.L42:
 1113 0064 C168     		ldr	r1, [r0, #12]
 1114 0066 0129     		cmp	r1, #1
 1115 0068 94BF     		ite	ls
 1116 006a 42F02002 		orrls	r2, r2, #32
 1117 006e 42F02402 		orrhi	r2, r2, #36
 1118 0072 CCE7     		b	.L43
 1119              		.size	adc_lld_start_conversion, .-adc_lld_start_conversion
 1120 0074 AFF30080 		.section	.text.adc_lld_stop_conversion,"ax",%progbits
 1120      AFF30080 
 1120      AFF30080 
 1121              		.align	2
 1122              		.p2align 4,,15
 1123              		.global	adc_lld_stop_conversion
 1124              		.thumb
 1125              		.thumb_func
 1126              		.type	adc_lld_stop_conversion, %function
 1127              	adc_lld_stop_conversion:
 1128              		@ args = 0, pretend = 0, frame = 0
 1129              		@ frame_needed = 0, uses_anonymous_args = 0
 1130              		@ link register save eliminated.
 1131 0000 C36A     		ldr	r3, [r0, #44]
 1132 0002 30B4     		push	{r4, r5}
 1133 0004 1A68     		ldr	r2, [r3]
 1134 0006 816A     		ldr	r1, [r0, #40]
 1135 0008 1568     		ldr	r5, [r2]
 1136 000a 5868     		ldr	r0, [r3, #4]
 1137 000c 25F00F05 		bic	r5, r5, #15
 1138 0010 1560     		str	r5, [r2]
 1139 0012 1A7A     		ldrb	r2, [r3, #8]	@ zero_extendqisi2
 1140 0014 0F24     		movs	r4, #15
 1141 0016 04FA02F2 		lsl	r2, r4, r2
 1142 001a 30BC     		pop	{r4, r5}
 1143 001c 0023     		movs	r3, #0
 1144 001e 0260     		str	r2, [r0]
 1145 0020 8B60     		str	r3, [r1, #8]
 1146 0022 7047     		bx	lr
 1147              		.size	adc_lld_stop_conversion, .-adc_lld_stop_conversion
 1148              		.global	ADCD1
 1149 0024 AFF30080 		.section	.bss.ADCD1,"aw",%nobits
ARM GAS  /tmp/cciivHZX.s 			page 69


 1149      AFF30080 
 1149      AFF30080 
 1150              		.align	2
 1151              		.set	.LANCHOR0,. + 0
 1152              		.type	ADCD1, %object
 1153              		.size	ADCD1, 52
 1154              	ADCD1:
 1155 0000 00000000 		.space	52
 1155      00000000 
 1155      00000000 
 1155      00000000 
 1155      00000000 
 1156              		.comm	__gnu_lto_v1,1,1
 1157              		.ident	"GCC: (GNU Tools for ARM Embedded Processors) 4.8.4 20140526 (release) [ARM/embedded-4_8-br
ARM GAS  /tmp/cciivHZX.s 			page 70


DEFINED SYMBOLS
                            *ABS*:0000000000000000 adc_lld.c
     /tmp/cciivHZX.s:780    .text.adc_lld_serve_rx_interrupt:0000000000000000 $t
     /tmp/cciivHZX.s:785    .text.adc_lld_serve_rx_interrupt:0000000000000000 adc_lld_serve_rx_interrupt
     /tmp/cciivHZX.s:914    .text.adc_lld_init:0000000000000000 $t
     /tmp/cciivHZX.s:920    .text.adc_lld_init:0000000000000000 adc_lld_init
     /tmp/cciivHZX.s:965    .text.adc_lld_init:0000000000000058 $d
     /tmp/cciivHZX.s:971    .text.adc_lld_start:0000000000000000 $t
     /tmp/cciivHZX.s:977    .text.adc_lld_start:0000000000000000 adc_lld_start
     /tmp/cciivHZX.s:1014   .text.adc_lld_start:000000000000003c $d
     /tmp/cciivHZX.s:1020   .text.adc_lld_stop:0000000000000000 $t
     /tmp/cciivHZX.s:1026   .text.adc_lld_stop:0000000000000000 adc_lld_stop
     /tmp/cciivHZX.s:1053   .text.adc_lld_stop:000000000000002c $d
     /tmp/cciivHZX.s:1058   .text.adc_lld_start_conversion:0000000000000000 $t
     /tmp/cciivHZX.s:1064   .text.adc_lld_start_conversion:0000000000000000 adc_lld_start_conversion
     /tmp/cciivHZX.s:1121   .text.adc_lld_stop_conversion:0000000000000000 $t
     /tmp/cciivHZX.s:1127   .text.adc_lld_stop_conversion:0000000000000000 adc_lld_stop_conversion
     /tmp/cciivHZX.s:1154   .bss.ADCD1:0000000000000000 ADCD1
     /tmp/cciivHZX.s:1150   .bss.ADCD1:0000000000000000 $d
                            *COM*:0000000000000001 __gnu_lto_v1
     /tmp/cciivHZX.s:970    .text.adc_lld_init:0000000000000068 $t
     /tmp/cciivHZX.s:1019   .text.adc_lld_start:000000000000004c $t
     /tmp/cciivHZX.s:1057   .text.adc_lld_stop:0000000000000038 $t

UNDEFINED SYMBOLS
chThdResumeI
adcObjectInit
_stm32_dma_streams
dmaStreamAllocate
dmaStreamRelease
