ARM GAS  /tmp/ccibCdJE.s 			page 1


   1              		.syntax unified
   2              		.cpu cortex-m4
   3              		.eabi_attribute 27, 3
   4              		.eabi_attribute 28, 1
   5              		.fpu fpv4-sp-d16
   6              		.eabi_attribute 20, 1
   7              		.eabi_attribute 21, 1
   8              		.eabi_attribute 23, 3
   9              		.eabi_attribute 24, 1
  10              		.eabi_attribute 25, 1
  11              		.eabi_attribute 26, 1
  12              		.eabi_attribute 30, 2
  13              		.eabi_attribute 34, 1
  14              		.eabi_attribute 18, 4
  15              		.thumb
  16              		.file	"board.c"
  17              		.section	.gnu.lto_.jmpfuncs.a818e58ce5823133,"",%progbits
  18 0000 789C6362 		.ascii	"x\234cb`b\300\006\370\2414\033\0203\002\32503\2620\260"
  18      6062C006 
  18      F8A1341B 
  18      103302D5 
  18      3033B230 
  19 0015 32300000 		.ascii	"20\000\000\002\365\000*"
  19      02F5002A 
  20              		.text
  21              		.section	.gnu.lto_.inline.a818e58ce5823133,"",%progbits
  22 0000 789C6362 		.ascii	"x\234cb`b\300\006\346Bi6\006\006\026\036F\260\"\266"
  22      6062C006 
  22      E6426936 
  22      0606161E 
  22      46B022B6 
  23 0014 05F260B5 		.ascii	"\005\362`\265\214\\ \202\201\235\015(\314q\300\016."
  23      8C5C2082 
  23      819D0D28 
  23      CC71C00E 
  23      2E
  24 0025 CEC4C0CC 		.ascii	"\316\304\300\314\204\252\222\231\201\235\225\221\231"
  24      84AA9299 
  24      819D9591 
  24      99
  25 0032 21238231 		.ascii	"!#\2021\223\021lZ:\234\005\"YaJY\026\310\01300\035\341"
  25      93116C5A 
  25      3A9C0522 
  25      59614A59 
  25      16C80B30 
  26 0049 E46060EA 		.ascii	"\344``\352ac\001I\2630\260\261\002\315b\373\240\007"
  26      61630149 
  26      B330B0B1 
  26      02CD62FB 
  26      A007
  27 005b 378C15C3 		.ascii	"7\214\025\303x\006\000\322/\014\204"
  27      780600D2 
  27      2F0C84
  28              		.text
  29              		.section	.gnu.lto_.pureconst.a818e58ce5823133,"",%progbits
  30 0000 789C6362 		.ascii	"x\234cb`b\340e\200\0006\006\011F)&\006f)\026)V\006\000"
  30      6062E065 
ARM GAS  /tmp/ccibCdJE.s 			page 2


  30      80003606 
  30      09462926 
  30      06662916 
  31 0018 04E0008D 		.ascii	"\004\340\000\215"
  32              		.text
  33              		.section	.gnu.lto___early_init.a818e58ce5823133,"",%progbits
  34 0000 789C6362 		.ascii	"x\234cb`b@\007\222@\\\003\304\\@\314\310\314\300\310"
  34      60624007 
  34      92405C03 
  34      C45C40CC 
  34      C8CCC0C8 
  35 0014 34E11C03 		.ascii	"4\341\034\003C#\007\023##\210\301\300\310P\317\304X"
  35      43230713 
  35      232388C1 
  35      C0C850CF 
  35      C458
  36 0026 1FC90856 		.ascii	"\037\311\010V\273\236\351\300\203\377\377\327m:6\347"
  36      BB9EE9C0 
  36      83FFFFD7 
  36      6D3A36E7 
  37 0036 0CE34C26 		.ascii	"\014\343L&f\240\010+CKC\303\004\005\006\206d\260\212"
  37      66A0082B 
  37      434B43C3 
  37      04050686 
  37      64B08A
  38 0049 102009D2 		.ascii	"\020 \011\322\026\312\310\004\242\231\31734?\230\375"
  38      16CAC804 
  38      A299CF33 
  38      343F98FD 
  39 0059 982B9171 		.ascii	"\230+\221q!#+P\272\232\341WCG\203@&#P9\304\304L\020"
  39      21232B50 
  39      BA9AE157 
  39      43478340 
  39      26235039 
  40 0071 7D91A1F1 		.ascii	"}\221\241\361\301\034e\230\"\010\010\001J\000M\000\271"
  40      C11C6598 
  40      22080801 
  40      4A004D00 
  40      B9
  41 0082 9723293F 		.ascii	"\227#)?\261(E/\231\001\000`\370%0"
  41      B128452F 
  41      99010060 
  41      F82530
  42              		.text
  43              		.section	.gnu.lto_mmc_lld_is_card_inserted.a818e58ce5823133,"",%progbits
  44 0000 789C5D50 		.ascii	"x\234]P\261j\002Q\020\234\331wO\305\302>]\372\200_\243"
  44      B16A0251 
  44      109CD977 
  44      4FC5C23E 
  44      5DFA805F 
  45 0015 A0A56740 		.ascii	"\240\245g@\254\204\374\200/(hy\265bak\241\026v6\222"
  45      AC84FC80 
  45      2F286879 
  45      B562616B 
  45      A1167636 
  46 002a 5A43D249 		.ascii	"ZC\322I\252|E\222\316\354\276\343\256paf\027fgw\337"
  46      AA7C4592 
ARM GAS  /tmp/ccibCdJE.s 			page 3


  46      CEECBEE3 
  46      AE706166 
  46      17666777 
  47 003f 1308EEE3 		.ascii	"\023\010\356\343A\361\253\250+\350@\311\336\201\327"
  47      41F1ABA8 
  47      2BE840C9 
  47      DE81D7
  48 004e 9A905680 		.ascii	"\232\220V\200\030\013\307]\306\336\235\234\276o\267"
  48      180BC75D 
  48      C6DE9D9C 
  48      BE6FB7
  49 005d ED7E7638 		.ascii	"\355~v8s%\025\301\220pF\211\221W\262>\217i\010\331#"
  49      732515C1 
  49      90704689 
  49      9157B23E 
  49      8F6908D9 
  50 0072 D08FAE96 		.ascii	"\320\217\256\226\262\215jS,\273\013\336\276\376~>\330"
  50      B28D6A53 
  50      2CBB0BDE 
  50      BEFE7E3E 
  50      D8
  51 0083 E39A1E03 		.ascii	"\343\232\036\003\312\0236a\312!e\211\205&\327QJB6\017"
  51      CA133661 
  51      CA216589 
  51      8526D751 
  51      4A42360F 
  52 0097 09621957 		.ascii	"\011b\031W\247,\016\276`\262u\205\331\251\337\232|5"
  52      A72C0EBE 
  52      60B27585 
  52      D9A9DF9A 
  52      7C35
  53 00a9 578EA592 		.ascii	"W\216\245\222\014\362I`\256\\'\215B\362\252F\311\342"
  53      0CF24960 
  53      AE5C278D 
  53      42F2AA46 
  53      C9E2
  54 00bb 13E5253E 		.ascii	"\023\345%>_\320\322W\350\241\366U\265t\324{yn\366\361"
  54      5FD0D257 
  54      E8A1F655 
  54      B574D47B 
  54      796EF6F1 
  55 00cf 0FAE6939 		.ascii	"\017\256i9\323"
  55      D3
  56              		.text
  57              		.section	.gnu.lto_mmc_lld_is_write_protected.a818e58ce5823133,"",%progbits
  58 0000 789C6362 		.ascii	"x\234cb`b@\007\222@\034\015\304\\@\314\310\314\300\310"
  58      60624007 
  58      92401C0D 
  58      C45C40CC 
  58      C8CCC0C8 
  59 0014 34E11C03 		.ascii	"4\341\034\003C#\007\023##\210\301\300\310P\317\304X"
  59      43230713 
  59      232388C1 
  59      C0C850CF 
  59      C458
  60 0026 1FC90856 		.ascii	"\037\311\010V\273\236\351\300\203\377\377\327]h\337"
  60      BB9EE9C0 
ARM GAS  /tmp/ccibCdJE.s 			page 4


  60      83FFFFD7 
  60      5D68DF
  61 0035 7A86711E 		.ascii	"z\206q\036\023\310,V\206\226\206\206\011\012\014\014"
  61      13C82C56 
  61      86968686 
  61      090A0C0C 
  62 0045 C9601521 		.ascii	"\311`\025!@\022\244-\224\221\011D3_dh|\360:9\221q!#"
  62      4012A42D 
  62      94910944 
  62      335F6468 
  62      7CF03A39 
  63 005d 2B430463 		.ascii	"+C\004c&#\334\326\020FF\220\002\220\021\034I\371\211"
  63      2623DCD6 
  63      10464690 
  63      0290111C 
  63      49F989
  64 0070 45297AC9 		.ascii	"E)z\311\014\000\253\263\035S"
  64      0C00ABB3 
  64      1D53
  65              		.text
  66              		.section	.gnu.lto_setLED.a818e58ce5823133,"",%progbits
  67 0000 789C6362 		.ascii	"x\234cb`b@\0076@\234\312\310\300\300\005\244\031\331"
  67      60624007 
  67      36409CCA 
  67      C8C0C005 
  67      A419D9
  68 0013 18189926 		.ascii	"\030\030\231&\234c`h\344`bb\336#\307\320\300\305rE\237"
  68      9C636068 
  68      E4606262 
  68      DE23C7D0 
  68      C0C57245 
  69 0028 A1818799 		.ascii	"\241\201\207\231\221\025\"\314\002c\26022\202\030\014"
  69      911522CC 
  69      0263B032 
  69      3282180C 
  70 0038 8C0CF54C 		.ascii	"\214\014\365L\314,\254\214\365\221\214`\343\3263\035"
  70      CC2CAC8C 
  70      F5918C60 
  70      E3D6331D 
  71 0048 78F0FFFF 		.ascii	"x\360\377\377\272_\307\027t12\26111\346\202\205Y\031"
  71      BA5FC717 
  71      743132B1 
  71      3131E682 
  71      855919
  72 005b 5A1A1A26 		.ascii	"Z\032\032&(00$\203\271!@\022\244;\224\221\011D3\237"
  72      28303024 
  72      83B92140 
  72      12A43B94 
  72      91094433 
  73 0070 60687973 		.ascii	"`hys\360o;s\"\343BFV\206tF\246\010\306LF\024W\20622"
  73      F06F3B73 
  73      22E34246 
  73      56867446 
  73      A608C64C 
  74 008a 33EC9163 		.ascii	"3\354\221c>\313ph\307\217\377\007\030!\012\265\031V"
  74      3ECB7068 
  74      C78FFF07 
ARM GAS  /tmp/ccibCdJE.s 			page 5


  74      18210AB5 
  74      1956
  75 009c 35B40055 		.ascii	"5\264\000U2\302\030L0\006\363l\206Y@\212\005d\016kC"
  75      32C2184C 
  75      3006F36C 
  75      8659408A 
  75      05640E6B 
  76 00b1 4747030B 		.ascii	"GG\003\013\003\230\0116+\011jt\022##\224\206\204\012"
  76      03980936 
  76      2B096A74 
  76      12232394 
  76      86840A
  77 00c4 48051B07 		.ascii	"H\005\033\007\334B\026\206+\372`\013W,\242\213}\254"
  77      DC421686 
  77      2BFA600B 
  77      572CA28B 
  77      7DAC
  78 00d6 E0A0B8C8 		.ascii	"\340\240\270\310\320\370\240K\025b\037\014\204\0005"
  78      D0F8A04B 
  78      15621F0C 
  78      840035
  79 00e5 02E540BA 		.ascii	"\002\345@\2728\222\362\023\213R\364\222\031\000\232"
  79      3892F213 
  79      8B52F492 
  79      19009A
  80 00f4 D154D3   		.ascii	"\321T\323"
  81              		.text
  82              		.section	.gnu.lto_toggleLED.a818e58ce5823133,"",%progbits
  83 0000 789C6362 		.ascii	"x\234cb`b@\007\222@\374\005\210\271\200\230\221\231"
  83      60624007 
  83      9240FC05 
  83      88B98098 
  83      9199
  84 0012 819169C2 		.ascii	"\201\221i\3029\006\206F\016&FF\020\203\201\221\241\236"
  84      39068646 
  84      0E264646 
  84      10838191 
  84      A19E
  85 0024 89B13E92 		.ascii	"\211\261>\222\021\254v=\323\201\007\377\377\257\333"
  85      11AC763D 
  85      D38107FF 
  85      FFAFDB
  86 0033 706AC12C 		.ascii	"pj\301,F&V&\206LF\006f\020\001\004\254\014-\015\015"
  86      46265626 
  86      864C4606 
  86      66100104 
  86      AC0C2D0D 
  87 0048 13141818 		.ascii	"\023\024\030\030\222\301\334\020 \011\322\037\312\310"
  87      92C1DC10 
  87      2009D21F 
  87      CAC8
  88 0056 04A299CF 		.ascii	"\004\242\231\3172\034\272\265c\231f\"\343BFV\206tF&"
  88      321CBAB5 
  88      63996622 
  88      E3424656 
  88      86744626 
  89 006a 6D86550D 		.ascii	"m\206U\015-\214\231\214\214\263\031f\001)\246\010 \301"
ARM GAS  /tmp/ccibCdJE.s 			page 6


  89      2D8C998C 
  89      8CB31966 
  89      0129A608 
  89      20C1
  90 007c DCD0D1D1 		.ascii	"\334\320\321\321\300\302\000f\202\255Kb\2049\362,C\363"
  90      C0C20066 
  90      82AD4B62 
  90      8439F22C 
  90      43F3
  91 008e 2E669866 		.ascii	".f\230f\346t\210z\006\016\260\314!O\210\004IF\246\203"
  91      E674887A 
  91      060EB0CC 
  91      214F8804 
  91      4946A683 
  92 00a2 F817191A 		.ascii	"\370\027\031\032\037\314R\205\350\206\201\020FF\220"
  92      1FCC5285 
  92      E8868110 
  92      464690
  93 00b1 8341E1C4 		.ascii	"\203A\341\304\221\224\237X\224\242\227\314\000\000\037"
  93      91949F58 
  93      94A297CC 
  93      00001F
  94 00c0 AE39ED   		.ascii	"\2569\355"
  95              		.text
  96              		.section	.gnu.lto_boardInit.a818e58ce5823133,"",%progbits
  97 0000 789C6362 		.ascii	"x\234cb`b@\007\222@\034\014\304\\@\314\310\314\300\310"
  97      60624007 
  97      92401C0C 
  97      C45C40CC 
  97      C8CCC0C8 
  98 0014 34E11C03 		.ascii	"4\341\034\003C#\007\023##\210\301\300\310P\317\304X"
  98      43230713 
  98      232388C1 
  98      C0C850CF 
  98      C458
  99 0026 1FC90856 		.ascii	"\037\311\010V\273\236\351\300\203\377\377\327]\350\232"
  99      BB9EE9C0 
  99      83FFFFD7 
  99      5DE89A
 100 0035 3E877115 		.ascii	">\207q\025\023\310,V\206\226\206\206\011\012\014\014"
 100      13C82C56 
 100      86968686 
 100      090A0C0C 
 101 0045 C9601521 		.ascii	"\311`\025!@\022\244-\224\221\011D3_d`Ld\\\310\310\012"
 101      4012A42D 
 101      94910944 
 101      335F6460 
 101      4C645CC8 
 102 005b B72D8491 		.ascii	"\267-\204\221\021$\001\322\312\221\224\237X\224\242"
 102      112401D2 
 102      CA91949F 
 102      5894A2
 103 006a 97CC0000 		.ascii	"\227\314\000\000c\353\031\233"
 103      63EB199B 
 104              		.text
 105              		.section	.gnu.lto_.symbol_nodes.a818e58ce5823133,"",%progbits
 106 0000 789C4DC8 		.ascii	"x\234M\310\301\021@@\020D\321\236^C\314N=,\312Q\004"
ARM GAS  /tmp/ccibCdJE.s 			page 7


 106      C1114040 
 106      1044D19E 
 106      5E43CC4E 
 106      3D2CCA51 
 107 0015 42128348 		.ascii	"B\022\203Hp\240\312\374\333\373\004\321\343\213A\001"
 107      70A0CAFC 
 107      DBFB04D1 
 107      E38B4101 
 108 0025 DB0148FB 		.ascii	"\333\001H\373j\034(K\034)&V\252$NT\2238S\376\323o\203"
 108      6A1C284B 
 108      1C292656 
 108      AA244E54 
 108      933853FE 
 109 003c 0BB650ED 		.ascii	"\013\266P\355{#\254\240C=/\303\003\242\020#\241"
 109      7B23ACA0 
 109      433D2FC3 
 109      03A21023 
 109      A1
 110              		.text
 111              		.section	.gnu.lto_.refs.a818e58ce5823133,"",%progbits
 112 0000 789C6362 		.ascii	"x\234cb`b`d\200\002\000\000F\000\006"
 112      60626064 
 112      80020000 
 112      460006
 113              		.text
 114              		.section	.gnu.lto_.decls.a818e58ce5823133,"",%progbits
 115 0000 789CBD5C 		.ascii	"x\234\275\\\011t\024\325\232\256\252^\262\312\246\363"
 115      097414D5 
 115      9AAEAA5E 
 115      B2CAA6F3 
 116 0010 061DCFD8 		.ascii	"\006\035\317\330\316\3219\036G\011\333S\364\275\021"
 116      CED1391E 
 116      4709DB53 
 116      F4BD11
 117 001f 21899223 		.ascii	"!\211\222#KN\007\237:\347\315i\213\356\012\351g\222"
 117      4B4E079F 
 117      3AE7CD69 
 117      8BEE0AE9 
 117      6792
 118 0031 EED7DD40 		.ascii	"\356\327\335@\230\231s,\202\200\262\204\204]\002!\""
 118      9899732C 
 118      8280B284 
 118      845D0221 
 118      22
 119 0042 C8E2F280 		.ascii	"\310\342\362\200\310\0226\033\004\022\210\017\022\021"
 119      C812361B 
 119      0412880F 
 119      1211
 120 0050 8541A011 		.ascii	"\205A\240\0217T\034\300\307.d\356\375oU\367\275\225"
 120      37541CC0 
 120      C72E64EE 
 120      FD6F55F7 
 120      BD95
 121 0062 AAEEAAD6 		.ascii	"\252\356\252\326\363\352\234\372\353\366\355[\337\375"
 121      F3EA9CFA 
 121      EBF6ED5B 
 121      DFFD
ARM GAS  /tmp/ccibCdJE.s 			page 8


 122 0070 B7FBDFA5 		.ascii	"\267\373\337\245n\225\300\011\334L\236\343:\321q\351"
 122      6E95C009 
 122      DC4C9EE3 
 122      3AD171E9 
 123 0080 398EFB7D 		.ascii	"9\216\373}6\307ep\034\367\004:Q6\367\006G\016\234\267"
 123      36C76570 
 123      1CF7043A 
 123      5136F706 
 123      470E9CB7 
 124 0094 029D6BD0 		.ascii	"\002\235k\3209Y\340\270i\350\254Ag\035:\347\011\244"
 124      3959E0B8 
 124      69E8AC41 
 124      671D3AE7 
 124      09A4
 125 00a6 EC028163 		.ascii	"\354\002\201c\016\\\036g\355Ed\245\222'(\371\3634e9"
 125      0E5C1E67 
 125      ED4564A5 
 125      922728F9 
 125      F3346539 
 126 00ba 05DBA9D4 		.ascii	"\005\333\251\324\205\353}\006\201\026\242s<:\355\012"
 126      85EB7D06 
 126      8116A273 
 126      3C3AED0A 
 127 00ca 3F253CB9 		.ascii	"?%<\271\256\351z;\360E\363\314+y\332\003\363\256\326"
 127      AEE97A3B 
 127      F045F3CC 
 127      2B79DA03 
 127      F3AED6
 128 00dd B10FA55B 		.ascii	"\261\017\245[\320\371<U\227\215#\347s(\375\237\350,"
 128      D0F93C55 
 128      978D23E7 
 128      7328FD9F 
 128      E82C
 129 00ef 53EA9CA6 		.ascii	"S\352\234\246\340\317\320`b=\330\025\276i\236q\331g"
 129      E0CFD060 
 129      623DD815 
 129      BE699E71 
 129      D967
 130 0101 956B8D0E 		.ascii	"\225k\215\016\037uT\036\257\371\255\036\231\3344Y\256"
 130      1F75541E 
 130      AFF9AD1E 
 130      99DC3459 
 130      AE
 131 0112 966353E4 		.ascii	"\226cS\344I\374\2371\233\"\337-\013\345\342Dn\026\334"
 131      49FC9F31 
 131      9B22DF2D 
 131      0BE5E244 
 131      6E16DC
 132 0125 763FB742 		.ascii	"v?\267B\226\345ZY\026D\376\015>\023\251X\340u\264\203"
 132      96E55A59 
 132      1644FE0D 
 132      3E13A958 
 132      E075B483 
 133 0139 0EF23F3E 		.ascii	"\016\362?>\360\355$\255\246\320-\367p\015rc,\266\376"
 133      F0ED24AD 
 133      A6D02DF7 
 133      700D7263 
ARM GAS  /tmp/ccibCdJE.s 			page 9


 133      2CB6FE
 134 014c CB99CED7 		.ascii	"\313\231\316\327\345\350+rg\347\313\334o\270\371\010"
 134      E5E82B72 
 134      67E7CBDC 
 134      6FB8F908 
 135 015c 5C6E9C2A 		.ascii	"\\n\234*\313|D\344\237\370\007\225\005\227\312\202]"
 135      CB7C44E4 
 135      9FF80795 
 135      0597CA82 
 135      5D
 136 016d 815EC9FF 		.ascii	"\201^\311\377FI=k#\325\011\\O\236{\220[C\270\333\335"
 136      46493D6B 
 136      23D5095C 
 136      4F9E7B90 
 136      5B43B8DB 
 137 0182 5D97A77F 		.ascii	"]\227\247\177\345V\342\012\344\325\262\015\3401\300"
 137      E556E20A 
 137      E4D5B20D 
 137      E031C0
 138 0191 0AFE1E96 		.ascii	"\012\376\036\226\355\267xF5\204\321\350\272\226\334"
 138      EDB77846 
 138      3584D1E8 
 138      BA96DC
 139 01a0 DA49B1CE 		.ascii	"\332I\261\316\316{4Lbq\214\270\\\253pi\003O\344r\270"
 139      CE7B344C 
 139      62718CB8 
 139      5CAB7069 
 139      034FE472 
 140 01b5 E958BDE8 		.ascii	"\351X\275\350\316a\255\335zqu\030\306\325\332-\256\350"
 140      CE61ADDD 
 140      7A717518 
 140      C6D5DA2D 
 140      AEE8
 141 01c7 469B0A30 		.ascii	"F\233\0120P\325tm\254\376\215y6Y\316\024\371w\371^\010"
 141      50D5746D 
 141      ACFE8D79 
 141      3659CE14 
 141      F977F95E 
 142 01dc E68F3CC2 		.ascii	"\346\217<\302]\305?\2500\227\022\005\263\261\016\335"
 142      5DC53FA8 
 142      30971205 
 142      B3B10EDD 
 143 01ec 496E22D6 		.ascii	"In\"\326\213\036i\311\225\355$\237c\340\230\343^\256"
 143      8B1E69C9 
 143      95ED249F 
 143      63E098E3 
 143      5EAE
 144 01fe 11B11B3D 		.ascii	"\021\261\033=1m\331\235r\343n^\217{T\200\247\252\226"
 144      316DD99D 
 144      72E36E5E 
 144      8F7B5480 
 144      A7AA96
 145 0211 05B56A17 		.ascii	"\005\265j\027X\244\224\327c\220-%\362\033\221\276E~"
 145      58A494D7 
 145      63902D25 
 145      F21B91BE 
 145      457E
ARM GAS  /tmp/ccibCdJE.s 			page 10


 146 0223 9396C9A6 		.ascii	"\223\226\311\246i\300\344&SLnl\331\317\313sr\031\036"
 146      69C0E426 
 146      534C6E6C 
 146      D9CFCB73 
 146      72191E
 147 0236 2D186A2B 		.ascii	"-\030j+k(\221\037\234C\271\026\307\031\336\330\214\324"
 147      6B28911F 
 147      9C43B916 
 147      C719DED8 
 147      8CD4
 148 0248 C2A90E18 		.ascii	"\302\251\016\030\346\0259\364J+I\006\216\221A\336 \313"
 148      E61539F4 
 148      4A2B4906 
 148      8E9141DE 
 148      20CB
 149 025a 594E0229 		.ascii	"YN\002)p/[\305r\031c\315\344M\200e\232dl\236e0\035\316"
 149      702F5BC5 
 149      721963CD 
 149      E44D8065 
 149      9A646C9E 
 150 0272 D2B5D35E 		.ascii	"\322\265\323^\035;)\351,\356\325\004\244\276\301\224"
 150      1D3B29E9 
 150      2CEED504 
 150      A4BEC194 
 151 0282 16D5397D 		.ascii	"\026\3259}\357.\276\032U&\362\255|\026\272{\017\317"
 151      EF2EBE1A 
 151      5526F2AD 
 151      7C16BA7B 
 151      0FCF
 152 0294 362AF350 		.ascii	"6*\363P\333j\266?\006\215\263\015\200\252\005\026H\344"
 152      DB6AB63F 
 152      068DB30D 
 152      80AA0516 
 152      48E4
 153 02a6 33E2BA8C 		.ascii	"3\342\272\214\377V\013`4\370[I\340N\221\215Z&\213\353"
 153      FF560B60 
 153      34F85B49 
 153      E04E918D 
 153      5A268BEB 
 154 02ba 45174584 		.ascii	"E\027E\204\330J\271\367\242\204\010]#9\326\306\273\377"
 154      D84AB9F7 
 154      A284085D 
 154      2339D6C6 
 154      BBFF
 155 02cc 0622B483 		.ascii	"\006\"\264\203\010\263\004]]\230\000\332V\3230\010\200"
 155      08B3045D 
 155      5D9800DA 
 155      56D33008 
 155      80
 156 02dd 0E03D0FC 		.ascii	"\016\003\320\374.\272\3405\272\340Y\341\370\254D\242"
 156      2EBAE035 
 156      BAE059E1 
 156      F8AC44A2 
 157 02ed 93ED5352 		.ascii	"\223\355SR\2265\362\227C\211\346I{M+a\305T\013\337C"
 157      9635F297 
 157      4389E649 
 157      7B4D2B61 
ARM GAS  /tmp/ccibCdJE.s 			page 11


 157      C5540BDF 
 158 0302 B7F06582 		.ascii	"\267\360e\202\011\347\357A\343)\007q\376X\375\331\032"
 158      09E7EF41 
 158      E3290771 
 158      FE58FDD9 
 158      1A
 159 0313 1BEEED6C 		.ascii	"\033\356\355l\3516\200\3775n\000q\261\222\372C\324\320"
 159      E93680FF 
 159      356E0071 
 159      B192FA43 
 159      D4D0
 160 0325 8C22DFC1 		.ascii	"\214\"\337\301\337\237\276\252O\376rU\037\243U\275\302"
 160      DF9FBEAA 
 160      4FFE7255 
 160      1FA355BD 
 160      C2
 161 0336 B2AA5DB4 		.ascii	"\262\252]\264\252\331\240\265\326\014XoC\273\375\262"
 161      AAD9A0B5 
 161      D60C586F 
 161      43BBFDB2 
 162 0346 A0F5B5B1 		.ascii	"\240\365\265\261\315t\373\324'\251\240\363$\035Q\225"
 162      CD74FBD4 
 162      27A9A0F3 
 162      241D5195 
 163 0356 86B673EE 		.ascii	"\206\266s\356`\3341~\007\343\201\357\004\335\001\201"
 163      60DC317E 
 163      07E381EF 
 163      04DD0181 
 164 0366 310866E0 		.ascii	"1\010f\340\234\266\257\275\"\271Hn\352\236\366\332J"
 164      9CB6AFBD 
 164      22B9486E 
 164      EA9EF6DA 
 164      4A
 165 0377 E869D5D8 		.ascii	"\350i\325\330y\035\352?\227n\247\027\275.\265\366U\261"
 165      791DEA3F 
 165      976EA717 
 165      BD2EB5F6 
 165      55B1
 166 0389 26DBAC62 		.ascii	"&\333\254b\271\364\030\345\272H)\362?\202k\377\037\177"
 166      B9F418E5 
 166      BA4829F2 
 166      3F826BFF 
 166      1F7F
 167 039b 2FA21710 		.ascii	"/\242\027\020M\351\213g\031w6\345\276_\321\356;\303"
 167      4DE98B67 
 167      197736E5 
 167      BE5FD1EE 
 167      3BC3
 168 03ad 66D5E3B4 		.ascii	"f\325\343\264\262\250\206\020\371-\300\366\016\240\037"
 168      B2A88610 
 168      F92DC0F6 
 168      0EA01F
 169 03bc 00DD05F4 		.ascii	"\000\335\005\364C\240G\201~\001\364K3\2425\321|\316"
 169      43A04781 
 169      7E01F44B 
 169      33A235D1 
 169      7CCE
ARM GAS  /tmp/ccibCdJE.s 			page 12


 170 03ce 033ED7A5 		.ascii	"\003>\327\245k\277X\375\216\331\266\205rt\222-\203\233"
 170      6BBF58FD 
 170      8ED9B685 
 170      7274922D 
 170      839B
 171 03e0 4AE60ED5 		.ascii	"J\346\016\325\251:\212\235s\037\305\376{\231\317@\365"
 171      A93A8A9D 
 171      731FC5FE 
 171      7B99CF40 
 171      F5
 172 03f1 2FB2B1FE 		.ascii	"/\262\261\376k\002\006\313p\015\335\314xp\363D\027\311"
 172      6B0206CB 
 172      700DDDCC 
 172      7870F344 
 172      17C9
 173 0403 4DE2C1D0 		.ascii	"M\342\301\320\350\004\356MT%\206\263g%\362\336K\344"
 173      E804EE4D 
 173      542586B3 
 173      6725F2DE 
 173      4BE4
 174 0415 F154D1CD 		.ascii	"\361T\321\315\211l\201\312\336\235\310\266Q\331\035"
 174      896C81CA 
 174      DE9DC8B6 
 174      51D91D
 175 0424 896C3B95 		.ascii	"\211l;\225}&\221\355\240\262\317%\262\235T\366\265D"
 175      7D2691ED 
 175      A0B2CF25 
 175      B29D54F6 
 175      B544
 176 0436 7606953D 		.ascii	"v\006\225=\305\036\317\316\244\354\221\264\323L(I\344"
 176      C51ECFCE 
 176      A4EC91B4 
 176      D34C2849 
 176      E4
 177 0447 AF4303B8 		.ascii	"\257C\003\270\301\333to\023\270:\273\306\017\030\225"
 177      C1DB746F 
 177      13B83ABB 
 177      C60F1895 
 178 0457 A71A70CA 		.ascii	"\247\032p\312\340\007\223p\317\326\223\253U\006\374"
 178      E0079370 
 178      CFD693AB 
 178      5506FC
 179 0466 A459AB83 		.ascii	"\244Y\253\203~\236\215\331\"?[\350\011)\350\232d%\006"
 179      7E9E8DD9 
 179      223F5BE8 
 179      0929E89A 
 179      642506
 180 0479 420923C7 		.ascii	"B\011#\307\255\025\262\342\014\344f%\022j\323\024\270"
 180      AD15B2E2 
 180      0CE46625 
 180      126AD314 
 180      B8
 181 048a 855A29D8 		.ascii	"\205Z)\330jS\015u\261\347A\257\201y\023\270zSh\251\272"
 181      6A530D75 
 181      B1E741AF 
 181      817913B8 
 181      7A5368A9 
ARM GAS  /tmp/ccibCdJE.s 			page 13


 182 049f 0D35BA2D 		.ascii	"\0155\272-\323\242\351\265\264\007\014\301\242W\246"
 182      D3A2E9B5 
 182      B4070CC1 
 182      A257A6
 183 04ae 2D353B0F 		.ascii	"-5;\017{Q\205\313\215\267\272\350\265}\274Kg2\306\024"
 183      7B5185CB 
 183      8DB7BAE8 
 183      B57DBC4B 
 183      6732C614 
 184 04c2 15F9D785 		.ascii	"\025\371\327\205\373\365\246lL)\\\256^\320\364 \037"
 184      FBF5A66C 
 184      4C295CAE 
 184      5ED0F420 
 184      1F
 185 04d3 EC83D91A 		.ascii	"\354\203\331\032\316O\335\207|6\325X\024f\246\030\237"
 185      CE4FDD87 
 185      7C36D558 
 185      1466A618 
 185      9F
 186 04e4 CAF68D0B 		.ascii	"\312\366\215\013\022[w\346\374\237`\234\271L\300\035"
 186      125B77E6 
 186      FC9F609C 
 186      B94CC01D 
 187 04f4 E0397BCA 		.ascii	"\3409{\312\0311\013\203:k\001O8\227kE\270T\017\",7%"
 187      19310B83 
 187      3A6B014F 
 187      38976B45 
 187      B8540F22 
 188 050b C2CDE30D 		.ascii	"\302\315\343\015\377(\307\242\274\371\260w\352\233\350"
 188      FF28C7A2 
 188      BCF9B077 
 188      EA9BE8
 189 051a 5D9361D6 		.ascii	"]\223a\326\261R\300\221o\255#\255\310\267Z\320D\276"
 189      B152C091 
 189      6FAD23AD 
 189      C8B75AD0 
 189      44BE
 190 052c 8D53BB63 		.ascii	"\215S\273c\266q~\352\330\267\321\3215\366E\035\272\261"
 190      B6717EEA 
 190      D8B7D1D1 
 190      35F6451D 
 190      BAB1
 191 053e 6FBF4337 		.ascii	"o\277C7\366\035v\350\306\276\223\0166\366q&\342SB\024"
 191      F61D76E8 
 191      C6BE930E 
 191      36F67126 
 191      E2534214 
 192 0552 915F23E0 		.ascii	"\221_#\340\370\264V\320\217O\"?+n3\263\361\211\261W"
 192      F8B456D0 
 192      8F4F223F 
 192      2B6E33B3 
 192      F189B157 
 193 0566 6CFD99F6 		.ascii	"l\375\231\366\252\235\250=\276\346L\263\375\034?n\246"
 193      AA9DA83D 
 193      BEE64CB3 
 193      FD1C3F6E 
 193      A6
ARM GAS  /tmp/ccibCdJE.s 			page 14


 194 0577 FD6C36D9 		.ascii	"\375l6\331~\232\265\316\267\36088_\263)\347[v\274\241"
 194      7E9AB5CE 
 194      B7F03838 
 194      5FB329E7 
 194      5B76BCA1 
 195 058b 6BFB31BF 		.ascii	"k\3731\277x\266C\320\014H\033\004\023\313\035\212\036"
 195      78B643D0 
 195      0C481B04 
 195      13CB1D8A 
 195      1E
 196 059c 6E2EBE03 		.ascii	"n.\276\0033\272]\300\343\352\3575>\3140D*2bb\027\324"
 196      33BA5DC0 
 196      E3EAEF35 
 196      3ECC3044 
 196      2A326262 
 197 05b2 A9276797 		.ascii	"\251'g\227\377P\247\010\3654\013\351\2162\233\365\024"
 197      FF50A708 
 197      F5340BE9 
 197      8E329BF5 
 197      14
 198 05c3 A663A758 		.ascii	"\246c\247X|i\352\241\270\304\261\272\213\261<\322p\367"
 198      7C69EAA1 
 198      B8C4B1BA 
 198      8BB13CD2 
 198      70F7
 199 05d5 42C4D9E7 		.ascii	"B\304\331\347L\031qX\034\230\007i\015\336\324\006\006"
 199      4C197158 
 199      1C980769 
 199      0DDED406 
 199      06
 200 05e6 6F4D6DF0 		.ascii	"oMm\360W&G7\267-\001\376\241\257\234\234teB\344\367"
 200      57264737 
 200      B72D01FE 
 200      A1AF9C9C 
 200      746542E4 
 201 05fb 43579F7A 		.ascii	"CW\237z\351\000\265e\220\2445=\265\"\266\266\264\345"
 201      E900B565 
 201      90A4353D 
 201      B522B6B6 
 201      B4E5
 202 060d D68A22DF 		.ascii	"\326\212\"\337&\340\020q\3142\230\213\001\333J\203\305"
 202      26E01071 
 202      CC32988B 
 202      01DB4A83 
 202      C5
 203 061e CC8019F5 		.ascii	"\314\200\031\365\343\010l;\015\366\255e0\226\263\235"
 203      E3086C3B 
 203      0DF6AD65 
 203      3096B39D 
 204 062e 34D88F66 		.ascii	"4\330\217f\300\214\226\000\020X;\015v\3212\030\315\331"
 204      C08C9600 
 204      10583B0D 
 204      76D13218 
 204      CDD9
 205 0640 A4E8A9B6 		.ascii	"\244\350\251\266\003x2v;7G\226'\311\215N#\247\3408("
 205      03783276 
 205      3B374796 
ARM GAS  /tmp/ccibCdJE.s 			page 15


 205      27C98D4E 
 205      23A7E038 
 206 0655 22272D82 		.ascii	"\"'-\202&\340\302\355\254\223\036\236\321\015;)\316"
 206      26E0C2ED 
 206      AC931E9E 
 206      D10D3B29 
 206      CE
 207 0666 4F1D958E 		.ascii	"O\035\225\216(N\252\016x.\203p\370\336t\032\255\034"
 207      284EAA0E 
 207      782E8370 
 207      F8DE741A 
 207      AD1C
 208 0678 3DD19623 		.ascii	"=\321\226#O\317\215OhW'a\374\244\266u}\326&\270Hvj\276"
 208      4FCF8D4F 
 208      68572761 
 208      FCA4B675 
 208      7DD626B8 
 209 0690 8FB52DE9 		.ascii	"\217\265-\351-7\356\342\2255\022y\252\374\000UW\017"
 209      2D37EEE2 
 209      95351279 
 209      AAFC0055 
 209      570F
 210 06a2 B52E1C2B 		.ascii	"\265.\034+\343kf\233\037\202!\310i\260\342UM@0\017\264"
 210      E36B669B 
 210      1F8221C8 
 210      69B0E255 
 210      4D40300F 
 211 06b7 AD661559 		.ascii	"\255f\025Y?\374\022\200&eh\327\314l\23253\033\333\252"
 211      3FFC1280 
 211      266568D7 
 211      CC6C9A35 
 211      331BDBAA 
 212 06cb 6D598944 		.ascii	"mY\211Dg\247\215\263VX\340fB\205'\023\376\3070\231\272"
 212      67A78DB3 
 212      5658E066 
 212      42852713 
 212      FEC73099 
 213 06e0 57ADBDF8 		.ascii	"W\255\275\370m\237Er\264\332\246\252\242\3262`\017\215"
 213      6D9F4572 
 213      B4DAA6AA 
 213      A2D63260 
 213      0F8D
 214 06f2 51046E41 		.ascii	"Q\004nAF\232~C\211\256N\235\217\013xZ|B\270\227\256"
 214      469A7E43 
 214      89AE4E9D 
 214      8F0B785A 
 214      7C42B897 
 215 0707 60518689 		.ascii	"`Q\206\211Vg4\254GM\370<\335\204\227Z\006s1`\027i\260"
 215      566734AC 
 215      474DF83C 
 215      DD84975A 
 215      06733160 
 216 071e E566C05C 		.ascii	"\345f\300\\\306\234\375\215\006[e\031\214\345\3542\015"
 216      C69CFD8D 
 216      065B6519 
 216      8CE5EC32 
 216      0D
ARM GAS  /tmp/ccibCdJE.s 			page 16


 217 072f F68E1930 		.ascii	"\366\216\0310\275\331\213\336Aw\207\250\277\202\241"
 217      BDD98BDE 
 217      417787A8 
 217      BF82A1
 218 073e DF01B0D4 		.ascii	"\337\001\260\324_\201\036\002\332\001\3640\320#@?\003"
 218      5F811E02 
 218      DA01F430 
 218      D023403F 
 218      03
 219 074f FA03D01F 		.ascii	"\372\003\320\037\201\236\007z\221\266o\222\261\313\225"
 219      819E077A 
 219      91B66F92 
 219      B1CB95
 220 075e 3977E370 		.ascii	"9w\343p\266\007\306.\3532\222\216]\366\032\210\212\271"
 220      B607C62E 
 220      EB32928E 
 220      5DF61A88 
 220      8AB9
 221 0770 BF9C64EC 		.ascii	"\277\234d\354rY;v\331\226au\354B\231\001F\256\321\312"
 221      72593B76 
 221      D9966175 
 221      EC429901 
 221      46AED1CA 
 222 0784 1DEB6479 		.ascii	"\035\353dy\212Smd\273\265\210z\215\314\370yN\364h}n"
 222      8A536D64 
 222      BBB5887A 
 222      8DCCF879 
 222      4EF4687D 
 223 0799 FB8B2A58 		.ascii	"\373\213*X\253e0m\213U\355\270\025\354\270\015,\362"
 223      AB65306D 
 223      8B55EDB8 
 223      15ECB80D 
 223      2CF2
 224 07ab 21D0AB40 		.ascii	"!\320\253@\257\263\255\357\243.A\216\014z)\274\304\350"
 224      AFB3ADEF 
 224      A32E418E 
 224      0C7A29BC 
 224      C4E8
 225 07bd 984B8D68 		.ascii	"\230K\215hd\244\215\002\265\314\365)T\272<]#D\033"
 225      64A48D02 
 225      B5CCF529 
 225      54BA3C5D 
 225      23441B
 226 07d0 4EA2B690 		.ascii	"N\242\266\220\362\371\255]E*\210\373\\\354\306\255h"
 226      F2F9AD5D 
 226      452A88FB 
 226      5CECC6AD 
 226      68
 227 07e1 EFADB2DC 		.ascii	"\357\255\262\334C\344e\033\036=.\310L\375\004\227\301"
 227      43E4651B 
 227      1E3D2EC8 
 227      4CFD0497 
 227      C1
 228 07f2 11B86570 		.ascii	"\021\270ep\313d\033\333\307\305\232\336<\375O\213\000"
 228      CB641BDB 
 228      C7C59ADE 
 228      3CFD4F8B 
ARM GAS  /tmp/ccibCdJE.s 			page 17


 228      00
 229 0803 19FF95BA 		.ascii	"\031\377\225\272\237\273\2417\353&l\031\351p\232M\343"
 229      9FBBA137 
 229      EB266C19 
 229      E9709A4D 
 229      E3
 230 0814 CC27E3AC 		.ascii	"\314'\343\254\2447\020\277\265\017b\012\306\025\270"
 230      A43710BF 
 230      B50F620A 
 230      C615B8
 231 0823 AF2C83B1 		.ascii	"\257,\203\261F\231\333B\215\212M=\257k^u\366\316\035"
 231      4699DB42 
 231      8D8A4D3D 
 231      AF6B5E75 
 231      F6CE1D
 232 0836 A0B29936 		.ascii	"\240\262\2316\354\340\033\263\264\276\330\252}Jef\034"
 232      ECE01BB3 
 232      B4BED8AA 
 232      7D4A6566 
 232      1C
 233 0847 BD23CB84 		.ascii	"\275#\313\204 \306\253N\310\222\035w7\303\344T\035\355"
 233      20C6AB4E 
 233      C8921D77 
 233      37C3E454 
 233      1DED
 234 0859 180ED304 		.ascii	"\030\016\323\004n\017TV\247\365\206\346\367:\036&\336"
 234      6E0F5456 
 234      A7F586E6 
 234      F73A1E26 
 234      DE
 235 086a 5067CA1B 		.ascii	"Pg\312\0336\267-45%jt\252\325\373\240\372\251\331\270"
 235      36B72D34 
 235      35256A74 
 235      AAD5FBA0 
 235      FAA9D9B8 
 236 087e FA05DAEA 		.ascii	"\372\005\332\352\217l8\373\004\251~\201\251\352O\035"
 236      8F6C38FB 
 236      04A97E81 
 236      A9EA4F1D 
 237 088e 9AA7E78C 		.ascii	"\232\247\347\214\006\263V\325|\357]x`\031T\262\030\034"
 237      06B356D5 
 237      7CEF5D78 
 237      601954B2 
 237      181C
 238 08a0 A83D5B6B 		.ascii	"\250=[k\276\301\364\252=\247<\307\247\374\367X\234\373"
 238      BEC1F4AA 
 238      3DA73CC7 
 238      A7FCF758 
 238      9CFB
 239 08b2 B4FC1789 		.ascii	"\264\374\027\211\271k\360\032\260\224\312\303\011\313"
 239      B96BF01A 
 239      B094CAC3 
 239      09CB
 240 08c0 88AC135F 		.ascii	"\210\254\023_<\004-\202\200\2356\003\226$\262\377\215"
 240      3C042D82 
 240      809D3603 
 240      9624B2FF 
ARM GAS  /tmp/ccibCdJE.s 			page 18


 240      8D
 241 08d1 06FBCA32 		.ascii	"\006\373\3122\030\313\331e\032\354\254\0310\343'\237"
 241      18CBD965 
 241      1AECAC19 
 241      30E3279F 
 242 08e1 D1AB34D8 		.ascii	"\321\2534\3309\313`,g\327i\260\013f\300\214\027i\243"
 242      39CB602C 
 242      67D769B0 
 242      0B66C08C 
 242      1769A3
 243 08f4 3FD36097 		.ascii	"?\323`\227,\203\261\234\335\242\301\256\231\001s\031"
 243      2C83B19C 
 243      DDA2C1AE 
 243      99017319 
 244 0904 7356FB31 		.ascii	"sV\3731\005v\3232\030\313\331\034\032lR\216\011\260"
 244      0576D332 
 244      18CBD91C 
 244      1A6C528E 
 244      09B0
 245 0916 246BD1F3 		.ascii	"$k\321\363h\260)\226\301X\316\026\320`\257\231\001\353"
 245      68B02996 
 245      C158CE16 
 245      D060AF99 
 245      01EB
 246 0928 6BCCD922 		.ascii	"k\314\331\"\032l\226e0\226\263\3054X\235\031\260A\306"
 246      1A6C9665 
 246      3096B3C5 
 246      34589D19 
 246      B041C6
 247 093b 9C2DA1C1 		.ascii	"\234-\241\301\346[\006c9[G\203\275n\006\354Ic\3166\320"
 247      E65B0663 
 247      395B4783 
 247      BD6E06EC 
 247      4963CE36 
 248 0950 604B2C83 		.ascii	"`K,\203\261\234\275O\203-3\0036\314\230\263M4\330r\313"
 248      B19CBD4F 
 248      832D3303 
 248      36CC98B3 
 248      4D34D872 
 249 0965 602C675B 		.ascii	"`,g[h\260\225f\300\212\2159\333J\203\255\266\014\306"
 249      68B09566 
 249      C08A8D39 
 249      DB4A83AD 
 249      B60CC6
 250 0978 72B69D06 		.ascii	"r\266\235\006{\333\014\330\363\306\234\355\244\301\376"
 250      7BDB0CD8 
 250      F3C69CED 
 250      A4C1FE
 251 0987 62198CE5 		.ascii	"b\031\214\345\254\235\006k2\003\366\242\016g\361\303"
 251      AC9D066B 
 251      3203F6A2 
 251      0E67F1C3 
 252 0997 689C39DF 		.ascii	"h\2349\337F\215\3257\345\250\003\034\213}4\227\300\330"
 252      468DD537 
 252      E5A8031C 
 252      8B7D3497 
 252      C0D8
ARM GAS  /tmp/ccibCdJE.s 			page 19


 253 09a9 9A637544 		.ascii	"\232cuD\306\310\215\307\326woU\372y2X\215\232AL\322"
 253      C6C88DC7 
 253      D6776F55 
 253      FA793258 
 253      8D9A414C 
 254 09be 012E6EA1 		.ascii	"\001.n\241F\276\255\226\3014\256\334\242\235\216\230"
 254      46BEAD96 
 254      C134AEDC 
 254      A29D8E98 
 255 09ce D8E093D8 		.ascii	"\330\340\223\330\272Km\352\352\255_\026\315\265mx6w"
 255      BA4B6DEA 
 255      EAAD5F16 
 255      CDB56D78 
 255      3677
 256 09e0 54B38674 		.ascii	"T\263\206t4\276\210\204S\344\321q{\016\373`'~\230\271"
 256      34BE8884 
 256      53E4D171 
 256      7B0EFB60 
 256      277E98B9 
 257 09f4 DDC8238E 		.ascii	"\335\310#\216\320\036q\304\214\272\222t\361\247Z\226"
 257      D01E71C4 
 257      8CBA9274 
 257      F1A75A96 
 258 0a04 C0C33AF3 		.ascii	"\300\303:\363\233\331\232Wu(\023\205\317a\242\360y\216"
 258      9BD99A57 
 258      75281385 
 258      CF61A2F0 
 258      798E
 259 0a16 76A4D96E 		.ascii	"v\244\331nq;\033\032\217i\245\320{\204e<\266@>y\354"
 259      713B1B1A 
 259      8F69A5D0 
 259      7B84653C 
 259      B6403E79 
 260 0a2b 9EE6F764 		.ascii	"\236\346\367dy\262\323\212\034\373\0259N\203\034\347"
 260      79B2D38A 
 260      1CFB1539 
 260      4E831CE7 
 261 0a3b 7E05392E 		.ascii	"~\0059.Y\226\343\001\215\034\273\036\260.\3071E\216"
 261      5996E301 
 261      8D1CBB1E 
 261      B02EC731 
 261      458E
 262 0a4d AF418E9B 		.ascii	"\257A\216\233\277\202\034Sr\255\312\321\227\222\003"
 262      BF821C53 
 262      72ADCAD1 
 262      979203
 263 0a5c 666D7DC8 		.ascii	"fm}\310\254\315\324\342\372\3676\315\342\372\261\003"
 263      ACCDD4E2 
 263      FAF736CD 
 263      E2FAB103 
 264 0a6c BC8B64A7 		.ascii	"\274\213d\247\232.\311\321+\007\250\251\256ln\252{A"
 264      9A2EC9D1 
 264      2B07A8A9 
 264      AE6C6EAA 
 264      7B41
 265 0a7e D1D88FA0 		.ascii	"\321\330\217\240\261\231\271:\213\324\246\220:\017\354"
 265      B199B93A 
ARM GAS  /tmp/ccibCdJE.s 			page 20


 265      8BD4A690 
 265      3A0FEC
 266 0a8d 59AFEC97 		.ascii	"Y\257\354\227\275\000Ps\322\206\332vp3\331#\3727\000"
 266      BD005073 
 266      D286DA76 
 266      7033D923 
 266      FA3700
 267 0aa0 5A9CABB5 		.ascii	"Z\234\253\265\242ScD'kD\364\023\327t\025\317\274\371"
 267      A2536344 
 267      276B44F4 
 267      13D77415 
 267      CFBCF9
 268 0ab3 97951CFC 		.ascii	"\227\225\034\374#\203\373\273\337'p+\200}l@\213\035"
 268      2383FBBB 
 268      DF27702B 
 268      807D6C40 
 268      8B1D
 269 0ac5 55C2811E 		.ascii	"U\302\201\036jV:\031b\244\267\177\021bu\264i\306R\345"
 269      6A563A19 
 269      62A4B77F 
 269      116275B4 
 269      69C652E5 
 270 0ad9 11CC60DC 		.ascii	"\021\314`\334\315\274\377\013\341:\332\254/\260\354"
 270      CDBCFF0B 
 270      E13ADAAC 
 270      2FB0EC
 271 0ae8 BA8B78DD 		.ascii	"\272\213x\335M\020h[\027\013\247\265\300\322\222\256"
 271      4D10685B 
 271      170BA7B5 
 271      C0D292AE 
 272 0af8 20F143E0 		.ascii	" \361C\340\016j\233\273\245\331\030\266\326\265>&\027"
 272      0E6A9BBB 
 272      A5D918B6 
 272      D6B53E26 
 272      17
 273 0b09 69E24B7F 		.ascii	"i\342K\177\337\366n%\013tv\274\364\367\261F\031&\026"
 273      DFF66E25 
 273      0B7476BC 
 273      F4F7B146 
 273      192616
 274 0b1c 7B4EC32D 		.ascii	"{N\303-S\355]\226\376:\356$\253-\370/\023\213=SU\277"
 274      53ED5D96 
 274      FE3AEE24 
 274      AB2DF82F 
 274      138B3D53 
 275 0b32 202B7AAF 		.ascii	" +z\257\332\004\0056]}2&L\360\207\240\355x\334\360\232"
 275      DA040536 
 275      5D7D3226 
 275      4CF087A0 
 275      ED78DCF0 
 276 0b47 9D59F3BD 		.ascii	"\235Y\363\275`Y\367.Z\367\321\033mKx\314\277\316\372"
 276      6059F72E 
 276      5AF7D11B 
 276      6D4B78CC 
 276      BFCEFA
 277 0b5a D493F468 		.ascii	"\324\223\364h.\256\370\330\235\373\3112\037(\376\206"
 277      2EAEF8D8 
ARM GAS  /tmp/ccibCdJE.s 			page 21


 277      9DFBC932 
 277      1F28FE86 
 278 0b6a 81E20D37 		.ascii	"\201\342\0157\311\012\334\214\333\360-\263\273*~\377"
 278      C90ADC8C 
 278      DBF02DB3 
 278      BB2A7EFF 
 279 0b7a 5D44F1B3 		.ascii	"]D\361\263M)\376\210\256\342g[W\274\202\367ib\375T\344"
 279      4D29FE88 
 279      AEE2675B 
 279      57BC82F7 
 279      6962FD54 
 280 0b8f A75B0673 		.ascii	"\247[\006s%\263\342l\312\212u`\3059v\274\332>\227\265"
 280      25B3E26C 
 280      CA8A7560 
 280      C53976BC 
 280      DA3E97B5 
 281 0ba3 E592DB34 		.ascii	"\345\222\3334\266d4\247$\015\327\016\344\350\334\203"
 281      B66434A7 
 281      240DD70E 
 281      E4E8DC83 
 282 0bb3 EA636212 		.ascii	"\352cb\022\363Vi\361\364\244H2\343o8\010*!\361\346]"
 282      F35669F1 
 282      F4A44832 
 282      E36F3808 
 282      2A21F1E6 
 283 0bc8 CB602E06 		.ascii	"\313`.\006lG\215\311\235i\314N@\201\333\002\365\326"
 283      6C478DC9 
 283      9D69CC4E 
 283      4081DB02 
 283      F5D6
 284 0bda 6BDDE5E6 		.ascii	"k\335\345\346\367\035\323\370I\320u\326\233\360\027"
 284      F71DD3F8 
 284      49D075D6 
 284      9BF017
 285 0be9 D4CF7F95 		.ascii	"\324\317\177\225\005\233\253\211\337^\214\243&Qu\022"
 285      059BAB89 
 285      DF5E8CA3 
 285      26517512 
 286 0bf9 6FB97156 		.ascii	"o\271qV\331\253Mf\035\327\265p)'E,\334-\251\265\257"
 286      D9AB4D66 
 286      1DD7B570 
 286      2927452C 
 286      DC2DA9B5 
 287 0c0e 35C5A87B 		.ascii	"5\305\250{\247\232\361Hg\005\310T\335M\333#\020\315"
 287      A79AF148 
 287      6705C854 
 287      DD4DDB23 
 287      10CD
 288 0c20 508E584F 		.ascii	"P\216XO9\342Rp\304\006p\304F\240\313iw4\032l\275i\247"
 288      39E25270 
 288      C40670C4 
 288      46A0CB69 
 288      77341A6C 
 289 0c37 A60FD3BB 		.ascii	"\246\017\323\273Y\225\333\245\261\216Q5\213\351j\352"
 289      5995DBA5 
 289      B18E5135 
 289      8BE96AEA 
ARM GAS  /tmp/ccibCdJE.s 			page 22


 290 0c47 BA99F03D 		.ascii	"\272\231\360=\343\005\"\034\324\037W\207\003\344\361"
 290      E305221C 
 290      D41F5787 
 290      03E4F1
 291 0c56 44BD6544 		.ascii	"D\275eD\326\233/\3240\303\201\267\314\300=\251\303\240"
 291      D69B2FD4 
 291      30C381B7 
 291      CCC03DA9 
 291      C3A0
 292 0c68 DE413F90 		.ascii	"\336A?\220\022\371)0[\234j\303\006z\015\350\014\240"
 292      12F92930 
 292      5B9C6AC3 
 292      067A0DE8 
 292      0CA0
 293 0c7a B540DB81 		.ascii	"\265@\333\201~\014\364\023\240\307\201\306\200~\005"
 293      7E0CF413 
 293      A0C781C6 
 293      807E05
 294 0c89 F43BA0D5 		.ascii	"\364;\240\325`\342\031@\347\003]\010\364u\240k\200\276"
 294      60E21940 
 294      E7035D08 
 294      F475A06B 
 294      80BE
 295 0c9b 9DCA0194 		.ascii	"\235\312\001\224^`\307O\307\356~\007bu'<\360\375\272"
 295      5E60C74F 
 295      C7EE7E07 
 295      6275273C 
 295      F0FDBA
 296 0cae 8BE74DB3 		.ascii	"\213\347M\263i\036\027ty\336u\255\233\211\347\206I\236"
 296      691E1774 
 296      79DE75AD 
 296      9B89E786 
 296      499E
 297 0cc0 ECAC3FF3 		.ascii	"\354\254?\363\355\304\035\325\304\246+\300\255\227\330"
 297      EDC41DD5 
 297      C4A62BC0 
 297      AD97D8
 298 0ccf 351B1953 		.ascii	"5\033\031SoQf\215z\242\301\370}L\346\301M|\017\332}"
 298      6F51668D 
 298      7AA2C1F8 
 298      7D4CE6C1 
 298      4D7C0FDA 
 299 0ce4 099DD45D 		.ascii	"\011\235\324]?\366?d/[\023\264\306\355\335S?\215dp\260"
 299      3FF63F64 
 299      2F5B13B4 
 299      C6EDDD53 
 299      3F8D6470 
 300 0cf9 963669C2 		.ascii	"\2266i\302\\\364\302I\362\252f\352\020\367\312\344\350"
 300      5CF4C249 
 300      F2AA66EA 
 300      10F7CAE4 
 300      E8
 301 0d0a A593F314 		.ascii	"\245\223\363\024\247$;\013Z\201\205M\351u\211x\233\302"
 301      A7243B0B 
 301      5A81854D 
 301      E9758978 
 301      9BC2
ARM GAS  /tmp/ccibCdJE.s 			page 23


 302 0d1c 496A9BC2 		.ascii	"Ij\233\302G\226\301\\\014\330U\032\254\335\014X\222"
 302      4796C15C 
 302      0CD8551A 
 302      ACDD0C58 
 302      92
 303 0d2d 4D68D769 		.ascii	"Mh\327i\260\303\226\301X\316~\246\301>5\003\226d\023"
 303      B0C396C1 
 303      58CE7EA6 
 303      C13E3503 
 303      966413
 304 0d40 DA2D1AEC 		.ascii	"\332-\032\354s\313`,g\265\247(\2603f\300\222\354\255"
 304      73CB602C 
 304      67B5A728 
 304      B03366C0 
 304      92ECAD
 305 0d53 9943837D 		.ascii	"\231C\203}g\031\214\345l\036\015v\321\014\230K\2073"
 305      67198CE5 
 305      6C1E0D76 
 305      D10C984B 
 305      8733
 306 0d65 BD836E04 		.ascii	"\275\203n\004\"\277\031:\251-\020\235\266\002\335\016"
 306      22BF193A 
 306      A92D109D 
 306      B602DD0E 
 307 0d75 7427D028 		.ascii	"t'\320(\320\335@\367\000\335\007\264\325LG\266\201\356"
 307      D0DD40F7 
 307      00DD07B4 
 307      D54C47B6 
 307      81EE
 308 0d87 61AE7637 		.ascii	"a\256v7\021\215\222\254 \255?\323\376\337\277d\023t"
 308      118D92AC 
 308      20AD3FD3 
 308      FEDFBF64 
 308      1374
 309 0d99 EC5AE7FE 		.ascii	"\354Z\347\376\337\343\360\221z#\364A\273\271\215\320"
 309      DFE3F091 
 309      7A23F441 
 309      BBB98DD0 
 310 0da9 EDDA5872 		.ascii	"\355\332Xr\351 \304\222vS\303\353+&\207kQ\236\326N<"
 310      E920C492 
 310      7653C3EB 
 310      2B26876B 
 310      519ED64E 
 311 0dbe 16EE7F82 		.ascii	"\026\356\177\202\304\302O \026~\330#e,dq`\231T\313\177"
 311      C4C24F20 
 311      167ED823 
 311      652C6471 
 311      609954CB 
 312 0dd3 D321E0FF 		.ascii	"\323!\340\3773S\261p\363!6\026~\012,|\226v,\334r\210"
 312      3353B170 
 312      F3213616 
 312      7E0A2C7C 
 312      96762CDC 
 313 0de9 DE906B19 		.ascii	"\336\220k\031\314\305\200m\245\301N\232\001K\266!\227"
 313      CCC5806D 
 313      A5C14E9A 
 313      014BB621 
ARM GAS  /tmp/ccibCdJE.s 			page 24


 313      97
 314 0dfa 06FBC232 		.ascii	"\006\373\3022\030\313\331N\032\354\0333`\3116\344\322"
 314      18CBD94E 
 314      1AEC1B33 
 314      60C936E4 
 314      D2
 315 0e0b 603F5806 		.ascii	"`?X\006s\351\231\227\353\342\035\"\177\024\202\3041"
 315      73E99997 
 315      EBE21D22 
 315      7F1482C4 
 315      31
 316 0e1c 68FAC781 		.ascii	"h\372\307\201\236\000z\012\350i\240g\314\204\204\303"
 316      9E007A0A 
 316      E869A067 
 316      CC8484C3 
 317 0e2c 7448380F 		.ascii	"tH8\017\014\267\247;\241D-\372\364\357\266v\015\011"
 317      0CB7A73B 
 317      A1442DFA 
 317      F4EFB676 
 317      0D09
 318 0e3e 441F461C 		.ascii	"D\037F\034|Csp\3052\007.\232\203\350\215\203dq^}\003"
 318      7C437370 
 318      C532072E 
 318      9A83E88D 
 318      8364715E 
 319 0e54 FD672D9E 		.ascii	"\375g-\236\336\262l\262Y\312\301\234u/\252`\223{Z\005"
 319      DEB26CB2 
 319      59CAC19C 
 319      752FAA60 
 319      937B5A05 
 320 0e68 CB64C06A 		.ascii	"\313d\300j\017Q`\263,\203\031m\225\353\000_\370\030"
 320      0F5160B3 
 320      2C83196D 
 320      95EB005F 
 320      F818
 321 0e7a 6CFE35D0 		.ascii	"l\3765\320\263@\277\007z\216\235p\317\353\331e\255["
 321      B340BF07 
 321      7A8E9D70 
 321      CFEBD965 
 321      AD5B
 322 0e8c 3B634A44 		.ascii	";cJDQ\316,\256\221m?\242m\273\252\247\211\016\307e\354"
 322      51CE2CAE 
 322      916D3FA2 
 322      6DBBAAA7 
 322      890EC765 
 323 0ea1 5DEBCF9C 		.ascii	"]\353\317\234W:\034\002\214&\350\226\021Yo\231\177\252"
 323      573A1C02 
 323      8C26E896 
 323      11596F99 
 323      7FAA
 324 0eb3 81D964DE 		.ascii	"\201\331d\336d\006/\311N\206%d\210@\300vX\006sq\206"
 324      64062FC9 
 324      4E862564 
 324      8840C076 
 324      58067371 
 325 0ec8 07FD8619 		.ascii	"\007\375\206\031\232\220\302\346\310\025\260}\361}\240"
 325      9A90C2E6 
ARM GAS  /tmp/ccibCdJE.s 			page 25


 325      C815B07D 
 325      F17DA0
 326 0ed7 B780AE03 		.ascii	"\267\200\256\003\313\254\007\332\006\364\002\320\237"
 326      CBAC07DA 
 326      06F402D0 
 326      9F
 327 0ee4 805E3263 		.ascii	"\200^2c\261\006z\243c\013\210P\237\356\2332\261\372"
 327      B1067AA3 
 327      630B8850 
 327      9FEE9B32 
 327      B1FA
 328 0ef6 1DB31E87 		.ascii	"\035\263\036\207/\024\220\015\224hDm\031\2205\330e\262"
 328      2F14900D 
 328      9468446D 
 328      199035D8 
 328      65B2
 329 0f08 6245C03E 		.ascii	"bE\300>6\003\246\327\266)\255\022}.\001}.%\233BAW\327"
 329      3603A6D7 
 329      B629AD12 
 329      7D2E017D 
 329      2E259B42 
 330 0f1f D95673B4 		.ascii	"\331Vs\264K\253\251\327n3\255g\266\231\032b\031\351"
 330      4BABA9D7 
 330      6E33AD67 
 330      B6991A62 
 330      19E9
 331 0f31 7D6142EF 		.ascii	"}aB\357\"\177\023\336O\263\362v'\253\246\316\0265\012"
 331      227F13DE 
 331      4FB3F276 
 331      27ABA6CE 
 331      16350A
 332 0f44 92AF2A7D 		.ascii	"\222\257*}\001\354\247x\037WoUL\357\240?\001\204\234"
 332      01ECA778 
 332      1F576F55 
 332      4CEFA03F 
 332      01849C
 333 0f57 0DDE0FDA 		.ascii	"\015\336\017\332\000/\214_\002Z\003\242\317\001:\017"
 333      002F8C5F 
 333      025A03A2 
 333      CF013A0F 
 334 0f67 E802A037 		.ascii	"\350\002\2407\315\250\341\035\236R\003\365\016\031\032"
 334      CDA8E11D 
 334      9E5203F5 
 334      0E191A
 335 0f76 716B4C70 		.ascii	"qkLp\037\367\246,\317\211\255\217\325\374\007r1;\271"
 335      1FF7A62C 
 335      CF89AD8F 
 335      D5FC0772 
 335      313BB9
 336 0f89 55E066F4 		.ascii	"U\340f\364\302\305\326\360\367\350V\021\257\000\276"
 336      C2C5D6F0 
 336      F7E85611 
 336      AF00BE
 337 0f98 DD542D9F 		.ascii	"\335T-\237\2332\245\007"
 337      9B32A507 
 338 0fa0 AF7E4F8A 		.ascii	"\257~O\212\271M\363\252$\374\335i\357\362-\247u\261"
 338      B94DF3AA 
ARM GAS  /tmp/ccibCdJE.s 			page 26


 338      24FCDD69 
 338      EFF22DA7 
 338      75B1
 339 0fb2 68BBFA2D 		.ascii	"h\273\372-'\362\211&\201\253\355\245\307\251\334,\015"
 339      27F28926 
 339      81ABEDA5 
 339      C7A9DC2C 
 339      0D
 340 0fc3 23D58BFC 		.ascii	"#\325\213\374$\007\266\357dGZLR\267\3511\371\212C\357"
 340      2407B6EF 
 340      64475A4C 
 340      52B7E931 
 340      F98A43EF 
 341 0fd7 8353570D 		.ascii	"\203SW\015>8\225\344\305\276W\035\232\027\3730\003\032"
 341      3E3895E4 
 341      C5BE571D 
 341      9A17FB30 
 341      031A
 342 0fe9 A3BCAD2F 		.ascii	"\243\274\255/\352\221?\366V]o\003\224\230f\300s\374"
 342      EA913FF6 
 342      565D6F03 
 342      949866C0 
 342      73FC
 343 0ffb B35ECAB7 		.ascii	"\263^\312\267\264"
 343      B4
 344 1000 66C920AA 		.ascii	"f\311 \252\3621-|\027\343x\323ue[v\240\006Eq\344\365"
 344      F2312D7C 
 344      17E378D3 
 344      75655B76 
 344      A0064571 
 345 1016 9D1FC82E 		.ascii	"\235\037\310.\216|\316K\3406jX\323\377^W\215\266\212"
 345      8E7CCE4B 
 345      E0366A58 
 345      D3FF5E57 
 345      8DB68A
 346 1029 D95DAB40 		.ascii	"\331]\253@6\356\230\336\306#\271~\306o\272\250\025|"
 346      36EE98DE 
 346      C623B97E 
 346      C66FBAA8 
 346      157C
 347 103b 60AA823A 		.ascii	"`\252\202:m\005s\272V\020\253\2155m\332}\215\257~sj"
 347      6D0573BA 
 347      5610AB8D 
 347      356DDA7D 
 347      8DAF7E73 
 348 1050 145BE9E5 		.ascii	"\024[\351\345{\324:jn\327\326A@\346\263 \377\302\275"
 348      7BD43A6A 
 348      6ED7D641 
 348      40E6B320 
 348      FFC2BD
 349 1063 21AF8BC6 		.ascii	"!\257\213\306\326\377\260_\300\257\315\313\230Q\236"
 349      D6FFB05F 
 349      C0AFCDCB 
 349      98519E
 350 1072 D79F8945 		.ascii	"\327\237\211E\263U\003\254\246\036\211\327]<?\330`."
 350      B35503AC 
 350      A61E89D7 
ARM GAS  /tmp/ccibCdJE.s 			page 27


 350      5D3C3FD8 
 350      602E
 351 1084 A6B941E4 		.ascii	"\246\271A\344\0279tgc\232r\260\242\351\320\314g~\"\363"
 351      17397467 
 351      639A72B0 
 351      A2E9D0CC 
 351      677E22F3 
 352 1098 319C9F7A 		.ascii	"1\234\237z\371\372\332A\303\3474\261\370\324\351\356"
 352      F9FADA41 
 352      C3E734B1 
 352      F8D4E9EE 
 353 10a8 B80CD18E 		.ascii	"\270\014\321\216\203xax\251\003O\277\226i\024\227\022"
 353      83786178 
 353      A9034FBF 
 353      96691497 
 353      12
 354 10b9 03B3D3A8 		.ascii	"\003\263\323\250ew.a\267\321\004\273\325\321\205\007"
 354      65772E61 
 354      B7D104BB 
 354      D5D18507 
 355 10c9 D937D636 		.ascii	"\3317\3266\000\013\370\336\264:\317\350\342\203\324"
 355      000BF8DE 
 355      B43ACFE8 
 355      E283D4
 356 10d8 60628B65 		.ascii	"`b\213e0\027\003\326@\203}`\006,\311\240x\003\015\326"
 356      301703D6 
 356      40837D60 
 356      062CC9A0 
 356      78030DD6 
 357 10ec 62198CE5 		.ascii	"b\031\214\345l\023\015\366W3`I\366Em\245\301:,\203\261"
 357      6C130DF6 
 357      57336049 
 357      F6456DA5 
 357      C13A2C83 
 358 1101 9CEDA4C1 		.ascii	"\234\355\244\301>5\003\246\267\024\245w\320\256\206"
 358      3E3503A6 
 358      B714A577 
 358      D0AE86
 359 1110 42A00377 		.ascii	"B\240\003w\241\313\035\270\223\\\001\364-\240\253\201"
 359      A1CB1DB8 
 359      935C01F4 
 359      2DA0AB81 
 360 1120 AE05FA0E 		.ascii	"\256\005\372\016\320\367\034\314\250\3448\360\2648\301"
 360      D0F71CCC 
 360      A8E438F0 
 360      B438C1
 361 112f 13EBD2A9 		.ascii	"\023\353\322\251\\L\216\326\216\302\002\222\026\363"
 361      5C4C8ED6 
 361      8EC20292 
 361      16F3
 362 113d 852930C3 		.ascii	"\205)0\303\365 9\272\210\002;k\012\314\360\361\205\034"
 362      F52039BA 
 362      88023B6B 
 362      0ACCF0F1 
 362      851C
 363 114f 5D47819D 		.ascii	"]G\201\2357\005f\270#R\216n\241\300\256\230\002\013"
 363      370566B8 
ARM GAS  /tmp/ccibCdJE.s 			page 28


 363      23528E6E 
 363      A1C0AE98 
 363      020B
 364 1161 1A73769E 		.ascii	"\032sv\236\002\273e\012\354U^\2075\312\027\210\027\324"
 364      02BB650A 
 364      EC555E87 
 364      35CA1788 
 364      17D4
 365 1173 83172C01 		.ascii	"\203\027,\001;\257\007\332\004t#\320\315@\233Y\373O"
 365      3BAF07DA 
 365      047423D0 
 365      CD409B59 
 365      FB4F
 366 1185 B9433B2A 		.ascii	"\271C;*%\201\225\302ND`\316*\372\3548\272q\200\337\216"
 366      258195C2 
 366      4E4460CE 
 366      2AFAEC38 
 366      BA7180DF 
 367 119a FAA17FE6 		.ascii	"\372\241\177\346\226\337\261T&-| \327$\277\032}\021"
 367      96DFB154 
 367      262D7C20 
 367      D724BF1A 
 367      7D11
 368 11ac 0D67A15E 		.ascii	"\015g\241^\\\037\311\012\022\225\0217\307(\031Y\\\343"
 368      5C1FC90A 
 368      12951137 
 368      C7281959 
 368      5CE3
 369 11be 6BF22782 		.ascii	"k\362'\202\342\363J\026\2478\277\362\363/W\360\226\015"
 369      E2F34A16 
 369      A738BFF2 
 369      F32F57F0 
 369      960D
 370 11d0 D21294AC 		.ascii	"\322\022\224\254)\313\2174:\225f\241d\235\202N\371\235"
 370      29CB8F34 
 370      3A9566A1 
 370      649D824E 
 370      F99D
 371 11e2 4486FC23 		.ascii	"D\206\374#\2574\0265#\372 \247\010n\314\216\314'\345"
 371      AF341635 
 371      23FA20A7 
 371      086ECC8E 
 371      CC27E5
 372 11f5 856C1F61 		.ascii	"\205l\037ax9\262\366\310Z\007\313K\247\226\027\216\345"
 372      7839B2F6 
 372      C85A07CB 
 372      4BA79617 
 372      8EE5
 373 1207 047E3725 		.ascii	"\004~7%\345\203K\203\215\351\351\260\261\361Wg#-ml\376"
 373      E5834B83 
 373      8DE9E9B0 
 373      B1F15767 
 373      232D6D6C 
 374 121c 75D9284C 		.ascii	"u\331(L\203\205\346_\227\005\3162\013]^\030\305\303"
 374      8385E65F 
 374      9705CE32 
 374      0B5D5E18 
ARM GAS  /tmp/ccibCdJE.s 			page 29


 374      C5C3
 375 122e 3FA381F9 		.ascii	"?\243\201\371^G|\216\244|\302!\331\313\341\"\377\005"
 375      5E477C8E 
 375      A47CC221 
 375      D9CBE122 
 375      FF05
 376 1240 CC6E53BD 		.ascii	"\314nS\275\277\015#\244I\246_\215\307\277b0\257\373"
 376      BF0D23A4 
 376      49A65F8D 
 376      C7BF6230 
 376      AFFB
 377 1252 967E7F92 		.ascii	"\226~\177\222sx\206\006\002\345\231c\002b\310\327\307"
 377      73788606 
 377      02E59963 
 377      0262C8D7 
 377      C7
 378 1263 CBE57A3C 		.ascii	"\313\345z<\222\030*\237\350\361W\372#\316\247G>\353"
 378      92182A9F 
 378      E8F157FA 
 378      23CEA747 
 378      3EEB
 379 1275 CAE71EC9 		.ascii	"\312\347\036\311+\013THy\336\200ob\236O\032\237\347"
 379      2B0B5448 
 379      79DE806F 
 379      629E4F1A 
 379      9FE7
 380 1287 2DF38FF1 		.ascii	"-\363\217\361\007\302y\221\320\270\312\227\362P\242"
 380      07C27991 
 380      D0B8CA97 
 380      F250A2
 381 1296 4C2CCFF3 		.ascii	"L,\317\363Wz\313\307\371\244\274\212\012\257'\034\364"
 381      577ACBC7 
 381      F9A4BC8A 
 381      0AAF271C 
 381      F4
 382 12a7 F729E3B2 		.ascii	"\367)\343\262F\214\310/\010\371\307K\241\334x\352\017"
 382      468CC82F 
 382      08F9C74B 
 382      A1DC78EA 
 382      0F
 383 12b8 2346E7F8 		.ascii	"#F\347\370\303\010<,\205\"\222/\027\245\203\241@D\362"
 383      C3083C2C 
 383      8522922F 
 383      17A583A1 
 383      4044F2
 384 12cb A21F19DE 		.ascii	"\242\037\031\336@e%Je\373\374a%y_\336\270p(O\014U<\\"
 384      4065254A 
 384      65FBFC61 
 384      25795FDE 
 384      B870284F 
 385 12e3 19A8941E 		.ascii	"\031\250\224\036\226\3041\376xE\341\210\317_\031A\365"
 385      96C431FE 
 385      7845E188 
 385      CF5F1941 
 385      F5
 386 12f4 648E43D7 		.ascii	"d\216C\327\001\375=\221\201IJW\210\210\353J)\317\343"
 386      01FD3D91 
ARM GAS  /tmp/ccibCdJE.s 			page 30


 386      81494A57 
 386      8888EB4A 
 386      29CFE3
 387 1307 934AC571 		.ascii	"\223J\305q\345\021OdbP\012\243\273\263=\036\365\376"
 387      E5114F64 
 387      62500AA3 
 387      BBB33D1E 
 387      F5FE
 388 1319 0C9C18E4 		.ascii	"\014\234\030\344\211d\221,\224\262\207$\321\347\230"
 388      8964912C 
 388      94B28724 
 388      D1E798
 389 1328 10F24724 		.ascii	"\020\362G${xb\245\367q+\232@i\217?0\246<\340}\011\325"
 389      7B7862A5 
 389      F7712B9A 
 389      40698F3F 
 389      30A63CE0 
 390 133f D37D284E 		.ascii	"\323}(N\024H\343\375^\251\250\2624\2209\246\374%O\330"
 390      1448E3FD 
 390      5EA9A8B2 
 390      349039A6 
 390      FC254FD8 
 391 1353 FF5F5206 		.ascii	"\377_R\006NT\216\253\310\034+E\220bJ\003\266\361\025"
 391      4E548EAB 
 391      C81C2B45 
 391      90624A03 
 391      B6F115
 392 1366 916C9419 		.ascii	"\221l\224\031\216\210\021\311\023\311\036:\374\031\317"
 392      8E8811C9 
 392      13C91E3A 
 392      FC19CF
 393 1375 B3238B46 		.ascii	"\263#\213F\026\215\316\304\311\222\321\243\212!oH\376"
 393      168DCEC4 
 393      C992D1A3 
 393      8A216F48 
 393      FE
 394 1386 E8A23F14 		.ascii	"\350\242?\024v\303\311\374Q#G\026\242\237#\237\356\211"
 394      76C3C9FC 
 394      51234716 
 394      A29F239F 
 394      EE89
 395 1398 7F161495 		.ascii	"\177\026\024\225$r\262p\216\273pH\301\0139j\012\345"
 395      2472B270 
 395      8EBB7048 
 395      C10B396A 
 395      0AE5
 396 13aa 42FA3977 		.ascii	"B\3729w\321h5]\362\302\310|\224v@\2556\257\337g\363"
 396      D168355D 
 396      F2C2C87C 
 396      947640AD 
 396      36AFDF67 
 397 13bf 867D995E 		.ascii	"\206}\231^1(z\375\221\211\005f\004\017\006B\221p^\311"
 397      31287AFD 
 397      91890566 
 397      040F0642 
 397      91705EC9 
 398 13d3 E81103FA 		.ascii	"\350\021\003\372\347\015\037^\220WR\\4\276_\036r\006"
ARM GAS  /tmp/ccibCdJE.s 			page 31


 398      E70D1F5E 
 398      9057525C 
 398      34BE5F1E 
 398      7206
 399 13e5 4F79B90F 		.ascii	"Oy\271\017;\004\312 n\320\337\212\036\2117e\243\213"
 399      3B04CA20 
 399      6ED0DF8A 
 399      1E893765 
 399      A38B
 400 13f7 AA1184A3 		.ascii	"\252\021\204\243j\004'\261F06\221\022\376%\272\311\305"
 400      6A0427B1 
 400      46303691 
 400      12FE25BA 
 400      C9C5
 401 1409 C9FC5123 		.ascii	"\311\374Q#\212\207\027\216.\274\015\001x\305\362\362"
 401      8A87178E 
 401      2EBC0D01 
 401      78C5F2F2 
 402 1419 31A2F725 		.ascii	"1\242\367%O\304)U\372<\3361\205\351\310\365tq\321\250"
 402      4FC42955 
 402      FA3CDE31 
 402      85E9C8F5 
 402      7471D1A8 
 403 142d F1FDF382 		.ascii	"\361\375\363\202\310\276D\260\334p\244\0029\320\330"
 403      C8BE44B0 
 403      DC70A402 
 403      39D0D8
 404 143c A03FE089 		.ascii	"\240?\340\2118F\214*(t;G\215~\241\270\320\2351\252\244"
 404      38468C2A 
 404      28743B47 
 404      8D7EA1B8 
 404      D09D31AA 
 405 1451 B8B0B0C0 		.ascii	"\270\260\260\300\355(~\266\270\300m+B\347\250\0027\377"
 405      ED287EB6 
 405      B8C06D2B 
 405      42E7A802 
 405      37FF
 406 1463 1CF86CBF 		.ascii	"\034\370l\277G\220,\304\327p\322\026\226\"\016o9j~\374"
 406      47902CC4 
 406      D770D216 
 406      96220E6F 
 406      396A7EFC 
 407 1477 30FBD012 		.ascii	"0\373\320\022\267\333><\377\031\267}\310S\356\341\230"
 407      B7DB3E3C 
 407      FF19B77D 
 407      C853EEE1 
 407      98
 408 1488 0CB30D75 		.ascii	"\014\263\015u\273\263\375\001\314\215\337\207$\010\207"
 408      BBB3FD01 
 408      CC8DDF87 
 408      240887
 409 1497 71D2812E 		.ascii	"q\322\201.\"2V\250\037VA~\240\262\324?\326\351\205\313"
 409      223256A8 
 409      1F56417E 
 409      A0B2D43F 
 409      D6E985CB 
 410 14ab A054C285 		.ascii	"\240T\302\205\"q%{\313\302\023\303j\233\310\214\224"
ARM GAS  /tmp/ccibCdJE.s 			page 32


 410      2271257B 
 410      CBC213C3 
 410      6A9BC88C 
 410      94
 411 14bc 61C7472D 		.ascii	"a\307G-\301[\346!\351\201\326\260\274eX/\316\240\247"
 411      C15BE621 
 411      E981D6B0 
 411      BC65582F 
 411      CEA0A7
 412 14cf 52AA8AA0 		.ascii	"R\252\212\240K0$\215\037f\002\202\250z\210{D\376\210"
 412      4B30248D 
 412      1F660282 
 412      A87A887B 
 412      44FE88
 413 14e2 2A54B222 		.ascii	"*T\262\"\350/\227B\341\274\247\363\363Qq\225\275\214"
 413      E82F9742 
 413      E1BCA7F3 
 413      F3517195 
 413      BD8C
 414 14f4 48308435 		.ascii	"H0\2045\015\270\376\000\216\033\021T\315c\226\361\313"
 414      0DB8FE00 
 414      8E1B1154 
 414      CD6396F1 
 414      CB
 415 1505 BC819084 		.ascii	"\274\201\220\204\000sp6j{\021o\244\352\337\323C\361"
 415      00737036 
 415      6A7B116F 
 415      A4EADFD3 
 415      43F1
 416 1517 8C7FB402 		.ascii	"\214\177\264\002k.$\215E\001\010\033\263\337#\350|\024"
 416      6B2E248D 
 416      4501081B 
 416      B3DF23E8 
 416      7C14
 417 1529 9D83D0F9 		.ascii	"\235\203\320\371\230-\334\277/:\373\241\263?:\007\240"
 417      982DDCBF 
 417      2F3AFBA1 
 417      B33F3A07 
 417      A0
 418 153a 73203A7F 		.ascii	"s :\177\213NT\256?*\327\037\225\353\217\312\015@\345"
 418      8B4E54AE 
 418      3F2AD71F 
 418      95EB8FCA 
 418      0D40E5
 419 154d 06F41342 		.ascii	"\006\364\023B\003\205\320o\205\320#B\350Q!4H\010=f\013"
 419      0385D06F 
 419      85D02342 
 419      E8512134 
 419      48083D66 
 420 1562 F5EB8BCE 		.ascii	"\365\353\213\316~By\010]\0068\202\036\304m\006\326\360"
 420      7E427908 
 420      5D063882 
 420      1EC46D06 
 420      D6F0
 421 1574 042984AE 		.ascii	"\004)\204\256\201r\237\024\262{\313\304\020V\273X!e"
 421      81729F14 
 421      B27BCBC4 
ARM GAS  /tmp/ccibCdJE.s 			page 33


 421      1056BB58 
 421      2165
 422 1586 4694F682 		.ascii	"F\224\366\202\376\204TF\244\"\340#\277K\313\305\261"
 422      FE845446 
 422      A422E023 
 422      BF4BCBC5 
 422      B1
 423 1597 E18C4848 		.ascii	"\341\214HH*\015\203\036q\302Q\021\036\213\376T\202!"
 423      2A0D831E 
 423      71C25111 
 423      1E8BFE54 
 423      8221
 424 15a9 0A824ACA 		.ascii	"\012\202J\312\031\362MD\177eJU\376\010R\213\344\234"
 424      19F24D44 
 424      7F654A55 
 424      FE08528B 
 424      E49C
 425 15bb 10098CF9 		.ascii	"\020\011\214\371S0G\032/UF*\3040\264\246\0118a\013z"
 425      5330471A 
 425      2F55462A 
 425      C430B4A6 
 425      0938610B 
 426 15d0 C67523FE 		.ascii	"\306u#\376\022\366\224\243\346\352\211t\217{\020\311"
 426      12F694A3 
 426      E6EA8974 
 426      8F7B10C9 
 427 15e0 C90A7A26 		.ascii	"\311\012z&\210\376\210\277rlw5\373\317\343\244q\210"
 427      88FE88BF 
 427      726C7735 
 427      FBCFE3A4 
 427      7188
 428 15f2 AB1E5449 		.ascii	"\253\036TI\310\312\016zP\265\220t@\022eHA\324n\321\315"
 428      C8CA0E7A 
 428      50B59074 
 428      40126548 
 428      41D46ED1 
 429 1607 8E8A71C8 		.ascii	"\216\212q\310\344\003,9eE\244\012;O\005AG\327\300\204"
 429      E4032C39 
 429      6545A40A 
 429      3B4F0541 
 429      47D7C084 
 430 161b 4AA43940 		.ascii	"J\2449@B\"T\200\257\"\376P9\314i6\326\212X\016\036\206"
 430      42225480 
 430      AF22FE50 
 430      39CC6936 
 430      D68A580E 
 431 1631 3283A897 		.ascii	"2\203\250\227|\324R}\2120\250\316^J{BZ\226BR\245\027"
 431      7CD4527D 
 431      8A30A8CE 
 431      5E4A7B42 
 431      5A964252 
 432 1647 49EB2459 		.ascii	"I\353$Y\277K\205\210X\312\313\037QRT\202\342O\036\204"
 432      BF4B8588 
 432      58CACB1F 
 432      51525482 
 432      E24F1E84 
 433 165b 99D2817D 		.ascii	"\231\322\201}\373U\201\327\342\3506\032\265\211\002"
ARM GAS  /tmp/ccibCdJE.s 			page 34


 433      FB5581D7 
 433      E2E8361A 
 433      B58902
 434 166a A9D496EF 		.ascii	"\251\324\226\357\356\207\316\376B\211[@\321&\337\235"
 434      EE87CEFE 
 434      42895B40 
 434      D126DF9D 
 435 167a 5FEC76BA 		.ascii	"_\354v\272\237GW\267s4\\2\212\372\227\344?\365\264\333"
 435      9F4757B7 
 435      73345C32 
 435      8AFA97E4 
 435      3FF5B4DB 
 436 168e 81AEC56E 		.ascii	"\201\256\305n\033\012\206OY\215}@\237\032XUE\030\361"
 436      1B0A864F 
 436      598D7D40 
 436      9F1A5855 
 436      4518F1
 437 16a1 F82A442C 		.ascii	"\370*D,\\\301\210!\236\022\344Jb\205\312\215\220\357"
 437      5CC18821 
 437      9E12E44A 
 437      6285CA8D 
 437      90EF
 438 16b3 B68F2C18 		.ascii	"\266\217,\030\355\266\025\017q\333G\364\305\244\337"
 438      EDB6150F 
 438      71DB47F4 
 438      C5A4DF
 439 16c2 10B7ED29 		.ascii	"\020\267\355)\304L\030\012\332\375\245\336\220\323\037"
 439      C44C180A 
 439      DAFDA5DE 
 439      90D31F
 440 16d1 2EF39746 		.ascii	".\363\227F\262\302Ry\251\277\322'U9\307\243.?\020\352"
 440      B2C25279 
 440      A9BFD227 
 440      5539C7A3 
 440      2E3F10EA 
 441 16e5 1547F790 		.ascii	"\025G\367\220\322(\246\242\037\241*L#UY\241*t\305\236"
 441      D228A6A2 
 441      1FA12A4C 
 441      235559A1 
 441      2A74C59E 
 442 16f9 9C155153 		.ascii	"\234\025QSv$N\320Q\036\366\226\216u\224a\212\307\036"
 442      76244ED0 
 442      511EF696 
 442      8E759461 
 442      8AC71E
 443 170c 24167687 		.ascii	"$\026v\207\016\330#\372|!)\034\226\302\275\361\000\005"
 443      0ED823FA 
 443      7C21291C 
 443      96C2BDF1 
 443      0005
 444 171e 856D0F1A 		.ascii	"\205m\017\032zx\321\230'>\026\261\243?\202wQ\377B\267"
 444      7A78D198 
 444      273E16B1 
 444      A33F8277 
 444      51FF42B7 
 445 1732 9F189E38 		.ascii	"\237\030\2368Qx\036^X \004*\263\"\201\261c\313%\364"
 445      51781E5E 
ARM GAS  /tmp/ccibCdJE.s 			page 35


 445      5820042A 
 445      B32281B1 
 445      63CB25F4 
 446 1746 230B864D 		.ascii	"#\013\206MEh\250d\271\203L(\263,\336\217\364 \222{\201"
 446      4568A864 
 446      B9834C28 
 446      B32CDE8F 
 446      F420927B 
 447 175b 633C00EB 		.ascii	"c<\000\353Eu,\250\372qA\244\012,o\310\031\300\3010\224"
 447      45752CA8 
 447      FA7141A4 
 447      0A2C6FC8 
 447      19C0C130 
 448 1770 11080725 		.ascii	"\021\010\007%\311\027r\004\307\005}![\300\027\262\213"
 448      C9177204 
 448      C7057D21 
 448      5BC017B2 
 448      8B
 449 1781 A5A1724C 		.ascii	"\245\241rL\312\234\305C\012\304\210\350,\036J.\371\344"
 449      CA9CC543 
 449      0AC488E8 
 449      2C1E4A2E 
 449      F9E4
 450 1793 52402E85 		.ascii	"R@.\205\3442\014_\262\212\207\014'\312\352\205\3734"
 450      E4320C5F 
 450      B28A870C 
 450      27CAEA85 
 450      FB34
 451 17a5 7584443A 		.ascii	"u\204D:\221\273\372\204\002>T\250O\327\277\376\037\317"
 451      91BBFA84 
 451      023E54A8 
 451      4FD7BFFE 
 451      1FCF
 452 17b7 9CD640   		.ascii	"\234\326@"
 453              		.text
 454              		.section	.gnu.lto_.symtab.a818e58ce5823133,"",%progbits
 455 0000 5F5F6561 		.ascii	"__early_init\000\000\000\000\000\000\000\000\000\000"
 455      726C795F 
 455      696E6974 
 455      00000000 
 455      00000000 
 456 0016 0000A400 		.ascii	"\000\000\244\000\000\000mmc_lld_is_card_inserted\000"
 456      00006D6D 
 456      635F6C6C 
 456      645F6973 
 456      5F636172 
 457 0035 00000000 		.ascii	"\000\000\000\000\000\000\000\000\000\000\000\251\000"
 457      00000000 
 457      000000A9 
 457      00
 458 0042 00006D6D 		.ascii	"\000\000mmc_lld_is_write_protected\000\000\000\000\000"
 458      635F6C6C 
 458      645F6973 
 458      5F777269 
 458      74655F70 
 459 0063 00000000 		.ascii	"\000\000\000\000\000\000\000\203\002\000\000setLED\000"
 459      00000083 
ARM GAS  /tmp/ccibCdJE.s 			page 36


 459      02000073 
 459      65744C45 
 459      4400
 460 0075 00000000 		.ascii	"\000\000\000\000\000\000\000\000\000\000\000\207\002"
 460      00000000 
 460      00000087 
 460      02
 461 0082 0000746F 		.ascii	"\000\000toggleLED\000\000\000\000\000\000\000\000\000"
 461      67676C65 
 461      4C454400 
 461      00000000 
 461      00000000 
 462 0096 0000008E 		.ascii	"\000\000\000\216\002\000\000boardInit\000\000\000\000"
 462      02000062 
 462      6F617264 
 462      496E6974 
 462      00000000 
 463 00aa 00000000 		.ascii	"\000\000\000\000\000\000\000\000\221\002\000\000pal"
 463      00000000 
 463      91020000 
 463      70616C
 464 00b9 5F646566 		.ascii	"_default_config\000\000\000\000\000\000\000\000\000"
 464      61756C74 
 464      5F636F6E 
 464      66696700 
 464      00000000 
 465 00d1 00000096 		.ascii	"\000\000\000\226\002\000\000stm32_clock_init\000\000"
 465      02000073 
 465      746D3332 
 465      5F636C6F 
 465      636B5F69 
 466 00ea 02000000 		.ascii	"\002\000\000\000\000\000\000\000\000\000\224\002\000"
 466      00000000 
 466      00009402 
 466      00
 467 00f7 00       		.ascii	"\000"
 468              		.text
 469              		.section	.gnu.lto_.opts,"",%progbits
 470 0000 272D6D63 		.ascii	"'-mcpu=cortex-m4' '-mfloat-abi=hard' '-mfpu=fpv4-sp"
 470      70753D63 
 470      6F727465 
 470      782D6D34 
 470      2720272D 
 471 0033 2D643136 		.ascii	"-d16' '-mno-thumb-interwork' '-mthumb' '-O2' '-fomi"
 471      2720272D 
 471      6D6E6F2D 
 471      7468756D 
 471      622D696E 
 472 0066 742D6672 		.ascii	"t-frame-pointer' '-falign-functions=16' '-ffunction"
 472      616D652D 
 472      706F696E 
 472      74657227 
 472      20272D66 
 473 0099 2D736563 		.ascii	"-sections' '-fdata-sections' '-fno-common' '-flto' "
 473      74696F6E 
 473      73272027 
 473      2D666461 
ARM GAS  /tmp/ccibCdJE.s 			page 37


 473      74612D73 
 474 00cc 272D6673 		.ascii	"'-fsingle-precision-constant'\000"
 474      696E676C 
 474      652D7072 
 474      65636973 
 474      696F6E2D 
 475              		.text
 476              		.section	.text.__early_init,"ax",%progbits
 477              		.align	2
 478              		.p2align 4,,15
 479              		.global	__early_init
 480              		.thumb
 481              		.thumb_func
 482              		.type	__early_init, %function
 483              	__early_init:
 484              		@ args = 0, pretend = 0, frame = 0
 485              		@ frame_needed = 0, uses_anonymous_args = 0
 486              		@ link register save eliminated.
 487 0000 FFF7FEBF 		b	stm32_clock_init
 488              		.size	__early_init, .-__early_init
 489 0004 AFF30080 		.section	.text.mmc_lld_is_card_inserted,"ax",%progbits
 489      AFF30080 
 489      AFF30080 
 490              		.align	2
 491              		.p2align 4,,15
 492              		.global	mmc_lld_is_card_inserted
 493              		.thumb
 494              		.thumb_func
 495              		.type	mmc_lld_is_card_inserted, %function
 496              	mmc_lld_is_card_inserted:
 497              		@ args = 0, pretend = 0, frame = 0
 498              		@ frame_needed = 0, uses_anonymous_args = 0
 499              		@ link register save eliminated.
 500 0000 024B     		ldr	r3, .L3
 501 0002 1869     		ldr	r0, [r3, #16]
 502 0004 C0F3C010 		ubfx	r0, r0, #7, #1
 503 0008 7047     		bx	lr
 504              	.L4:
 505 000a 00BF     		.align	2
 506              	.L3:
 507 000c 00080240 		.word	1073874944
 508              		.size	mmc_lld_is_card_inserted, .-mmc_lld_is_card_inserted
 509              		.section	.text.mmc_lld_is_write_protected,"ax",%progbits
 510              		.align	2
 511              		.p2align 4,,15
 512              		.global	mmc_lld_is_write_protected
 513              		.thumb
 514              		.thumb_func
 515              		.type	mmc_lld_is_write_protected, %function
 516              	mmc_lld_is_write_protected:
 517              		@ args = 0, pretend = 0, frame = 0
 518              		@ frame_needed = 0, uses_anonymous_args = 0
 519              		@ link register save eliminated.
 520 0000 0020     		movs	r0, #0
 521 0002 7047     		bx	lr
 522              		.size	mmc_lld_is_write_protected, .-mmc_lld_is_write_protected
 523 0004 AFF30080 		.section	.text.setLED,"ax",%progbits
ARM GAS  /tmp/ccibCdJE.s 			page 38


 523      AFF30080 
 523      AFF30080 
 524              		.align	2
 525              		.p2align 4,,15
 526              		.global	setLED
 527              		.thumb
 528              		.thumb_func
 529              		.type	setLED, %function
 530              	setLED:
 531              		@ args = 0, pretend = 0, frame = 0
 532              		@ frame_needed = 0, uses_anonymous_args = 0
 533              		@ link register save eliminated.
 534 0000 014B     		ldr	r3, .L9
 535 0002 0822     		movs	r2, #8
 536 0004 5A83     		strh	r2, [r3, #26]	@ movhi
 537 0006 7047     		bx	lr
 538              	.L10:
 539              		.align	2
 540              	.L9:
 541 0008 00040240 		.word	1073873920
 542              		.size	setLED, .-setLED
 543 000c AFF30080 		.section	.text.toggleLED,"ax",%progbits
 544              		.align	2
 545              		.p2align 4,,15
 546              		.global	toggleLED
 547              		.thumb
 548              		.thumb_func
 549              		.type	toggleLED, %function
 550              	toggleLED:
 551              		@ args = 0, pretend = 0, frame = 0
 552              		@ frame_needed = 0, uses_anonymous_args = 0
 553              		@ link register save eliminated.
 554 0000 024B     		ldr	r3, .L12
 555 0002 5A69     		ldr	r2, [r3, #20]
 556 0004 82F00802 		eor	r2, r2, #8
 557 0008 5A61     		str	r2, [r3, #20]
 558 000a 7047     		bx	lr
 559              	.L13:
 560              		.align	2
 561              	.L12:
 562 000c 00040240 		.word	1073873920
 563              		.size	toggleLED, .-toggleLED
 564              		.section	.text.boardInit,"ax",%progbits
 565              		.align	2
 566              		.p2align 4,,15
 567              		.global	boardInit
 568              		.thumb
 569              		.thumb_func
 570              		.type	boardInit, %function
 571              	boardInit:
 572              		@ args = 0, pretend = 0, frame = 0
 573              		@ frame_needed = 0, uses_anonymous_args = 0
 574              		@ link register save eliminated.
 575 0000 7047     		bx	lr
 576              		.size	boardInit, .-boardInit
 577              		.global	pal_default_config
 578 0002 00BFAFF3 		.section	.rodata.pal_default_config,"a",%progbits
ARM GAS  /tmp/ccibCdJE.s 			page 39


 578      0080AFF3 
 578      0080AFF3 
 578      0080
 579              		.align	2
 580              		.type	pal_default_config, %object
 581              		.size	pal_default_config, 168
 582              	pal_default_config:
 583 0000 A004802A 		.word	713032864
 584 0004 00000000 		.word	0
 585 0008 AFFBFFFF 		.word	-1105
 586 000c 05511564 		.word	1679118597
 587 0010 DFFF0000 		.word	65503
 588 0014 00770000 		.word	30464
 589 0018 00A00A00 		.word	696320
 590 001c 80000000 		.word	128
 591 0020 00000000 		.word	0
 592 0024 FFFFFFFF 		.word	-1
 593 0028 55555555 		.word	1431655765
 594 002c FFFF0000 		.word	65535
 595 0030 00000000 		.word	0
 596 0034 00000000 		.word	0
 597 0038 00000000 		.word	0
 598 003c 00000000 		.word	0
 599 0040 FFFFFFFF 		.word	-1
 600 0044 55555551 		.word	1364546901
 601 0048 FFFF0000 		.word	65535
 602 004c 00000000 		.word	0
 603 0050 00000000 		.word	0
 604 0054 00000000 		.word	0
 605 0058 00000000 		.word	0
 606 005c FFFFFFFF 		.word	-1
 607 0060 55555555 		.word	1431655765
 608 0064 FFFF0000 		.word	65535
 609 0068 00000000 		.word	0
 610 006c 00000000 		.word	0
 611 0070 00000000 		.word	0
 612 0074 00000000 		.word	0
 613 0078 FFFFFFFF 		.word	-1
 614 007c 45000000 		.word	69
 615 0080 FFFF0000 		.word	65535
 616 0084 00000000 		.word	0
 617 0088 00000000 		.word	0
 618 008c 00000000 		.word	0
 619 0090 00000000 		.word	0
 620 0094 FFFFFFFF 		.word	-1
 621 0098 00000000 		.word	0
 622 009c FFFF0000 		.word	65535
 623 00a0 00000000 		.word	0
 624 00a4 00000000 		.word	0
 625              		.comm	__gnu_lto_v1,1,1
 626              		.ident	"GCC: (GNU Tools for ARM Embedded Processors) 4.8.4 20140526 (release) [ARM/embedded-4_8-br
ARM GAS  /tmp/ccibCdJE.s 			page 40


DEFINED SYMBOLS
                            *ABS*:0000000000000000 board.c
     /tmp/ccibCdJE.s:477    .text.__early_init:0000000000000000 $t
     /tmp/ccibCdJE.s:483    .text.__early_init:0000000000000000 __early_init
     /tmp/ccibCdJE.s:490    .text.mmc_lld_is_card_inserted:0000000000000000 $t
     /tmp/ccibCdJE.s:496    .text.mmc_lld_is_card_inserted:0000000000000000 mmc_lld_is_card_inserted
     /tmp/ccibCdJE.s:507    .text.mmc_lld_is_card_inserted:000000000000000c $d
     /tmp/ccibCdJE.s:510    .text.mmc_lld_is_write_protected:0000000000000000 $t
     /tmp/ccibCdJE.s:516    .text.mmc_lld_is_write_protected:0000000000000000 mmc_lld_is_write_protected
     /tmp/ccibCdJE.s:524    .text.setLED:0000000000000000 $t
     /tmp/ccibCdJE.s:530    .text.setLED:0000000000000000 setLED
     /tmp/ccibCdJE.s:541    .text.setLED:0000000000000008 $d
     /tmp/ccibCdJE.s:544    .text.toggleLED:0000000000000000 $t
     /tmp/ccibCdJE.s:550    .text.toggleLED:0000000000000000 toggleLED
     /tmp/ccibCdJE.s:562    .text.toggleLED:000000000000000c $d
     /tmp/ccibCdJE.s:565    .text.boardInit:0000000000000000 $t
     /tmp/ccibCdJE.s:571    .text.boardInit:0000000000000000 boardInit
     /tmp/ccibCdJE.s:582    .rodata.pal_default_config:0000000000000000 pal_default_config
     /tmp/ccibCdJE.s:579    .rodata.pal_default_config:0000000000000000 $d
                            *COM*:0000000000000001 __gnu_lto_v1
     /tmp/ccibCdJE.s:543    .text.setLED:000000000000000c $t

UNDEFINED SYMBOLS
stm32_clock_init
