ARM GAS  /tmp/ccvmXpcS.s 			page 1


   1              		.syntax unified
   2              		.cpu cortex-m4
   3              		.eabi_attribute 27, 3
   4              		.eabi_attribute 28, 1
   5              		.fpu fpv4-sp-d16
   6              		.eabi_attribute 20, 1
   7              		.eabi_attribute 21, 1
   8              		.eabi_attribute 23, 3
   9              		.eabi_attribute 24, 1
  10              		.eabi_attribute 25, 1
  11              		.eabi_attribute 26, 1
  12              		.eabi_attribute 30, 2
  13              		.eabi_attribute 34, 1
  14              		.eabi_attribute 18, 4
  15              		.thumb
  16              		.file	"board.c"
  17              		.section	.gnu.lto_.jmpfuncs.90110f4412cf49b1,"",%progbits
  18 0000 789C6362 		.ascii	"x\234cb`b\300\006\270\2414\013\0203\002\325030\000\000"
  18      6062C006 
  18      B8A1340B 
  18      103302D5 
  18      30333000 
  19 0015 01EA001A 		.ascii	"\001\352\000\032"
  20              		.text
  21              		.section	.gnu.lto_.inline.90110f4412cf49b1,"",%progbits
  22 0000 789C6362 		.ascii	"x\234cb`b\300\006\374\2414\013\020\3610\202\025\261"
  22      6062C006 
  22      FCA1340B 
  22      10F13082 
  22      15B1
  23 0012 2D9007AB 		.ascii	"-\220\007\253e\344\002\021\014\314L\250\302L\030\"\314"
  23      65E40211 
  23      0CCC4CA8 
  23      C24C1822 
  23      CC
  24 0023 18220C00 		.ascii	"\030\"\014\000\232u\003\260"
  24      9A7503B0 
  25              		.text
  26              		.section	.gnu.lto_.pureconst.90110f4412cf49b1,"",%progbits
  27 0000 789C6362 		.ascii	"x\234cb`b\340d\200\000\026\006\011F \227\231\001\000"
  27      6062E064 
  27      80001606 
  27      09462097 
  27      990100
  28 0013 01DE0030 		.ascii	"\001\336\0000"
  29              		.text
  30              		.section	.gnu.lto___early_init.90110f4412cf49b1,"",%progbits
  31 0000 789C6362 		.ascii	"x\234cb`b@\007\222@\\\003\304n@\314\310\314\300\310"
  31      60624007 
  31      92405C03 
  31      C46E40CC 
  31      C8CCC0C8 
  32 0014 34E11C03 		.ascii	"4\341\034\003C#\007\023##\210\301\300\310P\317\304X"
  32      43230713 
  32      232388C1 
  32      C0C850CF 
  32      C458
ARM GAS  /tmp/ccvmXpcS.s 			page 2


  33 0026 1FC90856 		.ascii	"\037\311\010V\273\236\351\300\203\377\377\327\315;6"
  33      BB9EE9C0 
  33      83FFFFD7 
  33      CD3B36
  34 0035 670DE34C 		.ascii	"g\015\343L&f\240\010+CKC\303\004\005\006\206d\260\212"
  34      2666A008 
  34      2B434B43 
  34      C3040506 
  34      8664B08A 
  35 0049 102009D2 		.ascii	"\020 \011\322\026\312\310\004\242\231\31734?\230\371"
  35      16CAC804 
  35      A299CF33 
  35      343F98F9 
  36 0059 982B9171 		.ascii	"\230+\221q!#+P\272\232\341WCG\203@&#P9\304\304L\020"
  36      21232B50 
  36      BA9AE157 
  36      43478340 
  36      26235039 
  37 0071 7D91A1F1 		.ascii	"}\221\241\361\301,e\230\"\010\010\001J\000M\000\271"
  37      C12C6598 
  37      22080801 
  37      4A004D00 
  37      B9
  38 0082 D7453F23 		.ascii	"\327E?#?7U?9?\245R?%\265L?9#3)3\277X\277\244\2504/["
  38      3F37553F 
  38      393FA552 
  38      3F25B54C 
  38      3F392333 
  39 00a0 1FC8C848 		.ascii	"\037\310\310H\314\321O\312O,J)\326\017\016\211\367\013"
  39      CCD14FCA 
  39      4F2C4A29 
  39      D60F0E89 
  39      F70B
  40 00b2 75F671F5 		.ascii	"u\366q\365\217w310\014r\205\210\353%3\000\000\332\""
  40      8F773331 
  40      300C7285 
  40      88EB2533 
  40      0000DA22 
  41 00c6 3A21     		.ascii	":!"
  42              		.text
  43              		.section	.gnu.lto_mmc_lld_is_card_inserted.90110f4412cf49b1,"",%progbits
  44 0000 789C6362 		.ascii	"x\234cb`b@\007\222@\034\015\304n@\314\310\314\300\310"
  44      60624007 
  44      92401C0D 
  44      C46E40CC 
  44      C8CCC0C8 
  45 0014 34E11C03 		.ascii	"4\341\034\003C#\007\023##\210\301\300\310P\317\304X"
  45      43230713 
  45      232388C1 
  45      C0C850CF 
  45      C458
  46 0026 1FC90856 		.ascii	"\037\311\010V\273\236\351\300\203\377\377\327\315i\337"
  46      BB9EE9C0 
  46      83FFFFD7 
  46      CD69DF
  47 0035 B287712E 		.ascii	"\262\207q.\023\310,V\206\226\206\206\011\012\014\014"
  47      13C82C56 
ARM GAS  /tmp/ccvmXpcS.s 			page 3


  47      86968686 
  47      090A0C0C 
  48 0045 C9601521 		.ascii	"\311`\025!@\022\244-\224\221\011D3_dh|p+9\221q!#+C\004"
  48      4012A42D 
  48      94910944 
  48      335F6468 
  48      7C702B39 
  49 0060 63262303 		.ascii	"c&#\003#\324\326\020FF\220\002\220\021.\372\031\371"
  49      23D4D610 
  49      46469002 
  49      90112EFA 
  49      19F9
  50 0072 B9A9FAC9 		.ascii	"\271\251\372\311\371)\225\372)\251e\372\311\031\231"
  50      F92995FA 
  50      29A965FA 
  50      C91999
  51 0081 4999F9C5 		.ascii	"I\231\371\305\372%E\245y\331\372@FFb\216~R~bQJ\261~"
  51      FA2545A5 
  51      79D9FA40 
  51      4646628E 
  51      7E527E62 
  52 0099 7048BC5F 		.ascii	"pH\274_\250\263\217\253\177\274\233\211\201a\220+D\\"
  52      A8B38FAB 
  52      7FBC9B89 
  52      8161902B 
  52      445C
  53 00ab 2F990100 		.ascii	"/\231\001\000<\3522&"
  53      3CEA3226 
  54              		.text
  55              		.section	.gnu.lto_mmc_lld_is_write_protected.90110f4412cf49b1,"",%progbits
  56 0000 789C6362 		.ascii	"x\234cb`b@\007\222@\034\015\304n@\314\310\314\300\310"
  56      60624007 
  56      92401C0D 
  56      C46E40CC 
  56      C8CCC0C8 
  57 0014 34E11C03 		.ascii	"4\341\034\003C#\007\023##\210\301\300\310P\317\304X"
  57      43230713 
  57      232388C1 
  57      C0C850CF 
  57      C458
  58 0026 1FC90856 		.ascii	"\037\311\010V\273\236\351\300\203\377\377\327]h\337"
  58      BB9EE9C0 
  58      83FFFFD7 
  58      5D68DF
  59 0035 7A87711E 		.ascii	"z\207q\036\023\310,V\206\226\206\206\011\012\014\014"
  59      13C82C56 
  59      86968686 
  59      090A0C0C 
  60 0045 C9601521 		.ascii	"\311`\025!@\022\244-\224\221\011D3_dh|\360&9\221q!#"
  60      4012A42D 
  60      94910944 
  60      335F6468 
  60      7CF02639 
  61 005d 2B430463 		.ascii	"+C\004c&#\334\326\020FF\220\002\220\021.\372\031\371"
  61      2623DCD6 
  61      10464690 
  61      0290112E 
ARM GAS  /tmp/ccvmXpcS.s 			page 4


  61      FA19F9
  62 0070 B9A9FAC9 		.ascii	"\271\251\372\311\371)\225\372)\251e\372\311\031\231"
  62      F92995FA 
  62      29A965FA 
  62      C91999
  63 007f 4999F9C5 		.ascii	"I\231\371\305\372%E\245y\331\372@FFb\216~R~bQJ\261~"
  63      FA2545A5 
  63      79D9FA40 
  63      4646628E 
  63      7E527E62 
  64 0097 7048BC5F 		.ascii	"pH\274_\250\263\217\253\177\274\233\211\201a\220+D\\"
  64      A8B38FAB 
  64      7FBC9B89 
  64      8161902B 
  64      445C
  65 00a9 2F990100 		.ascii	"/\231\001\000t\2472\215"
  65      74A7328D 
  66              		.text
  67              		.section	.gnu.lto_boardInit.90110f4412cf49b1,"",%progbits
  68 0000 789C6362 		.ascii	"x\234cb`b@\007\222@\034\014\304n@\314\310\314\300\310"
  68      60624007 
  68      92401C0C 
  68      C46E40CC 
  68      C8CCC0C8 
  69 0014 34E11C03 		.ascii	"4\341\034\003C#\007\023##\210\301\300\310P\317\304X"
  69      43230713 
  69      232388C1 
  69      C0C850CF 
  69      C458
  70 0026 1FC90856 		.ascii	"\037\311\010V\273\236\351\300\203\377\377\327\375h\237"
  70      BB9EE9C0 
  70      83FFFFD7 
  70      FD689F
  71 0035 7E87713E 		.ascii	"~\207q>\023\310,V\206\226\206\206\011\012\014\014\311"
  71      13C82C56 
  71      86968686 
  71      090A0C0C 
  71      C9
  72 0046 60152140 		.ascii	"`\025!@\022\244-\224\221\011D3_d`Ld\\\310\310\012\267"
  72      12A42D94 
  72      91094433 
  72      5F64604C 
  72      645CC8C8 
  73 005c 2D849111 		.ascii	"-\204\221\021$\001\322\352\242\237\221\237\233\252\237"
  73      2401D2EA 
  73      A29F919F 
  73      9BAA9F
  74 006b 9C9F52A9 		.ascii	"\234\237R\251\237\222Z\246\237\234\221\231\224\231_"
  74      9F925AA6 
  74      9F9C9199 
  74      94995F
  75 007a AC5F5254 		.ascii	"\254_RT\232\227\255\017dd$\346\350'\345'\026\245\024"
  75      9A97AD0F 
  75      646424E6 
  75      E827E527 
  75      16A514
  76 008d EB0787C4 		.ascii	"\353\007\207\304\373\205:\373\270\372\307\273\231\030"
ARM GAS  /tmp/ccvmXpcS.s 			page 5


  76      FB853AFB 
  76      B8FAC7BB 
  76      9918
  77 009b 1806B942 		.ascii	"\030\006\271B\304\365\222\031\000r\303/\036"
  77      C4F59219 
  77      0072C32F 
  77      1E
  78              		.text
  79              		.section	.gnu.lto_.symbol_nodes.90110f4412cf49b1,"",%progbits
  80 0000 789C4DC8 		.ascii	"x\234M\310\301\025@@\020\004\321\232^\033\245`zX\007"
  80      C1154040 
  80      1004D19A 
  80      5E1BA560 
  80      7A5807
  81 0013 47110849 		.ascii	"G\021\010I\014\"\301\201\367l\335~\0111\362\245\224"
  81      0C22C181 
  81      F76CDD7E 
  81      0931F2A5 
  81      94
  82 0024 613BC0DE 		.ascii	"a;\300\336\327\320$G\307YV\307&\227\237\365\016\252"
  82      D7D02447 
  82      C75956C7 
  82      26979FF5 
  82      0EAA
  83 0036 89451EDE 		.ascii	"\211E\036\336\233\031\205J;\257\340\001\320\013\032"
  83      9B19854A 
  83      3BAFE001 
  83      D00B1A
  84 0045 5F       		.ascii	"_"
  85              		.text
  86              		.section	.gnu.lto_.refs.90110f4412cf49b1,"",%progbits
  87 0000 789C6362 		.ascii	"x\234cb`b`d\200\002\000\000F\000\006"
  87      60626064 
  87      80020000 
  87      460006
  88              		.text
  89              		.section	.gnu.lto_.decls.90110f4412cf49b1,"",%progbits
  90 0000 789CBD5C 		.ascii	"x\234\275\\{t\024E\272\357\356y$!\221\227\336]\364z"
  90      7B741445 
  90      BAEFEE79 
  90      24219197 
  90      DE5DF47A 
  91 0014 AEE33D7A 		.ascii	"\256\343=z\217\307UB\002\253\270{\257\210I\200\234\345"
  91      8FC75542 
  91      02ABB87B 
  91      AF884980 
  91      9CE5
  92 0026 91334157 		.ascii	"\2213AW\317\375clf:d\326$3;3\201p\357=g\233\204\227"
  92      CFFD636C 
  92      663A64D6 
  92      24333B33 
  92      8170EF3D 
  93 003e A810C2FB 		.ascii	"\250\020\302\373\025B\000\005\025\005\"\217\240\340"
  93      15420005 
  93      1505228F 
  93      A0E0
  94 004c E08A0944 		.ascii	"\340\212\011DC\000Y`\271\302\340\013\321UA\204\360P"
ARM GAS  /tmp/ccvmXpcS.s 			page 6


  94      43005960 
  94      B9C2E00B 
  94      D1554184 
  94      F050
  95 005e 72ABBEEA 		.ascii	"r\253\276\352\236\251\356t\317T\217\236\333\347\314"
  95      9EA9EE74 
  95      CF548F9E 
  95      DBE7CC
  96 006d 373535D5 		.ascii	"755\325\277\372^\365\325W\3255#p\002\027\3438\256\007"
  96      BFFA5EF5 
  96      D557D535 
  96      23700217 
  96      E338AE07 
  97 0081 5DBF7E92 		.ascii	"]\277~\222\343|}8\316\201>?\312%.\374y-z\275\204^u\002"
  97      E37C7D38 
  97      CE813E3F 
  97      CA252EFC 
  97      792D7ABD 
  98 0099 C7CD46AF 		.ascii	"\307\315F\257\271\350\305\243\317/\010\234\346\302\355"
  98      B9E8C5A3 
  98      CF2F089C 
  98      E6C2ED
  99 00a8 70D55B88 		.ascii	"p\325[\2104+u\202R?W\327\226S01\316F\3453\257\324\351"
  99      342B7582 
  99      523F57D7 
  99      96533031 
  99      CE46E533 
 100 00bf AF3AA177 		.ascii	"\257:\241w\273:\003\274\331T\035\257\373\254^wq\215"
 100      BB3A03BC 
 100      D9541DAF 
 100      FBAC5E77 
 100      718D
 101 00d1 72532CF6 		.ascii	"rS,\366\371\247[n\227\233j\243==#\270_q\213et5\315\222"
 101      F9A75B6E 
 101      979B6AA3 
 101      3D3D23B8 
 101      5F718B65 
 102 00e9 653E22F2 		.ascii	"e>\"\362\217\376\023\367\024/\362}\2638\027\024r\262"
 102      8FFE13F7 
 102      142FF27D 
 102      B3381714 
 102      72B2
 103 00fb 383BDC2A 		.ascii	"8;\334*\362\315\374\257\224\322\0236U\274\321<w?\267"
 103      F2CDFCAF 
 103      94D21336 
 103      55BCD13C 
 103      773FB7
 104 010e 09DD5F2F 		.ascii	"\011\335_/\313\265\277\341\015\330\347\270\177\3436"
 104      CBB5BFE1 
 104      0DD8E7B8 
 104      7FE336
 105 011d E01EE48D 		.ascii	"\340\036\344\215\262\015\3601\302Z\376.\272\211\310"
 105      B20DF031 
 105      C25AFE2E 
 105      BA89C8
 106 012c AFE335EC 		.ascii	"\257\3435\354bF\267\304\242\253\332r\352\247\307zz\356"
 106      6246B7C4 
ARM GAS  /tmp/ccvmXpcS.s 			page 7


 106      A2ABDA72 
 106      EAA7C77A 
 106      7AEE
 107 013e D27099C9 		.ascii	"\322p\231\311\315F\275\311\261\231\362t\376\317\234"
 107      CD46BDC9 
 107      B199F274 
 107      FECF9C
 108 014d CA6FA6CA 		.ascii	"\312o\246\312/\346\342^n=aJ\020\371\215|&\342\364?\215"
 108      2FE6E25E 
 108      6E3D614A 
 108      10F98D7C 
 108      26E2F43F 
 109 0162 99E3C8F7 		.ascii	"\231\343\310\367\370\302\267\223\262Z\3429Se\274\254"
 109      F8C2B793 
 109      B25AE239 
 109      5365BCAC 
 110 0172 28C30636 		.ascii	"(\303\0066\346\262\271\271\230%\304\337\230\366\276"
 110      E6B2B9B9 
 110      9825C4DF 
 110      98F6BE
 111 0181 03B90598 		.ascii	"\003\271\005\230YW{\337\370\375M6\025`\230\312]}l\341"
 111      59577BDF 
 111      F8FD4D36 
 111      156098CA 
 111      5D7D6CE1 
 112 0195 ECF7F265 		.ascii	"\354\367\362e9S\3447\363\003\021\3142\236G\300\353\371"
 112      3953E437 
 112      F30311CC 
 112      329E47C0 
 112      EBF9
 113 01a7 FB15CE52 		.ascii	"\373\025\316R\302`>\266\240[\311MD\344\350\261\266\034"
 113      C2603EB6 
 113      A05BC94D 
 113      44E4E8B1 
 113      B61C
 114 01b9 D94EEA39 		.ascii	"\331N\3529\015\234\346\272\233kB\374F?\236\275\0069"
 114      0D9CE6BA 
 114      9B6B42FC 
 114      463F9EBD 
 114      0639
 115 01cb C2BBBC11 		.ascii	"\302\273\274\021\373\250\001Ou-\013j\327.\260|3\342"
 115      FBA8014F 
 115      752D0B6A 
 115      D72EB07C 
 115      33E2
 116 01dd D680436D 		.ascii	"\326\200Cm3\221\337\216\354*\362;\364\\\266\314\006"
 116      3391DF8E 
 116      EC2AF23B 
 116      F45CB6CC 
 116      06
 117 01ee 2E773071 		.ascii	".w0q\271\275\355\000/7\344h\230\324\271-\266\226\231"
 117      B9BDED00 
 117      2F37E468 
 117      98D4B92D 
 117      B69699
 118 0201 A9766B4D 		.ascii	"\251vkM%\362#\262)\037\346\314m\334\212\364\242\\\002"
 118      25F223B2 
ARM GAS  /tmp/ccvmXpcS.s 			page 8


 118      291FE6CC 
 118      6DDC8AF4 
 118      A25C02
 119 0214 F7065807 		.ascii	"\367\006X\0073l\324\\)j\3604B\310\333d9\313I0\005\356"
 119      336CD45C 
 119      296AF034 
 119      42C8DB64 
 119      39CB4930 
 120 022a 2DCB602E 		.ascii	"-\313`.s\260v\026\260LF\316\272,\203\031p\226\256\245"
 120      73B07616 
 120      B04C46CE 
 120      BA2C8319 
 120      7096AEA5 
 121 023e F61B584A 		.ascii	"\366\033XJ)gqs\022\220\306&SFU\367\274\375\373\370Z"
 121      29677173 
 121      1290C626 
 121      534655F7 
 121      BCFDFBF8 
 122 0253 D499C8B7 		.ascii	"\324\231\310\267\363Y\350nY\320\216+v\250\226\206\267"
 122      F359E86E 
 122      59D08E2B 
 122      76A89686 
 122      B7
 123 0264 1F8101DA 		.ascii	"\037\201\001\332\001@{u@\"\237\021\327e\374\263\332"
 123      01407B75 
 123      40229F11 
 123      D765FCB3 
 123      DA
 124 0275 00A3C1D7 		.ascii	"\000\243\301\327J\001O3\375\2704\232\033E\030E\204\330"
 124      4A014F33 
 124      FDB8349A 
 124      1B451845 
 124      84D8
 125 0287 0679D0B2 		.ascii	"\006y\320\262\204\010\275# \326\306\346\337\200\010"
 125      8408BD23 
 125      20D6C6E6 
 125      DF8008
 126 0296 5D20C201 		.ascii	"] \302\001c]0\000\26544\016\007\240\243\000t\270\227"
 126      635D3000 
 126      B534340E 
 126      07A0A300 
 126      74B897
 127 02a9 2E789D2E 		.ascii	".x\235.x\255p|V\242\320\243\215\305)\333\232\371\313"
 127      78AD707C 
 127      56A2D0A3 
 127      8DC529DB 
 127      9AF9CB
 128 02bc A1C400A5 		.ascii	"\241\304\000\245\275\246\235\260\3024\306\337\243\307"
 128      BDA69DB0 
 128      C234C6DF 
 128      A3C7
 129 02ca F82981C1 		.ascii	"\370)\201\301\371\373\323x\312E\234\037\005\364o\362"
 129      F9FBD378 
 129      CA459C1F 
 129      05F46FF2 
 130 02da 96CBD119 		.ascii	"\226\313\321\031\266t\007\300\337\315\007@\\\254\244"
 130      B67407C0 
ARM GAS  /tmp/ccvmXpcS.s 			page 9


 130      DFCD0740 
 130      5CACA4
 131 02e9 FE103535 		.ascii	"\376\02055\243\310\037\346\357M_\325\247\177\276\252"
 131      A3C81FE6 
 131      EF4D5FD5 
 131      A77FBEAA 
 132 02f9 4FD2AA8E 		.ascii	"O\322\252\216YV\265\213V\2656h}\301\0026\310\324n?/"
 132      5956B58B 
 132      56B53668 
 132      7DC10236 
 132      C8D46E3F 
 133 030e 687D616E 		.ascii	"h}an3\303i\3651*\350<FGTe\240\355X:\002O\215_AN\360"
 133      33C369F5 
 133      312AE83C 
 133      46475465 
 133      A0ED583A 
 134 0329 92CD3027 		.ascii	"\222\3150'0\007\301\014|\243\237m\273%\027\251M=\327"
 134      3007C10C 
 134      7CA39F6D 
 134      BB2517A9 
 134      4D3DD7
 135 033c 5EDB0073 		.ascii	"^\333\000s\255\032;w@\377\337\244;\353E\257K\355CT\254"
 135      AD1A3B77 
 135      40FFDFA4 
 135      3BEB45AF 
 135      4BED4354 
 136 0351 772C63B9 		.ascii	"w,c\271\214\030\345zI)\362\337\202k\177\307\337\215"
 136      8C18E57A 
 136      4929F2DF 
 136      826B7FC7 
 136      DF8D
 137 0363 E8454453 		.ascii	"\350EDS\372\342y\215;3\271\357\347\264\373\266\331\254"
 137      FAE2798D 
 137      3B33B9EF 
 137      E7B4FBB6 
 137      D9AC
 138 0375 7A9C5E16 		.ascii	"z\234^\026\325\020\"\277\013\330\336\003\364\035\240"
 138      D51022BF 
 138      0BD8DE03 
 138      F41DA0
 139 0384 FB80FE15 		.ascii	"\373\200\376\025\350\011\240\237\000\375\214E\264\026"
 139      E809A09F 
 139      00FD8C45 
 139      B416
 140 0392 9ACF2EE0 		.ascii	"\232\317.\340sK\272\366\213-l\353\316[*G\247\3332\270"
 140      734BBAF6 
 140      8B2D6CEB 
 140      CE5B2A47 
 140      A7DB32B8 
 141 03a6 5924E7AE 		.ascii	"Y$\347\256M5Q\354X\3720\366\337+|\006\352\377#\235\377"
 141      4D3551EC 
 141      58FA30F6 
 141      DF2B7C06 
 141      EAFF239D 
 142 03bb 32C06019 		.ascii	"2\300`\031\256\241\2335\036\334:\315Ej\223x0\014:\201"
 142      AEA19B35 
 142      1EDC3ACD 
ARM GAS  /tmp/ccvmXpcS.s 			page 10


 142      456A9378 
 142      300C3A81 
 143 03cf 3B83BAC4 		.ascii	";\203\272\304p\366\254D\335W\211:\236jz)Q-P\3257\023"
 143      70F6AC44 
 143      DD57893A 
 143      9E6A7A29 
 143      512D50D5 
 144 03e5 D536AAFA 		.ascii	"\3256\252\372E{\274\332NU\257IT;\250\352M\211j'U\275"
 144      457BBCDA 
 144      4E55AF49 
 144      543BA8EA 
 144      4D896A27 
 145 03fb 3D519D41 		.ascii	"=Q\235AU\357KTgR\366H:i&\224$\362\327a\000\334\340m"
 145      55EF4B54 
 145      6752F648 
 145      3A692694 
 145      24F2D761 
 146 0413 86B709DC 		.ascii	"\206\267\011\334\207v\235\037hT\236*\341\224\301\017"
 146      87769D1F 
 146      68549E2A 
 146      E194C10F 
 147 0423 A6E3996D 		.ascii	"\246\343\231m\000W\257\244\374dX\253i?\257\215\331\""
 147      0057AFA4 
 147      FC6458AB 
 147      693FAF8D 
 147      D922
 148 0435 3F5F1800 		.ascii	"?_\030\000%\230\232d%\006B\0133\307\255\027\262\342"
 148      25989A64 
 148      2506420B 
 148      33C7AD17 
 148      B2E2
 149 0447 0CE46425 		.ascii	"\014\344d%\012\352\320\024\270\243z)\264\335\246Ju\261"
 149      0AEAD014 
 149      B8A37A29 
 149      B4DDA64A 
 149      75B1
 150 0459 E7C1AC81 		.ascii	"\347\301\254\201y\023\270\343Lh\251\246\0155\272\235"
 150      7913B8E3 
 150      4C68A9A6 
 150      0D35BA9D 
 151 0469 D2A3198D 		.ascii	"\322\243\031\215\264\373L\301\242\335\263W\263.\305"
 151      B4FB4CC1 
 151      A2DDB357 
 151      B32EC5
 152 0478 9E51E172 		.ascii	"\236Q\341r\342\243.z\355}\336e\260\034\3234\025\371"
 152      E2A32E7A 
 152      ED7DDE65 
 152      B01CD334 
 152      15F9
 153 048a E5C2BD46 		.ascii	"\345\302\275F\2136M+\334n\245\240\233A\336y\037\326"
 153      8B364D2B 
 153      DC6EA5A0 
 153      9B41DE79 
 153      1FD6
 154 049c 6BB83EF5 		.ascii	"k\270>\365\034r|\226\271(\232\265b|5;$.Hl\331\271\013"
 154      1C727C96 
 154      B9289AB5 
ARM GAS  /tmp/ccvmXpcS.s 			page 11


 154      627C353B 
 154      242E486C 
 155 04b3 7F823C73 		.ascii	"\177\202<s\215\200'\300M\216\224\213b-\214\310\257\025"
 155      8D8027C0 
 155      4D8E948B 
 155      622D8CC8 
 155      AF15
 156 04c5 F092B359 		.ascii	"\360\222\263Y/\302\345\225 B3\223\010?\235j\374\265"
 156      2FC2E595 
 156      20423393 
 156      083F9D6A 
 156      FCB5
 157 04d7 1C8BF2EC 		.ascii	"\034\213\362\354a\357\370\327\321;\352`\325\261A\300"
 157      61EFF8D7 
 157      D13BEA60 
 157      D5B141C0 
 158 04e7 91EF0B47 		.ascii	"\221\357\013GZ\221o\243\240\213|\333g\365\303l\343\372"
 158      5A916FA3 
 158      A08B7CDB 
 158      67F5C36C 
 158      E3FA
 159 04f9 D4B1EFA2 		.ascii	"\324\261\357\242\243w\354\373\321a\030\373f:\015c\337"
 159      A377ECFB 
 159      D16118FB 
 159      663A0D63 
 159      DF
 160 050a 7CA761EC 		.ascii	"|\247a\354[\341\324\306>\216!>%D\021\371M\002\216O\257"
 160      5BE1D4C6 
 160      3E8E213E 
 160      254411F9 
 160      4D028E4F 
 161 051f 08C6F149 		.ascii	"\010\306\361I\344_\214\333\2145>i\354\025[~\256\253"
 161      E45F8CDB 
 161      8C353E69 
 161      EC155B7E 
 161      AEAB
 162 0531 662F1A8F 		.ascii	"f/\032\217\3179\323\034?\247N\261\214\237\235\214\343"
 162      CF39D31C 
 162      3FA74EB1 
 162      8C9F9D8C 
 162      E3
 163 0542 A755EF7C 		.ascii	"\247U\357|KO\201\363\26529\337\232S\215\275\307\017"
 163      4B4F81F3 
 163      B53239DF 
 163      9A538DBD 
 163      C70F
 164 0554 FB3EDD1E 		.ascii	"\373>\335\036A\227\2206\012\014\033\036\212\036~Zq\033"
 164      41979036 
 164      0A0C1B1E 
 164      8A1E7E5A 
 164      711B
 165 0566 66F46D01 		.ascii	"f\364m\001\347\325/;\265>\254a\210td\306\304>\350\323"
 165      E7D52F3B 
 165      B53EAC61 
 165      887464C6 
 165      C43EE8D3 
 166 057a 48CE5EDF 		.ascii	"H\316^\337\241I\021\372i\025\322\3152[\215\024f`\247"
ARM GAS  /tmp/ccvmXpcS.s 			page 12


 166      A14911FA 
 166      6915D2CD 
 166      325B8D14 
 166      6660A7
 167 058d 587C73EA 		.ascii	"X|s\352\201\270\304\261k\227b\271d\340\356\207\210S"
 167      81B8C4B1 
 167      6B9762B9 
 167      64E0EE87 
 167      8853
 168 059f 9B9132E2 		.ascii	"\233\2212\342hq`\035\2447xK\007\030\274=\265\301g\324"
 168      6871601D 
 168      A437784B 
 168      0718BC3D 
 168      B5C167D4 
 169 05b3 457776AC 		.ascii	"Ewv\254\002\376a\256\254K\2723!\362\007`\252O\275u\200"
 169      02FE61AE 
 169      AC4BBA33 
 169      21F20760 
 169      AA4FBD75 
 170 05c8 C63248D2 		.ascii	"\3062H\322\236\236Z\021[\273:r\352E\221\357\020p\210"
 170      9E9E5A11 
 170      5BBB3A72 
 170      EA4591EF 
 170      107088
 171 05db 586C19CC 		.ascii	"Xl\031\314\245\001\333M\203\255b\0013\233\307\021\330"
 171      A501DB4D 
 171      83AD6201 
 171      339BC711 
 171      D8
 172 05ec DB34D87A 		.ascii	"\3334\330z\313`Z\316\366\322`\257\260\200\231m\001 "
 172      CB605ACE 
 172      F6D260AF 
 172      B080996D 
 172      0120
 173 05fe B02E1AEC 		.ascii	"\260.\032\354u\313`4g\323\243g:\016\342\305\330\255"
 173      75CB6034 
 173      67D3A367 
 173      3A0EE2C5 
 173      D8AD
 174 0610 5C832C4F 		.ascii	"\\\203,O\227\233\234fN\301q\320DN\332\004-\300\205["
 174      979B9C66 
 174      4EC171D0 
 174      444EDA04 
 174      2DC0855B 
 175 0624 B54E7AF4 		.ascii	"\265Nz\364\371\276\330Iq}\352\250tLqR5\341\331\006\302"
 175      F9BED849 
 175      717DEAA8 
 175      744C7152 
 175      35E1D906 
 176 0639 E17BD319 		.ascii	"\341{\323\031\264r\364\343\216lynN|A\2731\011\343\247"
 176      B472F4E3 
 176      8E6C796E 
 176      4E7C41BB 
 176      3109E3A7 
 177 064d F5A3EB78 		.ascii	"\365\243\353x\207\340\"\325\251\371>\331\261j\220\334"
 177      87E022D5 
 177      A9F93ED9 
ARM GAS  /tmp/ccvmXpcS.s 			page 13


 177      B16A90DC 
 178 065d B48F57F6 		.ascii	"\264\217W\366H\344Y\362}T_\375\325\276p\254\214\357"
 178      48E459F2 
 178      7D545FFD 
 178      D5BE70AC 
 178      8CEF
 179 066f 99ED7C00 		.ascii	"\231\355|\000R\220\263`\3057u\001\201\035\250\245\341"
 179      5290B360 
 179      C5377501 
 179      811DA8A5 
 179      E1
 180 0680 65B27FF8 		.ascii	"e\262\177\370\031\000\355\321\001\211\274M\267gf\323"
 180      1900EDD1 
 180      0189BC4D 
 180      B76766D3 
 181 0690 8E6A5B56 		.ascii	"\216j[V\242\320\323c\343\2545\026\270v\350\360t\302"
 181      A2D0D363 
 181      E3AC3516 
 181      B876E8F0 
 181      74C2
 182 06a2 FF344CA6 		.ascii	"\3774L\246\236U\257^\372r\36029ZkSU\361\201e\300\376"
 182      9E55AF5E 
 182      FA72F032 
 182      395A6B53 
 182      55F18165 
 183 06b8 3AA308DC 		.ascii	":\243\010\334\221t\375\206\022]]:\237\022\360\262\370"
 183      9174FD86 
 183      125D5D3A 
 183      9F12F0B2 
 183      F8
 184 06c9 63E16EBA 		.ascii	"c\341n\272\203\217XF\235YZ\217\206\360\005z\010\237"
 184      838F5846 
 184      9D595A8F 
 184      86F0057A 
 184      089F
 185 06db B40CE6D2 		.ascii	"\264\014\346\322\200}O\203\235f\001s\231s\366\003\015"
 185      807D4F83 
 185      9D660173 
 185      9973F603 
 185      0D
 186 06ec F6A96530 		.ascii	"\366\251e0-gWh\260/Y\300\214V/F\027=\035\242\371\012"
 186      2D675768 
 186      B02F59C0 
 186      8C562F46 
 186      173D1DA2 
 187 0702 52BF8360 		.ascii	"R\277\203`\251\017\201\036\002z\030\350Q\240\307\200"
 187      A90F811E 
 187      027A18E8 
 187      51A0C780 
 188 0712 1E07FA0F 		.ascii	"\036\007\372\017\240\337\002\275\000\364{\332\276Ir"
 188      A0DF02BD 
 188      00F47BDA 
 188      BE4972
 189 0721 97EE863B 		.ascii	"\227\356\206;q8{\017r\227\177d$\315]\366\233\210\212"
 189      71387B0F 
 189      72977F64 
 189      24CD5DF6 
ARM GAS  /tmp/ccvmXpcS.s 			page 14


 189      9B888A
 190 0734 B9BF9224 		.ascii	"\271\277\222$w\271\242\317]\2723\254\346.\224\031 s"
 190      77B9A2CF 
 190      5DBA33AC 
 190      E62E9419 
 190      2073
 191 0746 8D56EDD9 		.ascii	"\215V\355\331\"\3133\235\352 \273\251G4\032d\346\317"
 191      22CB339D 
 191      EA20BBA9 
 191      47341A64 
 191      E6CF
 192 0758 73A22756 		.ascii	"s\242'V\346t=\243\202\315\310\264\012\246\037\261\252"
 192      E6743DA3 
 192      82CDC8B4 
 192      0AA61FB1 
 192      AA
 193 0769 1D77831D 		.ascii	"\035w\203\035\337\002\213\374\025\350U\240\327\265\243"
 193      DF028BFC 
 193      15E855A0 
 193      D7B5A3
 194 0778 6F4EA63E 		.ascii	"oN\246>\310\221\244\227\302Kd\307\\jD3#m\027\250m\256"
 194      C891A497 
 194      C24B64C7 
 194      5C6A4433 
 194      236D17A8 
 195 078e 06E8B439 		.ascii	"\006\350\2649]#D\033O\243\261\220\362\031\256]E*\214"
 195      5D23441B 
 195      4FA3B190 
 195      F219AE5D 
 195      452A8C
 196 07a1 FB5CEC52 		.ascii	"\373\\\354R\363\276A\273e\271\277\310\3136\234=\036"
 196      F3BE41BB 
 196      65B9BFC8 
 196      CB369C3D 
 196      1E
 197 07b2 D1899F12 		.ascii	"\321\211\237\022G\340N\301-u6\355\034\027[\371\362\331"
 197      47E04EC1 
 197      2D7536ED 
 197      1C175BF9 
 197      F2D9
 198 07c4 7F5E06C8 		.ascii	"\177^\006\310\370\253\324\363\334\015\243U"
 198      F8ABD4F3 
 198      DC0DA355 
 199 07d0 3761CB4C 		.ascii	"7a\313L\207\263m:g^\221\245\262\222^\"~\363}\210)\030"
 199      87B36D3A 
 199      675E91A5 
 199      B2925E22 
 199      7EF37D88 
 200 07e6 57E0D65A 		.ascii	"W\340\326Z\006\323\032ea\033\225\0253=\257\333\372\352"
 200      06D31A65 
 200      611B9515 
 200      333DAFDB 
 200      FAEA
 201 07f8 F9DBF780 		.ascii	"\371\333\367\200\312^\260a\007\277\230\245\367\305v"
 201      CA5EB061 
 201      07BF98A5 
 201      F7C576
ARM GAS  /tmp/ccvmXpcS.s 			page 15


 202 0807 FD532A96 		.ascii	"\375S*\226<\372\032\213 \346\273N\310\222\207\357l\205"
 202      3CFA1A8B 
 202      20E6BB4E 
 202      C89287EF 
 202      6C85
 203 0819 C5A99AED 		.ascii	"\305\251\232\355\230\246i\002'\367\301\235-\320{\303"
 203      98A66902 
 203      27F7C19D 
 203      2DD07BC3 
 204 0829 D66D871F 		.ascii	"\326m\207\037$\336\260\200\311\033vv,eZ\02259\325\356"
 204      24DEB080 
 204      C91B7676 
 204      2C655A12 
 204      3539D5EE 
 205 083d 7DD0FDBB 		.ascii	"}\320\375\273\320\375\022}\367{v\234\177\224t\277\204"
 205      D0FD127D 
 205      F77B769C 
 205      7F9474BF 
 205      84
 206 084e A9FB3387 		.ascii	"\251\3733\207\026\0319\243\311\252U5\337\266\213\367"
 206      161939A3 
 206      C9AA5535 
 206      DFB68BF7 
 207 085e AD814E56 		.ascii	"\255\201NV\200\003\275\220\2557\337\010z\327\236S\236"
 207      8003BD90 
 207      AD37DF08 
 207      7AD79E53 
 207      9E
 208 086f E453FEBB 		.ascii	"\344S\376\2738[\345>-\377Eb\356\033\261\011,\245\362"
 208      385BE53E 
 208      2DFF4562 
 208      EE1BB109 
 208      2CA5F2
 209 0882 B0DC32A2 		.ascii	"\260\3342\242\326\211\277?\004#\202\200\255f\001K\022"
 209      D689BF3F 
 209      04238280 
 209      AD66014B 
 209      12
 210 0893 D97FA0C1 		.ascii	"\331\177\240\301\326Z\006\323rv\205\006\333\300\002"
 210      D65A06D3 
 210      72768506 
 210      DBC002
 211 08a2 66FEE433 		.ascii	"f\376\3443z\225\006\333d\031L\313\331u\032l3\013\230"
 211      7A9506DB 
 211      64194CCB 
 211      D9751A6C 
 211      330B98
 212 08b5 F9266DF4 		.ascii	"\371&m\364G\032l\253e0-g7i\260\355,`.s\316\352\217P"
 212      471A6CAB 
 212      65302D67 
 212      3769B0ED 
 212      2C602E73 
 213 08cd 60AD96C1 		.ascii	"`\255\226\301\264\2345\320`{X\300\222\354E/\242\301"
 213      B49C35D0 
 213      607B58C0 
 213      92EC452F 
 213      A2C1
ARM GAS  /tmp/ccvmXpcS.s 			page 16


 214 08df F65906D3 		.ascii	"\366Y\006\323r\266\204\006\333\317\0026\304\234\263"
 214      72B68406 
 214      DBCF0236 
 214      C49CB3
 215 08ee 6534D801 		.ascii	"e4\330\001\313`Z\316V\320`\037\262\200\0157\347l\025"
 215      CB605ACE 
 215      56D0601F 
 215      B2800D37 
 215      E76C15
 216 0901 0D76D832 		.ascii	"\015v\3302\230\226\263-4\3301\026\260\307\3149\333F"
 216      9896B32D 
 216      34D83116 
 216      B0C7CC39 
 216      DB46
 217 0913 839DB00C 		.ascii	"\203\235\260\014\246\345\354M\032\354\024\013\330\030"
 217      A6E5EC4D 
 217      1AEC140B 
 217      D818
 218 0921 73CE76D0 		.ascii	"s\316v\320`\247-\203i9\333E\203\235e\001+1\347l7\015"
 218      60A72D83 
 218      6939DB45 
 218      839D6501 
 218      2B31E76C 
 219 0937 F6996530 		.ascii	"\366\231e0-go\323`\347X\300\2362\347l/\015\366\265e"
 219      2D676FD3 
 219      60E758C0 
 219      9E32E76C 
 219      2F0DF6B5 
 220 094c 302D675D 		.ascii	"0-g]4\330w,`\317\030p\026\277\314\362\314\3056*W\377"
 220      34D8772C 
 220      60CF1870 
 220      16BFCCF2 
 220      CCC5362A 
 221 0962 3E5B4D70 		.ascii	">[Mp,\316\321\\\002\343J\266\325\214L#7\316\255\357"
 221      2CCED15C 
 221      02E34AB6 
 221      D58C4C23 
 221      37CEADEF 
 222 0976 DCADCCF3 		.ascii	"\334\255\314\363$Y\375\221\0051\311\004\270\242\215"
 222      2459FD91 
 222      0531C904 
 222      B8A28D
 223 0985 CA7C67E4 		.ascii	"\312|g\344X\005\323\271r\233~9\302p\300'q\344\225:\324"
 223      5805D3B9 
 223      729B7E39 
 223      C270C027 
 223      71E4953A 
 224 099a 35C8B82D 		.ascii	"5\310\270-Zk\333\360j\356\204-\361\310\365D|\003\011"
 224      5A6BDBF0 
 224      6AEE842D 
 224      F1C8F544 
 224      7C0309
 225 09ad 97C863E3 		.ascii	"\227\310c\343\027r\264\017u\342W\252[\315<\341\030\355"
 225      1772B40F 
 225      75E257AA 
 225      5BCD3CE1 
 225      18ED
ARM GAS  /tmp/ccvmXpcS.s 			page 17


 226 09bf 090B58D4 		.ascii	"\011\013X\324\224dj?\323\266\012\036\322\261\037b\333"
 226      94646A3F 
 226      D3B60A1E 
 226      D2B11F62 
 226      DB
 227 09d0 FAEA6165 		.ascii	"\372\352ae\201\360\277\260@X\226\243\3170\273,\036c"
 227      81F0BFB0 
 227      405896A3 
 227      CF30BB2C 
 227      1E63
 228 09e2 4379985E 		.ascii	"Cy\230^\012\243GW\3469\005\362\305\223w\265\276.\313"
 228      0AA34757 
 228      E63905F2 
 228      C59377B5 
 228      BE2ECB
 229 09f5 754E2B72 		.ascii	"uN+r\034P\3448\013rl\372\005\344\330jY\216\373tr\354"
 229      1C50E438 
 229      0B726CFA 
 229      05E4D86A 
 229      598EFB74 
 230 0a0b BBCFBA1C 		.ascii	"\273\317\272\034'\0259\276\0009Z\177\0019\366Y\226c"
 230      271539BE 
 230      00395A7F 
 230      0139F659 
 230      9663
 231 0a1d 082507AC 		.ascii	"\010%\007\254\326\006\223\325\032\323\246\372\3276\335"
 231      D60693D5 
 231      1AD3A6FA 
 231      D736DD
 232 0a2c A6FAC983 		.ascii	"\246\372\311\203\274\213T\247Z&\311\321\356\203\324"
 232      BC8B54A7 
 232      5A26C9D1 
 232      EE83D4
 233 0a3b 1257665B 		.ascii	"\022Wf[\342^T4\366-h\254]\2471v\244\356\316\367\266"
 233      E25E5434 
 233      F62D68AC 
 233      5DA73176 
 233      A4EECEF7 
 234 0a50 2AE7642F 		.ascii	"*\347d/\002Tg\332P-Gv\222\263\241?\000\320\337zY\321"
 234      025467DA 
 234      502D4776 
 234      92B3A13F 
 234      00D0DF7A 
 235 0a66 A933A253 		.ascii	"\2513\242SkD\364\021\367t\025\257\270\371\277(5\370"
 235      6B44F411 
 235      F77415AF 
 235      B8F9BF28 
 235      35F8
 236 0a78 4306F7FF 		.ascii	"C\006\367\377~\237\300\305\200}l@\213\023T\302\201\036"
 236      7E9FC0C5 
 236      807D6C40 
 236      8B1354C2 
 236      811E
 237 0a8a 68552617 		.ascii	"hU&\027b\244s?\013\2616\332\362\374j\345\321\313\010"
 237      62A4733F 
 237      0BB136DA 
 237      F2FC6AE5 
ARM GAS  /tmp/ccvmXpcS.s 			page 18


 237      D1CB08
 238 0a9d 3CBD5CF8 		.ascii	"<\275\\\370\231p\207;\254o\254\354\273\203x\335O Pw"
 238      9970873B 
 238      AC6FACEC 
 238      BB8378DD 
 238      4F205077 
 239 0ab1 2F0BA7B5 		.ascii	"/\013\247\265\261RwK\232\202\304/\201\233{\013\303$"
 239      B152774B 
 239      9A82C42F 
 239      819B7B0B 
 239      C324
 240 0ac3 E24A66AD 		.ascii	"\342Jf\255k\203\0317g\342[~\347\007\265\223\2159;\336"
 240      6B831937 
 240      67E25B7E 
 240      E707B593 
 240      8D393BDE 
 241 0ad7 F29B778B 		.ascii	"\362\233w\213\361\031\315$\233<\253\341\226Y\366^[~"
 241      F119CD24 
 241      9B3CABE1 
 241      9659F65E 
 241      5B7E
 242 0ae9 876F27BB 		.ascii	"\207o'\273,\370+\206M\236Y\252_\220\235\27496A\201M"
 242      2CF82B86 
 242      4D9E59AA 
 242      5F909DBC 
 242      39364181 
 243 0afe 579F1A13 		.ascii	"W\237\032\023&\370C\320v\234/<g\327\354\365n\266\254"
 243      26F843D0 
 243      769C2F3C 
 243      67D7ECF5 
 243      6EB6AC
 244 0b11 7B17ADFB 		.ascii	"{\027\255\373\350\215\216U<\346\337`_\3521:\213\213"
 244      E88D8E55 
 244      3CE6DF60 
 244      5FEA313A 
 244      8B8B
 245 0b23 2BFEECED 		.ascii	"+\376\354\355\007\310\366\036(~\247\211\342M\017\307"
 245      07C8F61E 
 245      287EA789 
 245      E24D0FC7 
 246 0b33 0A5C1BDC 		.ascii	"\012\\\033\3342\277\267\342\017\334A\024?\237I\361\307"
 246      32BFB7E2 
 246      0FDC4114 
 246      3F9F49F1 
 246      C7
 247 0b44 0C153FDF 		.ascii	"\014\025?\337\272\342\025\274\277%\366ME~\256e0W2+\316"
 247      BAE215BC 
 247      BF25F64D 
 247      457EAE65 
 247      3057322B 
 248 0b59 A7ACB800 		.ascii	"\247\254\270\000\254\330`\307\273\354\013\265\266<\241"
 248      ACD860C7 
 248      BBEC0BB5 
 248      B63CA1
 249 0b68 B7A54673 		.ascii	"\267\245FsJ\321t\317@\216.\354T\037\017\223\230\367"
 249      4AD174CF 
 249      408E2EEC 
ARM GAS  /tmp/ccvmXpcS.s 			page 19


 249      541F0F93 
 249      98F7
 250 0b7a 298B6F24 		.ascii	")\213o$Y\3517v\202JH\2749o\031\314\245\001\3333\217"
 250      59E93776 
 250      824A48BC 
 250      396F19CC 
 250      A501DB33 
 251 0b8f F1449AE6 		.ascii	"\361D\232\346\004\240\300\375\000\375\256\324\273\313"
 251      04A0C0FD 
 251      00FDAED4 
 251      BBCB
 252 0b9d E5EF0ECF 		.ascii	"\345\357\016\317\346\247\303\324\271\222\301_\320<\377"
 252      E6A7C3D4 
 252      B992C15F 
 252      D03CFF
 253 0bac 79161CAA 		.ascii	"y\026\034\252&~\373z_\0255\211\252\223x\313\215\363"
 253      267EFB7A 
 253      5F153589 
 253      AA9378CB 
 253      8DF3
 254 0bbe CA196DB2 		.ascii	"\312\031m\262\332\330\241\207K\271\030\322\302\335\224"
 254      DAD8A187 
 254      4BB918D2 
 254      C2DD94
 255 0bcd DA875853 		.ascii	"\332\207XS\214zf\252\025g:\353A\246\275}\3653\002\321"
 255      8C7A66AA 
 255      15673AEB 
 255      41A6BD7D 
 255      F53302D1 
 256 0be1 0CE5882B 		.ascii	"\014\345\210+)G\\\015\216\330\010\216\330\004\264\231"
 256      29475C0D 
 256      8ED8088E 
 256      D804B499 
 257 0bf1 7647B364 		.ascii	"vG\263dk\235\235Z>\274oYn\227\316:f\335\254\240\273"
 257      6B9D9D5A 
 257      3EBC6F59 
 257      6E97CE3A 
 257      66DDACA0 
 258 0c06 F9B02F83 		.ascii	"\371\260/\203\357\231o\014\341\240\376;5\035 \217%\216"
 258      EF996F0C 
 258      E1A0FE3B 
 258      351D208F 
 258      258E
 259 0c18 5B46D47A 		.ascii	"[F\324z\363\305y\232t\340\023\026\270\307\014\0304\272"
 259      F3C5799A 
 259      74E01316 
 259      B8C70C18 
 259      34BA
 260 0c2a E8075122 		.ascii	"\350\007Q\"?\023V\211\263l\330@\317\001}\036h=\320."
 260      3F135689 
 260      B36CD840 
 260      CF017D1E 
 260      683DD02E 
 261 0c3e A047807E 		.ascii	"\240G\200~\004\364\024\320\030\320\317\201~\005\264"
 261      04F414D0 
 261      18D0CF81 
 261      7E05B4
ARM GAS  /tmp/ccvmXpcS.s 			page 20


 262 0c4d 164CFC3C 		.ascii	"\026L\374<\320\305@\227\002]\016t\023\320WS9\2002\013"
 262      D0C54097 
 262      025D0E74 
 262      13D05753 
 262      3980320B 
 263 0c61 6CEF3E79 		.ascii	"l\357>y\347k\020\253{\340Aos?\275\347\315\266\351\036"
 263      E76B10AB 
 263      7BE0416F 
 263      733FBDE7 
 263      CDB6E91E 
 264 0c75 13F47ACE 		.ascii	"\023\364z\316\265\275\037\303\363\302$Ot\226\237\373"
 264      B5BD1FC3 
 264      F3C2244F 
 264      74969FFB 
 265 0c85 72DA9E5A 		.ascii	"r\332\236Zb\323\365\340\326\253\354\272\003\214\251"
 265      62D3F5E0 
 265      D6ABECBA 
 265      038CA9
 266 0c94 8F266B8D 		.ascii	"\217&k\215\372q\243\371O15\017l\342g\317\356I\350\344"
 266      FA71A3F9 
 266      4F31350F 
 266      6CE267CF 
 266      EE49E8E4 
 267 0ca8 DA8D93FF 		.ascii	"\332\215\223\377C\316\260\265\300h\274\252\323IJ\034"
 267      43CEB0B5 
 267      C068BCAA 
 267      D3494A1C 
 268 0cb8 ACA51DBA 		.ascii	"\254\245\035\2720\027\275x\232\374H3u\210\233Q\027\275"
 268      3017BD78 
 268      9AFC4833 
 268      75889B51 
 268      17BD
 269 0cca 7C7A91E2 		.ascii	"|z\221\342\224\344D\301\214\376\274\202\231\306\224"
 269      94E444C1 
 269      8CFEBC82 
 269      99C694
 270 0cd9 888F279C 		.ascii	"\210\217'\234\246\216'\314\261\014\346\322\200]\245"
 270      A68E27CC 
 270      B10CE6D2 
 270      805DA5
 271 0ce8 C15E6001 		.ascii	"\301^`\001Kr\370\354:\0156\3372\230\226\263\037i\260"
 271      4B72F8EC 
 271      3A0D36DF 
 271      329896B3 
 271      1F69B0
 272 0cfb 0616B024 		.ascii	"\006\026\260$\207\317n\322`\313,\203i9\253?C\201\255"
 272      87CF6ED2 
 272      60CB2C83 
 272      6939AB3F 
 272      4381AD
 273 0d0e 61014B72 		.ascii	"a\001Kr\246\246\201\006{\3112\230\226\263E4\330\353"
 273      A6A68106 
 273      7BC93298 
 273      96B34534 
 273      D8EB
 274 0d20 2C602E03 		.ascii	",`.\003\316\214.z\020\210\374N\230\244vAt\332\015\364"
 274      CE8C2E7A 
ARM GAS  /tmp/ccvmXpcS.s 			page 21


 274      1088FC4E 
 274      98A47641 
 274      74DA0DF4 
 275 0d34 6DA07B81 		.ascii	"m\240{\201F\201\276\013\364=\240\357\003mg\231\310\266"
 275      4681BE0B 
 275      F43DA0EF 
 275      036D6799 
 275      C8B6
 276 0d46 D133CC9B 		.ascii	"\3213\314\233\375\031\242Q\222\035\244\345\347\272\376"
 276      FD19A251 
 276      921DA4E5 
 276      E7BAFE
 277 0d55 FBE71C7E 		.ascii	"\373\347\034~\216]\\w\360\337q\370H}\000\272\323\316"
 277      8E5D5C77 
 277      F0DF71F8 
 277      487D00BA 
 277      D3CE
 278 0d67 7600BA4B 		.ascii	"v\000\272K\037K.wB,\351bJ\257\273\031\323\265(Ok'\036"
 278      1F4B2E77 
 278      422CE962 
 278      4AAFBB19 
 278      D3B5284F 
 279 0d7e 0B0F3C4A 		.ascii	"\013\017<Jb\341G\020\013{\372\247\214\205Z\034\330\036"
 279      62E14710 
 279      0B7BFAA7 
 279      8C855A1C 
 279      D81E
 280 0d90 D5F3DF72 		.ascii	"\325\363\337r\010\370?\316\024\013w\036\322\306\302"
 280      08F83FCE 
 280      140B771E 
 280      D2C6C2
 281 0d9f 8601BC82 		.ascii	"\206\001\274\202\231^,\334u\210>\210k\031\314\245\001"
 281      995E2CDC 
 281      75883E88 
 281      6B19CCA5 
 281      01
 282 0db0 DB4D83AD 		.ascii	"\333M\203\255`\001Kv\020\227\006k\264\014\246\345l/"
 282      60014B76 
 282      1097066B 
 282      B40CA6E5 
 282      6C2F
 283 0dc2 0DB68E05 		.ascii	"\015\266\216\005,\331A\\\032l\243e0\227\221y\271^\336"
 283      2CD9415C 
 283      1A6CA365 
 283      30979179 
 283      B95EDE
 284 0dd5 21F22720 		.ascii	"!\362' H\234\204\241\177\012\350\307@\317\000=\013\364"
 284      489C84A1 
 284      7F0AE8C7 
 284      40CF003D 
 284      0BF4
 285 0de7 53969070 		.ascii	"S\226\220p\224\016\011\257\001\303]\351.(\321\210\376"
 285      940E09AF 
 285      01C35DE9 
 285      2E28D188 
 285      FE
 286 0df8 E4F7BB7B 		.ascii	"\344\367\273{\207\004\242\0173\016\316\321\034\264X"
ARM GAS  /tmp/ccvmXpcS.s 			page 22


 286      8704A20F 
 286      330ECED1 
 286      1CB458
 287 0e07 E6C04573 		.ascii	"\346\300Es\020\275\321I6\347\325_\236\357\322\343\031"
 287      10BDD149 
 287      36E7D55F 
 287      9EEFD2E3 
 287      19
 288 0e18 6DCB265B 		.ascii	"m\313&[\245tfoyF\005{\3072X\246\006\254\376\020\005"
 288      A574666F 
 288      7946057B 
 288      C73258A6 
 288      06ACFE10 
 289 0e2d 76C03298 		.ascii	"v\3002\230\331\021\271\303\340\013G\300\346_\000=\017"
 289      D911B9C3 
 289      E00B47C0 
 289      E65F003D 
 289      0F
 290 0e3e F46BA0DF 		.ascii	"\364k\240\337h\027\334]\003z\355u\353WL\211(\312\261"
 290      6817DC5D 
 290      037AED75 
 290      EB574C89 
 290      28CAB1
 291 0e51 E29AD9F6 		.ascii	"\342\232\331\366\003\332\266\237\016`\230p\\\346\336"
 291      03DAB69F 
 291      0E609870 
 291      5CE6DE
 292 0e60 B5FCDC05 		.ascii	"\265\374\334\005e\302!\300h\201n\031Q\353-\213\3174"
 292      65C221C0 
 292      68816E19 
 292      51EB2D8B 
 292      CF34
 293 0e72 6A0E977F 		.ascii	"j\016\227\177\307\202\227\344\004\303*\222\"\020\260"
 293      C78297E4 
 293      04C32A92 
 293      2210B0
 294 0e81 6B96C15C 		.ascii	"k\226\301\\\234\351E\377\262\014-H\341P\344z8\266\370"
 294      9CE945FF 
 294      B20C2D48 
 294      E150E47A 
 294      38B6F8
 295 0e94 26D09B40 		.ascii	"&\320\233@\267\200e\266\002\355\000z\021\350%\240\227"
 295      B78065B6 
 295      02ED007A 
 295      11E825A0 
 295      97
 296 0ea5 592CD648 		.ascii	"Y,\326H\037p\254\033\010k\335t\177!\023[\330v|-\277"
 296      1F70AC1B 
 296      086BDD74 
 296      7F21135B 
 296      D8767C2D 
 297 0eba B04EC6BF 		.ascii	"\260N\306\277\306\336\016\313\2469\226\021\265\026\273"
 297      C6DE0ECB 
 297      A6399611 
 297      B516BB
 298 0ec9 42B6AC08 		.ascii	"B\266\254\010\330<\0260\243\301M\251\225(t\025(t59\015"
 298      D83C1630 
ARM GAS  /tmp/ccvmXpcS.s 			page 23


 298      A3C14DA9 
 298      95287415 
 298      28743539 
 299 0ede 0ACABAAE 		.ascii	"\012\312\272\256\0356\213\006\366\332h\320\237/]\251"
 299      1D368B06 
 299      F6DA68D0 
 299      9F2F5DA9 
 300 0eee 395F6A8A 		.ascii	"9_j\212e\246\370\245\011\305\213\374O\360\3034+?\353"
 300      65A6F8A5 
 300      09C58BFC 
 300      4FF0C334 
 300      2B3FEB
 301 0f01 D4AAA9A7 		.ascii	"\324\252\251\247M\015\203\344o\210\032\201\375\024?"
 301      4D0D83E4 
 301      6F881A81 
 301      FD143F
 302 0f10 C435DA16 		.ascii	"\3045\332\0263\272\350\277\377A\336\006?\014\332\006"
 302      33BAE8BF 
 302      FF41DE06 
 302      3F0CDA06 
 303 0f20 BF14BF0C 		.ascii	"\277\024\277\014t\036\210\336\000t\021\320%@\177bQ\303"
 303      741E88DE 
 303      007411D0 
 303      25407F62 
 303      51C3
 304 0f32 6B3CA506 		.ascii	"k<\245\006\352\307c(\345\326\231\340\036n\235,7\304"
 304      EAC76328 
 304      E5D699E0 
 304      1E6E9D2C 
 304      37C4
 305 0f44 F65FEA72 		.ascii	"\366_\352r,\227\243vr\253\300\265A\263\227\370\273\014"
 305      2C97A376 
 305      72ABC0B5 
 305      41B397F8 
 305      BB0C
 306 0f56 BB887700 		.ascii	"\273\210w\000\177\017U+\1773sf\177^\375\003&\315m\272"
 306      7F0F552B 
 306      7F337366 
 306      7F5EFD03 
 306      26CD6DBA 
 307 0f6a DF48C2D7 		.ascii	"\337H\302\327=v\243\277\213\352R\377.\212\374?\223\300"
 307      3D76A3BF 
 307      8BEA52FF 
 307      2E8AFC3F 
 307      93C0
 308 0f7c 7D60C8A9 		.ascii	"}`\310\251\334*\215!\335\213\374t\007\266o\235#-&\251"
 308      DC2A8D21 
 308      DD8BFC74 
 308      07B66F9D 
 308      232D26A9 
 309 0f90 DB8C989C 		.ascii	"\333\214\230\234\3410b\362j\202\311f`\362\234\216"
 309      E13062F2 
 309      6A82C966 
 309      60F29C8E 
 310 0fa0 49E37FCC 		.ascii	"I\343\177\314\232\355\320\375c\326\234\336\350\261\372"
 310      9AEDD0FD 
 310      63D69CDE 
ARM GAS  /tmp/ccvmXpcS.s 			page 24


 310      E8B1FA
 311 0faf D8D19DEF 		.ascii	"\330\321\235\357^\343k\327\315\212\342>\376\022\357"
 311      5EE36BD7 
 311      CD8AE23E 
 311      FE12EF
 312 0fbe 63C7ADFA 		.ascii	"c\307\255\372>\010\310\363Z\220\177\345\326\312[\242"
 312      3E08C8F3 
 312      5A907FE5 
 312      D6CA5BA2 
 313 0fce B10D9D8B 		.ascii	"\261\015\235\213x\271\251V\226o\366\364\360\306\313"
 313      78B9A956 
 313      966FF6F4 
 313      F0C6CB
 314 0fdd 88681F55 		.ascii	"\210h\037U\340\215\324\363\334k\227.\2140YH\350n@\316"
 314      E08DD4F3 
 314      DC6B972E 
 314      8C305948 
 314      E86E40CE 
 315 0ff1 E9305C4A 		.ascii	"\3510\\J\350\332\301\017\303\035\272d\374\022Y"
 315      E8DAC10F 
 315      C31DBA64 
 315      FC1259
 316 1000 4CE0FAD4 		.ascii	"L\340\372\324{\257\327:M\0372\304\342y\377\235q\031"
 316      7BAFD73A 
 316      4D1F32C4 
 316      E279FF9D 
 316      7119
 317 1012 A2873BF1 		.ascii	"\242\207;\361\256\346B\007^;\264\351\324\226\022\003"
 317      AEE64207 
 317      5E3BB4E9 
 317      D4961203 
 318 1022 B3B344CF 		.ascii	"\263\263D\317\356B\302\356\022\006vk\243K;\265?\263"
 318      EE42C2EE 
 318      1206766B 
 318      A34B3BB5 
 318      3FB3
 319 1034 FA3BB080 		.ascii	"\372;\260\200\357M+\362GWtR3a\3142\230K\003\326H\203"
 319      EF4D2BF2 
 319      47577452 
 319      3361CC32 
 319      984B03D6 
 320 104a 9D63014B 		.ascii	"\235c\001K\222\321m\243\301\276\263\014\246\345l\007"
 320      92D16DA3 
 320      C1BEB30C 
 320      A6E56C07 
 321 105a 0D769905 		.ascii	"\015v\231\005,\311a\236\3354\3305\313`Z\316\366\322"
 321      2CC9619E 
 321      DD34D835 
 321      CB605ACE 
 321      F6D2
 322 106c 603759C0 		.ascii	"`7Y\300\214\366Q\214.\332\325\320\264\345\300\341\177"
 322      8CF6518C 
 322      2EDAD5D0 
 322      B4E5C0E1 
 322      7F
 323 107d 990307F8 		.ascii	"\231\003\007\370\025@W\001m\004\332\004\264\031\350"
 323      15405701 
ARM GAS  /tmp/ccvmXpcS.s 			page 25


 323      6D04DA04 
 323      B419E8
 324 108c 7A876646 		.ascii	"z\207fF\255\273\215W\006\231\241K\247r19Z?\001\013H"
 324      ADBB8D57 
 324      0699A14B 
 324      A7723139 
 324      5A3F010B 
 325 10a1 46CC5C26 		.ascii	"F\314\\&0\323\315\0149\272\214\002[\300\004f\272\367"
 325      30D3CD0C 
 325      39BA8C02 
 325      5BC00466 
 325      BAF7
 326 10b3 2E47B750 		.ascii	".G\267P`\313\230\300L\217\361\311\321]\024\330\032&"
 326      60CB98C0 
 326      4C8FF1C9 
 326      D15D14D8 
 326      1A26
 327 10c5 B0A03967 		.ascii	"\260\2409g\027(\260\227\230\300\346\360\006\254Q\276"
 327      1728B097 
 327      98C0E6F0 
 327      06AC51BE 
 328 10d5 A03CE103 		.ascii	"\240<\341\003/h\000;\277\014t\023\320W\201n\006\372"
 328      2F68003B 
 328      BF0C7413 
 328      D057816E 
 328      06FA
 329 10e7 86D6FE9B 		.ascii	"\206\326\376\233o\323gT$\260R\330\211\010\314YE\337"
 329      6FD36754 
 329      24B052D8 
 329      8908CC59 
 329      45DF
 330 10f9 1947370F 		.ascii	"\031G7\017\360\333\320,\364/\334\301\333V\313d\204\017"
 330      F0DBD02C 
 330      F42FDCC1 
 330      DB56CB64 
 330      840F
 331 110b E35AE439 		.ascii	"\343Z\3449\321gD\376E\350\027\367G\252\202De\304\315"
 331      D16744FE 
 331      45E817F7 
 331      47AA8244 
 331      65C4CD
 332 111e 314A4616 		.ascii	"1JF\026\327\364\234\374\221\240\370\274R\305)\316\257"
 332      D7F49CFC 
 332      91A0F8BC 
 332      52C529CE 
 332      AF
 333 112f 7C7CA31B 		.ascii	"||\243\033\2377 #A\251\232\331|\254\311\251\014\013"
 333      9F372023 
 333      41A99AD9 
 333      7CACC9A9 
 333      0C0B
 334 1141 A5EA4C8F 		.ascii	"\245\352L\217M\031!J\205\374-\257\014\026\265\"z?\247"
 334      4D19214A 
 334      85FC2DAF 
 334      0C16B522 
 334      7A3FA7
 335 1154 086ECE8E 		.ascii	"\010n\316\216\314'\345\205\234}\320\360r\354\225c\257"
ARM GAS  /tmp/ccvmXpcS.s 			page 26


 335      CC27E585 
 335      9C7DD0F0 
 335      72EC9563 
 335      AF
 336 1165 38B4BCF4 		.ascii	"8\264\274\364\350y\341\264\234\300\347MI\371\340\322"
 336      E879E1B4 
 336      9CC0E74D 
 336      49F9E0D2 
 337 1175 60636E3A 		.ascii	"`cn:l\274\372\213\263\221\22666\377\262l\024\245\301"
 337      6CBCFA8B 
 337      B3919636 
 337      36FFB26C 
 337      14A5C1
 338 1188 C21BBF2C 		.ascii	"\302\033\277,\013\234e\026z\375\312\021'\177f\371\375"
 338      0B9C6516 
 338      7AFDCA11 
 338      277F66F9 
 338      FD
 339 1199 5B8EC453 		.ascii	"[\216\304S\262\302\334\362@\245\224\353\015\370\246"
 339      B2C2DCF2 
 339      40A594EB 
 339      0DF8A6
 340 11a8 E5FAA429 		.ascii	"\345\372\244)\271\336r\377$\177 \234\033\011UW=\233"
 340      B9DE72FF 
 340      247F209C 
 340      1B095557 
 340      3D9B
 341 11ba 8B0AE562 		.ascii	"\213\012\345bE\356\244\200\030\362\205sK'z\306?Q0\266"
 341      45EEA480 
 341      18F28573 
 341      4B277AC6 
 341      3F5130B6 
 342 11ce 688267D4 		.ascii	"h\202g\324\260!y\356\"R?\330\313\345x<\222\030\252\230"
 342      B02179EE 
 342      22523FD8 
 342      CBE5783C 
 342      9218AA98 
 343 11e2 E6F157F9 		.ascii	"\346\361W\371#\316\321\343\237p\025p\016\317\343\201"
 343      23CED1E3 
 343      9F701570 
 343      0ECFE381 
 344 11f2 40C5432C 		.ascii	"@\305C,\360\376*oE\265O\312\255\254\364z\302A\377\340"
 344      F0FE2A6F 
 344      45B54FCA 
 344      ADACF47A 
 344      C241FFE0 
 345 1206 722E6BDC 		.ascii	"r.k\334\270\202\302\220\177\212\024\312\211\227\236"
 345      B882C290 
 345      7F8A14CA 
 345      89979E
 346 1215 1C3731DB 		.ascii	"\03471\333\037F]\204\245PD\362\345\240r0\024\210H^\364"
 346      1F465D84 
 346      A55044F2 
 346      E5A07230 
 346      1488485E 
 347 122a 21C31BA8 		.ascii	"!\303\033\250\252B\245>>\177X)\336\223[\035\016\345"
 347      AA42A53E 
ARM GAS  /tmp/ccvmXpcS.s 			page 27


 347      3E7F5829 
 347      DE935B1D 
 347      0EE5
 348 123c 8AA1CA07 		.ascii	"\212\241\312\007\253\002U\322\203\2228\311\037\357("
 348      AB0255D2 
 348      839238C9 
 348      1FEF28
 349 124b 1CF1F9AB 		.ascii	"\034\361\371\253\"\250\237\314j\364>4\337\023\031\226"
 349      22A89FCC 
 349      6AF43E34 
 349      DF131996 
 350 125b A475A588 		.ascii	"\244u\245\210\270\256\222r=>\251L\254\256\210x\"\323"
 350      B8AE9272 
 350      3D3EA94C 
 350      ACAE8878 
 350      22D3
 351 126d 825218DD 		.ascii	"\202R\030\335\335\307\343Q\357\317\300\205\341\236H"
 351      DDC7E351 
 351      EFCFC085 
 351      E19E48
 352 127c 16A94225 		.ascii	"\026\251B%{H\022}\216\251!\177D\262\207\247Uy\177gE"
 352      7B48127D 
 352      8EA9217F 
 352      44B287A7 
 352      55797F67 
 353 1291 13A8ECF1 		.ascii	"\023\250\354\361\007&U\004\274\317\242~\372=\216\013"
 353      07265504 
 353      BCCFA27E 
 353      FA3D8E0B 
 354 12a1 85D214BF 		.ascii	"\205\322\024\277W*\256*\013dN\252x\326\023\366\377\227"
 354      572AAE2A 
 354      0B644EAA 
 354      78D613F6 
 354      FF97
 355 12b3 94810B55 		.ascii	"\224\201\013U\325\225\231\223\245\010RLY\3006\2452\322"
 355      D5959993 
 355      A508524C 
 355      59C036A5 
 355      32D2
 356 12c5 07558623 		.ascii	"\007U\206#bD\362D\372<>\366\017\236'\306\027\217/\236"
 356      6244F244 
 356      FA3C3EF6 
 356      0F9E27C6 
 356      178F2F9E 
 357 12d9 98898BA5 		.ascii	"\230\211\213\245\023'\224@\335\310\202\211\305O\026"
 357      13279440 
 357      DDC88289 
 357      C54F16
 358 12e8 F5C5C582 		.ascii	"\365\305\305\202\011\343\307\027\241\217\343G\017\300"
 358      09E3C717 
 358      A18FE347 
 358      0FC0
 359 12f6 1F0B8B4B 		.ascii	"\037\013\213K\0235Y\270\306]4\262\360\351l\265\204j"
 359      133559B8 
 359      C65D34B2 
 359      F0E96CB5 
 359      846A
ARM GAS  /tmp/ccvmXpcS.s 			page 28


 360 1308 A1FC4777 		.ascii	"\241\374Gw\361D\265\\\372\364\370\002Tv@\2576\257\337"
 360      F144B55C 
 360      FAF4F802 
 360      547640AF 
 360      36AFDF
 361 131b 67F3867D 		.ascii	"g\363\206}\231^1(z\375\221iL\036\026\014\204\"\330\301"
 361      995E3128 
 361      7AFD9169 
 361      4C1E160C 
 361      8422D8C1 
 362 132f C60DCDCF 		.ascii	"\306\015\315\317\035;\2660\267\264\244xJ^.r\006OE\205"
 362      1D3BB630 
 362      B7B4A478 
 362      4A5E2E72 
 362      064F4585 
 363 1343 0F3B04AA 		.ascii	"\017;\004\252 n\220oE\217\304\233\372\2407U#\010G\325"
 363      206E906F 
 363      458FC49B 
 363      FAA03755 
 363      230847D5 
 364 1357 082E628D 		.ascii	"\010.b\215`l\"%|Kt\223\203\213\005\023\306\225\214-"
 364      606C2225 
 364      7C4B7493 
 364      838B0513 
 364      C6958C2D 
 365 136b 9A58740B 		.ascii	"\232Xt\013\002\360\212\025\025\223D\357\263\236\210"
 365      02F08A15 
 365      159344EF 
 365      B39E88
 366 137a 53AAF279 		.ascii	"S\252\362y\274\223\212\322\221ktI\361\204)\371\271A"
 366      BC938AD2 
 366      916B7449 
 366      F18429F9 
 366      B941
 367 138c 645F2258 		.ascii	"d_\"XN8R\211\034hr\320\037\360D\034\343&\024\026\271"
 367      4E385289 
 367      1C6872D0 
 367      1FF0441C 
 367      E3261416 
 368 13a1 9D13263E 		.ascii	"\235\023&>]R\344\316\230PZRTT\350v\224<QR\350\266\025"
 368      5D52E4CE 
 368      98505A52 
 368      5454E876 
 368      943C5152 
 369 13b8 A3D78442 		.ascii	"\243\327\204B7\377G\360\331\274\207\220,\304\327p\321"
 369      37FF47F0 
 369      D9BC8790 
 369      2CC4D770 
 369      D1
 370 13c9 1696220E 		.ascii	"\026\226\"\016o\005\032\204\374\030\373\343\245n\267"
 370      6F051A84 
 370      FC18FBE3 
 370      A56EB7
 371 13d8 7D6CC11F 		.ascii	"}l\301\037\334\366\221\243\334c1\031c{\334\355\356\343"
 371      DCF691A3 
 371      DC633119 
 371      637BDCED 
ARM GAS  /tmp/ccvmXpcS.s 			page 29


 371      EEE3
 372 13ea 0F606EFC 		.ascii	"\017`n\374>$A8\214\213\016\364&\"c\205\362\260\012\012"
 372      3E244138 
 372      8C8B0EF4 
 372      26226385 
 372      F2B00A0A 
 373 13fe 025565FE 		.ascii	"\002Ue\376\311N/\274\015O%\\(\022W\262\267<<-\254\216"
 373      C94E2FBC 
 373      0D4F255C 
 373      281257B2 
 373      B73C3C2D 
 374 1414 89CC4839 		.ascii	"\211\314H9v|4\022\274\345\036R\036f\015\313[\216\365"
 374      767C3412 
 374      BCE51E52 
 374      1E660DCB 
 374      5B8EF5
 375 1427 E20C7AAA 		.ascii	"\342\014z\252\244\232\010z\013\206\244)c\030 \210\252"
 375      A49A087A 
 375      0B86A429 
 375      63182088 
 375      AA
 376 1438 47BAC715 		.ascii	"G\272\307\025\214\253A-+\203\376\012)\024\316\035]P"
 376      8CAB412D 
 376      2B83FE0A 
 376      2914CE1D 
 376      5D50
 377 144a 809AABEC 		.ascii	"\200\232\253\354eD\202!\254i\300\365\007p\334\210\240"
 377      65448221 
 377      AC69C0F5 
 377      0770DC88 
 377      A0
 378 145b 6E1EB18C 		.ascii	"n\036\261\214_\356\015\204$\004\230\215\253\321\330"
 378      5FEE0D84 
 378      2404988D 
 378      ABD1D8
 379 146a 8B782335 		.ascii	"\213x#5\377\221\036\212g\312\303\225Xs!i2\012@\330\230"
 379      FF911E8A 
 379      67CAC395 
 379      58732169 
 379      320A40D8 
 380 147f 790FA1D7 		.ascii	"y\017\241\327\303\3505\034\275\036\261\205\363\207\240"
 380      C3E8351C 
 380      BD1EB185 
 380      F387A0
 381 148e 571E7AE5 		.ascii	"W\036z\345\243\327P\364\032\206^\277E/\324.\037\265"
 381      A3D750F4 
 381      1A865EBF 
 381      452FD42E 
 381      1FB5
 382 14a0 CB47EDF2 		.ascii	"\313G\355\362Q\273\241\250\335\320<!4L\010\375V\010"
 382      51BBA1A8 
 382      DDD03C21 
 382      344C08FD 
 382      5608
 383 14b2 3D24841E 		.ascii	"=$\204\036\026B\303\205\320#\266P\336\020\364\312\023"
 383      1642C385 
 383      D023B650 
ARM GAS  /tmp/ccvmXpcS.s 			page 30


 383      DE10F4CA 
 383      13
 384 14c3 2A42E86D 		.ascii	"*B\350m\250#\350A\334f`\015O\225B\350=P\341\223Bvo\271"
 384      A823E841 
 384      DC66600D 
 384      4F9542E8 
 384      3D50E193 
 385 14db 18C26A17 		.ascii	"\030\302j\027+\245\314\2102^\320\227P\312\210T\006|"
 385      2BA5CC88 
 385      325ED097 
 385      50CA8854 
 385      067C
 386 14ed E4735985 		.ascii	"\344sY\20589\234\021\011Iea\320#.8*\303\223\321\227"
 386      38399C11 
 386      09496561 
 386      D0232E38 
 386      2AC393D1 
 387 1502 4A304441 		.ascii	"J0DAP)9C\276i\350\253L\251\306\037Aj\221\234S#\201I"
 387      50293943 
 387      BE69E8AB 
 387      4CA9C61F 
 387      416A919C 
 388 151a 7F0A664B 		.ascii	"\177\012fKS\244\252H\245\030\206\3214\025\027lAOu_\342"
 388      53A4AA48 
 388      A51886D1 
 388      3415176C 
 388      414F755F 
 389 152f 2F614F05 		.ascii	"/aO\005\032\256\236H\277\270\007\221\232\254\240g\252"
 389      1AAE9E48 
 389      BFB80791 
 389      9AACA067 
 389      AA
 390 1540 E88FF8AB 		.ascii	"\350\217\370\253&\367S\253\377\\-U#\256\372S-\241\252"
 390      26F753AB 
 390      FF5C2D55 
 390      23AEFA53 
 390      2DA1AA
 391 1553 4FD083BA 		.ascii	"O\320\203\272\205\242\003\212\250B\012\242q\213nvTV"
 391      85A2038A 
 391      A8420AA2 
 391      718B6E76 
 391      5456
 392 1565 23930FB5 		.ascii	"#\223\017\265\344\224\225\221\032\354<\225\004\035\275"
 392      E4949591 
 392      1AEC3C95 
 392      041DBD
 393 1574 07A65621 		.ascii	"\007\246V!\315\001\022\022\241\022|\025\361\207\332"
 393      CD011212 
 393      A1127C15 
 393      F187DA
 394 1583 614EFB60 		.ascii	"aN\373`\255\210\025\340a\2502\210&\302\207-\365\247"
 394      AD8815E0 
 394      61A83288 
 394      26C2872D 
 394      F5A7
 395 1595 0883FA1C 		.ascii	"\010\203\372\034\250\214'\244e)$Uy\221\264NR\365\373"
 395      A88C27A4 
ARM GAS  /tmp/ccvmXpcS.s 			page 31


 395      65292455 
 395      7991B44E 
 395      52F5FB
 396 15a8 548888A5 		.ascii	"T\210\210\245\334\202q\245\305\245(\376\344B\230)C\323"
 396      DC8271A5 
 396      C5A528FE 
 396      E4429829 
 396      43D3
 397 15ba 760D782D 		.ascii	"v\015x-\216n\023\321\230(\224\312l\005\356<\364\312"
 397      8E6E13D1 
 397      982894CA 
 397      6C05EE3C 
 397      F4CA
 398 15cc 174ADD02 		.ascii	"\027J\335\002\2126\005\356\202\022\267\323\375\024z"
 398      8A3605EE 
 398      8212B7D3 
 398      FD147A
 399 15db 773B27C2 		.ascii	"w;'\302[Fq~i\301\250\321n\007z/q\333P0\034e5\366\001"
 399      5B46717E 
 399      69C1A8D1 
 399      6E077A2F 
 399      71DB5030 
 400 15f4 1D35ACA6 		.ascii	"\0355\254\246\2060\342\361U\212X\270\302q#=\245\310"
 400      8630E2F1 
 400      558A58B8 
 400      C271233D 
 400      A5C8
 401 1606 95C44A95 		.ascii	"\225\304J\225\033\241\300m\037_8\321m+\031\351\266\217"
 401      1BA1C06D 
 401      1F5F38D1 
 401      6D2B19E9 
 401      B68F
 402 1618 1B8249DE 		.ascii	"\033\202I\336H\267m\024b&\014\015\355\3762o\310\351"
 402      48B76D14 
 402      62260C0D 
 402      EDFE326F 
 402      C8E9
 403 162a 0F97FBCB 		.ascii	"\017\227\373\313\"Ya\251\242\314_\345\223j\234S\320"
 403      225961A9 
 403      A2CC5FE5 
 403      936A9C53 
 403      D0
 404 163b 941F080D 		.ascii	"\224\037\010\015\214\243{Hk\024S\321\207P\015\246\221"
 404      8CA37B48 
 404      6B1453D1 
 404      87500DA6 
 404      91
 405 164c 9AAC500D 		.ascii	"\232\254P\015z\307\236\234\025QKv$N\320Q\021\366\226"
 405      7AC79E9C 
 405      15514B76 
 405      244ED051 
 405      11F696
 406 165f 4D769463 		.ascii	"Mv\224c\212s\017\022\013\373\301\004\354\021}\276\220"
 406      8A730F12 
 406      0BFBC104 
 406      EC117DBE 
 406      90
ARM GAS  /tmp/ccvmXpcS.s 			page 32


 407 1670 140E4BE1 		.ascii	"\024\016K\341A8AAa\333\203R\017/\312|\342\271\210\035"
 407      41384141 
 407      61DB8352 
 407      0F2FCA7C 
 407      E2B9881D 
 408 1684 7D11BC83 		.ascii	"}\021\274\203\372\026\246\375Dz\222\005\211R1J\216,"
 408      FA16A6FD 
 408      447A9205 
 408      8952314A 
 408      8E2C
 409 1696 4F8609C5 		.ascii	"O\206\011\305\225\307\347\214\376DJ/p\207S\256\201\324"
 409      95C7E78C 
 409      FE444A2F 
 409      708753AE 
 409      81D4
 410 16a8 24826682 		.ascii	"$\202f\202\352 \022\033\313\026r\006p\340\013e\004\302"
 410      EA20121B 
 410      CB167206 
 410      70E00B65 
 410      04C2
 411 16ba 4149F285 		.ascii	"AI\362\205\034\301\352\240/d\013\370Bv\261,T\201I\271"
 411      1CC1EAA0 
 411      2F640BF8 
 411      4276B12C 
 411      548149B9 
 412 16ce B36464A1 		.ascii	"\263dd\241\030\021\235%\217\223\267\002\362VH\336\212"
 412      18119D25 
 412      8F93B702 
 412      F25648DE 
 412      8A
 413 16df C8DB18FC 		.ascii	"\310\333\030\374\226U2r,Q\314@<\177\251\331\020\231"
 413      96553272 
 413      2C51CC40 
 413      3C7FA9D9 
 413      1099
 414 16f1 30EE181C 		.ascii	"0\356\030\034\012\370P\243\301\275\277\372?V\326y\220"
 414      0AF850A3 
 414      C1BDBFFA 
 414      3F56D679 
 414      90
 415              		.text
 416              		.section	.gnu.lto_.symtab.90110f4412cf49b1,"",%progbits
 417 0000 5F5F6561 		.ascii	"__early_init\000\000\000\000\000\000\000\000\000\000"
 417      726C795F 
 417      696E6974 
 417      00000000 
 417      00000000 
 418 0016 0000A100 		.ascii	"\000\000\241\000\000\000mmc_lld_is_card_inserted\000"
 418      00006D6D 
 418      635F6C6C 
 418      645F6973 
 418      5F636172 
 419 0035 00000000 		.ascii	"\000\000\000\000\000\000\000\000\000\000\000\246\000"
 419      00000000 
 419      000000A6 
 419      00
 420 0042 00006D6D 		.ascii	"\000\000mmc_lld_is_write_protected\000\000\000\000\000"
ARM GAS  /tmp/ccvmXpcS.s 			page 33


 420      635F6C6C 
 420      645F6973 
 420      5F777269 
 420      74655F70 
 421 0063 00000000 		.ascii	"\000\000\000\000\000\000\000\203\002\000\000boardIn"
 421      00000083 
 421      02000062 
 421      6F617264 
 421      496E
 422 0075 69740000 		.ascii	"it\000\000\000\000\000\000\000\000\000\000\000\000\207"
 422      00000000 
 422      00000000 
 422      000087
 423 0084 02000070 		.ascii	"\002\000\000pal_default_config\000\000\000\000\000\000"
 423      616C5F64 
 423      65666175 
 423      6C745F63 
 423      6F6E6669 
 424 009f 00000000 		.ascii	"\000\000\000\000\000\000\214\002\000\000stm32_clock"
 424      00008C02 
 424      00007374 
 424      6D33325F 
 424      636C6F63 
 425 00b4 5F696E69 		.ascii	"_init\000\000\002\000\000\000\000\000\000\000\000\000"
 425      74000002 
 425      00000000 
 425      00000000 
 425      00
 426 00c5 8A020000 		.ascii	"\212\002\000\000"
 427              		.text
 428              		.section	.gnu.lto_.opts,"",%progbits
 429 0000 272D6D63 		.ascii	"'-mcpu=cortex-m4' '-mfloat-abi=hard' '-mfpu=fpv4-sp"
 429      70753D63 
 429      6F727465 
 429      782D6D34 
 429      2720272D 
 430 0033 2D643136 		.ascii	"-d16' '-mno-thumb-interwork' '-mthumb' '-O2' '-fomi"
 430      2720272D 
 430      6D6E6F2D 
 430      7468756D 
 430      622D696E 
 431 0066 742D6672 		.ascii	"t-frame-pointer' '-falign-functions=16' '-ffunction"
 431      616D652D 
 431      706F696E 
 431      74657227 
 431      20272D66 
 432 0099 2D736563 		.ascii	"-sections' '-fdata-sections' '-fno-common' '-flto' "
 432      74696F6E 
 432      73272027 
 432      2D666461 
 432      74612D73 
 433 00cc 272D6673 		.ascii	"'-fsingle-precision-constant'\000"
 433      696E676C 
 433      652D7072 
 433      65636973 
 433      696F6E2D 
 434              		.text
ARM GAS  /tmp/ccvmXpcS.s 			page 34


 435              		.section	.text.__early_init,"ax",%progbits
 436              		.align	2
 437              		.p2align 4,,15
 438              		.global	__early_init
 439              		.thumb
 440              		.thumb_func
 441              		.type	__early_init, %function
 442              	__early_init:
 443              		@ args = 0, pretend = 0, frame = 0
 444              		@ frame_needed = 0, uses_anonymous_args = 0
 445              		@ link register save eliminated.
 446 0000 FFF7FEBF 		b	stm32_clock_init
 447              		.size	__early_init, .-__early_init
 448 0004 AFF30080 		.section	.text.mmc_lld_is_card_inserted,"ax",%progbits
 448      AFF30080 
 448      AFF30080 
 449              		.align	2
 450              		.p2align 4,,15
 451              		.global	mmc_lld_is_card_inserted
 452              		.thumb
 453              		.thumb_func
 454              		.type	mmc_lld_is_card_inserted, %function
 455              	mmc_lld_is_card_inserted:
 456              		@ args = 0, pretend = 0, frame = 0
 457              		@ frame_needed = 0, uses_anonymous_args = 0
 458              		@ link register save eliminated.
 459 0000 0120     		movs	r0, #1
 460 0002 7047     		bx	lr
 461              		.size	mmc_lld_is_card_inserted, .-mmc_lld_is_card_inserted
 462 0004 AFF30080 		.section	.text.mmc_lld_is_write_protected,"ax",%progbits
 462      AFF30080 
 462      AFF30080 
 463              		.align	2
 464              		.p2align 4,,15
 465              		.global	mmc_lld_is_write_protected
 466              		.thumb
 467              		.thumb_func
 468              		.type	mmc_lld_is_write_protected, %function
 469              	mmc_lld_is_write_protected:
 470              		@ args = 0, pretend = 0, frame = 0
 471              		@ frame_needed = 0, uses_anonymous_args = 0
 472              		@ link register save eliminated.
 473 0000 0020     		movs	r0, #0
 474 0002 7047     		bx	lr
 475              		.size	mmc_lld_is_write_protected, .-mmc_lld_is_write_protected
 476 0004 AFF30080 		.section	.text.boardInit,"ax",%progbits
 476      AFF30080 
 476      AFF30080 
 477              		.align	2
 478              		.p2align 4,,15
 479              		.global	boardInit
 480              		.thumb
 481              		.thumb_func
 482              		.type	boardInit, %function
 483              	boardInit:
 484              		@ args = 0, pretend = 0, frame = 0
 485              		@ frame_needed = 0, uses_anonymous_args = 0
ARM GAS  /tmp/ccvmXpcS.s 			page 35


 486              		@ link register save eliminated.
 487 0000 7047     		bx	lr
 488              		.size	boardInit, .-boardInit
 489              		.global	pal_default_config
 490 0002 00BFAFF3 		.section	.rodata.pal_default_config,"a",%progbits
 490      0080AFF3 
 490      0080AFF3 
 490      0080
 491              		.align	2
 492              		.type	pal_default_config, %object
 493              		.size	pal_default_config, 168
 494              	pal_default_config:
 495 0000 A004802A 		.word	713032864
 496 0004 00000000 		.word	0
 497 0008 AFFBFFFF 		.word	-1105
 498 000c 05511564 		.word	1679118597
 499 0010 DFFF0000 		.word	65503
 500 0014 00770000 		.word	30464
 501 0018 00A00A00 		.word	696320
 502 001c 80000000 		.word	128
 503 0020 00000000 		.word	0
 504 0024 FFFFFFFF 		.word	-1
 505 0028 55555555 		.word	1431655765
 506 002c FFFF0000 		.word	65535
 507 0030 00000000 		.word	0
 508 0034 00000000 		.word	0
 509 0038 00000000 		.word	0
 510 003c 00000000 		.word	0
 511 0040 FFFFFFFF 		.word	-1
 512 0044 55555551 		.word	1364546901
 513 0048 FFFF0000 		.word	65535
 514 004c 00000000 		.word	0
 515 0050 00000000 		.word	0
 516 0054 00000000 		.word	0
 517 0058 00000000 		.word	0
 518 005c FFFFFFFF 		.word	-1
 519 0060 55555555 		.word	1431655765
 520 0064 FFFF0000 		.word	65535
 521 0068 00000000 		.word	0
 522 006c 00000000 		.word	0
 523 0070 00000000 		.word	0
 524 0074 00000000 		.word	0
 525 0078 FFFFFFFF 		.word	-1
 526 007c 45000000 		.word	69
 527 0080 FFFF0000 		.word	65535
 528 0084 00000000 		.word	0
 529 0088 00000000 		.word	0
 530 008c 00000000 		.word	0
 531 0090 00000000 		.word	0
 532 0094 FFFFFFFF 		.word	-1
 533 0098 00000000 		.word	0
 534 009c FFFF0000 		.word	65535
 535 00a0 00000000 		.word	0
 536 00a4 00000000 		.word	0
 537              		.comm	__gnu_lto_v1,1,1
 538              		.ident	"GCC: (GNU Tools for ARM Embedded Processors) 4.8.4 20140526 (release) [ARM/embedded-4_8-br
ARM GAS  /tmp/ccvmXpcS.s 			page 36


DEFINED SYMBOLS
                            *ABS*:0000000000000000 board.c
     /tmp/ccvmXpcS.s:436    .text.__early_init:0000000000000000 $t
     /tmp/ccvmXpcS.s:442    .text.__early_init:0000000000000000 __early_init
     /tmp/ccvmXpcS.s:449    .text.mmc_lld_is_card_inserted:0000000000000000 $t
     /tmp/ccvmXpcS.s:455    .text.mmc_lld_is_card_inserted:0000000000000000 mmc_lld_is_card_inserted
     /tmp/ccvmXpcS.s:463    .text.mmc_lld_is_write_protected:0000000000000000 $t
     /tmp/ccvmXpcS.s:469    .text.mmc_lld_is_write_protected:0000000000000000 mmc_lld_is_write_protected
     /tmp/ccvmXpcS.s:477    .text.boardInit:0000000000000000 $t
     /tmp/ccvmXpcS.s:483    .text.boardInit:0000000000000000 boardInit
     /tmp/ccvmXpcS.s:494    .rodata.pal_default_config:0000000000000000 pal_default_config
     /tmp/ccvmXpcS.s:491    .rodata.pal_default_config:0000000000000000 $d
                            *COM*:0000000000000001 __gnu_lto_v1

UNDEFINED SYMBOLS
stm32_clock_init
