ARM GAS  /tmp/ccsLCQDM.s 			page 1


   1              		.syntax unified
   2              		.cpu cortex-m4
   3              		.eabi_attribute 27, 3
   4              		.eabi_attribute 28, 1
   5              		.fpu fpv4-sp-d16
   6              		.eabi_attribute 20, 1
   7              		.eabi_attribute 21, 1
   8              		.eabi_attribute 23, 3
   9              		.eabi_attribute 24, 1
  10              		.eabi_attribute 25, 1
  11              		.eabi_attribute 26, 1
  12              		.eabi_attribute 30, 2
  13              		.eabi_attribute 34, 1
  14              		.eabi_attribute 18, 4
  15              		.thumb
  16              		.file	"board.c"
  17              		.section	.gnu.lto_.jmpfuncs.ad6a7f45a4cb727d,"",%progbits
  18 0000 789C6362 		.ascii	"x\234cb`b\300\006\270\2414\013\0203\002\325030\000\000"
  18      6062C006 
  18      B8A1340B 
  18      103302D5 
  18      30333000 
  19 0015 01EA001A 		.ascii	"\001\352\000\032"
  20              		.text
  21              		.section	.gnu.lto_.inline.ad6a7f45a4cb727d,"",%progbits
  22 0000 789C6362 		.ascii	"x\234cb`b\300\006\002\2404\013\020\3610\202\025\261"
  22      6062C006 
  22      02A0340B 
  22      10F13082 
  22      15B1
  23 0012 2D9007AB 		.ascii	"-\220\007\253e\344\002\021\014\354l@a\216\003vpq&\006"
  23      65E40211 
  23      0CEC6C40 
  23      618E0376 
  23      70712606 
  24 0026 66265495 		.ascii	"f&T\225\314\030\"\014\000\316\251\004\277"
  24      CC18220C 
  24      00CEA904 
  24      BF
  25              		.text
  26              		.section	.gnu.lto_.pureconst.ad6a7f45a4cb727d,"",%progbits
  27 0000 789C6362 		.ascii	"x\234cb`b\340d\200\000\026\006\011F)&\006f\006\000\002"
  27      6062E064 
  27      80001606 
  27      09462926 
  27      06660600 
  28 0015 60004A   		.ascii	"`\000J"
  29              		.text
  30              		.section	.gnu.lto___early_init.ad6a7f45a4cb727d,"",%progbits
  31 0000 789C6362 		.ascii	"x\234cb`b@\007\222@\\\003\304\\@\314\310\314\300\310"
  31      60624007 
  31      92405C03 
  31      C45C40CC 
  31      C8CCC0C8 
  32 0014 34E11C03 		.ascii	"4\341\034\003C#\007\023##\210\301\300\310P\317\304X"
  32      43230713 
  32      232388C1 
ARM GAS  /tmp/ccsLCQDM.s 			page 2


  32      C0C850CF 
  32      C458
  33 0026 1FC90856 		.ascii	"\037\311\010V\273\236\351\300\203\377\377\327m:6\347"
  33      BB9EE9C0 
  33      83FFFFD7 
  33      6D3A36E7 
  34 0036 0CE34C26 		.ascii	"\014\343L&f\240\010+CKC\303\004\005\006\206d\260\212"
  34      66A0082B 
  34      434B43C3 
  34      04050686 
  34      64B08A
  35 0049 102009D2 		.ascii	"\020 \011\322\026\312\310\004\242\231\31734?\230\375"
  35      16CAC804 
  35      A299CF33 
  35      343F98FD 
  36 0059 982B9171 		.ascii	"\230+\221q!#+P\272\232\341WCG\203@&#P9\304\304L\020"
  36      21232B50 
  36      BA9AE157 
  36      43478340 
  36      26235039 
  37 0071 7D91A1F1 		.ascii	"}\221\241\361\301\034e\230\"\010\010\001J\000M\000\271"
  37      C11C6598 
  37      22080801 
  37      4A004D00 
  37      B9
  38 0082 9723293F 		.ascii	"\227#)?\261(E/\231\001\000`\370%0"
  38      B128452F 
  38      99010060 
  38      F82530
  39              		.text
  40              		.section	.gnu.lto_mmc_lld_is_card_inserted.ad6a7f45a4cb727d,"",%progbits
  41 0000 789C5D50 		.ascii	"x\234]P\261j\002Q\020\234\331wO\305\302>]\372\200_\243"
  41      B16A0251 
  41      109CD977 
  41      4FC5C23E 
  41      5DFA805F 
  42 0015 A0A56740 		.ascii	"\240\245g@\254\204\374\200/(hy\265bak\241\026v6\222"
  42      AC84FC80 
  42      2F286879 
  42      B562616B 
  42      A1167636 
  43 002a 5A43D249 		.ascii	"ZC\322I\252|E\222\316\354\276\343\256paf\027fgw\337"
  43      AA7C4592 
  43      CEECBEE3 
  43      AE706166 
  43      17666777 
  44 003f 1308EEE3 		.ascii	"\023\010\356\343A\361\253\250+\350@\311\336\201\327"
  44      41F1ABA8 
  44      2BE840C9 
  44      DE81D7
  45 004e 9A905680 		.ascii	"\232\220V\200\030\013\307]\306\336\235\234\276o\267"
  45      180BC75D 
  45      C6DE9D9C 
  45      BE6FB7
  46 005d ED7E7638 		.ascii	"\355~v8s%\025\301\220pF\211\221W\262>\217i\010\331#"
  46      732515C1 
  46      90704689 
ARM GAS  /tmp/ccsLCQDM.s 			page 3


  46      9157B23E 
  46      8F6908D9 
  47 0072 D08FAE96 		.ascii	"\320\217\256\226\262\215jS,\273\013\336\276\376~>\330"
  47      B28D6A53 
  47      2CBB0BDE 
  47      BEFE7E3E 
  47      D8
  48 0083 E39A1E03 		.ascii	"\343\232\036\003\312\0236a\312!e\211\205&\327QJB6\017"
  48      CA133661 
  48      CA216589 
  48      8526D751 
  48      4A42360F 
  49 0097 09621957 		.ascii	"\011b\031W\247,\016\276`\262u\205\331\251\337\232|5"
  49      A72C0EBE 
  49      60B27585 
  49      D9A9DF9A 
  49      7C35
  50 00a9 578EA592 		.ascii	"W\216\245\222\014\362I`\256\\'\215B\362\252F\311\342"
  50      0CF24960 
  50      AE5C278D 
  50      42F2AA46 
  50      C9E2
  51 00bb 13E5253E 		.ascii	"\023\345%>_\320\322W\350\241\366U\265t\324{yn\366\361"
  51      5FD0D257 
  51      E8A1F655 
  51      B574D47B 
  51      796EF6F1 
  52 00cf 0FAE6939 		.ascii	"\017\256i9\323"
  52      D3
  53              		.text
  54              		.section	.gnu.lto_mmc_lld_is_write_protected.ad6a7f45a4cb727d,"",%progbits
  55 0000 789C6362 		.ascii	"x\234cb`b@\007\222@\034\015\304\\@\314\310\314\300\310"
  55      60624007 
  55      92401C0D 
  55      C45C40CC 
  55      C8CCC0C8 
  56 0014 34E11C03 		.ascii	"4\341\034\003C#\007\023##\210\301\300\310P\317\304X"
  56      43230713 
  56      232388C1 
  56      C0C850CF 
  56      C458
  57 0026 1FC90856 		.ascii	"\037\311\010V\273\236\351\300\203\377\377\327]h\337"
  57      BB9EE9C0 
  57      83FFFFD7 
  57      5D68DF
  58 0035 7A86711E 		.ascii	"z\206q\036\023\310,V\206\226\206\206\011\012\014\014"
  58      13C82C56 
  58      86968686 
  58      090A0C0C 
  59 0045 C9601521 		.ascii	"\311`\025!@\022\244-\224\221\011D3_dh|\360:9\221q!#"
  59      4012A42D 
  59      94910944 
  59      335F6468 
  59      7CF03A39 
  60 005d 2B430463 		.ascii	"+C\004c&#\334\326\020FF\220\002\220\021\034I\371\211"
  60      2623DCD6 
  60      10464690 
ARM GAS  /tmp/ccsLCQDM.s 			page 4


  60      0290111C 
  60      49F989
  61 0070 45297AC9 		.ascii	"E)z\311\014\000\253\263\035S"
  61      0C00ABB3 
  61      1D53
  62              		.text
  63              		.section	.gnu.lto_boardInit.ad6a7f45a4cb727d,"",%progbits
  64 0000 789C6362 		.ascii	"x\234cb`b@\007\222@\034\014\304\\@\314\310\314\300\310"
  64      60624007 
  64      92401C0C 
  64      C45C40CC 
  64      C8CCC0C8 
  65 0014 34E11C03 		.ascii	"4\341\034\003C#\007\023##\210\301\300\310P\317\304X"
  65      43230713 
  65      232388C1 
  65      C0C850CF 
  65      C458
  66 0026 1FC90856 		.ascii	"\037\311\010V\273\236\351\300\203\377\377\327}k\237"
  66      BB9EE9C0 
  66      83FFFFD7 
  66      7D6B9F
  67 0035 7E86713E 		.ascii	"~\206q>\023\310,V\206\226\206\206\011\012\014\014\311"
  67      13C82C56 
  67      86968686 
  67      090A0C0C 
  67      C9
  68 0046 60152140 		.ascii	"`\025!@\022\244-\224\221\011D3_d`Ld\\\310\310\012\267"
  68      12A42D94 
  68      91094433 
  68      5F64604C 
  68      645CC8C8 
  69 005c 2D849111 		.ascii	"-\204\221\021$\001\322\312\221\224\237X\224\242\227"
  69      2401D2CA 
  69      91949F58 
  69      94A297
  70 006b CC000079 		.ascii	"\314\000\000y\315\031\343"
  70      CD19E3
  71              		.text
  72              		.section	.gnu.lto_.symbol_nodes.ad6a7f45a4cb727d,"",%progbits
  73 0000 789C4DC8 		.ascii	"x\234M\310\301\025@@\020\004\321\232^\033\245`zX\007"
  73      C1154040 
  73      1004D19A 
  73      5E1BA560 
  73      7A5807
  74 0013 47110849 		.ascii	"G\021\010I\014\"\301\201\367l\335~\0111\362\245\224"
  74      0C22C181 
  74      F76CDD7E 
  74      0931F2A5 
  74      94
  75 0024 613BC0DE 		.ascii	"a;\300\336\327\320$G\307YV\307&\227\237\365\016\252"
  75      D7D02447 
  75      C75956C7 
  75      26979FF5 
  75      0EAA
  76 0036 89451EDE 		.ascii	"\211E\036\336\233\031\205J;\257\340\001\320\013\032"
  76      9B19854A 
  76      3BAFE001 
ARM GAS  /tmp/ccsLCQDM.s 			page 5


  76      D00B1A
  77 0045 5F       		.ascii	"_"
  78              		.text
  79              		.section	.gnu.lto_.refs.ad6a7f45a4cb727d,"",%progbits
  80 0000 789C6362 		.ascii	"x\234cb`b`d\200\002\000\000F\000\006"
  80      60626064 
  80      80020000 
  80      460006
  81              		.text
  82              		.section	.gnu.lto_.decls.ad6a7f45a4cb727d,"",%progbits
  83 0000 789CBD5C 		.ascii	"x\234\275\\\013p\024\325\232\356\356y$\223D^\336\275"
  83      0B7014D5 
  83      9AEEEE79 
  83      2493445E 
  83      DEBD
  84 0012 8BAEB58E 		.ascii	"\213\256\265\216[\272E\271Jx]E\357\256\010I\224\224"
  84      5BBA45B9 
  84      4A785D45 
  84      EFAE0849 
  84      9494
  85 0024 3C5213F4 		.ascii	"<R\023\364j\325V\215\315L\207\3145\311\314\235\231@"
  85      6AD5568D 
  85      CD4C87CC 
  85      35C9CC9D 
  85      9940
  86 0036 D8DD2A9B 		.ascii	"\330\335*\233 \240 \020\336H D\036\002\342#\020y\004"
  86      20A02010 
  86      DE482044 
  86      1E02E223 
  86      107904
  87 0049 08774094 		.ascii	"\010w@\224`\334\020D\024\026\201A.*zq\001\345}!{\316"
  87      60DC1044 
  87      14168141 
  87      2E2A7A71 
  87      01E57D21 
  88 005f 7FBA67CE 		.ascii	"\177\272g\316\351t\317t\217\326vU\377}\346L\367w\376"
  88      E974CF74 
  88      8FD67655 
  88      FF7DE64C 
  88      F777FE
  89 0072 D7F9CF7F 		.ascii	"\327\371\317\177N\237\031\201\023\270k\034\307u\241"
  89      4E9F1981 
  89      13B86B1C 
  89      C775A1
  90 0081 E3AEE738 		.ascii	"\343\256\3478\256_\016\3079\320\347'\270\344\201?\277"
  90      AE5F0EC7 
  90      39D0E727 
  90      B8E4813F 
  90      BF
  91 0092 89CEB7D0 		.ascii	"\211\316\267\3209U\340\270\031\350\234\211N\036}~]\340"
  91      3955E0B8 
  91      19E89C89 
  91      4E1E7D7E 
  91      5DE0
  92 00a4 9803DF87 		.ascii	"\230\003\337\207\253v\"\262J\251\023\224\372\231\232"
  92      AB7622B2 
  92      4AA91394 
ARM GAS  /tmp/ccsLCQDM.s 			page 6


  92      FA999A
  93 00b3 7B3905D3 		.ascii	"{9\005\323\211\316,t\256G\3473\010\264\010\235\023\321"
  93      89CE2C74 
  93      AE47E733 
  93      08B4089D 
  93      13D1
  94 00c5 69E7481B 		.ascii	"i\347H\033\245<\271\276\325\375q\340\207W\236\345\224"
  94      A53CB9BE 
  94      D5FD71E0 
  94      87579EE5 
  94      94
  95 00d6 FBA7EAB4 		.ascii	"\373\247\352\2643\203\252\3435\237\325\343^\256An\214"
  95      3383AAE3 
  95      359FD5E3 
  95      5EAE416E 
  95      8C
  96 00e7 C7D77ED3 		.ascii	"\307\327~\323t\227\334X\033\353\352\032\306\375\226"
  96      7497DC58 
  96      1BEBEA1A 
  96      C6FD96
  97 00f6 5B24A3A3 		.ascii	"[$\243\243q\272,\363Q\221\177\342\357\270\347y\221\357"
  97      71BA2CF3 
  97      51917FE2 
  97      EFB8E779 
  97      91EF
  98 0108 E1E2DC50 		.ascii	"\341\342\334P\310s\001\223\034'\362\253\370\337*\245"
  98      C8730193 
  98      1C27F2AB 
  98      F8DF2AA5 
  99 0118 676DAAD8 		.ascii	"gm\252\330\271<\367 \267\001=_'\313\265=t\270\347\270"
  99      B93CF720 
  99      B7013D5F 
  99      27CBB53D 
  99      74B8E7B8 
 100 012c 7FE6D6E2 		.ascii	"\177\346\326\342\006\344\365\262\015\3401\300\233\374"
 100      06E4F5B2 
 100      0DE031C0 
 100      9BFC
 101 013a BDF42D22 		.ascii	"\275\364-\"\277\232g\270%|\306\232\366\347\325M\211"
 101      BF9A67B8 
 101      257CC69A 
 101      F6E7D54D 
 101      89
 102 014b 7775DDCB 		.ascii	"wu\335\3130\231\315\315@\215\311\361i\362\024\376O\234"
 102      3099CDCD 
 102      408DC9F1 
 102      69F214FE 
 102      4F9C
 103 015d CA6EB6CA 		.ascii	"\312n\266\312.\226\375\001n\015\341I\020\371\365|6b"
 103      2E96FD01 
 103      6E0DE149 
 103      10F9F57C 
 103      3662
 104 016f F45E5E97 		.ascii	"\364^^\2279\216|\217\017\3748)\253%\2363\324\305:E\027"
 104      398E7C8F 
 104      0FFC3829 
 104      AB259E33 
ARM GAS  /tmp/ccsLCQDM.s 			page 7


 104      D4C53A45 
 105 0184 36303D97 		.ascii	"60=\227\313\315\304,!\376F\266\365\350\303\315\303\314"
 105      CBCDC42C 
 105      21FE46B6 
 105      F5E8C3CD 
 105      C3CC
 106 0196 BADB7A24 		.ascii	"\272\333z$\236o\264\251\000CT\356\352\342\365o.\264"
 106      9E6FB4A9 
 106      004354EE 
 106      EAE2F56F 
 106      2EB4
 107 01a8 C972B6C8 		.ascii	"\311r\266\310\277\313\367A0\377\316#\3345\374\203\012"
 107      BFCBF741 
 107      30FFCE23 
 107      DC35FC83 
 107      0A
 108 01b9 63695130 		.ascii	"ciQ0\033M\350I\362\020\2218vd\177\236l'\365\034\003"
 108      1B4DE849 
 108      F2109138 
 108      76647F9E 
 108      6C27F51C 
 109 01ce C71CF771 		.ascii	"\307\034\367q\215\210\335\330\211\031+\221\033\354\345"
 109      8D88DDD8 
 109      89192B91 
 109      1BECE5
 110 01dd F5B84737 		.ascii	"\365\270G7\360T\323\262\2406\355\006\273\227\361z\014"
 110      F054D3B2 
 110      A036ED06 
 110      BB97F17A 
 110      0C
 111 01ee B27789FC 		.ascii	"\262w\211\374\026dU\221\337\252e\262y\0060\271\325\024"
 111      16645591 
 111      DFAA65B2 
 111      790630B9 
 111      D514
 112 0200 935BF61F 		.ascii	"\223[\366\037\340\345\371y\014\217\032\237\305\2662"
 112      E0E5F979 
 112      0C8F1A9F 
 112      C5B632
 113 020f 32D40ED6 		.ascii	"2\324\016\326P\"?,\227r`\316\330\302-H-\312!p\021^\221"
 113      50223F2C 
 113      977260CE 
 113      D8C22D48 
 113      2DCA2170 
 114 0226 43EF6EA5 		.ascii	"C\357n\245\310\30012\310\233e\331\345$\220\002\367\262"
 114      C8C03132 
 114      C89B65D9 
 114      E5249002 
 114      F7B2
 115 0238 552CB731 		.ascii	"U,\2671\326\353\274\011\260l\223\214-\264\014\246\303"
 115      D6EBBC09 
 115      B06C938C 
 115      2DB40CA6 
 115      C3
 116 0249 59A676FA 		.ascii	"Y\246v\372H\307NJ\331\305\275\232\204\3247\230\322\243"
 116      48C74E4A 
 116      D9C5BD9A 
ARM GAS  /tmp/ccsLCQDM.s 			page 8


 116      84D43798 
 116      D2A3
 117 025b BA667EB4 		.ascii	"\272f~\264\207\257E\215\211|\033\357BO\357\343\331N"
 117      87AF458D 
 117      897C1BEF 
 117      424FEFE3 
 117      D94E
 118 026d 651E6AE7 		.ascii	"e\036j\347\234]\217A\347l\007\240Z\201\005\022\371\254"
 118      9C5D8F41 
 118      E76C07A0 
 118      5A810512 
 118      F9AC
 119 027f 842E139F 		.ascii	"\204.\023\237\325\0330\032|\255\024\360\310\323\223"
 119      D51B301A 
 119      7CAD14F0 
 119      C8D393
 120 028e CBE076BD 		.ascii	"\313\340v\275\350\242\210\020_+\367]\232\024\241{\364"
 120      E8A28810 
 120      5F2BF75D 
 120      9A14A17B 
 120      F4
 121 029f C3DA78F7 		.ascii	"\303\332x\367_@\204N\020a\266\240\253\013\023@;\347"
 121      5F40844E 
 121      1061B6A0 
 121      AB0B1340 
 121      3BE7
 122 02b1 340C05A0 		.ascii	"4\014\005\240\303\000\264\250\233.x\215.xV8\336\225"
 122      C300B4A8 
 122      9B2E788D 
 122      2E785638 
 122      DE95
 123 02c3 2C74B171 		.ascii	",t\261q8\355\275F\376r0\331=i\257i#\254\230\352\341"
 123      38EDBD46 
 123      FE7230D9 
 123      3D69AF69 
 123      23AC98EA 
 124 02d8 FBE81EBE 		.ascii	"\373\350\036\276R0\341\374\275h<\345 \316\037\257?7"
 124      5230E1FC 
 124      BD683CE5 
 124      20CE1FAF 
 124      3F37
 125 02ea C7F6861C 		.ascii	"\307\366\206\034{\305\226i\007\370\037\343\016\220\020"
 125      7BC59669 
 125      07F81FE3 
 125      0E9010
 126 02f9 2BA53FC4 		.ascii	"+\245?\304\014\315(\362\207\370\0072W\365\311_\256\352"
 126      0CCD28F2 
 126      87F80732 
 126      57F5C95F 
 126      AEEA
 127 030b 63B4AAD7 		.ascii	"c\264\252\327XV\265\233V5\033\264\3366\003\326\327\320"
 127      5856B59B 
 127      56351BB4 
 127      DE3603D6 
 127      D7D0
 128 031d 6EBF2C68 		.ascii	"n\277,h}cl3\3351\365I*\350<IGT\245\243\355^0\014\017"
 128      7D636C33 
ARM GAS  /tmp/ccsLCQDM.s 			page 9


 128      DD31F549 
 128      2AE83C49 
 128      4754A5A3 
 129 0336 8CDF433E 		.ascii	"\214\337C>\360\275\240\233\020\030\203`\006\316k\307"
 129      F0BDA09B 
 129      10188360 
 129      06CE6BC7 
 130 0346 DAAB929B 		.ascii	"\332\253\222\233\324\246\037i\257\257\205\221V\215\235"
 130      D4A61F69 
 130      AFAF8591 
 130      568D9D
 131 0355 37A0FDF3 		.ascii	"7\240\375\363\231\016z\261\033R\333\000\025k\252\315"
 131      990E7AB1 
 131      1B52DB00 
 131      156BAACD 
 132 0365 2A965B8F 		.ascii	"*\226[\217Q\256\233\224\"\377#\270\366\377\362\367!"
 132      51AE9B94 
 132      22FF23B8 
 132      F6FFF2F7 
 132      21
 133 0376 7A11D1B4 		.ascii	"z\021\321\264\276x\216qgS\356{\226v\337Y6\253\036\247"
 133      BE788E71 
 133      6753EE7B 
 133      9676DF59 
 133      36AB1EA7 
 134 038a 95453584 		.ascii	"\225E5\204\310o\007\266[\201\376\031\350\036\240\037"
 134      C86F07B6 
 134      5B81FE19 
 134      E81EA01F 
 135 039a 023D0AF4 		.ascii	"\002=\012\364k\240\1771#Z3\315\347B\340\263)S\373\305"
 135      6BA07F31 
 135      235A33CD 
 135      E742E0B3 
 135      2953FBC5 
 136 03ae EB5BE7DA 		.ascii	"\353[\347\332\226\310\261)\266,n:\311\267k\323\015\024"
 136      96C8B129 
 136      B62C6E3A 
 136      C9B76BD3 
 136      0D14
 137 03c0 BB173C8A 		.ascii	"\273\027<\212\375\367\012\237\205\332_jc\375\327\004"
 137      FDF70A9F 
 137      85DA5F6A 
 137      63FDD704 
 138 03d0 0C96E13A 		.ascii	"\014\226\341:z\230\361\340\226\311nR\233\302\203\241"
 138      7A98F1E0 
 138      96C96E52 
 138      9BC283A1 
 139 03e0 D309DC6A 		.ascii	"\323\011\334j\324$\206\263\273\222u\357%\353x\352\326"
 139      D42486B3 
 139      BB9275EF 
 139      25EB78EA 
 139      D6
 140 03f1 6DC96A81 		.ascii	"m\311j\201\252\336\233\254\266Q\325\207\222\325v\252"
 140      AADE9BAC 
 140      B651D587 
 140      92D576AA 
 141 0401 FA4CB2DA 		.ascii	"\372L\262\332AU\237OV;\251\352\353\311\352,\252z\232"
ARM GAS  /tmp/ccsLCQDM.s 			page 10


 141      41559F4F 
 141      563BA9EA 
 141      EBC9EA2C 
 141      AA7A9A
 142 0414 3D519D4D 		.ascii	"=Q\235M\331#\345\240\231T\222\310\337\200\016p\223\267"
 142      D923E5A0 
 142      995492C8 
 142      DF800E70 
 142      93B7
 143 0426 E93E2670 		.ascii	"\351>&p\363\354\032?`T\236.\341\224\301\017\246\340"
 143      F3EC1A3F 
 143      60549E2E 
 143      E194C10F 
 143      A6E0
 144 0438 91AD3757 		.ascii	"\221\2557W\247$\374\244[\253I?\317\306l\221\237+\364"
 144      A724FCA4 
 144      5BAB493F 
 144      CFC66C91 
 144      9F2BF4
 145 044b 86120C4D 		.ascii	"\206\022\014M\262\022\003\341\016#\307\255\023\\\011"
 145      B21203E1 
 145      0E23C7AD 
 145      135C09
 146 045a 06F25CC9 		.ascii	"\006\362\\\311\202\3325\005n\211V\012\266\331t\251."
 146      82DA3505 
 146      6E89560A 
 146      B6D974A9 
 146      2E
 147 046b F63C1835 		.ascii	"\366<\03050o\002Wo\012-\335\260\241F\267\225Z4\275\236"
 147      306F0257 
 147      6F0A2DDD 
 147      B0A146B7 
 147      955A34BD 
 148 0480 D6CF102C 		.ascii	"\326\317\020,vu\306\012\263\363\260\027U\270\274D\257"
 148      7675C60A 
 148      B3F3B017 
 148      55B8BC44 
 148      AF
 149 0491 8B5DFF98 		.ascii	"\213]\377\230w\353L\306\230[E\376\015\341\001\275)\033"
 149      77EB4CC6 
 149      985B45FE 
 149      0DE101BD 
 149      291B
 150 04a3 7317BEAF 		.ascii	"s\027\276\257^\320\214 \177\376\030fk\270>\375\030\362"
 150      5ED08C20 
 150      7FFE1866 
 150      6BB83EFD 
 150      18F2
 151 04b5 E5746351 		.ascii	"\345tcQ\230\231bb*; !H\274\351\314\205?B\236\271R\300"
 151      98996262 
 151      2A3B2021 
 151      48BCE9CC 
 151      853F429E 
 152 04cc 03E0797B 		.ascii	"\003\340y{\332\0311\013#\362o\012x\302\271J+\302\345"
 152      DA19310B 
 152      23F26F0A 
 152      78C2B94A 
ARM GAS  /tmp/ccsLCQDM.s 			page 11


 152      2BC2E5
 153 04df 7A106195 		.ascii	"z\020a\225)\021n\035o\370{9\036\343\315\207\275S\337"
 153      29116E1D 
 153      6FF87B39 
 153      1EE3CD87 
 153      BD53DF
 154 04f2 C6EE9E0A 		.ascii	"\306\356\236\012\263\216\265\002\216|o;2\212|\353\005"
 154      B38EB502 
 154      8E7C6F3B 
 154      328A7CEB 
 154      05
 155 0503 4DE4DB32 		.ascii	"M\344\3332\275'f\033\327\247\217}[\034\335c_\314\241"
 155      BD27661B 
 155      D7A78F7D 
 155      5B1CDD63 
 155      5FCCA1
 156 0516 1BFB0E38 		.ascii	"\033\373\0168tc\337a\207n\354;\351`c\037g\">%E\021\371"
 156      7463DF61 
 156      876EEC3B 
 156      E960631F 
 156      67223E25 
 157 052d 0D028E4F 		.ascii	"\015\002\216Oo\013\372\361I\344g'lf6>1\366\212o:\323"
 157      6F0BFAF1 
 157      49E46727 
 157      6C66363E 
 157      31F68A6F 
 158 0543 59B31BF5 		.ascii	"Y\263\033\365\307\327\234\031\366\237\343\307\315\364"
 158      C7D79C19 
 158      F69FE3C7 
 158      CDF4
 159 0551 9F6D26FB 		.ascii	"\237m&\373O\213\326\371\226\034\007\347k1\345|+\217"
 159      4F8BD6F9 
 159      961C07E7 
 159      6B31E57C 
 159      2B8F
 160 0563 3774EF3F 		.ascii	"7t\357?\346\227\350Z\005MB\332 \230X\356P\364pk\331"
 160      E697E85A 
 160      054D42DA 
 160      209858EE 
 160      50F4706B 
 161 0578 6F30A3BB 		.ascii	"o0\243\273\004\234W\377\240\361a\206!\322\220\021\023"
 161      049C57FF 
 161      A0F16186 
 161      21D29011 
 161      13
 162 0589 7BA04D3D 		.ascii	"{\240M=9\273}\207\006Eh\247E\3104\313l\321S\230\216"
 162      39BB7D87 
 162      064568A7 
 162      45C834CB 
 162      6CD15398 
 163 059e 9DE289A5 		.ascii	"\235\342\211\245\251\207\022\022\307\347]\212\347\223"
 163      A9871212 
 163      C7E75D8A 
 163      E793
 164 05ac 8EFB1144 		.ascii	"\216\373\021D\234\217\235i#\016\213\003\363 \255\301"
 164      9C8F9D69 
 164      230E8B03 
ARM GAS  /tmp/ccsLCQDM.s 			page 12


 164      F320ADC1 
 165 05bc 9BDBC1E0 		.ascii	"\233\333\301\340m\351\015\376\312\324\330\266\366\345"
 165      6DE90DFE 
 165      CAD4D8B6 
 165      F6E5
 166 05ca C03F8C95 		.ascii	"\300?\214\225SS\256L\210\374\001\030\352\323/\035\240"
 166      5353AE4C 
 166      88FC0118 
 166      EAD32F1D 
 166      A0
 167 05db BE0C92B4 		.ascii	"\276\014\222\264e\246V\304\326\366\366\274:Q\344\333"
 167      65A656C4 
 167      D6F6F6BC 
 167      3A51E4DB 
 168 05eb 051C228E 		.ascii	"\005\034\"\216Y\006s3`;h\260\270\0310\243q\034\201\355"
 168      59067333 
 168      603B68B0 
 168      B81930A3 
 168      711C81ED 
 169 05ff A2C1BEB3 		.ascii	"\242\301\276\263\014\306r\266\233\006\373\321\014\230"
 169      0CC672B6 
 169      9B06FBD1 
 169      0C98
 170 060d D1120002 		.ascii	"\321\022\000\002\353\244\301.Y\006\2439\233\022;\325"
 170      EBA4C12E 
 170      5906A339 
 170      9B123BD5 
 171 061d FE099E8C 		.ascii	"\376\011\236\214\335\311\315\227\345)r\243\323\310)"
 171      DDC9CD97 
 171      E52972A3 
 171      D3C829
 172 062c 380E6E91 		.ascii	"8\016n\221S\336\202&\340\302\235\254\223\036\236\325"
 172      53DE8226 
 172      E0C29DAC 
 172      931E9ED5 
 173 063c 033B29AE 		.ascii	"\003;)\256O\037\225\216(N\252&<W@8\374l&\235V\216\235"
 173      4F1F958E 
 173      284EAA26 
 173      3C574038 
 173      FC6C269D 
 174 0653 68CF9567 		.ascii	"h\317\225g\346%&\264\353S0~R\333\273\276l\027\334\244"
 174      E62526B4 
 174      EB53307E 
 174      52DBBBBE 
 174      6C17DCA4 
 175 0667 3A3DDFC7 		.ascii	":=\337\307\332\227\367\225\033\367\360\312\032\211<"
 175      DA97F795 
 175      1BF7F0CA 
 175      1A893C
 176 0676 5DEE47B5 		.ascii	"]\356G\265\325Km\013\307\312\304\232\331\266\207 \005"
 176      D54B6D0B 
 176      C7CAC49A 
 176      D9B68720 
 176      05
 177 0687 390D56BC 		.ascii	"9\015V\274\246\011\010\346\201v\316YG\326\017\377\002"
 177      A60908E6 
 177      8176CE59 
ARM GAS  /tmp/ccsLCQDM.s 			page 13


 177      47D60FFF 
 177      02
 178 0698 4053B2B4 		.ascii	"@S\262\264kf6\315\232\231\215\355\3256W\262\320\325"
 178      6B6636CD 
 178      9A998DED 
 178      D53657B2 
 178      D0D5
 179 06aa 65E3ACDD 		.ascii	"e\343\254\335,p\257C\203'\223\376\3070\231~T\255\273"
 179      2C70AF43 
 179      832793FE 
 179      C730997E 
 179      54ADBB
 180 06bd F45DFFA5 		.ascii	"\364]\377\245r\254\326\246\252\242\3162`/\215Q\004n"
 180      72ACD6A6 
 180      AAA2CE32 
 180      602F8D51 
 180      046E
 181 06cf 7156867E 		.ascii	"qV\206~C\211\256N\235\217\013xZ|B\270\217n`i\226\211"
 181      4389AE4E 
 181      9D8F0B78 
 181      5A7C42B8 
 181      8F6E6069 
 182 06e5 5E6794D6 		.ascii	"^g\224\326\243.|\201\356\302+,\203\271\031\260K4\330"
 182      A32E7C81 
 182      EEC22B2C 
 182      83B919B0 
 182      4B34D8
 183 06f8 2A33606E 		.ascii	"*3`nc\316~\246\301\326Y\006c9\273B\203\275c\006Lo\366"
 183      63CE7EA6 
 183      C1D65906 
 183      6339BB42 
 183      83BD6306 
 184 070f A277D0C3 		.ascii	"\242w\320\303!\032\257 \365\373\004,\365\337@\017\002"
 184      211AAF20 
 184      F5FB042C 
 184      F5DF400F 
 184      02
 185 0720 3D04F430 		.ascii	"=\004\3640\320#@\277\004\372W\240?\002\275\000\364\022"
 185      D02340BF 
 185      04FA57A0 
 185      3F02BD00 
 185      F412
 186 0732 6DDF14B9 		.ascii	"m\337\024\271\313\325\371\367\340p\266\017r\227\246"
 186      CBD5F9F7 
 186      E070B60F 
 186      7297A6
 187 0741 AC94B9CB 		.ascii	"\254\224\271\313G\006\242b\356\257\244\310]\256hs\227"
 187      4706A262 
 187      EEAFA4C8 
 187      5DAE6873 
 187      97
 188 0752 9D595673 		.ascii	"\235YVs\027\312\014\220\271\306\252Z\233dy\232S\355"
 188      17CA0C90 
 188      B9C6AA5A 
 188      9B64799A 
 188      53ED
 189 0764 647BB588 		.ascii	"d{\265\210z\235\314\370}N\354h}^\347\213*X\233e0m\217"
ARM GAS  /tmp/ccsLCQDM.s 			page 14


 189      7A9DCCF8 
 189      7D4EEC68 
 189      7D5EE78B 
 189      2A589B65 
 190 077b 55EDB803 		.ascii	"U\355\270\003\354\270\023,\362!\320k@o\260\275\357\323"
 190      ECB8132C 
 190      F221D06B 
 190      406FB0BD 
 190      EFD3
 191 078d 6E418E24 		.ascii	"nA\216$\275\024^2;\346\322#\032\031i\213@-s}\001\215"
 191      BD145E32 
 191      3BE6D223 
 191      1A19698B 
 191      402D737D 
 192 07a3 AECAD408 		.ascii	"\256\312\324\010\261\206\223\250/\244}\177kW\221\012"
 192      B18693A8 
 192      2FA47D7F 
 192      6B57910A 
 193 07b3 133E17BF 		.ascii	"\023>\027\277y;\326w\207,\367\022y\331\206\263\307\305"
 193      793BD677 
 193      872CF712 
 193      79D986B3 
 193      C7C5
 194 07c5 D9E9DFE0 		.ascii	"\331\351\337\34028\002\267\022\036\231"
 194      323802B7 
 194      121E99
 195 07d0 6A63C7B8 		.ascii	"jc\307\270x\363\352\323\377\260\024\220\361W\351\307"
 195      78F3EAD3 
 195      FFB01490 
 195      F157E9C7 
 196 07e0 B99B7AB3 		.ascii	"\271\233z\263n\302\226\221\016g\3304\316|2\301Jf\211"
 196      6EC29691 
 196      0E67D834 
 196      CE7C32C1 
 196      4A6689
 197 07f3 F8ED8F21 		.ascii	"\370\355\217!\246`\\\201;k\031\2145\312\202\375TVl\352"
 197      A6605C81 
 197      3B6B198C 
 197      35CA82FD 
 197      54566CEA 
 198 0807 7D5DCBBA 		.ascii	"}]\313\272sw\265\202\312^\267a\007\337\342\322\372b"
 198      7377B582 
 198      CA5EB761 
 198      07DFE2D2 
 198      FA62
 199 0819 9BF62D95 		.ascii	"\233\366-\225\231<\272\325eB\020\343U'd\311C\367\264"
 199      993CBAD5 
 199      654210E3 
 199      552764C9 
 199      43F7B4
 200 082c C0E454CD 		.ascii	"\300\344T\315v\014\3234\201\333\007\215\315\323zC\313"
 200      760CD334 
 200      81DB078D 
 200      CDD37A43 
 200      CB
 201 083d 7B871E26 		.ascii	"{\207\036&\3360\317\2247lk_bjJ\324\350T\233\367C\363"
 201      DE30CF94 
ARM GAS  /tmp/ccsLCQDM.s 			page 15


 201      376C6B5F 
 201      626A4AD4 
 201      E8549BF7 
 202 0853 D37370F3 		.ascii	"\323sp\363\213\265\315\037\331|\356\011\322\374bS\315"
 202      8BB5CD1F 
 202      D97CEE09 
 202      D2FC6253 
 202      CD
 203 0864 9F3AB850 		.ascii	"\237:\270P\317\031\015f\255\252\371\336\273\330o%4\262"
 203      CF190D66 
 203      ADAAF9DE 
 203      BBD86F25 
 203      34B2
 204 0876 0C1CA833 		.ascii	"\014\034\2503Gk\276a\364\252=\247\274\307\247\374\367"
 204      476BBE61 
 204      F4AA3DA7 
 204      BCC7A7FC 
 204      F7
 205 0887 5882FB8C 		.ascii	"X\202\373\214\374\027\211\271g\330\006\260\224\312\303"
 205      FC1789B9 
 205      67D806B0 
 205      94CAC3
 206 0896 09CB88AC 		.ascii	"\011\313\210\254\023_:\010=\202\200\2356\003\226\"\262"
 206      135F3A08 
 206      3D82809D 
 206      36039622 
 206      B2
 207 08a7 FF4C839D 		.ascii	"\377L\203\235\265\014\306rv\205\006;g\006\314\370\315"
 207      B50CC672 
 207      7685063B 
 207      6706CCF8 
 207      CD
 208 08b8 67EC1A0D 		.ascii	"g\354\032\015v\3362\030\313\331\015\032\354\242\031"
 208      76DE3218 
 208      CBD90D1A 
 208      ECA219
 209 08c7 30E345DA 		.ascii	"0\343E\332\330\337h\260\313\226\301X\316n\323`\327\315"
 209      D8DF68B0 
 209      CB96C158 
 209      CE6ED360 
 209      D7CD
 210 08d9 80B98D39 		.ascii	"\200\271\2159\253\373\214\002\273e\031\214\345l>\015"
 210      ABFB8C02 
 210      BB65198C 
 210      E56C3E0D 
 211 08e9 3625D704 		.ascii	"6%\327\004X\212\265\350\2054\3304\313`,g\213i\260\327"
 211      588AB5E8 
 211      8534D834 
 211      CB602C67 
 211      8B69B0D7 
 212 08fd CC800D30 		.ascii	"\314\200\0150\346l)\0156\3332\030\313\3312\032l\236"
 212      E66C290D 
 212      36DB3218 
 212      CBD9321A 
 212      6C9E
 213 090f 19B0A1C6 		.ascii	"\031\260\241\306\234-\247\301\026Y\006c9k\242\301\336"
 213      9C2DA7C1 
ARM GAS  /tmp/ccsLCQDM.s 			page 16


 213      16590663 
 213      396BA2C1 
 213      DE
 214 0920 3003F6A4 		.ascii	"0\003\366\2441g\233i\260\345\226\301X\316>\240\301V"
 214      31679B69 
 214      B0E596C1 
 214      58CE3EA0 
 214      C156
 215 0932 9A011B69 		.ascii	"\232\001\033i\314\331V\032l\225e0\226\263\3554\330Z"
 215      CCD9561A 
 215      6C956530 
 215      96B3ED34 
 215      D85A
 216 0944 336025C6 		.ascii	"3`%\306\234\355\240\301\326[\006c9\333E\203m4\003\366"
 216      9CEDA0C1 
 216      D65B0663 
 216      39DB4583 
 216      6D3403F6 
 217 0958 BC3167BB 		.ascii	"\2741g\273i\260\367-\203\261\234u\322`\315f\300^\324"
 217      69B0F72D 
 217      83B19C75 
 217      D260CD66 
 217      C05ED4
 218 096b E12C7118 		.ascii	"\341,q\030\345\231\213lT\256\2765WMp,\216\321\\\022"
 218      E5998B6C 
 218      54AEBE35 
 218      574D702C 
 218      8ED15C12 
 219 097f 6347AED5 		.ascii	"cG\256\325\214\214\221\033\347\326\367\354P\306y\222"
 219      8C8C911B 
 219      E7D6F7EC 
 219      50C67992 
 220 098f ACC6CC20 		.ascii	"\254\306\314 \246\030\000\227\355\2472\3376\313`\032"
 220      A6180097 
 220      EDA732DF 
 220      36CB601A 
 221 099f 57DEAF9D 		.ascii	"W\336\257\235\216\230\330\340\223\334\356Jm\352\352"
 221      8E98D8E0 
 221      93DCEE4A 
 221      6DEAEA
 222 09ae AB7F2F9A 		.ascii	"\253\177/\232k\333\360l\356\250f\015\351hb\021\011\227"
 222      6BDBF06C 
 222      EEA8660D 
 222      E9686211 
 222      0997
 223 09c0 C8ABE3CE 		.ascii	"\310\253\343\316\\\366\305N\3420\363\270\221G\034\241"
 223      5CF6C54E 
 223      E230F3B8 
 223      91471CA1 
 224 09d0 3DE28819 		.ascii	"=\342\210\031u\245\030\342O\355_\016/\353\314ofkYwH"
 224      75A518E2 
 224      4FED5F0E 
 224      2FEBCC6F 
 224      666B5977 
 225 09e5 99287C05 		.ascii	"\231(|\005\023\205\257r\265\231f\247\305\355l(\037\323"
 225      1385AF72 
 225      B59966A7 
ARM GAS  /tmp/ccsLCQDM.s 			page 17


 225      C5ED6C28 
 225      1FD3
 226 09f7 4AA1F70A 		.ascii	"J\241\367\012\3138\267@>y\354\336\226\367dy\252\323"
 226      CB38B740 
 226      3E79ECDE 
 226      96F76479 
 226      AAD3
 227 0a09 8A1C0714 		.ascii	"\212\034\007\0249N\203\034\347\177\0059.[\226\243\237"
 227      394E831C 
 227      E77F0539 
 227      2E5B96A3 
 227      9F
 228 0a1a 468E3DFD 		.ascii	"F\216=\375\254\313qL\221\343\033\220\343\326\257 \307"
 228      ACCB714C 
 228      91E31B90 
 228      E3D6AF20 
 228      C7
 229 0a2b B43CAB72 		.ascii	"\264<\253r\014\240\344\200Y[\1772k3\265\270\376\203"
 229      0CA0E480 
 229      595B7F32 
 229      6B33B5B8 
 229      FE83
 230 0a3d 4DB3B87E 		.ascii	"M\263\270~\354\023\336M\252\323M\227\344\330\325O\250"
 230      EC13DE4D 
 230      AAD34D97 
 230      E4D8D54F 
 230      A8
 231 0a4e A9AE6C6E 		.ascii	"\251\256ln\252{Q\321\330\217\240\261\327\363t\026\251"
 231      AA7B51D1 
 231      D88FA0B1 
 231      D7F37416 
 231      A9
 232 0a5f 4D21757D 		.ascii	"M!u}\262o\223\262_\366\"@\315\317\030jg\3076\262G\364"
 232      B26F93B2 
 232      5FF62240 
 232      CDCF186A 
 232      67C736B2 
 233 0a75 67005A96 		.ascii	"g\000Z\226\247\265\242ScD'kD\364\021\267t\015\317\274"
 233      A7B5A253 
 233      6344276B 
 233      44F411B7 
 233      740DCFBC 
 234 0a89 F997951A 		.ascii	"\371\227\225\032\374!\213\373\177\177N\340\326\000\373"
 234      FC218BFB 
 234      7F7F4EE0 
 234      D600FB
 235 0a98 D8801607 		.ascii	"\330\200\026\007\252\244\003=\324\242\0142\304H\033"
 235      AAA4033D 
 235      D4A20C32 
 235      C4481B
 236 0aa7 7F11626D 		.ascii	"\177\021bm\254y\326\012\345\025\3140<\314|\360\013\341"
 236      AC79D60A 
 236      E515CC30 
 236      3CCC7CF0 
 236      0BE1
 237 0ab9 0EB55B5F 		.ascii	"\016\265[_`\331s7\361\272[ \320\316n\026\316h\201e\177"
 237      60D97337 
ARM GAS  /tmp/ccsLCQDM.s 			page 18


 237      F1BA5B20 
 237      D0CE6E16 
 237      CE688165 
 238 0ace A682240E 		.ascii	"\246\202$\016\201\353\320vwK\2631l\255\353\375M.\322"
 238      81EBD076 
 238      774BB331 
 238      6CADEBFD 
 238      4D2ED2
 239 0ae1 2496FEBE 		.ascii	"$\226\376\276\353\333F\026\350\354x\351\3573\2152L,"
 239      EBDB4616 
 239      E8EC78E9 
 239      EF338D32 
 239      4C2C
 240 0af3 F69C8647 		.ascii	"\366\234\206G\246\333\273-\375\035\272\213\254\266\340"
 240      A6DBBB2D 
 240      FD1DBA8B 
 240      ACB6E0
 241 0b02 AF4C2CF6 		.ascii	"\257L,\366LW\375\202\254\350\275j\023\024\330L\365\311"
 241      4C57FD82 
 241      ACE8BD6A 
 241      1314D84C 
 241      F5C9
 242 0b14 9830C91F 		.ascii	"\2300\311\037\202\266\343\274\3415;\263\346{\321\262"
 242      82B6E3BC 
 242      E1353BB3 
 242      E67BD1B2 
 243 0b24 EEDDB4EE 		.ascii	"\356\335\264\356c7\333\227\363\230\177\235\365\251'"
 243      6337DB97 
 243      F3987F9D 
 243      F5A927
 244 0b33 E96C2EA1 		.ascii	"\351l.\241\370\370]\007\3102\037(\376\246\201\342\015"
 244      F8F85D07 
 244      C8321F28 
 244      FEA681E2 
 244      0D
 245 0b44 37C90ADC 		.ascii	"7\311\012\334\254;\360#s\273+\376\300\335D\361sM)\376"
 245      AC3BF023 
 245      73BB2BFE 
 245      C0DD44F1 
 245      734D29FE 
 246 0b58 88AEE2E7 		.ascii	"\210\256\342\347ZW\274\202\367Er\375T\344gZ\006s\247"
 246      5A57BC82 
 246      F74572FD 
 246      54E4675A 
 246      0673A7
 247 0b6b B2E25CCA 		.ascii	"\262\342\\\312\212\363\300\212\363\355x\265}\001k\313"
 247      8AF3C08A 
 247      F3ED78B5 
 247      7D016BCB 
 248 0b7b E577686C 		.ascii	"\345whl\311hN)\032\256\035\310\261\005\035\352kb\022"
 248      C9684E29 
 248      1AAE1DC8 
 248      B1051DEA 
 248      6B6212
 249 0b8e F3D669F1 		.ascii	"\363\326i\361\364\244H1\343o\350\000\225\220x\363\256"
 249      F4A44831 
 249      E36FE800 
ARM GAS  /tmp/ccsLCQDM.s 			page 19


 249      959078F3 
 249      AE
 250 0b9f 65303703 		.ascii	"e07\003\326:\307\344\3164f'\240\300m\207v\353\265\356"
 250      D63AC7E4 
 250      CE346627 
 250      A0C06D87 
 250      76EBB5EE 
 251 0bb3 72EB8743 		.ascii	"r\353\207C3\370)0t\326\233\360\0274\316\237u\301\346"
 251      33F82930 
 251      74D69BF0 
 251      1734CE9F 
 251      75C1E6
 252 0bc6 6AE2B797 		.ascii	"j\342\267\227\022\250)T\235\302[n\236S\366j\223Y\307"
 252      12A82954 
 252      9DC25B6E 
 252      9E53F66A 
 252      9359C7
 253 0bd9 0D2D5CDA 		.ascii	"\015-\\\332I\021\013w[j\033`M1\352\336\251\026\234\351"
 253      49110B77 
 253      5B6A1B60 
 253      4D31EADE 
 253      A9169CE9 
 254 0bed AC01996A 		.ascii	"\254\001\231j{hG\004\242\031\312\021\353)G\\\001\216"
 254      7B684704 
 254      A219CA11 
 254      EB29475C 
 254      018E
 255 0bff D8008ED8 		.ascii	"\330\000\216\330\010t\025\355\216F\311\326j;5}\230\331"
 255      087415ED 
 255      8E46C9D6 
 255      6A3B357D 
 255      98D9
 256 0c11 C3AADC6E 		.ascii	"\303\252\334n\215u\214\232YF73\257\207\011\3373^ \302"
 256      8D758C9A 
 256      59463733 
 256      AF8709DF 
 256      335E20C2 
 257 0c25 41FD7135 		.ascii	"A\375q5\035 \257'\352-#\262\336|q\016\223\016\274e\006"
 257      1D20AF27 
 257      EA2D23B2 
 257      DE7C710E 
 257      930EBC65 
 258 0c3a EE491D06 		.ascii	"\356I\035\006\365\016\372\205\224\310O\203\331\342t"
 258      F50EFA85 
 258      94C84F83 
 258      D9E274
 259 0c49 1B36D06B 		.ascii	"\0336\320k@g\001\255\003\332\011\3643\240\237\003=\016"
 259      406701AD 
 259      03DA09F4 
 259      33A09F03 
 259      3D0E
 260 0c5b 340EF42C 		.ascii	"4\016\364,\320\357\201\326\202\211g\001]\004t\011\320"
 260      D0EF81D6 
 260      82896701 
 260      5D047409 
 260      D0
 261 0c6c 37806E00 		.ascii	"7\200n\000\2721\235\003(\243@\353O\307\356y\007bu\027"
ARM GAS  /tmp/ccsLCQDM.s 			page 20


 261      BA319D03 
 261      28A340EB 
 261      4FC7EE79 
 261      07627517 
 262 0c80 BCF0FDA6 		.ascii	"\274\360\375\246\233\347\315\260i^\027t{\337u\275\207"
 262      9BE7CDB0 
 262      695E1774 
 262      7BDF75BD 
 262      87
 263 0c91 89F78629 		.ascii	"\211\367\206)\336\354l:\363\335\344\326Zb\3235\340\326"
 263      DEEC6C3A 
 263      F3DDE4D6 
 263      5A62D335 
 263      E0D6
 264 0ca3 CBED9A8D 		.ascii	"\313\355\232\215\214\351\267(\263F=\321`\374{L\346\305"
 264      8CE9B728 
 264      B3463DD1 
 264      60FC7B4C 
 264      E6C5
 265 0cb5 4D620FDA 		.ascii	"Mb\017\332\375I\235\314\273q\354\277\310^\266f\350\215"
 265      FD499DCC 
 265      BB71ECBF 
 265      C85EB666 
 265      E88D
 266 0cc7 BB7AA67F 		.ascii	"\273z\246\177\033\311\340`-m\325\204\271\330\305\223"
 266      1BC9E060 
 266      2D6DD584 
 266      B9D8C593 
 267 0cd7 E4A79AE9 		.ascii	"\344\247\232\351C\334+Sc\227O.T\234\222\354,h\003\026"
 267      43DC2B53 
 267      63974F2E 
 267      549C92EC 
 267      2C680316 
 268 0ceb B6663624 		.ascii	"\266f6$\342m\012'\251m\012\237Z\006s3`\327h\260N3`)"
 268      E26D0A27 
 268      A96D0A9F 
 268      5A067333 
 268      60D768B0 
 269 0d03 36A1DDA0 		.ascii	"6\241\335\240\301\016[\006c9\373\033\015\366\205\031"
 269      C10E5B06 
 269      6339FB1B 
 269      0DF68519 
 270 0d13 B0149BD0 		.ascii	"\260\024\233\320n\323`_Y\006c9\253;E\201\2351\003\226"
 270      6ED3605F 
 270      59066339 
 270      AB3B4581 
 270      9D310396 
 271 0d27 626FCD7C 		.ascii	"bo\315|\032\354{\313`,g\013i\260Kf\300\334:\234\351"
 271      1AEC7BCB 
 271      602C670B 
 271      69B04B66 
 271      C0DC3A9C 
 272 0d3c 1D742710 		.ascii	"\035t'\020\371m0Hm\207\350\264\003\350.\240\273\201"
 272      F96D3048 
 272      6D87E8B4 
 272      03E82EA0 
 272      BB81
ARM GAS  /tmp/ccsLCQDM.s 			page 21


 273 0d4e C680EE05 		.ascii	"\306\200\356\005\272\017\350\307@\333\314\014d\233\351"
 273      BA0FE8C7 
 273      40DBCC0C 
 273      649BE9
 274 0d5d 11E65A4F 		.ascii	"\021\346ZO\023\321(\305\012\322\2463\235\377\371K6A"
 274      13D128C5 
 274      0AD2A633 
 274      9DFFF94B 
 274      3641
 275 0d6f C7AF771D 		.ascii	"\307\257w\035\370W\034>\322o\204\356\260\233\333\010"
 275      F8571C3E 
 275      D26F84EE 
 275      B09BDB08 
 276 0d7f DDA98D25 		.ascii	"\335\251\215%\227; \226t\232J\257\257\232L\327b<\255"
 276      973B2096 
 276      749A4AAF 
 276      AF9A4CD7 
 276      623CAD
 277 0d92 9D442C3C 		.ascii	"\235D,<\360\004\211\205\237C,\374\260W\332X\310\342"
 277      F0048985 
 277      9F432CFC 
 277      B057DA58 
 277      C8E2
 278 0da4 C032A996 		.ascii	"\3002\251\226\377\346\203\300\377\227\246b\341\266\203"
 278      FFE683C0 
 278      FF97A662 
 278      E1B683
 279 0db3 6C2CFC02 		.ascii	"l,\374\002X\3702\343X\270\375 \275!\3272\230\233\001"
 279      58F832E3 
 279      58B8FD20 
 279      BD21D732 
 279      989B01
 280 0dc6 DB41839D 		.ascii	"\333A\203\2354\003\226jC.\015\366\265e0\226\263\335"
 280      3403966A 
 280      432E0DF6 
 280      B5653096 
 280      B3DD
 281 0dd8 34D8B766 		.ascii	"4\330\267f\300Rm\310\245\301\376j\031\314\255g^\256"
 281      C0526DC8 
 281      A5C1FE6A 
 281      19CCAD67 
 281      5EAE
 282 0dea 9B7788FC 		.ascii	"\233w\210\374Q\010\022\307\240\353\037\007z\002\350"
 282      510812C7 
 282      A0EB1F07 
 282      7A02E8
 283 0df9 29A0A781 		.ascii	")\240\247\201\2361\023\022\016\323!\341\0020\334\231"
 283      9E311312 
 283      0ED321E1 
 283      0230DC99 
 284 0e09 E98412F5 		.ascii	"\351\204\022\365\350\323\277\337\321=$\020}\030q\360"
 284      E8D3BFDF 
 284      D13D2410 
 284      7D1871F0 
 285 0e19 2DCDC155 		.ascii	"-\315\301U\313\034\270i\016b7;\310\342\274\372\013\364"
 285      CB1CB869 
 285      0E62373B 
ARM GAS  /tmp/ccsLCQDM.s 			page 22


 285      C8E2BCFA 
 285      0BF4
 286 0e2b BF69F1F4 		.ascii	"\277i\361\364\226eS\315R:r\233^T\301\246\366\266\012"
 286      966553CD 
 286      523A729B 
 286      5E54C1A6 
 286      F6B60A
 287 0e3e 96CD80D5 		.ascii	"\226\315\200\325\035\244\300f[\0063\332*w\010|\3413"
 287      1DA4C066 
 287      5B0633DA 
 287      2A77087C 
 287      E133
 288 0e50 B0F93740 		.ascii	"\260\3717@\317\001\375\001\350yv\302\275\260w\267\265"
 288      CF01FD01 
 288      E87976C2 
 288      BDB077B7 
 288      B5
 289 0e61 6EED8C29 		.ascii	"n\355\214)\031E9\263\270F\266\375\224\266\355\272\336"
 289      194539B3 
 289      B846B6FD 
 289      94B6EDBA 
 289      DE
 290 0e72 26061CB7 		.ascii	"&\006\034\267\261wm:sA\031p\0100\232\240[Fd\275e\321"
 290      B1776D3A 
 290      73411970 
 290      08309AA0 
 290      5B4664BD 
 291 0e88 A9066693 		.ascii	"\251\006f\223y\263\031\274\024;\031\226\223\024\201"
 291      79B319BC 
 291      143B1996 
 291      931481
 292 0e97 80B55A06 		.ascii	"\200\265Z\006ss\206\007\375\01334!\205\315\221k`\373"
 292      73738607 
 292      FD0B3334 
 292      2185CD91 
 292      6B60FB
 293 0eaa E207406F 		.ascii	"\342\007@o\003m\002\313l\002\332\016\364\"\320\237\200"
 293      036D02CB 
 293      6C02DA0E 
 293      F422D09F 
 293      80
 294 0ebb 5E3663B1 		.ascii	"^6c\261\006z\243\343~\020\241>\323_\312\304\353[g?\016"
 294      067AA3E3 
 294      7E10A13E 
 294      D35FCAC4 
 294      EB5B673F 
 295 0ed0 FF504036 		.ascii	"\377P@6P\242\214\3322 k\260+d\305\212\200}f\006L\257"
 295      50A28CDA 
 295      32206BB0 
 295      2B64C58A 
 295      807D6606 
 296 0ee6 6F535A25 		.ascii	"oSZ%\372\\\016\372\\A6\205\202\256n\260\275\346h\267"
 296      FA5C0EFA 
 296      5C413685 
 296      82AE6EB0 
 296      BDE668B7 
 297 0efa 5E53AFDD 		.ascii	"^S\257\335fZ\317l35\3042\322\373\222\244\336E\376\026"
ARM GAS  /tmp/ccsLCQDM.s 			page 23


 297      665ACF6C 
 297      3335C432 
 297      D2FB92A4 
 297      DE45FE16 
 298 0f0e FC3ECDCA 		.ascii	"\374>\315\312\257;Y5u\355W\243 \371'\242\257\201\375"
 298      AF3B5935 
 298      75ED57A3 
 298      20F927A2 
 298      AF81FD
 299 0f21 34BFC7D5 		.ascii	"4\277\307\325[\025\323;\350\277\000B\316\006\277\017"
 299      5B15D33B 
 299      E8BF0042 
 299      CE06BF0F 
 300 0f31 DA0C3F18 		.ascii	"\332\014?\030\277\014t\016\210>\037\350B\240\213\201"
 300      BF0C740E 
 300      883E1FE8 
 300      42A08B81 
 301 0f41 DE32A386 		.ascii	"\3362\243\206wxJ\015\324o\310P\306\2551\301\375\334"
 301      77784A0D 
 301      D46FC850 
 301      C6AD31C1 
 301      FDDC
 302 0f53 6A599E1F 		.ascii	"jY\236\037\237v\245\323\201\\\314N\036\025\270Y}\360"
 302      9F76A5D3 
 302      815CCC4E 
 302      1E15B859 
 302      7DF0
 303 0f65 6D6FF1F7 		.ascii	"mo\361\367\3526\221h\000\376!\252V>?mZ/^\375\017&\346"
 303      EA369168 
 303      00FE21AA 
 303      563E3F6D 
 303      5A2F5EFD 
 304 0f7c 31CD4F25 		.ascii	"1\315O%\341\353.{\267\177\214j\212\307:\325\177\214"
 304      E1EB2E7B 
 304      B77F8C6A 
 304      8AC73AD5 
 304      7F8C
 305 0f8e 227FD124 		.ascii	"\"\177\321$pu}\3648\225[\244\221\244y\221\237\342"
 305      70757DF4 
 305      38955BA4 
 305      91A47991 
 305      9FE2
 306 0fa0 C0F69DEA 		.ascii	"\300\366\235\352\310\210I\3521=&_q\3501y%\311\344*`"
 306      C88849EA 
 306      313D265F 
 306      71E83179 
 306      25C9E42A 
 307 0fb5 72A38649 		.ascii	"r\243\206I\375?\315\232\341\320\374i\326\253\335\321"
 307      FD3FCD9A 
 307      E1D0FC69 
 307      D6ABDDD1 
 308 0fc5 E375F1E3 		.ascii	"\343u\361\343\315{\257\363\265\253\247\307p\033/'\332"
 308      CD7BAFF3 
 308      B5ABA7C7 
 308      701B2F27 
 308      DA
 309 0fd6 B8D1AD0D 		.ascii	"\270\321\255\015\0022\213\005\371'\356M\271)\026?\333"
ARM GAS  /tmp/ccsLCQDM.s 			page 24


 309      02328B05 
 309      F927EE4D 
 309      B929163F 
 309      DB
 310 0fe7 B190971B 		.ascii	"\261\220\227\033ke\371vW\027\257?\213\210\345\250\002"
 310      6B65F976 
 310      5717AF3F 
 310      8B88E5A8 
 310      02
 311 0ff8 AFA75EE7 		.ascii	"\257\247^\347\316\273ta"
 311      CEBB7461 
 312 1000 98C13C42 		.ascii	"\230\301<B\363\000rN\207\356LBs\037\374>\334\241\311"
 312      F300724E 
 312      87EE4C42 
 312      731FFC3E 
 312      DCA1C9
 313 1013 C57F2273 		.ascii	"\305\177\"s\011\\\237~\351\365z\207\341;\206x\"\355"
 313      095C9F7E 
 313      E9F57A87 
 313      E13B8678 
 313      22ED
 314 1025 BF272143 		.ascii	"\277'!C\354P\007^\324\\\340\300S\207Yw\246\235:\260"
 314      EC50075E 
 314      D45CE0C0 
 314      53875977 
 314      A69D3AB0 
 315 1039 18989DC5 		.ascii	"\030\230\235\305Zv\027\020v\027\233`\2676\266\244\203"
 315      5A761710 
 315      76179B60 
 315      B736B6A4 
 315      83
 316 104a FDB55503 		.ascii	"\375\265U\003\260\200\237\315(\360\307\226uP\003\341"
 316      B0809FCD 
 316      28F0C796 
 316      755003E1 
 317 105a 1ACB606E 		.ascii	"\032\313`n\006\254\201\006\333h\006,EB\267\231\006k"
 317      06AC8106 
 317      DB68062C 
 317      4542B799 
 317      066B
 318 106c B60CC672 		.ascii	"\266\014\306r\266\225\006k1\003\226bO\317\016\032\254"
 318      B695066B 
 318      31039662 
 318      4FCF0E1A 
 318      AC
 319 107d D53218CB 		.ascii	"\3252\030\313\331n\032l\257\0310\275e\024\275\203v5"
 319      D96E1A6C 
 319      AF1930BD 
 319      6514BD83 
 319      7635
 320 108f 346C3970 		.ascii	"4l9p\370_\352\300\001~\031\320\345@\033\2006\002]\005"
 320      F85FEAC0 
 320      017E19D0 
 320      E5401B80 
 320      36025D05 
 321 10a3 748D8319 		.ascii	"t\215\203\031Q\367\003OuI\236X\227N\347br\254n,\026"
 321      51F7034F 
ARM GAS  /tmp/ccsLCQDM.s 			page 25


 321      75499E58 
 321      974EE762 
 321      72AC6E2C 
 322 10b8 90F4980E 		.ascii	"\220\364\230\016S`\206k\031rl)\005v\304\024\230\341"
 322      5360866B 
 322      19726C29 
 322      0576C414 
 322      98E1
 323 10ca D2BB1C6B 		.ascii	"\322\273\034k\242\300\2762\005f\270\233O\216m\247\300"
 323      A2C0BE32 
 323      0566B89B 
 323      4F8E6DA7 
 323      C0
 324 10db CE98020B 		.ascii	"\316\230\002\013\031sv\201\002\373\336\024\330\253\274"
 324      19737681 
 324      02FBDE14 
 324      D8ABBC
 325 10ea 0E6B942F 		.ascii	"\016k\224/(/\370\300\013\346\203\235\327\001\335\000"
 325      282FF8C0 
 325      0BE6839D 
 325      D701DD00 
 326 10fa 7423D077 		.ascii	"t#\320w\201\276\317\332\377\242&\310\251\201\225\302"
 326      81BECFDA 
 326      FFA226C8 
 326      A98195C2 
 327 110a 4E4660CE 		.ascii	"NF`\316*\372\315\004\272q\200\337\214F\241\177\344\346"
 327      2AFACD04 
 327      BA7180DF 
 327      8C46A17F 
 327      E4E6
 328 111c FC66854C 		.ascii	"\374f\205Lz\370\020\256Y~5\366\242\310\317\206vq{\244"
 328      7AF810AE 
 328      597E35F6 
 328      A2C8CF86 
 328      76717BA4 
 329 1130 2A445446 		.ascii	"*DTF\334\034\243d\271\270\306\327\344\317\005\305\347"
 329      DC1CA364 
 329      B9B8C6D7 
 329      E4CF05C5 
 329      E7
 330 1141 952A4E71 		.ascii	"\225*Nq~\345\343\373W\361v\003\322\023\224\252i\253"
 330      7EE5E3FB 
 330      57F17603 
 330      D21394AA 
 330      69AB
 331 1153 8E343A95 		.ascii	"\2164:\225n\241T\235\352\262)=D\251\220\177\344\225"
 331      6EA1549D 
 331      EAB2293D 
 331      44A9907F 
 331      E495
 332 1165 CEA256C4 		.ascii	"\316\242V\304\036\344\024\301\215\331\221\371\224\274"
 332      1EE414C1 
 332      8DD991F9 
 332      94BC
 333 1173 90AD0F0C 		.ascii	"\220\255\017\014/G\336>\362\266\203\345\245K\313\013"
 333      2F47DE3E 
 333      F2B683E5 
ARM GAS  /tmp/ccsLCQDM.s 			page 26


 333      A54BCB0B 
 334 1183 C772029F 		.ascii	"\307r\002\2377\244\344\203\313\200\215\231\231\260\261"
 334      37A4E483 
 334      CB808D99 
 334      99B0B1
 335 1192 F1576723 		.ascii	"\361Wg##m\274\373\353\262Q\224\001\013\357\377\272,"
 335      236DBCFB 
 335      EBB25194 
 335      010BEFFF 
 335      BA2C
 336 11a4 709659E8 		.ascii	"p\226Y\350\366cG\234\374\031\345\367;\035\311\227d\331"
 336      F663479C 
 336      FC19E5F7 
 336      3B1DC997 
 336      64D9
 337 11b6 E38362D8 		.ascii	"\343\203b\330\337\337\307\345y\275\222\030\256\230\354"
 337      DFDFC7E5 
 337      79BD9218 
 337      AE98EC
 338 11c5 0D5405A2 		.ascii	"\015T\005\242\316\247\307<\353.\340\034\336\021\301"
 338      CEA7C73C 
 338      EB2EE01C 
 338      DE11C1
 339 11d4 60C523F9 		.ascii	"`\305#\371\345\301J)\337\027\364O\316\367K\023\363}"
 339      E5C14A29 
 339      DF17F44F 
 339      CEF74B13 
 339      F37D
 340 11e6 E581F181 		.ascii	"\345\201\361\201`$?\032\256\256z)\037\025\312\305\212"
 340      60243F1A 
 340      AEAE7A29 
 340      1F15CAC5 
 340      8A
 341 11f7 FC4095AF 		.ascii	"\374@\225\257\242\332/\345WV\372\274\221P\240\1779\347"
 341      A2DA2FE5 
 341      5756FABC 
 341      9150A07F 
 341      39E7
 342 1209 1A3DBAA0 		.ascii	"\032=\272\2400\034\230(\205\363\022\245\347F\217\313"
 342      301C9828 
 342      85F312A5 
 342      E7468FCB 
 343 1219 0D445013 		.ascii	"\015DP\023\021)\034\225\374y\250\034\012\007\243\222"
 343      11291C95 
 343      FC79A81C 
 343      0A07A392 
 344 1229 0F7DC8F2 		.ascii	"\017}\310\362\005\253\252P)\307\037\210(\305\373\363"
 344      05ABAA50 
 344      29C71F88 
 344      28C5FBF3 
 345 1239 AB23E17C 		.ascii	"\253#\341|1\\\371pU\260JzX\022\307\007\022\015E\242"
 345      315CF970 
 345      55B04A7A 
 345      5812C707 
 345      120D45A2 
 346 124d FE405514 		.ascii	"\376@U\024\265\223]\215\256\203\007y\243CR\334])\"\256"
 346      B5935D8D 
ARM GAS  /tmp/ccsLCQDM.s 			page 27


 346      AE830779 
 346      A34352DC 
 346      5D2922AE 
 347 1261 ABA47CAF 		.ascii	"\253\244|\257_*\023\253+\242\336\350\344\220\024AO\347"
 347      5F2A13AB 
 347      2BA2DEE8 
 347      E4901441 
 347      4FE7
 348 1273 78BDEAF3 		.ascii	"x\275\352\363Y\2700\324\033u\221*T\262\207%\321\357"
 348      59B830D4 
 348      1B75912A 
 348      54B28725 
 348      D1EF
 349 1285 98140E44 		.ascii	"\230\024\016D%{dr\225\357q+\232@eo 8\276\"\350{\011"
 349      257B6472 
 349      95EF712B 
 349      9A40656F 
 349      2038BE22 
 350 129c B5D37304 		.ascii	"\265\323s\004.\024J\023\003>\251\270\252,\230=\276\342"
 350      2E144A13 
 350      033EA9B8 
 350      AA2C983D 
 350      BEE2
 351 12ae 256F24F0 		.ascii	"%o$\360\037R\026.TUWfO\220\242H1eA\333\304\312h\016"
 351      1F52162E 
 351      54555766 
 351      4F90A248 
 351      316541DB 
 352 12c6 AA8C44C5 		.ascii	"\252\214D\305\250\344\215\346\214\030\365\214\367\331"
 352      A8E48DE6 
 352      8C18F58C 
 352      F7D9
 353 12d4 31C5638A 		.ascii	"1\305c\212\307e\343b\351\270\261%P7\274`\\\361sE=p\261"
 353      C765E362 
 353      E9B8B125 
 353      5037BC60 
 353      5CF17345 
 354 12eb 60EC9831 		.ascii	"`\354\2301E\350\343\230\247{\343\217\205\305\245\311"
 354      45E8E398 
 354      A77BE38F 
 354      85C5A5C9 
 355 12fb 1A17AEF1 		.ascii	"\032\027\256\361\024\015/|!W-\241Z(\377\301S<N-\227"
 355      140D2F7C 
 355      21572DA1 
 355      5A28FFC1 
 355      533C4E2D 
 356 1310 BE30A600 		.ascii	"\2760\246\000\225\035\320\252\315\027\360\333|\021\177"
 356      951DD0AA 
 356      CD17F0DB 
 356      7C117F
 357 131f B64F0C89 		.ascii	"\266O\014\211\276@tr\241\031\301C\301p4\222_:n\364\340"
 357      BE407472 
 357      A119C143 
 357      C1703492 
 357      5F3A6EF4 
 358 1334 41F9A346 		.ascii	"A\371\243F\025\346\227\226\024O\034\230\217\234\301"
 358      15E69796 
ARM GAS  /tmp/ccsLCQDM.s 			page 28


 358      144F1C98 
 358      8F9CC1
 359 1343 5B51E1C7 		.ascii	"[Q\341\307\016\201*\210\033\014\262\242G\342M9\350\242"
 359      0E812A88 
 359      1B0CB2A2 
 359      47E24D39 
 359      E8A2
 360 1355 6A04E1A8 		.ascii	"j\004\341\250\032\301E\254\021\214M\244\204o\211n\362"
 360      1AC145AC 
 360      118C4DA4 
 360      846F896E 
 360      F2
 361 1366 70B160EC 		.ascii	"p\261`\354\350\222QE\343\212\356@\000>\261\242b\274"
 361      E8925145 
 361      E38AEE40 
 361      003EB1A2 
 361      62BC
 362 1378 E87BC91B 		.ascii	"\350{\311\033uJU~\257o|Q&r=]R<v\342\240\374\020\262"
 362      754A557E 
 362      AF6F7C51 
 362      26723D5D 
 362      523C76E2 
 363 1390 2F112C2F 		.ascii	"/\021,/\022\255D\0164!\024\010z\243\216\321c\013\213"
 363      12AD440E 
 363      34211408 
 363      7AA38ED1 
 363      630B8B
 364 13a3 3CCEB1E3 		.ascii	"<\316\261\343^()\362d\215--)**\3648J\236-)\364\330\212"
 364      5E2829F2 
 364      648D2D2D 
 364      292A2AF4 
 364      384A9E2D 
 365 13bb D139B6D0 		.ascii	"\3219\266\320\303\377\001|v\340#H\026\342k\270h\213"
 365      C3FF017C 
 365      76E02348 
 365      16E26BB8 
 365      688B
 366 13cd 485187AF 		.ascii	"HQ\207\257\002uB~\244}D\251\307c\037U\360\214\307>\374"
 366      0275427E 
 366      A47D44A9 
 366      C7631F55 
 366      F08CC73E 
 367 13e2 29CF284C 		.ascii	")\317(LF\332Fx<9\201 \346&\340G\022D\"\270\350@\027"
 367      46DA4678 
 367      3C398120 
 367      E626E047 
 367      124422B8 
 368 13f9 11192B3C 		.ascii	"\021\031+<\020\253\240 XU\026\230\340\364\301eh:\341"
 368      10ABA020 
 368      58551698 
 368      E0F4C165 
 368      683AE1
 369 140c C2D18492 		.ascii	"\302\321\204\222}\345\221\311\021\265OdG\313\261\343"
 369      7DE591C9 
 369      11B54F64 
 369      47CBB1E3 
 370 141c A39EE02B 		.ascii	"\243\236\340+\367\222\362\020kX\276r\254\027g\310[%"
ARM GAS  /tmp/ccsLCQDM.s 			page 29


 370      F792F210 
 370      6B58BE72 
 370      AC1767C8 
 370      5B25
 371 142e D544D125 		.ascii	"\325D\321%\024\226&\2164\001AT=\3343\272`t\015\272\263"
 371      1496268E 
 371      34014154 
 371      3DDC33BA 
 371      60740DBA 
 372 1443 3214A890 		.ascii	"2\024\250\220\302\221\374\247\013\012\320\355*{Y\321"
 372      C291FCA7 
 372      0B0AD0ED 
 372      2A7B59D1 
 373 1453 50186B1A 		.ascii	"P\030k\032p\003A\0347\242\250\231\307,\343\227\373\202"
 373      7003411C 
 373      37A2A899 
 373      C72CE397 
 373      FB82
 374 1465 610901E6 		.ascii	"a\011\001\346\342j\324\367\242\276h\315\277e\206\342"
 374      E26AD4F7 
 374      A2BE68CD 
 374      BF6586E2 
 375 1475 9DF86825 		.ascii	"\235\370h%\326\\X\232\200\002\0206\346\300G\320\371"
 375      D65C589A 
 375      80021036 
 375      E6C047D0 
 375      F9
 376 1486 283A87A2 		.ascii	"(:\207\242\3631[d\320\000t\016D\347 t\016F\347\020t"
 376      F3315B64 
 376      D000740E 
 376      44E72074 
 376      0E46E710 
 377 149b FE0E9DE8 		.ascii	"\376\016\235\350\276A\350\276A\350\276A\350\276\301"
 377      BE41E8BE 
 377      41E8BE41 
 377      E8BEC1
 378 14aa E8BEC103 		.ascii	"\350\276\301\003\205\360\020!\374;!\374\210\020~T\010"
 378      85F01021 
 378      FC3B21FC 
 378      88107E54 
 378      08
 379 14bb 0F15C28F 		.ascii	"\017\025\302\217\331\302\003\007\240s\240P\021F\227"
 379      D9C20307 
 379      A073A050 
 379      114697
 380 14ca C18E9017 		.ascii	"\301\216\220\027q\233\2055<I\012\243k\260\302/\205\355"
 380      719B8535 
 380      3C490AA3 
 380      6BB0C22F 
 380      85ED
 381 14dc BE72318C 		.ascii	"\276r1\214\325.VJ\331Q\245\277\240/\241\224\025\255"
 381      D52E564A 
 381      D951A5BF 
 381      A02FA194 
 381      15AD
 382 14ee 0CFAC9E7 		.ascii	"\014\372\311\347\262\012qB$+\032\226\312\"\240G\\pT"
 382      B20A7142 
ARM GAS  /tmp/ccsLCQDM.s 			page 30


 382      242B1A96 
 382      CA22A047 
 382      5C7054
 383 1501 4626A02F 		.ascii	"F&\240/\225`\210\202\240Rr\206\375\223\321W\331RM \212"
 383      95608882 
 383      A0527286 
 383      FD93D157 
 383      D9524D20 
 384 1516 D4223927 		.ascii	"\324\"9'E\203\343\377\030\312\225&JU\321J1\002\275i"
 384      4583E3FF 
 384      18CA9526 
 384      4A55D14A 
 384      3102BD69 
 385 152a 122ED842 		.ascii	"\022.\330B\336\352\036\304_\"\336\012\324]\275\321\236"
 385      DEEA1EC4 
 385      5F22DE0A 
 385      D45DBDD1 
 385      9E
 386 153b 090F2235 		.ascii	"\011\017\"5\256\220w\222\030\210\006\252&\364T\253\377"
 386      AE907792 
 386      188806AA 
 386      26F454AB 
 386      FF
 387 154c 542D5523 		.ascii	"T-U#\256zQwBUN\310\213\232\205\242\003\212\250B\012"
 387      AE7A5177 
 387      42554EC8 
 387      8B9A85A2 
 387      038AA842 
 388 1561 A17E8B1E 		.ascii	"\241~\213\036vTV#\223\017\266\344\224\225\321\032\354"
 388      76545623 
 388      930FB6E4 
 388      9495D11A 
 388      EC
 389 1572 3C95041D 		.ascii	"<\225\004\035]\203\223\252\220\346\000\011\211P\011"
 389      5D8393AA 
 389      90E60009 
 389      895009
 390 1581 BE8AF843 		.ascii	"\276\212\370C\367aNs\260V\304\012\3600T\031B\003\341"
 390      F7614E73 
 390      B056C40A 
 390      F0305419 
 390      4203E1
 391 1594 A396DA53 		.ascii	"\243\226\332S\204Am\366Q\372\023\322\262\024\226\252"
 391      84416DF6 
 391      51FA13D2 
 391      B21496AA 
 392 15a4 7C485A27 		.ascii	"|HZ'\251\372}:D\304R~\301\350\322\342R\024\177\362!"
 392      A9FA7D3A 
 392      44C4527E 
 392      C1E8D2E2 
 392      52147FF2 
 393 15b9 CC940D19 		.ascii	"\314\224\015\0310\260\006\274\026G\267q\250O\024Je\266"
 393      30B006BC 
 393      1647B771 
 393      A84F144A 
 393      65B6
 394 15cb 02CF4074 		.ascii	"\002\317@t\016\022J=\002\2126\005\236\202\022\217\323"
ARM GAS  /tmp/ccsLCQDM.s 			page 31


 394      0E124A3D 
 394      028A3605 
 394      9E82128F 
 394      D3
 395 15dc F33CBA7A 		.ascii	"\363<\272z\234\343\340\222U<\250\264\340\251\247=\016"
 395      9CE3E092 
 395      553CA8B4 
 395      E0A9A73D 
 395      0E
 396 15ed 742DF1D8 		.ascii	"t-\361\330P0|\312j\354\003\372\324\220\232\032\302\210"
 396      50307CCA 
 396      6AEC03FA 
 396      D4909A1A 
 396      C288
 397 15ff D75F2962 		.ascii	"\327_)b\341\012G\017\367\226\"W\022+Un\204\002\217}"
 397      E10A470F 
 397      F7962257 
 397      122B556E 
 397      84028F7D 
 398 1613 4CE1388F 		.ascii	"L\3418\217\255d\270\307>z\000&\003\207{lO!f\"p\243="
 398      AD64B8C7 
 398      3E7A0026 
 398      03877B6C 
 398      4F216622 
 399 162a 50E60B3B 		.ascii	"P\346\013;\003\221\362@Y\324\025\221*\312\002U~\251"
 399      0391F240 
 399      59D41591 
 399      2ACA0255 
 399      7EA9
 400 163c C639110D 		.ascii	"\3069\021\015\371\301p\237\004\272\227\334\215b*\372"
 400      F9C1709F 
 400      04BA97DC 
 400      8D622AFA 
 401 164c 10AEC134 		.ascii	"\020\256\3014Z\343\012\327\240+\366dWT-\331\2218!GE"
 401      5AE30AD7 
 401      A02BF664 
 401      57542DD9 
 401      91382147 
 402 1661 C45736C1 		.ascii	"\304W6\301Q\216)\316=H,\354\011\003\260W\364\373\303"
 402      518E29CE 
 402      3D482CEC 
 402      0903B057 
 402      F4FBC3
 403 1674 52242245 		.ascii	"R$\"E\372\342\004\005\205m/J=|(\363I\344\"v\364E\350"
 403      FAE20405 
 403      856D2F4A 
 403      3D7C28F3 
 403      49E42276 
 404 168b 6EEA5B18 		.ascii	"n\352[\030\366\223\351\211\013\022\245b\224\034Y\036"
 404      F693E989 
 404      0B12A562 
 404      941C591E 
 405 169b 0C938A2B 		.ascii	"\014\223\212+O\214\031\275\210\224>\340\016\247\\}\250"
 405      4F8C19BD 
 405      88943EE0 
 405      0EA75C7D 
 405      A8
ARM GAS  /tmp/ccsLCQDM.s 			page 32


 406 16ac 41048D04 		.ascii	"A\004\215\004\325!$6\226-\354\014\342\300\027\316\012"
 406      D5212436 
 406      962DEC0C 
 406      E2C017CE 
 406      0A
 407 16bd 464292E4 		.ascii	"FB\222\344\017;B\325!\177\330\026\364\207\355bY\270"
 407      0F3B42D5 
 407      217FD816 
 407      F487ED62 
 407      59B8
 408 16cf 02937267 		.ascii	"\002\223rg\311\360B1*:KF\220K\001\271\024\222K\021\271"
 408      C9F04231 
 408      2A3A4B46 
 408      904B01B9 
 408      14924B11 
 409 16e4 8CC41757 		.ascii	"\214\304\027W\311\360QD1}\360\370\245fCd\300\270\273"
 409      C9F05144 
 409      317DF0F8 
 409      A5664364 
 409      C0B8BB
 410 16f7 7F38E847 		.ascii	"\1778\350G7\365\357\376\325\377\001\0220f\254"
 410      37F5EFFE 
 410      D5FF0112 
 410      3066AC
 411              		.text
 412              		.section	.gnu.lto_.symtab.ad6a7f45a4cb727d,"",%progbits
 413 0000 5F5F6561 		.ascii	"__early_init\000\000\000\000\000\000\000\000\000\000"
 413      726C795F 
 413      696E6974 
 413      00000000 
 413      00000000 
 414 0016 0000A100 		.ascii	"\000\000\241\000\000\000mmc_lld_is_card_inserted\000"
 414      00006D6D 
 414      635F6C6C 
 414      645F6973 
 414      5F636172 
 415 0035 00000000 		.ascii	"\000\000\000\000\000\000\000\000\000\000\000\246\000"
 415      00000000 
 415      000000A6 
 415      00
 416 0042 00006D6D 		.ascii	"\000\000mmc_lld_is_write_protected\000\000\000\000\000"
 416      635F6C6C 
 416      645F6973 
 416      5F777269 
 416      74655F70 
 417 0063 00000000 		.ascii	"\000\000\000\000\000\000\000\203\002\000\000boardIn"
 417      00000083 
 417      02000062 
 417      6F617264 
 417      496E
 418 0075 69740000 		.ascii	"it\000\000\000\000\000\000\000\000\000\000\000\000\207"
 418      00000000 
 418      00000000 
 418      000087
 419 0084 02000070 		.ascii	"\002\000\000pal_default_config\000\000\000\000\000\000"
 419      616C5F64 
 419      65666175 
ARM GAS  /tmp/ccsLCQDM.s 			page 33


 419      6C745F63 
 419      6F6E6669 
 420 009f 00000000 		.ascii	"\000\000\000\000\000\000\214\002\000\000stm32_clock"
 420      00008C02 
 420      00007374 
 420      6D33325F 
 420      636C6F63 
 421 00b4 5F696E69 		.ascii	"_init\000\000\002\000\000\000\000\000\000\000\000\000"
 421      74000002 
 421      00000000 
 421      00000000 
 421      00
 422 00c5 8A020000 		.ascii	"\212\002\000\000"
 423              		.text
 424              		.section	.gnu.lto_.opts,"",%progbits
 425 0000 272D6D63 		.ascii	"'-mcpu=cortex-m4' '-mfloat-abi=hard' '-mfpu=fpv4-sp"
 425      70753D63 
 425      6F727465 
 425      782D6D34 
 425      2720272D 
 426 0033 2D643136 		.ascii	"-d16' '-mno-thumb-interwork' '-mthumb' '-O2' '-fomi"
 426      2720272D 
 426      6D6E6F2D 
 426      7468756D 
 426      622D696E 
 427 0066 742D6672 		.ascii	"t-frame-pointer' '-falign-functions=16' '-ffunction"
 427      616D652D 
 427      706F696E 
 427      74657227 
 427      20272D66 
 428 0099 2D736563 		.ascii	"-sections' '-fdata-sections' '-fno-common' '-flto' "
 428      74696F6E 
 428      73272027 
 428      2D666461 
 428      74612D73 
 429 00cc 272D6673 		.ascii	"'-fsingle-precision-constant'\000"
 429      696E676C 
 429      652D7072 
 429      65636973 
 429      696F6E2D 
 430              		.text
 431              		.section	.text.__early_init,"ax",%progbits
 432              		.align	2
 433              		.p2align 4,,15
 434              		.global	__early_init
 435              		.thumb
 436              		.thumb_func
 437              		.type	__early_init, %function
 438              	__early_init:
 439              		@ args = 0, pretend = 0, frame = 0
 440              		@ frame_needed = 0, uses_anonymous_args = 0
 441              		@ link register save eliminated.
 442 0000 FFF7FEBF 		b	stm32_clock_init
 443              		.size	__early_init, .-__early_init
 444 0004 AFF30080 		.section	.text.mmc_lld_is_card_inserted,"ax",%progbits
 444      AFF30080 
 444      AFF30080 
ARM GAS  /tmp/ccsLCQDM.s 			page 34


 445              		.align	2
 446              		.p2align 4,,15
 447              		.global	mmc_lld_is_card_inserted
 448              		.thumb
 449              		.thumb_func
 450              		.type	mmc_lld_is_card_inserted, %function
 451              	mmc_lld_is_card_inserted:
 452              		@ args = 0, pretend = 0, frame = 0
 453              		@ frame_needed = 0, uses_anonymous_args = 0
 454              		@ link register save eliminated.
 455 0000 024B     		ldr	r3, .L3
 456 0002 1869     		ldr	r0, [r3, #16]
 457 0004 C0F3C010 		ubfx	r0, r0, #7, #1
 458 0008 7047     		bx	lr
 459              	.L4:
 460 000a 00BF     		.align	2
 461              	.L3:
 462 000c 00080240 		.word	1073874944
 463              		.size	mmc_lld_is_card_inserted, .-mmc_lld_is_card_inserted
 464              		.section	.text.mmc_lld_is_write_protected,"ax",%progbits
 465              		.align	2
 466              		.p2align 4,,15
 467              		.global	mmc_lld_is_write_protected
 468              		.thumb
 469              		.thumb_func
 470              		.type	mmc_lld_is_write_protected, %function
 471              	mmc_lld_is_write_protected:
 472              		@ args = 0, pretend = 0, frame = 0
 473              		@ frame_needed = 0, uses_anonymous_args = 0
 474              		@ link register save eliminated.
 475 0000 0020     		movs	r0, #0
 476 0002 7047     		bx	lr
 477              		.size	mmc_lld_is_write_protected, .-mmc_lld_is_write_protected
 478 0004 AFF30080 		.section	.text.boardInit,"ax",%progbits
 478      AFF30080 
 478      AFF30080 
 479              		.align	2
 480              		.p2align 4,,15
 481              		.global	boardInit
 482              		.thumb
 483              		.thumb_func
 484              		.type	boardInit, %function
 485              	boardInit:
 486              		@ args = 0, pretend = 0, frame = 0
 487              		@ frame_needed = 0, uses_anonymous_args = 0
 488              		@ link register save eliminated.
 489 0000 7047     		bx	lr
 490              		.size	boardInit, .-boardInit
 491              		.global	pal_default_config
 492 0002 00BFAFF3 		.section	.rodata.pal_default_config,"a",%progbits
 492      0080AFF3 
 492      0080AFF3 
 492      0080
 493              		.align	2
 494              		.type	pal_default_config, %object
 495              		.size	pal_default_config, 168
 496              	pal_default_config:
ARM GAS  /tmp/ccsLCQDM.s 			page 35


 497 0000 A004802A 		.word	713032864
 498 0004 00000000 		.word	0
 499 0008 AFFBFFFF 		.word	-1105
 500 000c 05511564 		.word	1679118597
 501 0010 DFFF0000 		.word	65503
 502 0014 00770000 		.word	30464
 503 0018 00A00A00 		.word	696320
 504 001c 80000000 		.word	128
 505 0020 00000000 		.word	0
 506 0024 FFFFFFFF 		.word	-1
 507 0028 55555555 		.word	1431655765
 508 002c FFFF0000 		.word	65535
 509 0030 00000000 		.word	0
 510 0034 00000000 		.word	0
 511 0038 00000000 		.word	0
 512 003c 00000000 		.word	0
 513 0040 FFFFFFFF 		.word	-1
 514 0044 55555551 		.word	1364546901
 515 0048 FFFF0000 		.word	65535
 516 004c 00000000 		.word	0
 517 0050 00000000 		.word	0
 518 0054 00000000 		.word	0
 519 0058 00000000 		.word	0
 520 005c FFFFFFFF 		.word	-1
 521 0060 55555555 		.word	1431655765
 522 0064 FFFF0000 		.word	65535
 523 0068 00000000 		.word	0
 524 006c 00000000 		.word	0
 525 0070 00000000 		.word	0
 526 0074 00000000 		.word	0
 527 0078 FFFFFFFF 		.word	-1
 528 007c 45000000 		.word	69
 529 0080 FFFF0000 		.word	65535
 530 0084 00000000 		.word	0
 531 0088 00000000 		.word	0
 532 008c 00000000 		.word	0
 533 0090 00000000 		.word	0
 534 0094 FFFFFFFF 		.word	-1
 535 0098 00000000 		.word	0
 536 009c FFFF0000 		.word	65535
 537 00a0 00000000 		.word	0
 538 00a4 00000000 		.word	0
 539              		.comm	__gnu_lto_v1,1,1
 540              		.ident	"GCC: (GNU Tools for ARM Embedded Processors) 4.8.4 20140526 (release) [ARM/embedded-4_8-br
ARM GAS  /tmp/ccsLCQDM.s 			page 36

