ARM GAS  /tmp/ccFL7AGG.s 			page 1


   1              		.syntax unified
   2              		.cpu cortex-m3
   3              		.fpu softvfp
   4              		.eabi_attribute 20, 1
   5              		.eabi_attribute 21, 1
   6              		.eabi_attribute 23, 3
   7              		.eabi_attribute 24, 1
   8              		.eabi_attribute 25, 1
   9              		.eabi_attribute 26, 1
  10              		.eabi_attribute 30, 2
  11              		.eabi_attribute 34, 1
  12              		.eabi_attribute 18, 4
  13              		.thumb
  14              		.file	"chcond.c"
  15              		.section	.gnu.lto_.jmpfuncs.ce376c1dc93b6ae8,"",%progbits
  16 0000 789C6D8A 		.ascii	"x\234m\212A\022\200 \014\003\223\024\007\371\241O\300"
  16      41128020 
  16      0C039314 
  16      07F9A14F 
  16      C0
  17 0011 0F78E6E9 		.ascii	"\017x\346\351\244\214r\262\2076\331\255 \374M\177o\003"
  17      A48C72B2 
  17      8736D9AD 
  17      20FC4D7F 
  17      6F03
  18 0023 49BFE8E2 		.ascii	"I\277\350\342\315\004\"\215\306\327\303\025\305\010"
  18      CD04228D 
  18      C6D7C315 
  18      C508
  19 0031 38327209 		.ascii	"82r\011V$\251I\316\360\322\306a\363,\333B\273b\002:"
  19      5624A949 
  19      CEF0D2C6 
  19      61F32CDB 
  19      42BB6202 
  20 0046 FC0553   		.ascii	"\374\005S"
  21              		.text
  22              		.section	.gnu.lto_.inline.ce376c1dc93b6ae8,"",%progbits
  23 0000 789C6D90 		.ascii	"x\234m\220=\016\202@\020\205\337,\213\273\340\242\022"
  23      3D0E8240 
  23      1085DF2C 
  23      8BBBE0A2 
  23      12
  24 0011 2B0A8385 		.ascii	"+\012\203\2056&z\012kN\341Y\254\351l\271\201w0!\266"
  24      36267A0A 
  24      6B4EE159 
  24      ACE96CB9 
  24      81773021 
  25 0026 D6961646 		.ascii	"\326\226\026F;\023+\023\013g\027\220\004\335b~\336\274"
  25      3B132B13 
  25      0B671790 
  25      04DD627E 
  25      DEBC
  26 0038 F9325901 		.ascii	"\3712Y\001\201\177oMU\016\000_\022\301\266B\234\206"
  26      817F6F4D 
  26      550E005F 
  26      12C1B642 
  26      9C86
ARM GAS  /tmp/ccFL7AGG.s 			page 2


  27 004a D08F95DB 		.ascii	"\320\217\225\333 \014\306\215>xn\240wK\247{\206\205"
  27      200CC68D 
  27      3E786EA0 
  27      774BA77B 
  27      8685
  28 005c 3C63AC89 		.ascii	"<c\254\211I\270\271\015\036|u_@\355\347\254\335\224"
  28      49B8B90D 
  28      1E7C755F 
  28      40EDE7AC 
  28      DD94
  29 006e AE226491 		.ascii	"\256\"d\221\032\353\020}v\345\231\207\250\244\206j\336"
  29      1AEB107D 
  29      76E59987 
  29      A8A4866A 
  29      DE
  30 007f 6705BD2D 		.ascii	"g\005\275-\251\346\222uH\350\204 x\017\275\"\255.\011"
  30      A9E69275 
  30      48E88420 
  30      780FBD22 
  30      AD2E09
  31 0092 5B808FE4 		.ascii	"[\200\217\344\205\0060=\034\303\257\2536\270\3244\214"
  31      8506303D 
  31      1CC3AFAB 
  31      36B8D434 
  31      8C
  32 00a3 1F7560F6 		.ascii	"\037u`\366|\236hLZ\316\354r\375\341\310\210K\324\274"
  32      7C9E684C 
  32      5ACEEC72 
  32      FDE1C888 
  32      4BD4BC
  33 00b6 3C0B10C4 		.ascii	"<\013\020\304\035\222s\344\031\177\305\007\253Y%s"
  33      1D9273E4 
  33      197FC507 
  33      AB592573 
  34              		.text
  35              		.section	.gnu.lto_.pureconst.ce376c1dc93b6ae8,"",%progbits
  36 0000 789C6362 		.ascii	"x\234cb`b\020f\200\000N\006)F+&)f)\026+V)v+\016)N+\000"
  36      60621066 
  36      80004E06 
  36      29462B26 
  36      29662916 
  37 001e 103901B2 		.ascii	"\0209\001\262"
  38              		.text
  39              		.section	.gnu.lto_chCondObjectInit.ce376c1dc93b6ae8,"",%progbits
  40 0000 789C8D50 		.ascii	"x\234\215P;K\003A\020\236o/!b\243\255\205`/f-\374\013"
  40      3B4B0341 
  40      109E6F2F 
  40      2162A3AD 
  40      85602F66 
  41 0017 FE022368 		.ascii	"\376\002#h\231\354\205\273E\223\203\273DP\213\334\251"
  41      99EC85BB 
  41      459383BB 
  41      44508BDC 
  41      A9
  42 0028 9D0887E5 		.ascii	"\235\010\207\345i#\242\205\2056\012\026\026\251\004"
  42      6923A285 
  42      85360A16 
ARM GAS  /tmp/ccFL7AGG.s 			page 3


  42      16A904
  43 0037 F10101C1 		.ascii	"\361\001\001\3016V\266\326\"\304\331\273S\324B\034\330"
  43      3656B6D6 
  43      22C4D9BB 
  43      53D4421C 
  43      D8
  44 0048 9DD9D9F9 		.ascii	"\235\331\331\371\036\214 A\277c\214\317,\210\034\316"
  44      1E8C2041 
  44      BF638CCF 
  44      2C881CCE 
  45 0058 B008227E 		.ascii	"\260\010\"~ \212\206\004`\012\002u\004:\213Hg\317D\267"
  45      208A8604 
  45      600A0275 
  45      043A8B48 
  45      67CF44B7 
  46 006c 3F189C5E 		.ascii	"?\030\234^^\237\357#\021%\240\001f\324\351g\221\266"
  46      5E9FEF23 
  46      1125A001 
  46      66D4E967 
  46      91B6
  47 007e C2309E20 		.ascii	"\3020\236 R\351\263\302\267!\230\2070\331\272\247\215"
  47      52E9B3C2 
  47      B7219887 
  47      30D9BAA7 
  47      8D
  48 008f B7CDC39D 		.ascii	"\267\315\303\235\361*\016P$\007b\235\326\0308I'!\307"
  48      F12A0E50 
  48      2407629D 
  48      D6183849 
  48      2721C7
  49 00a2 9C06F628 		.ascii	"\234\006\366(\201\206p\200\005\316V*X\3037\247Lq\373"
  49      81867080 
  49      05CE562A 
  49      58C337A7 
  49      4C71FB
  50 00b5 9EDCBD94 		.ascii	"\236\334\275\224\276\244\262\242\273\375\330\343\361"
  50      BEA4B2A2 
  50      BBFDD8E3 
  50      F1
  51 00c2 8C592185 		.ascii	"\214Y!\205d\274\375\247\347\253)\215\002SGa8\312\"9"
  51      64BCFDA7 
  51      E7AB298D 
  51      02534761 
  51      38CA2239 
  52 00d6 3BE5EC30 		.ascii	";\345\3540\260c\206\031G\251\302M<\\\305\021wrg#\177"
  52      B0638619 
  52      47A9C24D 
  52      3C5CC511 
  52      77726723 
  53 00eb C1C54F78 		.ascii	"\301\305Ox\217\242\327\335\213Bf\3443*,\302\0130\213"
  53      8FA2D7DD 
  53      8B4266E4 
  53      332A2CC2 
  53      0B308B
  54 00fe 9F96AED7 		.ascii	"\237\226\256\327\250K\345\331\253\322\256\257H\345\352"
  54      A84BE5D9 
  54      ABD2AEAF 
ARM GAS  /tmp/ccFL7AGG.s 			page 4


  54      48E5EA
  55 010d 9AF602D9 		.ascii	"\232\366\002\331\362\333\315%\311\205\337\222\201\257"
  55      F2DBCD25 
  55      C985DF92 
  55      81AF
  56 011b B8AFBCA6 		.ascii	"\270\257\274\246]V4\363\017\200n\252\345\266\315Cn\240"
  56      5D5634F3 
  56      0F806EAA 
  56      E5B6CD43 
  56      6EA0
  57 012d 5CBBECD2 		.ascii	"\\\273\354\322\007\023\363uw"
  57      0713F375 
  57      77
  58              		.text
  59              		.section	.gnu.lto_chCondSignal.ce376c1dc93b6ae8,"",%progbits
  60 0000 789C8D92 		.ascii	"x\234\215\222Ah\323P\030\307\277\357\275\304\256\231"
  60      4168D350 
  60      18C7BFEF 
  60      BDC4AE99 
  61 0010 60C1CB4E 		.ascii	"`\301\313N\243\027O\352R\305\353` \010;\354\262:P/\322"
  61      A3174FEA 
  61      52C5EB60 
  61      20083BEC 
  61      B23A502F 
  62 0025 BE863568 		.ascii	"\276\2065hZIZq\016YZ6(\3632\301\203\330yP\007\302\030"
  62      5A495A71 
  62      0E595A36 
  62      28F332C1 
  62      83D87950 
  63 003c DBAEBB0D 		.ascii	"\333\256\273\015\224\341\030N{\365\3406\324\223\202"
  63      94E1184E 
  63      7BF5E036 
  63      D49382
  64 004b 15D4C33C 		.ascii	"\025\324\303<\314\357\345\245Y\354e\013\344\345\345"
  64      CCEFE5A5 
  64      59EC650B 
  64      E4E5E5
  65 005a E5FBFFFE 		.ascii	"\345\373\377\376\377\357\3451`\320}]\244\373\017-\277"
  65      FFEFE531 
  65      60D07D5D 
  65      A4FB0F2D 
  65      BF
  66 006b A127EA80 		.ascii	"\241'\352\200ln\033\240\326\303\030o\016\202oh\277S"
  66      6C6E1BA0 
  66      D6C3186F 
  66      0E826F68 
  66      BF53
  67 007d E09FE4A8 		.ascii	"\340\237\344\250\251e\015QN\000a\212q\015\247\256c\000"
  67      A9650D51 
  67      4E00618A 
  67      710DA7AE 
  67      6300
  68 008f 5961EBBB 		.ascii	"Ya\353\273\007\007\313\2776\226\227p\236\235\322\320"
  68      0707CBBF 
  68      36969770 
  68      9E9DD2D0 
  69 009f 41D0C146 		.ascii	"A\320\301FH\322\200\206\034\250J\207i\337\237K\003\210"
ARM GAS  /tmp/ccFL7AGG.s 			page 5


  69      48D28086 
  69      1CA84A87 
  69      69DF9F4B 
  69      0388
  70 00b1 40759546 		.ascii	"@u\225F\011\033C&\237|\033\352?\277=\376\334\027\225"
  70      091B4326 
  70      9F7C1BEA 
  70      3FBF3DFE 
  70      DC1795
  71 00c4 E5F03925 		.ascii	"\345\3609%\012\334\020*\\\206\347\252\203~\230\301g"
  71      0ADC102A 
  71      5C86E7AA 
  71      837E98C1 
  71      67
  72 00d5 FE93211B 		.ascii	"\376\223!\033\203\327kh#O\313Y\364\275\021~\327T\227"
  72      83D76B68 
  72      234FCB59 
  72      F4BD117E 
  72      D75497
  73 00e8 EFA0BEFF 		.ascii	"\357\240\276\377zk\247\245+\3468\352\223p\237\362\235"
  73      7A6BA7A5 
  73      2BE638EA 
  73      93709FF2 
  73      9D
  74 00f9 85459F2E 		.ascii	"\205E\237.\317F\275\011O\011sb\0345\211K\004\262<\306"
  74      CF46BD09 
  74      4F097362 
  74      1C35894B 
  74      04B23CC6 
  75 010d 768A181F 		.ascii	"v\212\030\037\347\027\367\376\336\210\002\252\311\372"
  75      E717F7FE 
  75      DE8802AA 
  75      C9FA
  76 011b E60E76C2 		.ascii	"\346\016v\302\212\240Q\342'\025y\367\303\354\247\004"
  76      8AA051E2 
  76      271579F7 
  76      C3ECA704 
  77 012b 754FF09A 		.ascii	"uO\360\232\357\247\310&\344C\310\017\224K\252\315\267"
  77      EFA7C826 
  77      E443C80F 
  77      944BAACD 
  77      B7
  78 013c 30FD7DEF 		.ascii	"0\375}\357\353\217L\224\2210\207\366c\310\2419\310\303"
  78      EB8F4C94 
  78      913087F6 
  78      63C8A139 
  78      C8C3
  79 014e 148D97BD 		.ascii	"\024\215\227\275\3351\036~y\244\037\346`*\207\021\346"
  79      DD311E7E 
  79      79A41FE6 
  79      602A8711 
  79      E6
  80 015f 68CD6EF4 		.ascii	"h\315n\364\235\217\007\351!\270\014\202a\020&\245\253"
  80      9D8F07E9 
  80      21B80C82 
  80      611026A5 
  80      AB
ARM GAS  /tmp/ccFL7AGG.s 			page 6


  81 0170 2A08796C 		.ascii	"*\010yl\256\0329\\\241\327p\207.\034\331D\240%\303@"
  81      AE1A395C 
  81      A1D77087 
  81      2E1CD944 
  81      A025C340 
  82 0184 BED53EFD 		.ascii	"\276\325>\375\237\374A\227\265\021\267\34619\015\357"
  82      9FFC4197 
  82      B511B7E6 
  82      31390DEF 
  83 0194 61A65D5F 		.ascii	"a\246]_[\300\316\357\237\204}\277!uI!K\325\366J=Y\331"
  83      5BC0CEEF 
  83      9F847DBF 
  83      21754921 
  83      4BD5F64A 
  84 01ab D8DBD91D 		.ascii	"\330\333\331\035\355\330\207(\207\013\004\012\016\015"
  84      EDD88728 
  84      870B040A 
  84      0E0D
  85 01b9 C40E4D0E 		.ascii	"\304\016M\016_a\277\242\265\240\326~\261\246EZP\347"
  85      5F61BFA2 
  85      B5A0D67E 
  85      B1A6455A 
  85      50E7
  86 01cb 15A585AC 		.ascii	"\025\245\205\254\315\230\305\262c\231\242\\\2300\013"
  86      CD98C5B2 
  86      6399A25C 
  86      98300B
  87 01da D65D5314 		.ascii	"\326]S\024\355\274]\366\314\212[-\3352i\342VL\317\025"
  87      EDBC5DF6 
  87      CC8A5B2D 
  87      DD3269E2 
  87      564CCF15 
  88 01ee B42ECAA5 		.ascii	"\264.\312\245\302\200\200\241\243\004\326\275\212yy"
  88      C28080A1 
  88      A304D6BD 
  88      8A7979
  89 01fd 243B9C35 		.ascii	"$;\2345\355\222\270]-\310Z\327\272)\234+\325\222\030"
  89      ED92B85D 
  89      2DC85AD7 
  89      BA299C2B 
  89      D59218
  90 0210 28426A24 		.ascii	"(Bj$;\232\316\347<\353\216k\237K\237\311\000s!\341X"
  90      3B9ACEE7 
  90      3CEB8E6B 
  90      9F4B9FC9 
  90      007321E1 
  91 0225 4ED99D80 		.ascii	"N\331\235\200K\307H\023Q\213\236(\026\010\370\017\355"
  91      4BC74813 
  91      518B9E28 
  91      1608F80F 
  91      ED
  92 0236 33F5BD   		.ascii	"3\365\275"
  93              		.text
  94              		.section	.gnu.lto_chCondSignalI.ce376c1dc93b6ae8,"",%progbits
  95 0000 789C8D52 		.ascii	"x\234\215R\315K\033A\024\177of\223&A\250\320\177\240"
  95      CD4B1B41 
  95      147F6F66 
ARM GAS  /tmp/ccFL7AGG.s 			page 7


  95      932641A8 
  95      D07FA0
  96 0013 E0D18FB5 		.ascii	"\340\321\217\265\305\213\207\374\027\015To\311l\310"
  96      C58B87FC 
  96      170D546F 
  96      C96CC8
  97 0022 0ED60412 		.ascii	"\016\326\004\022-\250\210\233&\322\366\244\307\222\010"
  97      2DA8889B 
  97      26D2F6A4 
  97      C79208
  98 0031 C58BA082 		.ascii	"\305\213\240\202Q\274\344$9\224R\011*\271(H)\351\275"
  98      51BCE424 
  98      39945209 
  98      2AB92848 
  98      29E9BD
  99 0044 503D28F8 		.ascii	"P=(\370\001\366\315\3146\331\346b\007v\336\333\231\371"
  99      01F6CDCC 
  99      36D9E662 
  99      0776DEDB 
  99      99F9
 100 0056 7DBC37C3 		.ascii	"}\2747\303\200A\357xI\337\006-g(b\010\220\255\036\003"
 100      8041EF78 
 100      49DF062D 
 100      67286208 
 100      90AD1E03 
 101 006a 14238CF1 		.ascii	"\024#\214\361j\034\274\230u\325\017^\037G\313,[\210"
 101      6A1CBC98 
 101      75D50F5E 
 101      1F47CB2C 
 101      5B88
 102 007c 2A018425 		.ascii	"*\001\204%\306-\\\232@MRc\215\366\303\303\316\301\373"
 102      C62D5C9A 
 102      404D5263 
 102      8DF6C3C3 
 102      CEC1FB
 103 008f DA1A7E66 		.ascii	"\332\032~f}\014\247\0218H\204\010M\030U\023\235\012"
 103      7D0CA711 
 103      38488408 
 103      4D185513 
 103      9D0A
 104 00a1 41D9F356 		.ascii	"A\331\363V\237\003\010\215zE\263\"K S\221\037\301\273"
 104      9F03088D 
 104      7A45B322 
 104      4B205391 
 104      1FC1BB
 105 00b4 DBD2FECA 		.ascii	"\333\322\376\312p\022\327\311H\006\371\002\314\023\305"
 105      7012D7C9 
 105      4806F902 
 105      CC13C5
 106 00c3 206C7934 		.ascii	" ly4\012\022Y\025*(\221g\220\275\246hi\351\024\006\212"
 106      0A125915 
 106      2A289167 
 106      90BDA668 
 106      69E91406 
 107 00d8 218AF3FB 		.ascii	"!\212\363\373\312\217\263PG\312$\215\217\327t\314\020"
 107      CA8FB350 
 107      47CA248D 
ARM GAS  /tmp/ccFL7AGG.s 			page 8


 107      8FD774CC 
 107      10
 108 00e9 0BED85F8 		.ascii	"\013\355\205\370#\206\271}z\031'\177\304]\364\274~R"
 108      2386B97D 
 108      7A19277F 
 108      C45DF4BC 
 108      7E52
 109 00fb F1E9C1A7 		.ascii	"\361\351\301\247\327\300\015\002\322\370\006\345_?\227"
 109      D7C00D02 
 109      D2F806E5 
 109      5F3F97
 110 010a EF463B16 		.ascii	"\357F;\026\211\245\253\236@\016\32587&\276~\232\354"
 110      89A5AB9E 
 110      400ED538 
 110      3726BE7E 
 110      9AEC
 111 011c 35D1BCBE 		.ascii	"5\321\274\276\344\201.\030\022P\355`\306Q\324wt\266"
 111      E4812E18 
 111      1250ED60 
 111      C651D477 
 111      74B6
 112 012e F7A5852C 		.ascii	"\367\245\205,h*DB\312\024\372\246\230\202o\0318\351"
 112      682A4442 
 112      CA14FAA6 
 112      98826F19 
 112      38E9
 113 0140 1DEEC692 		.ascii	"\035\356\306\222\270I\277~\263^<Z\220\306\222\242\206"
 113      B849BF7E 
 113      B35E3C5A 
 113      90C692A2 
 113      86
 114 0151 372F9EFD 		.ascii	"7/\236\375\003_\354\221\216\006\245y\000\3165\274\376"
 114      035FEC91 
 114      8E06A579 
 114      00CE35BC 
 114      FE
 115 0162 BDBE3294 		.ascii	"\275\2762\224\304\355.\301\270\304\260\237>\225\370"
 115      C4ED2EC1 
 115      B8C4B09F 
 115      3E95F8
 116 0171 C4DC5B6F 		.ascii	"\304\334[o\015\177\357O\027\001j'\254\222\023(\267\177"
 116      0D7FEF4F 
 116      17016A27 
 116      AC921328 
 116      B77F
 117 0183 9762860F 		.ascii	"\227b\206\017`\001n\275\017\312GD(9ssR\0317-\267\364"
 117      60016EBD 
 117      0FCA4744 
 117      28397373 
 117      5219372D 
 118 0199 DB6941B1 		.ascii	"\333iA\261}3\320\351(\230\367\205jO\365v\324vs\323i"
 118      7D33D0E9 
 118      2898F785 
 118      6A4FF576 
 118      D47673D3 
 119 01ae 5BE49C39 		.ascii	"[\344\2349\333I\277\265\205+S2W\260g\362\263\331)\233"
 119      DB49BFB5 
ARM GAS  /tmp/ccFL7AGG.s 			page 9


 119      852B5332 
 119      57B067F2 
 119      B3D9299B 
 120 01c2 92FC8C5D 		.ascii	"\222\374\214]\310\013Z\027\271\2543\"`\354?\0002+\336"
 120      C80B5A17 
 120      B9AC3322 
 120      60EC3F00 
 120      322BDE
 121 01d5 CC3A74C8 		.ascii	"\314:t\310-\010\327\031q\341\017=:\312\275"
 121      2D08D719 
 121      71E10F3D 
 121      3ACABD
 122              		.text
 123              		.section	.gnu.lto_chCondBroadcastI.ce376c1dc93b6ae8,"",%progbits
 124 0000 789C8D52 		.ascii	"x\234\215RMk\024A\020\255\352\236\336\035\007\005\301"
 124      4D6B1441 
 124      10ADEA9E 
 124      DE1D0705 
 124      C1
 125 0011 1FA0172F 		.ascii	"\037\240\027/\0062\212^<\370/vA\275mz\302\314\240\331"
 125      06328A5E 
 125      3CF82F76 
 125      41BD6D7A 
 125      C2CCA0D9 
 126 0025 85DD44D0 		.ascii	"\205\335D\320 \333\033\347 \350!\027A\342\305\217\233"
 126      20DB1BE7 
 126      20E82117 
 126      41E2C58F 
 126      9B
 127 0036 825110CC 		.ascii	"\202Q\020\314\315\010\342'~\004\017\201\200\270\344"
 127      CD08E227 
 127      7E040F81 
 127      80B8E4
 128 0045 2678C839 		.ascii	"&x\3109\004\327\327\323\235u\314E\013\246\252\272\273"
 128      04D7D7D3 
 128      9D75CC45 
 128      0BA6AABA 
 128      BB
 129 0056 DE7B35D5 		.ascii	"\336{5\325-H\320^;\203\357\026\266SD\256\021\213\305"
 129      2D48D05E 
 129      3B83EF16 
 129      B65344AE 
 129      118BC5
 130 0069 4F448350 		.ascii	"OD\203Pp\340\022\351\222\227a \344\3157D&RE\235\314"
 130      70E012E9 
 130      92976120 
 130      E4CD3744 
 130      2652459D 
 131 007e 7EC56CF7 		.ascii	"~\305l\367\211\251/d\240\270\177\216K\276e\261:\034"
 131      89A92F64 
 131      A0B87F8E 
 131      4BBE65B1 
 131      3A1C
 132 0090 8D1E6FBC 		.ascii	"\215\036o\274\177\266\303\217\304\001\3113L\001\345"
 132      7FB6C38F 
 132      C401C933 
 132      4C01E5
ARM GAS  /tmp/ccFL7AGG.s 			page 10


 133 009f 4C0A8E43 		.ascii	"L\012\216C\233E\326\301\024\025\306,\036!\322\345\262"
 133      9B45D6C1 
 133      1415C62C 
 133      1E21D2E5 
 133      B2
 134 00b0 010FEA06 		.ascii	"\001\017\352\006\013\004\331dI\320\223\037iacg\351\365"
 134      0B04D964 
 134      49D0931F 
 134      69616367 
 134      E9F5
 135 00c2 EDF3E36A 		.ascii	"\355\363\343j\227\254\336\370\276\240\210Z|\217\025"
 135      97ACDEF8 
 135      BEA0885A 
 135      7C8F15
 136 00d1 084A8694 		.ascii	"\010J\206\224\243\011zh\214\031\256?}\265\306\0022w"
 136      A3097A68 
 136      8C19AE3F 
 136      7DB5C602 
 136      3277
 137 00e3 686960CC 		.ascii	"hi`\314\301\234E\312\301Yv\302DS6\266\370\001\2600h"
 137      C19C45CA 
 137      C15976C2 
 137      445336B6 
 137      F801B030 
 138 00f8 BC7B12B5 		.ascii	"\274{\022\265\370>\226\216\300\234\250be\312\322b\331"
 138      F83E968E 
 138      C09CA862 
 138      65CAD262 
 138      D9
 139 0109 63798C85 		.ascii	"cy\214\205b\011\377\260u\350/\370\325=\322QUZT\340p"
 139      6209FFB0 
 139      75E82FF8 
 139      D53DD251 
 139      555A54E0 
 140 011e 9FA9D8DA 		.ascii	"\237\251\330\332\\\277\313\356WR\016\347i\333\\\267"
 140      5CBFCBEE 
 140      57520EE7 
 140      69DB5CB7 
 141 012e C040B3BB 		.ascii	"\300@\263\2730\364\236\333R(\255|9\354\012\275\3227"
 141      30F49EDB 
 141      5228AD7C 
 141      39EC0ABD 
 141      D237
 142 0140 10D77CFE 		.ascii	"\020\327|\376\025y\035\262\\j\206UM\351cPF{R\3735\362"
 142      15791DB2 
 142      5C6A8655 
 142      4DE96350 
 142      467B52FB 
 143 0156 C67D57D5 		.ascii	"\306}W\325\304)\356\264\034\371\312\362\017\261\333"
 143      C429EEB4 
 143      1CF9CAF2 
 143      0FB1DB
 144 0165 503041C7 		.ascii	"P0A\307\300\344ENc\036N#\364c\331\347\271\325\237\361"
 144      C0E4454E 
 144      631E4E23 
 144      F463D9E7 
 144      B9D59FF1 
ARM GAS  /tmp/ccFL7AGG.s 			page 11


 145 0179 901FEBF6 		.ascii	"\220\037\353\366\265\3151\215\232\247+\230\241\247y"
 145      B5CD318D 
 145      9AA72B98 
 145      A1A779
 146 0188 CEFFE029 		.ascii	"\316\377\340)\355-\025?\007'\307\215\244\325\263&\026"
 146      ED2D153F 
 146      0727C78D 
 146      A4D5B326 
 146      16
 147 0199 78286B34 		.ascii	"x(k4\030\2768\352Jv\255\201\036\212\272\235\335\361"
 147      18BE38EA 
 147      4A76AD81 
 147      1E8ABA9D 
 147      DDF1
 148 01ab 38EBCC4C 		.ascii	"8\353\314L\307\272\223\\\216\223\351K\261\316\362\251"
 148      C7BA935C 
 148      8E93E94B 
 148      B1CEF2A9 
 149 01bb BCD38B67 		.ascii	"\274\323\213g\273s\355\0131\222\356l\334\353j\354\353"
 149      BB73ED0B 
 149      3192EE6C 
 149      DCEB6AEC 
 149      EB
 150 01cc 4E3B99D4 		.ascii	"N;\231\324t\352?\000y[_\234KP\224\365t\226Lf\364\033"
 150      74EA3F00 
 150      795B5F9C 
 150      4B5094F5 
 150      74964C66 
 151 01e2 E3FBC6D6 		.ascii	"\343\373\306\326"
 152              		.text
 153              		.section	.gnu.lto_chCondBroadcast.ce376c1dc93b6ae8,"",%progbits
 154 0000 789C8D50 		.ascii	"x\234\215P=K\003A\020\235\267\227\363\243K\251M\270"
 154      3D4B0341 
 154      109DB797 
 154      F3A34BA9 
 154      4DB8
 155 0012 C64EB2F9 		.ascii	"\306N\262\371\011\001A\260Hc\024\264\222\313\336a\026"
 155      090141B0 
 155      486314B4 
 155      92CBDE61 
 155      16
 156 0023 BD3BB95C 		.ascii	"\275;\271\\\304`\221K\214 \"\232\"\205\215\240 \210"
 156      C460914B 
 156      8C20229A 
 156      22858DA0 
 156      2088
 157 0035 20DAF803 		.ascii	" \332\370\003\374\005\221\350\037\020,mbk\023o\357b"
 157      FC0591E8 
 157      1F102C6D 
 157      626B136F 
 157      EF62
 158 0047 102D7461 		.ascii	"\020-tawfg\336\274}\373\0301\372\271\246\243]\000\321"
 158      776667DE 
 158      BC7DFB18 
 158      31FAB9A6 
 158      A35D00D1 
 159 005b 4914A111 		.ascii	"I\024\241\021X\273K\324\230`\200J\010Tg\250\257\"\306"
ARM GAS  /tmp/ccFL7AGG.s 			page 12


 159      58BB4BD4 
 159      9860804A 
 159      085467A8 
 159      AF22C6
 160 006e DEB18797 		.ascii	"\336\261\207\227\301\340\266sx\177\204k6\251\301\211"
 160      C1E0B673 
 160      787F846B 
 160      36A9C189 
 161 007e EB3AB5C2 		.ascii	"\353:\265\302\260m\020\211\370\272\024\235jv\031LE\255"
 161      B06D1089 
 161      F8BA149D 
 161      6A76194C 
 161      45AD
 162 0090 4BCDF7B7 		.ascii	"K\315\367\267\316\353\324\010f\342\002:\305\344\240"
 162      CEEBD408 
 162      66E2023A 
 162      C5E4A0
 163 009f 4053A2B4 		.ascii	"@S\242\264DY\206\366q\026\236\346e\362\336\012$`\250"
 163      445986F6 
 163      71169EE6 
 163      65F2DE0A 
 163      2460A8
 164 00b2 6CD43F18 		.ascii	"l\324?\030\366\207\037y\244V\377\251w\203/\312]\372"
 164      F6871F79 
 164      A456FFA9 
 164      77832FCA 
 164      5DFA
 165 00c4 080FC2B4 		.ascii	"\010\017\302\264\204&\220p\254C\223H)\344\336\371\261"
 165      84269070 
 165      AC439348 
 165      29E4DEF9 
 165      B1
 166 00d5 FE0BA78B 		.ascii	"\376\013\247\213!\225\304\030\321\177\244\232\270\214"
 166      2195C418 
 166      D17FA49A 
 166      B88C
 167 00e3 7C8AA5D1 		.ascii	"|\212\245\3217i&\256\220ID\365\250\321o>\247F\263\224"
 167      376926AE 
 167      904944F5 
 167      A8D16F3E 
 167      A746B394 
 168 00f7 B802E586 		.ascii	"\270\002\345\206\302\346x\331sl.<\253\306-{\233\213"
 168      C2E678D9 
 168      736C2E3C 
 168      ABC62D7B 
 168      9B8B
 169 0109 B22C49AF 		.ascii	"\262,I\257\302\003\277\352n\360(\361\003^\361ET\027"
 169      C203BFEA 
 169      6EF028F1 
 169      035EF145 
 169      5417
 170 011b 9E6B6505 		.ascii	"\236ke\005\345\377\032\260w\002>W(.\024\271t\305f\325"
 170      E5FF1AB0 
 170      77023E57 
 170      282E14B9 
 170      74C566D5 
 171 012f 5258DF5E 		.ascii	"RX\337^\023\316|\325\025\3312\245\013\305E\243dV\354"
ARM GAS  /tmp/ccFL7AGG.s 			page 13


 171      13CE7CD5 
 171      15D932A5 
 171      0BC545A3 
 171      6456EC
 172 0142 2D5FCE1A 		.ascii	"-_\316\03239b>\215;\266\343\3715\372\004y_xF"
 172      3339623E 
 172      8D3BB6E3 
 172      F935FA04 
 172      795F7846 
 173              		.text
 174              		.section	.gnu.lto_chCondWaitS.ce376c1dc93b6ae8,"",%progbits
 175 0000 789C9554 		.ascii	"x\234\225TMH\224A\030~\337\371~vWwu\3731\350\022\342"
 175      4D489441 
 175      187EDFF9 
 175      7E765777 
 175      75FB31E8 
 176 0016 31C38D0C 		.ascii	"1\303\215\014D\242C\367n)\325Q\277\225\335\217Z5]+3"
 176      44A243F7 
 176      6E29D551 
 176      BF95DD8F 
 176      5A355D2B 
 177 002b F05BDB43 		.ascii	"\360[\333C`\007\021\202\312\304\225\020!\210\272e$\264"
 177      60071182 
 177      CAC49510 
 177      2188BA65 
 177      24B4
 178 003d D5C14C32 		.ascii	"\325\301L2\202\310\277\016K\036$\222\360\"\206\253n"
 178      82C8BF0E 
 178      4B1E2492 
 178      F02286AB 
 178      6E
 179 004e EF7C33FB 		.ascii	"\357|3\373\347\266h\003;\357\314\354<?\363\316;\037"
 179      E7B66803 
 179      3BEFCCEC 
 179      3C3FF3CE 
 179      3B1F
 180 0060 0306BBDB 		.ascii	"\003\006\273\333y\372\255j\000\343\024\321\001\310\006"
 180      79FAAD6A 
 180      00E314D1 
 180      01C806
 181 006f 6601224E 		.ascii	"f\001\"N\206\212\030(L\235\375\010`\225h\357\024\260"
 181      868A1828 
 181      4C9DFD08 
 181      609568EF 
 181      14B0
 182 0081 DC2AD373 		.ascii	"\334*\323s\247\272\330vNC\344\021\020z\231\242\352\032"
 182      A7BAD876 
 182      4E43E411 
 182      107A99A2 
 182      EA1A
 183 0093 F65E46CE 		.ascii	"\366^F\316\256T\301\250e\015&\306V~\342C+\036\215Y["
 183      AE54C1A8 
 183      650D26C6 
 183      567EE243 
 183      2B1E8D59 
 184 00a8 A914A289 		.ascii	"\251\024\242\211\344\244\026\301@\270D\023\254\264\003"
 184      E4A416C1 
ARM GAS  /tmp/ccFL7AGG.s 			page 14


 184      40B84413 
 184      ACB403
 185 00b7 53F3ADD9 		.ascii	"S\363\255\331\330\201\370\233\331{G\255X\337\200\265"
 185      D881F89B 
 185      D97B47AD 
 185      58DF80B5 
 186 00c7 43501315 		.ascii	"CP\023\025\006u\373B\016\306_\315\316\2405hE\326R\251"
 186      0675FB42 
 186      0EC65FCD 
 186      CEA03568 
 186      45D652A9 
 187 00db 72135506 		.ascii	"r\023U\006g\366\002>g\361D*5\337\2771\214\025\014\232"
 187      67F6023E 
 187      67F1442A 
 187      35DFBF31 
 187      8C150C9A 
 188 00ef 7014AB40 		.ascii	"p\024\253@\305\020\202N\2231\232\270(>\241X\012&jn\271"
 188      C510824E 
 188      93319AB8 
 188      283EA158 
 188      0A266A6E 
 189 0104 E891B18C 		.ascii	"\350\221\261\214\026\365r\336y\251\343|\032D\351\010"
 189      16F572DE 
 189      79A9E37C 
 189      1A44E908 
 190 0114 95824820 		.ascii	"\225\202H \201[\240\326@\375\232\016\215\310((\237\240"
 190      815BA0D6 
 190      40FD9A0E 
 190      8DC82828 
 190      9FA0
 191 0126 6F718292 		.ascii	"oq\202\222\324\204\343\250A\000Y5<\265\250]$\236j8n"
 191      D484E3A8 
 191      41005935 
 191      3CB5A85D 
 191      249E6A38 
 192 013b A263081E 		.ascii	"\242c\010\036E,\313k\242\263\0076\255\273|\344\012!"
 192      452CCB6B 
 192      A2B30736 
 192      ADBB7CE4 
 192      0A21
 193 014d A7E20771 		.ascii	"\247\342\007q\331\366\233\021d\224\003\340\274[#_OI"
 193      D9F69B11 
 193      649403E0 
 193      BC5B235F 
 193      4F49
 194 015f 236947F1 		.ascii	"#iG\361\231o\006\200\0203\304\346\000\226\012\315Dj"
 194      996F0680 
 194      1033C4E6 
 194      00960ACD 
 194      446A
 195 0171 F47EBD89 		.ascii	"\364~\275\211%\031\301R\262\3035\322\334\214#\237\021"
 195      2519C152 
 195      B2C335D2 
 195      DC8C239F 
 195      11
 196 0182 92DA6788 		.ascii	"\222\332g\210\256\375X\277-\230\0002\326\334\006\212"
 196      AEFD58BF 
ARM GAS  /tmp/ccFL7AGG.s 			page 15


 196      2D980032 
 196      D6DC068A 
 197 0192 5A235A13 		.ascii	"Z#Z\023=\266\221\231?\277\026\230\330)OWgb\231\034z"
 197      3DB69199 
 197      3FBF1698 
 197      D8294F57 
 197      6762991C 
 198 01a7 4C2C2745 		.ascii	"L,'E,\224SdT%\237j\223m\336Y\036>\221\316\226\336\003"
 198      2C945364 
 198      54259F6A 
 198      936DDE59 
 198      1E3E91CE 
 199 01be B7E88225 		.ascii	"\267\350\202%U\217\211^Au\200vs\252\203\222B\313\277"
 199      558F895E 
 199      41758076 
 199      73AA8392 
 199      42CBBF
 200 01d1 ED46E2A6 		.ascii	"\355F\342\246\262\265\223\277\2659\277S\220\245\376"
 200      B2B593BF 
 200      B539BF53 
 200      90A5FE
 201 01e0 EFEF3571 		.ascii	"\357\3575q\265\331d)\302\205G&knj}\316.\350\334t\271"
 201      B5D96429 
 201      C2854726 
 201      6B6E6A7D 
 201      CE2EE8DC 
 202 01f6 73FDEB1C 		.ascii	"s\375\353\034;!\264?@t\365\355\302\010e\341\2450\036"
 202      3B21B43F 
 202      4074F5ED 
 202      C20865E1 
 202      A5301E
 203 0209 E0B9116D 		.ascii	"\340\271\021m\001\334\264\300\036ow\323\242>\271\335"
 203      01DCB4C0 
 203      1E6F77D3 
 203      A23EB9DD 
 204 0219 C20DAA40 		.ascii	"\302\015\252@\317\3156\370 \271\244\245aevI\034\312"
 204      CFCD36F8 
 204      20B9A4A5 
 204      61657649 
 204      1CCA
 205 022b 95F4E44A 		.ascii	"\225\364\344J:r$9\366\305\2614\262\274\020\311\212!"
 205      3A722439 
 205      F6C5B134 
 205      B2BC10C9 
 205      8A21
 206 023d C9EC4A64 		.ascii	"\311\354Jd\0103\242\204\316\346\256\201\316\025\233"
 206      0833A284 
 206      CEE6AE81 
 206      CE159B
 207 024c 026CA4FF 		.ascii	"\002l\244\377D\375NO$\223rs\366N\241\250R6-\001Y\037"
 207      44FD4E4F 
 207      24937273 
 207      F64EA1A8 
 207      52362D01 
 208 0262 8BF3C9A5 		.ascii	"\213\363\311\245Lf\274\266Q(zDg\376\021\247\327\034"
 208      4C66BCB6 
 208      51287A44 
ARM GAS  /tmp/ccFL7AGG.s 			page 16


 208      67FE11A7 
 208      D71C
 209 0274 FB9776E6 		.ascii	"\373\227v\346H{ei&\227\325<\202\033\373\023\017\360"
 209      487B6569 
 209      2697D53C 
 209      821BFB13 
 209      0FF0
 210 0286 32B7F54B 		.ascii	"2\267\365K\363\340gw\301\275\305\216\316\304\033\032"
 210      F3E06777 
 210      C1BDC58E 
 210      CEC41B1A 
 211 0296 DC8861C1 		.ascii	"\334\210a\301#:l\310\242\347\340\012\007}S\216\310D"
 211      233A6CC8 
 211      A2E7E00A 
 211      077D538E 
 211      C844
 212 02a8 FDAE4F97 		.ascii	"\375\256O\227\276K\012^\240/\243\034\326\357\371\224"
 212      BE4B0A5E 
 212      A02FA31C 
 212      D6EFF994 
 213 02b8 5CF21249 		.ascii	"\\\362\022I9\361z\334\361\257\327\253\345\275\336/\020"
 213      39F17ADC 
 213      F1AFD7AB 
 213      E5BDDE2F 
 213      10
 214 02c9 494C0632 		.ascii	"IL\0062\232\351\022@\272z\376\314O\372\202m\241\026"
 214      9AE91240 
 214      BA7AFECC 
 214      4FFA826D 
 214      A116
 215 02db 9FD1E6EF 		.ascii	"\237\321\346\357\366\371[\256\373\214\240\331l\266u"
 215      F6F95BAE 
 215      FB8CA0D9 
 215      6CB675
 216 02ea FAC21D5D 		.ascii	"\372\302\035]\255W|4\350\010\373:;\014Z7\332Z\3755\006"
 216      AD577C34 
 216      E808FB3A 
 216      3B0C5A37 
 216      DA5AFD35 
 217 02ff 2846B85D 		.ascii	"(F\270]\011u\006\224\360\265\366\332}\200\315V\343j"
 217      09750694 
 217      F0B5F6DA 
 217      7D80CD56 
 217      E36A
 218 0311 979F3605 		.ascii	"\227\2376\005C\341\2335A8\375_\230N#\350'\320_t\365"
 218      43E19B35 
 218      4138FD5F 
 218      984E23E8 
 218      27D05F74 
 219 0326 A6F8     		.ascii	"\246\370"
 220              		.text
 221              		.section	.gnu.lto_chCondWait.ce376c1dc93b6ae8,"",%progbits
 222 0000 789C8D4F 		.ascii	"x\234\215O\317K\002A\024~o\326\315\272I\247\202\220"
 222      CF4B0241 
 222      147E6FD6 
 222      CDBA49A7 
 222      8290
ARM GAS  /tmp/ccFL7AGG.s 			page 17


 223 0012 25E8168E 		.ascii	"%\350\026\216\320? \004A\007/iP'\321q\321\245\326\255"
 223      D03F2004 
 223      41072F69 
 223      5027D171 
 223      D1A5D6AD 
 224 0026 5543E9E0 		.ascii	"UC\351\340\032\036\012:\010u\250C\220\004A\020\324\271"
 224      1A1E0A3A 
 224      0875A843 
 224      90044110 
 224      D4B9
 225 0038 93D72E46 		.ascii	"\223\327.F\177\200 F\347\354X\004\333\233]\223\352R"
 225      7F802046 
 225      E7EC5804 
 225      DB9B5D93 
 225      EA52
 226 004a 6F98796F 		.ascii	"o\230yo\336\257\357\373\0300\370m\323t\267\021\340\210"
 226      DEAFEFFB 
 226      1830F86D 
 226      D374B711 
 226      E088
 227 005c 3C2A80AC 		.ascii	"<*\200\254\331\001\250\2173D\031\000B\215am\035e+\316"
 227      D901A88F 
 227      33441900 
 227      428D616D 
 227      1D652BCE 
 228 0070 42CB719A 		.ascii	"B\313q\232\275\347\273{<u\332\215s\347\303u\021\015"
 228      BDE7BB7B 
 228      3C75DA8D 
 228      73E7C375 
 228      110D
 229 0082 A4B50B08 		.ascii	"\244\265\013\010\002a\215>\250y\216\005~\342\334\260"
 229      02618D3E 
 229      A8798E05 
 229      7EE2DCB0 
 230 0092 76CF75AF 		.ascii	"v\317u\257\273\203\376\033NN(h\"\250\220\306\026-%S"
 230      BB83FE1B 
 230      4E4E2868 
 230      22A890C6 
 230      162D2553 
 231 00a6 A1419BB5 		.ascii	"\241A\233\265\257\277\360\360\222\364J\022\253\310\244"
 231      AFBFF0F0 
 231      92F44A12 
 231      ABC8A4
 232 00b5 573AB0F7 		.ascii	"W:\260\367\372r\37445l\006\032\277@\325cF\247\242Hu"
 232      FA72FC34 
 232      356C061A 
 232      BF40D563 
 232      46A7A248 
 233 00ca 8A2F310C 		.ascii	"\212/1\014\007x\346\234\304\014\222D&\011\0054\031\215"
 233      0778E69C 
 233      C40C9244 
 233      26090534 
 233      198D
 234 00dc EA87C3BA 		.ascii	"\352\207\303\272\352\323{\200\306\240\337\235\3617\346"
 234      EAD37B80 
 234      C6A0DF9D 
 234      F137E6
ARM GAS  /tmp/ccFL7AGG.s 			page 18


 235 00eb 50DD8577 		.ascii	"P\335\205wg\337\011\0318&\320#CI\305\300 \300\177X\244"
 235      67DF0919 
 235      3826D023 
 235      4349C5C0 
 235      20C07F58 
 236 0100 F192803D 		.ascii	"\361\222\200=T\370\206\232\306+\014\373x\217P\277\335"
 236      54F8869A 
 236      C62B0CFB 
 236      788F50BF 
 236      DD
 237 0111 4B8DE0FC 		.ascii	"K\215\340\374d\222\240H\250\354\215\362\274e\352\\X"
 237      6492A048 
 237      A8EC8DF2 
 237      BC65EA5C 
 237      58
 238 0122 D92ACFEA 		.ascii	"\331*\317\352;\\\344\215\214a\025y\311.\02768\005v\211"
 238      3B5CE48D 
 238      8C611579 
 238      C92E1736 
 238      38057689 
 239 0136 176D4179 		.ascii	"\027mAya\025\262\021\001\212Y\314\305\376\032\322+%"
 239      6115B211 
 239      018A59CC 
 239      C5FE1AD2 
 239      2B25
 240 0148 BE184F2C 		.ascii	"\276\030O,'\270Q\020\233\345\254\354\265\365\2240\227"
 240      27B85110 
 240      9BE5ACEC 
 240      B5F59430 
 240      97
 241 0159 CA0511C9 		.ascii	"\312\005\021\311C(\236X\3212\351\242\276e\033\363\332"
 241      43289E58 
 241      D132E9A2 
 241      BE651BF3 
 241      DA
 242 016a 5C14980D 		.ascii	"\\\024\230\015AS7-\273\012\2377\346\203\202"
 242      4153372D 
 242      BB0A9F37 
 242      E68382
 243              		.text
 244              		.section	.gnu.lto_chCondWaitTimeoutS.ce376c1dc93b6ae8,"",%progbits
 245 0000 789C9553 		.ascii	"x\234\225S[k\023A\024>gw\366\222\3066iS/\010\225\242"
 245      5B6B1341 
 245      143E6777 
 245      F692C636 
 245      69532F08 
 246 0016 6F2AC61B 		.ascii	"o*\306\033\024\021\037\374\017\026\3641nB\262hZm\342"
 246      14111FFC 
 246      0F16F431 
 246      6E42B268 
 246      5A6DE2
 247 0029 1DE9462B 		.ascii	"\035\351F+\010>(\372\242Vh\253x\353K\253\242\010*D\021"
 247      083E28FA 
 247      A25668AB 
 247      78EB4BAB 
 247      A2082A44 
 248 003e AC161515 		.ascii	"\254\026\025\025\324Z\320\200\210\012\"\001\025\245"
ARM GAS  /tmp/ccFL7AGG.s 			page 19


 248      D45AD080 
 248      880A2201 
 248      15A5
 249 004c 51E3999D 		.ascii	"Q\343\231\235\311\272\251-\266\013\311\314\234\231\357"
 249      C9BAA92D 
 249      B60BC9CC 
 249      9C99EF
 250 005b 3BDFB929 		.ascii	";\337\271)\240\300\370/A\277\005:\300(\255\030\000T"
 250      A0C0F82F 
 250      41BF053A 
 250      C028AD18 
 250      0054
 251 006d 8E3C02C8 		.ascii	"\216<\002\310\231\012\252b\243*\354\321\003\000\247"
 251      990AAA62 
 251      A32AECD1 
 251      0300A7
 252 007c 46BBA382 		.ascii	"F\273\243\2023\203)\246\377h\212gk5E\037ZJVc\250\211"
 252      338329A6 
 252      FF688A67 
 252      6B35451F 
 252      5A4A5663 
 253 0092 AC3A1A02 		.ascii	"\254:\032\002l \362\015 t**35\335\300\316\015\310\335"
 253      6C20F20D 
 253      20742A2A 
 253      3335DDC0 
 253      CE0DC8DD 
 254 00a6 2AF3A1CF 		.ascii	"*\363\241\317q\216\024\336]~\200'\234|W\257\363\263"
 254      718E14DE 
 254      5D7E8027 
 254      9C7C57AF 
 254      F3B3
 255 00b8 5C46B491 		.ascii	"\\F\264\221$\256@\260\020\326\323\001\233\335Ea\325"
 255      24AE40B0 
 255      10D6D301 
 255      9BDD4561 
 255      D5
 256 00c9 9A5DECD1 		.ascii	"\232]\354\321\374\261g\303\350\034ur\305r9d\243\252"
 256      FCB167C3 
 256      E81C7572 
 256      C5723964 
 256      A3AA
 257 00db 40CBFF80 		.ascii	"@\313\377\200\003J\276P.\017]*~m\234\303\300F\246a\032"
 257      034ABE50 
 257      2E0F5D2A 
 257      7E6D9CC3 
 257      C046A661 
 258 00f0 C180189E 		.ascii	"\301\200\030\236\301\371\020\240\003\006\351\320G\207"
 258      C1F910A0 
 258      0306E9D0 
 258      4787
 259 00fe 5A7E5D47 		.ascii	"Z~]G\177ZH^\207\345ZOF\275\201\377E\370\033\242\325"
 259      7F5A485E 
 259      87E55A4F 
 259      46BD81FF 
 259      45F81BA2 
 260 0113 A08B6269 		.ascii	"\240\213bi\026@\340\032\350[G\377E\035ZQ\241E}\010\373"
 260      1640E01A 
ARM GAS  /tmp/ccFL7AGG.s 			page 20


 260      E85B47FF 
 260      451D5A51 
 260      A1457D08 
 261 0128 5EFD7CFD 		.ascii	"^\375|\375|\245|Z\301\344\007\016_\320\242\036\203g"
 261      7CA57C5A 
 261      C1E4070E 
 261      5FD0A21E 
 261      8367
 262 013a 1EFE1407 		.ascii	"\036\376\024\007rw\0265bs\351,tk\227\304\332E\320\357"
 262      72771635 
 262      6273E92C 
 262      746B97C4 
 262      DA45D0EF 
 263 014e 384EE1FB 		.ascii	"8N\341\373\325\263\013\311\27589\253l4\272\341d\316"
 263      D5B30BC9 
 263      BD3839AB 
 263      6C34BAE1 
 263      64CE
 264 0160 71C2369A 		.ascii	"q\3026\232{`\3149\310w\201\264\013\343\271\010\270\031"
 264      7B60CC39 
 264      C87781B4 
 264      0BE3B908 
 264      B819
 265 0172 D8C8C962 		.ascii	"\330\310\311bx\236\210i\217\336\036\300U8\226\357\327"
 265      789E8869 
 265      8FDE1EC0 
 265      553896EF 
 265      D7
 266 0183 6378812C 		.ascii	"cx\201,I\254\223\324\031\033k<\352 \011\340lL\262)\234"
 266      49AC93D4 
 266      191B6B3C 
 266      EA2009E0 
 266      6C4CB229 
 267 0198 E1A26078 		.ascii	"\341\242`x\014]\305\323\335{\205l\000O\304\014\013U"
 267      0C5DC5D3 
 267      DD7B856C 
 267      004FC40C 
 267      0B55
 268 01aa 10E2EB6C 		.ascii	"\020\342\353l\254\025\256~\\\233+\036&y\014\"\222\205"
 268      AC15AE7E 
 268      5C9B2B1E 
 268      26790C22 
 268      9285
 269 01bc D3090264 		.ascii	"\323\011\002d\000 \305\017\017\006\005\241\224\275\332"
 269      0020C50F 
 269      0F0605A1 
 269      94BDDA
 270 01cb F6225866 		.ascii	"\366\"Xfc\210x\321\225\317\374\362U\2712\251Os\251\306"
 270      638878D1 
 270      95CFFCF2 
 270      55B932A9 
 270      4F73A9C6 
 271 01df F67F39B7 		.ascii	"\366\1779\267\270\242\316\330\003\273\251\273$U\247"
 271      B8A2CED8 
 271      03BBA9BB 
 271      2455A7
 272 01ee 8D614155 		.ascii	"\215aAUO\2579U\203\244\320\252[\255\225\270\251\367"
ARM GAS  /tmp/ccFL7AGG.s 			page 21


 272      4FAF3955 
 272      83A4D0AA 
 272      5BAD95B8 
 272      A9F7
 273 0200 45E1AF8C 		.ascii	"E\341\257\214\374^>\276\304\207>\337\325DC\375\2554"
 273      FC5E3EBE 
 273      C4873EDF 
 273      D54443FD 
 273      AD34
 274 0212 132AC2B2 		.ascii	"\023*\302\262\304=\303\337^\360\231`\376\364\207\374"
 274      C43DC3DF 
 274      5EF09960 
 274      FEF487FC 
 275 0222 FA758EBD 		.ascii	"\372u\216\275)|\017A\327\247\333#=J\014o\010\341DTQ"
 275      297C0F41 
 275      D7A7DB23 
 275      3D4A0C6F 
 275      08E14454 
 276 0237 33022132 		.ascii	"3\002!2(\247~\355\"\243y\363W\202\013d@\243\354\012"
 276      28A77EED 
 276      22A379F3 
 276      57820B64 
 276      40A3EC0A 
 277 024b 3C5E1AD5 		.ascii	"<^\032\325*\260z\267\016\021\277\313\260\337\245\341"
 277      2AB07AB7 
 277      0E11BFCB 
 277      B0DFA5E1 
 278 025b 73C9B183 		.ascii	"s\311\261\203\363*\310\206\177\221l2$\211}\237\353F"
 278      F32AC886 
 278      7F916C32 
 278      24897D9F 
 278      EB46
 279 026d CF6952E6 		.ascii	"\317iR\346\021\304\350\230\320{\017\260\225\356\304"
 279      11C4E898 
 279      D07B0FB0 
 279      95EEC4
 280 027c ECDCBF5E 		.ascii	"\354\334\277^*\311\307\262\020\265\343\322\302&N\213"
 280      2AC9C7B2 
 280      10B5E3D2 
 280      C2264E8B 
 281 028c 9B032EF3 		.ascii	"\233\003.\363ei\324\313LD4\334\244!\232\325!\336/\032"
 281      6569D4CB 
 281      4C4434DC 
 281      A4219AD5 
 281      21DE2F1A 
 282 02a0 53776DFA 		.ascii	"Swm\372\\GDc\376(\275eU\004;\246\346<\311m\256\377`"
 282      5C474463 
 282      FE28BD65 
 282      55043BA6 
 282      E63CC96D 
 283 02b7 157CCD38 		.ascii	"\025|\3158xd\262\320\031\237\311\003\305\247\335M\225"
 283      7864B2D0 
 283      199FC903 
 283      C5A7DD4D 
 283      95
 284 02c8 660E7A43 		.ascii	"f\016zC\325h\311\216\345\340\231\006\335\005l\234%\273"
 284      D568C98E 
ARM GAS  /tmp/ccFL7AGG.s 			page 22


 284      E5E09906 
 284      DD056C9C 
 284      25BB
 285 02da E8D631D5 		.ascii	"\350\3261\325C\360\373\331\345\312\207\235\376\026\327"
 285      43F0FBD9 
 285      E5CA879D 
 285      FE16D7
 286 02e9 E10C5369 		.ascii	"\341\014Si\354\013o>\032\023\215\275^5\366\002c\360"
 286      EC0B6F3E 
 286      1A138DBD 
 286      5E35F602 
 286      63F0
 287 02fb 923E815C 		.ascii	"\222>\201\\\341\203\355\371\250\224\035\351\216\217"
 287      E183EDF9 
 287      A8941DE9 
 287      8E8F
 288 0309 FAD268AA 		.ascii	"\372\322h\252=\235\210Z\355\361]\321xb{\324J\331\033"
 288      3D9D885A 
 288      EDF15DD1 
 288      78627BD4 
 288      4AD91B
 289 031c EDF64C34 		.ascii	"\355\366L4\333\261\255mS\2246\035\331h\246\303\"\273"
 289      DBB1AD6D 
 289      5394361D 
 289      D968A6C3 
 289      22BB
 290 032e D5DE165F 		.ascii	"\325\336\026_b\201\232\316$\325\354\326--S\000\332m"
 290      62819ACE 
 290      24D5ECD6 
 290      2D2D5300 
 290      DA6D
 291 0340 D6E66D71 		.ascii	"\326\346mqz\224\312\246:\022\261xfI\012VL\013\227\316"
 291      7A94CAA6 
 291      3A12B178 
 291      66490A56 
 291      4C0B97CE 
 292 0354 EE24CCCA 		.ascii	"\356$\314\312ia2V*N\240?\033(\316\375"
 292      69613256 
 292      2A4EA03F 
 292      1B28CEFD 
 293              		.text
 294              		.section	.gnu.lto_chCondWaitTimeout.ce376c1dc93b6ae8,"",%progbits
 295 0000 789C8D4F 		.ascii	"x\234\215OO+DQ\024?\277\373\346\217\254,Y\320K\331i"
 295      4F2B4451 
 295      143FBFFB 
 295      E68FAC2C 
 295      59D04BD9 
 296 0015 EE942F30 		.ascii	"\356\224/0\245\224\205\215\241Xi\346\316k\346\305\233"
 296      A594858D 
 296      A15869E6 
 296      CE6BE6C5 
 296      9B
 297 0026 A7373322 		.ascii	"\24773\"\013\217(\312\302\304\202\2052D)\305\007\260"
 297      0B8F28CA 
 297      C2C48285 
 297      324429C5 
 297      07B0
ARM GAS  /tmp/ccFL7AGG.s 			page 23


 298 0038 9825A591 		.ascii	"\230%\245\221o\240|\000l\245\236s\337\033\302\206s\273"
 298      6FA07C00 
 298      6CA59E73 
 298      DF1BC286 
 298      73BB
 299 004a E7FF39BF 		.ascii	"\347\3779\277\337\021$\350\267\364\360_\006\321.[\030"
 299      DF1124E8 
 299      B7F4F05F 
 299      06D12E5B 
 299      18
 300 005b 04B1D322 		.ascii	"\004\261\323\"Z\355\020\200v\010\264\"\2602\015\335"
 300      5AED1080 
 300      7608B422 
 300      B0320DDD 
 301 006b 8A7E6AF8 		.ascii	"\212~j\370\376\316\343ip\213\003\277\271~\344\277\007"
 301      FECEE369 
 301      708B03BF 
 301      B97EE4BF 
 301      07
 302 007c 016083D7 		.ascii	"\001`\203\327\016\201\024h\212\003\230\241\021\261\237"
 302      0E811468 
 302      8A0398A1 
 302      11B19F
 303 008b 3897A2F9 		.ascii	"8\227\242\371\030\004w\301\305\3665nD\247\001\007\024"
 303      180477C1 
 303      C5F6356E 
 303      44A70107 
 303      14
 304 009c 638504E5 		.ascii	"c\205\004\345\320\340\325,qZ\347\375\346g\254B\324\011"
 304      D0E0D52C 
 304      715AE7FD 
 304      E667AC42 
 304      D409
 305 00ae D69ACA24 		.ascii	"\326\232\312$\204\266F\213\326^\237\367\236\272\333"
 305      84B6468B 
 305      D65E9FF7 
 305      9EBADB
 306 00bd CDC4E327 		.ascii	"\315\304\343'\210\207\374\370-\032\372F#:\264\217\266"
 306      8887FCF8 
 306      2D1AFA46 
 306      233AB48F 
 306      B6
 307 00ce 70E8EF67 		.ascii	"p\350\357gl>\214E\323\212\231\332\373\252o\267\353\361"
 307      6C3E8C45 
 307      D38A99DA 
 307      FBAA6FB7 
 307      EBF1
 308 00e0 88E43D6D 		.ascii	"\210\344=m\274\254\325{\243\215E$\226\351\315\337\364"
 308      BCACD57B 
 308      A38D4524 
 308      96E9CDDF 
 308      F4
 309 00f1 BB6C2414 		.ascii	"\273l$\024B2\2344\212\210\331H\022\375\207H\016g\214"
 309      42329C34 
 309      8A88D948 
 309      12FD8748 
 309      0E678C
ARM GAS  /tmp/ccFL7AGG.s 			page 24


 310 0104 1D02D337 		.ascii	"\035\002\3237\340\034\316\321\027A>\320\352\325q\035"
 310      E01CCED1 
 310      17413ED0 
 310      EAD5711D 
 311 0114 5F905176 		.ascii	"_\220Qv\202\341\370X\335\234\226%\327\261\244r\013K"
 311      82E1F858 
 311      DD9C9625 
 311      D7B1A472 
 311      0B4B
 312 0126 B2602D48 		.ascii	"\262`-HU\262\363\266[\221U\257V\236\225\354xUY\361\024"
 312      55B2F3B6 
 312      5B9155AF 
 312      569E95EC 
 312      785559F1 
 313 013b E7955B2E 		.ascii	"\347\225[.\244\024\031N\245\230\371k\310Z\254\312\341"
 313      A414194E 
 313      A598F96B 
 313      C85AACCA 
 313      E1
 314 014c B1EC6856 		.ascii	"\261\354hV\332e5W+\350^\317\232Q\316H\255\254R%\352"
 314      DA653557 
 314      2BE85ECF 
 314      9A51CE48 
 314      ADAC5225 
 315 0161 1ACB8E9B 		.ascii	"\032\313\216\233\371\\\305\232\367\354As M\302\243\244"
 315      F95CC59A 
 315      F7EC4173 
 315      204DC2A3 
 315      A4
 316 0172 6339AEB7 		.ascii	"c9\256\267D\037\002\274\204A"
 316      441F02BC 
 316      8441
 317              		.text
 318              		.section	.gnu.lto_.symbol_nodes.ce376c1dc93b6ae8,"",%progbits
 319 0000 789C4DCD 		.ascii	"x\234M\315=N\303@\020\206\341\371v\274xm\307\016m\252"
 319      3D4EC340 
 319      1086E1F9 
 319      76BC786D 
 319      C70E6DAA 
 320 0014 1C801B71 		.ascii	"\034\200\033q\231\317R\012\"\252\234\200\002:\022\362"
 320      99CF520A 
 320      22AA9C80 
 320      023A12F2 
 321 0024 A74808F1 		.ascii	"\247H\010\361\243H\356R\344\014HI\211\222\013\000\302"
 321      A348EE52 
 321      E40C4849 
 321      89920B00 
 321      C2
 322 0035 8E2376B7 		.ascii	"\216#v\267y\365\314\214\264F\214\\C\332g\036A\221\321"
 322      79F5CC8C 
 322      B4468C5C 
 322      43DA671E 
 322      4191D1
 323 0048 5684BC1B 		.ascii	"V\204\274\033\302\214A\004\234\200&\340\024\324\200"
 323      C28C4104 
 323      9C8026E0 
 323      14D480
ARM GAS  /tmp/ccFL7AGG.s 			page 25


 324 0057 4F601470 		.ascii	"O`\024p\016ZO\373Z\377A13\360\"8Z\202q\300\005\350<"
 324      0E5A4FFB 
 324      5AFF4131 
 324      33F02238 
 324      5A8271C0 
 325 006e B1029396 		.ascii	"\261\002\223\226e\011<\203\251\327\013\230y}\200\035"
 325      65093C83 
 325      A9D70B98 
 325      797D801D 
 326 007e AF7730F7 		.ascii	"\257w0\367z\003\013\2575\330\375\227\"\225\335\317\036"
 326      7A030BAF 
 326      35D8FD97 
 326      2295DDCF 
 326      1E
 327 008f 6AB2B65A 		.ascii	"j\262\266Z\367\373x\245\221\312\375\347/4\352H\325\324"
 327      F7FB78A5 
 327      91CAFDE7 
 327      2F34EA48 
 327      D5D4
 328 00a1 76CF2D64 		.ascii	"v\317-dw\363\325W\233\313\303m\335\330\266w\356\274"
 328      77F3D557 
 328      9BCBC36D 
 328      DDD8B677 
 328      EEBC
 329 00b3 77973268 		.ascii	"w\2272h\346.\227js\350i\342N{\371\003\360\321kZ"
 329      E62E976A 
 329      73E869E2 
 329      4E7BF903 
 329      F0D16B5A 
 330              		.text
 331              		.section	.gnu.lto_.refs.ce376c1dc93b6ae8,"",%progbits
 332 0000 789C6362 		.ascii	"x\234cb`b\340f\200\000FV\0066&\016\0066 \004\000\002"
 332      6062E066 
 332      80004656 
 332      0636260E 
 332      06362004 
 333 0016 0F0032   		.ascii	"\017\0002"
 334              		.text
 335              		.section	.gnu.lto_.decls.ce376c1dc93b6ae8,"",%progbits
 336 0000 789CBD5B 		.ascii	"x\234\275[\013p\024\307\231\236\236\225\264\273H\010"
 336      0B7014C7 
 336      999E9E95 
 336      B4BB4808 
 337 0010 191342AE 		.ascii	"\031\023B\256.g9q\2568\247\034\341\307\305\270\356\316"
 337      2E673971 
 337      AE38A71C 
 337      E1C7C5B8 
 337      EECE
 338 0022 382157C6 		.ascii	"8!W\306\311\021\347\242\270\234T\256j=\254Fh\343}yv"
 338      C911E7A2 
 338      B89C54AE 
 338      6A3DAC46 
 338      68E37D79 
 339 0037 C4E3EAAE 		.ascii	"\304\343\352\256<\022\2220\017\203\036\030\210\001!"
 339      3C129230 
 339      0F831E18 
 339      880121
ARM GAS  /tmp/ccFL7AGG.s 			page 26


 340 0046 61634328 		.ascii	"acC(\033\003\026o\303B\220\204\301BB<D\000\313\202\263"
 340      1B03166F 
 340      C3429084 
 340      C142423C 
 340      4400CB82 
 341 005b 849DB341 		.ascii	"\204\235\263A\330\030\343\010\243\373\273\247gw\246"
 341      D818E308 
 341      A3FBBBA7 
 341      6777A6
 342 006a 776635B3 		.ascii	"wf5\263vn\213\356i\315t\177\377\353\353\347\014<\307"
 342      766E8BEE 
 342      69CD747F 
 342      FFEBEBE7 
 342      0C3CC7
 343 007d 738BB338 		.ascii	"s\213\2638n\030~\365\377\314q\242\233\343Fq\034\367"
 343      6E187EF5 
 343      FFCC71A2 
 343      9BE34671 
 343      1CF7
 344 008f 30241E52 		.ascii	"0$\036R3\244M\234\372+\200\364&\244\237!\216{\034R1"
 344      33A44D9C 
 344      FA2B80F4 
 344      26A49F21 
 344      8E7B1C52 
 345 00a4 A42721FD 		.ascii	"\244'!\375\026\222\000I\2044\033\322\177A\252\200T\015"
 345      16920049 
 345      84341BD2 
 345      7F41AA80 
 345      540D
 346 00b6 E939488B 		.ascii	"\3519H\213!\325B\252\207\004\377\270\025\2103\3740f"
 346      21D542AA 
 346      8704FFB8 
 346      158833FC 
 346      3066
 347 00c8 36A4CB70 		.ascii	"6\244\313p\177?\\wB\332\001\251\015\222\013\322>H\377"
 347      7F3F5C77 
 347      42DA01A9 
 347      0D920BD2 
 347      3E48FF
 348 00db 0ACF5AA9 		.ascii	"\012\317Z\251N\270\376\025\2125\215\301\302\272\345"
 348      4EB8FE15 
 348      8A358DC1 
 348      C2BAE5
 349 00ea 512CDCFE 		.ascii	"Q,\334\376:\\O\301\365\006\203\335\016\351/H\265\357"
 349      3A5C4FC1 
 349      F50683DD 
 349      0EE92F48 
 349      B5EF
 350 00fc BFE19A45 		.ascii	"\277\341\232E\345`\031\035\220:9\365\036\306\033\302"
 350      E560191D 
 350      903A39F5 
 350      1EC61BC2 
 351 010c CF79D52E 		.ascii	"\317y\325.,n:#\023\373b\224N&+\007\313\030\207\353\000"
 351      2C6E3A23 
 351      13FB6294 
 351      4E262B07 
 351      CB1887EB 
ARM GAS  /tmp/ccFL7AGG.s 			page 27


 352 0121 46255C73 		.ascii	"F%\\sLd\335\016\367\307S=\036\327\311\254\2402\377\235"
 352      4C64DD0E 
 352      F7C7533D 
 352      1ED7C9AC 
 352      A032FF9D 
 353 0135 91594C65 		.ascii	"\221YLe\266Q\271\355T\256&C\223\251\351\221Ce\2652\362"
 353      B651B9ED 
 353      54AE2643 
 353      93A9E991 
 353      4365B532 
 354 014a F6511F17 		.ascii	"\366Q\037\0273\362\236`\344\3418\273\031\177\346B\375"
 354      33F29E60 
 354      E4E138BB 
 354      197FE642 
 354      FD
 355 015b 1628E7C1 		.ascii	"\026(\347\301\265\206\326w\321\272\3054\376\370\366"
 355      B586D677 
 355      D1BAC534 
 355      FEF8F6
 356 016a 6F182CCC 		.ascii	"o\030,\314\227oR\335\36395^\315\324\216\177\242r\326"
 356      976F52DD 
 356      F339355E 
 356      CDD48E7F 
 356      A272D6
 357 017d C27525A4 		.ascii	"\302u%\244\321\200}\037\265/\037\312\013\240<\205\332"
 357      D1807D1F 
 357      B52F1FCA 
 357      0BA03C85 
 357      DA
 358 018e A6F77337 		.ascii	"\246\367s7\2441\274\312\325\347\251o\032\341\272\031"
 358      A431BCCA 
 358      D5E7A96F 
 358      1AE1BA19 
 359 019e D2BD48B5 		.ascii	"\322\275H\265\367o\250\275\330\017\307\251\037\306\323"
 359      F76FA8BD 
 359      D80FC7A9 
 359      1FC6D3
 360 01ad 78609D0A 		.ascii	"x`\235\012x\225\247\343x\225\263\230\273\230o>\224\312"
 360      7895A7E3 
 360      7895B398 
 360      BB986F3E 
 360      94CA
 361 01bf 59CC770F 		.ascii	"Y\314w\017\325[\263A\357\233oC\303\377\240mxZ\377\267"
 361      D55BB341 
 361      EF9B6F43 
 361      C3FFA06D 
 361      785AFFB7 
 362 01d3 D41F7E06 		.ascii	"\324\037~\006\013\367\233\011\014\226\306\245\257\342"
 362      0BF79B09 
 362      0C96C6A5 
 362      AFE2
 363 01e1 8FBFA3FE 		.ascii	"\217\277\243\376h\2406zm\372\304Mu\302\376\270C\347"
 363      68A0367A 
 363      6DFAC44D 
 363      75C2FEB8 
 363      43E7
 364 01f3 937AEA13 		.ascii	"\223z\352\023\034\343\030\\e\023\277\314\036\301/\337"
ARM GAS  /tmp/ccFL7AGG.s 			page 28


 364      1CE3185C 
 364      6513BFCC 
 364      1EC12FDF 
 365 0203 059C529D 		.ascii	"\005\234R\235_f\323q\003\227\347\302\365?\031</\367"
 365      5F66D371 
 365      0397E7C2 
 365      F53F193C 
 365      2FF7
 366 0215 9C02BFA6 		.ascii	"\234\002\277\246\032e\332a\300\3735\022P\276\227+$\205"
 366      1A65DA61 
 366      C0FB3512 
 366      50BE972B 
 366      2485
 367 0227 3C2FE92E 		.ascii	"</\351.\337\343^V\224\332\276\326K\037\270\024\305#"
 367      DFE35E56 
 367      94DABED6 
 367      4B1FB814 
 367      C523
 368 0239 A066E405 		.ascii	"\240f\344\0058\350\270ws\033\241i\255\242\254\273\233"
 368      38E8B877 
 368      731BA169 
 368      ADA2ACBB 
 368      9B
 369 024a 4175087D 		.ascii	"Au\010}\265\355\320\026T\251(\360`=\001\207\021C@/\243"
 369      B5EDD016 
 369      54A928F0 
 369      603D0187 
 369      1143402F 
 370 025f BB1D23AD 		.ascii	"\273\035#\255:\262c2Qr\003\301\331\215\214@\002\312"
 370      3AB26332 
 370      517203C1 
 370      D98D8C40 
 370      02CA
 371 0271 F11A5906 		.ascii	"\361\032Y\006\177k\0250\032\374\211%\335\300\3035z\226"
 371      7F6B1530 
 371      1AFC8925 
 371      DDC0C335 
 371      7A96
 372 0283 DEC17FB8 		.ascii	"\336\301\177\270\271\377\367v\304\352J\245o\2752ae\322"
 372      B9FFF776 
 372      C4EA4AA5 
 372      6FBD3261 
 372      65D2
 373 0295 6A8F6635 		.ascii	"j\217f5\322\205f\200\206f\023\261\372\0202q\237-\240"
 373      D2856680 
 373      866613B1 
 373      FA103271 
 373      9F2DA0
 374 02a8 AB35AF7D 		.ascii	"\2535\257}\237\000\275N\200:2\006Z\265\260Q\215\303"
 374      9F00BD4E 
 374      803A3206 
 374      5AB5B051 
 374      8DC3
 375 02ba 1602742A 		.ascii	"\026\002t*%\016\210\211\0032\372\205<\246\205a#\271"
 375      250E8889 
 375      0332FA85 
 375      3CA68561 
ARM GAS  /tmp/ccFL7AGG.s 			page 29


 375      23B9
 376 02cc BED6BA77 		.ascii	"\276\326\272wp\215JS_\337\360\222c\302\357\225x\225"
 376      708D4A53 
 376      5FDFF092 
 376      63C2EF95 
 376      7895
 377 02de 323CFC2C 		.ascii	"2<\374,7\236{\201\262MA\262\200\036\376\206)\3410x\013"
 377      379E7B81 
 377      B24D41B2 
 377      801EFE86 
 377      29E13078 
 378 02f3 1A4F4A2E 		.ascii	"\032OJ.\322\275\270\\n!v\217J\323\261\\\035F)\324\021"
 378      D2BDB85C 
 378      6E21768F 
 378      4AD3B15C 
 378      1D4629D4 
 379 0308 F611ADBD 		.ascii	"\366\021\255\275'\351\250\343\335\373\325\320\355Dc"
 379      27E9A8E3 
 379      DDFBD5D0 
 379      ED4463
 380 0317 01A59537 		.ascii	"\001\245\2257:j$\024\236;KZ\354\201\326j;\202\253\304"
 380      3A6A2414 
 380      9E3B4B5A 
 380      EC81D66A 
 380      3B82ABC4 
 381 032b BF684685 		.ascii	"\277hF\205\352m\316\000h\370\335\3115\341\272C\375^"
 381      EA6DCE00 
 381      68F8DDC9 
 381      35E1BA43 
 381      FD5E
 382 033d A53ECFA6 		.ascii	"\245>\317\246\302{V\034\253CU\244\257\356'*\277\342"
 382      C27B561C 
 382      AB4355A4 
 382      AFEE272A 
 382      BFE2
 383 034f 3255B9E9 		.ascii	"2U\271\351\021k\235\267\223&\007\031\235\373\326\366"
 383      116B9DB7 
 383      93260719 
 383      9DFBD6F6 
 384 035f 9EAC4015 		.ascii	"\236\254@\025\004\372\240\015\305+\343\247j\326|Ki:"
 384      04FAA00D 
 384      C52BE3A7 
 384      6AD67C4B 
 384      693A
 385 0371 8846727C 		.ascii	"\210Fr|S\226&\377'ICv\2578\204\210\347\333\211\0317"
 385      539626FF 
 385      27494376 
 385      AF388488 
 385      E7DB8919 
 386 0386 CDCDB086 		.ascii	"\315\315\260\206\341\271\352,\334\344H\212\031\215\275"
 386      E1B9EA2C 
 386      DCE4488A 
 386      198DBD
 387 0395 9A19476C 		.ascii	"\232\031Gl\2311D\315\020P\033\230\302sK\023\270f\304"
 387      993144CD 
 387      10501B98 
 387      C2734B13 
ARM GAS  /tmp/ccFL7AGG.s 			page 30


 387      B866C4
 388 03a8 A345F547 		.ascii	"\243E\365G+\030\361n\265\345\325\012\032\330r\307`\205"
 388      2B18F16E 
 388      B5E5D50A 
 388      1AD872C7 
 388      6085
 389 03ba 06B086F6 		.ascii	"\006\260\206\366\325D9\332\367m\214\301\353\265\211"
 389      D54439DA 
 389      F76D8CC1 
 389      EBB589
 390 03c9 A29BF4FD 		.ascii	"\242\233\364\3755Y\246\203\210\235i\241\246\365\000"
 390      3559A683 
 390      889D69A1 
 390      A6F500
 391 03d8 9D164E11 		.ascii	"\235\026N\021\250\365\031C\255Z\270\367!\242\323\031"
 391      A8F51943 
 391      AD5AB8F7 
 391      21A2D319 
 392 03e8 02F47A16 		.ascii	"\002\364z\026;\036\271\231\361\310m\0347\334\336d\001"
 392      3B1EB999 
 392      F1C86D1C 
 392      37DCDE64 
 392      01
 393 03f9 0FCF63B8 		.ascii	"\017\317c\270\277ru\236\333e'p\036+\026(}\215\215\375"
 393      BF72759E 
 393      DB652770 
 393      1E2B1628 
 393      7D8D8DFD 
 394 040d 088F692E 		.ascii	"\010\217i.\255C\346X\371\210\347\342D\326\273,\223\267"
 394      AD43E658 
 394      F988E7E2 
 394      44D6BB2C 
 394      93B7
 395 041f 0C74DDB3 		.ascii	"\014t\335\263RQ\012\324G#\023y\307\321\025\366\372#"
 395      52510AD4 
 395      47231379 
 395      C7D115F6 
 395      FA23
 396 0431 AF89BF8B 		.ascii	"\257\211\277\213\210\257\314\306\342/\262\342\337\372"
 396      88AFCCC6 
 396      E22FB2E2 
 396      DFFA
 397 043f F3070FAB 		.ascii	"\363\007\017\253\342/\332\022\277\245{Y\252x\313\001"
 397      E22FDA12 
 397      BFA57B59 
 397      AA78CB01 
 398 044f 9C3263CB 		.ascii	"\2342c\313\300\340\304\265D\310\000\351/\357d\263\324"
 398      C0E0C4B5 
 398      44C800E9 
 398      2FEF64B3 
 398      D4
 399 0460 98926B0C 		.ascii	"\230\222k\014\036\374\255\253\000\223[B\373\214\272"
 399      1EFCADAB 
 399      00935B42 
 399      FB8CBA
 400 046f 2B9879F8 		.ascii	"+\230y\370\261\215[\025eA\216\246\303\031\307\210\205"
 400      B18D5B15 
ARM GAS  /tmp/ccFL7AGG.s 			page 31


 400      65418EA6 
 400      C319C788 
 400      85
 401 0480 0647BCD9 		.ascii	"\006G\274\331M\006\000\025\354\234\0350K\036U\306\267"
 401      4D060015 
 401      EC9C1D30 
 401      4B1E55C6 
 401      B7
 402 0491 EBC17A1D 		.ascii	"\353\301z\035\203\0315\333\251\007\273`\007\254\300"
 402      831935DB 
 402      A907BB60 
 402      07ACC0
 403 04a0 5AB3DD7A 		.ascii	"Z\263\335z\260\367\035\203\0315\333\253\007\273d\007"
 403      B0F71D83 
 403      1935DBAB 
 403      07BB6407 
 404 04b0 6C82B566 		.ascii	"l\202\265f\373\364`\377\353\030\314\250Y\227\036\354"
 404      FBF460FF 
 404      EB18CCA8 
 404      59971EEC 
 405 04c0 8A1DB042 		.ascii	"\212\035\260B\023\315\022?\253\305\314\005\224\3409"
 405      13CD123F 
 405      ABC5CC05 
 405      94E039
 406 04cf CF7D92AD 		.ascii	"\317}\222\255\015\010\0169\315%1\256g;\035\300\014v"
 406      0D080E39 
 406      CD2531AE 
 406      673B1DC0 
 406      0C76
 407 04e1 C33C3AD0 		.ascii	"\303<:\320\214\032\346)\207'is\331M;\210i\010\363b\273"
 407      8C1AE629 
 407      87276973 
 407      D94D3B88 
 407      6908F362 
 408 04f6 6E62ACCA 		.ascii	"nb\254\312q\012\306P\031\203\031\206\232\304\3628\236"
 408      710AC650 
 408      19831986 
 408      9AC4F238 
 408      9E
 409 0507 7E798CB7 		.ascii	"~y\214\267L\274n-=\301\274\256\200\346\361\337\203\274"
 409      4CBC6E2D 
 409      3DC1BCAE 
 409      80E6F1DF 
 409      83BC
 410 0519 8AF726B4 		.ascii	"\212\367&\264P\313Zi\230l\354\026\347\230\355\276\010"
 410      50CB5A69 
 410      986CEC16 
 410      E798EDBE 
 410      08
 411 052a 40FAA656 		.ascii	"@\372\246VL\250\340uL\250\263\343\2464]\341\275\366"
 411      4CA8E075 
 411      4CA8B3E3 
 411      A6345DE1 
 411      BDF6
 412 053c D5DF54FA 		.ascii	"\325\337T\372\342H\333\234\254d\361\0146\217\334\033"
 412      E248DB9C 
 412      AC64F10C 
ARM GAS  /tmp/ccFL7AGG.s 			page 32


 412      368FDC1B 
 413 054c AEB7E7BE 		.ascii	"\256\267\347\276\361\224\375\215\310zmk\264\220\307"
 413      F194FD8D 
 413      C87A6D6B 
 413      B490C7
 414 055b D29B72D8 		.ascii	"\322\233r\330\321\375u\207;\021\236\333\340\330\202"
 414      D1FD7587 
 414      3B119EDB 
 414      E0D882
 415 056a 890CAF0F 		.ascii	"\211\014\257\017\325\243O+\225\225\223\354\233\321\257"
 415      D5A34F2B 
 415      959593EC 
 415      9BD1AF
 416 0579 99B19498 		.ascii	"\231\261\224\230\361\306\327`\306N\307fL\322\231\201"
 416      F1C6D760 
 416      C64EC766 
 416      4CD29981 
 417 0589 97B99FD5 		.ascii	"\227\271\237\325\253\335\363v\256>\375\002\003\353\263"
 417      ABDDF376 
 417      AE3EFD02 
 417      03EBB3
 418 0598 8CBFDDB8 		.ascii	"\214\277\335\270C\371\323\021\274C\301\267G\336\241"
 418      43F9D311 
 418      BC43C1B7 
 418      47DEA1
 419 05a7 7C7E6435 		.ascii	"|~d5]!\253\207\017\373\211\356\270m&S\256\022_v\224"
 419      5D21AB87 
 419      0FFB89EE 
 419      B86D2653 
 419      AE125F76 
 420 05bc 0C042A58 		.ascii	"\014\004*X\333W\002\253\214o[\244-\337\247\340q\245"
 420      DB5702AB 
 420      8C6F5BA4 
 420      2DDFA7E0 
 420      71A5
 421 05ce F32BC21D 		.ascii	"\363+\302\035?\352t\301]\375gJ\2165\204\034\247S\310"
 421      3FEA74C1 
 421      5DFD674A 
 421      8E35841C 
 421      A753C8
 422 05e1 718A2587 		.ascii	"q\212%\207\235\365\347\305L\355H\374x\356C;\203G\241"
 422      9DF5E7C5 
 422      4CED48FC 
 422      78EE433B 
 422      8347A1
 423 05f4 659C6047 		.ascii	"e\234`G\3709\345\330\210\213Xm{\332\323VA\267\247/\361"
 423      F839E5D8 
 423      888B586D 
 423      7BDAD356 
 423      41B7A72F 
 424 0609 785FF731 		.ascii	"x_\3671\343\015\033\253\341\233\244\311+|\312\276\256"
 424      E30D1BAB 
 424      E19BA4C9 
 424      2B7CCABE 
 424      AE
 425 061a 43DBD7E1 		.ascii	"C\333\327\341g6\226\303\206}\235\200\216!\236\342f\352"
 425      673696C3 
ARM GAS  /tmp/ccFL7AGG.s 			page 33


 425      867D9D80 
 425      8E219EE2 
 425      66EA
 426 062c 51431093 		.ascii	"QC\020\223\012\012h\003\231)6\362w\352\275\277\330\355"
 426      0A0A6803 
 426      992936F2 
 426      77EABDBF 
 426      D8ED
 427 063e D4FB857A 		.ascii	"\324\373\205z\357\307\207\216\256F\252\376\352N\177"
 427      EFC7878E 
 427      AE46AAFE 
 427      EA4E7F
 428 064d 398B67D8 		.ascii	"9\213g\330\326\323\342D\313h\306\353\217\351z]\263\035"
 428      D6D3E244 
 428      CB68C6EB 
 428      8FE97A5D 
 428      B31D
 429 065f E5265981 		.ascii	"\345&Y\201U\306\033U0\225\362\257:\006+4\200\275\265"
 429      55C61B55 
 429      3095F2AF 
 429      3A062B34 
 429      80BDB5
 430 0672 C4DE4182 		.ascii	"\304\336A\202\202\364\013\003\236\333J\344nc\231ru\250"
 430      82F40B03 
 430      9EDB4AE4 
 430      6E639972 
 430      75A8
 431 0684 6B3E65CA 		.ascii	"k>e\3126\033L\201\361\215\234\300h~\376(\201\232\306"
 431      361B4C81 
 431      F18D9CC0 
 431      687EFE28 
 431      819AC6
 432 0697 CF663CD1 		.ascii	"\317f<\321\316\023>|\033\0218u\241s\215\205s\270\001"
 432      CE133E7C 
 432      1B113875 
 432      A1738D85 
 432      73B801
 433 06aa B8251E9E 		.ascii	"\270%\036\236\344\3141j_\214\237\333\205G\370\275\244"
 433      E4CC316A 
 433      5F8C9FDB 
 433      8547F8BD 
 433      A4
 434 06bb 1BDE74B3 		.ascii	"\033\336t\263\203\222\352\031\035\237\267\351\370\334"
 434      8392EA19 
 434      1D9FB7E9 
 434      F8DC
 435 06c9 42F8BC1D 		.ascii	"B\370\274\035\370,\240\235$\337\255\347\266\325$\263"
 435      F82CA09D 
 435      24DFADE7 
 435      B6D524B3 
 436 06d9 47BF72A9 		.ascii	"G\277r\251\3628\265\273\220\211\216\225\230\255z1\213"
 436      F238B5BB 
 436      90898E95 
 436      98AD7A31 
 436      8B
 437 06ea 3C36B837 		.ascii	"<6\2707\331\322\2750\254\234j\320\226\271\352\211\311"
 437      D9D2BD30 
ARM GAS  /tmp/ccFL7AGG.s 			page 34


 437      AC9C6AD0 
 437      96B9EA89 
 437      C9
 438 06fb 0B8E118D 		.ascii	"\013\216\021\215l\276\272\3040!5\331\201{\304DA\263"
 438      6CBEBAC4 
 438      302135D9 
 438      817BC444 
 438      41B3
 439 070d 9FFEBC4B 		.ascii	"\237\376\274K@\357 \034\246\016\204\003\324I\362\343"
 439      40EF201C 
 439      A60E8403 
 439      D449F2E3 
 440 071d 243F4FF2 		.ascii	"$?O\362\233$\277Er\205\004q>\311\027\220|\011\311\033"
 440      9B24BF45 
 440      72850471 
 440      3EC91790 
 440      7C09C91B 
 441 0731 48BE8EE4 		.ascii	"H\276\216\344\233H\376\032\3117\223|\013\311\017\220"
 441      9B48FE1A 
 441      C937937C 
 441      0BC90F90 
 442 0741 FC8F7608 		.ascii	"\374\217v\010\240\016\264\011\232ic\356\301\214\317"
 442      A00EB409 
 442      9A6963EE 
 442      C18CCF
 443 0750 D24E27CF 		.ascii	"\322N'\317\322\004\324\345\030\214e\224\301\223\007"
 443      D204D4E5 
 443      188C6594 
 443      C19307
 444 075f 759E3C44 		.ascii	"u\236<D<\331J|\325j\034\3067x\264\023^\207\303\201\271"
 444      3CD94A7C 
 444      D56A1CC6 
 444      3778B413 
 444      5E87C381 
 445 0774 D43D3AA9 		.ascii	"\324=:\251o\021\251\373\220\015\317\356Hn\017\005\364"
 445      6F11A9FB 
 445      900DCFEE 
 445      486E0F05 
 445      F4
 446 0785 844BA7DF 		.ascii	"\204K\247\337\033\036c\327\276\213{IQ\352\361\231\372"
 446      1B1E63D7 
 446      BE8B7B49 
 446      51EAF199 
 446      FA
 447 0796 71F4C23C 		.ascii	"q\364\302<e\232\332\226\347\016\220zo\242;Le$$\374="
 447      659ADA96 
 447      E70E907A 
 447      6FA23B4C 
 447      652424FC 
 448 07ab B71E8F2E 		.ascii	"\267\036\217.\317+\325\005\210\034\336p\264\225\301"
 448      CF2BD505 
 448      881CDE70 
 448      B495C1
 449 07ba 8A769ED7 		.ascii	"\212v\236\327\337P\317\361\343\327 Z\025}\303\303w\250"
 449      DF50CFF1 
 449      E3D7205A 
 449      157DC3C3 
ARM GAS  /tmp/ccFL7AGG.s 			page 35


 449      77A8
 450 07cc 67F33C77 		.ascii	"g\363<w"
 451 07d0 C8543765 		.ascii	"\310T7e\233H\265\022\320\333<\216\351Q>\023\255p+\203"
 451      9B48B512 
 451      D0DB3C8E 
 451      E9513E13 
 451      AD702B83 
 452 07e4 56EF986A 		.ascii	"V\357\230j\265\257\235\321\352\270\271V-\254V\235\031"
 452      B5AF9DD1 
 452      EAB8B956 
 452      2DAC569D 
 452      19
 453 07f5 69D5C96A 		.ascii	"i\325\311j\325\225\252U\337`\374\354\021F\253\367\314"
 453      D595AA55 
 453      DF60FCEC 
 453      1146ABF7 
 453      CC
 454 0806 B5DAC36A 		.ascii	"\265\332\303ju\"#\255N\260Z\2354\365\3252V\253As\255"
 454      752223AD 
 454      4EB05A9D 
 454      34F5D532 
 454      56AB4173 
 455 081b 76B15AF5 		.ascii	"v\261Z\365d\244U\017\253\325\031S_\355:v\024fT\345\346"
 455      64A4550F 
 455      ABD51953 
 455      5FED3A76 
 455      146654E5 
 456 0830 F0B08B7D 		.ascii	"\360\260\213}=\204W3V}\346<ox?\244)l\350=\212\327\036"
 456      3D845733 
 456      567DE63C 
 456      6F783FA4 
 456      296CE83D 
 457 0847 43CFD9B4 		.ascii	"C\317\331\264osMuA\226\252\026\227\246\031\325\260\327"
 457      6F734D75 
 457      4196AA16 
 457      97A619D5 
 457      B0D7
 458 0859 3408278F 		.ascii	"4\010'\217&\202\200M\200\225\244\271\222[X%/d\246\244"
 458      2682804D 
 458      8095A4B9 
 458      925B5825 
 458      2F64A6A4 
 459 086d 5533AAE4 		.ascii	"U3\252\344E\323\230\324\237\240J:\010\310\200Y@\350"
 459      45D398D4 
 459      9FA04A3A 
 459      08C88059 
 459      40E8
 460 087f 1F74BFA5 		.ascii	"\037t\277\245\324(\0237$\0276\005\032\004\256\223x\005"
 460      D4281337 
 460      24173605 
 460      1A04AE93 
 460      7805
 461 0891 B6E36EB2 		.ascii	"\266\343n\262\337\372\220,>W0\316\261\015\324t\265f"
 461      DFFA902C 
 461      3E5730CE 
 461      B10DD474 
 461      B566
ARM GAS  /tmp/ccFL7AGG.s 			page 36


 462 08a3 BC026EF8 		.ascii	"\274\002n\370\210\3004g\012\323\267j\341\253\352\313"
 462      88C03467 
 462      0AD3B76A 
 462      E1ABEACB 
 463 08b3 8D2B04E8 		.ascii	"\215+\004\350\017\014\220\200\\\314\366\317e\334\376"
 463      0F0C9080 
 463      5CCCF6CF 
 463      65DCFE
 464 08c2 B9BCC902 		.ascii	"\271\274\311\002f\370_\2672\303\377\026Sj\365\015\037"
 464      66F85FB7 
 464      32C3FF16 
 464      536AF50D 
 464      1F
 465 08d3 7BBF0A2D 		.ascii	"{\277\012-O\314\036\032\301\372\323\023\214\362\362"
 465      4FCC1E1A 
 465      C1FAD313 
 465      8CF2F2
 466 08e2 4B61A216 		.ascii	"Ka\242\026\234\303\004^\327\314\340@\265\226%/\255\244"
 466      9CC3045E 
 466      D7CCE040 
 466      B596252F 
 466      ADA4
 467 08f4 513B3E31 		.ascii	"Q;>1\355<7:\023\235g\200t\236\016\363\316\263\237\355"
 467      ED3C373A 
 467      139D6780 
 467      749E0EF3 
 467      CEB39FED 
 468 0908 3C9FDBB2 		.ascii	"<\237\333\262mH\263M@\237\261\315\234\330f%\215\332"
 468      6D48B34D 
 468      409FB1CD 
 468      9CD86625 
 468      8DDA
 469 091a 76C3A4CF 		.ascii	"v\303\244\317\325\302Z\365X\015\252\233\327tX\031\304"
 469      D5C25AF5 
 469      580DAA9B 
 469      D7745819 
 469      C4
 470 092b A704F6DF 		.ascii	"\247\004\366\337\224\177\311v\274\266d\307\323tb\231"
 470      947FC976 
 470      BCB664C7 
 470      D3746299 
 471 093b F11EE337 		.ascii	"\361\036\3437M5\305e\242Z|\333\331%\337R\232+\343\303"
 471      4D35C565 
 471      A25A7CDB 
 471      D925DF52 
 471      9A2BE3C3 
 472 094f C35358BD 		.ascii	"\303SX\275\260,+\305*]&\2121\212|d\241H\225\251\"{^"
 472      B02C2BC5 
 472      2A5D268A 
 472      318A7C64 
 472      A14895A9 
 473 0966 5C6CA548 		.ascii	"\\l\245H\032\007\325P=\222\242y\356\206\205\334\371"
 473      1A07D550 
 473      3D92A279 
 473      EE8685DC 
 473      F9
 474 0977 6672FB06 		.ascii	"fr\373\006\207\272\276\375{\345\240\323o\030\026\260"
ARM GAS  /tmp/ccFL7AGG.s 			page 37


 474      87BABEFD 
 474      7BE5A0D3 
 474      6F1816B0 
 475 0987 0EC07B28 		.ascii	"\016\300{(\306\001\013F\231+\262\310T\221\306\306\216"
 475      C6010B46 
 475      992BB2C8 
 475      5491C6C6 
 475      8E
 476 0998 9C0C1479 		.ascii	"\234\014\024y\236Ud\0239\3024(\262\314B\221\245\026"
 476      9E556413 
 476      39C23428 
 476      B2CC4291 
 476      A516
 477 09aa 1E194C7A 		.ascii	"\036\031LzD\265\224\347\326Y@\324\231B\254\355\355X"
 477      44B594E7 
 477      D65940D4 
 477      9942ACED 
 477      ED58
 478 09bc 6E4DF874 		.ascii	"nM\370tSM\203\2319\211?h\327d\314\333l\241\333r\243"
 478      534D8399 
 478      39893F68 
 478      D764CCDB 
 478      6CA1DB72 
 479 09d1 6EDFE19A 		.ascii	"n\337\341\2321\321\206W,G@4E\2715<\214\314\366\344."
 479      31D18657 
 479      2C474034 
 479      45B9353C 
 479      8CCCF6E4 
 480 09e6 FDC94762 		.ascii	"\375\311Gb\356\272\334\214\346\221\243\211\225.\274"
 480      EEBADC8C 
 480      E691A389 
 480      952EBC
 481 09f5 313FC4C8 		.ascii	"1?\304\310\034\021\210\347\272H\223U\256\224\363\261"
 481      1C1188E7 
 481      BA489355 
 481      AE94F3B1 
 482 0a05 D66A7AEA 		.ascii	"\326jz\352\201\237\215|\352\261\346\264z\276d\"\262"
 482      819F8D7C 
 482      EAB1E6B4 
 482      7ABE6422 
 482      B2
 483 0a16 2F719EF0 		.ascii	"/q\236\360\267:\335{N]\240\272\257%\272\237\035Yw#\020"
 483      B73ADD7B 
 483      4E5DA0BA 
 483      AF25BA9F 
 483      1D597723 
 484 0a2b CF5D224D 		.ascii	"\317]\"M\326\245\352~\262\212\352\276\316\226\356'\272"
 484      D6A5EA7E 
 484      B28AEABE 
 484      CE96EE27 
 484      BA
 485 0a3c 8D67639F 		.ascii	"\215gc\237%p3;\2639\251\276\344S\017\000\276d\301\034"
 485      2570333B 
 485      B339A9BE 
 485      E4530F00 
 485      BE64C11C 
 486 0a50 9DD828F1 		.ascii	"\235\330(\3613*\330\273D\263\252\\\247`\205\006\315"
ARM GAS  /tmp/ccFL7AGG.s 			page 38


 486      332AD8BB 
 486      44B3AA5C 
 486      A7608506 
 486      CD
 487 0a61 DEAB377E 		.ascii	"\336\2537~\235\262\320\016^\232\227p\203\335\272\227"
 487      9DB2D00E 
 487      5E9A9770 
 487      83DDBA97 
 488 0a71 70F58EC1 		.ascii	"p\365\216\301\214\312]\327\203\275h\007\314\354U\225"
 488      8CCA5DD7 
 488      83BD6807 
 488      CCEC5595 
 489 0a81 D94F4F12 		.ascii	"\331OO\022\310]x\243\274\336\205\267\347\257\222|#\311"
 489      C85D78A3 
 489      BCDE85B7 
 489      E7AF927C 
 489      23C9
 490 0a93 3791FC35 		.ascii	"7\221\3745\222ov\031\266\355/\347j\275\304\224\212#"
 490      926F7619 
 490      B6ED2FE7 
 490      6ABDC494 
 490      8A23
 491 0aa5 514289B7 		.ascii	"QB\211\267Xw\217\247\264\346y\272\336\261\242\277\002"
 491      58778FA7 
 491      B4E679BA 
 491      DEB1A2BF 
 491      02
 492 0ab6 55AB878E 		.ascii	"U\253\207\216\244w\374!w\304\336a\300\341\2718i\261"
 492      A477FC21 
 492      77C4DE61 
 492      C0E1B938 
 492      69B1
 493 0ac8 3DA573F4 		.ascii	"=\245s\364~9\217v\216\3556:Ge\374\213\2456\277\313J"
 493      7E398F76 
 493      8EED363A 
 493      4765FC8B 
 493      A536BFCB 
 494 0add 78649CCE 		.ascii	"xd\234\316\216\236^\355\003\263=\304\216\236\221\355"
 494      8E9E5EED 
 494      03B33DC4 
 494      8E9E91ED 
 495 0aed 3002412F 		.ascii	"0\002A/'M\366\245\032\362\261f\310>[\206\354Z\252q\177"
 495      274DF6A5 
 495      1AF2B166 
 495      C83E5B86 
 495      EC5AAA71 
 496 0b02 B70B33EC 		.ascii	"\267\0133\354F\0027\263\323\244\335\235\204\256*\230"
 496      460237B3 
 496      D3A4DD9D 
 496      84AE2A98 
 497 0b12 92E714CC 		.ascii	"\222\347\024\314\310\375\267:WOP\232\016 m\251\373\034"
 497      C8FDB73A 
 497      574F509A 
 497      0E206DA9 
 497      FB1C
 498 0b24 8B67580E 		.ascii	"\213gX\016\2164jT\306\367u\262/\264\355O\336o\263\263"
 498      8E346A54 
ARM GAS  /tmp/ccFL7AGG.s 			page 39


 498      C6F775B2 
 498      2FB4ED4F 
 498      DE6FB3B3 
 499 0b38 DD146611 		.ascii	"\335\024f\021a\3260A\334\363\025\3643\257\303\3041u"
 499      61D63041 
 499      DCF315F4 
 499      33AFC3C4 
 499      3175
 500 0b4a 79C68033 		.ascii	"y\306\2003\337\363`YVzt\270r-\202\232\362\014\306\013"
 500      DFF36059 
 500      567A74B8 
 500      722D829A 
 500      F20CC60B 
 501 0b5e 3B0148F7 		.ascii	";\001H\367\201B\357\265\227\264\223[r\322\272\316\016"
 501      8142EFB5 
 501      97B4935B 
 501      72D2BACE 
 501      0E
 502 0b6f A0D9D068 		.ascii	"\240\331\320h\366\323\363W@q2\000\035 \003\315\037I"
 502      F6D3F357 
 502      40713200 
 502      1D2003CD 
 502      1F49
 503 0b81 DE4AF276 		.ascii	"\336J\362v\222w\352\207\036+\337`\326%\260\017\272x"
 503      9277EA87 
 503      1E2BDF60 
 503      D625B00F 
 503      BA78
 504 0b93 DAD53363 		.ascii	"\332\3253c\362\315$\223\005t\3101\230\301\221\361\272"
 504      F2CD2493 
 504      0574C831 
 504      98C191F1 
 504      BA
 505 0ba4 6E3D9361 		.ascii	"n=\223a8g\361\0342\371\215\372\274\256\247\264n\261"
 505      3867F11C 
 505      32F98DFA 
 505      BCAEA7B4 
 505      6EB1
 506 0bb6 310F3904 		.ascii	"1\0179\004+H\027\224\355\272\240\354$A\331EBp\234\344"
 506      2B481794 
 506      EDBAA0EC 
 506      2441D945 
 506      42709CE4 
 507 0bca DD243F61 		.ascii	"\335$?a\234\011Z\362\230\231\3000\354\232\315Kz\367"
 507      9C095AF2 
 507      9899C030 
 507      EC9ACD4B 
 507      7AF7
 508 0bdc 28F1BDA7 		.ascii	"(\361\275\247\301\327\366_\200^\322^\200\366\220\341"
 508      C1D7F65F 
 508      805ED25E 
 508      80F690E1 
 509 0bec 736F9EE9 		.ascii	"so\236\351\360\231\356\005\350Q\322\344l\352\"\251_"
 509      F099EE05 
 509      E851D2E4 
 509      6CEA22A9 
 509      5F
ARM GAS  /tmp/ccFL7AGG.s 			page 40


 510 0bfd 5B249D1D 		.ascii	"[$\235\035y\370\254\232\027oix%9\017\314Kt\340J\336"
 510      79F8AC9A 
 510      176F6978 
 510      25390FCC 
 510      4B74E04A 
 511 0c12 7AD96CF8 		.ascii	"z\331l\370\366\344\\B\017\207$5\017\335Y]\350\316\223"
 511      F6E45C42 
 511      0F872435 
 511      0FDD595D 
 511      E8CE93
 512 0c25 D0BD6B0C 		.ascii	"\320\275k\014T?\033(3yi^p\366\234V_\335\333\215\325"
 512      543F1B28 
 512      3379695E 
 512      70F69C56 
 512      5FDDDB8D 
 513 0c3a B64B571F 		.ascii	"\266KW\037$\0077\027I\244V\217v\030)rF\301D)\376\251"
 513      24073717 
 513      49A4568F 
 513      76182972 
 513      46C14429 
 514 0c50 58A8DEB5 		.ascii	"X\250\336\265\361\341q?yQh\377K\203\326\377\241_\032"
 514      F1E1713F 
 514      795168FF 
 514      4B83D6FF 
 514      A15F1A
 515 0c63 7CE0C2DD 		.ascii	"|\340\302\335\3475F\341\014\2774h!0\375_W\230\373ua"
 515      E73546E1 
 515      0CBF3468 
 515      2130FD5F 
 515      5798FB75 
 516 0c78 1E2061BE 		.ascii	"\036 a\276d\014\363\336\321N\303\\\230N\336*\235\274"
 516      640CF3DE 
 516      D14EC35C 
 516      984EDE2A 
 516      9DBC
 517 0c8a 35445E23 		.ascii	"5D^#\031\005\266\222\3744\311/\0305\330\237p\234\351"
 517      1905B692 
 517      FC34C92F 
 517      1835D89F 
 517      709CE9
 518 0c9d 160BA37E 		.ascii	"\026\013\243~\234\334\3631\363\337~\213\367O\270\325"
 518      9CDCF331 
 518      F3DF7E8B 
 518      F74FB8D5 
 519 0cad E5E4188F 		.ascii	"\345\344\030\217w\260\361A\350\264\355=\250\036&)\262"
 519      77B0F141 
 519      E8B4ED3D 
 519      A81E2629 
 519      B2
 520 0cbe 836DF2D8 		.ascii	"\203m\362\330\237\323\007\3319\375\262+\345d\340 \303"
 520      9FD307D9 
 520      39FDB22B 
 520      E564E020 
 520      C3
 521 0ccf 007A4875 		.ascii	"\000zHu\002\237m]&\223y\007\251q\305eu\266E5\246\207"
 521      029F6D5D 
 521      26937907 
ARM GAS  /tmp/ccFL7AGG.s 			page 41


 521      A971C565 
 521      75B64535 
 522 0ce5 54E7945F 		.ascii	"T\347\224_LH\034\316\343F\006O\177b\334\007\337\306"
 522      4C481CCE 
 522      E346064F 
 522      7F62DC07 
 522      DFC6
 523 0cf7 D512531E 		.ascii	"\325\022S\036Y\231\257~\324f6\300\343v\327]\267\221"
 523      5999AF7E 
 523      D46636C0 
 523      E376D75D 
 523      B791
 524 0d09 92E1FF11 		.ascii	"\222\341\377\021\221\032V\266\177\356J~8\227\347M\026"
 524      911A56B6 
 524      7FEE4A7E 
 524      3897E74D 
 524      16
 525 0d1a 90517421 		.ascii	"\220Qt!#y\262V\317Mqn8\226\374\205\205\344\034s2\340"
 525      2379B256 
 525      CF4D716E 
 525      3896FC85 
 525      85E41C73 
 526 0d30 83352BA8 		.ascii	"\2035+\250\277\260d\210_\353U\317&\327\306k\215D\360"
 526      BFB06488 
 526      5FEB55CF 
 526      26D7C66B 
 526      8D44F0
 527 0d43 70F3C997 		.ascii	"p\363\311\227h\325J\005z&A{\213O\027A\252\313\203_c"
 527      68D54A05 
 527      7A26417B 
 527      8B4F1741 
 527      AACB835F 
 528 0d58 8DB6FCF0 		.ascii	"\215\266\374\360\020W\320\254P\313Z)\315w\2077m\020"
 528      1057D0AC 
 528      50CB5A29 
 528      CD778737 
 528      6D10
 529 0d6a AEC79C70 		.ascii	"\256\307\234p\3474\302\011\350\032Y<\014\331\"\\\245"
 529      E734C209 
 529      E81A593C 
 529      0CD9225C 
 529      A5
 530 0d7b 72EE3C26 		.ascii	"r\356<&\234\252\242\241\225\207\0159\236\234\262R\316"
 530      9CAAA2A1 
 530      95870D39 
 530      9E9CB252 
 530      CE
 531 0d8c 88C0A90D 		.ascii	"\210\300\251\015\027\273\\\332\177\036\272\323\301\321"
 531      17BB5CDA 
 531      7F1EBAD3 
 531      C1D1
 532 0d9a 6375D6C8 		.ascii	"cu\326\310\346\016\230\233;\304\232[\225e\317\334\317"
 532      E60E989B 
 532      3BC49A5B 
 532      9565CFDC 
 532      CF
 533 0dab DEFFC534 		.ascii	"\336\377\3054U+.M+\252\340|\243\271\014\363*\323,\303"
ARM GAS  /tmp/ccFL7AGG.s 			page 42


 533      552B2E4D 
 533      2BAAE07C 
 533      A3B90CF3 
 533      2AD32CC3 
 534 0dbf 1766E55A 		.ascii	"\027f\345Z\264\302/\365\254Z-\262lU\223F\326b\313V+"
 534      B4C22FF5 
 534      AC5A2DB2 
 534      6C559346 
 534      D662CB56 
 535 0dd4 2D467872 		.ascii	"-Fxr\332h\331jA\032YK,[=\237\246\325\322,vP\276:4\370"
 535      DA68D96A 
 535      411A594B 
 535      2C5B3D9F 
 535      A6D5D22C 
 536 0dee 0F3BF127 		.ascii	"\017;\361'\377\312\255\341g+\252~\304\260\006\037\301"
 536      FFCAADE1 
 536      672BAA7E 
 536      C4B0061F 
 536      C1
 537 0dff 5A81D565 		.ascii	"Z\201\325e\231\034\0243,I\204{\353\006\305\253}\025"
 537      991C1433 
 537      2C49847B 
 537      EB06C5AB 
 537      7D15
 538 0e11 23A0DAF4 		.ascii	"#\240\332\364\341\2567c7lr\256d8\177\274\300\362\333"
 538      E1AE3763 
 538      376C72AE 
 538      64387FBC 
 538      C0F2DB
 539 0e24 70E64F79 		.ascii	"p\346Oy\311\360}Q\276\365|\242\036\362\254!5\226Y\362"
 539      C9F07D51 
 539      BEF57CA2 
 539      1EF2AC21 
 539      359659F2 
 540 0e38 BD4DF7AE 		.ascii	"\275M\367\256dM[^-2v\024\353\206i&\"\334H\367\003f\245"
 540      644D5B5E 
 540      2D327614 
 540      EB866926 
 540      22DC48F7 
 541 0e4f ED19E7D3 		.ascii	"\355\031\347\323\214\311k,\031\324\220\206A\215)\014"
 541      8CC96B2C 
 541      19D49086 
 541      418D290C 
 542 0e5f AAFBF44F 		.ascii	"\252\373\364O?\335e\315\240t\343N\223\011\203\316\344"
 542      3FDD65CD 
 542      A074E34E 
 542      930983CE 
 542      E4
 543 0e70 A7659036 		.ascii	"\247e\2206`\254M\317\240\346\264n\031H\343\226\227\222"
 543      60AC4DCF 
 543      A0E6B46E 
 543      1948E396 
 543      9792
 544 0e82 0672D38A 		.ascii	"\006r\323\212\312\"!\261\310\037)\231[T\"\316*\362\227"
 544      CA2221B1 
 544      C81F2999 
 544      5B5422CE 
ARM GAS  /tmp/ccFL7AGG.s 			page 43


 544      2AF297
 545 0e95 05660422 		.ascii	"\005f\004\"\261\"Y*\017?]\004\005I.\212F$9V\364\243"
 545      B122592A 
 545      0F3F5D04 
 545      05492E8A 
 545      46243956 
 546 0eab 5F4E9F3A 		.ascii	"_N\237:}\016\324\014E\003AQ\212\025=:u*T\227\347F\305"
 546      7D0ED40C 
 546      45034151 
 546      8A153D3A 
 546      752A5497 
 547 0ec2 D80FCAB8 		.ascii	"\330\017\312\270\354Pl\246O\316y\364\347O\024N\345\356"
 547      EC506CA6 
 547      4FCE79F4 
 547      E74F144E 
 547      E5EE
 548 0ed4 2A2A8F49 		.ascii	"**\217IE\202\024\272'\034\011\213\367\210\302\214@Q"
 548      458214BA 
 548      271C098B 
 548      F788C28C 
 548      4051
 549 0ee6 20EC0F96 		.ascii	" \354\017\226\227\210E1\271$\020\226\241\205\033.\367"
 549      97884531 
 549      B9241096 
 549      A1851B2E 
 549      F7
 550 0ef7 DFE7931F 		.ascii	"\337\347\223\037HS9$\200Ba\261\310W\"\226\012\345A\331"
 550      48533924 
 550      804261B1 
 550      C8572296 
 550      0AE541D9 
 551 0f0b A789F3FA 		.ascii	"\247\211\363\372|\264\271G\216\311\202,\372dw9\334\231"
 551      7CB4B947 
 551      8EC9822C 
 551      FA647739 
 551      DC99
 552 0f1d EC93E111 		.ascii	"\354\223\341\021-M\262a\\L\362\303}\177$\\\362\003?"
 552      2D4DB261 
 552      5C4CF2C3 
 552      7D7F245C 
 552      F2033F
 553 0f30 F7808D06 		.ascii	"\367\200\215\006\232j\264Q\0317\016_\003r \022\366\315"
 553      9A6AB451 
 553      19370E5F 
 553      03722012 
 553      F6CD
 554 0f42 12A48030 		.ascii	"\022\244\2000#\010\312\214M\2759\331\021xlnL\263u\214"
 554      2308CA8C 
 554      4DBD39D9 
 554      11786C6E 
 554      4CB3758C 
 555 0f56 5C268942 		.ascii	"\\&\211BI\314\367L\271X\016\330\005\3762\237\341\226"
 555      49CCF74C 
 555      B9580ED8 
 555      05FE329F 
 555      E196
 556 0f68 33B563FE 		.ascii	"3\265c\3762\254\266G\205\000\177%\340r\242\276\2608"
ARM GAS  /tmp/ccFL7AGG.s 			page 44


 556      32ACB647 
 556      85007F25 
 556      E072A2BE 
 556      B038
 557 0f7a 47864B54 		.ascii	"G\206KT\022g\271\345\250\024\210\200\203\313\251\247"
 557      1267B9E5 
 557      A8148880 
 557      83CBA9A7 
 558 0f8a 47A98EC5 		.ascii	"G\251\216\305ER%\020q\203\2252\264x\3101\213\300y\222"
 558      45522510 
 558      71839532 
 558      B478C831 
 558      8BC07992 
 559 0f9e 085A     		.ascii	"\010Z"
 560 0fa0 E4E2DB38 		.ascii	"\344\342\3338\224~y\316\277d\206\342\233\365`\010\333"
 560      947E79CE 
 560      BF6486E2 
 560      9BF56008 
 560      DB
 561 0fb1 23893381 		.ascii	"#\2113\201D>\231\227\036\340\245\177\344\245\037\362"
 561      443E9997 
 561      1EE0A57F 
 561      E4A51FF2 
 562 0fc1 D283BC34 		.ascii	"\322\203\2744\231\227\036rI\367N\202t/\037\224\340r"
 562      99971E72 
 562      49F74E82 
 562      742F1F94 
 562      E072
 563 0fd3 7F76D407 		.ascii	"\177v\324\007\322\334\330\330\331\242\004\327H\260D"
 563      D2DCD8D8 
 563      D9A204D7 
 563      48B044
 564 0fe2 94B2FC65 		.ascii	"\224\262\374e\202\204= \204D\270GH\345\226C\221\022"
 564      82843D20 
 564      8444B847 
 564      48E59643 
 564      9112
 565 0ff4 4CADA8AF 		.ascii	"L\255\250\2574(\314\214\271eI,"
 565      3428CC8C 
 565      B965492C 
 566 1000 8D11F371 		.ascii	"\215\021\363q!G*\231\013\264\367\210s\0022h-\346\314"
 566      21472A99 
 566      0BB4F788 
 566      73023268 
 566      2DE6CC
 567 1013 9623337E 		.ascii	"\226#3~\027\315\025g\211a9$\304\236\206\232\342l\\p"
 567      17CD1567 
 567      89613924 
 567      C49E869A 
 567      E26C5C70 
 568 1027 457DE5F9 		.ascii	"E}\345\371Z\314\202\201\030\020y\214.\212\370\2167\352"
 568      5ACC8281 
 568      1810798C 
 568      2E8AF88E 
 568      37EA
 569 1039 9B2D0063 		.ascii	"\233-\000c\3023GE}\200J\"\233M\212pC\214\212\300\247"
 569      C2334745 
ARM GAS  /tmp/ccFL7AGG.s 			page 45


 569      7D804A22 
 569      9B4D8A70 
 569      438C8AC0 
 570 104e F0CCEC50 		.ascii	"\360\314\354P98\374~G\001\017\311spw\013\251d\201kd"
 570      3938FC7E 
 570      47010FC9 
 570      7370770B 
 570      A964816B 
 571 1063 7618EC26 		.ascii	"v\030\354&H\240a\210\004\035\304C=\254\310(l\234\020"
 571      48A06188 
 571      041DC443 
 571      3DACC828 
 571      6C9C10
 572 1076 24F1859B 		.ascii	"$\361\205\233\321H$\350\366\253m\201yS\201\327\217\317"
 572      D14824E8 
 572      F6AB6D81 
 572      795381D7 
 572      8FCF
 573 1088 F89DE897 		.ascii	"\370\235\350\227\037\013\007d\336\037\315S\357\025\007"
 573      1F0B0764 
 573      DE1FCD53 
 573      EF1507
 574 1097 668685E0 		.ascii	"f\206\205\340h\375\037\217\321\352?\226\"B\211_\210"
 574      68FD1F8F 
 574      D1EA3F96 
 574      2242895F 
 574      88
 575 10a8 C98F8D61 		.ascii	"\311\217\215an\344\252\177?\011v\027\217J\226\275\230"
 575      6EE4AA7F 
 575      3F097617 
 575      8F4A96BD 
 575      98
 576 10b9 FC819048 		.ascii	"\374\201\220H\271w\357\017\023\334\303\305\261\311\212"
 576      B977EF0F 
 576      13DCC3C5 
 576      B1C98A
 577 10c8 BF824A91 		.ascii	"\277\202J\221r\2718\013\327\276-\345>\250V\354/{RxZ"
 577      72B9380B 
 577      D7BE2DE5 
 577      3EA856EC 
 577      2F7B5278 
 578 10dd 2C8F16E7 		.ascii	",\217\026\347\222?~\011\376\236\213\025#e\350\012bI"
 578      923F7E09 
 578      FE9E8B15 
 578      2365E80A 
 578      6249
 579 10ef 7950C4C2 		.ascii	"yP\304\302\247\313s\376-\342\177\272x4y\366h\2448(\212"
 579      A7CB73FE 
 579      2DE27FBA 
 579      783479F6 
 579      68A43828 
 580 1104 D1E23CF2 		.ascii	"\321\342<\362\340\211p\020?\032\247\177\244\311\006"
 580      E0897010 
 580      3F1AA77F 
 580      A4C906
 581 1113 5C1FD657 		.ascii	"\\\037\326W\014\251]I-\347\341\300\316\245\241\006H"
 581      0CA95D49 
ARM GAS  /tmp/ccFL7AGG.s 			page 46


 581      2DE7E1C0 
 581      CEA5A106 
 581      48
 582 1124 5FF26FB7 		.ascii	"_\362o\267\244:3G\"}([\"l\224(\033%\225\215^\270[.I"
 582      A43A3347 
 582      227D285B 
 582      226C9428 
 582      1B25958D 
 583 113d C0A36C09 		.ascii	"\300\243l\0117\372\306\254\200$\227\013A\037\266T\322"
 583      37FAC6AC 
 583      8024970B 
 583      411FB654 
 583      D2
 584 114e 38341E80 		.ascii	"84\036\200M\036\2141\334S\007\014\303-\367,\231\004"
 584      4D1E8C31 
 584      DC53070C 
 584      C32DF72C 
 584      9904
 585 1160 1D5F7157 		.ascii	"\035_qW\367\300\265D\014\312\002\024J\313\303~\037y"
 585      F7C0B544 
 585      0CCA0214 
 585      4ACBC37E 
 585      1F79
 586 1172 824B39B8 		.ascii	"\202K9\270\206 \345\302%\010\001\303\255\341\026\026"
 586      8620E5C2 
 586      250801C3 
 586      ADE11616 
 587 1182 924F8D2E 		.ascii	"\222O\215.\021g\224\317T\351\254\277\343\215\012\341"
 587      116794CF 
 587      54E9ACBF 
 587      E38D0AE1 
 588 1192 801FB3D7 		.ascii	"\200\037\263\327U2c\346}\216\010+\343\376\\ \207|~!"
 588      553263E6 
 588      7D8E082B 
 588      E3FE5C20 
 588      877C7E21 
 589 11a6 18982109 		.ascii	"\030\230!\011d\030\005\277\311\3760\030\235\023)-\215"
 589      641805BF 
 589      C9FE3018 
 589      9D13292D 
 589      8D
 590 11b7 89322F87 		.ascii	"\2112/\207x\177\331(uL\014\000\027]\3623\321l\337\217"
 590      787FD928 
 590      754C0C00 
 590      175DF233 
 590      D16CDF8F 
 591 11cb 81AEF9EA 		.ascii	"\201\256\371\352\315p\004\264\211\312soS\377,\015\224"
 591      CD7004B4 
 591      89CA736F 
 591      53FF2C0D 
 591      94
 592 11dc 46200CA1 		.ascii	"F \014\241\310,q,\211\352\243\242\374sp\302t\334\017"
 592      C82C712C 
 592      89EAA3A2 
 592      FC7370C2 
 592      74DC0F
 593 11ef 8A692532 		.ascii	"\212i%2\344\005\3021Q\002\001\321\007\235\251\255\366"
ARM GAS  /tmp/ccFL7AGG.s 			page 47


 593      E405C231 
 593      510201D1 
 593      079DA9AD 
 593      F6
 594 1200 66D01D02 		.ascii	"f\320\035\002\376\253\262\022\300/\026\203\245\277\376"
 594      FEABB212 
 594      C02F1683 
 594      A5BFFE
 595 120f 3F5FE131 		.ascii	"?_\3411z"
 595      7A
 596              		.text
 597              		.section	.gnu.lto_.symtab.ce376c1dc93b6ae8,"",%progbits
 598 0000 6368436F 		.ascii	"chCondObjectInit\000\000\000\000\000\000\000\000\000"
 598      6E644F62 
 598      6A656374 
 598      496E6974 
 598      00000000 
 599 0019 000000B4 		.ascii	"\000\000\000\264\000\000\000chCondSignal\000\000\000"
 599      00000063 
 599      68436F6E 
 599      64536967 
 599      6E616C00 
 600 002f 00000000 		.ascii	"\000\000\000\000\000\000\000\000\000K\001\000\000ch"
 600      00000000 
 600      004B0100 
 600      006368
 601 003e 436F6E64 		.ascii	"CondSignalI\000\000\000\000\000\000\000\000\000\000"
 601      5369676E 
 601      616C4900 
 601      00000000 
 601      00000000 
 602 0053 00004F01 		.ascii	"\000\000O\001\000\000chCondBroadcastI\000\000\000\000"
 602      00006368 
 602      436F6E64 
 602      42726F61 
 602      64636173 
 603 006d 00000000 		.ascii	"\000\000\000\000\000\000\000\000S\001\000\000chCond"
 603      00000000 
 603      53010000 
 603      6368436F 
 603      6E64
 604 007f 42726F61 		.ascii	"Broadcast\000\000\000\000\000\000\000\000\000\000\000"
 604      64636173 
 604      74000000 
 604      00000000 
 604      00000000 
 605 0093 00570100 		.ascii	"\000W\001\000\000chCondWaitS\000\000\000\000\000\000"
 605      00636843 
 605      6F6E6457 
 605      61697453 
 605      00000000 
 606 00a9 00000000 		.ascii	"\000\000\000\000\000\000[\001\000\000chCondWait\000"
 606      00005B01 
 606      00006368 
 606      436F6E64 
 606      57616974 
 607 00be 00000000 		.ascii	"\000\000\000\000\000\000\000\000\000\000\000a\001\000"
ARM GAS  /tmp/ccFL7AGG.s 			page 48


 607      00000000 
 607      00000061 
 607      0100
 608 00cc 00636843 		.ascii	"\000chCondWaitTimeoutS\000\000\000\000\000\000\000\000"
 608      6F6E6457 
 608      61697454 
 608      696D656F 
 608      75745300 
 609 00e7 00000000 		.ascii	"\000\000\000\000e\001\000\000chCondWaitTimeout\000\000"
 609      65010000 
 609      6368436F 
 609      6E645761 
 609      69745469 
 610 0102 00000000 		.ascii	"\000\000\000\000\000\000\000\000\000\000w\001\000\000"
 610      00000000 
 610      00007701 
 610      0000
 611 0110 63680000 		.ascii	"ch\000\000\002\000\000\000\000\000\000\000\000\000\227"
 611      02000000 
 611      00000000 
 611      000097
 612 011f 01000063 		.ascii	"\001\000\000chSchWakeupS\000\000\002\000\000\000\000"
 612      68536368 
 612      57616B65 
 612      75705300 
 612      00020000 
 613 0135 00000000 		.ascii	"\000\000\000\000\000|\001\000\000chSchReadyI\000\000"
 613      007C0100 
 613      00636853 
 613      63685265 
 613      61647949 
 614 014b 02000000 		.ascii	"\002\000\000\000\000\000\000\000\000\000\201\001\000"
 614      00000000 
 614      00008101 
 614      00
 615 0158 00636853 		.ascii	"\000chSchRescheduleS\000\000\002\000\000\000\000\000"
 615      63685265 
 615      73636865 
 615      64756C65 
 615      53000002 
 616 0171 00000000 		.ascii	"\000\000\000\000\205\001\000\000chMtxLockS\000\000\002"
 616      85010000 
 616      63684D74 
 616      784C6F63 
 616      6B530000 
 617 0186 00000000 		.ascii	"\000\000\000\000\000\000\000\000\000\210\001\000\000"
 617      00000000 
 617      00880100 
 617      00
 618 0193 63685363 		.ascii	"chSchGoSleepS\000\000\002\000\000\000\000\000\000\000"
 618      68476F53 
 618      6C656570 
 618      53000002 
 618      00000000 
 619 01aa 00008C01 		.ascii	"\000\000\214\001\000\000chMtxUnlockS\000\000\002\000"
 619      00006368 
 619      4D747855 
ARM GAS  /tmp/ccFL7AGG.s 			page 49


 619      6E6C6F63 
 619      6B530000 
 620 01c0 00000000 		.ascii	"\000\000\000\000\000\000\000\000\220\001\000\000chS"
 620      00000000 
 620      90010000 
 620      636853
 621 01cf 6368476F 		.ascii	"chGoSleepTimeoutS\000\000\002\000\000\000\000\000\000"
 621      536C6565 
 621      7054696D 
 621      656F7574 
 621      53000002 
 622 01e9 00000092 		.ascii	"\000\000\000\222\001\000\000"
 622      010000
 623              		.text
 624              		.section	.gnu.lto_.opts,"",%progbits
 625 0000 272D6D63 		.ascii	"'-mcpu=cortex-m3' '-mno-thumb-interwork' '-mthumb' "
 625      70753D63 
 625      6F727465 
 625      782D6D33 
 625      2720272D 
 626 0033 272D4F32 		.ascii	"'-O2' '-fomit-frame-pointer' '-falign-functions=16'"
 626      2720272D 
 626      666F6D69 
 626      742D6672 
 626      616D652D 
 627 0066 20272D66 		.ascii	" '-ffunction-sections' '-fdata-sections' '-fno-comm"
 627      66756E63 
 627      74696F6E 
 627      2D736563 
 627      74696F6E 
 628 0099 6F6E2720 		.ascii	"on' '-flto'\000"
 628      272D666C 
 628      746F2700 
 629              		.text
 630              		.section	.text.chCondObjectInit,"ax",%progbits
 631              		.align	2
 632              		.p2align 4,,15
 633              		.global	chCondObjectInit
 634              		.thumb
 635              		.thumb_func
 636              		.type	chCondObjectInit, %function
 637              	chCondObjectInit:
 638              		@ args = 0, pretend = 0, frame = 0
 639              		@ frame_needed = 0, uses_anonymous_args = 0
 640              		@ link register save eliminated.
 641 0000 4060     		str	r0, [r0, #4]
 642 0002 0060     		str	r0, [r0]
 643 0004 7047     		bx	lr
 644              		.size	chCondObjectInit, .-chCondObjectInit
 645 0006 00BFAFF3 		.section	.text.chCondSignal,"ax",%progbits
 645      0080AFF3 
 645      0080
 646              		.align	2
 647              		.p2align 4,,15
 648              		.global	chCondSignal
 649              		.thumb
 650              		.thumb_func
ARM GAS  /tmp/ccFL7AGG.s 			page 50


 651              		.type	chCondSignal, %function
 652              	chCondSignal:
 653              		@ args = 0, pretend = 0, frame = 0
 654              		@ frame_needed = 0, uses_anonymous_args = 0
 655 0000 08B5     		push	{r3, lr}
 656 0002 2022     		movs	r2, #32
 657 0004 0346     		mov	r3, r0
 658              	@ 546 "/home/cody/dev/chibios/trunk/os/ext/CMSIS/include/core_cmFunc.h" 1
 659 0006 82F31188 		MSR basepri, r2
 660              	@ 0 "" 2
 661              		.thumb
 662 000a 0068     		ldr	r0, [r0]
 663 000c 8342     		cmp	r3, r0
 664 000e 05D0     		beq	.L3
 665 0010 0268     		ldr	r2, [r0]
 666 0012 0021     		movs	r1, #0
 667 0014 1A60     		str	r2, [r3]
 668 0016 5360     		str	r3, [r2, #4]
 669 0018 FFF7FEFF 		bl	chSchWakeupS
 670              	.L3:
 671 001c 0023     		movs	r3, #0
 672              	@ 546 "/home/cody/dev/chibios/trunk/os/ext/CMSIS/include/core_cmFunc.h" 1
 673 001e 83F31188 		MSR basepri, r3
 674              	@ 0 "" 2
 675              		.thumb
 676 0022 08BD     		pop	{r3, pc}
 677              		.size	chCondSignal, .-chCondSignal
 678 0024 AFF30080 		.section	.text.chCondSignalI,"ax",%progbits
 678      AFF30080 
 678      AFF30080 
 679              		.align	2
 680              		.p2align 4,,15
 681              		.global	chCondSignalI
 682              		.thumb
 683              		.thumb_func
 684              		.type	chCondSignalI, %function
 685              	chCondSignalI:
 686              		@ args = 0, pretend = 0, frame = 0
 687              		@ frame_needed = 0, uses_anonymous_args = 0
 688              		@ link register save eliminated.
 689 0000 0268     		ldr	r2, [r0]
 690 0002 10B4     		push	{r4}
 691 0004 9042     		cmp	r0, r2
 692 0006 0346     		mov	r3, r0
 693 0008 09D0     		beq	.L5
 694 000a 1168     		ldr	r1, [r2]
 695 000c 0024     		movs	r4, #0
 696 000e 0160     		str	r1, [r0]
 697 0010 4B60     		str	r3, [r1, #4]
 698 0012 1462     		str	r4, [r2, #32]
 699 0014 1046     		mov	r0, r2
 700 0016 5DF8044B 		ldr	r4, [sp], #4
 701 001a FFF7FEBF 		b	chSchReadyI
 702              	.L5:
 703 001e 5DF8044B 		ldr	r4, [sp], #4
 704 0022 7047     		bx	lr
 705              		.size	chCondSignalI, .-chCondSignalI
ARM GAS  /tmp/ccFL7AGG.s 			page 51


 706 0024 AFF30080 		.section	.text.chCondBroadcastI,"ax",%progbits
 706      AFF30080 
 706      AFF30080 
 707              		.align	2
 708              		.p2align 4,,15
 709              		.global	chCondBroadcastI
 710              		.thumb
 711              		.thumb_func
 712              		.type	chCondBroadcastI, %function
 713              	chCondBroadcastI:
 714              		@ args = 0, pretend = 0, frame = 0
 715              		@ frame_needed = 0, uses_anonymous_args = 0
 716 0000 38B5     		push	{r3, r4, r5, lr}
 717 0002 0446     		mov	r4, r0
 718 0004 0068     		ldr	r0, [r0]
 719 0006 A042     		cmp	r0, r4
 720 0008 0AD0     		beq	.L7
 721 000a 6FF00105 		mvn	r5, #1
 722              	.L10:
 723 000e 0368     		ldr	r3, [r0]
 724 0010 2360     		str	r3, [r4]
 725 0012 5C60     		str	r4, [r3, #4]
 726 0014 FFF7FEFF 		bl	chSchReadyI
 727 0018 0562     		str	r5, [r0, #32]
 728 001a 2068     		ldr	r0, [r4]
 729 001c A042     		cmp	r0, r4
 730 001e F6D1     		bne	.L10
 731              	.L7:
 732 0020 38BD     		pop	{r3, r4, r5, pc}
 733              		.size	chCondBroadcastI, .-chCondBroadcastI
 734 0022 00BFAFF3 		.section	.text.chCondBroadcast,"ax",%progbits
 734      0080AFF3 
 734      0080AFF3 
 734      0080
 735              		.align	2
 736              		.p2align 4,,15
 737              		.global	chCondBroadcast
 738              		.thumb
 739              		.thumb_func
 740              		.type	chCondBroadcast, %function
 741              	chCondBroadcast:
 742              		@ args = 0, pretend = 0, frame = 0
 743              		@ frame_needed = 0, uses_anonymous_args = 0
 744 0000 08B5     		push	{r3, lr}
 745 0002 2023     		movs	r3, #32
 746              	@ 546 "/home/cody/dev/chibios/trunk/os/ext/CMSIS/include/core_cmFunc.h" 1
 747 0004 83F31188 		MSR basepri, r3
 748              	@ 0 "" 2
 749              		.thumb
 750 0008 FFF7FEFF 		bl	chCondBroadcastI
 751 000c FFF7FEFF 		bl	chSchRescheduleS
 752 0010 0023     		movs	r3, #0
 753              	@ 546 "/home/cody/dev/chibios/trunk/os/ext/CMSIS/include/core_cmFunc.h" 1
 754 0012 83F31188 		MSR basepri, r3
 755              	@ 0 "" 2
 756              		.thumb
 757 0016 08BD     		pop	{r3, pc}
ARM GAS  /tmp/ccFL7AGG.s 			page 52


 758              		.size	chCondBroadcast, .-chCondBroadcast
 759 0018 AFF30080 		.section	.text.chCondWaitS,"ax",%progbits
 759      AFF30080 
 760              		.align	2
 761              		.p2align 4,,15
 762              		.global	chCondWaitS
 763              		.thumb
 764              		.thumb_func
 765              		.type	chCondWaitS, %function
 766              	chCondWaitS:
 767              		@ args = 0, pretend = 0, frame = 0
 768              		@ frame_needed = 0, uses_anonymous_args = 0
 769 0000 0F4B     		ldr	r3, .L18
 770 0002 70B5     		push	{r4, r5, r6, lr}
 771 0004 9C69     		ldr	r4, [r3, #24]
 772 0006 0546     		mov	r5, r0
 773 0008 A66B     		ldr	r6, [r4, #56]
 774 000a 3046     		mov	r0, r6
 775 000c FFF7FEFF 		bl	chMtxUnlockS
 776 0010 2562     		str	r5, [r4, #32]
 777 0012 2B46     		mov	r3, r5
 778 0014 03E0     		b	.L15
 779              	.L17:
 780 0016 9968     		ldr	r1, [r3, #8]
 781 0018 A268     		ldr	r2, [r4, #8]
 782 001a 9142     		cmp	r1, r2
 783 001c 02D3     		bcc	.L14
 784              	.L15:
 785 001e 1B68     		ldr	r3, [r3]
 786 0020 9D42     		cmp	r5, r3
 787 0022 F8D1     		bne	.L17
 788              	.L14:
 789 0024 5A68     		ldr	r2, [r3, #4]
 790 0026 0720     		movs	r0, #7
 791 0028 2360     		str	r3, [r4]
 792 002a 6260     		str	r2, [r4, #4]
 793 002c 5C60     		str	r4, [r3, #4]
 794 002e 1460     		str	r4, [r2]
 795 0030 FFF7FEFF 		bl	chSchGoSleepS
 796 0034 246A     		ldr	r4, [r4, #32]
 797 0036 3046     		mov	r0, r6
 798 0038 FFF7FEFF 		bl	chMtxLockS
 799 003c 2046     		mov	r0, r4
 800 003e 70BD     		pop	{r4, r5, r6, pc}
 801              	.L19:
 802              		.align	2
 803              	.L18:
 804 0040 00000000 		.word	ch
 805              		.size	chCondWaitS, .-chCondWaitS
 806 0044 AFF30080 		.section	.text.chCondWait,"ax",%progbits
 806      AFF30080 
 806      AFF30080 
 807              		.align	2
 808              		.p2align 4,,15
 809              		.global	chCondWait
 810              		.thumb
 811              		.thumb_func
ARM GAS  /tmp/ccFL7AGG.s 			page 53


 812              		.type	chCondWait, %function
 813              	chCondWait:
 814              		@ args = 0, pretend = 0, frame = 0
 815              		@ frame_needed = 0, uses_anonymous_args = 0
 816 0000 08B5     		push	{r3, lr}
 817 0002 2023     		movs	r3, #32
 818              	@ 546 "/home/cody/dev/chibios/trunk/os/ext/CMSIS/include/core_cmFunc.h" 1
 819 0004 83F31188 		MSR basepri, r3
 820              	@ 0 "" 2
 821              		.thumb
 822 0008 FFF7FEFF 		bl	chCondWaitS
 823 000c 0023     		movs	r3, #0
 824              	@ 546 "/home/cody/dev/chibios/trunk/os/ext/CMSIS/include/core_cmFunc.h" 1
 825 000e 83F31188 		MSR basepri, r3
 826              	@ 0 "" 2
 827              		.thumb
 828 0012 08BD     		pop	{r3, pc}
 829              		.size	chCondWait, .-chCondWait
 830 0014 AFF30080 		.section	.text.chCondWaitTimeoutS,"ax",%progbits
 830      AFF30080 
 830      AFF30080 
 831              		.align	2
 832              		.p2align 4,,15
 833              		.global	chCondWaitTimeoutS
 834              		.thumb
 835              		.thumb_func
 836              		.type	chCondWaitTimeoutS, %function
 837              	chCondWaitTimeoutS:
 838              		@ args = 0, pretend = 0, frame = 0
 839              		@ frame_needed = 0, uses_anonymous_args = 0
 840 0000 2DE9F041 		push	{r4, r5, r6, r7, r8, lr}
 841 0004 124C     		ldr	r4, .L27
 842 0006 0646     		mov	r6, r0
 843 0008 A369     		ldr	r3, [r4, #24]
 844 000a 8846     		mov	r8, r1
 845 000c 9F6B     		ldr	r7, [r3, #56]
 846 000e 3846     		mov	r0, r7
 847 0010 FFF7FEFF 		bl	chMtxUnlockS
 848 0014 A569     		ldr	r5, [r4, #24]
 849 0016 3346     		mov	r3, r6
 850 0018 2E62     		str	r6, [r5, #32]
 851 001a 03E0     		b	.L26
 852              	.L22:
 853 001c 9C68     		ldr	r4, [r3, #8]
 854 001e AA68     		ldr	r2, [r5, #8]
 855 0020 9442     		cmp	r4, r2
 856 0022 02D3     		bcc	.L25
 857              	.L26:
 858 0024 1B68     		ldr	r3, [r3]
 859 0026 9E42     		cmp	r6, r3
 860 0028 F8D1     		bne	.L22
 861              	.L25:
 862 002a 5A68     		ldr	r2, [r3, #4]
 863 002c 4146     		mov	r1, r8
 864 002e 2B60     		str	r3, [r5]
 865 0030 6A60     		str	r2, [r5, #4]
 866 0032 0720     		movs	r0, #7
ARM GAS  /tmp/ccFL7AGG.s 			page 54


 867 0034 5D60     		str	r5, [r3, #4]
 868 0036 1560     		str	r5, [r2]
 869 0038 FFF7FEFF 		bl	chSchGoSleepTimeoutS
 870 003c 431C     		adds	r3, r0, #1
 871 003e 0446     		mov	r4, r0
 872 0040 02D0     		beq	.L24
 873 0042 3846     		mov	r0, r7
 874 0044 FFF7FEFF 		bl	chMtxLockS
 875              	.L24:
 876 0048 2046     		mov	r0, r4
 877 004a BDE8F081 		pop	{r4, r5, r6, r7, r8, pc}
 878              	.L28:
 879 004e 00BF     		.align	2
 880              	.L27:
 881 0050 00000000 		.word	ch
 882              		.size	chCondWaitTimeoutS, .-chCondWaitTimeoutS
 883 0054 AFF30080 		.section	.text.chCondWaitTimeout,"ax",%progbits
 883      AFF30080 
 883      AFF30080 
 884              		.align	2
 885              		.p2align 4,,15
 886              		.global	chCondWaitTimeout
 887              		.thumb
 888              		.thumb_func
 889              		.type	chCondWaitTimeout, %function
 890              	chCondWaitTimeout:
 891              		@ args = 0, pretend = 0, frame = 0
 892              		@ frame_needed = 0, uses_anonymous_args = 0
 893 0000 08B5     		push	{r3, lr}
 894 0002 2023     		movs	r3, #32
 895              	@ 546 "/home/cody/dev/chibios/trunk/os/ext/CMSIS/include/core_cmFunc.h" 1
 896 0004 83F31188 		MSR basepri, r3
 897              	@ 0 "" 2
 898              		.thumb
 899 0008 FFF7FEFF 		bl	chCondWaitTimeoutS
 900 000c 0023     		movs	r3, #0
 901              	@ 546 "/home/cody/dev/chibios/trunk/os/ext/CMSIS/include/core_cmFunc.h" 1
 902 000e 83F31188 		MSR basepri, r3
 903              	@ 0 "" 2
 904              		.thumb
 905 0012 08BD     		pop	{r3, pc}
 906              		.size	chCondWaitTimeout, .-chCondWaitTimeout
 907              		.comm	__gnu_lto_v1,1,1
 908 0014 AFF30080 		.ident	"GCC: (GNU Tools for ARM Embedded Processors) 4.8.4 20140526 (release) [ARM/embedded-4_8-br
 908      AFF30080 
 908      AFF30080 
ARM GAS  /tmp/ccFL7AGG.s 			page 55

