ARM GAS  /tmp/cc9AB7Wh.s 			page 1


   1              		.syntax unified
   2              		.cpu cortex-m3
   3              		.fpu softvfp
   4              		.eabi_attribute 20, 1
   5              		.eabi_attribute 21, 1
   6              		.eabi_attribute 23, 3
   7              		.eabi_attribute 24, 1
   8              		.eabi_attribute 25, 1
   9              		.eabi_attribute 26, 1
  10              		.eabi_attribute 30, 2
  11              		.eabi_attribute 34, 1
  12              		.eabi_attribute 18, 4
  13              		.thumb
  14              		.file	"chcore_v7m.c"
  15              		.section	.gnu.lto_.jmpfuncs.8abfb2c47a8256f7,"",%progbits
  16 0000 789C6362 		.ascii	"x\234cb`b\300\006\270\24043\030\263\000I\000\001\302"
  16      6062C006 
  16      B8A03433 
  16      18B30049 
  16      0001C2
  17 0013 0019     		.ascii	"\000\031"
  18              		.text
  19              		.section	.gnu.lto_.inline.8abfb2c47a8256f7,"",%progbits
  20 0000 789C6362 		.ascii	"x\234cb`b\300\006\334\24043\003\003\277\030#\003\223"
  20      6062C006 
  20      DCA03433 
  20      0303BF18 
  20      230393
  21 0013 C8851E46 		.ascii	"\310\205\036F\006\266\005\362`\325L\334`\031N\016\240"
  21      06B605F2 
  21      60D54CDC 
  21      60194E0E 
  21      A0
  22 0024 04CF8358 		.ascii	"\004\317\203X\2708\013\003\0277HhN$\\\210\221\013D\002"
  22      B8380B03 
  22      17374868 
  22      4E245C88 
  22      910B4402 
  23 0038 000FB806 		.ascii	"\000\017\270\006\321"
  23      D1
  24              		.text
  25              		.section	.gnu.lto_.pureconst.8abfb2c47a8256f7,"",%progbits
  26 0000 789C6362 		.ascii	"x\234cb`b`g\200\000f\006+f+\026+\000\002\367\000\304"
  26      60626067 
  26      80006606 
  26      2B662B16 
  26      2B0002F7 
  27              		.text
  28              		.section	.gnu.lto__port_irq_epilogue.part.0.8abfb2c47a8256f7,"",%progbits
  29 0000 789CAD52 		.ascii	"x\234\255RMHTQ\024>\347\336\367\236\343\344P[72\010"
  29      4D485451 
  29      143EE7DE 
  29      F79EE3E4 
  29      505B3732 
  30 0015 6190F892 		.ascii	"a\220\370\222\026\256\004c\"h1\233\031\205Z\305\370"
  30      16AE0463 
  30      2268319B 
ARM GAS  /tmp/cc9AB7Wh.s 			page 2


  30      19855AC5 
  30      F8
  31 0026 1CF4913A 		.ascii	"\034\364\221:\303\233\031QZx\307\231\305\240E2(\244"
  31      C39B1951 
  31      5A78C799 
  31      C5A04532 
  31      28A4
  32 0038 15683F12 		.ascii	"\025h?\022\266\010\242\037\251ESa\271\321p\027\264h"
  32      B608A21F 
  32      A9455361 
  32      B9D17017 
  32      B468
  33 004a F646E54A 		.ascii	"\366F\345J\222h:\367\276\231\227\272\321E\007\336=\367"
  33      92683AF7 
  33      BE9997BA 
  33      D14507DE 
  33      3DF7
  34 005c DD73BEEF 		.ascii	"\335s\276\357\234\357\334\313\200\301A;O\337\012\007"
  34      9CEFDCCB 
  34      80C1413B 
  34      4FDF0A07 
  35 006c 78451EEB 		.ascii	"xE\036\353\000\215\351\015\332\030\310\224g\214\027"
  35      008DE90D 
  35      DA18C894 
  35      678C17
  36 007b 5A40F835 		.ascii	"Z@\3705\2716p\324\345i\326\247\3256:\242\334\000\302"
  36      B93670D4 
  36      E569D6A7 
  36      D5363AA2 
  36      DC00C2
  37 008e B8C1B8A6 		.ascii	"\270\301\270\246\343\370e\224\254Z3,\012Q,\257\276\330"
  37      E3F86594 
  37      AC5A332C 
  37      0A512CAF 
  37      BED8
  38 00a0 6273A294 		.ascii	"bs\242\224_\024\277+\025D\033\251\203\020\202\205p\211"
  38      5F14BF2B 
  38      15441BA9 
  38      83108285 
  38      7089
  39 00b2 7E30A81C 		.ascii	"~0\250\034\323\366\267\244\260\363\345\347\037vbs3\245"
  39      D3F6B7A4 
  39      B0F3E5E7 
  39      1F766273 
  39      33A5
  40 00c4 FC828785 		.ascii	"\374\202\207\205\243\000\213\245\235\217w\032\305\302"
  40      A3008BA5 
  40      9D8F771A 
  40      C5C2
  41 00d2 C4B4F843 		.ascii	"\304\264\370C8\0339\203\002\036\251f\261\2649y\263q"
  41      381B3983 
  41      021EA966 
  41      B1B43979 
  41      B371
  42 00e4 F21F5463 		.ascii	"\362\037Tcp\343P\350\023&\312\225\312\257\247\365\015"
  42      70E350E8 
  42      1326CA95 
ARM GAS  /tmp/cc9AB7Wh.s 			page 3


  42      CAAFA7F5 
  42      0D
  43 00f5 08315CC4 		.ascii	"\0101\\\304f\322\030\303\007\344y\325k\344\227\310\353"
  43      66D218C3 
  43      07E479D5 
  43      6BE497C8 
  43      EB
  44 0106 60A34E08 		.ascii	"`\243N\010\035\362BL\007\225\034\262nZ\345\024\273\321"
  44      1DF2424C 
  44      07951CB2 
  44      6E5AE514 
  44      BBD1
  45 0118 909EF720 		.ascii	"\220\236\367 S~\003\262\333\357\276\004\252\331.\265"
  45      537E03B2 
  45      DBEFBE04 
  45      AAD92EB5 
  46 0128 07769981 		.ascii	"\007v\231\201\230\037)NeD4\203\\\3362w\257\272\011\356"
  46      981F294E 
  46      65443483 
  46      5CDE3277 
  46      AFBA09EE 
  47 013c E15D71AB 		.ascii	"\341]q\253\313&j\262~T\005a\035&\266\336o]\237Z5b\270"
  47      CB266AB2 
  47      7E540561 
  47      1D26B6DE 
  47      6F5D9F5A 
  48 0153 4CF07E64 		.ascii	"L\360~d*\264\016\271\251\334\233\231\306\332)\247\200"
  48      2AB40EB9 
  48      A9DC9B99 
  48      C6DA29A7 
  48      80
  49 0164 924C022B 		.ascii	"\222L\002+\307]\340\312\347\245\267\314M8\015\313\202"
  49      C75DE0CA 
  49      E7A5B7CC 
  49      4D380DCB 
  49      82
  50 0175 ECAC8D75 		.ascii	"\354\254\215u\267a>+\304\011\033}U\010\257A\240\327"
  50      B7613E2B 
  50      C4091B7D 
  50      5508AF41 
  50      A0D7
  51 0187 ADA96657 		.ascii	"\255\251fWO\351>\227\347{\356\376lS\255\220F\265\000"
  51      4FE93E97 
  51      E77BEEFE 
  51      6C53AD90 
  51      46B500
  52 019a 366062BB 		.ascii	"6`b\273\3705\340\215\307\215*]\010K\007\204=\253\012"
  52      F835E08D 
  52      C78D2A5D 
  52      084B0784 
  52      3DAB0A
  53 01ad F3BBC2E4 		.ascii	"\363\273\302\344\245x\261\227{E\003|\202\334\317\371"
  53      A578B197 
  53      7B45037C 
  53      82DCCFF9 
  54 01bd DCE34DAD 		.ascii	"\334\343M\255VN\277\006\273\242 \333=fUGbc\003\300\032"
  54      564EBF06 
ARM GAS  /tmp/cc9AB7Wh.s 			page 4


  54      BBA220DB 
  54      3D665547 
  54      626303C0 
  55 01d2 E4BF65DB 		.ascii	"\344\277e\333\275,\331\2617[i=\324C\241\205S\367\273"
  55      BD2CD9B1 
  55      375B693D 
  55      D443A185 
  55      53F7BB
  56 01e5 B9D7B3A7 		.ascii	"\271\327\263\247\366M\241\343\260)\270u\334\312b\314"
  56      F64DA1E3 
  56      B029B875 
  56      DCCA62CC 
  57 01f5 C680856C 		.ascii	"\306\200\205l\017\263\3461\377\370\017\314|\017\263"
  57      0FB3E631 
  57      FFF80FCC 
  57      7C0FB3
  58 0204 AE5ED326 		.ascii	"\256^\323&d\313k\017\321\233)\270O\017eP\366\321e\016"
  58      64CB6B0F 
  58      D19B29B8 
  58      4F0F6550 
  58      F6D1650E 
  59 0218 2486E2A6 		.ascii	"$\206\342\246\225\350\0333\373\342#\2465`\367\332\211"
  59      95E81B33 
  59      FBE223A6 
  59      3560F7DA 
  59      89
  60 0229 94997632 		.ascii	"\224\231v2\303WM\332\304G\323f(\034\275\0305\355ak0"
  60      C3574DDA 
  60      C447D366 
  60      281CBD18 
  60      35ED616B 
  61 023e D327739D 		.ascii	"\323's\235\370\025k\350Bf\330j\033\000\303\211\2472"
  61      F8156BE8 
  61      4266D86A 
  61      1B00C389 
  61      A732
  62 0250 83E9CEC3 		.ascii	"\203\351\316\303x\234\264\231L8\351\224y.\022\016\205"
  62      789CB499 
  62      4C38E994 
  62      792E120E 
  62      85
  63 0261 472941F1 		.ascii	"G)A\361\214t\014\265Y\240Y\351\321\244!\227\266\366"
  63      8C740CB5 
  63      59A059E9 
  63      D1A42197 
  63      B6F6
  64 0273 4038120D 		.ascii	"@8\022\015\236<\323\032L\246\222~\340\235\016\004\302"
  64      9E3CD31A 
  64      4CA6927E 
  64      E09D0E04 
  64      C2
  65 0284 D188FC6B 		.ascii	"\321\210\374k\245c?0\007x*\011\177\001\315\014(\177"
  65      A5633F30 
  65      07782A09 
  65      7F01CD0C 
  65      287F
  66              		.text
ARM GAS  /tmp/cc9AB7Wh.s 			page 5


  67              		.section	.gnu.lto_SVC_Handler.8abfb2c47a8256f7,"",%progbits
  68 0000 789C8D51 		.ascii	"x\234\215QMh\323`\030~\337/\351\017\205\241\036E\321"
  68      4D68D360 
  68      187EDF2F 
  68      E90F85A1 
  68      1E45D1
  69 0013 30F0369A 		.ascii	"0\3606\232y\3624\250\014\024\017\271\264\012z\222.\015"
  69      79F234A8 
  69      0C140FB9 
  69      B40A7A92 
  69      2E0D
  70 0025 6B706942 		.ascii	"kpiB\222\226\356\264t)^\234P\312\016\012\023\354\206"
  70      9296EEB4 
  70      74295E9C 
  70      50CA0E0A 
  70      13EC86
  71 0038 0A1EF4A2 		.ascii	"\012\036\364\242\014\021\245 \342\357\012\"x\356N\036"
  71      0C11A520 
  71      E2EF0A22 
  71      78EE4E1E 
  72 0048 44DDCE0E 		.ascii	"D\335\316\016\342\373\345k\2739\304\371\205\344\371"
  72      E2FBE56B 
  72      BB39C4F9 
  72      85E4F9
  73 0057 F23ECFFB 		.ascii	"\362>\317\373|o\2360`\260\177\035\245\273F\345\317\204"
  73      7C6F9E30 
  73      60B07F1D 
  73      A5BB46E5 
  73      CF84
  74 0069 2801B256 		.ascii	"(\001\262V\017\240\221f\210|\003\010\013\014\027\256"
  74      0FA09166 
  74      887C0308 
  74      0B0C17AE 
  75 0079 20974AE3 		.ascii	" \227J\343\320\011\202v\377\365\327>\336^\3566\357\006"
  75      D0098276 
  75      FFF5D73E 
  75      DE5EEE36 
  75      EF06
  76 008b 3B518468 		.ascii	";Q\204h\"\331\346\020t\204\313\364\202J\014L\376\363"
  76      22D9E610 
  76      7484CBF4 
  76      824A0C4C 
  76      FEF3
  77 009d 1CD1DB8D 		.ascii	"\034\321\333\215^\274\303\240\0354\266\242\350\220\211"
  77      5EBCC3A0 
  77      1D34B6A2 
  77      E89089
  78 00ac 1283F3FF 		.ascii	"\022\203\363\377\327\330\177v\375\373\027l\207\301\333"
  78      D7D87F76 
  78      FDFB176C 
  78      87C1DB
  79 00bb 56B34BA7 		.ascii	"V\263K\247\2364Qfp\023\017\352~\314\272\375(z\264\263"
  79      9E345166 
  79      70130FEA 
  79      7ECCBAFD 
  79      287AB4B3 
  80 00cf B9F9108F 		.ascii	"\271\371\020\217d$(\342\032\216\203<\300\004a\2070M"
ARM GAS  /tmp/cc9AB7Wh.s 			page 6


  80      642428E2 
  80      1A8E833C 
  80      C0046187 
  80      304D
  81 00e1 788F9056 		.ascii	"x\217\220V\002\232A\320R\004\017\334\235\326Ez\3628"
  81      029A41D0 
  81      52040FDC 
  81      9DD6457A 
  81      F238
  82 00f3 2E21E328 		.ascii	".!\343(\365\240\261\275\022\256\037\033\211Es\021\037"
  82      F5A0B1BD 
  82      12AE1F1B 
  82      89457311 
  82      1F
  83 0104 60223E96 		.ascii	"`\">\226\364\313\224&\345*\211\314O\300*\336\011n\345"
  83      F4CB9426 
  83      E52A89CC 
  83      4FC02ADE 
  83      096EE5
  84 0117 4C2198C5 		.ascii	"L!\230\305t\254\333\200\305o\257>\274iH\242u\026\245"
  84      74ACDB80 
  84      C56FAF3E 
  84      BC6948A2 
  84      7516A5
  85 012a 98D980F0 		.ascii	"\230\331\200\360F\370s)5\254\312D\304_\247\210\236\037"
  85      46F87329 
  85      35ACCA44 
  85      C45FA788 
  85      9E1F
  86 013c E1AFA5E3 		.ascii	"\341\257\245\343C2A<@\017\026\267W\326^\016G\3323\014"
  86      4332413C 
  86      400F16B7 
  86      57D65E0E 
  86      47DA330C 
  87 0150 D2757FDF 		.ascii	"\322u\177\3370O\006\303$\3050\\7\342\326\367\016\032"
  87      304F06C3 
  87      24C5305C 
  87      37E2D6F7 
  87      0E1A
  88 0162 1B77DE9F 		.ascii	"\033w\336\237\376\273\355\363\177\331\362\201\305\337"
  88      FEBBEDF3 
  88      7FD9F281 
  88      C5DF
  89 0170 18F11F07 		.ascii	"\030\361\037\007|JX\177\202\306\326\352Sy76\2215\362"
  89      7C4A587F 
  89      82C6D6EA 
  89      53793736 
  89      9135F2
  90 0183 8C79C794 		.ascii	"\214y\307\224Z\266-C\325\355\322\274Z2j\252^6gL\333"
  90      5AB62D43 
  90      D5EDD2BC 
  90      5A326AAA 
  90      5E36674C 
  91 0198 537DB75A 		.ascii	"S}\267Z\271\246\322\306\365U\307v}O=\233\327\246\265"
  91      B9A6D2C6 
  91      F555C776 
  91      7D4F3D9B 
ARM GAS  /tmp/cc9AB7Wh.s 			page 7


  91      D7A6B5
  92 01ab 3A0974DB 		.ascii	":\011t\3335\256\326\316XY\035\222\272_w\262\2232\207"
  92      35AED6CE 
  92      58591D92 
  92      BA5F77B2 
  92      933287
  93 01be DC414E46 		.ascii	"\334ANF\335W\247\265\302\205\202jV\364\271j\211k\311"
  93      DD57A7B5 
  93      C285826A 
  93      56F4B96A 
  93      896BC9
  94 01d1 49B7CE55 		.ascii	"I\267\316U+z\266\014I\327\360\252s\376\230\226/(\247"
  94      2B7AB60C 
  94      49D7F0AA 
  94      73FE9896 
  94      2F28A7
  95 01e4 262714C7 		.ascii	"&'\024\307s2 M\2710\246\025\362\374m\202\312\031`.H"
  95      7332204D 
  95      B930A615 
  95      F2FC6D82 
  95      CA19602E 
  96 01f9 9E038779 		.ascii	"\236\003\207yq\246\350\031\216kr\002R\226a\331\356<"
  96      71A6E819 
  96      8E6B7202 
  96      529661D9 
  96      EE3C
  97 020b FC06A953 		.ascii	"\374\006\251S\316\334"
  97      CEDC
  98              		.text
  99              		.section	.gnu.lto__port_irq_epilogue.8abfb2c47a8256f7,"",%progbits
 100 0000 789C8D50 		.ascii	"x\234\215P1H\034A\024}\177f\367<\202\206+\202\215 \327"
 100      31481C41 
 100      147D7F66 
 100      F73C8286 
 100      2B828D20 
 101 0015 A44A70EC 		.ascii	"\244Jp\354\256\010\001\203\020Hq\215\247\220Tr7\267"
 101      AE080183 
 101      1048718D 
 101      A7905472 
 101      37B7
 102 0027 E496646F 		.ascii	"\344\226doe\357N\224\024\316zWX\010\212 \210F$ \004"
 102      65EF4E94 
 102      14CE7A57 
 102      58088A20 
 102      88462420 
 103 003c 44146C73 		.ascii	"D\024lsEH\212\244\321 \330DBH\231\"E\322\24613\263\331"
 103      45488AA4 
 103      D120D844 
 103      42489922 
 103      45D2A631 
 104 0053 E3488AE4 		.ascii	"\343H\212\344\303\316\3773\357\375\267\377}\006\206"
 104      C3CEFF33 
 104      EFFDB7FF 
 104      7D0686
 105 0062 3FE38EFE 		.ascii	"?\343\216\376\316\011x\2563e@l\375\014\210\263\214\361"
 105      CE0978AE 
 105      3365406C 
ARM GAS  /tmp/cc9AB7Wh.s 			page 8


 105      FD0C88B3 
 105      8CF1
 106 0074 8B61A86B 		.ascii	"\213a\250kN\267\0005\310\3115\317\344$9\316\272D\246"
 106      4EB70035 
 106      C8C935CF 
 106      E42439CE 
 106      BA44A6
 107 0087 00618971 		.ascii	"\000a\211q\307\245\245Gd\325\216\331\353/WWG\237\337"
 107      C7A5A547 
 107      64D58ED9 
 107      EB2F5757 
 107      479FDF
 108 009a ED75E990 		.ascii	"\355u\351\220\015r\370\004\307\034:\\t\224Z\317\003"
 108      0D72F804 
 108      C71C3A5C 
 108      74945ACF 
 108      03
 109 00ab D25EA7F5 		.ascii	"\322^\247\365i4f\210\231\314\317\260\374c\345\355\311"
 109      69346688 
 109      99CCCFB0 
 109      FC63E5ED 
 109      C9
 110 00bc 2AEFF1CA 		.ascii	"*\357\361\312\364\202\\\330\277\020b\342fz\236X\030"
 110      F4825CD8 
 110      BF1062E2 
 110      667A9E58 
 110      18
 111 00cd C506EDAA 		.ascii	"\305\006\355\252\255\011\237\254\326C\362\211\345M\325"
 111      AD099FAC 
 111      D643F289 
 111      E54DD5
 112 00dc C3377FE3 		.ascii	"\3037\177\343<\261y\2127\227\237\276\256\215$\232\217"
 112      3CB1798A 
 112      37979FBE 
 112      AE8D249A 
 112      8F
 113 00ed 89DFC281 		.ascii	"\211\337\302\201\352\3506g\007\333:\271F\"\243.\333"
 113      EAE83667 
 113      07DB3AB9 
 113      4622A32E 
 113      DB
 114 00fe EABA55CB 		.ascii	"\352\272U\313\330\256\012\245k:E\373U\373\200\322vG"
 114      D8AE0AA5 
 114      6B3A45FB 
 114      55FB80D2 
 114      7647
 115 0110 2B181A54 		.ascii	"+\030\032TN\203\357\321\371\026\017\3650\013\364\307"
 115      4E83EFD1 
 115      F9160FF5 
 115      300BF4C7 
 116 0120 8C9EE262 		.ascii	"\214\236\342b\230\177@;\233zz\206\237jE\345|\032\220"
 116      987F403B 
 116      9B7A7A86 
 116      9F6A45E5 
 116      7C1A90
 117 0133 8905BDA4 		.ascii	"\211\005\275\244l\312v\320-\374\347>\312\264\257\013"
 117      6CCA76D0 
ARM GAS  /tmp/cc9AB7Wh.s 			page 9


 117      2DFCE73E 
 117      CAB4AF0B 
 118 0143 EB1F7DFE 		.ascii	"\353\037}\376\313\364\222F\373\007p\355\216\317\021"
 118      CBF49246 
 118      FB0770ED 
 118      8ECF11
 119 0152 7F5FFE78 		.ascii	"\177_\376x\343o\3054\246\3650\232h4\356\212Z\030xB\206"
 119      E36FC534 
 119      A6F5309A 
 119      6834EE8A 
 119      5A187842 
 120 0167 D54551F5 		.ascii	"\325EQ\365\346\205\254\371\025?l\210f\324\252?\021\272"
 120      E685ACF9 
 120      153F6C88 
 120      66D4AA3F 
 120      11BA
 121 0179 889A622E 		.ascii	"\210\232b.\214\232\015qo\2528Y\\\320\004\031F\336\354"
 121      8C9A0D71 
 121      6FAA3859 
 121      5CD00419 
 121      46DEEC
 122 018c 7C211893 		.ascii	"|!\030\223\230\370W\267\267\320\024\223\305\322\203"
 122      98F857B7 
 122      B7D01493 
 122      C5D283
 123 019b 92F0EBF2 		.ascii	"\222\360\353\362i\253j\270\272[\006\367[u9VC\256X\232"
 123      69AB6AB8 
 123      BA5B06F7 
 123      5B753956 
 123      43AE589A 
 124 01af CA57CA0D 		.ascii	"\312W\312\015o.\362o\347o\216\203E\030\010\274 \214"
 124      6F2EF26F 
 124      E76F8E83 
 124      451808BC 
 124      208C
 125 01c1 16F10B7B 		.ascii	"\026\361\013{F\232\212"
 125      469A8A
 126              		.text
 127              		.section	.gnu.lto_.symbol_nodes.8abfb2c47a8256f7,"",%progbits
 128 0000 789C45CA 		.ascii	"x\234E\312\273\015\2000\020\004\321\335;\273\025j\243"
 128      BB0D8030 
 128      1004D1DD 
 128      3BBB156A 
 128      A3
 129 0011 8B35440E 		.ascii	"\2135D\016i\000r\276\011%\220\323\003\215 \002,\230"
 129      690072BE 
 129      092590D3 
 129      038D2002 
 129      2C98
 130 0023 EC496330 		.ascii	"\354Ic0\324(\331N\001\335\011H}&W\212/SCn\224}\262\211"
 130      D428D94E 
 130      01DD0948 
 130      7D26578A 
 130      2F53436E 
 131 003b F2B20E99 		.ascii	"\362\262\016\2316S\341'\027*\2267\321\021q\\7=\000\355"
 131      3653E127 
 131      172A9637 
ARM GAS  /tmp/cc9AB7Wh.s 			page 10


 131      D111715C 
 131      373D00ED 
 132 004f 58E10170 		.ascii	"X\341\001p\343\036\273"
 132      E31EBB
 133              		.text
 134              		.section	.gnu.lto_.refs.8abfb2c47a8256f7,"",%progbits
 135 0000 789C6362 		.ascii	"x\234cb`b`g\200\000&\006&F&&\006\000\000\352\000\025"
 135      60626067 
 135      80002606 
 135      26462626 
 135      060000EA 
 136              		.text
 137              		.section	.gnu.lto_.decls.8abfb2c47a8256f7,"",%progbits
 138 0000 789CAD58 		.ascii	"x\234\255Xkl\024U\024\276wv\373X\333T@!\355/\026\025"
 138      6B6C1455 
 138      14BE7776 
 138      FB58DB54 
 138      4021ED2F 
 139 0016 633074CB 		.ascii	"c0t\313#\021~\010-[\260\375Qmv\2411\372c\030v\007vc"
 139      23117E08 
 139      2D5BB0FD 
 139      516D76A1 
 139      31FA6318 
 140 002e BB5B66A7 		.ascii	"\273[f\247X\376MY(\210D\027(\002\001\351\362\022*Zy"
 140      58FE4D59 
 140      28884417 
 140      280201E9 
 140      F2122A5A 
 141 0043 1709346B 		.ascii	"\027\0114k\023\244j\002\304\224w\201\015\010!JLm\200"
 141      13A46A02 
 141      C4947781 
 141      0D08214A 
 141      4C6D80
 142 0056 5428AE67 		.ascii	"T(\256g\356\316\354\316Lg\332\035\364&\347\364\356\316"
 142      EECEECCE 
 142      4C67DA1D 
 142      F426E7F4 
 142      EECE
 143 0068 B9DFF9CE 		.ascii	"\271\337\371\316\271\347\236;[\012Q\250\024#\224\200"
 143      B9E79E3B 
 143      5B0A51A8 
 143      14239480 
 144 0078 F1F75884 		.ascii	"\361\367X\204\356P\010Y\021B\263Pzd\203\354\004\371"
 144      EE500859 
 144      1142B350 
 144      7A6483EC 
 144      04F9
 145 008a 0AA40DE4 		.ascii	"\012\244\015\344\000H;\310!4t\210v\005 \035\322\337"
 145      00483BC8 
 145      21347488 
 145      7605201D 
 145      D2DF
 146 009c 7C90D320 		.ascii	"|\220\323 9 G@z@\272@:Af\203\\\005\271\016r\030\244"
 146      39204740 
 146      7A40BA40 
 146      3A416683 
 146      5C05B90E 
ARM GAS  /tmp/cc9AB7Wh.s 			page 11


 147 00b3 1704DCA3 		.ascii	"\027\004\334\243_A.\240$\217\235\222\037\331\267v\210"
 147      5F412EA0 
 147      248F9D92 
 147      1FD9B776 
 147      88
 148 00c4 5C72257C 		.ascii	"\\r%|\245\277\016\311\227\210\177C\262\305\222\275v"
 148      A5BF0EC9 
 148      97887F43 
 148      B2C592BD 
 148      76
 149 00d5 88B1D824 		.ascii	"\210\261\330$\214\253\322Zq\315-\2208\310+\260\360U"
 149      8CABD25A 
 149      71CD2D90 
 149      38C82BB0 
 149      F055
 150 00e7 905D12C6 		.ascii	"\220]\022\306}\211g\273\304O;\306\243\035B,\036\277"
 150      7D8967BB 
 150      C44F3BC6 
 150      A31D422C 
 150      1EBF
 151 00f9 FBF460D1 		.ascii	"\373\364`\321\232\350\212X\"1\033\215C\233\004\030\321"
 151      9AE88A58 
 151      22311B8D 
 151      439B0418 
 151      D1
 152 010a 6641C03C 		.ascii	"fA\300<\203g\215E\357c\006\027\330\220\235L\362m$X\204"
 152      83678D45 
 152      EF630617 
 152      D8909D4C 
 152      F26D2458 
 153 011f 18BC0B8F 		.ascii	"\030\274\013\217\223f\013,I8\262A\223P\033\254\217\010"
 153      93660B2C 
 153      4938B241 
 153      93501BAC 
 153      8F08
 154 0131 425731D6 		.ascii	"BW1\326q\211\320\353h/y\276_\260\020|\021a'\036\257"
 154      7189D0EB 
 154      682F79BE 
 154      5FB0107C 
 154      1161271E 
 155 0146 3461F06E 		.ascii	"4a\360nLi\211\306#\361\215g\037\254\302\353\303\321"
 155      4C6989C6 
 155      23F18D67 
 155      1FACC2EB 
 155      C3D1
 156 0158 6EA12F91 		.ascii	"n\241/\221x\321\004\327}:\\[1\206\317{\360$\244v\275"
 156      78D104D7 
 156      7D3A5C5B 
 156      3186CF7B 
 156      F024A476 
 157 016d 5FCF75EC 		.ascii	"_\317u\354\350\345u\002\2164\305\023\211\361I8\012\035"
 157      E8E57502 
 157      8E34C513 
 157      89F14938 
 157      0A1D
 158 017f 3300F87A 		.ascii	"3\000\370z(@4\036?\323\372\013\0266\010\203\211\204"
 158      2840341E 
ARM GAS  /tmp/cc9AB7Wh.s 			page 12


 158      3FD3FA0B 
 158      16360883 
 158      8984
 159 0191 05C9083F 		.ascii	"\005\311\010?\015A \311\021\324\3119\240M\3167z\016"
 159      0D4120C9 
 159      11D4C939 
 159      A04DCE37 
 159      7A0E
 160 01a3 6237CFE6 		.ascii	"b7\317\346\023~\255\2452\374\305\214\340\333\265\360"
 160      137EADA5 
 160      32FCC58C 
 160      E0DBB5F0 
 161 01b3 DFE9E6FE 		.ascii	"\337\351\346\376\320\347\347\233\215r\237\213V\013\302"
 161      D0E7E79B 
 161      8D729F8B 
 161      560BC2
 162 01c2 0A21BE4A 		.ascii	"\012!\276Jh\302K\221\274\013\271\362.\210u0\021\355"
 162      68C24B91 
 162      BC0BB9F2 
 162      2E887530 
 162      11ED
 163 01d4 499605C5 		.ascii	"I\226\005\305\340#8\027\330}I\351\327\007J\032\210C"
 163      E0233817 
 163      D87D49E9 
 163      D7074A1A 
 163      8843
 164 01e6 5C9F9CCB 		.ascii	"\\\237\234\3133\214\014\367\370\260\316\036\357\246"
 164      338C0CF7 
 164      F8B0CE1E 
 164      EFA6
 165 01f4 F4B7E8B8 		.ascii	"\364\267\350\270:D\033Z#\362\207`*\272\013\364=\020"
 165      3A441B5A 
 165      23F28760 
 165      2ABA0BF4 
 165      3D10
 166 0206 FE91F8D3 		.ascii	"\376\221\370\323\215g~\300+ f\006w`\033x\270\255\361"
 166      8D677EC0 
 166      2B206606 
 166      77601B78 
 166      B8ADF1
 167 0219 903954C7 		.ascii	"\2209T\307\346S3\005!\227\301'\011P\324\242\006bp\216"
 167      E6533305 
 167      2197C127 
 167      0950D4A2 
 167      0662708E 
 168 022d 4D4D1A3E 		.ascii	"MM\032>\313\006\"\032y,M\304\246\370\"2k\236\207\326"
 168      CB06221A 
 168      792C4DC4 
 168      A6F82232 
 168      6B9E87D6 
 169 0241 A6B98E41 		.ascii	"\246\271\216A\353\305\015\265+X\013\224L\333N\262y\200"
 169      EBC50DB5 
 169      2B580B94 
 169      4CDB4EB2 
 169      7980
 170 0253 50ECC463 		.ascii	"P\354\304c$\340\344\236\3067\256\276\034\306M$'\342"
 170      24E0E49E 
ARM GAS  /tmp/cc9AB7Wh.s 			page 13


 170      C637AEBE 
 170      1CC64D24 
 170      27E2
 171 0265 33A49371 		.ascii	"3\244\223qiL@Qp\030\273u\256\245H\210va\225\177\303"
 171      694C4051 
 171      7018BB75 
 171      AEA54888 
 171      7661957F 
 172 027a F32BA5EB 		.ascii	"\363+\245\353\326\266\263\375\222\027q%\205\376\032"
 172      D6B6B3FD 
 172      92177125 
 172      85FE1A
 173 0289 92B0D979 		.ascii	"\222\260\331y\352\014\300g\205\001\205\236\244\370\353"
 173      EA0CC067 
 173      8501859E 
 173      A4F8EB
 174 0298 F991A628 		.ascii	"\371\221\246(Uy\00565o\010\264w#\336\020\026\272Kd\016"
 174      55790536 
 174      356F08B4 
 174      7723DE10 
 174      16BA4B64 
 175 02ad CF4C23DA 		.ascii	"\317L#\332U\231\350?\227\037ad0\301\232\001X\256!\275"
 175      5599E83F 
 175      971F6164 
 175      30C19A01 
 175      58AE21BD 
 176 02c1 D8432558 		.ascii	"\330C%X\3304\230\232\331c%Xs&`\243\214\231\015(\301"
 176      D834989A 
 176      D9632558 
 176      732660A3 
 176      8C990D28 
 177 02d6 D69A0653 		.ascii	"\326\232\006S3{\242\004[\237\011X\2411\263A%X\213i0"
 177      337BA204 
 177      5B9F0958 
 177      A131B341 
 177      25588B69 
 178 02eb BBA6C08D 		.ascii	"\273\246\300\215z\323i\234*\315\321(B\316\331\226\002"
 178      7AD3699C 
 178      2ACDD128 
 178      42CED996 
 178      02
 179 02fc A955C4F7 		.ascii	"\251U\304\367\012\205\205#7\315\213\244Kl\265\0326M"
 179      0A858523 
 179      37CD8BA4 
 179      4B6CB51A 
 179      364D
 180 030e D140E690 		.ascii	"\321@\346\220\234\313\263D\272k\026\312\360\026iU\017"
 180      9CCBB344 
 180      BA6B16CA 
 180      F0166955 
 180      0F
 181 031f 1E4D6684 		.ascii	"\036Mf\204\214\220:\213`a\024\313\025\205\237|[z\"w"
 181      8C903A8B 
 181      606114CB 
 181      15859F7C 
 181      5B7A2277 
 182 0333 5429C068 		.ascii	"T)\300h\351\226\202\244{\011h\224\332\220\301WM\273"
ARM GAS  /tmp/cc9AB7Wh.s 			page 14


 182      E99682A4 
 182      7B096894 
 182      DA90C157 
 182      4DBB
 183 0345 BE66E05A 		.ascii	"\276f\340Z\316\211\246\241\2107\202\021\324\365\364"
 183      CE89A6A1 
 183      88378211 
 183      D4F5F4
 184 0354 8E6856ED 		.ascii	"\216hV\355\033fU\257\336>\252\242\234!/\311\221\226"
 184      1B6655AF 
 184      DE3EAAA2 
 184      9C212FC9 
 184      9196
 185 0366 DC301DE5 		.ascii	"\3340\035\345M\203(\263%\317\004)<\354\025\303\340\023"
 185      4D8328B3 
 185      25CF0429 
 185      3CEC15C3 
 185      E013
 186 0378 78624677 		.ascii	"xbFw\200N\333\217\247jp]\252\010#\361g\267\007>\014"
 186      804EDB8F 
 186      A76A705D 
 186      AA0823F1 
 186      67B7073E 
 187 038d 93F61B87 		.ascii	"\223\366\033\207\003B\241^\253\272\375\216\014$\322"
 187      0342A15E 
 187      ABBAFD8E 
 187      0C24D2
 188 039c BAA3B93C 		.ascii	"\272\243\271<b\207.\345\013\326\344\367#\\\034-\341"
 188      62872EE5 
 188      0BD6E4F7 
 188      235C1C2D 
 188      E1
 189 03ad D8B14BC9 		.ascii	"\330\261K\311\213#\225\201\330\377\220\001\012\335%"
 189      8B239581 
 189      D8FF9001 
 189      0ADD25
 190 03bc A1DC79BE 		.ascii	"\241\334y\276{ae8v\374\022i\"\267\310\011\375\3034\230"
 190      7B616538 
 190      76FC1269 
 190      22B7C809 
 190      FDC33498 
 191 03d0 5D057642 		.ascii	"]\005vB\011\326\227\011\230\321\225\000`'\225`\217L"
 191      09D69709 
 191      98D19500 
 191      60279560 
 191      8F4C
 192 03e2 83A9999D 		.ascii	"\203\251\231\235R\202=\315\004\314\350J\000\260N%X\302"
 192      52823DCD 
 192      04CCE84A 
 192      00B04E25 
 192      58C2
 193 03f4 34989259 		.ascii	"4\230\222YS\354B\315\301\205\232\276\032&}uK\272:\206"
 193      53EC42CD 
 193      C1859ABE 
 193      1A267D75 
 193      4BBA3A86 
 194 0408 3656F16D 		.ascii	"6V\361m\356\3337\341\025L\321\210\215\0260\370\021)"
ARM GAS  /tmp/cc9AB7Wh.s 			page 15


 194      EEDB37E1 
 194      154CD188 
 194      8D1630F8 
 194      1129
 195 041a 27AC2EA7 		.ascii	"'\254.\247T\233\225\272,\334\273Y\272\357\203\031\220"
 195      549B95BA 
 195      2CDCBB59 
 195      BAEF8319 
 195      90
 196 042b E9D8BC63 		.ascii	"\351\330\274c\006y\037\034 9\3714K\373z\2035\357\203"
 196      06791F1C 
 196      2039F934 
 196      4BFB7A83 
 196      35EF83
 197 043e 23703163 		.ascii	"#p1c+\321Z(\323\312'\313\224-\356q\272\305i\254\030"
 197      2BD15A28 
 197      D3CA27CB 
 197      942DEE71 
 197      BAC569AC 
 198 0453 FCD4748B 		.ascii	"\374\324t\213\0334hqy*\322\262\025dcS\226\246BT$F\270"
 198      1B346871 
 198      792AD2B2 
 198      15646353 
 198      96A64254 
 199 046a E75786A1 		.ascii	"\347W\206\241{u\177\320vX\020>\311\226kn\253\026Q\257"
 199      7B757FD0 
 199      7658103E 
 199      C9966B6E 
 199      AB1651AF 
 200 047e E6ECC6A7 		.ascii	"\346\354\306\247\241GY\300\255\231\200\275a|\032.)\301"
 200      A14759C0 
 200      AD9980BD 
 200      617C1A2E 
 200      29C1
 201 0490 F6980653 		.ascii	"\366\230\006S3\273\242\004k\313\004\254\304\230\331"
 201      33BBA204 
 201      6BCB04AC 
 201      C498D9
 202 049f 352558BB 		.ascii	"5%X\273i05\263^%\330\321L\300f\0303\273\251\004\373"
 202      693035B3 
 202      5E25D8D1 
 202      4CC06618 
 202      33BBA904 
 203 04b4 DE349882 		.ascii	"\3364\230\202YKS\254\257&\302\244^\\\304\342\275\227"
 203      594B53AC 
 203      AF26C2A4 
 203      5E5CC4E2 
 203      BD97
 204 04c6 AEF75275 		.ascii	"\256\367RuoT\231u\030\2321\3703j\2644\273\246<\272\212"
 204      6F549975 
 204      189A31F8 
 204      336AB434 
 204      BBA63CBA 
 205 04db 8F14EAD4 		.ascii	"\217\024\352\324\362V\241H\323R\203$\300\215\330\237"
 205      F256A148 
 205      D3528324 
 205      C08DD89F 
ARM GAS  /tmp/cc9AB7Wh.s 			page 16


 206 04eb 4CC23D92 		.ascii	"L\302=\222\204\256L\222Pa\014\366P\011\366\243i0uF\037"
 206      84AE4C92 
 206      50610CF6 
 206      5009F6A3 
 206      69307546 
 207 0500 A7336AD7 		.ascii	"\2473j\327$T\300\352\236\2564\35306c\360\027\224\331"
 207      2454C0EA 
 207      9EAE34EB 
 207      303663F0 
 207      1794D9
 208 0513 46B399D2 		.ascii	"F\263\231\322o4\226\364~(\254 \354\237\265a\253YH\323"
 208      6F3496F4 
 208      7E28AC20 
 208      EC9FB561 
 208      AB5948D3 
 209 0527 6AA32436 		.ascii	"j\243$6\305\006\214\343\216\246\240^\036.n\255\031\203"
 209      C5068CE3 
 209      8EA6A05E 
 209      1E2E6EAD 
 209      1983
 210 0539 B7998E7B 		.ascii	"\267\231\216{\273A\334VU\334\333\323q\237\327\306\255"
 210      BB41DC56 
 210      55DCDBD3 
 210      719FD7C6 
 210      AD
 211 054a 66214D17 		.ascii	"f!M\027\032\304\015/rOj\304\332\021\231R\250'#\260z"
 211      1AC40D2F 
 211      724F6AC4 
 211      DA119952 
 211      A82723B0 
 212 055f 83E281B3 		.ascii	"\203\342\201\263=\250<\33373\251\3045X\207\232\336P"
 212      3DA83CDB 
 212      3733A9C4 
 212      3558879A 
 212      DE50
 213 0571 BE8332F8 		.ascii	"\276\2032\3707r\253\337\305\023@\337'\372w\242\037\020"
 213      3772ABDF 
 213      C51340DF 
 213      27FA77A2 
 213      1F10
 214 0583 FD27D17D 		.ascii	"\375'\321}D\367\023\375\017\321\002%\352\025D\257$\272"
 214      44F713FD 
 214      0FD10225 
 214      EA1544AF 
 214      24BA
 215 0595 99E83544 		.ascii	"\231\3505D\257%z\035\321\021\2427\020\335B\364V\242"
 215      AF257A1D 
 215      D111A237 
 215      10DD42F4 
 215      56A2
 216 05a7 77101D05 		.ascii	"w\020\035\005\235\032\232\237!q\203x\311\277^)\243\037"
 216      9D1A9A9F 
 216      21718378 
 216      C9BF5E29 
 216      A31F
 217 05b9 2FBB86F9 		.ascii	"/\273\206\371\361\262;\275\012\275\355\360\005\353X"
 217      F1B23BBD 
ARM GAS  /tmp/cc9AB7Wh.s 			page 17


 217      0ABDEDF0 
 217      05EB58
 218 05c8 8727E85D 		.ascii	"\207'\350]\356\360\262\313\034\036\237\177\221?\030"
 218      EEF0B2CB 
 218      1C1E9F7F 
 218      913F18
 219 05d7 72F05C43 		.ascii	"r\360\\C\340#\007L8\336Q\037\344\370\220\243\314U\345"
 219      E023074C 
 219      38DE511F 
 219      E4F890A3 
 219      CC55E5
 220 05ea AC6A0403 		.ascii	"\254j\004\003O\220c\351eo\325\025{P\021->\243\375\334"
 220      4F9063E9 
 220      656FD515 
 220      7B50112D 
 220      3EA3FDDC 
 221 05fe 529AADF7 		.ascii	"R\232\255\367\327\006\2274\260\305\365\014\307\027\227"
 221      D7069734 
 221      B0C5F50C 
 221      C71797
 222 060d 64BFF3EE 		.ascii	"d\277\363\356\002\273\363?\301\373\320\330$|\350c?\357"
 222      02BBF33F 
 222      C1FBD0D8 
 222      247CE863 
 222      3FEF
 223 061f F1D18BB9 		.ascii	"\361\321\213\271`\035\355\017q/%\277e\033\375|\352\273"
 223      601DED0F 
 223      712F25BF 
 223      651BFD7C 
 223      EABB
 224 0631 3C778D93 		.ascii	"<w\215\223\256`\002\336Z\226\0333\224\324\364\014h\370"
 224      AE6002DE 
 224      5A961B33 
 224      94D4F40C 
 224      68F8
 225 0643 039EDA06 		.ascii	"\003\236\332\006/\030\371B\036\237\027\274g\321s\202"
 225      2F18F942 
 225      1E9F17BC 
 225      67D17382 
 226 0653 C1DA228F 		.ascii	"\301\332\"\217\317\355\361U\206\2529\226\255\253\347"
 226      CFEDF155 
 226      86AA3996 
 226      ADABE7
 227 0662 FDC1808B 		.ascii	"\375\301\200\213]\332\340\347X\357k\216\206\020\347"
 227      5DDAE0E7 
 227      58EF6B8E 
 227      8610E7
 228 0671 60B8BAC9 		.ascii	"`\270\272\311\201`\200\235\3142\213\374)\220\020\357"
 228      8160809D 
 228      CC328BFC 
 228      299010EF 
 229 0681 F5077800 		.ascii	"\365\007x\000\311m\200\277\323\246\322\374\364a\254"
 229      C96D80BF 
 229      D3A6D2FC 
 229      F461AC
 230 0690 EB182014 		.ascii	"\353\030 \024`\035\264\227]\3144\324\3624\277\274\236"
 230      601DB497 
ARM GAS  /tmp/cc9AB7Wh.s 			page 18


 230      5DCC34D4 
 230      F234BFBC 
 230      9E
 231 06a1 0DC1EA17 		.ascii	"\015\301\352\027hZ^\237'\005\315{\370\306\231\317\227"
 231      685A5E9F 
 231      2705CD7B 
 231      F8C699CF 
 231      97
 232 06b2 55910EC7 		.ascii	"U\221\016\307.\001\0164Oq%\0247\205\342\246R\3344\013"
 232      2E010E34 
 232      4F712514 
 232      3785E2A6 
 232      52DC340B 
 233 06c6 37656A76 		.ascii	"7ejv-G\363>/U\357\2616\326\2078\253\307\307p#n\036\260"
 233      2D47F33E 
 233      2F55EFB1 
 233      36D68738 
 233      ABC7C770 
 234 06de 7138ABDC 		.ascii	"q8\253\334\225\356t\362\304\315\363\324M\023]\271\235"
 234      95EE74F2 
 234      C4CDF3D4 
 234      4D135DB9 
 234      9D
 235 06ef 73E8F910 		.ascii	"s\350\371\020H\226\263zAe\271\265\322\351vYk\346\277"
 235      4896B37A 
 235      4165B9B5 
 235      D2E97659 
 235      6BE6BF
 236 0702 E7CA2AAB 		.ascii	"\347\312*\253t9]\0267\210\323\351\312\021\003\234A\363"
 236      74395D16 
 236      3788D3E9 
 236      CA11039C 
 236      41F3
 237 0714 B664A830 		.ascii	"\266d\2500\263\270+\252\263\334\025\242\271s\036\250"
 237      B3B82BAA 
 237      B3DC15A2 
 237      B9731EA8 
 238 0724 0A519583 		.ascii	"\012Q\225\203\312\252\252\232W\346\262\316\021U\031"
 238      CAAAAA9A 
 238      57E6B2CE 
 238      115519
 239 0733 7CB654CF 		.ascii	"|\266T\317sY\312A\312\312]Vx\346\262V\272\313\\6\327"
 239      7359CA41 
 239      CACA5D56 
 239      78E6B256 
 239      BACB5C36 
 240 0748 5CF75C57 		.ascii	"\\\367\\W\315\334\362\022p\\\346t\375\013hb\361\272"
 240      CDDCF212 
 240      705CE674 
 240      FD0B6862 
 240      F1BA
 241              		.text
 242              		.section	.gnu.lto_.symtab.8abfb2c47a8256f7,"",%progbits
 243 0000 5356435F 		.ascii	"SVC_Handler\000\000\000\000\000\000\000\000\000\000"
 243      48616E64 
 243      6C657200 
 243      00000000 
ARM GAS  /tmp/cc9AB7Wh.s 			page 19


 243      00000000 
 244 0015 0000AB00 		.ascii	"\000\000\253\000\000\000_port_irq_epilogue\000\000\000"
 244      00005F70 
 244      6F72745F 
 244      6972715F 
 244      6570696C 
 245 0030 00000000 		.ascii	"\000\000\000\000\000\000\000\000\000\256\000\000\000"
 245      00000000 
 245      00AE0000 
 245      00
 246 003d 5F706F72 		.ascii	"_port_switch_from_isr\000\000\002\000\000\000\000\000"
 246      745F7377 
 246      69746368 
 246      5F66726F 
 246      6D5F6973 
 247 005a 00000000 		.ascii	"\000\000\000\000\246\000\000\000_port_exit_from_isr"
 247      A6000000 
 247      5F706F72 
 247      745F6578 
 247      69745F66 
 248 0075 00000200 		.ascii	"\000\000\002\000\000\000\000\000\000\000\000\000\251"
 248      00000000 
 248      00000000 
 248      A9
 249 0082 00000063 		.ascii	"\000\000\000chSchIsPreemptionRequired\000\000\002\000"
 249      68536368 
 249      49735072 
 249      65656D70 
 249      74696F6E 
 250 00a2 00000000 		.ascii	"\000\000\000\000\000\000\000\000\261\000\000\000"
 250      00000000 
 250      B1000000 
 251              		.text
 252              		.section	.gnu.lto_.opts,"",%progbits
 253 0000 272D6D63 		.ascii	"'-mcpu=cortex-m3' '-mno-thumb-interwork' '-mthumb' "
 253      70753D63 
 253      6F727465 
 253      782D6D33 
 253      2720272D 
 254 0033 272D4F32 		.ascii	"'-O2' '-fomit-frame-pointer' '-falign-functions=16'"
 254      2720272D 
 254      666F6D69 
 254      742D6672 
 254      616D652D 
 255 0066 20272D66 		.ascii	" '-ffunction-sections' '-fdata-sections' '-fno-comm"
 255      66756E63 
 255      74696F6E 
 255      2D736563 
 255      74696F6E 
 256 0099 6F6E2720 		.ascii	"on' '-flto'\000"
 256      272D666C 
 256      746F2700 
 257              		.text
 258              		.section	.text.SVC_Handler,"ax",%progbits
 259              		.align	2
 260              		.p2align 4,,15
 261              		.global	SVC_Handler
ARM GAS  /tmp/cc9AB7Wh.s 			page 20


 262              		.thumb
 263              		.thumb_func
 264              		.type	SVC_Handler, %function
 265              	SVC_Handler:
 266              		@ args = 0, pretend = 0, frame = 0
 267              		@ frame_needed = 0, uses_anonymous_args = 0
 268              		@ link register save eliminated.
 269              	@ 428 "/home/cody/dev/chibios/trunk/os/ext/CMSIS/include/core_cmFunc.h" 1
 270 0000 EFF30983 		MRS r3, psp
 271              	
 272              	@ 0 "" 2
 273              		.thumb
 274 0004 2033     		adds	r3, r3, #32
 275              	@ 441 "/home/cody/dev/chibios/trunk/os/ext/CMSIS/include/core_cmFunc.h" 1
 276 0006 83F30988 		MSR psp, r3
 277              	
 278              	@ 0 "" 2
 279              		.thumb
 280 000a 0023     		movs	r3, #0
 281              	@ 546 "/home/cody/dev/chibios/trunk/os/ext/CMSIS/include/core_cmFunc.h" 1
 282 000c 83F31188 		MSR basepri, r3
 283              	@ 0 "" 2
 284              		.thumb
 285 0010 7047     		bx	lr
 286              		.size	SVC_Handler, .-SVC_Handler
 287 0012 00BFAFF3 		.section	.text._port_irq_epilogue,"ax",%progbits
 287      0080AFF3 
 287      0080AFF3 
 287      0080
 288              		.align	2
 289              		.p2align 4,,15
 290              		.global	_port_irq_epilogue
 291              		.thumb
 292              		.thumb_func
 293              		.type	_port_irq_epilogue, %function
 294              	_port_irq_epilogue:
 295              		@ args = 0, pretend = 0, frame = 0
 296              		@ frame_needed = 0, uses_anonymous_args = 0
 297 0000 10B5     		push	{r4, lr}
 298 0002 2023     		movs	r3, #32
 299              	@ 546 "/home/cody/dev/chibios/trunk/os/ext/CMSIS/include/core_cmFunc.h" 1
 300 0004 83F31188 		MSR basepri, r3
 301              	@ 0 "" 2
 302              		.thumb
 303 0008 0E4B     		ldr	r3, .L8
 304 000a 5B68     		ldr	r3, [r3, #4]
 305 000c 13F40063 		ands	r3, r3, #2048
 306 0010 02D1     		bne	.L7
 307              	@ 546 "/home/cody/dev/chibios/trunk/os/ext/CMSIS/include/core_cmFunc.h" 1
 308 0012 83F31188 		MSR basepri, r3
 309              	@ 0 "" 2
 310              		.thumb
 311 0016 10BD     		pop	{r4, pc}
 312              	.L7:
 313              	@ 428 "/home/cody/dev/chibios/trunk/os/ext/CMSIS/include/core_cmFunc.h" 1
 314 0018 EFF30984 		MRS r4, psp
 315              	
ARM GAS  /tmp/cc9AB7Wh.s 			page 21


 316              	@ 0 "" 2
 317              		.thumb
 318 001c 4FF08073 		mov	r3, #16777216
 319 0020 44F8043C 		str	r3, [r4, #-4]
 320 0024 A4F12003 		sub	r3, r4, #32
 321              	@ 441 "/home/cody/dev/chibios/trunk/os/ext/CMSIS/include/core_cmFunc.h" 1
 322 0028 83F30988 		MSR psp, r3
 323              	
 324              	@ 0 "" 2
 325              		.thumb
 326 002c FFF7FEFF 		bl	chSchIsPreemptionRequired
 327 0030 18B1     		cbz	r0, .L4
 328 0032 054B     		ldr	r3, .L8+4
 329 0034 44F8083C 		str	r3, [r4, #-8]
 330 0038 10BD     		pop	{r4, pc}
 331              	.L4:
 332 003a 044B     		ldr	r3, .L8+8
 333 003c 44F8083C 		str	r3, [r4, #-8]
 334 0040 10BD     		pop	{r4, pc}
 335              	.L9:
 336 0042 00BF     		.align	2
 337              	.L8:
 338 0044 00ED00E0 		.word	-536810240
 339 0048 00000000 		.word	_port_switch_from_isr
 340 004c 00000000 		.word	_port_exit_from_isr
 341              		.size	_port_irq_epilogue, .-_port_irq_epilogue
 342              		.comm	__gnu_lto_v1,1,1
 343              		.ident	"GCC: (GNU Tools for ARM Embedded Processors) 4.8.4 20140526 (release) [ARM/embedded-4_8-br
ARM GAS  /tmp/cc9AB7Wh.s 			page 22


DEFINED SYMBOLS
                            *ABS*:0000000000000000 chcore_v7m.c
     /tmp/cc9AB7Wh.s:259    .text.SVC_Handler:0000000000000000 $t
     /tmp/cc9AB7Wh.s:265    .text.SVC_Handler:0000000000000000 SVC_Handler
     /tmp/cc9AB7Wh.s:288    .text._port_irq_epilogue:0000000000000000 $t
     /tmp/cc9AB7Wh.s:294    .text._port_irq_epilogue:0000000000000000 _port_irq_epilogue
     /tmp/cc9AB7Wh.s:338    .text._port_irq_epilogue:0000000000000044 $d
                            *COM*:0000000000000001 __gnu_lto_v1

UNDEFINED SYMBOLS
chSchIsPreemptionRequired
_port_switch_from_isr
_port_exit_from_isr
