ARM GAS  /tmp/ccuZNpf7.s 			page 1


   1              		.syntax unified
   2              		.cpu cortex-m3
   3              		.fpu softvfp
   4              		.eabi_attribute 20, 1
   5              		.eabi_attribute 21, 1
   6              		.eabi_attribute 23, 3
   7              		.eabi_attribute 24, 1
   8              		.eabi_attribute 25, 1
   9              		.eabi_attribute 26, 1
  10              		.eabi_attribute 30, 2
  11              		.eabi_attribute 34, 1
  12              		.eabi_attribute 18, 4
  13              		.thumb
  14              		.file	"chdynamic.c"
  15              		.section	.gnu.lto_.jmpfuncs.4fbfdca0df2cf782,"",%progbits
  16 0000 789C758C 		.ascii	"x\234u\214\313\015\2000\014\305\342\327rf\204\256\305"
  16      CB0D8030 
  16      0CC5E2D7 
  16      726684AE 
  16      C5
  17 0011 0A2CD059 		.ascii	"\012,\320Y\030\2211x\375 \201\004\2718\211,+\024_sL"
  17      18913178 
  17      FD208104 
  17      B938892C 
  17      2B145F73 
  18 0026 2E8185E4 		.ascii	".\201\205\344\255F\200\300\360\243\310\327\311\306\216"
  18      AD4680C0 
  18      F0A3C8D7 
  18      C9C68E
  19 0035 6F35D2F5 		.ascii	"o5\322\365\346R;4\220\006\262\241\036\342v\362\372\250"
  19      E6523B34 
  19      9006B2A1 
  19      1EE276F2 
  19      FAA8
  20 0047 E855F9E9 		.ascii	"\350U\371\3510\003q\001h\027\013#"
  20      30037101 
  20      68170B23 
  21              		.text
  22              		.section	.gnu.lto_.inline.4fbfdca0df2cf782,"",%progbits
  23 0000 789C6362 		.ascii	"x\234cb`b\300\006\336BiV\006\006\036\021Ff\006F\006"
  23      6062C006 
  23      DE426956 
  23      06061E11 
  23      46660646 
  24 0015 06E6058C 		.ascii	"\006\346\005\214`\252\001J\261p\260v\2503\260w\2503"
  24      60AA014A 
  24      B170B076 
  24      A833B077 
  24      A833
  25 0027 3130BE60 		.ascii	"10\276`g\201\220 \202\003\314\344\000\021\002`\246\000"
  25      67819020 
  25      8203CCE4 
  25      00110260 
  25      A600
  26 0039 C824661E 		.ascii	"\310$f\036\006\006\246\011~\023\374\030\0318\330\031"
  26      0606A609 
  26      7E13FC18 
ARM GAS  /tmp/ccuZNpf7.s 			page 2


  26      1938D819 
  27 0049 1998380E 		.ascii	"\031\2308\016\3301p|\320\003[\317\304 \307\007\024R"
  27      D831707C 
  27      D0035BCF 
  27      C420C707 
  27      1452
  28 005b 5FD1C6C8 		.ascii	"_\321\306\310\300;\307\034\"\306\315\300\3008\301\017"
  28      C03BC71C 
  28      22C6CDC0 
  28      C038C10F 
  29 006b 4A313388 		.ascii	"J13\210\351\003Up\375\361f`[ \317\204d \003\310xV\220"
  29      E9035570 
  29      FDF16660 
  29      5B20CF84 
  29      642003C8 
  30 0082 C110C8C2 		.ascii	"\301\020\310\302\013\265\207\205A\034\244\205wU\022"
  30      0BB58785 
  30      411CA485 
  30      775512
  31 0091 03FB2D35 		.ascii	"\003\373-5|Z@\302@;\030\000\221/$\277"
  31      7C5A40C2 
  31      403B1800 
  31      912F24BF 
  32              		.text
  33              		.section	.gnu.lto_.pureconst.4fbfdca0df2cf782,"",%progbits
  34 0000 789C6362 		.ascii	"x\234cb`b\340f\200\000V\006)F+&+f+\026+\000\006)\001"
  34      6062E066 
  34      80005606 
  34      29462B26 
  34      2B662B16 
  35 0019 21       		.ascii	"!"
  36              		.text
  37              		.section	.gnu.lto_chThdRelease.part.0.4fbfdca0df2cf782,"",%progbits
  38 0000 789CAD92 		.ascii	"x\234\255\2221K\303P\020\307\357\377\336\213\026'?\202"
  38      314BC350 
  38      10C7EFFF 
  38      DE8B1627 
  38      3F82
  39 0012 E8A40533 		.ascii	"\350\244\0053\010\"~\001qoA\335\332\244\266A\332BZ\205"
  39      08227E01 
  39      716F41DD 
  39      DAA4B641 
  39      DA425A85 
  40 0026 E2D017B1 		.ascii	"\342\320\027\261\340X\\\004],\375\000\256\216\335E\305"
  40      E0585C04 
  40      5D2CFD00 
  40      AE8EDD45 
  40      C5
  41 0037 4D9DF20D 		.ascii	"M\235\362\015\\\245\212\361^B\252\266\210\213\017rw"
  41      5CA58AF1 
  41      5E42AAB6 
  41      888B0F72 
  41      77
  42 0048 EFB8DFFD 		.ascii	"\357\270\337\375\357\222\010\0224~\262\374lpz\235=,"
  42      EF920812 
  42      347EB2FC 
  42      6C707A9D 
ARM GAS  /tmp/ccuZNpf7.s 			page 3


  42      3D2C
  43 005a 82EADE71 		.ascii	"\202\352\336q\240 b/ \215\0172\0220\001\201\332JH\264"
  43      A020622F 
  43      208D0F32 
  43      12300181 
  43      DA4A48B4 
  44 006e B76160CC 		.ascii	"\267a`\314SO\353\323\260\363\362\2103=\010.\365{\024"
  44      534FEBD3 
  44      B0F3F288 
  44      333D082E 
  44      F57B14
  45 0081 011E5868 		.ascii	"\001\036Xh\025\344\200\266\370\202L\354\004~*_\011\035"
  45      15E480B6 
  45      F8824CEC 
  45      047E2A5F 
  45      091D
  46 0093 46D1D347 		.ascii	"F\321\323Gf\006\250\032\302\203\224\306(c,6\212\253"
  46      6606A81A 
  46      C28394C6 
  46      28632C36 
  46      8AAB
  47 00a5 2C3AD6BA 		.ascii	",:\326\272;W@\217\305\310\264\344\223ck\306\311q\011"
  47      3B57408F 
  47      C5C8B4E4 
  47      93636BC6 
  47      C97109
  48 00b8 7B998788 		.ascii	"{\231\207\210\375\015OZ@\237\367p\301%\267t\364\374"
  48      FD0D4F5A 
  48      409FF770 
  48      C125B774 
  48      F4FC
  49 00ca 3A5C4B32 		.ascii	":\\K2e\210,-q\347\013:\017\264\236\365`\225\0013\230"
  49      65882C2D 
  49      71E70B3A 
  49      0FB49EF5 
  49      60950133 
  50 00df 8CC7298E 		.ascii	"\214\307)\216\306cl'e\344\037\014\276\230\315\204\231"
  50      C6636C27 
  50      65E41F0C 
  50      BE98CD84 
  50      99
  51 00f0 04C42450 		.ascii	"\004\304$P6\367\357:\352\037t\324\3442,\236\274\206"
  51      36F7EF3A 
  51      EA1F74D4 
  51      E4322C9E 
  51      BC86
  52 0102 EBB750A4 		.ascii	"\353\267P\244ZV\214\252_\265\322\237\344\236:\203\305"
  52      5A568CAA 
  52      5FB5D29F 
  52      E49E3A83 
  52      C5
  53 0113 04223AA4 		.ascii	"\004\":\244\241>1\325S\316h\007\003z\230N\252\363\314"
  53      A13E31D5 
  53      53CE6807 
  53      037A984E 
  53      AAF3CC
  54 0126 8F7F03EE 		.ascii	"\217\177\003\356\364@A8\\H\273$'\307\035\270\324\350"
ARM GAS  /tmp/ccuZNpf7.s 			page 4


  54      F4404138 
  54      5C48BB24 
  54      27C71DB8 
  54      D4E8
  55 0138 ACD8957A 		.ascii	"\254\330\225z\265d;u\267e\273\245\003\333\251xE\257"
  55      B5643B75 
  55      B765BBA5 
  55      03DBA978 
  55      45AF
  56 014a DEB09BFE 		.ascii	"\336\260\233\376~m\317\346\300o\332\015\337\341\274"
  56      7E6DCFE6 
  56      C06FDA0D 
  56      DFE1BC
  57 0159 DBAA15AA 		.ascii	"\333\252\025\252\236\263\354\220\362K\273\215O\311\004"
  57      9EB3EC90 
  57      F24BBB8D 
  57      4FC904
  58 0168 8BC3     		.ascii	"\213\303"
  59              		.text
  60              		.section	.gnu.lto_chThdAddRef.4fbfdca0df2cf782,"",%progbits
  61 0000 789C8D50 		.ascii	"x\234\215P=K\003A\020\235\331\273S\321\306R\233p\215"
  61      3D4B0341 
  61      109DD9BB 
  61      53D1C652 
  61      9B708D
  62 0013 8D91AC90 		.ascii	"\215\221\254\220?\020\020\204\024iL\004\255\344\262"
  62      3F101084 
  62      14694C04 
  62      ADE4B2
  63 0022 77248BDE 		.ascii	"w$\213\336\235\\>4U.\211E@\221 \026\032\261\020D\301"
  63      9D5C3E34 
  63      552E8945 
  63      40912016 
  63      1AB11044 
  64 0037 42C55F60 		.ascii	"B\305_`ee\002\266b!h-\370\013\342\356]\022\304&\016"
  64      656502B6 
  64      6221682D 
  64      F80BE2EE 
  64      5D12C426 
  65 004c ECCCECCE 		.ascii	"\354\314\354\316\233\267\363\206\000\201\2776+\316!"
  65      9BB7F386 
  65      0081BF36 
  65      2BCE21
  66 005b 021C8988 		.ascii	"\002\034\211\210\012 iu\001j\023\004Q&\200P%X]\307\000"
  66      0A206975 
  66      016A1304 
  66      51268050 
  66      25585DC7 
  67 0070 7B471EDF 		.ascii	"{G\036\337{\275\333\366\323\3253\236\222I\005m\004\025"
  67      7BBDDBF6 
  67      D3D5339E 
  67      9249056D 
  67      0415
  68 0082 3882269D 		.ascii	"8\202&\2350\015\366|\277\245\003\260\340\232\021^\262"
  68      300DF67C 
  68      BFA503B0 
  68      E09A115E 
ARM GAS  /tmp/ccuZNpf7.s 			page 5


  68      B2
  69 0093 AC229151 		.ascii	"\254\"\221Q\351B\375\373\353\370cf\0103\360\0025\010"
  69      E942FDFB 
  69      EBF86366 
  69      0833F002 
  69      3508
  70 00a5 BE41D851 		.ascii	"\276A\330Q\344xJ8c\004\232x\356\237$8\006Lk\310\221"
  70      E4784A38 
  70      63049A78 
  70      EE9F2438 
  70      064C6BC8 
  71 00ba E8321BD6 		.ascii	"\3502\033\326\367\373u%\324\321\201\372\353\333\347"
  71      F7FB7525 
  71      D4D181FA 
  71      EBDBE7
  72 00c9 811652E6 		.ascii	"\201\026R\346P\215\302<G\365\014\332\242U\313\241\""
  72      508DC23C 
  72      47F50CDA 
  72      A255CBA1 
  72      22
  73 00da 29C60268 		.ascii	")\306\002h\026\007\342;\320h6\312\203\026\201R%J\305"
  73      1607E23B 
  73      D06836CA 
  73      83168152 
  73      254AC5
  74 00ed 902F1916 		.ascii	"\220/\031\026\242p\343\013\233\032\301\226\223J\376"
  74      A270E30B 
  74      9B1AC196 
  74      934AFE
  75 00fc A3D0C04B 		.ascii	"\243\320\300K1t\240\010~)2\360\032#!\325\013\324\356"
  75      3174A008 
  75      7E2932F0 
  75      1A2321D5 
  75      0BD4EE
  76 010f 1FE283B1 		.ascii	"\037\342\203\261\372\0023b\023b\211\022\033\247y\327"
  76      FA023362 
  76      13628912 
  76      1BA779D7 
  77 011f B62873CD 		.ascii	"\266(s\315\0125\2552ey\236\345n\201\026\275\222\263"
  77      0A35AD32 
  77      65799EE5 
  77      6E8116BD 
  77      92B3
  78 0131 4945E215 		.ascii	"IE\342\025i\301c\342\335\2548\206\315Y\214AbT\217\265"
  78      69C163E2 
  78      DDAC3886 
  78      CD598C41 
  78      62548FB5 
  79 0145 5BA44BA9 		.ascii	"[\244K\251t2M\271\303\266J\246\304z\326\006\263\227"
  79      74324DB9 
  79      C3B64AA6 
  79      C47AD606 
  79      B397
  80 0157 4B0E8BE5 		.ascii	"K\016\213\345a:\225^\321\263F\301\332\366\370\202>\267"
  80      613A955E 
  80      D1B346C1 
  80      DAF6F882 
ARM GAS  /tmp/ccuZNpf7.s 			page 6


  80      3EB7
  81 0169 08C48371 		.ascii	"\010\304\203q\333\262]\257\002?\000\320\201\252"
  81      DBB25DAF 
  81      023F00D0 
  81      81AA
  82              		.text
  83              		.section	.gnu.lto_chThdRelease.4fbfdca0df2cf782,"",%progbits
  84 0000 789CA553 		.ascii	"x\234\245SMh\023Q\020\236yo\377\2226Z\244\202\010\206"
  84      4D681351 
  84      109E796F 
  84      FF92365A 
  84      A4820886 
  85 0014 8078B1D2 		.ascii	"\200x\261\322\015x\361\"\024\004\241\207^L\213?\227"
  85      0D78F122 
  85      1404A187 
  85      5E4C8B3F 
  85      97
  86 0025 926C42BA 		.ascii	"\222lB\272j\022\331\266\332\340\241\233&B\301\037\202"
  86      6A12D9B6 
  86      DAE0A19B 
  86      2642C11F 
  86      82
  87 0036 78104554 		.ascii	"x\020ET,\010\"*^\365\320\203\026\377ZQz\022\205\212"
  87      2C08222A 
  87      5EF5D083 
  87      16FF5A51 
  87      7A12858A 
  88 004a A037410A 		.ascii	"\2407A\012\245\364R\337\274\227]\233\246X\301\007\231"
  88      A5F452DF 
  88      BC975D9B 
  88      A658C107 
  88      99
  89 005b F733F37D 		.ascii	"\3673\363}3\337d\226\001\203\365kP\374\3064\200\253"
  89      33DF6496 
  89      0183F56B 
  89      50FCC634 
  89      80AB
  90 006d 62470B90 		.ascii	"bG\013\220\325\347\000*\026c|\336\006?j>\217\203\337"
  90      D5E7002A 
  90      16637CDE 
  90      063F6A3E 
  90      8F83DF
  91 0080 CE9936B3 		.ascii	"\316\2316\263\213no\222\342\246q\363\302N\360-]ZC\235"
  91      8B6E6F92 
  91      E2A671F3 
  91      C24EF02D 
  91      5D5A439D 
  92 0094 D1544043 		.ascii	"\321T@C\035\320D\244\035\020\306\031\327t\303\304\361"
  92      1DD044A4 
  92      1D10C619 
  92      D774C3C4 
  92      F1
  93 00a5 E328333E 		.ascii	"\343(3>f\323\013\253\253\217\226f\246\036\342m\266\235"
  93      66D30BAB 
  93      AB8F9666 
  93      A61EE26D 
  93      B69D
ARM GAS  /tmp/ccuZNpf7.s 			page 7


  94 00b7 63014103 		.ascii	"c\001A\003\027A'c\221\211\220\211\012\203mdbd:\351M"
  94      17412763 
  94      91899089 
  94      0A836D64 
  94      62643AE9 
  95 00cc 2C1D6ABE 		.ascii	",\035j\276_O\0008\362\332/,%\032@F;\237\203\211_?\257"
  95      5F4F0038 
  95      F2DA2F2C 
  95      251A4046 
  95      3B9F8389 
  96 00e3 7DDB1186 		.ascii	"}\333\021\206\245\361.\352 +A8\307\251\005\\\365!\016"
  96      A5F12EEA 
  96      202B4138 
  96      C7A9055C 
  96      F5210E
  97 00f6 9378CBBF 		.ascii	"\223x\313\277\336\343\242\274\036C\027y\202N\241\377"
  97      DEE3A2BC 
  97      1E431779 
  97      824EA1FF 
  98 0106 62C3AFA9 		.ascii	"b\303\257\251^\315\302\304\247\317w\256\304\025e\036"
  98      5ECDC2C4 
  98      A7CF77AE 
  98      C415651E 
  99 0116 B52ED8EB 		.ascii	"\265.\330\353\242~\023n\010\250\221GN\024Jd\006\203"
  99      A27E136E 
  99      08A89147 
  99      4E144A64 
  99      0683
 100 0128 06CF4275 		.ascii	"\006\317Bu\262z2\200\350\002EQ\372**\302\327uC\371\272"
 100      B27A3280 
 100      E8024551 
 100      FA2A2AC2 
 100      D77543F9 
 101 013d E0812FD6 		.ascii	"\340\201/\326\301M\010\363$\346_D\246q\012\271\022\005"
 101      C14D08F3 
 101      24E65F44 
 101      A6710AB9 
 101      1205
 102 014f 6B44A5F1 		.ascii	"kD\245\361>\306\025\325+x\361\343\353\313\305dX\033"
 102      3EC615D5 
 102      2B78F1E3 
 102      EBCBC564 
 102      581B
 103 0161 05370DC7 		.ascii	"\0057\015\307\200\300\316\333\234t?\331\022\204YR\265"
 103      80C0CEDB 
 103      9C743FD9 
 103      12845952 
 103      B5
 104 0172 B9719101 		.ascii	"\271q\221\001\236\270+GC\210d\336\332\304\254Au\233"
 104      9EB82B47 
 104      438864DE 
 104      DAC4AC41 
 104      759B
 105 0184 645E5E5C 		.ascii	"d^^\\\306 0\"\271\255\215\271\203\341\025\035}V\375"
 105      C6203022 
 105      B9AD8DB9 
 105      83E1151D 
ARM GAS  /tmp/ccuZNpf7.s 			page 8


 105      7D56FD
 106 0197 1E623A05 		.ascii	"\036b:\005L\362\223\316wP\233\326C\317e\270T\251\371"
 106      4CF293CE 
 106      77509BD6 
 106      43CF65B8 
 106      54A9F9
 107 01aa 1D2E4608 		.ascii	"\035.F\010\227m0\251\327\351\247\246\333\000\242t\262"
 107      976D30A9 
 107      D7E9A7A6 
 107      DB00A274 
 107      B2
 108 01bb B5CE8FA1 		.ascii	"\265\316\217\241\223I'o\252]\207\212\301\337\212iW\231"
 108      9349276F 
 108      AA5D878A 
 108      C1DF8A69 
 108      5799
 109 01cd 24564A59 		.ascii	"$VJY:\020\344\216J%\270\261\022\036*\2318\021\000\332"
 109      3A10E48E 
 109      4A25B8B1 
 109      121E2A99 
 109      381100DA 
 110 01e1 FE06D0FE 		.ascii	"\376\006\320\376\000z\203qi\212\216\266F\013\312\346"
 110      007A8371 
 110      698A8EB6 
 110      460BCAE6 
 111 01f1 0CB1FFCA 		.ascii	"\014\261\377\312\020k\025 \322\002\274\207\332\302\227"
 111      106B1520 
 111      D202BC87 
 111      DAC297
 112 0200 7BD16002 		.ascii	"{\321`\002\317\303\212?I-\217:\215h\221\310\245RT\353"
 112      CFC38A3F 
 112      492D8F3A 
 112      8D6891C8 
 112      A55254EB 
 113 0214 8CF5ADE3 		.ascii	"\214\365\255\343\222\302j\301\267;\215\177D\342c\001"
 113      92C26AC1 
 113      B73B8D7F 
 113      44E26301 
 114 0224 DE945FF9 		.ascii	"\336\224_\371Z\002\221\345\003T\026Vv\207\037\201\\"
 114      5A0291E5 
 114      03541656 
 114      76871F81 
 114      5C
 115 0235 FDC22142 		.ascii	"\375\302!B\211c\277=T*\344l\247\224-\333\331\334Y\333"
 115      8963BF3D 
 115      542AE46C 
 115      A7942DDB 
 115      D9DC59DB 
 116 0249 1972336E 		.ascii	"\031r3ni\330\036\361F\213\247lq\360F\354a\317\021\357"
 116      69D81EF1 
 116      468BA76C 
 116      71F046EC 
 116      61CF11EF 
 117 025d D972315D 		.ascii	"\331r1]p\235n\007z6\303\344\306F\354C}\251\336\224\355"
 117      709D6E07 
 117      7A36C3E4 
 117      C646EC43 
ARM GAS  /tmp/ccuZNpf7.s 			page 9


 117      7DA9DE94 
 118 0272 169DD3A3 		.ascii	"\026\235\323\243Y\212\365r\203N\341\360h\321\351\036"
 118      598AF572 
 118      834EE1F0 
 118      68D1E91E 
 119 0282 828EBED4 		.ascii	"\202\216\276\324\221D&=\234;\343\271\373\022{\222\300"
 119      9144263D 
 119      9C3BE3B9 
 119      FB127B92 
 119      C0
 120 0293 3C300BB9 		.ascii	"<0\013\271B\311+\303o\225\032\022\012"
 120      42C92BC3 
 120      6F951A12 
 120      0A
 121              		.text
 122              		.section	.gnu.lto_chThdCreateFromHeap.4fbfdca0df2cf782,"",%progbits
 123 0000 789C8D52 		.ascii	"x\234\215RMh\023Q\020\236yo\3436\177Z\360\242\227\022"
 123      4D681351 
 123      109E796F 
 123      E3367F5A 
 123      F0A29712 
 124 0014 0A9E94AE 		.ascii	"\012\236\224\256P\360\340\251 \010\036z1\026\364$\233"
 124      50F0E0A9 
 124      20081E7A 
 124      3116F424 
 124      9B
 125 0025 9765F3D0 		.ascii	"\227e\363\320M\302&Q\203`\237\241\005Q\321P<\264\376"
 125      4DC22651 
 125      83609FA1 
 125      0551D150 
 125      3CB4FE
 126 0038 408BF4A0 		.ascii	"@\213\364\240\326*x\351\301C\012\"\032\264\305\203\240"
 126      D62A78E9 
 126      C1430A22 
 126      1AB4C583 
 126      A0
 127 0049 881090E2 		.ascii	"\210\020\220\342Y\364\240\242\306y\273\333\320z\251"
 127      59F4A0A2 
 127      C679BBDB 
 127      D07AA9
 128 0058 0FF6FD7C 		.ascii	"\017\366\375|3\337\31473\313\200\301\277k\230\276e\202"
 128      33DFCC37 
 128      33CB80C1 
 128      BF6B98BE 
 128      6582
 129 006a 67E8C418 		.ascii	"g\350\304\030 k\256\000\\\354c\314hsP\011\376\274\015"
 129      206BAE00 
 129      5CEC63CC 
 129      68735009 
 129      FEBC0D
 130 007d A0521C8D 		.ascii	"\240R\034\215\0207\020\365\005\020\306\0317p\374\004"
 130      103710F5 
 130      0510C619 
 130      3770FC04 
 131 008d EA206C10 		.ascii	"\352 l\020\346\224\232\352\314?x\2113\25251\253~u\273"
 131      E6949AEA 
 131      CC3F7889 
ARM GAS  /tmp/ccuZNpf7.s 			page 10


 131      33AA3531 
 131      AB7E75BB 
 132 00a1 881229E1 		.ascii	"\210\022)\341\001\004\201p\234\036\230\011\016flV\020"
 132      01048170 
 132      9C1E9809 
 132      0E666C56 
 132      10
 133 00b2 725B1FDB 		.ascii	"r[\037\333\327v\253\331FS\375!\252D\316\340\340V\314"
 133      D776ABD9 
 133      4653FD21 
 133      AA44CEE0 
 133      E056CC
 134 00c5 47ACD5E9 		.ascii	"G\254\325\351v_\275}|\365)>d;\021\210f\240\207\020\243"
 134      765FBD7D 
 134      7CF5293E 
 134      643B1188 
 134      66A08710 
 135 00da 0D4DB071 		.ascii	"\015M\260q\016\007!N\017\226\240\215'i3\322\004\337"
 135      0E07214E 
 135      0F96A08D 
 135      276933D2 
 135      04DF
 136 00ec 2598560C 		.ascii	"%\230V\014&\224jfB\267uT\004\025\035\243]\027:\206L"
 136      26946A66 
 136      42B77554 
 136      04151DA3 
 136      5D173A86 
 137 0101 9F7C1526 		.ascii	"\237|\025&;Kkh\343<5\311E\363<\374T\227T\277DC`@ \320"
 137      3B4B6B68 
 137      E33C35C9 
 137      45F33CFC 
 137      549754BF 
 138 011b 703126C9 		.ascii	"p1&\311\014/\340\331\347\345\257\227y\317[\213\337\244"
 138      0C2FE0D9 
 138      E7E5AF97 
 138      79CF5B8B 
 138      DFA4
 139 012d 7C0C3950 		.ascii	"|\0149Pg\371\0124\276\374\276\361iW\244\004 \244\004"
 139      67F90A34 
 139      BEFCBEF1 
 139      6957A404 
 139      20A404
 140 0140 0D46B8C0 		.ascii	"\015F\270\300\365\300x8\265\001\270\216w\324\364\210"
 140      F5C07838 
 140      B501B88E 
 140      77D4F488 
 141 0150 C46DFAA9 		.ascii	"\304m\372\251C\232\031}\353\331\247\"{_\230c\025\246"
 141      439A197D 
 141      EBD9A722 
 141      7B5F9863 
 141      15A6
 142 0162 D5E2ED2B 		.ascii	"\325\342\355+=\025\351\236\346\270@\026i6I\263\213q"
 142      3D15E99E 
 142      E6B84016 
 142      693649B3 
 142      8B71
 143 0174 17132E26 		.ascii	"\027\023.&%&\000^Cc\351\373\223\037Q\251{\341\276\242"
ARM GAS  /tmp/ccuZNpf7.s 			page 11


 143      2526005E 
 143      4363E9FB 
 143      931F51A9 
 143      7BE1BEA2 
 144 0188 45A6E42D 		.ascii	"E\246\344-\270I9S\024H\347\346A\200\\T\226F\222\030"
 144      B8493953 
 144      1448E7E6 
 144      41805C54 
 144      96469218 
 145 019c 249DECBC 		.ascii	"$\235\354\274[3\327\313\350\245L\213\210\021\321\267"
 145      5B33D7CB 
 145      E8A54C8B 
 145      8811D1B7 
 146 01ac 030D6B07 		.ascii	"\003\015k\007\300\3774\300\306{D\016\012\206\015\005"
 146      C0FF34C0 
 146      C67B440E 
 146      0A860D05 
 147 01bc DBB88003 		.ascii	"\333\270\200\003\033[j\004\223zC\177\251N\023({\017"
 147      1B5B6A04 
 147      937A437F 
 147      A94E1328 
 147      7B0F
 148 01ce 1889658B 		.ascii	"\030\211e\213\337\332\214\222\363\205\017)=^\324\316"
 148      DFDA8C92 
 148      F3850F29 
 148      3D5ED4CE 
 149 01de 3ACEB055 		.ascii	":\316\260U(y\216%J\371\272\225w\316X\242 s\262T\261"
 149      28798E25 
 149      4AF9BA95 
 149      77CE58A2 
 149      2073B254 
 150 01f3 AA7EAD78 		.ascii	"\252~\255x\312\242\213_\265*\276 <_/\332\236\024C\002"
 150      CAA28B5F 
 150      B52ABE20 
 150      3C5F2FDA 
 150      9E144302 
 151 0207 F8D94A99 		.ascii	"\370\331J\231U\313#[Q\235sU\353\320h\366H\326\222Eq"
 151      55CB235B 
 151      519D7355 
 151      EBD068F6 
 151      48D69245 
 152 021c BA96D7BE 		.ascii	"\272\226\327\276\276sRx\207kE1T\200\376\321\354\321"
 152      BE735278 
 152      876B4531 
 152      5480FED1 
 152      ECD1
 153 022e 4CCEAE38 		.ascii	"L\316\2568e_\356\313\354\331\017\314\007\323s\274\222"
 153      655FEECB 
 153      ECD90FCC 
 153      07D373BC 
 153      92
 154 023f 5F87BF9C 		.ascii	"_\207\277\234\371\317\373"
 154      F9CFFB
 155              		.text
 156              		.section	.gnu.lto_chThdCreateFromMemoryPool.4fbfdca0df2cf782,"",%progbits
 157 0000 789C8D53 		.ascii	"x\234\215SMh\023A\024~of\233\2776\266Z\017z)\241\340"
 157      4D681341 
ARM GAS  /tmp/ccuZNpf7.s 			page 12


 157      147E6F66 
 157      9BBF36B6 
 157      5A0F7A29 
 158 0016 C5D6AE50 		.ascii	"\305\326\256P\360\340\251 \010\036z1\026\364$\233IH"
 158      F0E0A920 
 158      081E7A31 
 158      16F4249B 
 158      4948
 159 0028 06DDA46C 		.ascii	"\006\335\244l\0225\010v\032\"x\252\241xH\325B\213xP"
 159      12350876 
 159      1A2278AA 
 159      A17848D5 
 159      428B7850 
 160 003c 44F126A8 		.ascii	"D\361&\250PA\244VL\361\250x\010\024\251\007\321\366"
 160      5041A456 
 160      4CF1A878 
 160      0814A907 
 160      D1F6
 161 004e E40FD5F8 		.ascii	"\344\017\325\370fw\023Z\025\352\300\316\317{\357{\337"
 161      6677135A 
 161      15EAC0CE 
 161      CF7BEF7B 
 161      DF
 162 005f F7DECC32 		.ascii	"\367\336\3142`\360\347\030\246\357\000\007\230\241\025"
 162      60F0E718 
 162      A6EF0007 
 162      98A115
 163 006e 3B0059B5 		.ascii	";\000Y\265\0160\031b\314X\342\240\"\374\305\022\200"
 163      0E301962 
 163      CC58E2A0 
 163      22FCC512 
 163      80
 164 007f EAE26878 		.ascii	"\352\342hxv\003Qo\000a\202q\003'N\241N\302\372a^\251"
 164      7603516F 
 164      00618271 
 164      03274EA1 
 164      4EC2FA61 
 165 0095 E9C68795 		.ascii	"\351\306\207\225\2278\243\026*sj\243\331D\224H\204\207"
 165      9738A316 
 165      2A736AA3 
 165      D9449448 
 165      8487
 166 00a7 1004C249 		.ascii	"\020\004\302I:`\314]\230\261U\201\207]xX\237\332\253"
 166      3A60CC5D 
 166      98B15581 
 166      875D7858 
 166      9FDAAB
 167 00ba E6CA55F5 		.ascii	"\346\312U\365\213\240\0229\203\303\333!\037\260\205"
 167      8BA01239 
 167      83C3DB21 
 167      1FB085
 168 00c9 46B3F969 		.ascii	"F\263\371i}me\021{w#\020\312@\033!\000\026\316c?\204"
 168      7D6D6511 
 168      7B772310 
 168      CA401B21 
 168      0016CE63 
 169 00df C86284C9 		.ascii	"\310b\204\311\202\021\232X'M<J\276[\344\243\321\001"
ARM GAS  /tmp/ccuZNpf7.s 			page 13


 169      82119A58 
 169      274D3C4A 
 169      BE5BE4A3 
 169      D101
 170 00f1 15A5AA31 		.ascii	"\025\245\2521/\266e\025nA'h\326u\216!\323+_\206J\343"
 170      2FB66515 
 170      6E412768 
 170      D6758E21 
 170      D32B5F86 
 171 0107 E62A5A78 		.ascii	"\346*Zx\233z\224\306\300E\370\241\256\250\036\211\035"
 171      9B7A94C6 
 171      C045F8A1 
 171      AEA81E89 
 171      1D
 172 0118 025D0019 		.ascii	"\002]\000\031\015\211\001\200Ex\276\372\354\361\024"
 172      0D890180 
 172      4578BEFA 
 172      ECF114
 173 0127 6F876AE1 		.ascii	"o\207j\341[T\217!\007\352*\257Cy\375\347\265\225=\276"
 173      5B548F21 
 173      07EA2AAF 
 173      4379FDE7 
 173      B5953DBE 
 174 013b 0C000FE2 		.ascii	"\014\000\017\3426\027\341\022\327\227\305\275\033\353"
 174      3617E112 
 174      D797C5BD 
 174      1BEB
 175 0149 83AB38AB 		.ascii	"\203\2538\253j#\022\203\372\250S\206bz\327\366O\373"
 175      6A231283 
 175      FAA85386 
 175      627AD7F6 
 175      4FFB
 176 015b FEB0C7F1 		.ascii	"\376\260\307\361\032\312\357\336\177\234\035l\251\010"
 176      1ACAEFDE 
 176      7F9C1D6C 
 176      A908
 177 0169 0DC07E89 		.ascii	"\015\300~\211\221\033p}R)U\222\330Izu\232.7<\321V\270"
 177      911B707D 
 177      52295592 
 177      D8497A75 
 177      9A2E373C 
 178 0180 0C359569 		.ascii	"\0145\225i\241\242\3552\243\002\231_f\200\262\2451\234"
 178      A1A2ED32 
 178      A302995F 
 178      6680B2A5 
 178      319C
 179 0192 C6481A3B 		.ascii	"\306H\032;%\356p\311\036}\373\374\335\357\316\000\334"
 179      25EE70C9 
 179      1E7DFBFC 
 179      DDEFCE00 
 179      DC
 180 01a3 250A45AE 		.ascii	"%\012E\256n\242#\212\036J\244\251\270O\345qiK7\363\244"
 180      6EA2238A 
 180      1E4AA4A9 
 180      B84FE571 
 180      694B37F3 
 181 01b8 BEAA7DF9 		.ascii	"\276\252}\371\033\015\377F\267d\030Z\353\345\306\323"
ARM GAS  /tmp/ccuZNpf7.s 			page 14


 181      1B0DFF46 
 181      B764185A 
 181      EBE5C6D3 
 182 01c8 D560AB6D 		.ascii	"\325`\253mm\261;\205\037\355Cw\001\275\203^\200\377"
 182      6DB13B85 
 182      1FED4377 
 182      01BD835E 
 182      80FF
 183 01da 69B88577 		.ascii	"i\270\205w\010\3546\03065\330\302{\330\267\371\012\015"
 183      08EC3618 
 183      3635D8C2 
 183      7BD8B7F9 
 183      0A0D
 184 01ec F759BCA1 		.ascii	"\367Y\274\241?B\323\270%\275\005\364\205\262\373O\352"
 184      3F42D3B8 
 184      25BD05F4 
 184      85B2FB4F 
 184      EA
 185 01fd 8CC8F9C6 		.ascii	"\214\310\371\306\327.\375\226P\007\353<\303f&g\247L"
 185      D72EFD96 
 185      5007EB3C 
 185      C3662667 
 185      A74C
 186 020f 914B96CC 		.ascii	"\221K\226\314d\352\234)22!sy\263\340\024\263gL\3328"
 186      64EA9C29 
 186      32322173 
 186      79B3E014 
 186      B3674CDA 
 187 0224 0533EF08 		.ascii	"\0053\357\010\262'KY\313\226bH\000?\237\037g\205\361"
 187      B2274B59 
 187      CB966248 
 187      003F9F1F 
 187      6785F1
 188 0237 91EDA0A9 		.ascii	"\221\355\240\251\013\005\363\310h\374X\334\224Yq\266"
 188      0B05F3C8 
 188      68FC58DC 
 188      945971B6 
 189 0247 98D4B14E 		.ascii	"\230\324\261N\352\264\260\217\026\263b(\003=\243\361"
 189      EAB4B08F 
 189      16B36228 
 189      033DA3F1 
 190 0257 E3B18495 		.ascii	"\343\261\204\225O\215;r0\266\357 0\007\202v\312\316"
 190      4F8D3B72 
 190      30B6EF20 
 190      30078276 
 190      CACE
 191 0269 3925F80D 		.ascii	"9%\370\015\256\313\347\273"
 191      AECBE7BB 
 192              		.text
 193              		.section	.gnu.lto_.symbol_nodes.4fbfdca0df2cf782,"",%progbits
 194 0000 789C4DC8 		.ascii	"x\234M\310;\016\202@\000\204\341\231\335\205]\270\364"
 194      3B0E8240 
 194      0084E199 
 194      DD855DB8 
 194      F4
 195 0011 90D0182B 		.ascii	"\220\320\030+/\240\015\235\217D\343\243\363\012\234"
 195      2FA00D9D 
ARM GAS  /tmp/ccuZNpf7.s 			page 15


 195      8F44E3A3 
 195      F30A9C
 196 0020 41A59113 		.ascii	"A\245\221\023\330\031W!.\323\374\371\306\300\240\307"
 196      D8195721 
 196      2ED3FCF9 
 196      C6C0A0C7 
 197 0030 3873A580 		.ascii	"8s\245\200E\013H\313\031\315\232\342\310U\344\2062\023"
 197      450B48CB 
 197      19CD9AE2 
 197      C855E486 
 197      3213
 198 0042 6E293BE1 		.ascii	"n);\341\216r\211<P\331\300\252\"\367T\236t\246|\322"
 198      8E72893C 
 198      50D9C0AA 
 198      22F7549E 
 198      74A67CD2 
 199 0056 890A4947 		.ascii	"\211\012IG\252H\272P\345_\026\031\272\373\233\326\344"
 199      AA48BA50 
 199      E55F1619 
 199      BAFB9BD6 
 199      E4
 200 0067 68E66D2C 		.ascii	"h\346m,\360\370\326\026\250o\361\267\001\335\363\025"
 200      F0F8D616 
 200      A86FF1B7 
 200      01DDF315 
 201 0077 EBD1F4B1 		.ascii	"\353\321\364\261\256\034~\027P\377\354\321\305\342\003"
 201      AE1C7E17 
 201      50FFECD1 
 201      C5E203
 202 0086 F33747B2 		.ascii	"\3637G\262"
 203              		.text
 204              		.section	.gnu.lto_.refs.4fbfdca0df2cf782,"",%progbits
 205 0000 789C6362 		.ascii	"x\234cb`b`d\200\002\000\000F\000\006"
 205      60626064 
 205      80020000 
 205      460006
 206              		.text
 207              		.section	.gnu.lto_.decls.4fbfdca0df2cf782,"",%progbits
 208 0000 789CBD5A 		.ascii	"x\234\275Z{p\024E\032\237\236Mv\263I\016Q\357<\264|"
 208      7B701445 
 208      1A9F9E4D 
 208      76B3490E 
 208      51EF3CB4 
 209 0015 AC557A65 		.ascii	"\254Uzey%\213\312)^\235F\217+\214u\247\345\351Yw\177"
 209      79258BCA 
 209      295E9D46 
 209      8F2B8C75 
 209      A7E5E959 
 210 002b 5CD53A6C 		.ascii	"\\\325:l\206\354\036\331\307\355Nx\334?\014\021\002"
 210      86EC1ED9 
 210      C7ED4E78 
 210      DC3F0C11 
 210      02
 211 003c 728A81F0 		.ascii	"r\212\201\360\012$!\240x\362P/<\204 \340\362\332 \221"
 211      0A2421A0 
 211      78F2502F 
 211      3C8420E0 
ARM GAS  /tmp/ccuZNpf7.s 			page 16


 211      F2DA2091 
 212 0050 F00C6F25 		.ascii	"\360\014o%<\305\263\324B\014\310A\334\373\272\247gw"
 212      3CC5B3D4 
 212      420CC841 
 212      DCFBBAA7 
 212      6777
 213 0062 A6776677 		.ascii	"\246wfwf\325\233J\317\364\364t\377\276g\177\375uox\216"
 213      66D59B4A 
 213      CFF4F474 
 213      FFBE677F 
 213      FD756F78 
 214 0077 E756F01C 		.ascii	"\347V\360\034\227\202\353\275\3739.\352\3448\370\343"
 214      9782EBBD 
 214      FB392EEA 
 214      E438F8E3 
 215 0087 1E8302CD 		.ascii	"\036\203\002\315\334\"(\3139\345*\203\262\032\312o\021"
 215      DC2228CB 
 215      39E52A83 
 215      B21ACA6F 
 215      11
 216 0098 C7554279 		.ascii	"\307UBy\006J\023\224uP6B\331\014%\011\245\033\312~\304"
 216      064A1394 
 216      75503642 
 216      D90C2509 
 216      A51BCA7E 
 217 00ad 655D786C 		.ascii	"e]xl\011\256\300\267\001\360(\207\262\026J\005\224u"
 217      09AEC0B7 
 217      01F02887 
 217      B2164A05 
 217      9475
 218 00bf 500E417B 		.ascii	"P\016A{\007\024\007\324\277\202\362\005\224\337 \205"
 218      071407D4 
 218      BF82F205 
 218      94DF2085 
 219 00cf 0F3C761D 		.ascii	"\017<v\035\375V\001\317\303P\216040_.\005\236;\212y"
 219      FD5601CF 
 219      C3508E30 
 219      34305F2E 
 219      059E3B8A 
 220 00e4 81E771A4 		.ascii	"\201\347q\2444\254\243\264\360k\212>q\177\374\034\301"
 220      34ACA3B4 
 220      F06B8A3E 
 220      717FFC1C 
 220      C1
 221 00f5 E05452FE 		.ascii	"\340TR\376\020\035c\204u\205\352\006\353\351\023h\333"
 221      101D6384 
 221      7585EA06 
 221      EBE91368 
 221      DB
 222 0106 04E50494 		.ascii	"\004\345\004\2245\360^Li|\013\245_#\213\203bc]ay\212"
 222      35F05E4C 
 222      697C0BA5 
 222      5F238B83 
 222      62635D61 
 223 011c A0FC01EA 		.ascii	"\240\374\001\352\275PNB9\305\360\201\365;\220\352G\253"
 223      BD504E42 
 223      39C5F081 
ARM GAS  /tmp/ccuZNpf7.s 			page 17


 223      F53B90EA 
 223      47AB
 224 012e AFD3D0BE 		.ascii	"\257\323\320\276\033\351\371:\003\245\023)<a\376\316"
 224      1BE9F93A 
 224      03A51329 
 224      3C61FECE 
 225 013e 22C56E5B 		.ascii	"\"\305n[\250\214\375\224\3363\324>Ij/\314\353k\360\234"
 225      A88CFD94 
 225      DE33D43E 
 225      496A2FCC 
 225      EB6BF09C 
 226 0152 01652694 		.ascii	"\001e&\224YP\3460|`\033\377\324\200\017<\366\034|;\300"
 226      5950E630 
 226      7C601BFF 
 226      D4800F3C 
 226      F61C7C3B 
 227 0167 F0F25728 		.ascii	"\360\362W(-P\232\363\360\205\365\261\014)\274a;\027"
 227      2D509AF3 
 227      F085F5B1 
 227      0C29BC61 
 227      3B17
 228 0179 515AFB35 		.ascii	"QZ\3735\374\341\266\225X_X\267P\336cxssSe\271N\356]"
 228      FCE1B695 
 228      585F58B7 
 228      50DE6378 
 228      73735365 
 229 0191 220F9A07 		.ascii	"\"\017\232\007\274\375\005\011h\200\033\274\014W\312"
 229      BCFD0509 
 229      68801BBC 
 229      0C57CA
 230 01a0 DD44F4BB 		.ascii	"\335D\364\273\2717d\271\241w\311\271\363\016Y.\021\320"
 230      B93764B9 
 230      A177C9B9 
 230      F30E592E 
 230      11D0
 231 01b2 22E40697 		.ascii	"\"\344\006\227\372=\342\356\345\226\312\360E\226O\335"
 231      FA3DE2EE 
 231      E596CAF0 
 231      45964FDD 
 232 01c2 6BE0AD36 		.ascii	"k\340\2556\240\373\352\337\376%\201^B\240' N@o\240{"
 232      A0FBEADF 
 232      FE25815E 
 232      42A02720 
 232      4E406FA0 
 233 01d7 6DE32C9C 		.ascii	"m\343,\234\326:\214\340\274Ep6 =\220\200\240Ys\221w"
 233      D63A8CE0 
 233      BC457036 
 233      203D9080 
 233      A0597391 
 234 01ec B5034623 		.ascii	"\265\003F#\237i%\245\027\351\007\355K$\222\345\266z"
 234      9F6925A5 
 234      17E907ED 
 234      4B2492E5 
 234      B67A
 235 01fe B9724746 		.ascii	"\271rGF\"\217*QQF\242\355\237R\245/'\022%\221\201j,"
 235      228F2A51 
 235      5146A2ED 
ARM GAS  /tmp/ccuZNpf7.s 			page 18


 235      9F52A52F 
 235      27122591 
 236 0215 01F525B7 		.ascii	"\001\365%\267\265\243:Y\206\017\357\020\250\217\012"
 236      B5A33A59 
 236      860FEF10 
 236      A88F0A
 237 0224 865AB873 		.ascii	"\206Z\270s\255\242\345v\002t K\313NF\313N\2756\340\025"
 237      ADA2E576 
 237      0274204B 
 237      CB4E46CB 
 237      4EBD36E0 
 238 0239 53FA1687 		.ascii	"S\372\026\207L4\201\266\340\027\027\367\177\037w\007"
 238      4C3481B6 
 238      E01717F7 
 238      7F1F7707 
 239 0249 D72A277A 		.ascii	"\327*'z{\373\273?\026\232\032\022\223\344Tj\002w\023"
 239      7BFBBB3F 
 239      169A1A12 
 239      93E4546A 
 239      027713
 240 025c 379B6A42 		.ascii	"7\233jBF\222\200\036\373\231\24120\2415\350&Rs\220\020"
 240      4692801E 
 240      FB99A132 
 240      30A135E8 
 240      26527390 
 241 0271 0BF17D1A 		.ascii	"\013\361}\032vTE\2057p30\212G\243\314\266\"\025\340"
 241      76544585 
 241      37703330 
 241      8A47A3CC 
 241      B62215E0 
 242 0285 77196DF6 		.ascii	"w\031m\366\314\334\266\010\275D\014\263\016\335\000"
 242      CCDCB608 
 242      BD440CB3 
 242      0EDD00
 243 0294 405DBC5E 		.ascii	"@]\274^\237y\201\300\004d\310\3730\\\031H\240\345\336"
 243      9F7981C0 
 243      0464C8FB 
 243      305C1948 
 243      A0E5DE
 244 02a7 FE399F4C 		.ascii	"\3769\237LD\023\0114\376\306\351`u\327\235\\\033p\236"
 244      44130934 
 244      FEC6E960 
 244      75D79D5C 
 244      1B709E
 245 02ba B85ADF72 		.ascii	"\270Z\337r\263\334\266\005\372\257Ee\200\333\350Pq\215"
 245      B3DCB605 
 245      FAAF4565 
 245      80DBE850 
 245      718D
 246 02cc 3440ABCA 		.ascii	"4@\253\312E;\350\361\276K\2267\010*\330|\333`\036\035"
 246      453BE8F1 
 246      BE4B9637 
 246      082AD87C 
 246      DB601E1D 
 247 02e0 58636733 		.ascii	"Xcg3a\216\206\003\013\216\272D\235<[\211\243.r\030\306"
 247      618E8603 
 247      0B8EBA44 
ARM GAS  /tmp/ccuZNpf7.s 			page 19


 247      9D3C5B89 
 247      A32E7218 
 248 02f5 152B93A7 		.ascii	"\025+\223\247~\373f:y\222\004ji\301P\013\247mx\204\360"
 248      7EFB663A 
 248      7992046A 
 248      69C1500B 
 248      A76D7884 
 249 030a F421015A 		.ascii	"\364!\001Z\351`'\217\213\231<.\2753\273\334\231\012"
 249      E960278F 
 249      8B993C2E 
 249      BD33BBDC 
 249      990A
 250 031c F6E1EBB8 		.ascii	"\366\341\353\270\037\271;\317m\264b\270\0223/\220{\257"
 250      1FB93BCF 
 250      6DB462B8 
 250      12332F90 
 250      7BAF
 251 032e CD398B9A 		.ascii	"\3159\213\232\344\304$\007\365\3446\247\231\216xn\033"
 251      E4C42407 
 251      F5E436A7 
 251      998E786E 
 251      1B
 252 033f A1D5CD7A 		.ascii	"\241\325\315zrG\353\027u\324\223\273-y\362\332\256\271"
 252      7247EB17 
 252      75D493BB 
 252      2D79F2DA 
 252      AEB9
 253 0351 C459F24E 		.ascii	"\304Y\362NI^\245\177\027\241__\204\351\357g\351\367"
 253      495EA57F 
 253      17A15F5F 
 253      84E9EF67 
 253      E9F7
 254 0363 9C3AFFD8 		.ascii	"\234:\377\330<Y\036\250|\312O\276}\337\254l\362\246"
 254      3C591EA8 
 254      7CCA4FBE 
 254      7DDFAC6C 
 254      F2A6
 255 0375 A184BA46 		.ascii	"\241\204\272FGk\347\327T\310Cd\306\354)b\235\243\242"
 255      476BE7D7 
 255      54C84364 
 255      C6EC2962 
 255      9DA3A2
 256 0388 4C6F3E78 		.ascii	"Lo>x\327t\340\271#i\366\013\232\260 \347\216\247\226"
 256      D774E0B9 
 256      2369F60B 
 256      9AB020E7 
 256      8EA796
 257 039b AE94E597 		.ascii	"\256\224\345\227\235*\017\307m#zt\232X\275\217\204\000"
 257      9D2A0FC7 
 257      6D237A74 
 257      9A58BD8F 
 257      8400
 258 03ad 05EC8415 		.ascii	"\005\354\204\0250SO\252K\274\247\005;e\033L\317\331"
 258      30534FAA 
 258      4BBCA705 
 258      3B651B4C 
 258      CFD9
ARM GAS  /tmp/ccuZNpf7.s 			page 20


 259 03bf 3A2DD859 		.ascii	":-\330Y+`\003\3159[\257\005;o\033L\317\331\006-\330"
 259      2B6003CD 
 259      395BAF05 
 259      3B6F1B4C 
 259      CFD9062D 
 260 03d4 E756C006 		.ascii	"\347V\300\006\231s\266I\013\366\225m0=g{\264`\027\255"
 260      9973B649 
 260      0BF6956D 
 260      303D677B 
 260      B46017AD 
 261 03e8 80790C38 		.ascii	"\200y\0148K_f\353\352>\224\366s\236\273T\244\206\004"
 261      4B5F66EB 
 261      EA3E94F6 
 261      739EBB54 
 261      A48604
 262 03fb 9B3ECD65 		.ascii	"\233>\315e0\376[d7\204\351\344\206\225\364\334\"\324"
 262      30FE5B64 
 262      3784E9E4 
 262      8695F4DC 
 262      22D4
 263 040d F892BC63 		.ascii	"\370\222\274c\210\272\232\311\305\026\020s8\314\374"
 263      88BA9AC9 
 263      C5161073 
 263      38CCFC
 264 041c 4ECDD238 		.ascii	"N\315\3228\3256\030\343\312\030L\027k\3229s\"w\316\214"
 264      D53618E3 
 264      CA184C17 
 264      6BD23973 
 264      2277CE8C 
 265 0430 B3775E93 		.ascii	"\263w^\223`\0172\356+\240o\320\335p\357\243\0114\376"
 265      600F32EE 
 265      2BA06FD0 
 265      DD70EFA3 
 265      0934FE
 266 0443 D497CE6A 		.ascii	"\324\227\316j\373hZ\313s\015\305F\033\001\002\220{\250"
 266      FB685ACB 
 266      730DC546 
 266      1B010290 
 266      7BA8
 267 0455 99277CAD 		.ascii	"\231'|\255\365\204\331V\324\224c*\234\350l\376\271\334"
 267      F584D956 
 267      D494632A 
 267      9CE86CFE 
 267      B9DC
 268 0467 9B40D637 		.ascii	"\233@\3267\024\333\325=\317\025\262Z7\027\263\001y\211"
 268      14DBD53D 
 268      CF15B25A 
 268      3717B301 
 268      7989
 269 0479 CD1D05CF 		.ascii	"\315\035\005\317-a\205\320\321\315;\005{\373\017\366"
 269      2D6185D0 
 269      D1CD3B05 
 269      7BFB0FF6 
 270 0489 CF4017EB 		.ascii	"\317@\027\353\344yC\324\235\330\333\266\021\357\321"
 270      E47943D4 
 270      9DD8DBB6 
 270      11EFD1
ARM GAS  /tmp/ccuZNpf7.s 			page 21


 271 0498 A9A56167 		.ascii	"\251\245ag\331\277_\264\256\223\263\252N\260\343\360"
 271      D9BF5FB4 
 271      AE93B3AA 
 271      4EB0E3F0 
 272 04a8 DC9A1F40 		.ascii	"\334\232\037@'\033mK0D#\001Nt\373f*\323\363Fnf\356\024"
 272      271B6D4B 
 272      30442301 
 272      4E74FB66 
 272      2AD3F346 
 273 04c0 03F33399 		.ascii	"\003\3633\231\277Q\267\274'\216\354D\036\2459\337\322"
 273      BF51B7BC 
 273      278EEC44 
 273      1EA539DF 
 273      D2
 274 04d1 2E272EEF 		.ascii	".'.\357l\2469\262\262%\333Fx\307c\013Yr\345\304\254"
 274      6CA639B2 
 274      B225DB46 
 274      78C7630B 
 274      5972E5C4 
 275 04e6 2E120814 		.ascii	".\022\010\024\260\256\357\005V\227X\365O5\201\257\300"
 275      B0AEEF05 
 275      569758F5 
 275      4F3581AF 
 275      C0
 276 04f7 71E5C0F7 		.ascii	"q\345\300\367\204\333\333e7\345\236\374\037\352\034"
 276      84DBDB65 
 276      37E59EFC 
 276      1FEA1C
 277 0506 D389731C 		.ascii	"\323\211s\034\313r\216$\353\034V2\320O\013\225#}\361"
 277      CB728E24 
 277      EB1C5632 
 277      D04F0B95 
 277      237DF1
 278 0519 DC975682 		.ascii	"\334\227V\202\207\307\324N0\357.S\037\313\233\306\252"
 278      87C7D44E 
 278      30EF2E53 
 278      1FCB9BC6 
 278      AA
 279 052a 3BBB7DC9 		.ascii	";\273}\311\211h\022\311\347f\361xg\3675\243\015\013"
 279      896812C9 
 279      E766F178 
 279      67F735A3 
 279      0D0B
 280 053c F9F04427 		.ascii	"\371\360D'\0362\227\317\332\331\355Rwv\370\233\205|"
 280      1E3297CF 
 280      DAD9ED52 
 280      7776F89B 
 280      857C
 281 054e 58B7B313 		.ascii	"X\267\263\023\320\007\210\247\270\205jTg\304\014\203"
 281      D00788A7 
 281      B8856A54 
 281      67C40C83 
 282 055e 026AE2F1 		.ascii	"\002j\342\361J1\237\277S\253\375\031N\273\332\367h\265"
 282      4A319FBF 
 282      53ABFD19 
 282      4EBBDAF7 
 282      68B5
ARM GAS  /tmp/ccuZNpf7.s 			page 22


 283 0570 9FB8DAD5 		.ascii	"\237\270\332\325\2140\377\006)\374\343\332\365;\275"
 283      8C30FF06 
 283      29FCE3DA 
 283      F53BBD
 284 057f A9EE9E41 		.ascii	"\251\356\236AU\337BT\277\300i\254\372\307\315\200xn"
 284      55DF4254 
 284      BFC069AC 
 284      FAC7CD80 
 284      786E
 285 0591 3919D296 		.ascii	"9\031\322\226\245\372\203\007T\325\267YR}\217\241\352"
 285      A5FA8307 
 285      54D5B759 
 285      527D8FA1 
 285      EA
 286 05a2 DBECAB9E 		.ascii	"\333\354\253\236\342\035\314l\252\005\264\3316\230'"
 286      E21DCC6C 
 286      AA05B4D9 
 286      369827
 287 05b1 971DDB34 		.ascii	"\227\035\3334v\\L\354\370:\330\021Z\364\326\334\300"
 287      765C4CEC 
 287      F83AD811 
 287      5AF4D6DC 
 287      C0
 288 05c2 5A53A73A 		.ascii	"ZS\247:Z\275\307L\0049\321\330\255\217\241\235V\274"
 288      5ABDC74C 
 288      0439D1D8 
 288      AD8FA19D 
 288      56BC
 289 05d4 6388B94A 		.ascii	"c\210\271JZ\273\211J\224\230\263\3136\230G\007\266q"
 289      5ABB894A 
 289      9498B3CB 
 289      36984707 
 289      B671
 290 05e6 7A8BA5AD 		.ascii	"z\213\245\255\243\214\264\231\031\317\035&tWd\371\313"
 290      A38CB499 
 290      19CF1D26 
 290      745764F9 
 290      CB
 291 05f7 A53D53A8 		.ascii	"\245=S\250\277\254\260\340/\260\300\234u\3133\313U\307"
 291      BFACB0E0 
 291      2FB0C09C 
 291      75CB33CB 
 291      55C7
 292 0609 9DE95251 		.ascii	"\235\351RQs\250:\207\267\\\375\354CD\340\350!\014\013"
 292      73A83A87 
 292      B75CFDEC 
 292      4344E0E8 
 292      210C0B
 293 061c 677307F6 		.ascii	"gs\007\366\235\270c\210=\305(32q\254\003/\261k\210L"
 293      9DB86388 
 293      3DC52833 
 293      3271AC03 
 293      2FB16B88 
 294 0631 8B5DECAA 		.ascii	"\213]\354\252\240hF\343\210+4\216\370\016q\304w\211"
 294      A06846E3 
 294      882B348E 
 294      F80E71C4 
ARM GAS  /tmp/ccuZNpf7.s 			page 23


 294      7789
 295 0643 23B693FB 		.ascii	"#\266\223\373*\255;\232\255\362\253yM\352\270\314\266"
 295      2AAD3B9A 
 295      ADF2AB79 
 295      4DEAB8CC 
 295      B6
 296 0654 DC1EC63A 		.ascii	"\334\036\306:fd\226k\311\264\273,\370\3360S\365B\\\357"
 296      6664966B 
 296      C9B4BB2C 
 296      F8DE3053 
 296      F5425CEF 
 297 0668 6954F719 		.ascii	"iT\367\031\312\241\325\373\266\021\365\336|a\272.#H"
 297      CAA1D5FB 
 297      B611F5DE 
 297      7C61BA2E 
 297      2348
 298 067a 5A817BDC 		.ascii	"Z\201{\334\200A\243K{\344(\240\215d\207\260\011a\003"
 298      8041A34B 
 298      7BE428A0 
 298      8D6487B0 
 298      096103
 299 068d 25C87D0B 		.ascii	"%\310}\013\271\357\"\367/\310\375+r\277@\356\337\222"
 299      B9EF22F7 
 299      2FC8FD2B 
 299      72BF40EE 
 299      DF92
 300 069f 7B3FB9A7 		.ascii	"{?\271\247\310}\0221n#\2717\223\373\233\344\376\026"
 300      C87D1231 
 300      6E23B937 
 300      93FB9BE4 
 300      FE16
 301 06b1 B92F23F7 		.ascii	"\271/#\367\365\344\276\301\212\003(\0212\355f\002z\301"
 301      F5E4BEC1 
 301      8A032811 
 301      32ED6602 
 301      7AC1
 302 06c3 911EC373 		.ascii	"\221\036\303s\335\214\023\336\305\275.\3133\361I\360"
 302      DD8C13DE 
 302      C5BD2ECB 
 302      33F149F0 
 303 06d3 5E6C814A 		.ascii	"^l\201Ju\306\234\"\375V\243;\014\351(\275\340\372\005"
 303      75C69C22 
 303      FD56A33B 
 303      0CE928BD 
 303      E0FA05
 304 06e6 B7046FA6 		.ascii	"\267\004o\246^\225'\017D\344\240\207\243\243t\372\332"
 304      5E95270F 
 304      44E4A087 
 304      A3A374FA 
 304      DA
 305 06f7 C4F3DA06 		.ascii	"\304\363\332\006|\372\334\326\233X\220|\025lT\227H\245"
 305      7CFADCD6 
 305      9B58907C 
 305      156C5497 
 305      48A5
 306 0709 2AD8C367 		.ascii	"*\330\303g\214n&\337V^w\372\254\012\254\223\362\254"
 306      8C6E26DF 
ARM GAS  /tmp/ccuZNpf7.s 			page 24


 306      565E77FA 
 306      AC0AAC93 
 306      F2AC
 307 071b A19472A3 		.ascii	"\241\224r\243X\251vO\360x\005\331\302[\221\257N^{\346"
 307      58A9764F 
 307      F07805D9 
 307      C25B91AF 
 307      4E5E7BE6 
 308 072f D94AB5CD 		.ascii	"\331J\265\315|\024ep\273\241\264\227\353\273 \"\311"
 308      7C146570 
 308      BBA1B497 
 308      EBBB2022 
 308      C9
 309 0740 D752A997 		.ascii	"\327R\251\227Jl\234\265\177hA\332\013\306\322^\255b"
 309      4A6C9CB5 
 309      7F6841DA 
 309      0BC6D25E 
 309      AD62
 310 0752 A4DD6149 		.ascii	"\244\335aIZ\231\261&\036\245\263f\227\241|\207v\026"
 310      5A99B126 
 310      1EA5B366 
 310      97A17C87 
 310      7616
 311 0764 64CDDD7C 		.ascii	"d\315\335|\376\337\022\246\236\316l\225\345\364\311"
 311      FEDF12A6 
 311      9ECE6C95 
 311      E5F4C9
 312 0773 A5874BE7 		.ascii	"\245\207K\347=\375\251\363\235\364\307\204}$\324\256"
 312      3DFDA9F3 
 312      9DF4C784 
 312      7D24D4AE 
 313 0783 2A31FE31 		.ascii	"*1\3761\301\034\211\3476\2231=\314B\226\330[_.\027)"
 313      C11C89E7 
 313      3693313D 
 313      CC4296D8 
 313      5B5F2E17 
 314 0798 EDF9939E 		.ascii	"\355\371\223\236\375\311\346\354E\224\321F\205\2712"
 314      FDC9E6EC 
 314      4594D146 
 314      85B932
 315 07a7 8EEA9561 		.ascii	"\216\352\225a}\377\361\376\233'\177\375.9\250=N\222"
 315      7DFFF1FE 
 315      9B277FFD 
 315      2E39A83D 
 315      4E92
 316 07b9 01D9CD2E 		.ascii	"\001\331\315.5\305\314\376\243X\277\377(vg*t\377\241"
 316      35C5CCFE 
 316      A358BFFF 
 316      2876672A 
 316      74FFA1
 317 07cc 73B21CB4 		.ascii	"s\262\034\264"
 318 07d0 172EBB32 		.ascii	"\027.\2732\207\376Jp\204\307\241\343\003\2068s\032\214"
 318      87FE4A70 
 318      84C7A1E3 
 318      03863873 
 318      1A8C
 319 07e2 853453C0 		.ascii	"\2054S\300I\276\314D\307Y\337x\356#\267j\260\202\266"
ARM GAS  /tmp/ccuZNpf7.s 			page 25


 319      49BECC44 
 319      C759DF78 
 319      EE23B76A 
 319      B082B6
 320 07f5 A0E03587 		.ascii	"\240\3405\207o\351X-\313\355/\322\355s\302\251\365\017"
 320      6FE9582D 
 320      CBED2FD2 
 320      ED73C2A9 
 320      F50F
 321 0807 262F3E44 		.ascii	"&/>D\250\235a\367\320\263\223\016\217\322\234\337;\346"
 321      A89D61F7 
 321      D0B3930E 
 321      8FD29CDF 
 321      3BE6
 322 0819 D6BF768B 		.ascii	"\326\277v\213\334\366\312 j\327D\275<\025Ml\2775gJ\337"
 322      DCF6CA20 
 322      6AD744BD 
 322      3C154D6C 
 322      BF35674A 
 323 082e D1BA7B31 		.ascii	"\321\272{1\325\356yb\332\323\214v\355\200\365\325\357"
 323      D5EE7962 
 323      DAD38C76 
 323      ED80F5D5 
 323      EF
 324 083f 567FD0F9 		.ascii	"V\177\320\371\234\200}Y8X\333\302\235\267\342\211\361"
 324      9C807D59 
 324      3858DBC2 
 324      9DB7E289 
 324      F1
 325 0850 2501BA9C 		.ascii	"%\001\272\234\345pn\306\341\334z\207s\2733\225\224z"
 325      E5706EC6 
 325      E1DC7A87 
 325      73BB3395 
 325      947A
 326 0862 B1BF27FF 		.ascii	"\261\277'\377\210cx\256\256T5h!)&v\237=7\303\304\316"
 326      886378AE 
 326      AE543568 
 326      21292676 
 326      9F3D37C3 
 327 0878 6C8C4D37 		.ascii	"l\214M7U\230\255\213l\\iJ\342\314\360\242\245\334\270"
 327      5598AD8B 
 327      6C5C694A 
 327      E2CCF0A2 
 327      A5DCB8
 328 088b 3D89D78E 		.ascii	"=\211\327\216rK\247<\227X\017]\220\344=Js~\017m\251"
 328      724BA73C 
 328      97580F5D 
 328      90E43D4A 
 328      737E0F6D 
 329 08a0 37D804E8 		.ascii	"7\330\004\350\224\224E\357\2126\021\234Jtz\251\340\223"
 329      949445EF 
 329      8A36119C 
 329      4A747AA9 
 329      E093
 330 08b2 97566593 		.ascii	"\227Ve\223\267\227\304\221W\013\005K_\260\217 \030\027"
 330      B797C491 
 330      570B054B 
ARM GAS  /tmp/ccuZNpf7.s 			page 26


 330      5FB08F20 
 330      1817
 331 08c4 0BDE75AE 		.ascii	"\013\336u\256J\252[6%\260\316\262\215\347\311\342\251"
 331      4AAA5B36 
 331      25B0CEB2 
 331      8DE7C9E2 
 331      A9
 332 08d5 A950C7D3 		.ascii	"\251P\307\323`,(eb\237\021\206\371\217\223\211\243#"
 332      602C2865 
 332      629F1186 
 332      F98F9389 
 332      A323
 333 08e7 B09EE9BE 		.ascii	"\260\236\351\276\204\305\322\357d4Uk\331q\217f\023s"
 333      84C5D2EF 
 333      6434556B 
 333      D9718F66 
 333      1373
 334 08f9 886C620E 		.ascii	"\210lb\016\223\354\3654\271\3279,\344\260{3N\225N|\260"
 334      93ECF534 
 334      B9D7392C 
 334      E4B07B33 
 334      4E954E7C 
 335 090e 01B4EF5B 		.ascii	"\001\264\357[\221\366=\327\212\213w\333f\224\246:\230"
 335      91F63DD7 
 335      8A8B77DB 
 335      6694A63A 
 335      98
 336 091f FCAA8249 		.ascii	"\374\252\202I\257r\254|\355\2536\337\266\224\254\272"
 336      AF72AC7C 
 336      EDAB36DF 
 336      B694ACBA 
 337 092f 531CD861 		.ascii	"S\034\330a{Ks.|\230\224\031\033\2578\314\027\276\354"
 337      7B4B732E 
 337      7C989419 
 337      1BAF38CC 
 337      17BEEC
 338 0942 6F5A66B9 		.ascii	"oZf\271\254\024\377|\251I\212\337s\012\315&)\2762\277"
 338      AC14FF7C 
 338      A9498ADF 
 338      730ACD26 
 338      29BE32BF 
 339 0956 AE917EDD 		.ascii	"\256\221~\335\246I!1\002\315%\257\340\314\031[\0006"
 339      A6492131 
 339      02CD25AF 
 339      E0CC195B 
 339      0036
 340 0968 2D249734 		.ascii	"-$\2274\037F\354\244\014K\034\331\371/\230>\274\272"
 340      1F46ECA4 
 340      0C4B1CD9 
 340      F92F983E 
 340      BCBA
 341 097a ABAB2BCB 		.ascii	"\253\253+\313M\221\230\224R<\206)*z\235\222g\030\356"
 341      4D919894 
 341      523C8629 
 341      2A7A9D92 
 341      6718EE
 342 098d A50E4BE1 		.ascii	"\245\016K\341ad\3177-\317\250\012M\202O\262\327i\230"
ARM GAS  /tmp/ccuZNpf7.s 			page 27


 342      6164CF37 
 342      2DCFA80A 
 342      4D824FB2 
 342      D76998
 343 09a0 5135C737 		.ascii	"Q5\3077\033Gm2\335a\224\003\317\357.o\230\330\233J\335"
 343      1B476D32 
 343      DD619403 
 343      CFEF2E6F 
 343      98D89B4A 
 344 09b5 6123019E 		.ascii	"a#\001\236\357\260\365\3174/\252\343\3133~\270q\375"
 344      EFB0F5CF 
 344      342FAAE3 
 344      CB337EB8 
 344      71FD
 345 09c7 95414AF6 		.ascii	"\225AJ\366\333\342\300\023\272\263,\357\277\322\350"
 345      DBE2C013 
 345      BAB32CEF 
 345      BFD2E8
 346 09d6 60C81198 		.ascii	"`\310\021\230\203Y\237\032\223$\357\305\355\371\327"
 346      83599F1A 
 346      9324EFC5 
 346      EDF9D7
 347 09e5 8DD946EB 		.ascii	"\215\331F\353\206\205s\336\036\205S\226\366E\301\243"
 347      868573DE 
 347      1E855396 
 347      F645C1A3 
 348 09f5 B4E6A7DC 		.ascii	"\264\346\247\334\247\036\364\274N\\\345d\032\260\320"
 348      A71EF4BC 
 348      4E5CE564 
 348      1AB0D0
 349 0a04 35C3CC4E 		.ascii	"5\303\314N\030?=\305>#d\332\354\223Q3AfY\271`\033\317"
 349      183F3DC5 
 349      3E2364DA 
 349      EC935133 
 349      416659B9 
 350 0a1b A3C39BAF 		.ascii	"\243\303\233\257\254\233J\376-\227[\0003Z\033\214.\255"
 350      AC9B4AFE 
 350      2D975B00 
 350      335A1B8C 
 350      2EAD
 351 0a2d 67086891 		.ascii	"g\010h\221\003\207\363\305\016r0A\356+\254\204\363f"
 351      0387F3C5 
 351      0E723041 
 351      EE2BAC84 
 351      F366
 352 0a3f 477638D7 		.ascii	"Gv8\327\207o:\211\363\205\266W\312MB[r+\232CB[3q\203"
 352      876F3A89 
 352      F385B657 
 352      CA4D425B 
 352      722B9A43 
 353 0a58 3749BF26 		.ascii	"7I\277&\207\331\334o\326D\214\031\240;\244\360#\240"
 353      87D9DC6F 
 353      D6448C19 
 353      A03BA4F0 
 353      23A0
 354 0a6a 46079F73 		.ascii	"F\007\237s\240&B%Z\272\337Q\202\333\024\022\240g\347"
 354      A0264225 
ARM GAS  /tmp/ccuZNpf7.s 			page 28


 354      5ABADF51 
 354      82DB1412 
 354      A067E7
 355 0a7d 19AA8D52 		.ascii	"\031\252\215R'h\224\022\320\334<\243tQjA7\023\245\314"
 355      27689412 
 355      D0DC3CA3 
 355      74516A41 
 355      3713A5CC 
 356 0a91 C651BDB7 		.ascii	"\306Q\275\267gG\251^\034.\366\336>o\245<\351e\371\273"
 356      6747A95E 
 356      1C2EF6DE 
 356      3E6FA53C 
 356      E965F9BB 
 357 0aa5 D40464FD 		.ascii	"\324\004d\375(\242\203]*\261\026s\333k)c/\225\261\015"
 357      28A2835D 
 357      2AB11673 
 357      DB6B2963 
 357      2F95B10D 
 358 0ab9 868C5D4B 		.ascii	"\206\214]K\355\270\255I\336b\367\337\0217\345[\302y"
 358      EDB8AD49 
 358      DE62F7DF 
 358      1137E55B 
 358      C279
 359 0acb 6EB5091F 		.ascii	"n\265\011\037\011c>\346t;\013\340c\013\313\007\266R"
 359      09633EE6 
 359      743B0BE0 
 359      630BCB07 
 359      B652
 360 0add FA65B9E2 		.ascii	"\372e\271\342\357\014c\037\2300\266\335\220\261\366"
 360      EF0C631F 
 360      9830B6DD 
 360      90B1F6
 361 0aec 55171E6D 		.ascii	"U\027\036m1\263\\\256E\246\323@E\026\023+\2133\363#"
 361      31B35CAE 
 361      45A6D340 
 361      4516132B 
 361      8B33F323 
 362 0b00 13417619 		.ascii	"\023Av\031\012\322\237J\334\326d&H\216\003\222\335\254"
 362      0AD29F4A 
 362      DCD66426 
 362      488E0392 
 362      DDAC
 363 0b12 1C384761 		.ascii	"\0348Ga\005a8;b\302\331>C\3166\254\337|\273\231\355"
 363      0561383B 
 363      62C2D93E 
 363      43CE36AC 
 363      DF7CBB99 
 364 0b27 733076C0 		.ascii	"s0v\300hn\260\207\222&\214\034\3243\302d\215\0359\262"
 364      686EB087 
 364      92268C1C 
 364      D433C264 
 364      8D1D39B2 
 365 0b3b C64399B8 		.ascii	"\306C\231\270\352\341\026\222\223\260\356o\376(\317"
 365      EAE11692 
 365      93B0EE6F 
 365      FE28CF
 366 0b4a 2A313E8A 		.ascii	"*1>\212U\3724\310\223y\343\357\327s\015\312Fv\336\000"
ARM GAS  /tmp/ccuZNpf7.s 			page 29


 366      55FA34C8 
 366      9379E3EF 
 366      D7730DCA 
 366      4676DE00 
 367 0b5e E55F5428 		.ascii	"\345_T(\335\201*]\236\322=\352\270\236\324t\377<Mz\230"
 367      DD812A5D 
 367      9ED23DEA 
 367      B89ED474 
 367      FF3C4D7A 
 368 0b73 717ACC91 		.ascii	"qz\314\221\3717\230rw\246\202\364\244=\014\345aj?\027"
 368      F9379872 
 368      77A682F4 
 368      A43D0CE5 
 368      616A3F17 
 369 0b87 C5396E9B 		.ascii	"\3059n\233\362\307&\224\235\306\352\336\224C\335\237"
 369      F2C72694 
 369      9DC6EADE 
 369      9443DD9F 
 370 0b97 E8137166 		.ascii	"\350\023qf$\376\257h\263\221'XC\351\214\240;aU\276'"
 370      24FEAF68 
 370      B3912758 
 370      43E98CA0 
 370      3B6155BE 
 371 0bac 564E914B 		.ascii	"VN\221Ks\367\330g\336\203\341lw\016\231Ng8cFu\346\030"
 371      73F7D867 
 371      DE83E16C 
 371      770E994E 
 371      67386346 
 372 0bc3 75C674D4 		.ascii	"u\306t\324\226\034\243\316\232\216:\220c\324\271\314"
 372      961CA3CE 
 372      9A8E3A90 
 372      63D4B9CC 
 373 0bd3 28AED21B 		.ascii	"(\256\322\033\210\204D\257?R5\336[%\216\361\372\003"
 373      888444AF 
 373      3F5235DE 
 373      5B258EF1 
 373      FA03
 374 0be5 C191C148 		.ascii	"\301\221\301H\334+\305j\303\243\275P\211I\336h$&\305"
 374      DC2BC56A 
 374      C3A3BD50 
 374      8949DE68 
 374      2426C5
 375 0bf8 BD4F3CF7 		.ascii	"\275O<\367\364\360\247\307A\317P4X#\306\342\336'\207"
 375      F4F0A7C7 
 375      41CF5034 
 375      5823C6E2 
 375      DE2787
 376 0c0b 0F87EED2 		.ascii	"\017\207\356\322\370\250\030\037\034\340\\R(R%\372$"
 376      F8A8181F 
 376      1CE05C52 
 376      285225FA 
 376      24
 377 0c1c E793CFBC 		.ascii	"\347\223\317\274\340\031\316\335\345\255\215\307\274"
 377      E019CEDD 
 377      E5AD8DC7 
 377      BC
 378 0c29 422C745F 		.ascii	"B,t_8\022\026\357\023\205\221Ao0\354\257\251\255\022"
ARM GAS  /tmp/ccuZNpf7.s 			page 30


 378      381216EF 
 378      13859141 
 378      6F30ECAF 
 378      A9AD12
 379 0c3c BD71A92A 		.ascii	"\275q\251*\030\226\360\230Zx\016\363ICst\016\011\300"
 379      1896F098 
 379      5A780EF3 
 379      49437374 
 379      0E09C0
 380 0c4f 5258F4FA 		.ascii	"RX\364\372\252\304QBm\215\344S\011\272}>:\2748\024\257"
 380      AAC45142 
 380      6D8DE453 
 380      09BA7D3E 
 380      3ABC3814 
 381 0c64 F6492E78 		.ascii	"\366I.xy\360\001\237\004\355\264\366\240\005\331\342"
 381      79F0019F 
 381      04EDB4F6 
 381      A005D9E2 
 382 0c74 313FB457 		.ascii	"1?\264W\215\017\013\241\240\177\260\237\033fa\214\312"
 382      8D0F0BA1 
 382      A07FB09F 
 382      1B66618C 
 382      CA
 383 0c85 9A3F101F 		.ascii	"\232?\020\037\037W\331)\221\0021Q\250\002\372\376\200"
 383      1F57D929 
 383      91023151 
 383      A802FAFE 
 383      80
 384 0c96 4FA90FB5 		.ascii	"O\251\017\265\207\005l\000\2163\352\013\213\343$xDc"
 384      87056C00 
 384      8E33EA0B 
 384      8BE32478 
 384      4463
 385 0ca8 E2189714 		.ascii	"\342\030\227\024\215\005#>\251\244\226\312T\252H\215"
 385      8D05233E 
 385      A9A496CA 
 385      54AA488D 
 386 0cb8 ABA44B30 		.ascii	"\253\244K0\342\362G\302\022\214x\304\266%\003\376HL"
 386      E2F247C2 
 386      128C78C4 
 386      B62503FE 
 386      484C
 387 0cca 049265B8 		.ascii	"\004\222e\270\031+\315/\215{\2640\024\337\230\207CX"
 387      192BCD2F 
 387      8D7BB430 
 387      14DF9887 
 387      4358
 388 0cdc 0931B11A 		.ascii	"\0111\261\032\314\350\223\370\330P>\366+>\366\020\037"
 388      CCE893F8 
 388      D8503EF6 
 388      2B3EF610 
 388      1F
 389 0ced 7B988F0D 		.ascii	"{\230\217\015\343c\2178b\367\017\201r?_\023\203\307"
 389      E3638F38 
 389      62F70F81 
 389      723F5F13 
 389      83C7
ARM GAS  /tmp/ccuZNpf7.s 			page 31


 390 0cff 83C5511F 		.ascii	"\203\305Q\037Psaa\307\2121xFj\252\304X\221? \304\260"
 390      50736161 
 390      C78A3178 
 390      466AAAC4 
 390      58913F20 
 391 0d15 06849058 		.ascii	"\006\204\220X\"\305%A\002\217\202\217\244\006\317Q5"
 391      22C52541 
 391      028F828F 
 391      A406CF51 
 391      35
 392 0d26 4275DC25 		.ascii	"Bu\334%\305\304Qq\"?\2568cU\343\301\001J\304qA\011\330"
 392      C5C45171 
 392      223FAE38 
 392      6355E3C1 
 392      014AC471 
 393 0d3d 169D63A5 		.ascii	"\026\235c\245\310\310\277E\313\3041bX\012\011\361\321"
 393      C8C8BF45 
 393      CBC43162 
 393      580A09F1 
 393      D1
 394 0d4e D0531C8B 		.ascii	"\320S\034\213+\216\250\257v\200b\232\270\257&\030\007"
 394      2B8EA8AF 
 394      7680629A 
 394      B8AF2618 
 394      07
 395 0d5f 5FBA2E6D 		.ascii	"_\272.m,\245\305\035\365\215\025\202R0\\}\235\332\374"
 395      2CA5C51D 
 395      F58D1582 
 395      52305C7D 
 395      9DDAFC
 396 0d72 F75AB116 		.ascii	"\367Z\261\026\270\030\250\351I\232J\243> K\252\305\244"
 396      B818A8E9 
 396      499A4AA3 
 396      3E204BAA 
 396      C5A4
 397 0d84 0A0D6254 		.ascii	"\012\015bT\014\203oW\027\207j\301$V\374/c\377\2204\016"
 397      0C836F57 
 397      17876AC1 
 397      2456FC2F 
 397      63FF9034 
 398 0d99 4F899082 		.ascii	"O\211\220\202\016\317\310\3300h\206 \201\010!\342\026"
 398      0ECFC8D8 
 398      30688620 
 398      810821E2 
 398      16
 399 0daa C01FF4C3 		.ascii	"\300\037\364\303\234\226b\351\205\032\342\001\320\030"
 399      9C9662E9 
 399      851AE201 
 399      D018
 400 0db8 8D446A6E 		.ascii	"\215Djn\364\007\376\024\250zN\254\021\205\27088*\304"
 400      F407FE14 
 400      A87A4EAC 
 400      1185B838 
 400      382AC4
 401 0dcb A4C14378 		.ascii	"\244\301Cx)ZF\232\237\250\202/\243\312\265]\354\371"
 401      295A469A 
 401      9FA8822F 
ARM GAS  /tmp/ccuZNpf7.s 			page 32


 401      A3CAB55D 
 401      ECF9
 402 0ddd 674014A2 		.ascii	"g@\024\242\300\340OBb(\022\033\357\303\257>\251L\363"
 402      C0E04F42 
 402      6228121B 
 402      EFC3AF3E 
 402      A94CF3
 403 0df0 F60099C5 		.ascii	"\366\000\231\3055\301\221\336j\277\237\231\315C\007"
 403      35C191DE 
 403      6ABF9F99 
 403      CD4307
 404 0dff 0F1B3C54 		.ascii	"\017\033<T\033\000`6cg\217\007\377\001\272}\330\236"
 404      1B006036 
 404      63678F07 
 404      FF01BA7D 
 404      D89E
 405 0e11 A2C41075 		.ascii	"\242\304\020u\334r\250V\213\322\250\332\260\037fF\000"
 405      DC72A856 
 405      8BD2A8DA 
 405      B01F6646 
 405      00
 406 0e22 A643644C 		.ascii	"\246CdL\020\334\250\2140\0077\250\227\306\245\321BM"
 406      10DCA88C 
 406      300737A8 
 406      97C6A5D1 
 406      424D
 407 0e34 B03A4C27 		.ascii	"\260:L'\321CC\323\223\010W\213\311\267\"\254\333\"<"
 407      D14343D3 
 407      9308578B 
 407      C9B722AC 
 407      DB223C
 408 0e47 0AD51661 		.ascii	"\012\325\026a\236P\300\031\360\215\212\211bq\000+\334"
 408      9E50C019 
 408      F08D8A89 
 408      6271002B 
 408      DC
 409 0e58 1E83D44D 		.ascii	"\036\203\324MHPTxS,3\034\232%qD,\022\252\004J\305\230"
 409      48505478 
 409      532C331C 
 409      9A257144 
 409      2C12AA04 
 410 0e6f 5CB4081B 		.ascii	"\\\264\010\033\220\217\216r\010\261j{\261\007d\307F"
 410      908F8E72 
 410      08B16A7B 
 410      B10764C7 
 410      46
 411 0e80 8F6B6C82 		.ascii	"\217kl\202\337\301&\344\241H\357\212\006\210\337\270"
 411      DFC126E4 
 411      A148EF8A 
 411      0688DFB8 
 412 0e90 424A5819 		.ascii	"BJX\031\000O\230\035\242_\362a1\313B\321\264\322nfx"
 412      004F981D 
 412      A25FF261 
 412      31CB42D1 
 412      B4D26E66 
 413 0ea5 7C9A603E 		.ascii	"|\232`>\013X|(Z\352\017\340\332\010\320\010T1\373\270"
 413      0B587C28 
ARM GAS  /tmp/ccuZNpf7.s 			page 33


 413      5AEA0FE0 
 413      DA08D008 
 413      5431FBB8 
 414 0eb9 0ADEF4BC 		.ascii	"\012\336\364\274?\360ga\264X\033}\276\\3\376\2512\245"
 414      3FF06761 
 414      B4581B7D 
 414      BE5C33FE 
 414      A932A5
 415 0ecc D3133535 		.ascii	"\323\02355\021\177\2312\226\324\377\007[\326\2412"
 415      117F9932 
 415      96D4FF07 
 415      5BD6A132 
 416              		.text
 417              		.section	.gnu.lto_.symtab.4fbfdca0df2cf782,"",%progbits
 418 0000 63685468 		.ascii	"chThdAddRef\000\000\000\000\000\000\000\000\000\000"
 418      64416464 
 418      52656600 
 418      00000000 
 418      00000000 
 419 0015 00004201 		.ascii	"\000\000B\001\000\000chThdRelease\000\000\000\000\000"
 419      00006368 
 419      54686452 
 419      656C6561 
 419      73650000 
 420 002c 00000000 		.ascii	"\000\000\000\000\000\000\000H\001\000\000chThdCreat"
 420      00000048 
 420      01000063 
 420      68546864 
 420      43726561 
 421 0041 6546726F 		.ascii	"eFromHeap\000\000\000\000\000\000\000\000\000\000\000"
 421      6D486561 
 421      70000000 
 421      00000000 
 421      00000000 
 422 0055 004E0100 		.ascii	"\000N\001\000\000chThdCreateFromMemoryPool\000\000\000"
 422      00636854 
 422      68644372 
 422      65617465 
 422      46726F6D 
 423 0076 00000000 		.ascii	"\000\000\000\000\000\000\000\000\000\231\001\000\000"
 423      00000000 
 423      00990100 
 423      00
 424 0083 6368506F 		.ascii	"chPoolFree\000\000\002\000\000\000\000\000\000\000\000"
 424      6F6C4672 
 424      65650000 
 424      02000000 
 424      00000000 
 425 0098 00B80100 		.ascii	"\000\270\001\000\000chHeapFree\000\000\002\000\000\000"
 425      00636848 
 425      65617046 
 425      72656500 
 425      00020000 
 426 00ad 00000000 		.ascii	"\000\000\000\000\000\000\275\001\000\000chSchWakeup"
 426      0000BD01 
 426      00006368 
 426      53636857 
ARM GAS  /tmp/ccuZNpf7.s 			page 34


 426      616B6575 
 427 00c2 53000002 		.ascii	"S\000\000\002\000\000\000\000\000\000\000\000\000\301"
 427      00000000 
 427      00000000 
 427      00C1
 428 00d0 01000063 		.ascii	"\001\000\000chThdCreateI\000\000\002\000\000\000\000"
 428      68546864 
 428      43726561 
 428      74654900 
 428      00020000 
 429 00e6 00000000 		.ascii	"\000\000\000\000\000\306\001\000\000chHeapAlloc\000"
 429      00C60100 
 429      00636848 
 429      65617041 
 429      6C6C6F63 
 430 00fb 00020000 		.ascii	"\000\002\000\000\000\000\000\000\000\000\000\316\001"
 430      00000000 
 430      000000CE 
 430      01
 431 0108 00006368 		.ascii	"\000\000chPoolAlloc\000\000\002\000\000\000\000\000"
 431      506F6F6C 
 431      416C6C6F 
 431      63000002 
 431      00000000 
 432 011d 00000000 		.ascii	"\000\000\000\000\323\001\000\000"
 432      D3010000 
 433              		.text
 434              		.section	.gnu.lto_.opts,"",%progbits
 435 0000 272D6D63 		.ascii	"'-mcpu=cortex-m3' '-mno-thumb-interwork' '-mthumb' "
 435      70753D63 
 435      6F727465 
 435      782D6D33 
 435      2720272D 
 436 0033 272D4F32 		.ascii	"'-O2' '-fomit-frame-pointer' '-falign-functions=16'"
 436      2720272D 
 436      666F6D69 
 436      742D6672 
 436      616D652D 
 437 0066 20272D66 		.ascii	" '-ffunction-sections' '-fdata-sections' '-fno-comm"
 437      66756E63 
 437      74696F6E 
 437      2D736563 
 437      74696F6E 
 438 0099 6F6E2720 		.ascii	"on' '-flto'\000"
 438      272D666C 
 438      746F2700 
 439              		.text
 440              		.section	.text.chThdAddRef,"ax",%progbits
 441              		.align	2
 442              		.p2align 4,,15
 443              		.global	chThdAddRef
 444              		.thumb
 445              		.thumb_func
 446              		.type	chThdAddRef, %function
 447              	chThdAddRef:
 448              		@ args = 0, pretend = 0, frame = 0
 449              		@ frame_needed = 0, uses_anonymous_args = 0
ARM GAS  /tmp/ccuZNpf7.s 			page 35


 450              		@ link register save eliminated.
 451 0000 2022     		movs	r2, #32
 452              	@ 546 "/home/cody/dev/chibios/trunk/os/ext/CMSIS/include/core_cmFunc.h" 1
 453 0002 82F31188 		MSR basepri, r2
 454              	@ 0 "" 2
 455              		.thumb
 456 0006 817F     		ldrb	r1, [r0, #30]	@ zero_extendqisi2
 457 0008 0022     		movs	r2, #0
 458 000a 0131     		adds	r1, r1, #1
 459 000c 8177     		strb	r1, [r0, #30]
 460              	@ 546 "/home/cody/dev/chibios/trunk/os/ext/CMSIS/include/core_cmFunc.h" 1
 461 000e 82F31188 		MSR basepri, r2
 462              	@ 0 "" 2
 463              		.thumb
 464 0012 7047     		bx	lr
 465              		.size	chThdAddRef, .-chThdAddRef
 466 0014 AFF30080 		.section	.text.chThdRelease,"ax",%progbits
 466      AFF30080 
 466      AFF30080 
 467              		.align	2
 468              		.p2align 4,,15
 469              		.global	chThdRelease
 470              		.thumb
 471              		.thumb_func
 472              		.type	chThdRelease, %function
 473              	chThdRelease:
 474              		@ args = 0, pretend = 0, frame = 0
 475              		@ frame_needed = 0, uses_anonymous_args = 0
 476              		@ link register save eliminated.
 477 0000 0146     		mov	r1, r0
 478 0002 2023     		movs	r3, #32
 479              	@ 546 "/home/cody/dev/chibios/trunk/os/ext/CMSIS/include/core_cmFunc.h" 1
 480 0004 83F31188 		MSR basepri, r3
 481              	@ 0 "" 2
 482              		.thumb
 483 0008 837F     		ldrb	r3, [r0, #30]	@ zero_extendqisi2
 484 000a 0022     		movs	r2, #0
 485 000c 013B     		subs	r3, r3, #1
 486 000e DBB2     		uxtb	r3, r3
 487 0010 8377     		strb	r3, [r0, #30]
 488              	@ 546 "/home/cody/dev/chibios/trunk/os/ext/CMSIS/include/core_cmFunc.h" 1
 489 0012 82F31188 		MSR basepri, r2
 490              	@ 0 "" 2
 491              		.thumb
 492 0016 13B9     		cbnz	r3, .L2
 493 0018 037F     		ldrb	r3, [r0, #28]	@ zero_extendqisi2
 494 001a 0F2B     		cmp	r3, #15
 495 001c 00D0     		beq	.L7
 496              	.L2:
 497 001e 7047     		bx	lr
 498              	.L7:
 499 0020 437F     		ldrb	r3, [r0, #29]	@ zero_extendqisi2
 500 0022 03F00303 		and	r3, r3, #3
 501 0026 012B     		cmp	r3, #1
 502 0028 02D0     		beq	.L4
 503 002a 022B     		cmp	r3, #2
 504 002c 07D0     		beq	.L5
ARM GAS  /tmp/ccuZNpf7.s 			page 36


 505 002e 7047     		bx	lr
 506              	.L4:
 507 0030 0269     		ldr	r2, [r0, #16]
 508 0032 4369     		ldr	r3, [r0, #20]
 509 0034 1A61     		str	r2, [r3, #16]
 510 0036 0269     		ldr	r2, [r0, #16]
 511 0038 5361     		str	r3, [r2, #20]
 512 003a FFF7FEBF 		b	chHeapFree
 513              	.L5:
 514 003e 0269     		ldr	r2, [r0, #16]
 515 0040 4369     		ldr	r3, [r0, #20]
 516 0042 006C     		ldr	r0, [r0, #64]
 517 0044 1A61     		str	r2, [r3, #16]
 518 0046 0A69     		ldr	r2, [r1, #16]
 519 0048 5361     		str	r3, [r2, #20]
 520 004a FFF7FEBF 		b	chPoolFree
 521              		.size	chThdRelease, .-chThdRelease
 522 004e 00BF     		.section	.text.chThdCreateFromHeap,"ax",%progbits
 523              		.align	2
 524              		.p2align 4,,15
 525              		.global	chThdCreateFromHeap
 526              		.thumb
 527              		.thumb_func
 528              		.type	chThdCreateFromHeap, %function
 529              	chThdCreateFromHeap:
 530              		@ args = 4, pretend = 0, frame = 0
 531              		@ frame_needed = 0, uses_anonymous_args = 0
 532 0000 F0B5     		push	{r4, r5, r6, r7, lr}
 533 0002 83B0     		sub	sp, sp, #12
 534 0004 1746     		mov	r7, r2
 535 0006 1E46     		mov	r6, r3
 536 0008 0D46     		mov	r5, r1
 537 000a FFF7FEFF 		bl	chHeapAlloc
 538 000e 98B1     		cbz	r0, .L9
 539 0010 2023     		movs	r3, #32
 540              	@ 546 "/home/cody/dev/chibios/trunk/os/ext/CMSIS/include/core_cmFunc.h" 1
 541 0012 83F31188 		MSR basepri, r3
 542              	@ 0 "" 2
 543              		.thumb
 544 0016 089B     		ldr	r3, [sp, #32]
 545 0018 2946     		mov	r1, r5
 546 001a 0093     		str	r3, [sp]
 547 001c 3A46     		mov	r2, r7
 548 001e 3346     		mov	r3, r6
 549 0020 FFF7FEFF 		bl	chThdCreateI
 550 0024 0123     		movs	r3, #1
 551 0026 4377     		strb	r3, [r0, #29]
 552 0028 0021     		movs	r1, #0
 553 002a 0446     		mov	r4, r0
 554 002c FFF7FEFF 		bl	chSchWakeupS
 555 0030 0023     		movs	r3, #0
 556              	@ 546 "/home/cody/dev/chibios/trunk/os/ext/CMSIS/include/core_cmFunc.h" 1
 557 0032 83F31188 		MSR basepri, r3
 558              	@ 0 "" 2
 559              		.thumb
 560 0036 2046     		mov	r0, r4
 561              	.L9:
ARM GAS  /tmp/ccuZNpf7.s 			page 37


 562 0038 03B0     		add	sp, sp, #12
 563              		@ sp needed
 564 003a F0BD     		pop	{r4, r5, r6, r7, pc}
 565              		.size	chThdCreateFromHeap, .-chThdCreateFromHeap
 566 003c AFF30080 		.section	.text.chThdCreateFromMemoryPool,"ax",%progbits
 567              		.align	2
 568              		.p2align 4,,15
 569              		.global	chThdCreateFromMemoryPool
 570              		.thumb
 571              		.thumb_func
 572              		.type	chThdCreateFromMemoryPool, %function
 573              	chThdCreateFromMemoryPool:
 574              		@ args = 0, pretend = 0, frame = 0
 575              		@ frame_needed = 0, uses_anonymous_args = 0
 576 0000 F0B5     		push	{r4, r5, r6, r7, lr}
 577 0002 83B0     		sub	sp, sp, #12
 578 0004 0F46     		mov	r7, r1
 579 0006 1646     		mov	r6, r2
 580 0008 1C46     		mov	r4, r3
 581 000a 0546     		mov	r5, r0
 582 000c FFF7FEFF 		bl	chPoolAlloc
 583 0010 98B1     		cbz	r0, .L12
 584 0012 2023     		movs	r3, #32
 585              	@ 546 "/home/cody/dev/chibios/trunk/os/ext/CMSIS/include/core_cmFunc.h" 1
 586 0014 83F31188 		MSR basepri, r3
 587              	@ 0 "" 2
 588              		.thumb
 589 0018 6968     		ldr	r1, [r5, #4]
 590 001a 3A46     		mov	r2, r7
 591 001c 0094     		str	r4, [sp]
 592 001e 3346     		mov	r3, r6
 593 0020 FFF7FEFF 		bl	chThdCreateI
 594 0024 0223     		movs	r3, #2
 595 0026 4377     		strb	r3, [r0, #29]
 596 0028 0564     		str	r5, [r0, #64]
 597 002a 0021     		movs	r1, #0
 598 002c 0446     		mov	r4, r0
 599 002e FFF7FEFF 		bl	chSchWakeupS
 600 0032 0023     		movs	r3, #0
 601              	@ 546 "/home/cody/dev/chibios/trunk/os/ext/CMSIS/include/core_cmFunc.h" 1
 602 0034 83F31188 		MSR basepri, r3
 603              	@ 0 "" 2
 604              		.thumb
 605 0038 2046     		mov	r0, r4
 606              	.L12:
 607 003a 03B0     		add	sp, sp, #12
 608              		@ sp needed
 609 003c F0BD     		pop	{r4, r5, r6, r7, pc}
 610              		.size	chThdCreateFromMemoryPool, .-chThdCreateFromMemoryPool
 611              		.comm	__gnu_lto_v1,1,1
 612 003e 00BF     		.ident	"GCC: (GNU Tools for ARM Embedded Processors) 4.8.4 20140526 (release) [ARM/embedded-4_8-br
ARM GAS  /tmp/ccuZNpf7.s 			page 38

