ARM GAS  /tmp/cczjDZMM.s 			page 1


   1              		.syntax unified
   2              		.cpu cortex-m3
   3              		.fpu softvfp
   4              		.eabi_attribute 20, 1
   5              		.eabi_attribute 21, 1
   6              		.eabi_attribute 23, 3
   7              		.eabi_attribute 24, 1
   8              		.eabi_attribute 25, 1
   9              		.eabi_attribute 26, 1
  10              		.eabi_attribute 30, 2
  11              		.eabi_attribute 34, 1
  12              		.eabi_attribute 18, 4
  13              		.thumb
  14              		.file	"chevents.c"
  15              		.section	.gnu.lto_.jmpfuncs.b96ad1791c1fc7a6,"",%progbits
  16 0000 789C6D8C 		.ascii	"x\234m\214\335\021\200 \014\203\223\326_P\221\355\\"
  16      DD118020 
  16      0C8393D6 
  16      5F5091ED 
  16      5C
  17 0011 C10578D5 		.ascii	"\301\005x\325q\034S\344\300\343N\373\322\344k\023\201"
  17      711C53E4 
  17      C0E34EFB 
  17      D2E46B13 
  17      81
  18 0022 E06FAEBC 		.ascii	"\340o\256\274=\234\250\262a\313N\251\221\004\220\247"
  18      3D9CA8B2 
  18      61CB4EA9 
  18      910490A7 
  19 0032 6CDC194D 		.ascii	"l\334\031M\257)>\350S\023\257\014\300X\033C\253\361"
  19      AF293EE8 
  19      5313AF0C 
  19      C0581B43 
  19      ABF1
  20 0044 F1002632 		.ascii	"\361\000&2\245h\200\271\322K\321\026p*/\317\005\353"
  20      A56880B9 
  20      D24BD116 
  20      702A2FCF 
  20      05EB
  21 0056 17F982EC 		.ascii	"\027\371\202\354\213p\003\236\225\013\033"
  21      8B70039E 
  21      950B1B
  22              		.text
  23              		.section	.gnu.lto_.inline.b96ad1791c1fc7a6,"",%progbits
  24 0000 789C8552 		.ascii	"x\234\205R\277k\024A\024\376\336\333\331\331\037\267"
  24      BF6B1441 
  24      14FEDEDB 
  24      D9D91FB7 
  25 0010 7B3B9B6C 		.ascii	"{;\233l\016\215\221\034X\330\204\373\017\204\370\017"
  25      0E8D911C 
  25      58D884FB 
  25      0F84F80F 
  26 0020 5C27D804 		.ascii	"\\'\330\004\322\204$\205\177\202p\235\301BV+\261\010"
  26      D2842485 
  26      7F82709D 
  26      C142562B 
  26      B108
ARM GAS  /tmp/cczjDZMM.s 			page 2


  27 0032 D7D88AA5 		.ascii	"\327\330\212\245(\204m\004\261\010W\245\023B\252T!\225"
  27      28846D04 
  27      B10857A5 
  27      1342AA54 
  27      2195
  28 0044 1CC1226F 		.ascii	"\034\301\"ofn\217K\010f\2127\337|\357\307\274\371\346"
  28      666E8F4B 
  28      08668A37 
  28      DF7CEFC7 
  28      BCF9E6
  29 0057 311877AD 		.ascii	"1\030w\255\215\300\357%\220g\004\316\177\355 \237\276"
  29      8DC0EF25 
  29      906704CE 
  29      7FED209F 
  29      BE
  30 0068 70C18CEC 		.ascii	"p\301\214\354\231P\345\367\017\021\242\203'\216\013"
  30      9950E5F7 
  30      0F11A283 
  30      278E0B
  31 0077 D0498940 		.ascii	"\320I\211@\026v\277\276\202\036\2573xR(\353THbI\310"
  31      1676BFBE 
  31      821EAF33 
  31      785228EB 
  31      54486249 
  32 008c 4EB73C2F 		.ascii	"N\267</+D\244\205\322\227\003\304\227\003Gi\364\012"
  32      2B44A485 
  32      D29703C4 
  32      97034769 
  32      F40A
  33 009e 8AB1FB92 		.ascii	"\212\261\373\222\366\211S\004\247\204\275\005\354\371"
  33      F6895304 
  33      A784BD05 
  33      ECF9
  34 00ac CE02EFB1 		.ascii	"\316\002\357\261\\\031\214\003\2627;<\243F\\\320\271"
  34      5C198C03 
  34      B2373B3C 
  34      A3465CD0 
  34      B9
  35 00bd EDEF2943 		.ascii	"\355\357)C\300\246\267\266\245\206,\0341#\231>\037\011"
  35      C0A6B7B6 
  35      A5862C1C 
  35      3123993E 
  35      1F09
  36 00cf FF91474A 		.ascii	"\377\221GJ\265;t\2357\241\002\375\224\223\341\331\016"
  36      B53B749D 
  36      37A102FD 
  36      9493E1D9 
  36      0E
  37 00e0 7D5834A1 		.ascii	"}X4\241\001\275\341\212\235uBtP\201\352a\204\225c\""
  37      01BDE18A 
  37      9D754274 
  37      5081EA61 
  37      84956322 
  38 00f4 45AE452B 		.ascii	"E\256E+\034\355\265\310\365\002\327\2356\323\303\304"
  38      1CEDB5C8 
  38      F502D79D 
  38      36D3C3C4 
ARM GAS  /tmp/cczjDZMM.s 			page 3


  39 0104 0B20F71B 		.ascii	"\013 \367\033o\241\376\375\340>\342I\023\304NG+v=\254"
  39      6FA1FEFD 
  39      E03EE249 
  39      13C44E47 
  39      2B763DAC 
  40 0118 87319255 		.ascii	"\2071\222U\201j\274>\327\214R\027\000\037\220\334\027"
  40      816ABC3E 
  40      D78C5217 
  40      001F90DC 
  40      17
  41 0129 902254FE 		.ascii	"\220\"T\376K\202m\265\250\205\362\326ft\260| 1\374\340"
  41      4B826DB5 
  41      A885F2D6 
  41      6674B07C 
  41      2031FCE0 
  42 013d D3493A2F 		.ascii	"\323I:/\243\014\331WeX\251\304\325\377\362\207\346."
  42      A30CD957 
  42      6558A9C4 
  42      D5FFF287 
  42      E62E
  43 014f 79B114CC 		.ascii	"y\261\024\314\261\274$\236\265wG\267=]\224U;\006\275"
  43      B1BC249E 
  43      B57747B7 
  43      3D5D9455 
  43      3B06BD
  44 0162 ABCF7473 		.ascii	"\253\317ts\016|L\201\307%\005^,5\027\313!\233\027\256"
  44      0E7C4C81 
  44      C725055E 
  44      2C3517CB 
  44      219B17AE 
  45 0176 1EB7796A 		.ascii	"\036\267yjR\030d\277\2731\370L\371I\312!\007\324C\203"
  45      521864BF 
  45      BB31F84C 
  45      F949CA21 
  45      07D44383 
  46 018a 47E67F45 		.ascii	"G\346\177Ezo\337\337_\244\304\303\262\375\266;\212\270"
  46      7A6FDFDF 
  46      5FA4C4C3 
  46      B2FDB63B 
  46      8AB8
  47 019c 67E8EADB 		.ascii	"g\350\352\333\353Y\241\246g\020_\345\222\3737\352\203"
  47      EB59A1A6 
  47      67105FE5 
  47      92FB37EA 
  47      83
  48 01ad 2FF4CD6A 		.ascii	"/\364\315j\270\006\220]j\276"
  48      B806905D 
  48      6ABE
  49              		.text
  50              		.section	.gnu.lto_.pureconst.b96ad1791c1fc7a6,"",%progbits
  51 0000 789C6362 		.ascii	"x\234cb`bPf\200\000A\006+&+f+\026+V+6)v)\016+N+.)nI"
  51      60625066 
  51      80004106 
  51      2B262B66 
  51      2B162B56 
  52 0021 1E2B5E2B 		.ascii	"\036+^+>+~+\001+A+\000H\370\004*"
  52      3E2B7E2B 
ARM GAS  /tmp/cczjDZMM.s 			page 4


  52      012B412B 
  52      0048F804 
  52      2A
  53              		.text
  54              		.section	.gnu.lto_chEvtRegisterMaskWithFlags.b96ad1791c1fc7a6,"",%progbits
  55 0000 789C8D92 		.ascii	"x\234\215\222?h\024A\024\306\2777\263\353\255\227\034"
  55      3F681441 
  55      14C6BF37 
  55      B3EBAD97 
  55      1C
  56 0011 042B6DC2 		.ascii	"\004+m\30256F2bg\027\020\002\026i<\005S\311\335\336"
  56      35364632 
  56      62671710 
  56      0216693C 
  56      0553C9DD 
  57 0026 B2B7E8DE 		.ascii	"\262\267\350\336\311\336\037\014\026\331\013B\304\306"
  57      C9DE1F0C 
  57      16D90B42 
  57      C4C6
  58 0034 132C8221 		.ascii	"\023,\202!\022A\020,\264\323k\004[\011\006\354D,\002"
  58      1241102C 
  58      B4D36B04 
  58      5B0906EC 
  58      442C02
  59 0047 D642B492 		.ascii	"\326B\264\222\213\020\337\314l\016\321U3\2603\337\316"
  59      8B10DFCC 
  59      6C0ED155 
  59      33B033DF 
  59      CE
  60 0058 BCDF9BEF 		.ascii	"\274\337\233\357\015O@\340\367q\202\277=\336\276\317"
  60      0D4F40E0 
  60      F77182BF 
  60      3DDEBECF 
  61 0068 2B499018 		.ascii	"+I\220\030l\003}O\020i\001\302\262\240\345E2\261/\304"
  61      6C037D4F 
  61      106901C2 
  61      B2A0E545 
  61      32B12FC4 
  62 007c 9B9DFDFD 		.ascii	"\233\235\375\375\347/W_\375\240G\342\230\244\230\340"
  62      E72F575F 
  62      FDA047E2 
  62      98A498E0 
  63 008c 2022B8AC 		.ascii	" \"\270\254\310cEEV\242\304\223\344x\027\267\323tP\006"
  63      C8634545 
  63      56A2C493 
  63      E47817B7 
  63      D3745006 
  64 00a0 7CC35FE2 		.ascii	"|\303_\342Y'\275LB\257r\033+_\277<\370||\034V\245\307"
  64      5927BD4C 
  64      42AF721B 
  64      2B5FBF3C 
  64      F87C7C1C 
  65 00b7 E4C2DC4A 		.ascii	"\344\302\334J\350I\355VZ\313\323X\245\215tm.\"\363{"
  65      E849ED56 
  65      5ACBD358 
  65      A58D746D 
  65      2E22F37B 
ARM GAS  /tmp/cczjDZMM.s 			page 5


  66 00cb 85229265 		.ascii	"\205\"\222e\255\306\347w\263s\307\226\365\016+\037?"
  66      ADC6E777 
  66      B373C796 
  66      F50E2B1F 
  66      3F
  67 00dc 6DDE3B67 		.ascii	"m\336;gS\206\344\314\340\024\033]\307CF\335\220\244"
  67      5386E4CC 
  67      E0141B5D 
  67      C74346DD 
  67      90A4
  68 00ee 4E71C484 		.ascii	"Nq\304\204\326\350\340-\030z;\230\260\310\014\236\245"
  68      D6E8E02D 
  68      187A3B98 
  68      B0C80C9E 
  68      A5
  69 00ff 3C4A63A8 		.ascii	"<Jc\250\020\222\253!d\220\025\241\276\220\271\255\341"
  69      1092AB21 
  69      649015A1 
  69      BE90B9AD 
  69      E1
  70 0110 6847FC85 		.ascii	"hG\374\205\314\277.\324\245j\233\037F\273\342\300\246"
  70      CCBF2ED4 
  70      A56A9B1F 
  70      46BBE2C0 
  70      A6
  71 0121 676C9299 		.ascii	"gl\222\231=\246\373i:\025\321\321[\030\245w\264*\306"
  71      3DA6FB69 
  71      3A15D1D1 
  71      5B18A577 
  71      B42AC6
  72 0134 A6409DAD 		.ascii	"\246@\235\255\230e\023\331*\377Y\004\345\027\341dV<"
  72      986513D9 
  72      2AFF5904 
  72      E517E164 
  72      563C
  73 0146 5BC4F79C 		.ascii	"[\304\367\234\"&\362I7#\213\206\034\256\355\375IN\346"
  73      2226F249 
  73      37238B86 
  73      1CAEEDFD 
  73      494EE6
  74 0159 93F619F4 		.ascii	"\223\366\031\364\316d\346wkxx\272\220\335[\002\016\323"
  74      CE64E677 
  74      6B7878BA 
  74      90DD5B02 
  74      0ED3
  75 016b 3F557AC2 		.ascii	"?Uz\302/c\372\005\277\364K\225\236\322\264M\371\036"
  75      2F63FA05 
  75      BFF44B95 
  75      9ED2B44D 
  75      F91E
  76 017d FDDD6FAF 		.ascii	"\375\335o\257\2351\013\333\252\244[T\307\236U\215V\034"
  76      9D310BDB 
  76      AAA45B54 
  76      C79E558D 
  76      561C
  77 018f 28BF555F 		.ascii	"(\277U_R\365\240\247\374FT\213Zm\325I\272\315k\212E"
  77      52F5A0A7 
ARM GAS  /tmp/cczjDZMM.s 			page 6


  77      FC46548B 
  77      5A6DD549 
  77      BACD6B8A 
  78 01a4 D251EDC4 		.ascii	"\322Q\355\304\347\375\240\0274;\355Y\037s\377C\202\233"
  78      E7FDA017 
  78      343BED59 
  78      1F73FF43 
  78      829B
  79 01b6 1D757EA1 		.ascii	"\035u~\241r\241\242\242\246\177\275[\327\261Ip\325\217"
  79      72A1A2A2 
  79      A67FBD5B 
  79      D7B14970 
  79      D58F
  80 01c8 E7BB4D7F 		.ascii	"\347\273M\177\266\201\251\205\312\305r\255\332\016n"
  80      B681A985 
  80      CAC572AD 
  80      DA0E6E
  81 01d7 24D1E9F2 		.ascii	"$\321\351\362\3113\020\011\012q\020\267\222%\374\004"
  81      C9331009 
  81      0A7110B7 
  81      9225FC04 
  82 01e7 1DA4CE55 		.ascii	"\035\244\316U"
  83              		.text
  84              		.section	.gnu.lto_chEvtUnregister.b96ad1791c1fc7a6,"",%progbits
  85 0000 789C8D50 		.ascii	"x\234\215P\315KTQ\024\377\235{\337\3070\030\264h\341"
  85      CD4B5451 
  85      14FF9D7B 
  85      DFC73018 
  85      B468E1
  86 0013 4264366E 		.ascii	"Bd6n\232\360V\376\003\206\020\270p\3438Q\253\230y\363"
  86      9AF056FE 
  86      038610B8 
  86      70E33851 
  86      AB9879F3 
  87 0027 701EF566 		.ascii	"p\036\365f\342\315\007\271\2327\"\010\256\024\\\210"
  87      E2CD07B9 
  87      9A372208 
  87      AE145C88 
  88 0037 1F60100C 		.ascii	"\037`\020\014D\331\266E\213\214$\013\032\372\300\205"
  88      44D9B645 
  88      8B8C240B 
  88      1AFAC085 
  89 0047 AD12176D 		.ascii	"\255\022\027m\012tW+;\357]\035\007\023\352\302\275\367"
  89      0A74572B 
  89      3BEF5D1D 
  89      0713EAC2 
  89      BDF7
  90 0059 7CFC7EE7 		.ascii	"|\374~\347\234\337\021\0208{n\361Msx\201\177J\200\304"
  90      9CDF1110 
  90      387B6EF1 
  90      4D737881 
  90      7F4A80C4 
  91 006d 7C1B6826 		.ascii	"|\033h&\004\231\332\220\302x-\021&\355\366{ \3541\310"
  91      0499DA90 
  91      C2782D11 
  91      26EDF67B 
  91      20EC31C8 
ARM GAS  /tmp/cczjDZMM.s 			page 7


  92 0081 D2715B03 		.ascii	"\322q[\003n\230B\306\231\244\025\301z,\242(\014BCH\303"
  92      6E9842C6 
  92      99A415C1 
  92      7A2CA228 
  92      0C424348 
  93 0096 362D6ADC 		.ascii	"6-j\334\241\270\321s\361\352\333\321\321\306\352\334"
  93      A1B8D173 
  93      F1EADBD1 
  93      D1C6EADC 
  94 00a6 D6263D1B 		.ascii	"\326&=\033\270@\360\011\222\370\261\340\021l\266\270"
  94      B840F009 
  94      92F8B1E0 
  94      116CB6B8 
  95 00b6 BD17634D 		.ascii	"\275\027cM\314\204\341|\012pbw\202\337\003\013Y\022"
  95      CC84E17C 
  95      0A706277 
  95      82DF030B 
  95      5912
  96 00c8 FCC936A6 		.ascii	"\374\3116\246\017\177.\356\367v@9zD&\342\236\204\272"
  96      0F7F2EEE 
  96      F7764039 
  96      7A4426E2 
  96      9E84BA
  97 00db 8C344A2D 		.ascii	"\2144J-\264\037\263\264\026.\015{\024\327\271M\036\211"
  97      B41FB3B4 
  97      162E0D7B 
  97      14D7B94D 
  97      1E89
  98 00ed 546475F2 		.ascii	"Tdu\362s\307yy\272\220,;\254Hn\343\315\367\275\255\326"
  98      73C77979 
  98      BA902C3B 
  98      AC486EE3 
  98      CDF7BDAD 
  99 0102 26E9FA93 		.ascii	"&\351\372\223dM\222\335\0153\260!\345\007L\177\375\325"
  99      644D92DD 
  99      0D33B021 
  99      E5074C7F 
  99      FDD5
 100 0114 FA2D4E40 		.ascii	"\372-N@\2114.\263\210\025,s3\203\031QS\315\310\323\011"
 100      89342EB3 
 100      88152C73 
 100      33831951 
 100      53CDC8D3 
 101 0129 9749EF3E 		.ascii	"\227I\357>&5%\215'!\237k\335$\372\233\304\225\2651\301"
 101      2635258D 
 101      27219F6B 
 101      DD24FA9B 
 101      C495B531 
 102 013e 43ACBF05 		.ascii	"C\254\277\005e\231\313\233\216\007x\321\332=\235\362"
 102      6599CB9B 
 102      8E0778D1 
 102      DA3D9DF2 
 103 014e CC00E7D4 		.ascii	"\314\000\347\324\002\2661\363\2439\324%\254\243\177"
 103      02B631F3 
 103      A339D425 
 103      ACA37F
 104 015d 17C49E78 		.ascii	"\027\304\236x\371\345\022\307\355\247;}\221R\353\177"
ARM GAS  /tmp/cczjDZMM.s 			page 8


 104      F9E512C7 
 104      EDA73B7D 
 104      9152EB7F 
 105 016d F79EA3C7 		.ascii	"\367\236\243\307\\*\3363\272\366\234\243\026\365\353"
 105      5C2ADE33 
 105      BAF69CA3 
 105      16F5EB
 106 017c FA9FD03C 		.ascii	"\372\237\320<\370\274ct\270\307\232\210;D\320\353\252"
 106      F8BC6374 
 106      B8C79A88 
 106      3B44D0EB 
 106      AA
 107 018d 58F65DE5 		.ascii	"X\366]\345\224\013S\252\340\326\225S\364\362^\271\242"
 107      940B53AA 
 107      E0D69553 
 107      F4F25EB9 
 107      A2
 108 019e AA41AD74 		.ascii	"\252A\255tO\261\021TU%p8\356\326\335R\2652\350`\370"
 108      4FB11154 
 108      55257038 
 108      EED6DD52 
 108      B532E860 
 109 01b3 5F14F761 		.ascii	"_\024\367aU\215\214eF3\312+9\367k\205\010\033\270w\035"
 109      558D8C65 
 109      4633CA2B 
 109      39F76B85 
 109      081BB877 
 110 01c8 FF66ADE4 		.ascii	"\377f\255\344\014\026qq,3\236\312\347*\356\203\300\273"
 110      0C167171 
 110      2C339ECA 
 110      E72AEE83 
 110      C0BB
 111 01da 921AB80A 		.ascii	"\222\032\270\012\021\300\366]\277\034L\341\017\235\304"
 111      11C0F65D 
 111      BF1C4CE1 
 111      0F9DC4
 112 01e9 AD59     		.ascii	"\255Y"
 113              		.text
 114              		.section	.gnu.lto_chEvtGetAndClearEvents.b96ad1791c1fc7a6,"",%progbits
 115 0000 789C8D51 		.ascii	"x\234\215QAk\023Q\020\376\346m\222M+B\361P\364R\026"
 115      416B1351 
 115      10FEE66D 
 115      924D2B42 
 115      F150F452 
 116 0015 C18B953E 		.ascii	"\301\213\225>\021\004\217\005\241\320C/\246\202\245"
 116      11048F05 
 116      A1D0432F 
 116      A682A5
 117 0024 0749364B 		.ascii	"\007I6K\363\320Md\223\224\026\017}I*(\364\020\332R\264"
 117      F3D04D64 
 117      9394160F 
 117      7D492A28 
 117      F410DA52 
 118 0039 A5602908 		.ascii	"\245`)\010z\261x\320C{\350\037\260\340I,=\004\372\003"
 118      7AB178D0 
 118      437BE81F 
 118      B0E0492C 
ARM GAS  /tmp/cczjDZMM.s 			page 9


 118      3D04FA03 
 119 004d C4A35288 		.ascii	"\304\243R\210\363\336n\202zP\337\2623\2633\363}\363"
 119      F3DE6E82 
 119      7A50DFB2 
 119      33B333F3 
 119      7DF3
 120 005f BD590181 		.ascii	"\275Y\001\201?\317%~g9\275\306\236\034\220h\037\001"
 120      3FCF257E 
 120      6739BDC6 
 120      9E1C9068 
 120      1F01
 121 0071 8DAC2032 		.ascii	"\215\254 2\001\010K\202\226f\310\264\322e\354h\275\332"
 121      01084B82 
 121      9666C8B4 
 121      D265EC68 
 121      BDDA
 122 0083 79F2EE3B 		.ascii	"y\362\356;\275\320\207\313/\365Y\267K\244\210io\022"
 122      BDD087CB 
 122      2FF559B7 
 122      4BA48869 
 122      6F12
 123 0095 7CC23DFE 		.ascii	"|\302=\376 \317:\221\372}\316[q\330\351v\317>wN\277"
 123      20CF3A91 
 123      FA7DCE5B 
 123      71D8E976 
 123      CF3E774E 
 124 00aa D085F30E 		.ascii	"\320\205\363\016\0249)6\2514\205\204\014\362\264\303"
 124      14392936 
 124      A9348584 
 124      0CF2B4C3 
 125 00ba F4AEC964 		.ascii	"\364\256\311d\215aD\032\313Z\267\275\270\002C\317g\232"
 125      8D61441A 
 125      CB5AB7BD 
 125      B80243CF 
 125      679A
 126 00cc AD117697 		.ascii	"\255\021v\227\204\361\316\021\232\337\276\256\237^L"
 126      84F1CE11 
 126      9ADFBEAE 
 126      9F5E4C
 127 00db 9AC144BB 		.ascii	"\232\301D\273\224\266j\371Yp\314\215\235\370\332#xF"
 127      94B66AF9 
 127      5970CC8D 
 127      9DF8DA23 
 127      7846
 128 00ed DBFAF9B8 		.ascii	"\333\372\371\270\212\353Fd\3063Q\277\276\222\324\335"
 128      8AEB4664 
 128      C63351BF 
 128      BE92D4DD 
 129 00fd 58F24734 		.ascii	"X\362G4\217O\3666\334\230r\216\234Q\\U\211\315na\263"
 129      8F4FF636 
 129      DC98728E 
 129      9C515C55 
 129      89CD6E61 
 130 0112 A1F590A2 		.ascii	"\241\365\220\242\201\307\370\241\237\232h0$J\210\007"
 130      81C7F8A1 
 130      9F9A6830 
 130      244A8807 
ARM GAS  /tmp/cczjDZMM.s 			page 10


 131 0122 2D418190 		.ascii	"-A\201\220\370$\260\224\355>a\312R\201\251\030r\216"
 131      F824B094 
 131      ED3E61CA 
 131      5281A918 
 131      728E
 132 0134 0718A893 		.ascii	"\007\030\250\223@D\037\322\332o\015\367 \031F\315\231"
 132      40441FD2 
 132      DA6F0DF7 
 132      201946CD 
 132      99
 133 0145 0B30D341 		.ascii	"\0130\323A\353\303\306\255^\301M\262\334\374\236z\311"
 133      EBC3C6AD 
 133      5EC14DB2 
 133      DCFC9E7A 
 133      C9
 134 0156 ACED766D 		.ascii	"\254\355vm\367d\234\034\305\033mu\377u,C\201\377\331"
 134      F7649C1C 
 134      C51B6D75 
 134      FF752C43 
 134      81FFD9
 135 0169 6D9E5E31 		.ascii	"m\236^1\324\356\022\277\3542O\257i$\326\377\011\215"
 135      D4EE12BF 
 135      EC324FAF 
 135      6924D6FF 
 135      098D
 136 017b BDE66C5F 		.ascii	"\275\346l_\177\234\234\346\215\360\3573\2757d\251\022"
 136      7F9C9CE6 
 136      8DF0EF33 
 136      BD3764A9 
 136      12
 137 018c 06D2AF14 		.ascii	"\006\322\257\024\027e1\230\227~I\025T\245*kQ\275\374"
 137      17653198 
 137      977E4915 
 137      54A52A6B 
 137      51BDFC
 138 019f 407210D5 		.ascii	"@r\020\325d5\3629\037\314\007\345Zu\314\007\205\343"
 138      6435F239 
 138      1FCC07E5 
 138      5A75CC07 
 138      85E3
 139 01b1 FF02050B 		.ascii	"\377\002\005\0135y{*7\231\223\252\354?\254\027Mo\024"
 139      35797B2A 
 139      379993AA 
 139      EC3FAC17 
 139      4D6F14
 140 01c4 DCF7C389 		.ascii	"\334\367\303\211z\331\037+ah*w\307+\344\253\301\243"
 140      7AD91F2B 
 140      61682A77 
 140      C72BE4AB 
 140      C1A3
 141 01d6 485DF3AE 		.ascii	"H]\363\256\\\207\210\340\206AX\211\026\361\023\210\214"
 141      5C8788E0 
 141      86415889 
 141      16F11388 
 141      8C
 142 01e7 ACE3     		.ascii	"\254\343"
 143              		.text
ARM GAS  /tmp/cczjDZMM.s 			page 11


 144              		.section	.gnu.lto_chEvtAddEvents.b96ad1791c1fc7a6,"",%progbits
 145 0000 789C8D51 		.ascii	"x\234\215Q=K\003A\020}\263\227/\261\320R\013C\032\033"
 145      3D4B0341 
 145      107DB397 
 145      2FB1D052 
 145      0B431A1B 
 146 0014 1557FC05 		.ascii	"\025W\374\005\202 \244\2601\021\264\012\311\3450\207"
 146      8220A4B0 
 146      3111B40A 
 146      C9E53087 
 147 0024 5E22970F 		.ascii	"^\"\227\017\024\213\\\242\240h\023AP\024\013A\020,T"
 147      148B5CA2 
 147      A0681341 
 147      50140B41 
 147      102C54
 148 0037 C4C6CE1F 		.ascii	"\304\306\316\037\240\202\235\210\205h-hk\243\263{&\210"
 148      A0829D88 
 148      85682D68 
 148      6BA3B37B 
 148      2688
 149 0049 8D2EECCC 		.ascii	"\215.\354\314\333\331yogf\005\004~\257n\336\317\004"
 149      DBD9796F 
 149      67660504 
 149      7EAF6EDE 
 149      CF04
 150 005b 6CB22703 		.ascii	"l\262'\003$\032\267@-\"\210\024\000\241*\250:M:\367"
 150      241AB740 
 150      2D228814 
 150      00A12AA8 
 150      3A4D3AF7 
 151 006f 545C3D7D 		.ascii	"T\\=}~\236\334o\\\\\323\251h7`\023\002l(H\016!\244\020"
 151      7E9EDC6F 
 151      5C5CD3A9 
 151      68376013 
 151      026C2848 
 152 0087 6705B1E2 		.ascii	"g\005\261\342y\215\030`jV\222\255\222\232$\241\274q"
 152      798D1860 
 152      6A5692AD 
 152      929A24A1 
 152      BC71
 153 0099 8BFAFBEB 		.ascii	"\213\372\373\353\326KW+-M\007\024\204~\213P1T\215\206"
 153      D64B572B 
 153      2D4D0714 
 153      847E8B50 
 153      31548D86 
 154 00ad 5F6814AB 		.ascii	"_h\024\253\264\357\355\214\330\244\217Sd\223\021S\250"
 154      B4EFED8C 
 154      D8A48F53 
 154      64931153 
 154      A8
 155 00be 75BFFE7D 		.ascii	"u\277\376}\037\360\233\271A\375\341\361i\273\307\227"
 155      1FF09BB9 
 155      41FDE1F1 
 155      69BBC797 
 156 00ce 9C21A31F 		.ascii	"\234!\243\037}\\\243\266\301=\354\326<\257\323\246\320"
 156      7D5CA3B6 
 156      C13DECD6 
ARM GAS  /tmp/cczjDZMM.s 			page 12


 156      3CAFD3A6 
 156      D0
 157 00df 123EBC35 		.ascii	"\022>\2745\205\302\216\256X\011\207\265@\306o\224\375"
 157      85C28EAE 
 157      580987B5 
 157      40C66F94 
 157      FD
 158 00f0 37D0926F 		.ascii	"7\320\222o\035M\301@?\216=-\022a9\246\265\361#\212\336"
 158      1D4DC140 
 158      3F8E3D2D 
 158      126139A6 
 158      B5F1238A 
 159 0105 A489166D 		.ascii	"\244\211\026m\371\322h\262BL\234Q=\262X\334\017\376"
 159      F9D268B2 
 159      424C9C51 
 159      3DB258DC 
 159      0FFE
 160 0117 4F87A9C0 		.ascii	"O\207\251\300\177\006\226\246C\376<= \374\030P\232\216"
 160      7F0696A6 
 160      43FE3C3D 
 160      20FC1850 
 160      9A8E
 161 0129 28EA4BDE 		.ascii	"(\352K\336\241vv\236jU\344\007\223\334&\377\211\312"
 161      A176769E 
 161      6A55E407 
 161      93DC26FF 
 161      89CA
 162 013b 1D96B982 		.ascii	"\035\226\271\202cI\263\220]\224Y\253\"\315\234\235\261"
 162      6349B390 
 162      5D9459AB 
 162      22CD9C9D 
 162      B1
 163 014c 0B455972 		.ascii	"\013EYr\313\371Y\311\300-\311\242kr\334\252X\371Rq\320"
 163      CBF959C9 
 163      C02DC9A2 
 163      6B72DCAA 
 163      58F95271 
 164 0161 C4C85F14 		.ascii	"\304\310_\024k\241$G\307\023\361\204\264\363\346\\9"
 164      6BA12447 
 164      C713F184 
 164      B4F3E65C 
 164      39
 165 0172 AB725D2B 		.ascii	"\253r]+e:c\345\2749\230C\347xb\"\226I\027\255y\327\036"
 165      653A63E5 
 165      BC399843 
 165      E7786222 
 165      964917AD 
 166 0189 88F50E41 		.ascii	"\210\365\016A\270\010;\226Sp\027\361\005\351?\221\344"
 166      B8083B96 
 166      537017F1 
 166      05E93F91 
 166      E4
 167              		.text
 168              		.section	.gnu.lto_chEvtGetAndClearFlags.b96ad1791c1fc7a6,"",%progbits
 169 0000 789C8D50 		.ascii	"x\234\215P;H\003A\020\235\331K\374\024\202`c\0329\004"
 169      3B480341 
 169      109DD94B 
ARM GAS  /tmp/cczjDZMM.s 			page 13


 169      FC148260 
 169      631A3904 
 170 0014 2B252B82 		.ascii	"+%+\202\245 \010\202E\032\243\240\225\\6gr\350%r\227"
 170      A5200882 
 170      451AA3A0 
 170      955C3667 
 170      72E82572 
 171 0029 04034A2E 		.ascii	"\004\003J.\242\245\020D\360\207\250\010\2026ZZ\010F"
 171      A2A51044 
 171      F087A808 
 171      82365A5A 
 171      0846
 172 003b 3B0B055B 		.ascii	";\013\005[\261\010\244\325\302JP!\316\336%Am\342,{3"
 172      B108A4D5 
 172      C24A5021 
 172      CEDE2541 
 172      6DE22C7B 
 173 0050 3BFBDEDB 		.ascii	";\373\336\333y\307\200\301\337\010\320\276F\200-\312"
 173      79C780C1 
 173      DF08D0BE 
 173      46802DCA 
 174 0060 A800B2C2 		.ascii	"\250\000\262\302\003@\276\205!\312\002\020r\014s\323"
 174      0340BE85 
 174      21CA0210 
 174      720C73D3 
 175 0070 28A1D80D 		.ascii	"(\241\330\015G\216\263QZ{\277a;Nq\365\320\371\252T\020"
 175      478EB351 
 175      5A7BBF61 
 175      3B4E71F5 
 175      D0F9AA54 
 176 0085 0D24D941 		.ascii	"\015$\331A\004\2010E\007T\335\304|\277\3379g\305R\245"
 176      04813045 
 176      0754DDC4 
 176      7CBFDF39 
 176      67C552A5 
 177 0099 72F5F952 		.ascii	"r\365\371R~\305\216V\005M\004\037hxD\242\024~Xu\234"
 177      7EC58E56 
 177      054D041F 
 177      687844A2 
 177      147E5875 
 178 00ae 825A3B0B 		.ascii	"\202Z;\013\367\275\011\372\312!&\221\311\254<\300\312"
 178      F7BD09FA 
 178      CA212691 
 178      C9AC3CC0 
 178      CA
 179 00bf DBE766B9 		.ascii	"\333\347f\271\263\012\006\242\037\243\337\235\214\326"
 179      B30A06A2 
 179      1FA3DF9D 
 179      8CD6
 180 00cd 9222DD29 		.ascii	"\222\"\335)\236\305.X\307}g{\330 K\024r \237*\253\372"
 180      9EC52E58 
 180      C77D677B 
 180      D8204B14 
 180      72209F2A 
 181 00e3 7DA17AEF 		.ascii	"}\241z\357\367\306\273\207\225\247\347\303\203\200'"
 181      F7C6BB87 
 181      95A7E7C3 
ARM GAS  /tmp/cczjDZMM.s 			page 14


 181      838027
 182 00f2 19435F2F 		.ascii	"\031C_/\2349\024C\344n\017v\211\337\024CE\3524\273\370"
 182      9C391443 
 182      E46E0F76 
 182      89DF1443 
 182      45EA34BB 
 183 0107 08D68C11 		.ascii	"\010\326\214\021\363\362\362\343\216y\314*\255\255\001"
 183      F3F2F2E3 
 183      8E79CC2A 
 183      ADAD01
 184 0116 4D76DCE2 		.ascii	"Mv\334\342?\2364<!\033\256\007\370\341A\303S\354\362"
 184      3F9E343C 
 184      211BAE07 
 184      F8E141C3 
 184      53ECF2
 185 0129 E41E217F 		.ascii	"\344\036!\177q\273\\\237\335kN \312\337&\261\003<\236"
 185      71BB5C9F 
 185      DD6B4E20 
 185      CADF26B1 
 185      033C9E
 186 013c 34752E92 		.ascii	"4u.\222\321,\217\352\031.\342F\304H\332<e\245\023s\234"
 186      D12C8FEA 
 186      192EE246 
 186      C448DA3C 
 186      65A51373 
 187 0151 0A2BC56D 		.ascii	"\012+\305mKP_\317\350\211\224\035\024\340\237\235\327"
 187      4B505FCF 
 187      E889941D 
 187      14E09F9D 
 187      D7
 188 0162 62F67023 		.ascii	"b\366p#\242\276\230\342#\241\360X\230\033\0111\237\216"
 188      A2BE98E2 
 188      23A1F058 
 188      981B0931 
 188      9F8E
 189 0174 4AACA5CF 		.ascii	"J\254\245\317\010s4\235\020\3018\264\207\302\343jD\263"
 189      0873349D 
 189      10C138B4 
 189      87C2E36A 
 189      44B3
 190 0186 F505CBE8 		.ascii	"\365\005\313\350S{\372\201Y\320l\352f\322\312\3027\350"
 190      537BFA81 
 190      59D06CEA 
 190      66D2CAC2 
 190      37E8
 191 0198 E59523   		.ascii	"\345\225#"
 192              		.text
 193              		.section	.gnu.lto_chEvtSignalI.b96ad1791c1fc7a6,"",%progbits
 194 0000 789CAD52 		.ascii	"x\234\255R\275kTA\020\237\331}_\367\336I,\222\302B\320"
 194      BD6B5441 
 194      109FD97D 
 194      5FF7DE49 
 194      2C92C242 
 195 0015 4A34E813 		.ascii	"J4\350\023\211`\376\004\373\034\304*\230\227\343\262"
 195      8960FE04 
 195      FB1CC42A 
 195      9897E3B2 
ARM GAS  /tmp/cczjDZMM.s 			page 15


 196 0025 48727077 		.ascii	"Hrpw\006$E\366\222+b\027R\035I\243\255E\016\002J\202"
 196      062445F6 
 196      922B6217 
 196      521D49A3 
 196      AD450E02 
 197 003b 161E09C1 		.ascii	"\026\036\011\301\257(^%W\035)bc\221\322\017$\316\354"
 197      AF285E25 
 197      571D2962 
 197      6391D20F 
 197      24CEEC
 198 004e BB77BE93 		.ascii	"\273w\276\223\200)\262\260\263\277\331\231\371\315o"
 198      8029B2B0 
 198      B3BFD999 
 198      F9CD6F
 199 005d 3F0408F8 		.ascii	"?\004\010\370wL\320\274,\001FhE\017P\254|\004\250zB"
 199      774CD0BC 
 199      2C014668 
 199      450F50AC 
 199      7C04A87A 
 200 0072 C8A321D0 		.ascii	"\310\243!\320\276\365\344\016\350\254\024\316\362\025"
 200      BEF5E40E 
 200      E8AC14CE 
 200      F215
 201 0080 F6D8662D 		.ascii	"\366\330f-a\357]$\317}w\223<[8)\317A7&p\021\031\000"
 201      61EF5D24 
 201      CF7D7793 
 201      3C5B3829 
 201      CF413726 
 202 0098 C2829096 		.ascii	"\302\202\220\226\355\270\270p\017M\307\206x\3359>\336"
 202      EDB8B870 
 202      0F4DC786 
 202      78DD393E 
 202      DE
 203 00a9 68B75EBC 		.ascii	"h\267^\274\302\017b@\342\014\202\005\012\301&\204\016"
 203      C20F6240 
 203      E20C8205 
 203      0AC12684 
 203      0E
 204 00ba 238F0C66 		.ascii	"#\217\014f\030\371l\0026Y64l\250i\275r\011 2\356\030"
 204      18F96C02 
 204      36593634 
 204      6CA869BD 
 204      72092032 
 205 00d0 596E9443 		.ascii	"Yn\224C\301\253\334\207\305\366\227\215\226\270\217"
 205      C1ABDC87 
 205      C5F6978D 
 205      96B88F
 206 00df 4FD18602 		.ascii	"O\321\206\002Z\303\360Lk}^\241X\2075T(\013(\307i\265"
 206      5AC3F04C 
 206      6B7D5EA1 
 206      58873554 
 206      280B28C7 
 207 00f5 8C98494C 		.ascii	"\214\230IL.b\037\226\266eR\345Pa\201\020\355.\336\215"
 207      2E621F96 
 207      B66552E5 
 207      50618110 
 207      ED2EDE8D 
ARM GAS  /tmp/cczjDZMM.s 			page 16


 208 0109 374FC743 		.ascii	"7O\307C\245\246\250]o\2641a\363\206\341\232B\373\344"
 208      A5A6A85D 
 208      6FB43161 
 208      F386E19A 
 208      42FBE4
 209 011c BA44C01B 		.ascii	"\272D\300\033\330\375Z=\327+\341\024\364S\017\225C\011"
 209      D8FD5A3D 
 209      D72BE114 
 209      F4530F95 
 209      4309
 210 012e 4743E67C 		.ascii	"GC\346|[\215\226\225$f\014\267\210\325\351y\205\316"
 210      5B8D9695 
 210      24660CB7 
 210      88D5E979 
 210      85CE
 211 0140 C96D4477 		.ascii	"\311mDw\225\177\217\373r\351\260'\3217g\316\260\214"
 211      957F8FFB 
 211      72E9B027 
 211      D13767CE 
 211      B08C
 212 0152 DAB7E68F 		.ascii	"\332\267\346\217\325\353\275\000\223\364\375\230\034"
 212      D5EBBD00 
 212      93F4FD98 
 212      1C
 213 015f 71D67740 		.ascii	"q\326w@\262\340\346\257\325\333\375\222\203\276L\033"
 213      B2E0E6AF 
 213      D5DBFD92 
 213      83BE4C1B 
 214 016f 9E5F3092 		.ascii	"\236_0\222\277\247$\007g#9k$\007\361\3155\177\267z\222"
 214      BFA72407 
 214      6723396B 
 214      2407F1CD 
 214      357FB77A 
 215 0184 038AA545 		.ascii	"\003\212\245E8\2607\310\"\266\352\233\007\"\375\230"
 215      38B037C8 
 215      22B6EA9B 
 215      0722FD98 
 216 0194 7A54A1DB 		.ascii	"zT\241\333\205\003\377\225\021\373\034q\031|\202Z\347"
 216      8503FF95 
 216      11FB1C71 
 216      197C825A 
 216      E7
 217 01a5 ED633FE6 		.ascii	"\355c?\346\003\230\207\237z\231\277\207\027u\237\224"
 217      0398879F 
 217      7A99BF87 
 217      17759F94 
 218 01b5 6814DF68 		.ascii	"h\024\337h,\3025\277\3633T;\357\257&5\361\030\243|\212"
 218      2CC235BF 
 218      F333543B 
 218      EFAF2635 
 218      F118A37C 
 219 01ca 719B5BE1 		.ascii	"q\233[\341tq&\037F\305\251G\341T~.\214\246\325\244*"
 219      7471261F 
 219      46C5A947 
 219      E1547E2E 
 219      8CA6D5A4 
 220 01df 96C34AE9 		.ascii	"\226\303J\351\341\354\203\220@\251\022\226K\021\355"
ARM GAS  /tmp/cczjDZMM.s 			page 17


 220      E1EC8390 
 220      40A91296 
 220      4B11ED
 221 01ee E7E7F2B3 		.ascii	"\347\347\362\263\225\362\215\010\376\000eS\305G"
 221      95F28D08 
 221      FE006553 
 221      C547
 222              		.text
 223              		.section	.gnu.lto_chEvtBroadcastFlagsI.b96ad1791c1fc7a6,"",%progbits
 224 0000 789C8D53 		.ascii	"x\234\215S\315k\023A\024\177ofgw\223lJ\274\350\305C"
 224      CD6B1341 
 224      147F6F66 
 224      6777936C 
 224      4ABCE8C5 
 225 0015 F15230E8 		.ascii	"\361R0\350BA\264\007\377\000\357-((\322n\226\355\242"
 225      4241B407 
 225      FF00EF2D 
 225      2828D26E 
 225      96EDA2
 226 0028 6D248905 		.ascii	"m$\211\005\361\320I\272\205\036\212\024O~\\,\336\274"
 226      F1D049BA 
 226      851E8A14 
 226      4F7E5C2C 
 226      DEBC
 227 003a 287851AA 		.ascii	"(xQ\252\222\200\240\202\255\012^Z\024rR\264\365\003"
 227      9280A082 
 227      AD0A5E5A 
 227      147252B4 
 227      F503
 228 004c A4285248 		.ascii	"\244(RH\337\354WL\255\340\300\276\231\367x\357\367\373"
 228      DFEC574C 
 228      ADE0C0BE 
 228      99F778EF 
 228      F7FB
 229 005e BD37B30C 		.ascii	"\2757\263\014\030\354\\.}\2479\3001\3321\003\310\026"
 229      18EC5C2E 
 229      7DA739C0 
 229      31DA3103 
 229      C816
 230 0070 5600EA26 		.ascii	"V\000\352&C#:p&\336\356\005\231\325\036\035\005iiL\314"
 230      43233A70 
 230      26DEEE05 
 230      99D51E1D 
 230      0569694C 
 231 0085 0D90A72B 		.ascii	"\015\220\247+k\011\324\243$=\312n\231\006\343\363\317"
 231      6B09D4A3 
 231      243DCA6E 
 231      9906E3F3 
 231      CF
 232 0096 8012CCC0 		.ascii	"\200\022\314\300\240\004\023Q\305\001a\232qM\350\206"
 232      A0041351 
 232      C501619A 
 232      714DE886 
 233 00a6 89D3A750 		.ascii	"\211\323\247P\321\342\001X\224\362j{\366\363'v]6\203"
 233      D1E20158 
 233      94F26A7B 
 233      F6F32776 
ARM GAS  /tmp/cczjDZMM.s 			page 18


 233      5D3683
 234 00b9 5B72ABD3 		.ascii	"[r\253\323A\364\221$\036Ap\020N\222\203\375\341\306"
 234      41F49124 
 234      1E417010 
 234      4E9283FD 
 234      E1C6
 235 00cb B45ECD77 		.ascii	"\264^\315wY\263\335\351l\375\2707\277\201Kl\017\302"
 235      59B3DDE9 
 235      6CFDB837 
 235      BF814B6C 
 235      0FC2
 236 00dd 282E12A0 		.ascii	"(.\022\240\300\011\004=v\014\360\221\233\024\241\246"
 236      C009043D 
 236      760CF091 
 236      9B14A1A6 
 237 00ed E89453C6 		.ascii	"\350\224S\306R&OF\353S\247B\234JK@ \345B\177\342;\241"
 237      52264F46 
 237      EB53A742 
 237      9C4A4B40 
 237      20E5427F 
 238 0104 C661B2D4 		.ascii	"\306a\262\324\306\0102\332\37024\326\036\254\017\215"
 238      C60832DA 
 238      F83234D6 
 238      1EAC0F8D 
 239 0114 E26D14E0 		.ascii	"\342m\024\340\241^\204;\222\326\020I\276\0117H\245\360"
 239      A15E843B 
 239      92D61049 
 239      BE093748 
 239      A5F0
 240 0126 5028B57A 		.ascii	"P(\265z\250q\014\377T<\202\034h0!\310\257\365U\226\240"
 240      A8710CFF 
 240      543C821C 
 240      683021C8 
 240      AFF55596 
 241 013b 18114AC1 		.ascii	"\030\021J\301G#\0021=D\005\0021H\202\262\0143\017yR"
 241      47230231 
 241      3D440502 
 241      314882B2 
 241      0C330F79 
 242 0150 95A1420F 		.ascii	"\225\241B\017M\025m\234\210\202\377\207C\245\000\317"
 242      4D156D9C 
 242      8882FF87 
 242      43A500CF 
 243 0160 E1E9C7D6 		.ascii	"\341\351\307\326\346\025+A3U\036\357U\253\301\343\301"
 243      E6152B41 
 243      33551EEF 
 243      55ABC1E3 
 243      C1
 244 0171 50ECEB7D 		.ascii	"P\354\353}IZ\256\010\007\377\011\317\2722\227f>\244"
 244      495AAE08 
 244      07FF09CF 
 244      BA329766 
 244      3EA4
 245 0183 ED59A1D6 		.ascii	"\355Y\241\326\234\342\0146\352g\322\360.\214\002\276"
 245      9CE20C36 
 245      EA67D2F0 
 245      2E8C02BE 
ARM GAS  /tmp/cczjDZMM.s 			page 19


 246 0193 1C8AC6F3 		.ascii	"\034\212\306\363\265;\236|\310\251\021g\235\272;\373"
 246      B53B9E7C 
 246      C8A91167 
 246      9DBA3BFB 
 247 01a3 372F4F79 		.ascii	"7/Oy\033k\337\263IY_X\226\211\313\356\357\2427yP\257"
 247      1B6BDFB3 
 247      49595F58 
 247      9689CBEE 
 247      EFA23779 
 248 01b9 60B6598C 		.ascii	"`\266Y\214\312\000.\303o9\247f\230u\322y\345\011\315"
 248      CA002EC3 
 248      6F39A766 
 248      9875D279 
 248      E509CD
 249 01cc 571D442A 		.ascii	"W\035D*\365\364\026\257}{\201\011_!~\013\307\323\267"
 249      F5F416AF 
 249      7D7B8109 
 249      5F217E0B 
 249      C7D3B7
 250 01df B0934FF4 		.ascii	"\260\223O\364\364j\000\375\025\\\315\244\365~%\275\007"
 250      F46A00FD 
 250      155CCDA4 
 250      F57E25BD 
 250      07
 251 01f0 F4BA69AB 		.ascii	"\364\272i\253@\236\316\336m\356't\375\345\317\222*3"
 251      409ECEDE 
 251      6DEE2774 
 251      FDE5CF92 
 251      2A33
 252 0202 D5337C03 		.ascii	"\3253|\003\365\366\223\201Dr\264\206In`\250;\030\264"
 252      F5F69381 
 252      4472B486 
 252      496E60A8 
 252      3B18B4
 253 0215 C7CB13AE 		.ascii	"\307\313\023\256\355\224K\227\354\222;e;\343\376\230"
 253      ED944B97 
 253      EC923B65 
 253      3BE3FE98 
 254 0225 5FAEDAB5 		.ascii	"_\256\332\265\312\305\311s6\035*5\273Zq(\356N\271\223"
 254      CAC5C973 
 254      361D2A35 
 254      BB5A7128 
 254      EE4EB993 
 255 0239 B5EA6107 		.ascii	"\265\352a\007\270{\376\3026\313\267\325\243"
 255      B87BFEC2 
 255      36CBB7D5 
 255      A3
 256              		.text
 257              		.section	.gnu.lto_chEvtSignal.b96ad1791c1fc7a6,"",%progbits
 258 0000 789C8D50 		.ascii	"x\234\215P=K\003A\020\235\331\315\251\244J\251M\270"
 258      3D4B0341 
 258      109DD9CD 
 258      A9A44AA9 
 258      4DB8
 259 0012 C64EB2E2 		.ascii	"\306N\262\342/\010\010\202E\032\243\240\225\\6K\262"
 259      2F080882 
 259      451AA3A0 
ARM GAS  /tmp/cczjDZMM.s 			page 20


 259      955C364B 
 259      B2
 260 0023 E8DDC9DD 		.ascii	"\350\335\311\335%\030Dr\361\003E\020\023\260\260\261"
 260      25184472 
 260      F1034510 
 260      13B0B0B1 
 261 0033 10043BED 		.ascii	"\020\004;\355\254\305\312*\342?\010XY\010\321R\304\270"
 261      ACC5CA2A 
 261      E23F0858 
 261      5908D152 
 261      C4B8
 262 0045 7B178368 		.ascii	"{\027\203h\241\013;3\354\274y\363\366\021 \360\363\214"
 262      A10B3B33 
 262      ECBC79F3 
 262      F61120F0 
 262      F38C
 263 0057 A9BB8000 		.ascii	"\251\273\200\000-\225\221\002\222f\033\2401B\020u\001"
 263      2D959102 
 263      92661BA0 
 263      31421075 
 263      01
 264 0068 087582F5 		.ascii	"\010u\202\365%\214\260W\344\246\323\353]~\034]\277\343"
 264      258CB057 
 264      E4A6D3EB 
 264      5D7E1C5D 
 264      BFE3
 265 007a 1D4952B4 		.ascii	"\035IR\264\021\022*\350\256\001;a\3304\001x\204\235"
 265      11122AE8 
 265      AE013B61 
 265      D8340178 
 265      849D
 266 008c 5751132C 		.ascii	"WQ\023, \321\231\266a\353\345\371\370qt\000\263\360"
 266      20D199B6 
 266      61EBE5F9 
 266      F8717400 
 266      B3F0
 267 009e 0C0D8836 		.ascii	"\014\015\2106 T\251VFcyi\330\303\323\360$+\343\245\213"
 267      2054A956 
 267      46637969 
 267      D8C3D3F0 
 267      242BE3A5 
 268 00b3 28114D5D 		.ascii	"(\021M]\015\372\007\375~\3777\367\260\333\275mm~1n\300"
 268      0DFA07FD 
 268      7EFF37F7 
 268      B0DBBD6D 
 268      6D7E316E 
 269 00c8 5BB81FA6 		.ascii	"[\270\037\246$R\2161E\011i\011\023\022\023\032\273\335"
 269      24528E31 
 269      45096909 
 269      1312131A 
 269      BBDD
 270 00da 397C4AFE 		.ascii	"9|J\376\302\032\274\317&q\010\340?j-<W~E\352\340\233"
 270      C21ABCCF 
 270      267108E0 
 270      3F6A2D3C 
 270      577E45EA 
 271 00f0 3A0B2F30 		.ascii	":\013/0\035\353z\200F\367\265e\014f!6\006\265!\032;"
ARM GAS  /tmp/cczjDZMM.s 			page 21


 271      1DEB7A80 
 271      46F7B565 
 271      0C662136 
 271      06B5211A 
 272 0105 C5CAAE2D 		.ascii	"\305\312\256-\030w\2135V\024U\306\313\262 ]\237\005"
 272      18778B35 
 272      561455C6 
 272      CBB2205D 
 272      9F05
 273 0117 5EC55961 		.ascii	"^\305Ya\252\360\002\346{\\\275\213\252p\002?\303!\373"
 273      AAF002E6 
 273      7B5CBD8B 
 273      AA70023F 
 273      C321FB
 274 012a D788580F 		.ascii	"\327\210X\017\330t.?\233g\322\341\253\225\242\306zb"
 274      D8742E3F 
 274      9B67D2E1 
 274      AB95A2C6 
 274      7A62
 275 013c 99DB3315 		.ascii	"\231\3333\025\207g\312\220\312\345\347\314\202\345\213"
 275      8767CA90 
 275      CAE5E7CC 
 275      82E58B
 276 014b 354F4E98 		.ascii	"5ON\230\343\223@<\030\266\205\355z5\370\004m\312|\015"
 276      E393403C 
 276      18B685ED 
 276      7A35F804 
 276      6DCA7C0D 
 277              		.text
 278              		.section	.gnu.lto_chEvtBroadcastFlags.b96ad1791c1fc7a6,"",%progbits
 279 0000 789C6362 		.ascii	"x\234cb`b@\007\222@\034\306\310\3000\021H32302M8\307"
 279      60624007 
 279      92401CC6 
 279      C8C03011 
 279      48333233 
 280 0019 C0D0C8C1 		.ascii	"\300\320\310\301\304\310\010b002\32431\326G2\202\325"
 280      C4C80862 
 280      303032D4 
 280      3331D647 
 280      3282D5
 281 002c AE673AF0 		.ascii	"\256g:\360\340\377\377uW.\037=\310\370C\223\213\231"
 281      E0FFFF75 
 281      572E1F3D 
 281      C8F84393 
 281      8B99
 282 003e 31979181 		.ascii	"1\227\221\201\005H\200dY\031Z\032\032&(00$\203\325\206"
 282      05488064 
 282      59195A1A 
 282      1A262830 
 282      302483D5 
 283 0053 00499001 		.ascii	"\000I\220\001\241\214L \232\371\034C\323\307\267S\036"
 283      A18C4C20 
 283      9AF91C43 
 283      D3C7B753 
 283      1E
 284 0064 4BC09525 		.ascii	"K\300\225%2.dde\000\333\300\310P\306\014r\0313\304y"
 284      322E6464 
ARM GAS  /tmp/cczjDZMM.s 			page 22


 284      6500DBC0 
 284      C850C60C 
 284      721933C4 
 285 0079 720CED8C 		.ascii	"r\014\355\214s\033f8dB,\215`\314ddT\000\261\340\362"
 285      731B6638 
 285      64422C8D 
 285      60CC6464 
 285      5400B1E0 
 286 008e 5D5079A8 		.ascii	"]Py\250o\3163\264~\2704w/#\314\310j\206_\015\035\015"
 286      6FCE33B4 
 286      7EB83477 
 286      2F23CCC8 
 286      6A865F0D 
 287 00a4 02998CCC 		.ascii	"\002\231\214\314\311\214\0203\322\031\231\323\031Y2"
 287      C98C1033 
 287      D21999D3 
 287      195932
 288 00b3 1959408A 		.ascii	"\031Y@\212\233\037\274{\311\205\241\2265\031j\\&#\033"
 288      9B1FBC7B 
 288      C985A196 
 288      35196A5C 
 288      26231B
 289 00c6 030331CE 		.ascii	"\003\0031\316Md\\\002\0140\260\363\030\220\234\227\310"
 289      4D645C02 
 289      0C30B0F3 
 289      18909C97 
 289      C8
 290 00d7 B89C510E 		.ascii	"\270\234Q\016\342\260\213\014\215\037\232\346\263\302"
 290      E2B08B0C 
 290      8D1F9AE6 
 290      B3C2
 291 00e5 F5324042 		.ascii	"\3652@B\206\021\024\" \265F\372\031\371\271\251\372"
 291      86111422 
 291      20B546FA 
 291      19F9B9A9 
 291      FA
 292 00f6 C9F92995 		.ascii	"\311\371)\225\372)\251e\372\311\031\231I\231\371\305"
 292      FA29A965 
 292      FAC91999 
 292      4999F9C5 
 293 0106 FA2545A5 		.ascii	"\372%E\245y\331\372@FQ\211~qQ2P<\265,5\257\244X/\231"
 293      79D9FA40 
 293      4651897E 
 293      71513250 
 293      3CB52C35 
 294 011f C1819096 		.ascii	"\301\201\220\226\324\212\022}g\337`\317`\375\314\274"
 294      D48A127D 
 294      67DF60CF 
 294      60FDCCBC 
 295 012f E49CD214 		.ascii	"\344\234\322\024\220\332\242\324\370\344\\\267\322\274"
 295      90DAA2D4 
 295      F8E45CB7 
 295      D2BC
 296 013d 64BD0C06 		.ascii	"d\275\014\006\001\337\340 \205\244\304\342\324\202\242"
 296      01DFE020 
 296      85A4C4E2 
 296      D482A2
ARM GAS  /tmp/cczjDZMM.s 			page 23


 297 014c 4C1D0555 		.ascii	"L\035\005U\003\006\246\"\006\366\334\324\334\374\242"
 297      0306A622 
 297      06F6DCD4 
 297      DCFCA2
 298 015b 4A0600B4 		.ascii	"J\006\000\264\305|\257"
 298      C57CAF
 299              		.text
 300              		.section	.gnu.lto_chEvtGetAndClearFlagsI.b96ad1791c1fc7a6,"",%progbits
 301 0000 789C8590 		.ascii	"x\234\205\220\277K\303@\024\307\337\367\305\200\213"
 301      BF4BC340 
 301      14C7DFF7 
 301      C5808B
 302 000f A3838350 		.ascii	"\243\203\203P\\\005\017\004\027\301\377\242\202\216"
 302      5C050F04 
 302      17C1FFA2 
 302      828E
 303 001d E935A6A1 		.ascii	"\3515\246\241\266\201$\026\234z\225\376\001\305I\255"
 303      B6812416 
 303      9C7A95FE 
 303      01C549AD 
 304 002d 83C5CD45 		.ascii	"\203\305\315E\334:\026\301\245\240\340*\016\201Bww!"
 304      DC3A16C1 
 304      A5A0E02A 
 304      0E814277 
 304      7721
 305 003f BE4BACA0 		.ascii	"\276K\254\240\213\017\356\336\257\373\276\317\343\230"
 305      8B0FEEDE 
 305      AFFBBECF 
 305      E398
 306 004d 98FEDA9A 		.ascii	"\230\376\332\232\234u\020\355\212\207C\340\301\013Q"
 306      9C7510ED 
 306      8A8743E0 
 306      C10B51
 307 005c 6F99011B 		.ascii	"o\231\001\033\020\250\313\350\036\302>\305\006\215\214"
 307      10A8CBE8 
 307      1EC23EC5 
 307      068D8C
 308 006b 39CF9E66 		.ascii	"9\317\236f\217|i&\375\033\363\231\347@\010\031\273\003"
 308      8F7C6926 
 308      FD1BF399 
 308      E7400819 
 308      BB03
 309 007d D2A00349 		.ascii	"\322\240\003IP)\034/\375\346\334\363$\313\363\367\207"
 309      50291C2F 
 309      FDE6DCF3 
 309      24CBF3F7 
 309      87
 310 008e 8FD93556 		.ascii	"\217\3315V]F\013\344\220\207\221\014\025s\251o\314\240"
 310      5D460BE4 
 310      9087910C 
 310      1573A96F 
 310      CCA0
 311 00a0 B2C875C1 		.ascii	"\262\310u\301\253\312m\227\330\007[\357<\323\331\333"
 311      ABCA6D97 
 311      D8075BEF 
 311      3CD3D9DB 
 312 00b0 C57C0A0F 		.ascii	"\305|\012\017\267p)\200\263IwFlO6\030\322\225@\235\000"
ARM GAS  /tmp/cczjDZMM.s 			page 24


 312      B7702980 
 312      B3497746 
 312      6C4F3618 
 312      D295409D 
 313 00c5 6CE125BB 		.ascii	"l\341%\273\206\005\\\224\343\361|\312\245\362[\266\362"
 313      86055C94 
 313      E3F17CCA 
 313      A5F25BB6 
 313      F2
 314 00d6 8FCC568A 		.ascii	"\217\314V\212\340\225z\331\260\371C-\273U\300.e?t[5"
 314      E0957AD9 
 314      B0F9432D 
 314      BB55C02E 
 314      653F745B 
 315 00eb A296AF74 		.ascii	"\242\226\257tT?Uu\277\243t#\254\205Q\242\322\370\244"
 315      543F5575 
 315      BFA37423 
 315      AC8551A2 
 315      D2F8A4
 316 00fe DD5412C4 		.ascii	"\335T\022\304\251Jb-u\277\343\267\323dK\223{t\354\005"
 316      A94A622D 
 316      75BFE3B7 
 316      D3644B93 
 316      7B74EC05 
 317 0112 C91701C5 		.ascii	"\311\027\001\305Yy"
 317      5979
 318              		.text
 319              		.section	.gnu.lto_chEvtDispatch.b96ad1791c1fc7a6,"",%progbits
 320 0000 789C8553 		.ascii	"x\234\205SMk\023Q\024\275\367\275y3\3234\375\242Et!"
 320      4D6B1351 
 320      14BDF7BD 
 320      7933D334 
 320      FDA24574 
 321 0015 96EEFCA0 		.ascii	"\226\356\374\240\243\202\270\020\374\025\251\3502NB"
 321      A382B810 
 321      FC15A9E8 
 321      324E42
 322 0024 3A481B48 		.ascii	":H\033Hb\241n:\311d!m\220 n\324Mk)\256\232\256\212T"
 322      62A16E3A 
 322      C964216D 
 322      90206ED4 
 322      4D6B29AE 
 323 003c B34857BA 		.ascii	"\263HW\2720\026A\012\221.\362\003D\320\245-\306\363"
 323      3016410A 
 323      912EF203 
 323      44D0A52D 
 323      C6F3
 324 004e 663241BB 		.ascii	"f2A\273\361A\316{\357\334s\357=sg\"H\320\351u\007\277"
 324      F141CE7B 
 324      EFDC73EF 
 324      3D736722 
 324      48D0E975 
 325 0064 AFA06F63 		.ascii	"\257\240ocg\233X\324?\021\225m\301ft\220\302\370r\206"
 325      679B58D4 
 325      3F11956D 
 325      C1667490 
 325      C2F87286 
ARM GAS  /tmp/cczjDZMM.s 			page 25


 326 0078 FC846ADE 		.ascii	"\374\204j\336$?i\260\212h\025\305\367mS\310\332{\202"
 326      243F69B0 
 326      8A6815C5 
 326      F76D53C8 
 326      DA7B82
 327 008b C0AA5A10 		.ascii	"\300\252Z\020X\314\232'\246\025!\015eZ\274r\217u\037"
 327      58CC9A27 
 327      A615210D 
 327      655ABC72 
 327      8F751F
 328 009e 31431BBE 		.ascii	"1C\033\276\377\264\273\365\363\027?\177\326\252\256"
 328      FFB4BBF5 
 328      F3173F7F 
 328      D6AAAE
 329 00ad FB27BD1E 		.ascii	"\373'\275\036\263\307\360t\203\311e\272\213\013O\207"
 329      B3C7F074 
 329      83C965BA 
 329      8B0B4F87 
 330 00bd 9B30FE35 		.ascii	"\2330\3765\031\346\326[?\016\237\234\363\327+u\3777"
 330      19E6D65B 
 330      3F0E9F9C 
 330      F3D72B75 
 330      FF37
 331 00cf 523D9682 		.ascii	"R=\226\202n\375/sG\264\272\275\336\311\356n\355\210"
 331      6EFD2F73 
 331      47B4BABD 
 331      DEC9EE6E 
 331      ED88
 332 00e1 8FC414D3 		.ascii	"\217\304\024\323\202n\010\220\224\346M\236!\223q\261"
 332      826E0890 
 332      94E64D9E 
 332      219371B1 
 333 00f1 C9636308 		.ascii	"\311cc\010\240\022\032\2065$\265j\004\252\015\250F\301"
 333      A0121A86 
 333      3524B56A 
 333      04AA0DA8 
 333      46C1
 334 0103 D018A43C 		.ascii	"\320\030\244<\216\2239\001\260&\373\025\260\024U\341"
 334      8E933901 
 334      B026FB15 
 334      B01455E1 
 335 0113 6F3ABEBB 		.ascii	"o:\276\273\341\023\247\200\230I\212\00569\307\2220("
 335      E113A780 
 335      98498A05 
 335      3639C792 
 335      3028
 336 0125 D9A6603B 		.ascii	"\331\246`;8\336\276\224\346-V\224c[\2736\030'I\324\246"
 336      38DEBE94 
 336      E62D5694 
 336      635BBB36 
 336      182749D4 
 337 013a CA771947 		.ascii	"\312w\031G\206\020\324T\360.x\3051\231\010y\274\257"
 337      8610D454 
 337      F02E78C5 
 337      31990879 
 337      BCAF
 338 014c 0F54FD56 		.ascii	"\017T\375V\2766\240u\025\365\367\203\317\261A\007Sh"
ARM GAS  /tmp/cczjDZMM.s 			page 26


 338      BE36A075 
 338      15F5F783 
 338      CFB14107 
 338      5368
 339 015e 5769069B 		.ascii	"Wi\006\233\215\213\261p\030\371\375\242\217b.\031\322"
 339      8D8BB170 
 339      18F9FDA2 
 339      8F622E19 
 339      D2
 340 016f 226A1FBC 		.ascii	"\"j\037\274n\\\210\003#}S\301\352\300\324(X\335\213"
 340      6E5C8803 
 340      237D53C1 
 340      EAC0D428 
 340      58DD8B
 341 0182 F49C1159 		.ascii	"\364\234\021Y\033D\306s<\206xX\345\255\212\331\211\227"
 341      1B44C673 
 341      3C867858 
 341      E5AD8AD9 
 341      8997
 342 0194 F402721B 		.ascii	"\364\002r\033q\235f\366\335\035P\265u%\322\220Vi\220"
 342      719D66F6 
 342      DD1D50B5 
 342      7525D290 
 342      566990
 343 01a7 9EB61679 		.ascii	"\236\266\026yW\361\254\036\007;\215\263q\261I\210t\025"
 343      57F1AC1E 
 343      073B8DB3 
 343      71B14988 
 343      7415
 344 01b9 19CE973A 		.ascii	"\031\316\227:\304\260-\001I\243\266\267\254\363L\302"
 344      C4B02D01 
 344      49A3B6B7 
 344      ACF34CC2 
 345 01c9 D727F56C 		.ascii	"\327'\365l\366\217\017\223q\23685\235\016\211\034\233"
 345      F68F0F93 
 345      719E3835 
 345      9D0E891C 
 345      9B
 346 01da 0289ACB8 		.ascii	"\002\211\254\270CQM|\242\037\337\234G\023\325\334K\353"
 346      43514D7C 
 346      A21FDF9C 
 346      4713D5DC 
 346      4BEB
 347 01ec 5A967E6D 		.ascii	"Z\226~m\237\251\334m_\216\235F+\305\214\220\376+]w\346"
 347      9FA9DC6D 
 347      5F8E9D46 
 347      2BC58C90 
 347      FE2B5D77 
 348 0201 F30B59C7 		.ascii	"\363\013Y\307\315g\226\235Lv\311q\347\275\373^\276\350"
 348      CD67969D 
 348      4C76C971 
 348      E7BDFB5E 
 348      BEE8
 349 0213 940A0F17 		.ascii	"\224\012\017\027\03788\024JN\261\340\202\317.e\027K"
 349      1F383814 
 349      4A4EB1E0 
 349      82CF2E65 
ARM GAS  /tmp/cczjDZMM.s 			page 27


 349      174B
 350 0225 C5599754 		.ascii	"\305Y\227T\326\313\314^\225\300?rY\274\313"
 350      D6CBCC5E 
 350      95C03F72 
 350      59BCCB
 351              		.text
 352              		.section	.gnu.lto_chEvtWaitOne.b96ad1791c1fc7a6,"",%progbits
 353 0000 789C8D53 		.ascii	"x\234\215SMHTQ\024>\347\2767\3164\316\214\343Fj\321"
 353      4D485451 
 353      143EE7BE 
 353      37CE34CE 
 353      8CE3466A 
 354 0015 30084164 		.ascii	"0\010Ad\370Jh\021n\204 p\341&\223j\025\343\3631\276"
 354      F84A6811 
 354      6E842070 
 354      E126936A 
 354      15E3F331 
 355 002a EACDC8CC 		.ascii	"\352\315\310\314(I\201wf\\\270(\032\"\310\376@\023\027"
 355      28498177 
 355      665CB828 
 355      1A22C8FE 
 355      401317
 356 003d 45342D5A 		.ascii	"E4-Z\210\005\272h\021\204\206\233\"k!\272\010\244MA"
 356      8805BA68 
 356      1184869B 
 356      226B21BA 
 356      08A44D41 
 357 0051 603F389D 		.ascii	"`?8\235\363\376\322\010\364\302\274s\356\271\347\373"
 357      F3FED208 
 357      F4C2BC73 
 357      EEB9E7FB 
 358 0061 EE77CEB9 		.ascii	"\356w\316\271#@\300\277\253\215~\355*\300m\262\030\000"
 358      2340C0BF 
 358      AB8D7EED 
 358      2AC06DB2 
 358      1800
 359 0073 14954580 		.ascii	"\024\225E\200bH\010e6\0012\254\276\323@F\024T\235\260"
 359      62480865 
 359      360132AC 
 359      BED34046 
 359      14549DB0 
 360 0087 8AC80E20 		.ascii	"\212\310\016 \214\010E\305\221s\310\034\242\031&\245"
 360      8C0845C5 
 360      9173C81C 
 360      A21926A5 
 361 0097 BCB932BD 		.ascii	"\274\2712\275\271\216w\344\374\350\204\374]\253!\232"
 361      B98E77E4 
 361      FCE884FC 
 361      5DAB219A 
 362 00a7 48F71D43 		.ascii	"H\367\035C\320\021\316\322\006\223\266\021\352v\001"
 362      D011CED2 
 362      0693B611 
 362      EA7601
 363 00b6 0E76FEFB 		.ascii	"\016v\376\373\373\033\373\344D\251\"7\011j\242\"\340"
 363      FB1BFBE4 
 363      44A92237 
 363      096AA222 
ARM GAS  /tmp/cczjDZMM.s 			page 28


 363      E0
 364 00c7 F84EC8AA 		.ascii	"\370N\310\252\230_\251\325\256\315\375X\035\307\246"
 364      985FA9D5 
 364      AECDFD58 
 364      1DC7A6
 365 00d6 2684144E 		.ascii	"&\204\024Na3\250d'\311\326\201\211j\020-\204\220{R\317"
 365      6133A864 
 365      27C9D681 
 365      896A102D 
 365      84907B52 
 366 00eb 9188BB89 		.ascii	"\221\210\273\211\362&\346n\032x\023\347O#\177\210;\000"
 366      F226E66E 
 366      1A7813E7 
 366      4F237F88 
 366      3B00
 367 00fd A3525692 		.ascii	"\243RV\222\016\225\223\004,\207\326i\372r\023zP\260"
 367      0E959304 
 367      2C87D669 
 367      FA72137A 
 367      50B0
 368 010f 5516A0B4 		.ascii	"U\026\240\264<C\225\247p\232\032\230F\265\005\036KZ"
 368      3C4395A7 
 368      709A1A98 
 368      46B5051E 
 368      4B5A
 369 0121 67A8FE16 		.ascii	"g\250\376\0268db\340\036\334-J\0317\261\356\012\374"
 369      386462E0 
 369      1EDC2D4A 
 369      1937B1EE 
 369      0AFC
 370 0133 9463EC05 		.ascii	"\224c\354\005-d2.+h\027\323\213\340Z\327\201E(}\375"
 370      2D64322E 
 370      2B6817D3 
 370      8BE05AD7 
 370      8145287D 
 371 0148 756B6DAF 		.ascii	"ukm\257+\005\300\271\300\356>\302U\205\207\2518\023"
 371      2B05C0B9 
 371      C0EE3EC2 
 371      558587A9 
 371      3813
 372 015a 4DC0757C 		.ascii	"M\300u| \307;L\014\201\313\272'\311\236\177^q\317\303"
 372      20C73B4C 
 372      0C81CBBA 
 372      27C99E7F 
 372      5E71CFC3 
 373 016e 0E376BFE 		.ascii	"\0167k\376\264Q=\350i\256\263\205*$\224\240\365T\003"
 373      B4513DE8 
 373      69AEB385 
 373      2A2494A0 
 373      F55403
 374 0181 537882BC 		.ascii	"Sx\202\274G\263\000\345\027\345\013\036$D\2504\213\177"
 374      47B300E5 
 374      17E50B1E 
 374      2444A834 
 374      8B7F
 375 0193 0DAF3E17 		.ascii	"\015\257>\027\243~\230\221\333\006\325\203\012\314&"
 375      A37E9891 
ARM GAS  /tmp/cczjDZMM.s 			page 29


 375      DB06D583 
 375      0ACC26
 376 01a2 B84D6F36 		.ascii	"\270Mo6j\353\302It{\324N\227\272\356Q\023#\377\277_"
 376      6AEBC249 
 376      747BD44E 
 376      97BAEE51 
 376      1323FFBF 
 377 01b7 71ADC36A 		.ascii	"q\255\303j\337\371\026FW\306\026\302^G\374\266Fu\267"
 377      DFF91646 
 377      57C616C2 
 377      5E47FCB6 
 377      4675B7
 378 01ca 7D8C8F85 		.ascii	"}\214\217\205i\230\015N\2613\017\327\374\001\325\357"
 378      69980D4E 
 378      B1330FD7 
 378      FC01D5EF 
 379 01da BAD88407 		.ascii	"\272\330\204\007\211\24491\350\025\244z\203\177T\256"
 379      89A43931 
 379      E815A47A 
 379      837F54AE 
 380 01ea 3E0F7849 		.ascii	">\017xI\3214_\316@\305\013\305\376FK\313\343S\037\205"
 380      D1345FCE 
 380      40C50BC5 
 380      FE464BCB 
 380      E3531F85 
 381 01fe 77D0E054 		.ascii	"w\320\340T\035\337\205\216\322\313\362\254\257=N\234"
 381      1DDF858E 
 381      D2CBF2AC 
 381      AF3D4E9C 
 382 020e AEB8A77E 		.ascii	"\256\270\247~\260\221\370\350\310N\356\334\332\337\235"
 382      B091F8E8 
 382      C84EEEDC 
 382      DADF9D
 383 021d E809BABB 		.ascii	"\350\011\272\273w\226\302'4\006\373]\301\226w\225\302"
 383      7796C227 
 383      3406FB5D 
 383      C1967795 
 383      C2
 384 022e 2A261CCA 		.ascii	"*&\034\312%(>\373\266\344K\212q\354\003 =\010\361e\316"
 384      25283EFB 
 384      B6E44B8A 
 384      71EC0320 
 384      3D08F165 
 385 0243 A40E2AF7 		.ascii	"\244\016*\367\227\366\363\237\007\271w\214n\323\372"
 385      97F6F39F 
 385      07B9778C 
 385      6ED3FA
 386 0252 B396A1E9 		.ascii	"\263\226\241\351\331\276a\255\317\030\322\364~\263\327"
 386      D9BE61AD 
 386      CF18D2F4 
 386      7EB3D7
 387 0261 CCE6B542 		.ascii	"\314\346\265Bn0sQ#'W\320\3629\235\342\306\220\221)\344"
 387      6E307351 
 387      232757D0 
 387      F2399DE2 
 387      C6909129 
 388 0276 5B7550F4 		.ascii	"[uP\364\302\000Z\035;\001\215\313\005\355DWwg\267ff"
ARM GAS  /tmp/cczjDZMM.s 			page 30


 388      C2005A1D 
 388      3B018DCB 
 388      05ED4457 
 388      7767B766 
 389 028b F44B837D 		.ascii	"\364K\203}\234\2333\316\353\326\311\301\214\336\332"
 389      9C9B33CE 
 389      EBD6C9C1 
 389      8CDEDA
 390 029a 0FF1AEEE 		.ascii	"\017\361\256\356S\311\336T\336\030\310\231\207\223\007"
 390      53C9DE54 
 390      DE18C899 
 390      879307
 391 02a9 8E80C841 		.ascii	"\216\200\310A\3202\254ln\030\376\000,\"\033\315"
 391      D032AC6C 
 391      6E18FE00 
 391      2C221BCD 
 392              		.text
 393              		.section	.gnu.lto_chEvtWaitAny.b96ad1791c1fc7a6,"",%progbits
 394 0000 789C8D53 		.ascii	"x\234\215SMh\023Q\020\236y\273Mb~\332\036D\364`\010"
 394      4D681351 
 394      109E79BB 
 394      4D627EDA 
 394      1E44F460 
 395 0015 0541AC74 		.ascii	"\005A\254t\265\340A\274\024\004\241\207^\254E=I\272"
 395      B5E041BC 
 395      1404A187 
 395      5EAC453D 
 395      49BA
 396 0027 59D25537 		.ascii	"Y\322U7)\233\264X\024\372\222\366\340E\014\"\370\207"
 396      299BB458 
 396      14FA92F6 
 396      E0450C22 
 396      F887
 397 0039 D0225E54 		.ascii	"\320\"^T\214\010B\211\"E<\010\232\212\007-\255\036\202"
 397      8C084289 
 397      22453C08 
 397      9A8A072D 
 397      AD1E82
 398 004c 453CD483 		.ascii	"E<\324\203\275U-\306\231\375\243\212\320>\310\316\274"
 398      BD552DC6 
 398      99FDA38A 
 398      D03EC8CE 
 398      BC
 399 005d F7E69BF9 		.ascii	"\367\346\233\371\346\233\027\001\002\376]\335\364\023"
 399      E69B1701 
 399      02FE5DDD 
 399      F413
 400 006b 2AC035B2 		.ascii	"*\3005\262\330\002(*s\000\245\210\020J-\0112\252~\320"
 400      D802282A 
 400      7300A588 
 400      104A2D09 
 400      32AA7ED0 
 401 007f 40C61554 		.ascii	"@\306\025T\335c\025\221\035@\030\027\212\212\343'\221"
 401      DD631591 
 401      1D401817 
 401      8A8AE327 
 401      91
ARM GAS  /tmp/cczjDZMM.s 			page 31


 402 0090 73880E98 		.ascii	"s\210\016\230\226\362J\343\313\375e\274!g'\247\344Z"
 402      96F24AE3 
 402      CBFD65BC 
 402      216727A7 
 402      E45A
 403 00a2 B3896822 		.ascii	"\263\211h\"\325;\200\240#\234\240\015\246\034\303\305"
 403      D53B80A0 
 403      239CA00D 
 403      A61CC3C5 
 404 00b2 D62F173B 		.ascii	"\326/\027;\273\262xy\207\234*W\344o\202\232\250\010"
 404      BBB27879 
 404      879C2A57 
 404      E46F829A 
 404      A808
 405 00c4 38B811B2 		.ascii	"8\270\021\262*f\033\315\346\267\367?>\327q\333V\204"
 405      2A661BCD 
 405      E6B7F73F 
 405      3ED771DB 
 405      5684
 406 00d6 34DEC10E 		.ascii	"4\336\301\016P\311N\223\015\201\211j\030-\204\210w\023"
 406      50C94E93 
 406      0D81896A 
 406      182D8488 
 406      7713
 407 00e8 E393B8B7 		.ascii	"\343\223\270\267I\360\246\225?m\374\241t-0)e%\345\242"
 407      49F0A695 
 407      3F6DFCA1 
 407      742D3029 
 407      6525E5A2 
 408 00fc DD206006 		.ascii	"\335 `\006\264\216\321\227\373\036@\301V\251Cyq\225"
 408      B48ED197 
 408      FB1E40C1 
 408      56A94379 
 408      7195
 409 010e 9A4DE35D 		.ascii	"\232M\343]\322,\213j'\334\223\264\216S\313\235\260\307"
 409      D22C8B6A 
 409      27DC93B4 
 409      8E53CB9D 
 409      B0C7
 410 0120 C4965B70 		.ascii	"\304\226[p\263$e\273\211\241\363\360S^d/l!'\343N\302"
 410      B32465BB 
 410      89A1F3F0 
 410      535E642F 
 410      6C2127E3 
 411 0136 0EFF4104 		.ascii	"\016\377A\004\317z\016\314Ay\345\327\325\245\355\036"
 411      CF7A0ECC 
 411      4179E5D7 
 411      D5A5ED1E 
 412 0146 1500B780 		.ascii	"\025\000\267\200#8\302\005\205\347\247\270CL\302%\274"
 412      2338C205 
 412      85E7A7B8 
 412      434CC225 
 412      BC
 413 0157 2DAFF798 		.ascii	"-\257\367\230\030\001/\353\226\024{\301}\305\273\217"
 413      18012FEB 
 413      96147BC1 
 413      7DC5BB8F 
ARM GAS  /tmp/cczjDZMM.s 			page 32


 414 0167 BAB999F3 		.ascii	"\272\271\231\363\247\357Ov\373\234C\016Q\205\210\022"
 414      A7EF4F76 
 414      FB9C430E 
 414      51858812 
 415 0177 34463D70 		.ascii	"4F=p\012\237\220\377N\3520\361t\342\264\017\211\020"
 415      0A9F90FF 
 415      4EEA30F1 
 415      74E2B40F 
 415      8910
 416 0189 2ACBE45F 		.ascii	"*\313\344_\301\313\257\245Dp\314\310\277f3\200\012\324"
 416      C1CBAFA5 
 416      4470CCC8 
 416      BF663380 
 416      0AD4
 417 019b 922CD3EB 		.ascii	"\222,\323\353\231\352\262p\003=\215\016QQ\317\335ob"
 417      99EAB270 
 417      033D8D0E 
 417      5151CFDD 
 417      6F62
 418 01ad FCFFF515 		.ascii	"\374\377\365\025\317\272Y\235\232oa\262\361\274\036"
 418      CFBA599D 
 418      9A6F61B2 
 418      F1BC1E
 419 01bc F5150964 		.ascii	"\365\025\011dM\350\236|\214o\215\3220\333\334fW\253"
 419      4DE89E7C 
 419      8C6F8DD2 
 419      30DBDC66 
 419      57AB
 420 01ce 4BC18062 		.ascii	"K\301\200b\233n6\351C\342Y\016\014\373\015\251\301\340"
 420      9B6E36E9 
 420      43E2590E 
 420      0CFB0DA9 
 420      C1E0
 421 01e0 671E7F14 		.ascii	"g\036\177\024~P\302\355\244}\023\271\313\317&j\001\237"
 421      7E50C2ED 
 421      A47D13B9 
 421      CBCF266A 
 421      019F
 422 01f2 D62C9376 		.ascii	"\326,\223v\012>\014\016\333(\037]9\301\275\3535\333"
 422      0A3E0C0E 
 422      DB281F5D 
 422      39C1BDEB 
 422      35DB
 423 0204 287D965B 		.ascii	"(}\226[\336\314\333I\343\003\222\326y+\260\356\255\244"
 423      DECCDB49 
 423      E30392D6 
 423      792BB0EE 
 423      ADA4
 424 0216 B18A4937 		.ascii	"\261\212I7\345;(=z\261\020Pr\012-\000\322\220\305\233"
 424      E53B283D 
 424      7AB11050 
 424      720A2D00 
 424      D290C59B 
 425 022a 79935451 		.ascii	"y\223TQ\326\346w\362\037\002Y\017FwkCy\313\320\364|"
 425      D6E677F2 
 425      1F02590F 
 425      46776B43 
ARM GAS  /tmp/cczjDZMM.s 			page 33


 425      79CBD0F4 
 426 023f 664CCB18 		.ascii	"fL\313\030\243\232>d\016\232\371\202V\264Grg4r\354\242"
 426      A39A3E64 
 426      0E9AF982 
 426      56B44772 
 426      673472EC 
 427 0254 56B0753A 		.ascii	"V\260u:7F\215\\\261\320\245\203\242\027\207\321\352"
 427      37468D5C 
 427      B1D0A583 
 427      A21787D1 
 427      EA
 428 0265 D908689C 		.ascii	"\331\010h\234+j\207\373\372{\37353\247\237\035\311p"
 428      2B6A87FB 
 428      FA7BFB35 
 428      33A79F1D 
 428      C970
 429 0277 AC6D9CD2 		.ascii	"\254m\234\322\255##9\275k\010\332\373\372\217\246\006"
 429      AD232339 
 429      BD6B08DA 
 429      FBFA8FA6 
 429      06
 430 0288 D30563D8 		.ascii	"\323\005c\3306\367\246v\355\003aC\3302\254\274=\006"
 430      36F7A676 
 430      ED036143 
 430      D832ACBC 
 430      3D06
 431 029a 7F00FDF7 		.ascii	"\177\000\375\367\020U"
 431      1055
 432              		.text
 433              		.section	.gnu.lto_chEvtWaitAll.b96ad1791c1fc7a6,"",%progbits
 434 0000 789C8D51 		.ascii	"x\234\215QMh\023Q\020\236yo\223\324$\325x\021A,A\360"
 434      4D681351 
 434      109E796F 
 434      93D424D5 
 434      7811412C 
 435 0016 62A51B0B 		.ascii	"b\245\033\013\236\274\024\004\241B/\246E=I\262Y\232"
 435      9EBC1404 
 435      A1422FA6 
 435      453D49B2 
 435      599A
 436 0028 4537299B 		.ascii	"E7)\233M\261z\350\313\317A\020\244\210BU\004\213\267"
 436      4DB17AE8 
 436      CBCF4110 
 436      A4884255 
 436      048BB7
 437 003b E2DF4DA8 		.ascii	"\342\337M\250\245\364\030\220T\274\372\203!\342\251"
 437      A5F41890 
 437      54BCFA83 
 437      21E2A9
 438 004a 5EBC1911 		.ascii	"^\274\031\021\342\274\335\267\333(B\373`gf\337\233\371"
 438      E2BCDDB7 
 438      DB2842FB 
 438      606766DF 
 438      9BF9
 439 005c E69B6F18 		.ascii	"\346\233o\0300\370\367\214\323w\236\003\334'\217\021"
 439      30F8F78C 
 439      D3779E03 
ARM GAS  /tmp/cczjDZMM.s 			page 34


 439      DC278F11 
 440 006c 40B6B405 		.ascii	"@\266\264\005P\033b\214\2672 \342Z\353(\210$G\315\277"
 440      501B628C 
 440      B73220E2 
 440      5AEB2888 
 440      2447CDBF 
 441 0080 D6106500 		.ascii	"\326\020e\000\010\213\214k\270x\031%\006\036\203\025"
 441      088B8C6B 
 441      B8781925 
 441      061E8315 
 442 0090 21EE76BE 		.ascii	"!\356v\276\255m\343\003\261\331|\"~\367\373\210\026"
 442      AD6DE303 
 442      B1D97C22 
 442      7EF7FB88 
 442      16
 443 00a1 52BFD308 		.ascii	"R\277\323\010\006\302%\372\301\264\347\230\3667\201"
 443      06C225FA 
 443      C1B4E798 
 443      F63781
 444 00b0 976CB3D3 		.ascii	"\227l\263\323\357?\373\334\353\366\361\320A\0169\\!"
 444      EF3FFBDC 
 444      EBF6F1D0 
 444      410E395C 
 444      21
 445 00c1 BC0858C8 		.ascii	"\274\010X\310\243h#\304d\024\227&!MR\032*\213@S\210"
 445      A36823C4 
 445      64149726 
 445      214D521A 
 445      2A8B4053 
 446 00d6 A5B49F0D 		.ascii	"\245\264\237\015\262\007\235i\262\222\337\0142\351y"
 446      B2079D69 
 446      B292DF0C 
 446      32E979
 447 00e5 1BEA1F7E 		.ascii	"\033\352\037~\022\251\034>\245\331f\221\217\302\252"
 447      12A91C3E 
 447      A5D96691 
 447      8FC2AA
 448 00f4 A07391A8 		.ascii	"\240s\221\250\215\302\011\013\265G\360\260&D\312\302"
 448      8DC2090B 
 448      B547F0B0 
 448      2644CAC2 
 449 0104 C84DF825 		.ascii	"\310M\370%n\311(j\243\004\223\\\243\036\303<\202\362"
 449      6EC9286A 
 449      A304935C 
 449      A31EC33C 
 449      82F2
 450 0116 2A802DA8 		.ascii	"*\200-\250\377\350\335\373zX\221\000\360\033x\302 \334"
 450      FFE8DDFB 
 450      7A589100 
 450      F01B78C2 
 450      20DC
 451 0128 E05267EE 		.ascii	"\340Rg\356\213=\002\267\361\261X\236\2600\006\012u("
 451      8B3D02B7 
 451      F1B1589E 
 451      B030060A 
 451      7528
 452 013a 2DA3F0FD 		.ascii	"-\243\360\375\216z\337\347cK\316\237\326_\037\0118G"
ARM GAS  /tmp/cczjDZMM.s 			page 35


 452      8E7ADFE7 
 452      634BCE9F 
 452      D65F1F09 
 452      3847
 453 014c 3CA27122 		.ascii	"<\242q\"J\245\011\232AB\004\204\202}\266\241\361\246"
 453      4AA5099A 
 453      41420484 
 453      827DB6A1 
 453      F1A6
 454 015e D10DE78C 		.ascii	"\321\015\347\214Q\331\254d\337\202\346\367\332\360\300"
 454      51D9AC64 
 454      DF82E6F7 
 454      DAF0C0
 455 016d 757447F8 		.ascii	"utG\370\031\322\261\225\221\032\275]\336\330f~\222\022"
 455      19D2B195 
 455      911ABD5D 
 455      DED8667E 
 455      9212
 456 017f E80C7554 		.ascii	"\350\014uT\341)\013\223\377o\316\225\367\027\352a\277"
 456      E1290B93 
 456      FF6FCE95 
 456      F717EA61 
 456      BF
 457 0190 8366A7D7 		.ascii	"\203f\247\327\216\007r\204\232\016\033J;Y\277_.\362"
 457      8E077284 
 457      9A0E1B4A 
 457      3B59BF5F 
 457      2EF2
 458 01a2 404042DB 		.ascii	"@@B\333\331\324\306G\026PU\335S{\230\274\276\336X\013"
 458      D9D4C647 
 458      165055DD 
 458      537B98BC 
 458      BEDE580B 
 459 01b6 274F7834 		.ascii	"'Ox4<9^\204\227I\302\243'/yrp\316\335\340\251to\313"
 459      3C395E84 
 459      9749C2A3 
 459      272F7972 
 459      70CEDDE0 
 460 01ce CEE12AC9 		.ascii	"\316\341*\311\341-\027\006\226\233\303\3478\342C\276"
 460      E12D1706 
 460      969BC3E7 
 460      38E243BE 
 461 01de 87DAABEE 		.ascii	"\207\332\253\356\227\220\222\332\3034\311B\343\313\344"
 461      979092DA 
 461      C334C942 
 461      E3CBE4
 462 01ed 71BD58B6 		.ascii	"q\275X\266M\335(\027\026\364\2029\257\033E+o\225+\272"
 462      4DDD2817 
 462      16F48239 
 462      AF1B452B 
 462      6F952BBA 
 463 0201 EB544B57 		.ascii	"\353TKWu\012\034W\2578\006\335\233\363f\311\255\214"
 463      750A1C57 
 463      AF3806DD 
 463      9BF366C9 
 463      AD8C
 464 0213 19C00D77 		.ascii	"\031\300\015wnb\2672\363\272\253\237\235\312Nfu\253"
ARM GAS  /tmp/cczjDZMM.s 			page 36


 464      6E62B732 
 464      F3BAAB9F 
 464      9DCA4E66 
 464      75AB
 465 0225 645CAB16 		.ascii	"d\\\253\026d\256c^1\354s\325\2221V\204\324T\366B:\237"
 465      64AE635E 
 465      31EC73D5 
 465      92315684 
 465      D454F642 
 466 023b AB98738E 		.ascii	"\253\230s\216u2}<\003\314\201\230m\332eg\001\376\000"
 466      75327D3C 
 466      03CC8198 
 466      6DDA6567 
 466      01FE00
 467 024e 0C44E8AD 		.ascii	"\014D\350\255"
 468              		.text
 469              		.section	.gnu.lto_chEvtWaitOneTimeout.b96ad1791c1fc7a6,"",%progbits
 470 0000 789CAD54 		.ascii	"x\234\255T]H\024Q\024>\347\316\316\356\354\372\263\376"
 470      5D481451 
 470      143EE7CE 
 470      CEEEECFA 
 470      B3FE
 471 0012 5B50CB22 		.ascii	"[P\313\"\204\221\345d\321C\364\220\020\004>\370\222"
 471      8491E564 
 471      D143F490 
 471      10043EF8 
 471      92
 472 0023 49F514EB 		.ascii	"I\365\024\353\270\351T\273\312\272JR\340\270\032\370"
 472      B8E954BB 
 472      CABA4A52 
 472      E0B81AF8 
 473 0033 60641164 		.ascii	"`d\021d\245\245TP\021\352K/VbP\020\204F/Q&!T\364 \024"
 473      A5A55450 
 473      11EA4B2F 
 473      56625010 
 473      84462F51 
 474 004d 4161A668 		.ascii	"Aa\246h\347\314\317\246\021\270\017\015\314\275\347"
 474      E7CCCFA6 
 474      11B80F0D 
 474      CCBDE7
 475 005c EF3BF77C 		.ascii	"\357;\367|\347\334\031\001\002\376~\242\364\036\223"
 475      E7DC1901 
 475      02FE7EA2 
 475      F41E93
 476 006b 012ED38E 		.ascii	"\001.\323\216>@\3213\011\320\256\010!u\025\203\341S"
 476      3E40D133 
 476      09D0AE08 
 476      21751583 
 476      E153
 477 007d 784D9784 		.ascii	"xM\227\204\353\265J\232<\032 \315\205^+H\026\356\237"
 477      EBB54A9A 
 477      3C1A20CD 
 477      855E2B48 
 477      16EE9F
 478 0090 9964F6F4 		.ascii	"\231d\366\364\356%\263\3331{P\261\004\305\261x\021Y"
 478      EE25B3DB 
 478      317B50B1 
ARM GAS  /tmp/cczjDZMM.s 			page 37


 478      04C5B178 
 478      1159
 479 00a2 00843621 		.ascii	"\000\2046!\271d\267\207,mG\220\317\027E0h\030\027g\236"
 479      B964B787 
 479      2C6D4790 
 479      CF174530 
 479      68181767 
 480 00b7 7D99C52B 		.ascii	"}\231\305+\306x\347\200\261\270\274\214\250#\325\272"
 480      C678E780 
 480      B1B8BC8C 
 480      A823D5BA 
 481 00c7 0B414338 		.ascii	"\013AC8L\012\006\315M\270V\027oa\307\347\336\237_o\014"
 481      4C0A06CD 
 481      4DB85617 
 481      6F61C7E7 
 481      DE9F5F6F 
 482 00dc 247A8C25 		.ascii	"$z\214%\202\352(\011\330\275\026rX\214\317,/\367\315"
 482      82EA2809 
 482      D8BD1672 
 482      588CCF2C 
 482      2FF7CD
 483 00ef 3DE8EEC6 		.ascii	"=\350\356\306%\021@\010\341M,\2423\011\356&e\220\024"
 483      25114008 
 483      E14D2CA2 
 483      3309EE26 
 483      659014
 484 0102 85149717 		.ascii	"\205\024\227\027#\010>\333\235F\012\372\311,g\263/\307"
 484      23083EDB 
 484      9D460AFA 
 484      C92C67B3 
 484      2FC7
 485 0114 36E7B292 		.ascii	"6\347\262\222g+\371\254\024\360R\310\013\235%C\247a"
 485      672BF9AC 
 485      14F052C8 
 485      0B9D2543 
 485      A761
 486 0126 F404ADA4 		.ascii	"\364\004\255\244V\020py\364\034\244\225;S\215\202wi"
 486      56107079 
 486      F41CA495 
 486      3B538D82 
 486      7769
 487 0138 0212536F 		.ascii	"\002\022So\250\023!\274\2152\324\241\273\004\356\031"
 487      A81321BC 
 487      8D32D4A1 
 487      BB04EE19 
 488 0148 F41CA27E 		.ascii	"\364\034\242~\224\300\026\035\335\327\340j\273ad\351"
 488      94C0161D 
 488      DDD7E06A 
 488      BB6164E9 
 489 0158 E8390DBF 		.ascii	"\3509\015\277\214.\226\224\010\362\\\231\246b\222\253"
 489      8C2E9694 
 489      08F25C99 
 489      A66292AB 
 490 0168 41B0775B 		.ascii	"A\260w[\200IH|[\270\364a\235]\012\200u\2009\022\204"
 490      8049487C 
 490      5BB8F461 
 490      9D5D0A80 
ARM GAS  /tmp/cczjDZMM.s 			page 38


 490      75803912 
 491 017d 33125F0C 		.ascii	"3\022_\014\311\272\035\0018\207\375Fo\271\216^\260\263"
 491      C9BA1D01 
 491      3887FD46 
 491      6FB98E5E 
 491      B0B3
 492 018f FA822C25 		.ascii	"\372\202,%\375=\266?\315\312\3155O/>\336\354\324\254"
 492      FD3DB63F 
 492      CDCACD35 
 492      4F2F3EDE 
 492      ECD4AC
 493 01a2 98854A54 		.ascii	"\230\205JT(A\323\211\003\247p\012r.\340\004t<\3548\356"
 493      2841D389 
 493      03A7700A 
 493      722EE004 
 493      743CEC38 
 494 01b7 407C84AA 		.ascii	"@|\204\252\343\363\236\303\323\317\355\031I3#W\015\256"
 494      E3F39EC3 
 494      D3CFED19 
 494      49332357 
 494      0DAE
 495 01c9 1A25E82A 		.ascii	"\032%\350*\2268\354\311\205\033\351N`\032\007f\254\016"
 495      9638ECC9 
 495      851BE94E 
 495      601A0766 
 495      AC0E
 496 01db 74C16CA1 		.ascii	"t\301l\241\224\012\357\020\336\247\254&OX\3013\204\303"
 496      940AEF10 
 496      DEA7AC26 
 496      4F58C133 
 496      84C3
 497 01ed 18589950 		.ascii	"\030X\231P\206~?\017\350\305\364\310\3306+\217=\235"
 497      867E3F0F 
 497      E8C5F4C8 
 497      D8362B8F 
 497      3D9D
 498 01ff 3D44D716 		.ascii	"=D\327\026\313t\314\3747s\311\336->&\333\227pvfb\330"
 498      CB74CCFC 
 498      3773C9DE 
 498      2D3E26DB 
 498      97707666 
 499 0215 EFB0F027 		.ascii	"\357\260\360''\352\327\354\311q\202,\0373\3241\333l"
 499      27EAD7EC 
 499      C971822C 
 499      1F33D431 
 499      DB6C
 500 0227 CFA7F6B2 		.ascii	"\317\247\366\262d<{\345\325\254\335\360C\374W\326\036"
 500      643C7BE5 
 500      D5ACDDF0 
 500      43FC57D6 
 500      1E
 501 0238 B8936E5E 		.ascii	"\270\223n^\313\351\217c\033\234\223\263S\036q\300\201"
 501      CBE98F63 
 501      1B9C93B3 
 501      531E71C0 
 501      81
 502 0249 E410AACE 		.ascii	"\344\020\252\316\272R\234V\201\221\235\234\366n\307"
ARM GAS  /tmp/cczjDZMM.s 			page 39


 502      BA529C56 
 502      81919D9C 
 502      F66EC7
 503 0258 D731D989 		.ascii	"\3271\331\211\311\255c\332\214\223\034S\336\037kb\252"
 503      C9AD63DA 
 503      8C931C53 
 503      DE1F6B62 
 503      AA
 504 0269 77EE9D70 		.ascii	"w\356\235p\034\371V\303\263R(#\361\250c4\371E\025PN"
 504      1CF956C3 
 504      B3522823 
 504      F1A86334 
 504      F9451550 
 505 027e BBB6A1A4 		.ascii	"\273\266\241\244\261\220\362\221\313\014\256X9\332\265"
 505      B190F291 
 505      CB0CAE58 
 505      39DAB5
 506 028d D21334B5 		.ascii	"\322\0234\265\217+\225v\277\005\244;/\206\226\256gP"
 506      8F2B9576 
 506      BF05A43B 
 506      2F8696AE 
 506      6750
 507 029f BF3C7D0B 		.ascii	"\277<}\013\033\271S^\363\307\360\212\376\242|\234\260"
 507      1BB9535E 
 507      F3C7F08A 
 507      FEA27C9C 
 507      B0
 508 02b0 020567A2 		.ascii	"\002\005g\242\033\345\2725\217\266\350\376>O\360<eq"
 508      1BE5BA35 
 508      8FB6E8FE 
 508      3E4FF03C 
 508      6571
 509 02c2 2183FF2B 		.ascii	"!\203\377+\3100\216\336\241\3267D\302\252\326P\333\252"
 509      C8308EDE 
 509      A1D63744 
 509      C2AAD650 
 509      DBAA
 510 02d4 D6865B54 		.ascii	"\326\206[T\255^\257\321\033\232\324x\2549zB%!\026W\233"
 510      AD5EAFD1 
 510      1B9AD478 
 510      AC397A42 
 510      25211657 
 511 02e9 621AD9C3 		.ascii	"b\032\331\303-\341h\274\251T\003I\2137b\244|-`\370T"
 511      2DE168BC 
 511      A9540349 
 511      8B3762A4 
 511      7C2D60F8 
 512 02fe 5CDD5759 		.ascii	"\\\335WYUQ\245\352Q\355ds-\307\306\302G\265\310\376"
 512      5551A5EA 
 512      51ED6473 
 512      2DC7C6C2 
 512      47B5C8FE 
 513 0312 E6A8565A 		.ascii	"\346\250VZ\017Y\225U\007\2025\241\246pcL\337\032\334"
 513      0F599555 
 513      078235A1 
 513      A670634C 
 513      DF1ADC
ARM GAS  /tmp/cczjDZMM.s 			page 40


 514 0325 B41D440C 		.ascii	"\264\035D\014<\221p\244!\326\012\277\001\301\267[U"
 514      3C9170A4 
 514      21D60ABF 
 514      01C1B75B 
 514      55
 515              		.text
 516              		.section	.gnu.lto_chEvtWaitAnyTimeout.b96ad1791c1fc7a6,"",%progbits
 517 0000 789CAD54 		.ascii	"x\234\255T]H\024q\020\237\371\357\355\336\336\251\371"
 517      5D481471 
 517      109FF9EF 
 517      EDDEDEA9 
 517      F9
 518 0011 4D3D941C 		.ascii	"M=\224\034B\010\031n\026A\321CB\020\370\340K&\325S\234"
 518      4208196E 
 518      1641D143 
 518      4210F8E0 
 518      4B26D553 
 519 0026 EB716E75 		.ascii	"\353qnu\247\234\247$\005\356\251\201\017\006\366!\332"
 519      A79CA724 
 519      05EEA981 
 519      0F06F621 
 519      DA
 520 0037 87909820 		.ascii	"\207\220\230 \025~@PX\017\012&Aj\011\021\025>\210\021"
 520      157E4050 
 520      580F0A26 
 520      416A0911 
 520      153E8811 
 521 004b 053D0505 		.ascii	"\005=\005\005R\3025\263\037\207\027\201\367\320\302"
 521      52C235B3 
 521      1F871781 
 521      F7D0C2
 522 005a FEFF33F3 		.ascii	"\376\3773\363\237\371\315\374f\376\273\002\004\374\375"
 522      9FF9CDFC 
 522      66FEBB02 
 522      04FCFD
 523 0069 44E93D24 		.ascii	"D\351=$\003\014\320\216~@\321\267\004\220P\205\220z"
 523      030CD08E 
 523      7E40D1B7 
 523      04905085 
 523      907A
 524 007b CAC0F4AB 		.ascii	"\312\300\364\253\274fK\302\363N#M\236.!\315\203>\333"
 524      BC664BC2 
 524      F34E234D 
 524      9E2E21CD 
 524      833EDB
 525 008e 4916CAFA 		.ascii	"I\026\312\37262{\007\217\222Yq\315^TmAu->D\026\000\241"
 525      36327B07 
 525      8F925971 
 525      CD5E546D 
 525      41752D3E 
 526 00a6 43481E59 		.ascii	"CH\036Y\361\222\245\343\014r~Q\012\303\246y}ut\244w"
 526      F192A5E3 
 526      0C727E51 
 526      0AC3A679 
 526      7D7574A4 
 527 00bb D72D73A6 		.ascii	"\327-s\246\373\236\271\221L\"\032H\265\036D\320\021"
 527      FB9EB991 
ARM GAS  /tmp/cczjDZMM.s 			page 41


 527      4C221A48 
 527      B51E44D0 
 527      11
 528 00cc 4E938201 		.ascii	"N\223\202\001k\023\236\364\342\355\330\231\241\265u"
 528      6B139EF4 
 528      E2EDD899 
 528      A1B575
 529 00db 4C8B9504 		.ascii	"L\213\225\004\034\336*vB\314\254&\223\013\327\346\347"
 529      1CDE2A76 
 529      42CCAC26 
 529      930BD7E6 
 529      E7
 530 00ec 67717ACA 		.ascii	"gqz\312\263\023!\210#XJi)^!e\230\024\225\024\217\017"
 530      B3132188 
 530      23584A69 
 530      295E2165 
 530      98149514 
 531 0102 23087EE7 		.ascii	"#\010~\3478\213\024\314%\263\234\317g\005\216\271\220"
 531      388B14CC 
 531      25B39CCF 
 531      67058EB9 
 531      90
 532 0113 95225E8A 		.ascii	"\225\"^\212y!|\031\272M\263/`\343\330N\300%\321s\222"
 532      79217C19 
 532      BA4DB32F 
 532      60E3D84E 
 532      C025D173 
 533 0128 56EE471D 		.ascii	"V\356G\035\012\336\245E\350\374\370\224\370\007q\024"
 533      0ADEA545 
 533      E8FCF894 
 533      F8077114 
 534 0138 6508A352 		.ascii	"e\010\243R\016\017LzNQ\027\312a\217\201\312\035\270"
 534      0E0F4C7A 
 534      4E5117CA 
 534      618F81CA 
 534      1DB8
 535 014a 9D30CD3C 		.ascii	"\2350\315<\003\275\227\340\227\331\303\222\032A\236"
 535      03BD97E0 
 535      97D9C392 
 535      1A419E
 536 0159 2653532D 		.ascii	"&SS-B\365\010\316\356\010\260\004\235\337\177\337\374"
 536      42F508CE 
 536      EE08B004 
 536      9DDF7FDF 
 536      FC
 537 016a B4C32905 		.ascii	"\264\303)\005\300N`\015\002\341\262\304\327A\262\357"
 537      C04E600D 
 537      02E1B2C4 
 537      D741B2EF 
 538 017a 44095CC5 		.ascii	"D\011\\\305!s\260\312@\0378\250\376\000K\251\363>\347"
 538      2173B0CA 
 538      401F38A8 
 538      FE004BA9 
 538      F33EE7
 539 018d 3CCBC6E6 		.ascii	"<\313\306\346\232W\276\316%d\267h\325\252T\242J)6\233"
 539      9A57BECE 
 539      2564B768 
ARM GAS  /tmp/cczjDZMM.s 			page 42


 539      D5AA54A2 
 539      4A29369B 
 540 01a1 4830865B 		.ascii	"H0\206[\221{\357\026\241\353Y\32797\304OQaN\370\022"
 540      917BEF16 
 540      A1EB59D7 
 540      3937C44F 
 540      51614EF8 
 541 01b6 E6BE2472 		.ascii	"\346\276$rRf\216L\233V\035J\320S&\261\333\354\223\265"
 541      52668E4C 
 541      9B561D4A 
 541      D05326B1 
 541      DBEC93B5 
 542 01ca 19743DB3 		.ascii	"\031t=\263\3303'\335\323\003\337\266K\2310\017\342#"
 542      D83327DD 
 542      D303DFB6 
 542      4B99300F 
 542      E223
 543 01dc 82B598C2 		.ascii	"\202\265\230\302&\246A\234\300\222\315\2002\014\345"
 543      26A6419C 
 543      C092CD80 
 543      320CE5
 544 01eb F2885EAD 		.ascii	"\362\210^\255l\314-;t\235\001\035!\302\216Xi\340\266"
 544      6CCC2D3B 
 544      749D011D 
 544      21C28E58 
 544      69E0B6
 545 01fe 7F73979C 		.ascii	"\177s\227\234\335fd\361}\015WV\307\246~\244x\344\246"
 545      DD6664F1 
 545      7D0D5756 
 545      C7A67EA4 
 545      78E4A6
 546 0211 A69AAB3B 		.ascii	"\246\232\253;\323c\204<?s40\337\352\320\347De\312\237"
 546      D363843C 
 546      3F733430 
 546      DFEAD0E7 
 546      4465CA9F 
 547 0225 4FE574DE 		.ascii	"O\345t\336\012\374\024\377\225\267\027\306\262\255\253"
 547      0AFC14FF 
 547      95B717C6 
 547      B2ADAB
 548 0234 B932F962 		.ascii	"\2712\371bVrS\347g<\346\0227\244\200\242\302\366\275"
 548      567253E7 
 548      673CE612 
 548      37A480A2 
 548      C2F6BD
 549 0247 625C1526 		.ascii	"b\\\025&\017X\270\357\037\366\226\273>\205v\033\363"
 549      0F58B8EF 
 549      1FF696BB 
 549      3E85761B 
 549      F3
 550 0258 3280EE7C 		.ascii	"2\200\356|\3365\235\352\\Q\230\373e\345\033O\031\213"
 550      DE359DEA 
 550      5C5198FB 
 550      65E51B4F 
 550      198B
 551 026a 098F8E2C 		.ascii	"\011\217\216,\347\352\315\003\333\012\236B3\373j2\351"
 551      E7EACD03 
ARM GAS  /tmp/cczjDZMM.s 			page 43


 551      DB0A9E42 
 551      33FB6A32 
 551      E9
 552 027b E10740BA 		.ascii	"\341\007@\272\313b\374\361\332\033\022\012\274\013\375"
 552      CB62FCF1 
 552      DA1B120A 
 552      BC0BFD
 553 028a F312F3F7 		.ascii	"\363\022\363\367Y\337\3742\375\0269\241\260]\005c\321"
 553      59DFFC32 
 553      FD1639A1 
 553      B05D0563 
 553      D1
 554 029b B1E7ED0D 		.ascii	"\261\347\355\015\305\021\225\373\375\012\261S\357\016"
 554      C51195FB 
 554      FD0AB153 
 554      EF0E
 555 02a9 CC23FF33 		.ascii	"\314#\3773\220\343\330}\277\326\330\024\011izSC\273"
 555      90E3D87D 
 555      BFD6D814 
 555      09697A53 
 555      43BB
 556 02bb D6106AD3 		.ascii	"\326\020j\323\364F\243\336hj\321\342\261\326\350y\215"
 556      F446A3DE 
 556      686AD1E2 
 556      B1D6E879 
 556      8D
 557 02cc 84585C6B 		.ascii	"\204X\\k\211\351d\017\265\205\242\361\226\012\035$="
 557      89E9640F 
 557      B585A2F1 
 557      960A1D24 
 557      3D
 558 02dd DE8C91AA 		.ascii	"\336\214\221\252\255\002C\027\343\332\261\232\332\352"
 558      AD024317 
 558      E3DAB19A 
 558      DAEA
 559 02eb 5ACD88EA 		.ascii	"Z\315\210\352\027Z\033\3307\026:\253G\216\267F\365\212"
 559      175A1BD8 
 559      37163AAB 
 559      478EB746 
 559      F58A
 560 02fd 46C8ABA9 		.ascii	"F\310\253\251=\021\250\017\266\204\232c\306\336\300"
 560      3D11A80F 
 560      B6849A63 
 560      C6DEC0
 561 030c EE7D2062 		.ascii	"\356} b\340\215\204\"M\261v\370\003\013\371Ry"
 561      E08D8422 
 561      4DB176F8 
 561      030BF952 
 561      79
 562              		.text
 563              		.section	.gnu.lto_chEvtWaitAllTimeout.b96ad1791c1fc7a6,"",%progbits
 564 0000 789CAD54 		.ascii	"x\234\255TMHTQ\024>\347\375\314{\216:\215\202P\213d"
 564      4D485451 
 564      143EE7FD 
 564      CC7B8E3A 
 564      8D82508B 
 565 0015 1022C8F0 		.ascii	"\020\"\310\360e\020\010-\022\202\300\205\233L\252U\214"
ARM GAS  /tmp/cczjDZMM.s 			page 44


 565      6510082D 
 565      1282C085 
 565      9B4CAA55 
 565      8C
 566 0026 6F1EFAA8 		.ascii	"o\036\372\250\231\261\231Q\262\026\276Q\203\"\011\211"
 566      99B19951 
 566      B216BE51 
 566      83220989 
 567 0036 024D22A5 		.ascii	"\002M\"\245\026%d\014-\002s\241`*\204F\233~d\026\222"
 567      1625640C 
 567      2D0273A1 
 567      602A8446 
 567      9B7E6416 
 568 004b 449B1605 		.ascii	"D\233\026\005B\026\301t\316\373k\214\300Yta\356=\367"
 568      4216C174 
 568      CEFB6B8C 
 568      C0597461 
 568      EE3DF7
 569 005e E77CE7FB 		.ascii	"\347|\347\373\356w\337\010 \300\337-F\277\213\022\300"
 569      EE77DF08 
 569      20C0DF2D 
 569      46BF8B12 
 569      C0
 570 006f 1D1AB10C 		.ascii	"\035\032\261\014P\030Y\005\310\252\202 N4\201\025T\276"
 570      50185905 
 570      C8AA8220 
 570      4E348115 
 570      54BE
 571 0081 D6805521 		.ascii	"\326\200U!\012\322[\215f\362L-\315$T\235C\262\020\330"
 571      0AD25B8D 
 571      66F24C2D 
 571      CD24549D 
 571      43B210D8 
 572 0095 0AF1A1D1 		.ascii	"\012\361\241\321c\264\034\360\226\025/P\0219\000\204"
 572      63B41CF0 
 572      96152F50 
 572      11390084 
 573 00a5 7E4194E4 		.ascii	"~A\224\344\200\242b\377Y\344\252X\007\223\226uk\375"
 573      80A262FF 
 573      59E4AA58 
 573      07939675 
 573      6BFD
 574 00b7 E5F3E1BD 		.ascii	"\345\363\341\275c\326\334\320\204\365\253P@4\221\030"
 574      63D6DCD0 
 574      84F5AB50 
 574      40349118 
 575 00c7 1E41D011 		.ascii	"\036A\320\021\316\320\004#\366 H\333)?\025\346\326\013"
 575      CED00423 
 575      F62048DB 
 575      293F15E6 
 575      D60B
 576 00d9 85FCF8E2 		.ascii	"\205\374\370\342\342<^\177&\355A0Q\224!\212\223\004"
 576      E23C5E7F 
 576      26ED4130 
 576      5194218A 
 576      9304
 577 00eb ABD04452 		.ascii	"\253\320DR1\216P\306Q\220\"\014Q$\207yZ\305]5w\204#"
ARM GAS  /tmp/cczjDZMM.s 			page 45


 577      318E50C6 
 577      5190220C 
 577      51248779 
 577      5AC55D35 
 578 0102 C390658D 		.ascii	"\303\220e\215D\234<\340\242\324NQ\317\244\333Q\340Q"
 578      449C3CE0 
 578      A2D44E51 
 578      CFA4DB51 
 578      E051
 579 0114 5C8181B5 		.ascii	"\\\201\201\265\367\3042\212\017P\206N\224\353a\312\242"
 579      F7C4328A 
 579      0F50864E 
 579      94EB61CA 
 579      A2
 580 0125 769AB8D6 		.ascii	"v\232\270\326\303\001\023\003\343p7kYa\023\225+\360"
 580      C3011303 
 580      E370376B 
 580      59611395 
 580      2BF0
 581 0137 D3BAC691 		.ascii	"\323\272\306\221\032G\276i&\257\332\224;\020\334\321"
 581      1A47BE69 
 581      26AFDA94 
 581      3B10DCD1 
 582 0147 0D601506 		.ascii	"\015`\025\006\276\375\270\275\261\333%\001\340\024\260"
 582      BEFDB8BD 
 582      B1DB2501 
 582      E014B0
 583 0156 6F0BE1B2 		.ascii	"o\013\341\262\310V\211\216_\265p\003\357Y\243\315&\371"
 583      C856898E 
 583      5FB57003 
 583      EF59A3CD 
 583      26F9
 584 0168 E3A20623 		.ascii	"\343\242\006#\034\371\3737\335\375r\007\2339\347\037"
 584      1CF9FB37 
 584      DDFD7207 
 584      9B39E71F 
 585 0178 2DE5448F 		.ascii	"-\345D\217\264b3\025\211)\345V\220\010\306\360\030y"
 585      B4623315 
 585      8929E556 
 585      9008C6F0 
 585      1879
 586 018a 6F620506 		.ascii	"ob\005\006_\014~D/\247\214\322:\231\3762\014}\311V\026"
 586      5F0C7E44 
 586      2FA78CD2 
 586      3A99FE32 
 586      0C7DC956 
 587 019f 2DAB7FAC 		.ascii	"-\253\177\254hG\021&\232\304eX\370<\377nc\316O\016r"
 587      68471126 
 587      9AC46558 
 587      F83CFF6E 
 587      63CE4F0E 
 588 01b4 81CA62D3 		.ascii	"\201\312b\323\332\351\312\037\327\211\245\310\216\342"
 588      DAE9CA1F 
 588      D789A5C8 
 588      8EE2
 589 01c2 14C1DA32 		.ascii	"\024\301\3322\241Hf\024\237`m1\240\014\337k\330\237"
 589      A1486614 
ARM GAS  /tmp/cczjDZMM.s 			page 46


 589      9F606D31 
 589      A00CDF6B 
 589      D89F
 590 01d4 57F9D9A5 		.ascii	"W\371\331\2457\262\003\344\272s\224\324\272a\243\211"
 590      37B203E4 
 590      BA7394D4 
 590      BA61A389 
 591 01e4 A17F0B17 		.ascii	"\241\177\013\027\335\321y^\266\256\327pu}+\267\351\353"
 591      DDD1795E 
 591      B6AED770 
 591      757D2BB7 
 591      E9EB
 592 01f6 08F996EE 		.ascii	"\010\371\226\356\322]\353\030!\\\316\032M\254\342\333"
 592      D25DEB18 
 592      215CCE1A 
 592      4DACE2DB 
 593 0206 59F8946D 		.ascii	"Y\370\224m\364\317\363\256\274]w\000\306\244\377\252"
 593      F4CFF3AE 
 593      BC5D7700 
 593      C6A4FFAA 
 594 0216 5B81D5FD 		.ascii	"[\201\325\375\366\273\314o.\345d\257t\330\321\033.\301"
 594      F6BBCC6F 
 594      2EE564AF 
 594      74D8D11B 
 594      2EC1
 595 0228 E781D9C1 		.ascii	"\347\201\331\301\031_b\225-\3346\177\332_\254&\274N"
 595      195F6295 
 595      2DDC367F 
 595      DA5FAC26 
 595      BC4E
 596 023a 9647875B 		.ascii	"\226G\207[\212ov'xJ-\355m\227*V\265\277\3027\364o\302"
 596      8A6F7627 
 596      784A2DED 
 596      6D972A56 
 596      B5BFC237 
 597 0251 E076B50F 		.ascii	"\340v\265\017\200\234G\366I\323k\033Mn\034xx?@R\224"
 597      809C47F6 
 597      49D36B1B 
 597      4D6E1C78 
 597      783F4052 
 598 0266 E1DC22F2 		.ascii	"\341\334\"\362g\214\234\310\230\207\265\256d\334\320"
 598      678C9CC8 
 598      9887B5AE 
 598      64DCD0
 599 0275 F464AC4F 		.ascii	"\364d\254O\213\031\275\232\336ev\230\311\264\226I\365"
 599      8B19BD9A 
 599      DE657698 
 599      C9B49649 
 599      F5
 600 0286 24CE6B14 		.ascii	"$\316k\024\2442Z:\245\323\272\321k$2\351\006\035D=\323"
 600      A4325A3A 
 600      A5D3BAD1 
 600      6B2432E9 
 600      061D443D 
 601 029b DDBC539A 		.ascii	"\335\274S\232q)\243\035omki\323\314\204~\241'\306gS"
 601      7129A31D 
 601      6F6D6B69 
ARM GAS  /tmp/cczjDZMM.s 			page 47


 601      D3CC847E 
 601      A127C667 
 602 02b0 C6393D7E 		.ascii	"\3069=~\242'\2417tA\270\265\355d\244#\2326\272S\346"
 602      A227A137 
 602      7441B8B5 
 602      ED64A423 
 602      9A36BA53 
 603 02c5 C1C8BE43 		.ascii	"\301\310\276C \244@\211\033\361d\252\017~\003B\337'"
 603      20A44089 
 603      1BF164AA 
 603      0F7E0342 
 603      DF27
 604 02d7 7F       		.ascii	"\177"
 605              		.text
 606              		.section	.gnu.lto_.symbol_nodes.b96ad1791c1fc7a6,"",%progbits
 607 0000 789C4DC9 		.ascii	"x\234M\3119N\003Q\020\204\341\256\327\343Y\360\276\335"
 607      394E0351 
 607      1084E1AE 
 607      D7E359F0 
 607      BEDD
 608 0012 84EB7096 		.ascii	"\204\353p\226\262\204d\021r\002\002,90x_\330\0224#\333"
 608      B2846411 
 608      7202022C 
 608      3930785F 
 608      D8123423 
 609 0027 114E4809 		.ascii	"\021NH\011\270\204\035!d[\0171\335\311\257\257\332\211"
 609      B8841D21 
 609      645B0F31 
 609      DDC9AFAF 
 609      DA89
 610 0039 933EC49F 		.ascii	"\223>\304\237\033\200\"\267;\021\362\356\006\205\267"
 610      1B8022B7 
 610      3B11F2EE 
 610      0685B7
 611 0048 D383E21E 		.ascii	"\323\203\342\036@\344\253{\004\235\341\020T\3031\030"
 611      40E4AB7B 
 611      049DE110 
 611      54C33118 
 612 0058 184EC182 		.ascii	"\030N\301\202\341\010\014\015'`d8\003c\3039\230\030"
 612      E1080C0D 
 612      27606438 
 612      0363C339 
 612      9818
 613 006a 2EC00BC3 		.ascii	".\300\013\303%X4\\\201%\303'\260l\370\014V\014_\300"
 613      2558345C 
 613      8125C327 
 613      B06CF80C 
 613      560C5FC0 
 614 007e AAE12B58 		.ascii	"\252\341+X\313\211\024\254{v:\300;\330\310\265\006\233"
 614      CB8914AC 
 614      7B763AC0 
 614      3BD8C8B5 
 614      069B
 615 0090 B93660EB 		.ascii	"\2716`\353_\0326\244\267\335\006\032\205\222n~>T\343"
 615      5F1A36A4 
 615      B7DD061A 
 615      85926E7E 
ARM GAS  /tmp/cczjDZMM.s 			page 48


 615      3E54E3
 616 00a3 50EEBF7F 		.ascii	"P\356\277\177\241qS\262s\223\310;\361\016\212\362\331"
 616      A17153B2 
 616      7393C83B 
 616      F10E8AF2 
 616      D9
 617 00b4 3D5C69A9 		.ascii	"=\\i\251%\331\362R\313>\225S\366;h\265-\327\335\265"
 617      25D9F252 
 617      CB3E9553 
 617      F63B68B5 
 617      2DD7DDB5 
 618 00c8 6AEDAFF5 		.ascii	"j\355\257\365s\277\0029\002\215[\202\322"
 618      73BF0239 
 618      028D5B82 
 618      D2
 619              		.text
 620              		.section	.gnu.lto_.refs.b96ad1791c1fc7a6,"",%progbits
 621 0000 789C6362 		.ascii	"x\234cb`bPe\200\000F bd\006b\026 \346\001b^ \346\003"
 621      60625065 
 621      80004620 
 621      62640662 
 621      1620E601 
 622 0019 627E2016 		.ascii	"b~ \026\000bA\240\022\000\016\035\000\232"
 622      006241A0 
 622      12000E1D 
 622      009A
 623              		.text
 624              		.section	.gnu.lto_.decls.b96ad1791c1fc7a6,"",%progbits
 625 0000 789CBD5B 		.ascii	"x\234\275[yp\324V\232\227\324\355\013\033\343\011\011"
 625      7970D456 
 625      9A97D4ED 
 625      0B1BE309 
 625      09
 626 0011 936C6D55 		.ascii	"\223lmU<S\311\026\225\255\214\311$\233\220\255\332\034"
 626      3C53C916 
 626      95AD8CC9 
 626      249B90AD 
 626      DA1C
 627 0023 C364033B 		.ascii	"\303d\003;\233=BR\263\377uD[\340\336iw\367\252e\216"
 627      9B3D4252 
 627      B3FF7544 
 627      5BE0DE69 
 627      77F7AA65 
 628 0038 54ED8E6C 		.ascii	"T\355\216l\203\031\216\2001\207\011\0300\023\034\222"
 628      83198E80 
 628      31870918 
 628      30131C92 
 629 0048 85E11A8C 		.ascii	"\205\341\032\214\215\001\323\004\360\001\341\210\261"
 629      8D01D304 
 629      F001E188 
 629      B1
 630 0055 31430234 		.ascii	"1C\0024\001\023r\220\201\220\204e\234\340\375\336\247"
 630      01137290 
 630      81908465 
 630      9CE0FDDE 
 630      A7
 631 0066 A76EE9B5 		.ascii	"\247n\351\265\324-y2\351\252'=I\357\373\275\337w\274"
ARM GAS  /tmp/cczjDZMM.s 			page 49


 631      D42D7932 
 631      E9AA273D 
 631      49EFFBBD 
 631      DF77BC
 632 0079 EF3D1D2D 		.ascii	"\357=\035-p\002\327\225\303qC\360\333\3753\216\353\203"
 632      7002D795 
 632      C37143F0 
 632      DBFD338E 
 632      EB83
 633 008b FA5D1CC7 		.ascii	"\372]\034\307=\005%\013\312z(\233\240\360P\340\022\347"
 633      3D05250B 
 633      CA7A289B 
 633      A0F050E0 
 633      12E7
 634 009d E1B4DF3D 		.ascii	"\341\264\337=PvB)\203\013\021(\323\241\274\012E\205"
 634      50764229 
 634      830B1128 
 634      D3A1BC0A 
 634      4585
 635 00af 320F4A1D 		.ascii	"2\017J\035\224z(\015P\032\241\354\204\322\012e/\224"
 635      947A280D 
 635      501AA1EC 
 635      84D20A65 
 635      2F94
 636 00c1 18941E28 		.ascii	"\030\224\036(\375P>\200\022\207r\011\312G\274\326\317"
 636      FD503E80 
 636      12877209 
 636      CA47BCD6 
 636      CF
 637 00d2 673C67FA 		.ascii	"g<g\372\221~FB\331\017\245\033\312\004\201\343\316\300"
 637      917E4642 
 637      D90FA51B 
 637      CA0481E3 
 637      CEC0
 638 00e4 FE39D8B7 		.ascii	"\3769\330\267\302\276\005J\014\312\227 w\015\312\363"
 638      C2BE054A 
 638      0CCA9720 
 638      770DCAF3 
 639 00f4 70BE18F6 		.ascii	"p\276\030\366/A\311\205\363\355P:\240\334\204c/\\\353"
 639      2F41C985 
 639      F3ED503A 
 639      A0DC8463 
 639      2F5CEB
 640 0107 82FABF43 		.ascii	"\202\372\277C}2\224\377\240}\356\244\372\372\340@\204"
 640      7D3294FF 
 640      A07DEEA4 
 640      FAFAE040 
 640      84
 641 0118 E28722F1 		.ascii	"\342\207\"\361\251\\\210\276Y\224\213\221G\214\332\250"
 641      A95C88BE 
 641      59948B91 
 641      478CDAA8 
 642 0128 83EE493B 		.ascii	"\203\356I;8\315\225\303>\304`\020{\025p\032\307BN\253"
 642      38CD95C3 
 642      3EC46010 
 642      7B15701A 
 642      C7424EAB 
ARM GAS  /tmp/cczjDZMM.s 			page 50


 643 013c 7753FB1A 		.ascii	"wS\373\0321\215\372\034\241\266\327u\370{\312;B\373"
 643      318DFA1C 
 643      A1B6D775 
 643      F87BCA3B 
 643      42FB
 644 014e 512CB812 		.ascii	"Q,\270\022\237\214p\200Mx\330\341O\247\3703-\360_\245"
 644      9F8C7080 
 644      4D78D8E1 
 644      4FA7F833 
 644      2DF05FA5 
 645 0162 F67DC9A0 		.ascii	"\366}\311\240\007k\223\375\324\036\223)\336\253t\377"
 645      076B93FD 
 645      D41E9329 
 645      DEAB74FF 
 646 0172 3F0C964A 		.ascii	"?\014\226J\271\346\320\366:'\302\235\304\337\017y-\026"
 646      B9E6D0F6 
 646      3A27C29D 
 646      C4DF0F79 
 646      2D16
 647 0184 2702EE39 		.ascii	"'\002\3569\352\003\302q\004\2241P\356\207r\037\345\252"
 647      EA03C271 
 647      04943150 
 647      EE87721F 
 647      E5AA
 648 0196 D2B822F5 		.ascii	"\322\270\"\3659\260\237\313\3645\217\332\237p\323y\347"
 648      39B09FCB 
 648      F4358FDA 
 648      9F70D379 
 648      E7
 649 01a7 D0BEF478 		.ascii	"\320\276\364x\":\305(\217I\000T\011\373lN\213%=n\364"
 649      223AC528 
 649      8F490054 
 649      09FB6C4E 
 649      8B253D6E 
 650 01bc 38223E17 		.ascii	"8\">\027(\256J\373]\004\373\305L\277dL\260~\320\261"
 650      28AE4AFB 
 650      5D04FBC5 
 650      4CBF644C 
 650      B07ED0B1 
 651 01d0 FF09F617 		.ascii	"\377\011\366\027i{\017m\253\322\261A\360\226\301~9\203"
 651      697B0F6D 
 651      ABD2B141 
 651      F096C17E 
 651      3983
 652 01e2 576F81F7 		.ascii	"Wo\201\367\013(\363-\360\352\351\270\324\361^\207\375"
 652      0B28F32D 
 652      F0EAE9B8 
 652      D4F15E87 
 652      FD
 653 01f3 2A06AF81 		.ascii	"*\006\257\201\332\325\350O+\0376\320\375ZF\276\221\372"
 653      DAD5E84F 
 653      2B1F36D0 
 653      FD5A46BE 
 653      91FA
 654 0205 30CB60D7 		.ascii	"0\313`\327\215$\236\250}\337\200\372f(\033\2404QY\236"
 654      8D249EA8 
 654      7DDF80FA 
ARM GAS  /tmp/cczjDZMM.s 			page 51


 654      66281BA0 
 654      3451599E 
 655 0219 CA114E3B 		.ascii	"\312\021N;`\277\215\035\373p\\D}\243c\026S\275\2151"
 655      60BF8D1D 
 655      FB705C44 
 655      7DA36316 
 655      53BD8D31 
 656 022d 6CB40189 		.ascii	"l\264\001\211\033\022/\377,h\261s\231\352e\214m=f\004"
 656      1B122FFF 
 656      2C68B173 
 656      99EA658C 
 656      6D3D6604 
 657 0241 DAC7255A 		.ascii	"\332\307%Z\337e\021\347\255\337\003\207V\003\2076\013"
 657      DF6511E7 
 657      ADDF0387 
 657      56038736 
 657      0B
 658 0252 0E7B2D38 		.ascii	"\016{-8\244\353_\037?n8\3545ph\267\340@\362\366]6v\310"
 658      A4EB5F1F 
 658      3F6E38EC 
 658      357068B7 
 658      E040F2F6 
 659 026a CE600B0F 		.ascii	"\316`\013\017\345\362\002\345r5\003\027\322\027\231"
 659      E5F202E5 
 659      72350317 
 659      D21799
 660 0279 0F88DC71 		.ascii	"\017\210\334q\330\237\260\340\323\363=\362\3511\360"
 660      D89FB0E0 
 660      D3F33DF2 
 660      E931F0
 661 0288 E9857D9F 		.ascii	"\351\205}\237\005\237\376\357\221O\277\201\317\037`"
 661      059FFEEF 
 661      914FBF81 
 661      CF1F60
 662 0297 7FD6824F 		.ascii	"\177\326\202O\036\367\033\025~\2155\352\304\256B\222"
 662      1EF71B15 
 662      7E8D35EA 
 662      C4AE4292 
 663 02a7 B244BE30 		.ascii	"\262D\2760\217+\306JA\036\016\313\007\271\015\252Z\033"
 663      8F2BC64A 
 663      411E0ECB 
 663      07B90DAA 
 663      5A1B
 664 02b9 3FFCD155 		.ascii	"?\374\321U\217\252\346\212\374z>\017\340\177\301s\017"
 664      8FAAE68A 
 664      FC7A3E0F 
 664      E07FC173 
 664      0F
 665 02ca 716F8368 		.ascii	"qo\203h\255\252\376\366!\006\325%\364\215\216C\333\371"
 665      ADAAFEF6 
 665      2106D525 
 665      F48D8E43 
 665      DBF9
 666 02dc 2A55850B 		.ascii	"*U\205\013M\010\376\337<L\260\033\370\207\\#\255>\322"
 666      4D08FEDF 
 666      3C4CB01B 
 666      F8875C23 
ARM GAS  /tmp/cczjDZMM.s 			page 52


 666      AD3ED2
 667 02ef 321E49BE 		.ascii	"2\036I\276\2058m\274\031H\344\263\363\214\024\361Xo"
 667      85386DBC 
 667      1948E4B3 
 667      F38C14F1 
 667      586F
 668 0301 40D0E090 		.ascii	"@\320\340\220\364\364\177d\251\303\377\232\236!\007"
 668      F4F47F64 
 668      A9C3FF9A 
 668      9E2107
 669 0310 39DCF72E 		.ascii	"9\334\367.\207ZW\251\361&\365\336\225I\255su\255y\203"
 669      875A57A9 
 669      F126F5DE 
 669      9549AD73 
 669      75AD7983 
 670 0324 6BAE50D7 		.ascii	"k\256P\327lB\255\017\361\026\346s\004t\243\346w\177"
 670      6C42AD0F 
 670      F116E673 
 670      0474A3E6 
 670      777F
 671 0336 8B405B10 		.ascii	"\213@[\020\350\330\260\201V\317_\253\371a;\002\365\245"
 671      E8D8B081 
 671      56CF5FAB 
 671      F9613B02 
 671      F5A5
 672 0348 F88167FC 		.ascii	"\370\201g\374\300\233\355\202\227ie\310\034\\\337i\333"
 672      C09BED82 
 672      976965C8 
 672      1C5CDF69 
 672      DB
 673 0359 FBB9B56A 		.ascii	"\373\271\265j\374z|h\321g\342\353jl\266:4\364kn\014"
 673      FC7A7C68 
 673      D167E2EB 
 673      6A6CB63A 
 673      34F46B6E 
 674 036e B79C469B 		.ascii	"\267\234F\233\312+\"\377\324=\226\001G\300\233\3711"
 674      CA2B22FF 
 674      D43D9601 
 674      47C09BF9 
 674      31
 675 037f 58F3E070 		.ascii	"X\363\340p\343\362\271\371\304<Z\230\336\305-A\224\354"
 675      E3F2B9F9 
 675      C43C5A98 
 675      DEC52D41 
 675      94EC
 676 0391 0C11DBD7 		.ascii	"\014\021\333\327s\342\021\264T+\177\027\300t\013fKe"
 676      73E211B4 
 676      542B7F17 
 676      C0740B66 
 676      4B65
 677 03a3 8411B833 		.ascii	"\204\021\2703(\262\007\3045A\004Vc-5w\253^\355<g\202"
 677      28B207C4 
 677      35410456 
 677      632D3577 
 677      AB5EED3C 
 678 03b9 34FD7EC4 		.ascii	"4\375~\3045\002\347\330\356\2325\367\251\215\357\360"
 678      3502E7D8 
ARM GAS  /tmp/cczjDZMM.s 			page 53


 678      EE9A35F7 
 678      A98DEFF0 
 679 03c9 562A141B 		.ascii	"V*\024\033\272\206i\230\366}wB\205\330\373\337\362\305"
 679      BA866998 
 679      F67D7742 
 679      85D8FBDF 
 679      F2C5
 680 03db 221F43FE 		.ascii	"\"\037C\376\003\326\374\3551\004\356k\0249\310\362\377"
 680      03D6FCED 
 680      3104EE6B 
 680      1439C8F2 
 680      FF
 681 03ec 4A2CD6CE 		.ascii	"J,\326\316ff\177\353\343n^\255+\020\371\375\240\200"
 681      66667FEB 
 681      E36E5EAD 
 681      2B10F9FD 
 681      A080
 682 03fe C0CDF1E8 		.ascii	"\300\315\361\350\200V\006\243U\355G\033\230\341\276"
 682      805606A3 
 682      55ED471B 
 682      98E1BE
 683 040d 91BAC665 		.ascii	"\221\272\306e4\204W\007\372y\322\227m\253\016\361\350"
 683      34845707 
 683      FA79D297 
 683      6DAB0EF1 
 683      E8
 684 041e CB23688B 		.ascii	"\313#h\213\016Of[\230`\004\356\004\212\034cl\021\277"
 684      0E4F665B 
 684      986004EE 
 684      048A1C63 
 684      6C11BF
 685 0431 B9F67C25 		.ascii	"\271\366|%_\211\011\362\230#\213\014R\177\212|7\232"
 685      5F8909F2 
 685      98238B0C 
 685      527F8A7C 
 685      379A
 686 0443 649157C7 		.ascii	"d\221W\307\035\236I\356t\024\324\212:\330r\327`\305"
 686      1D9E49EE 
 686      7414D48A 
 686      3AD872D7 
 686      60C5
 687 0455 26B0A59D 		.ascii	"&\260\245\235\015H\216\246\023\007i\275I\237{\3720\235"
 687      0D488EA6 
 687      130769BD 
 687      499F7BFA 
 687      309D
 688 0467 34782DF3 		.ascii	"4x-\363\222\223\231\246\346\360\001:\323\234A\250\015"
 688      929399A6 
 688      E6F0013A 
 688      D39C41A8 
 688      0D
 689 0478 C3865A3D 		.ascii	"\303\206Z=\177\357\223\310\351}\004\372\235\227Mq9L"
 689      7FEF93C8 
 689      E97D04FA 
 689      9D974D71 
 689      394C
 690 048a 8ACB31A7 		.ascii	"\212\3131\247\242\234\274d\205d\374Q\334_\270\271\300"
ARM GAS  /tmp/cczjDZMM.s 			page 54


 690      A29CBC64 
 690      8564FC51 
 690      DC5FB8B9 
 690      C0
 691 049b B53A715C 		.ascii	"\265:q\\\256]\024\250\361/\326\016\360$Mz\034d\245\375"
 691      AE5D14A8 
 691      F12FD60E 
 691      F0244D7A 
 691      1C64A5FD 
 692 04af D8579C8D 		.ascii	"\330W\234\215\344uWN>\274RU\213\264K\231\003\271\345"
 692      E475574E 
 692      3EBC5255 
 692      8BB44B99 
 692      03B9E5
 693 04c2 68BDB3C4 		.ascii	"h\275\263\304$\350\335?\200\335Wf\221\356\007\330\356"
 693      24E8DD3F 
 693      80DD5766 
 693      91EE07D8 
 693      EE
 694 04d3 F77C72F5 		.ascii	"\367|r\365)\255\373\001G\335o\357Y\226\332\275\355\234"
 694      29ADFB01 
 694      47DD6FEF 
 694      5996DABD 
 694      ED9C
 695 04e5 402363DD 		.ascii	"@#c\335\225\353c\327a'\037\343x9\232\305\206\306\323"
 695      95EB63D7 
 695      61271FE3 
 695      78399AC5 
 695      86C6D3
 696 04f8 F966E7C1 		.ascii	"\371f\347\301\261\241\201\300\365&\330\017k\270\202"
 696      B1A181C0 
 696      F526D80F 
 696      6BB882
 697 0507 9A5D93DE 		.ascii	"\232]\223\336\336\241\252\363\262u\016\375\256\021\213"
 697      DEA1AAF3 
 697      B2750EFD 
 697      AE118B
 698 0516 4D86D8D9 		.ascii	"M\206\330\331\203\011@\003;\353\004\3146\216\252b\273"
 698      83094003 
 698      3BEB04CC 
 698      368EAA62 
 698      BB
 699 0527 8C60E75C 		.ascii	"\214`\347\\\203\231\231\265\032\301\342N\300\212\354"
 699      839999B5 
 699      1AC1E24E 
 699      C08AEC
 700 0536 99B519C1 		.ascii	"\231\265\031\301.\271\00633\333k\004\273\342\004\354"
 700      2EB90633 
 700      33DB6B04 
 700      BBE204EC 
 701 0546 5E7B66ED 		.ascii	"^{f\355F\260O\\\203\231\231\2354\202}\356\004\254\330"
 701      46B04F5C 
 701      8399999D 
 701      34827DEE 
 701      04ACD8
 702 0559 8259E267 		.ascii	"\202Y\342g\267>\272\314'\342\\\340nd\351\011\301eLs"
 702      B73EBACC 
ARM GAS  /tmp/cczjDZMM.s 			page 55


 702      27E25CE0 
 702      6E64E909 
 702      C1654C73 
 703 056d 498CAFB2 		.ascii	"I\214\257\262\334&0\223\3360\217^Y\317/\255V\273\306"
 703      DC263093 
 703      DE308F5E 
 703      59CF2FAD 
 703      56BBC6
 704 0580 E973D9A0 		.ascii	"\351s\331\240\023\3044\001\263\252\32301Vg\273\005c"
 704      13C43401 
 704      B3AAD330 
 704      315667BB 
 704      0563
 705 0592 42998099 		.ascii	"B\231\200\231RMb\305\035K\277\342&wa\202ay~\257u[\221"
 705      524D62C5 
 705      1D4BBFE2 
 705      26776182 
 705      61797EAF 
 706 05a9 AF111E84 		.ascii	"\257\021\036\204\355\\!/\301B\253\353\265!\274w\\\220"
 706      ED5C212F 
 706      C142ABEB 
 706      B521BC77 
 706      5C90
 707 05bb 6D754387 		.ascii	"muC\207\000\351E\355\"a\266`\210\204Z'fJ3\024.t6\374"
 707      00E945ED 
 707      2261B660 
 707      88845A27 
 707      664A3314 
 708 05d3 508DC778 		.ascii	"P\215\307x\375~\247\236\3053\351\234y4|\335\231\277"
 708      FD7EA79E 
 708      C533E99C 
 708      79347CDD 
 708      99BF
 709 05e5 ED15E7F7 		.ascii	"\355\025\347\3676M\372\335\326k\002\351}]6\233\335\267"
 709      364DFADD 
 709      D66B02E9 
 709      7D5D369B 
 709      DDB7
 710 05f7 B8BCB911 		.ascii	"\270\274\271\021\270\215\2565\030\313\304\365\241:\376"
 710      B88DAE35 
 710      18CBC4F5 
 710      A13AFE
 711 0606 6695BA72 		.ascii	"f\225\272r\234s5\006t5\352P\215\255\337\201\032-\256"
 711      9C733506 
 711      7435EA50 
 711      8DADDF81 
 711      1A2DAE
 712 0619 D5186750 		.ascii	"\325\030gP\203,s\277\252\323\206\347h\256.\375\002\203"
 712      832C73BF 
 712      AAD386E7 
 712      68AE2EFD 
 712      0283
 713 062b F0A91746 		.ascii	"\360\251\027F\233o\031\376p\204\334\210\220\323\231"
 713      9B6F19FE 
 713      7084DC88 
 713      90D399
 714 063a 66763576 		.ascii	"fv5v\353H\003]!k\3173\332\221;\221\035\316\224\253\306"
ARM GAS  /tmp/cczjDZMM.s 			page 56


 714      EB48035D 
 714      216BCF33 
 714      DA913B91 
 714      1DCE94AB 
 715 064f 961DC544 		.ascii	"\226\035\305D\240\201\035\376\263\300\252b\277_\240"
 715      A0811DFE 
 715      B3C0AA62 
 715      BF5FA0
 716 065e 2FDF9F26 		.ascii	"/\337\237&y\345\370\237\011\367\336Q\267\013\3569\237"
 716      79E5F89F 
 716      09F7DE51 
 716      B70BEE39 
 716      9F
 717 066f D0E068C4 		.ascii	"\320\340h\304\340\350K\011\2163lp8Y\177^\034\256\036"
 717      E0E84B09 
 717      8E336C70 
 717      38597F5E 
 717      1CAE1E
 718 0682 899FC05D 		.ascii	"\211\237\300]u\222<\212m\375\024\277y\376\026\2151\247"
 718      75923C8A 
 718      6DFD14BF 
 718      79FE168D 
 718      31A7
 719 0694 77E87BCE 		.ascii	"w\350{\316vT\362\263\361\236\341M\201\334\327}\306X"
 719      7654F2B3 
 719      F19EE14D 
 719      81DCD77D 
 719      C658
 720 06a6 C3C16A78 		.ascii	"\303\301jx\020E\336\026R\356\353\216\351\367u\344\232"
 720      1045DE16 
 720      52EEEB8E 
 720      E9F775E4 
 720      9A
 721 06b7 83E5B0E9 		.ascii	"\203\345\260\351\276N\344\337\343\005\212;\\\213\232"
 721      BE4EE4DF 
 721      E3058A3B 
 721      5C8B9A
 722 06c6 9C982408 		.ascii	"\234\230$\010\271\025g\212\315\302\217\214\326_\220"
 722      B915678A 
 722      CDC28F8C 
 722      D65F90
 723 06d5 E3D6FAC5 		.ascii	"\343\326\372\305F\353\307\006\2176\360\204\277\305\012"
 723      46EBC706 
 723      8F36F084 
 723      BFC50A
 724 06e4 FE19E3FC 		.ascii	"\376\031\343\374\255\233~\325\361%\324\364[\321\364"
 724      AD9B7ED5 
 724      F125D4F4 
 724      5BD1F4
 725 06f3 CB73AC4D 		.ascii	"\313s\254M\377\214\035\220\3005\241\310\216\024\323"
 725      FF8C1D90 
 725      C035A1C8 
 725      8E14D3
 726 0702 9FEFD54D 		.ascii	"\237\357\325M\277\303\221\351\373,M\277\303\275\351"
 726      BFC391E9 
 726      FB2C4DBF 
 726      C3BDE9
ARM GAS  /tmp/cczjDZMM.s 			page 57


 727 0711 29DEE9E4 		.ascii	")\336\351\344-\265\310\237r\015V\234\316\217;\014~\334"
 727      2DB5C89F 
 727      720D569C 
 727      CE8F3B0C 
 727      7EDC
 728 0723 897E6C06 		.ascii	"\211~l\006?\212\374.\2637w\261\3364\231\216V\307\332"
 728      3F8AFC2E 
 728      B33777B1 
 728      DE34998E 
 728      56C7DA
 729 0736 A9A0C696 		.ascii	"\251\240\306\226\0367\347\320\003N\242c\234\275I\326"
 729      1E37E7D0 
 729      034EA263 
 729      9CBD49D6 
 730 0746 1E479368 		.ascii	"\036G\223h9\247\3235X\261\011l\337\"g\217\264\324\304"
 730      39A7D335 
 730      58B1096C 
 730      DF22678F 
 730      B4D4C4
 731 0759 E3A82234 		.ascii	"\343\250\"4J\017\366\333\316\306\313\215;'\347\322x"
 731      4A0FF6DB 
 731      CEC6CB8D 
 731      3B27E7D2 
 731      78
 732 076a 6977102F 		.ascii	"iw\020/0\301\014\344\3413)-p\027\346\352\250iL\235&"
 732      30C10CE4 
 732      E133292D 
 732      7017E6EA 
 732      A8694C9D 
 733 077f 5A06F547 		.ascii	"Z\006\365G\\\332Js\031\013\347\362\016\354\216\203G"
 733      5CDA4A73 
 733      190BE7F2 
 733      0EEC8E83 
 733      47
 734 0790 5C66C3E8 		.ascii	"\\f\303\350\317\372v\223)\266\023uj\310eg\005\3152\206"
 734      CFFA7693 
 734      29B61375 
 734      6AC86567 
 734      05CD3286 
 735 07a4 406C3704 		.ascii	"@l7\004b\014\003\361\000\006\342A\334\0366\206\243\335"
 735      620C03F1 
 735      0006E241 
 735      DC1E3686 
 735      A3DD
 736 07b6 2CDF615C 		.ascii	",\337a\\:np\255w1\343\035\273n\366\031\273\331\224\353"
 736      3A6E70AD 
 736      7731E31D 
 736      BB6EF619 
 736      BBD994EB 
 737 07ca 20F6C6DB 		.ascii	" \366\306\333\232\027"
 737      9A17
 738 07d0 F27ADF52 		.ascii	"\362z\337R\375>C{d\325\354\032\321\034\3157\026\231"
 738      FD3E437B 
 738      64D5EC1A 
 738      D11CCD37 
 738      1699
 739 07e2 56043127 		.ascii	"V\0041'p\317X\020\264\372\031\0378\212\374\011\236\270"
ARM GAS  /tmp/cczjDZMM.s 			page 58


 739      70CF5810 
 739      B4FA191F 
 739      388AFC09 
 739      9EB8
 740 07f4 E9244F1C 		.ascii	"\351$O\034\324\203\333^\334^\300\355\020n+\321}\325"
 740      D483DB5E 
 740      DC5EC0ED 
 740      106E2BD1 
 740      7DD5
 741 0806 B89D8FDB 		.ascii	"\270\235\217\333\205\270]\202\333\025\270m\302\355\026"
 741      85B85D82 
 741      DB15B86D 
 741      C2ED16
 742 0815 DCB6E2B6 		.ascii	"\334\266\342\266\015\267{q\373.n\217;\011\000-C\032"
 742      0DB77B71 
 742      FB2E6E8F 
 742      3B09002D 
 742      431A
 743 0827 9E8E74E5 		.ascii	"\236\216t\345\272}\276k\262e\274\257\356\320\022\335"
 743      BA7DBE6B 
 743      B265BCAF 
 743      EED012DD 
 744 0837 3B5AAEE9 		.ascii	";Z\256\351u\202\230f8-#\271\334\305\343L}u\325\213\275"
 744      75829866 
 744      382D23B9 
 744      DCC5E34C 
 744      7D75D58B 
 745 084c 9F4F1947 		.ascii	"\237O\031G\303Z]}\352Z\011\326,\035\011\263h\304\276"
 745      C35A5D7D 
 745      EA5A09D6 
 745      2C1D09B3 
 745      68C4BE
 746 085f 74826875 		.ascii	"t\202husl\035e\007\015Qv\030\243\254\003\243\251\013"
 746      736C1D65 
 746      070D5176 
 746      18A3AC03 
 746      A3A90B
 747 0872 B7EF6144 		.ascii	"\267\357aD\234\302\355\031'q\261\337\370t\341N\256\376"
 747      9CC2ED19 
 747      2771B1DF 
 747      F874E14E 
 747      AEFE
 748 0884 12E43B59 		.ascii	"\022\344;Y\010\3551P\335\207T\333y\007\224Z\222\224"
 748      08ED3150 
 748      DD8754DB 
 748      7907945A 
 748      9294
 749 0896 E83BA104 		.ascii	"\350;\241\004\315\304q\243v\003\2358\356\325\216E\376"
 749      CDC471A3 
 749      76039D38 
 749      EED58E45 
 749      FE
 750 08a7 654F025F 		.ascii	"eO\002_\340j\362\3141\361\000\367\206\252\326\221\027"
 750      E06AF2CC 
 750      31F100F7 
 750      86AAD691 
 750      17
ARM GAS  /tmp/cczjDZMM.s 			page 59


 751 08b8 554BF815 		.ascii	"UK\370\025\325\352D\255/\201[\217\355v\362\367[r\242"
 751      D5EA44AD 
 751      2F815B8F 
 751      ED76F2F7 
 751      5B72A2
 752 08cb 8C34E1D8 		.ascii	"\2144\341\330\357;\233!\207\010\372k\222\246\014\242"
 752      EF3B9B21 
 752      8708FA6B 
 752      92A60CA2 
 753 08db FB0DA2CD 		.ascii	"\373\015\242\315\235[4Qm\274\274\235A\024u\244\242-"
 753      9D5B3451 
 753      6DBCBC9D 
 753      411475A4 
 753      A22D
 754 08ed 73B76AA2 		.ascii	"s\267j\242ZLm\313 J\315\3617\\\023\231D\267\317\255"
 754      5A4C6DCB 
 754      204ACDF1 
 754      375C1399 
 754      44B7CFAD 
 755 0901 6EE4D56C 		.ascii	"n\344\325l|\342\312Q9\223\243\316\013\202\361\004y\237"
 755      7CE2CA51 
 755      3993A3CE 
 755      0B82F104 
 755      799F
 756 0913 D7188F35 		.ascii	"\327\030\2175\034)\250\255\214\017\015\335\357\374]"
 756      1C29A8AD 
 756      8C0F0DDD 
 756      EFFC5D
 757 0922 DEC782E9 		.ascii	"\336\307\202\351]\236f9\326\211\214\223Z,\235\244\256"
 757      5D9E6639 
 757      D6898C93 
 757      5A2C9DA4 
 757      AE
 758 0933 91A87B44 		.ascii	"\221\250{D>.\220u\335U\301\201{\324A\"\266\037\305>"
 758      3E2E9075 
 758      DD55C181 
 758      7BD44122 
 758      B61FC53E 
 759 0947 CC2046E9 		.ascii	"\314 F\351hFR_S\347\024\361\011\023\021)\223\211>\263"
 759      6846525F 
 759      53E714F1 
 759      09131129 
 759      93893EB3 
 760 095b 34D1D091 		.ascii	"4\321\320\221E\340\226\252\330\320\320\323\354\033O"
 760      45E096AA 
 760      D8D0D0D3 
 760      EC1B4F
 761 096a E23D3B33 		.ascii	"\342=;3\335`\315D\0323f\351\2646\313{D?\255\371e\324"
 761      DD60CD44 
 761      1A3366E9 
 761      B436CB7B 
 761      443FADF9 
 762 0980 EFBAAD7E 		.ascii	"\357\272\255~\215\206 \250R\367\\\376\267\211\3729{"
 762      8D8620A8 
 762      52F75CFE 
 762      B789FA39 
 762      7B
ARM GAS  /tmp/cczjDZMM.s 			page 60


 763 0991 294AF0A6 		.ascii	")J\360\246\245\266g\216\322\200\3204\200\234k\315q;"
 763      A5B6678E 
 763      D280D034 
 763      809C6BCD 
 763      713B
 764 09a3 CBF1EB61 		.ascii	"\313\361\353aq\264\223\242\034oYrlY\274\330\316#\275"
 764      71B493A2 
 764      1C6F5972 
 764      6C59BCD8 
 764      CE23BD
 765 09b6 693C32C8 		.ascii	"i<2\310zD\013!\223G\256Yk{\216\215\270?9\212\270*u\037"
 765      7A440B21 
 765      9347AE59 
 765      6B7B8E8D 
 765      B83F398A 
 766 09ce 6ADB4BB5 		.ascii	"j\333K\265\265\223\242\004\277M\3256~=\366~\335QX\320"
 766      B593A204 
 766      BF4DD536 
 766      7E3DF67E 
 766      DD5158D0 
 767 09e2 AADF0C0D 		.ascii	"\252\337\014\015y\\\274q\257\3640\312v\033Gi\243e*\255"
 767      795CBC71 
 767      AFF430CA 
 767      761B4769 
 767      A3652AAD 
 768 09f6 1E61A9FC 		.ascii	"\036a\251\374`\351D}5]\213-T\217\235\362\335\206Q\272"
 768      60E9447D 
 768      355D8B2D 
 768      548F9DF2 
 768      DD8651BA 
 769 0a0a 878D107B 		.ascii	"\207\215\020{1c\204\260\243\224H\031~\"?\333ce\245\366"
 769      316384B0 
 769      A3944819 
 769      7E223FDB 
 769      6365A5F6 
 770 0a1e E3AE13D9 		.ascii	"\343\256\023\331|\326D\246Df=\333,\2656Q\013\233\310"
 770      7CD644A6 
 770      44663DDB 
 770      2CB53651 
 770      0B9BC8
 771 0a31 E6D9EA9A 		.ascii	"\346\331\352\232\222\310\264l\377\026\002\333\213\365"
 771      92C8B46C 
 771      FF1602DB 
 771      8BF5
 772 0a3f A631D13C 		.ascii	"\2461\321<\326D\257\245\232\010\206\315\235\023\211"
 772      D644AFA5 
 772      9A0886CD 
 772      9D1389
 773 0a4e A14DA243 		.ascii	"\241M\242C\340\266X+s[\367\267\310\327x\2102u\216\374"
 773      E0B6582B 
 773      735BF7B7 
 773      C8D77888 
 773      32758EFC 
 774 0a62 BD9BF5B7 		.ascii	"\275\233\365\267\275X:\177\327\261\312,\265\364w\357"
 774      BD583A7F 
 774      D7B1CA2C 
 774      B5F477EF 
ARM GAS  /tmp/cczjDZMM.s 			page 61


 775 0a72 A98432F3 		.ascii	"\251\2042\363Q\2316ke\232Y\317\324;\362\314m\3353\""
 775      5199366B 
 775      659A59CF 
 775      D43BF2CC 
 775      6DDD3322 
 776 0a86 5FEB492F 		.ascii	"_\353I/\226\3163\365\2542+-=\263zE2\241iyJ\340\216["
 776      96CE33F5 
 776      AC322B2D 
 776      3DB37A45 
 776      32A16979 
 777 0a9e EB7381CD 		.ascii	"\353s\201\315D\015\266\304\322e\";)Js\215%\315\013+"
 777      440DB6C4 
 777      D265223B 
 777      294A738D 
 777      25CD0B2B 
 778 0ab2 869389D6 		.ascii	"\206\223\211\326{\354\277\375I\034\304\340\3009d\223"
 778      7BECBFFD 
 778      491CC4E0 
 778      C0396493 
 779 0ac2 19D2F957 		.ascii	"\031\322\371Wo\003\372\347\021\033=d\320\015\214`\357"
 779      6F03FAE7 
 779      111B3D64 
 779      D00D8C60 
 779      EF
 780 0ad3 279AD8FB 		.ascii	"'\232\330\373\011\027\237\241\231RE\032\022}u\247+\361"
 780      09179FA1 
 780      9952451A 
 780      127D75A7 
 780      2BF1
 781 0ae5 D30AE65D 		.ascii	"\323\012\346]9\321\312\332\223\377\353y\220s\330\230"
 781      39D1CADA 
 781      93FFEB79 
 781      9073D898 
 782 0af5 34DFEC31 		.ascii	"4\337\3541\335\007\232n\011\377\230\2422imR\231\021"
 782      DD079A6E 
 782      09FF98A2 
 782      32696D52 
 782      9911
 783 0b07 B7EBE50D 		.ascii	"\267\353\345\015O\352\022\336z^\031\264\014\345\370"
 783      4FEA12DE 
 783      7A5E19B4 
 783      0CE5F8
 784 0b16 D0F1FEAF 		.ascii	"\320\361\376\257\370e\270D'X\0027/\237\264k\264\015"
 784      F865B844 
 784      27580237 
 784      2F9FB46B 
 784      B40D
 785 0b28 68ECD198 		.ascii	"h\354\321\230:\215\331\306^,]\266id\007\350V\313\310"
 785      3A8DD9C6 
 785      5E2C5DB6 
 785      696407E8 
 785      56CBC8
 786 0b3b BFD1BFC8 		.ascii	"\277\321\277\3100@\265\205Q]\276\375\232\326Hl\247#"
 786      3040B585 
 786      515DBEFD 
 786      9AD6486C 
 786      A723
ARM GAS  /tmp/cczjDZMM.s 			page 62


 787 0b4d 62ECC2C8 		.ascii	"b\354\302\310N\212\322l\266\244\371\301Yf\361\266\316"
 787      4E8AD26C 
 787      B6A4F9C1 
 787      5966F1B6 
 787      CE
 788 0b5e 21C7D661 		.ascii	"!\307\326aq\264\223\242\034w[r\354}\237\341\270\331"
 788      71B493A2 
 788      1C775B72 
 788      EC7D9FE1 
 788      B8D9
 789 0b70 21C7BDC3 		.ascii	"!\307\275\303\342h'E9\356\263\344\370\305y\353\305D"
 789      E2682745 
 789      39EEB3E4 
 789      F8C579EB 
 789      C544
 790 0b82 BAF5FE01 		.ascii	"\272\365\376\001v5A\032\033\023\024\214\370\032u\354"
 790      7635411A 
 790      1B13148C 
 790      F81A75EC 
 791 0b92 5BC90455 		.ascii	"[\311\004U\244C\2206\211\347\370-\017a\202:\204\011"
 791      A4439036 
 791      89E7F82D 
 791      0F61823A 
 791      8409
 792 0ba4 6A37631B 		.ascii	"j7c\033\307@\2157j\306\220\217\032;\021\346\340pa\342"
 792      C7408D37 
 792      6AC6908F 
 792      1A3B11E6 
 792      E07061E2 
 793 0bb8 ABE76FD4 		.ascii	"\253\347o\324\276\335:\202@\357\346\263\331\303\303"
 793      BEDD3A82 
 793      40EFE6B3 
 793      D9C3C3
 794 0bc7 E44B8F39 		.ascii	"\344K\2179_z\362\222\0252m\374e\0333y\247\3372\262 "
 794      5F7AF292 
 794      15326DFC 
 794      651B3379 
 794      A7DF32B2 
 795 0bdc EF7CD0CF 		.ascii	"\357|\320\317/\307\274c\214\257X\372\370\242a9$\216"
 795      2FC7BC63 
 795      8CAF58FA 
 795      F8A26139 
 795      248E
 796 0bee D59DF329 		.ascii	"\325\235\363)\302\033\304L\006\324Z\331\205\245]gT\215"
 796      C21BC44C 
 796      06D45AD9 
 796      85A55D67 
 796      548D
 797 0c00 639661B9 		.ascii	"c\226a\271\362\303\256\304\374\253\005\234\300]\267"
 797      F2C3AEC4 
 797      FCAB059C 
 797      C05DB7
 798 0c0f 1E3D298B 		.ascii	"\036=)\213\357\036w\332\211\374I\017#\346B;\273\316"
 798      EF1E77DA 
 798      89FC490F 
 798      23E6423B 
 798      BBCE
ARM GAS  /tmp/cczjDZMM.s 			page 63


 799 0c21 A876A72C 		.ascii	"\250v\247,\265k\273\224\252\335\354\002g\332\365\017"
 799      B56BBB94 
 799      AADDEC02 
 799      67DAF50F 
 800 0c31 4FBBFE61 		.ascii	"O\273\376aig\327\031\325\356\214\305z\2656\376\305\371"
 800      6967D719 
 800      D5EE8CC5 
 800      7AB536FE 
 800      C5F9
 801 0c43 77B35F57 		.ascii	"w\263_W\337\261\374p\232\254\242\355\322\3129\253\373"
 801      DFB1FC70 
 801      9AACA2ED 
 801      D2CA39AB 
 801      FB
 802 0c54 3826CE57 		.ascii	"8&\316W2V\322\231\\\260b\022\333\263j\341}\352z\313"
 802      3256D299 
 802      5CB06212 
 802      DBB36AE1 
 802      7DEA7ACB 
 803 0c68 BBE7344B 		.ascii	"\273\3474K\256\213\224G\262k\201\333`\323\357\207\226"
 803      AE8B9447 
 803      B26B81DB 
 803      60D3EF87 
 803      96
 804 0c79 FDEE3CBB 		.ascii	"\375\356<\273P\345\335\336\243]f\325\337\304\247<Ei"
 804      50E5DDDE 
 804      A35D66D5 
 804      DFC4A73C 
 804      4569
 805 0c8b B6A171C5 		.ascii	"\266\241q\305\222F\313Y[\365\311\2739;\"W\255\210$\016"
 805      9246CB59 
 805      5BF5C9BB 
 805      393B2257 
 805      AD88240E 
 806 0c9f 68B830C4 		.ascii	"h\2700\304\016\332\020\373\324L\354\307\334zBl\250~"
 806      0EDA10FB 
 806      D44CECC7 
 806      DC7A426C 
 806      A87E
 807 0cb1 050FC454 		.ascii	"\005\017\304T\365\016,-\255\3362ytN\344]^b\276\370|"
 807      F50E2C2D 
 807      ADDE3279 
 807      744EE45D 
 807      5E62BEF8 
 808 0cc6 3D5F8D2F 		.ascii	"=_\215/\333\256y\310\253\2463L\237\031\201\004\3562"
 808      DBAE79C8 
 808      ABA6334C 
 808      9F198104 
 808      EE32
 809 0cd8 8A5CF7A4 		.ascii	"\212\\\367\244\274r?<\207\276\307#\3278\013U\350\217"
 809      BC723F3C 
 809      87BEC723 
 809      D7380B55 
 809      E88F
 810 0cea BEC75B73 		.ascii	"\276\307[s\332\366\225u<\361\206\354\257\015\334\317"
 810      DAF69575 
 810      3CF186EC 
ARM GAS  /tmp/cczjDZMM.s 			page 64


 810      AF0DDCCF 
 811 0cfa F65DA4DC 		.ascii	"\366]\244\334\277D\356\237g\346n\006\202\245%\212\334"
 811      BF44EE9F 
 811      67E66E06 
 811      82A5258A 
 811      DC
 812 0d0b 4AE5DE3B 		.ascii	"J\345\336;\233r\277\345\210\373\251\036\215\273\376"
 812      9B72BFE5 
 812      88FBA91E 
 812      8DBBFE
 813 0d1a 1672DE48 		.ascii	"\026r\336H\035\227v\354\362-d\257\366\335\240\366Jk"
 813      1D9776EC 
 813      F22D64AF 
 813      F6DDA0F6 
 813      4A6B
 814 0d2c 090BE6EA 		.ascii	"\011\013\346\352\245\211\032;\243\201\305\361[\371\225"
 814      A5891A3B 
 814      A381C5F1 
 814      5BF995
 815 0d3b AEC18A4D 		.ascii	"\256\301\212M\314.\324\231?x_\353\004/\315w}\327{\014"
 815      CC2ED499 
 815      3F785FEB 
 815      042FCD77 
 815      7DD77B0C 
 816 0d4f DFF5BDE9 		.ascii	"\337\365\275\351\032\314L\356k#\330\026'`V_\277Y\375"
 816      1ACC4CEE 
 816      6B23D816 
 816      2760565F 
 816      BF59FD
 817 0d62 8C4122F2 		.ascii	"\214A\"\362\267=\344M\305\237<\344\025\3127\270\275"
 817      B73DE44D 
 817      C59F3CE4 
 817      15CA37B8 
 817      BD
 818 0d73 835BD54B 		.ascii	"\203[\325K\266U\270\235\3555}\002\320:R\037%\226\241"
 818      B655B89D 
 818      ED357D02 
 818      D03A521F 
 818      2596A1
 819 0d86 982924D4 		.ascii	"\230)$\324X\263\375\360xE\027/0\214\216U\003\225\374"
 819      58B3FDF0 
 819      7845172F 
 819      308C8E55 
 819      0395FC
 820 0d99 1C0CE1DF 		.ascii	"\034\014\341\337x\211\343\333Gf\034\035&\034\201\353"
 820      7889E3DB 
 820      47661C1D 
 820      261C81EB 
 821 0da9 458905DE 		.ascii	"E\211\005\336\224\017:\276\255\246\203\203\\\31348\252"
 821      940F3ABE 
 821      ADA68383 
 821      5CCB3438 
 821      AA
 822 0dba 62B7170F 		.ascii	"b\267\027\017\377?/0\312\317\353_\246\324\242\036\237"
 822      FF3F2F30 
 822      CACFEB5F 
 822      A6D4A21E 
ARM GAS  /tmp/cczjDZMM.s 			page 65


 822      9F
 823 0dcb 66D683FD 		.ascii	"f\326\203\375\343\313 \212,MU\344\232\256\310RG\212"
 823      E3CB208A 
 823      2C4D55E4 
 823      9AAEC852 
 823      478A
 824 0ddd EC5EACC7 		.ascii	"\354^\254\307\376b/\211\260\205\205:n\232\010\263ui"
 824      FE622F89 
 824      B085853A 
 824      6E9A08B3 
 824      7569
 825 0def 55ACED04 		.ascii	"U\254\355\004\206\253\006\266\3145\2309\366\367\235"
 825      86AB06B6 
 825      CC359839 
 825      F6F79D
 826 0dfe 68B8576D 		.ascii	"h\270Wm<\300\353\313\313\006\026\317\264D\311\2245\252"
 826      3CC0EBCB 
 826      CB0616CF 
 826      B444C994 
 826      35AA
 827 0e10 62ED27D8 		.ascii	"b\355'\330od\235O\273k\275\314l\3674\263\350H\363xc"
 827      6F649D4F 
 827      BB6BBDCC 
 827      6CF734B3 
 827      E848F378 
 828 0e25 CFAA0F2A 		.ascii	"\317\252\017*\351?G\326\240a\232\012\315\016g\236d\220"
 828      E93F47D6 
 828      A0619A0A 
 828      CD0E679E 
 828      6490
 829 0e37 BEEC78FC 		.ascii	"\276\354x\374\326\233o\343\324\224k\220/\2348 \3357"
 829      D69B6FE3 
 829      D4946B90 
 829      2F9C3820 
 829      DD37
 830 0e49 CFE7BF7C 		.ascii	"\317\347\277|C\177\255\213\337\016\354r\002\350\374"
 830      437FAD8B 
 830      DF0EEC72 
 830      02E8FC
 831 0e58 AD6E327E 		.ascii	"\255n2~E~\271\227$\240\025\230hV\342v\025n\033p\273"
 831      457EB997 
 831      24A01598 
 831      6856E276 
 831      156E1B70 
 832 0e6d C1987AEC 		.ascii	"\301\230z\354lC\242.\201]\357\025\350P\037^$\177\223"
 832      6C43A22E 
 832      815DEF15 
 832      E8501F5E 
 832      247F93
 833 0e80 8C64917F 		.ascii	"\214d\221\177\3355\230\311\220\261%=\306H\026\371\325"
 833      DD3598C9 
 833      90B1253D 
 833      C64816F9 
 833      D5
 834 0e91 2C9ECB48 		.ascii	",\236\313H\336VWp\362\025}X\354+\344]\202\025\245s\312"
 834      DE565770 
 834      F2157D58 
ARM GAS  /tmp/cczjDZMM.s 			page 66


 834      EC2BE45D 
 834      8215A573 
 835 0ea6 0283535E 		.ascii	"\002\203S^C\247,B\027\274\211\333\215\270}\313<\023"
 835      43A72C42 
 835      17BC89DB 
 835      8DB87DCB 
 835      3C13
 836 0eb8 74173233 		.ascii	"t\02723\201)\355Z\315KF\363\250\261\275\247\301\326"
 836      8129ED5A 
 836      CD4B46F3 
 836      A8B1BDA7 
 836      C1D6
 837 0eca CEBFA9FC 		.ascii	"\316\277\251\374H\377\246r3\246\317\223\205\226\351"
 837      48FFA672 
 837      33A6CF93 
 837      8596E9
 838 0ed9 33DD3795 		.ascii	"3\3357\225\027PdkJ\372\\;\240/\222\266fN\237\263\253"
 838      1750646B 
 838      4AFA5C3B 
 838      A02F92B6 
 838      664E9FB3 
 839 0eee 63CD4BDF 		.ascii	"c\315K\337L\316\003\325\211\001<'\315S\021\323\347\354"
 839      4CCE03D5 
 839      89013C27 
 839      CD5311D3 
 839      E7EC
 840 0f00 7F4CF070 		.ascii	"\177L\360p\031\244\326\256\333jp\335vt\335\016\263\243"
 840      19A4D6AE 
 840      DB6A70DD 
 840      7674DD0E 
 840      B3A3
 841 0f12 6EB38EB2 		.ascii	"n\263\216\262\352/\315W{\375\247\265\257\366\234\372"
 841      EA2FCD57 
 841      7BFDA7B5 
 841      AFF69CFA 
 842 0f22 6AF0D68D 		.ascii	"j\360\326\215'\360aI\013zj\333(\227\236\"J\2651^\212"
 842      27F06149 
 842      0B7A6ADB 
 842      28979E22 
 842      4AB5315E 
 843 0f37 DD948AB5 		.ascii	"\335\224\212\265\263\231\247\267\301\001\374\364\315"
 843      B399A7B7 
 843      C101FCF4 
 843      CD
 844 0f44 F9E73587 		.ascii	"\371\3475\207/\321\307\341\373\274\370U\"Cx\230\237"
 844      2FD1C7E1 
 844      FBBCF855 
 844      22437898 
 844      9F
 845 0f55 D774234C 		.ascii	"\327t#L\333w\345\3466\203\233\367\240\233\367\232\335"
 845      DB77E5E6 
 845      36839BF7 
 845      A09BF79A 
 845      DD
 846 0f66 7C72945B 		.ascii	"|r\224[7\027\247\353\357\272a\235\370\005\256\023o\342"
 846      3717A7EB 
 846      EFBA619D 
ARM GAS  /tmp/cczjDZMM.s 			page 67


 846      F805AE13 
 846      6FE2
 847 0f78 DA702EE6 		.ascii	"\332p.\346\202M\270\335efp*a8\313[,\202\372\2167q\317"
 847      824DB8DD 
 847      6566702A 
 847      6138CB5B 
 847      2C82FA8E 
 848 0f8f F703AE16 		.ascii	"\367\003\256\026\343\340\231\225\205\332\377A\254\022"
 848      E3E09995 
 848      85DAFF41 
 848      AC12
 849 0f9d 199139   		.ascii	"\031\2219"
 850 0fa0 E8FD01D6 		.ascii	"\350\375\001\326L\3577\260\205]\364\034\362&\377sR\220"
 850      4CEF37B0 
 850      855DF41C 
 850      F226FF73 
 850      5290
 851 0fb2 97ACF0E6 		.ascii	"\227\254\360\346\256\213\231\236\307\353\355r(\316a"
 851      AE8B999E 
 851      C7EBED72 
 851      28CE61
 852 0fc1 D73D77D8 		.ascii	"\327=w\330\364\234M{f&\375k6\336\"P\235\311\211\215"
 852      F49C4D7B 
 852      6626FD6B 
 852      36DE2250 
 852      9DC9898D 
 853 0fd5 913A97E6 		.ascii	"\221:\227\346\245G\227\255Te\032\251n[\251\213i\244"
 853      A54797AD 
 853      54651AA9 
 853      6E5BA98B 
 853      69A4
 854 0fe7 8ED84ACD 		.ascii	"\216\330J\315O#u\324V\352r\032\251wm\245\256\246\221"
 854      4F2375D4 
 854      56EA721A 
 854      A9776DA5 
 854      AEA691
 855 0ffa 3A9694E2 		.ascii	":\226\224\342&\226"
 855      2696
 856 1000 9485CBA5 		.ascii	"\224\205\313\245\022\177\270tVI\2514\275\304_\026\230"
 856      127FB874 
 856      5649A934 
 856      BDC45F16 
 856      98
 857 1011 1208474B 		.ascii	"\022\010GK\024\271\"\364\253\022\250\310JI$,+\321\222"
 857      14B922F4 
 857      AB12A8C8 
 857      4A49242C 
 857      2BD192
 858 1024 675F7C61 		.ascii	"g_|a\302\0133\241ey$\020\224\344h\311\363\023&@seVD"
 858      C20B33A1 
 858      65792410 
 858      94E468C9 
 858      F3132640 
 859 103c 8AFEA48C 		.ascii	"\212\376\244\214\313*\217N\363)\331\317\377\313\313"
 859      CB2A8F4E 
 859      F329D9CF 
 859      FFCBCB
ARM GAS  /tmp/cczjDZMM.s 			page 68


 860 104b C513B807 		.ascii	"\305\023\270\007J*\242r\211(\227?\034\012\207\244\207"
 860      4A2AA272 
 860      8928973F 
 860      1C0A87A4 
 860      87
 861 105c 25714AA0 		.ascii	"%qJ\240$\020\362\007+J\245\222\250R\032\010) \221\003"
 861      2410F207 
 861      2B4AA592 
 861      A8521A08 
 861      29209103 
 862 1070 BB477FEA 		.ascii	"\273G\177\352S\036K\323\270\\\004B!\251\304W*M\025+"
 862      531E4BD3 
 862      B85C0442 
 862      21A9C457 
 862      2A4D152B 
 863 1084 828A4FEF 		.ascii	"\202\212O\357.\317\347\243\342\271JT\021\025\311\247"
 863      2ECFE7A3 
 863      E2B94A54 
 863      1115C9A7 
 864 1094 E454C099 		.ascii	"\344T\300\231\361>\005.\321\332O\035(\027\225\375p^"
 864      F13E052E 
 864      D1DA4F1D 
 864      281795FD 
 864      705E
 865 10a6 9A2E8594 		.ascii	"\232.\205\224\350O\374\334\343\016Dtr\011\2612\256\020"
 865      E84FFCDC 
 865      E30E4474 
 865      7209B132 
 865      AE10
 866 10b8 6BBE68B8 		.ascii	"k\276h\270B\366\003\225\002\343a\221v\020\014D\025)"
 866      42F60395 
 866      02E36191 
 866      76100C44 
 866      1529
 867 10ca 24C93EA5 		.ascii	"$\311>\245\320|\"G\012\372B\322Le\274\253\256\243\263"
 867      D07C2247 
 867      0AFA42D2 
 867      4C65BCAB 
 867      AEA3B3
 868 10dd A2BA2D72 		.ascii	"\242\272-r\2252Y\022KAs\177\231O\253?\346\016\313_V"
 868      95325912 
 868      4B41737F 
 868      994FAB3F 
 868      E60ECB5F 
 869 10f2 0A38D911 		.ascii	"\0128\331\021\344\001\273\210,M\317Q\"r \014\366\255"
 869      E401BB88 
 869      2C4DCF51 
 869      2272200C 
 869      F6AD
 870 1104 A0861EA1 		.ascii	"\240\206\036\241\331\225T\261I \234\343\017\207\024"
 870      D99554B1 
 870      49209CE3 
 870      0F8714
 871 1113 9078D275 		.ascii	"\220x\322u\020\225\371\303\262\004]\346\223\323\304"
 871      1095F9C3 
 871      B2045DE6 
 871      93D3C4
ARM GAS  /tmp/cczjDZMM.s 			page 69


 872 1122 937E65E6 		.ascii	"\223~e\346?\014\017\3057\375\211rb\004Y\232\0061\344"
 872      3F0C0FC5 
 872      37FD8972 
 872      6204599A 
 872      0631E4
 873 1135 5304F931 		.ascii	"S\004\3711A\376;A~\\\220\237\020\344\361\202\374\244"
 873      41FE3B41 
 873      7E5C909F 
 873      10E4F182 
 873      FCA4
 874 1147 477E641C 		.ascii	"G~d\034\224G\204\240\014\273G\263\">\350-\207(;\003"
 874      944784A0 
 874      0CBB47B3 
 874      223EE82D 
 874      87283B03 
 875 115b AC1FF185 		.ascii	"\254\037\361\205\203\245\222\354\365\227\2112\261\200"
 875      83A592EC 
 875      F5978932 
 875      B180
 876 1169 582EC139 		.ascii	"X.\3019\214\251\034\245<\\J\"+\342\233\032\024\247E"
 876      8CA91CA5 
 876      3C5C4A22 
 876      2BE29B1A 
 876      14A745
 877 117c 7314599A 		.ascii	"s\024Y\232\032E\365I%[.\235\005Q\237+\315\014(\300Z"
 877      1A45F549 
 877      255B2E9D 
 877      05519F2B 
 877      CD0C28C0 
 878 1191 CA9EA184 		.ascii	"\312\236\241\204\247\374g$\037\335[.F\177\005-\245\031"
 878      A7FC6724 
 878      1FDD5B2E 
 878      467F052D 
 878      A519
 879 11a3 A4E289F8 		.ascii	"\244\342\211\370*\0125\317D\321\357>eT\302W\332\231"
 879      2A0A35CF 
 879      44D1EF3E 
 879      6554C257 
 879      DA99
 880 11b5 BC886F86 		.ascii	"\274\210o\206\030P\002\241i\243\364\323\377U!U@\357"
 880      185002A1 
 880      69A3F4D3 
 880      FF552155 
 880      40EF
 881 11c7 45869678 		.ascii	"E\206\226xjD\304\007\335b5\013\253pB\212H!\030W\323"
 881      6A44C407 
 881      DD62350B 
 881      AB70428A 
 881      48211857 
 882 11dc B2CA2BC0 		.ascii	"\262\312+\300#\217\272r\177\2712\223\014\307r\015\035"
 882      238FBA72 
 882      7FB93293 
 882      0CC7720D 
 882      1D
 883 11ed F6E11924 		.ascii	"\366\341\031$,\021\011T(\307\250\000~\320\2160\035A"
 883      2C110954 
 883      28C7A800 
ARM GAS  /tmp/cczjDZMM.s 			page 70


 883      7ED08E30 
 883      1D41
 884 11ff B4178318 		.ascii	"\264\027\203\030\000p2\022\016\007\363!\204\365p\316"
 884      00703212 
 884      0E07F321 
 884      84F570CE 
 885 120f 83BA362E 		.ascii	"\203\2726.\264Q\200\226\2030\202\323X%\327gh\346\224"
 885      B4518096 
 885      833082D3 
 885      5825D767 
 885      68E694
 886 1222 A208FD57 		.ascii	"\242\010\375W\376\262\347\246+/J\323\010\202\374\002"
 886      FEB2E7A6 
 886      2B2F4AD3 
 886      0882FC02 
 887 1232 D8EB9701 		.ascii	"\330\353\227\001\245\354\037I\023\217\024\215x\244`"
 887      A5EC1F49 
 887      138F148D 
 887      78A460
 888 1241 245B43CC 		.ascii	"$[C\314\326\004G\241\300\313!\231\212\214\301\343\347"
 888      D60447A1 
 888      C0CB2199 
 888      8A8CC1E3 
 888      E7
 889 1252 25E5D950 		.ascii	"%\345\331P\351\204\240$\312\317a\353B<\375li\251vx\017"
 889      E984A024 
 889      CACF61EB 
 889      423CFD6C 
 889      69A97678 
 890 1267 DB0A7B28 		.ascii	"\333\012{(\300\263\223\003\323Bbp\222\240D\356\306\343"
 890      C0B39303 
 890      D3426270 
 890      92A044EE 
 890      C6E3
 891 1279 9FC961B1 		.ascii	"\237\311a\261\324/F\025l3)\013\273\31574\035m\321,\205"
 891      D42F4615 
 891      6C33290B 
 891      BBCD3734 
 891      1D6DD12C 
 892 128e 86269C87 		.ascii	"\206&\234\207\334\0030>!2\312\304Pi\220$\201\221\330"
 892      DC03303E 
 892      2132CAC4 
 892      50699024 
 892      8191D8
 893 12a1 F8E78168 		.ascii	"\370\347\201hDT\374e\271\364<\245\363K\210\204\177\015"
 893      4454FC65 
 893      B9F43CA5 
 893      F34B8884 
 893      7F0D
 894 12b3 49C98367 		.ascii	"I\311\203gC\263\014\007\301`\036\031\376\201r\211\016"
 894      43B30C07 
 894      C1601E19 
 894      FE817289 
 894      0E
 895 12c4 CF471E4F 		.ascii	"\317G\036O\014OR\035m\004y\011\232\205+\024/i>\332\010"
 895      0C4F521D 
 895      6D047909 
ARM GAS  /tmp/cczjDZMM.s 			page 71


 895      9A852B14 
 895      2F693EDA 
 896 12d9 482F8C36 		.ascii	"H/\2146\342\322s\240\351d\177\331\213\020r\263&\025"
 896      E2D273A0 
 896      E9647FD9 
 896      8B1072B3 
 896      2615
 897 12eb D13A2409 		.ascii	"\321:$\011\251\264\"(M\036\211'\236\017O\016JRd\362"
 897      A9B42228 
 897      4D1E8927 
 897      9E0F4F0E 
 897      4A5264F2 
 898 12ff DDC6232A 		.ascii	"\335\306#*>\031\344}\204\241T\256%%\255^@bx\026\215"
 898      3E19E47D 
 898      84A154AE 
 898      2525AD5E 
 898      40627816 
 899 1314 7F40F125 		.ascii	"\177@\361%\217sd-\370\262eL,Y2\016Q\231\016QY\033\242"
 899      8F73642D 
 899      F8B2654C 
 899      2C59320E 
 899      51990E51 
 900 132b 7970B642 		.ascii	"yp\266B\226\301\230Y2\021\272gz@V*\304\240\217\250&"
 900      96C19859 
 900      3211BA67 
 900      7A40562A 
 900      C4A08FA8 
 901 1340 EB030BBC 		.ascii	"\353\003\013\274\340\263\2700\312tN\033U\246S9\323\025"
 901      E0B3B830 
 901      CA744E1B 
 901      55A65339 
 901      D315
 902 1352 8C46B227 		.ascii	"\214F\262'\371/\027\366\245RP\021\2412\265\"\344\367"
 902      F92F17F6 
 902      A5525011 
 902      A132B522 
 902      E4F7
 903 1364 E11552CB 		.ascii	"\341\025R\313&-D9\037vA\360=\221\206S\244\223B\252t"
 903      262D4439 
 903      1F7641F0 
 903      3D918653 
 903      A49342AA 
 904 1379 A934A562 		.ascii	"\2514\245b\2326\306\215g\362\"b(\340'#\326S:e\232\223"
 904      9A36C68D 
 904      67F22262 
 904      28E02723 
 904      D6533A65 
 905 138f D9293948 		.ascii	"\331)9H\025\222\344\212\224r\237_\014\006\246\310\242"
 905      1592E48A 
 905      94729F5F 
 905      0C06A6C8 
 905      A2
 906 13a0 12088780 		.ascii	"\022\010\207\200\222\254\370a*Q\262\303S\247F%EP\312"
 906      92ACF861 
 906      2A51B2C3 
 906      53A74625 
 906      4550CA
ARM GAS  /tmp/cczjDZMM.s 			page 72


 907 13b3 057FD9FF 		.ascii	"\005\177\331\377\003\312\030\315\362"
 907      03CA18CD 
 907      F2
 908              		.text
 909              		.section	.gnu.lto_.symtab.b96ad1791c1fc7a6,"",%progbits
 910 0000 63684576 		.ascii	"chEvtRegisterMaskWithFlags\000\000\000\000\000\000\000"
 910      74526567 
 910      69737465 
 910      724D6173 
 910      6B576974 
 911 0021 00000000 		.ascii	"\000\000\000\000\000\264\000\000\000chEvtUnregister"
 911      00B40000 
 911      00636845 
 911      7674556E 
 911      72656769 
 912 0039 00000000 		.ascii	"\000\000\000\000\000\000\000\000\000\000\000\000h\001"
 912      00000000 
 912      00000000 
 912      6801
 913 0047 00006368 		.ascii	"\000\000chEvtGetAndClearEvents\000\000\000\000\000\000"
 913      45767447 
 913      6574416E 
 913      64436C65 
 913      61724576 
 914 0065 00000000 		.ascii	"\000\000\000\000\000\000p\001\000\000chEvtAddEvents"
 914      00007001 
 914      00006368 
 914      45767441 
 914      64644576 
 915 007d 00000000 		.ascii	"\000\000\000\000\000\000\000\000\000\000\000\000v\001"
 915      00000000 
 915      00000000 
 915      7601
 916 008b 00006368 		.ascii	"\000\000chEvtGetAndClearFlags\000\000\000\000\000\000"
 916      45767447 
 916      6574416E 
 916      64436C65 
 916      6172466C 
 917 00a8 00000000 		.ascii	"\000\000\000\000\000\000z\001\000\000chEvtSignalI\000"
 917      00007A01 
 917      00006368 
 917      45767453 
 917      69676E61 
 918 00bf 00000000 		.ascii	"\000\000\000\000\000\000\000\000\000\000\000\200\001"
 918      00000000 
 918      00000080 
 918      01
 919 00cc 00006368 		.ascii	"\000\000chEvtBroadcastFlagsI\000\000\000\000\000\000"
 919      45767442 
 919      726F6164 
 919      63617374 
 919      466C6167 
 920 00e8 00000000 		.ascii	"\000\000\000\000\000\000\211\001\000\000chEvtSignal"
 920      00008901 
 920      00006368 
 920      45767453 
 920      69676E61 
ARM GAS  /tmp/cczjDZMM.s 			page 73


 921 00fd 00000000 		.ascii	"\000\000\000\000\000\000\000\000\000\000\000\000\222"
 921      00000000 
 921      00000000 
 921      92
 922 010a 01000063 		.ascii	"\001\000\000chEvtBroadcastFlags\000\000\000\000\000"
 922      68457674 
 922      42726F61 
 922      64636173 
 922      74466C61 
 923 0125 00000000 		.ascii	"\000\000\000\000\000\000\000\227\001\000\000chEvtGe"
 923      00000097 
 923      01000063 
 923      68457674 
 923      4765
 924 0137 74416E64 		.ascii	"tAndClearFlagsI\000\000\000\000\000\000\000\000\000"
 924      436C6561 
 924      72466C61 
 924      67734900 
 924      00000000 
 925 014f 0000009C 		.ascii	"\000\000\000\234\001\000\000chEvtDispatch\000\000\000"
 925      01000063 
 925      68457674 
 925      44697370 
 925      61746368 
 926 0166 00000000 		.ascii	"\000\000\000\000\000\000\000\000\000\240\001\000\000"
 926      00000000 
 926      00A00100 
 926      00
 927 0173 63684576 		.ascii	"chEvtWaitOne\000\000\000\000\000\000\000\000\000\000"
 927      74576169 
 927      744F6E65 
 927      00000000 
 927      00000000 
 928 0189 0000B401 		.ascii	"\000\000\264\001\000\000chEvtWaitAny\000\000\000\000"
 928      00006368 
 928      45767457 
 928      61697441 
 928      6E790000 
 929 019f 00000000 		.ascii	"\000\000\000\000\000\000\000\000\270\001\000\000chE"
 929      00000000 
 929      B8010000 
 929      636845
 930 01ae 76745761 		.ascii	"vtWaitAll\000\000\000\000\000\000\000\000\000\000\000"
 930      6974416C 
 930      6C000000 
 930      00000000 
 930      00000000 
 931 01c2 00BC0100 		.ascii	"\000\274\001\000\000chEvtWaitOneTimeout\000\000\000"
 931      00636845 
 931      76745761 
 931      69744F6E 
 931      6554696D 
 932 01dd 00000000 		.ascii	"\000\000\000\000\000\000\000\000\000\300\001\000\000"
 932      00000000 
 932      00C00100 
 932      00
 933 01ea 63684576 		.ascii	"chEvtWaitAnyTimeout\000\000\000\000\000\000\000\000"
ARM GAS  /tmp/cczjDZMM.s 			page 74


 933      74576169 
 933      74416E79 
 933      54696D65 
 933      6F757400 
 934 0205 00000000 		.ascii	"\000\000\000\000\322\001\000\000chEvtWaitAllTimeout"
 934      D2010000 
 934      63684576 
 934      74576169 
 934      74416C6C 
 935 0220 00000000 		.ascii	"\000\000\000\000\000\000\000\000\000\000\000\000\327"
 935      00000000 
 935      00000000 
 935      D7
 936 022d 01000063 		.ascii	"\001\000\000ch\000\000\002\000\000\000\000\000\000\000"
 936      68000002 
 936      00000000 
 936      000000
 937 023c 0000EC01 		.ascii	"\000\000\354\001\000\000chSchReadyI\000\000\002\000"
 937      00006368 
 937      53636852 
 937      65616479 
 937      49000002 
 938 0251 00000000 		.ascii	"\000\000\000\000\000\000\000\000\334\001\000\000chS"
 938      00000000 
 938      DC010000 
 938      636853
 939 0260 63685265 		.ascii	"chRescheduleS\000\000\002\000\000\000\000\000\000\000"
 939      73636865 
 939      64756C65 
 939      53000002 
 939      00000000 
 940 0277 0000E001 		.ascii	"\000\000\340\001\000\000chSchGoSleepS\000\000\002\000"
 940      00006368 
 940      53636847 
 940      6F536C65 
 940      65705300 
 941 028e 00000000 		.ascii	"\000\000\000\000\000\000\000\000\343\001\000\000chS"
 941      00000000 
 941      E3010000 
 941      636853
 942 029d 6368476F 		.ascii	"chGoSleepTimeoutS\000\000\002\000\000\000\000\000\000"
 942      536C6565 
 942      7054696D 
 942      656F7574 
 942      53000002 
 943 02b7 000000E7 		.ascii	"\000\000\000\347\001\000\000"
 943      010000
 944              		.text
 945              		.section	.gnu.lto_.opts,"",%progbits
 946 0000 272D6D63 		.ascii	"'-mcpu=cortex-m3' '-mno-thumb-interwork' '-mthumb' "
 946      70753D63 
 946      6F727465 
 946      782D6D33 
 946      2720272D 
 947 0033 272D4F32 		.ascii	"'-O2' '-fomit-frame-pointer' '-falign-functions=16'"
 947      2720272D 
 947      666F6D69 
ARM GAS  /tmp/cczjDZMM.s 			page 75


 947      742D6672 
 947      616D652D 
 948 0066 20272D66 		.ascii	" '-ffunction-sections' '-fdata-sections' '-fno-comm"
 948      66756E63 
 948      74696F6E 
 948      2D736563 
 948      74696F6E 
 949 0099 6F6E2720 		.ascii	"on' '-flto'\000"
 949      272D666C 
 949      746F2700 
 950              		.text
 951              		.section	.text.chEvtRegisterMaskWithFlags,"ax",%progbits
 952              		.align	2
 953              		.p2align 4,,15
 954              		.global	chEvtRegisterMaskWithFlags
 955              		.thumb
 956              		.thumb_func
 957              		.type	chEvtRegisterMaskWithFlags, %function
 958              	chEvtRegisterMaskWithFlags:
 959              		@ args = 0, pretend = 0, frame = 0
 960              		@ frame_needed = 0, uses_anonymous_args = 0
 961              		@ link register save eliminated.
 962 0000 70B4     		push	{r4, r5, r6}
 963 0002 2024     		movs	r4, #32
 964              	@ 546 "/home/cody/dev/chibios/trunk/os/ext/CMSIS/include/core_cmFunc.h" 1
 965 0004 84F31188 		MSR basepri, r4
 966              	@ 0 "" 2
 967              		.thumb
 968 0008 064C     		ldr	r4, .L2
 969 000a 0568     		ldr	r5, [r0]
 970 000c A669     		ldr	r6, [r4, #24]
 971 000e 0024     		movs	r4, #0
 972 0010 0D60     		str	r5, [r1]
 973 0012 0160     		str	r1, [r0]
 974 0014 4E60     		str	r6, [r1, #4]
 975 0016 8A60     		str	r2, [r1, #8]
 976 0018 0B61     		str	r3, [r1, #16]
 977 001a CC60     		str	r4, [r1, #12]
 978              	@ 546 "/home/cody/dev/chibios/trunk/os/ext/CMSIS/include/core_cmFunc.h" 1
 979 001c 84F31188 		MSR basepri, r4
 980              	@ 0 "" 2
 981              		.thumb
 982 0020 70BC     		pop	{r4, r5, r6}
 983 0022 7047     		bx	lr
 984              	.L3:
 985              		.align	2
 986              	.L2:
 987 0024 00000000 		.word	ch
 988              		.size	chEvtRegisterMaskWithFlags, .-chEvtRegisterMaskWithFlags
 989 0028 AFF30080 		.section	.text.chEvtUnregister,"ax",%progbits
 989      AFF30080 
 990              		.align	2
 991              		.p2align 4,,15
 992              		.global	chEvtUnregister
 993              		.thumb
 994              		.thumb_func
 995              		.type	chEvtUnregister, %function
ARM GAS  /tmp/cczjDZMM.s 			page 76


 996              	chEvtUnregister:
 997              		@ args = 0, pretend = 0, frame = 0
 998              		@ frame_needed = 0, uses_anonymous_args = 0
 999              		@ link register save eliminated.
 1000 0000 2023     		movs	r3, #32
 1001              	@ 546 "/home/cody/dev/chibios/trunk/os/ext/CMSIS/include/core_cmFunc.h" 1
 1002 0002 83F31188 		MSR basepri, r3
 1003              	@ 0 "" 2
 1004              		.thumb
 1005 0006 0246     		mov	r2, r0
 1006 0008 02E0     		b	.L5
 1007              	.L8:
 1008 000a 8B42     		cmp	r3, r1
 1009 000c 07D0     		beq	.L10
 1010 000e 1A46     		mov	r2, r3
 1011              	.L5:
 1012 0010 1368     		ldr	r3, [r2]
 1013 0012 8342     		cmp	r3, r0
 1014 0014 F9D1     		bne	.L8
 1015 0016 0023     		movs	r3, #0
 1016              	@ 546 "/home/cody/dev/chibios/trunk/os/ext/CMSIS/include/core_cmFunc.h" 1
 1017 0018 83F31188 		MSR basepri, r3
 1018              	@ 0 "" 2
 1019              		.thumb
 1020 001c 7047     		bx	lr
 1021              	.L10:
 1022 001e 0B68     		ldr	r3, [r1]
 1023 0020 1360     		str	r3, [r2]
 1024 0022 0023     		movs	r3, #0
 1025              	@ 546 "/home/cody/dev/chibios/trunk/os/ext/CMSIS/include/core_cmFunc.h" 1
 1026 0024 83F31188 		MSR basepri, r3
 1027              	@ 0 "" 2
 1028              		.thumb
 1029 0028 7047     		bx	lr
 1030              		.size	chEvtUnregister, .-chEvtUnregister
 1031 002a 00BFAFF3 		.section	.text.chEvtGetAndClearEvents,"ax",%progbits
 1031      0080
 1032              		.align	2
 1033              		.p2align 4,,15
 1034              		.global	chEvtGetAndClearEvents
 1035              		.thumb
 1036              		.thumb_func
 1037              		.type	chEvtGetAndClearEvents, %function
 1038              	chEvtGetAndClearEvents:
 1039              		@ args = 0, pretend = 0, frame = 0
 1040              		@ frame_needed = 0, uses_anonymous_args = 0
 1041              		@ link register save eliminated.
 1042 0000 10B4     		push	{r4}
 1043 0002 2023     		movs	r3, #32
 1044              	@ 546 "/home/cody/dev/chibios/trunk/os/ext/CMSIS/include/core_cmFunc.h" 1
 1045 0004 83F31188 		MSR basepri, r3
 1046              	@ 0 "" 2
 1047              		.thumb
 1048 0008 064B     		ldr	r3, .L12
 1049 000a 0021     		movs	r1, #0
 1050 000c 9A69     		ldr	r2, [r3, #24]
 1051 000e 536B     		ldr	r3, [r2, #52]
ARM GAS  /tmp/cczjDZMM.s 			page 77


 1052 0010 23EA0004 		bic	r4, r3, r0
 1053 0014 5463     		str	r4, [r2, #52]
 1054              	@ 546 "/home/cody/dev/chibios/trunk/os/ext/CMSIS/include/core_cmFunc.h" 1
 1055 0016 81F31188 		MSR basepri, r1
 1056              	@ 0 "" 2
 1057              		.thumb
 1058 001a 1840     		ands	r0, r0, r3
 1059 001c 5DF8044B 		ldr	r4, [sp], #4
 1060 0020 7047     		bx	lr
 1061              	.L13:
 1062 0022 00BF     		.align	2
 1063              	.L12:
 1064 0024 00000000 		.word	ch
 1065              		.size	chEvtGetAndClearEvents, .-chEvtGetAndClearEvents
 1066 0028 AFF30080 		.section	.text.chEvtAddEvents,"ax",%progbits
 1066      AFF30080 
 1067              		.align	2
 1068              		.p2align 4,,15
 1069              		.global	chEvtAddEvents
 1070              		.thumb
 1071              		.thumb_func
 1072              		.type	chEvtAddEvents, %function
 1073              	chEvtAddEvents:
 1074              		@ args = 0, pretend = 0, frame = 0
 1075              		@ frame_needed = 0, uses_anonymous_args = 0
 1076              		@ link register save eliminated.
 1077 0000 2023     		movs	r3, #32
 1078              	@ 546 "/home/cody/dev/chibios/trunk/os/ext/CMSIS/include/core_cmFunc.h" 1
 1079 0002 83F31188 		MSR basepri, r3
 1080              	@ 0 "" 2
 1081              		.thumb
 1082 0006 044B     		ldr	r3, .L15
 1083 0008 0021     		movs	r1, #0
 1084 000a 9B69     		ldr	r3, [r3, #24]
 1085 000c 5A6B     		ldr	r2, [r3, #52]
 1086 000e 1043     		orrs	r0, r0, r2
 1087 0010 5863     		str	r0, [r3, #52]
 1088              	@ 546 "/home/cody/dev/chibios/trunk/os/ext/CMSIS/include/core_cmFunc.h" 1
 1089 0012 81F31188 		MSR basepri, r1
 1090              	@ 0 "" 2
 1091              		.thumb
 1092 0016 7047     		bx	lr
 1093              	.L16:
 1094              		.align	2
 1095              	.L15:
 1096 0018 00000000 		.word	ch
 1097              		.size	chEvtAddEvents, .-chEvtAddEvents
 1098 001c AFF30080 		.section	.text.chEvtGetAndClearFlags,"ax",%progbits
 1099              		.align	2
 1100              		.p2align 4,,15
 1101              		.global	chEvtGetAndClearFlags
 1102              		.thumb
 1103              		.thumb_func
 1104              		.type	chEvtGetAndClearFlags, %function
 1105              	chEvtGetAndClearFlags:
 1106              		@ args = 0, pretend = 0, frame = 0
 1107              		@ frame_needed = 0, uses_anonymous_args = 0
ARM GAS  /tmp/cczjDZMM.s 			page 78


 1108              		@ link register save eliminated.
 1109 0000 0246     		mov	r2, r0
 1110 0002 2023     		movs	r3, #32
 1111              	@ 546 "/home/cody/dev/chibios/trunk/os/ext/CMSIS/include/core_cmFunc.h" 1
 1112 0004 83F31188 		MSR basepri, r3
 1113              	@ 0 "" 2
 1114              		.thumb
 1115 0008 0023     		movs	r3, #0
 1116 000a C068     		ldr	r0, [r0, #12]
 1117 000c D360     		str	r3, [r2, #12]
 1118              	@ 546 "/home/cody/dev/chibios/trunk/os/ext/CMSIS/include/core_cmFunc.h" 1
 1119 000e 83F31188 		MSR basepri, r3
 1120              	@ 0 "" 2
 1121              		.thumb
 1122 0012 7047     		bx	lr
 1123              		.size	chEvtGetAndClearFlags, .-chEvtGetAndClearFlags
 1124 0014 AFF30080 		.section	.text.chEvtSignalI,"ax",%progbits
 1124      AFF30080 
 1124      AFF30080 
 1125              		.align	2
 1126              		.p2align 4,,15
 1127              		.global	chEvtSignalI
 1128              		.thumb
 1129              		.thumb_func
 1130              		.type	chEvtSignalI, %function
 1131              	chEvtSignalI:
 1132              		@ args = 0, pretend = 0, frame = 0
 1133              		@ frame_needed = 0, uses_anonymous_args = 0
 1134              		@ link register save eliminated.
 1135 0000 426B     		ldr	r2, [r0, #52]
 1136 0002 037F     		ldrb	r3, [r0, #28]	@ zero_extendqisi2
 1137 0004 1143     		orrs	r1, r1, r2
 1138 0006 0A2B     		cmp	r3, #10
 1139 0008 4163     		str	r1, [r0, #52]
 1140 000a 0AD0     		beq	.L22
 1141 000c 0B2B     		cmp	r3, #11
 1142 000e 00D0     		beq	.L23
 1143              	.L18:
 1144 0010 7047     		bx	lr
 1145              	.L23:
 1146 0012 036A     		ldr	r3, [r0, #32]
 1147 0014 1940     		ands	r1, r1, r3
 1148 0016 8B42     		cmp	r3, r1
 1149 0018 FAD1     		bne	.L18
 1150              	.L20:
 1151 001a 0023     		movs	r3, #0
 1152 001c 0362     		str	r3, [r0, #32]
 1153 001e FFF7FEBF 		b	chSchReadyI
 1154              	.L22:
 1155 0022 036A     		ldr	r3, [r0, #32]
 1156 0024 1942     		tst	r1, r3
 1157 0026 F8D1     		bne	.L20
 1158 0028 7047     		bx	lr
 1159              		.size	chEvtSignalI, .-chEvtSignalI
 1160 002a 00BFAFF3 		.section	.text.chEvtBroadcastFlagsI,"ax",%progbits
 1160      0080
 1161              		.align	2
ARM GAS  /tmp/cczjDZMM.s 			page 79


 1162              		.p2align 4,,15
 1163              		.global	chEvtBroadcastFlagsI
 1164              		.thumb
 1165              		.thumb_func
 1166              		.type	chEvtBroadcastFlagsI, %function
 1167              	chEvtBroadcastFlagsI:
 1168              		@ args = 0, pretend = 0, frame = 0
 1169              		@ frame_needed = 0, uses_anonymous_args = 0
 1170 0000 70B5     		push	{r4, r5, r6, lr}
 1171 0002 0468     		ldr	r4, [r0]
 1172 0004 0646     		mov	r6, r0
 1173 0006 A042     		cmp	r0, r4
 1174 0008 0D46     		mov	r5, r1
 1175 000a 0DD0     		beq	.L24
 1176              	.L29:
 1177 000c E368     		ldr	r3, [r4, #12]
 1178 000e 2B43     		orrs	r3, r3, r5
 1179 0010 E360     		str	r3, [r4, #12]
 1180 0012 15B1     		cbz	r5, .L26
 1181 0014 2269     		ldr	r2, [r4, #16]
 1182 0016 1342     		tst	r3, r2
 1183 0018 03D0     		beq	.L27
 1184              	.L26:
 1185 001a 6068     		ldr	r0, [r4, #4]
 1186 001c A168     		ldr	r1, [r4, #8]
 1187 001e FFF7FEFF 		bl	chEvtSignalI
 1188              	.L27:
 1189 0022 2468     		ldr	r4, [r4]
 1190 0024 A642     		cmp	r6, r4
 1191 0026 F1D1     		bne	.L29
 1192              	.L24:
 1193 0028 70BD     		pop	{r4, r5, r6, pc}
 1194              		.size	chEvtBroadcastFlagsI, .-chEvtBroadcastFlagsI
 1195 002a 00BFAFF3 		.section	.text.chEvtSignal,"ax",%progbits
 1195      0080
 1196              		.align	2
 1197              		.p2align 4,,15
 1198              		.global	chEvtSignal
 1199              		.thumb
 1200              		.thumb_func
 1201              		.type	chEvtSignal, %function
 1202              	chEvtSignal:
 1203              		@ args = 0, pretend = 0, frame = 0
 1204              		@ frame_needed = 0, uses_anonymous_args = 0
 1205 0000 08B5     		push	{r3, lr}
 1206 0002 2023     		movs	r3, #32
 1207              	@ 546 "/home/cody/dev/chibios/trunk/os/ext/CMSIS/include/core_cmFunc.h" 1
 1208 0004 83F31188 		MSR basepri, r3
 1209              	@ 0 "" 2
 1210              		.thumb
 1211 0008 FFF7FEFF 		bl	chEvtSignalI
 1212 000c FFF7FEFF 		bl	chSchRescheduleS
 1213 0010 0023     		movs	r3, #0
 1214              	@ 546 "/home/cody/dev/chibios/trunk/os/ext/CMSIS/include/core_cmFunc.h" 1
 1215 0012 83F31188 		MSR basepri, r3
 1216              	@ 0 "" 2
 1217              		.thumb
ARM GAS  /tmp/cczjDZMM.s 			page 80


 1218 0016 08BD     		pop	{r3, pc}
 1219              		.size	chEvtSignal, .-chEvtSignal
 1220 0018 AFF30080 		.section	.text.chEvtBroadcastFlags,"ax",%progbits
 1220      AFF30080 
 1221              		.align	2
 1222              		.p2align 4,,15
 1223              		.global	chEvtBroadcastFlags
 1224              		.thumb
 1225              		.thumb_func
 1226              		.type	chEvtBroadcastFlags, %function
 1227              	chEvtBroadcastFlags:
 1228              		@ args = 0, pretend = 0, frame = 0
 1229              		@ frame_needed = 0, uses_anonymous_args = 0
 1230 0000 08B5     		push	{r3, lr}
 1231 0002 2023     		movs	r3, #32
 1232              	@ 546 "/home/cody/dev/chibios/trunk/os/ext/CMSIS/include/core_cmFunc.h" 1
 1233 0004 83F31188 		MSR basepri, r3
 1234              	@ 0 "" 2
 1235              		.thumb
 1236 0008 FFF7FEFF 		bl	chEvtBroadcastFlagsI
 1237 000c FFF7FEFF 		bl	chSchRescheduleS
 1238 0010 0023     		movs	r3, #0
 1239              	@ 546 "/home/cody/dev/chibios/trunk/os/ext/CMSIS/include/core_cmFunc.h" 1
 1240 0012 83F31188 		MSR basepri, r3
 1241              	@ 0 "" 2
 1242              		.thumb
 1243 0016 08BD     		pop	{r3, pc}
 1244              		.size	chEvtBroadcastFlags, .-chEvtBroadcastFlags
 1245 0018 AFF30080 		.section	.text.chEvtGetAndClearFlagsI,"ax",%progbits
 1245      AFF30080 
 1246              		.align	2
 1247              		.p2align 4,,15
 1248              		.global	chEvtGetAndClearFlagsI
 1249              		.thumb
 1250              		.thumb_func
 1251              		.type	chEvtGetAndClearFlagsI, %function
 1252              	chEvtGetAndClearFlagsI:
 1253              		@ args = 0, pretend = 0, frame = 0
 1254              		@ frame_needed = 0, uses_anonymous_args = 0
 1255              		@ link register save eliminated.
 1256 0000 0346     		mov	r3, r0
 1257 0002 0022     		movs	r2, #0
 1258 0004 C068     		ldr	r0, [r0, #12]
 1259 0006 DA60     		str	r2, [r3, #12]
 1260 0008 7047     		bx	lr
 1261              		.size	chEvtGetAndClearFlagsI, .-chEvtGetAndClearFlagsI
 1262 000a 00BFAFF3 		.section	.text.chEvtDispatch,"ax",%progbits
 1262      0080
 1263              		.align	2
 1264              		.p2align 4,,15
 1265              		.global	chEvtDispatch
 1266              		.thumb
 1267              		.thumb_func
 1268              		.type	chEvtDispatch, %function
 1269              	chEvtDispatch:
 1270              		@ args = 0, pretend = 0, frame = 0
 1271              		@ frame_needed = 0, uses_anonymous_args = 0
ARM GAS  /tmp/cczjDZMM.s 			page 81


 1272 0000 F8B5     		push	{r3, r4, r5, r6, r7, lr}
 1273 0002 0D46     		mov	r5, r1
 1274 0004 0746     		mov	r7, r0
 1275 0006 89B1     		cbz	r1, .L39
 1276 0008 0024     		movs	r4, #0
 1277 000a 0126     		movs	r6, #1
 1278 000c 01E0     		b	.L43
 1279              	.L41:
 1280 000e 0134     		adds	r4, r4, #1
 1281 0010 65B1     		cbz	r5, .L39
 1282              	.L43:
 1283 0012 06FA04F3 		lsl	r3, r6, r4
 1284 0016 2B42     		tst	r3, r5
 1285 0018 F9D0     		beq	.L41
 1286 001a 57F82420 		ldr	r2, [r7, r4, lsl #2]
 1287 001e 2046     		mov	r0, r4
 1288 0020 25EA0305 		bic	r5, r5, r3
 1289 0024 0134     		adds	r4, r4, #1
 1290 0026 9047     		blx	r2
 1291 0028 002D     		cmp	r5, #0
 1292 002a F2D1     		bne	.L43
 1293              	.L39:
 1294 002c F8BD     		pop	{r3, r4, r5, r6, r7, pc}
 1295              		.size	chEvtDispatch, .-chEvtDispatch
 1296 002e 00BF     		.section	.text.chEvtWaitOne,"ax",%progbits
 1297              		.align	2
 1298              		.p2align 4,,15
 1299              		.global	chEvtWaitOne
 1300              		.thumb
 1301              		.thumb_func
 1302              		.type	chEvtWaitOne, %function
 1303              	chEvtWaitOne:
 1304              		@ args = 0, pretend = 0, frame = 0
 1305              		@ frame_needed = 0, uses_anonymous_args = 0
 1306 0000 38B5     		push	{r3, r4, r5, lr}
 1307 0002 0D4B     		ldr	r3, .L52
 1308 0004 0546     		mov	r5, r0
 1309 0006 9C69     		ldr	r4, [r3, #24]
 1310 0008 2023     		movs	r3, #32
 1311              	@ 546 "/home/cody/dev/chibios/trunk/os/ext/CMSIS/include/core_cmFunc.h" 1
 1312 000a 83F31188 		MSR basepri, r3
 1313              	@ 0 "" 2
 1314              		.thumb
 1315 000e 636B     		ldr	r3, [r4, #52]
 1316 0010 10EA0302 		ands	r2, r0, r3
 1317 0014 06D1     		bne	.L51
 1318 0016 2062     		str	r0, [r4, #32]
 1319 0018 0A20     		movs	r0, #10
 1320 001a FFF7FEFF 		bl	chSchGoSleepS
 1321 001e 636B     		ldr	r3, [r4, #52]
 1322 0020 05EA0302 		and	r2, r5, r3
 1323              	.L51:
 1324 0024 5042     		negs	r0, r2
 1325 0026 1040     		ands	r0, r0, r2
 1326 0028 23EA0003 		bic	r3, r3, r0
 1327 002c 6363     		str	r3, [r4, #52]
 1328 002e 0023     		movs	r3, #0
ARM GAS  /tmp/cczjDZMM.s 			page 82


 1329              	@ 546 "/home/cody/dev/chibios/trunk/os/ext/CMSIS/include/core_cmFunc.h" 1
 1330 0030 83F31188 		MSR basepri, r3
 1331              	@ 0 "" 2
 1332              		.thumb
 1333 0034 38BD     		pop	{r3, r4, r5, pc}
 1334              	.L53:
 1335 0036 00BF     		.align	2
 1336              	.L52:
 1337 0038 00000000 		.word	ch
 1338              		.size	chEvtWaitOne, .-chEvtWaitOne
 1339 003c AFF30080 		.section	.text.chEvtWaitAny,"ax",%progbits
 1340              		.align	2
 1341              		.p2align 4,,15
 1342              		.global	chEvtWaitAny
 1343              		.thumb
 1344              		.thumb_func
 1345              		.type	chEvtWaitAny, %function
 1346              	chEvtWaitAny:
 1347              		@ args = 0, pretend = 0, frame = 0
 1348              		@ frame_needed = 0, uses_anonymous_args = 0
 1349 0000 38B5     		push	{r3, r4, r5, lr}
 1350 0002 0B4B     		ldr	r3, .L56
 1351 0004 0546     		mov	r5, r0
 1352 0006 9C69     		ldr	r4, [r3, #24]
 1353 0008 2023     		movs	r3, #32
 1354              	@ 546 "/home/cody/dev/chibios/trunk/os/ext/CMSIS/include/core_cmFunc.h" 1
 1355 000a 83F31188 		MSR basepri, r3
 1356              	@ 0 "" 2
 1357              		.thumb
 1358 000e 636B     		ldr	r3, [r4, #52]
 1359 0010 1840     		ands	r0, r0, r3
 1360 0012 06D1     		bne	.L55
 1361 0014 0A20     		movs	r0, #10
 1362 0016 2562     		str	r5, [r4, #32]
 1363 0018 FFF7FEFF 		bl	chSchGoSleepS
 1364 001c 636B     		ldr	r3, [r4, #52]
 1365 001e 05EA0300 		and	r0, r5, r3
 1366              	.L55:
 1367 0022 23EA0003 		bic	r3, r3, r0
 1368 0026 6363     		str	r3, [r4, #52]
 1369 0028 0023     		movs	r3, #0
 1370              	@ 546 "/home/cody/dev/chibios/trunk/os/ext/CMSIS/include/core_cmFunc.h" 1
 1371 002a 83F31188 		MSR basepri, r3
 1372              	@ 0 "" 2
 1373              		.thumb
 1374 002e 38BD     		pop	{r3, r4, r5, pc}
 1375              	.L57:
 1376              		.align	2
 1377              	.L56:
 1378 0030 00000000 		.word	ch
 1379              		.size	chEvtWaitAny, .-chEvtWaitAny
 1380 0034 AFF30080 		.section	.text.chEvtWaitAll,"ax",%progbits
 1380      AFF30080 
 1380      AFF30080 
 1381              		.align	2
 1382              		.p2align 4,,15
 1383              		.global	chEvtWaitAll
ARM GAS  /tmp/cczjDZMM.s 			page 83


 1384              		.thumb
 1385              		.thumb_func
 1386              		.type	chEvtWaitAll, %function
 1387              	chEvtWaitAll:
 1388              		@ args = 0, pretend = 0, frame = 0
 1389              		@ frame_needed = 0, uses_anonymous_args = 0
 1390 0000 38B5     		push	{r3, r4, r5, lr}
 1391 0002 0C4B     		ldr	r3, .L60
 1392 0004 0446     		mov	r4, r0
 1393 0006 9D69     		ldr	r5, [r3, #24]
 1394 0008 2023     		movs	r3, #32
 1395              	@ 546 "/home/cody/dev/chibios/trunk/os/ext/CMSIS/include/core_cmFunc.h" 1
 1396 000a 83F31188 		MSR basepri, r3
 1397              	@ 0 "" 2
 1398              		.thumb
 1399 000e 6B6B     		ldr	r3, [r5, #52]
 1400 0010 00EA0302 		and	r2, r0, r3
 1401 0014 8242     		cmp	r2, r0
 1402 0016 04D0     		beq	.L59
 1403 0018 2862     		str	r0, [r5, #32]
 1404 001a 0B20     		movs	r0, #11
 1405 001c FFF7FEFF 		bl	chSchGoSleepS
 1406 0020 6B6B     		ldr	r3, [r5, #52]
 1407              	.L59:
 1408 0022 23EA0403 		bic	r3, r3, r4
 1409 0026 6B63     		str	r3, [r5, #52]
 1410 0028 0023     		movs	r3, #0
 1411              	@ 546 "/home/cody/dev/chibios/trunk/os/ext/CMSIS/include/core_cmFunc.h" 1
 1412 002a 83F31188 		MSR basepri, r3
 1413              	@ 0 "" 2
 1414              		.thumb
 1415 002e 2046     		mov	r0, r4
 1416 0030 38BD     		pop	{r3, r4, r5, pc}
 1417              	.L61:
 1418 0032 00BF     		.align	2
 1419              	.L60:
 1420 0034 00000000 		.word	ch
 1421              		.size	chEvtWaitAll, .-chEvtWaitAll
 1422 0038 AFF30080 		.section	.text.chEvtWaitOneTimeout,"ax",%progbits
 1422      AFF30080 
 1423              		.align	2
 1424              		.p2align 4,,15
 1425              		.global	chEvtWaitOneTimeout
 1426              		.thumb
 1427              		.thumb_func
 1428              		.type	chEvtWaitOneTimeout, %function
 1429              	chEvtWaitOneTimeout:
 1430              		@ args = 0, pretend = 0, frame = 0
 1431              		@ frame_needed = 0, uses_anonymous_args = 0
 1432 0000 124B     		ldr	r3, .L68
 1433 0002 70B5     		push	{r4, r5, r6, lr}
 1434 0004 0446     		mov	r4, r0
 1435 0006 9D69     		ldr	r5, [r3, #24]
 1436 0008 0846     		mov	r0, r1
 1437 000a 2023     		movs	r3, #32
 1438              	@ 546 "/home/cody/dev/chibios/trunk/os/ext/CMSIS/include/core_cmFunc.h" 1
 1439 000c 83F31188 		MSR basepri, r3
ARM GAS  /tmp/cczjDZMM.s 			page 84


 1440              	@ 0 "" 2
 1441              		.thumb
 1442 0010 6B6B     		ldr	r3, [r5, #52]
 1443 0012 14EA0306 		ands	r6, r4, r3
 1444 0016 0CD1     		bne	.L63
 1445 0018 11B9     		cbnz	r1, .L64
 1446              	@ 546 "/home/cody/dev/chibios/trunk/os/ext/CMSIS/include/core_cmFunc.h" 1
 1447 001a 81F31188 		MSR basepri, r1
 1448              	@ 0 "" 2
 1449              		.thumb
 1450 001e 70BD     		pop	{r4, r5, r6, pc}
 1451              	.L64:
 1452 0020 2C62     		str	r4, [r5, #32]
 1453 0022 0A20     		movs	r0, #10
 1454 0024 FFF7FEFF 		bl	chSchGoSleepTimeoutS
 1455 0028 0028     		cmp	r0, #0
 1456 002a 0BDB     		blt	.L67
 1457 002c 6B6B     		ldr	r3, [r5, #52]
 1458 002e 04EA0306 		and	r6, r4, r3
 1459              	.L63:
 1460 0032 7042     		negs	r0, r6
 1461 0034 3040     		ands	r0, r0, r6
 1462 0036 23EA0003 		bic	r3, r3, r0
 1463 003a 6B63     		str	r3, [r5, #52]
 1464 003c 0023     		movs	r3, #0
 1465              	@ 546 "/home/cody/dev/chibios/trunk/os/ext/CMSIS/include/core_cmFunc.h" 1
 1466 003e 83F31188 		MSR basepri, r3
 1467              	@ 0 "" 2
 1468              		.thumb
 1469 0042 70BD     		pop	{r4, r5, r6, pc}
 1470              	.L67:
 1471              	@ 546 "/home/cody/dev/chibios/trunk/os/ext/CMSIS/include/core_cmFunc.h" 1
 1472 0044 86F31188 		MSR basepri, r6
 1473              	@ 0 "" 2
 1474              		.thumb
 1475 0048 3046     		mov	r0, r6
 1476 004a 70BD     		pop	{r4, r5, r6, pc}
 1477              	.L69:
 1478              		.align	2
 1479              	.L68:
 1480 004c 00000000 		.word	ch
 1481              		.size	chEvtWaitOneTimeout, .-chEvtWaitOneTimeout
 1482              		.section	.text.chEvtWaitAnyTimeout,"ax",%progbits
 1483              		.align	2
 1484              		.p2align 4,,15
 1485              		.global	chEvtWaitAnyTimeout
 1486              		.thumb
 1487              		.thumb_func
 1488              		.type	chEvtWaitAnyTimeout, %function
 1489              	chEvtWaitAnyTimeout:
 1490              		@ args = 0, pretend = 0, frame = 0
 1491              		@ frame_needed = 0, uses_anonymous_args = 0
 1492 0000 124B     		ldr	r3, .L76
 1493 0002 70B5     		push	{r4, r5, r6, lr}
 1494 0004 0446     		mov	r4, r0
 1495 0006 9D69     		ldr	r5, [r3, #24]
 1496 0008 0846     		mov	r0, r1
ARM GAS  /tmp/cczjDZMM.s 			page 85


 1497 000a 2023     		movs	r3, #32
 1498              	@ 546 "/home/cody/dev/chibios/trunk/os/ext/CMSIS/include/core_cmFunc.h" 1
 1499 000c 83F31188 		MSR basepri, r3
 1500              	@ 0 "" 2
 1501              		.thumb
 1502 0010 6B6B     		ldr	r3, [r5, #52]
 1503 0012 14EA0306 		ands	r6, r4, r3
 1504 0016 0CD1     		bne	.L71
 1505 0018 11B9     		cbnz	r1, .L72
 1506              	@ 546 "/home/cody/dev/chibios/trunk/os/ext/CMSIS/include/core_cmFunc.h" 1
 1507 001a 81F31188 		MSR basepri, r1
 1508              	@ 0 "" 2
 1509              		.thumb
 1510 001e 70BD     		pop	{r4, r5, r6, pc}
 1511              	.L72:
 1512 0020 2C62     		str	r4, [r5, #32]
 1513 0022 0A20     		movs	r0, #10
 1514 0024 FFF7FEFF 		bl	chSchGoSleepTimeoutS
 1515 0028 0028     		cmp	r0, #0
 1516 002a 0ADB     		blt	.L75
 1517 002c 6B6B     		ldr	r3, [r5, #52]
 1518 002e 04EA0306 		and	r6, r4, r3
 1519              	.L71:
 1520 0032 23EA0603 		bic	r3, r3, r6
 1521 0036 6B63     		str	r3, [r5, #52]
 1522 0038 0023     		movs	r3, #0
 1523              	@ 546 "/home/cody/dev/chibios/trunk/os/ext/CMSIS/include/core_cmFunc.h" 1
 1524 003a 83F31188 		MSR basepri, r3
 1525              	@ 0 "" 2
 1526              		.thumb
 1527 003e 3046     		mov	r0, r6
 1528 0040 70BD     		pop	{r4, r5, r6, pc}
 1529              	.L75:
 1530              	@ 546 "/home/cody/dev/chibios/trunk/os/ext/CMSIS/include/core_cmFunc.h" 1
 1531 0042 86F31188 		MSR basepri, r6
 1532              	@ 0 "" 2
 1533              		.thumb
 1534 0046 3046     		mov	r0, r6
 1535 0048 70BD     		pop	{r4, r5, r6, pc}
 1536              	.L77:
 1537 004a 00BF     		.align	2
 1538              	.L76:
 1539 004c 00000000 		.word	ch
 1540              		.size	chEvtWaitAnyTimeout, .-chEvtWaitAnyTimeout
 1541              		.section	.text.chEvtWaitAllTimeout,"ax",%progbits
 1542              		.align	2
 1543              		.p2align 4,,15
 1544              		.global	chEvtWaitAllTimeout
 1545              		.thumb
 1546              		.thumb_func
 1547              		.type	chEvtWaitAllTimeout, %function
 1548              	chEvtWaitAllTimeout:
 1549              		@ args = 0, pretend = 0, frame = 0
 1550              		@ frame_needed = 0, uses_anonymous_args = 0
 1551 0000 38B5     		push	{r3, r4, r5, lr}
 1552 0002 104B     		ldr	r3, .L84
 1553 0004 0446     		mov	r4, r0
ARM GAS  /tmp/cczjDZMM.s 			page 86


 1554 0006 9D69     		ldr	r5, [r3, #24]
 1555 0008 0846     		mov	r0, r1
 1556 000a 2023     		movs	r3, #32
 1557              	@ 546 "/home/cody/dev/chibios/trunk/os/ext/CMSIS/include/core_cmFunc.h" 1
 1558 000c 83F31188 		MSR basepri, r3
 1559              	@ 0 "" 2
 1560              		.thumb
 1561 0010 6B6B     		ldr	r3, [r5, #52]
 1562 0012 04EA0302 		and	r2, r4, r3
 1563 0016 A242     		cmp	r2, r4
 1564 0018 0AD0     		beq	.L79
 1565 001a 11B9     		cbnz	r1, .L80
 1566              	.L83:
 1567              	@ 546 "/home/cody/dev/chibios/trunk/os/ext/CMSIS/include/core_cmFunc.h" 1
 1568 001c 80F31188 		MSR basepri, r0
 1569              	@ 0 "" 2
 1570              		.thumb
 1571 0020 38BD     		pop	{r3, r4, r5, pc}
 1572              	.L80:
 1573 0022 2C62     		str	r4, [r5, #32]
 1574 0024 0B20     		movs	r0, #11
 1575 0026 FFF7FEFF 		bl	chSchGoSleepTimeoutS
 1576 002a 0028     		cmp	r0, #0
 1577 002c 08DB     		blt	.L82
 1578 002e 6B6B     		ldr	r3, [r5, #52]
 1579              	.L79:
 1580 0030 23EA0403 		bic	r3, r3, r4
 1581 0034 6B63     		str	r3, [r5, #52]
 1582 0036 0023     		movs	r3, #0
 1583              	@ 546 "/home/cody/dev/chibios/trunk/os/ext/CMSIS/include/core_cmFunc.h" 1
 1584 0038 83F31188 		MSR basepri, r3
 1585              	@ 0 "" 2
 1586              		.thumb
 1587 003c 2046     		mov	r0, r4
 1588 003e 38BD     		pop	{r3, r4, r5, pc}
 1589              	.L82:
 1590 0040 0020     		movs	r0, #0
 1591 0042 EBE7     		b	.L83
 1592              	.L85:
 1593              		.align	2
 1594              	.L84:
 1595 0044 00000000 		.word	ch
 1596              		.size	chEvtWaitAllTimeout, .-chEvtWaitAllTimeout
 1597              		.comm	__gnu_lto_v1,1,1
 1598 0048 AFF30080 		.ident	"GCC: (GNU Tools for ARM Embedded Processors) 4.8.4 20140526 (release) [ARM/embedded-4_8-br
 1598      AFF30080 
ARM GAS  /tmp/cczjDZMM.s 			page 87


DEFINED SYMBOLS
                            *ABS*:0000000000000000 chevents.c
     /tmp/cczjDZMM.s:952    .text.chEvtRegisterMaskWithFlags:0000000000000000 $t
     /tmp/cczjDZMM.s:958    .text.chEvtRegisterMaskWithFlags:0000000000000000 chEvtRegisterMaskWithFlags
     /tmp/cczjDZMM.s:987    .text.chEvtRegisterMaskWithFlags:0000000000000024 $d
     /tmp/cczjDZMM.s:990    .text.chEvtUnregister:0000000000000000 $t
     /tmp/cczjDZMM.s:996    .text.chEvtUnregister:0000000000000000 chEvtUnregister
     /tmp/cczjDZMM.s:1032   .text.chEvtGetAndClearEvents:0000000000000000 $t
     /tmp/cczjDZMM.s:1038   .text.chEvtGetAndClearEvents:0000000000000000 chEvtGetAndClearEvents
     /tmp/cczjDZMM.s:1064   .text.chEvtGetAndClearEvents:0000000000000024 $d
     /tmp/cczjDZMM.s:1067   .text.chEvtAddEvents:0000000000000000 $t
     /tmp/cczjDZMM.s:1073   .text.chEvtAddEvents:0000000000000000 chEvtAddEvents
     /tmp/cczjDZMM.s:1096   .text.chEvtAddEvents:0000000000000018 $d
     /tmp/cczjDZMM.s:1099   .text.chEvtGetAndClearFlags:0000000000000000 $t
     /tmp/cczjDZMM.s:1105   .text.chEvtGetAndClearFlags:0000000000000000 chEvtGetAndClearFlags
     /tmp/cczjDZMM.s:1125   .text.chEvtSignalI:0000000000000000 $t
     /tmp/cczjDZMM.s:1131   .text.chEvtSignalI:0000000000000000 chEvtSignalI
     /tmp/cczjDZMM.s:1161   .text.chEvtBroadcastFlagsI:0000000000000000 $t
     /tmp/cczjDZMM.s:1167   .text.chEvtBroadcastFlagsI:0000000000000000 chEvtBroadcastFlagsI
     /tmp/cczjDZMM.s:1196   .text.chEvtSignal:0000000000000000 $t
     /tmp/cczjDZMM.s:1202   .text.chEvtSignal:0000000000000000 chEvtSignal
     /tmp/cczjDZMM.s:1221   .text.chEvtBroadcastFlags:0000000000000000 $t
     /tmp/cczjDZMM.s:1227   .text.chEvtBroadcastFlags:0000000000000000 chEvtBroadcastFlags
     /tmp/cczjDZMM.s:1246   .text.chEvtGetAndClearFlagsI:0000000000000000 $t
     /tmp/cczjDZMM.s:1252   .text.chEvtGetAndClearFlagsI:0000000000000000 chEvtGetAndClearFlagsI
     /tmp/cczjDZMM.s:1263   .text.chEvtDispatch:0000000000000000 $t
     /tmp/cczjDZMM.s:1269   .text.chEvtDispatch:0000000000000000 chEvtDispatch
     /tmp/cczjDZMM.s:1297   .text.chEvtWaitOne:0000000000000000 $t
     /tmp/cczjDZMM.s:1303   .text.chEvtWaitOne:0000000000000000 chEvtWaitOne
     /tmp/cczjDZMM.s:1337   .text.chEvtWaitOne:0000000000000038 $d
     /tmp/cczjDZMM.s:1340   .text.chEvtWaitAny:0000000000000000 $t
     /tmp/cczjDZMM.s:1346   .text.chEvtWaitAny:0000000000000000 chEvtWaitAny
     /tmp/cczjDZMM.s:1378   .text.chEvtWaitAny:0000000000000030 $d
     /tmp/cczjDZMM.s:1381   .text.chEvtWaitAll:0000000000000000 $t
     /tmp/cczjDZMM.s:1387   .text.chEvtWaitAll:0000000000000000 chEvtWaitAll
     /tmp/cczjDZMM.s:1420   .text.chEvtWaitAll:0000000000000034 $d
     /tmp/cczjDZMM.s:1423   .text.chEvtWaitOneTimeout:0000000000000000 $t
     /tmp/cczjDZMM.s:1429   .text.chEvtWaitOneTimeout:0000000000000000 chEvtWaitOneTimeout
     /tmp/cczjDZMM.s:1480   .text.chEvtWaitOneTimeout:000000000000004c $d
     /tmp/cczjDZMM.s:1483   .text.chEvtWaitAnyTimeout:0000000000000000 $t
     /tmp/cczjDZMM.s:1489   .text.chEvtWaitAnyTimeout:0000000000000000 chEvtWaitAnyTimeout
     /tmp/cczjDZMM.s:1539   .text.chEvtWaitAnyTimeout:000000000000004c $d
     /tmp/cczjDZMM.s:1542   .text.chEvtWaitAllTimeout:0000000000000000 $t
     /tmp/cczjDZMM.s:1548   .text.chEvtWaitAllTimeout:0000000000000000 chEvtWaitAllTimeout
     /tmp/cczjDZMM.s:1595   .text.chEvtWaitAllTimeout:0000000000000044 $d
                            *COM*:0000000000000001 __gnu_lto_v1
     /tmp/cczjDZMM.s:989    .text.chEvtRegisterMaskWithFlags:0000000000000028 $t
     /tmp/cczjDZMM.s:1066   .text.chEvtGetAndClearEvents:0000000000000028 $t
     /tmp/cczjDZMM.s:1098   .text.chEvtAddEvents:000000000000001c $t
     /tmp/cczjDZMM.s:1339   .text.chEvtWaitOne:000000000000003c $t
     /tmp/cczjDZMM.s:1380   .text.chEvtWaitAny:0000000000000034 $t
     /tmp/cczjDZMM.s:1422   .text.chEvtWaitAll:0000000000000038 $t
     /tmp/cczjDZMM.s:1598   .text.chEvtWaitAllTimeout:0000000000000048 $t

UNDEFINED SYMBOLS
ch
chSchReadyI
ARM GAS  /tmp/cczjDZMM.s 			page 88


chSchRescheduleS
chSchGoSleepS
chSchGoSleepTimeoutS
