ARM GAS  /tmp/ccePHWXl.s 			page 1


   1              		.syntax unified
   2              		.cpu cortex-m3
   3              		.fpu softvfp
   4              		.eabi_attribute 20, 1
   5              		.eabi_attribute 21, 1
   6              		.eabi_attribute 23, 3
   7              		.eabi_attribute 24, 1
   8              		.eabi_attribute 25, 1
   9              		.eabi_attribute 26, 1
  10              		.eabi_attribute 30, 2
  11              		.eabi_attribute 34, 1
  12              		.eabi_attribute 18, 4
  13              		.thumb
  14              		.file	"chheap.c"
  15              		.section	.gnu.lto_.jmpfuncs.34a6f77a1d2a5bd4,"",%progbits
  16 0000 789C6362 		.ascii	"x\234cb`b\300\0062\2404+\003\003#S5\303\257\206\216"
  16      6062C006 
  16      32A0342B 
  16      03032353 
  16      35C3AF86 
  17 0015 06814C46 		.ascii	"\006\201LF\006m\206U\015\015 \026c.#C\022#\\9#\343\203"
  17      066D8655 
  17      0D0D2016 
  17      632E2343 
  17      12235C39 
  18 002c FF50C018 		.ascii	"\377P\300\030\301\230\311\0104\224\231\235\221\245\001"
  18      C198C908 
  18      3494999D 
  18      91A501
  19 003b C8042962 		.ascii	"\310\004)ba\006\222pT\0174\226\021\302d\203J0\000\000"
  19      61069270 
  19      540F3496 
  19      11C26483 
  19      4A300000 
  20 004f 14D512C5 		.ascii	"\024\325\022\305"
  21              		.text
  22              		.section	.gnu.lto_.inline.34a6f77a1d2a5bd4,"",%progbits
  23 0000 789C6362 		.ascii	"x\234cb`b\300\006L\031!4+\003\003\207\000#\003\023\333"
  23      6062C006 
  23      4C192134 
  23      2B030387 
  23      00230313 
  24 0015 073D06B6 		.ascii	"\007=\006\266\005\362`\305L\334\014\014\214\014\314"
  24      05F260C5 
  24      4CDC0C0C 
  24      8C0CCC
  25 0024 0CDCC28C 		.ascii	"\014\334\302\214LL`u \202\231\265C\235\201{\205\033"
  25      4C4C6075 
  25      208299B5 
  25      439D817B 
  25      851B
  26 0036 1303D305 		.ascii	"\023\003\323\005~\026\270\272\011~,\014\372\037\030"
  26      7E16B8BA 
  26      097E2C0C 
  26      FA1F18
  27 0045 185918D2 		.ascii	"\030Y\030\322#\0303\031\231A\022\031p\026H##\210`1\353"
  27      23183319 
ARM GAS  /tmp/ccePHWXl.s 			page 2


  27      99411219 
  27      70164823 
  27      23886031 
  28 005a E8E184D8 		.ascii	"\350\341\204\330\300\262@^\200\201c\237\236\002\222"
  28      C0B2405E 
  28      8081639F 
  28      9E0292
  29 0069 19A814AB 		.ascii	"\031\250\024\253 \204b\320\331\303\010\324\015\266\335"
  29      208462D0 
  29      D9C308D4 
  29      0DB6DD
  30 0078 61D53561 		.ascii	"a\3255a\006\276\031\316\030\326C)6\006\241\273\014\214"
  30      06BE19CE 
  30      18D64329 
  30      3606A1BB 
  30      0C8C
  31 008a 6CD85CC1 		.ascii	"l\330\\\301\010f\201\3640\246\303X\010\227\261\361<"
  31      086681F4 
  31      30A6C358 
  31      0897B1F1 
  31      3C
  32 009b 79C40E77 		.ascii	"y\304\016w\231\003\210h\000\332\331\304.\300\004&1\255"
  32      99038868 
  32      00DAD9C4 
  32      2EC00426 
  32      31AD
  33 00ad 62000049 		.ascii	"b\000\000I\345%f"
  33      E52566
  34              		.text
  35              		.section	.gnu.lto_.pureconst.34a6f77a1d2a5bd4,"",%progbits
  36 0000 789C6362 		.ascii	"x\234cb`b\340f\200\000V\006\011f)\026)V)6)\000\004?"
  36      6062E066 
  36      80005606 
  36      09662916 
  36      29562936 
  37 0018 00A7     		.ascii	"\000\247"
  38              		.text
  39              		.section	.gnu.lto__heap_init.34a6f77a1d2a5bd4,"",%progbits
  40 0000 789CAD91 		.ascii	"x\234\255\221?K\003A\020\305\347\355\335\3053Z\330\332"
  40      3F4B0341 
  40      10C5E7ED 
  40      DDC5335A 
  40      D8DA
  41 0012 0996822B 		.ascii	"\011\226\202+\266\026~\211\010ZX$\233@\026\211\321\374"
  41      B6167E89 
  41      085A5824 
  41      9B401689 
  41      D1FC
  42 0024 11C4221B 		.ascii	"\021\304\"\033Ma#\304J1\225\255\205\266\001\213\004"
  42      4D6123C4 
  42      4A3195AD 
  42      85B6018B 
  42      04
  43 0035 043B157B 		.ascii	"\004;\025{\213|\202`c\023\2048{\267\247\304\312\302"
  43      8B7C8260 
  43      63138438 
  43      7BB7A7C4 
ARM GAS  /tmp/ccePHWXl.s 			page 3


  43      CAC2
  44 0047 81BB793B 		.ascii	"\201\273y;7\363~\303\236 A\277c\236\237\017\020\255"
  44      37F37EC3 
  44      9E2041BF 
  44      639E9F0F 
  44      10AD
  45 0059 72864710 		.ascii	"r\206G\020\355g\242f(\000+\010\324\020hl!\352\275\023"
  45      ED67A266 
  45      28002B08 
  45      D410686C 
  45      21EABD13 
  46 006d FDC1787C 		.ascii	"\375\301x|\373\366x\361\211\216Hq%\240\2261\355\005"
  46      FBF678F1 
  46      898E4871 
  46      25A09631 
  46      ED05
  47 007f 22157564 		.ascii	"\"\025ud\370m\3076 l\366\236\350xt\322;[\313\342\032"
  47      F86DC736 
  47      206CF69E 
  47      E87874D2 
  47      3B5BCBE2 
  48 0094 012DD18D 		.ascii	"\001-\321\215\341X\327\240\016]5\215\231\323\300\021"
  48      E158D7A0 
  48      0E5D358D 
  48      99D3C011 
  49 00a4 8DCCA955 		.ascii	"\215\314\251U\242\024Yl\202eD\313\305P\212;\314\221"
  49      A214596C 
  49      826544CB 
  49      C5508A3B 
  49      CC91
  50 00b6 86A710D7 		.ascii	"\206\247\020\327\330\267{9\354\373\023\276u\015\337"
  50      D8B77B39 
  50      ECFB13BE 
  50      750DDF
  51 00c5 C97D8DC0 		.ascii	"\311}\215\300\311m\215\324\017x\352o`\270\234\234=\227"
  51      C96D8DD4 
  51      0F78EA6F 
  51      60B89C9C 
  51      3D97
  52 00d7 7D4A3AFD 		.ascii	"}J:\375d\215\356\360\335\233X\203\331\341\177\262\203"
  52      648DEEF0 
  52      DD9B5883 
  52      D9E17FB2 
  52      83
  53 00e8 6F6668C5 		.ascii	"ofh\305\013\265\006\367\017\351\030\231\\\016;M+7a+"
  53      0BB506F7 
  53      0FE91899 
  53      5C0E3B4D 
  53      2B37612B 
  54 00fc A146DA81 		.ascii	"\241F\332\201\317yp\206)9\244\242\317nPc\226\350\225"
  54      CF797086 
  54      2939A4A2 
  54      CF6E5063 
  54      96E895
  55 010f 9A83DE62 		.ascii	"\232\203\336bb\025G\206\027\340_g\275Vd\261\\*HU\316"
  55      62154786 
  55      17E05F67 
ARM GAS  /tmp/ccePHWXl.s 			page 4


  55      BD5664B1 
  55      5C2A4855 
  56 0124 1FCA7CE1 		.ascii	"\037\312|\341@\252\242\316\351rU\326*\365\335\035\311"
  56      40AAA2CE 
  56      E97255D6 
  56      2AF5DD1D 
  56      C9
  57 0135 A25293D5 		.ascii	"\242R\223\325\212\342z\261\220\335[V\364\005\376\207"
  57      8AE27AB1 
  57      90DD5B56 
  57      F405FE87 
  58 0145 8BEB     		.ascii	"\213\353"
  59              		.text
  60              		.section	.gnu.lto_chHeapObjectInit.34a6f77a1d2a5bd4,"",%progbits
  61 0000 789CA552 		.ascii	"x\234\245R1O\302P\020\276{\245P\250DW7\0236\215VL\374"
  61      314FC250 
  61      10BE7BA5 
  61      50A84457 
  61      3713368D 
  62 0017 212698C8 		.ascii	"!&\230\310\010\205\300\213A\014\240\2112P\204\201\015"
  62      0885C08B 
  62      410CA089 
  62      32508481 
  62      0D
  63 0028 46A393AB 		.ascii	"F\243\223\253\203\216vR\\4\016(n\216\214\376\004R\206"
  63      838E7652 
  63      5C340E28 
  63      6E8E8CFE 
  63      045286
  64 003b 7AAF7D40 		.ascii	"z\257}@ \304\230\370\222w\337\345\365\356\373\356\256"
  64      20C498F8 
  64      9277DFE5 
  64      F5EEFBEE 
  64      AE
  65 004c C780C1FC 		.ascii	"\307\200\301\374Y\245\373H\317;\204\250\000\262\316"
  65      59A5FB48 
  65      CF3B84A8 
  65      00B2CE
  66 005b 3B405D63 		.ascii	";@]c\210\302\001\204\032\303Z\022\275\330{\326\035\270"
  66      88C20184 
  66      1AC35A12 
  66      BDD87BD6 
  66      1DB8
  67 006d EE9DFDFA 		.ascii	"\356\235\375\372\362\214\243X\224a\001!@\00652,\014"
  67      F28CA358 
  67      94610121 
  67      40063532 
  67      2C0C
  68 007f 1C412723 		.ascii	"\034A'#\202UhZVg\015\300\364R\023d\005\337>2\201J\017"
  68      8255685A 
  68      56670DC0 
  68      F4521364 
  68      05DF3E32 
  69 0096 2E6CDBF9 		.ascii	".l\333\371f)\274A\0256\340\326\242\023\347\310\256\341"
  69      6629BC41 
  69      1536E0D6 
  69      A213E7C8 
ARM GAS  /tmp/ccePHWXl.s 			page 5


  69      AEE1
  70 00a8 0A392A39 		.ascii	"\0129*9d\007\204\001O6\355\253\203xQ\205C\331o_N_\231"
  70      64078401 
  70      4F36EDAB 
  70      83785185 
  70      43D96F5F 
  71 00bf C94E720C 		.ascii	"\311Nr\014Jw\237cH\272{\034\265)}x1=Jd\022\025\211\376"
  71      4A779F63 
  71      48BA7B1C 
  71      B5297D78 
  71      313D4A64 
  72 00d7 F79C4051 		.ascii	"\367\234@Q\360\320\351\316J\222N\344?:\352\244\255\210"
  72      F0D0E9CE 
  72      4A924EE4 
  72      3F3AEAA4 
  72      AD88
  73 00e9 6CCBBE1C 		.ascii	"l\313\276\034ug\207\262;m+>mK'9_#L\345\011\206\340\257"
  73      756787B2 
  73      3B6D2B3E 
  73      6D4B2739 
  73      5F234CE5 
  74 0101 3D4C227A 		.ascii	"=L\"z\320h5\036\332\233\276FN\244k^\001C\327u\227\345"
  74      D068351E 
  74      DA9BBE46 
  74      4EA46B5E 
  74      0143D775 
  75 0117 6CFBA1F9 		.ascii	"l\373\241\371\377\022\371\263\256*g\026\366\250\234"
  75      FF12F9B3 
  75      AE2A6716 
  75      F6A89C
  76 0126 C6537B7D 		.ascii	"\306S{}\254\245W\341\234\266CR\2259\352\213\307\024"
  76      ACA557E1 
  76      9CB64352 
  76      9539EA8B 
  76      C714
  77 0138 9C6EE707 		.ascii	"\234n\347\0074\2732\037\240\012\216\325\262V8.\231r"
  77      34BB321F 
  77      A00A8ED5 
  77      B256382E 
  77      9972
  78 014a 94C4C931 		.ascii	"\224\304\3111\012\360\011\365\301(6\216\363O\202bh\325"
  78      0AF009F5 
  78      C128368E 
  78      F34F8262 
  78      68D5
  79 015c 445DDB46 		.ascii	"D]\333F\276X\310\032f1sfd\262\247\206\231\347i^,\033"
  79      BE58C81A 
  79      66317366 
  79      64B2A786 
  79      99E7695E 
  80 0172 95D2C9D1 		.ascii	"\225\322\311\321\241AN\251b\224K&\275\347\263\251\343"
  80      A1414EA9 
  80      62944B26 
  80      BDE7B3A9 
  80      E3
  81 0183 2D137E00 		.ascii	"-\023~\000>h\256<"
  81      3E68AE3C 
ARM GAS  /tmp/ccePHWXl.s 			page 6


  82              		.text
  83              		.section	.gnu.lto_chHeapAlloc.34a6f77a1d2a5bd4,"",%progbits
  84 0000 789CC556 		.ascii	"x\234\305V\335k\034U\024?\347\336\335\231\331\235\331"
  84      DD6B1C55 
  84      143FE7DE 
  84      DD99D99D 
  84      D9
  85 0011 D9AD0949 		.ascii	"\331\255\011I\221\226.\013\265`\301\265\004\225PB\361"
  85      91962E0B 
  85      B560C1B5 
  85      04955042 
  85      F1
  86 0022 4F10B2A0 		.ascii	"O\020\262\240O\232lb2\224\230\230\266\202\006\351lv"
  86      4F9A6C62 
  86      32949898 
  86      B68206E9 
  86      6C76
  87 0034 1F627D89 		.ascii	"\037b}\211B\332\252/-Z\012\026\0330b\003Q\331\206\252"
  87      42DAAA2F 
  87      2D5A0A16 
  87      1B306203 
  87      51D986AA 
  88 0048 F9A8B5A1 		.ascii	"\371\250\265\241\024\333t\301\024)\025\252`\360\301"
  88      14DB74C1 
  88      142915AA 
  88      60F0C1
  89 0057 58C4F59C 		.ascii	"X\304\365\234;3\373\021W\263}\020\007\366~\236\337o"
  89      3B33FB11 
  89      57B37D10 
  89      07F67E9E 
  89      DF6F
  90 0069 7EE7DC73 		.ascii	"~\347\334s\317\254\000\001\233\237\317\351w,\002\260"
  90      CFAC0001 
  90      9B9FCFE9 
  90      772C02B0 
  91 0079 9F7A4C00 		.ascii	"\237zL\000\212\311+\0009C\010Y2\301\215\206>\231\007"
  91      8AC92B00 
  91      39430859 
  91      32C18D86 
  91      3E9907
  92 008c 702D8921 		.ascii	"p-\211!o=\204Qo\020\026\332\274$\203\370\225%6\320\204"
  92      6F3D8451 
  92      6F1016DA 
  92      BC2483F8 
  92      952536D0 
  93 00a1 3EB187A6 		.ascii	">\261\207\246\006\267\226\216\021\317\312\010\006\021"
  93      06B7968E 
  93      11CFCA08 
  93      0611
  94 00af B4BD41DC 		.ascii	"\264\275A\334#x:*\302\012\0315\231\3062\205\365\225"
  94      23783A2A 
  94      C20A1935 
  94      99C63285 
  94      F595
  95 00c1 9ADA4B3C 		.ascii	"\232\332K<\265D\354\352e5-\"Mc\001\332F\344\001 \034"
  95      B544ECEA 
  95      65352D22 
ARM GAS  /tmp/ccePHWXl.s 			page 7


  95      4D6301DA 
  95      46E40120 
  96 00d6 153214D6 		.ascii	"\0252\024\326t#\022\217\232V\314\306\243\317!\273#S"
  96      7423128F 
  96      9A56CCC6 
  96      A3CF21BB 
  96      2353
  97 00e8 70DA75DF 		.ascii	"p\332u\337^\373\362\354\272x\307-\026N\271\177\224\313"
  97      5EFBF2EC 
  97      BA78C72D 
  97      164EB97F 
  97      94CB
  98 00fa 880E92EB 		.ascii	"\210\016\222\353\035\010Y\204gi\202I\325\211P},<\254"
  98      1D085984 
  98      67698249 
  98      D589507D 
  98      2C3CAC
  99 010d FB5BDF82 		.ascii	"\373[\337\202[(\226\313\007\024\352\311&Qo\365\327\242"
  99      5B2896CB 
  99      0714EAC9 
  99      26516FF5 
  99      D7A2
 100 011f 3AB7424D 		.ascii	":\267BM\213\342Z\271\\\2726\373\303\237\370\320#\010"
 100      8BE25AB9 
 100      5CBA36FB 
 100      C39FF8D0 
 100      2308
 101 0131 438CEAC1 		.ascii	"C\214\352\301\323\230\002\011\016J\015iE\247\006\015"
 101      D3980209 
 101      0E4A0D69 
 101      45A7060D 
 102 0141 9A862264 		.ascii	"\232\206\"d\200Q\337\300\244\225\260M\015\304y/\301"
 102      8051DFC0 
 102      A495B04D 
 102      0DC4792F 
 102      C1
 103 0152 CD369EB6 		.ascii	"\3156\236\266\220\301\0312h\345I\033/\267s\263\223\011"
 103      90C11932 
 103      68E5491B 
 103      2FB773B3 
 103      9309
 104 0164 7751A325 		.ascii	"wQ\243%y\232\"\253\367\311j\267\337\323\023\206\202"
 104      799A22AB 
 104      F7C96AB7 
 104      DFD31386 
 104      82
 105 0175 EB4E263D 		.ascii	"\353N&=zo\325c\002v\203\236nj\177\321 \203\202:\271"
 105      7A6FD563 
 105      0276839E 
 105      6E6A7FD1 
 105      2083823A 
 106 018a 0097EE5E 		.ascii	"\000\227\356^\\9&{\360,\206a\0005\366P\257u\257\033"
 106      5C39267B 
 106      F02C8661 
 106      0035F650 
 106      AF75AF1B 
 107 019e 25145066 		.ascii	"%\024Pf0\304\366\337@~\"?=\365p`o\014\240\316\020\203"
ARM GAS  /tmp/ccePHWXl.s 			page 8


 107      30C4F6DF 
 107      407E223F 
 107      3DF57060 
 107      6F0CA0CE 
 108 01b4 31B43997 		.ascii	"1\2649\227\357\015\266\"\264\253\2666\312\345r\\m\217"
 108      EF0DB622 
 108      B4ABB636 
 108      CAE5725C 
 108      6D8F
 109 01c6 DFCFCF4C 		.ascii	"\337\317\317Li\201At\014\356\273\364\354#\027\367\302"
 109      69814174 
 109      0CEEBBF4 
 109      EC2317F7 
 109      C2
 110 01d7 873CEC72 		.ascii	"\207<\354r0\362\036\274K\250\350\000bUK/\326(R<\027"
 110      30F21EBC 
 110      4BA8E800 
 110      62554B2F 
 110      D628523C 
 111 01ec A62A9ACD 		.ascii	"\246*\232\3151x\215\302\270\027\036u\320l\214\256\201"
 111      31788DC2 
 111      B8171E75 
 111      D06C8CAE 
 111      81
 112 01fd 7F0B210F 		.ascii	"\177\013!\017\010\300\357\237p\023\016ZY\337\202\310"
 112      08C0EF9F 
 112      70130E5A 
 112      59DF82C8 
 113 020d 1C8CF1E8 		.ascii	"\034\214\361\350& EC\240gS\274\266d\023\333\020\362"
 113      26204543 
 113      A06753BC 
 113      B66413DB 
 113      10F2
 114 021f B593B312 		.ascii	"\265\223\263\022(~a\240\264\247\200\214\257\316\236"
 114      287E61A0 
 114      B4A7808C 
 114      AFCE9E
 115 022e 5FC7404C 		.ascii	"_\307@L\\\3110|\177\236r\320\366\024Q4lV\004\276\"\341"
 115      5CC9307C 
 115      7F9E72D0 
 115      F6145134 
 115      6C5604BE 
 116 0244 F7D297B5 		.ascii	"\367\322\227\265\000\205\273\271}\025\026\012_Ur\006"
 116      0085BBB9 
 116      7D15160A 
 116      5F557206 
 117 0254 35382FBD 		.ascii	"58/\275\330\337\233\352\012\214\022d\244\002l(\374\245"
 117      D8DF9BEA 
 117      0A8C1264 
 117      A4026C28 
 117      FCA5
 118 0266 3BB9276A 		.ascii	";\271'j\360\211Z\274\016\337\241\222zc\372\367J\334"
 118      F0895ABC 
 118      0EDFA192 
 118      7A63FAF7 
 118      4ADC
 119 0278 B629A941 		.ascii	"\266)\251A\350\307\034\326\256\206G\266T\035\362\373"
ARM GAS  /tmp/ccePHWXl.s 			page 9


 119      E8C71CD6 
 119      AE8647B6 
 119      541DF2FB 
 120 0288 70F54816 		.ascii	"p\365H\026\257\232\036\261O\362L\335\251\306\033\005"
 120      AF9A1EB1 
 120      4FF24CDD 
 120      A9C61B05 
 121 0298 446C4D4D 		.ascii	"DlMM*\003\037\014\317\207\374\233\371s\307w\004>\264"
 121      2A031F0C 
 121      CF87FC9B 
 121      F973C777 
 121      043EB4
 122 02ab 9040E52B 		.ascii	"\220@\345+;\267\361q\325\271\326\377\333\271\226f\234"
 122      3BB7F171 
 122      D5B9D6FF 
 122      DBB99666 
 122      9C
 123 02bc 6B5597E6 		.ascii	"kU\227\346\215\374\314\361\327\003\341m\301\351\363"
 123      8DFCCCF1 
 123      D703E16D 
 123      C1E9F3
 124 02cb 7157DC69 		.ascii	"qW\334i\247\215\315\227iq\262^T\327?\344]C%\322W\320"
 124      A78DCD97 
 124      6971B25E 
 124      54D73FE4 
 124      5D4325D2 
 125 02e1 EE51CDCE 		.ascii	"\356Q\315\316\254\213\377\344\370Z\024\377\362\215\231"
 125      AC8BFFE4 
 125      F85A14FF 
 125      F28D99
 126 02f0 DBA229B1 		.ascii	"\333\242)\261\377rI*w\"C\003u\037\306\227O~\372w^\335"
 126      FF72492A 
 126      77224303 
 126      751FC697 
 126      4F7EFA77 
 127 0306 1F765675 		.ascii	"\037vVuw4}\350\232\377*\344JQX[\275\203\215\252\205"
 127      77347DE8 
 127      9AFF2AE4 
 127      4A51585B 
 127      BD838DAA 
 128 031b F0ADBC6A 		.ascii	"\360\255\274j\241\222\362\347\266\340\254v\372\257\020"
 128      A192F2E7 
 128      B6E0AC76 
 128      FAAF10
 129 032a 869F40DD 		.ascii	"\206\237@\335\030\207S_\003f\250\356\323GO]\304\215"
 129      1887535F 
 129      0366A8EE 
 129      D3474F5D 
 129      C48D
 130 033c 738B2200 		.ascii	"s\213\"\000\330u\271z\240*\273\363\001\303\255\312\310"
 130      D875B97A 
 130      A02ABBF3 
 130      01C3ADCA 
 130      C8
 131 034d 4FB98E0A 		.ascii	"O\271\216\012q\025\242\236\233 \250\354\206._\337N{"
 131      7115A29E 
 131      9B20A8EC 
ARM GAS  /tmp/ccePHWXl.s 			page 10


 131      862E5FDF 
 131      4E7B
 132 035f F1D2AD17 		.ascii	"\361\322\255\0278\226&\314K\311\276\376\330\337\214"
 132      389626CC 
 132      4BC9BEFE 
 132      D8DF8C
 133 036e ABE3AB27 		.ascii	"\253\343\253'\347nW\312\335.%=\321\270\352\352\265\242"
 133      E76E57CA 
 133      DD2E253D 
 133      D1B8EAEA 
 133      B5A2
 134 0380 6215089B 		.ascii	"b\025\010\233\324T'\326`\301G~}\273pb\177`\230\254\255"
 134      D45427D6 
 134      60C1477E 
 134      7DBB7062 
 134      7F6098AC 
 135 0395 6F24B0B8 		.ascii	"o$\260\270=\330I\021\013kJ:\\\036\230\376b\311\254l"
 135      3DD84911 
 135      0B6B4A3A 
 135      5C1E98FE 
 135      62C9AC6C 
 136 03a9 6E729AF9 		.ascii	"nr\232\371cp\306\313\227\215\271\007\317\227T\223\371"
 136      6370C6CB 
 136      978DB907 
 136      CF975493 
 136      F9
 137 03ba A2F2F18B 		.ascii	"\242\362\361\213\225z\376\316j\236oMZ\223\347\352#w"
 137      957AFECE 
 137      6A9E6F4D 
 137      5A93E7EA 
 137      2377
 138 03cc EF841E78 		.ascii	"\357\204\036x\265\333\373X\026\177]\266\010G49\227\017"
 138      B5DBFB58 
 138      167F5DB6 
 138      08473439 
 138      970F
 139 03de 2860922A 		.ascii	"(`\222*\327\202\363\363\275\266\371\213\275B\177\266"
 139      D782F3F3 
 139      BDB6F98B 
 139      BD427FB6 
 140 03ee 98537A09 		.ascii	"\230Sz\011 )?#\237\335\332A\214\261\017\236WP\000\253"
 140      20293F23 
 140      9FDDDA41 
 140      8CB10F9E 
 140      575000AB 
 141 0402 F4BDE50F 		.ascii	"\364\275\345\017M\225\257HH\026\365xzpx\250?\235\035"
 141      4D95AF48 
 141      4816F578 
 141      7A7078A8 
 141      3F9D1D
 142 0415 EE7B35DD 		.ascii	"\356{5\335\327\377J:;\350\364:\303\207\322\207G\217"
 142      D7FF4A3A 
 142      3BE8F43A 
 142      C387D287 
 142      478F
 143 0427 BC74304D 		.ascii	"\274t0M\203\321\303\351C\243YZ\037\354\357\031y,\013"
 143      83D1C3E9 
ARM GAS  /tmp/ccePHWXl.s 			page 11


 143      43A3595A 
 143      1FECEF19 
 143      792C0B
 144 043a E2E51131 		.ascii	"\342\345\02118\"^\034\371\0135\3737\312"
 144      38225E1C 
 144      F90B35FB 
 144      37CA
 145              		.text
 146              		.section	.gnu.lto_chHeapFree.34a6f77a1d2a5bd4,"",%progbits
 147 0000 789CAD55 		.ascii	"x\234\255U]h\024W\024>\347\316\314\356\314\316\304\335"
 147      5D681457 
 147      143EE7CE 
 147      CCEECCCE 
 147      C4DD
 148 0012 18094954 		.ascii	"\030\011IT\"\333BAK\267E\332\022\244\372\354\243h@\037"
 148      22DB4241 
 148      4BB745DA 
 148      12A4FAEC 
 148      A368401F 
 149 0026 934DD80C 		.ascii	"\223M\330\014\305&M\264\320\346\301I6B@\220P\250\177"
 149      C5264DB4 
 149      D0E6C149 
 149      36424090 
 149      50A87F
 150 0039 458C4811 		.ascii	"E\214H\021\372\"\250\017\202>d\245\017Fj\254\320\007"
 150      FA22A80F 
 150      823E64A5 
 150      0F466AAC 
 150      D007
 151 004b 95D2260F 		.ascii	"\225\322&\017\255\322\207Z]\264i(\235\236\37373\273"
 151      ADD2875A 
 151      5DB46928 
 151      9D9EFB37 
 151      33BB
 152 005d 2C261B7A 		.ascii	",&\033za\317\275\347\336{\276s\316w\316\235e\300\240"
 152      61CFBDE7 
 152      DE7BBE73 
 152      CE77CE9D 
 152      65C0A0
 153 0070 7ECCD2EF 		.ascii	"~\314\322\357G\007`7\315\330\002\310f\026\000&l\206"
 153      47076037 
 153      CDD802C8 
 153      66160026 
 153      6C86
 154 0082 865C18CC 		.ascii	"\206\\\030\314\372\311\205 c^\277\015\020x&\263\246"
 154      FAC98520 
 154      635EBF0D 
 154      107826B3 
 154      A6
 155 0093 DF22D5E5 		.ascii	"\337\"\325\345\322\263X\372\266AZj\341.?L)\325\225j"
 155      D2B358FA 
 155      B6415A6A 
 155      E12E3F4C 
 155      29D5956A 
 156 00a7 9AD9C2D4 		.ascii	"\232\331\302\324\221\2466:\022\322a\031\261\357\311"
 156      91A6363A 
 156      12D26119 
ARM GAS  /tmp/ccePHWXl.s 			page 12


 156      B1EFC9
 157 00b6 FD0C7A72 		.ascii	"\375\014zr\337\225>+\266\207\310\027\200p\214\031\246"
 157      DF953E2B 
 157      B687C817 
 157      80708C19 
 157      A6
 158 00c7 954ADB4E 		.ascii	"\225J\333N\306\365\360\330!\344\021\033y\270\030\004"
 158      C6F5F0D8 
 158      21E4111B 
 158      79B81804 
 159 00d7 5F2E1E7F 		.ascii	"_.\036\177\362\234\235\015\346\246f\203\177\302\020"
 159      F29C9D0D 
 159      E6A66683 
 159      7FC210
 160 00e6 D147CA6E 		.ascii	"\321G\312n'B\021\341 )\270ML\314\254MW\332\006\177\015"
 160      274211E1 
 160      2029B84D 
 160      4CCCAC4D 
 160      57DA067F 
 161 00fb DC09A6E6 		.ascii	"\334\011\246\346\302p\217\260\372`mVs7O~\325\031\314"
 161      C2708FB0 
 161      FA606D56 
 161      73374F7E 
 161      D519CC
 162 010e 4ECE04FF 		.ascii	"N\316\004\377\222C\037\015\006=\253Y^as\213ax\253\372"
 162      92431F0D 
 162      063DAB59 
 162      5E61738B 
 162      6178ABFA 
 163 0122 74E929B6 		.ascii	"t\351)\266\275\201\320\207\0271\017&\036F\260H\271D"
 163      BD81D087 
 163      17310F26 
 163      1E46B048 
 163      B944
 164 0134 4A9AE66F 		.ascii	"J\232\346oh\266\325\241\003>\232.\011\330@\302\312\222"
 164      68B6D5A1 
 164      033E9A2E 
 164      09D840C2 
 164      CA92
 165 0146 6039AEB6 		.ascii	"`9\256\266r\261\221\357\265q\261\211\213v\276\327\301"
 165      72B191EF 
 165      B571B189 
 165      8B76BED7 
 165      C1
 166 0157 579DFC5E 		.ascii	"W\235\374^\027W7su\013\027[\271\350\346{y\005N\303\202"
 166      17573773 
 166      750B175B 
 166      B9E8E67B 
 166      79054EC3 
 167 016c A92098D9 		.ascii	"\251 \230\331&u\031\202\014\000x.4\016\220\\1\240\027"
 167      26751982 
 167      0C00782E 
 167      340E905C 
 167      31A017
 168 017f 194DC63D 		.ascii	"\031M\306=(\237(_>\237\352\303\313hA\011\255\022\232"
 168      289F285F 
 168      3E9FEAC3 
ARM GAS  /tmp/ccePHWXl.s 			page 13


 168      CB684109 
 168      AD129A
 169 0192 22D3E530 		.ascii	"\"\323\3450\014\263t\375\036L>~\370\373<\352\013\351"
 169      0CB374FD 
 169      1E4C3E7E 
 169      F8FB3CEA 
 169      0BE9
 170 01a4 1DF06D40 		.ascii	"\035\360m@\243\227\030R\313}>\246\324r\227\217\351\257"
 170      A3971852 
 170      CB7D3EA6 
 170      D472978F 
 170      E9AF
 171 01b6 E11C01D8 		.ascii	"\341\034\001\330\012\0104\020\364\243$\255\037Q\315"
 171      0A083410 
 171      F4A324AD 
 171      1F51CD
 172 01c5 BA5FC9C7 		.ascii	"\272_\311\307J\371J\034\204=\016+\034\355=2W\300\037"
 172      4AF94A1C 
 172      843D0E2B 
 172      1CED3D32 
 172      57C01F
 173 01d8 11A20476 		.ascii	"\021\242\004v(\006\016l(\020#.\207\300\271v\336\320"
 173      28060E6C 
 173      2810232E 
 173      87C0B976 
 173      DED0
 174 01ea 38CE387C 		.ascii	"8\3168|Al\357\200\355>f\032['\012z\037Li\010\300\375"
 174      416CEF80 
 174      ED3E661A 
 174      5B270A7A 
 174      1F4C6908 
 175 0200 4F07391F 		.ascii	"O\0079\037\335\242\012\226\300|\364\344\305^\262\246"
 175      DDA20A96 
 175      C07CF4E4 
 175      C55EB2A6 
 176 0210 0E36EEC0 		.ascii	"\0166\356\300wO*\325\223\236v\207\024\271\006{\004\244"
 176      774F2AD5 
 176      939E7687 
 176      14B9067B 
 176      04A4
 177 0222 E5DDEBE3 		.ascii	"\345\335\353\343\264\307n\275\354\340V&\320\223\340"
 177      B4C76EBD 
 177      ECE05626 
 177      D093E0
 178 0231 56BF55AA 		.ascii	"V\277U\252\013o&\030\3078\210^\332{\365\266!X\377\343"
 178      0B6F2618 
 178      C738885E 
 178      DA7BF5B6 
 178      2158FFE3 
 179 0245 01D3975C 		.ascii	"\001\323\227\\\221\003\254B8\012\302\2411\331\226\362"
 179      9103AC42 
 179      380AC2A1 
 179      31D996F2 
 180 0255 20A35E28 		.ascii	" \243^(D\320\261Q\024C\012\252\333y\240\277V^\326\004"
 180      44D0B151 
 180      14430AAA 
 180      DB79A0BF 
ARM GAS  /tmp/ccePHWXl.s 			page 14


 180      565ED604 
 181 0269 EA262FA5 		.ascii	"\352&/\245e\377L\316\237y\266\244\002\215\213\245\227"
 181      65FF4CCE 
 181      9F79B6A4 
 181      028D8BA5 
 181      97
 182 027a 3D71A83B 		.ascii	"=q\250;\233\352\015K\321\356\212\262\316\337X\207\217"
 182      9BEA0D4B 
 182      D1EE8AB2 
 182      CEDF5887 
 182      8F
 183 028b 35D051E2 		.ascii	"5\320Q\3423'{\371\331\243\250\3057\010\262[\204\\C\304"
 183      33277BF9 
 183      D9A3A8C5 
 183      3708B25B 
 183      845C43C4 
 184 029f A9A8FBCA 		.ascii	"\251\250\373\312\323Q\353e\011F\274#[\236\234\210Nr"
 184      D351EB65 
 184      0946BC23 
 184      5B9E9C88 
 184      4E72
 185 02b1 82C9AC74 		.ascii	"\202\311\254t\373gVo\267\326Tx<N\351\350:h\223U\236"
 185      FB67566F 
 185      B7D65478 
 185      3C4EE9E8 
 185      3A689355 
 186 02c6 783FE1B3 		.ascii	"x?\341\2635Y:\033\276\007\321c7^<7\365\245\215:m\341"
 186      35593A1B 
 186      BE07D163 
 186      375E3C37 
 186      F5A58D3A 
 187 02dc F63426FD 		.ascii	"\3664&\375\2666\2422\231x\371jD_\033\245Nhu\204l\242"
 187      B636A232 
 187      9978F96A 
 187      445F1BA5 
 187      4E687584 
 188 02f2 030ED222 		.ascii	"\003\016\322\"\011\231\334\233\254f.\362\233k\202r\002"
 188      0999DC9B 
 188      AC662EF2 
 188      9B6B8272 
 188      02
 189 0303 55DFA717 		.ascii	"U\337\247\027\363\226\366\323^\303\343\005\214\211<"
 189      F396F6D3 
 189      5EC3E305 
 189      8C893C
 190 0312 BB7A46F5 		.ascii	"\273zF\365,\362\316\373\301\255\351\273}5\337$\215\375"
 190      2CF2CEFB 
 190      C1ADE9BB 
 190      7D35DF24 
 190      8DFD
 191 0324 E1BA7ABB 		.ascii	"\341\272z\273]\327\303QO\351\361\231\352R\304cG\303"
 191      5DD7C351 
 191      4FE9F199 
 191      EA52C463 
 191      47C3
 192 0336 366CD8D4 		.ascii	"6l\330\324\015[\260\223 \032\267`\227\370Vu\326wIW)"
 192      0D5BB093 
ARM GAS  /tmp/ccePHWXl.s 			page 15


 192      201AB760 
 192      97F85675 
 192      D6774957 
 193 034b 4A5C4495 		.ascii	"J\\D\225\321]\362\260\272\024\331n\256\351\222\261\246"
 193      D15DF2B0 
 193      BA14D96E 
 193      AEE992B1 
 193      A6
 194 035c 5F48A251 		.ascii	"_H\242Q\266P\200\004X\027\366V:h\266Q^C\012\001\252"
 194      B6508004 
 194      5817F656 
 194      3A68B651 
 194      5E430A01 
 195 0371 175EFD3B 		.ascii	"\027^\375;\362\321\375\377>\266\365\265\311\232>O\335"
 195      F2D1FDFF 
 195      3EB6F5B5 
 195      C99A3E4F 
 195      DD
 196 0382 BA182E9C 		.ascii	"\272\030.\234\272+\253\261\374\252\022Q\230W\300\373"
 196      BA2BABB1 
 196      FCAA1251 
 196      9857C0FB 
 197 0392 63777B62 		.ascii	"cw{bw=M\3779H_\036o\307\3730\265\370s\251\321?\"S\261"
 197      773D4DFF 
 197      39485F1E 
 197      6FC7FB30 
 197      B5F873A9 
 198 03ab C97FC407 		.ascii	"\311\177\304\00701\373KZ\337\223\343\000\001\257\030"
 198      3031FB4B 
 198      5ADF93E3 
 198      0001AF18 
 199 03bb FCDEBB85 		.ascii	"\374\336\273\205\241\341\303\203\205\342\360\300\347"
 199      A1E1C383 
 199      85E2F0C0 
 199      E7
 200 03c8 8581C1CF 		.ascii	"\205\201\301\317\012\305!\277\337\037\036+\034\031="
 200      0AC521BF 
 200      DF1F1E2B 
 200      1C193D
 201 03d7 FAC9C705 		.ascii	"\372\311\307\005Z\214\036)\214\215\026i\177h\260o\344"
 201      5A8C1E29 
 201      8C8D1669 
 201      7F68B06F 
 201      E4
 202 03e8 9D22B04F 		.ascii	"\235\"\260OG\330\320\210\305\265\221\377\000\354xLY"
 202      47D8D088 
 202      C5B591FF 
 202      00EC784C 
 202      59
 203              		.text
 204              		.section	.gnu.lto_chHeapStatus.34a6f77a1d2a5bd4,"",%progbits
 205 0000 789C8D52 		.ascii	"x\234\215R\317k\023Q\020\236y\357\355n\222MR\021\021"
 205      CF6B1351 
 205      109E79EF 
 205      ED6E924D 
 205      521111
 206 0013 7A2B3DB6 		.ascii	"z+=\266\342\012\202\210\027\377\211\006\354I\322\244"
ARM GAS  /tmp/ccePHWXl.s 			page 16


 206      E20A8288 
 206      17FF8906 
 206      EC49D2A4 
 207 0023 A44BE9CF 		.ascii	"\244K\351\317\264\202\355\241/\355\212=T\010\351A[Q"
 207      B482EDA1 
 207      2FED8A3D 
 207      5408E941 
 207      5B51
 208 0035 5B8D368A 		.ascii	"[\2156\212\340A\301B/\251\210\326C-\366d\305C\321C="
 208      E041C142 
 208      2FA988D6 
 208      432DF664 
 208      C543D143 
 209 004a F4201E3C 		.ascii	"\364 \036<\224\322u^\336n\232JA\037dg\336\274\357\233"
 209      94D2755E 
 209      DE6E9A4A 
 209      411F6467 
 209      DEBCEF9B 
 210 005e F966320C 		.ascii	"\371f2\014\030\374}\206\350wF\000\\\"\2131@V\374\010"
 210      18FC7D86 
 210      E8774600 
 210      5C228B31 
 210      4056FC08 
 211 0072 508830C6 		.ascii	"P\2100\306\277\332 c\342\325\033\000\031\347(t\\\240"
 211      BFDA2063 
 211      E2D51B00 
 211      19E72874 
 211      5CA0
 212 0084 A91D433B 		.ascii	"\251\035C;\253\021\223\0313\357\011\023\263<\213\220"
 212      AB119319 
 212      33EF0913 
 212      B33C8B90 
 213 0094 168BCCBF 		.ascii	"\026\213\314\277S\327\350ou\215`T\343\243\210\312\001"
 213      53D7E86F 
 213      758D6054 
 213      E3A388CA 
 213      01
 214 00a5 8409C685 		.ascii	"\204\011\306\205aZ\024\231\350D%\201\267\302\242\224"
 214      615A1499 
 214      E8442581 
 214      B7C2A294 
 215 00b5 A5ED1B0F 		.ascii	"\245\355\033\017\177\2619Y\365\026\344\276\357#\272"
 215      7FB13959 
 215      F516E4BE 
 215      EF23BA
 216 00c4 4872CF23 		.ascii	"Hr\317#d\020\256\320\005[j\206\211\243\3725\267:[\272"
 216      6410AED0 
 216      055B6A86 
 216      89A3FA35 
 216      B73A5BBA 
 217 00d8 D52C1726 		.ascii	"\325,\027&\213\362\200\250.r\006\027\376\217)W\262k"
 217      8BF280A8 
 217      2E720617 
 217      FE8F2957 
 217      B26B
 218 00ea D2ABFAFE 		.ascii	"\322\253\372\376\345\032\353\342\277X/Xu\333\367\367"
 218      E51AEBE2 
ARM GAS  /tmp/ccePHWXl.s 			page 17


 218      BF582F58 
 218      75DBF7F7 
 219 00fa FD1FDF2B 		.ascii	"\375\037\337+x\352$B\237R\231\306El\005N\366\021YA\366"
 219      78EA2442 
 219      9F5299C6 
 219      456C054E 
 219      F6115941 
 220 010f 315913E9 		.ascii	"1Y\023\351\321\002\027E,@\330t\2018}\214D\200I\006\234"
 220      D1021745 
 220      2C40D874 
 220      81387D8C 
 220      44804906 
 221 0124 26C2AA61 		.ascii	"&\302\252a\030\340IYl\321p\375\244\201\240t\321\351"
 221      18E04959 
 221      6CD170FD 
 221      A481A074 
 221      D1E9
 222 0136 A02F0D3A 		.ascii	"\240/\015:\205\214\014_\203\267;\253\267K<\215Kh@\016"
 222      858C0C5F 
 222      83B73BAB 
 222      B74B3C8D 
 222      4B68400E 
 223 014a 4D25D96C 		.ascii	"M%\331l\324\333\201\034n\"O\241P\370u\230\334\233Z)"
 223      D4DB811C 
 223      6E224FA1 
 223      50F87598 
 223      DC9B5A29 
 224 015e D7F1D638 		.ascii	"\327\361\3268\214\221\276vhs\321\272\013\363\304\216"
 224      8C91BE76 
 224      6873D1BA 
 224      0BF3C48E 
 225 016e E4100FB3 		.ascii	"\344\020\017\263taC\256\015\020\232\0100\016{rZ\236"
 225      746143AE 
 225      0D109A08 
 225      300E7B72 
 225      5A9E
 226 0180 70319A41 		.ascii	"p1\232A\015\241d.-\020\324J\354\224\333\302\0221\005"
 226      0DA1642E 
 226      2D10D44A 
 226      EC94DBC2 
 226      123105
 227 0193 A5D349AD 		.ascii	"\245\323I\255\267\3033\345\216\272h\037_\254\261\032"
 227      B7C333E5 
 227      8EBA681F 
 227      5FACB11A 
 228 01a3 6C015247 		.ascii	"l\001RG\014u\255\352\334f\222\200}\250v\230/s\240\031"
 228      0C75ADEA 
 228      DC669280 
 228      7DA87698 
 228      2F73A019 
 229 01b7 1840ABA7 		.ascii	"\030@\253\247\232\372\362\371\311f\275\251x\255\035"
 229      9AFAF2F9 
 229      C966BDA9 
 229      78AD1D
 230 01c6 1E14BBEA 		.ascii	"\036\024\273\352b\\\027\263sh\253b\020\024c\201\345"
 230      625C17B3 
 230      7368AB62 
ARM GAS  /tmp/ccePHWXl.s 			page 18


 230      10146381 
 230      E5
 231 01d7 41BD7598 		.ascii	"A\275u\230\232\236\352\012\263$(Q\216\246\246\303;\345"
 231      9A9EEA0A 
 231      B3242851 
 231      8EA6A6C3 
 231      3BE5
 232 01e9 DEF02199 		.ascii	"\336\360!\231C\256\322\360Pl\212\344\323n\327t\374<"
 232      43AED2F0 
 232      506C8AE4 
 232      D36ED774 
 232      FC3C
 233 01fb 1DC2EC9A 		.ascii	"\035\302\354\232\212\260\345\227DH\004\376=l\224\304"
 233      8AB0E597 
 233      444804FE 
 233      3D6C94C4 
 234 020b 8E932402 		.ascii	"\216\223$\002k\004%\326\300\333-X\365\324\207\224`P"
 234      6B0425D6 
 234      C0DB2D58 
 234      F5D48794 
 234      6050
 235 021d 8CE62C2A 		.ascii	"\214\346,*\006=\031\225\246-\320\372\000D\205\223^c"
 235      063D1995 
 235      A62DD0FA 
 235      00448593 
 235      5E63
 236 022f 39B10522 		.ascii	"9\261\005\"\014\315\3146Ss\306\363\331\264Rn\351-\362"
 236      0CCDCC36 
 236      5373C6F3 
 236      D9B4526E 
 236      E92DF2
 237 0242 76575F1F 		.ascii	"vW_\037nQ\223\302&\033\377\212\024F\340\251\251:\374"
 237      6E5193C2 
 237      261BFF8A 
 237      1446E0A9 
 237      A93AFC
 238 0255 7067E91B 		.ascii	"pg\351\033j \265P\240vl\312{\204\223\013\344\023+\252"
 238      6A20B550 
 238      A0766CCA 
 238      7B84930B 
 238      E4132BAA 
 239 0269 D26F80B7 		.ascii	"\322o\200\267}\337=ns\330\221\315\371\004\205\205\007"
 239      7DDF3D6E 
 239      73D891CD 
 239      F9048585 
 239      07
 240 027a D150040F 		.ascii	"\321P\004\017\367\027)\207\002\236sz\006\372\272\235"
 240      F7172987 
 240      029E737A 
 240      06FABA9D 
 241 028a CC40F6BA 		.ascii	"\314@\366\272\223\355\276\346dz\334.w \357\214\014\217"
 241      93EDBEE6 
 241      647ADC2E 
 241      7720EF8C 
 241      0C8F
 242 029c F6F73AE4 		.ascii	"\366\367:\344\014\2178\371\341\014\305{\272\323\203"
 242      0C8F38F9 
ARM GAS  /tmp/ccePHWXl.s 			page 19


 242      E10CC57B 
 242      BAD383
 243 02ab 6733C086 		.ascii	"g3\300\206\006\261\237\345\307\376\0003\274\003)"
 243      06B19FE5 
 243      C7FE0033 
 243      BC0329
 244              		.text
 245              		.section	.gnu.lto_.symbol_nodes.34a6f77a1d2a5bd4,"",%progbits
 246 0000 789C4D8C 		.ascii	"x\234M\214=\016\202@\020\205\337\333\331e\227Sp\324"
 246      3D0E8240 
 246      1085DFDB 
 246      D9659753 
 246      70D4
 247 0012 C1981813 		.ascii	"\301\230\030\023\033\343\001l\350\3747p\003z<\200\215"
 247      1BE3016C 
 247      E8FC3770 
 247      037A3C80 
 247      8D
 248 0023 86C28633 		.ascii	"\206\302\2063\250\200D\230\346\3137\363\336\030\030"
 248      A8804498 
 248      E6CB37F3 
 248      DE1818
 249 0032 DC318CD9 		.ascii	"\3341\214\331S\201u\005\250n\227t;\302\252\360B\345"
 249      53817505 
 249      A86E9774 
 249      3BC2AAF0 
 249      42E5
 250 0044 6F9BCE68 		.ascii	"o\233\316h\016T3f\314\221*\023=Q\355D\317T7*\257\324"
 250      0E543366 
 250      CC912A13 
 250      3D51ED44 
 250      CF54372A 
 251 005a 68F89492 		.ascii	"h\370\224\222\005\325\217\226S\303\337\004\036\365\343"
 251      05D58F96 
 251      53C3DF04 
 251      1EF5E3
 252 0069 4D9196CF 		.ascii	"M\221\226\317\2266F\3263 [5\276g\365\361\326\"\277\275"
 252      963646D6 
 252      33205B35 
 252      BE67F5F1 
 252      D622BFBD 
 253 007d BCB818F3 		.ascii	"\274\270\030\363\356\354\002\312M\223H\024\243\354\352"
 253      EEEC02CA 
 253      4D934814 
 253      A3ECEA
 254 008c 5140BD68 		.ascii	"Q@\275h\022|\001\230\203Cs"
 254      127C0198 
 254      834373
 255              		.text
 256              		.section	.gnu.lto_.refs.34a6f77a1d2a5bd4,"",%progbits
 257 0000 789C6362 		.ascii	"x\234cb`b\020e\200\000V\006FF&&F \000\022,@\314\306"
 257      60621065 
 257      80005606 
 257      46462626 
 257      46200012 
 258 0018 C4C80000 		.ascii	"\304\310\000\000\004\212\000>"
 258      048A003E 
ARM GAS  /tmp/ccePHWXl.s 			page 20


 259              		.text
 260              		.section	.gnu.lto_.decls.34a6f77a1d2a5bd4,"",%progbits
 261 0000 789CBD5A 		.ascii	"x\234\275Z\177p\024\325\035\177o/w\311%\021\030\235"
 261      7F7014D5 
 261      1D7F6F2F 
 261      77C92511 
 261      189D
 262 0012 2A3A743C 		.ascii	"*:t<;\330q\354hP\251b\231\022\034Z\305\261\330N;\316"
 262      3BD871EC 
 262      6850A962 
 262      99121C5A 
 262      C5B1D84E 
 263 0028 F48F3AE7 		.ascii	"\364\217:\347\346\262\344N\356W\367\366 \264\323\361"
 263      E6B2E44E 
 263      EE57F7F6 
 263      20B4D3F1 
 264 0038 25400441 		.ascii	"%@\004A~\004\011\006!& V\234\002\006\304\030D<)&\031"
 264      7E040906 
 264      21262056 
 264      9C0206C4 
 264      18443C29 
 265 004e 62405454 		.ascii	"b@TT\264\226(\305\342\324\037\240\006\212?\270~\337"
 265      B49628C5 
 265      E2D41FA0 
 265      068A3FB8 
 265      7EDF
 266 0060 DBB777BB 		.ascii	"\333\267w\273{\273\227\335\263\272\223\367\366\355\356"
 266      7BBB97DD 
 266      B3BA93F7 
 266      F6EDEE
 267 006f 7B9FEFF7 		.ascii	"{\237\357\367\373\371~\337\317\213\200\0044\301\203"
 267      FBF97EDF 
 267      CF8B8004 
 267      34C183
 268 007e 50162E7C 		.ascii	"P\026.|\025B\213\274\010\371\020B\323 A\021uA\332\010"
 268      15428BBC 
 268      08F91042 
 268      D3204111 
 268      7541DA08 
 269 0092 692A8677 		.ascii	"i*\206w\220\342\220\340\017E!\363\303=\001\367\024\244"
 269      90E290E0 
 269      0F4521F3 
 269      C33D01F7 
 269      14A4
 270 00a4 34A42648 		.ascii	"4\244&HK \255\204\324\016i\003\244Gy\375.\232\351.\332"
 270      4B20AD84 
 270      D40E6903 
 270      A44779FD 
 270      2E9AE92E 
 271 00b9 EE02B8DF 		.ascii	"\356\002\270\337\012\367Z\216}\007\244\020\244{ \335"
 271      0AF75A8E 
 271      7D07A410 
 271      A47B20DD 
 272 00c9 0DE94EAC 		.ascii	"\015\351N\254\312\335\204\363z\254\203r9\334\177\011"
 272      CADD84F3 
 272      7AAC8372 
 272      39DC7F09 
ARM GAS  /tmp/ccePHWXl.s 			page 21


 273 00d9 F75990FE 		.ascii	"\367Y\220\376\000)\010\251\016R\030\253zytz\265\333"
 273      002908A9 
 273      0E5218AB 
 273      7A79747A 
 273      B5DB
 274 00eb C8A7FA8E 		.ascii	"\310\247\372\216\321\331\350D\017*\237\352\342D\007"
 274      D1D9E844 
 274      0F2A9FEA 
 274      E24407
 275 00fa 81CB68E7 		.ascii	"\201\313h\347\372\374\031\356\177\201t\237I\017\312"
 275      FAFC19EE 
 275      7F81749F 
 275      490FCA
 276 0109 D9854895 		.ascii	"\331\205H\225G\365\251\206T\253\323\353\016\256\323"
 276      47F5A986 
 276      54ABD3EB 
 276      0EAED3
 277 0118 54AE47AD 		.ascii	"T\256G\255I\217\273\271\236T\377\333 U U\247(\327+\254"
 277      498FBBB9 
 277      9E54FFDB 
 277      20552055 
 277      A728D72B 
 278 012d D34DC2AA 		.ascii	"\323M\302\252\316\036.\367Q\356#\372\334\002\367\373"
 278      CE1E2EF7 
 278      51EE23FA 
 278      DC02F7FB 
 279 013d 71214F4B 		.ascii	"q!OK\270^z\375\246q\177P\035\365\034\231u\233\312y\322"
 279      B85E7AFD 
 279      A6717F50 
 279      1DF51C99 
 279      759BCA79 
 280 0152 F891705E 		.ascii	"\370\221p^7\215+\017\227\241\351B\305?h\322\201\306"
 280      378D2B0F 
 280      97A1E942 
 280      C53F68D2 
 280      81C6
 281 0164 D358930E 		.ascii	"\323X\223\016Su:L\343rkq^\366\235:nh\314\372x\314j\376"
 281      53753A4C 
 281      E3726B71 
 281      5EF69D3A 
 281      6E68CCFA 
 282 017c D2F3E2E1 		.ascii	"\322\363\342\3412\364|\254\201{\233\005\037U\350\001"
 282      32F47CAC 
 282      817B9B05 
 282      1F55E801 
 283 018c 429A4967 		.ascii	"B\232Ig\013\23190\346B\264\212\300\025\030\000\255~"
 283      0B993930 
 283      E642B48A 
 283      C0151800 
 283      AD7E
 284 019e 8F453CC6 		.ascii	"\217E<\306\217\010f\245j?\032\007\265\257D\217\021\262"
 284      8F0866A5 
 284      6A3F1A07 
 284      B5AF448F 
 284      11B2
 285 01b0 7278F323 		.ascii	"rx\363#\227\2202\021o\304\027B\\\334\210\321\325h\013"
 285      97903211 
ARM GAS  /tmp/ccePHWXl.s 			page 22


 285      6FC41742 
 285      5CDC88D1 
 285      D5680B
 286 01c3 345B49C8 		.ascii	"4[I\310\276\313Q\3415*\252@\275(\342\307\001N\304\233"
 286      BECB51E1 
 286      352AAA40 
 286      BD28E2C7 
 286      014EC49B 
 287 01d7 F1D5AA18 		.ascii	"\361\325\252\030\222\031\021\003\352[\304\337[\\W\240"
 287      92191103 
 287      EA5BC4DF 
 287      5B5C57A0 
 288 01e7 4E5AF5EC 		.ascii	"NZ\365\354\011?i\255\266\2204]\023T\221W\277\247\345"
 288      093F69AD 
 288      B690345D 
 288      13549157 
 288      BFA7E5
 289 01fa E02ABC90 		.ascii	"\340*\274\220\020\370\360$3a!\306\006\011\034\247s\272"
 289      10F8F024 
 289      336121C6 
 289      06091CA7 
 289      73BA
 290 020c 1D90801E 		.ascii	"\035\220\200\036bM\266\232T\036~d\360\365&\334\304\240"
 290      624DB69A 
 290      541E7E64 
 290      F0F526DC 
 290      C4A0
 291 021e B73A50BC 		.ascii	"\267:P\2749s\244e\303\245\244s\037\036\315\017\235e"
 291      3973A465 
 291      C3A5A473 
 291      1F1ECD0F 
 291      9D65
 292 0230 9AFC5FE4 		.ascii	"\232\374_\344\015y\246e?&\244B\304;\230\031o[\233a\017"
 292      0D79A665 
 292      3F26A442 
 292      C43B9819 
 292      6F5B9B61 
 293 0245 23A0E3AC 		.ascii	"#\240\343\254\311\256\0023\226\376S3c\227#3\276\342"
 293      C9AE0233 
 293      96FE5333 
 293      63972333 
 293      BEE2
 294 0257 6688B81B 		.ascii	"f\210\270\033L\021\320\3079\\.8\240\311-CH+\252\027"
 294      4C11D0C7 
 294      395C2E38 
 294      A0C92D43 
 294      482BAA17 
 295 026b AF60C43B 		.ascii	"\257`\304;\337W\275R\324\300\276p\015\0260\200\255\356"
 295      DF57BD52 
 295      D4C0BE70 
 295      0D163080 
 295      ADEE
 296 027d 5FCF94F3 		.ascii	"_\317\224\363\243\305y\216\221%\030'\366\354\241\203"
 296      A3C5798E 
 296      91251827 
 296      F6ECA183 
 297 028d 87F10266 		.ascii	"\207\361\002f\377\363\320L@\373\005#\265\316\241z\333"
ARM GAS  /tmp/ccePHWXl.s 			page 23


 297      FFF3D04C 
 297      40FB0523 
 297      B5CEA17A 
 297      DB
 298 029e 5E7A1137 		.ascii	"^z\02173\250\014\203:]2\324\310\332=73w\377\235\001"
 298      33A80C83 
 298      3A5D32D4 
 298      C8DA3D37 
 298      3377FF9D 
 299 02b3 6DF71881 		.ascii	"m\367\030\201D\\\236\2431\367\254U\240h\3543/\320\371"
 299      445C9EA3 
 299      31F7AC55 
 299      A068EC33 
 299      2FD0F9
 300 02c6 712CFA8E 		.ascii	"q,\372\216\253\013h\267\307\201\353*\354\342\200\014"
 300      AB0B68B7 
 300      C781EB2A 
 300      ECE2800C 
 301 02d6 AF5B7A02 		.ascii	"\257[z\002\267\223\314B\217\326%}v\034\011\350E&k\300"
 301      B793CC42 
 301      8FD6257D 
 301      761C09E8 
 301      45266BC0 
 302 02ea 1CCB3B3B 		.ascii	"\034\313;;>n\346\261<\340(\226{\006\327:\353\222\202"
 302      3E6EE6B1 
 302      3CE02896 
 302      7B06D73A 
 302      EB9282
 303 02fd 267F2293 		.ascii	"&\177\"\223\277\240\214\312\0372\313\177\341\375\223"
 303      BFA08CCA 
 303      1F32CB7F 
 303      E1FD93
 304 030c D31E2664 		.ascii	"\323\036&d\234\372it\361\335\257>T(^\304\323~P,4vv\364"
 304      9CFA6974 
 304      F1DDAF3E 
 304      54285EC4 
 304      D37E502C 
 305 0324 7FC68D3C 		.ascii	"\177\306\215<\314\372\314P\23198j\253\214\356\203g]"
 305      CCFACC50 
 305      9939386A 
 305      AB8CEE83 
 305      675D
 306 0336 0501BD91 		.ascii	"\005\001\275\221S\277\244.\013v\016\334\276e\007!K|"
 306      53BFA42E 
 306      0B760EDC 
 306      BE650721 
 306      4B7C
 307 0348 9A0E475D 		.ascii	"\232\016G]#\006\014L<\375*\033\004T\260\1778\001\263"
 307      23060C4C 
 307      3CFD2A1B 
 307      0454B07F 
 307      3801B3
 308 035b 8DA4E6CC 		.ascii	"\215\244\346\3143z\260c\256\301\214\232=\253\007{\337"
 308      337AB063 
 308      AEC18C9A 
 308      3DAB077B 
 308      DF
ARM GAS  /tmp/ccePHWXl.s 			page 24


 309 036c 09D8387B 		.ascii	"\011\3308{\315v\353\301N\270\0063j\266G\017v\322\011"
 309      CD76EBC1 
 309      4EB80633 
 309      6AB6470F 
 309      76D209
 310 037f D8787BCD 		.ascii	"\330x{\315\366\352\301>r\015f\324\354\025=\330)'`\001"
 310      F6EAC13E 
 310      720D66D4 
 310      EC153DD8 
 310      29276001 
 311 0393 0BCD7297 		.ascii	"\013\315r\227U;\032\326/\343\\\234\013\350\3632mHp\031"
 311      553B1AD6 
 311      2FE35C9C 
 311      0BE8F332 
 311      6D487019 
 312 03a7 D3288F71 		.ascii	"\323(\217q\266\314\355\020f\260\033\346\322\017\272"
 312      B6CCED10 
 312      66B01BE6 
 312      D20FBA
 313 03b6 F0EA0564 		.ascii	"\360\352\005d`\2226\237}\343\004\261H\300\254\353\327"
 313      6092369F 
 313      7DE304B1 
 313      48C0ACEB 
 313      D7
 314 03c7 4D8E8BBC 		.ascii	"M\216\213\274n\301L\241L\301\014c\015\237\220\2067g"
 314      6EC14CA1 
 314      4CC10C63 
 314      0D9F9086 
 314      3767
 315 03d9 C63F9C1F 		.ascii	"\306?\234\037\355*4,\272\200T\2076X\360\011\271\312"
 315      ED2A342C 
 315      BA805487 
 315      3658F009 
 315      B9CA
 316 03eb 64FC78EB 		.ascii	"d\374x\353\272\"\376\004_\011\371\247\330\237\323B-"
 316      BA22FE04 
 316      5F09F9A7 
 316      D89FD342 
 316      2D
 317 03fc 6BA52CDB 		.ascii	"k\245,\333_<\3505-M\265k\264\246v\221\360\221>\022Z"
 317      5F3CE835 
 317      2D4DB56B 
 317      B4A67691 
 317      F0913E12 
 318 0411 9DD054A4 		.ascii	"\235\320T\244+\034\353_\177\011\031\316`\235\275E\311"
 318      2B1CEB5F 
 318      7F0919CE 
 318      609DBD45 
 318      C9
 319 0422 8135C48A 		.ascii	"\2015\304\212!m\015\3619\233\257\333\275\226\023\277"
 319      216D0DF1 
 319      399BAFDB 
 319      BD9613BF 
 320 0432 03A8DEB6 		.ascii	"\003\250\336\266\255?a\023\377\031\006\264\261d\240"
 320      AD3F6113 
 320      FF1906B4 
 320      B164A0
ARM GAS  /tmp/ccePHWXl.s 			page 25


 321 0441 91B51D53 		.ascii	"\221\265\035S\030\3209\006\364\244\327<I`\323\012\002"
 321      18D03906 
 321      F4A4D73C 
 321      4960D30A 
 321      02
 322 0452 1BE7F81C 		.ascii	"\033\347\370\034\367\234\372\357\252\256\200\2366\373"
 322      F79CFAEF 
 322      AAAE809E 
 322      36FB
 323 0460 CB60CEA8 		.ascii	"\313`\316\250\243\015,\304\277Y\205?o&\017Or\341\261"
 323      A30D2CC4 
 323      BF59853F 
 323      6F260F4F 
 323      72E1B1
 324 0473 432F6B1E 		.ascii	"C/k\036;\317\370\331S\300\317\031\227\004\301\312\321"
 324      3BCFF8D9 
 324      53C0CF19 
 324      9704C1CA 
 324      D1
 325 0484 B5215719 		.ascii	"\265!W\031\015Y\272\277\325\275!\271\320[ PC^\376?\030"
 325      0D59BABF 
 325      D5BD21B9 
 325      D05B2050 
 325      435EFE3F 
 326 0499 F2BA6B43 		.ascii	"\362\272kC&\351\014\241{\212\221Vu\034\274\010\265\026"
 326      26E90CA1 
 326      7B8A9156 
 326      751CBC08 
 326      B516
 327 04ab 5FCB517D 		.ascii	"_\313Q}\026\013\027\031w\203G\017\340\200\372\332\301"
 327      160B1719 
 327      7783470F 
 327      E080FADA 
 327      C1
 328 04bc 76F0806E 		.ascii	"v\360\200n\305O\034\255\370W\034\322([\312({\307\252"
 328      C54F1CAD 
 328      F8571CD2 
 328      285BCA28 
 328      7BC7AA
 329 04cf 933982EA 		.ascii	"\2239\202\352}c\1777_\361/gP\357\225\0145\362f\217\332"
 329      7D637F37 
 329      5FF12F67 
 329      50EF950C 
 329      35F2668F 
 330 04e4 5F5731A0 		.ascii	"_W1\240\017\013\334\3503y\321g\364\"<RI\377e\247a\367"
 330      0F0BDCE8 
 330      3379D167 
 330      F4223C52 
 330      49FF65A7 
 331 04fa F137F4A1 		.ascii	"\3617\364\241\034}\357\355`6f\352S\017\226\262\302\244"
 331      1C7DEFED 
 331      603666EA 
 331      530F96B2 
 331      C2A4
 332 050c 1174A255 		.ascii	"\021t\242U\233IU'}\371\255\020\2333;\227j\333\326Z:"
 332      9B495527 
 332      7DF9AD10 
ARM GAS  /tmp/ccePHWXl.s 			page 26


 332      9B333B97 
 332      6ADBD65A 
 333 0521 972EF07D 		.ascii	"\227.\360};\270\303\203\2567\232+^\327\302n\035\263"
 333      3BB8C383 
 333      AE379A2B 
 333      5ED7C26E 
 333      1DB3
 334 0533 E8019FD9 		.ascii	"\350\001\237\331\305\031sOu\262\357j+\325\222\334%\240"
 334      C519734F 
 334      75B2EF6A 
 334      2BD592DC 
 334      25A0
 335 0545 0D3E0753 		.ascii	"\015>\007Sf\240\210\273\006\317rw\215\272y\323\016f"
 335      66A088BB 
 335      06CF7277 
 335      8DBA79D3 
 335      0E66
 336 0557 FAFA9AF8 		.ascii	"\372\372\232\370\301L\247@O4\272Ll8\330\005>\305\232"
 336      C14CA740 
 336      4F34BA4C 
 336      6C38D805 
 336      3EC59A
 337 056a 6C120A4E 		.ascii	"l\022\012N4\206\264\023\015\372\315\301.\320p\242!\342"
 337      3486B413 
 337      0DFACDC1 
 337      2ED070A2 
 337      21E2
 338 057c 5E2C70DC 		.ascii	"^,p\334R\031581\257 \344\002]\037=.\\\241g?\343\232"
 338      52193538 
 338      31AF20E4 
 338      025D1F3D 
 338      2E5CA167 
 339 0593 FD809EFD 		.ascii	"\375\200\236\375\314W\203\353\261\252\277z\306u\300"
 339      CC5783EB 
 339      B1AABF7A 
 339      C675C0
 340 05a2 8C375DBF 		.ascii	"\2147]\277v\345\305\253l\275\231i=\310\026\235j\277"
 340      76E5C5AB 
 340      6CBD9969 
 340      3DC8169D 
 340      6ABF
 341 05b4 3BE244B9 		.ascii	";\342D\271Iv`\315\231\016\025L\015\371w\\\203\005\014"
 341      497660CD 
 341      990E154C 
 341      0DF9775C 
 341      83050C
 342 05c7 60CF2FB7 		.ascii	"`\317/\2678BS\017\016\355&\227\355\202ni\370\201\023"
 342      3842530F 
 342      0EED2697 
 342      ED826E69 
 342      F88113
 343 05da F953EC8D 		.ascii	"\371S\354\2159rp=\217\024\365\254\350\224k<\243=\247"
 343      3972703D 
 343      8F14F5AC 
 343      E8946B3C 
 343      A33DA7
 344 05ed 971B06A5 		.ascii	"\227\033\006\245\257\234\300Mw\034x\371\263>\021\367"
ARM GAS  /tmp/ccePHWXl.s 			page 27


 344      AF9CC04D 
 344      771C78F9 
 344      B33E11F7 
 345 05fd B085F9B3 		.ascii	"\260\205\371\263\370\012\310w\263|\017\313\373Y\376"
 345      F80AC877 
 345      B37C0FCB 
 345      FB59FE
 346 060c 6F967FC8 		.ascii	"o\226\177\310\362\377\260\3743\226\177\303\362f\201"
 346      F2FFB0FC 
 346      33967FC3 
 346      F26681
 347 061b E6F7B3FC 		.ascii	"\346\367\263\374Q\226?\301\362'Y\3767\226ocy7\313w\352"
 347      51963FC1 
 347      F22759FE 
 347      37966F63 
 347      7937CB77 
 348 0630 C3DBCE2F 		.ascii	"\303\333\316/jW\313uL\255\327m-\371\034\361\215\374"
 348      6A57CB75 
 348      4CADD76D 
 348      2DF91CF1 
 348      8DFC
 349 0642 39A2889F 		.ascii	"9\242\210\237s\015\026(\306\344V\035\223\333\031\223"
 349      730D1628 
 349      C6E4561D 
 349      93DB1993 
 350 0652 4F316676 		.ascii	"O1fv\031;\362\202r\355p\273H\307\2637a\370\261c\272"
 350      193BF282 
 350      72ED70BB 
 350      48C7B337 
 350      61F8B163 
 351 0667 DDDE5233 		.ascii	"\335\336R3\330\250\233Q#\037\347%:yv1\254\325\256\261"
 351      D8A89B51 
 351      231FE725 
 351      3A797631 
 351      ACD5AEB1 
 352 067b 8AD2F1B8 		.ascii	"\212\322\361\270\216\216'\030\035[\030\035=\314\375"
 352      8E8E2718 
 352      1D5B181D 
 352      3DCCFD
 353 068a BD4EDCDF 		.ascii	"\275N\334\337\225\337\261\2718\025\375r\370g\333\331"
 353      95DFB1B9 
 353      3815FD72 
 353      F867DBD9 
 354 069a F9DA736C 		.ascii	"\371\332sl8\031*7\317\240^\323\004\3525N\240^\177\276"
 354      38192A37 
 354      CFA05ED3 
 354      04EA354E 
 354      A05E7FBE 
 355 06ae C02750CB 		.ascii	"\300'P\313\243\277\305\307\363\233M\222;\373\013\344"
 355      A3BFC5C7 
 355      F39B4D92 
 355      3BFB0BE4 
 356 06be 35397AFE 		.ascii	"59z\376d?\237\314_`\323\327\222\012\353\003y{$\001\255"
 356      643F9FCC 
 356      5F60D3D7 
 356      920AEB03 
 356      797B2401 
ARM GAS  /tmp/ccePHWXl.s 			page 28


 357 06d3 656DF699 		.ascii	"em\366\231\346\257\314\341\226j\372\223\313>Gs\327k"
 357      E6AFCCE1 
 357      966AFA93 
 357      CB3E4773 
 357      D76B
 358 06e5 7DEB0B47 		.ascii	"}\353\013G\304\213\321\032\276\352$Xac\213\235\033\372"
 358      C48BD11A 
 358      BEEA2458 
 358      61638B9D 
 358      1BFA
 359 06f7 858B59C9 		.ascii	"\205\213Y\311\303~\365C*\261\"\276\313S\324\201\234"
 359      C37EF543 
 359      2AB122BE 
 359      CB53D481 
 359      9C
 360 0708 84B59BCE 		.ascii	"\204\265\233\316\265\361\325o\237@\303\354\035\023\011"
 360      B5F1D56F 
 360      9F40C3EC 
 360      1D1309
 361 0717 A6619A0A 		.ascii	"\246a\232\012\263SdP\250\262\261\265\340\233\200N\346"
 361      B3536450 
 361      A8B2B1B5 
 361      E09B804E 
 361      E6
 362 0728 882B6D75 		.ascii	"\210+muy\364\374[\227\365>MH\367=|\177\222\361\351\375"
 362      79F4FC5B 
 362      97F53E4D 
 362      48F73D7C 
 362      7F92F1E9 
 363 073d 64E8B5B0 		.ascii	"d\350\265\260\226e\322\016\2327)k\372<\001\365\365\350"
 363      9665D20E 
 363      9A37296B 
 363      FA3C01F5 
 363      F5E8
 364 074f 5E5ADBB2 		.ascii	"^Z\333\262\3422\322\271l<\017\365L\013Y\214\233\272"
 364      E232D2B9 
 364      6C3C0FF5 
 364      4C0B598C 
 364      9BBA
 365 0761 27584BCC 		.ascii	"'XK\314\235\363\036\332\310\331}\225E{\326\304\256\033"
 365      9DF31EDA 
 365      C8D97D95 
 365      457BD6C4 
 365      AE1B
 366 0773 B0DEB643 		.ascii	"\260\336\266C\332O\023G\324\305\247\277d\260\316\221"
 366      DA4F1347 
 366      D4C5A7BF 
 366      64B0CE91 
 367 0783 3727D000 		.ascii	"7'\320\000}\213\001\255\366\233\373\240\337\324\007"
 367      7D8B01AD 
 367      F69BFBA0 
 367      DFD407
 368 0792 FDC63EE8 		.ascii	"\375\306>\350\367\347\013Y\3552\037\032|\207m\004\324"
 368      F7E70B59 
 368      ED321F1A 
 368      7C876D04 
 368      D4
ARM GAS  /tmp/ccePHWXl.s 			page 29


 369 07a3 E1D71C5A 		.ascii	"\341\327\034Z\3120M\303\347\225K\241\203\345\027\273"
 369      CA304DC3 
 369      E7954BA1 
 369      83E517BB 
 370 07b3 B63F1E52 		.ascii	"\266?\036R\265\3365\367\357\366>\272\273}\327A\367&"
 370      B5DE35F7 
 370      EFF63EBA 
 370      BB7DD741 
 370      F726
 371 07c5 99EEBE41 		.ascii	"\231\356\276ALZ\253\035m\243\207"
 371      4C5AAB1D 
 371      6DA387
 372 07d0 CD11FA48 		.ascii	"\315\021\372H\237\020P_\217\036\241\033\254~\2344\220"
 372      9F10505F 
 372      8F1EA11B 
 372      AC7E9C34 
 372      90
 373 07e1 5420EFB8 		.ascii	"T \357\270~e\365\030\343t\270\344\375T\207:{\357e\343"
 373      7E65F518 
 373      E374B8E4 
 373      FD54873A 
 373      7BEF65E3 
 374 07f5 C89652C1 		.ascii	"\310\226R\301r\227\200\2661\214wK\034#`\277\330\247"
 374      729780B6 
 374      318C774B 
 374      1C2360BF 
 374      D8A7
 375 0807 2DF5D4B9 		.ascii	"-\365\324\271\346)\327x\201\002\235v\225\032x:\214\036"
 375      E629D778 
 375      81029D76 
 375      951A783A 
 375      8C1E
 376 0819 BF69ECB3 		.ascii	"\277i\354\263\302\260\377\231-\363\366\255\224g\365"
 376      C2B0FF99 
 376      2DF3F6AD 
 376      9467F5
 377 0828 F7FCBD66 		.ascii	"\367\374\275f,\343\217\365\272\242\263\005\347>\335"
 377      2CE38FF5 
 377      BAA2B305 
 377      E73EDD
 378 0837 4E673FDB 		.ascii	"Ng?\333\351\274\304V\004C,\377\310\311\272`o>\250L\241"
 378      E9BCC456 
 378      04432CFF 
 378      C8C9BA60 
 378      6F3EA84C 
 379 084c 48DD60D7 		.ascii	"H\335`\327\352\223|\253\313Q\007\351\034\036n\337v\372"
 379      EA937CAB 
 379      CB5107E9 
 379      1C1E6EDF 
 379      76FA
 380 085e B236D890 		.ascii	"\2626\330\220\222St\2267M\2106?\260Q\244S|B\314\317"
 380      92537496 
 380      374D8836 
 380      3FB051A4 
 380      537C42CC 
 381 0873 81021A31 		.ascii	"\201\002\0321\015q\010\375\030m\246x\344\011\342ah\354"
 381      0D7108FD 
ARM GAS  /tmp/ccePHWXl.s 			page 30


 381      186DA678 
 381      E409E261 
 381      68EC
 382 0885 E45A30FC 		.ascii	"\344Z0\374G\204\210O\013\202\376\005Ul\230N\232G'\264"
 382      4784884F 
 382      0B82FE05 
 382      556C984E 
 382      9A4727B4 
 383 0899 EF200B97 		.ascii	"\357 \013\227\220\363\331\373\260:)\012\210T\232E\250"
 383      90F3D9FB 
 383      B03A290A 
 383      88549A45 
 383      A8
 384 08aa 185F1462 		.ascii	"\030_\024b0\343\336\373a)\306\2351\317\366\224\355\334"
 384      30E3DEFB 
 384      6129C69D 
 384      31CFF694 
 384      EDDC
 385 08bc 83FAABA1 		.ascii	"\203\372\253\241a%` \202q\261\314\244\350D\264\211\220"
 385      61256020 
 385      8271B1CC 
 385      A4E844B4 
 385      8990
 386 08ce 56B2419A 		.ascii	"V\262A\232\251u\336\015\254\306\010\260a\245\006\367"
 386      A975DE0D 
 386      ACC608B0 
 386      61A506F7 
 387 08de 306FF626 		.ascii	"0o\366&m\306\266>\233FiU\233o\224\245\215\324u\312\207"
 387      6DC6B63E 
 387      9B466955 
 387      9B6F94A5 
 387      8DD475CA 
 388 08f3 8250B415 		.ascii	"\202P\264\025\267\201\273\353A\262h\034\316\371k\304"
 388      B781BBEB 
 388      41B2681C 
 388      CEF96BC4 
 389 0903 ECAF2FAD 		.ascii	"\354\257/\255\270\316<w\200\216\300\344\353l\326cf\272"
 389      B8CE3C77 
 389      808EC0E4 
 389      EB6CD663 
 389      66BA
 390 0915 C8BAAAD9 		.ascii	"\310\272\252\331S\214ikj\377jM\355\032\215Z\021\177"
 390      538C696B 
 390      6AFF6A4D 
 390      ED1A8D5A 
 390      117F
 391 0927 CDCC6DF2 		.ascii	"\315\314m\3628\241\366\260\231%\373fz\226\232\311\366"
 391      38A1F6B0 
 391      9925FB66 
 391      7A969AC9 
 391      F6
 392 0938 9645E3CA 		.ascii	"\226E\343\312x4\330\267\342v.\362Xq\326\263\334\226"
 392      7834D8B7 
 392      E2762EF2 
 392      5871D6B3 
 392      DC96
 393 094a B322D1F9 		.ascii	"\263\"\321\371\200\2313\366\263\265\201\242\235\326"
ARM GAS  /tmp/ccePHWXl.s 			page 31


 393      809933F6 
 393      B3B581A2 
 393      9DD6
 394 0958 141DABD7 		.ascii	"\024\035\253\327\302h/\253\260\304\326T5\306-\343\201"
 394      C2682FAB 
 394      B0C4D654 
 394      35C62DE3 
 394      81
 395 0969 3632C4C3 		.ascii	"62\304\3032K\333\262+\226\301\274\320\234\311fk\315"
 395      324BDBB2 
 395      2B96C1BC 
 395      D09CC966 
 395      6BCD
 396 097b B6151BA1 		.ascii	"\266\025\033\241V\025\015\010>~\231\254\315X[\333n\016"
 396      56150D08 
 396      3E7E99AC 
 396      CD585BDB 
 396      6E0E
 397 098d 88958E02 		.ascii	"\210\225\216\002\202\365\265OX\027\035b\300\366\315"
 397      82F5B54F 
 397      58171D62 
 397      C0F6CD
 398 099c B83A3C20 		.ascii	"\270:< \272\377\365\233\231Z\220\330\267\342v>TH\032"
 398      BAFFF59B 
 398      995A90D8 
 398      B7E2763E 
 398      54481A
 399 09af 0C7A0BCF 		.ascii	"\014z\013\317\014\340\305\256\003b\235\231\263.\\\020"
 399      0CE0C5AE 
 399      03629D99 
 399      B32E5C10 
 400 09bf 11AFD90C 		.ascii	"\021\257\331\014\234\353\255\364\310\354\356_F\360\312"
 400      9CEBADF4 
 400      C8ECEE5F 
 400      46F0CA
 401 09ce A6E16CF6 		.ascii	"\246\341l\366r\025^@\307m\000:,\001v\024\002|j\003\320"
 401      72155E40 
 401      C76D003A 
 401      2C017614 
 401      027C6A03 
 402 09e3 6904F811 		.ascii	"i\004\370\021\352\"\231W`\350>7~\033,\304\273\201\202"
 402      EA229957 
 402      60E83E37 
 402      7E1B2CC4 
 402      BB8182
 403 09f6 2CCED66A 		.ascii	",\316\326j\373\307s9\024\313\315\"\005\334\230\0074"
 403      FBC77339 
 403      14CBCD22 
 403      05DC9807 
 403      34
 404 0a07 4D8D5411 		.ascii	"M\215T\021;\0227y\362\377\014rCM8\021\223jB\211\372"
 404      3B123779 
 404      F2FF0C72 
 404      434D3811 
 404      936A4289 
 405 0a1c F935F5D2 		.ascii	"\3715\365\322\334\232P8R\027I\244j\0249\035\237S\003"
 405      DC9A5038 
ARM GAS  /tmp/ccePHWXl.s 			page 32


 405      521749A4 
 405      6A14391D 
 405      9F5303
 406 0a2f 0559A989 		.ascii	"\005Y\251\211\304C\321t=T\012\307\224\306k\303\250<"
 406      C443D174 
 406      3D540AC7 
 406      94C66BC3 
 406      A83C
 407 0a41 9656A4C6 		.ascii	"\226V\244\306\240\342\273\355\316\273\0023\220\227="
 407      A0E2BBED 
 407      CEBB0233 
 407      90973D
 408 0a50 4E710594 		.ascii	"Nq\005\224\232\237R\346'\245\024\240\215U\302\262$\326"
 408      9A9F52E6 
 408      27A514A0 
 408      8D55C2B2 
 408      24D6
 409 0a62 A7827F4C 		.ascii	"\247\202\177LKi)\250\214\013\205\203\206W\223\335!\207"
 409      4B6929A8 
 409      8C0B8583 
 409      865793DD 
 409      2187
 410 0a74 C2F5805A 		.ascii	"\302\365\200Z\241B\004\025\177\016\316\227\014\306\245"
 410      A1420415 
 410      7F0ECE97 
 410      0CC6A5
 411 0a83 46056E49 		.ascii	"F\005nIY\232;\323\001j2!+\251\232[~;k\306\254F\250\031"
 411      599A3BD3 
 411      016A3221 
 411      2BA99A5B 
 411      7E3B6BC6 
 412 0a9b 4B46A292 		.ascii	"KF\242\222\234\252\271m\306\014\250\256\351_\256$\345"
 412      9CAAB96D 
 412      C60CA8AE 
 412      E95FAE24 
 412      E5
 413 0aac 4822A84C 		.ascii	"H\"\250L\254I\247\344\032Q\216]\023O\304\245k$\261."
 413      AC49A7E4 
 413      1A518E5D 
 413      134FC4A5 
 413      6B24B12E 
 414 0ac0 92532BA5 		.ascii	"\222S+\245\324G\342\012U+\015\367\033\256\017*\223\213"
 414      D447E20A 
 414      552B0DF7 
 414      1BAE0F2A 
 414      938B
 415 0ad2 D48E89A0 		.ascii	"\324\216\211\240L\\\252\011\326K\263\305tT\011j\242"
 415      4C5CAA09 
 415      D64BB3C5 
 415      7454096A 
 415      A2
 416 0ae3 2A8341AD 		.ascii	"*\203A\255=\263\"\222(\017%\342@\276r\263kk\302\241"
 416      3DB32292 
 416      280F25E2 
 416      40BE72B3 
 416      6B6BC2A1 
 417 0af7 842C0166 		.ascii	"\204,\001f\025}\035\004\324\220\322\370\363\322P\202"
ARM GAS  /tmp/ccePHWXl.s 			page 33


 417      157D1D04 
 417      D490D2F8 
 417      F3D25082 
 418 0b07 736F8A51 		.ascii	"so\212Q\333d\251\001\014\012*\202<Y\220\177*\3107\012"
 418      DB64A901 
 418      0C0A2A82 
 418      3C59907F 
 418      2AC8370A 
 419 0b1b F24D823C 		.ascii	"\362M\202<E\220o\366\310\327M\202t\235\020\225\341v"
 419      45906FF6 
 419      C8D74D82 
 419      749D1095 
 419      E176
 420 0b2d 83371904 		.ascii	"\2037\031\004i\345\324\037\363$\031\356\211h\275$\227"
 420      69E5D41F 
 420      F32419EE 
 420      8968BD24 
 420      97
 421 0b3e 85C2A24C 		.ascii	"\205\302\242L\235$\306\244\012%\245\210\012DC95x\012"
 421      9D24C6A4 
 421      0A25A588 
 421      0A444339 
 421      35780A
 422 0b51 B851351D 		.ascii	"\270Q5\035JP\235}+Wb\211z\211=\317\216\212\015\251r"
 422      4A509D7D 
 422      2B576289 
 422      7A893DCF 
 422      8E8A0DA9 
 423 0b66 459666A7 		.ascii	"E\226f\247\0303\264\340\215\245\032\340#\247\013\232"
 423      1833B4E0 
 423      8DA51AE0 
 423      23A70B9A 
 424 0b76 6BC4C9F5 		.ascii	"k\304\311\365\363\341S\205\324\030Q\300P\3117OI\324"
 424      F3E15385 
 424      D41851C0 
 424      50C9374F 
 424      49D4
 425 0b88 DD9BAC92 		.ascii	"\335\233\254\222\346Jq%&\246\346@\025i\036-x\222\301"
 425      E64A7125 
 425      26A6E640 
 425      15691E2D 
 425      7892C1
 426 0b9b F4182D12 		.ascii	"\364\030-\022\243\221\024\370a\254.6\351\033\17728O"
 426      A39114F8 
 426      61AC2E36 
 426      E91B7F32 
 426      384F
 427 0bad 8C289178 		.ascii	"\214(\221xCe2\010\250,^\275\254\010/\244\244\024\007"
 427      43653208 
 427      A82C5EBD 
 427      AC082FA4 
 427      A41407
 428 0bc0 BF37402D 		.ascii	"\2777@-\3508\264~%\325M\2142\317\301\313d\"\021-\217"
 428      E838B47E 
 428      25D54D8C 
 428      32CFC1CB 
 428      6422112D 
ARM GAS  /tmp/ccePHWXl.s 			page 34


 429 0bd5 A9510EF7 		.ascii	"\251Q\016\367\304\274\270$\373b,J\257g\361\021\215\324"
 429      C4BCB824 
 429      FB622C4A 
 429      AF67F111 
 429      8DD4
 430 0be7 D5348442 		.ascii	"\3254\204B\2468\231|\355\224k'\353c\013\342\004\370"
 430      A638997C 
 430      ED946B27 
 430      EB630BE2 
 430      04F8
 431 0bf9 F7A5227F 		.ascii	"\367\245\"\177\222hd\271\351.aILB\333\013bR,!\317\017"
 431      926864B9 
 431      E92E6149 
 431      4C42DB0B 
 431      62522C21 
 432 0c0f D2C7A052 		.ascii	"\322\307\240R\245{\272\311\335\000!\305x\\UC\261ARf"
 432      A57BBAC9 
 432      DD0021C5 
 432      785C5543 
 432      B1415266 
 433 0c23 A7E3A1A0 		.ascii	"\247\343\241\240R\031\206hM\314\215\200\227\253\230"
 433      52198668 
 433      4DCC8D80 
 433      97AB98
 434 0c32 08C8A05C 		.ascii	"\010\310\240\\\231R\346\210\321HC<\250\260\216q\343"
 434      9952E688 
 434      D148433C 
 434      A8B08E71 
 434      E3
 435 0c43 64A8AA3A 		.ascii	"d\250\252:\232\026\275\354[\031\245\243\214\266\302"
 435      9A16BDEC 
 435      5B19A5A3 
 435      8CB6C2
 436 0c52 E9326A22 		.ascii	"\3512j\"\016\373\302\301\331\262$y\303\224\327I\016"
 436      0EFBC2C1 
 436      D9B22479 
 436      C394D749 
 436      0E
 437 0c63 144CC921 		.ascii	"\024L\311!\315\326\020\364\"\246B$\036Q\252B\341\031"
 437      CDD610F4 
 437      22A64224 
 437      1E51AA42 
 437      E119
 438 0c75 A0EE2DD1 		.ascii	"\240\356-\321h\"\004\343\316Lx\377\353\272{\245\220"
 438      682204E3 
 438      CE4C78FF 
 438      EBBA7BA5 
 438      90
 439 0c86 723B7CF4 		.ascii	"r;|\364\322jIO]zv\225\372\211U\253T\313\267\202|\234"
 439      D26A494F 
 439      5D7A7695 
 439      FA8955AB 
 439      54CBB782 
 440 0c9c AC561F7E 		.ascii	"\254V\037~\007\361\230Ny\251rI\010\221YJc\036\245\212"
 440      07F1984E 
 440      79A97249 
 440      0891594A 
ARM GAS  /tmp/ccePHWXl.s 			page 35


 440      631EA58A 
 441 0cb0 3DDF1587 		.ascii	"=\337\025\207\246s\374\254\374+(Uk]\233\312\370\037"
 441      A673FCAC 
 441      FC2B2855 
 441      6B5D9BCA 
 441      F81F
 442 0cc2 4502918A 		.ascii	"E\002\221\212"
 443              		.text
 444              		.section	.gnu.lto_.symtab.34a6f77a1d2a5bd4,"",%progbits
 445 0000 5F686561 		.ascii	"_heap_init\000\000\000\000\000\000\000\000\000\000\000"
 445      705F696E 
 445      69740000 
 445      00000000 
 445      00000000 
 446 0015 006F0100 		.ascii	"\000o\001\000\000chHeapObjectInit\000\000\000\000\000"
 446      00636848 
 446      6561704F 
 446      626A6563 
 446      74496E69 
 447 002f 00000000 		.ascii	"\000\000\000\000\000\000\000u\001\000\000chHeapAllo"
 447      00000075 
 447      01000063 
 447      68486561 
 447      70416C6C 
 448 0044 63000000 		.ascii	"c\000\000\000\000\000\000\000\000\000\000\000\000\201"
 448      00000000 
 448      00000000 
 448      0081
 449 0052 01000063 		.ascii	"\001\000\000chHeapFree\000\000\000\000\000\000\000\000"
 449      68486561 
 449      70467265 
 449      65000000 
 449      00000000 
 450 0067 00000000 		.ascii	"\000\000\000\000\211\001\000\000chHeapStatus\000\000"
 450      89010000 
 450      63684865 
 450      61705374 
 450      61747573 
 451 007d 00000000 		.ascii	"\000\000\000\000\000\000\000\000\000\000\220\001\000"
 451      00000000 
 451      00009001 
 451      00
 452 008a 00636843 		.ascii	"\000chCoreAlloc\000\000\002\000\000\000\000\000\000"
 452      6F726541 
 452      6C6C6F63 
 452      00000200 
 452      00000000 
 453 009f 00000073 		.ascii	"\000\000\000s\001\000\000chMtxObjectInit\000\000\002"
 453      01000063 
 453      684D7478 
 453      4F626A65 
 453      6374496E 
 454 00b8 00000000 		.ascii	"\000\000\000\000\000\000\000\000\000\231\001\000\000"
 454      00000000 
 454      00990100 
 454      00
 455 00c5 63684D74 		.ascii	"chMtxUnlock\000\000\002\000\000\000\000\000\000\000"
ARM GAS  /tmp/ccePHWXl.s 			page 36


 455      78556E6C 
 455      6F636B00 
 455      00020000 
 455      00000000 
 456 00da 00009D01 		.ascii	"\000\000\235\001\000\000chMtxLock\000\000\002\000\000"
 456      00006368 
 456      4D74784C 
 456      6F636B00 
 456      00020000 
 457 00ee 00000000 		.ascii	"\000\000\000\000\000\000\000\237\001\000\000"
 457      0000009F 
 457      010000
 458              		.text
 459              		.section	.gnu.lto_.opts,"",%progbits
 460 0000 272D6D63 		.ascii	"'-mcpu=cortex-m3' '-mno-thumb-interwork' '-mthumb' "
 460      70753D63 
 460      6F727465 
 460      782D6D33 
 460      2720272D 
 461 0033 272D4F32 		.ascii	"'-O2' '-fomit-frame-pointer' '-falign-functions=16'"
 461      2720272D 
 461      666F6D69 
 461      742D6672 
 461      616D652D 
 462 0066 20272D66 		.ascii	" '-ffunction-sections' '-fdata-sections' '-fno-comm"
 462      66756E63 
 462      74696F6E 
 462      2D736563 
 462      74696F6E 
 463 0099 6F6E2720 		.ascii	"on' '-flto'\000"
 463      272D666C 
 463      746F2700 
 464              		.text
 465              		.section	.text._heap_init,"ax",%progbits
 466              		.align	2
 467              		.p2align 4,,15
 468              		.global	_heap_init
 469              		.thumb
 470              		.thumb_func
 471              		.type	_heap_init, %function
 472              	_heap_init:
 473              		@ args = 0, pretend = 0, frame = 0
 474              		@ frame_needed = 0, uses_anonymous_args = 0
 475              		@ link register save eliminated.
 476 0000 044B     		ldr	r3, .L2
 477 0002 0549     		ldr	r1, .L2+4
 478 0004 0022     		movs	r2, #0
 479 0006 03F11000 		add	r0, r3, #16
 480 000a 1960     		str	r1, [r3]
 481 000c 9A60     		str	r2, [r3, #8]
 482 000e DA60     		str	r2, [r3, #12]
 483 0010 FFF7FEBF 		b	chMtxObjectInit
 484              	.L3:
 485              		.align	2
 486              	.L2:
 487 0014 00000000 		.word	.LANCHOR0
 488 0018 00000000 		.word	chCoreAlloc
ARM GAS  /tmp/ccePHWXl.s 			page 37


 489              		.size	_heap_init, .-_heap_init
 490 001c AFF30080 		.section	.text.chHeapObjectInit,"ax",%progbits
 491              		.align	2
 492              		.p2align 4,,15
 493              		.global	chHeapObjectInit
 494              		.thumb
 495              		.thumb_func
 496              		.type	chHeapObjectInit, %function
 497              	chHeapObjectInit:
 498              		@ args = 0, pretend = 0, frame = 0
 499              		@ frame_needed = 0, uses_anonymous_args = 0
 500              		@ link register save eliminated.
 501 0000 0023     		movs	r3, #0
 502 0002 083A     		subs	r2, r2, #8
 503 0004 8160     		str	r1, [r0, #8]
 504 0006 0360     		str	r3, [r0]
 505 0008 C360     		str	r3, [r0, #12]
 506 000a 1030     		adds	r0, r0, #16
 507 000c 4A60     		str	r2, [r1, #4]
 508 000e 0B60     		str	r3, [r1]
 509 0010 FFF7FEBF 		b	chMtxObjectInit
 510              		.size	chHeapObjectInit, .-chHeapObjectInit
 511 0014 AFF30080 		.section	.text.chHeapAlloc,"ax",%progbits
 511      AFF30080 
 511      AFF30080 
 512              		.align	2
 513              		.p2align 4,,15
 514              		.global	chHeapAlloc
 515              		.thumb
 516              		.thumb_func
 517              		.type	chHeapAlloc, %function
 518              	chHeapAlloc:
 519              		@ args = 0, pretend = 0, frame = 0
 520              		@ frame_needed = 0, uses_anonymous_args = 0
 521 0000 F8B5     		push	{r3, r4, r5, r6, r7, lr}
 522 0002 214E     		ldr	r6, .L21
 523 0004 0731     		adds	r1, r1, #7
 524 0006 0028     		cmp	r0, #0
 525 0008 18BF     		it	ne
 526 000a 0646     		movne	r6, r0
 527 000c 06F11007 		add	r7, r6, #16
 528 0010 3846     		mov	r0, r7
 529 0012 21F00705 		bic	r5, r1, #7
 530 0016 06F10804 		add	r4, r6, #8
 531 001a FFF7FEFF 		bl	chMtxLock
 532 001e 03E0     		b	.L7
 533              	.L12:
 534 0020 5A68     		ldr	r2, [r3, #4]
 535 0022 9542     		cmp	r5, r2
 536 0024 12D9     		bls	.L20
 537 0026 1C46     		mov	r4, r3
 538              	.L7:
 539 0028 2368     		ldr	r3, [r4]
 540 002a 002B     		cmp	r3, #0
 541 002c F8D1     		bne	.L12
 542 002e 3846     		mov	r0, r7
 543 0030 FFF7FEFF 		bl	chMtxUnlock
ARM GAS  /tmp/ccePHWXl.s 			page 38


 544 0034 3368     		ldr	r3, [r6]
 545 0036 23B3     		cbz	r3, .L14
 546 0038 05F10800 		add	r0, r5, #8
 547 003c 9847     		blx	r3
 548 003e 00B3     		cbz	r0, .L14
 549 0040 0660     		str	r6, [r0]
 550 0042 4560     		str	r5, [r0, #4]
 551 0044 00F10804 		add	r4, r0, #8
 552              	.L11:
 553 0048 2046     		mov	r0, r4
 554 004a F8BD     		pop	{r3, r4, r5, r6, r7, pc}
 555              	.L20:
 556 004c 05F10801 		add	r1, r5, #8
 557 0050 9142     		cmp	r1, r2
 558 0052 09D9     		bls	.L9
 559 0054 1A68     		ldr	r2, [r3]
 560 0056 2260     		str	r2, [r4]
 561              	.L10:
 562 0058 1C46     		mov	r4, r3
 563 005a 44F8086B 		str	r6, [r4], #8
 564 005e 3846     		mov	r0, r7
 565 0060 FFF7FEFF 		bl	chMtxUnlock
 566 0064 2046     		mov	r0, r4
 567 0066 F8BD     		pop	{r3, r4, r5, r6, r7, pc}
 568              	.L9:
 569 0068 6FF0070E 		mvn	lr, #7
 570 006c 1868     		ldr	r0, [r3]
 571 006e C5EB0E0E 		rsb	lr, r5, lr
 572 0072 9644     		add	lr, lr, r2
 573 0074 5A18     		adds	r2, r3, r1
 574 0076 5850     		str	r0, [r3, r1]
 575 0078 C2F804E0 		str	lr, [r2, #4]
 576 007c 2260     		str	r2, [r4]
 577 007e 5D60     		str	r5, [r3, #4]
 578 0080 EAE7     		b	.L10
 579              	.L14:
 580 0082 0024     		movs	r4, #0
 581 0084 E0E7     		b	.L11
 582              	.L22:
 583 0086 00BF     		.align	2
 584              	.L21:
 585 0088 00000000 		.word	.LANCHOR0
 586              		.size	chHeapAlloc, .-chHeapAlloc
 587 008c AFF30080 		.section	.text.chHeapFree,"ax",%progbits
 588              		.align	2
 589              		.p2align 4,,15
 590              		.global	chHeapFree
 591              		.thumb
 592              		.thumb_func
 593              		.type	chHeapFree, %function
 594              	chHeapFree:
 595              		@ args = 0, pretend = 0, frame = 0
 596              		@ frame_needed = 0, uses_anonymous_args = 0
 597 0000 F8B5     		push	{r3, r4, r5, r6, r7, lr}
 598 0002 50F8085C 		ldr	r5, [r0, #-8]
 599 0006 0646     		mov	r6, r0
 600 0008 05F11007 		add	r7, r5, #16
ARM GAS  /tmp/ccePHWXl.s 			page 39


 601 000c A0F10804 		sub	r4, r0, #8
 602 0010 0835     		adds	r5, r5, #8
 603 0012 3846     		mov	r0, r7
 604 0014 FFF7FEFF 		bl	chMtxLock
 605 0018 2B46     		mov	r3, r5
 606              	.L30:
 607 001a AB42     		cmp	r3, r5
 608 001c 04D0     		beq	.L24
 609              	.L35:
 610 001e A342     		cmp	r3, r4
 611 0020 02D3     		bcc	.L24
 612 0022 1B68     		ldr	r3, [r3]
 613 0024 AB42     		cmp	r3, r5
 614 0026 FAD1     		bne	.L35
 615              	.L24:
 616 0028 1A68     		ldr	r2, [r3]
 617 002a 1AB1     		cbz	r2, .L26
 618 002c 9442     		cmp	r4, r2
 619 002e 01D3     		bcc	.L26
 620 0030 1346     		mov	r3, r2
 621 0032 F2E7     		b	.L30
 622              	.L26:
 623 0034 56F8041C 		ldr	r1, [r6, #-4]
 624 0038 46F8082C 		str	r2, [r6, #-8]
 625 003c 1C60     		str	r4, [r3]
 626 003e 01F10802 		add	r2, r1, #8
 627 0042 56F8085C 		ldr	r5, [r6, #-8]
 628 0046 A018     		adds	r0, r4, r2
 629 0048 A842     		cmp	r0, r5
 630 004a 0AD0     		beq	.L36
 631 004c 5A68     		ldr	r2, [r3, #4]
 632 004e 02F10801 		add	r1, r2, #8
 633 0052 1944     		add	r1, r1, r3
 634 0054 8C42     		cmp	r4, r1
 635 0056 12D0     		beq	.L37
 636              	.L29:
 637 0058 3846     		mov	r0, r7
 638 005a BDE8F840 		pop	{r3, r4, r5, r6, r7, lr}
 639 005e FFF7FEBF 		b	chMtxUnlock
 640              	.L36:
 641 0062 4068     		ldr	r0, [r0, #4]
 642 0064 A258     		ldr	r2, [r4, r2]
 643 0066 0144     		add	r1, r1, r0
 644 0068 0831     		adds	r1, r1, #8
 645 006a 46F8041C 		str	r1, [r6, #-4]
 646 006e 46F8082C 		str	r2, [r6, #-8]
 647 0072 5A68     		ldr	r2, [r3, #4]
 648 0074 02F10801 		add	r1, r2, #8
 649 0078 1944     		add	r1, r1, r3
 650 007a 8C42     		cmp	r4, r1
 651 007c ECD1     		bne	.L29
 652              	.L37:
 653 007e 56F8040C 		ldr	r0, [r6, #-4]
 654 0082 56F8081C 		ldr	r1, [r6, #-8]
 655 0086 0244     		add	r2, r2, r0
 656 0088 0832     		adds	r2, r2, #8
 657 008a 83E80600 		stmia	r3, {r1, r2}
ARM GAS  /tmp/ccePHWXl.s 			page 40


 658 008e 3846     		mov	r0, r7
 659 0090 BDE8F840 		pop	{r3, r4, r5, r6, r7, lr}
 660 0094 FFF7FEBF 		b	chMtxUnlock
 661              		.size	chHeapFree, .-chHeapFree
 662 0098 AFF30080 		.section	.text.chHeapStatus,"ax",%progbits
 662      AFF30080 
 663              		.align	2
 664              		.p2align 4,,15
 665              		.global	chHeapStatus
 666              		.thumb
 667              		.thumb_func
 668              		.type	chHeapStatus, %function
 669              	chHeapStatus:
 670              		@ args = 0, pretend = 0, frame = 0
 671              		@ frame_needed = 0, uses_anonymous_args = 0
 672 0000 F8B5     		push	{r3, r4, r5, r6, r7, lr}
 673 0002 0E4C     		ldr	r4, .L51
 674 0004 0F46     		mov	r7, r1
 675 0006 0028     		cmp	r0, #0
 676 0008 18BF     		it	ne
 677 000a 0446     		movne	r4, r0
 678 000c 04F11006 		add	r6, r4, #16
 679 0010 3046     		mov	r0, r6
 680 0012 FFF7FEFF 		bl	chMtxLock
 681 0016 A368     		ldr	r3, [r4, #8]
 682 0018 6BB1     		cbz	r3, .L44
 683 001a 0022     		movs	r2, #0
 684 001c 1446     		mov	r4, r2
 685              	.L41:
 686 001e 28CB     		ldmia	r3, {r3, r5}
 687 0020 0134     		adds	r4, r4, #1
 688 0022 2A44     		add	r2, r2, r5
 689 0024 002B     		cmp	r3, #0
 690 0026 FAD1     		bne	.L41
 691              	.L40:
 692 0028 07B1     		cbz	r7, .L42
 693 002a 3A60     		str	r2, [r7]
 694              	.L42:
 695 002c 3046     		mov	r0, r6
 696 002e FFF7FEFF 		bl	chMtxUnlock
 697 0032 2046     		mov	r0, r4
 698 0034 F8BD     		pop	{r3, r4, r5, r6, r7, pc}
 699              	.L44:
 700 0036 1A46     		mov	r2, r3
 701 0038 1C46     		mov	r4, r3
 702 003a F5E7     		b	.L40
 703              	.L52:
 704              		.align	2
 705              	.L51:
 706 003c 00000000 		.word	.LANCHOR0
 707              		.size	chHeapStatus, .-chHeapStatus
 708              		.section	.bss.default_heap,"aw",%nobits
 709              		.align	3
 710              		.set	.LANCHOR0,. + 0
 711              		.type	default_heap, %object
 712              		.size	default_heap, 32
 713              	default_heap:
ARM GAS  /tmp/ccePHWXl.s 			page 41


 714 0000 00000000 		.space	32
 714      00000000 
 714      00000000 
 714      00000000 
 714      00000000 
 715              		.comm	__gnu_lto_v1,1,1
 716              		.ident	"GCC: (GNU Tools for ARM Embedded Processors) 4.8.4 20140526 (release) [ARM/embedded-4_8-br
ARM GAS  /tmp/ccePHWXl.s 			page 42

