ARM GAS  /tmp/ccu9gkU5.s 			page 1


   1              		.syntax unified
   2              		.cpu cortex-m4
   3              		.eabi_attribute 27, 3
   4              		.eabi_attribute 28, 1
   5              		.fpu fpv4-sp-d16
   6              		.eabi_attribute 20, 1
   7              		.eabi_attribute 21, 1
   8              		.eabi_attribute 23, 3
   9              		.eabi_attribute 24, 1
  10              		.eabi_attribute 25, 1
  11              		.eabi_attribute 26, 1
  12              		.eabi_attribute 30, 2
  13              		.eabi_attribute 34, 1
  14              		.eabi_attribute 18, 4
  15              		.thumb
  16              		.file	"chmboxes.c"
  17              		.section	.gnu.lto_.jmpfuncs.b9c38651ed2d0fcc,"",%progbits
  18 0000 789C8590 		.ascii	"x\234\205\220\313\021\200 \014D7\001\305\277\365\330"
  18      CB118020 
  18      0C443701 
  18      C5BFF5D8 
  19 0010 892DD800 		.ascii	"\211-\330\000gJ\265\024\243(\023\007F\271\260\217%o"
  19      674AB514 
  19      A3281307 
  19      46B9B08F 
  19      256F
  20 0022 18188CD2 		.ascii	"\030\030\214\322Z(\3563\014\331@[D\322\300\002\373\003"
  20      5A28EE33 
  20      0CD9405B 
  20      44D2C002 
  20      FB03
  21 0034 C6716A78 		.ascii	"\306qjx\225p&N\275\021\360\200\245\317[@E\220T;\226"
  21      9570264E 
  21      BD11F080 
  21      A5CF5B40 
  21      4590543B 
  22 0049 01F86B8E 		.ascii	"\001\370k\216|A\344\234I\345}\324\250\267\265\277\202"
  22      7C41E49C 
  22      49E57DD4 
  22      A8B7B5BF 
  22      82
  23 005a 2E17F44A 		.ascii	".\027\364J0\344\202\360\026\214\271`\322\037r\000\317"
  23      30E482F0 
  23      168CB960 
  23      D21F7200 
  23      CF
  24 006b A618B3   		.ascii	"\246\030\263"
  25              		.text
  26              		.section	.gnu.lto_.inline.b9c38651ed2d0fcc,"",%progbits
  27 0000 789C8D92 		.ascii	"x\234\215\222\255R\303@\024\205\317\336\3354\377M\200"
  27      AD52C340 
  27      1485CFDE 
  27      DD34FF4D 
  27      80
  28 0011 32FC6486 		.ascii	"2\374d\206\204\251C \220\010\006^ \036\327\207A #\360"
  28      84A94320 
  28      9008065E 
ARM GAS  /tmp/ccu9gkU5.s 			page 2


  28      201ED787 
  28      412023F0 
  29 0025 54207900 		.ascii	"T y\000$\202\007@FT \020\210\012\004\262\202\275\233"
  29      24820740 
  29      46542010 
  29      880A04B2 
  29      82BD9B
  30 0038 764A4AD2 		.ascii	"vJJ\322\331L\346\354Nv\357\271\337\234\\\002\241\353"
  30      D94CE6EC 
  30      4E76EFB9 
  30      DF9C5C02 
  30      A1EB
  31 004a 7994CD9A 		.ascii	"y\224\315\232\3507\027\012\002\220\327F\013\243`\205"
  31      E837170A 
  31      0290D746 
  31      0BA36085 
  32 005a AF9E3378 		.ascii	"\257\2363x\2133\202\370r\025A\276\034(\336z\346\203"
  32      8B3382F8 
  32      721541BE 
  32      1C28DE7A 
  32      E683
  33 006c 0735CD23 		.ascii	"\0075\315#\210\037\231\222Q6\244P\227V\245\010\300\026"
  33      881F9992 
  33      5136A450 
  33      9756A508 
  33      C016
  34 007e 3BA74BEF 		.ascii	";\247K\357\311\332\265\351\000\337y\030\303\377\274"
  34      C9DAB5E9 
  34      00DF7918 
  34      C3FFBC
  35 008d B0F096B3 		.ascii	"\260\360\226\263\360\2377!-Z\336-n{\357.n\211\244\020"
  35      F09F3721 
  35      2D5ADE2D 
  35      6E7BEF2E 
  35      6E89A410 
  36 00a1 92D849B0 		.ascii	"\222\330I\260\030O\245\213\020\274^\021\350=Q,\021\037"
  36      184FA58B 
  36      10BC5E11 
  36      E83D512C 
  36      111F
  37 00b3 49AD5495 		.ascii	"I\255T\225\253\265*\225)\376\003\323\320\271\272\000"
  37      ABB52A95 
  37      29FE03D3 
  37      D0B9BA00 
  38 00c3 DEF7F90A 		.ascii	"\336\367\371\012\211\225%5\333\224\221F\235~\016\274"
  38      89952535 
  38      DB949146 
  38      9D7E0EBC 
  39 00d3 2301E2EE 		.ascii	"#\001\342\356\203in\376f\023@\003<@t\250!\271Q\353\316"
  39      83696EFE 
  39      66134003 
  39      3C4074A8 
  39      21B951EB 
  40 00e8 9A275E6E 		.ascii	"\232'^n\\\004\273\033F\316P_\344\263\252\364\260w\334"
  40      5C04BB1B 
  40      46CE505F 
  40      E4B3AAF4 
ARM GAS  /tmp/ccu9gkU5.s 			page 3


  40      B077DC
  41 00fb 3F07D1DD 		.ascii	"?\007\321\335-\202\247K\315Z\233<\3579\317\332\344Y"
  41      2D82A74B 
  41      CD5A9B3C 
  41      EF39CFDA 
  41      E459
  42 010d 739E1F27 		.ascii	"s\236\037':\317\271\311s\336\312\323\267\306\013\266"
  42      3ACFB9C9 
  42      73DECAD3 
  42      B7C60BB6 
  43 011d E285D8CF 		.ascii	"\342\205\330\317\372G)\236M\020.n,\360\344[k\224\"k"
  43      FA47299E 
  43      4D102E6E 
  43      2CF0E45B 
  43      6B94226B 
  44 0131 BC782BDE 		.ascii	"\274x+\336\020\243\254\177\032\355\3616\322\303/\006"
  44      10A3AC7F 
  44      1AEDF136 
  44      D2C32F06 
  45 0141 236F0F   		.ascii	"#o\017"
  46              		.text
  47              		.section	.gnu.lto_.pureconst.b9c38651ed2d0fcc,"",%progbits
  48 0000 789C6362 		.ascii	"x\234cb`b\220g\200\000~\006)F)&)f)\026)V+6\011v+\016"
  48      60629067 
  48      80007E06 
  48      29462926 
  48      29662916 
  49 001c 294E092E 		.ascii	")N\011.+n)\036\011^+>)\000(\025\002\234"
  49      2B6E291E 
  49      095E2B3E 
  49      29002815 
  49      029C
  50              		.text
  51              		.section	.gnu.lto_chMBPostS.part.2.b9c38651ed2d0fcc,"",%progbits
  52 0000 789C8D53 		.ascii	"x\234\215S\275OSQ\024?\347~\025(\211\254n\204\230\020"
  52      BD4F5351 
  52      143FE77E 
  52      152889AC 
  52      6E849810 
  53 0014 25F1450D 		.ascii	"%\361E\015\013\023\003\213{\233\310\300\320\2766\345"
  53      0B13038B 
  53      7B9BC8C0 
  53      D0BE36E5 
  54 0024 C63C9BB4 		.ascii	"\306<\233\264\205\210\014\334\322\2224\321\241a\301"
  54      85880CDC 
  54      D29234D1 
  54      A161C1
  55 0033 E80221C6 		.ascii	"\350\002!\306\304A\0355\016e\224\020T6\203K\343B\370"
  55      C4411D35 
  55      0E659410 
  55      5436834B 
  55      E342F8
  56 0046 1360E079 		.ascii	"\023`\340y\356mo\013\032Sn\362\3169\357\276\363\373"
  56      EE6D6F0B 
  56      1A536EF2 
  56      CE39EFBE 
  56      F3FB
ARM GAS  /tmp/ccu9gkU5.s 			page 4


  57 0058 38F7BDC7 		.ascii	"8\367\275\307\200\301\337k\216\256[\034`\2262&\000U"
  57      80C1DF6B 
  57      8EAE5B1C 
  57      60963226 
  57      0055
  58 006a F31B150A 		.ascii	"\363\033\025\012\231\313\214\361\306$\230\021a\343("
  58      99CB8CF1 
  58      C6249811 
  58      61E328
  59 0079 476177AB 		.ascii	"Gaw\253C\002e\247\220\210\266\000\2045\305\270\220\270"
  59      430265A7 
  59      9088B600 
  59      8435C5B8 
  59      90B8
  60 008b 368F9695 		.ascii	"6\217\226\225M\300\2161\233\355\215/\237o\232\355\365"
  60      4DC08E31 
  60      9BED8D2F 
  60      9F6F9AED 
  60      F5
  61 009c A6B98863 		.ascii	"\246\271\210c\324H\372\323\010!\302#\272\301q\227\230"
  61      D448FAD3 
  61      0821C223 
  61      BAC17197 
  61      98
  62 00ad B86AC821 		.ascii	"\270j\310!\233{\277\016^\\Fr\0063\203\220\037\230i\307"
  62      9B7BBF0E 
  62      5E5C4672 
  62      06338390 
  62      1F9869C7 
  63 00c1 F1D9EFE1 		.ascii	"\361\331\357\341\033\210\221\325\322(\270\015\202nQ"
  63      1B8891D5 
  63      D228B80D 
  63      826E51
  64 00d0 DA4AD990 		.ascii	"\332J\331\220\240 \251_B\235\224\3063\270\213\023\220"
  64      A020A95F 
  64      429D94C6 
  64      33B88B13 
  64      90
  65 00e1 C11D8A60 		.ascii	"\301\035\212`%h\245(\332\301R\250l\346id.\037\302\372"
  65      2568A528 
  65      DAC152A8 
  65      6CE66964 
  65      2E1FC2FA 
  66 00f5 F1CBD63E 		.ascii	"\361\313\326>f\360\015Q\024\220M\301\035b|\015\257\252"
  66      66F00D51 
  66      14904DC1 
  66      1D627C0D 
  66      AFAA
  67 0107 C68C6954 		.ascii	"\306\214iT\005Dk-\341\014e\321[;\204\332\363\332\373"
  67      05446B2D 
  67      E10C65D1 
  67      5B3B84DA 
  67      F3DAFB
  68 011a 1E8C13B2 		.ascii	"\036\214\023\2627\001q>\354<\230\202w\206\326\203\301"
  68      3701713E 
  68      EC3C9882 
  68      7786D683 
ARM GAS  /tmp/ccu9gkU5.s 			page 5


  68      C1
  69 012b 8C44E180 		.ascii	"\214D\341\200\007?\222\035h\257\337S\213n\237p}\307"
  69      073F921D 
  69      68AFDF53 
  69      8B6E9F70 
  69      7DC7
  70 013d 9F5AA7DC 		.ascii	"\237Z\247\334\253\313\001\246\275\353\257P?\251\336"
  70      ABCB01A6 
  70      BDEBAF50 
  70      3FA9DE
  71 014c BBE459F6 		.ascii	"\273\344Y\366\317:M\006\032\223\356<~\266\216z\324j"
  71      CF3A4D06 
  71      1A93EE3C 
  71      7EB68E7A 
  71      D46A
  72 015e 00B5FFFE 		.ascii	"\000\265\377\376\010\267\3771ye\352\351\353L\255\274"
  72      08B7FF31 
  72      7965EAE9 
  72      EB4CADBC 
  73 016e BAF0AFE3 		.ascii	"\272\360\257\343\274\026o\335\366\362\211Ux\246\355"
  73      BC166FDD 
  73      F6F28955 
  73      78A6ED
  74 017d 7C8E7141 		.ascii	"|\216qA\343\320\177\031y\177\226\357P\337\353R\000\254"
  74      E3D07F19 
  74      797F96EF 
  74      50DFEB52 
  74      00AC
  75 018f C2B96958 		.ascii	"\302\271iX\300p\330=\010\242\3258b\333j\355\306\333"
  75      C070D83D 
  75      08A2D538 
  75      62DB6AED 
  75      C6DB
  76 01a1 E43F8DC9 		.ascii	"\344?\215\311\260;\226\306QoO:{G\364\207\364eR\304G"
  76      B03B96C6 
  76      516F4F3A 
  76      7B47F487 
  76      F46552C4 
  77 01b6 BBB6F77E 		.ascii	"\273\266\367~\260X\214\362AX\314\255\004\271\374r\020"
  77      B0588CF2 
  77      4158CCAD 
  77      04B9FC72 
  77      10
  78 01c7 2EEAAC2E 		.ascii	".\352\254.\226\203Ji\351\311\343\200\212R%(\227B\332"
  78      96834A69 
  78      E9C9E380 
  78      8A522528 
  78      9742DA
  79 01da 8FB2C5A7 		.ascii	"\217\262\305\247\371\362\335\020DEGyU\312\255D\345\302"
  79      F9F2DD10 
  79      44454779 
  79      55CAAD44 
  79      E5C2
  80 01ec 1FE419C8 		.ascii	"\037\344\031\310F"
  80      46
  81              		.text
  82              		.section	.gnu.lto_chMBPostAheadS.part.3.b9c38651ed2d0fcc,"",%progbits
ARM GAS  /tmp/ccu9gkU5.s 			page 6


  83 0000 789C8D53 		.ascii	"x\234\215S\315k\023Q\020\237y\357\355n>\012\325\243"
  83      CD6B1351 
  83      109F79EF 
  83      ED6E3E0A 
  83      D5A3
  84 0012 B7D24BD1 		.ascii	"\267\322K\321\202\213B/\202\340\301?!\005=xH61}\310"
  84      828B422F 
  84      82E0C13F 
  84      21053D78 
  84      4836317D 
  85 0027 1A48A258 		.ascii	"\032H\242X{\350K\322CD\017\2137\365b)9\264\207\264x"
  85      7BE84BD2 
  85      43440F8B 
  85      37F56229 
  85      39B487B4 
  86 003c 1241E8C1 		.ascii	"\022A\350\301\203\037\324\217\202 =\345\342?\240\027"
  86      831FD48F 
  86      82203DE5 
  86      E23FA017 
  87 004c 29E23AF3 		.ascii	")\342:\363\272\233\246\026I\037\354\314\354\333\371"
  87      BA9BA616 
  87      491FECCC 
  87      ECDBF9
  88 005b FDE63733 		.ascii	"\375\34673\254\000\001\377\236\253\364<\220\000W\310"
  88      AC0001FF 
  88      9EABF43C 
  88      900057C8 
  89 006b A307E846 		.ascii	"\243\007\350F\037)pQX/\204\354\316\200\311)\266\023"
  89      1F297051 
  89      582F84EC 
  89      CE80C929 
  89      B613
  90 007d 1215DFB6 		.ascii	"\022\025\337\2662\012\235\203\300A\344\000\020\226]"
  90      320A9D83 
  90      C041E400 
  90      10965D
  91 008c 219583CB 		.ascii	"!\225\203\313\327\221Y\3054\254\032\363x\320\333xu\306"
  91      D79159C5 
  91      34AC1AF3 
  91      78D0DB78 
  91      75C6
  92 009e 3C6F47E6 		.ascii	"<oG\346O\034\243F\252?\207\020 \\\243\027\234\262N\250"
  92      4F1CA346 
  92      AA3F8710 
  92      205CA317 
  92      9CB24EA8 
  93 00b2 A3822C32 		.ascii	"\243\202,2\332\376\272\373h\024)\005\\\032\207\334\024"
  93      DAFEBAFB 
  93      68142905 
  93      5C1A87DC 
  93      14
  94 00c3 6610C74F 		.ascii	"f\020\307O^\344N#\206\\K\243\222l\024\033\207\215\313"
  94      5EE44E23 
  94      865C4BA3 
  94      926C141B 
  94      878DCB
  95 00d6 C66393A1 		.ascii	"\306c\223\241\024\314R\344\020\322\201\025\2529U\304"
ARM GAS  /tmp/ccu9gkU5.s 			page 7


  95      14CC52E4 
  95      10D28115 
  95      AA3955C4 
  96 00e6 359C8622 		.ascii	"5\234\206\"\256\222\005.F\247@\226[,\240\313^\316\243"
  96      AE92052E 
  96      46A74096 
  96      5B2CA0CB 
  96      5ECEA3
  97 00f9 B07E07DA 		.ascii	"\260~\007\332{/\373?\260\210=\242\250\242\230\205sD"
  97      7B2FFB3F 
  97      B0883DA2 
  97      A8A29885 
  97      7344
  98 010b FB0C9EB6 		.ascii	"\373\014\236\266\2149\245\321\255\"\262H\317J+a*r\007"
  98      8C39A5D1 
  98      AD22B248 
  98      CF4A2B61 
  98      2A7207
  99 011e 3A0F3B37 		.ascii	":\017;7S\224$\240m\345w\034\307\223\366s\373]\344\036"
  99      539424A0 
  99      6DE5771C 
  99      C793F673 
  99      FB5DE41E 
 100 0132 7C9E850D 		.ascii	"|\236\205\015C\347\362xZ\"\262\320\275\317\223)\263"
 100      43E7F278 
 100      5A22B2D0 
 100      BDCF9329 
 100      B3
 101 0143 1AA32715 		.ascii	"\032\243'\025\364\026\336|o]\030\32132\324y\242\355"
 101      F416DE7C 
 101      6F5D18D1 
 101      3332D479 
 101      A2ED
 102 0155 CED856BF 		.ascii	"\316\330V\277\365we\232\344\214\241\026\243\255\366"
 102      F577659A 
 102      E48CA116 
 102      A3ADF6
 103 0164 450AA334 		.ascii	"E\012\2434\347X\257[\371#\275\316\235\244W7U\247\206"
 103      E758AF5B 
 103      F923BDCE 
 103      9DA45737 
 103      55A786
 104 0177 9BF8D57F 		.ascii	"\233\370\325\177?\334\204w\342M\264?DI\371a2\015\300"
 104      3FDC8477 
 104      E24DB43F 
 104      4449F961 
 104      320DC0
 105 018a E36495D4 		.ascii	"\343d\225\324\312\330\274\375\316\317\336\331\224?\273"
 105      CAD8BCFD 
 105      CECFDED9 
 105      943FBB
 106 0199 04F7350F 		.ascii	"\004\3675\017\301*\276\2411\363\337R\362p\226\237`e"
 106      C12ABEA1 
 106      31F3DF52 
 106      F270969F 
 106      6065
 107 01ab 3BA10058 		.ascii	";\241\000X\202}\323e@6H\026A\264\032s\234\326\031\274"
ARM GAS  /tmp/ccu9gkU5.s 			page 8


 107      827DD365 
 107      40364816 
 107      41B41A73 
 107      9CD619BC 
 108 01bf 5ECF1F4B 		.ascii	"^\317\037K\314\007\311X5N\244\355;\266\375/\364\033"
 108      CC07C958 
 108      354EA4ED 
 108      3BB6FD2F 
 108      F41B
 109 01d1 1E962910 		.ascii	"\036\226)\020\037\335r\356E\177\241\026V\374\240V^\364"
 109      1FDD72EE 
 109      457FA116 
 109      56FCA056 
 109      5EF4
 110 01e3 CB95BB7E 		.ascii	"\313\225\273~\260\240K\272\326\360\233\365;\267o\371"
 110      B0A04BBA 
 110      D6F09BF5 
 110      3BB76FF9 
 111 01f3 14D49B7E 		.ascii	"\024\324\233~\243\036\320}X\252\335\2534\316\007\240"
 111      A31ED07D 
 111      58AADDAB 
 111      34CE07A0 
 112 0203 9A3AACB8 		.ascii	"\232:\254\270\365\362b\330\250\376\005+\355\342D"
 112      F5F262D8 
 112      A8FE052B 
 112      EDE244
 113              		.text
 114              		.section	.gnu.lto_chMBFetchS.part.4.b9c38651ed2d0fcc,"",%progbits
 115 0000 789C8D53 		.ascii	"x\234\215S=hSQ\024>\347\376\275\230T\350\352V\272\024"
 115      3D685351 
 115      143EE7FE 
 115      BD9854E8 
 115      EA56BA14 
 116 0014 2DF850E8 		.ascii	"-\370P\350\342\344\340\342(\246\240\203C\362\022\322"
 116      E2E4E0E2 
 116      28A6A083 
 116      43F212D2 
 117 0024 8B3C0349 		.ascii	"\213<\003I,\326\016\275\371\021\002:\204NE\027\213\270"
 117      2CD60EBD 
 117      F911023A 
 117      844E4517 
 117      8BB8
 118 0036 E85057BB 		.ascii	"\350PW\273\330EP\241\212.\212S\266\202\203\270))\364"
 118      D84550A1 
 118      8A2E8A53 
 118      B68283B8 
 118      2929F4
 119 0049 79EE4D6E 		.ascii	"y\356Mn^\252H\274\360\3169\357\274\363}\347|\347\362"
 119      5EAA48BC 
 119      F0CE39EF 
 119      BCF37DE7 
 119      7CE7F2
 120 005c 1830F8F3 		.ascii	"\0300\370\363\\\242\347\012\007\270H\036\003@\325{O"
 120      5CA2E70A 
 120      07B8481E 
 120      0340D57B 
 120      4F
ARM GAS  /tmp/ccu9gkU5.s 			page 9


 121 006d 8142E63C 		.ascii	"\201B\346<c\274\273\000&+\254\235\341(l\266\231\021"
 121      63BCBB00 
 121      262BAC9D 
 121      E1286CB6 
 121      9911
 122 007f 28878144 		.ascii	"(\207\201D\264\001 l(\306\205\304\215\353hY\331<l\033"
 122      B401206C 
 122      28C685C4 
 122      8DEB6859 
 122      D93C6C1B 
 123 0093 B3D97FFD 		.ascii	"\263\331\177\375s\367\224y\334\352\231\243$A\215\324"
 123      73F79479 
 123      DCEA99A3 
 123      24418DD4 
 124 00a3 7F092142 		.ascii	"\177\011!B\270F/8\347\034\023\307\007r\310\336\336\253"
 124      B8462F38 
 124      E71C13C7 
 124      0772C8DE 
 124      DEAB
 125 00b5 CF0F2691 		.ascii	"\317\017&\221\234\301\205i\310\035f\372I\3622\311\316"
 125      9CC18569 
 125      C81D66FA 
 125      49F232C9 
 125      CE
 126 00c6 22C6B697 		.ascii	"\"\306\266\227F\301\255\021d\244\244\034*\373\032X\223"
 126      46C1AD11 
 126      64A4A41C 
 126      2AFB1A58 
 126      93
 127 00d7 21A30824 		.ascii	"!\243\010$\241C\355\346\012\370\004\347\241\200\333"
 127      A143EDE6 
 127      0AF804E7 
 127      A180DB
 128 00e6 64C1F6A1 		.ascii	"d\301\366\241\223'k\325\345\251\220<_F\346\374>\264"
 128      93276BD5 
 128      E5A9903C 
 128      5F46E6FC 
 128      3EB4
 129 00f8 BE7E397C 		.ascii	"\276~9|\307\012\370\024%T\220-\302\031b|\004\017\233"
 129      C70AF814 
 129      2554902D 
 129      C219627C 
 129      040F9B
 130 010b C6CC6A0C 		.ascii	"\306\314j\014*\210v\276\214\233\252\210~\276}h\337o"
 130      2A8876BE 
 130      8C9BAA88 
 130      7EBE7D68 
 130      DF6F
 131 011d 7F470FE3 		.ascii	"\177G\017\343\204\034\313 \316\313\303\017\213\360\314"
 131      841CCB20 
 131      CECBC30F 
 131      8BF0CC
 132 012c D0B93A9D 		.ascii	"\320\271:\235\221(\034p\367\336\252\347L!\236]\214\233"
 132      91281C70 
 132      F7DEAAE7 
 132      4C219E5D 
 132      8C9B
ARM GAS  /tmp/ccu9gkU5.s 			page 10


 133 013e B7DEFE50 		.ascii	"\267\336\376P\303\272\311\"\231\026U\254\267\342~\035"
 133      C3BAC922 
 133      991655AC 
 133      B7E27E1D 
 134 014e 7EE39E51 		.ascii	"~\343\236QM\021\347\325\275\201\316A\363\334\2046\225"
 134      4D11E7D5 
 134      BD81CE41 
 134      F3DC8436 
 134      95
 135 015f 5ECC320D 		.ascii	"^\3142\015\332]p{\333:\3724\246\016\246P\263\211\321"
 135      DA5D707B 
 135      DB3AFA34 
 135      A60EA650 
 135      B389D1
 136 0172 5FE48E6D 		.ascii	"_\344\216mg\351\177\266\023\370\356\302_\333\240}\260"
 136      67E97FB6 
 136      13F8EEC2 
 136      5FDBA07D 
 136      B0
 137 0183 73DAB7CF 		.ascii	"s\332\267\317\254\303]m\3659\306\033\032O\374\223\221"
 137      ACC35D6D 
 137      F539C61B 
 137      1A4FFC93 
 137      91
 138 0194 A75A3E40 		.ascii	"\247Z>@goD\001\260\016\003\323\265\200l4Z\004\321j\314"
 138      676F4401 
 138      B00E03D3 
 138      B5806C34 
 138      5A04D16A 
 139 01a9 D9B2767F 		.ascii	"\331\262v\177\360<\367W\341L4\222\245\361\244\037O\272"
 139      F03CF757 
 139      E14C3492 
 139      A5F1A41F 
 139      4FBA
 140 01bb F13ED2EF 		.ascii	"\361>\322\357\224\266\311\023\037em\355\371p\245\032"
 140      94B6C913 
 140      1F656DED 
 140      F970A51A 
 141 01cb 97C3A85A 		.ascii	"\227\303\250ZZ\013K\345\3250Z\321E]\255\207\215\332"
 141      5A0B4BE5 
 141      D5305AD1 
 141      455DAD87 
 141      8DDA
 142 01dd ED5B3743 		.ascii	"\355[7C\012j\215\260^\213(\037\027\253w\312\365\263"
 142      0A6A8DB0 
 142      5E8B281F 
 142      17AB77CA 
 142      F5B3
 143 01ef 1188868E 		.ascii	"\021\210\206\216\313\252VZ\213\353\225\337\330?\324"
 143      CBAA565A 
 143      8BEB95DF 
 143      D83FD4
 144 01fe 1D       		.ascii	"\035"
 145              		.text
 146              		.section	.gnu.lto_chMBObjectInit.b9c38651ed2d0fcc,"",%progbits
 147 0000 789C9552 		.ascii	"x\234\225R\317K\002Q\020\236y\253\256\212\212u\353&"
 147      CF4B0251 
ARM GAS  /tmp/ccu9gkU5.s 			page 11


 147      109E79AB 
 147      AE8A8A75 
 147      EB26
 148 0012 75AAC08D 		.ascii	"u\252\300\215 \350\0171\250S\350*\272\204.\250E\345"
 148      20E80F31 
 148      A853E82A 
 148      BA842EA8 
 148      45E5
 149 0024 C1B55588 		.ascii	"\301\265U\210B\220\350R\035J\202\016]:\325UOQDe\377"
 149      4290E852 
 149      1D4A820E 
 149      5D3AD555 
 149      4F514465 
 150 0039 81D0A593 		.ascii	"\201\320\245\223\005\035*\021\266y\376*%\301\006v\346"
 150      051D2A11 
 150      B679FE2A 
 150      25C10676 
 150      E6
 151 004a EDBCF9BE 		.ascii	"\355\274\371\276\371\346\275\307\200A\277\215\321wM"
 151      F9E6BDC7 
 151      8041BF8D 
 151      D1774D
 152 0059 E9798A28 		.ascii	"\351y\212(\000\262\302\003@\306\312\020\371\002\020"
 152      00B2C203 
 152      40C6CA10 
 152      F90210
 153 0068 D20CD34B 		.ascii	"\322\014\323K\310Kq\034\212\232\266W\315\275\336\260"
 153      C84B711C 
 153      8A9AB657 
 153      CDBDDEB0 
 154 0078 83FD72F6 		.ascii	"\203\375r\366Dk\030\006\242\202D;\207 #,\322\017z\232"
 154      446B1806 
 154      A282443B 
 154      8720232C 
 154      D20F7A9A 
 155 008c 81997AFB 		.ascii	"\201\231z\373\\\260r\3250\032\227/\317%\034q3\214\""
 155      5CB072D5 
 155      301A972F 
 155      CF251C71 
 155      338C22
 156 009f 08E45024 		.ascii	"\010\344P$\307\254\340\307\"\321\333\200\310\354\344"
 156      C7ACE0C7 
 156      22D1DB80 
 156      C8ECE4
 157 00ae 04073993 		.ascii	"\004\0079\223\213;\302\232!\253i\005\017\360\026d>\362"
 157      8B3BC29A 
 157      21AB6905 
 157      0FF01664 
 157      3EF2
 158 00c0 5CDC0232 		.ascii	"\\\334\0022\036\205{\330\272\373\254U,~<E3L\303\271"
 158      1E857BD8 
 158      BAFBAC55 
 158      2C7E3C45 
 158      334CC3B9 
 159 00d4 46764C1A 		.ascii	"FvL\032\204#8\244`\016#\343\222,M!\001l\011\012\323"
 159      842338A4 
 159      600E23E3 
ARM GAS  /tmp/ccu9gkU5.s 			page 12


 159      922C4D21 
 159      016C090A 
 160 00e9 B440D0DB 		.ascii	"\264@\320\333\312h\017py \016\373p\366\036\234s \216"
 160      CA680F70 
 160      79200EFB 
 160      70F61E9C 
 160      73208E
 161 00fc F5E06AFA 		.ascii	"\365\340j\372{~\262\205\014\2435\214\"\317\352;\372"
 161      7B7EB285 
 161      0CA3358C 
 161      22CFEA3B 
 161      FA
 162 010d 15769236 		.ascii	"\025v\2226\312s<\360\331ioW?\353\356\331\211\206*Z\012"
 162      CA733CF0 
 162      D9696F57 
 162      3FEBEED9 
 162      89862A5A 
 163 0122 DEC42115 		.ascii	"\336\304!\025\010m\005\366&\256\256\177\344\247:\204"
 163      086D05F6 
 163      26AEAE7F 
 163      E4A73A84 
 164 0132 8E146CD2 		.ascii	"\216\024l\322)\377\014/\376M\361\353:\037!Wn\343\001"
 164      29FF0C2F 
 164      FE4DF1EB 
 164      3A1F2157 
 164      6EE301
 165 0145 5250D7B6 		.ascii	"RP\327\2665\267\202V\271{@\016\232Ji\213\254\353_\316"
 165      35B78256 
 165      B97B400E 
 165      9A4A698B 
 165      ACEB5FCE 
 166 0159 4E2FD790 		.ascii	"N/\327\220\275\314\377\350\345\342@\232\253\331\357"
 166      BDCCFFE8 
 166      E5E2409A 
 166      ABD9EF
 167 0168 0932D5D2 		.ascii	"\0112\325\322D\247\274e>*\245W\302/aV\212\250\321\220"
 167      44A7BC65 
 167      3E2AA557 
 167      C22F6156 
 167      8AA8D190 
 168 017c 24ABC10D 		.ascii	"$\253\301\015)\030Z\223\344\210\022P\324\204\224\214"
 168      29185A93 
 168      E4881250 
 168      D484948C 
 169 018c AFC65624 		.ascii	"\257\306V$Z\304\223R\".S>\032P\327C\011\257\014B\314"
 169      5AC49352 
 169      222E533E 
 169      1A50D743 
 169      09AF0C42 
 170 01a1 3BF30D92 		.ascii	";\363\015\222Z\256<"
 170      5AAE3C
 171              		.text
 172              		.section	.gnu.lto_chMBResetI.b9c38651ed2d0fcc,"",%progbits
 173 0000 789C8D92 		.ascii	"x\234\215\222=K\003A\020\206gvs\227K\302\241\250\215"
 173      3D4B0341 
 173      10866776 
 173      73974BC2 
ARM GAS  /tmp/ccu9gkU5.s 			page 13


 173      A1A88D
 174 0013 8DD8D818 		.ascii	"\215\330\330\030pA\374)\021\265\2600\227\220\034\022"
 174      7041FC29 
 174      11B5B030 
 174      97901C12 
 175 0023 0F92286A 		.ascii	"\017\222(j\212\\<\005\203M\012\013Q\020\024\301\217"
 175      8A5C3C05 
 175      834D0A0B 
 175      511014C1 
 175      8F
 176 0034 42F3032C 		.ascii	"B\363\003,\322\211\205\212\255Uz+\033\213k\342\354}"
 176      D289858A 
 176      AD557A2B 
 176      1B8B6BE2 
 176      EC7D
 177 0046 24448CBA 		.ascii	"$D\214\272p\263\313{\363\2743\263w\014\030|_\343\364"
 177      70B3CB7B 
 177      F3BC33B3 
 177      770C187C 
 177      5FE3F4
 178 0059 34489EA3 		.ascii	"4H\236\243\0359 k<\003\3244\206(\017\200PeX]B/\367\216"
 178      1D39206B 
 178      3C03D434 
 178      86280F80 
 178      5065585D 
 179 0071 B5DA9DCE 		.ascii	"\265\332\235\316\355\347\303\305=^\261!\206\005\004"
 179      EDE7C3C5 
 179      3D5EB121 
 179      860504
 180 0080 0E26824A 		.ascii	"\016&\202J\001\243\362\244Q`1\031\3422$d\320\345[\302"
 180      01A3F2A4 
 180      51603119 
 180      E2322464 
 180      D0E55BC2 
 181 0094 15D8B5ED 		.ascii	"\025\330\265\355\306$\200\341\331\245(\312\032\363\310"
 181      C62480E1 
 181      D9A528CA 
 181      1AF3C8
 182 00a3 E4CE9F60 		.ascii	"\344\316\237`\347\355\350\374#\262\202g\250@\016y\022"
 182      E7EDE8FC 
 182      23B28267 
 182      A8400E79 
 182      12
 183 00b4 A6C9F104 		.ascii	"\246\311\361\004\216\321D\236C\266H{\304k$\215a\373"
 183      8ED1449E 
 183      43B6487B 
 183      C46B248D 
 183      61FB
 184 00c6 043D3647 		.ascii	"\004=6G|$\01176\255\345\201\220O\221s\300\305\3738}"
 184      7C240937 
 184      36ADE581 
 184      904F9173 
 184      C0C5FB38 
 185 00db 20C7FA38 		.ascii	" \307\3728\327\271<\234\010\233T+\260M\323\005\026\013"
 185      D7B93C9C 
 185      089B542B 
 185      B04DD305 
ARM GAS  /tmp/ccu9gkU5.s 			page 14


 185      160B
 186 00ed 262A3F5B 		.ascii	"&*?[\360\336\215\3139\233\243\241A\364\267)#=\344\335"
 186      F0DE8DCB 
 186      399BA3A1 
 186      41F4B729 
 186      233DE4DD 
 187 0101 7159C868 		.ascii	"qY\310h\204\371\"\017\245X\320\235S\357Jq/1\346\251"
 187      84F9220F 
 187      A558D09D 
 187      53EF4A71 
 187      2F31E6A9 
 188 0115 A75D3541 		.ascii	"\247]5A/d\011&\275_`\257\025\214\002P\001\327\336\267"
 188      2F640926 
 188      BD5F60AF 
 188      158C0250 
 188      01D7DEB7 
 189 0129 874D548D 		.ascii	"\207MT\215\356M\251\004\230A1\327\271\036\013]\364\177"
 189      EE4DA904 
 189      984131D7 
 189      B91E0B5D 
 189      F47F
 190 013b 8EADF4C6 		.ascii	"\216\255\364\306\376\263\226.A\015\300\253\367\012\265"
 190      FEB3962E 
 190      410DC0AB 
 190      F70AB5
 191 014a F6C15498 		.ascii	"\366\301T\230\356\257\024\245\322\217\"\277\306\254"
 191      EEAF14A5 
 191      D28F22BF 
 191      C6AC
 192 0158 C85B85AC 		.ascii	"\310[\205\2540\254\314\226\310d7\204\2217\323\246U\022"
 192      30ACCC96 
 192      C8643784 
 192      9137D3A6 
 192      5512
 193 016a E5E2FADA 		.ascii	"\345\342\372\332\252\240C\261,JE\203\364B\332\332\314"
 193      AAA043B1 
 193      2C4A4583 
 193      F442DADA 
 193      CC
 194 017b 96660CF8 		.ascii	"\226f\014\370\002B3\227\227"
 194      02423397 
 194      97
 195              		.text
 196              		.section	.gnu.lto_chMBReset.b9c38651ed2d0fcc,"",%progbits
 197 0000 789C6362 		.ascii	"x\234cb`b@\007\222@\354\313\310\3000\021H32302M8\307"
 197      60624007 
 197      9240ECCB 
 197      C8C03011 
 197      48333233 
 198 0019 C0D0C8C1 		.ascii	"\300\320\310\301\304\310\010b002\32431\326G2\202\325"
 198      C4C80862 
 198      303032D4 
 198      3331D647 
 198      3282D5
 199 002c AE673AF0 		.ascii	"\256g:\360\340\377\377u[\332\227\3640\316c\342df\314"
 199      E0FFFF75 
 199      5BDA97F4 
ARM GAS  /tmp/ccu9gkU5.s 			page 15


 199      30CE63E2 
 199      6466CC
 200 003f 058BB332 		.ascii	"\005\213\2632\26444LP``H\006sC\200$Ho(#\023\210f>\307"
 200      B434344C 
 200      50606048 
 200      06734380 
 200      24486F28 
 201 0059 D0F4F1ED 		.ascii	"\320\364\361\355\224\307\022pe\211\214\013\031Y\031"
 201      94C71270 
 201      65898C0B 
 201      195919
 202 0068 C0863332 		.ascii	"\300\20632\2241\203\034\305\014q\231\034C;\343\334\206"
 202      9431831C 
 202      C50C7199 
 202      1C433BE3 
 202      DC86
 203 007a 190E9910 		.ascii	"\031\016\231\020\373\"\0303\031\031\025@,\270|\027T"
 203      FB221833 
 203      19191540 
 203      2CB87C17 
 203      54
 204 008b 1EEA91F3 		.ascii	"\036\352\221\363\014-\037.\355.\201\231X\315\360\253"
 204      0C2D1F2E 
 204      ED2E8199 
 204      58CDF0AB 
 205 009b A1A34120 		.ascii	"\241\243A \223\2219\231\021bD:#s&#\013Ha\363\203{\217"
 205      93913999 
 205      1162443A 
 205      23732623 
 205      0B4861F3 
 206 00b2 B93014B2 		.ascii	"\2710\024\262&C\215\312ddc` \306\251\211\214K\200\341"
 206      26438DCA 
 206      64646360 
 206      20C6A989 
 206      8C4B80E1 
 207 00c6 04761A03 		.ascii	"\004v\032\003\222\323\022\031\2273\312A\034u\221\241"
 207      92D31219 
 207      9733CA41 
 207      1C7591A1 
 208 00d6 F143D35E 		.ascii	"\361C\323^\026\270^\006H\2500\202B\003\244\326H?#?7"
 208      16B85E06 
 208      48A83082 
 208      4203A4D6 
 208      483F233F 
 209 00eb 553F393F 		.ascii	"U?9?\245R?%\265L?9#3)3\277X\277\244\2504/[\037\310("
 209      A5523F25 
 209      B54C3F39 
 209      23332933 
 209      BF58BFA4 
 210 0106 2AD12F2E 		.ascii	"*\321/.J\006\212\347&\345W\244\026\353%38\020\322\222"
 210      4A068AE7 
 210      26E557A4 
 210      16EB2533 
 210      3810D292 
 211 011a 5A51A2EF 		.ascii	"ZQ\242\357\354\033\354\031\254\237\231\227\234S\232"
 211      EC1BEC19 
 211      AC9F9997 
ARM GAS  /tmp/ccu9gkU5.s 			page 16


 211      9C539A
 212 0129 02525B94 		.ascii	"\002R[\224\032\237\234\353V\232\227\254\227\301 \340"
 212      1A9F9CEB 
 212      569A97AC 
 212      97C120E0 
 213 0139 1B1CA490 		.ascii	"\033\034\244\220\224X\234ZP\224\251\243\240j\300\300"
 213      94589C5A 
 213      5094A9A3 
 213      A06AC0C0 
 214 0149 54C4C09E 		.ascii	"T\304\300\236\233\232\233_T\311\000\000\316\021zU"
 214      9B9A9B5F 
 214      54C90000 
 214      CE117A55 
 215              		.text
 216              		.section	.gnu.lto_chMBPostS.b9c38651ed2d0fcc,"",%progbits
 217 0000 789C5D8F 		.ascii	"x\234]\217?K\003A\020\305\347\355]b\022-\004;\013\011"
 217      3F4B0341 
 217      10C5E7ED 
 217      5D62122D 
 217      043B0B09 
 218 0014 B6828B82 		.ascii	"\266\202\213\202\225\370-\022\3202\271\204\313!g\340"
 218      95F82D12 
 218      D032B984 
 218      CB2167E0 
 219 0024 12C59822 		.ascii	"\022\305\230\"\033\215 \246I#\2426\006\261\261\361\003"
 219      1B8D20A6 
 219      4923A236 
 219      06B1B1F1 
 219      03
 220 0035 6811C142 		.ascii	"h\021\301B\301?\010i\205\200\205\205\215\235\020\204"
 220      C13F0869 
 220      85808585 
 220      8D9D1084 
 221 0045 73366742 		.ascii	"s6gBt\340\356\355\316\316\374\346\215 A\377c\216\277"
 221      74E0EEED 
 221      CECEFCE6 
 221      8D2041FF 
 221      638EBF
 222 0058 2A881659 		.ascii	"*\210\026Y\021\"\210\306\023'\"B\030mI*f^O\221\0323"
 222      112288C6 
 222      13272242 
 222      186D492A 
 222      665E4F91 
 223 006e 60EA344C 		.ascii	"`\3524L@+\201*\3020QY\201F`\232\232J5:\347W\3678R\255"
 223      402B812A 
 223      C2305159 
 223      8146609A 
 223      9A4A353A 
 224 0088 DAA9FAF6 		.ascii	"\332\251\372\366}\300\001\217[\000Y\240e\276 \336\023"
 224      7DC0018F 
 224      5B0059A0 
 224      65BE20DE 
 224      13
 225 0099 61FE9D7F 		.ascii	"a\376\235\177)Z\035\337\177x\375|\253c\"\006\270\272"
 225      295A1DDF 
 225      7F78FD7C 
 225      AB632206 
ARM GAS  /tmp/ccu9gkU5.s 			page 17


 225      B8BA
 226 00ab CB01D35D 		.ascii	"\313\001\323] L)4\031\037\345\213\266\036\242\032\017"
 226      204C2934 
 226      191FE58B 
 226      B61EA21A 
 226      0F
 227 00bc 8A0749D2 		.ascii	"\212\007I\322d\216\004\377\265\253$\227\260\032\217"
 227      648E04FF 
 227      B5AB2497 
 227      B01A8F
 228 00cb B4DDDDF9 		.ascii	"\264\335\335\3718\\J\341\214\027\262!\312\264\305\300"
 228      385C4AE1 
 228      8C17B221 
 228      CAB4C5C0 
 229 00db 19BA501C 		.ascii	"\031\272P\034\007\354\301<\241c\226\220\015hK\341\236"
 229      07ECC13C 
 229      A1639690 
 229      0D684BE1 
 229      9E
 230 00ec 9134865C 		.ascii	"\2214\206\\=\323nk\262\017\010\227\251\253\366\324\270"
 230      3DD36E6B 
 230      B20F0897 
 230      A9ABF6D4 
 230      B8
 231 00fd 83110B41 		.ascii	"\203\021\013A\025Sm\230\016\"Dwt\373~\363U7\006\325"
 231      15536D98 
 231      0E224477 
 231      74FB7EF3 
 231      553706D5 
 232 0111 1A191D5E 		.ascii	"\032\031\035^1\011\203\332\322`f$(\"\032\020c\026\304"
 232      310983DA 
 232      D2606624 
 232      28221A10 
 232      6316C4
 233 0124 2F1136A2 		.ascii	"/\0216\242\016F\373=fo\231\027\252v\366\355\001;xL\260"
 233      0E46FB3D 
 233      666F9917 
 233      AA76F6ED 
 233      013B784C 
 234 0139 0B7ED48D 		.ascii	"\013~\324\215\3632\227w\263\322\312gJ2\223\335\220V"
 234      F3329777 
 234      B3D2CA67 
 234      4A3293DD 
 234      9056
 235 014b CE493BF9 		.ascii	"\316I;\371\202,z\353k\253\222\017^Q\026<\213\363n:\277"
 235      822C7AEB 
 235      6BAB920F 
 235      5E51163C 
 235      8BF36E3A 
 236 0160 992DCC5A 		.ascii	"\231-\314Z\024\3662%\267`\377\000\365\003o\236"
 236      14F63225 
 236      B760FF00 
 236      F5036F9E 
 237              		.text
 238              		.section	.gnu.lto_chMBPost.b9c38651ed2d0fcc,"",%progbits
 239 0000 789C8D8F 		.ascii	"x\234\215\217\301+\004q\024\307\337\3677;V\271\310\211"
 239      C12B0471 
ARM GAS  /tmp/ccu9gkU5.s 			page 18


 239      14C7DFF7 
 239      373B56B9 
 239      C889
 240 0012 8B26E5A6 		.ascii	"\213&\345\246\375I\271+\245\034\\,\341\244\335\337N"
 240      FD49B92B 
 240      A51C5C2C 
 240      E1A4DDDF 
 240      4E
 241 0023 BB13B3A3 		.ascii	"\273\023\263\243\231]\331$C\222\203D9pP6Q.\370\017\310"
 241      995DD924 
 241      43928344 
 241      39705036 
 241      512EF80F 
 242 0038 CD859CF6 		.ascii	"\315\205\234\366\272qu\340*\265\336o\006\341\302\233"
 242      BA7175E0 
 242      2AB5DE6F 
 242      06E1C29B 
 243 0048 E6BDF77B 		.ascii	"\346\275\367{\277\367{\237\357\023$\350\267u\360\277"
 243      BFF77B9F 
 243      EF1324E8 
 243      B775F0BF 
 244 0058 02A23D8E 		.ascii	"\002\242=\2160\010b\373\226\013\315\002\320\011\201"
 244      300862FB 
 244      960BCD02 
 244      D00981
 245 0067 960596A7 		.ascii	"\226\005\226\247\240[\321E\3250\334\256\037\237\335"
 245      A05BD145 
 245      D530DCAE 
 245      1F9FDD
 246 0076 603FBC5A 		.ascii	"`?\274Z;\014\337\032\015\300\001\217\355\007)\320$\037"
 246      3B0CDF1A 
 246      0DC0018F 
 246      ED0729D0 
 246      241F
 247 0088 60454124 		.ascii	"`EA$~r\316\305U\275\321\330\254==^\242\255\305\200\013"
 247      7E72CEC5 
 247      55BDD1D8 
 247      AC3D3D5E 
 247      A2ADC580 
 248 009d 4AB083C9 		.ascii	"J\260\203\311N$)\203*\217g3i\215\031\326\347YE\3441"
 248      4E242983 
 248      2A8F6733 
 248      698D19D6 
 248      E75945E4 
 249 00b2 F65ACE38 		.ascii	"\366Z\3168\204\216\306-\255\276\274\355>\266\1774\023"
 249      848EC62D 
 249      ADBEBCED 
 249      3EB67F34 
 249      13
 250 00c3 3F3F8219 		.ascii	"??\202\031i\344o\311\320{\032\361\262\235\264\205\203"
 250      69E46FC9 
 250      D07B1AF1 
 250      B29DB485 
 250      83
 251 00d4 706FC0E1 		.ascii	"po\300\341\345\330\264\264\204\245\263\257\373\235\217"
 251      E5D8B4B4 
 251      84A5B3AF 
ARM GAS  /tmp/ccu9gkU5.s 			page 19


 251      FB9D8F
 252 00e3 7B33167A 		.ascii	"{3\026zG\353\317\327\265B<1\217\344\"\275\206\033a\253"
 252      47EBCFD7 
 252      B5423C31 
 252      8FE422BD 
 252      861B61AB 
 253 00f7 83268548 		.ascii	"\203&\205H\014\027\215<\022y\230\016\222D\377\321\222"
 253      0C178D3C 
 253      1279980E 
 253      9244FFD1 
 253      92
 254 0108 C109E323 		.ascii	"\301\011\343#6}cgp\212\316\230zO+\027\017\023_\320\270"
 254      367D6367 
 254      708ACE98 
 254      7A4F2B17 
 254      0F135FD0 
 255 011d 38C6405E 		.ascii	"8\306@^W\367\366\311\202\347\332Ry\271\212\314\331\363"
 255      57F7F6C9 
 255      82E7DA52 
 255      79B98ACC 
 255      D9F3
 256 012f 52159CAC 		.ascii	"R\025\234\254\343\005\262\344\227\2133\222\023\277$"
 256      E305B2E4 
 256      978B3392 
 256      13BF24
 257 013e 035F71DD 		.ascii	"\003_q\335\315z\013v\220R\324\344\347*n\220\037\370"
 257      CD7A0B76 
 257      9052D4E4 
 257      E72A6E90 
 257      1FF8
 258 0150 EBA5BD50 		.ascii	"\353\245\275P\222\203#\351\341\264t\212j\266\234\323"
 258      928323E9 
 258      E1B4748A 
 258      6AB69CD3 
 259 0160 BDBE3DAD 		.ascii	"\275\276=\255\334\241rQ\245\012\324:\222\036\265\262"
 259      DCA17251 
 259      A50AD43A 
 259      921EB5B2 
 260 0170 99C09EF3 		.ascii	"\231\300\236\363\235\036\253\273\227\204OI\327v=\277"
 260      9D1EABBB 
 260      97844F49 
 260      D7763DBF 
 261 0180 42EFBAA0 		.ascii	"B\357\272\240\207\241"
 261      87A1
 262              		.text
 263              		.section	.gnu.lto_chMBPostI.b9c38651ed2d0fcc,"",%progbits
 264 0000 789C8D53 		.ascii	"x\234\215SMh\023Q\020\376\346\355O\376c(\275\327CQ\260"
 264      4D681351 
 264      10FEE6ED 
 264      4FFE6328 
 264      BDD74351 
 265 0015 D045BD78 		.ascii	"\320E\275x\364*x\264`\217\315&t\027M\003I+j\017\331"
 265      F42A78B4 
 265      608FCD26 
 265      74174D03 
 265      492B6A0F 
 266 002a 3411028A 		.ascii	"4\021\002\212\344X\324 \"x\360P\217\212\364P\361\242"
ARM GAS  /tmp/ccu9gkU5.s 			page 20


 266      E458D420 
 266      2278F050 
 266      8F8AF450 
 266      F1A2
 267 003c D41FBC08 		.ascii	"\324\037\274\010-\036\004A/B\275U\252\020gv\367%\261"
 267      2D1E0441 
 267      2F42BD55 
 267      AA106776 
 267      F725B1
 268 004f 48EB83CC 		.ascii	"H\353\203\314\233\2747\3377\337\314\233UP\330\277\316"
 268      9BBC37DF 
 268      37DFCC9B 
 268      5550D8BF 
 268      CE
 269 0060 F3EFAC01 		.ascii	"\363\357\254\001x\274S\002\244\272\357\200fR){\225\020"
 269      78BC5302 
 269      A4BAEF80 
 269      6652297B 
 269      9510
 270 0072 A48D9F6F 		.ascii	"\244\215\237o\200 k(\263s\234\377Zb\263&YQ\224Ev\344"
 270      80206B28 
 270      B3739CFF 
 270      5A62B326 
 270      59519445 
 271 0088 D844E280 		.ascii	"\330D\342\200\320P\206i\331\324\230\245\220\376\211"
 271      D0508669 
 271      D9D498A5 
 271      90FE89
 272 0097 DAF8DCEF 		.ascii	"\332\370\334\357\257}\274\275v\213\326\3258\301'\230"
 272      AF7DBCBD 
 272      768BD6D5 
 272      38C12798 
 273 00a7 5421D8EC 		.ascii	"T!\330\354Q\222\215J\211\311\360\031\345\304\313\213"
 273      51928D4A 
 273      89C9F019 
 273      E5C4CB8B 
 274 00b7 29B031C6 		.ascii	")\2601\306$\2049,\264\203\240{\024pC\316\013l%\331\014"
 274      2484392C 
 274      B483A07B 
 274      147043CE 
 274      0B6C25D9 
 275 00cc 29D98DB7 		.ascii	")\331\215\267Xy~\343K\317\001\346\311\276\213;\344\223"
 275      58797EE3 
 275      4BCF01E6 
 275      C9BE8B3B 
 275      E493
 276 00de 394FE645 		.ascii	"9O\346E\336\215\311\250\310Wh\177m\346\346\350\001Y"
 276      DE8DC9A8 
 276      C857687F 
 276      6DE6E6E8 
 276      0159
 277 00f0 12245734 		.ascii	"\022$W4\332\204\0312\300\2052U\253\363\362\351\346\375"
 277      DA841932 
 277      C0853255 
 277      ABF3F2E9 
 277      E6FD
 278 0102 33839411 		.ascii	"3\203\224\021\006\302=\026#\315\276^\324\0008\373\271"
ARM GAS  /tmp/ccu9gkU5.s 			page 21


 278      06C23D16 
 278      23CDBE5E 
 278      D40038FB 
 278      B9
 279 0113 397AC841 		.ascii	"9z\310A\234\272\031\004\205avk2\006\206Q\333\237\276"
 279      9CBA1904 
 279      8561766B 
 279      32068651 
 279      DB9FBE
 280 0126 F7125A42 		.ascii	"\367\022ZBr\012'\270\314H\255\035\307'B-\305\2012Vs"
 280      720A27B8 
 280      CC48AD1D 
 280      C727422D 
 280      C5813256 
 281 013b B3F58834 		.ascii	"\263\365\2104&\3050\011K\232\320i\345b\012\217\003^"
 281      26C53009 
 281      4B9AD069 
 281      E5620A8F 
 281      035E
 282 014d 470EA163 		.ascii	"G\016\241c|\210\332\354f\"\\$7H\360\203\304\304*\016"
 282      7C88DAEC 
 282      66225C24 
 282      3748F083 
 282      C4C42A0E 
 283 0161 CC447A57 		.ascii	"\314DzWw\266\014\235;w\220^-\230\273\374m\330e\226\233"
 283      77B60C9D 
 283      3B77905E 
 283      2D98BBFC 
 283      6DD86596 
 284 0176 1BEDB089 		.ascii	"\033\355\260\211\365c\362V\333\317v^\014x\363\007\361"
 284      F563F256 
 284      DBCF765E 
 284      0C78F307 
 284      F1
 285 0187 EA6165D0 		.ascii	"\352ae\320\353\037\351\277\252=yh\265y\235\327\212_"
 285      EB1FE9BF 
 285      AA3D7968 
 285      B5799DD7 
 285      8A5F
 286 0199 7665AFF5 		.ascii	"ve\257\365\2537\241\023\027\226q\235\347#\246\233\365"
 286      AB37A113 
 286      1796719D 
 286      E723A69B 
 286      F5
 287 01aa 29F56F3A 		.ascii	")\365o:cX\302{\2647&\364<,c/\350\310c\247\335\270~\346"
 287      6358C27B 
 287      B43726F4 
 287      3C2C632F 
 287      E8C863A7 
 288 01c2 F4A57551 		.ascii	"\364\245uQV;\034\315\017\374i\310M\030\261\005\022f"
 288      563B1CCD 
 288      0FFC69C8 
 288      4D18B105 
 288      1266
 289 01d4 8C8C8FBA 		.ascii	"\214\214\217\272\267;\036\236\361\220\377\336\315\312"
 289      B73B1E9E 
 289      F190FFDE 
ARM GAS  /tmp/ccu9gkU5.s 			page 22


 289      CDCA
 290 01e2 6C9300A5 		.ascii	"l\223\000\245\362S\216W\255\224\035\267Z\272\346\224"
 290      F2538E57 
 290      AD941DB7 
 290      5ABAE694 
 291 01f2 CA571CD7 		.ascii	"\312W\034\327\363\213~\265\356,\326\226\026.9\354\324"
 291      F38B7EB5 
 291      EE2CD696 
 291      162E39EC 
 291      D4
 292 0203 169D7ACD 		.ascii	"\026\235z\315\345\363J\261z\265\\\237vq\372? \376\202"
 292      E5F34AB1 
 292      7AB55C9F 
 292      7671FA3F 
 292      20FE82
 293 0216 7B79A9C4 		.ascii	"{y\251\304A^\275\\\231\366\360\007i\031\346\331"
 293      415EBD5C 
 293      99F6F007 
 293      6919E6D9 
 294              		.text
 295              		.section	.gnu.lto_chMBPostAheadS.b9c38651ed2d0fcc,"",%progbits
 296 0000 789C5D8F 		.ascii	"x\234]\217MK\002Q\024\206\317{g4\265\026\255[\204\264"
 296      4D4B0251 
 296      1486CF7B 
 296      6734B516 
 296      AD5B84B4 
 297 0014 0DBA14B4 		.ascii	"\015\272\024\264\212\376\205B-u\224q\210i\300\261\310"
 297      8AFE8542 
 297      2D759471 
 297      8869C0B1 
 297      C8
 298 0025 5C783583 		.ascii	"\\x5\203\026.$h\321\307\"\0117n\372\003\201\006\005"
 298      162E2468 
 298      D1C72209 
 298      376EFA03 
 298      810605
 299 0038 117D10F8 		.ascii	"\021}\020\370\003\334\265n+\201\235\353\244X\007f\336"
 299      03DCB56E 
 299      2B819DEB 
 299      A4580766 
 299      DE
 300 0049 7BCF3DE7 		.ascii	"{\317=\3479\357\021$\350\177\254\362W\005\321\006+B"
 300      39EF1124 
 300      E87FACF2 
 300      5705D106 
 300      2B42
 301 005b 04D17823 		.ascii	"\004\321x#\252D\2040z\222T\314\274[$5g\300\324i\230"
 301      AA448430 
 301      7A9254CC 
 301      BC5B2435 
 301      67C0D469 
 302 0070 80560295 		.ascii	"\200V\002\225\205a\242\274\015\215\300\0225\225j\364"
 302      8561A2BC 
 302      0D8DC012 
 302      35956AF4 
 303 0080 1FDBCF38 		.ascii	"\037\333\3178W\335\332\265\372\036\016\001\007<n\035"
 303      57DDDAB5 
ARM GAS  /tmp/ccu9gkU5.s 			page 23


 303      FA1E0E01 
 303      073C6E1D 
 304 0090 6481B6F8 		.ascii	"d\201\266\370\202\370H\204\371w\376\255\350\366\207"
 304      82F84884 
 304      F977FEAD 
 304      E8F687
 305 009f C3ABB356 		.ascii	"\303\253\263V\275\216\027\021\003\\\335\346\200\361"
 305      BD8E1711 
 305      035CDDE6 
 305      80F1
 306 00ad 2E10A614 		.ascii	".\020\246\024\232\314\217\362E{\017Q\215'\305\203$i"
 306      9ACC8FF2 
 306      457B0F51 
 306      8D27C583 
 306      2469
 307 00bf 344782FF 		.ascii	"4G\202\377\332V\222KX\215W\252\016\216:\255\315\024"
 307      DA56924B 
 307      588D57AA 
 307      0E8E3AAD 
 307      CD14
 308 00d1 6E78231B 		.ascii	"nx#\033\242D\207\014\\\246\266\3428c\023\346%]\260\204"
 308      A244870C 
 308      5CA6B6E2 
 308      386313E6 
 308      255DB084 
 309 00e5 6C407B0A 		.ascii	"l@{\012\217\234\2441e\353\235\216\273\013c@\270D\003"
 309      8F9CA431 
 309      65EB9D8E 
 309      BB0B6340 
 309      B84403
 310 00f8 75A2E61D 		.ascii	"u\242\346\035\314X\010\252\230j\303t\020!z\242\207\317"
 310      CC5808AA 
 310      986AC374 
 310      10217AA2 
 310      87CF
 311 010a FBAF5363 		.ascii	"\373\257ScR\255\221\321\351\035\2230\250'\015fF\202"
 311      52AD91D1 
 311      E91D9330 
 311      A8270D66 
 311      4682
 312 011c 22A20931 		.ascii	"\"\242\0111fA\374\022a#\352`v\334c\216\226\371\240J"
 312      6641FC12 
 312      6123EA60 
 312      76DC638E 
 312      96F9A04A 
 313 0130 BFE34CD8 		.ascii	"\277\343L\330\301c\202]\360\243n\\\2239\317\315J\313"
 313      C163825D 
 313      F0A36E5C 
 313      9339CFCD 
 313      4ACB
 314 0142 CB146526 		.ascii	"\313\024e&\273/\255\234\223v<_\026\362{\273;\222\017"
 314      BB2FAD9C 
 314      93763C5F 
 314      16F27BBB 
 314      3B920F
 315 0155 F982F4F3 		.ascii	"\371\202\364\363\026\347\335\264w\220\365W,\012\347"
 315      16E7DDB4 
ARM GAS  /tmp/ccu9gkU5.s 			page 24


 315      7790F557 
 315      2C0AE7
 316 0164 3345D7B7 		.ascii	"3E\327\267\177\000\230\370ok"
 316      7F0098F8 
 316      6F6B
 317              		.text
 318              		.section	.gnu.lto_chMBPostAhead.b9c38651ed2d0fcc,"",%progbits
 319 0000 789C8D8F 		.ascii	"x\234\215\217\317+\004a\030\307\237\357;;V\2718r\321"
 319      CF2B0461 
 319      18C79FEF 
 319      3B3B56B9 
 319      3872D1
 320 0013 A4DCB4AF 		.ascii	"\244\334\264\257\224\273R\312\301\305R\234\264\373\356"
 320      94BB52CA 
 320      C1C5529C 
 320      B4FBEE
 321 0022 B43B313B 		.ascii	"\264;1;\232\331\225M\332!\311AB\016\034\024)\345D\376"
 321      9AD9954D 
 321      DA21C941 
 321      420E1C14 
 321      29E544FE 
 322 0036 017B7150 		.ascii	"\001{qP\"w\007\345\037\340\352G\343yg\020.<\323<\317"
 322      227707E5 
 322      1FE0EA47 
 322      E3796710 
 322      2E3CD33C 
 323 004b F33EEFF3 		.ascii	"\363>\357\363>\237\357#H\320ok\347\177\011D;\034a\020"
 323      3E9FEF23 
 323      48D06F6B 
 323      E77F0944 
 323      3B1C6110 
 324 005f C4C635D1 		.ascii	"\304\3065\321b\263\000tB\240\272@}\002\272\025\235t"
 324      62B30074 
 324      42A0BA40 
 324      7D02BA15 
 324      9D74
 325 0071 10861BF7 		.ascii	"\020\206\033\367\027/\227\330\015\033\313\373\341k\024"
 325      172F97D8 
 325      0D1BCBFB 
 325      E16B14
 326 0080 010E786C 		.ascii	"\001\016xl\037H\201\306\371\000+\016\"\365\223s\"\032"
 326      1F4881C6 
 326      F9002B0E 
 326      22F59373 
 326      221A
 327 0092 F75174F7 		.ascii	"\367Qt\367\266\277v\205s\321b\300\005\245\330\301d'"
 327      B6BF7685 
 327      73D162C0 
 327      05A5D8C1 
 327      6427
 328 00a4 D294C301 		.ascii	"\322\224\303\001\317g3i\231!\326\347Y\305\350Q\366Z"
 328      CF673369 
 328      9921D6E7 
 328      59C5E851 
 328      F65A
 329 00b6 CF18848E 		.ascii	"\317\030\204\216\3065-=\275n?\264}4\023??\204\031\213"
 329      C6352D3D 
ARM GAS  /tmp/ccu9gkU5.s 			page 25


 329      BD6E3FB4 
 329      7D34133F 
 329      3F84198B 
 330 00ca E46FC1D0 		.ascii	"\344o\301\320\213\032\311\266\035\264\216\275p\247\337"
 330      8B1AC9B6 
 330      1DB48EBD 
 330      70A7DF
 331 00d9 E1EDD8B4 		.ascii	"\341\355\330\264\266\224\245\263\257\373\315\217{3Q"
 331      B694A5B3 
 331      AFFBCD8F 
 331      7B3351
 332 00e8 7A432B8F 		.ascii	"zC+\217[Q)\231XDz\236\236\303\325\260\325A\223B,\206"
 332      5B512999 
 332      58447A9E 
 332      9EC3D5B0 
 332      D5419342 
 333 00fe 8B4611A9 		.ascii	"\213F\021\251\"L\007i\242\377h\311\341\210\3611\233"
 333      224C0769 
 333      A2FF68C9 
 333      E188F131 
 333      9B
 334 010f BEB17338 		.ascii	"\276\261s8FGB\275\245\305\323\263\372\0274)\2162\220"
 334      464742BD 
 334      A5C5D3B3 
 334      FA173429 
 334      8E3290
 335 0122 D7D5BDBD 		.ascii	"\327\325\275\275\262\344\271\266T^\241&\013\366\254"
 335      B2E4B9B6 
 335      545EA126 
 335      0BF6AC
 336 0131 542527EF 		.ascii	"T%'\357x\201\254\370\325\362\224\344\304\257\310\300"
 336      7881ACF8 
 336      D5F294E4 
 336      C4AFC8C0 
 337 0141 575C77F3 		.ascii	"W\\w\363\336\234\035d\0245\371\205\232\033\024\373\377"
 337      DE9C1D64 
 337      1435F985 
 337      9A1B14FB 
 337      FF
 338 0152 7A69CF55 		.ascii	"zi\317U\344\300pv(+\235\262\232\256\026t\257oO*w\260"
 338      E4C07076 
 338      282B9DB2 
 338      9AAE1674 
 338      AF6F4F2A 
 339 0168 5A569912 		.ascii	"ZV\231\022\265\016gG\254|.\260g|\247\333\352\352!\341"
 339      B50E6747 
 339      AC7C2EB0 
 339      677CA7DB 
 339      EAEA21E1 
 340 017c 53DAB55D 		.ascii	"S\332\265]\317\257\321;\2522\210\216"
 340      CFAFD13B 
 340      AA32888E 
 341              		.text
 342              		.section	.gnu.lto_chMBPostAheadI.b9c38651ed2d0fcc,"",%progbits
 343 0000 789C8D53 		.ascii	"x\234\215S\315k\023Q\020\237yow\363\271$\224\352\321"
 343      CD6B1351 
 343      109F796F 
ARM GAS  /tmp/ccu9gkU5.s 			page 26


 343      77F3B924 
 343      94EAD1
 344 0013 7A28162C 		.ascii	"z(\026,t\321^\252\377\201\320\243\001{l6\241\273h\032"
 344      74D15EAA 
 344      FF81D0A3 
 344      017B6C36 
 344      A1BB681A 
 345 0027 485A517B 		.ascii	"HZQ{\310\346C\010x\311Q\224RE\260\340A/BE\244\024\365"
 345      C8E64308 
 345      78C95194 
 345      5245B0E0 
 345      412F4245 
 346 003e 5069B411 		.ascii	"Pi\264\021/\032<\364\242'A\217\245\024\342\314\356\276"
 346      2F1A3CF4 
 346      A227418F 
 346      A514E2CC 
 346      EEBE
 347 0050 267ED0F6 		.ascii	"&~\320\366A\346M\366\375\3467\277\2317O\200\200\277"
 347      41E64DF6 
 347      FDE637BF 
 347      99374F80 
 347      80BF
 348 0062 D734FD1E 		.ascii	"\3274\375\036H\000\207v\214\000\212\326\007\200jT\010"
 348      48008776 
 348      8C008AD6 
 348      07806A54 
 348      08
 349 0073 E32E8217 		.ascii	"\343.\202\027\227\273m\000/)\205\326\034\243\277:\333"
 349      97BB6D00 
 349      2F2985D6 
 349      1CA3BF3A 
 349      DB
 350 0084 A4867A80 		.ascii	"\244\206z\200\322\321\010\034\003\221\035@\250\010\251"
 350      D2D1081C 
 350      03911D40 
 350      A808A9
 351 0093 E9065666 		.ascii	"\351\006Vf\320\247\177&6vz\275\247\235O\317\277\342"
 351      D0A77F26 
 351      36767ABD 
 351      A79D4FCF 
 351      BFE2
 352 00a5 B63889E0 		.ascii	"\2668\211\340\"hX@0\310\303(\031\021c\223`\223dc\262"
 352      22685840 
 352      30C8C328 
 352      19116393 
 352      60936463 
 353 00ba 49B14913 		.ascii	"I\261I\023\016\207\310\223\303\014&6\035\032\236\327"
 353      0E87C893 
 353      C30C2636 
 353      1D1A9ED7 
 354 00ca 3A0D60FB 		.ascii	":\015`\373\354\227\311r\332\014\012\336\345{\250\275"
 354      EC97C972 
 354      DA0C0ADE 
 354      E57BA8BD 
 355 00da BCBDB66A 		.ascii	"\274\275\266j\001\314\241q\037\356\241\213\332\034j"
 355      01CCA171 
 355      1FEEA18B 
ARM GAS  /tmp/ccu9gkU5.s 			page 27


 355      DA1C6A
 356 00e9 576897A3 		.ascii	"Wh\227\243A\271\233\320\370^5g\361!\352\014\342#\034"
 356      41B99BD0 
 356      F85E3567 
 356      F121EA0C 
 356      E2231C
 357 00fc 6C470625 		.ascii	"lG\006%P\311DUo\276Y\333Z\231:H\031\304\000s\017\207"
 357      50C94455 
 357      6FBE59DB 
 357      5A993A48 
 357      19C40073 
 358 0112 915A4F2D 		.ascii	"\221ZO-\254\000P\366K\263\370\210@\224\272\352y\351"
 358      AC0050F6 
 358      4BB3F888 
 358      4094BAEA 
 358      79E9
 359 0124 7E767D34 		.ascii	"~v}4\014\364Q\335\366\316\230R\020\035\207\263Tj \326"
 359      0CF451DD 
 359      F6CE9852 
 359      101D87B3 
 359      546A20D6 
 360 0138 08E1115F 		.ascii	"\010\341\021_J\366@\030\211\271S?\245Bb\024\305\250"
 360      4AF64018 
 360      89B9533F 
 360      A5426214 
 360      C5A8
 361 014a E83E254E 		.ascii	"\350>%N\371\307\265w\035\014\216\307\341\211G\353\302"
 361      F9C7B577 
 361      1D0C8EC7 
 361      E18947EB 
 361      C2
 362 015b 119CC412 		.ascii	"\021\234\304\022Hi\245\024m\3420%J\312&\274\375\326"
 362      4869A514 
 362      6DE23025 
 362      4ACA26BC 
 362      FDD6
 363 016d 6F1F2949 		.ascii	"o\037)I\014\266N\203Wg\370\022\272/\326_K\005J\036\306"
 363      0CB64E83 
 363      5767F812 
 363      BA2FD65F 
 363      4B054A1E 
 364 0182 2B062B7C 		.ascii	"+\006+|,T\214Ia\377\224\370+\376G\211\347\216,\321T"
 364      2C548C49 
 364      61FF94F8 
 364      2BFE4789 
 364      E78E2CD1 
 365 0197 BAF4F04A 		.ascii	"\272\364\360Jk\335\317\353\027U\216\324\361:_\333\352"
 365      6BDDCFEB 
 365      17558ED4 
 365      F13A5FDB 
 365      EA
 366 01a8 8479835B 		.ascii	"\204y\203[\365\"4\301\024\315h\021&J\373\300\275\372"
 366      F52234C1 
 366      14CD6811 
 366      264AFBC0 
 366      BDFA
 367 01ba CFD511C5 		.ascii	"\317\325\021\305>\264\004\267h\352B\2553.\306\376\237"
ARM GAS  /tmp/ccu9gkU5.s 			page 28


 367      3EB404B7 
 367      68EA42AD 
 367      332EC6FE 
 367      9F
 368 01cb 48F6FBB7 		.ascii	"H\366\373\267\015\215\215\0215eK\260\3475y\204\342v"
 368      0D8D8D11 
 368      35654BB0 
 368      E7357984 
 368      E276
 369 01dd D87CE274 		.ascii	"\330|\342tU\2733h\370\003\377\221\236\036\237\370\210"
 369      55BB3368 
 369      F803FF91 
 369      9E1E9FF8 
 369      88
 370 01ee 2F80CC0C 		.ascii	"/\200\314\014\003C)~,\237\360\277\321\323i\257\230\374"
 370      0343297E 
 370      2C9FF0BF 
 370      D1D369AF 
 370      98FC
 371 0200 62900359 		.ascii	"b\220\003Y\370y\313)\026\362\226]\314\335\264r\371\353"
 371      F879CB29 
 371      16F2965D 
 371      CCDDB472 
 371      F9EB
 372 0212 96EDB859 		.ascii	"\226\355\270Y\267X\266\026J\213\363W-rJ\013V\271d\323"
 372      B758B616 
 372      4A8BF357 
 372      2D724A0B 
 372      56B964D3 
 373 0226 F742B678 		.ascii	"\367B\266x#_\236\260a\362\030!\356\274}m1G \247\234"
 373      235F9EB0 
 373      61F21821 
 373      EEBC7D6D 
 373      314720A7 
 374 023b 2F4C38F0 		.ascii	"/L8\360\033u\210\376_"
 374      1B7588FE 
 374      5F
 375              		.text
 376              		.section	.gnu.lto_chMBFetchS.b9c38651ed2d0fcc,"",%progbits
 377 0000 789C5D8F 		.ascii	"x\234]\217\261KBQ\024\306\317w\337\323\324\032ZZ\032"
 377      B14B4251 
 377      14C6CF77 
 377      DFD3D41A 
 377      5A5A1A
 378 0013 425A832E 		.ascii	"BZ\203.\005M\321\177\241P\243>\345\371\220\327\003\265"
 378      054DD17F 
 378      A150A33E 
 378      E5F990D7 
 378      03B5
 379 0025 C81ABC96 		.ascii	"\310\032\274\226A\243KD\265$m-\016\2155\0304DP\021\270"
 379      41A34B44 
 379      B5246D2D 
 379      0E8D3518 
 379      34445011 
 380 003a B508112D 		.ascii	"\265\010\021-\355\201(\257s})\326\201\367\276{\317="
 380      ED8128AF 
 380      737D29D6 
ARM GAS  /tmp/ccu9gkU5.s 			page 29


 380      81F7BE7B 
 380      CF3D
 381 004c E777BE23 		.ascii	"\347w\276#H\320\377X\342\257\012\242UV\204\010\242\376"
 381      48D0FF58 
 381      E2AF0AA2 
 381      55568408 
 381      A2FE
 382 005e CC898810 		.ascii	"\314\211\210\020F[\222\212\231\267s\244\246\014\230"
 382      465B928A 
 382      99B773A4 
 382      A60C98
 383 006d 3A0D13D0 		.ascii	":\015\023\320J\240\2120LT6\240\021\230\247\206R\365"
 383      4AA08A30 
 383      4C5436A0 
 383      1198A786 
 383      52F5
 384 007f CEC7F723 		.ascii	"\316\307\367#NU\253v\241z\276\0178\340q+ \013\264\316"
 384      4E55AB76 
 384      A17ABE0F 
 384      38E0712B 
 384      200BB4CE 
 385 0093 17C40722 		.ascii	"\027\304\007\"\314\277\363\233\242\325\361\375\257\233"
 385      CCBFF39B 
 385      A2D5F1FD 
 385      AF9B
 386 00a1 FE7B1F33 		.ascii	"\376{\03731\300\325]\016\230\356\002aJ\241\301\370("
 386      31C0D55D 
 386      0E98EE02 
 386      614AA1C1 
 386      F828
 387 00b3 5FB4F510 		.ascii	"_\264\365\020\325xP<H\222&s$\370\257]%\271\204\325x"
 387      D578503C 
 387      48922673 
 387      24F8AF5D 
 387      25B984D5 
 388 00c8 A2FDEEC1 		.ascii	"\242\375\356\301us-\205K^\310\206\330\243]\006.\320"
 388      75732D85 
 388      4B5EC886 
 388      D8A35D06 
 388      2ED0
 389 00da 95E23866 		.ascii	"\225\3428f\017\3469\235\261\204l@[\012\017\214\2441"
 389      0FE6399D 
 389      B1846C40 
 389      5B0A0F8C 
 389      A431
 390 00ec E6EA850E 		.ascii	"\346\352\205\016[\263C@x\217\272\352HM;\230\260\020"
 390      5BB34340 
 390      788FBAEA 
 390      484D3B98 
 390      B010
 391 00fe 5431D586 		.ascii	"T1\325\206\351 B\364@\367\237wo'\306\250Z#\243\343+"
 391      E92042F4 
 391      40F79F77 
 391      6F27C6A8 
 391      5A23A3E3 
 392 0113 2661505B 		.ascii	"&aP[\032\314\214\004ED#b\314\202\370%\302F\324\301\344"
 392      1ACC8C04 
ARM GAS  /tmp/ccu9gkU5.s 			page 30


 392      45442362 
 392      CC82F825 
 392      C246D4C1 
 393 0128 B0C71C2C 		.ascii	"\260\307\034,\363J\325N/?b\007\217\011v\301\217\272"
 393      F34AD54E 
 393      2F3F6207 
 393      8F0976C1 
 393      8FBA
 394 013a 7159E63C 		.ascii	"qY\346<7+-/S\226\231\354\266\264rN\332\361\212\262T"
 394      372B2D2F 
 394      539699EC 
 394      B6B4724E 
 394      DAF18AB2 
 395 014f D8DACC4B 		.ascii	"\330\332\314K>\024J\262X\2608\357\246\275\235lq\321"
 395      3E144AB2 
 395      58B038EF 
 395      A6BD9D6C 
 395      71D1
 396 0161 A2702153 		.ascii	"\242p!Sv\213\366\017u&p\340"
 396      768BF60F 
 396      752670E0 
 397              		.text
 398              		.section	.gnu.lto_chMBFetch.b9c38651ed2d0fcc,"",%progbits
 399 0000 789C8D8F 		.ascii	"x\234\215\217\301+\004q\024\307\337\3677;V\271\270("
 399      C12B0471 
 399      14C7DFF7 
 399      373B56B9 
 399      B828
 400 0012 2E9A949B 		.ascii	".\232\224\233\374\244\334\225R\016.\226\342\244\335"
 400      FCA4DC95 
 400      520E2E96 
 400      E2A4DD
 401 0021 DF4EBBBF 		.ascii	"\337N\273\277\230\035\315\354\312&\031\233\344$\312"
 401      981DCDEC 
 401      CA26199B 
 401      E424CA
 402 0030 818322A5 		.ascii	"\201\203\"\245\224\342\"\2719;\220\377@\344\342\304"
 402      94E222B9 
 402      393B90FF 
 402      40E4E2C4 
 403 0040 91D47ABF 		.ascii	"\221\324z\277\031\204\013o\232\367\336\357\375\336\357"
 403      19840B6F 
 403      9AF7DEEF 
 403      FDDEEF
 404 004f 7DBE4F90 		.ascii	"}\276O\220\240\337\326\306\177\015D[\034a\021\304\372"
 404      A0DFD6C6 
 404      7F0D445B 
 404      1C6111C4 
 404      FA
 405 0060 15D152A3 		.ascii	"\025\321R\243\000LB\240E\201\305\011\230Vt\320^\024"
 405      004C42A0 
 405      4581C509 
 405      985674D0 
 405      5E14
 406 0072 ADDF3E3C 		.ascii	"\255\337><^b;\272X\336\215\336\352u@\203\307\366\201"
 406      5E623BBA 
 406      58DE8DDE 
ARM GAS  /tmp/ccu9gkU5.s 			page 31


 406      EA754083 
 406      C7F681
 407 0085 14689C0F 		.ascii	"\024h\234\017p\342 R?9\307\342\342\266^?:}\271?GK\223"
 407      70E22052 
 407      3F39C7E2 
 407      E2B65E3F 
 407      3A7DB93F 
 408 009c 050F9462 		.ascii	"\005\017\224b\007\233\235HS\026{<\236\315\246ef8\237"
 408      079B9D48 
 408      53167B3C 
 408      9ECDA665 
 408      66389F
 409 00af 67159347 		.ascii	"g\025\223G\331\0339c\020&ZWT{~\333\274o\375h&~\276\017"
 409      D91B3963 
 409      10265A57 
 409      547B7EDB 
 409      BC6FFD68 
 410 00c7 3BD6C8DF 		.ascii	";\326\310\337\202e\366\264\222e\333i\015;\321V\277\346"
 410      8265F6B4 
 410      9265DB69 
 410      0D3BD156 
 410      BFE6
 411 00d9 E5D88CB4 		.ascii	"\345\330\214\264\224c\262\257\373\215\217{;\021zM+O"
 411      9463B2AF 
 411      FB8D8F7B 
 411      3B117A4D 
 411      2B4F
 412 00eb 77A73A99 		.ascii	"w\247:\231X@z\236^\243\325\250Y\243A!\026\303E\253\200"
 412      58407A9E 
 412      5EA3D5A8 
 412      59A34121 
 412      16C345AB 
 413 0100 5401B646 		.ascii	"T\001\266F\232\350?Z\2628`|\314\246o\354,\016\321\236"
 413      9AE83F5A 
 413      B238607C 
 413      CCA66FEC 
 413      2C0ED19E 
 414 0114 506F68E9 		.ascii	"Poh\351\244v\206/jR\035e\"\357k\232{e\321\367\\\251"
 414      A476862F 
 414      6A521D65 
 414      22EF6B9A 
 414      7B65D1F7 
 415 012a FC7C55E6 		.ascii	"\374|U\346\335Y\251\212:\247\375P\226\203JiJr\022\224"
 415      DD59A98A 
 415      3AA7FD50 
 415      96834A69 
 415      4A721294 
 416 013e 651828AE 		.ascii	"e\030(\256{9\177\316\015\273\0255\004\371\252\027\026"
 416      7B397FCE 
 416      0DBB1535 
 416      04F9AA17 
 416      16
 417 014f FAFF7AE9 		.ascii	"\372\377z\351\316\225\345\300pf(#uIMW\362\2467p'\225"
 417      CE95E5C0 
 417      70662823 
 417      75494D57 
 417      F2A63770 
ARM GAS  /tmp/ccu9gkU5.s 			page 32


 418 0165 375829A9 		.ascii	"7X)\251\356\"5\017gF\234\\6tg\002\335\345t\366\220\010"
 418      EE22350F 
 418      67469C5C 
 418      36746702 
 418      DDE574F6 
 419 017b 28EDB99E 		.ascii	"(\355\271\236\037T\351\035\032\274\210'"
 419      1F54E91D 
 419      1ABC8827 
 420              		.text
 421              		.section	.gnu.lto_chMBFetchI.b9c38651ed2d0fcc,"",%progbits
 422 0000 789C8D53 		.ascii	"x\234\215S=hSQ\024\376\316}?\371i\232XJ\241[\235\024"
 422      3D685351 
 422      14FECE7D 
 422      3FF9699A 
 422      584AA15B 
 423 0016 2CF4A12E 		.ascii	",\364\241.n\316\202\243\005;6/\241\357\251I iE\355\220"
 423      6ECE82A3 
 423      053B362F 
 423      A1EFA949 
 423      206945ED 
 424 002b 979F42C0 		.ascii	"\227\237B\300\245\243\250 \342f\304:X\204\320\241\320"
 424      A5A3A820 
 424      E266C43A 
 424      5884D0A1 
 424      D0
 425 003c 45F10F07 		.ascii	"E\361\017\007Q\243\203 \324\301\305\261t\211\347\274"
 425      51A38320 
 425      D4C1C5B1 
 425      7489E7BC 
 426 004c 9FBC58A4 		.ascii	"\237\274X\244\365\302;\367\336w\276\363\235\363\335"
 426      F5C23BF7 
 426      DE77BEF3 
 426      9DF3DD
 427 005b 73AF82C2 		.ascii	"s\257\202\302\301q\221\277+\032\340\360L\011\220Z\177"
 427      C17191BF 
 427      2B1AE0F0 
 427      4C09905A 
 427      7F
 428 006c 0734924A 		.ascii	"\0074\222J\231w\010^Z\333{\003x\031M\351\235\223\274"
 428      9977085E 
 428      5ADB7B03 
 428      78194DE9 
 428      9D93BC
 429 007f 35C46674 		.ascii	"5\304ft2\002\224Af\2600\211d\001B]i\272aR}\201|\372"
 429      32029441 
 429      66B03089 
 429      6401425D 
 429      69BA6152 
 430 0097 0DB5FD7D 		.ascii	"\015\265\375}0x\332\353o<\241_j\212\340\022t*\021L^"
 430      3078DAEB 
 430      6F3CA15F 
 430      6A8AE012 
 430      742A114C 
 431 00ac 51928D4A 		.ascii	"Q\222\215J\211\031\223m\206\035\224\225mN\314\004\033"
 431      8919936D 
 431      861D9495 
 431      6D4ECC04 
ARM GAS  /tmp/ccu9gkU5.s 			page 33


 431      1B
 432 00bd 6D521C4C 		.ascii	"mR\034Ld\240\355y\353\307\001\333'\276\304V2\316\223"
 432      64A0ED79 
 432      EBC701DB 
 432      27BEC456 
 432      32CE93
 433 00d0 92597B8B 		.ascii	"\222Y{\213fo\255\273i\001Kd\336\303]rI_\"\3752\317\332"
 433      666FADBB 
 433      69014B64 
 433      DEC35D72 
 433      495F22FD 
 434 00e7 74A0F425 		.ascii	"t\240\364%\332\273\215\361EzH\206\200\304E\243'1O\032"
 434      DABB8DF1 
 434      457A4886 
 434      80C445A3 
 434      27314F1A 
 435 00fb 582D53B5 		.ascii	"X-S\265:;/^?87L\031\304@\270'\303H}\020\015\252\003"
 435      3A3B2F5E 
 435      3F38374C 
 435      19C440B8 
 435      27C3487D 
 436 0113 9CFDC222 		.ascii	"\234\375\302\"=b\020\247nx\336\2618\2731\035\006\372"
 436      3D6210A7 
 436      6E78DEB1 
 436      38BB311D 
 436      06FA
 437 0125 A8FEB7E7 		.ascii	"\250\376\267\347\2333Q\011\311Y\234b\231A\265f\210O"
 437      9B335109 
 437      C9599C62 
 437      9941B566 
 437      884F
 438 0137 F8B5E487 		.ascii	"\370\265\344\207\225q5\267[\273\024\305\2448L`I\035"
 438      957135B7 
 438      5BBB14C5 
 438      A4384C60 
 438      491D
 439 0149 515A71CC 		.ascii	"QZq\314\342\261\307\343\374\021t\034\357G\365\326\312"
 439      E2B1C7E3 
 439      FC11741C 
 439      EF47F5D6 
 439      CA
 440 015a 11E15880 		.ascii	"\021\341X\200G\310\253\206i\233\257\236\231\001(\320"
 440      47C8AB86 
 440      699BAF9E 
 440      990128D0 
 441 016a E4257C54 		.ascii	"\344%|T&Fqp \352s\367\253\026\361e\017\023\025\251\342"
 441      26467170 
 441      20EA73F7 
 441      AB16F165 
 441      0F1315A9 
 442 017f 56FC8C5B 		.ascii	"V\374\214[\301\232\262\243m\320\261uB\032\332\337\353"
 442      C19AB2A3 
 442      6DD0B175 
 442      421ADADF 
 442      EB
 443 0190 EE0C7973 		.ascii	"\356\014ys\207\361\216V\375;\375\327\221\234>\362Hr"
 443      87F18E56 
ARM GAS  /tmp/ccu9gkU5.s 			page 34


 443      FD3BFDD7 
 443      919C3EF2 
 443      4872
 444 01a2 515E236C 		.ascii	"Q^#l\177s\277\365#\356\322\304*n\361%\012\351\026\\"
 444      7F73BFF5 
 444      23EED2C4 
 444      2A6EF125 
 444      0AE9165C 
 445 01b6 4AFD9B4E 		.ascii	"J\375\233N\213%\274G{{&\2724\253\330\367:r#\322v\250"
 445      8B25BC47 
 445      7B7B26BA 
 445      34ABD8F7 
 445      3A7223D2 
 446 01cc 9F395D39 		.ascii	"\2379]9\272 \253\351\337\337\017\374\210\304\343#\276"
 446      BA20ABE9 
 446      DFDF0FFC 
 446      88C4E323 
 446      BE
 447 01dd 80841923 		.ascii	"\200\204\031#wLm}\234\362\377\361K\270\377i\\\036\000"
 447      774C6D7D 
 447      9CF2FFF1 
 447      4BB8FF69 
 447      5C1E00
 448 01f0 49A0283F 		.ascii	"I\240(?c9\225R\321\262+\205\233V\241x\335\262\0357\357"
 448      63399552 
 448      D1B22B85 
 448      9B56A178 
 448      DDB21D37 
 449 0205 566AD672 		.ascii	"Vj\326ru\245|\325\342Eu\331\252Um\376_\312Wn\024ks6"
 449      75A57CD5 
 449      E24575D9 
 449      AA556DFE 
 449      5FCA576E 
 450 021d CEFE4788 		.ascii	"\316\376G\210[\266\257\255\024\030\344\324\212\2459"
 450      5BB6AFAD 
 450      1418E4D4 
 450      8AA539
 451 022c 077F002F 		.ascii	"\007\177\000/\252\357\035"
 451      AAEF1D
 452              		.text
 453              		.section	.gnu.lto_.symbol_nodes.b9c38651ed2d0fcc,"",%progbits
 454 0000 789C4DCE 		.ascii	"x\234M\316\315N\302@\024\305\361{\356\264\205B\241\005"
 454      CD4EC240 
 454      14C5F17B 
 454      EEB48542 
 454      A105
 455 0012 1E80473D 		.ascii	"\036\200G=\030\0220q\343\013\310B6\276\207{\236\300"
 455      18123071 
 455      E30BC842 
 455      36BE877B 
 455      9EC0
 456 0024 8501BF50 		.ascii	"\205\001\277P4\306\350\3268\323\231\330\333\315\311"
 456      34C6E8D6 
 456      38D399D8 
 456      DBCDC9
 457 0033 2FFF69A7 		.ascii	"/\377i\247**GH|\364L)r\271\023!\257\316\241+%\014/\224"
 457      2A2A4748 
ARM GAS  /tmp/ccu9gkU5.s 			page 35


 457      7CF44C29 
 457      72B91321 
 457      AFCEA12B 
 458 004b 6AB8075D 		.ascii	"j\270\007]\342\306\363\001\314\014\017`n\370\004\026"
 458      E2C6F301 
 458      CC0C0F60 
 458      6EF80416 
 459 005b 868F60CF 		.ascii	"\206\217`\317\360\031\354\033\036\301\322\360\005\034"
 459      F019EC1B 
 459      1EC1D2F0 
 459      051C
 460 0069 18BE8243 		.ascii	"\030\276\202C\303\023X\031\276\201#\303wp\334\021?`"
 460      C3135819 
 460      BE8123C3 
 460      7770DC11 
 460      3F60
 461 007b 1DB95800 		.ascii	"\035\271X\000\237`\323\351\003\234t\372\002\247\235"
 461      9F60D3E9 
 461      039C74FA 
 461      02A79D
 462 008a BEC1D9BF 		.ascii	"\276\301\331\277\2344r\273:\315\235\324\262\015\213"
 462      9C3472BB 
 462      3ACD9DD4 
 462      B20D8B
 463 0099 4696EBB0 		.ascii	"F\226\353\260\265\034\202\265I[\307sn\"\313\264\255"
 463      B51C82B5 
 463      495BC773 
 463      6E22CBB4 
 463      AD
 464 00aa B3697CCF 		.ascii	"\263i|\317o{.\317\344\372\376\027.\367\337\015[\314"
 464      6F7B2ECF 
 464      E4FAFE17 
 464      2EF7DF0D 
 464      5BCC
 465 00bc 64DBAEC8 		.ascii	"d\333\256\310\376f\007\327+b\357\373\373\326wsW\246"
 465      FE6607D7 
 465      2B62EFFB 
 465      FBD67773 
 465      57A6
 466 00ce 5E22F641 		.ascii	"^\"\366A\031\373\320\337\037z\225z\245\261\217\252\330"
 466      19FBD0DF 
 466      1F7A957A 
 466      A5B18FAA 
 466      D8
 467 00df C7FE7F7C 		.ascii	"\307\376\177|\227?\004&\232\375"
 467      973F0426 
 467      9AFD
 468              		.text
 469              		.section	.gnu.lto_.refs.b9c38651ed2d0fcc,"",%progbits
 470 0000 789C6362 		.ascii	"x\234cb`b`d\200\002\000\000F\000\006"
 470      60626064 
 470      80020000 
 470      460006
 471              		.text
 472              		.section	.gnu.lto_.decls.b9c38651ed2d0fcc,"",%progbits
 473 0000 789CBD5A 		.ascii	"x\234\275Zip\024\307\025\236\231\225V\273\222\314a\307"
 473      697014C7 
ARM GAS  /tmp/ccu9gkU5.s 			page 36


 473      159E9995 
 473      56BB92CC 
 473      61C7
 474 0012 0EFE6539 		.ascii	"\016\376e9e\247\\\244\214@`\014?bpH\331\360\303\211"
 474      65A75CA4 
 474      8C40600C 
 474      3F627048 
 474      D9F0C389 
 475 0026 CBC415FF 		.ascii	"\313\304\025\377[\017\322\300\256\255\325\256wG\034"
 475      5B0FD2C0 
 475      AEADD5AE 
 475      77471C
 476 0035 29577910 		.ascii	")Wy\020H\306\\\221\226\323\204\3730G\011\0330\001s\330"
 476      48C65C91 
 476      96D384FB 
 476      3047091B 
 476      300173D8 
 477 0049 2C042481 		.ascii	",\004$\201@\002\231#\022e\020\346\210\301\007 \356\303"
 477      40029923 
 477      126510E6 
 477      88C10720 
 477      EEC3
 478 005b 28AF7B7A 		.ascii	"(\257{zv{Z\323\2733\213\223\255\352\351\236\231~\337"
 478      767B5AD3 
 478      BB338B93 
 478      ADEAE99E 
 478      997EDF
 479 006e 7BEFEBD7 		.ascii	"{\357\353\327\347\254$H\302J\267 t\302\357\347\301\202"
 479      E7AC2448 
 479      C24AB720 
 479      74C2EFE7 
 479      C182
 480 0080 F024947B 		.ascii	"\360$\224{\010\202\360\022$\011\3222H%\242\200\177\277"
 480      0882F012 
 480      2409D232 
 480      4825A280 
 480      7FBF
 481 0092 82E48772 		.ascii	"\202\344\207r%\244\031\220\346BZ\016i\015\244ZH\333"
 481      25A41990 
 481      E6425A0E 
 481      690DA45A 
 481      48DB
 482 00a4 21C52135 		.ascii	"!\305!5@j\202t\024R+\244\263\220.B\272\012\351&\244"
 482      406A8274 
 482      14522BA4 
 482      B3902E42 
 482      BA0AE926 
 483 00b9 3B901E88 		.ascii	";\220\036\210D\001\363C\370\217@\276\021\362n\220\347"
 483      4401F343 
 483      F88F40BE 
 483      11F26E90 
 483      E7
 484 00ca 43EA0DE5 		.ascii	"C\352\015\345\010\244\353\220J!\275+\352ve\203|\007"
 484      08A4EB90 
 484      4A21BD2B 
 484      EA766583 
 484      7C07
ARM GAS  /tmp/ccu9gkU5.s 			page 37


 485 00dc 94DD90DF 		.ascii	"\224\335\220\337\202<\013\236\215\205\\\205\364\036"
 485      823C0B9E 
 485      8D855C85 
 485      F41E
 486 00ea A4BF4172 		.ascii	"\244\277Ar\021LC7R\251A^!\232\365V>\244\336\361D\247"
 486      114C4337 
 486      52A9415E 
 486      219AF556 
 486      3EA4DEF1 
 487 0100 4AE9AD64 		.ascii	"J\351\255d\364N\205|\032\243w\006\321g\245\027\232\302"
 487      F44E857C 
 487      1AA37706 
 487      D167A517 
 487      9AC2
 488 0112 B66EC3E7 		.ascii	"\266n\303\347\367\211\356\031\214\356\030\344\263\030"
 488      F789EE19 
 488      8CEE18E4 
 488      B318
 489 0120 DDA8FDF2 		.ascii	"\335\250\375\362\020\246\220\324m\345o\016\000\334\025"
 489      10A690D4 
 489      6DE56F0E 
 489      00DC15
 490 012f F5387013 		.ascii	"\3658p\023}c)\177\337'>K\004\363\016\261a!\344\213 "
 490      7D63297F 
 490      DF273E4B 
 490      04F30EB1 
 490      6121E48B 
 491 0144 2D61F4A2 		.ascii	"-a\364\242\230\361R\272\220\017\251\364!=\206\316\367"
 491      98F152BA 
 491      900FA9F4 
 491      213D86CE 
 491      F7
 492 0155 298E2582 		.ascii	")\216%\202\205b\011\251\370\204\321\203\3422\007r\017"
 492      856209A9 
 492      F884D183 
 492      E2320772 
 492      0F
 493 0166 54DC0579 		.ascii	"T\334\005y.\344\371\220VP\374\241\237\213\324]N\370"
 493      2EE4F990 
 493      5650FCA1 
 493      9F8BD45D 
 493      4EF8
 494 0178 428FD731 		.ascii	"B\217\3271X(\276\215\2661\270\272N\3545l\177\0040EI"
 494      5828BE8D 
 494      B631B8BA 
 494      4EEC356C 
 494      7F043045 
 495 018d B7B91BE4 		.ascii	"\267\271\033\344\001\202e\264I-\211y?\271\377'\344["
 495      018265B4 
 495      492D8979 
 495      3FB9FF27 
 495      E45B
 496 019f 216D6174 		.ascii	"!mat\241~\344at\321>t\207\264\236\310H\244~-\301\334"
 496      A17EE461 
 496      74D13E74 
 496      87B49EC8 
 496      48A47E2D 
ARM GAS  /tmp/ccu9gkU5.s 			page 38


 497 01b5 09F99790 		.ascii	"\011\371\227\220\276b0\343\224\375n\212{\304q\017)\351"
 497      BE6230E3 
 497      94FD6E8A 
 497      7BC4710F 
 497      29E9
 498 01c7 03AA43C7 		.ascii	"\003\252C\307\231U\237\222\010\336UR\336\007y\035\243"
 498      99559F92 
 498      08DE5552 
 498      DE07791D 
 498      A3
 499 01d8 AFC1215F 		.ascii	"\257\301!_=!\257b\370j |U\222\373\003\220\037\204\324"
 499      3D21AF62 
 499      F86A207C 
 499      5592FB03 
 499      901F84D4 
 500 01ec C8E86A72 		.ascii	"\310\350jr\310\027\252\337@0\017C~\004R\013\203y\364"
 500      C817AADF 
 500      40300F43 
 500      7E04520B 
 500      8379F4
 501 01ff 21F862C7 		.ascii	"!\370b\307\002\211\340\031|\035\207\374\004\243\257"
 501      0289E019 
 501      7C1D87FC 
 501      04A3AF
 502 020e D5215F8F 		.ascii	"\325!_\217B>\223\360e\2147\255\204\257\031\344\3764"
 502      423E93F0 
 502      658C37AD 
 502      84AF19E4 
 502      FE34
 503 0220 E46720B5 		.ascii	"\344g \2653\272\316\246\341\3531Hm\024_\250~+\301<\017"
 503      33BACEA6 
 503      E1EB3148 
 503      6D145FA8 
 503      7E2BC13C 
 504 0235 F90548FF 		.ascii	"\371\005H\377a0/>$_\364\370%\011\311\371\002\225\177"
 504      61302F3E 
 504      245FF4F8 
 504      2509C9F9 
 504      02957F
 505 0248 82FC32A3 		.ascii	"\202\3742\243\357Q\241F\203_A\0038\360\226(\213\335"
 505      EF51A146 
 505      835F4103 
 505      38F09628 
 505      8BDD
 506 025a BCC2DBB8 		.ascii	"\274\302\333\270\220\357\305:\236\025VjZu\373\252Sb"
 506      90EFC53A 
 506      9E15566A 
 506      5A75FBAA 
 506      5362
 507 026c 812C2E13 		.ascii	"\201,.\023\037\005\240\201\242\320[X\013B\325\232\266"
 507      1F05A081 
 507      A2D05B58 
 507      0B42D59A 
 507      B6
 508 027d E7370C9E 		.ascii	"\3477\014\236-PI\030!\012\262\270\012\340dq\245\330"
 508      2D504918 
 508      210AB2B8 
ARM GAS  /tmp/ccu9gkU5.s 			page 39


 508      0AE06471 
 508      A5D8
 509 028f 5BD7A2C5 		.ascii	"[\327\242\305O.CZ\320c\201\274\260\370=-,Eu\2779\357"
 509      4F2E435A 
 509      D06381BC 
 509      B0F83D2D 
 509      2C4575BF 
 510 02a5 D562F916 		.ascii	"\325b\371\026\232\206\032\232<I\363OT5\325\210\2235"
 510      9A861A9A 
 510      3C49F34F 
 510      5435D588 
 510      9335
 511 02b7 0D5EACC5 		.ascii	"\015^\254\305>L\027E\223\006\202\263t(\017H\202Q\030"
 511      3E4C1745 
 511      930682B3 
 511      74280F48 
 511      825118
 512 02ca 89D43236 		.ascii	"\211\32426\267\357h<:Q\234\210\241km\030^\021?V\265"
 512      B7EF683C 
 512      3A519C88 
 512      A16B6D18 
 512      5E113F56 
 513 02df E8496DE9 		.ascii	"\350Im\351\0361O\230\012\267\332\322*mxC7\013?\226f"
 513      1E314F98 
 513      0AB7DAD2 
 513      2A6D7843 
 513      370B3F96 
 514 02f4 19FAFF98 		.ascii	"\031\372\377\230t\344x\325^Q\323<\262\270\021\273\361"
 514      74E478D5 
 514      5E51D33C 
 514      B2B811BB 
 514      F1
 515 0305 ADB51B7C 		.ascii	"\255\265\033|\030I\370\036\213l\356\342\306\264S\206"
 515      1849F81E 
 515      8B6CEEE2 
 515      C6B45386 
 516 0315 1B9B6DB9 		.ascii	"\033\233m\271q\217\270!\213\033\300\025I\270\221\300"
 516      718FB821 
 516      8B1BC015 
 516      49B891C0 
 517 0325 258A0B0C 		.ascii	"%\212\013\014\275(4IQ\377\221\012f\274\007u\371\325"
 517      BD283449 
 517      51FF910A 
 517      66BC0775 
 517      F9D5
 518 0337 B20176DF 		.ascii	"\262\001v\3371X\201\011lV\375Bl\234W\230\222\344X\260"
 518      31588109 
 518      6C56FD42 
 518      6C9C5798 
 518      92E458B0 
 519 034b 0423C4CE 		.ascii	"\004#\304\316ki:\"N\302\376\357\0041I8(\231\251\265"
 519      6B693A22 
 519      4EC2FEEF 
 519      04314938 
 519      2899A9B5 
 520 035f 0FD53A77 		.ascii	"\017\325:w\337n\261\002C\355\302Pw2\206\232\263`\347"
 520      DF6EB102 
ARM GAS  /tmp/ccu9gkU5.s 			page 40


 520      43EDC250 
 520      7732869A 
 520      B360E7
 521 0372 60DCDC7B 		.ascii	"`\334\334{0\320V\227\031H\026s\0224&\356\215\012\010"
 521      30D05697 
 521      19481673 
 521      123426EE 
 521      8D0A08
 522 0385 0DBF2605 		.ascii	"\015\277&\005\2642\355.\374\217\253K\302\036\227\215"
 522      B432ED2E 
 522      FC8FAB4B 
 522      C21E978D 
 523 0395 A6F3F0E2 		.ascii	"\246\363\360\342@k\337>\355\274\370\261\026\237\354"
 523      406BDF3E 
 523      EDBCF8B1 
 523      169FEC
 524 03a4 32BAA49B 		.ascii	"2\272\244\233\307\221$\354\307\272\352\331X\376z\361"
 524      C79124EC 
 524      C7BAEAD9 
 524      58FE7AF1 
 525 03b4 8F152496 		.ascii	"\217\025$\226\353m\305\362\326\306y\366\272\244\333"
 525      EB6DC5F2 
 525      D6C679F6 
 525      BAA4DB
 526 03c3 D05F82F5 		.ascii	"\320_\202\365O\313B\372\017\262\372O\177\373\335K\363"
 526      4FCB42FA 
 526      0FB2FA4F 
 526      7FFBDD4B 
 526      F3
 527 03d4 35AD87FE 		.ascii	"5\255\207\376*\275\372\323\315\263\273\252\227\305\227"
 527      2ABDFAD3 
 527      CDB3BBAA 
 527      97C597
 528 03e3 1E4F151A 		.ascii	"\036O\025\032_/\256\357 N\036\306}\346X\026\033\034"
 528      5F2FAEEF 
 528      204E1EC6 
 528      7DE65816 
 528      1B1C
 529 03f5 43F2CCCD 		.ascii	"C\362\314\315\007\367T\005I8\2250?\243.\013~\306\207"
 529      07F75405 
 529      49389530 
 529      3FA32E0B 
 529      7EC687
 530 0408 ACDDA469 		.ascii	"\254\335\244i\037\271\015\033\276u\214X`b\242\243\031"
 530      1FB90D1B 
 530      BE758C58 
 530      6062A2A3 
 530      19
 531 0419 0F023AD8 		.ascii	"\017\002:\330\005;`\334H\252\210_\247\301.9\0063[v\223"
 531      053B60DC 
 531      48AA885F 
 531      A7C12E39 
 531      06335B76 
 532 042e 06FBC90E 		.ascii	"\006\373\311\016X\017\276e\267i\260\016\307`f\313\356"
 532      580FBE65 
 532      B769B00E 
 532      C76066CB 
ARM GAS  /tmp/ccu9gkU5.s 			page 41


 532      EE
 533 043f D26037ED 		.ascii	"\322`7\355\200\365\342[v\237\006\273\353\030\314l\331"
 533      80F5E25B 
 533      769F06BB 
 533      EB18CC6C 
 533      D9
 534 0450 031AEC81 		.ascii	"\003\032\354\201\035\260\002\276e\325-\024XE\266S0\263"
 534      1DB002BE 
 534      65D52D14 
 534      5845B653 
 534      30B3
 535 0462 65311AAC 		.ascii	"e1\032\254\312\016\330s|\313f\323`S\035\203\231-\233"
 535      CA0ED873 
 535      7CCB66D3 
 535      60531D83 
 535      992D9B
 536 0475 4B83CDB4 		.ascii	"K\203\315\264\003\326\227o\331|\032,\346\030\314l\331"
 536      03D6976F 
 536      D97C1A2C 
 536      E618CC6C 
 536      D9
 537 0486 021A6CAE 		.ascii	"\002\032l\256\035\260A|\313\026\322`\013\034\203\231"
 537      1DB0417C 
 537      CB16D260 
 537      0B1C8399 
 538 0496 2DDB4083 		.ascii	"-\333@\203-\266\0036\224o\331&\032l\231c0\263e\233i"
 538      2DB60336 
 538      946FD926 
 538      1A6C9963 
 538      30B3659B 
 539 04ab B09576C0 		.ascii	"\260\225v\300\206\363-\333B\203\255v\014f\266\354\013"
 539      86F32DDB 
 539      4283AD76 
 539      0C66B6EC 
 539      0B
 540 04bc 1A6C9D1D 		.ascii	"\032l\235\035\260\327\371\226m\247\301\326;\0063[\266"
 540      B0D7F996 
 540      6DA7C1D6 
 540      3B06335B 
 540      B6
 541 04cd 9306DB60 		.ascii	"\223\006\333`\007\354-\276e_\321`\233\035\203\231-;"
 541      07EC2DBE 
 541      655FD160 
 541      9B1D8399 
 541      2D3B
 542 04df 4C837D61 		.ascii	"L\203}a\007\354m\013\313\022?+94M7\212\211y[\022vd\033"
 542      07EC6D0B 
 542      CB123F2B 
 542      39344D37 
 542      8A89795B 
 543 04f7 4B1C8773 		.ascii	"K\034\207s\264\220\304\330\225\355tIf\362\033\366\006"
 543      B490C4D8 
 543      95ED7449 
 543      66F21BF6 
 543      06
 544 0508 179689B3 		.ascii	"\027\226\211\263&i\015}\215\365\371>;\210)&\300\005"
 544      26690D7D 
ARM GAS  /tmp/ccu9gkU5.s 			page 42


 544      8DF5F93E 
 544      3B882926 
 544      C005
 545 051a F5D462FF 		.ascii	"\365\324b\377\220c0&\224\021\230i\355D\026\330\355\253"
 545      90633026 
 545      94119869 
 545      ED4416D8 
 545      EDAB
 546 052c E2BDE627 		.ascii	"\342\275\346'Wo\036\003\013mY\365\245\032\354`\245D"
 546      576F1E03 
 546      0B6D59F5 
 546      A51AEC60 
 546      A544
 547 053e 65AD572F 		.ascii	"e\255W/\353\272\2628Cz\026\2563%o\302\012\275l\224:"
 547      EBBAB238 
 547      437A16AE 
 547      33256FC2 
 547      0ABD6C94 
 548 0553 F10EFB58 		.ascii	"\361\016\373X\266\325f\030\003\244\026\345E\3024\211"
 548      B6D56618 
 548      03A416E5 
 548      45C23489 
 549 0563 8A84363B 		.ascii	"\212\2046;4\245\230\332O\327/\374\265\326\036\027)\177"
 549      34A598DA 
 549      4FD72FFC 
 549      B5D61E17 
 549      297F
 550 0575 5392037B 		.ascii	"S\222\003{\242\330!cO\024\223\320\376\343L\266\345F"
 550      A2D82163 
 550      4F1493D0 
 550      FEE34CB6 
 550      E546
 551 0587 C60654EB 		.ascii	"\306\006T\353\334\365\277\303\033\2319\030\350R\306"
 551      DCF5BFC3 
 551      1B993918 
 551      E852C6
 552 0596 4073162C 		.ascii	"@s\026,\036\204\201\346c\240\016\006H\026EfG$\232\367"
 552      1E8481E6 
 552      63A00E06 
 552      48164566 
 552      47249AF7 
 553 05aa 2CA23759 		.ascii	",\2427Y\35047\327/Z\027\366\260l{\231\334I\273zj\337"
 553      E83437D7 
 553      2F5A17F6 
 553      B06C7B99 
 553      DC49BB7A 
 554 05c0 D1F8738D 		.ascii	"\321\370s\215x\255B\233\337\327A\213\265\0344Zl\021"
 554      78AD429B 
 554      DFD7418B 
 554      B51C345A 
 554      6C11
 555 05d2 E667B29B 		.ascii	"\346g\262\233\345g\216\344\214 I\230\356v\352\310sf"
 555      E5678EE4 
 555      8C204998 
 555      EE76EAC8 
 555      7366
 556 05e4 47A6ED8D 		.ascii	"G\246\355\2159w$\021z\313\261#\263\177\001G\026:v\244"
ARM GAS  /tmp/ccu9gkU5.s 			page 43


 556      39772411 
 556      7ACBB123 
 556      B37F0147 
 556      163A76A4 
 557 05f8 2FE5083A 		.ascii	"/\345\010:#\271\021\323\307\301\307\204X\352\275)\262"
 557      23B911D3 
 557      C7C1C784 
 557      58EABD29 
 557      B2
 558 0609 67B5F498 		.ascii	"g\265\364\230\371x\253\365\000:\336B\217\323\037o\335"
 558      F978ABF5 
 558      003ADE42 
 558      8FD31F6F 
 558      DD
 559 061a 3A409D60 		.ascii	":@\235`h\266N0b\315\006e\3530e+\334\026\235\314\026"
 559      68B64E30 
 559      62CD0665 
 559      EB30652B 
 559      DC169DCC 
 560 062f 54EBF1BD 		.ascii	"T\353\361\275\033\311\011\306z\014\2656c\2509m[\365"
 560      1BC909C6 
 560      7A0CB536 
 560      63A8396D 
 560      5BF5
 561 0641 FEBA0103 		.ascii	"\376\272\001\003m\354\322\214n\246\025\335\346V\204"
 561      6DECD28C 
 561      6EA615DD 
 561      E65684
 562 0650 5BA4E936 		.ascii	"[\244\3516:_\020? O\320M\216\360\177\227\203\331\030"
 562      3A5F103F 
 562      204FD04D 
 562      8EF07F97 
 562      83D918
 563 0663 9B8F5AD0 		.ascii	"\233\217Z\320\341l\234\210\240\3631c&\325\033i\317C"
 563      E16C9C88 
 563      A0F33163 
 563      26D51B69 
 563      CF43
 564 0675 2156C43F 		.ascii	"!V\304?\237f\034\303\015Asi\343C\302\035it|p\026;j\204"
 564      9F661CC3 
 564      0D417369 
 564      E343C21D 
 564      69747C70 
 565 068d DD36EC51 		.ascii	"\3356\354QK\227&\336\305\216\311v\316\221Ne\352I\342"
 565      4B9726DE 
 565      C58EC976 
 565      CE914E65 
 565      EA49E2
 566 06a0 2709E7D9 		.ascii	"'\011\347\331\016\357h\317\211\316vo\221\346J{\030e"
 566      0EEF68CF 
 566      89CE766F 
 566      91E64A7B 
 566      1865
 567 06b2 1C34D7D5 		.ascii	"\0344\327\325M$\007\315\273$tB{\221a\303\306\251\326"
 567      4D2407CD 
 567      BB247442 
 567      7B9161C3 
ARM GAS  /tmp/ccu9gkU5.s 			page 44


 567      C6A9D6
 568 06c5 6D2CB247 		.ascii	"m,\262G\352rB{\3108\241E\357l\234j\231Nhe\361\013Q\""
 568      EA72427B 
 568      C838A145 
 568      EF6C9C6A 
 568      994E6865 
 569 06dd B899326A 		.ascii	"\270\2312jj\304\244\201\262\270\027\257\217\366IO\323"
 569      6AC4A481 
 569      B2B817AF 
 569      8FF6494F 
 569      D3
 570 06ee EC4FC971 		.ascii	"\354O\311q\312~\001\315~\374^\343BQ\267_?\263\217\261"
 570      CA7E01CD 
 570      7EFC5EE3 
 570      4251B75F 
 570      3FB38FB1 
 571 0702 7843E9B5 		.ascii	"xC\351\265+)r\367\351Z<\326\204\027\235z\277[d\307\270"
 571      2B2972F7 
 571      E95A3CD6 
 571      84179D7A 
 571      BF5B64C7 
 572 0717 145BEBC5 		.ascii	"\024[\353\305:\230\036\362+\034\203\025\230\300\276"
 572      3A981EF2 
 572      2B1C8315 
 572      98C0BE
 573 0726 9C69EF93 		.ascii	"\234i\357\223\200&\322\313aI\370\024\353mf#\245\365"
 573      8026D2CB 
 573      6149F814 
 573      EB6D6623 
 573      A5F5
 574 0738 DEE10F49 		.ascii	"\336\341\017I\2444\333\210\024\230l\360\267\024\203"
 574      A434DB88 
 574      14986CF0 
 574      B71483
 575 0747 E7EF12A8 		.ascii	"\347\357\022\250)x\266\212\023\343\313\300\305\375\""
 575      2978B68A 
 575      13E3CBC0 
 575      C5FD22
 576 0756 86D397F7 		.ascii	"\206\323\227\367WX\270\264\273\0173\334\003\245\241"
 576      5758B8B4 
 576      BB0F33DC 
 576      03A5A1
 577 0765 AF3362F4 		.ascii	"\2573b\364\276\030?\271\015M\267\377\306\335\360v\016"
 577      BE183FB9 
 577      0D4DB7FF 
 577      C6DDF076 
 577      0E
 578 0776 3B28E9CC 		.ascii	";(\351\314P\361\334L\305\363\021\034\317-\020\317\262"
 578      50F1DC4C 
 578      C5F3111C 
 578      CF2D10CF 
 578      B2
 579 0787 78145F8F 		.ascii	"x\024_\217\323\261\315\233\361O\320\353u\315\343\324"
 579      D3B1CD9B 
 579      F14FD0EB 
 579      75CDE3D4 
 580 0797 EF02A675 		.ascii	"\357\002\246uxj\232h5\037zl\304\036\377$\006\206\225"
ARM GAS  /tmp/ccu9gkU5.s 			page 45


 580      786A9A68 
 580      351F7A6C 
 580      C41EFF24 
 580      068695
 581 07aa 63B38C29 		.ascii	"c\263\214)I\377\362Q\343\030\321\034\315Wg\232\246\244"
 581      49FFF251 
 581      E318D11C 
 581      CD57679A 
 581      A6A4
 582 07bc 8576E086 		.ascii	"\205v\340\206Z\030h\365\243\277\\\311\342\026\0215\323"
 582      5A1868F5 
 582      A3BF5CC9 
 582      E2161135 
 582      D3
 583 07cd 561135   		.ascii	"V\0215"
 584 07d0 D0367CDD 		.ascii	"\3206|\335\201\257u\370Z\205\033n\012\276N\305\327\032"
 584      81AF75F8 
 584      5A851B6E 
 584      0ABE4EC5 
 584      D71A
 585 07e2 7C5D88AF 		.ascii	"|]\210\257\313\360\365\023|\375\012_\353\361u?\2766"
 585      CBF0F513 
 585      7CFD0A5F 
 585      EBF1753F 
 585      BE36
 586 07f4 E2EB217C 		.ascii	"\342\353!|\375\006_O\333\011\000}\240M\204\2311\346"
 586      FD065F4F 
 586      DB09007D 
 586      A04D8499 
 586      31E6
 587 0806 D666FC55 		.ascii	"\326f\374U\354x\362\253\230,nw\014\306F\224\211\311"
 587      EC78F2AB 
 587      982C6E77 
 587      0CC64694 
 587      89C9
 588 0818 5A8AC94F 		.ascii	"Z\212\311O1\223\237a\336\316\230\207\361\225\036\343"
 588      31939F61 
 588      DECE9887 
 588      F1951EE3 
 589 0828 5B6D26C3 		.ascii	"[m&\303\201\326^y\312\371J\366\230\261\2448\207\307"
 589      81D65E79 
 589      CAF94AF6 
 589      98B1A438 
 589      87C7
 590 083a D75A0FDB 		.ascii	"\327Z\017\333{\327\263\213\177G\313\270M\254Kv\207$"
 590      7BD7B38B 
 590      7F47CBB8 
 590      4DAC4B76 
 590      8724
 591 084c 6B225751 		.ascii	"k\"WQD\256\306D\256\301D\236\245\211|JX\254\305\257"
 591      44AEC644 
 591      AEC1449E 
 591      A5897C4A 
 591      58ACC5AF 
 592 0860 B45F5D71 		.ascii	"\264_]q\246\317\274I\025\015\332\025\264\316yB\230C"
 592      A6CFBC49 
 592      150DDA15 
ARM GAS  /tmp/ccu9gkU5.s 			page 46


 592      B4CE7942 
 592      9843
 593 0872 38D14455 		.ascii	"8\321DU\237\232x\241uQz\002\227\\\372\277\275\322\215"
 593      9F9A78A1 
 593      75517A02 
 593      975CFABF 
 593      BDD28D
 594 0885 8871899E 		.ascii	"\210q\211\236\021\011\261[W\237\351\245\363\372\003"
 594      1109B15B 
 594      579FE9A5 
 594      F3FA03
 595 0894 1E15977B 		.ascii	"\036\025\227{\323~>6\343 C.3\323M\374\232R\240?M\277"
 595      D37E3E36 
 595      E320432E 
 595      33D34DFC 
 595      9A52A03F 
 596 08aa 24B9A14F 		.ascii	"$\271\241O\015\314\207\256Tnw\320c]-\266\367\262\363"
 596      0DCC87AE 
 596      546E77D0 
 596      635D2DB6 
 596      F7B2F3
 597 08bd 158CF1DD 		.ascii	"\025\214\361\335EA\243\034\202\224\204-\216\261\012"
 597      4541A31C 
 597      8294842D 
 597      8EB10A
 598 08cc 4C58F729 		.ascii	"LX\367)\254/\355`\245\231\342\014\254:\307X\264]Z\274"
 598      AC2FED60 
 598      A599E20C 
 598      AC3AC758 
 598      B45D5ABC 
 599 08e0 A6CE5835 		.ascii	"\246\316X5\351\377\326hf\361\3366@\362\223x\334\243"
 599      E9FFD668 
 599      66F1DE36 
 599      40F29378 
 599      DCA3
 600 08f2 3A2D3EFB 		.ascii	":->\373\0254\000\351Xmv\260\254\2164\254~t$\311\342"
 600      153400E9 
 600      586D76B0 
 600      AC8E34AC 
 600      7E7424C9 
 601 0907 153CE35E 		.ascii	"\025<\343^\305C\355u|\275\211\257\267\361\365.\276\336"
 601      C543ED75 
 601      7CBD89AF 
 601      B7F1F52E 
 601      BEDE
 602 0919 B733047F 		.ascii	"\2673\004\177\237\014\030\322U\364\000\303\2057]\011"
 602      9F0C18D2 
 602      55F400C3 
 602      85375D09 
 603 0929 7949B8C0 		.ascii	"yI\270\300D\3773\302\012M\213\341\036\272s\223\246y"
 603      44FF33C2 
 603      0A4D8BE1 
 603      1EBA7393 
 603      A679
 604 093b 752C49B8 		.ascii	"u,I\270\205\353}'=e\251\223h\304\302\325\332\022e\270"
 604      85EB7D27 
 604      3D65A993 
ARM GAS  /tmp/ccu9gkU5.s 			page 47


 604      68C4C2D5 
 604      DA1265B8 
 605 094f B1C2BC97 		.ascii	"\261\302\274\227F\214\030\365[a\025\022\374\254\252"
 605      468C18F5 
 605      5B611512 
 605      FCACAA
 606 095e B24796F1 		.ascii	"\262G\226\361\220/F\234\354\224L\177\371\324\307\226"
 606      902F469C 
 606      EC944C7F 
 606      F9D4C796 
 607 096e 784BCB74 		.ascii	"xK\313tO\365\304\366\316\316\247\034\214+U.\323\270"
 607      4FF5C4F6 
 607      CECEA71C 
 607      8C2B552E 
 607      D3B8
 608 0980 A2BB9386 		.ascii	"\242\273\223\206\271NK\346\264Y\310y$.\213\023]h\252"
 608      B94E4BE6 
 608      B459C879 
 608      242E8B13 
 608      5D68AA
 609 0993 AA74D9E1 		.ascii	"\252t\331\341l\233\301\231,NJ#\226\2223\236\030q\364"
 609      6C9BC199 
 609      2C4E4A23 
 609      9692339E 
 609      1871F4
 610 09a6 23971567 		.ascii	"#\227\025g;Od\300\331\314\224\234\221!\213\341lN\256"
 610      3B4F64C0 
 610      D9CC949C 
 610      91218BE1 
 610      6C4EAE
 611 09b9 2567F74A 		.ascii	"%g\367J\030\316f\330\340,\246}\2168\323\007\214\325"
 611      18CE66D8 
 611      E02CA67D 
 611      8E38D307 
 611      8CD5
 612 09cb 18982F46 		.ascii	"\030\230/F\314\261\346\214'F\034\255\351\312\331\322"
 612      CCB1E68C 
 612      27461CAD 
 612      E9CAD9D2 
 613 09db F6F8E9AA 		.ascii	"\366\370\351\252F\030\305\265\373\235\235.v\006\343"
 613      4618C5B5 
 613      FB9D9D2E 
 613      7606E3
 614 09ea FC670161 		.ascii	"\374g\001a\315\263CZ\342\376\234e\340\325Z\223X\303"
 614      CDB3435A 
 614      E2FE9C65 
 614      E0D55A93 
 614      58C3
 615 09fc 06DE5C5B 		.ascii	"\006\336\\[$nK\222\270\003\003\363\305:\250x=\215\304"
 615      246E4B92 
 615      B80303F3 
 615      C53AA878 
 615      3D8DC4
 616 0a0f F485C9AE 		.ascii	"\364\205\311\2564b\347\250x\325\264\031Ze\017\021s$"
 616      3462E7A8 
 616      78D5B419 
 616      5A650F11 
ARM GAS  /tmp/ccu9gkU5.s 			page 48


 616      7324
 617 0a21 1029EA27 		.ascii	"\020)\352'\213\377\350Jv\373\225\370\315\372|\313\370"
 617      8BFFE84A 
 617      76FB95F8 
 617      CDFA7CCB 
 617      F8
 618 0a32 4CC1F40A 		.ascii	"L\301\364\012+\246\031&w[3y\207\015\307\345\251\231"
 618      2BA61926 
 618      775B3379 
 618      870DC7E5 
 618      A999
 619 0a44 E4F8B69C 		.ascii	"\344\370\266\234\365m\225e m6|\323m\226\204\203\326"
 619      F56D9565 
 619      206D367C 
 619      D36D9684 
 619      83D6
 620 0a56 56DD62AD 		.ascii	"V\335b\255Z\223\221UkX\253\326Z2\336\332h\204\367$\217"
 620      5A939155 
 620      6B58ABD6 
 620      5A32DEDA 
 620      6884F724 
 621 0a6b 9315DA7A 		.ascii	"\223\025\332z;#)\271\267\177\276v\242jKo\375\037\177"
 621      3B2329B9 
 621      B77FBE76 
 621      A26A4B6F 
 621      FD1F7F
 622 0a7e 2E1471C7 		.ascii	".\024q\307s\331\245p\006\247kB\227\216\325nI<;\027\032"
 622      73D9A570 
 622      06A76B42 
 622      978ED56E 
 622      493C3B17 
 623 0a93 F4D7DA1A 		.ascii	"\364\327\332\032\327\227\260\343:_\014\223C\032\373"
 623      D797B0E3 
 623      3A5F0C93 
 623      431AFB
 624 0aa2 1B24A63B 		.ascii	"\033$\246;{\011[\305\027C\265\222\215\315\014m<1\342"
 624      7B095BC5 
 624      1743B592 
 624      8DCD0C6D 
 624      3C31E2
 625 0ab5 FE66CB88 		.ascii	"\376f\313\210\274r \021\221\353qD^\266\031\221\333m"
 625      BC722011 
 625      91EB7144 
 625      5EB61991 
 625      DB6D
 626 0ac7 51B288A5 		.ascii	"Q\262\210\245\204/FSr\322\240\0046\224i\304RR\302\023"
 626      842F4653 
 626      72D2A004 
 626      369469C4 
 626      5252C213 
 627 0adb 2394ECB0 		.ascii	"#\224\354\260\244\344x\223\365\000\224\252+\354\316"
 627      A4E47893 
 627      F50094AA 
 627      2BECCE
 628 0aea 605171DB 		.ascii	"`Qq\333\346\210\024\317,\370\370b\353\244\024\224\361"
 628      E68814CF 
 628      2CF8F862 
ARM GAS  /tmp/ccu9gkU5.s 			page 49


 628      EBA41494 
 628      F1
 629 0afb C488A37B 		.ascii	"\304\210\243{-G\220\226\026\235\262%C\2150\252\310\263"
 629      2D479096 
 629      169DB225 
 629      438D30AA 
 629      C8B3
 630 0b0d B7626AC8 		.ascii	"\267bj\310l\305\304\027\243\303\350\026\033F|\261\224"
 630      6CC5C417 
 630      A3C3E816 
 630      1B467CB1 
 630      94
 631 0b1e 61C41323 		.ascii	"a\304\023#\234\354\267\014\243\266f\246g\325XS\322e"
 631      9CECB70C 
 631      A3B666A6 
 631      67D55853 
 631      D265
 632 0b30 2E6FB245 		.ascii	".o\262E\311V\226\022\276\030M\311\015\226\022\276XJ"
 632      C9569612 
 632      BE184DC9 
 632      0D9612BE 
 632      584A
 633 0b42 4A786284 		.ascii	"Jxb\204\222fKJ\016\177\235\240d7\246d\211\315(9\232"
 633      92664B4A 
 633      0E7F9DA0 
 633      6437A664 
 633      89CD2839 
 634 0b57 5994F0C5 		.ascii	"Y\224\360\305Rv\001\236\030\361\355\230e\027\330y\302"
 634      5276019E 
 634      18F1ED98 
 634      6517D879 
 634      C2
 635 0b68 E8020E86 		.ascii	"\350\002\016\206\2156GKD\322 \3140\362\2515\207]\326"
 635      8D36474B 
 635      44D220CC 
 635      30F2A935 
 635      875DD6
 636 0b7b D9ADCED6 		.ascii	"\331\255\316\326\331\2628;\215X\007%v\215\015+\276X"
 636      D9B2383B 
 636      8D580725 
 636      768D0D2B 
 636      BE58
 637 0b8d CAB0E289 		.ascii	"\312\260\342\211\021\276NY\206\325\321\343\211\260j"
 637      11BE4E59 
 637      86D5D1E3 
 637      89B06A
 638 0b9c C361B5CD 		.ascii	"\303a\265\315\232\222.#\353Y[\224ld)\341\213\321\224"
 638      9A922E23 
 638      EB595B94 
 638      6C6429E1 
 638      8BD194
 639 0baf 5C6529E1 		.ascii	"\\e)\341\213\245\244\204'F(9gI\311\3666\347s\330\245"
 639      8BA5A484 
 639      27462839 
 639      6749C9F6 
 639      36E773D8 
 640 0bc4 0C3679FF 		.ascii	"\0146y\377\262\031|\0273\013>\276X\207i\331\313P\306"
ARM GAS  /tmp/ccu9gkU5.s 			page 50


 640      B2197C17 
 640      330B3EBE 
 640      588769D9 
 640      CB50C6
 641 0bd7 13238EFE 		.ascii	"\023#\216\376h\321\201\253\333+\257\305\305\217\265"
 641      68D181AB 
 641      DB2BAFC5 
 641      C58FB5
 642 0be6 3D93B5CE 		.ascii	"=\223\265\316\316\017\034\354\362:\\\374cJ\375\030\211"
 642      CE0F1CEC 
 642      F23A5CFC 
 642      634AFD18 
 642      89
 643 0bf7 2779DD95 		.ascii	"'y\335\225\227\264\311\304j\023\303\252Q\351\206\245"
 643      97B4C9C4 
 643      6A13C3AA 
 643      51E986A5 
 644 0c07 E1DB1B9B 		.ascii	"\341\333\033\233\334\031\030~\213\030\236\324-\011'"
 644      DC19187E 
 644      8B189ED4 
 644      2D0927
 645 0c16 398A6F5B 		.ascii	"9\212o[*\236|\271A\234\342x[|\227\0153\304C\232m\360"
 645      2A9E7CB9 
 645      419CE278 
 645      5B7C970D 
 645      33C4439A 
 646 0c2c 0F1CBB7E 		.ascii	"\017\034\273~\266\262+~\277n\272&\032#\302]<\"\334\347"
 646      B6B22B7E 
 646      BF6EBA26 
 646      1A23C25D 
 646      3C22DCE7 
 647 0c40 00745A02 		.ascii	"\000tZ\002\314\251\237\376\244\266\254\"\336\3319\304"
 647      CCA99FFE 
 647      A4B6AC22 
 647      DED939C4 
 648 0c50 C97E6862 		.ascii	"\311~hbV*\317\254G\357)\371\326\206M\3162\031\306\204"
 648      562ACFAC 
 648      47EF29F9 
 648      D6864DCE 
 648      3219C684 
 649 0c64 150A3A9E 		.ascii	"\025\012:\236\025\225Yy\034\251[)\244\252\270RwSH}\230"
 649      15955979 
 649      1CA95B29 
 649      A4AAB852 
 649      7753487D 
 650 0c79 94EA2954 		.ascii	"\224\352)Tc\236\206\316\357\246\377\317\217\310\364"
 650      639E86CE 
 650      EFA6FFCF 
 650      8FC8F4
 651 0c88 30642422 		.ascii	"0d$\"3%\253'.\231>\217\340\032<-\037e%\377K\230\357"
 651      3325AB27 
 651      2E993E8F 
 651      E01A3C2D 
 651      1F6525FF 
 652 0c9f 4D1644B3 		.ascii	"M\026D\263\352\002F\363 \243^\016\301\231\352X\3634"
 652      EA0246F3 
 652      20A35E0E 
ARM GAS  /tmp/ccu9gkU5.s 			page 51


 652      C199EA58 
 652      F334
 653 0cb1 8E66B735 		.ascii	"\216f\2675U+RP5\235K0\012\033\236\324\014\256\024\372"
 653      552B5250 
 653      359D4B30 
 653      0A1B9ED4 
 653      0CAE14FA 
 654 0cc5 3CC2939A 		.ascii	"<\302\223\232\311\225Z\237\302\302\277s\245\316\245"
 654      C9955A9F 
 654      C2C2BF73 
 654      A5CEA5
 655 0cd4 08FA6AAE 		.ascii	"\010\372j\256TU\012]5\\\251\231)\244b\\\251\266\024"
 655      54550A5D 
 655      355CA999 
 655      29A4625C 
 655      A9B614
 656 0ce7 52B39252 		.ascii	"R\263\222RB\377B\177(\250\024\026\207J&\024\226(c\013"
 656      42FF427F 
 656      28A81416 
 656      874A2614 
 656      9628630B 
 657 0cfb 8BFD8151 		.ascii	"\213\375\201Q\201P\264P\215\224\227\275[\010\205\210"
 657      8150B450 
 657      8D9497BD 
 657      5B088588 
 658 0d0b 5A18282B 		.ascii	"Z\030(+.-/\201J\376\250\022\354\343\027\362 \223\303"
 658      2E2D2F81 
 658      4AFEA812 
 658      ECE317F2 
 658      2093C3
 659 0d1e FE5044F1 		.ascii	"\376PD\361\251\356W\377\364f\3010\301\233x4\310\031"
 659      A9EE57FF 
 659      F466C130 
 659      C19B7834 
 659      C819
 660 0d30 E084A83A 		.ascii	"\340\204\250:!\254D\001\265\273\352\217(rI\324\367^"
 660      21AC4401 
 660      B5BBEA8F 
 660      287249D4 
 660      F75E
 661 0d42 B9520EC8 		.ascii	"\271R\016\310=\212\375>\323\243\001\316\220\213\375"
 661      3D8AFD3E 
 661      D3A301CE 
 661      908BFD
 662 0d51 2580EAD1 		.ascii	"%\200\352\321!|\2527\001\347\016\373\312\224\361*d\341"
 662      217CAA37 
 662      01E70EFB 
 662      CA94F12A 
 662      64E1
 663 0d63 883276B8 		.ascii	"\2102v\270\015\324p(\242F\013_~\343\265a\257\215\207"
 663      0DD47028 
 663      A2460B5F 
 663      7EE3B561 
 663      AF8D87
 664 0d76 9AC170A0 		.ascii	"\232\301p\240T\211D\013_\0356\014\252\033\366\347\250"
 664      5489440B 
 664      5F1D360C 
ARM GAS  /tmp/ccu9gkU5.s 			page 52


 664      AA1BF6E7 
 664      A8
 665 0d87 E14820E4 		.ascii	"\341H \344S\237),\217F\012\345H\360\371\262P\231\362"
 665      539F292C 
 665      8F460AE5 
 665      48F0F9B2 
 665      5099F2
 666 0d9a BC228F0A 		.ascii	"\274\"\217\012$\314\212\252%\2012\025\231U\016y\377"
 666      24CC8AAA 
 666      25813215 
 666      99550E79 
 666      FF
 667 0dab 229F3A20 		.ascii	"\"\237: E\355\240\014\306\224)\205\276\022e\264\\^\252"
 667      45EDA00C 
 667      C6942985 
 667      BE1265B4 
 667      5C5EAA
 668 0dbe FA0C55B9 		.ascii	"\372\014U\271>\237!\217\275\010\204r\212Ce*85\330\261"
 668      3E9F218F 
 668      BD088472 
 668      8A43652A 
 668      3835D8B1 
 669 0dd2 37FE6268 		.ascii	"7\376bh4\324\250\350\261\017P\213\325\361\277\317\014"
 669      34D4A8E8 
 669      B10F508B 
 669      D5F1BFCF 
 669      0C
 670 0de3 C537F645 		.ascii	"\3057\366E\024\036\236\2102\006\034\362\251\256h\277"
 670      141E9E88 
 670      32061CF2 
 670      A9AE68BF 
 671 0df3 81905E84 		.ascii	"\201\220^\2044\010\322`W\264\250/\244~\220\212 \365"
 671      3408D260 
 671      57B4A82F 
 671      A47E908A 
 671      20F5
 672 0e05 873400D2 		.ascii	"\2074\000\322\013\220\240^\021\324+\202zEP\257?\324"
 672      0B90A05E 
 672      11D42B82 
 672      7A4550AF 
 672      3FD4
 673 0e17 EBDF4F8A 		.ascii	"\353\337O\212\014\220\"/H\221\201R\344E)2H\212\014v"
 673      0C90222F 
 673      48918152 
 673      E4452932 
 673      488A0C76 
 674 0e2b 45FAF585 		.ascii	"E\372\365\205\324O*\215@\326?;\354\003ksP{\216S\"\220"
 674      D44F2A8D 
 674      40D63F3B 
 674      EC036B73 
 674      507B8E53 
 675 0e41 874A4B94 		.ascii	"\207JK\224HV\261_\216\240F\226\203\212G\215\252\262"
 675      4856B15F 
 675      8EA04696 
 675      838A478D 
 675      AAB2
 676 0e53 0AD19483 		.ascii	"\012\321\224\203\010\033\004a\240S\007%\250\216\337"
ARM GAS  /tmp/ccu9gkU5.s 			page 53


 676      081B0461 
 676      A0530725 
 676      A88EDF
 677 0e62 E5A8C150 		.ascii	"\345\250\301P\211\202\357G\227\312c\2429jD\031\035\305"
 677      8982EF47 
 677      97CA63A2 
 677      396A4419 
 677      1DC5
 678 0e74 CCA24276 		.ascii	"\314\242Bv0:\006^\022\272A\334 >R2\001^y\224\361\001"
 678      303A065E 
 678      12BA41DC 
 678      203E5232 
 678      015E7994 
 679 0e8a 158852DC 		.ascii	"\025\210R\334\343\324\320\250w\302y\312X\245L\015\312"
 679      E3D4D0A8 
 679      77C279CA 
 679      58A54C0D 
 679      CA
 680 0e9b D177A18A 		.ascii	"\321w\241\2122\016\025\\a_y7#\222K\003Qh\307\356Tl\243"
 680      320E155C 
 680      615F7937 
 680      23924B03 
 680      5168C7EE 
 681 0eb2 27DEB06F 		.ascii	"'\336\260o\234\034P\003ecr\303>@\305\361\236\215\213"
 681      9C1C5003 
 681      656372C3 
 681      3E40C5F1 
 681      9E8D8B
 682 0ec5 F040092B 		.ascii	"\360@\011+e\0207c\262\203\345\320\306\316zlP\035\217"
 682      65103763 
 682      B283E5D0 
 682      C6CE7A6C 
 682      501D8F
 683 0ed8 6233A877 		.ascii	"b3\250w!\310C\343\312\200*\214\004\026\006qW\000\365"
 683      21C843E3 
 683      CA802A8C 
 683      04160671 
 683      5700F5
 684 0eeb 500F1992 		.ascii	"P\017\031\222\213\234\226KqH\301\303p(T\232C\272_vq"
 684      8B9C964B 
 684      7148C1C3 
 684      7028549A 
 684      43BA5F76 
 685 0f00 19589E1D 		.ascii	"\031X\236\035\365A^d\303\206h\244\030\351\037\025\032"
 685      F5415E64 
 685      C38668A4 
 685      18E91F15 
 685      1A
 686 0f11 0F315B2C 		.ascii	"\0171[,\014tf\266.\346\027\274A9P\0127@}p\224oT\371"
 686      0C7466B6 
 686      2EE617BC 
 686      4139500A 
 686      37407D70 
 687 0f29 E8D14AC4 		.ascii	"\350\321J\304\015%5\024\366@6.\022V#\250\020)\201B."
 687      0D253514 
 687      F640362E 
 687      125623A8 
ARM GAS  /tmp/ccu9gkU5.s 			page 54


 687      10298142 
 688 0f3e 14469797 		.ascii	"\024F\227\227\226\302`\224\007E%\030V'@\031F\222\327"
 688      96C26094 
 688      07452518 
 688      56274019 
 688      4692D7
 689 0f51 FEF07A28 		.ascii	"\376\360z(\252\216\354\023\226#j\237\"WpT\330\005\334"
 689      AA8EEC13 
 689      96236A9F 
 689      22577054 
 689      D805DC
 690 0f64 3E6EBC78 		.ascii	">n\274x\331\017MA\336\366\357\211\236\276\242\250\305"
 690      D90F4D41 
 690      DEF6EF89 
 690      9EBEA2A8 
 690      C5
 691 0f75 7EF26440 		.ascii	"~\362d@\026\324\015wC\217\377<\352\035\245X\035Q\026"
 691      16D40D77 
 691      438FFF3C 
 691      EA1DA558 
 691      1D5116
 692 0f88 505D608B 		.ascii	"P]`\213X\226\213\036\276\241D\025u\2047Q\364\242Q-\020"
 692      58968B1E 
 692      BEA14415 
 692      75843751 
 692      F4A2512D 
 693 0f9d 54F0A0   		.ascii	"T\360\240"
 694 0fa0 433467A1 		.ascii	"C4g\241\007\036\3436\361|D7\263\011\217\230n\315/G\344"
 694      071EE336 
 694      F17C4437 
 694      B3098F98 
 694      6ECD2F47 
 695 0fb5 260DF326 		.ascii	"&\015\363&\212\311\207#\362\341\205\022\034\031\030"
 695      8AC98723 
 695      F2E18512 
 695      1C1918
 696 0fc4 5326978E 		.ascii	"S&\227\216\000\247G\026\373\301\236b\277RR^\252\214"
 696      00A74716 
 696      FBC19E62 
 696      BF52525E 
 696      AA8C
 697 0fd6 EC8EDF26 		.ascii	"\354\216\337&\035\310\303\367\272\355=q\371\257\020"
 697      1DC8C3F7 
 697      BAED3D71 
 697      F9AF10
 698 0fe5 827F0133 		.ascii	"\202\177\0013C\345\352\310\377\002\253\273E8"
 698      43E5EAC8 
 698      FF02ABBB 
 698      4538
 699              		.text
 700              		.section	.gnu.lto_.symtab.b9c38651ed2d0fcc,"",%progbits
 701 0000 63684D42 		.ascii	"chMBObjectInit\000\000\000\000\000\000\000\000\000\000"
 701      4F626A65 
 701      6374496E 
 701      69740000 
 701      00000000 
 702 0018 00009601 		.ascii	"\000\000\226\001\000\000chMBResetI\000\000\000\000\000"
ARM GAS  /tmp/ccu9gkU5.s 			page 55


 702      00006368 
 702      4D425265 
 702      73657449 
 702      00000000 
 703 002d 00000000 		.ascii	"\000\000\000\000\000\000\000\242\001\000\000chMBRes"
 703      000000A2 
 703      01000063 
 703      684D4252 
 703      6573
 704 003f 65740000 		.ascii	"et\000\000\000\000\000\000\000\000\000\000\000\000\250"
 704      00000000 
 704      00000000 
 704      0000A8
 705 004e 01000063 		.ascii	"\001\000\000chMBPostS\000\000\000\000\000\000\000\000"
 705      684D4250 
 705      6F737453 
 705      00000000 
 705      00000000 
 706 0062 00000000 		.ascii	"\000\000\000\000\254\001\000\000chMBPost\000\000\000"
 706      AC010000 
 706      63684D42 
 706      506F7374 
 706      000000
 707 0075 00000000 		.ascii	"\000\000\000\000\000\000\000\000\000\272\001\000\000"
 707      00000000 
 707      00BA0100 
 707      00
 708 0082 63684D42 		.ascii	"chMBPostI\000\000\000\000\000\000\000\000\000\000\000"
 708      506F7374 
 708      49000000 
 708      00000000 
 708      00000000 
 709 0096 00C00100 		.ascii	"\000\300\001\000\000chMBPostAheadS\000\000\000\000\000"
 709      0063684D 
 709      42506F73 
 709      74416865 
 709      61645300 
 710 00ae 00000000 		.ascii	"\000\000\000\000\000\000\000\310\001\000\000chMBPos"
 710      000000C8 
 710      01000063 
 710      684D4250 
 710      6F73
 711 00c0 74416865 		.ascii	"tAhead\000\000\000\000\000\000\000\000\000\000\000\000"
 711      61640000 
 711      00000000 
 711      00000000 
 711      0000
 712 00d2 CE010000 		.ascii	"\316\001\000\000chMBPostAheadI\000\000\000\000\000\000"
 712      63684D42 
 712      506F7374 
 712      41686561 
 712      64490000 
 713 00ea 00000000 		.ascii	"\000\000\000\000\000\000\324\001\000\000chMBFetchS\000"
 713      0000D401 
 713      00006368 
 713      4D424665 
 713      74636853 
ARM GAS  /tmp/ccu9gkU5.s 			page 56


 714 00ff 00000000 		.ascii	"\000\000\000\000\000\000\000\000\000\000\000\331\001"
 714      00000000 
 714      000000D9 
 714      01
 715 010c 00006368 		.ascii	"\000\000chMBFetch\000\000\000\000\000\000\000\000\000"
 715      4D424665 
 715      74636800 
 715      00000000 
 715      00000000 
 716 0120 000000E3 		.ascii	"\000\000\000\343\001\000\000chMBFetchI\000\000\000\000"
 716      01000063 
 716      684D4246 
 716      65746368 
 716      49000000 
 717 0135 00000000 		.ascii	"\000\000\000\000\000\000\000\000\351\001\000\000chS"
 717      00000000 
 717      E9010000 
 717      636853
 718 0144 656D5369 		.ascii	"emSignalI\000\000\002\000\000\000\000\000\000\000\000"
 718      676E616C 
 718      49000002 
 718      00000000 
 718      00000000 
 719 0158 00F10100 		.ascii	"\000\361\001\000\000chSchRescheduleS\000\000\002\000"
 719      00636853 
 719      63685265 
 719      73636865 
 719      64756C65 
 720 0171 00000000 		.ascii	"\000\000\000\000\000\000\000\000\366\001\000\000chS"
 720      00000000 
 720      F6010000 
 720      636853
 721 0180 656D4F62 		.ascii	"emObjectInit\000\000\002\000\000\000\000\000\000\000"
 721      6A656374 
 721      496E6974 
 721      00000200 
 721      00000000 
 722 0196 0000F901 		.ascii	"\000\000\371\001\000\000chSemResetI\000\000\002\000"
 722      00006368 
 722      53656D52 
 722      65736574 
 722      49000002 
 723 01ab 00000000 		.ascii	"\000\000\000\000\000\000\000\000\376\001\000\000chS"
 723      00000000 
 723      FE010000 
 723      636853
 724 01ba 656D5761 		.ascii	"emWaitTimeoutS\000\000\002\000\000\000\000\000\000\000"
 724      69745469 
 724      6D656F75 
 724      74530000 
 724      02000000 
 725 01d2 00000002 		.ascii	"\000\000\000\002\000\000"
 725      0000
 726              		.text
 727              		.section	.gnu.lto_.opts,"",%progbits
 728 0000 272D6D63 		.ascii	"'-mcpu=cortex-m4' '-mfloat-abi=hard' '-mfpu=fpv4-sp"
 728      70753D63 
ARM GAS  /tmp/ccu9gkU5.s 			page 57


 728      6F727465 
 728      782D6D34 
 728      2720272D 
 729 0033 2D643136 		.ascii	"-d16' '-mno-thumb-interwork' '-mthumb' '-O2' '-fomi"
 729      2720272D 
 729      6D6E6F2D 
 729      7468756D 
 729      622D696E 
 730 0066 742D6672 		.ascii	"t-frame-pointer' '-falign-functions=16' '-ffunction"
 730      616D652D 
 730      706F696E 
 730      74657227 
 730      20272D66 
 731 0099 2D736563 		.ascii	"-sections' '-fdata-sections' '-fno-common' '-flto' "
 731      74696F6E 
 731      73272027 
 731      2D666461 
 731      74612D73 
 732 00cc 272D6673 		.ascii	"'-fsingle-precision-constant'\000"
 732      696E676C 
 732      652D7072 
 732      65636973 
 732      696F6E2D 
 733              		.text
 734              		.section	.text.chMBObjectInit,"ax",%progbits
 735              		.align	2
 736              		.p2align 4,,15
 737              		.global	chMBObjectInit
 738              		.thumb
 739              		.thumb_func
 740              		.type	chMBObjectInit, %function
 741              	chMBObjectInit:
 742              		@ args = 0, pretend = 0, frame = 0
 743              		@ frame_needed = 0, uses_anonymous_args = 0
 744 0000 10B5     		push	{r4, lr}
 745 0002 0B46     		mov	r3, r1
 746 0004 01EB8201 		add	r1, r1, r2, lsl #2
 747 0008 4160     		str	r1, [r0, #4]
 748 000a 0446     		mov	r4, r0
 749 000c C360     		str	r3, [r0, #12]
 750 000e 8360     		str	r3, [r0, #8]
 751 0010 0360     		str	r3, [r0]
 752 0012 1146     		mov	r1, r2
 753 0014 1C30     		adds	r0, r0, #28
 754 0016 FFF7FEFF 		bl	chSemObjectInit
 755 001a 04F11000 		add	r0, r4, #16
 756 001e 0021     		movs	r1, #0
 757 0020 BDE81040 		pop	{r4, lr}
 758 0024 FFF7FEBF 		b	chSemObjectInit
 759              		.size	chMBObjectInit, .-chMBObjectInit
 760 0028 AFF30080 		.section	.text.chMBResetI,"ax",%progbits
 760      AFF30080 
 761              		.align	2
 762              		.p2align 4,,15
 763              		.global	chMBResetI
 764              		.thumb
 765              		.thumb_func
ARM GAS  /tmp/ccu9gkU5.s 			page 58


 766              		.type	chMBResetI, %function
 767              	chMBResetI:
 768              		@ args = 0, pretend = 0, frame = 0
 769              		@ frame_needed = 0, uses_anonymous_args = 0
 770 0000 10B5     		push	{r4, lr}
 771 0002 0446     		mov	r4, r0
 772 0004 1C30     		adds	r0, r0, #28
 773 0006 2368     		ldr	r3, [r4]
 774 0008 6168     		ldr	r1, [r4, #4]
 775 000a E360     		str	r3, [r4, #12]
 776 000c C91A     		subs	r1, r1, r3
 777 000e A360     		str	r3, [r4, #8]
 778 0010 8910     		asrs	r1, r1, #2
 779 0012 FFF7FEFF 		bl	chSemResetI
 780 0016 04F11000 		add	r0, r4, #16
 781 001a 0021     		movs	r1, #0
 782 001c BDE81040 		pop	{r4, lr}
 783 0020 FFF7FEBF 		b	chSemResetI
 784              		.size	chMBResetI, .-chMBResetI
 785 0024 AFF30080 		.section	.text.chMBReset,"ax",%progbits
 785      AFF30080 
 785      AFF30080 
 786              		.align	2
 787              		.p2align 4,,15
 788              		.global	chMBReset
 789              		.thumb
 790              		.thumb_func
 791              		.type	chMBReset, %function
 792              	chMBReset:
 793              		@ args = 0, pretend = 0, frame = 0
 794              		@ frame_needed = 0, uses_anonymous_args = 0
 795 0000 08B5     		push	{r3, lr}
 796 0002 2023     		movs	r3, #32
 797              	@ 546 "/home/cody/dev/chibios/trunk/os/ext/CMSIS/include/core_cmFunc.h" 1
 798 0004 83F31188 		MSR basepri, r3
 799              	@ 0 "" 2
 800              		.thumb
 801 0008 FFF7FEFF 		bl	chMBResetI
 802 000c FFF7FEFF 		bl	chSchRescheduleS
 803 0010 0023     		movs	r3, #0
 804              	@ 546 "/home/cody/dev/chibios/trunk/os/ext/CMSIS/include/core_cmFunc.h" 1
 805 0012 83F31188 		MSR basepri, r3
 806              	@ 0 "" 2
 807              		.thumb
 808 0016 08BD     		pop	{r3, pc}
 809              		.size	chMBReset, .-chMBReset
 810 0018 AFF30080 		.section	.text.chMBPostS,"ax",%progbits
 810      AFF30080 
 811              		.align	2
 812              		.p2align 4,,15
 813              		.global	chMBPostS
 814              		.thumb
 815              		.thumb_func
 816              		.type	chMBPostS, %function
 817              	chMBPostS:
 818              		@ args = 0, pretend = 0, frame = 0
 819              		@ frame_needed = 0, uses_anonymous_args = 0
ARM GAS  /tmp/ccu9gkU5.s 			page 59


 820 0000 70B5     		push	{r4, r5, r6, lr}
 821 0002 0446     		mov	r4, r0
 822 0004 0E46     		mov	r6, r1
 823 0006 1C30     		adds	r0, r0, #28
 824 0008 1146     		mov	r1, r2
 825 000a FFF7FEFF 		bl	chSemWaitTimeoutS
 826 000e 0546     		mov	r5, r0
 827 0010 78B9     		cbnz	r0, .L5
 828 0012 A268     		ldr	r2, [r4, #8]
 829 0014 6168     		ldr	r1, [r4, #4]
 830 0016 131D     		adds	r3, r2, #4
 831 0018 8B42     		cmp	r3, r1
 832 001a A360     		str	r3, [r4, #8]
 833 001c 28BF     		it	cs
 834 001e 2368     		ldrcs	r3, [r4]
 835 0020 1660     		str	r6, [r2]
 836 0022 04F11000 		add	r0, r4, #16
 837 0026 28BF     		it	cs
 838 0028 A360     		strcs	r3, [r4, #8]
 839 002a FFF7FEFF 		bl	chSemSignalI
 840 002e FFF7FEFF 		bl	chSchRescheduleS
 841              	.L5:
 842 0032 2846     		mov	r0, r5
 843 0034 70BD     		pop	{r4, r5, r6, pc}
 844              		.size	chMBPostS, .-chMBPostS
 845 0036 00BFAFF3 		.section	.text.chMBPost,"ax",%progbits
 845      0080AFF3 
 845      0080
 846              		.align	2
 847              		.p2align 4,,15
 848              		.global	chMBPost
 849              		.thumb
 850              		.thumb_func
 851              		.type	chMBPost, %function
 852              	chMBPost:
 853              		@ args = 0, pretend = 0, frame = 0
 854              		@ frame_needed = 0, uses_anonymous_args = 0
 855 0000 08B5     		push	{r3, lr}
 856 0002 2023     		movs	r3, #32
 857              	@ 546 "/home/cody/dev/chibios/trunk/os/ext/CMSIS/include/core_cmFunc.h" 1
 858 0004 83F31188 		MSR basepri, r3
 859              	@ 0 "" 2
 860              		.thumb
 861 0008 FFF7FEFF 		bl	chMBPostS
 862 000c 0023     		movs	r3, #0
 863              	@ 546 "/home/cody/dev/chibios/trunk/os/ext/CMSIS/include/core_cmFunc.h" 1
 864 000e 83F31188 		MSR basepri, r3
 865              	@ 0 "" 2
 866              		.thumb
 867 0012 08BD     		pop	{r3, pc}
 868              		.size	chMBPost, .-chMBPost
 869 0014 AFF30080 		.section	.text.chMBPostI,"ax",%progbits
 869      AFF30080 
 869      AFF30080 
 870              		.align	2
 871              		.p2align 4,,15
 872              		.global	chMBPostI
ARM GAS  /tmp/ccu9gkU5.s 			page 60


 873              		.thumb
 874              		.thumb_func
 875              		.type	chMBPostI, %function
 876              	chMBPostI:
 877              		@ args = 0, pretend = 0, frame = 0
 878              		@ frame_needed = 0, uses_anonymous_args = 0
 879 0000 38B5     		push	{r3, r4, r5, lr}
 880 0002 436A     		ldr	r3, [r0, #36]
 881 0004 002B     		cmp	r3, #0
 882 0006 12DD     		ble	.L12
 883 0008 8468     		ldr	r4, [r0, #8]
 884 000a 4568     		ldr	r5, [r0, #4]
 885 000c 221D     		adds	r2, r4, #4
 886 000e 013B     		subs	r3, r3, #1
 887 0010 AA42     		cmp	r2, r5
 888 0012 4362     		str	r3, [r0, #36]
 889 0014 28BF     		it	cs
 890 0016 0368     		ldrcs	r3, [r0]
 891 0018 8260     		str	r2, [r0, #8]
 892 001a 2160     		str	r1, [r4]
 893 001c 00F11000 		add	r0, r0, #16
 894 0020 28BF     		it	cs
 895 0022 40F8083C 		strcs	r3, [r0, #-8]
 896 0026 FFF7FEFF 		bl	chSemSignalI
 897 002a 0020     		movs	r0, #0
 898 002c 38BD     		pop	{r3, r4, r5, pc}
 899              	.L12:
 900 002e 4FF0FF30 		mov	r0, #-1
 901 0032 38BD     		pop	{r3, r4, r5, pc}
 902              		.size	chMBPostI, .-chMBPostI
 903 0034 AFF30080 		.section	.text.chMBPostAheadS,"ax",%progbits
 903      AFF30080 
 903      AFF30080 
 904              		.align	2
 905              		.p2align 4,,15
 906              		.global	chMBPostAheadS
 907              		.thumb
 908              		.thumb_func
 909              		.type	chMBPostAheadS, %function
 910              	chMBPostAheadS:
 911              		@ args = 0, pretend = 0, frame = 0
 912              		@ frame_needed = 0, uses_anonymous_args = 0
 913 0000 70B5     		push	{r4, r5, r6, lr}
 914 0002 0446     		mov	r4, r0
 915 0004 0E46     		mov	r6, r1
 916 0006 1C30     		adds	r0, r0, #28
 917 0008 1146     		mov	r1, r2
 918 000a FFF7FEFF 		bl	chSemWaitTimeoutS
 919 000e 0546     		mov	r5, r0
 920 0010 60B9     		cbnz	r0, .L14
 921 0012 E368     		ldr	r3, [r4, #12]
 922 0014 2268     		ldr	r2, [r4]
 923 0016 043B     		subs	r3, r3, #4
 924 0018 9342     		cmp	r3, r2
 925 001a E360     		str	r3, [r4, #12]
 926 001c 08D3     		bcc	.L16
 927              	.L15:
ARM GAS  /tmp/ccu9gkU5.s 			page 61


 928 001e 1E60     		str	r6, [r3]
 929 0020 04F11000 		add	r0, r4, #16
 930 0024 FFF7FEFF 		bl	chSemSignalI
 931 0028 FFF7FEFF 		bl	chSchRescheduleS
 932              	.L14:
 933 002c 2846     		mov	r0, r5
 934 002e 70BD     		pop	{r4, r5, r6, pc}
 935              	.L16:
 936 0030 6368     		ldr	r3, [r4, #4]
 937 0032 043B     		subs	r3, r3, #4
 938 0034 E360     		str	r3, [r4, #12]
 939 0036 F2E7     		b	.L15
 940              		.size	chMBPostAheadS, .-chMBPostAheadS
 941 0038 AFF30080 		.section	.text.chMBPostAhead,"ax",%progbits
 941      AFF30080 
 942              		.align	2
 943              		.p2align 4,,15
 944              		.global	chMBPostAhead
 945              		.thumb
 946              		.thumb_func
 947              		.type	chMBPostAhead, %function
 948              	chMBPostAhead:
 949              		@ args = 0, pretend = 0, frame = 0
 950              		@ frame_needed = 0, uses_anonymous_args = 0
 951 0000 08B5     		push	{r3, lr}
 952 0002 2023     		movs	r3, #32
 953              	@ 546 "/home/cody/dev/chibios/trunk/os/ext/CMSIS/include/core_cmFunc.h" 1
 954 0004 83F31188 		MSR basepri, r3
 955              	@ 0 "" 2
 956              		.thumb
 957 0008 FFF7FEFF 		bl	chMBPostAheadS
 958 000c 0023     		movs	r3, #0
 959              	@ 546 "/home/cody/dev/chibios/trunk/os/ext/CMSIS/include/core_cmFunc.h" 1
 960 000e 83F31188 		MSR basepri, r3
 961              	@ 0 "" 2
 962              		.thumb
 963 0012 08BD     		pop	{r3, pc}
 964              		.size	chMBPostAhead, .-chMBPostAhead
 965 0014 AFF30080 		.section	.text.chMBPostAheadI,"ax",%progbits
 965      AFF30080 
 965      AFF30080 
 966              		.align	2
 967              		.p2align 4,,15
 968              		.global	chMBPostAheadI
 969              		.thumb
 970              		.thumb_func
 971              		.type	chMBPostAheadI, %function
 972              	chMBPostAheadI:
 973              		@ args = 0, pretend = 0, frame = 0
 974              		@ frame_needed = 0, uses_anonymous_args = 0
 975 0000 426A     		ldr	r2, [r0, #36]
 976 0002 002A     		cmp	r2, #0
 977 0004 10B5     		push	{r4, lr}
 978 0006 10DD     		ble	.L21
 979 0008 C368     		ldr	r3, [r0, #12]
 980 000a 0468     		ldr	r4, [r0]
 981 000c 043B     		subs	r3, r3, #4
ARM GAS  /tmp/ccu9gkU5.s 			page 62


 982 000e 013A     		subs	r2, r2, #1
 983 0010 A342     		cmp	r3, r4
 984 0012 4262     		str	r2, [r0, #36]
 985 0014 C360     		str	r3, [r0, #12]
 986 0016 02D2     		bcs	.L20
 987 0018 4368     		ldr	r3, [r0, #4]
 988 001a 043B     		subs	r3, r3, #4
 989 001c C360     		str	r3, [r0, #12]
 990              	.L20:
 991 001e 1960     		str	r1, [r3]
 992 0020 1030     		adds	r0, r0, #16
 993 0022 FFF7FEFF 		bl	chSemSignalI
 994 0026 0020     		movs	r0, #0
 995 0028 10BD     		pop	{r4, pc}
 996              	.L21:
 997 002a 4FF0FF30 		mov	r0, #-1
 998 002e 10BD     		pop	{r4, pc}
 999              		.size	chMBPostAheadI, .-chMBPostAheadI
 1000              		.section	.text.chMBFetchS,"ax",%progbits
 1001              		.align	2
 1002              		.p2align 4,,15
 1003              		.global	chMBFetchS
 1004              		.thumb
 1005              		.thumb_func
 1006              		.type	chMBFetchS, %function
 1007              	chMBFetchS:
 1008              		@ args = 0, pretend = 0, frame = 0
 1009              		@ frame_needed = 0, uses_anonymous_args = 0
 1010 0000 70B5     		push	{r4, r5, r6, lr}
 1011 0002 0446     		mov	r4, r0
 1012 0004 0E46     		mov	r6, r1
 1013 0006 1030     		adds	r0, r0, #16
 1014 0008 1146     		mov	r1, r2
 1015 000a FFF7FEFF 		bl	chSemWaitTimeoutS
 1016 000e 0546     		mov	r5, r0
 1017 0010 80B9     		cbnz	r0, .L23
 1018 0012 E368     		ldr	r3, [r4, #12]
 1019 0014 6268     		ldr	r2, [r4, #4]
 1020 0016 1968     		ldr	r1, [r3]
 1021 0018 0433     		adds	r3, r3, #4
 1022 001a 9342     		cmp	r3, r2
 1023 001c E360     		str	r3, [r4, #12]
 1024 001e 28BF     		it	cs
 1025 0020 2368     		ldrcs	r3, [r4]
 1026 0022 3160     		str	r1, [r6]
 1027 0024 04F11C00 		add	r0, r4, #28
 1028 0028 28BF     		it	cs
 1029 002a E360     		strcs	r3, [r4, #12]
 1030 002c FFF7FEFF 		bl	chSemSignalI
 1031 0030 FFF7FEFF 		bl	chSchRescheduleS
 1032              	.L23:
 1033 0034 2846     		mov	r0, r5
 1034 0036 70BD     		pop	{r4, r5, r6, pc}
 1035              		.size	chMBFetchS, .-chMBFetchS
 1036 0038 AFF30080 		.section	.text.chMBFetch,"ax",%progbits
 1036      AFF30080 
 1037              		.align	2
ARM GAS  /tmp/ccu9gkU5.s 			page 63


 1038              		.p2align 4,,15
 1039              		.global	chMBFetch
 1040              		.thumb
 1041              		.thumb_func
 1042              		.type	chMBFetch, %function
 1043              	chMBFetch:
 1044              		@ args = 0, pretend = 0, frame = 0
 1045              		@ frame_needed = 0, uses_anonymous_args = 0
 1046 0000 08B5     		push	{r3, lr}
 1047 0002 2023     		movs	r3, #32
 1048              	@ 546 "/home/cody/dev/chibios/trunk/os/ext/CMSIS/include/core_cmFunc.h" 1
 1049 0004 83F31188 		MSR basepri, r3
 1050              	@ 0 "" 2
 1051              		.thumb
 1052 0008 FFF7FEFF 		bl	chMBFetchS
 1053 000c 0023     		movs	r3, #0
 1054              	@ 546 "/home/cody/dev/chibios/trunk/os/ext/CMSIS/include/core_cmFunc.h" 1
 1055 000e 83F31188 		MSR basepri, r3
 1056              	@ 0 "" 2
 1057              		.thumb
 1058 0012 08BD     		pop	{r3, pc}
 1059              		.size	chMBFetch, .-chMBFetch
 1060 0014 AFF30080 		.section	.text.chMBFetchI,"ax",%progbits
 1060      AFF30080 
 1060      AFF30080 
 1061              		.align	2
 1062              		.p2align 4,,15
 1063              		.global	chMBFetchI
 1064              		.thumb
 1065              		.thumb_func
 1066              		.type	chMBFetchI, %function
 1067              	chMBFetchI:
 1068              		@ args = 0, pretend = 0, frame = 0
 1069              		@ frame_needed = 0, uses_anonymous_args = 0
 1070 0000 8369     		ldr	r3, [r0, #24]
 1071 0002 002B     		cmp	r3, #0
 1072 0004 10B5     		push	{r4, lr}
 1073 0006 13DD     		ble	.L29
 1074 0008 5A1E     		subs	r2, r3, #1
 1075 000a C368     		ldr	r3, [r0, #12]
 1076 000c 8261     		str	r2, [r0, #24]
 1077 000e 4268     		ldr	r2, [r0, #4]
 1078 0010 1C68     		ldr	r4, [r3]
 1079 0012 0433     		adds	r3, r3, #4
 1080 0014 9342     		cmp	r3, r2
 1081 0016 C360     		str	r3, [r0, #12]
 1082 0018 28BF     		it	cs
 1083 001a 0368     		ldrcs	r3, [r0]
 1084 001c 0C60     		str	r4, [r1]
 1085 001e 00F11C00 		add	r0, r0, #28
 1086 0022 28BF     		it	cs
 1087 0024 40F8103C 		strcs	r3, [r0, #-16]
 1088 0028 FFF7FEFF 		bl	chSemSignalI
 1089 002c 0020     		movs	r0, #0
 1090 002e 10BD     		pop	{r4, pc}
 1091              	.L29:
 1092 0030 4FF0FF30 		mov	r0, #-1
ARM GAS  /tmp/ccu9gkU5.s 			page 64


 1093 0034 10BD     		pop	{r4, pc}
 1094              		.size	chMBFetchI, .-chMBFetchI
 1095              		.comm	__gnu_lto_v1,1,1
 1096 0036 00BFAFF3 		.ident	"GCC: (GNU Tools for ARM Embedded Processors) 4.8.4 20140526 (release) [ARM/embedded-4_8-br
 1096      0080AFF3 
 1096      0080
ARM GAS  /tmp/ccu9gkU5.s 			page 65


DEFINED SYMBOLS
                            *ABS*:0000000000000000 chmboxes.c
     /tmp/ccu9gkU5.s:735    .text.chMBObjectInit:0000000000000000 $t
     /tmp/ccu9gkU5.s:741    .text.chMBObjectInit:0000000000000000 chMBObjectInit
     /tmp/ccu9gkU5.s:761    .text.chMBResetI:0000000000000000 $t
     /tmp/ccu9gkU5.s:767    .text.chMBResetI:0000000000000000 chMBResetI
     /tmp/ccu9gkU5.s:786    .text.chMBReset:0000000000000000 $t
     /tmp/ccu9gkU5.s:792    .text.chMBReset:0000000000000000 chMBReset
     /tmp/ccu9gkU5.s:811    .text.chMBPostS:0000000000000000 $t
     /tmp/ccu9gkU5.s:817    .text.chMBPostS:0000000000000000 chMBPostS
     /tmp/ccu9gkU5.s:846    .text.chMBPost:0000000000000000 $t
     /tmp/ccu9gkU5.s:852    .text.chMBPost:0000000000000000 chMBPost
     /tmp/ccu9gkU5.s:870    .text.chMBPostI:0000000000000000 $t
     /tmp/ccu9gkU5.s:876    .text.chMBPostI:0000000000000000 chMBPostI
     /tmp/ccu9gkU5.s:904    .text.chMBPostAheadS:0000000000000000 $t
     /tmp/ccu9gkU5.s:910    .text.chMBPostAheadS:0000000000000000 chMBPostAheadS
     /tmp/ccu9gkU5.s:942    .text.chMBPostAhead:0000000000000000 $t
     /tmp/ccu9gkU5.s:948    .text.chMBPostAhead:0000000000000000 chMBPostAhead
     /tmp/ccu9gkU5.s:966    .text.chMBPostAheadI:0000000000000000 $t
     /tmp/ccu9gkU5.s:972    .text.chMBPostAheadI:0000000000000000 chMBPostAheadI
     /tmp/ccu9gkU5.s:1001   .text.chMBFetchS:0000000000000000 $t
     /tmp/ccu9gkU5.s:1007   .text.chMBFetchS:0000000000000000 chMBFetchS
     /tmp/ccu9gkU5.s:1037   .text.chMBFetch:0000000000000000 $t
     /tmp/ccu9gkU5.s:1043   .text.chMBFetch:0000000000000000 chMBFetch
     /tmp/ccu9gkU5.s:1061   .text.chMBFetchI:0000000000000000 $t
     /tmp/ccu9gkU5.s:1067   .text.chMBFetchI:0000000000000000 chMBFetchI
                            *COM*:0000000000000001 __gnu_lto_v1

UNDEFINED SYMBOLS
chSemObjectInit
chSemResetI
chSchRescheduleS
chSemWaitTimeoutS
chSemSignalI
