ARM GAS  /tmp/ccxsInKt.s 			page 1


   1              		.syntax unified
   2              		.cpu cortex-m3
   3              		.fpu softvfp
   4              		.eabi_attribute 20, 1
   5              		.eabi_attribute 21, 1
   6              		.eabi_attribute 23, 3
   7              		.eabi_attribute 24, 1
   8              		.eabi_attribute 25, 1
   9              		.eabi_attribute 26, 1
  10              		.eabi_attribute 30, 2
  11              		.eabi_attribute 34, 1
  12              		.eabi_attribute 18, 4
  13              		.thumb
  14              		.file	"chmempools.c"
  15              		.section	.gnu.lto_.jmpfuncs.60ab60ad4c61c9f9,"",%progbits
  16 0000 789C6362 		.ascii	"x\234cb`b\300\006\244\2414\033\003;#;\023##\220y\200"
  16      6062C006 
  16      A4A1341B 
  16      033B233B 
  16      13232390 
  17 0016 818D19C4 		.ascii	"\201\215\031\304\250g``afef\000\000\027\362\001\222"
  17      A8676060 
  17      61666566 
  17      000017F2 
  17      0192
  18              		.text
  19              		.section	.gnu.lto_.inline.60ab60ad4c61c9f9,"",%progbits
  20 0000 789C6D4F 		.ascii	"x\234mO!\016\302@\020\234\335\273\366\332\006\002-\002"
  20      210EC240 
  20      109CDDBB 
  20      F6DA0602 
  20      2D02
  21 0012 090E4750 		.ascii	"\011\016GP\325}\001\032\215\001~Q\211 )\022C\202E`I"
  21      D57D011A 
  21      8D017E51 
  21      89202912 
  21      43824560 
  22 0027 9F81AC42 		.ascii	"\237\201\254B\203\343\011\354\335\0015\\.\2673;s\231"
  22      83E309EC 
  22      DD01355C 
  22      2EB7333B 
  22      7399
  23 0039 5D06E3DF 		.ascii	"]\006\343\337I\311\327Pn@`U\017\0217\2713\023\272O\020"
  23      49C9D750 
  23      6E406055 
  23      0F1137B9 
  23      3313BA4F 
  24 004e B1B5705A 		.ascii	"\261\265pZ\335\023\304\307\0353\264\345H\0232X/hce\005"
  24      DD13C4C7 
  24      1D33B4E5 
  24      48133258 
  24      2F686365 
  25 0063 AC5AE8BA 		.ascii	"\254Z\350\272\202U\341\273\036\222\323Z<Nl\356i\304"
  25      8255E1BB 
  25      1E92D35A 
  25      3C4E6CEE 
  25      69C4
ARM GAS  /tmp/ccxsInKt.s 			page 2


  26 0075 A0872918 		.ascii	"\240\207)\030\301v\"BC%EB\352H*\350L%\367\205\177\000"
  26      C1762242 
  26      43254542 
  26      EA482AE8 
  26      4C25F785 
  27 008b D425D3A0 		.ascii	"\324%\323\240*\324n\302 \205\364h?W\030td\372\354\272"
  27      2AD46EC2 
  27      2085F468 
  27      3F571874 
  27      64FAECBA 
  28 009f 4472987D 		.ascii	"Dr\230}5\253h\273\027\371p\315\267\036\242\327\324%"
  28      35AB68BB 
  28      17F970CD 
  28      B71EA2D7 
  28      D425
  29 00b1 6AFF3A2B 		.ascii	"j\377:+\"#\277M\223\377v\307\033\257\224\037\255"
  29      2223BF4D 
  29      93FF76C7 
  29      1BAF941F 
  29      AD
  30              		.text
  31              		.section	.gnu.lto_.pureconst.60ab60ad4c61c9f9,"",%progbits
  32 0000 789C6362 		.ascii	"x\234cb`b\340e\200\0006\006)F+&)f+\026)V+\000\007\246"
  32      6062E065 
  32      80003606 
  32      29462B26 
  32      29662B16 
  33 001a 0123     		.ascii	"\001#"
  34              		.text
  35              		.section	.gnu.lto_chPoolObjectInit.60ab60ad4c61c9f9,"",%progbits
  36 0000 789C6D8F 		.ascii	"x\234m\2171K\003A\020\205\337\333\273\004!?@\354\204"
  36      314B0341 
  36      1085DFDB 
  36      BB04213F 
  36      40EC84
  37 0013 9482DB88 		.ascii	"\224\202\333\210\277$\001-\315\346H\016=W\356\222\200"
  37      BF24012D 
  37      CDE6480E 
  37      3D57EE92 
  37      80
  38 0024 552E22D6 		.ascii	"U.\"\326)E+[\003\332^\251\265\250\244K\231\372*K\273"
  38      29452B5B 
  38      03DA5EA9 
  38      B5A8A44B 
  38      99FA2A4B 
  39 0039 387BAB4D 		.ascii	"8{\253M\314\300\316\014\263\357{\263\253\240\260\036"
  39      CCC0CE0C 
  39      B3EF7BB3 
  39      ABA0B01E 
  40 0049 3B72B609 		.ascii	";r\266\011\034Je\000\252\351\0070\331R\244k@\214\025"
  40      1C4A6500 
  40      AAE90730 
  40      D952A46B 
  40      408C15
  41 005c C7C7ACB4 		.ascii	"\307\307\254\264\317\352e\271Z=\0257\237\257\2345E\223"
  41      CFEA65B9 
  41      5A3D1537 
ARM GAS  /tmp/ccxsInKt.s 			page 3


  41      9FAF9C35 
  41      4593
  42 006e 10A124D6 		.ascii	"\020\241$\326%9\353\032\256\363|\272\013\230\012hIv"
  42      2539EB1A 
  42      AEF37CBA 
  42      0B980A68 
  42      4976
  43 0080 2E6DB994 		.ascii	".m\271\224\032\274\343\252\270-\277y\302\007\326\260"
  43      1ABCE3AA 
  43      B82DBF79 
  43      C207D6B0 
  44 0090 87C75CA2 		.ascii	"\207\307\\\242\021\023\367\270cL\366\250\216\244\372"
  44      1113F7B8 
  44      634CF6A8 
  44      8EA4FA
  45 009f 4776FC4E 		.ascii	"Gv\374N\270I\325\010\375V\224_j\235\0166\323\036\352"
  45      B849D508 
  45      FD56945F 
  45      6A9D0E36 
  45      D31EEA
  46 00b2 31F4E4A2 		.ascii	"1\364\344\242\\\374#\303\315\244\372%\353\300\034\223"
  46      5CFC23C3 
  46      CDA4FA25 
  46      EBC01C93 
  47 00c2 E5ACE9B9 		.ascii	"\345\254\351\271\277h\211\265\374\306\251\016t\337&"
  47      BF6889B5 
  47      FCC6A90E 
  47      74DF26
  48 00d1 9136B67B 		.ascii	"\2216\266{\251\273\321H\233~\334\211m\246\007\351\360"
  48      A9BBD148 
  48      9B7EDC89 
  48      6DA607E9 
  48      F0
  49 00e2 FC544B93 		.ascii	"\374TK\223\016t\226\032\231'Qra\355Y\266o\360\003\010"
  49      0E74961A 
  49      99275172 
  49      61ED59B6 
  49      6FF00308 
  50 00f6 59545C   		.ascii	"YT\\"
  51              		.text
  52              		.section	.gnu.lto_chPoolLoadArray.60ab60ad4c61c9f9,"",%progbits
  53 0000 789C8D52 		.ascii	"x\234\215RMh\023Q\020\236yo7\233?\261\336z(! ^l\351"
  53      4D681351 
  53      109E796F 
  53      379B3FB1 
  53      DE7A2821 
  54 0018 7AF02A14 		.ascii	"z\360*\024\004\241\207^L\013z\222\315f\331,v\263e\223"
  54      04A1875E 
  54      4C0B7A92 
  54      CD66D92C 
  54      76B36593 
  55 002c 487BEA4B 		.ascii	"H{\352K\023P1\224\202\245-\326\200\202\340\317AoE\250"
  55      13503194 
  55      82A52DD6 
  55      8082E0CF 
  55      416F45A8 
  56 0040 8839550F 		.ascii	"\2109U\017\026\274Y\365\020P\360\"\210x\362\024\347"
ARM GAS  /tmp/ccxsInKt.s 			page 4


  56      16BC59F5 
  56      1050F022 
  56      8878F214 
  56      E7
  57 0051 ED4BB645 		.ascii	"\355K\266E\020}\360\346\315\233\231\357\233\037\206"
  57      107DF0E6 
  57      CD9B99EF 
  57      9B1F86
  58 0060 01833FCF 		.ascii	"\001\203?\3179\272\367\310|\233^L\000\262\265}\200F"
  58      39BAF7C8 
  58      7C9B5E4C 
  58      00B2B57D 
  58      8046
  59 0072 92A1A614 		.ascii	"\222\241\246\024\256\224nRc\274\275\007 \322z\313\000"
  59      AE946E52 
  59      63BCBD07 
  59      20D27ACB 
  59      00
  60 0083 91D511A5 		.ascii	"\221\325\021\245\035\020\226\031\327t\\\276\214\021"
  60      1D109619 
  60      D7745CBE 
  60      8C11
  61 0091 DF33F6AA 		.ascii	"\3373\366\252\327\357?]\277\376\362\005v\330\011\004"
  61      D7EF3F5D 
  61      BFFEF205 
  61      76D80904 
  62 00a1 1F29AB8F 		.ascii	"\037)\253\217\250!i:\0114H\260\024x\010i\351\315Ho\226"
  62      A821693A 
  62      093448B0 
  62      14780869 
  62      E9CD486F 
  63 00b6 BE924087 		.ascii	"\276\222@\207\226\020ky\000;\242\233%I\351f\221\321"
  63      96106B79 
  63      003BA29B 
  63      2549E966 
  63      91D1
  64 00c8 C3E79003 		.ascii	"\303\347\220\003\325\300\367a\345\307\367\365\317\243"
  64      D5C0F761 
  64      E5C7F7F5 
  64      CFA3
  65 00d6 71B085F7 		.ascii	"q\260\205\367Q\207\250\032\204E.\333\344\252\327\034"
  65      5187A81A 
  65      84452EDB 
  65      E4AAD71C 
  66 00e6 DCC48ED8 		.ascii	"\334\304\216\330\232\3620\372^B\017y^j\261\277=\360"
  66      9AF230FA 
  66      5E420F79 
  66      5E6AB1BF 
  66      3DF0
  67 00f8 6B6A1E6F 		.ascii	"kj\036oa\345\303\247/\033\0231\267R\304\317\315\334"
  67      61E5C3A7 
  67      2F1B1331 
  67      B752C4CF 
  67      CDDC
  68 010a 308F1D55 		.ascii	"0\217\035U\012.f\267\341NC\210\021*\335ECr\353\020\263"
  68      0A2E66B7 
  68      E14E4388 
ARM GAS  /tmp/ccxsInKt.s 			page 5


  68      112ADD45 
  68      4372EB10 
  69 011f BC79BED3 		.ascii	"\274y\276\323e\026>\"\3338<\021t\216Q\\\214H\270\210"
  69      65163E22 
  69      DB383C11 
  69      748E515C 
  69      8C48B888 
  70 0133 12A1A656 		.ascii	"\022\241\246V\224\217\205\217%\001\361*\202\367;\277"
  70      948F858F 
  70      2501F12A 
  70      82F73BBF 
  71 0143 5011FC25 		.ascii	"P\021\374%\217+\321\3773\014\013\037\320\350\242\346"
  71      8F2BD1FF 
  71      330C0B1F 
  71      D0E8A2E6 
  72 0153 E148F316 		.ascii	"\341H\363\026>\304\334\221\266{\253\323\012\354bj\034"
  72      3EC4DC91 
  72      B67BABD3 
  72      0AEC626A 
  72      1C
  73 0164 4E7B68A8 		.ascii	"N{h\250\304b\233\220\311A\352\324\240`\214[m\336j\346"
  73      C4629B90 
  73      C941EAD4 
  73      A0608C5B 
  73      6DDE6AE6 
  74 0178 86B8B42B 		.ascii	"\206\270\264+kLE\346\033\315\257\253\211\241#\343\""
  74      6B4C45E6 
  74      1BCDAFAB 
  74      89A123E3 
  74      22
  75 0189 9370A34F 		.ascii	"\223p\243O\347\370\000;GS\247-\342\257\241\365\255\333"
  75      E7F8003B 
  75      4753A72D 
  75      E2AFA1F5 
  75      ADDB
  76 019b D9CB0E83 		.ascii	"\331\313\016\203U\344\341\222\036\000\221j\214D\232"
  76      55E4E192 
  76      1E00916A 
  76      8C449A
  77 01aa B777C70E 		.ascii	"\267w\307\016\200\271\250\313o\206\337\335\035\225<"
  77      80B9A8CB 
  77      6F86DFDD 
  77      1D953C
  78 01b9 BADC8F77 		.ascii	"\272\334\217w\320\350}<\031\367\017j\203\220\\\262\335"
  78      D0E87D3C 
  78      19F70F6A 
  78      83905CB2 
  78      DD
  79 01ca B36639F0 		.ascii	"\263f9\360\035\323\016JKf\311\271f\332e\257\350\005"
  79      1DD30E4A 
  79      4B66C9B9 
  79      66DA65AF 
  79      E805
  80 01dc 55B316D6 		.ascii	"U\263\026\326+WMR\302\232Y\015m\262\373\216\277\020"
  80      2B574D52 
  80      C29A590D 
  80      6DB2FB8E 
ARM GAS  /tmp/ccxsInKt.s 			page 6


  80      BF10
  81 01ee 04F3D549 		.ascii	"\004\363\325I\033\246\376\005r\026k\346\371\231\302"
  81      1BA6FE05 
  81      72166BE6 
  81      F999C2
  82 01fd 74C1F42A 		.ascii	"t\301\364*\366|\275$cC\347\212\355_\250W\354\3112\214"
  82      F67CBD24 
  82      6343E78A 
  82      ED5FA857 
  82      ECC9328C 
  83 0211 CC142EE6 		.ascii	"\314\024.\346\213V\325Y\010\275\211\374\2513\300B0("
  83      8B56D559 
  83      08BD89FC 
  83      A933C042 
  83      3028
  84 0223 41102EC1 		.ascii	"A\020.\301od\243\311\017"
  84      6F64A3C9 
  84      0F
  85              		.text
  86              		.section	.gnu.lto_chPoolAllocI.60ab60ad4c61c9f9,"",%progbits
  87 0000 789C8552 		.ascii	"x\234\205R\277O\024A\024~\337\374Xn\357 \022K+b)\211"
  87      BF4F1441 
  87      147EDFFC 
  87      586EEF20 
  87      124B2B62 
  88 0016 DB905018 		.ascii	"\333\220P\030\376\002K%\221\222[.\334\252\347\222\273"
  88      FE024B25 
  88      91925B2E 
  88      DCAAE792 
  88      BB
  89 0027 D3C48230 		.ascii	"\323\304\2020g\316BBA\250DB\024\351h\240\264\320x%\026"
  89      67CE4242 
  89      41A84442 
  89      14E968A0 
  89      B4D07825 
  90 003c 6AE8C458 		.ascii	"j\350\304X\\\250(,H\210\011\005q}3\354lrh\342$;o\336"
  90      5CA8282C 
  90      48880905 
  90      717D33EC 
  90      6C7268E2 
  91 0054 97F77DEF 		.ascii	"\227\367}\357{;#H\320\345u\233\277\224\341[\0341D\020"
  91      7B3B2348 
  91      D0E5759B 
  91      BF94E15B 
  91      1C314410 
  92 0068 AB5F883A 		.ascii	"\253_\210:%!\344\346\024\231\262:\035%3,\021\\\300J"
  92      2521E4E6 
  92      1499B23A 
  92      1D25332C 
  92      115CC04A 
  93 007c E80D0B07 		.ascii	"\350\015\013\007\277,\254=\034\000\366@\240%!\225\016"
  93      BF2CAC3D 
  93      1C00F640 
  93      A0252195 
  93      0E
  94 008d B034032B 		.ascii	"\2604\003+\216\353\264e\314Z\377\371\357}\254\233^\367"
  94      8EEBB465 
ARM GAS  /tmp/ccxsInKt.s 			page 7


  94      CC5AFFF9 
  94      EF7DAC9B 
  94      5EF7
  95 009f 8D39CF32 		.ascii	"\2159\3172 \001\033\231\004\305\240{\234`\314\005\241"
  95      20011B99 
  95      04C5A07B 
  95      9C60CC05 
  95      A1
  96 00b0 069DED8A 		.ascii	"\006\235\355\212^?\313\316?\274?Z\306\325a\320,\266"
  96      5E3FCBCE 
  96      3FBC3F5A 
  96      C6D561D0 
  96      2CB6
  97 00c2 584FA101 		.ascii	"XO\241\001\322y\022P\002Y\342M\205\274\351J\016\363"
  97      D2791250 
  97      0259E24D 
  97      85BCE94A 
  97      0EF3
  98 00d4 D2D43566 		.ascii	"\322\3245fu\314\347\261\263s\227w\353s\032\302F\371"
  98      75CCE7B1 
  98      B3739777 
  98      EB731AC2 
  98      46F9
  99 00e6 999E7D7F 		.ascii	"\231\236}\177\227\035c\026\333\3204\017=N;\206\327\035"
  99      971D6316 
  99      DBD0340F 
  99      3D4E3B86 
  99      D71D
 100 00f8 56DDA057 		.ascii	"V\335\240W\354)\230\207\262\336\206\234\243*\274\267"
 100      EC299887 
 100      B2DE869C 
 100      A32ABCB7 
 101 0108 7DEAFEEC 		.ascii	"}\352\376\354\214\024<[2\340}\032\2226\247\\\203o\331"
 101      8C143C5B 
 101      32E07D1A 
 101      9236A75C 
 101      836FD9
 102 011b 89F485C1 		.ascii	"\211\364\205\3018\335(\264K9Q\346\332^\201I\237\366"
 102      38DD28B4 
 102      4B3951E6 
 102      DA5E8149 
 102      9FF6
 103 012d CA1794DC 		.ascii	"\312\027\224\334\320\225\377\030be\337W\321\351\250"
 103      D095FF18 
 103      6265DF57 
 103      D1E9A8
 104 013c EB7B969D 		.ascii	"\353{\226\235\024\203\225\\\337\360\337\022\376M\270"
 104      1483955C 
 104      DFF0DF12 
 104      FE4DB8
 105 014b 99260B8A 		.ascii	"\231&\013\212-\011\007g\322\364z\304i\277|{X\314\024"
 105      2D090767 
 105      D2F47AC4 
 105      69BF7C7B 
 105      58CC14
 106 015e 3AED326B 		.ascii	":\3552kw\330\351\342\337\3722\347\177\245n\357\232g"
 106      77D8E9E2 
ARM GAS  /tmp/ccxsInKt.s 			page 8


 106      DFFA32E7 
 106      7FA56EEF 
 106      9A67
 107 0170 55B883F5 		.ascii	"U\270\203\365\035&\250x\371\300]\312\001u\372/j\276"
 107      1D26A878 
 107      F9C05DCA 
 107      0175FA2F 
 107      6ABE
 108 0182 CE0D7848 		.ascii	"\316\015xH\340\177%\177|lsP\226\255W\016\352\366>a)"
 108      E07F257F 
 108      7C6C7350 
 108      96AD570E 
 108      EAF63E61 
 109 0197 768089A8 		.ascii	"v\200\211\250\2366jQ\234\316=\215\346jO\242\270\236"
 109      9E366A51 
 109      9CCE3D8D 
 109      E66A4FA2 
 109      B89E
 110 01a9 5493B415 		.ascii	"T\223\264\025\265\233\217\037=\210\370\320lG\255f\314"
 110      B59B8F1F 
 110      3D88F8D0 
 110      6C47AD66 
 110      CC
 111 01ba 78A3D658 		.ascii	"x\243\326XH\323\207\255\2331\251\264z\177\341\017\177"
 111      48D387AD 
 111      9B31A9B4 
 111      7A7FE10F 
 111      7F
 112 01cb B0A257   		.ascii	"\260\242W"
 113              		.text
 114              		.section	.gnu.lto_chPoolAlloc.60ab60ad4c61c9f9,"",%progbits
 115 0000 789C8D92 		.ascii	"x\234\215\222Mh\023A\024\307\337\233\331\335|k\024\017"
 115      4D681341 
 115      14C7DF9B 
 115      D9DD7C6B 
 115      140F
 116 0012 45B004C1 		.ascii	"E\260\004\301\213\225\256\007\241\247BA\020D\352\301"
 116      8B95AE07 
 116      A1A74241 
 116      1044EAC1 
 117 0022 18D0936C 		.ascii	"\030\320\223l6K\262\332\315\206M\"\366 \235\224\034"
 117      364BB2DA 
 117      CD864D22 
 117      F6209D94 
 117      1C
 118 0033 45AB2844 		.ascii	"E\253(DK\320*(\266\210=z3x\321\036\254\024/Vz(\212\267"
 118      4BD02A28 
 118      B6883D7A 
 118      3378D11E 
 118      AC142F56 
 119 004b 1E2A5510 		.ascii	"\036*U\020,\2543\373\021\222B\261\0332o\346\355{\377"
 119      2CAC33FB 
 119      119242B1 
 119      1B326FE6 
 119      ED7BFF
 120 005e FF6F6687 		.ascii	"\377of\207\000\201\235\3179\376?O\001Z<b\004\220\314"
 120      00819DCF 
ARM GAS  /tmp/ccxsInKt.s 			page 9


 120      39FE3F4F 
 120      015A3C62 
 120      0490CC
 121 0071 2C0334A2 		.ascii	",\0034\242\204\320\366(\260\270\264\225\006\226\244"
 121      84D0F628 
 121      B0B8B495 
 121      0696A4
 122 0080 A8F86989 		.ascii	"\250\370i\211\310\263\"\255\374\026i9L+\210b\002\010"
 122      C8B322AD 
 122      FC166939 
 122      4C2B8862 
 122      0208
 123 0092 53844AB2 		.ascii	"S\204J\262\202S\227Q\210\343Q\230c\354\336\372\217\027"
 123      82539751 
 123      88E35198 
 123      63ECDEFA 
 123      8F17
 124 00a4 4BF89075 		.ascii	"K\370\220u\232O\330\266\353\"\232\310AF\020t\204K|\201"
 124      9A4FD8B6 
 124      EB229AC8 
 124      41461074 
 124      844B7C81 
 125 00b8 192F10A9 		.ascii	"\031/\020\251\237\3545\351\254\273\356\306\3477\337"
 125      9FEC35E9 
 125      ACBBEEC6 
 125      E737DF
 126 00c7 5EE1C103 		.ascii	"^\341\301\003\024-\004\0054\234\343\242\0210\221F\371"
 126      142D0405 
 126      349CE3A2 
 126      11309146 
 126      F9
 127 00d8 20C5F820 		.ascii	" \305\370 \307\203t\"\210\374\221\241\311\330L&\\\353"
 127      C7837422 
 127      88FC91A1 
 127      C9D84C26 
 127      5CEB
 128 00ea 1ECE453E 		.ascii	"\036\316E>\012\316\034\022\021\3512L\377\334\276\377"
 128      0ACE1C12 
 128      11E9324C 
 128      FFDCBEFF 
 129 00fa 7D202806 		.ascii	"} (\006\336\376\014e\017\234\377nRq\\\324?\263A\270"
 129      DEFE0C65 
 129      0F9CFF6E 
 129      52715CD4 
 129      3FB341B8 
 130 010e 8D6DD61A 		.ascii	"\215m\326\0323Q\021K\301\033\311\210Y\367\375\335\340"
 130      3351114B 
 130      C11BC988 
 130      59F7FDDD 
 130      E0
 131 011f 7DD4A7FF 		.ascii	"}\324\247\377\010\323_\327~\3359\322\325\366'l\341\301"
 131      08D35FD7 
 131      7EDD39D2 
 131      D5F6276C 
 131      E1C1
 132 0131 40E8A3A3 		.ascii	"@\350\243\243GUDe\010\346\031c\235\277\357\017\361}"
 132      47554465 
ARM GAS  /tmp/ccxsInKt.s 			page 10


 132      08E61963 
 132      9DBFEF0F 
 132      F17D
 133 0143 CDC2A306 		.ascii	"\315\302\243\006ci\023cE\244\302(\356\011\346E\261\206"
 133      63691363 
 133      45A4C228 
 133      EE09E645 
 133      B186
 134 0155 0B3EE007 		.ascii	"\013>\340\007hn4R\032\316\363%\027\020e}\207\227C\012"
 134      686E3452 
 134      1ACEF325 
 134      1710657D 
 134      8797430A 
 135 0169 ED512A28 		.ascii	"\355Q*(\276\270\2334,\214\014\301\361^\213D\320K\003"
 135      BEB89B34 
 135      2C8C0CC1 
 135      F15E8B44 
 135      D04B03
 136 017c 0BECB1E0 		.ascii	"\013\354\261\340\275K\213q\277\323\007d\373\367\206"
 136      BD4B8B71 
 136      BFD30764 
 136      FBF786
 137 018b C77D420A 		.ascii	"\307}B\012\011\266\322\036\305\037w\023C\212\250G\221"
 137      09B6D21E 
 137      C51F7713 
 137      438AA847 
 137      91
 138 019c DC5589EC 		.ascii	"\334U\211\354\334\350H\267S\224%\3737*\303\343\224g"
 138      DCE848B7 
 138      539425FB 
 138      372AC3E3 
 138      9467
 139 01ae D17ABADA 		.ascii	"\321z\272\332\335h\314\263H\355jA{,>A\263s8l\214\027"
 139      DD68CCB3 
 139      48ED6A41 
 139      7B2C3E41 
 139      B373386C 
 140 01c4 C517E402 		.ascii	"\305\027\344\002&\356\013\035\224=\337\026\015\237s"
 140      26EE0B1D 
 140      943DDF16 
 140      0D9F73
 141 01d3 69EF7640 		.ascii	"i\357v@\317\355\320\360%\016\372j+\320X|\227\363[\213"
 141      CFEDD0F0 
 141      250EFA6A 
 141      2BD0587C 
 141      97F35B8B 
 142 01e7 9810A955 		.ascii	"\230\020\251U\020\237\201\256\275\255\361 \011\006\371"
 142      109F81AE 
 142      BDADF120 
 142      0906F9
 143 01f6 D64A495C 		.ascii	"\326JI\\W\024\306B\341\224Z\262-C\325\355\302\244Z0"
 143      5714C642 
 143      E1945AB2 
 143      2D43D5ED 
 143      C2A45A30 
 144 020a AEAB7AC9 		.ascii	"\256\253z\311\314\233vU\2559\365\3625\225O\234\232Z"
 144      CC9B7655 
ARM GAS  /tmp/ccxsInKt.s 			page 11


 144      AD39F5F2 
 144      35954F9C 
 144      9A5A
 145 021c 75749EB7 		.ascii	"ut\236\267\014\253b\333\023\325a\035$;\177\2652\366"
 145      0CAB62DB 
 145      13D5611D 
 145      243B7FB5 
 145      32F6
 146 022e BF4EE346 		.ascii	"\277N\343FM==\236=\233U\315\262>Q/\210Z\307\270\242"
 146      4D3D3D9E 
 146      3D9B55CD 
 146      B23E512F 
 146      885AC7B8 
 147 0243 5B67EA65 		.ascii	"[g\352e}\270\004\351\361\354\205L^\253\032\025\307<"
 147      7DB804E9 
 147      F1EC854C 
 147      5EAB1A15 
 147      C73C
 148 0255 91397612 		.ascii	"\2219v\022\210\003\021\356b;\223\360\017\001\342\360"
 148      880311EE 
 148      623B93F0 
 148      0F01E2F0 
 149 0265 71       		.ascii	"q"
 150              		.text
 151              		.section	.gnu.lto_chPoolFreeI.60ab60ad4c61c9f9,"",%progbits
 152 0000 789C6362 		.ascii	"x\234cb`b@\007\222@\314\303\310\300`\006\244\031\231"
 152      60624007 
 152      9240CCC3 
 152      C8C06006 
 152      A41999
 153 0013 19189926 		.ascii	"\031\030\231&\234c`h\344`bd\0041\030\030\031\352\231"
 153      9C636068 
 153      E4606264 
 153      04311818 
 153      19EA99
 154 0026 18EB2319 		.ascii	"\030\353#\031\301j\3273\035x\360\377\377\272i\247\267"
 154      C16AD733 
 154      1D78F0FF 
 154      FFBA69A7 
 154      B7
 155 0037 EC615CCB 		.ascii	"\354a\\\313\304\316\310\230\313\310\300\014$\030Y\030"
 155      C4CEC898 
 155      CBC8C00C 
 155      24185918 
 156 0047 32C12A58 		.ascii	"2\301*X\031Z\032\032&(00$\203\271!@\022dJ(#\023\210"
 156      195A1A1A 
 156      26283030 
 156      2483B921 
 156      4012644A 
 157 005f 663ECBD0 		.ascii	"f>\313\320tk\307\266\207L\211\214\013\031Y\031\322\031"
 157      746BC7B6 
 157      874C898C 
 157      0B195919 
 157      D219
 158 0071 59B419B4 		.ascii	"Y\264\031\264\200\032g3\314b\314ddLgd\216\000\322\020"
 158      801A6733 
 158      CC62CC64 
ARM GAS  /tmp/ccxsInKt.s 			page 12


 158      644C6764 
 158      8E00D210 
 159 0085 272631C2 		.ascii	"'&1\302\034\010\324tr\002\027D\2136\303\252\006 \340"
 159      1C08D474 
 159      72021744 
 159      8B36C3AA 
 159      0620E0
 160 0098 856B624E 		.ascii	"\205kbNgd\004ib\200j\2020\200&C\364\335\330\366\223"
 160      67640469 
 160      62806A82 
 160      30802643 
 160      F4DDD8F6 
 161 00ad 11452737 		.ascii	"\021E'7\001\353\322A&\\dh|p[\025\242\017\006B\200\022"
 161      01EBD241 
 161      265C6468 
 161      7C705B15 
 161      A20F0642 
 162 00c3 402F8054 		.ascii	"@/\200T\233\350g\344\347\246\352'\347\247T\352\247\244"
 162      9BE867E4 
 162      E7A6EA27 
 162      E7A754EA 
 162      A7A4
 163 00d5 96E92767 		.ascii	"\226\351'gd&e\346\027\353\227\024\225\346e\353\003\031"
 163      642665E6 
 163      17EB9714 
 163      95E665EB 
 163      0319
 164 00e7 4525FAC5 		.ascii	"E%\372\305E\311@\361\334\324\334\202\374\374\234b\275"
 164      45C940F1 
 164      DCD4DC82 
 164      FCFC9C62 
 164      BD
 165 00f8 64060049 		.ascii	"d\006\000I\227OT"
 165      974F54
 166              		.text
 167              		.section	.gnu.lto_chPoolFree.60ab60ad4c61c9f9,"",%progbits
 168 0000 789C8D51 		.ascii	"x\234\215Q\277K\033Q\034\377|\337%\215\330\012N\305"
 168      BF4B1B51 
 168      1CFF7CDF 
 168      258DD80A 
 168      4EC5
 169 0012 2E218B93 		.ascii	".!\213\223!\257C\377\200\200P\350\340\322X\250S\271"
 169      21AF43FF 
 169      808050E8 
 169      E0D258A8 
 169      53B9
 170 0024 BC1CC9D1 		.ascii	"\274\034\311\321\\N.\211$\223/\342R\342\020\260T\251"
 170      5C4E2E89 
 170      24932FE2 
 170      52E210B0 
 170      54A9
 171 0036 380805B5 		.ascii	"8\010\005\265C3(\316Y;4\340&\"\264h\241K\241\376\230"
 171      433328CE 
 171      593B34E0 
 171      2622B468 
 171      A14BA1FE 
 172 004b 3AE97BF7 		.ascii	":\351{\367\342\021\273\324\203{\357\373\275\367\371"
ARM GAS  /tmp/ccxsInKt.s 			page 13


 172      E211BBD4 
 172      837BEFFB 
 172      BDF7F9
 173 005a 75DFC7C0 		.ascii	"u\337\307\300\360\357\363D\275\277\010XU;Y \326\351"
 173      F0EFF344 
 173      BDBF0858 
 173      553B5920 
 173      D6E9
 174 006c 03AD1146 		.ascii	"\003\255\021F\244\013\020\026\031-\316Q\210\355\262"
 174      A40B1016 
 174      192DCE51 
 174      88EDB2
 175 007b DE8FEBEB 		.ascii	"\336\217\353\353/\227\355\375\337\324e\217,\362\010"
 175      2F97EDFD 
 175      DFD4658F 
 175      2CF208
 176 008a 31B55002 		.ascii	"1\265P\002n\210\210cY\312N\012\020a;\253V\255\362\212"
 176      6E888863 
 176      59CA4E0A 
 176      10613BAB 
 176      56ADF28A 
 177 009e 98DEAD3E 		.ascii	"\230\336\255>\226.\376\274?\233\210`6mQ\034\241\015"
 177      962EFEBC 
 177      3F9B8860 
 177      366D511C 
 177      A10D
 178 00b0 A161E978 		.ascii	"\241a\351x\226\311\230\304;\332\224\353Y\227B\245\327"
 178      96C998C4 
 178      3BDA94EB 
 178      599742A5 
 178      D7
 179 00c1 E4124BE9 		.ascii	"\344\022K\351*:_\031\234[\346?\276a\351\370\344\347"
 179      2A3A5F19 
 179      9C5BE63F 
 179      BE61E9F8 
 179      E4E7
 180 00d3 8774A46D 		.ascii	"\207t\244m\012y\265\226\274\365\021F\253H\211)|\226"
 180      0A79B596 
 180      BCF51146 
 180      AB488929 
 180      7C96
 181 00e5 52F6F6DA 		.ascii	"R\366\366\332\217U\356\015|lI9\356R\254H\2266\012\023"
 181      8F55EE0D 
 181      7C6C4939 
 181      EE52AC48 
 181      96360A13 
 182 00f9 21AFC136 		.ascii	"!\257\3016\355\232V\311\177\355\214\332\264\243Z\303"
 182      ED9A56C9 
 182      7FED8CDA 
 182      B4A35AC3 
 183 0109 9663C3DC 		.ascii	"\226c\303\334\007E\212i.\006\\\212\270\312\316\320\217"
 183      07458A69 
 183      2E065C8A 
 183      B8CACED0 
 183      8F
 184 011a 0EFED21D 		.ascii	"\016\376\322\035\201\207\3673W\312\300}Fg\323'5\215"
 184      8187F733 
ARM GAS  /tmp/ccxsInKt.s 			page 14


 184      57CAC07D 
 184      4667D327 
 184      358D
 185 012c 7054181A 		.ascii	"pT\030\032\225M\333\2244\271\016\321:?\375\036\213\270"
 185      954DDB94 
 185      34B90ED1 
 185      3A3FFD1E 
 185      8BB8
 186 013e 30B744FA 		.ascii	"0\267D\372v4\366\031/\371\236\303\205_h\362\202\263"
 186      7634F619 
 186      2FF99EC3 
 186      855F68F2 
 186      82B3
 187 0150 C045C9CD 		.ascii	"\300E\311\315\273~\225\327\202z\345-WEP\343\325@\250"
 187      BB7E95D7 
 187      827AE52D 
 187      574550E3 
 187      D540A8
 188 0163 EF9EE3CD 		.ascii	"\357\236\343\315\373~\271\232\021\310\376\217\3444j"
 188      FB7EB99A 
 188      11C8FE8F 
 188      E4346A
 189 0172 7C7A26F7 		.ascii	"|z&\367\"\307\335\212(\327\013\032\0338o\204\367\274"
 189      22C7DD8A 
 189      28D70B1A 
 189      1B386F84 
 189      F7BC
 190 0184 5E119912 		.ascii	"^\021\231\022\306gr/Sy\273\352\314\007n:5\371\024,@"
 190      C667722F 
 190      5379BBEA 
 190      CC076E3A 
 190      35F9142C 
 191 0199 4219F841 		.ascii	"B\031\370A\0237F\016\236\371"
 191      1337460E 
 191      9EF9
 192              		.text
 193              		.section	.gnu.lto_.symbol_nodes.60ab60ad4c61c9f9,"",%progbits
 194 0000 789C4DC7 		.ascii	"x\234M\307\261\021@P\020\004\320\335\375\247\005=\252"
 194      B1114050 
 194      1004D0DD 
 194      FDA7053D 
 194      AA
 195 0011 6253A119 		.ascii	"bS\241\031\271\002\370\350B\250\013\231L\003\0223\356"
 195      B902F8E8 
 195      42A80B99 
 195      4C031233 
 195      EE
 196 0022 654F103A 		.ascii	"eO\020:|4\323\300p\002\366\324S\013\315\324J+u\245K"
 196      7C34D3C0 
 196      7002F6D4 
 196      530BCDD4 
 196      4A2B75A5 
 197 0037 EA4647EA 		.ascii	"\352FG\352N7\177Cx\2566\012\306\343\026^\310\343 \350"
 197      4E377F43 
 197      78AE360A 
 197      C6E3165E 
 197      C8E320E8 
ARM GAS  /tmp/ccxsInKt.s 			page 15


 198              		.text
 199              		.section	.gnu.lto_.refs.60ab60ad4c61c9f9,"",%progbits
 200 0000 789C6362 		.ascii	"x\234cb`b`d\200\002\000\000F\000\006"
 200      60626064 
 200      80020000 
 200      460006
 201              		.text
 202              		.section	.gnu.lto_.decls.60ab60ad4c61c9f9,"",%progbits
 203 0000 789C9D56 		.ascii	"x\234\235Vol\024E\024\237\331\036\275\036w\224B\"\251"
 203      6F6C1445 
 203      149FD91E 
 203      BD1E7794 
 203      4222A9
 204 0013 9F5A1230 		.ascii	"\237Z\0220\221\204n\300\032\353\027\0121\32161\352\027"
 204      91846EC0 
 204      1AEB170A 
 204      31D13631 
 204      EA17
 205 0025 12BF9DD3 		.ascii	"\022\277\235\323\275\205;\355\375\311vK\254~p,\2641"
 205      BD853BED 
 205      FDC9764B 
 205      AC7E702C 
 205      B431
 206 0037 184DF967 		.ascii	"\030M\371gA\024\013\202F04 \245!6XQZm\215`05\032\320"
 206      41140B82 
 206      46303420 
 206      A5213658 
 206      515A6D8D 
 207 0050 23F14F2A 		.ascii	"#\361O*\012J#I\255\361|3;{\267;\335\275\273:\311\333"
 207      0A4A2349 
 207      ADF17C33 
 207      3B7BB73B 
 207      DDBDBB3A 
 208 0066 7DBB37EF 		.ascii	"}\2737\357\367\336\357\367f\347FA\012\312(\010\345`"
 208      F7DEEFF7 
 208      66E74641 
 208      0ACA2808 
 208      E560
 209 0078 AC5B8250 		.ascii	"\254[\202P-\370A\204\320\0060pQ3\330ad\215J\260\023"
 209      2DF84184 
 209      D0063070 
 209      5133D861 
 209      648D4AB0 
 210 008d 60136053 		.ascii	"`\023`S`W\301\262`\323h\376`\363\026\201\015\201\015"
 210      6057C1B2 
 210      60D368FE 
 210      60F31681 
 210      0D810D
 211 00a0 829D043B 		.ascii	"\202\235\004;*\260*\300\316\200\215\200\235\007\303"
 211      2AB02AC0 
 211      CE808D80 
 211      9D07C3
 212 00af 623E7BFF 		.ascii	"b>{\377\011\330E\260q\011\217\345\\\354\300\274\011"
 212      09D845B0 
 212      71098FE5 
 212      5CECC0BC 
 212      09
ARM GAS  /tmp/ccxsInKt.s 			page 16


 213 00c0 3603360B 		.ascii	"6\0036\0136\007vV\340\333\271X\355\347D\016E\304gE\216"
 213      36077656 
 213      E0DBB958 
 213      EDE7440E 
 213      45C46745 
 214 00d5 AFC0AE80 		.ascii	"\257\300\256\200]\226r0N\021\301\271Z\370,\327q\221"
 214      5D967230 
 214      4E11C1B9 
 214      5AF82CD7 
 214      7191
 215 00e7 D7C63E2B 		.ascii	"\327\306>+x\260|G\300\002\202\3179\301gDp\232\022\367"
 215      78B07C47 
 215      C00282CF 
 215      39C16744 
 215      709A12F7 
 216 00fb EFA43C4C 		.ascii	"\357\244<L\267\245E\3628\271-$\247\"\260\355\274\337"
 216      B7A545F2 
 216      38B92D24 
 216      A722B0ED 
 216      BCDF
 217 010d 4B79B322 		.ascii	"Ky\263\"nH\302U\034XX\314c\357~\006\373I\302`\275\016"
 217      6E48C255 
 217      1C5858CC 
 217      63EF7E06 
 217      FB49C260 
 218 0123 A2F93DF0 		.ascii	"\242\371=\360\303SD\214\215y\003\3547\0113\214vR\332"
 218      C353448C 
 218      8D7903EC 
 218      3709338C 
 218      7652DA
 219 0136 4D077A69 		.ascii	"M\007zi\313g\325+\320>\012\003\036(6\011n\016\243'1"
 219      CB67D52B 
 219      D03E0A03 
 219      1E283609 
 219      6E0EA327 
 220 014b C1D52154 		.ascii	"\301\325!T\317\235H\210S@\210\340#x\005\367*80\012\241"
 220      CF9D4888 
 220      534088E0 
 220      237805F7 
 220      2A38300A 
 221 0160 970A28C8 		.ascii	"\227\012(\3103j5:Ji_\266\347\306\254Bi\025\301Gq\010"
 221      336A353A 
 221      4A695FB6 
 221      E7C6AC42 
 221      6915C147 
 222 0176 62EFC768 		.ascii	"b\357\307h\015z\017r\366A|\035\232?\010^\024\232\367"
 222      0D7A0F72 
 222      F6417C1D 
 222      9A3F085E 
 222      149AF7
 223 0189 4CF0BB78 		.ascii	"L\360\273x\015\262\362\360\237\205\303>\244\245l\316"
 223      0DB2F2F0 
 223      9F85C33E 
 223      A4A56CCE 
 224 0199 E68A7C40 		.ascii	"\346\212|@\221Z\372\307\206\357\345\265\034\306a\250"
 224      915AFAC7 
 224      86EFE5B5 
ARM GAS  /tmp/ccxsInKt.s 			page 17


 224      1CC661A8 
 225 01a9 E5799C07 		.ascii	"\345y\234\007\236\247\214\305\330O\215\343\020\357\014"
 225      9EA78CC5 
 225      D84F8DE3 
 225      10EF0C
 226 01b8 75962BFD 		.ascii	"u\226+\375V\207\016\321\201l\366\324\316/\311\001:\272"
 226      56870ED1 
 226      816CF6D4 
 226      CE2FC901 
 226      3ABA
 227 01ca 83E6722F 		.ascii	"\203\346r/ I\366\015w\371&z\337-\273\253\304\345h\027"
 227      2049F60D 
 227      77F9267A 
 227      DF2DBBAB 
 227      C4E56817 
 228 01de 43A97734 		.ascii	"C\251w4\340);>R =79\276\216\223\036\304\313\001\345"
 228      E0293B3E 
 228      52203D37 
 228      39BE8E93 
 228      1EC4CB01 
 229 01f3 0E76B32E 		.ascii	"\016v\263.\205\302\2528\015\221V\014\307\244\243{\306"
 229      85C2AA38 
 229      0D91560C 
 229      C7A4A37B 
 229      C6
 230 0204 223460BD 		.ascii	"\"4`\275G>B\300X\211\006\240\332\321}\275o\336M\007"
 230      473E42C0 
 230      588906A0 
 230      DAD17DBD 
 230      6FDE4D07 
 231 0218 2E60AFE2 		.ascii	".`\257\342\007*\375\226\217\202v(\254\322\263r\356\031"
 231      072AFD96 
 231      8F827628 
 231      ACD2B372 
 231      EE19
 232 022a 526FBD2D 		.ascii	"Ro\275-\235\371\257\351\3171\335\035!x\210\367\273/"
 232      9DF9AFE9 
 232      CF31DD1D 
 232      217888F7 
 232      BB2F
 233 023c 0FE89550 		.ascii	"\017\350\225P\270\256E$\017\27761|1\024\264\237\247"
 233      B8AE4524 
 233      0FBF3631 
 233      7C3114B4 
 233      9FA7
 234 024e 39BDF034 		.ascii	"9\275\3604\242\352\376\2617\270^\366'3\260`\274z\027"
 234      A2EAFEB1 
 234      37B85EF6 
 234      2733B060 
 234      BC7A17
 235 0261 DEEB6391 		.ascii	"\336\353c\221>b\257\371\301r\300\252\212i\340\030\316"
 235      3E62AFF9 
 235      C172C0AA 
 235      8A69E018 
 235      CE
 236 0272 9541F007 		.ascii	"\225A\360\007x5\\\317\340\225p\035\341\327\363p-\251"
 236      78355CCF 
ARM GAS  /tmp/ccxsInKt.s 			page 18


 236      E095701D 
 236      E1D7F370 
 236      2DA9
 237 0284 DDC98276 		.ascii	"\335\311\202vb\225[\304\235\317\207\2559\256\357\\A"
 237      62955BC4 
 237      9DCF87AD 
 237      39AEEF5C 
 237      41
 238 0295 1F2AEEA5 		.ascii	"\037*\356\245\274\012\275M\351n\366\251]\307{\267\323"
 238      BC0ABD4D 
 238      E96EF6A9 
 238      5DC77BB7 
 238      D3
 239 02a6 160B5B41 		.ascii	"\026\013[A_\360y'p\235g\015\242\002+\230^\321[l\335"
 239      5FF07927 
 239      709D670D 
 239      A2022B98 
 239      5ED15B6C 
 240 02bb 2F9508E3 		.ascii	"/\225\010\343E\212\260\003\2401\2665\376\272D\240`s"
 240      458AB003 
 240      A031B635 
 240      FEBA44A0 
 240      6073
 241 02cd 0F3AC63E 		.ascii	"\017:\306>\201WhO\015\346\233\000\022Q.\205/`\305\371"
 241      8157684F 
 241      0DE69B00 
 241      12512E85 
 241      2F60C5F9 
 242 02e1 C2DA4E46 		.ascii	"\302\332NF\367\216G\372^\314\346ru\345o%\223\356\255"
 242      F78E47FA 
 242      5ECCE672 
 242      75E56F25 
 242      93EEAD
 243 02f4 C4A29D7F 		.ascii	"\304\242\235\177h\016{5@\022\374\232\247\340\364\240"
 243      680E7B35 
 243      4012FC9A 
 243      A7E0F4A0 
 244 0304 2EA426F8 		.ascii	".\244&\370S\250\226\340\211\262\244\376\210\20553\301"
 244      53A896E0 
 244      89B2A4FE 
 244      88853533 
 244      C1
 245 0315 7EE7B8FE 		.ascii	"~\347\270\376Q\315\205\240\231B\177n\225\210\022\034"
 245      51CD85A0 
 245      99427F6E 
 245      9588121C 
 246 0325 3C659E90 		.ascii	"<e\236\220e\2764_\346\354\037\243?\214O\302\006B\377"
 246      65BE345F 
 246      E6EC1FA3 
 246      3F8C4FC2 
 246      0642FF
 247 0338 C9E5B657 		.ascii	"\311\345\266W\311\273v\221?\313o\274\244\226\264\374"
 247      C9BB7691 
 247      3FCB6FBC 
 247      A496B4FC 
 248 0348 D35BCB7E 		.ascii	"\323[\313~Y\313\251\342Z\012~\335t\260\267\247& \372"
 248      59CBA9E2 
ARM GAS  /tmp/ccxsInKt.s 			page 19


 248      5A0A7EDD 
 248      74B0B7A7 
 248      2620FA
 249 035b E81F250A 		.ascii	"\350\037%\012\374\326sQ\215L\210Ee1P\320\277\3365\356"
 249      FCD67351 
 249      8D4C8845 
 249      653150D0 
 249      BFDE35EE 
 250 036f 936BBCFA 		.ascii	"\223k\274\372\277j\364\213\0225^\363\354H\377\313\376"
 250      BF6AF48B 
 250      12355EF3 
 250      EC48FFCB 
 250      FE
 251 0380 1D29B2F8 		.ascii	"\035)\262\370\257\227\261\370\245\006\355\254\360$\277"
 251      AF97B1F8 
 251      A506EDAC 
 251      F024BF
 252 038f 47269F2D 		.ascii	"G&\237-k\261\017\347\027\373k\034\327?\252\331\177s"
 252      6BB10FE7 
 252      17FB6B1C 
 252      D73FAAD9 
 252      7F73
 253 03a1 C8CAABF6 		.ascii	"\310\312\253\366GO\215nOZ}|k\243E\\A\007\275\271\354"
 253      474F8D6E 
 253      4F5A7D7C 
 253      6BA3455C 
 253      4107BDB9 
 254 03b6 92B94C97 		.ascii	"\222\271L\227\305eHp!\370\227\022QE\270L\313\\~usY\206"
 254      C5654870 
 254      21F89712 
 254      5145B84C 
 254      CB5C7E75 
 255 03cd FA786F37 		.ascii	"\372xo7\356\257\026\207\315\3541Z[\233\377\037\251\262"
 255      EEAF1687 
 255      CDEC315A 
 255      5B9BFF1F 
 255      A9B2
 256 03df 33B143B4 		.ascii	"3\261C\264u4\200\000\205\340[|sx\247\002#\317aM`\203"
 256      75348000 
 256      85E05B7C 
 256      7378A702 
 256      23CF614D 
 257 03f5 C55BBEED 		.ascii	"\305[\276\355\345p\036\276\306\206WD\324M\274\214{\274"
 257      E5701EBE 
 257      C6865744 
 257      D44DBC8C 
 257      7BBC
 258 0407 189A3F25 		.ascii	"\030\232?%\302\014\2775w\333\221'\022*8va\345\237\241"
 258      C20CBF35 
 258      77DB9127 
 258      122A3876 
 258      61E59FA1 
 259 041b 870F5EFC 		.ascii	"\207\017^\374\030w\303\"'x\206\263\273,\365\263|\250"
 259      1877C322 
 259      277886B3 
 259      BB2CF5B3 
 259      7CA8
ARM GAS  /tmp/ccxsInKt.s 			page 20


 260 042d 9943230F 		.ascii	"\231C#\017\362\323\340\035\016\364j\300\015DpP:}\007"
 260      F2D3E01D 
 260      0EF46AC0 
 260      0D447050 
 260      3A7D07
 261 0440 DDA7EF60 		.ascii	"\335\247\357`\250\340\210\323\367\002\247\213\306\326"
 261      A8E088D3 
 261      F702A78B 
 261      C6D6
 262 044e EFAFB644 		.ascii	"\357\257\266D\027\3056\331\305\006\005\322\354\202\005"
 262      17C536D9 
 262      C50605D2 
 262      EC8205
 263 045d FFDB47F0 		.ascii	"\377\333G\360JQ\235t\300g\2076?\250\271\302\241\004"
 263      4A519D74 
 263      C0678736 
 263      3FA8B9C2 
 263      A104
 264 046f AD573B3B 		.ascii	"\255W;;\014\265=\321\246n\3254\225\030\311\265\251t"
 264      0CB53DD1 
 264      A66ED534 
 264      9518C9B5 
 264      A974
 265 0481 4A5FAB93 		.ascii	"J_\253\223\266\204\332\330\320\324\320\250&RZ{gLW;\314"
 265      B684DAD8 
 265      D0D4D0A8 
 265      26525A7B 
 265      674C573B 
 266 0496 584CDFD2 		.ascii	"XL\337\322\020G\225\035\211\347\364\250Y\371\310c\233"
 266      1047951D 
 266      89E7F4A8 
 266      59F9C863 
 266      9B
 267 04a7 EB1F420F 		.ascii	"\353\037B\017\250\361tRW\265t\254K\215\351\333T-\236"
 267      A8F17452 
 267      57B574AC 
 267      4B8DE9DB 
 267      542D9E
 268 04ba 684BA43B 		.ascii	"hK\244;T\323\350L=\243\202c\230y\010-\236\324\223Z\332"
 268      54D3E84C 
 268      3DA38263 
 268      9879082D 
 268      9ED4935A 
 269 04cf D0012502 		.ascii	"\320\001%\002\356V\335\334\322\231\322\242fc\031 \035"
 269      EE56DDDC 
 269      D299D2A2 
 269      66631920 
 269      1D
 270 04e0 86660164 		.ascii	"\206f\001d\322\351\366\216\006\0155-4\263\025\030GK"
 270      D2E9F68E 
 270      060D352D 
 270      34B31518 
 270      474B
 271 04f2 C04F1B5D 		.ascii	"\300O\033]Q\366\0345\303\374\026\327IL7\202\231x4\245"
 271      51F61C35 
 271      C3FC16D7 
 271      494C3782 
ARM GAS  /tmp/ccxsInKt.s 			page 21


 271      997834A5 
 272 0506 3F6B0693 		.ascii	"?k\006\223\031~\257\206{\272\355i]3\243\214t\030\036"
 272      197EAF86 
 272      7BBAED69 
 272      5D33A38C 
 272      74181E
 273 0519 33467A5B 		.ascii	"3Fz[\002\246\326h\361' \360q\376kk*a*\311L\200M\252"
 273      02A6D668 
 273      F12720F0 
 273      71FE6B6B 
 273      2A612AC9 
 274 0531 B2672CB5 		.ascii	"\262g,\265f<\232&\261M\206A\272p\006\247\"\326\273M"
 274      663C9A26 
 274      B14D8641 
 274      BA7006A7 
 274      22D6BB4D 
 275 0545 EDED69AD 		.ascii	"\355\355i\2555\354x\020\376\303\206\256\267\006 efq"
 275      35EC7810 
 275      FEC386AE 
 275      B7062065 
 275      6671
 276 0557 E145408B 		.ascii	"\341E@\213\023c\025o\224\273A\216\326$R&0\253\352\204"
 276      1363156F 
 276      94BB418E 
 276      D6245226 
 276      30ABEA84 
 277 056b FB7DEB99 		.ascii	"\373}\353\231\240\376\263\223\004\224J\351j\024\332"
 277      A0FEB393 
 277      04944AE9 
 277      6A14DA
 278 057a 493ADBCD 		.ascii	"I:\333\315\250\331\225\321\231.\213\243Q;\376?4\336"
 278      A8D995D1 
 278      992E8BA3 
 278      513BFE3F 
 278      34DE
 279 058c 6B04     		.ascii	"k\004"
 280              		.text
 281              		.section	.gnu.lto_.symtab.60ab60ad4c61c9f9,"",%progbits
 282 0000 6368506F 		.ascii	"chPoolObjectInit\000\000\000\000\000\000\000\000\000"
 282      6F6C4F62 
 282      6A656374 
 282      496E6974 
 282      00000000 
 283 0019 000000AB 		.ascii	"\000\000\000\253\000\000\000chPoolLoadArray\000\000"
 283      00000063 
 283      68506F6F 
 283      6C4C6F61 
 283      64417272 
 284 0031 00000000 		.ascii	"\000\000\000\000\000\000\000\000\000\000\312\000\000"
 284      00000000 
 284      0000CA00 
 284      00
 285 003e 00636850 		.ascii	"\000chPoolAllocI\000\000\000\000\000\000\000\000\000"
 285      6F6F6C41 
 285      6C6C6F63 
 285      49000000 
 285      00000000 
ARM GAS  /tmp/ccxsInKt.s 			page 22


 286 0054 000000D6 		.ascii	"\000\000\000\326\000\000\000chPoolAlloc\000\000\000"
 286      00000063 
 286      68506F6F 
 286      6C416C6C 
 286      6F630000 
 287 0069 00000000 		.ascii	"\000\000\000\000\000\000\000\000\000\334\000\000\000"
 287      00000000 
 287      00DC0000 
 287      00
 288 0076 6368506F 		.ascii	"chPoolFreeI\000\000\000\000\000\000\000\000\000\000"
 288      6F6C4672 
 288      65654900 
 288      00000000 
 288      00000000 
 289 008b 0000E000 		.ascii	"\000\000\340\000\000\000chPoolFree\000\000\000\000\000"
 289      00006368 
 289      506F6F6C 
 289      46726565 
 289      00000000 
 290 00a0 00000000 		.ascii	"\000\000\000\000\000\000\000\351\000\000\000"
 290      000000E9 
 290      000000
 291              		.text
 292              		.section	.gnu.lto_.opts,"",%progbits
 293 0000 272D6D63 		.ascii	"'-mcpu=cortex-m3' '-mno-thumb-interwork' '-mthumb' "
 293      70753D63 
 293      6F727465 
 293      782D6D33 
 293      2720272D 
 294 0033 272D4F32 		.ascii	"'-O2' '-fomit-frame-pointer' '-falign-functions=16'"
 294      2720272D 
 294      666F6D69 
 294      742D6672 
 294      616D652D 
 295 0066 20272D66 		.ascii	" '-ffunction-sections' '-fdata-sections' '-fno-comm"
 295      66756E63 
 295      74696F6E 
 295      2D736563 
 295      74696F6E 
 296 0099 6F6E2720 		.ascii	"on' '-flto'\000"
 296      272D666C 
 296      746F2700 
 297              		.text
 298              		.section	.text.chPoolObjectInit,"ax",%progbits
 299              		.align	2
 300              		.p2align 4,,15
 301              		.global	chPoolObjectInit
 302              		.thumb
 303              		.thumb_func
 304              		.type	chPoolObjectInit, %function
 305              	chPoolObjectInit:
 306              		@ args = 0, pretend = 0, frame = 0
 307              		@ frame_needed = 0, uses_anonymous_args = 0
 308              		@ link register save eliminated.
 309 0000 0023     		movs	r3, #0
 310 0002 4160     		str	r1, [r0, #4]
 311 0004 8260     		str	r2, [r0, #8]
ARM GAS  /tmp/ccxsInKt.s 			page 23


 312 0006 0360     		str	r3, [r0]
 313 0008 7047     		bx	lr
 314              		.size	chPoolObjectInit, .-chPoolObjectInit
 315 000a 00BFAFF3 		.section	.text.chPoolLoadArray,"ax",%progbits
 315      0080
 316              		.align	2
 317              		.p2align 4,,15
 318              		.global	chPoolLoadArray
 319              		.thumb
 320              		.thumb_func
 321              		.type	chPoolLoadArray, %function
 322              	chPoolLoadArray:
 323              		@ args = 0, pretend = 0, frame = 0
 324              		@ frame_needed = 0, uses_anonymous_args = 0
 325              		@ link register save eliminated.
 326 0000 30B4     		push	{r4, r5}
 327 0002 62B1     		cbz	r2, .L2
 328 0004 2025     		movs	r5, #32
 329 0006 0024     		movs	r4, #0
 330              	.L5:
 331              	@ 546 "/home/cody/dev/chibios/trunk/os/ext/CMSIS/include/core_cmFunc.h" 1
 332 0008 85F31188 		MSR basepri, r5
 333              	@ 0 "" 2
 334              		.thumb
 335 000c 0368     		ldr	r3, [r0]
 336 000e 0B60     		str	r3, [r1]
 337 0010 0160     		str	r1, [r0]
 338              	@ 546 "/home/cody/dev/chibios/trunk/os/ext/CMSIS/include/core_cmFunc.h" 1
 339 0012 84F31188 		MSR basepri, r4
 340              	@ 0 "" 2
 341              		.thumb
 342 0016 4368     		ldr	r3, [r0, #4]
 343 0018 013A     		subs	r2, r2, #1
 344 001a 1944     		add	r1, r1, r3
 345 001c F4D1     		bne	.L5
 346              	.L2:
 347 001e 30BC     		pop	{r4, r5}
 348 0020 7047     		bx	lr
 349              		.size	chPoolLoadArray, .-chPoolLoadArray
 350 0022 00BFAFF3 		.section	.text.chPoolAllocI,"ax",%progbits
 350      0080AFF3 
 350      0080AFF3 
 350      0080
 351              		.align	2
 352              		.p2align 4,,15
 353              		.global	chPoolAllocI
 354              		.thumb
 355              		.thumb_func
 356              		.type	chPoolAllocI, %function
 357              	chPoolAllocI:
 358              		@ args = 0, pretend = 0, frame = 0
 359              		@ frame_needed = 0, uses_anonymous_args = 0
 360 0000 08B5     		push	{r3, lr}
 361 0002 0346     		mov	r3, r0
 362 0004 0068     		ldr	r0, [r0]
 363 0006 10B1     		cbz	r0, .L12
 364 0008 0268     		ldr	r2, [r0]
ARM GAS  /tmp/ccxsInKt.s 			page 24


 365 000a 1A60     		str	r2, [r3]
 366 000c 08BD     		pop	{r3, pc}
 367              	.L12:
 368 000e 9A68     		ldr	r2, [r3, #8]
 369 0010 0AB1     		cbz	r2, .L13
 370 0012 5868     		ldr	r0, [r3, #4]
 371 0014 9047     		blx	r2
 372              	.L13:
 373 0016 08BD     		pop	{r3, pc}
 374              		.size	chPoolAllocI, .-chPoolAllocI
 375 0018 AFF30080 		.section	.text.chPoolAlloc,"ax",%progbits
 375      AFF30080 
 376              		.align	2
 377              		.p2align 4,,15
 378              		.global	chPoolAlloc
 379              		.thumb
 380              		.thumb_func
 381              		.type	chPoolAlloc, %function
 382              	chPoolAlloc:
 383              		@ args = 0, pretend = 0, frame = 0
 384              		@ frame_needed = 0, uses_anonymous_args = 0
 385 0000 08B5     		push	{r3, lr}
 386 0002 2022     		movs	r2, #32
 387 0004 0346     		mov	r3, r0
 388              	@ 546 "/home/cody/dev/chibios/trunk/os/ext/CMSIS/include/core_cmFunc.h" 1
 389 0006 82F31188 		MSR basepri, r2
 390              	@ 0 "" 2
 391              		.thumb
 392 000a 0068     		ldr	r0, [r0]
 393 000c 28B1     		cbz	r0, .L18
 394 000e 0268     		ldr	r2, [r0]
 395 0010 1A60     		str	r2, [r3]
 396              	.L19:
 397 0012 0023     		movs	r3, #0
 398              	@ 546 "/home/cody/dev/chibios/trunk/os/ext/CMSIS/include/core_cmFunc.h" 1
 399 0014 83F31188 		MSR basepri, r3
 400              	@ 0 "" 2
 401              		.thumb
 402 0018 08BD     		pop	{r3, pc}
 403              	.L18:
 404 001a 9A68     		ldr	r2, [r3, #8]
 405 001c 002A     		cmp	r2, #0
 406 001e F8D0     		beq	.L19
 407 0020 5868     		ldr	r0, [r3, #4]
 408 0022 9047     		blx	r2
 409 0024 0023     		movs	r3, #0
 410              	@ 546 "/home/cody/dev/chibios/trunk/os/ext/CMSIS/include/core_cmFunc.h" 1
 411 0026 83F31188 		MSR basepri, r3
 412              	@ 0 "" 2
 413              		.thumb
 414 002a 08BD     		pop	{r3, pc}
 415              		.size	chPoolAlloc, .-chPoolAlloc
 416 002c AFF30080 		.section	.text.chPoolFreeI,"ax",%progbits
 417              		.align	2
 418              		.p2align 4,,15
 419              		.global	chPoolFreeI
 420              		.thumb
ARM GAS  /tmp/ccxsInKt.s 			page 25


 421              		.thumb_func
 422              		.type	chPoolFreeI, %function
 423              	chPoolFreeI:
 424              		@ args = 0, pretend = 0, frame = 0
 425              		@ frame_needed = 0, uses_anonymous_args = 0
 426              		@ link register save eliminated.
 427 0000 0368     		ldr	r3, [r0]
 428 0002 0B60     		str	r3, [r1]
 429 0004 0160     		str	r1, [r0]
 430 0006 7047     		bx	lr
 431              		.size	chPoolFreeI, .-chPoolFreeI
 432 0008 AFF30080 		.section	.text.chPoolFree,"ax",%progbits
 432      AFF30080 
 433              		.align	2
 434              		.p2align 4,,15
 435              		.global	chPoolFree
 436              		.thumb
 437              		.thumb_func
 438              		.type	chPoolFree, %function
 439              	chPoolFree:
 440              		@ args = 0, pretend = 0, frame = 0
 441              		@ frame_needed = 0, uses_anonymous_args = 0
 442              		@ link register save eliminated.
 443 0000 2023     		movs	r3, #32
 444              	@ 546 "/home/cody/dev/chibios/trunk/os/ext/CMSIS/include/core_cmFunc.h" 1
 445 0002 83F31188 		MSR basepri, r3
 446              	@ 0 "" 2
 447              		.thumb
 448 0006 0368     		ldr	r3, [r0]
 449 0008 0022     		movs	r2, #0
 450 000a 0B60     		str	r3, [r1]
 451 000c 0160     		str	r1, [r0]
 452              	@ 546 "/home/cody/dev/chibios/trunk/os/ext/CMSIS/include/core_cmFunc.h" 1
 453 000e 82F31188 		MSR basepri, r2
 454              	@ 0 "" 2
 455              		.thumb
 456 0012 7047     		bx	lr
 457              		.size	chPoolFree, .-chPoolFree
 458              		.comm	__gnu_lto_v1,1,1
 459 0014 AFF30080 		.ident	"GCC: (GNU Tools for ARM Embedded Processors) 4.8.4 20140526 (release) [ARM/embedded-4_8-br
 459      AFF30080 
 459      AFF30080 
ARM GAS  /tmp/ccxsInKt.s 			page 26

