ARM GAS  /tmp/ccxMhoIC.s 			page 1


   1              		.syntax unified
   2              		.cpu cortex-m4
   3              		.eabi_attribute 27, 3
   4              		.eabi_attribute 28, 1
   5              		.fpu fpv4-sp-d16
   6              		.eabi_attribute 20, 1
   7              		.eabi_attribute 21, 1
   8              		.eabi_attribute 23, 3
   9              		.eabi_attribute 24, 1
  10              		.eabi_attribute 25, 1
  11              		.eabi_attribute 26, 1
  12              		.eabi_attribute 30, 2
  13              		.eabi_attribute 34, 1
  14              		.eabi_attribute 18, 4
  15              		.thumb
  16              		.file	"chmempools.c"
  17              		.section	.gnu.lto_.jmpfuncs.f083fd415bac6c15,"",%progbits
  18 0000 789C6362 		.ascii	"x\234cb`b\300\006\244\2414\033\003;#;\023##\220y\200"
  18      6062C006 
  18      A4A1341B 
  18      033B233B 
  18      13232390 
  19 0016 818D19C4 		.ascii	"\201\215\031\304\250g``afef\000\000\027\362\001\222"
  19      A8676060 
  19      61666566 
  19      000017F2 
  19      0192
  20              		.text
  21              		.section	.gnu.lto_.inline.f083fd415bac6c15,"",%progbits
  22 0000 789C6D4F 		.ascii	"x\234mO!\016\302@\020\234\335\273\366\332\006\002-\002"
  22      210EC240 
  22      109CDDBB 
  22      F6DA0602 
  22      2D02
  23 0012 090E4750 		.ascii	"\011\016GP\325}\001\032\215\001~Q\211 )\022C\202E`I"
  23      D57D011A 
  23      8D017E51 
  23      89202912 
  23      43824560 
  24 0027 9F81AC42 		.ascii	"\237\201\254B\203\343\011\354\335\0015\\.\2673;s\231"
  24      83E309EC 
  24      DD01355C 
  24      2EB7333B 
  24      7399
  25 0039 5D06E3DF 		.ascii	"]\006\343\337I\311\327Pn@`U\017\0217\2713\023\272O\020"
  25      49C9D750 
  25      6E406055 
  25      0F1137B9 
  25      3313BA4F 
  26 004e B1B5705A 		.ascii	"\261\265pZ\335\023\304\307\0353\264\345H\0232X/hce\005"
  26      DD13C4C7 
  26      1D33B4E5 
  26      48133258 
  26      2F686365 
  27 0063 AC5AE8BA 		.ascii	"\254Z\350\272\202U\341\273\036\222\323Z<Nl\356i\304"
  27      8255E1BB 
  27      1E92D35A 
ARM GAS  /tmp/ccxMhoIC.s 			page 2


  27      3C4E6CEE 
  27      69C4
  28 0075 A0872918 		.ascii	"\240\207)\030\301v\"BC%EB\352H*\350L%\367\205\177\000"
  28      C1762242 
  28      43254542 
  28      EA482AE8 
  28      4C25F785 
  29 008b D425D3A0 		.ascii	"\324%\323\240*\324n\302 \205\364h?W\030td\372\354\272"
  29      2AD46EC2 
  29      2085F468 
  29      3F571874 
  29      64FAECBA 
  30 009f 4472987D 		.ascii	"Dr\230}5\253h\273\027\371p\315\267\036\242\327\324%"
  30      35AB68BB 
  30      17F970CD 
  30      B71EA2D7 
  30      D425
  31 00b1 6AFF3A2B 		.ascii	"j\377:+\"#\277M\223\377v\307\033\257\224\037\255"
  31      2223BF4D 
  31      93FF76C7 
  31      1BAF941F 
  31      AD
  32              		.text
  33              		.section	.gnu.lto_.pureconst.f083fd415bac6c15,"",%progbits
  34 0000 789C6362 		.ascii	"x\234cb`b\340e\200\0006\006)F+&)f+\026)V+\000\007\246"
  34      6062E065 
  34      80003606 
  34      29462B26 
  34      29662B16 
  35 001a 0123     		.ascii	"\001#"
  36              		.text
  37              		.section	.gnu.lto_chPoolObjectInit.f083fd415bac6c15,"",%progbits
  38 0000 789C6D8F 		.ascii	"x\234m\2171K\003A\020\205\337\333\273\004!?@\354\204"
  38      314B0341 
  38      1085DFDB 
  38      BB04213F 
  38      40EC84
  39 0013 9482DB88 		.ascii	"\224\202\333\210\277$\001-\315\346H\016=W\356\222\200"
  39      BF24012D 
  39      CDE6480E 
  39      3D57EE92 
  39      80
  40 0024 552E22D6 		.ascii	"U.\"\326)E+[\003\332^\251\265\250\244K\231\372*K\273"
  40      29452B5B 
  40      03DA5EA9 
  40      B5A8A44B 
  40      99FA2A4B 
  41 0039 387BAB4D 		.ascii	"8{\253M\314\300\316\014\263\357{\263\253\240\260\036"
  41      CCC0CE0C 
  41      B3EF7BB3 
  41      ABA0B01E 
  42 0049 3B72B609 		.ascii	";r\266\011\034Je\000\252\351\0070\331R\244k@\214\025"
  42      1C4A6500 
  42      AAE90730 
  42      D952A46B 
  42      408C15
  43 005c C7C7ACB4 		.ascii	"\307\307\254\264\317\352e\271Z=\0257\237\257\2345E\223"
ARM GAS  /tmp/ccxMhoIC.s 			page 3


  43      CFEA65B9 
  43      5A3D1537 
  43      9FAF9C35 
  43      4593
  44 006e 10A124D6 		.ascii	"\020\241$\326%9\353\032\256\363|\272\013\230\012hIv"
  44      2539EB1A 
  44      AEF37CBA 
  44      0B980A68 
  44      4976
  45 0080 2E6DB994 		.ascii	".m\271\224\032\274\343\252\270-\277y\302\007\326\260"
  45      1ABCE3AA 
  45      B82DBF79 
  45      C207D6B0 
  46 0090 87C75CA2 		.ascii	"\207\307\\\242\021\023\367\270cL\366\250\216\244\372"
  46      1113F7B8 
  46      634CF6A8 
  46      8EA4FA
  47 009f 4776FC4E 		.ascii	"Gv\374N\270I\325\010\375V\224_j\235\0166\323\036\352"
  47      B849D508 
  47      FD56945F 
  47      6A9D0E36 
  47      D31EEA
  48 00b2 31F4E4A2 		.ascii	"1\364\344\242\\\374#\303\315\244\372%\353\300\034\223"
  48      5CFC23C3 
  48      CDA4FA25 
  48      EBC01C93 
  49 00c2 E5ACE9B9 		.ascii	"\345\254\351\271\277h\211\265\374\306\251\016t\337&"
  49      BF6889B5 
  49      FCC6A90E 
  49      74DF26
  50 00d1 9136B67B 		.ascii	"\2216\266{\251\273\321H\233~\334\211m\246\007\351\360"
  50      A9BBD148 
  50      9B7EDC89 
  50      6DA607E9 
  50      F0
  51 00e2 FC544B93 		.ascii	"\374TK\223\016t\226\032\231'Qra\355Y\266o\360\003\010"
  51      0E74961A 
  51      99275172 
  51      61ED59B6 
  51      6FF00308 
  52 00f6 59545C   		.ascii	"YT\\"
  53              		.text
  54              		.section	.gnu.lto_chPoolLoadArray.f083fd415bac6c15,"",%progbits
  55 0000 789C8D52 		.ascii	"x\234\215RMh\023Q\020\236yo7\233?\261\336z(! ^l\351"
  55      4D681351 
  55      109E796F 
  55      379B3FB1 
  55      DE7A2821 
  56 0018 7AF02A14 		.ascii	"z\360*\024\004\241\207^L\013z\222\315f\331,v\263e\223"
  56      04A1875E 
  56      4C0B7A92 
  56      CD66D92C 
  56      76B36593 
  57 002c 487BEA4B 		.ascii	"H{\352K\023P1\224\202\245-\326\200\202\340\317AoE\250"
  57      13503194 
  57      82A52DD6 
  57      8082E0CF 
ARM GAS  /tmp/ccxMhoIC.s 			page 4


  57      416F45A8 
  58 0040 8839550F 		.ascii	"\2109U\017\026\274Y\365\020P\360\"\210x\362\024\347"
  58      16BC59F5 
  58      1050F022 
  58      8878F214 
  58      E7
  59 0051 ED4BB645 		.ascii	"\355K\266E\020}\360\346\315\233\231\357\233\037\206"
  59      107DF0E6 
  59      CD9B99EF 
  59      9B1F86
  60 0060 01833FCF 		.ascii	"\001\203?\3179\272\367\310|\233^L\000\262\265}\200F"
  60      39BAF7C8 
  60      7C9B5E4C 
  60      00B2B57D 
  60      8046
  61 0072 92A1A614 		.ascii	"\222\241\246\024\256\224nRc\274\275\007 \322z\313\000"
  61      AE946E52 
  61      63BCBD07 
  61      20D27ACB 
  61      00
  62 0083 91D511A5 		.ascii	"\221\325\021\245\035\020\226\031\327t\\\276\214\021"
  62      1D109619 
  62      D7745CBE 
  62      8C11
  63 0091 DF33F6AA 		.ascii	"\3373\366\252\327\357?]\277\376\362\005v\330\011\004"
  63      D7EF3F5D 
  63      BFFEF205 
  63      76D80904 
  64 00a1 1F29AB8F 		.ascii	"\037)\253\217\250!i:\0114H\260\024x\010i\351\315Ho\226"
  64      A821693A 
  64      093448B0 
  64      14780869 
  64      E9CD486F 
  65 00b6 BE924087 		.ascii	"\276\222@\207\226\020ky\000;\242\233%I\351f\221\321"
  65      96106B79 
  65      003BA29B 
  65      2549E966 
  65      91D1
  66 00c8 C3E79003 		.ascii	"\303\347\220\003\325\300\367a\345\307\367\365\317\243"
  66      D5C0F761 
  66      E5C7F7F5 
  66      CFA3
  67 00d6 71B085F7 		.ascii	"q\260\205\367Q\207\250\032\204E.\333\344\252\327\034"
  67      5187A81A 
  67      84452EDB 
  67      E4AAD71C 
  68 00e6 DCC48ED8 		.ascii	"\334\304\216\330\232\3620\372^B\017y^j\261\277=\360"
  68      9AF230FA 
  68      5E420F79 
  68      5E6AB1BF 
  68      3DF0
  69 00f8 6B6A1E6F 		.ascii	"kj\036oa\345\303\247/\033\0231\267R\304\317\315\334"
  69      61E5C3A7 
  69      2F1B1331 
  69      B752C4CF 
  69      CDDC
  70 010a 308F1D55 		.ascii	"0\217\035U\012.f\267\341NC\210\021*\335ECr\353\020\263"
ARM GAS  /tmp/ccxMhoIC.s 			page 5


  70      0A2E66B7 
  70      E14E4388 
  70      112ADD45 
  70      4372EB10 
  71 011f BC79BED3 		.ascii	"\274y\276\323e\026>\"\3338<\021t\216Q\\\214H\270\210"
  71      65163E22 
  71      DB383C11 
  71      748E515C 
  71      8C48B888 
  72 0133 12A1A656 		.ascii	"\022\241\246V\224\217\205\217%\001\361*\202\367;\277"
  72      948F858F 
  72      2501F12A 
  72      82F73BBF 
  73 0143 5011FC25 		.ascii	"P\021\374%\217+\321\3773\014\013\037\320\350\242\346"
  73      8F2BD1FF 
  73      330C0B1F 
  73      D0E8A2E6 
  74 0153 E148F316 		.ascii	"\341H\363\026>\304\334\221\266{\253\323\012\354bj\034"
  74      3EC4DC91 
  74      B67BABD3 
  74      0AEC626A 
  74      1C
  75 0164 4E7B68A8 		.ascii	"N{h\250\304b\233\220\311A\352\324\240`\214[m\336j\346"
  75      C4629B90 
  75      C941EAD4 
  75      A0608C5B 
  75      6DDE6AE6 
  76 0178 86B8B42B 		.ascii	"\206\270\264+kLE\346\033\315\257\253\211\241#\343\""
  76      6B4C45E6 
  76      1BCDAFAB 
  76      89A123E3 
  76      22
  77 0189 9370A34F 		.ascii	"\223p\243O\347\370\000;GS\247-\342\257\241\365\255\333"
  77      E7F8003B 
  77      4753A72D 
  77      E2AFA1F5 
  77      ADDB
  78 019b D9CB0E83 		.ascii	"\331\313\016\203U\344\341\222\036\000\221j\214D\232"
  78      55E4E192 
  78      1E00916A 
  78      8C449A
  79 01aa B777C70E 		.ascii	"\267w\307\016\200\271\250\313o\206\337\335\035\225<"
  79      80B9A8CB 
  79      6F86DFDD 
  79      1D953C
  80 01b9 BADC8F77 		.ascii	"\272\334\217w\320\350}<\031\367\017j\203\220\\\262\335"
  80      D0E87D3C 
  80      19F70F6A 
  80      83905CB2 
  80      DD
  81 01ca B36639F0 		.ascii	"\263f9\360\035\323\016JKf\311\271f\332e\257\350\005"
  81      1DD30E4A 
  81      4B66C9B9 
  81      66DA65AF 
  81      E805
  82 01dc 55B316D6 		.ascii	"U\263\026\326+WMR\302\232Y\015m\262\373\216\277\020"
  82      2B574D52 
ARM GAS  /tmp/ccxMhoIC.s 			page 6


  82      C29A590D 
  82      6DB2FB8E 
  82      BF10
  83 01ee 04F3D549 		.ascii	"\004\363\325I\033\246\376\005r\026k\346\371\231\302"
  83      1BA6FE05 
  83      72166BE6 
  83      F999C2
  84 01fd 74C1F42A 		.ascii	"t\301\364*\366|\275$cC\347\212\355_\250W\354\3112\214"
  84      F67CBD24 
  84      6343E78A 
  84      ED5FA857 
  84      ECC9328C 
  85 0211 CC142EE6 		.ascii	"\314\024.\346\213V\325Y\010\275\211\374\2513\300B0("
  85      8B56D559 
  85      08BD89FC 
  85      A933C042 
  85      3028
  86 0223 41102EC1 		.ascii	"A\020.\301od\243\311\017"
  86      6F64A3C9 
  86      0F
  87              		.text
  88              		.section	.gnu.lto_chPoolAllocI.f083fd415bac6c15,"",%progbits
  89 0000 789C8552 		.ascii	"x\234\205R\277O\024A\024~\337\374Xn\357 \022K+b)\211"
  89      BF4F1441 
  89      147EDFFC 
  89      586EEF20 
  89      124B2B62 
  90 0016 DB905018 		.ascii	"\333\220P\030\376\002K%\221\222[.\334\252\347\222\273"
  90      FE024B25 
  90      91925B2E 
  90      DCAAE792 
  90      BB
  91 0027 D3C48230 		.ascii	"\323\304\2020g\316BBA\250DB\024\351h\240\264\320x%\026"
  91      67CE4242 
  91      41A84442 
  91      14E968A0 
  91      B4D07825 
  92 003c 6AE8C458 		.ascii	"j\350\304X\\\250(,H\210\011\005q}3\354lrh\342$;o\336"
  92      5CA8282C 
  92      48880905 
  92      717D33EC 
  92      6C7268E2 
  93 0054 97F77DEF 		.ascii	"\227\367}\357{;#H\320\345u\233\277\224\341[\0341D\020"
  93      7B3B2348 
  93      D0E5759B 
  93      BF94E15B 
  93      1C314410 
  94 0068 AB5F883A 		.ascii	"\253_\210:%!\344\346\024\231\262:\035%3,\021\\\300J"
  94      2521E4E6 
  94      1499B23A 
  94      1D25332C 
  94      115CC04A 
  95 007c E80D0B07 		.ascii	"\350\015\013\007\277,\254=\034\000\366@\240%!\225\016"
  95      BF2CAC3D 
  95      1C00F640 
  95      A0252195 
  95      0E
ARM GAS  /tmp/ccxMhoIC.s 			page 7


  96 008d B034032B 		.ascii	"\2604\003+\216\353\264e\314Z\377\371\357}\254\233^\367"
  96      8EEBB465 
  96      CC5AFFF9 
  96      EF7DAC9B 
  96      5EF7
  97 009f 8D39CF32 		.ascii	"\2159\3172 \001\033\231\004\305\240{\234`\314\005\241"
  97      20011B99 
  97      04C5A07B 
  97      9C60CC05 
  97      A1
  98 00b0 069DED8A 		.ascii	"\006\235\355\212^?\313\316?\274?Z\306\325a\320,\266"
  98      5E3FCBCE 
  98      3FBC3F5A 
  98      C6D561D0 
  98      2CB6
  99 00c2 584FA101 		.ascii	"XO\241\001\322y\022P\002Y\342M\205\274\351J\016\363"
  99      D2791250 
  99      0259E24D 
  99      85BCE94A 
  99      0EF3
 100 00d4 D2D43566 		.ascii	"\322\3245fu\314\347\261\263s\227w\353s\032\302F\371"
 100      75CCE7B1 
 100      B3739777 
 100      EB731AC2 
 100      46F9
 101 00e6 999E7D7F 		.ascii	"\231\236}\177\227\035c\026\333\3204\017=N;\206\327\035"
 101      971D6316 
 101      DBD0340F 
 101      3D4E3B86 
 101      D71D
 102 00f8 56DDA057 		.ascii	"V\335\240W\354)\230\207\262\336\206\234\243*\274\267"
 102      EC299887 
 102      B2DE869C 
 102      A32ABCB7 
 103 0108 7DEAFEEC 		.ascii	"}\352\376\354\214\024<[2\340}\032\2226\247\\\203o\331"
 103      8C143C5B 
 103      32E07D1A 
 103      9236A75C 
 103      836FD9
 104 011b 89F485C1 		.ascii	"\211\364\205\3018\335(\264K9Q\346\332^\201I\237\366"
 104      38DD28B4 
 104      4B3951E6 
 104      DA5E8149 
 104      9FF6
 105 012d CA1794DC 		.ascii	"\312\027\224\334\320\225\377\030be\337W\321\351\250"
 105      D095FF18 
 105      6265DF57 
 105      D1E9A8
 106 013c EB7B969D 		.ascii	"\353{\226\235\024\203\225\\\337\360\337\022\376M\270"
 106      1483955C 
 106      DFF0DF12 
 106      FE4DB8
 107 014b 99260B8A 		.ascii	"\231&\013\212-\011\007g\322\364z\304i\277|{X\314\024"
 107      2D090767 
 107      D2F47AC4 
 107      69BF7C7B 
 107      58CC14
ARM GAS  /tmp/ccxMhoIC.s 			page 8


 108 015e 3AED326B 		.ascii	":\3552kw\330\351\342\337\3722\347\177\245n\357\232g"
 108      77D8E9E2 
 108      DFFA32E7 
 108      7FA56EEF 
 108      9A67
 109 0170 55B883F5 		.ascii	"U\270\203\365\035&\250x\371\300]\312\001u\372/j\276"
 109      1D26A878 
 109      F9C05DCA 
 109      0175FA2F 
 109      6ABE
 110 0182 CE0D7848 		.ascii	"\316\015xH\340\177%\177|lsP\226\255W\016\352\366>a)"
 110      E07F257F 
 110      7C6C7350 
 110      96AD570E 
 110      EAF63E61 
 111 0197 768089A8 		.ascii	"v\200\211\250\2366jQ\234\316=\215\346jO\242\270\236"
 111      9E366A51 
 111      9CCE3D8D 
 111      E66A4FA2 
 111      B89E
 112 01a9 5493B415 		.ascii	"T\223\264\025\265\233\217\037=\210\370\320lG\255f\314"
 112      B59B8F1F 
 112      3D88F8D0 
 112      6C47AD66 
 112      CC
 113 01ba 78A3D658 		.ascii	"x\243\326XH\323\207\255\2331\251\264z\177\341\017\177"
 113      48D387AD 
 113      9B31A9B4 
 113      7A7FE10F 
 113      7F
 114 01cb B0A257   		.ascii	"\260\242W"
 115              		.text
 116              		.section	.gnu.lto_chPoolAlloc.f083fd415bac6c15,"",%progbits
 117 0000 789C8D92 		.ascii	"x\234\215\222Mh\023A\024\307\337\233\331\335|k\024\017"
 117      4D681341 
 117      14C7DF9B 
 117      D9DD7C6B 
 117      140F
 118 0012 45B004C1 		.ascii	"E\260\004\301\213\225\256\007\241\247BA\020D\352\301"
 118      8B95AE07 
 118      A1A74241 
 118      1044EAC1 
 119 0022 18D0936C 		.ascii	"\030\320\223l6K\262\332\315\206M\"\366 \235\224\034"
 119      364BB2DA 
 119      CD864D22 
 119      F6209D94 
 119      1C
 120 0033 45AB2844 		.ascii	"E\253(DK\320*(\266\210=z3x\321\036\254\024/Vz(\212\267"
 120      4BD02A28 
 120      B6883D7A 
 120      3378D11E 
 120      AC142F56 
 121 004b 1E2A5510 		.ascii	"\036*U\020,\2543\373\021\222B\261\0332o\346\355{\377"
 121      2CAC33FB 
 121      119242B1 
 121      1B326FE6 
 121      ED7BFF
ARM GAS  /tmp/ccxMhoIC.s 			page 9


 122 005e FF6F6687 		.ascii	"\377of\207\000\201\235\3179\376?O\001Z<b\004\220\314"
 122      00819DCF 
 122      39FE3F4F 
 122      015A3C62 
 122      0490CC
 123 0071 2C0334A2 		.ascii	",\0034\242\204\320\366(\260\270\264\225\006\226\244"
 123      84D0F628 
 123      B0B8B495 
 123      0696A4
 124 0080 A8F86989 		.ascii	"\250\370i\211\310\263\"\255\374\026i9L+\210b\002\010"
 124      C8B322AD 
 124      FC166939 
 124      4C2B8862 
 124      0208
 125 0092 53844AB2 		.ascii	"S\204J\262\202S\227Q\210\343Q\230c\354\336\372\217\027"
 125      82539751 
 125      88E35198 
 125      63ECDEFA 
 125      8F17
 126 00a4 4BF89075 		.ascii	"K\370\220u\232O\330\266\353\"\232\310AF\020t\204K|\201"
 126      9A4FD8B6 
 126      EB229AC8 
 126      41461074 
 126      844B7C81 
 127 00b8 192F10A9 		.ascii	"\031/\020\251\237\3545\351\254\273\356\306\3477\337"
 127      9FEC35E9 
 127      ACBBEEC6 
 127      E737DF
 128 00c7 5EE1C103 		.ascii	"^\341\301\003\024-\004\0054\234\343\242\0210\221F\371"
 128      142D0405 
 128      349CE3A2 
 128      11309146 
 128      F9
 129 00d8 20C5F820 		.ascii	" \305\370 \307\203t\"\210\374\221\241\311\330L&\\\353"
 129      C7837422 
 129      88FC91A1 
 129      C9D84C26 
 129      5CEB
 130 00ea 1ECE453E 		.ascii	"\036\316E>\012\316\034\022\021\3512L\377\334\276\377"
 130      0ACE1C12 
 130      11E9324C 
 130      FFDCBEFF 
 131 00fa 7D202806 		.ascii	"} (\006\336\376\014e\017\234\377nRq\\\324?\263A\270"
 131      DEFE0C65 
 131      0F9CFF6E 
 131      52715CD4 
 131      3FB341B8 
 132 010e 8D6DD61A 		.ascii	"\215m\326\0323Q\021K\301\033\311\210Y\367\375\335\340"
 132      3351114B 
 132      C11BC988 
 132      59F7FDDD 
 132      E0
 133 011f 7DD4A7FF 		.ascii	"}\324\247\377\010\323_\327~\3359\322\325\366'l\341\301"
 133      08D35FD7 
 133      7EDD39D2 
 133      D5F6276C 
 133      E1C1
ARM GAS  /tmp/ccxMhoIC.s 			page 10


 134 0131 40E8A3A3 		.ascii	"@\350\243\243GUDe\010\346\031c\235\277\357\017\361}"
 134      47554465 
 134      08E61963 
 134      9DBFEF0F 
 134      F17D
 135 0143 CDC2A306 		.ascii	"\315\302\243\006ci\023cE\244\302(\356\011\346E\261\206"
 135      63691363 
 135      45A4C228 
 135      EE09E645 
 135      B186
 136 0155 0B3EE007 		.ascii	"\013>\340\007hn4R\032\316\363%\027\020e}\207\227C\012"
 136      686E3452 
 136      1ACEF325 
 136      1710657D 
 136      8797430A 
 137 0169 ED512A28 		.ascii	"\355Q*(\276\270\2334,\214\014\301\361^\213D\320K\003"
 137      BEB89B34 
 137      2C8C0CC1 
 137      F15E8B44 
 137      D04B03
 138 017c 0BECB1E0 		.ascii	"\013\354\261\340\275K\213q\277\323\007d\373\367\206"
 138      BD4B8B71 
 138      BFD30764 
 138      FBF786
 139 018b C77D420A 		.ascii	"\307}B\012\011\266\322\036\305\037w\023C\212\250G\221"
 139      09B6D21E 
 139      C51F7713 
 139      438AA847 
 139      91
 140 019c DC5589EC 		.ascii	"\334U\211\354\334\350H\267S\224%\3737*\303\343\224g"
 140      DCE848B7 
 140      539425FB 
 140      372AC3E3 
 140      9467
 141 01ae D17ABADA 		.ascii	"\321z\272\332\335h\314\263H\355jA{,>A\263s8l\214\027"
 141      DD68CCB3 
 141      48ED6A41 
 141      7B2C3E41 
 141      B373386C 
 142 01c4 C517E402 		.ascii	"\305\027\344\002&\356\013\035\224=\337\026\015\237s"
 142      26EE0B1D 
 142      943DDF16 
 142      0D9F73
 143 01d3 69EF7640 		.ascii	"i\357v@\317\355\320\360%\016\372j+\320X|\227\363[\213"
 143      CFEDD0F0 
 143      250EFA6A 
 143      2BD0587C 
 143      97F35B8B 
 144 01e7 9810A955 		.ascii	"\230\020\251U\020\237\201\256\275\255\361 \011\006\371"
 144      109F81AE 
 144      BDADF120 
 144      0906F9
 145 01f6 D64A495C 		.ascii	"\326JI\\W\024\306B\341\224Z\262-C\325\355\302\244Z0"
 145      5714C642 
 145      E1945AB2 
 145      2D43D5ED 
 145      C2A45A30 
ARM GAS  /tmp/ccxMhoIC.s 			page 11


 146 020a AEAB7AC9 		.ascii	"\256\253z\311\314\233vU\2559\365\3625\225O\234\232Z"
 146      CC9B7655 
 146      AD39F5F2 
 146      35954F9C 
 146      9A5A
 147 021c 75749EB7 		.ascii	"ut\236\267\014\253b\333\023\325a\035$;\177\2652\366"
 147      0CAB62DB 
 147      13D5611D 
 147      243B7FB5 
 147      32F6
 148 022e BF4EE346 		.ascii	"\277N\343FM==\236=\233U\315\262>Q/\210Z\307\270\242"
 148      4D3D3D9E 
 148      3D9B55CD 
 148      B23E512F 
 148      885AC7B8 
 149 0243 5B67EA65 		.ascii	"[g\352e}\270\004\351\361\354\205L^\253\032\025\307<"
 149      7DB804E9 
 149      F1EC854C 
 149      5EAB1A15 
 149      C73C
 150 0255 91397612 		.ascii	"\2219v\022\210\003\021\356b;\223\360\017\001\342\360"
 150      880311EE 
 150      623B93F0 
 150      0F01E2F0 
 151 0265 71       		.ascii	"q"
 152              		.text
 153              		.section	.gnu.lto_chPoolFreeI.f083fd415bac6c15,"",%progbits
 154 0000 789C6362 		.ascii	"x\234cb`b@\007\222@\314\303\310\300`\006\244\031\231"
 154      60624007 
 154      9240CCC3 
 154      C8C06006 
 154      A41999
 155 0013 19189926 		.ascii	"\031\030\231&\234c`h\344`bd\0041\030\030\031\352\231"
 155      9C636068 
 155      E4606264 
 155      04311818 
 155      19EA99
 156 0026 18EB2319 		.ascii	"\030\353#\031\301j\3273\035x\360\377\377\272i\247\267"
 156      C16AD733 
 156      1D78F0FF 
 156      FFBA69A7 
 156      B7
 157 0037 EC615CCB 		.ascii	"\354a\\\313\304\316\310\230\313\310\300\014$\030Y\030"
 157      C4CEC898 
 157      CBC8C00C 
 157      24185918 
 158 0047 32C12A58 		.ascii	"2\301*X\031Z\032\032&(00$\203\271!@\022dJ(#\023\210"
 158      195A1A1A 
 158      26283030 
 158      2483B921 
 158      4012644A 
 159 005f 663ECBD0 		.ascii	"f>\313\320tk\307\266\207L\211\214\013\031Y\031\322\031"
 159      746BC7B6 
 159      874C898C 
 159      0B195919 
 159      D219
 160 0071 59B419B4 		.ascii	"Y\264\031\264\200\032g3\314b\314ddLgd\216\000\322\020"
ARM GAS  /tmp/ccxMhoIC.s 			page 12


 160      801A6733 
 160      CC62CC64 
 160      644C6764 
 160      8E00D210 
 161 0085 272631C2 		.ascii	"'&1\302\034\010\324tr\002\027D\2136\303\252\006 \340"
 161      1C08D474 
 161      72021744 
 161      8B36C3AA 
 161      0620E0
 162 0098 856B624E 		.ascii	"\205kbNgd\004ib\200j\2020\200&C\364\335\330\366\223"
 162      67640469 
 162      62806A82 
 162      30802643 
 162      F4DDD8F6 
 163 00ad 11452737 		.ascii	"\021E'7\001\353\322A&\\dh|p[\025\242\017\006B\200\022"
 163      01EBD241 
 163      265C6468 
 163      7C705B15 
 163      A20F0642 
 164 00c3 402F8054 		.ascii	"@/\200T\233\350g\344\347\246\352'\347\247T\352\247\244"
 164      9BE867E4 
 164      E7A6EA27 
 164      E7A754EA 
 164      A7A4
 165 00d5 96E92767 		.ascii	"\226\351'gd&e\346\027\353\227\024\225\346e\353\003\031"
 165      642665E6 
 165      17EB9714 
 165      95E665EB 
 165      0319
 166 00e7 4525FAC5 		.ascii	"E%\372\305E\311@\361\334\324\334\202\374\374\234b\275"
 166      45C940F1 
 166      DCD4DC82 
 166      FCFC9C62 
 166      BD
 167 00f8 64060049 		.ascii	"d\006\000I\227OT"
 167      974F54
 168              		.text
 169              		.section	.gnu.lto_chPoolFree.f083fd415bac6c15,"",%progbits
 170 0000 789C8D51 		.ascii	"x\234\215Q\277K\033Q\034\377|\337%\215\330\012N\305"
 170      BF4B1B51 
 170      1CFF7CDF 
 170      258DD80A 
 170      4EC5
 171 0012 2E218B93 		.ascii	".!\213\223!\257C\377\200\200P\350\340\322X\250S\271"
 171      21AF43FF 
 171      808050E8 
 171      E0D258A8 
 171      53B9
 172 0024 BC1CC9D1 		.ascii	"\274\034\311\321\\N.\211$\223/\342R\342\020\260T\251"
 172      5C4E2E89 
 172      24932FE2 
 172      52E210B0 
 172      54A9
 173 0036 380805B5 		.ascii	"8\010\005\265C3(\316Y;4\340&\"\264h\241K\241\376\230"
 173      433328CE 
 173      593B34E0 
 173      2622B468 
ARM GAS  /tmp/ccxMhoIC.s 			page 13


 173      A14BA1FE 
 174 004b 3AE97BF7 		.ascii	":\351{\367\342\021\273\324\203{\357\373\275\367\371"
 174      E211BBD4 
 174      837BEFFB 
 174      BDF7F9
 175 005a 75DFC7C0 		.ascii	"u\337\307\300\360\357\363D\275\277\010XU;Y \326\351"
 175      F0EFF344 
 175      BDBF0858 
 175      553B5920 
 175      D6E9
 176 006c 03AD1146 		.ascii	"\003\255\021F\244\013\020\026\031-\316Q\210\355\262"
 176      A40B1016 
 176      192DCE51 
 176      88EDB2
 177 007b DE8FEBEB 		.ascii	"\336\217\353\353/\227\355\375\337\324e\217,\362\010"
 177      2F97EDFD 
 177      DFD4658F 
 177      2CF208
 178 008a 31B55002 		.ascii	"1\265P\002n\210\210cY\312N\012\020a;\253V\255\362\212"
 178      6E888863 
 178      59CA4E0A 
 178      10613BAB 
 178      56ADF28A 
 179 009e 98DEAD3E 		.ascii	"\230\336\255>\226.\376\274?\233\210`6mQ\034\241\015"
 179      962EFEBC 
 179      3F9B8860 
 179      366D511C 
 179      A10D
 180 00b0 A161E978 		.ascii	"\241a\351x\226\311\230\304;\332\224\353Y\227B\245\327"
 180      96C998C4 
 180      3BDA94EB 
 180      599742A5 
 180      D7
 181 00c1 E4124BE9 		.ascii	"\344\022K\351*:_\031\234[\346?\276a\351\370\344\347"
 181      2A3A5F19 
 181      9C5BE63F 
 181      BE61E9F8 
 181      E4E7
 182 00d3 8774A46D 		.ascii	"\207t\244m\012y\265\226\274\365\021F\253H\211)|\226"
 182      0A79B596 
 182      BCF51146 
 182      AB488929 
 182      7C96
 183 00e5 52F6F6DA 		.ascii	"R\366\366\332\217U\356\015|lI9\356R\254H\2266\012\023"
 183      8F55EE0D 
 183      7C6C4939 
 183      EE52AC48 
 183      96360A13 
 184 00f9 21AFC136 		.ascii	"!\257\3016\355\232V\311\177\355\214\332\264\243Z\303"
 184      ED9A56C9 
 184      7FED8CDA 
 184      B4A35AC3 
 185 0109 9663C3DC 		.ascii	"\226c\303\334\007E\212i.\006\\\212\270\312\316\320\217"
 185      07458A69 
 185      2E065C8A 
 185      B8CACED0 
 185      8F
ARM GAS  /tmp/ccxMhoIC.s 			page 14


 186 011a 0EFED21D 		.ascii	"\016\376\322\035\201\207\3673W\312\300}Fg\323'5\215"
 186      8187F733 
 186      57CAC07D 
 186      4667D327 
 186      358D
 187 012c 7054181A 		.ascii	"pT\030\032\225M\333\2244\271\016\321:?\375\036\213\270"
 187      954DDB94 
 187      34B90ED1 
 187      3A3FFD1E 
 187      8BB8
 188 013e 30B744FA 		.ascii	"0\267D\372v4\366\031/\371\236\303\205_h\362\202\263"
 188      7634F619 
 188      2FF99EC3 
 188      855F68F2 
 188      82B3
 189 0150 C045C9CD 		.ascii	"\300E\311\315\273~\225\327\202z\345-WEP\343\325@\250"
 189      BB7E95D7 
 189      827AE52D 
 189      574550E3 
 189      D540A8
 190 0163 EF9EE3CD 		.ascii	"\357\236\343\315\373~\271\232\021\310\376\217\3444j"
 190      FB7EB99A 
 190      11C8FE8F 
 190      E4346A
 191 0172 7C7A26F7 		.ascii	"|z&\367\"\307\335\212(\327\013\032\0338o\204\367\274"
 191      22C7DD8A 
 191      28D70B1A 
 191      1B386F84 
 191      F7BC
 192 0184 5E119912 		.ascii	"^\021\231\022\306gr/Sy\273\352\314\007n:5\371\024,@"
 192      C667722F 
 192      5379BBEA 
 192      CC076E3A 
 192      35F9142C 
 193 0199 4219F841 		.ascii	"B\031\370A\0237F\016\236\371"
 193      1337460E 
 193      9EF9
 194              		.text
 195              		.section	.gnu.lto_.symbol_nodes.f083fd415bac6c15,"",%progbits
 196 0000 789C4DC7 		.ascii	"x\234M\307\261\021@@\024\004\320\335\275\257\005=\252"
 196      B1114040 
 196      1404D0DD 
 196      BDAF053D 
 196      AA
 197 0011 6253A119 		.ascii	"bS\241\031\271r\204\2128\216D\246\001\211\031\377eO"
 197      B972848A 
 197      388E44A6 
 197      018919FF 
 197      654F
 198 0023 10067C54 		.ascii	"\020\006|Ti`\332\000{\031\251\235f\352A+\265\321%\365"
 198      6960DA00 
 198      7B19A99D 
 198      66EA412B 
 198      B5D125F5 
 199 0037 A423F5A2 		.ascii	"\244#\365\242\273\277!<\255\217\202y\275\205\027\036"
 199      BBBF213C 
 199      AD8F8279 
ARM GAS  /tmp/ccxMhoIC.s 			page 15


 199      BD85171E 
 200 0047 EA2238   		.ascii	"\352\"8"
 201              		.text
 202              		.section	.gnu.lto_.refs.f083fd415bac6c15,"",%progbits
 203 0000 789C6362 		.ascii	"x\234cb`b`d\200\002\000\000F\000\006"
 203      60626064 
 203      80020000 
 203      460006
 204              		.text
 205              		.section	.gnu.lto_.decls.f083fd415bac6c15,"",%progbits
 206 0000 789C9D56 		.ascii	"x\234\235Vol\024E\024\237\331\036\275\036w\224B\"\251"
 206      6F6C1445 
 206      149FD91E 
 206      BD1E7794 
 206      4222A9
 207 0013 9F5A1230 		.ascii	"\237Z\0220\221\204n\300\032\353\027\0121\32161\352\027"
 207      91846EC0 
 207      1AEB170A 
 207      31D13631 
 207      EA17
 208 0025 12BF9DD3 		.ascii	"\022\277\235\323\275\205;\355\375\311vK\254~p,\2641"
 208      BD853BED 
 208      FDC9764B 
 208      AC7E702C 
 208      B431
 209 0037 184DF967 		.ascii	"\030M\371gA\024\013\202F04 \245!6XQZm\215`05\032\320"
 209      41140B82 
 209      46303420 
 209      A5213658 
 209      515A6D8D 
 210 0050 23F14F2A 		.ascii	"#\361O*\012J#I\255\361|3;{\267;\335\275\273:\311\333"
 210      0A4A2349 
 210      ADF17C33 
 210      3B7BB73B 
 210      DDBDBB3A 
 211 0066 7DBB37EF 		.ascii	"}\2737\357\367\336\357\367f\347FA\012\312(\010\345`"
 211      F7DEEFF7 
 211      66E74641 
 211      0ACA2808 
 211      E560
 212 0078 AC5B8250 		.ascii	"\254[\202P-\370A\204\320\0060pQ3\330ad\215J\260\023"
 212      2DF84184 
 212      D0063070 
 212      5133D861 
 212      648D4AB0 
 213 008d 60136053 		.ascii	"`\023`S`W\301\262`\323h\376`\363\026\201\015\201\015"
 213      6057C1B2 
 213      60D368FE 
 213      60F31681 
 213      0D810D
 214 00a0 829D043B 		.ascii	"\202\235\004;*\260*\300\316\200\215\200\235\007\303"
 214      2AB02AC0 
 214      CE808D80 
 214      9D07C3
 215 00af 623E7BFF 		.ascii	"b>{\377\011\330E\260q\011\217\345\\\354\300\274\011"
 215      09D845B0 
 215      71098FE5 
ARM GAS  /tmp/ccxMhoIC.s 			page 16


 215      5CECC0BC 
 215      09
 216 00c0 3603360B 		.ascii	"6\0036\0136\007vV\340\333\271X\355\347D\016E\304gE\216"
 216      36077656 
 216      E0DBB958 
 216      EDE7440E 
 216      45C46745 
 217 00d5 AFC0AE80 		.ascii	"\257\300\256\200]\226r0N\021\301\271Z\370,\327q\221"
 217      5D967230 
 217      4E11C1B9 
 217      5AF82CD7 
 217      7191
 218 00e7 D7C63E2B 		.ascii	"\327\306>+x\260|G\300\002\202\3179\301gDp\232\022\367"
 218      78B07C47 
 218      C00282CF 
 218      39C16744 
 218      709A12F7 
 219 00fb EFA43C4C 		.ascii	"\357\244<L\267\245E\3628\271-$\247\"\260\355\274\337"
 219      B7A545F2 
 219      38B92D24 
 219      A722B0ED 
 219      BCDF
 220 010d 4B79B322 		.ascii	"Ky\263\"nH\302U\034XX\314c\357~\006\373I\302`\275\016"
 220      6E48C255 
 220      1C5858CC 
 220      63EF7E06 
 220      FB49C260 
 221 0123 A2F93DF0 		.ascii	"\242\371=\360\303SD\214\215y\003\3547\0113\214vR\332"
 221      C353448C 
 221      8D7903EC 
 221      3709338C 
 221      7652DA
 222 0136 4D077A69 		.ascii	"M\007zi\313g\325+\320>\012\003\036(6\011n\016\243'1"
 222      CB67D52B 
 222      D03E0A03 
 222      1E283609 
 222      6E0EA327 
 223 014b C1D52154 		.ascii	"\301\325!T\317\235H\210S@\210\340#x\005\367*80\012\241"
 223      CF9D4888 
 223      534088E0 
 223      237805F7 
 223      2A38300A 
 224 0160 970A28C8 		.ascii	"\227\012(\3103j5:Ji_\266\347\306\254Bi\025\301Gq\010"
 224      336A353A 
 224      4A695FB6 
 224      E7C6AC42 
 224      6915C147 
 225 0176 62EFC768 		.ascii	"b\357\307h\015z\017r\366A|\035\232?\010^\024\232\367"
 225      0D7A0F72 
 225      F6417C1D 
 225      9A3F085E 
 225      149AF7
 226 0189 4CF0BB78 		.ascii	"L\360\273x\015\262\362\360\237\205\303>\244\245l\316"
 226      0DB2F2F0 
 226      9F85C33E 
 226      A4A56CCE 
 227 0199 E68A7C40 		.ascii	"\346\212|@\221Z\372\307\206\357\345\265\034\306a\250"
ARM GAS  /tmp/ccxMhoIC.s 			page 17


 227      915AFAC7 
 227      86EFE5B5 
 227      1CC661A8 
 228 01a9 E5799C07 		.ascii	"\345y\234\007\236\247\214\305\330O\215\343\020\357\014"
 228      9EA78CC5 
 228      D84F8DE3 
 228      10EF0C
 229 01b8 75962BFD 		.ascii	"u\226+\375V\207\016\321\201l\366\324\316/\311\001:\272"
 229      56870ED1 
 229      816CF6D4 
 229      CE2FC901 
 229      3ABA
 230 01ca 83E6722F 		.ascii	"\203\346r/ I\366\015w\371&z\337-\273\253\304\345h\027"
 230      2049F60D 
 230      77F9267A 
 230      DF2DBBAB 
 230      C4E56817 
 231 01de 43A97734 		.ascii	"C\251w4\340);>R =79\276\216\223\036\304\313\001\345"
 231      E0293B3E 
 231      52203D37 
 231      39BE8E93 
 231      1EC4CB01 
 232 01f3 0E76B32E 		.ascii	"\016v\263.\205\302\2528\015\221V\014\307\244\243{\306"
 232      85C2AA38 
 232      0D91560C 
 232      C7A4A37B 
 232      C6
 233 0204 223460BD 		.ascii	"\"4`\275G>B\300X\211\006\240\332\321}\275o\336M\007"
 233      473E42C0 
 233      588906A0 
 233      DAD17DBD 
 233      6FDE4D07 
 234 0218 2E60AFE2 		.ascii	".`\257\342\007*\375\226\217\202v(\254\322\263r\356\031"
 234      072AFD96 
 234      8F827628 
 234      ACD2B372 
 234      EE19
 235 022a 526FBD2D 		.ascii	"Ro\275-\235\371\257\351\3171\335\035!x\210\367\273/"
 235      9DF9AFE9 
 235      CF31DD1D 
 235      217888F7 
 235      BB2F
 236 023c 0FE89550 		.ascii	"\017\350\225P\270\256E$\017\27761|1\024\264\237\247"
 236      B8AE4524 
 236      0FBF3631 
 236      7C3114B4 
 236      9FA7
 237 024e 39BDF034 		.ascii	"9\275\3604\242\352\376\2617\270^\366'3\260`\274z\027"
 237      A2EAFEB1 
 237      37B85EF6 
 237      2733B060 
 237      BC7A17
 238 0261 DEEB6391 		.ascii	"\336\353c\221>b\257\371\301r\300\252\212i\340\030\316"
 238      3E62AFF9 
 238      C172C0AA 
 238      8A69E018 
 238      CE
ARM GAS  /tmp/ccxMhoIC.s 			page 18


 239 0272 9541F007 		.ascii	"\225A\360\007x5\\\317\340\225p\035\341\327\363p-\251"
 239      78355CCF 
 239      E095701D 
 239      E1D7F370 
 239      2DA9
 240 0284 DDC98276 		.ascii	"\335\311\202vb\225[\304\235\317\207\2559\256\357\\A"
 240      62955BC4 
 240      9DCF87AD 
 240      39AEEF5C 
 240      41
 241 0295 1F2AEEA5 		.ascii	"\037*\356\245\274\012\275M\351n\366\251]\307{\267\323"
 241      BC0ABD4D 
 241      E96EF6A9 
 241      5DC77BB7 
 241      D3
 242 02a6 160B5B41 		.ascii	"\026\013[A_\360y'p\235g\015\242\002+\230^\321[l\335"
 242      5FF07927 
 242      709D670D 
 242      A2022B98 
 242      5ED15B6C 
 243 02bb 2F9508E3 		.ascii	"/\225\010\343E\212\260\003\2401\2665\376\272D\240`s"
 243      458AB003 
 243      A031B635 
 243      FEBA44A0 
 243      6073
 244 02cd 0F3AC63E 		.ascii	"\017:\306>\201WhO\015\346\233\000\022Q.\205/`\305\371"
 244      8157684F 
 244      0DE69B00 
 244      12512E85 
 244      2F60C5F9 
 245 02e1 C2DA4E46 		.ascii	"\302\332NF\367\216G\372^\314\346ru\345o%\223\356\255"
 245      F78E47FA 
 245      5ECCE672 
 245      75E56F25 
 245      93EEAD
 246 02f4 C4A29D7F 		.ascii	"\304\242\235\177h\016{5@\022\374\232\247\340\364\240"
 246      680E7B35 
 246      4012FC9A 
 246      A7E0F4A0 
 247 0304 2EA426F8 		.ascii	".\244&\370S\250\226\340\211\262\244\376\210\20553\301"
 247      53A896E0 
 247      89B2A4FE 
 247      88853533 
 247      C1
 248 0315 7EE7B8FE 		.ascii	"~\347\270\376Q\315\205\240\231B\177n\225\210\022\034"
 248      51CD85A0 
 248      99427F6E 
 248      9588121C 
 249 0325 3C659E90 		.ascii	"<e\236\220e\2764_\346\354\037\243?\214O\302\006B\377"
 249      65BE345F 
 249      E6EC1FA3 
 249      3F8C4FC2 
 249      0642FF
 250 0338 C9E5B657 		.ascii	"\311\345\266W\311\273v\221?\313o\274\244\226\264\374"
 250      C9BB7691 
 250      3FCB6FBC 
 250      A496B4FC 
ARM GAS  /tmp/ccxMhoIC.s 			page 19


 251 0348 D35BCB7E 		.ascii	"\323[\313~Y\313\251\342Z\012~\335t\260\267\247& \372"
 251      59CBA9E2 
 251      5A0A7EDD 
 251      74B0B7A7 
 251      2620FA
 252 035b E81F250A 		.ascii	"\350\037%\012\374\326sQ\215L\210Ee1P\320\277\3365\356"
 252      FCD67351 
 252      8D4C8845 
 252      653150D0 
 252      BFDE35EE 
 253 036f 936BBCFA 		.ascii	"\223k\274\372\277j\364\213\0225^\363\354H\377\313\376"
 253      BF6AF48B 
 253      12355EF3 
 253      EC48FFCB 
 253      FE
 254 0380 1D29B2F8 		.ascii	"\035)\262\370\257\227\261\370\245\006\355\254\360$\277"
 254      AF97B1F8 
 254      A506EDAC 
 254      F024BF
 255 038f 47269F2D 		.ascii	"G&\237-k\261\017\347\027\373k\034\327?\252\331\177s"
 255      6BB10FE7 
 255      17FB6B1C 
 255      D73FAAD9 
 255      7F73
 256 03a1 C8CAABF6 		.ascii	"\310\312\253\366GO\215nOZ}|k\243E\\A\007\275\271\354"
 256      474F8D6E 
 256      4F5A7D7C 
 256      6BA3455C 
 256      4107BDB9 
 257 03b6 92B94C97 		.ascii	"\222\271L\227\305eHp!\370\227\022QE\270L\313\\~usY\206"
 257      C5654870 
 257      21F89712 
 257      5145B84C 
 257      CB5C7E75 
 258 03cd FA786F37 		.ascii	"\372xo7\356\257\026\207\315\3541Z[\233\377\037\251\262"
 258      EEAF1687 
 258      CDEC315A 
 258      5B9BFF1F 
 258      A9B2
 259 03df 33B143B4 		.ascii	"3\261C\264u4\200\000\205\340[|sx\247\002#\317aM`\203"
 259      75348000 
 259      85E05B7C 
 259      7378A702 
 259      23CF614D 
 260 03f5 C55BBEED 		.ascii	"\305[\276\355\345p\036\276\306\206WD\324M\274\214{\274"
 260      E5701EBE 
 260      C6865744 
 260      D44DBC8C 
 260      7BBC
 261 0407 189A3F25 		.ascii	"\030\232?%\302\014\2775w\333\221'\022*8va\345\237\241"
 261      C20CBF35 
 261      77DB9127 
 261      122A3876 
 261      61E59FA1 
 262 041b 870F5EFC 		.ascii	"\207\017^\374\030w\303\"'x\206\263\273,\365\263|\250"
 262      1877C322 
 262      277886B3 
ARM GAS  /tmp/ccxMhoIC.s 			page 20


 262      BB2CF5B3 
 262      7CA8
 263 042d 9943230F 		.ascii	"\231C#\017\362\323\340\035\016\364j\300\015DpP:}\007"
 263      F2D3E01D 
 263      0EF46AC0 
 263      0D447050 
 263      3A7D07
 264 0440 DDA7EF60 		.ascii	"\335\247\357`\250\340\210\323\367\002\247\213\306\326"
 264      A8E088D3 
 264      F702A78B 
 264      C6D6
 265 044e EFAFB644 		.ascii	"\357\257\266D\027\3056\331\305\006\005\322\354\202\005"
 265      17C536D9 
 265      C50605D2 
 265      EC8205
 266 045d FFDB47F0 		.ascii	"\377\333G\360JQ\235t\300g\2076?\250\271\302\241\004"
 266      4A519D74 
 266      C0678736 
 266      3FA8B9C2 
 266      A104
 267 046f AD573B3B 		.ascii	"\255W;;\014\265=\321\246n\3254\225\030\311\265\251t"
 267      0CB53DD1 
 267      A66ED534 
 267      9518C9B5 
 267      A974
 268 0481 4A5FAB93 		.ascii	"J_\253\223\266\204\332\330\320\324\320\250&RZ{gLW;\314"
 268      B684DAD8 
 268      D0D4D0A8 
 268      26525A7B 
 268      674C573B 
 269 0496 584CDFD2 		.ascii	"XL\337\322\020G\225\035\211\347\364\250Y\371\310c\233"
 269      1047951D 
 269      89E7F4A8 
 269      59F9C863 
 269      9B
 270 04a7 EB1F420F 		.ascii	"\353\037B\017\250\361tRW\265t\254K\215\351\333T-\236"
 270      A8F17452 
 270      57B574AC 
 270      4B8DE9DB 
 270      542D9E
 271 04ba 684BA43B 		.ascii	"hK\244;T\323\350L=\243\202c\230y\010-\236\324\223Z\332"
 271      54D3E84C 
 271      3DA38263 
 271      9879082D 
 271      9ED4935A 
 272 04cf D0012502 		.ascii	"\320\001%\002\356V\335\334\322\231\322\242fc\031 \035"
 272      EE56DDDC 
 272      D299D2A2 
 272      66631920 
 272      1D
 273 04e0 86660164 		.ascii	"\206f\001d\322\351\366\216\006\0155-4\263\025\030GK"
 273      D2E9F68E 
 273      060D352D 
 273      34B31518 
 273      474B
 274 04f2 C04F1B5D 		.ascii	"\300O\033]Q\366\0345\303\374\026\327IL7\202\231x4\245"
 274      51F61C35 
ARM GAS  /tmp/ccxMhoIC.s 			page 21


 274      C3FC16D7 
 274      494C3782 
 274      997834A5 
 275 0506 3F6B0693 		.ascii	"?k\006\223\031~\257\206{\272\355i]3\243\214t\030\036"
 275      197EAF86 
 275      7BBAED69 
 275      5D33A38C 
 275      74181E
 276 0519 33467A5B 		.ascii	"3Fz[\002\246\326h\361' \360q\376kk*a*\311L\200M\252"
 276      02A6D668 
 276      F12720F0 
 276      71FE6B6B 
 276      2A612AC9 
 277 0531 B2672CB5 		.ascii	"\262g,\265f<\232&\261M\206A\272p\006\247\"\326\273M"
 277      663C9A26 
 277      B14D8641 
 277      BA7006A7 
 277      22D6BB4D 
 278 0545 EDED69AD 		.ascii	"\355\355i\2555\354x\020\376\303\206\256\267\006 efq"
 278      35EC7810 
 278      FEC386AE 
 278      B7062065 
 278      6671
 279 0557 E145408B 		.ascii	"\341E@\213\023c\025o\224\273A\216\326$R&0\253\352\204"
 279      1363156F 
 279      94BB418E 
 279      D6245226 
 279      30ABEA84 
 280 056b FB7DEB99 		.ascii	"\373}\353\231\240\376\263\223\004\224J\351j\024\332"
 280      A0FEB393 
 280      04944AE9 
 280      6A14DA
 281 057a 493ADBCD 		.ascii	"I:\333\315\250\331\225\321\231.\213\243Q;\376?4\336"
 281      A8D995D1 
 281      992E8BA3 
 281      513BFE3F 
 281      34DE
 282 058c 6B04     		.ascii	"k\004"
 283              		.text
 284              		.section	.gnu.lto_.symtab.f083fd415bac6c15,"",%progbits
 285 0000 6368506F 		.ascii	"chPoolObjectInit\000\000\000\000\000\000\000\000\000"
 285      6F6C4F62 
 285      6A656374 
 285      496E6974 
 285      00000000 
 286 0019 000000AB 		.ascii	"\000\000\000\253\000\000\000chPoolLoadArray\000\000"
 286      00000063 
 286      68506F6F 
 286      6C4C6F61 
 286      64417272 
 287 0031 00000000 		.ascii	"\000\000\000\000\000\000\000\000\000\000\312\000\000"
 287      00000000 
 287      0000CA00 
 287      00
 288 003e 00636850 		.ascii	"\000chPoolAllocI\000\000\000\000\000\000\000\000\000"
 288      6F6F6C41 
 288      6C6C6F63 
ARM GAS  /tmp/ccxMhoIC.s 			page 22


 288      49000000 
 288      00000000 
 289 0054 000000D6 		.ascii	"\000\000\000\326\000\000\000chPoolAlloc\000\000\000"
 289      00000063 
 289      68506F6F 
 289      6C416C6C 
 289      6F630000 
 290 0069 00000000 		.ascii	"\000\000\000\000\000\000\000\000\000\334\000\000\000"
 290      00000000 
 290      00DC0000 
 290      00
 291 0076 6368506F 		.ascii	"chPoolFreeI\000\000\000\000\000\000\000\000\000\000"
 291      6F6C4672 
 291      65654900 
 291      00000000 
 291      00000000 
 292 008b 0000E000 		.ascii	"\000\000\340\000\000\000chPoolFree\000\000\000\000\000"
 292      00006368 
 292      506F6F6C 
 292      46726565 
 292      00000000 
 293 00a0 00000000 		.ascii	"\000\000\000\000\000\000\000\351\000\000\000"
 293      000000E9 
 293      000000
 294              		.text
 295              		.section	.gnu.lto_.opts,"",%progbits
 296 0000 272D6D63 		.ascii	"'-mcpu=cortex-m4' '-mfloat-abi=hard' '-mfpu=fpv4-sp"
 296      70753D63 
 296      6F727465 
 296      782D6D34 
 296      2720272D 
 297 0033 2D643136 		.ascii	"-d16' '-mno-thumb-interwork' '-mthumb' '-O2' '-fomi"
 297      2720272D 
 297      6D6E6F2D 
 297      7468756D 
 297      622D696E 
 298 0066 742D6672 		.ascii	"t-frame-pointer' '-falign-functions=16' '-ffunction"
 298      616D652D 
 298      706F696E 
 298      74657227 
 298      20272D66 
 299 0099 2D736563 		.ascii	"-sections' '-fdata-sections' '-fno-common' '-flto' "
 299      74696F6E 
 299      73272027 
 299      2D666461 
 299      74612D73 
 300 00cc 272D6673 		.ascii	"'-fsingle-precision-constant'\000"
 300      696E676C 
 300      652D7072 
 300      65636973 
 300      696F6E2D 
 301              		.text
 302              		.section	.text.chPoolObjectInit,"ax",%progbits
 303              		.align	2
 304              		.p2align 4,,15
 305              		.global	chPoolObjectInit
 306              		.thumb
ARM GAS  /tmp/ccxMhoIC.s 			page 23


 307              		.thumb_func
 308              		.type	chPoolObjectInit, %function
 309              	chPoolObjectInit:
 310              		@ args = 0, pretend = 0, frame = 0
 311              		@ frame_needed = 0, uses_anonymous_args = 0
 312              		@ link register save eliminated.
 313 0000 0023     		movs	r3, #0
 314 0002 4160     		str	r1, [r0, #4]
 315 0004 8260     		str	r2, [r0, #8]
 316 0006 0360     		str	r3, [r0]
 317 0008 7047     		bx	lr
 318              		.size	chPoolObjectInit, .-chPoolObjectInit
 319 000a 00BFAFF3 		.section	.text.chPoolLoadArray,"ax",%progbits
 319      0080
 320              		.align	2
 321              		.p2align 4,,15
 322              		.global	chPoolLoadArray
 323              		.thumb
 324              		.thumb_func
 325              		.type	chPoolLoadArray, %function
 326              	chPoolLoadArray:
 327              		@ args = 0, pretend = 0, frame = 0
 328              		@ frame_needed = 0, uses_anonymous_args = 0
 329              		@ link register save eliminated.
 330 0000 30B4     		push	{r4, r5}
 331 0002 62B1     		cbz	r2, .L2
 332 0004 2025     		movs	r5, #32
 333 0006 0024     		movs	r4, #0
 334              	.L5:
 335              	@ 546 "/home/cody/dev/chibios/trunk/os/ext/CMSIS/include/core_cmFunc.h" 1
 336 0008 85F31188 		MSR basepri, r5
 337              	@ 0 "" 2
 338              		.thumb
 339 000c 0368     		ldr	r3, [r0]
 340 000e 0B60     		str	r3, [r1]
 341 0010 0160     		str	r1, [r0]
 342              	@ 546 "/home/cody/dev/chibios/trunk/os/ext/CMSIS/include/core_cmFunc.h" 1
 343 0012 84F31188 		MSR basepri, r4
 344              	@ 0 "" 2
 345              		.thumb
 346 0016 4368     		ldr	r3, [r0, #4]
 347 0018 013A     		subs	r2, r2, #1
 348 001a 1944     		add	r1, r1, r3
 349 001c F4D1     		bne	.L5
 350              	.L2:
 351 001e 30BC     		pop	{r4, r5}
 352 0020 7047     		bx	lr
 353              		.size	chPoolLoadArray, .-chPoolLoadArray
 354 0022 00BFAFF3 		.section	.text.chPoolAllocI,"ax",%progbits
 354      0080AFF3 
 354      0080AFF3 
 354      0080
 355              		.align	2
 356              		.p2align 4,,15
 357              		.global	chPoolAllocI
 358              		.thumb
 359              		.thumb_func
ARM GAS  /tmp/ccxMhoIC.s 			page 24


 360              		.type	chPoolAllocI, %function
 361              	chPoolAllocI:
 362              		@ args = 0, pretend = 0, frame = 0
 363              		@ frame_needed = 0, uses_anonymous_args = 0
 364 0000 08B5     		push	{r3, lr}
 365 0002 0346     		mov	r3, r0
 366 0004 0068     		ldr	r0, [r0]
 367 0006 10B1     		cbz	r0, .L12
 368 0008 0268     		ldr	r2, [r0]
 369 000a 1A60     		str	r2, [r3]
 370 000c 08BD     		pop	{r3, pc}
 371              	.L12:
 372 000e 9A68     		ldr	r2, [r3, #8]
 373 0010 0AB1     		cbz	r2, .L13
 374 0012 5868     		ldr	r0, [r3, #4]
 375 0014 9047     		blx	r2
 376              	.L13:
 377 0016 08BD     		pop	{r3, pc}
 378              		.size	chPoolAllocI, .-chPoolAllocI
 379 0018 AFF30080 		.section	.text.chPoolAlloc,"ax",%progbits
 379      AFF30080 
 380              		.align	2
 381              		.p2align 4,,15
 382              		.global	chPoolAlloc
 383              		.thumb
 384              		.thumb_func
 385              		.type	chPoolAlloc, %function
 386              	chPoolAlloc:
 387              		@ args = 0, pretend = 0, frame = 0
 388              		@ frame_needed = 0, uses_anonymous_args = 0
 389 0000 08B5     		push	{r3, lr}
 390 0002 2022     		movs	r2, #32
 391 0004 0346     		mov	r3, r0
 392              	@ 546 "/home/cody/dev/chibios/trunk/os/ext/CMSIS/include/core_cmFunc.h" 1
 393 0006 82F31188 		MSR basepri, r2
 394              	@ 0 "" 2
 395              		.thumb
 396 000a 0068     		ldr	r0, [r0]
 397 000c 28B1     		cbz	r0, .L18
 398 000e 0268     		ldr	r2, [r0]
 399 0010 1A60     		str	r2, [r3]
 400              	.L19:
 401 0012 0023     		movs	r3, #0
 402              	@ 546 "/home/cody/dev/chibios/trunk/os/ext/CMSIS/include/core_cmFunc.h" 1
 403 0014 83F31188 		MSR basepri, r3
 404              	@ 0 "" 2
 405              		.thumb
 406 0018 08BD     		pop	{r3, pc}
 407              	.L18:
 408 001a 9A68     		ldr	r2, [r3, #8]
 409 001c 002A     		cmp	r2, #0
 410 001e F8D0     		beq	.L19
 411 0020 5868     		ldr	r0, [r3, #4]
 412 0022 9047     		blx	r2
 413 0024 0023     		movs	r3, #0
 414              	@ 546 "/home/cody/dev/chibios/trunk/os/ext/CMSIS/include/core_cmFunc.h" 1
 415 0026 83F31188 		MSR basepri, r3
ARM GAS  /tmp/ccxMhoIC.s 			page 25


 416              	@ 0 "" 2
 417              		.thumb
 418 002a 08BD     		pop	{r3, pc}
 419              		.size	chPoolAlloc, .-chPoolAlloc
 420 002c AFF30080 		.section	.text.chPoolFreeI,"ax",%progbits
 421              		.align	2
 422              		.p2align 4,,15
 423              		.global	chPoolFreeI
 424              		.thumb
 425              		.thumb_func
 426              		.type	chPoolFreeI, %function
 427              	chPoolFreeI:
 428              		@ args = 0, pretend = 0, frame = 0
 429              		@ frame_needed = 0, uses_anonymous_args = 0
 430              		@ link register save eliminated.
 431 0000 0368     		ldr	r3, [r0]
 432 0002 0B60     		str	r3, [r1]
 433 0004 0160     		str	r1, [r0]
 434 0006 7047     		bx	lr
 435              		.size	chPoolFreeI, .-chPoolFreeI
 436 0008 AFF30080 		.section	.text.chPoolFree,"ax",%progbits
 436      AFF30080 
 437              		.align	2
 438              		.p2align 4,,15
 439              		.global	chPoolFree
 440              		.thumb
 441              		.thumb_func
 442              		.type	chPoolFree, %function
 443              	chPoolFree:
 444              		@ args = 0, pretend = 0, frame = 0
 445              		@ frame_needed = 0, uses_anonymous_args = 0
 446              		@ link register save eliminated.
 447 0000 2023     		movs	r3, #32
 448              	@ 546 "/home/cody/dev/chibios/trunk/os/ext/CMSIS/include/core_cmFunc.h" 1
 449 0002 83F31188 		MSR basepri, r3
 450              	@ 0 "" 2
 451              		.thumb
 452 0006 0368     		ldr	r3, [r0]
 453 0008 0B60     		str	r3, [r1]
 454 000a 0023     		movs	r3, #0
 455 000c 0160     		str	r1, [r0]
 456              	@ 546 "/home/cody/dev/chibios/trunk/os/ext/CMSIS/include/core_cmFunc.h" 1
 457 000e 83F31188 		MSR basepri, r3
 458              	@ 0 "" 2
 459              		.thumb
 460 0012 7047     		bx	lr
 461              		.size	chPoolFree, .-chPoolFree
 462              		.comm	__gnu_lto_v1,1,1
 463 0014 AFF30080 		.ident	"GCC: (GNU Tools for ARM Embedded Processors) 4.8.4 20140526 (release) [ARM/embedded-4_8-br
 463      AFF30080 
 463      AFF30080 
ARM GAS  /tmp/ccxMhoIC.s 			page 26


DEFINED SYMBOLS
                            *ABS*:0000000000000000 chmempools.c
     /tmp/ccxMhoIC.s:303    .text.chPoolObjectInit:0000000000000000 $t
     /tmp/ccxMhoIC.s:309    .text.chPoolObjectInit:0000000000000000 chPoolObjectInit
     /tmp/ccxMhoIC.s:320    .text.chPoolLoadArray:0000000000000000 $t
     /tmp/ccxMhoIC.s:326    .text.chPoolLoadArray:0000000000000000 chPoolLoadArray
     /tmp/ccxMhoIC.s:355    .text.chPoolAllocI:0000000000000000 $t
     /tmp/ccxMhoIC.s:361    .text.chPoolAllocI:0000000000000000 chPoolAllocI
     /tmp/ccxMhoIC.s:380    .text.chPoolAlloc:0000000000000000 $t
     /tmp/ccxMhoIC.s:386    .text.chPoolAlloc:0000000000000000 chPoolAlloc
     /tmp/ccxMhoIC.s:421    .text.chPoolFreeI:0000000000000000 $t
     /tmp/ccxMhoIC.s:427    .text.chPoolFreeI:0000000000000000 chPoolFreeI
     /tmp/ccxMhoIC.s:437    .text.chPoolFree:0000000000000000 $t
     /tmp/ccxMhoIC.s:443    .text.chPoolFree:0000000000000000 chPoolFree
                            *COM*:0000000000000001 __gnu_lto_v1

NO UNDEFINED SYMBOLS
