ARM GAS  /tmp/ccJjg49t.s 			page 1


   1              		.syntax unified
   2              		.cpu cortex-m3
   3              		.fpu softvfp
   4              		.eabi_attribute 20, 1
   5              		.eabi_attribute 21, 1
   6              		.eabi_attribute 23, 3
   7              		.eabi_attribute 24, 1
   8              		.eabi_attribute 25, 1
   9              		.eabi_attribute 26, 1
  10              		.eabi_attribute 30, 2
  11              		.eabi_attribute 34, 1
  12              		.eabi_attribute 18, 4
  13              		.thumb
  14              		.file	"chmtx.c"
  15              		.section	.gnu.lto_.jmpfuncs.abb3f3a1cf64d095,"",%progbits
  16 0000 789C6D8C 		.ascii	"x\234m\214\301\015\300 \020\303\354\243\205\262\026"
  16      C10DC020 
  16      10C3ECA3 
  16      85B216
  17 000f 5374852E 		.ascii	"St\205.\320\371{\240>\311\303\221\"+A\260\313\370\273"
  17      D0F97BA0 
  17      3EC9C391 
  17      222B41B0 
  17      CBF8BB
  18 0022 6358346E 		.ascii	"cX4n\037\251 \034&\316\211\252%\245W\232\371\263\244"
  18      1FA9201C 
  18      26CE89AA 
  18      25A5579A 
  18      F9B3A4
  19 0035 9CB926FB 		.ascii	"\234\271&\373\222\371\000gf\002\230"
  19      92F90067 
  19      660298
  20              		.text
  21              		.section	.gnu.lto_.inline.abb3f3a1cf64d095,"",%progbits
  22 0000 789C7D4F 		.ascii	"x\234}O\261j\002A\020}3\267w\273{\012'6Zy\330\304.H"
  22      B16A0241 
  22      107D33B7 
  22      77BB7B0A 
  22      27365A79 
  23 0018 08292510 		.ascii	"\010)%\020\260\264\266\264S\177D\354\3246E\260L\322"
  23      B0B4B6B4 
  23      537F44EC 
  23      D43645B0 
  23      4CD2
  24 002a 8748AA10 		.ascii	"\207H\252\020H\037R\345\003\204\330\004\322\246\011"
  24      481F52E5 
  24      0384D804 
  24      D2A609
  25 0039 CEEE4623 		.ascii	"\316\356F#\"n13;\363\346\275y\014\306\2417\241\220-"
  25      226E3133 
  25      3BF3E6BD 
  25      790CC6A1 
  25      37A1902D 
  26 004d 603481CD 		.ascii	"`4\201\315s\013\346\373\324\203\031IL\004\207\340hQ"
  26      730BE6FB 
  26      D4831949 
  26      4C0487E0 
ARM GAS  /tmp/ccJjg49t.s 			page 2


  26      6851
  27 005f 81FDB8F0 		.ascii	"\201\375\270\360\375\010\357\230\021)\014\2724$iE\227"
  27      FD08EF98 
  27      11290CBA 
  27      34246945 
  27      97
  28 0070 E8FF97B4 		.ascii	"\350\377\227\264\211\320\374\226!\231\347\014Z\351\022"
  28      89D0FC96 
  28      2199E70C 
  28      5AE912
  29 007f 231E374A 		.ascii	"#\0367J\340{6\302\374\233\030\214\350\3511S^\252\000"
  29      E07B36C2 
  29      FC9B188C 
  29      E8E93153 
  29      5EAA00
  30 0092 252B214D 		.ascii	"%+!M;\012:\223\237\232\347a= \334$F\301\310\304\336"
  30      3B0A3A93 
  30      9F9AE761 
  30      3D20DC24 
  30      46C1C8C4 
  31 00a7 B6A1C78D 		.ascii	"\266\241\307\215pN\321O\022XC\321\261\233\234\322\376"
  31      704ED14F 
  31      125843D1 
  31      B19B9CD2 
  31      FE
  32 00b8 3561DF38 		.ascii	"5a\3378\002\215\372'6~\233\257\253\024\305\237\253\255"
  32      028DFA27 
  32      367E9BAF 
  32      AB14C59F 
  32      ABAD
  33 00ca 024F3B02 		.ascii	"\002O;\002\253-!\032\216\255\347q\276\204>y\270N\221"
  33      AB2D211A 
  33      8EADE771 
  33      BE843E79 
  33      B84E91
  34 00dd DE9D7B6A 		.ascii	"\336\235{j\025\342\237\212\213\020#\325\035\023\026"
  34      15E29F8A 
  34      8B1023D5 
  34      1D1316
  35 00ec F99708F1 		.ascii	"\371\227\010\361\331\313Myk\220R\017 \007\300\032c\364"
  35      D9CB4D79 
  35      6B90520F 
  35      2007C01A 
  35      63F4
  36 00fe 3110     		.ascii	"1\020"
  37              		.text
  38              		.section	.gnu.lto_.pureconst.abb3f3a1cf64d095,"",%progbits
  39 0000 789C6362 		.ascii	"x\234cb`b\020f\200\000N\006)&)f)\026+V+6Iv+\016)N+\000"
  39      60621066 
  39      80004E06 
  39      29262966 
  39      29162B56 
  40 001e 0FEE01B6 		.ascii	"\017\356\001\266"
  41              		.text
  42              		.section	.gnu.lto_chMtxTryLockS.part.0.abb3f3a1cf64d095,"",%progbits
  43 0000 789C8551 		.ascii	"x\234\205Q=K\003A\020\235\267\273\361\"\"\370\023\254"
  43      3D4B0341 
ARM GAS  /tmp/ccJjg49t.s 			page 3


  43      109DB7BB 
  43      F12222F8 
  43      13AC
  44 0012 0DB8E4BF 		.ascii	"\015\270\344\277$\240\245\271\204\313!g\340r\212b\221"
  44      24A0A5B9 
  44      84CB2167 
  44      E0728A62 
  44      91
  45 0023 8D5858A6 		.ascii	"\215XX\246\024\305\302J\260\321R\202\215e\024E;\025"
  45      14C5C24A 
  45      B0D15282 
  45      8D651445 
  45      3B15
  46 0035 04B1B4B2 		.ascii	"\004\261\264\262\266\2113\2333\370\201\270\2603\217"
  46      B689339B 
  46      33F881B8 
  46      B0338F
  47 0044 61DE07BB 		.ascii	"a\336\007\273\212\024\375<%\276\027 *sG\201`z7\014\014"
  47      8A14FD3C 
  47      25BE1720 
  47      2A734781 
  47      607A370C 
  48 0059 94EF0A5A 		.ascii	"\224\357\012Zz\267\250\001\001\004\352\030\245\321Y"
  48      7AB7A801 
  48      0104EA18 
  48      A5D159
  49 0068 84679F28 		.ascii	"\204g\237(\367<\034>\235\036a\022\024\203\024\022\220"
  49      F73C1C3E 
  49      9D1E6112 
  49      14831412 
  49      90
  50 0079 6604C345 		.ascii	"f\004\303E\334\012\264\355\\o\226(\364\214\012W\021"
  50      DC0AB4ED 
  50      5C6F9628 
  50      F48C0A57 
  50      11
  51 008a AAF00277 		.ascii	"\252\360\002w]\345%\351\327\264\365\270\333\277TK8\344"
  51      5DE525E9 
  51      D7B4F5B8 
  51      DBBF544B 
  51      38E4
  52 009c 141150A2 		.ascii	"\024\021P\2429\326\363U\357\323^\327\271\231\030f\223"
  52      39D6F355 
  52      EFD35ED7 
  52      B9991866 
  52      93
  53 00ad DEDD8EA0 		.ascii	"\336\335\216\240B\002\321[\000C\237\2446\012\304=\007"
  53      4202D15B 
  53      00439FA4 
  53      360AC43D 
  53      07
  54 00be C49283B7 		.ascii	"\304\222\203\267`$X\242c\307g\212%\307b\023\021\224"
  54      602458A2 
  54      63C7678A 
  54      25C76213 
  54      1194
  55 00d0 F0839C37 		.ascii	"\360\203\2347z\233H\370\222\346\254\377:N\243}\016\214"
ARM GAS  /tmp/ccJjg49t.s 			page 4


  55      7A9B48F8 
  55      92E6ACFF 
  55      3A4EA37D 
  55      0E8C
  56 00e2 A945DE12 		.ascii	"\251E\336\022\352\247\245\376by\373\3132\370\323\322"
  56      EAA7A5FE 
  56      6279FBCB 
  56      32F8D3D2 
  57 00f2 E496DA53 		.ascii	"\344\226\332S\257\356\373/\352\033\271\374\277i\224"
  57      AFEEFB2F 
  57      EA1BB9FC 
  57      BF6994
  58 0101 E7A62A0F 		.ascii	"\347\246*\017\344%\357\370\267d\354\265\037\310\010"
  58      E425EFF8 
  58      B764ECB5 
  58      1FC808
  59 0110 45F1CF9C 		.ascii	"E\361\317\234\037L\313\263C\226\204bm\263\2254l\330"
  59      1F4CCBB3 
  59      43968462 
  59      6DB39534 
  59      6CD8
  60 0122 AA6FD87A 		.ascii	"\252o\330zc\315\206\315\270\026\267\3326KWW\226-\203"
  60      63CD86CD 
  60      B816B7DA 
  60      364B5757 
  60      962D83
  61 0135 34B3ED34 		.ascii	"4\263\3554\344y\222\255\317\207\364\001q\014t\302"
  61      E47992AD 
  61      CF87F401 
  61      710C74C2 
  62              		.text
  63              		.section	.gnu.lto_chMtxObjectInit.abb3f3a1cf64d095,"",%progbits
  64 0000 789C8D91 		.ascii	"x\234\215\221\275K\003A\020\305\347m\022\014Zhk!\012"
  64      BD4B0341 
  64      10C5E76D 
  64      120C5A68 
  64      6B210A
  65 0013 9662B6F1 		.ascii	"\226b\266\361?1\202\226\311^\314-\232\004\356\022\361"
  65      3F318296 
  65      C95ECC2D 
  65      9A04EE12 
  65      F1
  66 0024 A3C8255A 		.ascii	"\243\310%Z\207\324\021\004\213X\210(XYX\244\023\211"
  66      87D41104 
  66      8B588828 
  66      585958A4 
  66      1389
  67 0036 0A29EC52 		.ascii	"\012)\354R\304J\260\260Ul\342\354\355)\242\"\016\334"
  67      C44AB0B0 
  67      556CE2EC 
  67      ED29A222 
  67      0EDC
  68 0048 CDDCDCBC 		.ascii	"\315\334\334\274\337\274\273\025$\350{L\362U\007\321"
  68      DFBCBB15 
  68      24E87B4C 
  68      F25507D1 
  69 0058 2A67C408 		.ascii	"*g\304\010\242yGTK\012\300\024\004\252\012TW\020\316"
ARM GAS  /tmp/ccJjg49t.s 			page 5


  69      A2794754 
  69      4B0AC014 
  69      04AA0A54 
  69      5710CE
  70 006b 9E89CE60 		.ascii	"\236\211\316`8<=\277j\237\340@$\201\002\230\250\303"
  70      383C3DBF 
  70      6A9FE040 
  70      24810298 
  70      A8C3
  71 007d 9709DA0B 		.ascii	"\227\011\332\013\202\346\014\221\012\037\323|7\200%"
  71      82E60C91 
  71      0A1FD37C 
  71      378025
  72 008c 089363B7 		.ascii	"\010\223c\267T\177\333}iLep\210\004\345!vh\233\205s"
  72      547FDB7D 
  72      694C6570 
  72      8804E521 
  72      76689B85 
  73 00a1 741C702C 		.ascii	"t\034p,j`\237Z\320\020y`\231s,\\\230\305\027\247\214"
  73      6A609F5A 
  73      D0107960 
  73      99732C5C 
  73      98C517A7 
  74 00b6 E8F65B37 		.ascii	"\350\366[7\217#\237\253l\321\351>\367x\334\222\025B"
  74      8F239FAB 
  74      6CD1E93E 
  74      F778DC92 
  74      1542
  75 00c8 89E50EEE 		.ascii	"\211\345\016\356\037.\3475\342\214\256\005\301\004/"
  75      1F2EE735 
  75      E28CAE05 
  75      C1042F
  76 00d7 89E814D1 		.ascii	"\211\350\024\321adG,3\216\302\015\327\315\321\014\332"
  76      6164472C 
  76      338EC20D 
  76      D7CDD10C 
  76      DA
  77 00e8 DC899C8D 		.ascii	"\334\211\234\215\377%\027?\344\027\375\327\306\264u"
  77      FF25173F 
  77      E417FDD7 
  77      C6B475
  78 00f7 1201C62C 		.ascii	"\022\001\306,\340\227O\263\331t\342\246\350Qm\3604k"
  78      E0974FB3 
  78      D974E2A6 
  78      E8516DF0 
  78      346B
  79 0109 B51F9166 		.ascii	"\265\037\221f\207\374\367\314\251I\351\226\0129\251"
  79      87FCF7CC 
  79      A949E996 
  79      0A39A9
  80 0118 4ACE9674 		.ascii	"J\316\226tr\033R\271:\253K\276,{\225\342\232\344\302"
  80      721B52B9 
  80      3AAB4BBE 
  80      2C7B95E2 
  80      9AE4C2
  81 012b 2B4BDF53 		.ascii	"+K\337S\334/\2247S\212\026\3761\257\213j\275\342\360"
  81      DC2F9437 
ARM GAS  /tmp/ccJjg49t.s 			page 6


  81      538A16FE 
  81      31AF8B6A 
  81      BDE2F0
  82 013e 90EB2BD7 		.ascii	"\220\353+\327I\271\364\016Wt\202\204"
  82      49B9F40E 
  82      57748284 
  83              		.text
  84              		.section	.gnu.lto_chMtxLockS.abb3f3a1cf64d095,"",%progbits
  85 0000 789CB558 		.ascii	"x\234\265X\333o\024U\030\377\316\314\316\354}\267\333"
  85      DB6F1455 
  85      18FFCECC 
  85      CEEC7DB7 
  85      DB
  86 0011 6E2F3CD4 		.ascii	"n/<\324\224RZ\350\322.-\324K\2141\274\371\007\320\250"
  86      94525AE8 
  86      D22E2DD4 
  86      4B8C31BC 
  86      F907D0A8 
  87 0025 8F654BB6 		.ascii	"\217eK\266\033)\345R\024\344\201Y(b\244\230\212&\334"
  87      1B29E552 
  87      14E48159 
  87      2862A498 
  87      8A26DC
  88 0038 1504949B 		.ascii	"\025\004\224\233\201\020\003h\232P\020c\327\026\324"
  88      81100368 
  88      9A501063 
  88      D716D4
  89 0047 4412DA42 		.ascii	"D\022\332BlC\274\264\372\320\210\032h\305\372\235\313"
  89      6C43BCB4 
  89      FAD0881A 
  89      68C5FA9D 
  89      CB
  90 0058 ECCEECCC 		.ascii	"\354\316\354\314\302\022q\036\316\231=\347\374\276\373"
  90      C212711E 
  90      CE993DE7 
  90      FCBEFB
  91 0067 F7EB9C4A 		.ascii	"\367\353\234J A\3663\217\000\214\025\002\254\306wR\006"
  91      2041F633 
  91      8F008C15 
  91      02ACC677 
  91      5206
  92 0079 44EAB906 		.ascii	"D\352\271\006\220tI\222\377\323\313\000\232\247\360"
  92      90744992 
  92      FFD3CB00 
  92      9AA7F0
  93 0088 A617349F 		.ascii	"\246\0274\237\237\204\351:\221\035\201+E\240\271|lt"
  93      9F84E93A 
  93      911D812B 
  93      45A0B97C 
  93      6C74
  94 009a B0D1C5DF 		.ascii	"\260\321\305\337\211\302\221\212\244^\373\232\"\235"
  94      89C2918A 
  94      A45EFB9A 
  94      229D
  95 00a8 976544AA 		.ascii	"\227eD\252R\251\361g)?\266\304\311\005^r\271\210\233"
  95      52A9F167 
  95      293FB6C4 
ARM GAS  /tmp/ccJjg49t.s 			page 7


  95      C9055E72 
  95      B9889B
  96 00bb E3DC9287 		.ascii	"\343\334\222\207\037\364\262\203\036\251\304\370\263"
  96      1FF4B283 
  96      1EA9C4F8 
  96      B3
  97 00c8 841F5BE2 		.ascii	"\204\037[\342%\001~\334\247\277\204%\371\364 =\030\030"
  97      25017EDC 
  97      A7BF8425 
  97      F9F4203D 
  97      1818
  98 00da 23783040 		.ascii	"#x0@\202|=(\025p\001!&\240@*6\376,\346\307\226\204H"
  98      827C3D28 
  98      15700121 
  98      26A0402A 
  98      36FE2CE6 
  99 00f2 113F5EA8 		.ascii	"\021?^\250\277\024\021B_\200\300&\311/;\024\265\324"
  99      BF141142 
  99      5F80C026 
  99      C92F3B14 
  99      B5D4
 100 0104 E9727B4A 		.ascii	"\351r{J\274\276p XP\034*,\"\233^&4rJ%\034\322\264\235"
 100      BCBE7020 
 100      58501C2A 
 100      2C229B5E 
 100      2634724A 
 101 011d A35B4F8C 		.ascii	"\243[O\214\223=Z_\327A\355\357\231\031B\022\004\243"
 101      933D5A5F 
 101      D741EDEF 
 101      99194212 
 101      04A3
 102 012f DC482046 		.ascii	"\334H F\340%\374A*\330$9\314a\347\330\276=\003\357\315"
 102      E025FC41 
 102      2AD82439 
 102      CC61E7D8 
 102      BE3D03EF 
 103 0144 D20E6EEE 		.ascii	"\322\016n\356\321\376A(C>\231'\362\342[\003D\333\251"
 103      D1FE4128 
 103      433E9927 
 103      F2E25B03 
 103      44DBA9
 104 0157 25276766 		.ascii	"%'gf\202\011\"K\360L~@\355\254\246\271\231\2512\302"
 104      8209224B 
 104      F04C7E40 
 104      EDACA6B9 
 104      99A932C2 
 105 016b 5AC84744 		.ascii	"Z\310GD\372\237p\247\245\276\321\231\231_\266\375\372"
 105      FA9F70A7 
 105      A5BED199 
 105      995FB6FD 
 105      FA
 106 017c 3E798140 		.ascii	">y\201@\0139L*A\305\371\020\316N\322N\300\005\350\261"
 106      0B394C2A 
 106      41C5F910 
 106      CE4ED24E 
 106      C005E8B1 
 107 0190 5BEC78F0 		.ascii	"[\354x\360\207\303K\007?\016J\020\227\217\342rHl\207"
ARM GAS  /tmp/ccJjg49t.s 			page 8


 107      87C34B07 
 107      3F0E4A10 
 107      978FE272 
 107      486C87
 108 01a3 71FE18E7 		.ascii	"q\376\030\3472\234\217\341\\\216\207\324\012*`6\035"
 108      329C8FE1 
 108      5C8E87D4 
 108      0A2A6036 
 108      1D
 109 01b4 2AE93047 		.ascii	"*\3510G`\252\304<\227J\253\246;5t\230G\207\371t\250"
 109      60AAC43C 
 109      974AABA6 
 109      3B357498 
 109      4787F974 
 110 01c9 15C22262 		.ascii	"\025\302\"b^@\017\326\321\235z:D\351\260\220\016\015"
 110      5E400FD6 
 110      D19D7A3A 
 110      44E9B090 
 110      0E0D
 111 01db 425BA398 		.ascii	"B[\243\230\027\321\203\213\351\320D\267i\021@\227\246"
 111      17D1838B 
 111      E9D044B7 
 111      69114097 
 111      A6
 112 01ec F55470AF 		.ascii	"\365Tp\257\200F\004\237\2458nwA3\206h\273K\276\012\233"
 112      8046049F 
 112      A5386E77 
 112      41338668 
 112      BB4BBE0A 
 113 0201 8777638D 		.ascii	"\207wc\215\264\220\343D\2018Q#pB\303\347E\224\020\201"
 113      B490E344 
 113      81385123 
 113      7042C3E7 
 113      45941081 
 114 0215 DA0471EE 		.ascii	"\332\004q\356\203\275IM+H\020\327F\230\322\336\244o"
 114      83BD494D 
 114      2B4810D7 
 114      4698D2DE 
 114      A46F
 115 0227 EE764245 		.ascii	"\356vBE\321\270\272Y4\227\021\020\263x\001*\367\306"
 115      D1B8BA59 
 115      34971110 
 115      B378012A 
 115      F7C6
 116 0239 C9545AAE 		.ascii	"\311TZ\256\213\011\003\024\206 O\2348)\330+@z\343\367"
 116      8B090314 
 116      86204F9C 
 116      3829D82B 
 116      407AE3F7 
 117 024d 43D76F49 		.ascii	"C\327oI\177\032B\217\230\222\326L\3740\251\312\000C"
 117      7F1A428F 
 117      9892D64C 
 117      FC30A9CA 
 117      0043
 118 025f E0C67D69 		.ascii	"\340\306}ip\350\010\241\2532\374\316<I\33587&\245\235"
 118      70E808A1 
 118      AB32FCCE 
ARM GAS  /tmp/ccJjg49t.s 			page 9


 118      3C49DD38 
 118      3726A59D 
 119 0273 3ECC9CE6 		.ascii	">\314\234\346\322\360\021\216=\225 >n\205?NHF\3052\224"
 119      D2F0118E 
 119      3D95203E 
 119      6E853F4E 
 119      4846C532 
 120 0288 429F38B5 		.ascii	"B\2378\265\212Z\177\341\374\220\324B\3160S\374\314\372"
 120      8A5A7FE1 
 120      FC90D442 
 120      CE3053FC 
 120      CCFA
 121 029a 803D4EAF 		.ascii	"\200=N\257\254A\330\3327+\215\330\001\335\311.\032\254"
 121      AC41D8DA 
 121      372B8DD8 
 121      01DDC92E 
 121      1AAC
 122 02ac 20DD6B15 		.ascii	" \335k\025>\362\325\276\275\001\\\2472\024\276)\033"
 122      3EF2D5BE 
 122      BD015CA7 
 122      3214BE29 
 122      1B
 123 02bd 377BBDFA 		.ascii	"7{\275\372\246\3126\035\306\315\311\364\246\223m*\246"
 123      A6CA361D 
 123      C6CDC9F4 
 123      A6936D2A 
 123      A6
 124 02ce F038E080 		.ascii	"\3608\340\200$\017 O\010\034\365\243\367\207\357w\373"
 124      240F204F 
 124      081CF5A3 
 124      F787EF77 
 124      FB
 125 02df 4450F492 		.ascii	"DP\364\222\350\333\376\307e'\215\01556\306\223\026'"
 125      E8DBFEC7 
 125      65278D0D 
 125      3536C693 
 125      1627
 126 02f1 153C44A3 		.ascii	"\025<D\243\323G\277l\341\271\342\211\317vX\241\310\317"
 126      D347BF6C 
 126      E1B9E289 
 126      CF7658A1 
 126      C8CF
 127 0303 B96AAA61 		.ascii	"\271j\252a2\320B>c^\317Ng\331\036\251\232\221\251I/"
 127      32D0423E 
 127      635ECF4E 
 127      67D91EA9 
 127      9A91A949 
 128 0318 478ADC3C 		.ascii	"G\212\334<\227\205\255\260\307\242\036Q`'\272U]u\345"
 128      9785ADB0 
 128      C7A21E51 
 128      6027BA55 
 128      5D75E5
 129 032b E3555D69 		.ascii	"\343U]i\3570\332\304U\337<\262\253C\317u\220\251.\020"
 129      EF30DAC4 
 129      55DF3CB2 
 129      AB43CF75 
 129      90A92E10 
ARM GAS  /tmp/ccJjg49t.s 			page 10


 130 033f 92AE2330 		.ascii	"\222\256#0d_)N1\273LIS\340\303Y2\317\324\237\273d\273"
 130      645F294E 
 130      31BB4C49 
 130      53E0C359 
 130      32CFD49F 
 131 0356 4C71C6C8 		.ascii	"Lq\306\310\344K\342\371\252\322\363\365\311\305\362"
 131      E44BE2F9 
 131      AAD2F3F5 
 131      C9C5F2
 132 0365 2CF3E758 		.ascii	",\363\347X\\Oq\327i\213]\032\372\000+\273\237\333\216"
 132      5C4F71D7 
 132      698B5D1A 
 132      FA002BBB 
 132      9FDB8E
 133 0378 62745386 		.ascii	"btS\206`\016.8\366\337\337\200\213\245\275\367\227S"
 133      600E2E38 
 133      F6DFDF80 
 133      8BA5BDF7 
 133      9753
 134 038a EB5478A7 		.ascii	"\353Tx\247\214\263\304\364\210\242\243\3462\217}F\215"
 134      8CB3C4F4 
 134      88A2A3E6 
 134      328F7D46 
 134      8D
 135 039b 5559AD64 		.ascii	"UY\255d\324\370Sr\037\321\241^Dg\274_JJ\341\215R\322"
 135      D4F85372 
 135      1FD1A15E 
 135      4467BC5F 
 135      4A4AE18D 
 136 03b1 8CA1C1CA 		.ascii	"\214\241\301\312\245y\2710=-\316\212x\372\037\232\325"
 136      A579B930 
 136      3D2DCE8A 
 136      78FA1F9A 
 136      D5
 137 03c2 14CF4C95 		.ascii	"\024\317L\225(\212\351\221\264w\325\326\242\250\262"
 137      288AE991 
 137      B477D5D6 
 137      A2A8B2
 138 03d1 24366528 		.ascii	"$6e(\012g\376\252\025\203\352j\006\037\270;}\333a\022"
 138      0A67FEAA 
 138      1583EA6A 
 138      061FB83B 
 138      7DDB6112 
 139 03e5 F05A7ECA 		.ascii	"\360Z~\312\343\264\003\365\242\354\317]\224\325\271"
 139      E3B403F5 
 139      A2ECCF5D 
 139      94D5B9
 140 03f4 5CE7F0E1 		.ascii	"\\\347\360\341\301c\245zM\206\204\210\363\304\310\272"
 140      C163A57A 
 140      4D868488 
 140      F3C4C8BA 
 141 0404 413BD69D 		.ascii	"A;\326\235\000\255\273\367\326\012\216\324\213\322e"
 141      00ADBBF7 
 141      D60A8ED4 
 141      8BD265
 142 0413 6412E501 		.ascii	"d\022\345\001L2p\345\013+\223\324<\012\223\214\230\231"
 142      4C3270E5 
ARM GAS  /tmp/ccJjg49t.s 			page 11


 142      0B2B93D4 
 142      3C0A938C 
 142      9899
 143 0425 6498D93F 		.ascii	"d\230\331?/\237v\0361\267\363p\356\310\325\330cQ\217"
 143      2F9F761E 
 143      31B7F370 
 143      EEC8D5D8 
 143      63518F
 144 0438 9149B8EA 		.ascii	"\221I\270\352\371\217W\365|{\207\321&\301$\307\366\247"
 144      F98F57F5 
 144      7C7B87D1 
 144      26C124C7 
 144      F6A7
 145 044a 9924FCDF 		.ascii	"\231$\374\337\230\304\375@&\241\231\342\237\024\026"
 145      98C4FD40 
 145      26A199E2 
 145      9F1416
 146 0459 2689E466 		.ascii	"&\211\344f\222Z\213\353\023\331L2\316mG1\031&\251\305"
 146      925A8BEB 
 146      13D94C32 
 146      CE6D4731 
 146      1926A9C5 
 147 046d 05176392 		.ascii	"\005\027c\222H\211`\022\217\231I8j\201\225I\"\026&\311"
 147      48896012 
 147      8F994938 
 147      6A819549 
 147      221626C9 
 148 0481 68E44C32 		.ascii	"h\344L2\2563\311\002#\223\224p&\361\232\231d\374Q\230"
 148      AE33C902 
 148      23939470 
 148      26F19A99 
 148      64FC5198 
 149 0495 64826726 		.ascii	"d\202g&bd\022\256\254\316Z\024\021Kb'\314L\222\257j"
 149      626412AE 
 149      ACCE5A14 
 149      114B6227 
 149      CC4C92AF 
 150 04aa C5A0BACE 		.ascii	"\305\240\272\316\310$\006\001\331L\222C\271\211I\306"
 150      C8240601 
 150      D94C9243 
 150      B98949C6 
 151 04ba 7317655D 		.ascii	"s\027e].\327\211^K>#\001\310\342\223\010\273\304RUW"
 151      2ED7895E 
 151      4B3E2301 
 151      C8E29308 
 151      BBC45255 
 152 04cf 6F2B96FE 		.ascii	"o+\226\376\257\177\224\376\2372\367\377=\026\357h>M"
 152      AF7F94FE 
 152      9F32F7FF 
 152      3D16EF68 
 152      3E4D
 153 04e1 38656EC2 		.ascii	"8en\302{\271\375\255\267\307\242\036c\377s\325\013\037"
 153      7BB9FDAD 
 153      B7C7A21E 
 153      63FF73D5 
 153      0B1F
 154 04f3 AFEA85F6 		.ascii	"\257\352\205\366\016\243M\000\337@\327\344\331;\027"
ARM GAS  /tmp/ccJjg49t.s 			page 12


 154      0EA34D00 
 154      DF40D7E4 
 154      D93B17
 155 0502 88CEBDE9 		.ascii	"\210\316\275\351/\354\302X\372s\024\321EzR\302\320\355"
 155      2FECC258 
 155      FA7314D1 
 155      457A52C2 
 155      D0ED
 156 0514 26AC85CE 		.ascii	"&\254\205\316]J\177\234z\322-\224\363\243\226;\371m"
 156      5D4A7F9C 
 156      7AD22D94 
 156      F3A3963B 
 156      F96D
 157 0526 508778B3 		.ascii	"P\207x\263 \252\035\244\037\256\374\230|6\255%.\376"
 157      20AA1DA4 
 157      1FAEFC98 
 157      7C36AD25 
 157      2EFE
 158 0538 70B0F626 		.ascii	"p\260\366&q\342\366\343\020r\236\272\265\236Z\026\240"
 158      71E2F6E3 
 158      10729EBA 
 158      B59E5A16 
 158      A0
 159 0549 1FE67AB9 		.ascii	"\037\346z\271HL\337\324\226\223\007\236\326\341e\033"
 159      484CDFD4 
 159      9693079E 
 159      D6E1651B 
 160 0559 E175BC9A 		.ascii	"\341u\274\232\211\030\275\213\352\302\366w\0017\230"
 160      8918BD8B 
 160      EAC2F677 
 160      013798
 161 0568 9E66FC7E 		.ascii	"\236f\374~\306\033\357\003\276\217\256oq\362\373\217"
 161      C61BEF03 
 161      BE8FAE6F 
 161      71F2FB8F 
 162 0578 85D51A73 		.ascii	"\205\325\032s\263Z\203%\241oKY\254\266Cbv\243\230\214"
 162      B35A8325 
 162      A16F4B59 
 162      ACB64362 
 162      76A3988C 
 163 058c DB0DB810 		.ascii	"\333\015\270\020`\254\326X,X\255\000\360\346n\2405\016"
 163      60ACD658 
 163      2C58AD00 
 163      F0E66EA0 
 163      350E
 164 059e 5B64A5B5 		.ascii	"[d\245\265F\013\255\011\225\024{\346\011\035\271\330"
 164      460BAD09 
 164      95147BE6 
 164      091DB9D8 
 165 05ae 8ACCCE8E 		.ascii	"\212\314\316\216\321\330\237\031!\012\245\210\316Dn"
 165      D1D89F19 
 165      210AA588 
 165      CE446E
 166 05bd 29298683 		.ascii	"))\206\203_\0012b\210\346&\303\210\364p\016ZR\355\303"
 166      5F013262 
 166      88E626C3 
 166      88F4700E 
ARM GAS  /tmp/ccJjg49t.s 			page 13


 166      5A52EDC3 
 167 05d1 C2629061 		.ascii	"\302b\220aD\256\255\311\332&\215\226R\317\270\310\030"
 167      44AEADC9 
 167      DA268D96 
 167      52CFB8C8 
 167      18
 168 05e2 315FD58A 		.ascii	"1_\325\212Au\223\221\021\015\002\262\0311\207\3628\365"
 168      41759391 
 168      110D02B2 
 168      193187F2 
 168      38F5
 169 05f4 436F5303 		.ascii	"CoS\003<\273M\233r\271\316\341\0037O\035\210\362\372"
 169      3CBB4D9B 
 169      72B9CEE1 
 169      03374F1D 
 169      88F2FA
 170 0607 12029ECF 		.ascii	"\022\002\236\317\374\241n2\376\235Vs\377\235\216\323"
 170      FCA16E32 
 170      FE9D5673 
 170      FF9D8ED3 
 171 0617 DFD8F3A3 		.ascii	"\337\330\363\243\247\266y--_\034\0237=\212\017\250x"
 171      A7B6792D 
 171      2D5F1C13 
 171      373D8A0F 
 171      A878
 172 0629 852FD15B 		.ascii	"\205/\321[\240\020\366\021~\277\275\223\222\370\205"
 172      A010F611 
 172      7EBFBD93 
 172      92F885
 173 0638 56680E3E 		.ascii	"Vh\016>\344N\255\233?|\367\316\270\244_\254\313Y\346"
 173      E44EAD9B 
 173      3F7CF7CE 
 173      B8A45FAC 
 173      CB59E6
 174 064b 547B8B3D 		.ascii	"T{\213=\031\302H\365x\262\225y\355\225y\205\262r\036"
 174      19C248F5 
 174      78B29579 
 174      ED957985 
 174      B2721E
 175 065e ABDD7F8D 		.ascii	"\253\335\177\215\231\315lx\210\272\270\010\024\372Z"
 175      99CD6C78 
 175      88BAB808 
 175      14FA5A
 176 066d 44FF2BF1 		.ascii	"D\377+\361\035$G\207k\322WwQ\317\004\267\250[\321h["
 176      1D244787 
 176      6BD25777 
 176      51CF04B7 
 176      A85BD168 
 177 0682 47FBF268 		.ascii	"G\373\362h\254\243uC\264u\371\253\321X[bY\242cm\264"
 177      ACA37543 
 177      B475F9AB 
 177      D1585B62 
 177      59A2636D 
 178 0697 73CDBA95 		.ascii	"s\315\272\225\257D\361eMgt\355\232\030\256\267w\256"
 178      AF44F165 
 178      4D6774ED 
 178      9A18AEB7 
ARM GAS  /tmp/ccJjg49t.s 			page 14


 178      77AE
 179 06a9 AF8F811C 		.ascii	"\257\217\201\034\353\\%u\256\222;W\257Z\234\0074\261"
 179      EB5C2575 
 179      AE923B57 
 179      AF5A9C07 
 179      34B1
 180 06bb 32B6625D 		.ascii	"2\266b]+\036j[\033kk\255o\203\177\0016\236\217~"
 180      2B1E6A5B 
 180      1B6B6BAD 
 180      6F837F01 
 180      369E8F7E 
 181              		.text
 182              		.section	.gnu.lto_chMtxLock.abb3f3a1cf64d095,"",%progbits
 183 0000 789C8D50 		.ascii	"x\234\215P\261J\003A\020}\263\233`\312\224\332\204k"
 183      B14A0341 
 183      107DB39B 
 183      60CA94DA 
 183      846B
 184 0012 C446B27E 		.ascii	"\304F\262~B@\020,\322\030\005\255\344\2629\314\242w"
 184      4240102C 
 184      D21805AD 
 184      E4B239CC 
 184      A277
 185 0024 277B1749 		.ascii	"'{\027I\260\310E\002ZI\020\013\033\005A\320J\177All"
 185      B0C84502 
 185      5A49100B 
 185      1B0541D0 
 185      4A7F416C 
 186 0039 24923F10 		.ascii	"$\222?\020\354\254b\233&\336\336\305 6\2720;og\336\314"
 186      ECAC629B 
 186      26DEDEC5 
 186      2036BA30 
 186      3B6F67DE 
 187 004e 9B590686 		.ascii	"\233Y\006\206\337g.\266\005\002NcO\034\304z}\240\223"
 187      DF672EB6 
 187      05024E63 
 187      4F1CC47A 
 187      7DA093
 188 0061 63440680 		.ascii	"cD\006\200\320f\324\336\242\204\373\300\036\337\306"
 188      D066D4DE 
 188      A284FBC0 
 188      1EDFC6
 189 0070 E3FBD1F3 		.ascii	"\343\373\321\363\325\013\335\261\034'7\211g\321\215"
 189      D50BDDB1 
 189      1C273789 
 189      67D18D
 190 007f A29E05C8 		.ascii	"\242\236\005\310\344\271\036\337\246v\203\230\361\274"
 190      E4B91EDF 
 190      A6768398 
 190      F1BC
 191 008d 8FA3CF8F 		.ascii	"\217\243\317\217\363\367\331)\315\246k\312\"iN\010\270"
 191      F3F7D929 
 191      CDA66BCA 
 191      22694E08 
 191      B8
 192 009e 198AA793 		.ascii	"\031\212\247\223\025\320\245\313\350\242\244R\275MR"
 192      15D0A5CB 
ARM GAS  /tmp/ccJjg49t.s 			page 15


 192      E8A2A452 
 192      BD4D52
 193 00ad 449641D3 		.ascii	"D\226A\323\374\361$?Y\344\025\335\341\331 \374\356x"
 193      FCF1243F 
 193      59E415DD 
 193      E1D920FC 
 193      EE78
 194 00bf 88517412 		.ascii	"\210Qt\022\345\025qIi\213\035\342\2122\300\177\206\260"
 194      E5157149 
 194      698B1DE2 
 194      8A32C07F 
 194      86B0
 195 00d1 E926FE81 		.ascii	"\351&\376\201D\024?Dm\272\245B*7@g\3704\310Lk\221\356"
 195      44143F44 
 195      6DBAA542 
 195      2A374067 
 195      F834C84C 
 196 00e8 4B664FC3 		.ascii	"KfO\303\025\242\356\273\216\220~\255%j\316\201\220u"
 196      15A2EEBB 
 196      8E907EAD 
 196      256ACE81 
 196      9075
 197 00fa 55557E20 		.ascii	"UU~ B\335\360vE\014t(\002-\343\270\0336\213\022\245"
 197      42DDF076 
 197      450C7428 
 197      022DE3B8 
 197      1B368B12 
 198 010f BFF84E33 		.ascii	"\277\370N3\024\313\345\312jE(O\3565j\206\253\235m\351"
 198      14CBE5CA 
 198      6A45284F 
 198      EE356A86 
 198      AB9D6DE9 
 199 0123 AE343C59 		.ascii	"\2564<Y\254#_\256\254YU;p\366\265Z\264\346\227\3004"
 199      AC235FAE 
 199      AC59553B 
 199      70F6B55A 
 199      B4E697C0 
 200 0138 665CC7F5 		.ascii	"f\\\307\365u\013_\237Bp}"
 200      750B5F9F 
 200      42707D
 201              		.text
 202              		.section	.gnu.lto_chMtxTryLock.abb3f3a1cf64d095,"",%progbits
 203 0000 789C8D51 		.ascii	"x\234\215Q\317k\023A\030}of\223\015\322B/\202\275\224"
 203      CF6B1341 
 203      187D6F66 
 203      930DD242 
 203      2F82BD94 
 204 0014 5C3C291D 		.ascii	"\\<)\035\301\177\240 \010=\364b,\330S\331L\226d\320"
 204      C17FA020 
 204      083DF462 
 204      2CD853D9 
 204      4C9664D0 
 205 0028 4D649348 		.ascii	"Md\223HK\017\235\224\200\036\244V\360P\032<\010\021"
 205      4B0F9D94 
 205      801EA456 
 205      F0501A3C 
 205      0811
ARM GAS  /tmp/ccJjg49t.s 			page 16


 206 003a 7F81FA27 		.ascii	"\177\201\372'\364$\275X\2617ED\360&\275x(HA\352\314"
 206      F424BD58 
 206      B1374544 
 206      F026BD78 
 206      284841EA 
 207 004f 6E1BD48B 		.ascii	"n\033\324\213.\3547\337\314\274\357\275\367}# \360\367"
 207      2EEC37DF 
 207      CCBCEFBD 
 207      F77D2320 
 207      F0F7
 208 0061 77D1FD9F 		.ascii	"w\321\375\237\011\254\273\225\005Pl\354\002\275\222"
 208      09ACBB95 
 208      05506CEC 
 208      02BD92
 209 0070 10C1E00D 		.ascii	"\020\301\340\015`O\311\203\020vL2\310\317\003\322' "
 209      604FC983 
 209      10764C32 
 209      C8CF03D2 
 209      2720
 210 0082 56850CB8 		.ascii	"V\205\014\270\272\300\214\345\225\330\376rt\364\362"
 210      BAC08CE5 
 210      95D8FE72 
 210      74F4F2
 211 0091 F0DE709F 		.ascii	"\360\336p\237;b\\2!\2120D\350\002K>8T\001}k7\312\200"
 211      3B625C32 
 211      218A3044 
 211      E8024B3E 
 211      3854017D 
 212 00a9 CEAAAEBA 		.ascii	"\316\252\256\272\350\311\346)\374*w\261\366\375\333"
 212      E8C9E629 
 212      FC2A77B1 
 212      F6FDDB
 213 00b8 83AF6746 		.ascii	"\203\257gF\260\210\217\234\245L\215hK\357^\346-L\241"
 213      B0888F9C 
 213      A54C8D68 
 213      4BEF5EE6 
 213      2D4CA1
 214 00cb CF877673 		.ascii	"\317\207vs\3060\333^\243\241,\373lt\177\373\370>\310"
 214      C630DB5E 
 214      A3A12CFB 
 214      6C747FFB 
 214      F83EC8
 215 00de DB7C8BB5 		.ascii	"\333|\213\265\217\237~<\236\034q\347\211}1,\234\350"
 215      8F9F7E3C 
 215      9E1C71E7 
 215      897D312C 
 215      9CE8
 216 00f0 E8CC23EA 		.ascii	"\350\314#\352,\236\303sk\355\366\317\2751\327\301\000"
 216      2C9EC373 
 216      6BEDF6CF 
 216      BD31D7C1 
 216      00
 217 0101 5B3D6B27 		.ascii	"[=k'\014\013uJ/T\314\010\253\036\034\361Ynp\007\375"
 217      0C0B754A 
 217      2F54CC08 
 217      AB1E1CF1 
 217      596E7007 
ARM GAS  /tmp/ccJjg49t.s 			page 17


 218 0116 FDDE78C4 		.ascii	"\375\336x\304\247n\353\010<\354\217)\317S\342 \224\357"
 218      A76EEB08 
 218      3CEC8F29 
 218      CF53E220 
 218      94EF
 219 0128 D02F9D80 		.ascii	"\320/\235\200\302\025\034\332;\2368\324\024#&'b\334"
 219      C2151CDA 
 219      3B9E38D4 
 219      14232627 
 219      62DC
 220 013a C08EAB82 		.ascii	"\300\216\253\202\377\036L\304\241\323\310\006\201\337"
 220      FF1E4CC4 
 220      A1D3C806 
 220      81DF
 221 0148 0611F109 		.ascii	"\006\021\361\011\247r\266\367\350\275\336\273\317\274"
 221      A772B6F7 
 221      E8BDDEBB 
 221      CFBC
 222 0156 B69E6B7C 		.ascii	"\266\236k|@\311\2278\263\342\356\340\2643%\351\337\205"
 222      40C99738 
 222      B3E2EEE0 
 222      B43325E9 
 222      DF85
 223 0168 5ED6D72B 		.ascii	"^\326\327+\325h%\261\322\255\332\262\252\305\267\224"
 223      D56825B1 
 223      D2ADDAB2 
 223      AAC5B794 
 224 0178 6E98AA69 		.ascii	"n\230\252i\265U'\3556\257+\227\244\035\325N\265;O:K"
 224      B55527ED 
 224      36AF2B97 
 224      A41DD54E 
 224      B53B4F3A 
 225 018d D31A33FF 		.ascii	"\323\0323\377\302\307K\035ui\2562[Q\246\251otk\036\233"
 225      C2C74B1D 
 225      7569AE32 
 225      5B51A6A9 
 225      6F746B1E 
 226 01a2 C68B3AB9 		.ascii	"\306\213:\271\334m\352\351\006&\346*W\312\325\250\035"
 226      DC6DEAE9 
 226      0626E62A 
 226      57CAD5A8 
 226      1D
 227 01b3 DF4CCDF9 		.ascii	"\337L\315\371\362\331\013\020)\302$NZ\3512~\001]\203"
 227      F2D90B10 
 227      29C2244E 
 227      5AE9327E 
 227      015D83
 228 01c6 9A68     		.ascii	"\232h"
 229              		.text
 230              		.section	.gnu.lto_chMtxTryLockS.abb3f3a1cf64d095,"",%progbits
 231 0000 789C5D50 		.ascii	"x\234]P=K\003A\020\2357\273\207\207(\\co\255\340\342"
 231      3D4B0341 
 231      109D37BB 
 231      8787285C 
 231      636FADE0 
 232 0015 0FF05F18 		.ascii	"\017\360_\030\320\322lB\262\310yp9E\261\310F\256\260"
 232      D0D26C42 
ARM GAS  /tmp/ccJjg49t.s 			page 18


 232      B2C87970 
 232      3945B1C8 
 232      46AEB0
 233 0028 B0486DB0 		.ascii	"\260Hm\260\020\254\315_\260\024\321\210Vj\345\017\260"
 233      10ACCD5F 
 233      B014D188 
 233      566AE50F 
 233      B0
 234 0039 329D4D9C 		.ascii	"2\235M\234=\023\021\027vf\230y\357\315\007\023\323\377"
 234      3D131117 
 234      76669879 
 234      EFCD0713 
 234      D3FF
 235 004b B72E7F0E 		.ascii	"\267.\177\016?\036\021\201\373#\242^\314\254/6\310\317"
 235      3F1E1181 
 235      FB23A25E 
 235      CCAC2F36 
 235      C8CF
 236 005d AB71427E 		.ascii	"\253qB~AA\20744\020<\201\272\2544\272\333\2504\206|"
 236      41418734 
 236      34103C81 
 236      BAAC34BA 
 236      DBA83486 
 237 0072 F33E995C 		.ascii	"\363>\231\\\177>_\335c\3041\310A:\211\321HA\221D\001"
 237      7F3E5FDD 
 237      63C431C8 
 237      413A89D1 
 237      48419144 
 238 0087 1751E97D 		.ascii	"\027Q\351}\177\231\310V\254M\261A\254\006\016^=\320"
 238      7F99C856 
 238      AC4DB141 
 238      AC060E5E 
 238      3DD0
 239 0099 C9DBCBF0 		.ascii	"\311\333\313\360\016;\270\2249Z\210ViE\210\003:\207"
 239      0E3BB894 
 239      395A8856 
 239      69458803 
 239      3A87
 240 00ab 03B7A0B7 		.ascii	"\003\267\240\267\304\253\252_\035\263\351o\251\374\350"
 240      C4ABAA5F 
 240      1DB3E96F 
 240      A9FCE8
 241 00ba 2DFE5202 		.ascii	"-\376R\002\004\177\267\253\011c\234\250G*\343\031\210"
 241      047FB7AB 
 241      09639CA8 
 241      472AE319 
 241      88
 242 00cb 8FE9CB9F 		.ascii	"\217\351\313\237\372\304A\333)X\304\235\324\246\014"
 242      FAC441DB 
 242      2958C49D 
 242      D4A60C
 243 00da 5D8DF324 		.ascii	"]\215\363$G\010\225\012\361J\010\322\022\361\331`I4"
 243      4708950A 
 243      F14A08D2 
 243      12F1D960 
 243      4934
 244 00ec 14C20208 		.ascii	"\024\302\002\010\310pRc\332Y\33246k\034\231F\363\300"
ARM GAS  /tmp/ccJjg49t.s 			page 19


 244      C8705263 
 244      DA59DA34 
 244      366B1C99 
 244      46F3C0
 245 00ff D8B6ABBB 		.ascii	"\330\266\253\273\254c\212|\177o\327H\220\027\246\223"
 245      AC638A7C 
 245      7F6FD748 
 245      9017A693 
 246 010f 5BC9A7C5 		.ascii	"[\311\247\305\341\232\245o\351\235K\354"
 246      E19AA56F 
 246      E99D4BEC 
 247              		.text
 248              		.section	.gnu.lto_chMtxUnlock.abb3f3a1cf64d095,"",%progbits
 249 0000 789C9555 		.ascii	"x\234\225U]h\\E\024>gfw\357\335\237\304\304\202\331"
 249      5D685C45 
 249      143E6766 
 249      77EFDD9F 
 249      C4C482D9 
 250 0014 24109782 		.ascii	"$\020\227\202\024\214v\325\252\210\370P\020\004\037"
 250      148C76D5 
 250      AA88F850 
 250      10041F
 251 0023 FA620CFE 		.ascii	"\372b\014\376\274\310\346f\331\\\354f\303&\321\006)"
 251      BCC8E666 
 251      D95CEC66 
 251      C326D106 
 251      29
 252 0034 BD890984 		.ascii	"\275\211\011\2046\324\340ok)\266\204 \210\265\251H\323"
 252      36D4E06F 
 252      6B29B684 
 252      2088B5A9 
 252      48D3
 253 0046 40C13431 		.ascii	"@\30141\232X\254\306\007cC\224M\301>\304b\253E,I\354"
 253      9A58ACC6 
 253      07634394 
 253      4DC13EC4 
 253      62AB452C 
 254 005c 7AE6CEDC 		.ascii	"z\346\316\334\273w7i\022/\354\314\334\273\363}\3379"
 254      BB773769 
 254      122FECCC 
 254      DCBBF37D 
 254      DF39
 255 006e DF9C9961 		.ascii	"\337\234\231a\300\240\3649H\277\263:\200\206\000\030"
 255      C0A0F439 
 255      48BFB33A 
 255      80860018 
 256 007e 01648397 		.ascii	"\001d\203\227\000\272u\306\370\027\023\000V(\264\020"
 256      00BA75C6 
 256      F8171300 
 256      5628B410 
 257 008e 062BC251 		.ascii	"\006+\302Q\227\337}\314/\277k\366w?\013\364\357\020"
 257      97DF7DCC 
 257      2FBF6BF6 
 257      773F0BF4 
 257      EF10
 258 00a0 6FA28D04 		.ascii	"o\242\215\004P\223\26349\375\202\2563\337\3007bz\260"
 258      5093B334 
ARM GAS  /tmp/ccJjg49t.s 			page 20


 258      39FD82AE 
 258      33DFC037 
 258      627AB0
 259 00b3 57A30941 		.ascii	"W\243\011A\014\313\011!g\020F\024\003@8\300\270\317"
 259      0CCB0921 
 259      67104614 
 259      034038C0 
 259      B8CF
 260 00c5 1FD0F460 		.ascii	"\037\320\364`(\214\007^B\021\033\337\016'-\353\355\334"
 260      288C075E 
 260      42111BDF 
 260      0E272DEB 
 260      EDDC
 261 00d7 6F5796F0 		.ascii	"oW\226\360\2505\336{\302Z\315\347\021M\244<\036A0\020"
 261      A835DE7B 
 261      C25ACDE7 
 261      114DA43C 
 261      1E413010 
 262 00eb 5EA4178C 		.ascii	"^\244\027\214\331\035\363\025'&\261\343G\337?\\m\235"
 262      D91DF315 
 262      2726B1E3 
 262      47DF3F5C 
 262      6D9D
 263 00fd E819B46E 		.ascii	"\350\031\264n\023\324D\316\340\361-\"\363?\275\345E"
 263      13D444CE 
 263      E0F12D22 
 263      F33FBDE5 
 263      45
 264 010e FA183CB9 		.ascii	"\372\030<\271\031\3624\033\317\345\363\237\236\371w"
 264      19F2341B 
 264      CFE5F39F 
 264      9EF977
 265 011d B11FEF89 		.ascii	"\261\037\357\211!$p\010\267S\260\011\034\246\236\253"
 265      21247008 
 265      B753B009 
 265      1CA69EAB 
 266 012d 3E40FD49 		.ascii	">@\375I\352uL#\004\201\202\012\253\177\"\364\342/S\260"
 266      EA754C23 
 266      0481820A 
 266      AB7F22F4 
 266      E22F53B0 
 267 0141 4A7A0954 		.ascii	"Jz\011TQ\243E\251\201j1\252\021\243Z\321\320\343\207"
 267      51A345A9 
 267      816A31AA 
 267      11A35AD1 
 267      D0E387
 268 0154 5ECB1A8C 		.ascii	"^\313\032\214I2\211\001\021 =\317S;\244C#2\352\370w"
 268      49328901 
 268      11203DCF 
 268      533BA443 
 268      2332EAF8 
 269 0169 D0337F8B 		.ascii	"\3203\177\213<L\340\307\350\207\024\006\352\341\023"
 269      3C4CE0C7 
 269      E8871406 
 269      EAE113
 270 0178 8B9E1788 		.ascii	"\213\236\027\210\247\036\3567Q?\006\037v[V\205\211\301"
 270      A71EEE37 
ARM GAS  /tmp/ccJjg49t.s 			page 21


 270      513F061F 
 270      765B5685 
 270      89C1
 271 018a 3760D9EA 		.ascii	"7`\331\352\027\243P\032\005\225H3d'\327\204\240z5\200"
 271      17A3501A 
 271      05954833 
 271      6427D784 
 271      A07A3580 
 272 019e 4BD0F3E7 		.ascii	"K\320\363\347\301\311\317\007\270\212\004@*\330\353"
 272      C1C9CF07 
 272      B88A0440 
 272      2AD8EB
 273 01ad 89F02672 		.ascii	"\211\360&rQp\\V]\035\274\213\307\255#\273M\014\203\342"
 273      51705C56 
 273      5D1DBC8B 
 273      C7AD23BB 
 273      4D0C83E2 
 274 01c1 8DC4EC55 		.ascii	"\215\304\354Uv\376\377@\375_&\331E\324\013\347O=\341"
 274      76FEFF40 
 274      FD5F26D9 
 274      45D40BE7 
 274      4F3DE1
 275 01d4 441DB443 		.ascii	"D\035\264C\345\024*A\313S\250\013\012\256Br\012\233"
 275      E5142A41 
 275      CB53A80B 
 275      0AAE4272 
 275      0A9B
 276 01e6 40338361 		.ascii	"@3\203a\011QY>L6J\320]\224\272\0009yH01\333\270\345"
 276      0951593E 
 276      4C364AD0 
 276      5D94BA00 
 276      39794830 
 277 01fe C9FC7B87 		.ascii	"\311\374{\207\372\312\335\\\344`\374\320/S\232\223\230"
 277      FACADD5C 
 277      E460FCD0 
 277      2F539A93 
 277      98
 278 020f 21534F61 		.ascii	"!SOa\225\260\311\262r\371o\247z\220\323\302(\255.\023"
 278      95B0C9B2 
 278      72F96FA7 
 278      7A90D3C2 
 278      28AD2E13 
 279 0223 2B5C2F4B 		.ascii	"+\\/Kc\364\011\232Q\341\217\352d\216\253K\213+/\227"
 279      63F4099A 
 279      51E18FEA 
 279      648EAB4B 
 279      8B2B2F97 
 280 0237 AA52287E 		.ascii	"\252R(~.&\236\265e\231\224\215J\231\334\334\341_\347"
 280      2E269EB5 
 280      6599948D 
 280      4A99DCDC 
 280      E15FE7
 281 024a 905122AE 		.ascii	"\220Q\"\256V\205\322\322\224\226-r^\212LC\357\265\305"
 281      5685D2D2 
 281      94962D72 
 281      5E8A4C43 
 281      EFB5C5
ARM GAS  /tmp/ccJjg49t.s 			page 22


 282 025d A93F26DC 		.ascii	"\251?&\334\365\257\"\246B\3216R\200\275\232,\222\353"
 282      F5AF22A6 
 282      42D13652 
 282      80BD9A2C 
 282      92EB
 283 026f CBE856D5 		.ascii	"\313\350V\325\260]O\356\212\2460\\H\322\267\276\241"
 283      B05D4FEE 
 283      8AA6305C 
 283      48D2B7BE 
 283      A1
 284 0280 01F0D2FA 		.ascii	"\001\360\322\372\200\366>\277\263\263\027\257\366\005"
 284      80F63EBF 
 284      B3B317AF 
 284      F605
 285 028e 85C0975E 		.ascii	"\205\300\227^g\253\267\350,\256qvR&=\271Ug'\274\316"
 285      67ABB7E8 
 285      2CAE7176 
 285      52263DB9 
 285      556727BC 
 286 02a3 D66CE42C 		.ascii	"\326l\344,\256qv\332\343\354\360\315+(\223\240\350\211"
 286      AE7176DA 
 286      E3ECF0CD 
 286      2B2893A0 
 286      E889
 287 02b5 C96B811F 		.ascii	"\311k\201\037F\237\262\235\035\271\327\231\022\261\313"
 287      469FB29D 
 287      1DB9D799 
 287      12B1CB
 288 02c4 B860608D 		.ascii	"\270``\215\327@M!\247\341\253\253\335\307]\332HJ\245"
 288      D7404D21 
 288      A7E1ABAB 
 288      DDC75DDA 
 288      484AA5
 289 02d7 0A727307 		.ascii	"\012rs\007\340X\035o\244\331\312\340\371[7\227\334\311"
 289      E0581D6F 
 289      A4D9CAE0 
 289      F95B3797 
 289      DCC9
 290 02e9 65CAB146 		.ascii	"e\312\261F\357f\301\3656\013\300e`D\355Cj\374\324D\002"
 290      EF66C1F5 
 290      360BC065 
 290      6044ED43 
 290      6AFCD444 
 291 02fe D7C64EA1 		.ascii	"\327\306N\241\010\\\007:\226\271\310\357\302;s\345\016"
 291      085C073A 
 291      96B9C8EF 
 291      C23B73E5 
 291      0E
 292 030f B58745C1 		.ascii	"\265\207E\301\011\024\344\003ci\222\325V\307:/\003\247"
 292      0914E403 
 292      636992D5 
 292      56C73A2F 
 292      03A7
 293 0321 3AE1ABA3 		.ascii	":\341\253\243\373S\3104\233)\250\212k\346\310?\363L"
 293      FB53C834 
 293      9B29A88A 
 293      6BE6C83F 
ARM GAS  /tmp/ccJjg49t.s 			page 23


 293      F34C
 294 0333 12A9001F 		.ascii	"\022\251\000\037\273c\035ijcrw\035\373\207\302k\312"
 294      BB631D69 
 294      6A637277 
 294      1DFB87C2 
 294      6BCA
 295 0345 E7EF615E 		.ascii	"\347\357a^(\037.\021\265\356:~\035}\320\273\214$\021"
 295      281F2E11 
 295      B5EE3A7E 
 295      1D7DD0BB 
 295      8C2411
 296 0358 F54AE802 		.ascii	"\365J\350\002\372\243[+3#\241\004\316\026\035\032\233"
 296      FAA35B2B 
 296      3323A104 
 296      CE161D1A 
 296      9B
 297 0369 6C2E1B4B 		.ascii	"l.\033K\2026\374\342\215mE\360\375%\322\265^\351\240"
 297      8236FCE2 
 297      8D6D45F0 
 297      FD25D2B5 
 297      5EE9A0
 298 037c 075E25D5 		.ascii	"\007^%\325\027FN\327\027y\263K\022\254s\322\205\224"
 298      17464ED7 
 298      1779B34B 
 298      12AC73D2 
 298      8594
 299 038e 3751E9CD 		.ascii	"7Q\351\315\271\225\277\230\263<\225vi\025\016\273\350"
 299      B995BF98 
 299      B33C9576 
 299      69150EBB 
 299      E8
 300 039f DAC34ECA 		.ascii	"\332\303N\312\375\020*\025\333\360X%f\231\345\317+K"
 300      FD102A15 
 300      DBF05825 
 300      6699E5CF 
 300      2B4B
 301 03b1 AC14B9A1 		.ascii	"\254\024\271\241\\J\370\374=\364\345\256\377\256$\001"
 301      5C4AF8FC 
 301      3DF4E5AE 
 301      FFAE2401 
 302 03c1 DC1BA6D2 		.ascii	"\334\033\246\322@\237\223\214\200\336\015t\261ms\266"
 302      409F938C 
 302      80DE0D74 
 302      B16D73B6 
 303 03d1 4E083E42 		.ascii	"N\010>BQ7\347\246o\263\242\363|3k\012Q\330<aq\003n\355"
 303      5137E7A6 
 303      6FB3A2F3 
 303      7C336B0A 
 303      51D83C61 
 304 03e9 A64AE067 		.ascii	"\246J\340g4\260o&\033\254n\246\004\236\301:I7\013\335"
 304      34B06F26 
 304      1BAC6EA6 
 304      049EC13A 
 304      49370BDD 
 305 03fd 377A66FD 		.ascii	"7zf\375.X\355G$\01515\036o\311\244\223q#\323\334\025"
 305      2E58ED47 
 305      240D3135 
ARM GAS  /tmp/ccJjg49t.s 			page 24


 305      1E6FC9A4 
 305      937123D3 
 306 0413 6F4EBE16 		.ascii	"oN\276\0267Z\314&3\323\036\357\310v\266\276\032\247"
 306      375ACC26 
 306      33D31EEF 
 306      C876B6BE 
 306      1AA7
 307 0425 41B623DE 		.ascii	"A\266#\336\2365\350{\272c\337N\003\270\321\321\306\367"
 307      9E35E87B 
 307      BA63DF4E 
 307      03B8D1D1 
 307      C6F7
 308 0437 A6DBB4D6 		.ascii	"\246\333\264\326\344\353mY3\263{3|r_G\374\351=\015\317"
 308      E4EB6D59 
 308      33B37B33 
 308      7C725F47 
 308      FCE93D0D 
 309 044c 36C4CD56 		.ascii	"6\304\315Vcog\263\230\233M\276b\244\237\351l5v\266@"
 309      636F67B3 
 309      989B4DBE 
 309      62A49FE9 
 309      6C3576B6 
 310 0461 C59E86E7 		.ascii	"\305\236\206\347bM\211\366$\261=\020\273\357!`Y\320"
 310      624D89F6 
 310      24B13D10 
 310      BBEF2160 
 310      59D0
 311 0473 D2C97426 		.ascii	"\322\311t&\333\005\273\266\020\234\313j\007\330\002"
 311      DB05BBB6 
 311      109CCB6A 
 311      07D802
 312 0482 8FFE2F4C 		.ascii	"\217\376/L\273\321\322L\240\377\000!tl\371"
 312      BBD1D24C 
 312      A0FF0021 
 312      746CF9
 313              		.text
 314              		.section	.gnu.lto_chMtxUnlockS.abb3f3a1cf64d095,"",%progbits
 315 0000 789C9555 		.ascii	"x\234\225U\337k\034U\024>\347\336\231\235\331\231m\032"
 315      DF6B1C55 
 315      143EE7DE 
 315      999DD999 
 315      6D1A
 316 0012 906C1210 		.ascii	"\220l\022\020-}\021\014vh\253>\210\177F\203?\336\322"
 316      2D7D110C 
 316      7668AB3E 
 316      887F4683 
 316      3FDED2
 317 0025 49D80C76 		.ascii	"I\330\014v\223\220\037j)\245\223\260j\260A\203 \304"
 317      93901F6A 
 317      29A593B0 
 317      6AB04183 
 317      20C4
 318 0037 06B12186 		.ascii	"\006\261!\206@D\214Tl\252\211\244M\033\033\022\255>"
 318      40448C54 
 318      6CAA89A4 
 318      4D1B1B12 
 318      AD3E
ARM GAS  /tmp/ccJjg49t.s 			page 25


 319 0049 146D3791 		.ascii	"\024m7\2215\245\372\020\037\004\021J#\306s\177\314\354"
 319      35A5FA10 
 319      1F04114A 
 319      23C6737F 
 319      CCEC
 320 005b 6493A6EB 		.ascii	"d\223\246\353\205\275\367\316\314\375\276\357\234\357"
 320      85BDF7CE 
 320      CCFDBEEF 
 320      9CEF
 321 0069 9E7B9701 		.ascii	"\236{\227\001\203\312\3666\375\3226\300\024\215\230"
 321      83CAF636 
 321      FDD236C0 
 321      148D98
 322 0078 0164C3DF 		.ascii	"\001d\303\337\003\364\333\214\361/\256\000\204\216\263"
 322      03F4DB8C 
 322      F12FAE00 
 322      848EB3
 323 0087 EA4298E1 		.ascii	"\352B\230\341h\253\367\0063\325{K\2767Yj\360\011\361"
 323      68ABF706 
 323      33D57B4B 
 323      BE37596A 
 323      F009F1
 324 009a 24FA4C0A 		.ascii	"$\372L\012-\265\312R\313/\33363\206\276\025\313\323"
 324      2DB5CA52 
 324      CB2FDB36 
 324      3386BE15 
 324      CBD3
 325 00ac 058B16A4 		.ascii	"\005\213\026\244\321U\013\234h\342\"\212\011 \234a\334"
 325      D1550B9C 
 325      68E2228A 
 325      09209C61 
 325      DC
 326 00bd 3053969D 		.ascii	"0S\226\235v\\<\363\022\212\330\370A\030\013\303\367"
 326      765C3CF3 
 326      128AD8F8 
 326      41180BC3 
 326      F7
 327 00ce 4A13531B 		.ascii	"J\023S\033\370A8_8\037\376\263\265\205\030 \345q\004"
 327      F841385F 
 327      381FFEB3 
 327      B5851820 
 327      E57104
 328 00e1 C1477891 		.ascii	"\301Gx\221\036\360\200\034\230\261=1\205\235\277y\356"
 328      1EF0801C 
 328      98B13D31 
 328      859DBF79 
 328      EE
 329 00f2 9DC6F0FC 		.ascii	"\235\306\360\374\300p\370/A\003\344\014\236\255\022"
 329      C070F82F 
 329      4103E40C 
 329      9EAD12
 330 0101 79A9F86E 		.ascii	"y\251\370n\022i0x\356a\310\317\330|ikk\350\346\330\372"
 330      12693078 
 330      EE61C8CF 
 330      D87C696B 
 330      6BE8E6D8 
 331 0116 28D63F8A 		.ascii	"(\326?\212\320\202\343x\220\202m\301\011\032\271\036"
ARM GAS  /tmp/ccJjg49t.s 			page 26


 331      D082E378 
 331      90826DC1 
 331      091AB91E 
 332 0126 53348ED1 		.ascii	"S4\216\321ha\036\301\006\012\312\321_\\z03\032VK\017"
 332      68611EC1 
 332      060ACAD1 
 332      5F5C7A30 
 332      331A564B 
 333 013b A93AEAAC 		.ascii	"\251:\352\254,uP/f\015b\326(:j&\024\302p\370\200\"S"
 333      2C75502F 
 333      660D62D6 
 333      283A6A26 
 333      14C270F8 
 334 0152 18100152 		.ascii	"\030\020\001R;F\375\270\015\315\310h\340\337\301\300"
 334      3B46FDB8 
 334      0DCDC868 
 334      E0DFC1C0 
 335 0162 ED19F2B0 		.ascii	"\355\031\362\260\005'\321\204\034\246\232`*\244\366"
 335      0527D184 
 335      1CA69A60 
 335      2AA4F6
 336 0171 02F134C1 		.ascii	"\002\3614\301\223\001\332\243p\256?\014k\003L\237\202"
 336      9301DAA3 
 336      70AE3F0C 
 336      6B034C9F 
 336      82
 337 0182 FBE1A098 		.ascii	"\373\341\240\2309y\024T\"MG&w\034A\217z\002\202w\344"
 337      39791454 
 337      224D4726 
 337      771C418F 
 337      7A028277 
 338 0197 C2028F78 		.ascii	"\302\002\217xmI\306\211\214@n\016-\001\346\032\304\312"
 338      6D49C689 
 338      8C406E0E 
 338      2D01E61A 
 338      C4CA
 339 01a9 A0A56157 		.ascii	"\240\245aWAt\034\207)Q\005\312Pp\002\024))01K\334\375"
 339      41741C87 
 339      295105CA 
 339      50700214 
 339      29293031 
 340 01c0 854F86CE 		.ascii	"\205O\206\316\276Q\243\363\216\014\230_\376}\321\002"
 340      BE51A3F3 
 340      8E0C985F 
 340      FE7DD102 
 341 01d0 508CBE0A 		.ascii	"P\214\276\012.\207u\"\2210,\275\277xm\0009Y\247\265"
 341      2E877522 
 341      91302CBD 
 341      BF786D00 
 341      3959A7B5 
 342 01e4 4E06B82F 		.ascii	"N\006\270/\316\2662FC\320|N4\321\240r\\\335,m\276\\"
 342      CEB63246 
 342      43D07C4E 
 342      34D1A072 
 342      5CDD2C6D 
 343 01fa A94AA198 		.ascii	"\251J\241\230\\,\234\226\262L\311f\225Li\355\255_~B"
 343      5C2C9C96 
ARM GAS  /tmp/ccJjg49t.s 			page 27


 343      B24CC966 
 343      954C69ED 
 343      AD5F7E42 
 344 020e 4689C45A 		.ascii	"F\211\304Z\373\264\226\245\265\244\310\227J\344:\024"
 344      FBB496A5 
 344      B5A4C897 
 344      4AE43A14 
 345 021e FEF8F5EE 		.ascii	"\376\370\365\356\205\205x\207\352\210\251\\V\315\024"
 345      85857887 
 345      EA88A95C 
 345      56CD14
 346 022d 60C192DB 		.ascii	"`\301\222\3338rq\023\343}\237\220;\2560R\335)'i\354"
 346      38727113 
 346      E37D9F90 
 346      3BAE3052 
 346      DD292769 
 347 0242 6E680A92 		.ascii	"nh\012\222\264\006\320\351\344\017v\366\354\337o\246"
 347      B406D0E9 
 347      E40F76F6 
 347      ECDF6FA6 
 348 0252 85C0A5A4 		.ascii	"\205\300\245\244\263\365U:\213;\234\235SI\317U\353\354"
 348      B3F5553A 
 348      8B3B9C9D 
 348      5349CF55 
 348      EBEC
 349 0264 6CD2D986 		.ascii	"l\322\331\206\275\234\305\035\316^I8{\355\253;\250\222"
 349      BD9CC51D 
 349      CE5E4938 
 349      7BEDAB3B 
 349      A892
 350 0276 A0E88929 		.ascii	"\240\350\211)i\201\011\027\237\227\316N?\036-qe\031"
 350      69810917 
 350      9F97CE4E 
 350      3F1E2D71 
 350      6519
 351 0288 970D6C48 		.ascii	"\227\015lH\032hi\344u\270\372[\377\2071-\345\313\313"
 351      1A6869E4 
 351      75B8FA5B 
 351      FF87312D 
 351      E5CBCB
 352 029b B4C7C8E7 		.ascii	"\264\307\310\347\321\307x3\255\326\006\337\036\371z"
 352      D1C77833 
 352      ADD606DF 
 352      1EF97A
 353 02aa 235E9CD1 		.ascii	"#^\234\321\2165'\017\013\356vX\000n\001#j\003\2513\251"
 353      8E35270F 
 353      0BEE7658 
 353      006E0123 
 353      6A03A933 
 354 02bf 7353B36B 		.ascii	"sS\263k\237\242\010\334\006\2728\271\310\357\362\\\261"
 354      9FA208DC 
 354      06BA38B9 
 354      C8EFF25C 
 354      B1
 355 02d0 26A24EB0 		.ascii	"&\242N\260h8\201l\276Z\314\223\254\265\262\326w\013"
 355      6838816C 
 355      BE5ACC93 
ARM GAS  /tmp/ccJjg49t.s 			page 28


 355      ACB5B2D6 
 355      770B
 356 02e2 38D5095F 		.ascii	"8\325\011_)\236\316!\263$SZ\027\327\322\3147E\246\210"
 356      299ECE21 
 356      B324535A 
 356      17D7D2CC 
 356      3745A688 
 357 02f6 7480CF3C 		.ascii	"t\200\317<\260\216,}0y\274\217\203\343\356\216\362\271"
 357      B08E2C7D 
 357      3079BC8F 
 357      83E3EE8E 
 357      F2B9
 358 0308 3AC9CBE5 		.ascii	":\311\313\345\303\025\2421\336\307\305\206\247\222\333"
 358      C315A231 
 358      DEC7C586 
 358      A792DB
 359 0317 4812D9A4 		.ascii	"H\022\331\244\204-\240+q\255,M;-\270\274\355\322x\310"
 359      842DA02B 
 359      71AD2C4D 
 359      3B2DB8BC 
 359      EDD278C8 
 360 032b E1925812 		.ascii	"\341\222X\022\224\360\345?\037\331\006?]!\335\230\224"
 360      94F0E53F 
 360      1FD9063F 
 360      5D21DD98 
 360      94
 361 033c 4E27E075 		.ascii	"N'\340uJ}\365\343\331\246m\336\034U\004\273\334t\216"
 361      4A7DF5E3 
 361      D9A66DDE 
 361      1C5504BB 
 361      DC748E
 362 034f F626ABBC 		.ascii	"\366&\253\274\371y\375/\026mO\255,\255\362e\227\335"
 362      F979FD2F 
 362      166D4FAD 
 362      2CADF265 
 362      97DD
 363 0361 79D929B9 		.ascii	"y\331)\271\037\234J\261=\257UbVY\336[\337`\225\310="
 363      1F9C4AB1 
 363      3DAF5562 
 363      5659DE5B 
 363      DF6095C8 
 364 0376 E572C2B3 		.ascii	"\345r\302\263\033P(\015\335\320\222\000\361\177@\215"
 364      1B50280D 
 364      DDD09200 
 364      F17F408D 
 365 0386 8F46944C 		.ascii	"\217F\224L\200\373\2433\343\300G(\012f\346\336\035Q"
 365      80FBA333 
 365      E3C04728 
 365      0A66E6DE 
 365      1D51
 366 0398 3093D59B 		.ascii	"0\223\325\233R\326\227D\256\370w\372\021\372K\243^|"
 366      52D69744 
 366      AEF877FA 
 366      11FA4BA3 
 366      5E7C
 367 03aa 8BE90384 		.ascii	"\213\351\003\204\364I\344\346y\355\235\3716\317\357"
 367      F449E4E6 
ARM GAS  /tmp/ccJjg49t.s 			page 29


 367      79ED9DF9 
 367      36CFEF
 368 03b9 6C3DE9B5 		.ascii	"l=\351\265\266\275\352\371\355\301\361\240\263\307\353"
 368      B6BDEAF9 
 368      EDC1F1A0 
 368      B3C7EB
 369 03c8 EDEEEB78 		.ascii	"\355\356\353x\305\243Iw\257\327\323\355\323\373|\357"
 369      C5A34977 
 369      AFD7D3ED 
 369      D3FB7CEF 
 370 03d8 EB877CE0 		.ascii	"\353\207|\340~o\027?\221\357\262:\332^\353\352\016:"
 370      7E6F173F 
 370      91EFB23A 
 370      DA5EEBEA 
 370      0E3A
 371 03ea 8F56810F 		.ascii	"\217V\201\017:\374\023}\255m\232\243\035\236\376_\230"
 371      3AFC137D 
 371      AD6D9AA3 
 371      1D9EFE5F 
 371      98
 372 03fb 1EBFBD95 		.ascii	"\036\277\275\225@\377\001)\023*\273"
 372      40FF0129 
 372      132ABB
 373              		.text
 374              		.section	.gnu.lto_chMtxUnlockAll.abb3f3a1cf64d095,"",%progbits
 375 0000 789C9555 		.ascii	"x\234\225U]h\034U\024>\347\336\235\235\231\3356\215"
 375      5D681C55 
 375      143EE7DE 
 375      9D9D99DD 
 375      368D
 376 0012 2690DD3C 		.ascii	"&\220\335<\324\245\340\213\375\031\177\343kE\020|\350"
 376      D4A5E08B 
 376      FD197FE3 
 376      6B45107C 
 376      E8
 377 0023 8B69F0E7 		.ascii	"\213i\360\347E6\223ew\320M\342\356F\022E:\211[(\244"
 377      45369365 
 377      77D04DE2 
 377      EE461245 
 377      3A895B28 
 378 0038 D420156A 		.ascii	"\324 \025jEi\011y\021!\"\212UQ\203\251\215\333bm\355"
 378      45690979 
 378      1121228A 
 378      555183A9 
 378      8DDB626D 
 379 004d 8341AA6C 		.ascii	"\203A\252lP*\264\326F\003\266\246\266\361\334\237\231"
 379      502AB4D6 
 379      4603B6A6 
 379      B6F1DC9F 
 379      99
 380 005e EC6E7F36 		.ascii	"\354n\1776\016\354\235;w\356w\276\357~\347\314Y\006"
 380      0EEC9D3B 
 380      77EE77BE 
 380      EF7EE7CC 
 380      5906
 381 0070 0C1AAF61 		.ascii	"\014\032\257a\372\025M\200\353t\3078 \2338\0110j1\306"
 381      FA154D80 
ARM GAS  /tmp/ccJjg49t.s 			page 30


 381      EB74C738 
 381      209B3809 
 381      306A31C6 
 382 0084 0F1E03F0 		.ascii	"\017\036\003\360c\326\337&\370\3538\332b\035m\026\231"
 382      63D6DF26 
 382      F8EB38DA 
 382      621D6D16 
 382      99
 383 0095 EBA255A3 		.ascii	"\353\242U\243\322A\253\021\214\252\335F0\211\262\330"
 383      D241AB11 
 383      8CAADD46 
 383      3089B2D8 
 384 00a5 DE390133 		.ascii	"\3369\0013\313\002\026S\260GL\264\324{\013QL\000a\027"
 384      CB021653 
 384      B0474CB4 
 384      D47B0B51 
 384      4C006117 
 385 00b9 E376C488 		.ascii	"\343v\304\210\306L\013w=\215B\011\333\004\207}\377\365"
 385      C64C0B77 
 385      3D8D4209 
 385      DB04877D 
 385      FFF5
 386 00cb EAD41F17 		.ascii	"\352\324\037\027\360M\177\246|\310\377we\005\321CR}"
 386      F04D7FA6 
 386      7CC8FF77 
 386      6505D143 
 386      527D
 387 00dd 3F828BF0 		.ascii	"?\202\213\360\024=`J\336X\244\376\030\012;s\355\235"
 387      143D604A 
 387      DE58A4FE 
 387      180A3B73 
 387      ED9D
 388 00ef FD49FFD0 		.ascii	"\375I\377\320\330\204\177\235\240\036r\006]\315\220"
 388      D8847F9D 
 388      A01E7206 
 388      5DCD90
 389 00fe D36CA6BA 		.ascii	"\323l\246\272\262\262\367\362\305\205\213\330q\227\001"
 389      B2B2F7F2 
 389      C5858BD8 
 389      719701
 390 010d 693C8C9B 		.ascii	"i<\214\233\300\004\017#\026=L\322\203M\017\274E\254"
 390      C0040F23 
 390      163D4CD2 
 390      834D0FBC 
 390      45AC
 391 011f B489A19D 		.ascii	"\264\211\241\235\006#AC4I\003t\212\201.\003\312\276"
 391      06234143 
 391      34490374 
 391      8A812E03 
 391      CABE
 392 0131 3F915278 		.ascii	"?\221Rx\020\254t\355\244\361\274\011=\310\350\306\277"
 392      10AC74ED 
 392      A4F1BC09 
 392      3DC8E8C6 
 392      BF
 393 0142 85B11F8F 		.ascii	"\205\261\037\217\320\361\3228\205\006d\321\330\014\357"
 393      D0F1D238 
ARM GAS  /tmp/ccJjg49t.s 			page 31


 393      850664D1 
 393      D80CEF
 394 0151 FA743D49 		.ascii	"\372t=I\0216\303=\036\232o\301\301Q\337o\365\320z\031"
 394      1136C33D 
 394      1E9A6FC1 
 394      C151DF6F 
 394      F5D07A19 
 395 0165 96FD3D62 		.ascii	"\226\375=bf\347e$\241\335\226\212{\021\364]O\340$\214"
 395      66E76524 
 395      A1DD968A 
 395      7B11F45D 
 395      4FE0248C 
 396 0179 FDF9CFFE 		.ascii	"\375\371\317\376_\022Z\002\200\"\220F#\274\304E\336"
 396      5F125A02 
 396      80229046 
 396      23BCC445 
 396      DE
 397 018a B94AFE46 		.ascii	"\271J\376F\030\307\267\375\003\333=\214\005Q\343)1\013"
 397      18C7B7FD 
 397      03DB3D8C 
 397      0551E329 
 397      310B
 398 019c DFEFD3EF 		.ascii	"\337\357\323\357\327\251\330B\363\331\305\317;\003\315"
 398      D7A9D842 
 398      F3D9C5CF 
 398      3B03CD
 399 01ab A6141A21 		.ascii	"\246\024\032!\241\004]Og\020!\002AA}}\003\345\337G\327"
 399      A1045D4F 
 399      67102102 
 399      41417D7D 
 399      03E5DF47 
 400 01c0 8710B1A5 		.ascii	"\207\020\261\245\316\366\036\344P6QMm\240\232@\3013"
 400      CEF61EE4 
 400      5036514D 
 400      6DA09A40 
 400      C133
 401 01d2 7F699685 		.ascii	"\177i\226\2056NJ\033\303\223d\321\322n\275\320\224^"
 401      364E4A1B 
 401      C39364D1 
 401      D26EBDD0 
 401      945E
 402 01e4 C4BA72E9 		.ascii	"\304\272r\351\014O\343\007R\200-5s\005j\241H\002\304"
 402      0C4FE307 
 402      52802D35 
 402      73056AA1 
 402      4802C4
 403 01f7 3588AF82 		.ascii	"5\210\257\202*\247\342\012\242\231\036j\302\224\025"
 403      2AA7E20A 
 403      A2991E6A 
 403      C29415
 404 0206 1921DCF2 		.ascii	"\031!\334\362\354go\214\357n\011\355W\223\231\361_\177"
 404      EC676F8C 
 404      EF6E09ED 
 404      579399F1 
 404      5F7F
 405 0218 33C50944 		.ascii	"3\305\011DDW%+\213\011\221X\337\257\376t\374\3531\344"
 405      4457252B 
ARM GAS  /tmp/ccJjg49t.s 			page 32


 405      8B099158 
 405      DFAFFE74 
 405      FCEB31E4 
 406 022c 54449A6B 		.ascii	"TD\232k\304\303\015a\366\0335FD\230O\205\021\372\246"
 406      C4C30D61 
 406      F61B3546 
 406      44984F85 
 406      11FAA6
 407 023f F3726EE1 		.ascii	"\363rn\341\3523\215\254$\305\340b\343'\222\226)\332"
 407      EA338DAC 
 407      24C5E062 
 407      E3279296 
 407      29DA
 408 0251 A4A2A97E 		.ascii	"\244\242\251~\264\357\347\037\220\321AB\256\015\232"
 408      B4EFE71F 
 408      90D14142 
 408      AE0D9A
 409 0260 2BAAB924 		.ascii	"+\252\271$\311\227\212D\344qa\367_g0p2A\221j\323\030"
 409      C9978A44 
 409      E47161F7 
 409      5F673070 
 409      3241916A 
 410 0276 81B92EAE 		.ascii	"\201\271.\256\245\354\231\214\337\340\300\271\217\215"
 410      A5EC998C 
 410      DFE0C0B9 
 410      8F8D
 411 0284 F0CB08AC 		.ascii	"\360\313\010\254\220\037\007W\262:CY\307\022[kU\221"
 411      901F0757 
 411      B23A4359 
 411      C7125B6B 
 411      5591
 412 0296 E1C95AC3 		.ascii	"\341\311Z\303\243\002=\033\036\275\362~,\215_\255f\352"
 412      A3023D1B 
 412      1EBDF27E 
 412      2C8D5FAD 
 412      66EA
 413 02a8 BEA62792 		.ascii	"\276\246'\222X\"\224\360\023\213mu\360W\032\250;k\251"
 413      582294F0 
 413      138B6D75 
 413      F0571AA8 
 413      3B6BA9
 414 02bb CD1A7842 		.ascii	"\315\032xB\261\237\375\360\213\255i<\272\032\340a\025"
 414      B19FFDF0 
 414      8BAD693C 
 414      BA1AE061 
 414      15
 415 02cc E026E565 		.ascii	"\340&\345e\351JI\252\224\315/\315r\205\314bK\303\247"
 415      E94A49AA 
 415      94CD2FCD 
 415      7285CC62 
 415      4BC3A7
 416 02df 94BC452D 		.ascii	"\224\274E-W&\342\215d\267\255e\212\254pW\226\256\262"
 416      5726E28D 
 416      64B7AD65 
 416      8AAC7057 
 416      96AEB2
 417 02f2 46E46DE9 		.ascii	"F\344m\351\262B\356wP\256\316\277\246)\001\302F\324"
ARM GAS  /tmp/ccJjg49t.s 			page 33


 417      B242EE77 
 417      50AECEBF 
 417      A62901C2 
 417      46D4
 418 0304 EAEA8F98 		.ascii	"\352\352\217\230\240\036\336\021\224\200\001\225\016"
 418      A01EDE11 
 418      94800195 
 418      0E
 419 0311 510247E6 		.ascii	"Q\002G\346/_`u\237O3SV\371e\240\250\350\003\262\230"
 419      2F5F6075 
 419      9F4F3353 
 419      56F965A0 
 419      A8E803B2 
 420 0326 0E2C9F60 		.ascii	"\016,\237`A\363h[s\277\211\207\220\033\372\315N\352"
 420      41F3685B 
 420      73BF8987 
 420      901BFACD 
 420      4EEA
 421 0338 76F4C784 		.ascii	"v\364\307\204=\224\314\262\356\303\313K!G\273\344\270"
 421      3D94CCB2 
 421      EEC3CB4B 
 421      2147BBE4 
 421      B8
 422 0349 F3E61C76 		.ascii	"\363\346\034vM\"D\325M\325U\335-@1mT\273\260\363\325"
 422      4D2244D5 
 422      4DD555DD 
 422      2D40316D 
 422      54BBB0F3 
 423 035e EAF9E978 		.ascii	"\352\371\351x\320\310B;\333\\U\315\364\367\321\036X"
 423      D0C8423B 
 423      DB5C55CD 
 423      F4F7D11E 
 423      58
 424 036f 60897F89 		.ascii	"`\211\177\211\265t\3634\276Gf\312\356-\241\272{\247"
 424      B574F334 
 424      BE4766CA 
 424      EE2DA1BA 
 424      7BA7
 425 0381 711A37AA 		.ascii	"q\0327\252`\247at\361\373kF\210\325> 1\210\255\216\223"
 425      60A76174 
 425      F1FB6B46 
 425      88D53E20 
 425      3188AD8E 
 426 0396 1BC8671C 		.ascii	"\033\310g\034w\240o\304\351\313\274\350\2709\257\327"
 426      77A06FC4 
 426      E9CBBCE8 
 426      B839AFD7 
 427 03a6 1B283AA5 		.ascii	"\033(:\245\302P\377s\016M\012%\247Xpi=_\032\336\346"
 427      C250FF73 
 427      0E4D0A25 
 427      A7587069 
 427      3D5F1ADE 
 428 03bb 02774B83 		.ascii	"\002wK\203,?\270\275\031,3\\r\036\335\321\375x\267\343"
 428      2C3FB8BD 
 428      192C335C 
 428      721EDDD1 
 428      FD78B7E3 
ARM GAS  /tmp/ccJjg49t.s 			page 34


 429 03cf F5BBCF0F 		.ascii	"\365\273\317\017\365\211\275\205\314\263n\376\261\241"
 429      F589BD85 
 429      CCB36EFE 
 429      B1A1
 430 03dd 7E775B0E 		.ascii	"~w[\016Zwt?\221\352M\0273\203\005oK\352\356{\201\025"
 430      5A77743F 
 430      91EA4D17 
 430      3383056F 
 430      4BEAEE7B 
 431 03f3 C0CC67F2 		.ascii	"\300\314g\362\003\205\021x`\015\232\302\250RW\016\036"
 431      03851178 
 431      600D9AC2 
 431      A852570E 
 431      1E
 432 0404 FC5F98A2 		.ascii	"\374_\230\242\233\353#\320\177\244\015\015W"
 432      9BEB23D0 
 432      7FA40D0D 
 432      57
 433              		.text
 434              		.section	.gnu.lto_.symbol_nodes.abb3f3a1cf64d095,"",%progbits
 435 0000 789C4DCA 		.ascii	"x\234M\312\271\012\302`\020\004\340\231\177\023\315"
 435      B90AC260 
 435      1004E099 
 435      7F13CD
 436 000f E1F104F1 		.ascii	"\341\361\004\361U7e\300\306\027PA;oA\005\301\312\243"
 436      553765C0 
 436      C6175041 
 436      3B6F4105 
 436      C1CAA3
 437 0022 51B032D8 		.ascii	"Q\2602\330X\004\363\032\"*\212\371\267\031\276\2315"
 437      5804F31A 
 437      222A8AF9 
 437      B719BE99 
 437      35
 438 0033 30A813DF 		.ascii	"0\250\023\3373{*\320:\003\252\355\204\356\342=(\314"
 438      337B2AD0 
 438      3A03AAED 
 438      84EEE23D 
 438      28CC
 439 0045 80CA5FDB 		.ascii	"\200\312_\333IhFTcqH\025\213c\252cqBu-N\251%\2133j\331"
 439      49684654 
 439      63714815 
 439      8B63AA63 
 439      7142752D 
 440 0060 E29CEA15 		.ascii	"\342\234\352\025\344\212\352\177\031\307\344\222\032"
 440      E48AEA7F 
 440      19C7E492 
 440      1A
 441 006d 145A53C3 		.ascii	"\024ZS\303B\033j\345/\221\020\273k\352\210\004\310\273"
 441      421B6AE5 
 441      2F9110BB 
 441      6BEA8804 
 441      C8BB
 442 007f 69248EA0 		.ascii	"i$\216\240\227=).p_\324\244\004l\263H\312\025\344\247"
 442      973D292E 
 442      705FD4A4 
 442      046CB348 
ARM GAS  /tmp/ccJjg49t.s 			page 35


 442      CA15E4A7 
 443 0093 4B24DEFB 		.ascii	"K$\336\373\373\223~\210\376\361q\023\361\253\310\233"
 443      FB937E88 
 443      FEF17113 
 443      F1ABC89B 
 444 00a3 87065E56 		.ascii	"\207\006^V\235Rn"
 444      9D526E
 445              		.text
 446              		.section	.gnu.lto_.refs.abb3f3a1cf64d095,"",%progbits
 447 0000 789C6362 		.ascii	"x\234cb`b\020e\200\000F bd\006bv \346\000bN\240\020"
 447      60621065 
 447      80004620 
 447      62640662 
 447      7620E600 
 448 0018 00045D00 		.ascii	"\000\004]\000?"
 448      3F
 449              		.text
 450              		.section	.gnu.lto_.decls.abb3f3a1cf64d095,"",%progbits
 451 0000 789CBD5B 		.ascii	"x\234\275[{t\025\325\271\237G\222\223C\"`}\224\336u"
 451      7B7415D5 
 451      B99F4792 
 451      93432260 
 451      7D94DE75 
 452 0014 D7F27097 		.ascii	"\327\362p\227mY\266%\361q+\256^\005k{\305e\255m\271"
 452      6D59B625 
 452      F1712BAE 
 452      5E056B7B 
 452      C565AD6D 
 453 0029 AEDEAEBB 		.ascii	"\256\336\256\273\356:\016'\023r\364\274\2343\001\362"
 453      EE3A0E27 
 453      1372F4BC 
 453      9C3301F2 
 454 0039 97938444 		.ascii	"\227\223\204D\212\026CB\215R\002I\005\205\242\255\341"
 454      8A164342 
 454      8D520249 
 454      0585A2AD 
 454      E1
 455 004a 21F2F450 		.ascii	"!\362\364P\201P\242\220\022@\201\002\001\313C\226\322"
 455      8150A290 
 455      12408102 
 455      01CB4396 
 455      D2
 456 005b 40848020 		.ascii	"@\204\200 \247\337\376f\31793\373\314\234\314D\355Y"
 456      A7DFFE66 
 456      CF3933FB 
 456      CC9CCC44 
 456      ED59
 457 006d D97BF6CC 		.ascii	"\331{\366\314\354\375\333\337\343\267\337\023\201\023"
 457      ECFDDBDF 
 457      E3B7DF13 
 457      8113
 458 007b B8FE028E 		.ascii	"\270\376\002\216K\303\357\342\004\216\233S\304q#8\216"
 458      4BC3EFE2 
 458      048E9B53 
 458      C4712338 
 458      8E
 459 008c BB0F8208 		.ascii	"\273\017\202\010\241\003\302\012\010\2539\375w\035\204"
ARM GAS  /tmp/ccJjg49t.s 			page 36


 459      A103C20A 
 459      08AB39FD 
 459      771D84
 460 009b 1FF01CF7 		.ascii	"\037\360\034\367c\010\017Cx\024\302\024\010\277\202"
 460      63080F43 
 460      7814C214 
 460      08BF82
 461 00aa F0FF1024 		.ascii	"\360\377\020$\0102\2040\204(\204\247 L\207\000\177\334"
 461      08328430 
 461      842884A7 
 461      204C8700 
 461      7FDC
 462 00bc 4C9EB3FC 		.ascii	"L\236\263\374\010\216\237b\217\203\364\275\0204\010"
 462      088E9F62 
 462      8F83F4BD 
 462      103408
 463 00cb 35103E80 		.ascii	"5\020>\200p\007\204\333!\254\201\367\205\020\236\206"
 463      700784DB 
 463      21AC81F7 
 463      85109E86 
 464 00db 741384F1 		.ascii	"t\023\204\361\020\276\015\241\234\342\022\034\001\256"
 464      10BE0DA1 
 464      9CE2121C 
 464      01AE
 465 00e9 3FE473EB 		.ascii	"?\344s\353 r\222\262\007\340\372o&LR'\250\315}\027\322"
 465      207292B2 
 465      07E0FA6F 
 465      264C5227 
 465      A8CD7D17 
 466 00fe 63210428 		.ascii	"c!\004(\256@\313\034\244\330\0171xD\347\257S\231GB("
 466      AE40CB1C 
 466      A4D80F31 
 466      7844E7AF 
 466      53994742 
 467 0113 A5D83E4E 		.ascii	"\245\330>N\317?\316A\207\024\247\353\321Am;\021\202"
 467      CF3FCE41 
 467      8714A7EB 
 467      D1416D3B 
 467      1182
 468 0125 00CF8F41 		.ascii	"\000\317\217A\210Q\331\216Cx\202\3271\315\272\276\015"
 468      8851D98E 
 468      437882D7 
 468      31CDBABE 
 468      0D
 469 0136 F717206C 		.ascii	"\367\027 l\202\260\201\324\003\317\212y]v\303\016\205"
 469      82B081D4 
 469      03CF8A79 
 469      5D76C30E 
 469      85
 470 0147 54B60F21 		.ascii	"T\266\017!\234\246\266'>\000wr\217P\273\364C8\007\341"
 470      9CA6B627 
 470      3E007772 
 470      8F50BBF4 
 470      433807E1 
 471 015b 3C840146 		.ascii	"<\204\001F\257G)\306\247p}\007\256\027\341z\011\302"
 471      AF4729C6 
 471      A7707D07 
ARM GAS  /tmp/ccJjg49t.s 			page 37


 471      AE17E17A 
 471      09C2
 472 016d 7FD37C02 		.ascii	"\177\323|\002\315\3630\265\313\317\231\362SL\276$~4"
 472      CDF330B5 
 472      CBCF99F2 
 472      534CBE24 
 472      7E34
 473 017f E31836B8 		.ascii	"\343\0306\270\014\341\277hy\242\227\310e\271\363\003"
 473      0CE1BF68 
 473      79A297C8 
 473      65B9F303 
 474 018f FAFC970C 		.ascii	"\372\374\227\014\356\257\250\016\367R\2379a\011\234"
 474      EEAFA80E 
 474      F7529F39 
 474      61099C
 475 019e 15E7FF18 		.ascii	"\025\347\377\030\034\302\315\033\031\277\031~\361Q\277"
 475      1CC2CD1B 
 475      19BF197E 
 475      F151BF
 476 01ad 1D607CC7 		.ascii	"\035`|\307\352@\374G\374\364\031\257\267\011\005\256"
 476      EA40FC47 
 476      FCF419AF 
 476      B70905AE 
 477 01bd 25265F95 		.ascii	"%&_\225S\177|\227\362\351n\352\273\015\324w\343\251"
 477      537F7C97 
 477      F2E96EEA 
 477      BB0DD477 
 477      E3A9
 478 01cf 8D892C57 		.ascii	"\215\211,W \244\311\275\240\267\021\"\177\320\206\277"
 478      20A4C9BD 
 478      A0B71122 
 478      7FD086BF 
 479 01df A43D8DF6 		.ascii	"\244=\215\366(\267YV\203_\303\221Sb\344\214R9C6r\222"
 479      28B75956 
 479      835FC391 
 479      5362E48C 
 479      52394336 
 480 01f5 367F938D 		.ascii	"6\177\223\215\234\343h\333\310g\3335\324\257fy\211~"
 480      9CE368DB 
 480      C867DB35 
 480      D4AF6679 
 480      897E
 481 0207 25505925 		.ascii	"%PY%#\273\301wCv\263\314\206\036ET\036Vv\247~\310\317"
 481      23BBC177 
 481      4376B3CC 
 481      861E4554 
 481      1E5676A7 
 482 021e CDD6B43A 		.ascii	"\315\326\264:\255o\2516\346E\220\375\177y\211\037\351"
 482      AD6FA936 
 482      E64590FD 
 482      7F79891F 
 482      E9
 483 022f E78A3151 		.ascii	"\347\2121Q\352\307\"\337\344\226hZS\337\266\223\247"
 483      EAC722DF 
 483      E496685A 
 483      53DFB693 
 483      A7
ARM GAS  /tmp/ccJjg49t.s 			page 38


 484 0240 454D2B96 		.ascii	"EM+\226\370\016\336\017\246\200\306p\033\267\\\2037"
 484      F80EDE0F 
 484      A680C670 
 484      1BB75C83 
 484      37
 485 0251 50FE3B0C 		.ascii	"P\376;\014\252G\350\301\306\327\277\203\320K\021Z\203"
 485      AA47E8C1 
 485      C6D7BF83 
 485      D04B115A 
 485      83
 486 0262 462EF14B 		.ascii	"F.\361K\370\333<\003u\316Y4\001\201\226!\320&\006H\342"
 486      F8DB3C03 
 486      75CE5934 
 486      01819621 
 486      D0260648 
 487 0277 79BF9560 		.ascii	"y\277\225`pod h\370\232&\322V\235\276\324\274\250\221"
 487      706F6420 
 487      68F89A26 
 487      D2569DBE 
 487      D4BCA891 
 488 028b A6B5376A 		.ascii	"\246\2657j\223wd5\012\030\032\025\230\254~\212Z}\005"
 488      93776435 
 488      0A181A15 
 488      98AC7E8A 
 488      5A7D05
 489 029e 6AD46567 		.ascii	"j\324eg\032W@\203\333\267v\362u\232\006/\376\210P\357"
 489      1A574083 
 489      DBB776F2 
 489      759A062F 
 489      FE8850EF 
 490 02b2 0D1BAA73 		.ascii	"\015\033\252s\347Z\335\312\235\010\264/\307\312E\214"
 490      E75ADDCA 
 490      9D08B42F 
 490      C7CA458C 
 491 02c2 958BACD6 		.ascii	"\225\213\254\326\200[R\323%2\356\362O\323'\344\306\307"
 491      805B52D3 
 491      2532EEF2 
 491      4FD327E4 
 491      C6C7
 492 02d4 FDCBCB95 		.ascii	"\375\313\313\225ps\010\267t\255\277\306\315#\031\003"
 492      707308B7 
 492      74ADBFC6 
 492      CD231903 
 493 02e4 26FDDB0B 		.ascii	"&\375\333\013\014\003\374(k\200\364\334\255\035|=\332"
 493      0C03FC28 
 493      6B80F4DC 
 493      AD1D7C3D 
 493      DA
 494 02f5 720DFF35 		.ascii	"r\015\37750\301\213\202\325\004C\002\011\\\007\026y"
 494      30C18B82 
 494      D5044302 
 494      095C0716 
 494      79
 495 0306 0B8AEB05 		.ascii	"\013\212\353\005\021Z\353[\333r\244\226\257Eh\362\216"
 495      115AEB5B 
 495      DB72A496 
 495      AF4568F2 
ARM GAS  /tmp/ccJjg49t.s 			page 39


 495      8E
 496 0317 B3C05A7E 		.ascii	"\263\300Z~c\271v\220<u\245\261\355\033Z\373\237!\377"
 496      63B97690 
 496      3C75A5B1 
 496      ED1B5AFB 
 496      9F21FF
 497 032a 6ABE0470 		.ascii	"j\276\004p\3732\270v\036\244I\375G3X\361\256m/m\222"
 497      FB32B876 
 497      1EA449FD 
 497      473358F1 
 497      AE6D2F6D 
 498 033f 0CB0539E 		.ascii	"\014\260S\236\301\002\026\260\226\256\205(\034m\301"
 498      C10216B0 
 498      96AE8528 
 498      1C6DC1
 499 034e 2EB8B5D4 		.ascii	".\270\265\324\340{\012\271uV\260\355\012\334\360\275"
 499      E07B0AB9 
 499      7556B0ED 
 499      0ADCF0BD 
 500 035e 71DB16CA 		.ascii	"q\333\026\312\367w\020\352\342\260\241:\347l\274\007"
 500      F77710EA 
 500      E2B0A13A 
 500      E76CBC07 
 501 036e 65DA8E40 		.ascii	"e\332\216@i\201\345\273\217\341\273\317\312?\237?\233"
 501      6981E5BB 
 501      8FE1BBCF 
 501      CA3F9F3F 
 501      9B
 502 037f 20B41BC5 		.ascii	" \264\033\305}\305\331\005n\216\350\302q\305N,\320\372"
 502      7DC5D905 
 502      6E8EE8C2 
 502      71C54E2C 
 502      D0FA
 503 0391 DE6C39C1 		.ascii	"\336l9\301\277\244\245f\211\224\311\355EN6\022\270y"
 503      BFA4A566 
 503      8994C9ED 
 503      454E3612 
 503      B879
 504 03a3 585737CB 		.ascii	"XW7\313\344\201\005\237\324Q&w\273b\362\332\356V$\313"
 504      E481059F 
 504      D4512677 
 504      BB62F2DA 
 504      EE5624CB 
 505 03b7 904D5230 		.ascii	"\220MR0\352\277\025\353\357\305\372{\330\372\323G.\326"
 505      EABF15EB 
 505      EFC5FA7B 
 505      D8FAD347 
 505      2ED6
 506 03c9 D3FA7B5C 		.ascii	"\323\372{\\\325\337\271g~n\375\022\177\337M\371\270"
 506      D5DFB967 
 506      7E6EFD12 
 506      7FDF4DF9 
 506      B8
 507 03da 31B0A0EB 		.ascii	"1\260\240\353<\255e/6\231\266\002\226\035\023K\254\376"
 507      3CAD652F 
 507      3699B602 
 507      961D134B 
ARM GAS  /tmp/ccJjg49t.s 			page 40


 507      ACFE
 508 03ec 837B5306 		.ascii	"\203{S\006\201{\245\300\220\177X-\026\024}w>\337\\\257"
 508      817BA5C0 
 508      907F582D 
 508      16147D77 
 508      3EDF5CAF 
 509 0400 ED283764 		.ascii	"\355(7dX\356\0311`\261\304\352=\330\007\350`\257\271"
 509      58EE1931 
 509      60B1C4EA 
 509      3DD807E8 
 509      60AFB9
 510 0413 0173A452 		.ascii	"\001s\244R]\352M3\330\237<\203Y%{\313\014\266\322\015"
 510      5DEA4D33 
 510      D89F3C83 
 510      59257BCB 
 510      0CB6D20D 
 511 0427 D86867C9 		.ascii	"\330hg\311\326\233\301\326x\006\263J\266\321\014\366"
 511      D69BC1D6 
 511      7806B34A 
 511      B6D10CF6 
 512 0437 961BB031 		.ascii	"\226\033\2601\316\222m6\203m\364\014f\225\254\307\014"
 512      CE926D36 
 512      836DF40C 
 512      6695ACC7 
 512      0C
 513 0448 96720316 		.ascii	"\226r\003\026\260\221,\363\263+Gh\275\233\317\360\\"
 513      B0912CF3 
 513      B32B4768 
 513      BD9BCFF0 
 513      5C
 514 0459 E0DE2930 		.ascii	"\340\336)0\372\004\217\234\346\262\030]\005^\3730\213"
 514      FA048F9C 
 514      E6B2185D 
 514      055EFB30 
 514      8B
 515 046a DE30949E 		.ascii	"\3360\224\236\354\340[\364v\241\017g\357\271A\314C\230"
 515      ECE05BF4 
 515      76A10F67 
 515      EFB941CC 
 515      4398
 516 047c 055DA6B1 		.ascii	"\005]\246\261q\237g0\206\312\004\314\322\327d\346\271"
 516      719F6730 
 516      86CA04CC 
 516      D2D764E6 
 516      B9
 517 048d A9FCF35C 		.ascii	"\251\374\363\\2\345\026L\223\3421\366y%\376\034\377"
 517      32E5164C 
 517      93E231F6 
 517      7925FE1C 
 517      FF
 518 049e 4D88CFD3 		.ascii	"M\210\317\323I/yu>3\023=O\247\242\002w\270\300n\366"
 518      492F7975 
 518      3E33133D 
 518      4FA7A202 
 518      77B8C06E 
 519 04b3 8E00F98B 		.ascii	"\216\000\371\213:1\341\037f&\034wc\246<M\341h\327\302"
 519      3A31E11F 
ARM GAS  /tmp/ccJjg49t.s 			page 41


 519      66261C77 
 519      63A63C4D 
 519      E168D7C2 
 520 04c7 AF6B7D29 		.ascii	"\257k})\336Xw|\304\342Yt\036\2725\\\354*y\343q\367+"
 520      DE58777C 
 520      C4E25974 
 520      1EBA355C 
 520      EC2A79E3 
 521 04de 8AA5C6AA 		.ascii	"\212\245\306\252\347\022\326~.\247w_\352qI!p\227=k0"
 521      E712D67E 
 521      2EA7775F 
 521      EA714921 
 521      70973D6B 
 522 04f3 8EE1F5D6 		.ascii	"\216\341\365\326f~\240N{\261\334\275\032'\0145>G5j\013"
 522      667EA04E 
 522      7BB1DCBD 
 522      1A270C35 
 522      3E47356A 
 523 0508 BFB81ABF 		.ascii	"\277\270\032\277.\364\252F\271I\0152\323\275\320\254"
 523      2EF4AA46 
 523      B9490D32 
 523      D3BDD0AC 
 524 0518 37CF1BB8 		.ascii	"7\317\033\270\346\374s\014\"O\235p\203e|O\035\330\311"
 524      E6FC730C 
 524      224F9D70 
 524      83657C4F 
 524      1DD8C9
 525 052b 07F4C743 		.ascii	"\007\364\307C\015\355Zjp\347B:I\326\227QM(;);\234!W"
 525      0DED5A6A 
 525      70E7423A 
 525      49D69751 
 525      4D283B29 
 526 0543 4BCDEFC6 		.ascii	"K\315\357\306\216@\007k\375B`u\251U\317\0323\370\211"
 526      8E40076B 
 526      FD426075 
 526      A955CF1A 
 526      33F889
 527 0556 A45F69FF 		.ascii	"\244_i\377\202p\177\355\366:\347n8C\311\361\254@\364"
 527      82707FED 
 527      F63AE76E 
 527      3843C9F1 
 527      AC40F4
 528 0569 7935871C 		.ascii	"y5\207\034\357\260\344p3\005]5\\=2?\201[\317r\314\355"
 528      EFB0E470 
 528      33055D35 
 528      5C3D323F 
 528      815BCF72 
 529 057f 686570AC 		.ascii	"hep\254w\220rl\310y\254\261\264\333\265\275\226\237"
 529      7790726C 
 529      C879ACB1 
 529      B4DBB5BD 
 529      969F
 530 0591 85F3B979 		.ascii	"\205\363\271y\002Y\332mf\254\341bB\374\036\026\231/"
 530      0259DA6D 
 530      66ACE162 
 530      42FC1E16 
 530      992F
ARM GAS  /tmp/ccJjg49t.s 			page 42


 531 05a3 E42CEDDE 		.ascii	"\344,\355\3363\226v\344\235\213\011\261ei'\361\033y"
 531      339676E4 
 531      9D8B09B1 
 531      656927F1 
 531      1B79
 532 05b5 81E20ED7 		.ascii	"\201\342\016\327\242\026'f\005\224\370\027\0042R\264"
 532      A2162766 
 532      0594F817 
 532      043252B4 
 533 05c5 0A63CDD6 		.ascii	"\012c\315\326?\354\331\372\001\263\365SW\272\027\362"
 533      3FECD9FA 
 533      01B3F553 
 533      57BA17F2 
 534 05d5 447E9B39 		.ascii	"D~\2339\374$\363\370\235YU\357\232GM\277\000M\177\312"
 534      FC24F3F8 
 534      9D5955EF 
 534      9A474DBF 
 534      004D7FCA 
 535 05e9 C1F4939C 		.ascii	"\301\364\223\234\200\004n\020\213\264\345\230\276w\257"
 535      80046E10 
 535      8BB4E598 
 535      BE77AF
 536 05f8 61FA3657 		.ascii	"a\3726W\246\337gk\3726\357\246\247x\373\263\253j\211"
 536      A6DF676B 
 536      FA36EFA6 
 536      A778FBB3 
 536      AB6A89
 537 060b DFEC192C 		.ascii	"\337\354\031,\220\317\217m&?.F?\266\203\037a\274\264"
 537      90CF8F6D 
 537      263F2E46 
 537      3FB6831F 
 537      61BCB4
 538 061e 7A737611 		.ascii	"zsv\021\343M\213\351hr\234\223\012Z\252e\227\265\017"
 538      E34D8BE9 
 538      68729C93 
 538      0A5AAA65 
 538      97B50F
 539 0631 6D61F1EC 		.ascii	"ma\361\354\264(w6\311\242]h\022\275\317y\3113X\300\002"
 539      B4287736 
 539      C9A25D68 
 539      12BDCF79 
 539      C93358C0 
 540 0646 B6696E9B 		.ascii	"\266in\233\253\265\243\306\233gf\002\267\004\353]\316"
 540      ABB5A3C6 
 540      9B676602 
 540      B704EB5D 
 540      CE
 541 0657 F265CD40 		.ascii	"\362e\315@\3173\224/\313]\360\005\006\230\023~\255\271"
 541      CF33942F 
 541      CB5DF005 
 541      0698137E 
 541      ADB9
 542 0669 D420EE91 		.ascii	"\324 \356\221\014j\036S\347a\313\225\217\376\302#\234"
 542      0C6A1E53 
 542      E761CB95 
 542      8FFEC223 
 542      9C
ARM GAS  /tmp/ccJjg49t.s 			page 43


 543 067a 3ED33CC9 		.ascii	">\323<\311\302y\\\201]\223w\224{3\214\336\"S\207\326"
 543      C2795C81 
 543      5D937794 
 543      7B338CDE 
 543      225387D6 
 544 068e 91217625 		.ascii	"\221!v%\352t\266\210\035\025t\313\230\210\270\334D\304"
 544      EA74B688 
 544      1D1574CB 
 544      9888B8DC 
 544      44C4
 545 06a0 1548C4D7 		.ascii	"\025H\304\327\220\210\177\304\370\0153\035\235F\371"
 545      90887FC4 
 545      F80D331D 
 545      9D46F9
 546 06af 4EC13475 		.ascii	"N\3014u\274\350Y\357\000\343\035\247j\226\231\253\371"
 546      BCE859EF 
 546      00E31DA7 
 546      6A9699AB 
 546      F9
 547 06c0 DC0DF726 		.ascii	"\334\015\367&8\232\027\372\365}-\306:C\337\265z\306"
 547      389A17FA 
 547      F57D2DC6 
 547      3A43DFB5 
 547      7AC6
 548 06d2 E715D1CA 		.ascii	"\347\025\321\312\346ss-3\202f7p\223l\004\264\373\231"
 548      E673732D 
 548      33826637 
 548      70936C04 
 548      B4FB99
 549 06e5 F71C257E 		.ascii	"\367\034%~=\256\0206\360\304A\2330~\033\343\235\030"
 549      3DAE1036 
 549      F0C4419B 
 549      307E1BE3 
 549      9D18
 550 06f7 9FC1F863 		.ascii	"\237\301\370c\214\317b|\001\343A\214\257b\\\213\316"
 550      8CCF627C 
 550      01E3418C 
 550      AF625C8B 
 550      CE
 551 0708 6DC2F825 		.ascii	"m\302\370%\214_\306x)\306\257b\274\026\343un\010\240"
 551      8C5FC678 
 551      29C6AF62 
 551      BC16E375 
 551      6E08A0
 552 071b F790199A 		.ascii	"\367\220\031\232\335\302-\322R\375}\027>\333\361\360"
 552      DDC22DD2 
 552      52FD7D17 
 552      3EDBF1F0 
 553 072b 0BF5753B 		.ascii	"\013\365u;\264~2\271\270\231\373-\335\251\326x\265\230"
 553      B47E32B9 
 553      B899FB2D 
 553      DDA9D678 
 553      B598
 554 073d 7B06E7C0 		.ascii	"{\006\347\300\015Z-\377\324P\213&PR(\006\213\356\364"
 554      0D5A2DFF 
 554      D4508B26 
 554      50522806 
ARM GAS  /tmp/ccJjg49t.s 			page 44


 554      8BEEF4
 555 0750 392E7948 		.ascii	"9.yH\006C@=m\244\362\254x6\0127cJ\3043\"\312c\211\177"
 555      0643403D 
 555      6DA4F2AC 
 555      78360A37 
 555      634AC433 
 556 0769 4CCC000B 		.ascii	"L\314\000\013\\\217\317\332\200n\345^\326\264f\355J"
 556      5C8FCFDA 
 556      806EE55E 
 556      D6B466ED 
 556      4A
 557 077a C5643DBB 		.ascii	"\305d=\273\300\235\300\034\033\204[l\353\3114\216oq"
 557      C09DC01C 
 557      1B845B6C 
 557      EBC9348E 
 557      6F71
 558 078c 4B49C14F 		.ascii	"KI\301O\032\032Fgd\264\024\263(O%\334\"\010f=\211]\333"
 558      1A1A4667 
 558      64B414B3 
 558      284F25DC 
 558      2208663D 
 559 07a3 FB522B61 		.ascii	"\373R+a\015Z\333\227N\337b1\251\343\236\027\001\332"
 559      0D5ADB97 
 559      4EDF6231 
 559      A9E39E17 
 559      01DA
 560 07b5 EE42D5D3 		.ascii	"\356B\325\323\366\252\246\015UaF)\220!p\233+U5\3557"
 560      F6AAA60D 
 560      55614629 
 560      9021709B 
 560      2B5535ED 
 561 07ca 1AAA7ADF 		.ascii	"\032\252z\337M\370"
 561      4DF8
 562 07d0 8E94B2B8 		.ascii	"\216\224\262\270lG\256n}\375\251\315;\251n\272\314\002"
 562      6C47AE6E 
 562      7DFDA9CD 
 562      3BA96EBA 
 562      CC02
 563 07e2 77C95EAA 		.ascii	"w\311^\252\013\254T\335\303\222\252\233\225\352][\213"
 563      0BAC54DD 
 563      C392AA9B 
 563      95EA5D5B 
 563      8B
 564 07f3 7FD6C548 		.ascii	"\177\326\305HU_l+\325\000+\325\356aI\265\233\225\252"
 564      555F6C2B 
 564      D5002BD5 
 564      EE6149B5 
 564      9B95AA
 565 0806 C75EAADD 		.ascii	"\307^\252\335\366< \344r\"\302^\027D\370\215\275r\227"
 565      F63C20E4 
 565      7222C25E 
 565      1744F88D 
 565      BD7297
 566 0819 59E57A5D 		.ascii	"Y\345z])W\307r\2767?\347\367\333\362\342\374\036]\327"
 566      2957C772 
 566      BE373FE7 
 566      F7DBF2E2 
ARM GAS  /tmp/ccJjg49t.s 			page 45


 566      FC1E5DD7 
 567 082d C593741D 		.ascii	"\305\223t\035\004n\201\275\224WX)\017\014O\312\003\371"
 567      046E81BD 
 567      94575829 
 567      0F0C4FCA 
 567      03F9
 568 083f A53C68EB 		.ascii	"\245<h\353\221\371\373\031\236,\263\027r\220\025\362"
 568      91F9FB19 
 568      9E2CB317 
 568      729015F2 
 569 084f F0B07872 		.ascii	"\360\260xr\230\345\311\021[\251z\0162R\255v\351\340"
 569      98E5C911 
 569      5BA97A0E 
 569      3252AD76 
 569      E9E0
 570 0861 63C392EA 		.ascii	"c\303\222\352\030+\325q[\251\372\217x\356\305NR\362"
 570      182BD571 
 570      5BA9FA8F 
 570      78EEC54E 
 570      52F2
 571 0873 66F92A70 		.ascii	"f\371*p[\030]2Bi\31341#\323\011V\246S6,k\"\213\275F"
 571      5B185D32 
 571      4269CB34 
 571      3123D309 
 571      56A65336 
 572 088d 7E5E7DBB 		.ascii	"~^}\273\335\220\225W\2623l\263\352\300\235\030\353P"
 572      DD909557 
 572      B2336CB3 
 572      EAC09D18 
 572      EB50
 573 089f 9223A99E 		.ascii	"\222#\251\236\365c;QR\253\016\316\375\206\326Q\227J"
 573      F5633B51 
 573      52AB0ECE 
 573      FD86D651 
 573      974A
 574 08b1 A727B272 		.ascii	"\247'\262r\220\321\326I\220\263\254 \372\320l\021\344"
 574      90D1D649 
 574      90B3AC20 
 574      FAD06C11 
 574      E4
 575 08c2 888320FD 		.ascii	"\210\203 \375\266\202\254[\360\234\223 y\014r\336N\216"
 575      B682AC5B 
 575      F09C9320 
 575      790C72DE 
 575      4E8E
 576 08d4 CCCD0A7D 		.ascii	"\314\315\012}k\202\221\353\214\203\\\027l\345Z\177\360"
 576      6B8291EB 
 576      8C835C17 
 576      6CE55A7F 
 576      F0
 577 08e5 398D3778 		.ascii	"9\2157x}\022y=\350\0000h\005\370\017\256\203\000\244"
 577      7D12793D 
 577      E8003068 
 577      05F80FAE 
 577      8300A4
 578 08f8 5B5FE041 		.ascii	"[_\340A1M\273\226N\333\255v5\321\274\204\311,w\317\032"
 578      314DBB96 
ARM GAS  /tmp/ccJjg49t.s 			page 46


 578      4EDBAD76 
 578      35D1BC84 
 578      C92C77CF 
 579 090d 87C89771 		.ascii	"\207\310\227q\206=\333?\344!\262\025H\340\346c\221\253"
 579      863DDB3F 
 579      E421B215 
 579      48E0E663 
 579      91AB
 580 091f B93B0DDB 		.ascii	"\271;\015\333\032\350\362\345\252\253\345K\333~\307"
 580      1AE8F2E5 
 580      AAABE54B 
 580      DB7EC7
 581 092e 957A5F66 		.ascii	"\225z_fa\360\357&\331w\355;Fe\327D\"\373\242\241e\267"
 581      61F0EF26 
 581      D977ED3B 
 581      4665D744 
 581      22FBA2A1 
 582 0944 0209DC0A 		.ascii	"\002\011\334\012,R/\346\310\276w\026\225\235\274\033"
 582      2C522FE6 
 582      C8BE7716 
 582      959DBC1B 
 583 0954 5AF6DE3D 		.ascii	"Z\366\336=\272\354\306\342k]\006wx\213\257\275\372q"
 583      BAECC6E2 
 583      6B5D0677 
 583      788BAFBD 
 583      FA71
 584 0966 893E93DF 		.ascii	"\211>\223\337\302\202yZzi\251\017t\260n\374J`\207g\260"
 584      C282795A 
 584      7A69A90F 
 584      74B06EFC 
 584      4A608767 
 585 097b 8045B2A3 		.ascii	"\200E\262\243\315\326\243\376]n\360\362\034g\364\357"
 585      CDD6A3FE 
 585      5D6EF0F2 
 585      1C67F4EF 
 586 098b 311D67EC 		.ascii	"1\035g\354\367\014f\025\356\242\031\354\210\0330\273"
 586      F70C6615 
 586      EEA219EC 
 586      881B30BB 
 587 099b 4D7FBB9F 		.ascii	"M\177\273\237\231$\022\337 \222\025K\243HV\024\2631"
 587      992412DF 
 587      2092154B 
 587      A3485614 
 587      B331
 588 09ad 9E83F173 		.ascii	"\236\203\361s\030\317\305\270I\264\354|\234\316\264"
 588      18CFC5B8 
 588      49B4EC7C 
 588      9CCEB4
 589 09bc 125B2A0E 		.ascii	"\022[*\016E\011-\265\306\271y<n\024/5\265\216\271'j"
 589      45092DB5 
 589      C6B9793C 
 589      6E142F35 
 589      B58EB927 
 590 09d1 F9067DA3 		.ascii	"\371\006}\243\017[\307\331\241[\207\005G\340f\215 %"
 590      0F5BC7D9 
 590      A15B8705 
 590      47E0668D 
ARM GAS  /tmp/ccJjg49t.s 			page 47


 590      2025
 591 09e3 5A731A47 		.ascii	"Zs\032G\357\347\306\231v\253\213\306Q\227\272\374\274"
 591      EFE7C699 
 591      76AB8BC6 
 591      5197BAFC 
 591      BC
 592 09f4 BB7D91F6 		.ascii	"\273}\221\366\214En4\351\261\353\210\261!\267\020\365"
 592      8C456E34 
 592      E9B1EB88 
 592      B121B710 
 592      F5
 593 0a05 F8DD88A1 		.ascii	"\370\335\210\241?s\261\000A+\307\"\213s\025\371\304"
 593      3F73B100 
 593      412BC722 
 593      8B7315F9 
 593      C4
 594 0a16 5064B12B 		.ascii	"Pd\261+E\326=op\377w\"\036\212fp\3630\314\321\245u\251"
 594      45D63D6F 
 594      70FF7722 
 594      1E8A6670 
 594      F330CCD1 
 595 0a2d F5BB91AE 		.ascii	"\365\273\221\256:\330V\317`V\356o\332\275p\214\326\276"
 595      3AD856CF 
 595      6056EE6F 
 595      DABD708C 
 595      D6BE
 596 0a3f C5D872D7 		.ascii	"\305\330r\327\032\265q\313\262&\031m \010f\212\254\275"
 596      1AB571CB 
 596      B226196D 
 596      2008668A 
 596      ACBD
 597 0a51 0DB7DC5F 		.ascii	"\015\267\334_\025\311\363w\031\303\272\006j\037l\274"
 597      15C9F377 
 597      19C3BA06 
 597      6A1F6CBC 
 598 0a61 592B90F8 		.ascii	"Y+\220\370? \314\376\341\302\364u\316yU\377\304\345"
 598      3F20CCFE 
 598      E1C2F475 
 598      CE7955FF 
 598      C4E5
 599 0a73 75043ACA 		.ascii	"u\004:\312\000I\274\310\234\000\210\326\023\000\321"
 599      0049BCC8 
 599      9C0088D6 
 599      1300D1
 600 0a82 9F4DA4D3 		.ascii	"\237M\244\323\"\367\025f\206\321\235u\227E\243\241:"
 600      22F71566 
 600      86D19D75 
 600      9745A3A1 
 600      3A
 601 0a93 E5BABE37 		.ascii	"\345\272\2767{\377!\342\307-\226V\341~F\262Jdf$\023"
 601      7BFF21E2 
 601      C72D9656 
 601      E17E46B2 
 601      4A646624 
 602 0aa8 9989915D 		.ascii	"\231\211\221]\301\214\343\377VK?KZ\211\334\033`L\315"
 602      C18CE3FF 
 602      564B3F4B 
ARM GAS  /tmp/ccJjg49t.s 			page 48


 602      5A89DC1B 
 602      604CCD
 603 0abb 7C7D42EA 		.ascii	"|}B\352r\222c\255X\342\320nr\336\011\334U7\034\317w"
 603      729263AD 
 603      58E2D06E 
 603      72DE09DC 
 603      55371CCF 
 604 0ad0 9ADEFBE9 		.ascii	"\232\336\373\351\313\306.\027\356J\315*q\001h7\372\330"
 604      CBC62E17 
 604      EE4ACD2A 
 604      71016837 
 604      FAD8
 605 0ae2 FDCC5D04 		.ascii	"\375\314]\004Ly\261\217\377=\366\345K0~\005\343N\214"
 605      4C79B18F 
 605      FF3DF6E5 
 605      4B307E05 
 605      E34E8C
 606 0af5 D7997B77 		.ascii	"\327\231{w'\333\220\206\235\301~Y\024ho:\274\316\342"
 606      27DB9086 
 606      9DC17E59 
 606      14686F3A 
 606      BCCEE2
 607 0b08 6AB6B390 		.ascii	"j\266\263\220\370\245\236\301,\206L\315\333\243w\026"
 607      F8A59EC1 
 607      2C864CCD 
 607      DBA37716 
 608 0b18 7ADB97F8 		.ascii	"z\333\227\3707X<olN\275\321\\\332\363\270\321\221<["
 608      37583C6F 
 608      6C4EBDD1 
 608      5CDAF3B8 
 608      D1913C5B 
 609 0b2c C27B041B 		.ascii	"\302{\004\033\235\317)\255&\247\274\204NY\200.\330\200"
 609      9DCF29AD 
 609      26A7BC84 
 609      4E59802E 
 609      D880
 610 0b3e F1468C37 		.ascii	"\361F\2147Y\007\333\326\022f\260\265\214lvC\277\331"
 610      5907DBD6 
 610      1266B0B5 
 610      8C6C7643 
 610      BFD9
 611 0b50 3C5A6A23 		.ascii	"<Zj#,|%\367\247u\247\214\323\272-\372<\264\304\363i"
 611      2C7C25F7 
 611      A775A78C 
 611      D3BA2DFA 
 611      3CB4C4F3 
 612 0b65 DDEB5864 		.ascii	"\335\353Xdk\356<\364\2041\017\335:\364\0105\253>\265"
 612      6BEE3CF4 
 612      84310FDD 
 612      3AF40835 
 612      AB3EB5
 613 0b78 A6E595EC 		.ascii	"\246\345\225\354P[\237i\300\3750*8\221\324\362\241\304"
 613      505B9F69 
 613      C0FD302A 
 613      3891D4F2 
 613      A1C4
 614 0b8a A68C1C1E 		.ascii	"\246\214\034\036Ij\357\272\255&\327mG\327uY\035\325"
ARM GAS  /tmp/ccJjg49t.s 			page 49


 614      496AEFBA 
 614      AD26D76D 
 614      47D77559 
 614      1DD5
 615 0b9c C53ACAAE 		.ascii	"\305:\312\256\276<\347A\357\357\327\317\203\334\372"
 615      BE3CE741 
 615      EFEFD7CF 
 615      83DCFA
 616 0bab 6AEDE673 		.ascii	"j\355\346sw\343\020\363.z\352\232WO\341v\026\343\245"
 616      77E310F3 
 616      2E7AEA9A 
 616      574FE176 
 616      16E3A5
 617 0bbe D4801CD0 		.ascii	"\324\200\034\320\237\272\370P\366\004\036\252\270?\026"
 617      9FBAF850 
 617      F6041EAA 
 617      B83F16
 618 0bcd DFF6213D 		.ascii	"\337\366!=\026\337\203M\353\371\322/\345X\274\025av"
 618      16DF834D 
 618      EBF9D22F 
 618      E558BC15 
 618      6176
 619 0bdf 7F596EDE 		.ascii	"\177Yn\336mrs\017\272\371\257V7/*\365\352\346@\276\372"
 619      6D72730F 
 619      BAF9AF56 
 619      372F2AF5 
 619      EAE640BE 
 620 0bf4 AE9ACE78 		.ascii	"\256\232\316x\256\341\031O\0327\367[\260/Ha\334m\225"
 620      AEE1194F 
 620      1A37F75B 
 620      B02F4861 
 620      DC6D95
 621 0c07 A0236338 		.ascii	"\240#c8Z\201u\025KP\337\0273\313jf\374\273\354 8)\365"
 621      5A817515 
 621      4B50DF17 
 621      33CB6A66 
 621      FCBBEC20 
 622 0c1e 41B68F67 		.ascii	"A\266\217gJ-\310S\352@\266\024=]X\333\322\365>~@\211"
 622      4A2DC853 
 622      EA40B614 
 622      3D5D58DB 
 622      D2F53E7E 
 623 0c34 7B35EDC5 		.ascii	"{5\355\305\356g\002\207\330\231\300\0011g\217d\011\303"
 623      EE670287 
 623      D899C001 
 623      31678F64 
 623      09C3
 624 0c46 1BBA45D6 		.ascii	"\033\272E\326+O\326\263\013\334\2370\307A\321i\213\214"
 624      2B4FD6B3 
 624      0BDC9F30 
 624      C741D169 
 624      8B8C
 625 0c58 4A4C77A3 		.ascii	"JLw\243\016i?\033\223\331\215\"\205,\3769,Z6(\030\273"
 625      0E693F1B 
 625      93D98D22 
 625      852CFE39 
 625      2C5A3628 
ARM GAS  /tmp/ccJjg49t.s 			page 50


 626 0c6e 903D1D27 		.ascii	"\220=\035']\2169Z\363L\236R\307Yk\246\336>\336\203\263"
 626      5D8E395A 
 626      F34C9E52 
 626      C7596BA6 
 626      DE3EDE83 
 627 0c83 2B2D9D7E 		.ascii	"+-\235~z\254^\245\300\255\2627\302>b\004}\311\270\005"
 627      7AAC5EA5 
 627      C0ADB237 
 627      C23E6204 
 627      7DC9B805 
 628 0c97 737CE868 		.ascii	"s|\350h\204\325\274y\213\365\302\337\1776\331x\346\\"
 628      84D5BC79 
 628      8BF5C2DF 
 628      7F36D978 
 628      E65C
 629 0ca9 8ACAF877 		.ascii	"\212\312\370w1g\327\207\310y\364\005\350\277\310n\324"
 629      3167D787 
 629      C879F405 
 629      E8BFC86E 
 629      D4
 630 0cba DBDA580F 		.ascii	"\333\332X\017\373Q\037\261>\267\354GQ_1\034\330\232"
 630      FB511FB1 
 630      3EB7EC47 
 630      515F311C 
 630      D89A
 631 0ccc 8703FAB6 		.ascii	"\207\003\372\266\332I\234\005\234\316\257>-\326\266"
 631      DA499C05 
 631      9CCEAF3E 
 631      2DD6B6
 632 0cdb BDB48937 		.ascii	"\275\264\2117\270vt\210\202y\310s\232%\317\307VC\005"
 632      B8767488 
 632      8279C873 
 632      9A25CFC7 
 632      564305
 633 0cee B8C5D00F 		.ascii	"\270\305\320\0176i\015\202\375)\307W\375\376z\256\011"
 633      36690D82 
 633      FD29C757 
 633      FDFE7AAE 
 633      09
 634 0cff 7D32E9C5 		.ascii	"}2\351\305\221\372G\207vs\032R\352S\361zLY\376\205\005"
 634      91FA4787 
 634      76731A52 
 634      EA53F17A 
 634      4C59FE85 
 635 0d14 733839F1 		.ascii	"s89\361\202\230\375\260\261\324\237M\360\326\252\003"
 635      8298FDB0 
 635      B1D49F4D 
 635      F0D6AA03 
 636 0d24 4CCD138C 		.ascii	"L\315\023\214|>\212s\321s\315\203\0165\027\321\232\231"
 636      7C3E8A73 
 636      D173CD83 
 636      0E3517D1 
 636      9A99
 637 0d36 B6B73D4F 		.ascii	"\266\267=O\333\273\344\330b7\346)u\331\261\324\371<"
 637      DBBBE4D8 
 637      6237E629 
 637      75D9B1D4 
ARM GAS  /tmp/ccJjg49t.s 			page 51


 637      F93C
 638 0d48 A53ECBE9 		.ascii	"\245>\313\3515\327\014\\\272\345\265\225\232\366k\355"
 638      35D70C5C 
 638      BAE5B595 
 638      9AF66BED 
 639 0d58 5AFAE9DA 		.ascii	"Z\372\351\332Y\367\033\247)\373\363p\335|$p\305\221"
 639      59F71BA7 
 639      29FBF370 
 639      DD7C2470 
 639      C591
 640 0d6a B2D6D394 		.ascii	"\262\326\323\224\003\177#\2245\016SL\245\354\016S\256"
 640      037F2394 
 640      350E534C 
 640      A5EC0E53 
 640      AE
 641 0d7b DA3575E8 		.ascii	"\3325u\350\340\017\233;\370\331\005\036\216\271\264"
 641      E00F9B3B 
 641      F8D9051E 
 641      8EB9B4
 642 0d8a 82A1BBF8 		.ascii	"\202\241\273\3703\366*\0372\272x\243\225\246]\265\322"
 642      33F62A1F 
 642      32BA78A3 
 642      95A65DB5 
 642      D2
 643 0d9b 3AED9045 		.ascii	":\355\220E\345t~\225\353\012\354z\267\026s/\354a\327"
 643      E5747E95 
 643      EB0AEC7A 
 643      B716732F 
 643      EC61D7
 644 0dae BFD185BA 		.ascii	"\277\321\205\272\227\355\325\275\302\252\333P\340N]"
 644      97EDD5BD 
 644      C2AADB50 
 644      E04E5D
 645 0dbd 6B67EE54 		.ascii	"kg\356T\212\0128\273 \337\000w2\017\205\237-\310\376"
 645      8A0A38BB 
 645      20DF0077 
 645      320F859F 
 645      2DC8FE
 646 0dd0 23C6E4B2 		.ascii	"#\306\344\262\252xT.\013\305+j\312*\344\351e\241\252"
 646      AA78542E 
 646      0BC52B6A 
 646      CA2AE4E9 
 646      65A1AA
 647 0de3 F0D4703C 		.ascii	"\360\324p<Y\246*\325\261'\313 \241\250e\211\270\242"
 647      59A62AD5 
 647      B127CB20 
 647      A1A86589 
 647      B8A2
 648 0df5 26CBEEFF 		.ascii	"&\313\356\377\305#\017<2\023rF\023\341\210\254$\313"
 648      C5230F3C 
 648      32137246 
 648      13E188AC 
 648      24CB
 649 0e07 1E7CE001 		.ascii	"\036|\340\001\310\256\326$\344\344\370*\256XM\252\222"
 649      C8AED624 
 649      E4E4F82A 
 649      AE584DAA 
ARM GAS  /tmp/ccJjg49t.s 			page 52


 649      92
 650 0e18 2A07D5A2 		.ascii	"*\007\325\242\007\177\372X\340\001\356\326\262\352\244"
 650      077FFA58 
 650      E001EED6 
 650      B2EAA4
 651 0e27 522629D1 		.ascii	"R&)\321\357\305\3421\371{\26245\\\026\216\205\"\325"
 651      EFC5E231 
 651      F97BB234 
 651      355C168E 
 651      8522D5
 652 0e3a 15725952 		.ascii	"\025rYR\255\010\307T(\344\253\206\353\204\240zW\236"
 652      AD08C754 
 652      28E4AB86 
 652      EB84A07A 
 652      579E
 653 0e4c CC510964 		.ascii	"\314Q\011d\212\311e\301\012\271R\252\216\250A\243F\177"
 653      8AC965C1 
 653      0AB952AA 
 653      8EA841A3 
 653      467F
 654 0e5e 30488B17 		.ascii	"0H\213\027F\223\323\202\252\017n\356\274#\250\302s\232"
 654      4693D382 
 654      AA0F6EEE 
 654      BC23A8C2 
 654      739A
 655 0e70 9AE04239 		.ascii	"\232\340B9\243\232PU\262&\231U\246J\221\245\012\300"
 655      A39A5055 
 655      B2269955 
 655      A64A91A5 
 655      0AC0
 656 0e82 0A5505F5 		.ascii	"\012U\005\365\364]\336\260BU\025\200S\224\010\306\344"
 656      F45DDEB0 
 656      42551580 
 656      539408C6 
 656      E4
 657 0e93 992A5C12 		.ascii	"\231*\\\022\212<\335\247&\224p<\250\026WS\371F\350\032"
 657      8A3CDDA7 
 657      2694703C 
 657      A8165753 
 657      F946E81A 
 658 0ea7 90246609 		.ascii	"\220$f\011\307}\241xL\205\022\367xvKU(\256\310Pe\011"
 658      C77DA178 
 658      4C8512F7 
 658      78764B55 
 658      28AEC850 
 659 0ebd 794C0C10 		.ascii	"yL\014\020Rg\336;<\224\340\364\273\243\304\010\212<"
 659      5267DE3B 
 659      3C94E0F4 
 659      BBA3C408 
 659      8A3C
 660 0ecf 0D5C1254 		.ascii	"\015\\\022T\005\345.A\371OA\371\276\240\334-(\023\004"
 660      05E52E41 
 660      F94F41F9 
 660      BEA0DC2D 
 660      281304
 661 0ee2 E51E51B9 		.ascii	"\345\036Q\271\275\034\302\355BD\201\313\235\205\211"
 661      BD1CC2ED 
ARM GAS  /tmp/ccJjg49t.s 			page 53


 661      424481CB 
 661      9D8589
 662 0ef1 20D4E623 		.ascii	" \324\346#\312\316\220\025\270\306#\025\262R\020\252"
 662      CACE9015 
 662      B8C62315 
 662      B25210AA 
 663 0f01 92146201 		.ascii	"\222\024b\001)*\3033\244\207O\215\306+\200$p_\031\221"
 663      292AC333 
 663      A4874F8D 
 663      C62B8024 
 663      705F1991 
 664 0f15 A6257DAA 		.ascii	"\246%}\252\"W&Q}\222(R*j\300\227\305\362\314\260\012"
 664      22572651 
 664      7D922852 
 664      2A6AC097 
 664      C5F2CCB0 
 665 0f2a 52CB4533 		.ascii	"R\313E3\324\370\324'\022%\362t9\246F\245\344\223\220"
 665      D4F8D427 
 665      1225F274 
 665      39A646A5 
 665      E49390
 666 0f3d 539E4112 		.ascii	"S\236A\022b\"X=R\367L2\030\011'\201\026\2432\276\322"
 666      6222583D 
 666      52F74C32 
 666      18092781 
 666      16A332BE 
 667 0f52 9FF813C1 		.ascii	"\237\370\023\301\031RX\015\307\246\2152\036?U-WC\355"
 667      1952580D 
 667      C7A68D32 
 667      1E3F552D 
 667      5743ED
 668 0f65 A34D39F1 		.ascii	"\243M9\361\321\210D\020\252\305d!&\341\201\234\220c"
 668      D1884410 
 668      AAC56421 
 668      26E1819C 
 668      9063
 669 0f77 40D36985 		.ascii	"@\323i\205\321j\360\310\235\236\334\037Ug\022vGut\270"
 669      D16AF0C8 
 669      9D9EDC1F 
 669      55671276 
 669      477574B8 
 670 0f8b C667C4C0 		.ascii	"\306g\304\3000\210\004*D\221\025 \037\344#\222\216 "
 670      3088042A 
 670      44911520 
 670      1FE42392 
 670      8E20
 671 0f9d DA4B11   		.ascii	"\332K\021"
 672 0fa0 24003C4C 		.ascii	"$\000<L\304\343\2212\027\365%\225\020\255+\304\025\006"
 672      C4E39132 
 672      17F52595 
 672      10AD2BC4 
 672      1506
 673 0fb2 7F08A56E 		.ascii	"\177\010\245n\014U=\242\316\374\037\245\346'\361\320"
 673      0C553DA2 
 673      CEFC1FA5 
 673      E627F1D0 
 674 0fc2 9353C627 		.ascii	"\223S\306'$E\035_.D\023\243\360\371\243S\237\220C\352"
ARM GAS  /tmp/ccJjg49t.s 			page 54


 674      24451D5F 
 674      2E4413A3 
 674      F0F9A353 
 674      9F9043EA 
 675 0fd6 43B1B03A 		.ascii	"C\261\260:\002\3571\223?\223,5\027\276\316\202T\202"
 675      02EF3193 
 675      3F932C35 
 675      17BECE82 
 675      5482
 676 0fe8 778FC522 		.ascii	"w\217\305\"\231lzz\312H\323\315\375\221\010\224\232"
 676      996C7A7A 
 676      CA48D3CD 
 676      FD910894 
 676      9A
 677 0ff9 12AA7A30 		.ascii	"\022\252z0>%\""
 677      3E2522
 678 1000 CB09520A 		.ascii	"\313\011R\012\356~\001f\256y\250\024\323\277\224\236"
 678      EE7E0166 
 678      AE79A814 
 678      D3BF949E 
 679 1010 94AB1353 		.ascii	"\224\253\023SF\323\027\320J\344\212\352\210Lr\006I\363"
 679      46D317D0 
 679      4AE48AEA 
 679      884C7206 
 679      49F3
 680 1022 93A37A93 		.ascii	"\223\243z\223\323\323\245\304C5\324\273\000\035\314"
 680      D3D3A5C4 
 680      4335D4BB 
 680      001DCC
 681 1031 DEFB14DD 		.ascii	"\336\373\024\335\264E\0126\233B\005\011\250P\002*:\001"
 681      B4450A36 
 681      9B420509 
 681      A850022A 
 681      3A01
 682 1043 FDF0B45A 		.ascii	"\375\360\264ZQ\200:\205\012)t\323\364\260\242VK\221"
 682      51803A85 
 682      0A2974D3 
 682      F4B0A256 
 682      4B91
 683 1055 A01A8E42 		.ascii	"\240\032\216B\007F\201o\006`\233\027\243,\317t\316X"
 683      0746816F 
 683      06609B17 
 683      A32CCF74 
 683      CE58
 684 1067 1EF9A6AB 		.ascii	"\036\371\246\253\350Fr%\255\333O\204\206\027\264}\337"
 684      E8467225 
 684      ADDB4F84 
 684      8617B47D 
 684      DF
 685 1078 FEFD4CFB 		.ascii	"\376\375L\373&\311b\310U!GT\011\022\225\325\261P\020"
 685      26C962C8 
 685      55214754 
 685      091295D5 
 685      B15010
 686 108b CB915411 		.ascii	"\313\221T\021)/)%p\211HI\225@\300#\"\302Hj\222\012y"
 686      292F2925 
 686      70894849 
ARM GAS  /tmp/ccJjg49t.s 			page 55


 686      9540C023 
 686      22C2486A 
 687 10a2 6AF5349D 		.ascii	"j\3654\235\337\346'\376\204\024\013\207\010[\305\212"
 687      DFE627FE 
 687      84140B87 
 687      085BC58A 
 688 10b2 A9D3EEF0 		.ascii	"\251\323\356\360DP\2254\360\321j4\030\222\"\341\251"
 688      44509534 
 688      F0D16A34 
 688      189222E1 
 688      A9
 689 10c3 8AA486E3 		.ascii	"\212\244\206\3431\020IQC10IQ\274\2622)\253\202\032\025"
 689      31104951 
 689      43313049 
 689      51BCB232 
 689      29AB821A 
 690 10d8 425523F4 		.ascii	"BU#\364F\023\006\332\210\352S\211\353\364\333\012\031"
 690      461306DA 
 690      88EA5389 
 690      EBF4DB0A 
 690      19
 691 10e9 AF829AB8 		.ascii	"\257\202\232\270^\177\200][8\226\224\025\365\006$\305"
 691      5E7F805D 
 691      5B389694 
 691      15F50624 
 691      C5
 692 10fa CFC9E39F 		.ascii	"\317\311\343\237\306\325\037G\023j\315\224\221z\256"
 692      C6D51F47 
 692      136ACD94 
 692      917AAE
 693 1109 581CC487 		.ascii	"X\034\304\207{Z\2502\\\031\007\257F\343\323\345\177"
 693      7B5AA832 
 693      5C1907AF 
 693      46E3D3E5 
 693      7F
 694 111a 02581B40 		.ascii	"\002X\033@\265"
 694      B5
 695              		.text
 696              		.section	.gnu.lto_.symtab.abb3f3a1cf64d095,"",%progbits
 697 0000 63684D74 		.ascii	"chMtxObjectInit\000\000\000\000\000\000\000\000\000"
 697      784F626A 
 697      65637449 
 697      6E697400 
 697      00000000 
 698 0018 00000045 		.ascii	"\000\000\000E\001\000\000chMtxLockS\000\000\000\000"
 698      01000063 
 698      684D7478 
 698      4C6F636B 
 698      53000000 
 699 002d 00000000 		.ascii	"\000\000\000\000\000\000\000\000K\001\000\000chMtxL"
 699      00000000 
 699      4B010000 
 699      63684D74 
 699      784C
 700 003f 6F636B00 		.ascii	"ock\000\000\000\000\000\000\000\000\000\000\000\000"
 700      00000000 
 700      00000000 
ARM GAS  /tmp/ccJjg49t.s 			page 56


 700      000000
 701 004e 4F010000 		.ascii	"O\001\000\000chMtxTryLock\000\000\000\000\000\000\000"
 701      63684D74 
 701      78547279 
 701      4C6F636B 
 701      00000000 
 702 0065 00000000 		.ascii	"\000\000\000\000\000S\001\000\000chMtxTryLockS\000\000"
 702      00530100 
 702      0063684D 
 702      74785472 
 702      794C6F63 
 703 007d 00000000 		.ascii	"\000\000\000\000\000\000\000\000\000\000Y\001\000\000"
 703      00000000 
 703      00005901 
 703      0000
 704 008b 63684D74 		.ascii	"chMtxUnlock\000\000\000\000\000\000\000\000\000\000"
 704      78556E6C 
 704      6F636B00 
 704      00000000 
 704      00000000 
 705 00a0 00005D01 		.ascii	"\000\000]\001\000\000chMtxUnlockS\000\000\000\000\000"
 705      00006368 
 705      4D747855 
 705      6E6C6F63 
 705      6B530000 
 706 00b7 00000000 		.ascii	"\000\000\000\000\000\000\000a\001\000\000chMtxUnloc"
 706      00000061 
 706      01000063 
 706      684D7478 
 706      556E6C6F 
 707 00cc 6B416C6C 		.ascii	"kAll\000\000\000\000\000\000\000\000\000\000\000\000"
 707      00000000 
 707      00000000 
 707      00000000 
 708 00dc 65010000 		.ascii	"e\001\000\000ch\000\000\002\000\000\000\000\000\000"
 708      63680000 
 708      02000000 
 708      000000
 709 00eb 00000078 		.ascii	"\000\000\000x\001\000\000chSchGoSleepS\000\000\002\000"
 709      01000063 
 709      68536368 
 709      476F536C 
 709      65657053 
 710 0103 00000000 		.ascii	"\000\000\000\000\000\000\000\000i\001\000\000chSchR"
 710      00000000 
 710      69010000 
 710      63685363 
 710      6852
 711 0115 65616479 		.ascii	"eadyI\000\000\002\000\000\000\000\000\000\000\000\000"
 711      49000002 
 711      00000000 
 711      00000000 
 711      00
 712 0126 6D010000 		.ascii	"m\001\000\000chSchWakeupS\000\000\002\000\000\000\000"
 712      63685363 
 712      6857616B 
 712      65757053 
ARM GAS  /tmp/ccJjg49t.s 			page 57


 712      00000200 
 713 013d 00000000 		.ascii	"\000\000\000\000\000q\001\000\000chSchRescheduleS\000"
 713      00710100 
 713      00636853 
 713      63685265 
 713      73636865 
 714 0157 00020000 		.ascii	"\000\002\000\000\000\000\000\000\000\000\000v\001\000"
 714      00000000 
 714      00000076 
 714      0100
 715 0165 00       		.ascii	"\000"
 716              		.text
 717              		.section	.gnu.lto_.opts,"",%progbits
 718 0000 272D6D63 		.ascii	"'-mcpu=cortex-m3' '-mno-thumb-interwork' '-mthumb' "
 718      70753D63 
 718      6F727465 
 718      782D6D33 
 718      2720272D 
 719 0033 272D4F32 		.ascii	"'-O2' '-fomit-frame-pointer' '-falign-functions=16'"
 719      2720272D 
 719      666F6D69 
 719      742D6672 
 719      616D652D 
 720 0066 20272D66 		.ascii	" '-ffunction-sections' '-fdata-sections' '-fno-comm"
 720      66756E63 
 720      74696F6E 
 720      2D736563 
 720      74696F6E 
 721 0099 6F6E2720 		.ascii	"on' '-flto'\000"
 721      272D666C 
 721      746F2700 
 722              		.text
 723              		.section	.text.chMtxObjectInit,"ax",%progbits
 724              		.align	2
 725              		.p2align 4,,15
 726              		.global	chMtxObjectInit
 727              		.thumb
 728              		.thumb_func
 729              		.type	chMtxObjectInit, %function
 730              	chMtxObjectInit:
 731              		@ args = 0, pretend = 0, frame = 0
 732              		@ frame_needed = 0, uses_anonymous_args = 0
 733              		@ link register save eliminated.
 734 0000 0023     		movs	r3, #0
 735 0002 4060     		str	r0, [r0, #4]
 736 0004 0060     		str	r0, [r0]
 737 0006 8360     		str	r3, [r0, #8]
 738 0008 7047     		bx	lr
 739              		.size	chMtxObjectInit, .-chMtxObjectInit
 740 000a 00BFAFF3 		.section	.text.chMtxLockS,"ax",%progbits
 740      0080
 741              		.align	2
 742              		.p2align 4,,15
 743              		.global	chMtxLockS
 744              		.thumb
 745              		.thumb_func
 746              		.type	chMtxLockS, %function
ARM GAS  /tmp/ccJjg49t.s 			page 58


 747              	chMtxLockS:
 748              		@ args = 0, pretend = 0, frame = 0
 749              		@ frame_needed = 0, uses_anonymous_args = 0
 750 0000 F8B5     		push	{r3, r4, r5, r6, r7, lr}
 751 0002 8268     		ldr	r2, [r0, #8]
 752 0004 2F4B     		ldr	r3, .L23
 753 0006 0546     		mov	r5, r0
 754 0008 9C69     		ldr	r4, [r3, #24]
 755 000a 002A     		cmp	r2, #0
 756 000c 54D0     		beq	.L3
 757 000e A168     		ldr	r1, [r4, #8]
 758 0010 9368     		ldr	r3, [r2, #8]
 759 0012 9942     		cmp	r1, r3
 760 0014 06D9     		bls	.L5
 761              	.L14:
 762 0016 137F     		ldrb	r3, [r2, #28]	@ zero_extendqisi2
 763 0018 9160     		str	r1, [r2, #8]
 764 001a 062B     		cmp	r3, #6
 765 001c 33D0     		beq	.L6
 766 001e 072B     		cmp	r3, #7
 767 0020 1DD0     		beq	.L7
 768 0022 9BB1     		cbz	r3, .L22
 769              	.L5:
 770 0024 2B46     		mov	r3, r5
 771 0026 03E0     		b	.L20
 772              	.L18:
 773 0028 9968     		ldr	r1, [r3, #8]
 774 002a A268     		ldr	r2, [r4, #8]
 775 002c 9142     		cmp	r1, r2
 776 002e 02D3     		bcc	.L19
 777              	.L20:
 778 0030 1B68     		ldr	r3, [r3]
 779 0032 9D42     		cmp	r5, r3
 780 0034 F8D1     		bne	.L18
 781              	.L19:
 782 0036 5A68     		ldr	r2, [r3, #4]
 783 0038 2360     		str	r3, [r4]
 784 003a 6260     		str	r2, [r4, #4]
 785 003c 5C60     		str	r4, [r3, #4]
 786 003e 1460     		str	r4, [r2]
 787 0040 2562     		str	r5, [r4, #32]
 788 0042 0620     		movs	r0, #6
 789 0044 BDE8F840 		pop	{r3, r4, r5, r6, r7, lr}
 790 0048 FFF7FEBF 		b	chSchGoSleepS
 791              	.L22:
 792 004c 92E80A00 		ldmia	r2, {r1, r3}
 793 0050 1960     		str	r1, [r3]
 794 0052 1046     		mov	r0, r2
 795 0054 1268     		ldr	r2, [r2]
 796 0056 5360     		str	r3, [r2, #4]
 797 0058 FFF7FEFF 		bl	chSchReadyI
 798 005c E2E7     		b	.L5
 799              	.L7:
 800 005e 1368     		ldr	r3, [r2]
 801 0060 5068     		ldr	r0, [r2, #4]
 802 0062 166A     		ldr	r6, [r2, #32]
 803 0064 0360     		str	r3, [r0]
ARM GAS  /tmp/ccJjg49t.s 			page 59


 804 0066 1768     		ldr	r7, [r2]
 805 0068 3346     		mov	r3, r6
 806 006a 7860     		str	r0, [r7, #4]
 807 006c 02E0     		b	.L17
 808              	.L15:
 809 006e 9868     		ldr	r0, [r3, #8]
 810 0070 8142     		cmp	r1, r0
 811 0072 02D8     		bhi	.L16
 812              	.L17:
 813 0074 1B68     		ldr	r3, [r3]
 814 0076 9E42     		cmp	r6, r3
 815 0078 F9D1     		bne	.L15
 816              	.L16:
 817 007a 5968     		ldr	r1, [r3, #4]
 818 007c 1360     		str	r3, [r2]
 819 007e 5160     		str	r1, [r2, #4]
 820 0080 5A60     		str	r2, [r3, #4]
 821 0082 0A60     		str	r2, [r1]
 822 0084 CEE7     		b	.L5
 823              	.L6:
 824 0086 1368     		ldr	r3, [r2]
 825 0088 5068     		ldr	r0, [r2, #4]
 826 008a 166A     		ldr	r6, [r2, #32]
 827 008c 0360     		str	r3, [r0]
 828 008e 1768     		ldr	r7, [r2]
 829 0090 3346     		mov	r3, r6
 830 0092 7860     		str	r0, [r7, #4]
 831 0094 02E0     		b	.L13
 832              	.L9:
 833 0096 9868     		ldr	r0, [r3, #8]
 834 0098 8842     		cmp	r0, r1
 835 009a 02D3     		bcc	.L12
 836              	.L13:
 837 009c 1B68     		ldr	r3, [r3]
 838 009e 9E42     		cmp	r6, r3
 839 00a0 F9D1     		bne	.L9
 840              	.L12:
 841 00a2 5968     		ldr	r1, [r3, #4]
 842 00a4 1360     		str	r3, [r2]
 843 00a6 5160     		str	r1, [r2, #4]
 844 00a8 5A60     		str	r2, [r3, #4]
 845 00aa 0A60     		str	r2, [r1]
 846 00ac B268     		ldr	r2, [r6, #8]
 847 00ae A168     		ldr	r1, [r4, #8]
 848 00b0 9368     		ldr	r3, [r2, #8]
 849 00b2 8B42     		cmp	r3, r1
 850 00b4 AFD3     		bcc	.L14
 851 00b6 B5E7     		b	.L5
 852              	.L3:
 853 00b8 A36B     		ldr	r3, [r4, #56]
 854 00ba 8460     		str	r4, [r0, #8]
 855 00bc C360     		str	r3, [r0, #12]
 856 00be A063     		str	r0, [r4, #56]
 857 00c0 F8BD     		pop	{r3, r4, r5, r6, r7, pc}
 858              	.L24:
 859 00c2 00BF     		.align	2
 860              	.L23:
ARM GAS  /tmp/ccJjg49t.s 			page 60


 861 00c4 00000000 		.word	ch
 862              		.size	chMtxLockS, .-chMtxLockS
 863 00c8 AFF30080 		.section	.text.chMtxLock,"ax",%progbits
 863      AFF30080 
 864              		.align	2
 865              		.p2align 4,,15
 866              		.global	chMtxLock
 867              		.thumb
 868              		.thumb_func
 869              		.type	chMtxLock, %function
 870              	chMtxLock:
 871              		@ args = 0, pretend = 0, frame = 0
 872              		@ frame_needed = 0, uses_anonymous_args = 0
 873 0000 08B5     		push	{r3, lr}
 874 0002 2023     		movs	r3, #32
 875              	@ 546 "/home/cody/dev/chibios/trunk/os/ext/CMSIS/include/core_cmFunc.h" 1
 876 0004 83F31188 		MSR basepri, r3
 877              	@ 0 "" 2
 878              		.thumb
 879 0008 FFF7FEFF 		bl	chMtxLockS
 880 000c 0023     		movs	r3, #0
 881              	@ 546 "/home/cody/dev/chibios/trunk/os/ext/CMSIS/include/core_cmFunc.h" 1
 882 000e 83F31188 		MSR basepri, r3
 883              	@ 0 "" 2
 884              		.thumb
 885 0012 08BD     		pop	{r3, pc}
 886              		.size	chMtxLock, .-chMtxLock
 887 0014 AFF30080 		.section	.text.chMtxTryLock,"ax",%progbits
 887      AFF30080 
 887      AFF30080 
 888              		.align	2
 889              		.p2align 4,,15
 890              		.global	chMtxTryLock
 891              		.thumb
 892              		.thumb_func
 893              		.type	chMtxTryLock, %function
 894              	chMtxTryLock:
 895              		@ args = 0, pretend = 0, frame = 0
 896              		@ frame_needed = 0, uses_anonymous_args = 0
 897              		@ link register save eliminated.
 898 0000 0346     		mov	r3, r0
 899 0002 2022     		movs	r2, #32
 900              	@ 546 "/home/cody/dev/chibios/trunk/os/ext/CMSIS/include/core_cmFunc.h" 1
 901 0004 82F31188 		MSR basepri, r2
 902              	@ 0 "" 2
 903              		.thumb
 904 0008 8268     		ldr	r2, [r0, #8]
 905 000a 0020     		movs	r0, #0
 906 000c 1AB1     		cbz	r2, .L29
 907 000e 0023     		movs	r3, #0
 908              	@ 546 "/home/cody/dev/chibios/trunk/os/ext/CMSIS/include/core_cmFunc.h" 1
 909 0010 83F31188 		MSR basepri, r3
 910              	@ 0 "" 2
 911              		.thumb
 912 0014 7047     		bx	lr
 913              	.L29:
 914 0016 054A     		ldr	r2, .L30
ARM GAS  /tmp/ccJjg49t.s 			page 61


 915 0018 0120     		movs	r0, #1
 916 001a 9269     		ldr	r2, [r2, #24]
 917 001c 916B     		ldr	r1, [r2, #56]
 918 001e 9A60     		str	r2, [r3, #8]
 919 0020 D960     		str	r1, [r3, #12]
 920 0022 9363     		str	r3, [r2, #56]
 921 0024 0023     		movs	r3, #0
 922              	@ 546 "/home/cody/dev/chibios/trunk/os/ext/CMSIS/include/core_cmFunc.h" 1
 923 0026 83F31188 		MSR basepri, r3
 924              	@ 0 "" 2
 925              		.thumb
 926 002a 7047     		bx	lr
 927              	.L31:
 928              		.align	2
 929              	.L30:
 930 002c 00000000 		.word	ch
 931              		.size	chMtxTryLock, .-chMtxTryLock
 932              		.section	.text.chMtxTryLockS,"ax",%progbits
 933              		.align	2
 934              		.p2align 4,,15
 935              		.global	chMtxTryLockS
 936              		.thumb
 937              		.thumb_func
 938              		.type	chMtxTryLockS, %function
 939              	chMtxTryLockS:
 940              		@ args = 0, pretend = 0, frame = 0
 941              		@ frame_needed = 0, uses_anonymous_args = 0
 942              		@ link register save eliminated.
 943 0000 8268     		ldr	r2, [r0, #8]
 944 0002 0346     		mov	r3, r0
 945 0004 0AB1     		cbz	r2, .L35
 946 0006 0020     		movs	r0, #0
 947 0008 7047     		bx	lr
 948              	.L35:
 949 000a 044A     		ldr	r2, .L36
 950 000c 0120     		movs	r0, #1
 951 000e 9269     		ldr	r2, [r2, #24]
 952 0010 916B     		ldr	r1, [r2, #56]
 953 0012 9A60     		str	r2, [r3, #8]
 954 0014 D960     		str	r1, [r3, #12]
 955 0016 9363     		str	r3, [r2, #56]
 956 0018 7047     		bx	lr
 957              	.L37:
 958 001a 00BF     		.align	2
 959              	.L36:
 960 001c 00000000 		.word	ch
 961              		.size	chMtxTryLockS, .-chMtxTryLockS
 962              		.section	.text.chMtxUnlock,"ax",%progbits
 963              		.align	2
 964              		.p2align 4,,15
 965              		.global	chMtxUnlock
 966              		.thumb
 967              		.thumb_func
 968              		.type	chMtxUnlock, %function
 969              	chMtxUnlock:
 970              		@ args = 0, pretend = 0, frame = 0
 971              		@ frame_needed = 0, uses_anonymous_args = 0
ARM GAS  /tmp/ccJjg49t.s 			page 62


 972 0000 38B5     		push	{r3, r4, r5, lr}
 973 0002 164B     		ldr	r3, .L50
 974 0004 0446     		mov	r4, r0
 975 0006 9869     		ldr	r0, [r3, #24]
 976 0008 2023     		movs	r3, #32
 977              	@ 546 "/home/cody/dev/chibios/trunk/os/ext/CMSIS/include/core_cmFunc.h" 1
 978 000a 83F31188 		MSR basepri, r3
 979              	@ 0 "" 2
 980              		.thumb
 981 000e 2568     		ldr	r5, [r4]
 982 0010 E368     		ldr	r3, [r4, #12]
 983 0012 AC42     		cmp	r4, r5
 984 0014 8363     		str	r3, [r0, #56]
 985 0016 1BD0     		beq	.L39
 986 0018 C16B     		ldr	r1, [r0, #60]
 987 001a 4BB1     		cbz	r3, .L40
 988              	.L42:
 989 001c 1A68     		ldr	r2, [r3]
 990 001e 9342     		cmp	r3, r2
 991 0020 03D0     		beq	.L41
 992 0022 9268     		ldr	r2, [r2, #8]
 993 0024 9142     		cmp	r1, r2
 994 0026 38BF     		it	cc
 995 0028 1146     		movcc	r1, r2
 996              	.L41:
 997 002a DB68     		ldr	r3, [r3, #12]
 998 002c 002B     		cmp	r3, #0
 999 002e F5D1     		bne	.L42
 1000              	.L40:
 1001 0030 2B68     		ldr	r3, [r5]
 1002 0032 AA6B     		ldr	r2, [r5, #56]
 1003 0034 8160     		str	r1, [r0, #8]
 1004 0036 2360     		str	r3, [r4]
 1005 0038 2846     		mov	r0, r5
 1006 003a 5C60     		str	r4, [r3, #4]
 1007 003c 0021     		movs	r1, #0
 1008 003e A560     		str	r5, [r4, #8]
 1009 0040 E260     		str	r2, [r4, #12]
 1010 0042 AC63     		str	r4, [r5, #56]
 1011 0044 FFF7FEFF 		bl	chSchWakeupS
 1012 0048 0023     		movs	r3, #0
 1013              	@ 546 "/home/cody/dev/chibios/trunk/os/ext/CMSIS/include/core_cmFunc.h" 1
 1014 004a 83F31188 		MSR basepri, r3
 1015              	@ 0 "" 2
 1016              		.thumb
 1017 004e 38BD     		pop	{r3, r4, r5, pc}
 1018              	.L39:
 1019 0050 0023     		movs	r3, #0
 1020 0052 A360     		str	r3, [r4, #8]
 1021 0054 0023     		movs	r3, #0
 1022              	@ 546 "/home/cody/dev/chibios/trunk/os/ext/CMSIS/include/core_cmFunc.h" 1
 1023 0056 83F31188 		MSR basepri, r3
 1024              	@ 0 "" 2
 1025              		.thumb
 1026 005a 38BD     		pop	{r3, r4, r5, pc}
 1027              	.L51:
 1028              		.align	2
ARM GAS  /tmp/ccJjg49t.s 			page 63


 1029              	.L50:
 1030 005c 00000000 		.word	ch
 1031              		.size	chMtxUnlock, .-chMtxUnlock
 1032              		.section	.text.chMtxUnlockS,"ax",%progbits
 1033              		.align	2
 1034              		.p2align 4,,15
 1035              		.global	chMtxUnlockS
 1036              		.thumb
 1037              		.thumb_func
 1038              		.type	chMtxUnlockS, %function
 1039              	chMtxUnlockS:
 1040              		@ args = 0, pretend = 0, frame = 0
 1041              		@ frame_needed = 0, uses_anonymous_args = 0
 1042              		@ link register save eliminated.
 1043 0000 30B4     		push	{r4, r5}
 1044 0002 124A     		ldr	r2, .L63
 1045 0004 0446     		mov	r4, r0
 1046 0006 2568     		ldr	r5, [r4]
 1047 0008 C368     		ldr	r3, [r0, #12]
 1048 000a 9069     		ldr	r0, [r2, #24]
 1049 000c AC42     		cmp	r4, r5
 1050 000e 8363     		str	r3, [r0, #56]
 1051 0010 17D0     		beq	.L53
 1052 0012 C16B     		ldr	r1, [r0, #60]
 1053 0014 4BB1     		cbz	r3, .L54
 1054              	.L56:
 1055 0016 1A68     		ldr	r2, [r3]
 1056 0018 9342     		cmp	r3, r2
 1057 001a 03D0     		beq	.L55
 1058 001c 9268     		ldr	r2, [r2, #8]
 1059 001e 9142     		cmp	r1, r2
 1060 0020 38BF     		it	cc
 1061 0022 1146     		movcc	r1, r2
 1062              	.L55:
 1063 0024 DB68     		ldr	r3, [r3, #12]
 1064 0026 002B     		cmp	r3, #0
 1065 0028 F5D1     		bne	.L56
 1066              	.L54:
 1067 002a AA6B     		ldr	r2, [r5, #56]
 1068 002c 2B68     		ldr	r3, [r5]
 1069 002e 8160     		str	r1, [r0, #8]
 1070 0030 2360     		str	r3, [r4]
 1071 0032 2846     		mov	r0, r5
 1072 0034 5C60     		str	r4, [r3, #4]
 1073 0036 A560     		str	r5, [r4, #8]
 1074 0038 E260     		str	r2, [r4, #12]
 1075 003a AC63     		str	r4, [r5, #56]
 1076 003c 30BC     		pop	{r4, r5}
 1077 003e FFF7FEBF 		b	chSchReadyI
 1078              	.L53:
 1079 0042 0023     		movs	r3, #0
 1080 0044 A360     		str	r3, [r4, #8]
 1081 0046 30BC     		pop	{r4, r5}
 1082 0048 7047     		bx	lr
 1083              	.L64:
 1084 004a 00BF     		.align	2
 1085              	.L63:
ARM GAS  /tmp/ccJjg49t.s 			page 64


 1086 004c 00000000 		.word	ch
 1087              		.size	chMtxUnlockS, .-chMtxUnlockS
 1088              		.section	.text.chMtxUnlockAll,"ax",%progbits
 1089              		.align	2
 1090              		.p2align 4,,15
 1091              		.global	chMtxUnlockAll
 1092              		.thumb
 1093              		.thumb_func
 1094              		.type	chMtxUnlockAll, %function
 1095              	chMtxUnlockAll:
 1096              		@ args = 0, pretend = 0, frame = 0
 1097              		@ frame_needed = 0, uses_anonymous_args = 0
 1098 0000 134A     		ldr	r2, .L76
 1099 0002 70B5     		push	{r4, r5, r6, lr}
 1100 0004 2023     		movs	r3, #32
 1101 0006 9469     		ldr	r4, [r2, #24]
 1102              	@ 546 "/home/cody/dev/chibios/trunk/os/ext/CMSIS/include/core_cmFunc.h" 1
 1103 0008 83F31188 		MSR basepri, r3
 1104              	@ 0 "" 2
 1105              		.thumb
 1106 000c A36B     		ldr	r3, [r4, #56]
 1107 000e D3B1     		cbz	r3, .L66
 1108 0010 0026     		movs	r6, #0
 1109 0012 0BE0     		b	.L70
 1110              	.L75:
 1111 0014 956B     		ldr	r5, [r2, #56]
 1112 0016 1168     		ldr	r1, [r2]
 1113 0018 1046     		mov	r0, r2
 1114 001a 1960     		str	r1, [r3]
 1115 001c 4B60     		str	r3, [r1, #4]
 1116 001e 9A60     		str	r2, [r3, #8]
 1117 0020 DD60     		str	r5, [r3, #12]
 1118 0022 9363     		str	r3, [r2, #56]
 1119 0024 FFF7FEFF 		bl	chSchReadyI
 1120 0028 A36B     		ldr	r3, [r4, #56]
 1121 002a 43B1     		cbz	r3, .L74
 1122              	.L70:
 1123 002c 1A68     		ldr	r2, [r3]
 1124 002e D968     		ldr	r1, [r3, #12]
 1125 0030 9342     		cmp	r3, r2
 1126 0032 A163     		str	r1, [r4, #56]
 1127 0034 EED1     		bne	.L75
 1128 0036 9E60     		str	r6, [r3, #8]
 1129 0038 A36B     		ldr	r3, [r4, #56]
 1130 003a 002B     		cmp	r3, #0
 1131 003c F6D1     		bne	.L70
 1132              	.L74:
 1133 003e E36B     		ldr	r3, [r4, #60]
 1134 0040 A360     		str	r3, [r4, #8]
 1135 0042 FFF7FEFF 		bl	chSchRescheduleS
 1136              	.L66:
 1137 0046 0023     		movs	r3, #0
 1138              	@ 546 "/home/cody/dev/chibios/trunk/os/ext/CMSIS/include/core_cmFunc.h" 1
 1139 0048 83F31188 		MSR basepri, r3
 1140              	@ 0 "" 2
 1141              		.thumb
 1142 004c 70BD     		pop	{r4, r5, r6, pc}
ARM GAS  /tmp/ccJjg49t.s 			page 65


 1143              	.L77:
 1144 004e 00BF     		.align	2
 1145              	.L76:
 1146 0050 00000000 		.word	ch
 1147              		.size	chMtxUnlockAll, .-chMtxUnlockAll
 1148              		.comm	__gnu_lto_v1,1,1
 1149 0054 AFF30080 		.ident	"GCC: (GNU Tools for ARM Embedded Processors) 4.8.4 20140526 (release) [ARM/embedded-4_8-br
 1149      AFF30080 
 1149      AFF30080 
ARM GAS  /tmp/ccJjg49t.s 			page 66


DEFINED SYMBOLS
                            *ABS*:0000000000000000 chmtx.c
     /tmp/ccJjg49t.s:724    .text.chMtxObjectInit:0000000000000000 $t
     /tmp/ccJjg49t.s:730    .text.chMtxObjectInit:0000000000000000 chMtxObjectInit
     /tmp/ccJjg49t.s:741    .text.chMtxLockS:0000000000000000 $t
     /tmp/ccJjg49t.s:747    .text.chMtxLockS:0000000000000000 chMtxLockS
     /tmp/ccJjg49t.s:861    .text.chMtxLockS:00000000000000c4 $d
     /tmp/ccJjg49t.s:864    .text.chMtxLock:0000000000000000 $t
     /tmp/ccJjg49t.s:870    .text.chMtxLock:0000000000000000 chMtxLock
     /tmp/ccJjg49t.s:888    .text.chMtxTryLock:0000000000000000 $t
     /tmp/ccJjg49t.s:894    .text.chMtxTryLock:0000000000000000 chMtxTryLock
     /tmp/ccJjg49t.s:930    .text.chMtxTryLock:000000000000002c $d
     /tmp/ccJjg49t.s:933    .text.chMtxTryLockS:0000000000000000 $t
     /tmp/ccJjg49t.s:939    .text.chMtxTryLockS:0000000000000000 chMtxTryLockS
     /tmp/ccJjg49t.s:960    .text.chMtxTryLockS:000000000000001c $d
     /tmp/ccJjg49t.s:963    .text.chMtxUnlock:0000000000000000 $t
     /tmp/ccJjg49t.s:969    .text.chMtxUnlock:0000000000000000 chMtxUnlock
     /tmp/ccJjg49t.s:1030   .text.chMtxUnlock:000000000000005c $d
     /tmp/ccJjg49t.s:1033   .text.chMtxUnlockS:0000000000000000 $t
     /tmp/ccJjg49t.s:1039   .text.chMtxUnlockS:0000000000000000 chMtxUnlockS
     /tmp/ccJjg49t.s:1086   .text.chMtxUnlockS:000000000000004c $d
     /tmp/ccJjg49t.s:1089   .text.chMtxUnlockAll:0000000000000000 $t
     /tmp/ccJjg49t.s:1095   .text.chMtxUnlockAll:0000000000000000 chMtxUnlockAll
     /tmp/ccJjg49t.s:1146   .text.chMtxUnlockAll:0000000000000050 $d
                            *COM*:0000000000000001 __gnu_lto_v1
     /tmp/ccJjg49t.s:863    .text.chMtxLockS:00000000000000c8 $t
     /tmp/ccJjg49t.s:1149   .text.chMtxUnlockAll:0000000000000054 $t

UNDEFINED SYMBOLS
chSchGoSleepS
chSchReadyI
ch
chSchWakeupS
chSchRescheduleS
