ARM GAS  /tmp/cctldZmN.s 			page 1


   1              		.syntax unified
   2              		.cpu cortex-m3
   3              		.fpu softvfp
   4              		.eabi_attribute 20, 1
   5              		.eabi_attribute 21, 1
   6              		.eabi_attribute 23, 3
   7              		.eabi_attribute 24, 1
   8              		.eabi_attribute 25, 1
   9              		.eabi_attribute 26, 1
  10              		.eabi_attribute 30, 2
  11              		.eabi_attribute 34, 1
  12              		.eabi_attribute 18, 4
  13              		.thumb
  14              		.file	"chprintf.c"
  15              		.section	.gnu.lto_.jmpfuncs.4ad075b915ff6199,"",%progbits
  16 0000 789C6362 		.ascii	"x\234cb`b\300\006\026@if\006~Fv\026\010\233)\2021\223"
  16      6062C006 
  16      16406966 
  16      067E4676 
  16      16089B29 
  17 0017 11C46081 		.ascii	"\021\304`\201\363\030\271\220\204\231\230\201D\031\210"
  17      F318B990 
  17      84999881 
  17      441988
  18 0026 554F2687 		.ascii	"UO&\207\235\021d#\0101\201\305\230\240\2463A,\005\253"
  18      9D116423 
  18      083181C5 
  18      98A0A633 
  18      412C05AB 
  19 003a 6584D90D 		.ascii	"e\204\331\015\3421\000\000\2103\012\232"
  19      E2310000 
  19      88330A9A 
  20              		.text
  21              		.section	.gnu.lto_.inline.4ad075b915ff6199,"",%progbits
  22 0000 789C6362 		.ascii	"x\234cb`b\300\006\276@if\006\006\311/\314\214,\314\351"
  22      6062C006 
  22      BE406966 
  22      0606C92F 
  22      CC8C2CCC 
  23 0015 118C998C 		.ascii	"\021\214\231\214`\221\0148\013L\202\010\026\265y{m\030"
  23      60910C38 
  23      0B4C8208 
  23      16B5797B 
  23      6D18
  24 0027 D816C833 		.ascii	"\330\026\31031\260,\220\027``\272\300\257\000\226\343"
  24      31B02C90 
  24      176060BA 
  24      C0AF0096 
  24      E3
  25 0038 39C3B852 		.ascii	"9\303\270R\231\221\201i7\323\215[s\231\030\204\017\335"
  25      99918169 
  25      37D38D5B 
  25      73991884 
  25      0FDD
  26 004a E306DBC7 		.ascii	"\343\006\333\307\306\317\310\300\3020\301o\202\037\204"
  26      C6CFC8C0 
  26      C230C16F 
ARM GAS  /tmp/cctldZmN.s 			page 2


  26      821F84
  27 0059 096631B0 		.ascii	"\011f1\260\012210\235`\274\313\016eL\360\0033\026\261"
  27      0A323130 
  27      9D60BCCB 
  27      0E654CF0 
  27      033316B1 
  28 006d B64AB10A 		.ascii	"\266J\261\012\002M\001\251\0023Z\370'\3701IH\030\002"
  28      024D01A9 
  28      02335AF8 
  28      27F83149 
  28      481802
  29 0080 9D00760D 		.ascii	"\235\000v\0153\310\256t8\013\354$\256\037\216\310.z"
  29      33C8AE74 
  29      380BEC24 
  29      AE1F8EC8 
  29      2E7A
  30 0092 C12EC002 		.ascii	"\301.\300\002\363\034#\003+\037\310k \363\230y\030@"
  30      F31C2303 
  30      2B1FC86B 
  30      20F39879 
  30      1840
  31 00a4 41001280 		.ascii	"A\000\022\200:\210\001\000I\305%\231"
  31      3A880100 
  31      49C52599 
  32              		.text
  33              		.section	.gnu.lto_.pureconst.4ad075b915ff6199,"",%progbits
  34 0000 789C6362 		.ascii	"x\234cb`b`g\200\000f\006)F)&)\000\001\313\000`"
  34      60626067 
  34      80006606 
  34      29462926 
  34      290001CB 
  35              		.text
  36              		.section	.gnu.lto_long_to_string_with_divisor.4ad075b915ff6199,"",%progbits
  37 0000 789C8D55 		.ascii	"x\234\215UKhUW\024\335\373\234\373\313\273\367\371O"
  37      4B685557 
  37      14DDFB9C 
  37      FBCBBBF7 
  37      F94F
  38 0012 6C62FE21 		.ascii	"lb\376!u \3445\012\225\342@2\021\235\033\260\303\370"
  38      7520E435 
  38      0A95E240 
  38      32119D1B 
  38      B0C3F8
  39 0025 8CD7879F 		.ascii	"\214\327\207\237\324\370A\235\344\276\274\010\261y\245"
  39      D4F8419D 
  39      E4BEBC08 
  39      B179A5
  40 0034 519CD44A 		.ascii	"Q\234\324Ji\220\"E%h\351\244*\304\037F\264\037q\364"
  40      69902245 
  40      2568E9A4 
  40      2AC41F46 
  40      B41F71F4 
  41 0048 502193C6 		.ascii	"P!\223\306A\374\264tT\252^\3279\367\343k(4\027\262\367"
  41      41FCB474 
  41      54AA5ED7 
  41      39F7E36B 
  41      283417B2 
ARM GAS  /tmp/cctldZmN.s 			page 3


  42 005d BD6BAFBD 		.ascii	"\275k\257\275\317\336\353\354$\202\004\315\177N\342"
  42      CFDEEBEC 
  42      248204CD 
  42      7F4EE2
  43 006c 67D624DA 		.ascii	"g\326$\332\002\317Yb1\376\013Q\321\021\302\030]MAF*"
  43      02CF5962 
  43      31FE0B51 
  43      D111C218 
  43      5D4D4146 
  44 0081 EB493622 		.ascii	"\353I6\"\330`3z1\205\245\343\266\216[lG\260-\274\362"
  44      D860337A 
  44      3185A5E3 
  44      B68E5B6C 
  44      47B02DBC 
  45 0096 5D02EE8C 		.ascii	"]\002\356\214\330\300\275\210\336\343pM\024\257\021"
  45      D8C0BD88 
  45      DEE3704D 
  45      14AF11
  46 00a5 6E14CFE8 		.ascii	"n\024\317\350\270\033\341=\031f\345\211iHH\303\264l"
  46      B81BE13D 
  46      1966E589 
  46      694848C3 
  46      B46C
  47 00b7 CFA97133 		.ascii	"\317\251q3<\364)\253\026\315v\232\010\202S3w\036\237"
  47      3CF429AB 
  47      16CD769A 
  47      08825333 
  47      771E9F
  48 00ca AEFFFCDB 		.ascii	"\256\377\374\333\341\361\340m\030r\2011\314\307Ly\246"
  48      E1F1E06D 
  48      18728131 
  48      CCC74C79 
  48      A6
  49 00db 6DF8E056 		.ascii	"m\370\340V\355\204\361\357\351\242\314\251\277'\356"
  49      ED84F1EF 
  49      E9A2CCA9 
  49      BF27EE
  50 00ea 4D70702A 		.ascii	"Mpp*(\376\021\206\213u\346\206\005e\216O\275yZ\316\214"
  50      28FE1186 
  50      8B75E686 
  50      05658E4F 
  50      BD795ACE 
  51 00ff 17478330 		.ascii	"\027G\2030\034*\260\024\324\263\300\274+\375\323\301"
  51      1C2AB014 
  51      D4B3C0BC 
  51      2BFDD3C1 
  52 010f C854186E 		.ascii	"\310T\030n\324Y\233\026\330\347\217\277OW\265i\010\332"
  52      D4599B16 
  52      D8E78FBF 
  52      4F57B569 
  52      08DA
  53 0121 FC7F8993 		.ascii	"\374\177\211\223bj&\014\313c\337\314~\300\0372\355U"
  53      626A260C 
  53      CB63DFCC 
  53      7EC01F32 
  53      ED55
  54 0133 B3F5F179 		.ascii	"\263\365\361yn'\031{\003\376{x3\366\026Hl+\343(\343"
ARM GAS  /tmp/cctldZmN.s 			page 4


  54      6E27197B 
  54      03FE7B78 
  54      33F61648 
  54      6C2BE328 
  55 0148 328C0723 		.ascii	"2\214\007#\2620\264(f-\201\237\200_\012P.#h\266<\256"
  55      B230B428 
  55      662D819F 
  55      805F0A50 
  55      2E2368B6 
  56 015e B722F6B5 		.ascii	"\267\"\366\265\261\257\2133V\202d\326+f\203\252\273"
  56      B1AF8B33 
  56      568264D6 
  56      2B6683AA 
  56      BB
  57 016f 0AF039C0 		.ascii	"\012\3609\300\215\012iRH3\336d\013\340\357\000\267\306"
  57      8D0A6952 
  57      4833DE64 
  57      0BE0EF00 
  57      B7C6
  58 0181 D96DAAE5 		.ascii	"\331m\252\345\366\270D\207*\321\031G\324\305\323\010"
  58      F6B84487 
  58      2AD11947 
  58      D4C5D308 
  59 0191 B46C8DBE 		.ascii	"\264l\215\276#\012)=\360l\205\305\012\365\262\200\223"
  59      230A293D 
  59      F06C85C5 
  59      0AF5B280 
  59      93
  60 01a2 D374FBD9 		.ascii	"\323t\373\331\215\353\365}|\201M\362\331SJY\3252meI"
  60      8DEBF57D 
  60      7C814DF2 
  60      D9534A59 
  60      D5326D65 
  61 01b7 37A5EC65 		.ascii	"7\245\354eC\321\177\246\322X\351\2075\011}\221\317Y"
  61      43D17FA6 
  61      D258E987 
  61      35097D91 
  61      CF59
  62 01c9 ADADABB9 		.ascii	"\255\255\253\271\025\262}v\305\3531\013\225\344\351"
  62      15B27D76 
  62      C5EB310B 
  62      95E4E9
  63 01d8 2CE11493 		.ascii	",\341\024\223\260\237\310\033~Y\272z_$\211K|u\012\252"
  63      B09FC81B 
  63      7E59BA7A 
  63      5F24894B 
  63      7C750AAA 
  64 01ec 7D251368 		.ascii	"}%\023h\231F\227*\024\334\346\004^\216\210f\216\226"
  64      9946972A 
  64      14DCE604 
  64      5E8E8866 
  64      8E96
  65 01fe AEA7DC15 		.ascii	"\256\247\334\025\300\325\271\362#\234\212\021fo\374"
  65      C0D5B9F2 
  65      239C8A11 
  65      666FFC
  66 020d D997C674 		.ascii	"\331\227\306t\340\223t\200\012\031h\324xp\211}\256\363"
ARM GAS  /tmp/cctldZmN.s 			page 5


  66      E0937480 
  66      0A1968D4 
  66      7870897D 
  66      AEF3
  67 021f 2EFE6A55 		.ascii	".\376jU\010\355\271\306\223\013\000\032\274k\257\270"
  67      08EDB9C6 
  67      930B001A 
  67      BC6BAFB8 
  68 022f 428ECFB6 		.ascii	"B\216\317\266\201\317&\357\301\227\031\325\265E\243"
  68      81CF26EF 
  68      C19719D5 
  68      B545A3
  69 023e ABA53EF4 		.ascii	"\253\245>\364\331}N*\327&\247\256\217K\367b\033\242"
  69      D97D4E2A 
  69      D726A7AE 
  69      8F4BF762 
  69      1BA2
  70 0250 E9A0CADC 		.ascii	"\351\240\312\334\243\224X\347\263\241e\011\361,&=\322"
  70      A39458E7 
  70      B3A16509 
  70      F12C263D 
  70      D2
  71 0261 5CDAFC4A 		.ascii	"\\\332\374J\037\322+hK\204|Mg\212A\020\270\270A\244"
  71      1FD22B68 
  71      4B847C4D 
  71      678A4110 
  71      B8B841A4 
  72 0275 AABC6853 		.ascii	"\252\274hS\301\324\203\177Qz\265!\311\255\257\026)\255"
  72      C1D4837F 
  72      517AB521 
  72      C9ADAF16 
  72      29AD
  73 0287 D88040AC 		.ascii	"\330\200@\254\333_\267R\215W\371\330S] %6jt~z\023\002"
  73      DB5FB752 
  73      8D57F9D8 
  73      535D2025 
  73      366A747E 
  74 029e 4AC691E7 		.ascii	"J\306\221\347E;\305\346-B\205\004\2445_\277\200J\265"
  74      453BC5E6 
  74      2D428504 
  74      A4355FBF 
  74      804AB5
  75 02b1 D6D9494B 		.ascii	"\326\331IKm\206G\370\223\304\2758F\257\306\360\\\351"
  75      6D8647F8 
  75      93C4BD38 
  75      46AFC6F0 
  75      5CE9
  76 02c3 9FB4D366 		.ascii	"\237\264\323f\210>o\360\026\214\247\033:Q\252K\260V"
  76      883E6FF0 
  76      168CA71B 
  76      3A51AA4B 
  76      B056
  77 02d5 CD6C49F4 		.ascii	"\315lI\364\254y\257\347\271r\332L\233\317\254\365d\255"
  77      AC79AFE7 
  77      B972DA4C 
  77      9BCFACF5 
  77      64AD
ARM GAS  /tmp/cctldZmN.s 			page 6


  78 02e7 2582C792 		.ascii	"%\202\307\222P\273\317fUh\370\247\343\203I\250\003\302"
  78      50BBCF66 
  78      5568F8A7 
  78      E38349A8 
  78      03C2
  79 02f9 B216D57C 		.ascii	"\262\026\325|/\252&\335\373\315\372\017\351\271Z\372"
  79      2FAA26DD 
  79      FBCDFA0F 
  79      E9B95AFA 
  80 0309 8E78E7CE 		.ascii	"\216x\347\316\227\323\366;}\226\372\372\303\344\341"
  80      97D3F63B 
  80      7D96FAFA 
  80      C3E4E1
  81 0318 A148B6F4 		.ascii	"\241H\266\364\342;u\274Z5\310\225u`\332\334\362\345"
  81      E23B75BC 
  81      5A35C895 
  81      7560DADC 
  81      F2E5
  82 032a C60A494C 		.ascii	"\306\012IL\354<\237\004\320\351\236\275\354UH]\271\203"
  82      EC3C9F04 
  82      D0E99EBD 
  82      EC55485D 
  82      B983
  83 033c A5C42460 		.ascii	"\245\304$`\034Q\252\272\261\252\031\245\352C*\316\214"
  83      1C51AABA 
  83      B1AA19A5 
  83      EA432ACE 
  83      8C
  84 034d E5532192 		.ascii	"\345S!\222\337IFL\375GZ\227\3335\260\267?\227\037\330"
  84      DF49464C 
  84      FD475A97 
  84      DB35B0B7 
  84      3F971FD8 
  85 0361 7134B7A3 		.ascii	"q4\267\243\377p.\277\253\260\2750p wp\360\320\276\335"
  85      FF702EBF 
  85      ABB0BD30 
  85      70207770 
  85      F0D0BEDD 
  86 0375 39BC1CEE 		.ascii	"9\274\034\356\033,\014\034:\200\300g\203\205}\007wv"
  86      1B2C0C1C 
  86      3A80C067 
  86      83857D07 
  86      7776
  87 0387 E5C9D8D3 		.ascii	"\345\311\330\323\325\335m\356\201]k\354\357\352^\207"
  87      D5DD6DEE 
  87      815D6BEC 
  87      EFEA5E87 
  88 0397 96F7BF03 		.ascii	"\226\367\277\003\260O}\277"
  88      B04F7DBF 
  89              		.text
  90              		.section	.gnu.lto_chvprintf.4ad075b915ff6199,"",%progbits
  91 0000 789C9D3A 		.ascii	"x\234\235:it\224U\226\357~\225JU*\225}\337C\026\262"
  91      69749455 
  91      96EF7E95 
  91      4A552A95 
  91      7DDF4316 
  92 0015 41C29E10 		.ascii	"A\302\236\020\262\260i\267\266\3731\012\242\322!\011"
ARM GAS  /tmp/cctldZmN.s 			page 7


  92      B2B069B7 
  92      B6FB310A 
  92      A2D22109 
  93 0025 1F750C09 		.ascii	"\037u\014\011\206\204\311\014\203THT\324j\001I 3l\001"
  93      8684C90C 
  93      83544854 
  93      D46A0149 
  93      20336C01 
  94 0039 823482A2 		.ascii	"\2024\202\242\"\015-qH\320\323\332\210\3648\352\301"
  94      220D2D71 
  94      48D0D3DA 
  94      88F438EA 
  94      C1
  95 004a 6AF0343D 		.ascii	"j\3604=\216\243-\234iu\332\351\226\246\255\271\367-"
  95      8EA32D9C 
  95      6975DAE9 
  95      96A6ADB9 
  95      F72D
  96 005c 5F6DF158 		.ascii	"_m\361Xv\375x\367\275\273\275\273\275\373\275\357;\245"
  96      76FD78F7 
  96      BDBBBDBB 
  96      BDFBBDEF 
  96      3BA5
  97 006e 318D05FE 		.ascii	"1\215\005\376\026\233\030\213\314gl\003\316a!\003m\363"
  97      169B188B 
  97      CC676C03 
  97      CE612103 
  97      6DF3
  98 0080 79C67AAC 		.ascii	"y\306z\254\032\204\211\211IL\346\205i\346>\013s\332"
  98      1A848989 
  98      494CE685 
  98      69E63E0B 
  98      73DA
  99 0092 C25D6F32 		.ascii	"\302]o2\346\264\233\001\010\315\3025Ko1\242\255?\233"
  99      E6B49B01 
  99      08CDC235 
  99      4B6F31A2 
  99      AD3F9B
 100 00a5 88580B98 		.ascii	"\210X\013\230\204\224U\213\370\"\011\321\266\241*DG"
 100      8494558B 
 100      F82209D1 
 100      B6A12A44 
 100      47
 101 00b6 804DA06D 		.ascii	"\200M\240mZ$G\3339:\022\354\002m\207(1\211\322b7\026"
 101      5A2447DB 
 101      393A12EC 
 101      026D8728 
 101      3189D262 
 102 00cc 213D9A46 		.ascii	"!=\232F{\264\026\3037\263\305\321\316\366\030\210\025"
 102      7BB416C3 
 102      37B3C5D1 
 102      CEF61888 
 102      15
 103 00dd 5CB1827D 		.ascii	"\\\261\202}\314\032\247\305su)\\]<$\020\032\022\264"
 103      CC1AA7C5 
 103      7375295C 
 103      5D3C2410 
ARM GAS  /tmp/cctldZmN.s 			page 8


 103      1A12B4
 104 00f0 64AE2491 		.ascii	"d\256$\221+I\324\222\204\222\024\256$\011\222\205\222"
 104      2B49D492 
 104      849214AE 
 104      24099285 
 104      92
 105 0101 64C13D66 		.ascii	"d\301=fM\321\322\270\222T\256$U\2562\370*MK\347\252"
 105      4DD1D2B8 
 105      9254AE24 
 105      55AE32F8 
 105      2A4D4BE7 
 106 0116 32B9AA74 		.ascii	"2\271\252t\310\024\262\031j\222i\2316\020\311\234\326"
 106      C814B219 
 106      6A926999 
 106      3610C99C 
 106      D6
 107 0127 897C9CCC 		.ascii	"\211|\234\314\307I|,\347c\026\037\263\305\034\246\013"
 107      C7497C2C 
 107      E763161F 
 107      B3C51CA6 
 107      0B
 108 0138 A16C2DE7 		.ascii	"\241l-\347\022\"l\271\257\234\241H\346@\256\300\347"
 108      12226CB9 
 108      AF9CA148 
 108      E640AEC0 
 108      E7
 109 0149 6A13F866 		.ascii	"j\023\370fy|\263\011\220'\320yP &\371b2f-\320\012\317"
 109      797CB309 
 109      9027D079 
 109      502026F9 
 109      6232662D 
 110 0160 9F2597A6 		.ascii	"\237%\227\246\2371!g\241\226\357\273\234\250\025q5\305"
 110      9F312167 
 110      A196EFBB 
 110      9CA81571 
 110      35C5
 111 0172 5C4D1194 		.ascii	"\\M\021\224\010\351b5)\321J]\344aY\337l\244\227B\231"
 111      08E96235 
 111      29D14A5D 
 111      E46159DF 
 111      6CA49742 
 112 0187 409729F3 		.ascii	"@\227)\363&A\271\230LV\223r\255\202k\234\3025V\300T"
 112      2641B998 
 112      4C569372 
 112      AD826B9C 
 112      C23556C0 
 113 019c 819EA226 		.ascii	"\201\236\242&S\225\35045\231\256\315\340{\314\344{\314"
 113      5395E834 
 113      3599AECD 
 113      E07BCCE4 
 113      7BCC
 114 01ae 8099023D 		.ascii	"\200\231\002=S\233\305UTru\263\240R\240+\265*\316]\313"
 114      539BC555 
 114      547275B3 
 114      A052A02B 
 114      B52ACE5D 
 115 01c3 B9ABB4D9 		.ascii	"\271\253\264\331<\003sx\006fk\325\027m\264:\376:\005"
ARM GAS  /tmp/cctldZmN.s 			page 9


 115      3C037378 
 115      06666BD5 
 115      176DB43A 
 115      FE3A05
 116 01d6 AB1AE608 		.ascii	"\253\032\346\010\2319P\303\223]\243-\020\351\255\345"
 116      993950C3 
 116      935DA32D 
 116      10E9ADE5 
 117 01e6 E97D9D09 		.ascii	"\351}\235\011\374\274Z\250\347\364:\001\307\254\365"
 117      FCBC5AA8 
 117      E7F43A01 
 117      C7ACF5
 118 01f5 5A9D609C 		.ascii	"Z\235`\234\313\031G\031\314\347\014cr2f=\303\264y\202"
 118      CB194719 
 118      CCE70C63 
 118      7232663D 
 118      C3B47982 
 119 0209 C5C45980 		.ascii	"\305\304Y\200\255\327La\346p\2135\302\026i\217\212\216"
 119      ADD74C61 
 119      E6708B35 
 119      C216698F 
 119      8A8E
 120 021b 898D8B4F 		.ascii	"\211\215\213OHLJNIMK\317\310\314\312\316\311\235\220"
 120      484C4A4E 
 120      494D4BCF 
 120      C8CCCACE 
 120      C99D90
 121 022e 975F5038 		.ascii	"\227_P8\261\250\270\244\264l\322\344\362\212)S\247M"
 121      B1A8B8A4 
 121      B46CD2E4 
 121      F28A2953 
 121      A74D
 122 0240 9F317356 		.ascii	"\2371sVe\325\354\35295\257\263\332\272\372Q6\306\316"
 122      65D5ECEA 
 122      3935AFB3 
 122      DABAFA51 
 122      36C6CE
 123 0253 3058BF18 		.ascii	"0X\277\030\350\250E\347\261\275N\347\346\313\007\276"
 123      E8A845E7 
 123      B1BD4EE7 
 123      E6CB07BE 
 124 0263 FD35FC4B 		.ascii	"\3755\374K\377h\337\220\363\272\307\003\340\000<\226"
 124      FF68DF90 
 124      F3BAC703 
 124      E0003C96 
 125 0273 B3803501 		.ascii	"\263\2005\001[\204\013\310\345@\013\363?\247B\326\371"
 125      5B840BC8 
 125      E5400BF3 
 125      3FA742D6 
 125      F9
 126 0284 F2CF9D11 		.ascii	"\362\317\235\021\\\316\304\305\252C\022{f\364\2537\355"
 126      5CCEC4C5 
 126      AA43127B 
 126      66F4AB37 
 126      ED
 127 0295 9B7B363A 		.ascii	"\233{6:=\236\365\0160i\254.41\347\251\346\267\234}\243"
 127      3D9EF50E 
ARM GAS  /tmp/cctldZmN.s 			page 10


 127      3069AC2E 
 127      3431E7A9 
 127      E6B79C7D 
 128 02aa 1E4F3D97 		.ascii	"\036O=\227\232\033\242\324\273\367\017*\2510\215\315"
 128      9A1BA2D4 
 128      BBF70F2A 
 128      A9308DCD 
 129 02ba F74A5985 		.ascii	"\367JY\205\024\214+u\301OjaHR\233G\277~\363m@\341\236"
 129      148C2B75 
 129      C14F6A61 
 129      48529B47 
 129      BF7EF36D 
 130 02d1 2F3C9E18 		.ascii	"/<\236\030\036\221\237\204\030\310\343^\327P\352\326"
 130      1E919F84 
 130      18C8E35E 
 130      D750EAD6 
 131 02e1 10A52EFA 		.ascii	"\020\245.\372I\335\033\232\324\350\237\003\215| \304"
 131      49DD1B9A 
 131      D4E89F03 
 131      8D7C20C4 
 132 02f1 B47DF3B8 		.ascii	"\264}\363\270+\305y\031\367\375\026\013\305\001f\215"
 132      2BC57919 
 132      F7FD160B 
 132      C501668D 
 133 0301 2D0D319A 		.ascii	"-\0151\232\357y\243\211Rz\210\321\374\353\343\2564\347"
 133      EF79A389 
 133      527A88D1 
 133      FCEBE3AE 
 133      34E7
 134 0313 D006B55F 		.ascii	"\320\006\265_\270\306:B\261tt\363h\377\315F}Y4\326\351"
 134      B8C63A42 
 134      B17474F3 
 134      68FFCD46 
 134      7D5934D6 
 135 0328 95FAA990 		.ascii	"\225\372\251\220\262\373K\035\325F/{<\256\323#\256s"
 135      B2FB4B1D 
 135      D5462F7B 
 135      3CAED323 
 135      AE73
 136 033a 70563B01 		.ascii	"pV;\001\300VR\\p0\321\020F\203\231\206p\032,4XY#\034"
 136      C056525C 
 136      7030D110 
 136      46839986 
 136      701A2C34 
 137 0352 843C1681 		.ascii	"\204<\026\201\360\000B\233\\GJh\2270J\302h\011c\020"
 137      F000429B 
 137      5C474A68 
 137      97304AC2 
 137      68096310 
 138 0366 1E42182B 		.ascii	"\036B\030+a\234\204\361\022&H\230\210\3600\302$\011"
 138      619C84F1 
 138      12264898 
 138      88F030C2 
 138      2409
 139 0378 93113E8F 		.ascii	"\223\021>\2170E\302T\204G\021\246I\230.a\206\204\231"
 139      3045C254 
 139      844711A6 
ARM GAS  /tmp/cctldZmN.s 			page 11


 139      49982E61 
 139      868499
 140 038b 085F4298 		.ascii	"\010_B\230%a\266\2049\022\346J8A\302<\204\307\020\346"
 140      2561B684 
 140      3912E64A 
 140      3841C23C 
 140      84C710E6 
 141 039f 4B582061 		.ascii	"KX a\241\204\023\021\036GX\204\360\004\302b\204\277"
 141      A1841311 
 141      1E475884 
 141      F004C262 
 141      84BF
 142 03b1 44582261 		.ascii	"DX\"a\251\204U\200\301\251\246\010\315\221\236\324\""
 142      A9845580 
 142      C1A9A608 
 142      CD919ED4 
 142      22
 143 03c2 06EA9803 		.ascii	"\006\352\230\003\254\3658D\314\223\012\347\343\"l\001"
 143      ACF53844 
 143      CC930AE7 
 143      E3226C01 
 144 03d2 312EA4D9 		.ascii	"1.\244\331\0154\273\221\206\037I\271\037\023\372&\034"
 144      0D34BB91 
 144      861F49B9 
 144      1F13FA26 
 144      1C
 145 03e3 6C37D370 		.ascii	"l7\323p\013\016\354VI\273\215\030o\227\213;\210\361"
 145      0B0EEC56 
 145      49BB8D18 
 145      6F978B3B 
 145      88F1
 146 03f5 4EE2B98B 		.ascii	"N\342\271\213\206\273\211\261A\322\356\221\341\270\227"
 146      86BB89B1 
 146      41D2EE91 
 146      E1B897
 147 0404 908BE462 		.ascii	"\220\213\344b1\011\334'\035ZB\213\373%\345\001\322\373"
 147      3109DC27 
 147      1D5A428B 
 147      FB25E501 
 147      D2FB
 148 0416 200D4BA5 		.ascii	" \015K\245\231\215\244r\031\015\315\244\242\205\270"
 148      998DA472 
 148      190DCDA4 
 148      A285B8
 149 0425 7519B315 		.ascii	"u\031\263\025\204v\320\360\220\314n\253\314\316J\271"
 149      8476D0F0 
 149      90CC6EAB 
 149      CCCE4AB9 
 150 0435 6E23F676 		.ascii	"n#\366v\251|\225D>L\022\0354t\312\240u\321b\015\015"
 150      A97C9544 
 150      3E4C121D 
 150      3474CAA0 
 150      75D1620D 
 151 044a DD12B356 		.ascii	"\335\022\263V\302ur\253G\244\342\365R\207\023\210\273"
 151      C27572AB 
 151      47A4E2F5 
 151      52871388 
ARM GAS  /tmp/cctldZmN.s 			page 12


 151      BB
 152 045b 878FBD34 		.ascii	"\207\217\2754F\366\201\024y\224#\037\343\343F\032\355"
 152      46F68114 
 152      7994231F 
 152      E3E3461A 
 152      ED
 153 046c 4F28D293 		.ascii	"O(\322\223|\351\002\351\333\3234\331\213\223M4\331\217"
 153      7CE902E9 
 153      DBD334D9 
 153      8B934D34 
 153      D98F
 154 047e 93CD20F7 		.ascii	"\223\315 \367\331\002r\343g\324d\253\232\364\223\222"
 154      D90272E3 
 154      67D464AB 
 154      9AF49392 
 155 048e B0011AAD 		.ascii	"\260\001\032\255\333h\214\330\256\024\016\2024o\207"
 155      DB688CD8 
 155      AE140E82 
 155      346F87
 156 049d C2EC540A 		.ascii	"\302\354T\012wq\376\335\234\177HQ\367*\235\373\024\333"
 156      7771FEDD 
 156      9C7F4851 
 156      F72A9DFB 
 156      14DB
 157 04af 7ECE36CC 		.ascii	"~\3166\314\331\016\360c\370\254\322y\220\357{H\311>"
 157      D90EF063 
 157      F8ACD279 
 157      90EF7B48 
 157      C93E
 158 04c1 C7390F73 		.ascii	"\3079\017s\316\347\025\362\005\245\360(\341\331\213"
 158      CEE715F2 
 158      05A5F028 
 158      E1D98B
 159 04d0 7C7C4921 		.ascii	"||I!_\246\245\351\030\037\217+\021\374\231Y\037\266"
 159      5FA6A5E9 
 159      181F8F2B 
 159      11FC9959 
 159      1FB6
 160 04e2 9B5C7190 		.ascii	"\233\\q\220\305f\242z\304\321\023\226\211\034\012E\262"
 160      C566A27A 
 160      C4D11396 
 160      891C0A45 
 160      B2
 161 04f3 3478FD88 		.ascii	"4x\375\210\343 \342\333\010\247pl\006\274\3276\361\226"
 161      E320E2DB 
 161      08A7706C 
 161      06BCD736 
 161      F196
 162 0505 76378E17 		.ascii	"v7\216\027\011h\010L\015`b;,x\303u\263\003\240C\265"
 162      0968084C 
 162      0D60623B 
 162      2C78C375 
 162      B303A043 
 163 051a E5EABB9D 		.ascii	"\345\352\273\235:X\346\203\233m\307\365<\313\310{?\325"
 163      3A58E683 
 163      9B6DC7F5 
 163      3CCBC87B 
ARM GAS  /tmp/cctldZmN.s 			page 13


 163      3FD5
 164 052c A1101F51 		.ascii	"\241\020\037Q\254\001\302\330\377Y\340\035\326\373T"
 164      AC01C2D8 
 164      FF59E01D 
 164      D6FB54
 165 053b EFA9FEAC 		.ascii	"\357\251\376\254Fx\015\314\3307\253u\000\243a\276\303"
 165      46780DCC 
 165      D837AB75 
 165      00A361BE 
 165      C3
 166 054c 36BCFA68 		.ascii	"6\274\372h\266\"\315\331\301\376\265\307\351tNw@\224"
 166      B622CDD9 
 166      C1FEB5C7 
 166      E9744E77 
 166      4094
 167 055e E48A96ED 		.ascii	"\344\212\226\355\355-\366\306\247c{\236\264\033\254"
 167      ED2DF6C6 
 167      A7637B9E 
 167      B41BAC
 168 056d 448CF1B6 		.ascii	"D\214\361\266?7\303\335\017\200\011\307*\015\215\311"
 168      3F37C3DD 
 168      0F8009C7 
 168      2A0D8DC9 
 169 057d D3613BAE 		.ascii	"\323a;\256\210\013\251\332\310\351L2\310L.\274\303\316"
 169      880BA9DA 
 169      C8E94C32 
 169      C84C2EBC 
 169      C3CE
 170 058f 5CD1841E 		.ascii	"\\\321\204\036\341\354\014v\314\271\021\031-\310\371"
 170      E1EC0C76 
 170      CCB91119 
 170      2DC8F9
 171 059e 2EEB191A 		.ascii	".\353\031\0324\253]\362\204\362\006\010'\247\337b}W"
 171      34AB5DF2 
 171      84F20608 
 171      27A7DF62 
 171      7D57
 172 05b0 C78E05DA 		.ascii	"\307\216\005\332P\350\323\204\033P\207\333\204;l\370"
 172      50E8D384 
 172      1B5087DB 
 172      843B6CF8 
 173 05c0 ED87CFCE 		.ascii	"\355\207\317\316V|ue\254\024\363\214\316!\177\254\016"
 173      567C7565 
 173      AC14F38C 
 173      CE217FAC 
 173      0E
 174 05d1 B52417C7 		.ascii	"\265$\027\307\005\226\031O\015\224\271O\011\324\227"
 174      0596194F 
 174      0D94B94F 
 174      09D497
 175 05e0 B1E79CB1 		.ascii	"\261\347\234\261\016\210\027\"\011\250\202D\254RD\311"
 175      0E881722 
 175      09A88244 
 175      AC5244C9 
 176 05f0 FC864943 		.ascii	"\374\206IC\031\311\320P\213F9 \221\264\365n\354\375"
 176      19C9D050 
 176      8B463920 
ARM GAS  /tmp/cctldZmN.s 			page 14


 176      91B4F56E 
 176      ECFD
 177 0602 637FAAD2 		.ascii	"c\177\252\3228\017}\341\261 \331\317\231\323u\356\275"
 177      380F7DE1 
 177      B120D9CF 
 177      99D375EE 
 177      BD
 178 0613 4C252B0C 		.ascii	"L%+\014\267\2623\334\360W\037=8`$d\2760\300H\006x\223"
 178      B7B233DC 
 178      F0571F3D 
 178      38602464 
 178      BE30C048 
 179 062a D133D560 		.ascii	"\3213\325`\342a\230\354\027\206\010\366-\005z\303\265"
 179      E26198EC 
 179      178608F6 
 179      2D057AC3 
 179      B5
 180 063b DEC303E9 		.ascii	"\336\303\003\351\212q\301Zv\015\263\213\216E\213D\307"
 180      8A71C15A 
 180      760DB38B 
 180      8E458B44 
 180      C7
 181 064c 7A55DBFC 		.ascii	"zU\333\374\337\243\032\300f\330s\312k\317B\303\036-"
 181      DFA31AC0 
 181      66D873CA 
 181      6BCF42C3 
 181      1E2D
 182 065e B038BCF6 		.ascii	"\2608\274\366,\344\366L\361)\015\015\253\316\312\013"
 182      2CE4F64C 
 182      F1290D0D 
 182      ABCECA0B 
 183 066e 7541C491 		.ascii	"uA\304\221\017V\270Y\021\261\240\357V\327\007C|{3\260"
 183      0F56B859 
 183      11B1A0EF 
 183      56D70743 
 183      7C7B33B0 
 184 0682 88910F7E 		.ascii	"\210\221\017~\316\2536R\330\216U{\332k\373\015rK\343"
 184      CEAB3652 
 184      D88E557B 
 184      DA6BFB0D 
 184      724BE3
 185 0695 31DF0076 		.ascii	"1\337\000v\262\220\324\233\220f\303\302\273!\022\027"
 185      B290D49B 
 185      9066C3C2 
 185      BB211217 
 186 06a5 89C41596 		.ascii	"\211\304\025\226\313l\227>X\305\247SX\244\353B7\011"
 186      CB6C973E 
 186      58C5A753 
 186      58A4EB42 
 186      3709
 187 06b7 4431BC16 		.ascii	"D1\274\026\013\315\377;\220\2434\337\250C\230\377yX"
 187      0BCDFF3B 
 187      90A334DF 
 187      A84398FF 
 187      7958
 188 06c9 AE483F92 		.ascii	"\256H?\222\347\241\222\273\034\346\3532O\360\237\007"
 188      E7A192BB 
ARM GAS  /tmp/cctldZmN.s 			page 15


 188      1CE6EB32 
 188      4FF09F07 
 189 06d9 2629D61F 		.ascii	"&)\326\037#7\337\356\337\201\007\244\357\277{f\0324"
 189      2337DFEE 
 189      DF8107A4 
 189      EFBF7B66 
 189      1A34
 190 06eb 4E88F009 		.ascii	"N\210\360\011H\230\016&;Z|c\354\271\013\377\354f\231"
 190      48980E26 
 190      3B5A7C63 
 190      ECB90BFF 
 190      EC6699
 191 06fe F298D88F 		.ascii	"\362\230\330\217\\h\325\261;\304\216\270;\311\340h\266"
 191      5C68D5B1 
 191      3BC48EB8 
 191      3BC9E068 
 191      B6
 192 070f B1C8C44F 		.ascii	"\261\310\304O\236\347l\214a\024\017o\251_\262b\330\257"
 192      9EE76C8C 
 192      61140F6F 
 192      A95FB262 
 192      D8AF
 193 0721 F279D50F 		.ascii	"\362y\325\017\276\374\007P\2147Q\025\363$\333V\202i"
 193      BEFC0750 
 193      8C375115 
 193      F324DB56 
 193      8269
 194 0733 19685ED3 		.ascii	"\031h^\323\2372)\246\233\221\317\270\004\241\206\233"
 194      9F3229A6 
 194      9B91CFB8 
 194      04A1869B 
 195 0743 04615C51 		.ascii	"\004a\\Q\344\026\0212\316\347-F\0351\251'\311{\234\256"
 195      E4161132 
 195      CEE72D46 
 195      1D31A927 
 195      C97B9CAE 
 196 0757 F4B629BE 		.ascii	"\364\266)\276[\221U\331\032\313\360\335\216\262\360"
 196      5B9155D9 
 196      1ACBF0DD 
 196      8EB2F0
 197 0766 64EFD16D 		.ascii	"d\357\321m\223\025\307Q\214\206\010\203MH\377O\357\347"
 197      9315C751 
 197      8C860883 
 197      4D48FF4F 
 197      EFE7
 198 0778 86272F22 		.ascii	"\206'/\"1F\306|\215B\276\004B\352E\0201\215\301@G]\245"
 198      3146C67C 
 198      8D42BE04 
 198      42EA4510 
 198      318DC140 
 199 078f 00DE1AD3 		.ascii	"\000\336\032\323\267\230v\212\243\002\341\341\333\365"
 199      B798768A 
 199      A302E1E1 
 199      DBF5
 200 079d 94DD3F7C 		.ascii	"\224\335?|\345~\341\213\247\212#\035\017bJ\342xJ\356"
 200      E57EE18B 
 200      A78A231D 
ARM GAS  /tmp/cctldZmN.s 			page 16


 200      0F624AE2 
 200      784AEE
 201 07b0 9729897B 		.ascii	"\227)\211{\237\253J`_$\211N\372\361\266\022\245\352"
 201      9FAB4A60 
 201      5F24894E 
 201      FAF1B612 
 201      A5EA
 202 07c2 361DCCFE 		.ascii	"6\035\314\376\225c8|\273\254\2349\274r"
 202      9563387C 
 202      BBAC9C39 
 202      BC72
 203 07d0 CC4195F3 		.ascii	"\314A\225\363\351\266r\305z\007r\007T\216\321\271\356"
 203      E9B672C5 
 203      7A077207 
 203      548ED1B9 
 203      EE
 204 07e1 08AA1CB3 		.ascii	"\010\252\034\263\016\017\306\243\327\267%\273.\016c"
 204      0E0FC6A3 
 204      D7B725BB 
 204      2E0E63
 205 07f0 9F4DD5E1 		.ascii	"\237M\325\341~Z/Jv}t\204\037\237D\366\027\233\360\372"
 205      7E5A2F4A 
 205      767D7484 
 205      1F9F44F6 
 205      179BF0FA 
 206 0804 C4DB8986 		.ascii	"\304\333\211\206=\343\024M\022\273\026!\212\346\304"
 206      3DE3144D 
 206      12BB1621 
 206      8AE6C4
 207 0813 3746A8EF 		.ascii	"7F\250\357\014\245h\356B\276\320\213\346\256\200\242"
 207      0CA568EE 
 207      42BED08B 
 207      E6AE80A2 
 208 0823 B9DBB768 		.ascii	"\271\333\267h\356\014*\032#\301\015\310\252lMf_%\212"
 208      EE0C2A1A 
 208      23C10DC8 
 208      AA6C4D66 
 208      5F258A
 209 0836 9AF16C2B 		.ascii	"\232\361l+S\014\367\350\220\352_2{S\024\355^\035\013"
 209      530CF7E8 
 209      90EA5F32 
 209      7B5314ED 
 209      5E1D0B
 210 0849 8DC7DAB0 		.ascii	"\215\307\332\260z\021\307\336#\342\210\217\201;\022"
 210      7A11C7DE 
 210      23E2888F 
 210      813B12
 211 0858 8E5CC496 		.ascii	"\216\\\304\226\324\220\364\306\022\332\"\305\250\026"
 211      D490F4C6 
 211      12DA22C5 
 211      A816
 212 0866 B7B75AE2 		.ascii	"\267\267Z\342x\334Z}\022\020.K\004S\220(R\020\207E\205"
 212      78DC5A7D 
 212      12102E4B 
 212      04539028 
 212      52108745 
 213 087b 98668C32 		.ascii	"\230f\2142bZ\335,M\325\316%7\262\245&\362\264\244\262"
ARM GAS  /tmp/cctldZmN.s 			page 17


 213      625ADD2C 
 213      4DD5CE25 
 213      37B2A526 
 213      F2B4A4B2 
 214 088f 3734A53E 		.ascii	"74\245>\311_\375-~iIcn\220\215w{\206b\\b4\336p\377\306"
 214      C95FFD2D 
 214      7E694963 
 214      6E908D77 
 214      7B86625C 
 215 08a9 DB77D5DB 		.ascii	"\333w\325\333g\226\004<\223I[:\273\252\232\351v\243"
 215      6796043C 
 215      93495B3A 
 215      BBAA9AE9 
 215      76A3
 216 08bb 701F906A 		.ascii	"p\037\220j|\232i\006\373\003\355\212\245ye{\215\342"
 216      7C9A6906 
 216      FB03ED8A 
 216      A579657B 
 216      8DE2
 217 08cd 5B2C2D0C 		.ascii	"[,-\014;-*\274\367\\\357#\212v\037\2229-\315\320\221"
 217      3B2D2ABC 
 217      F75CEF23 
 217      8A761F92 
 217      392DCDD0 
 218 08e2 49113CC7 		.ascii	"I\021<\307v;/\375\316(\274\370\2371WO\237s\364\267\370"
 218      763B2FFD 
 218      CE28BCF8 
 218      9F31574F 
 218      9F73F4B7 
 219 08f7 9A984C6C 		.ascii	"\232\230Ll\315 ^\267$\376\027\321\210\347z\026r\242"
 219      CD205EB7 
 219      24FE17D1 
 219      88E77A16 
 219      72A2
 220 0909 D997F8AA 		.ascii	"\331\227\370\252A\274)\230\370\213\030E\274\235\023"
 220      41BC2998 
 220      F88B1845 
 220      BC9D13
 221 0918 C37D89BB 		.ascii	"\303}\211\273\015b\003'Z|\211\333\014\342\"N\324|\211"
 221      0D620327 
 221      5A7C89DB 
 221      0CE2224E 
 221      D47C89
 222 092b D72315B1 		.ascii	"\327#\025\261\211\023\255\276\304\223\206A\315\301\006"
 222      8913ADBE 
 222      C4938641 
 222      CDC106
 223 093a 8D184447 		.ascii	"\215\030DG0\361\244\261g{\260\265\375\206\344jN\214"
 223      30F1A4B1 
 223      677BB0B5 
 223      FD86E46A 
 223      4E8C
 224 094c F025BE68 		.ascii	"\360%\276hHv\005\2732h\020\273}\\\021\225j\301D\247"
 224      487605BB 
 224      326810BB 
 224      7D5C1195 
 224      6AC144A7 
ARM GAS  /tmp/cctldZmN.s 			page 18


 225 0960 5FFF6818 		.ascii	"_\377h\030\273Cx\006\015iX\254\361X&\351'\361\211\031"
 225      BB437806 
 225      0D6958AC 
 225      F15826E9 
 225      27F18919 
 226 0974 47A83842 		.ascii	"G\2508BM\224\017\340\364K\037a\271\336\2271\274T\"\322"
 226      4D940FE0 
 226      F44B1F61 
 226      B9DE9731 
 226      BC5422D2 
 227 0988 DE7F80D2 		.ascii	"\336\177\200\322\232\305F\231\351m\326c\0259\345!\341"
 227      9AC54699 
 227      E96DD663 
 227      1539E521 
 227      E1
 228 0999 6DE33FBF 		.ascii	"m\343?\2774\332Fc(mc\031\362\205\3366\226\005\264\215"
 228      34DA4663 
 228      286D6319 
 228      F285DE36 
 228      9605B48D 
 229 09ad 66DFB6D1 		.ascii	"f\337\266\321\030\3246:\024_\013\262\372\252\227\235"
 229      18D4363A 
 229      145F0BB2 
 229      FAAA979D 
 230 09bd 18031526 		.ascii	"\030\003\025&\356?\243\257\235\265; E\334=\361G\252"
 230      EE3FA3AF 
 230      9DB53B20 
 230      45DC3DF1 
 230      47AA
 231 09cf 4C72D316 		.ascii	"Lr\323\026U\313\331\201NGH\247?\036\323\324N+Bq\332"
 231      55CBD981 
 231      4E4748A7 
 231      3F1ED3D4 
 231      4E2B4271 
 232 09e4 817CA13B 		.ascii	"\201|\241;\355\220\017\222\177R\342\017\031^\233\244"
 232      ED900F92 
 232      7F52E20F 
 232      195E9BA4 
 233 09f4 A254E3EC 		.ascii	"\242T\343\354\343\245\3138\373\017y\275\220\277\273"
 233      E3A5CB38 
 233      FB0F79BD 
 233      90BFBB
 234 0a03 2187D9F0 		.ascii	"!\207\331\360}!\227<\341\215gg\264\342V\035\312[,\221"
 234      7D21973C 
 234      E18D6767 
 234      B4E2561D 
 234      CA5B2C91 
 235 0a17 A822FBDC 		.ascii	"\250\"\373\334\227\335\024\242A\347\350\216\363X\222"
 235      97DD14A2 
 235      41E7E88E 
 235      F35892
 236 0a26 69D96CED 		.ascii	"i\331l\355.\347\340\\\007v\021\374\345\2344\221\326"
 236      2EE7E05C 
 236      077611FC 
 236      E59C3491 
 236      D6
 237 0a37 092C17B5 		.ascii	"\011,\027\265\346\221V\022LGm\271\342\236\357\361\000"
ARM GAS  /tmp/cctldZmN.s 			page 19


 237      E6915612 
 237      4C476DB9 
 237      E29EEFF1 
 237      00
 238 0a48 9B70FD4B 		.ascii	"\233p\375K\361\030\312g;\314\242\361|\274\363A\265\357"
 238      F118CA67 
 238      3BCCA2F1 
 238      7CBCF341 
 238      B5EF
 239 0a5a 2A1DAC01 		.ascii	"*\035\254\001\215\247\200]4\213v\367\202QMm\242\333"
 239      8DA7805D 
 239      348B76F7 
 239      82514D6D 
 239      A2DB
 240 0a6c 85496E93 		.ascii	"\205In\223\3411v;\343\036\324\026\364\006b\325!2\357"
 240      E131763B 
 240      E31ED416 
 240      F40662D5 
 240      2132EF
 241 0a7f 338CD3AA 		.ascii	"3\214\323\252\374\317\"\335,C\207\364<,\362\366\374"
 241      FCCF22DD 
 241      2C4387F4 
 241      3C2CF2F6 
 241      FC
 242 0a90 CFCCB453 		.ascii	"\317\314\264S!{\225[\344}\"\264\353\220!-\227?X\317"
 242      217B955B 
 242      E47D22B4 
 242      EB90212D 
 242      973F58CF 
 243 0aa4 B7F9D430 		.ascii	"\267\371\3240\245= R\244hb`m\230\205mc\247\237\216R"
 243      A53D2052 
 243      A4686260 
 243      6D98856D 
 243      63A79F8E 
 244 0ab9 7213E50D 		.ascii	"r\023\345\015\327W\256\010#\307k\350s\357%\355\341P"
 244      D757AE08 
 244      23C76BE8 
 244      73EF25ED 
 244      E150
 245 0acb 6AA803F9 		.ascii	"j\250\003\371B\257\241\216\300\313H\247QC\341RQ\206"
 245      42AFA18E 
 245      C0CB48A7 
 245      5143E152 
 245      5186
 246 0add 9F5DC5D2 		.ascii	"\237]\305\322\256\267\2747\256\256P\314Z\203|\241\233"
 246      AEB7BC37 
 246      AEAE50CC 
 246      5A837CA1 
 246      9B
 247 0aee B526E03C 		.ascii	"\265&\340<w\373\236\347.\337\363,\254*\221u\373\311"
 247      77FB9EE7 
 247      2EDFF32C 
 247      AC2A9175 
 247      FBC9
 248 0b00 D8056F58 		.ascii	"\330\005oX\213\211/\3347\351\305\350_\221\353k\274\366"
 248      8B892FDC 
 248      37E9C5E8 
ARM GAS  /tmp/cctldZmN.s 			page 20


 248      5F91EB6B 
 248      BCF6
 249 0b12 75170F77 		.ascii	"u\027\017w\221`)\213#wN\016^Q\375\311\373Z\253Z\300"
 249      9160298B 
 249      23774E0E 
 249      5E51FDC9 
 249      FB5AAB5A 
 250 0b27 886DFC0E 		.ascii	"\210m\374\016\300[\351d\341\316\241\336\023\273\214"
 250      C05BE964 
 250      E1CEA1DE 
 250      13BB8C
 251 0b36 07F05ADC 		.ascii	"\007\360Z\334[YVF\226\375\206=~y\260I\276\366\253\367"
 251      5B595646 
 251      96FD863D 
 251      7E79B049 
 251      BEF6ABF7 
 252 0b4a 7FE7E95D 		.ascii	"\177\347\351]\3708\0242M\342=Q\207\227\2016\335H\236"
 252      F8381432 
 252      4DE23D51 
 252      87978136 
 252      DD489E
 253 0b5d 66360176 		.ascii	"f6\001v\217\257Da\350\020\241C\011\355h\2671\351\227"
 253      8FAF4461 
 253      E810A143 
 253      09ED68B7 
 253      31E997
 254 0b70 03BB2D77 		.ascii	"\003\273-w+b\\CK\272%\332}>\012\361F\004-\337\335\331"
 254      2B625C43 
 254      4BBA25DA 
 254      7D3E0AF1 
 254      46042DDF 
 255 0b86 6CDC0AF9 		.ascii	"l\334\012\371\256Yz\356k\274\237\224\240/%x0\326\226"
 255      AE597AEE 
 255      6BBC9F94 
 255      A02F2578 
 255      30D696
 256 0b99 BECF0336 		.ascii	"\276\317\0036)\260\236-\312\323\311\201\224pE)gc\340"
 256      29B09E2D 
 256      CAD3C981 
 256      94704529 
 256      6763E0
 257 0bac 47D1D419 		.ascii	"G\321\324\031\330\364\235g\300\315\022x|cY\346\245o"
 257      D8F49D67 
 257      C0CD1278 
 257      7C6359E6 
 257      A56F
 258 0bbe 9AF9D4C6 		.ascii	"\232\371\324\306&\365\257\3453+\233\374\376Z\322\\\301"
 258      26F5AFE5 
 258      332B9BFC 
 258      FE5AD25C 
 258      C1
 259 0bcf 2E33714C 		.ascii	".3qL\256y\217\211\023B)\310\036 \316\320K\262\007\002"
 259      AE798F89 
 259      134229C8 
 259      1E20CED0 
 259      4BB20702 
 260 0be3 6AB2178C 		.ascii	"j\262\027\214\220F*U\331\306Nx\3014\316T\037\020\267"
ARM GAS  /tmp/cctldZmN.s 			page 21


 260      90462A55 
 260      D9C64E78 
 260      C134CE54 
 260      1F10B7
 261 0bf6 8AC61465 		.ascii	"\212\306\024e\363\207>6?\032\222\315\217\001q\206n\363"
 261      F3873E36 
 261      3F1A92CD 
 261      8F017186 
 261      6EF3
 262 0c08 6381366F 		.ascii	"c\2016o\364\332lW\252r\306\265\371\011 ne\363T\312 "
 262      F4DA6C57 
 262      AA72C6B5 
 262      F909206E 
 262      65F354CA 
 263 0c1d 6738BAC7 		.ascii	"g8\272\307x\031~\022Y\022\350\313\306x\305}tOpq\037"
 263      78197E12 
 263      5912E8CB 
 263      C678C57D 
 263      744F7071 
 264 0c32 0B2C6E8F 		.ascii	"\013,n\217\310\370\270\345\253C)m\021X\353\245\024\316"
 264      C8F8B8E5 
 264      AB43296D 
 264      1158EBA5 
 264      14CE
 265 0c44 0AD7DF5A 		.ascii	"\012\327\337Z\311\304)\303\353\310\272i\201\225\027"
 265      C9C429C3 
 265      EBC8BA69 
 265      819517
 266 0c53 C6BDF9F5 		.ascii	"\306\275\371\365\207\177\375\275\377\241\016\355\271"
 266      877FFDBD 
 266      FFA10EED 
 266      B9
 267 0c60 1EAFBC9E 		.ascii	"\036\257\274\236.?k\\\351\375\304p\372it\332&\256\021"
 267      2E3F6B5C 
 267      E9FDC470 
 267      FA6974DA 
 267      26AE11
 268 0c73 465A3621 		.ascii	"FZ6!\316\316S\365D\257\361\371c3\010\346M )W\366\024"
 268      CECE53F5 
 268      44AFF1F9 
 268      633308E6 
 268      4D202957 
 269 0c89 2BDA167A 		.ascii	"+\332\026z\201%\026\376d\376\304\3739d\013\004=lm\322"
 269      812516FE 
 269      64FEC4FB 
 269      39640B04 
 269      3D6C6DD2 
 270 0c9d E02DE7ED 		.ascii	"\340-\347\355\343\235\342\340\346\344w\210\263\372\036"
 270      E39DE2E0 
 270      E6E47788 
 270      B3FA1E
 271 0cac C6076321 		.ascii	"\306\007c!Pg)\373S\027\345`\352+\353\244\354\245\230"
 271      506729FB 
 271      5317E560 
 271      EA2BEBA4 
 271      ECA598
 272 0cbf BF43E3B4 		.ascii	"\277C\343\264\377Z\207\032\013\360.h\227\002\377\346"
ARM GAS  /tmp/cctldZmN.s 			page 22


 272      FF5A871A 
 272      0BF02E68 
 272      9702FFE6 
 273 0ccf 2790D58D 		.ascii	"'\220\325\215O\326B\0204j\243^RY\367x\330\251\343b\247"
 273      4FD64210 
 273      346AA35E 
 273      5259F778 
 273      D8A9E362 
 274 0ce4 911ADA25 		.ascii	"\221\032\332%I~\243\311\272\376\273n9-|\005\235J,C\247"
 274      497EA3C9 
 274      BAFEBB6E 
 274      392D7C05 
 274      9D4A2C43 
 275 0cf9 12A7D230 		.ascii	"\022\247\3220\015$\241\200\321\245c\006\273F\337>g\212"
 275      0D24A180 
 275      D1A56306 
 275      BB46DF3E 
 275      678A
 276 0d0b 77346C33 		.ascii	"w4l3\337l2\336\321\212\202\332L\026E}\372\021\317\220"
 276      DF6C32DE 
 276      D18A82DA 
 276      4C16457D 
 276      FA11CF90 
 277 0d1f 0AFD8C11 		.ascii	"\012\375\214\021\017\377\2402\213\375\236\327\374\241"
 277      0FFFA032 
 277      8BFD9ED7 
 277      FCA1
 278 0d2d DEAF8DEC 		.ascii	"\336\257\215\354o\305\355\262TyT\312\227\300O\306\376"
 278      6FC5EDB2 
 278      547954CA 
 278      97C04FC6 
 278      FE
 279 0d3e E6DD203B 		.ascii	"\346\335 ;(\201\331(2\023Hv\326%\241\271\212\014\344"
 279      2881D928 
 279      32134876 
 279      D625A1B9 
 279      8A0CE4
 280 0d51 8F5DCF1E 		.ascii	"\217]\317\036\243^\372\301\270\310\330\375/2\276W\267"
 280      A35EFAC1 
 280      B8C8D8FD 
 280      2F32BE57 
 280      B7
 281 0d62 7E18E703 		.ascii	"~\030\347\003\336l\226\307/m=K\024[R\300g5\342\252f"
 281      DE6C96C7 
 281      2F6D3D4B 
 281      145B52C0 
 281      6735E2AA 
 282 0d77 66D12AF7 		.ascii	"f\321*\367\2355\332\316\000\374\320\317\235\333 \350"
 282      9D35DACE 
 282      00FCD0CF 
 282      9DDB20E8 
 283 0d87 7BE7008C 		.ascii	"{\347\000\214\367\301\323\257q\015\202\364\212_\346"
 283      F7C1D3AF 
 283      710D82F4 
 283      8A5FE6
 284 0d96 FCBE856E 		.ascii	"\374\276\205n\003\3711\264\037\274_C\017\016\033\037"
 284      03F931B4 
ARM GAS  /tmp/cctldZmN.s 			page 23


 284      1FBC5F43 
 284      0F0E1B1F 
 285 0da6 F37680EF 		.ascii	"\363v\200\357\347PN=T\240\210;\201NQ\360\265Lx<\207"
 285      E7504E3D 
 285      54A0883B 
 285      814E51F0 
 285      B54C783C 
 286 0dbb E24C2958 		.ascii	"\342L)X\211\273W\221\011\263\201l\251vmiq\263V\022\255"
 286      89BB5791 
 286      09B3816C 
 286      A9766D69 
 286      71B35612 
 287 0dd0 DAE9E107 		.ascii	"\332\351\341\007q6WV}d\213\303\315t\314\"qg\023wv5\326"
 287      71365756 
 287      7D648BC3 
 287      CD74CC22 
 287      71671377 
 288 0de7 E0523481 		.ascii	"\340R4\2010y\204\331\001\325\375[\370\265\265\206\375"
 288      307984D9 
 288      01D5FD5B 
 288      F8B5B586 
 288      FD
 289 0df8 CA0614D2 		.ascii	"\312\006\024\322\223\373\275!\335\365\203C\272;8\244"
 289      93FBBD21 
 289      DDF58343 
 289      BA3B38A4 
 290 0e08 BBC60DA9 		.ascii	"\273\306\015\251_\334v\253\270%y\303v\312\033\266!\264"
 290      5FDC76AB 
 290      B82579C3 
 290      76CA1BB6 
 290      21B4
 291 0e1a 34DF3F6C 		.ascii	"4\337?l\247\207-\212\272\027\2519\006\225\016\011xI"
 291      A7872D8A 
 291      BA17A939 
 291      06950E09 
 291      7849
 292 0e2c 41151CA5 		.ascii	"A\025\034\245\303\3129(\021\265\000c\221\254C+-\222"
 292      C3CA3928 
 292      11B50063 
 292      91AC432B 
 292      2D92
 293 0e3e 6991A383 		.ascii	"i\221\243\203N\213\275\260\000\371\362uXJ\253!Xpu\213"
 293      4E8BBDB0 
 293      00F9F275 
 293      584AAB21 
 293      5870758B 
 294 0e52 838EE202 		.ascii	"\203\216\342\002\366N\0044@\255\372\372\272\036\225"
 294      F64E0434 
 294      40ADFAFA 
 294      BA1E95
 295 0e61 D450222A 		.ascii	"\324P\"*Q\370\021TR\303\023X\211Yp\263u\244\247\346"
 295      51F81154 
 295      52C31358 
 295      895970B3 
 295      75A4A7E6 
 296 0e75 4FD41CB3 		.ascii	"O\324\034\263\211~\234\253\252AU\030\371J\036\361:\366"
 296      897E9CAB 
ARM GAS  /tmp/cctldZmN.s 			page 24


 296      AA415518 
 296      F94A1EF1 
 296      3AF6
 297 0e87 66BEFC62 		.ascii	"f\276\374b_\255\014\336\377\203\003>\034\034\360\375"
 297      5FAD0CDE 
 297      FF83033E 
 297      1C1CF0FD 
 298 0e97 DF5FC3CF 		.ascii	"\337_\303\317\2429\321~\237\360\214\307\352A\357\331"
 298      A239D17E 
 298      9FF08CC7 
 298      EA41EFD9 
 299 0ea7 8DF63DBB 		.ascii	"\215\366=\273~\011\033V\011;\350S\350\177\0346>\373"
 299      7E091B56 
 299      093BE853 
 299      E87F1C36 
 299      3EFB
 300 0eb9 1F42FD05 		.ascii	"\037B\375\005FND\005\327\263'\212@|\004\0346\256\227"
 300      464E4405 
 300      D7B3278A 
 300      407C041C 
 300      36AE97
 301 0ecc FB9031E5 		.ascii	"\373\2201\345{^E\366\005g1Z\207\365\265@~\324\035\331"
 301      7B5E45F6 
 301      0567315A 
 301      87F5B540 
 301      7ED41DD9 
 302 0ee0 9AE56629 		.ascii	"\232\345f):<B\353}P\267s\353J7\313\325a\035\255s\353"
 302      3A3C42EB 
 302      7D50B773 
 302      EB4A37CB 
 302      D5611DAD 
 303 0ef6 30F6053A 		.ascii	"0\366\005:\034\007Z\035\202\272\221\255\215d\313\\\225"
 303      1C075A1D 
 303      82BA91AD 
 303      8D64CB5C 
 303      95
 304 0f07 C46788A9 		.ascii	"\304g\210\251\036\231\\dq=O\314<\225\230\277\0344\022"
 304      1E995C64 
 304      713D4FCC 
 304      3C9598BF 
 304      1C3412
 305 0f1a F3DC0F4E 		.ascii	"\363\334\017N\314\341\340\304<\367\375'\341\3608'a\377"
 305      CCE1E0C4 
 305      3CF7FD27 
 305      E1F03827 
 305      61FF
 306 0f2c 0123AECF 		.ascii	"\001#\256\317\243\225\205\376'\341\340\201LE}\001\251"
 306      A39585FE 
 306      27E1E081 
 306      4C457D01 
 306      A9
 307 0f3d 13BEAB81 		.ascii	"\023\276\253\201\314\247\360\363G\310k\377a\334T'\004"
 307      CCA7F0F3 
 307      47C86BFF 
 307      61DC5427 
 307      04
 308 0f4e 4576820E 		.ascii	"Ev\202\016\317\300\\ e\363v\016<\354f\205:\2708\342"
ARM GAS  /tmp/cctldZmN.s 			page 25


 308      CFC05C20 
 308      65F3760E 
 308      3CEC6685 
 308      3AB838E2 
 309 0f62 7998E71A 		.ascii	"y\230\347\032h\244\223\000\354\"\377\373\331\364\212"
 309      68A49300 
 309      EC22FFFB 
 309      D9F48A
 310 0f71 15ED2B5B 		.ascii	"\025\355+[*\232\332\233\377\261\242\271eME\323\012\307"
 310      2A9ADA9B 
 310      FFB1A2B9 
 310      654D45D3 
 310      0AC7
 311 0f83 3247FBEA 		.ascii	"2G\373\352\212\316\216\256\266\207*p\262\246\261\303"
 311      8ACE8EAE 
 311      B6872A70 
 311      B2A6B1C3 
 312 0f93 D1DEB51A 		.ascii	"\321\336\265\032\011\253:\034m\235\313\313\233"
 312      09AB3A1C 
 312      6D9DCBCB 
 312      9B
 313 0fa0 98695579 		.ascii	"\230iUy\245iuy\025\254\202\325\320\024\276\334\321\332"
 313      A5697579 
 313      15AC82D5 
 313      D014BEDC 
 313      D1DA
 314 0fb2 DAD2018E 		.ascii	"\332\322\001\216\210U\035-M\216\325\216\3666\363?8\232"
 314      88551D2D 
 314      4D8ED58E 
 314      F636F33F 
 314      389A
 315 0fc4 3B57409B 		.ascii	";W@\233\305\261zik{\233nkmY\336\271\264\261\325\241"
 315      C5B17A69 
 315      6B7B9B6E 
 315      6B6D59DE 
 315      B9B4B1D5 
 316 0fd9 B7416B78 		.ascii	"\267Akx\347\312U\313\272\226[\212\333\272Z[K\330\377"
 316      E7CA55CB 
 316      BA965B8A 
 316      DBBA5A5B 
 316      4BD8FF
 317 0fec 038520C5 		.ascii	"\003\205 \305\210"
 317      88
 318              		.text
 319              		.section	.gnu.lto_chsnprintf.4ad075b915ff6199,"",%progbits
 320 0000 789C8D53 		.ascii	"x\234\215S\315KTQ\024?\347\276\217\321\031\3071\251"
 320      CD4B5451 
 320      143FE7BE 
 320      8FD119C7 
 320      31A9
 321 0012 452D4224 		.ascii	"E-B$\220\012z\213> \350\017\010\202V\012\265\222\347"
 321      900A7A8B 
 321      3E20E80F 
 321      0882560A 
 321      B592E7
 322 0025 731A2F7E 		.ascii	"s\032/~\214\314Wd\013\357\350T\003e\014N\020\025\246"
 322      8CCC5764 
ARM GAS  /tmp/cctldZmN.s 			page 26


 322      0BEFE854 
 322      03650C4E 
 322      1015A6
 323 0038 222281D0 		.ascii	"\"\"\201\320\242\215D\213W\270\220D%\222@!\032\022\333"
 323      A28D448B 
 323      57B89044 
 323      25924021 
 323      1A12DB
 324 004b 4C0BA155 		.ascii	"L\013\241U\021\275\316}o\336\214fP\027\336\271\367\236"
 324      11BDCE7D 
 324      6FDE8C66 
 324      5017DEB9 
 324      F79E
 325 005d 7B7EBFF3 		.ascii	"{~\277\363;\347\360\0300\370s]\242oU\001\270L;\006\000"
 325      3BE7F018 
 325      30F8735D 
 325      A26F5501 
 325      B84C3B06 
 326 0072 59611520 		.ascii	"Ya\025 [\307\230\222o\003\021T\245mPP\365\334*\323\326"
 326      5BC79892 
 326      6F031154 
 326      A56D5050 
 326      F5DC2AD3 
 327 0087 0D72EBAF 		.ascii	"\015r\353\257\216\222[C\335s\353\210\362\000\010\303"
 327      8E925B43 
 327      DD73EB88 
 327      F20008C3 
 328 0097 4C51351D 		.ascii	"LQ5\035\207\257\242$W[aZ\330\205\322\366\313M|$\354"
 328      87AFA224 
 328      575B615A 
 328      D885D2F6 
 328      CB4D7C24 
 329 00ac DC94F8E9 		.ascii	"\334\224\370\3518\210\034I\3109\004\013\341\012]\260"
 329      38881C49 
 329      C839040B 
 329      E10A5DB0 
 330 00bc C5DD98BA 		.ascii	"\305\335\230\272W\231\207\2657\212\017PL\215\024\304"
 330      579987B5 
 330      378A0F50 
 330      4C8D14C4 
 331 00cc 2F827254 		.ascii	"/\202rT\030\234\257!\247\274\235\035\334\017\025\343"
 331      189CAF21 
 331      A7BC9D1D 
 331      DC0F15E3 
 332 00dc F6C7E2D8 		.ascii	"\366\307\342\330\341]P\225\301\205\377I*\012\366\247"
 332      E15D5095 
 332      C185FF49 
 332      2A0AF6A7 
 333 00ec F7CB28C6 		.ascii	"\367\313(\306Ev\307q\"\0345\006\027\377\005|\316\354"
 333      4576C771 
 333      221C3506 
 333      17FF057C 
 333      CEEC
 334 00fe CF8E333F 		.ascii	"\317\2163?\361}\353)\036jF0q\026[A\301~\004\265r\321"
 334      F17DEB29 
 334      1E6A4630 
 334      71165B41 
ARM GAS  /tmp/cctldZmN.s 			page 27


 334      C17E04B5 
 335 0114 E982F564 		.ascii	"\351\202\365dX\210<s\344\011\003G\275\221L\200\0304"
 335      58883C73 
 335      E4090347 
 335      BD914C80 
 335      1834
 336 0126 C851EA16 		.ascii	"\310Q\352\026\023\247\351\305\304\031\327\316\272V\306"
 336      13A7E9C5 
 336      C419D7CE 
 336      BA56C6
 337 0135 821440AB 		.ascii	"\202\024@\253\235\254lv\0072\271+K\220\373\372\372["
 337      9DAC6C76 
 337      0732B92B 
 337      4B90FBFA 
 337      FA5B
 338 0147 5131F119 		.ascii	"Q1\361\031j\020CE\252\333#\256\003\025\310\267)+0\232"
 338      6A104345 
 338      AADB23AE 
 338      0315C8B7 
 338      292B309A 
 339 015b 1F2DCF1D 		.ascii	"\037-\317\035\367\003U?\326\241\025\251\306\252.\353"
 339      F703553F 
 339      D6A115A9 
 339      C6AA2EEB 
 340 016b 1ADC29E5 		.ascii	"\032\334)\345\313\001/\026\340&\374\020y\321\304\261"
 340      CB012F16 
 340      E026FC10 
 340      79D1C4B1 
 341 017b CE425705 		.ascii	"\316BW\005y\2068\326\3732\335\250\030\3521\304Jz\216"
 341      798638D6 
 341      FB32DDA8 
 341      18EA31C4 
 341      4A7A8E
 342 018e 418035B8 		.ascii	"A\2005\270U\272\327\273\217$d!\253\2214\370\025\273"
 342      55BAD7BB 
 342      8F246421 
 342      AB9134F8 
 342      15BB
 343 01a0 5112AE49 		.ascii	"Q\022\256IxX\302o\227\306\226u_p\250J\320hQIP\241\024"
 343      7858C26F 
 343      97C69675 
 343      5F70A84A 
 343      D0685149 
 344 01b7 C27EF8E1 		.ascii	"\302~\370\341XU\014H!\365\036'\307\210d\311\225\356"
 344      58550C48 
 344      21F51E27 
 344      C78864C9 
 344      95EE
 345 01c9 EF17D164 		.ascii	"\357\027\321dU\272\364\027\021\034\017\000\254\300\310"
 345      55BAF417 
 345      111C0F00 
 345      ACC0C8
 346 01d8 E6C297B7 		.ascii	"\346\302\227\267\350\247\017\237\204\023T\232\227\245"
 346      E8A70F9F 
 346      8413549A 
 346      97A5
 347 01e6 0BFDEE2E 		.ascii	"\013\375\356.\301\342v6\\\015\212U\224\321\332\000\244"
ARM GAS  /tmp/cctldZmN.s 			page 28


 347      C1E27636 
 347      5C0D8A55 
 347      94D1DA00 
 347      A4
 348 01f7 2E2BF393 		.ascii	".+\363\223\263~S\330\342$\312\036k\260n\310y\334\035"
 348      B37E53D8 
 348      E224CA1E 
 348      6BB06EC8 
 348      79DC1D
 349 020a 2DCF1FF1 		.ascii	"-\317\037\361\241\215n\377\302n\342\205\235\240\347"
 349      A18D6EFF 
 349      C26EE285 
 349      9DA0E7
 350 0219 7E028FB3 		.ascii	"~\002\217\263T\341Y\216\315\024!i\002.\267<5\327\006"
 350      54E1598E 
 350      CD142169 
 350      022EB73C 
 350      35D706
 351 022c ACBB435B 		.ascii	"\254\273C[\2017e\346\341\274r\316\300\013\221\227\277"
 351      813765E6 
 351      E1BC72CE 
 351      C00B9197 
 351      BF
 352 023d 1B48D65D 		.ascii	"\033H\326]\2173\273\036\245\336w\220-M\364V\033\355"
 352      8F33BB1E 
 352      A5DE7790 
 352      2D4DF456 
 352      1BED
 353 024f D1B6D3A8 		.ascii	"\321\266\323\250\211V\216\352\264\321\023\357\217\032"
 353      89568EEA 
 353      B4D113EF 
 353      8F1A
 354 025d 56BCFB86 		.ascii	"V\274\373\206\321\035\315\030V\017\357\342\361\244\221"
 354      D11DCD18 
 354      560FEFE2 
 354      F1A491
 355 026c 4AA4077A 		.ascii	"J\244\007z\015:d\314\004\217\247\223\3640\230\340\003"
 355      0D3A64CC 
 355      048FA793 
 355      F43098E0 
 355      03
 356 027d A96BA72C 		.ascii	"\251k\247,`\346 \353O\206\222|(\332y=\3369\220\356\323"
 356      60E620EB 
 356      4F86927C 
 356      28DA793D 
 356      DE3990EE 
 357 0292 13D154C6 		.ascii	"\023\321T\306\354\373\015.n\006\015"
 357      ECFB0D2E 
 357      6E060D
 358              		.text
 359              		.section	.gnu.lto_.symbol_nodes.4ad075b915ff6199,"",%progbits
 360 0000 789C45C9 		.ascii	"x\234E\311\301\012\001a\024\305\361s\356\375\206<\246"
 360      C10A0161 
 360      14C5F173 
 360      EEFD863C 
 360      A6
 361 0011 C7B0BAD3 		.ascii	"\307\260\272\323\254f%5+\013\026\224\222\030\342\001"
ARM GAS  /tmp/cctldZmN.s 			page 29


 361      AC662535 
 361      2B0B1694 
 361      9218E201 
 362 0021 94B29C92 		.ascii	"\224\262\234\222\215\262!K\033e\243\324d\276\361\305"
 362      8DB2214B 
 362      1B65A3D4 
 362      64BEF1C5 
 363 0031 DDFCCEBF 		.ascii	"\335\374\316\277+\020l\020Nf4\240W\000f\203\264-s\032"
 363      2B106C10 
 363      4E6634A0 
 363      57006683 
 363      B42D731A 
 364 0045 430E53CA 		.ascii	"C\016S\312\202&!\273)\271\242\3517\343\230\\\322\334"
 364      822621BB 
 364      29B9A2E9 
 364      37E3985C 
 364      D2DC
 365 0057 BF725AF4 		.ascii	"\277rZ\364+%\220\334_\271\326\343\271\355\267\034\221"
 365      2B2590DC 
 365      5FB9D6E3 
 365      B9EDB71C 
 365      91
 366 0068 ED8BA956 		.ascii	"\355\213\251V\256\337\217F\305\261<\225\035\357\350"
 366      AEDF8F46 
 366      C5B13C95 
 366      1DEFE8
 367 0077 70CE9AFE 		.ascii	"p\316\232\376?\361C%\302\356RR\305\341VK$W\257b\\\211"
 367      3FF14325 
 367      C2EE5252 
 367      C5E1564B 
 367      2457AF62 
 368 008d 0FCC883C 		.ascii	"\017\314\210<\243"
 368      A3
 369              		.text
 370              		.section	.gnu.lto_.refs.4ad075b915ff6199,"",%progbits
 371 0000 789C6362 		.ascii	"x\234cb`b`d\200\002\000\000F\000\006"
 371      60626064 
 371      80020000 
 371      460006
 372              		.text
 373              		.section	.gnu.lto_.decls.4ad075b915ff6199,"",%progbits
 374 0000 789CBD19 		.ascii	"x\234\275\031[l\024\327\365\336\331\207\275xe\210K\010"
 374      5B6C14D7 
 374      F5DED987 
 374      BD786588 
 374      4B08
 375 0012 49ABB248 		.ascii	"I\253\262HI?\322\302*\011QhK\241\301\022\270\037.i\010"
 375      493FD2C2 
 375      2A095168 
 375      4BA1C112 
 375      B81F2E69 
 376 0027 49D587B6 		.ascii	"I\325\207\266\343\335\261=\355>\234\335Y\023\252J\\"
 376      E3DDB13D 
 376      ED3E9CDD 
 376      5913AA4A 
 376      5C
 377 0038 5E6E52D4 		.ascii	"^nR\324\326\230 ;T\370\321`\003J\322\306\004H\241\270"
ARM GAS  /tmp/cctldZmN.s 			page 30


 377      D698203B 
 377      54F8D160 
 377      034AD2C6 
 377      0448A1B8 
 378 004c 591E719C 		.ascii	"Y\036q\234D)%\224P\012\224%M\224>DK\212\\\031\005g{"
 378      44292594 
 378      500A9425 
 378      4D943E44 
 378      4B8A5C19 
 379 0063 EE9DC7EE 		.ascii	"\356\235\307\356\214\347\356\314:RG:3w\356\234\327="
 379      8CE7EECC 
 379      3A52473A 
 379      3377EE9C 
 379      D73D
 380 0075 E7DC73CF 		.ascii	"\347\334s\317\331\025\220\200\202\002B\005\270\216}"
 380      D9159080 
 380      82024205 
 380      B88E7D
 381 0084 06A12A0F 		.ascii	"\006\241*\017B^\204\320R\244>\375\000>m<\200\324\213"
 381      425E84D0 
 381      52A43EFD 
 381      003E6D3C 
 381      80D48B
 382 0097 CE0D021C 		.ascii	"\316\015\002\034\006\250\306\010\315\006\270\025`\016"
 382      06A8C608 
 382      CD06B815 
 382      600E
 383 00a5 46532E8A 		.ascii	"FS.\212W\245A-@P\343\265\007`\257\306\213^X\303\245"
 383      57A5412D 
 383      4050E3B5 
 383      0760AFC6 
 383      8B5E58C3 
 384 00ba DF5E04D8 		.ascii	"\337^\004\330\017p\010\340\200\205\037\225\031\322\360"
 384      0F7008E0 
 384      80851F95 
 384      19D2F0
 385 00c9 747E3AAF 		.ascii	"t~:\257EX\345\367\000<O\3003\017\260L\223M\327\360_"
 385      4558E5F7 
 385      003C4FC0 
 385      330FB04C 
 385      934DD7F0 
 386 00de 80714DD6 		.ascii	"\200qM\326\010\300Q\200/\302\313Ix^\001X\242\255\373"
 386      08C05180 
 386      2FC2CB49 
 386      785E0158 
 386      A2ADFB
 387 00f1 4B30F765 		.ascii	"K0\367e\200%\000_\001X\006\360U\200!\370\366 <\227\003"
 387      8025005F 
 387      015806F0 
 387      558021F8 
 387      F6203C97 
 388 0106 8099D071 		.ascii	"\200\231\320q\200\313\000+\221\372Nu\253\307\352:f\320"
 388      80CB002B 
 388      91FA4E75 
 388      ABC7EA3A 
 388      66D0
 389 0118 39186380 		.ascii	"9\030c\200F\000\037\300*\200\207\000\276\001\3600\300"
ARM GAS  /tmp/cctldZmN.s 			page 31


 389      46001FC0 
 389      2A808700 
 389      BE01F030 
 389      C0
 390 0129 6A80472C 		.ascii	"j\200G,6\243\366\374\024<'J\326w\007Vm\357\325\326A"
 390      36A3F6FC 
 390      143C274A 
 390      D6770756 
 390      6DEFD5D6 
 391 013e D7BB06E6 		.ascii	"\327\273\006\346n\007\270\015\340Q\200o\001<\006\360"
 391      6E07B80D 
 391      E051806F 
 391      013C06F0 
 392 014e 6D8023F0 		.ascii	"m\200#\360\375;\360\374.V\355BE|\001\253\264\325\232"
 392      FD3BF0FC 
 392      2E56ED42 
 392      457C01AB 
 392      B4D59A
 393 0161 9FA8BFA8 		.ascii	"\237\250\277\250\276\263\265\265\314\202g-@\235E\237"
 393      BEB3B5B5 
 393      CC82672D 
 393      409D459F 
 394 0171 007A9290 		.ascii	"\000z\222\220\215\244\277\2034\214\201>\337\304\"\256"
 394      8DA4BF83 
 394      348C813E 
 394      DFC422AE 
 395 0181 0D8007E8 		.ascii	"\015\200\007\350 \030`*\335\205v\023\322\231\337\362"
 395      2018602A 
 395      DD857613 
 395      D299DFF2 
 396 0191 CF1B0221 		.ascii	"\317\033\002!\325\"\036\300\001\010\252\3731\272\033"
 396      D5221EC0 
 396      0108AAFB 
 396      31BA1B
 397 01a0 ED23F005 		.ascii	"\355#\360\005\350\347M\015\014$b_`\312\273\210w\343"
 397      E8E74D0D 
 397      0C24625F 
 397      60CABB88 
 397      77E3
 398 01b2 BB912A87 		.ascii	"\273\221*\207}\326\0064<g\"4\017\365\222\334\265|\367"
 398      7DD60634 
 398      3C672234 
 398      0FF592DC 
 398      B57CF7
 399 01c5 E8D0679F 		.ascii	"\350\320g\237!\271\315\244PX\217\346\240\035 \205jH"
 399      21B9CDA4 
 399      50588FE6 
 399      A01D2085 
 399      6A48
 400 01d7 B052837E 		.ascii	"\260R\203~RTW\323=?H\346\3165T\257\326U\307\272\352"
 400      525457D3 
 400      3D3F48E6 
 400      CE3554AF 
 400      D655C7BA 
 401 01ec 544341C4 		.ascii	"TCA\304{\231\332kmbX\325\216~G\232F\352X\037\025\260"
 401      7B99DA6B 
 401      6D6258D5 
ARM GAS  /tmp/cctldZmN.s 			page 32


 401      8E7E479A 
 401      46EA581F 
 402 0202 BD6128D5 		.ascii	"\275a(\325\036\\\243\263\340\241\014\3419l\344\001\361"
 402      1E5CA3B3 
 402      E0A10CE1 
 402      396CE401 
 402      F1
 403 0213 068DF1E2 		.ascii	"\006\215\361\342\017\230\276\371\314\257\352W\021\257"
 403      0F98BEF9 
 403      CCAFEA57 
 403      11AF
 404 0221 F1189A0A 		.ascii	"\361\030\232\012\350G\330\260#\275\356D\317\022\322"
 404      E847D8B0 
 404      23BDEE44 
 404      CF12D2
 405 0230 454E4B0D 		.ascii	"ENK\015*k\001\365`\2121\210\347\331\352\244)\315\310"
 405      2A6B01F5 
 405      608A3188 
 405      E7D9EAA4 
 405      29CDC8
 406 0243 3A73BB26 		.ascii	":s\273&\337\300\244\216I\022\320N\007B\252\216*.\327"
 406      DFC0A48E 
 406      4912D04E 
 406      0742AA8E 
 406      2A2ED7
 407 0256 F7C29B8C 		.ascii	"\367\302\233\214\316G\351z\035\350|\001C\336p\251\274"
 407      CE47E97A 
 407      1DE87C01 
 407      43DE70A9 
 407      BC
 408 0267 DD2EE421 		.ascii	"\335.\344!\36494\010~\316\375\342\306\330\000#Um\316"
 408      F4393408 
 408      7ECEFDE2 
 408      C6D80023 
 408      556DCE
 409 027a A7D3ECFE 		.ascii	"\247\323\354\376k,\224z\230\306V\376Z\356\303\327@~"
 409      6B2C947A 
 409      98C656FE 
 409      5AEEC3D7 
 409      407E
 410 028c 17B95928 		.ascii	"\027\271Y(x\314\241%bo\200\353\303#f\037\232\302\260"
 410      78CCA125 
 410      626F80EB 
 410      C323661F 
 410      9AC2B0
 411 029f 0E6D635C 		.ascii	"\016mc\\\374\016\033\350\360\326S\367\260\0154\202\353"
 411      FC0E1BE8 
 411      F0D653F7 
 411      B00D3482 
 411      EB
 412 02b0 80CD7BD8 		.ascii	"\200\315{\330\354FG6T\217\034\220\252Djh\347\016\216"
 412      EC464736 
 412      548F1C90 
 412      AA446A68 
 412      E70E8E
 413 02c3 0689579D 		.ascii	"\006\211W\235G&v\246k>\352\247\026<<\372\374\355\244"
 413      472676A6 
ARM GAS  /tmp/cctldZmN.s 			page 33


 413      6B3EEAA7 
 413      163C3CFA 
 413      FCEDA4
 414 02d6 FF38B655 		.ascii	"\3778\266U\037lP\"\231`]\364,\026s7@[\0153\304E\023"
 414      1F6C5022 
 414      99605DF4 
 414      2C167337 
 414      405B0D33 
 415 02ed F1AB6073 		.ascii	"\361\253`s\021\217Z\265\334\336\301\264\034u\245\345"
 415      118F5AB5 
 415      DCDEC1B4 
 415      1C75A5E5 
 416 02fd 8ED1D7C1 		.ascii	"\216\321\327\301CA\223\222\026O\321\024\3043\321\033"
 416      43419392 
 416      164FD114 
 416      C433D11B 
 417 030d D6EDB6AC 		.ascii	"\326\355\266\254\306\326mF\366\310\315\355\251-\223"
 417      C6D66D46 
 417      F6C8CDED 
 417      A92D93
 418 031c 3E3AF367 		.ascii	">:\363g\272^\370<8\256$\335\360\010D|\012\337\005wl"
 418      BA5EF83C 
 418      38AE24DD 
 418      F008447C 
 418      0ADF0577 
 419 0331 CE744636 		.ascii	"\316tF6\321\222\211\200\016\011f\347\273\340\255)3\271"
 419      D1928980 
 419      0E0966E7 
 419      BBE0AD29 
 419      33B9
 420 0343 BD77318B 		.ascii	"\275w1\213\242\267Y>\273na\244\0113.G]*\301\345\231"
 420      A2B7593E 
 420      BB6E61A4 
 420      09332E47 
 420      5D2AC1E5 
 421 0358 FCAD6212 		.ascii	"\374\255b\022,5\374\000\236\232\275x,^/\262\020\320"
 421      2C35FC00 
 421      9E9ABD78 
 421      2C5E2FB2 
 421      10D0
 422 036a 245B148D 		.ascii	"$[\024\215\026;tmh\342g\212 \330i\257\336C\317\017\317"
 422      163B746D 
 422      68E2678A 
 422      20D869AF 
 422      DE43CF0F 
 423 037f 7463E8BC 		.ascii	"tc\350\274\313\030\022\361\037\312p\271\370\311\315"
 423      CB1812F1 
 423      1FCA70B9 
 423      F8C9CD
 424 038e F2A752B3 		.ascii	"\362\247R\263l\362Tj\226P\251Y\310~B\002~\276IX\014"
 424      6CF2546A 
 424      9650A959 
 424      C87E4202 
 424      7EBE4958 
 425 03a3 1237A5C0 		.ascii	"\0227\245\300\360\316S\247\361&\240\021\361\273,\012"
 425      F0CE53A7 
 425      F126A011 
ARM GAS  /tmp/cctldZmN.s 			page 34


 425      F1BB2C0A 
 426 03b3 4F7B6CC2 		.ascii	"O{l\302\331\025\2533o\237\034\306\033\031\253\367\031"
 426      D915AB33 
 426      6F9F1CC6 
 426      1B19ABF7 
 426      19
 427 03c4 AB73D366 		.ascii	"\253s\323f5y\346eug\374\2151\272\354\261\356\014\277"
 427      3579E665 
 427      7567FC8D 
 427      31BAECB1 
 427      EE0CBF
 428 03d7 6567F8CD 		.ascii	"eg\370\315\321\016\257T\322\004\255E\360zm\206\276T"
 428      D10EAF54 
 428      D204AD45 
 428      F07A6D86 
 428      BE54
 429 03e9 A1FF3B1D 		.ascii	"\241\377;\035/\036\256\360\003S\215E\267\201\225/\015"
 429      2F1EAEF0 
 429      03538D45 
 429      B781952F 
 429      0D
 430 03fa ACBFBB09 		.ascii	"\254\277\273\011\254\352R~\2504\260\334\355\267w\313"
 430      ACEA527E 
 430      A834B0DC 
 430      EDB777CB 
 431 040a EC946B36 		.ascii	"\354\224k6\313r\265\214\177\343\232R'\013\350j\305K"
 431      CB72B58C 
 431      7FE39A52 
 431      270BE86A 
 431      C54B
 432 041c 0921F3A5 		.ascii	"\011!\363\245\263\023\361\030\236\017\367s\354~\231"
 432      B313F118 
 432      9E0FF773 
 432      EC7E99
 433 042b DDFF0577 		.ascii	"\335\377\005wG\235N\224\232\366C\246O\256\362Tfw\225"
 433      479D4E94 
 433      9AF643A6 
 433      4FAEF254 
 433      667795
 434 043e 9EFF223E 		.ascii	"\236\377\">\306\216\232\343nT:ZTi\232G\241\210\3671"
 434      C68E9AE3 
 434      6E543A5A 
 434      54699A47 
 434      A188F731 
 435 0452 71D3AB92 		.ascii	"q\323\253\222\307\3552\241\333\272\351B\337\373\033"
 435      C7ED32A1 
 435      DBBAE942 
 435      DFFB1B
 436 0461 B46C33C1 		.ascii	"\264l3\301*\247\275\336\012+'\225Qn\370*\016\211\370"
 436      2AA7BDDE 
 436      0A2B2795 
 436      516EF82A 
 436      0E89F8
 437 0474 23C6E345 		.ascii	"#\306\343E\2575;\254\2503\233z\205\271\206\311\027\242"
 437      AF353BAC 
 437      A8339B7A 
 437      85B986C9 
ARM GAS  /tmp/cctldZmN.s 			page 35


 437      17A2
 438 0486 A4B39A4D 		.ascii	"\244\263\232M\013\350M/\267\215X9\237\363aE\321s\037"
 438      0BE84D2F 
 438      B78D5839 
 438      9FF36145 
 438      D1731F
 439 0499 33535A30 		.ascii	"3SZ0-E\376Y\257]\225\237\357\356\270y\032?\275\2114"
 439      2D45FE59 
 439      AF5D959F 
 439      EFEEB879 
 439      1A3FBD89 
 440 04ae A84E8534 		.ascii	"\250N\2054\307\360\016sK\350\243F\255\337E.\321\026"
 440      C7F00E73 
 440      4BE8A346 
 440      ADDF452E 
 440      D116
 441 04c0 619C91FD 		.ascii	"a\234\221\375\325\201l\274\330\"\220\356\321`\247a\374"
 441      D5816CBC 
 441      D82290EE 
 441      D160A761 
 441      FC
 442 04d1 0F1C0827 		.ascii	"\017\034\010'X\215\247\326\354\204<\327\261e\226\227"
 442      588DA7D6 
 442      EC843CD7 
 442      B1659697 
 443 04e1 55D6A80C 		.ascii	"U\326\250\014\225\266~\"L)\330\373\363\271?\236\011"
 443      95B67E22 
 443      4C29D8FB 
 443      F3B93F9E 
 443      09
 444 04f2 766EC817 		.ascii	"vn\310\027\012}!\367\345\372SB\271\226K;\200\215wst"
 444      0A7D21F7 
 444      E5FA5342 
 444      B9964B3B 
 444      808D7773 
 445 0507 C2EC3F6C 		.ascii	"\302\354?lmO.\305\214\016k\234a<)8wX]d\007\265\272\332"
 445      6D4F2EC5 
 445      8C0E6B9C 
 445      613C2938 
 445      77585D64 
 446 051f 34DF7020 		.ascii	"4\337p c\232id\347ug\211x\263 \224%\323\026`ks\036\225"
 446      639A6964 
 446      E7756789 
 446      78B32094 
 446      25D31660 
 447 0537 66A99F9A 		.ascii	"f\251\237\232m\376\030\366t{\351\275\307\2536Lp\254"
 447      6DFE18F6 
 447      747BE9BD 
 447      C7AB364C 
 447      70AC
 448 0549 7E307147 		.ascii	"~0qG\317~\262\371)\362qa=\266\370`\351\255\\\037t\013"
 448      CF7EB2F9 
 448      29F27161 
 448      3DB6F860 
 448      E9AD5C1F 
 449 055f 8E2D5369 		.ascii	"\216-Si'\321ot\022\263\221\261c\017\216\322\035\273"
 449      27D16F74 
ARM GAS  /tmp/cctldZmN.s 			page 36


 449      12B391B1 
 449      630F8ED2 
 449      1DBB
 450 0571 53A08177 		.ascii	"S\240\201w\300g\273\353\371<\250\022\273\004K'\262K"
 450      C067BBEB 
 450      F93CA812 
 450      BB044B27 
 450      B24B
 451 0583 ED97E8BC 		.ascii	"\355\227\350\274s'2\334\3217\335~\351\230\317U\277\364"
 451      732732DC 
 451      D137DD7E 
 451      E998CF55 
 451      BFF4
 452 0595 4BE6D967 		.ascii	"K\346\331g\255Z~$\206\324Yg\035'\337\012v\212j\375,"
 452      AD5A7E24 
 452      86D45967 
 452      1D27DF0A 
 452      768A6AFD 
 453 05aa E277B0CE 		.ascii	"\342w\260\316nZ\205\263Z!\252U\247\210\377R1\263\220"
 453      6E5A85B3 
 453      5A21AA55 
 453      A788FF52 
 453      31B390
 454 05bd 1DB33C63 		.ascii	"\035\263<cv\325\0153~\211\2413S\317\373\377T\314,d1"
 454      76D50D33 
 454      7E89A133 
 454      53CFFBFF 
 454      54CC2C64 
 455 05d2 5EF1901F 		.ascii	"^\361\220\037\024\350\301>\304\356{\330}\257\340\342"
 455      14E8C13E 
 455      C4EE7BD8 
 455      7DAFE0E2 
 456 05e2 44ED176A 		.ascii	"D\355\027j\212\274\2563}vM\327\354\271\375\243\314\207"
 456      8ABCAE33 
 456      7D764DD7 
 456      ECB9FDA3 
 456      CC87
 457 05f4 17596AF9 		.ascii	"\027Yj\371=\213\363J\230\331\232}\200\365r\333\004\027"
 457      3D8BF34A 
 457      98D99A7D 
 457      80F572DB 
 457      0417
 458 0606 9A399B5D 		.ascii	"\2329\233]\315^g\335hfgv;f\347\3350\233e\243\231\335"
 458      CD5E67DD 
 458      68666776 
 458      3B66E7DD 
 458      309B65A3 
 459 061c 55BAD145 		.ascii	"U\272\321E\334+\320\343\265\2179s\037\273?\307\356\317"
 459      DC2BD0E3 
 459      B58F3973 
 459      1FBB3FC7 
 459      EECF
 460 062e B3FBAFDC 		.ascii	"\263\373\257\334\270\367\031\301Z0\031\355\034\367\030"
 460      B8F719C1 
 460      5A3019ED 
 460      1CF718
 461 063d B1EBEB04 		.ascii	"\261\353\353\004\224\267\244-]\341\227\314\211\267\032"
ARM GAS  /tmp/cctldZmN.s 			page 37


 461      94B7A42D 
 461      5DE197CC 
 461      89B71A
 462 064c FD989560 		.ascii	"\375\230\225`[\310\006\374\270\363\217\231\007\204j"
 462      5BC806FC 
 462      B8F38F99 
 462      07846A
 463 065b 5AECFAB8 		.ascii	"Z\354\372\270e\010E\320\027\250\216\365\021\220\334"
 463      650845D0 
 463      17A88EF5 
 463      1190DC
 464 066a 823A5962 		.ascii	"\202:Yb\352\251UK7M\332\367tiA\215\311\313\302-ld\352"
 464      EAA9554B 
 464      374DDAF7 
 464      7469418D 
 464      C9CBC22D 
 465 0681 C11806CF 		.ascii	"\301\030\006\317n\277\021\212\345a0P\034\350\32642i"
 465      6EBF118A 
 465      E5613050 
 465      1CE8D634 
 465      3269
 466 0693 8E71A2ED 		.ascii	"\216q\242\355\214\213\016\305\322sS\265xTG\004\036\025"
 466      8C8B0EC5 
 466      D27353B5 
 466      78544704 
 466      1E15
 467 06a5 3D927954 		.ascii	"=\222yT\277\345Pq\014\265X\247\257\322\350G*6\324\357"
 467      BFE55071 
 467      0CB558A7 
 467      AFD2E847 
 467      2A36D4EF 
 468 06b9 3886D2FF 		.ascii	"8\206\322\377/\341V\362\334\365\371\371\302^\341\022"
 468      2FE156F2 
 468      DCF5F9F9 
 468      C25EE112 
 469 06c9 0D957140 		.ascii	"\015\225q@\216KU\305\027u\214K\344\343\023\035/\022"
 469      8E4B55C5 
 469      17758C4B 
 469      E4E3131D 
 469      2F12
 470 06db E9FF0074 		.ascii	"\351\377\000t\274v\005o\333D\306\310\265Ba\246\265\362"
 470      BC76056F 
 470      DB44C6C8 
 470      B54261A6 
 470      B5F2
 471 06ed 2BE7CA93 		.ascii	"+\347\312\223eK?\333_\333-;\366\272\317\266\372\273"
 471      654B3FDB 
 471      5FDB2D3B 
 471      F6BACFB6 
 471      FABB
 472 06ff AE577F22 		.ascii	"\256W\177\"\036f\371\376\204\213\352\257\223l\247e\034"
 472      1E66F9FE 
 472      848BEAAF 
 472      936CA765 
 472      1C
 473 0710 EBFC5F72 		.ascii	"\353\374_r\240*\376\270N^\241D\354\357\222\203\016D"
 473      A02AFEB8 
ARM GAS  /tmp/cctldZmN.s 			page 38


 473      4E5EA144 
 473      ECEF9283 
 473      0E44
 474 0722 BE925FC8 		.ascii	"\276\222_\310\311\310{\0175\024\177\036\347\021i\206"
 474      C9C87B0F 
 474      35147F1E 
 474      E7116986 
 475 0732 1A3327A0 		.ascii	"\0323'\240\020\352\243\025\327\310\252\020\253\352\004"
 475      10EAA315 
 475      D7C8AA10 
 475      ABEA04
 476 0741 34E1D30B 		.ascii	"4\341\323\013}\235b\0066\320.\234\332\330\217ULd\302"
 476      7D9D6206 
 476      36D02E9C 
 476      DAD88F55 
 476      4C64C2
 477 0754 2A723AF4 		.ascii	"*r:\36432C(\217\361s'\214^G\214\233[\2350\236\346\353"
 477      33324328 
 477      8FF17327 
 477      8C5E478C 
 477      9B5B9D30 
 478 076b 6189505A 		.ascii	"a\211PZ\261\362\302\352,'\256\335\327\303\347\314\201"
 478      B1F2C2EA 
 478      2C27AEDD 
 478      D7C3E7CC 
 478      81
 479 077c 19445B4B 		.ascii	"\031D[Ke\257\260?\007\331\217\221B\020Y.\036\352;\334"
 479      65AFB03F 
 479      07D98F91 
 479      4210592E 
 479      1EEA3BDC 
 480 0790 DD37C1F9 		.ascii	"\3357\301\371\005\202R\375\231Ku\244Lz\270\360\211-"
 480      058252FD 
 480      994B75A4 
 480      4C7AB8F0 
 480      892D
 481 07a2 72C9BA55 		.ascii	"r\311\272U\351J]\375\354s\261(\033\335\033\316f\322"
 481      E94A5DFD 
 481      EC73B128 
 481      1BDD1BCE 
 481      66D2
 482 07b4 E1B8DC14 		.ascii	"\341\270\334\024n\211F\303b:\261 \231JJ\013$\261I\016"
 482      6E8946C3 
 482      623AB120 
 482      994A4A0B 
 482      24B1490E 
 483 07c8 2F5AB878 		.ascii	"/Z\270x\341\242\260\234"
 483      E1A2B09C 
 484 07d0 8CC6B331 		.ascii	"\214\306\2631)\234Qb1\251ya+\362g\344\037J\021\305\277"
 484      299C5162 
 484      31A97961 
 484      2BF267E4 
 484      1F4A11C5 
 485 07e5 F2EB6B42 		.ascii	"\362\353kB\365\350\276pk*!\205\243\251\330\272pLj\017"
 485      F5E8BE70 
 485      6B2A2185 
 485      A3A9D8BA 
ARM GAS  /tmp/cctldZmN.s 			page 39


 485      704C6A0F 
 486 07f9 475BE526 		.ascii	"G[\345&9\225\011+\351l\362\007a\030\264\213i9\225\315"
 486      3995092B 
 486      E96CF207 
 486      6118B48B 
 486      693995CD 
 487 080d C087B6B4 		.ascii	"\300\207\266\264\234T\232\027F\2217\332*\246?\035O%"
 487      9C549A17 
 487      469137DA 
 487      2AA63F1D 
 487      4F25
 488 081f 5B224A2A 		.ascii	"[\"J*\222Q`\276%\262VVZ#1\271]\316\244\322\270\315\223"
 488      925160BE 
 488      25B25656 
 488      5A2331B9 
 488      5DCEA4D2 
 489 0836 CC267C69 		.ascii	"\314&|i1&?Q\245\315=\340$(\255\030\272F[\201\251$&2"
 489      31263F51 
 489      A5CD3DE0 
 489      2428AD18 
 489      BA465B81 
 490 084e A0EEECE5 		.ascii	"\240\356\354\345bFZ-=\236\225\222\212,\306W\263\017"
 490      62465A2D 
 490      3D9E9592 
 490      8A2CC657 
 490      B30F
 491 0860 B7D94D3E 		.ascii	"\267\331M>\332\370\310\235\314\034f3\224\030\000\364"
 491      DAF8C89D 
 491      CC1C6633 
 491      941800F4 
 492 0870 078E5559 		.ascii	"\007\216UYx.\216(\213\312 'D\320/)\205#`31\033W\"\312"
 492      782E8E28 
 492      8BCA2027 
 492      44D02F29 
 492      85236033 
 493 0889 BA3689AA 		.ascii	"\2726\211\252\023\210D4r\337\332\264\254H^\220\034k"
 493      13884434 
 493      72DFDAB4 
 493      AC485E90 
 493      1C6B
 494 089b 70B1B6B6 		.ascii	"p\261\266\266TZ\311\204\037|\270\261\276\361\011\300"
 494      545AC984 
 494      1F7CB8B1 
 494      BEF109C0 
 495 08ab 4CB4C971 		.ascii	"L\264\311q)\235\011\257\254\257\007t\235\273/\221\001"
 495      299D09AF 
 495      ACAF0774 
 495      9DBB2F91 
 495      01
 496 08bc 9B568180 		.ascii	"\233V\201\200\373\356\215( K\033y\332\262\212\247ER"
 496      FBEE8D28 
 496      204B1B79 
 496      DAB28AA7 
 496      4552
 497 08ce 3CED09A5 		.ascii	"<\355\011\245\"\227\213\351\026\272\342v1\022\2273J"
 497      22978BE9 
 497      16BAE276 
ARM GAS  /tmp/cctldZmN.s 			page 40


 497      31129733 
 497      4A
 498 08df 6D24D292 		.ascii	"m$\322\222\314F#\332k\315\222\246\254\034W\026\310\311"
 498      CC4623DA 
 498      6BCD92A6 
 498      AC1C5716 
 498      C8C9
 499 08f1 A5745DDA 		.ascii	"\245t]\332l \332\332\256\272\332\003>\3674'\024Al\233"
 499      6C20DADA 
 499      AEBADA03 
 499      3EF73427 
 499      14416C9B 
 500 0905 012E496A 		.ascii	"\001.Ij\263\340\033/\215\241\373\335\206NBJ\024\375"
 500      B3E01B2F 
 500      8DA1FBDD 
 500      864E424A 
 500      14FD
 501 0917 196C9412 		.ascii	"\031l\224\022\251\364:\325e\364\305p\236\277)\333\334"
 501      A9F43AD5 
 501      65F4C570 
 501      9EBF29DB 
 501      DC
 502 0928 2CA53D52 		.ascii	",\245=R*\343O57g$%\230\310\254j\372\276\024U\276\226"
 502      2AE34F35 
 502      37672425 
 502      98C8AC6A 
 502      FABE1455 
 503 093e 94155F64 		.ascii	"\224\025_dy*\025\367\306\225\22483\233\314\310-I)\026"
 503      792A15F7 
 503      C6959438 
 503      339BCCC8 
 503      2D492916 
 504 0952 01432652 		.ascii	"\001C&R\311\377\001%\210.\254"
 504      C9FF0125 
 504      882EAC
 505              		.text
 506              		.section	.gnu.lto_.symtab.4ad075b915ff6199,"",%progbits
 507 0000 63687670 		.ascii	"chvprintf\000\000\000\000\000\000\000\000\000\000\000"
 507      72696E74 
 507      66000000 
 507      00000000 
 507      00000000 
 508 0014 00B90000 		.ascii	"\000\271\000\000\000chsnprintf\000\000\000\000\000\000"
 508      00636873 
 508      6E707269 
 508      6E746600 
 508      00000000 
 509 0029 00000000 		.ascii	"\000\000\000\000\000\000\010\001\000\000msObjectIni"
 509      00000801 
 509      00006D73 
 509      4F626A65 
 509      6374496E 
 510 003e 74000002 		.ascii	"t\000\000\002\000\000\000\000\000\000\000\000\000\026"
 510      00000000 
 510      00000000 
 510      0016
 511 004c 010000   		.ascii	"\001\000\000"
ARM GAS  /tmp/cctldZmN.s 			page 41


 512              		.text
 513              		.section	.gnu.lto_.opts,"",%progbits
 514 0000 272D6D63 		.ascii	"'-mcpu=cortex-m3' '-mno-thumb-interwork' '-mthumb' "
 514      70753D63 
 514      6F727465 
 514      782D6D33 
 514      2720272D 
 515 0033 272D4F32 		.ascii	"'-O2' '-fomit-frame-pointer' '-falign-functions=16'"
 515      2720272D 
 515      666F6D69 
 515      742D6672 
 515      616D652D 
 516 0066 20272D66 		.ascii	" '-ffunction-sections' '-fdata-sections' '-fno-comm"
 516      66756E63 
 516      74696F6E 
 516      2D736563 
 516      74696F6E 
 517 0099 6F6E2720 		.ascii	"on' '-flto'\000"
 517      272D666C 
 517      746F2700 
 518              		.text
 519              		.section	.text.long_to_string_with_divisor.constprop.0,"ax",%progbits
 520              		.align	2
 521              		.p2align 4,,15
 522              		.thumb
 523              		.thumb_func
 524              		.type	long_to_string_with_divisor.constprop.0, %function
 525              	long_to_string_with_divisor.constprop.0:
 526              		@ args = 0, pretend = 0, frame = 0
 527              		@ frame_needed = 0, uses_anonymous_args = 0
 528              		@ link register save eliminated.
 529 0000 F0B4     		push	{r4, r5, r6, r7}
 530 0002 00F10B07 		add	r7, r0, #11
 531 0006 00F10A05 		add	r5, r0, #10
 532 000a 0C46     		mov	r4, r1
 533              	.L4:
 534 000c B1FBF2F6 		udiv	r6, r1, r2
 535 0010 02FB1611 		mls	r1, r2, r6, r1
 536 0014 01F13003 		add	r3, r1, #48
 537 0018 392B     		cmp	r3, #57
 538 001a C8BF     		it	gt
 539 001c 01F13703 		addgt	r3, r1, #55
 540 0020 DBB2     		uxtb	r3, r3
 541 0022 B4FBF2F4 		udiv	r4, r4, r2
 542 0026 3146     		mov	r1, r6
 543 0028 2E46     		mov	r6, r5
 544 002a 05F80139 		strb	r3, [r5], #-1
 545 002e 002C     		cmp	r4, #0
 546 0030 ECD1     		bne	.L4
 547 0032 B91B     		subs	r1, r7, r6
 548 0034 3246     		mov	r2, r6
 549 0036 0144     		add	r1, r1, r0
 550 0038 01E0     		b	.L6
 551              	.L9:
 552 003a 12F8013F 		ldrb	r3, [r2, #1]!	@ zero_extendqisi2
 553              	.L6:
 554 003e 00F8013B 		strb	r3, [r0], #1
ARM GAS  /tmp/cctldZmN.s 			page 42


 555 0042 8842     		cmp	r0, r1
 556 0044 F9D1     		bne	.L9
 557 0046 F0BC     		pop	{r4, r5, r6, r7}
 558 0048 7047     		bx	lr
 559              		.size	long_to_string_with_divisor.constprop.0, .-long_to_string_with_divisor.constprop.0
 560              		.section	.text.chvprintf,"ax",%progbits
 561              		.align	2
 562              		.p2align 4,,15
 563              		.global	chvprintf
 564              		.thumb
 565              		.thumb_func
 566              		.type	chvprintf, %function
 567              	chvprintf:
 568              		@ args = 0, pretend = 0, frame = 32
 569              		@ frame_needed = 0, uses_anonymous_args = 0
 570 0000 2DE9F04F 		push	{r4, r5, r6, r7, r8, r9, r10, fp, lr}
 571 0004 89B0     		sub	sp, sp, #36
 572 0006 05AB     		add	r3, sp, #20
 573 0008 0DF1150C 		add	ip, sp, #21
 574 000c 0193     		str	r3, [sp, #4]
 575 000e C3EB0C03 		rsb	r3, r3, ip
 576 0012 CDF800C0 		str	ip, [sp]
 577 0016 8346     		mov	fp, r0
 578 0018 0C46     		mov	r4, r1
 579 001a 1546     		mov	r5, r2
 580 001c 0393     		str	r3, [sp, #12]
 581 001e 4FF00008 		mov	r8, #0
 582              	.L11:
 583 0022 2178     		ldrb	r1, [r4]	@ zero_extendqisi2
 584 0024 631C     		adds	r3, r4, #1
 585 0026 69B1     		cbz	r1, .L68
 586              	.L72:
 587 0028 2529     		cmp	r1, #37
 588 002a 0FD0     		beq	.L13
 589 002c DBF80020 		ldr	r2, [fp]
 590 0030 1C46     		mov	r4, r3
 591 0032 9268     		ldr	r2, [r2, #8]
 592 0034 5846     		mov	r0, fp
 593 0036 9047     		blx	r2
 594 0038 2178     		ldrb	r1, [r4]	@ zero_extendqisi2
 595 003a 08F10108 		add	r8, r8, #1
 596 003e 631C     		adds	r3, r4, #1
 597 0040 0029     		cmp	r1, #0
 598 0042 F1D1     		bne	.L72
 599              	.L68:
 600 0044 4046     		mov	r0, r8
 601 0046 09B0     		add	sp, sp, #36
 602              		@ sp needed
 603 0048 BDE8F08F 		pop	{r4, r5, r6, r7, r8, r9, r10, fp, pc}
 604              	.L13:
 605 004c 6278     		ldrb	r2, [r4, #1]	@ zero_extendqisi2
 606 004e 0027     		movs	r7, #0
 607 0050 2D2A     		cmp	r2, #45
 608 0052 03BF     		ittte	eq
 609 0054 A278     		ldrbeq	r2, [r4, #2]	@ zero_extendqisi2
 610 0056 A31C     		addeq	r3, r4, #2
 611 0058 4FF0010A 		moveq	r10, #1
ARM GAS  /tmp/cctldZmN.s 			page 43


 612 005c 4FF0000A 		movne	r10, #0
 613 0060 302A     		cmp	r2, #48
 614 0062 03BF     		ittte	eq
 615 0064 5A78     		ldrbeq	r2, [r3, #1]	@ zero_extendqisi2
 616 0066 0133     		addeq	r3, r3, #1
 617 0068 3026     		moveq	r6, #48
 618 006a 2026     		movne	r6, #32
 619 006c 1C46     		mov	r4, r3
 620 006e 06E0     		b	.L19
 621              	.L73:
 622 0070 2B78     		ldrb	r3, [r5]	@ zero_extendqisi2
 623 0072 0435     		adds	r5, r5, #4
 624              	.L17:
 625 0074 07EB8707 		add	r7, r7, r7, lsl #2
 626 0078 2278     		ldrb	r2, [r4]	@ zero_extendqisi2
 627 007a 03EB4707 		add	r7, r3, r7, lsl #1
 628              	.L19:
 629 007e A2F13003 		sub	r3, r2, #48
 630 0082 DBB2     		uxtb	r3, r3
 631 0084 092B     		cmp	r3, #9
 632 0086 04F10104 		add	r4, r4, #1
 633 008a F3D9     		bls	.L17
 634 008c 2A2A     		cmp	r2, #42
 635 008e EFD0     		beq	.L73
 636 0090 2E2A     		cmp	r2, #46
 637 0092 4FF00001 		mov	r1, #0
 638 0096 29D0     		beq	.L22
 639 0098 02F0DF03 		and	r3, r2, #223
 640 009c 4C2B     		cmp	r3, #76
 641 009e 34D0     		beq	.L74
 642              	.L24:
 643 00a0 A2F14403 		sub	r3, r2, #68
 644 00a4 342B     		cmp	r3, #52
 645 00a6 00F2B580 		bhi	.L25
 646 00aa DFE803F0 		tbb	[pc, r3]
 647              	.L27:
 648 00ae AC       		.byte	(.L26-.L27)/2
 649 00af B3       		.byte	(.L25-.L27)/2
 650 00b0 B3       		.byte	(.L25-.L27)/2
 651 00b1 B3       		.byte	(.L25-.L27)/2
 652 00b2 B3       		.byte	(.L25-.L27)/2
 653 00b3 AC       		.byte	(.L26-.L27)/2
 654 00b4 B3       		.byte	(.L25-.L27)/2
 655 00b5 B3       		.byte	(.L25-.L27)/2
 656 00b6 B3       		.byte	(.L25-.L27)/2
 657 00b7 B3       		.byte	(.L25-.L27)/2
 658 00b8 B3       		.byte	(.L25-.L27)/2
 659 00b9 AA       		.byte	(.L28-.L27)/2
 660 00ba B3       		.byte	(.L25-.L27)/2
 661 00bb B3       		.byte	(.L25-.L27)/2
 662 00bc B3       		.byte	(.L25-.L27)/2
 663 00bd B3       		.byte	(.L25-.L27)/2
 664 00be B3       		.byte	(.L25-.L27)/2
 665 00bf 34       		.byte	(.L57-.L27)/2
 666 00c0 B3       		.byte	(.L25-.L27)/2
 667 00c1 B3       		.byte	(.L25-.L27)/2
 668 00c2 7D       		.byte	(.L30-.L27)/2
ARM GAS  /tmp/cctldZmN.s 			page 44


 669 00c3 B3       		.byte	(.L25-.L27)/2
 670 00c4 B3       		.byte	(.L25-.L27)/2
 671 00c5 B3       		.byte	(.L25-.L27)/2
 672 00c6 B3       		.byte	(.L25-.L27)/2
 673 00c7 B3       		.byte	(.L25-.L27)/2
 674 00c8 B3       		.byte	(.L25-.L27)/2
 675 00c9 B3       		.byte	(.L25-.L27)/2
 676 00ca B3       		.byte	(.L25-.L27)/2
 677 00cb B3       		.byte	(.L25-.L27)/2
 678 00cc B3       		.byte	(.L25-.L27)/2
 679 00cd 9F       		.byte	(.L31-.L27)/2
 680 00ce AC       		.byte	(.L26-.L27)/2
 681 00cf B3       		.byte	(.L25-.L27)/2
 682 00d0 B3       		.byte	(.L25-.L27)/2
 683 00d1 B3       		.byte	(.L25-.L27)/2
 684 00d2 B3       		.byte	(.L25-.L27)/2
 685 00d3 AC       		.byte	(.L26-.L27)/2
 686 00d4 B3       		.byte	(.L25-.L27)/2
 687 00d5 B3       		.byte	(.L25-.L27)/2
 688 00d6 B3       		.byte	(.L25-.L27)/2
 689 00d7 B3       		.byte	(.L25-.L27)/2
 690 00d8 B3       		.byte	(.L25-.L27)/2
 691 00d9 AA       		.byte	(.L28-.L27)/2
 692 00da B3       		.byte	(.L25-.L27)/2
 693 00db B3       		.byte	(.L25-.L27)/2
 694 00dc B3       		.byte	(.L25-.L27)/2
 695 00dd 7F       		.byte	(.L32-.L27)/2
 696 00de B3       		.byte	(.L25-.L27)/2
 697 00df 34       		.byte	(.L57-.L27)/2
 698 00e0 B3       		.byte	(.L25-.L27)/2
 699 00e1 B3       		.byte	(.L25-.L27)/2
 700 00e2 7D       		.byte	(.L30-.L27)/2
 701 00e3 00       		.p2align 1
 702              	.L75:
 703 00e4 2B78     		ldrb	r3, [r5]	@ zero_extendqisi2
 704 00e6 0435     		adds	r5, r5, #4
 705              	.L21:
 706 00e8 03EB4001 		add	r1, r3, r0, lsl #1
 707              	.L22:
 708 00ec 14F8012B 		ldrb	r2, [r4], #1	@ zero_extendqisi2
 709 00f0 01EB8100 		add	r0, r1, r1, lsl #2
 710 00f4 A2F13003 		sub	r3, r2, #48
 711 00f8 DBB2     		uxtb	r3, r3
 712 00fa 092B     		cmp	r3, #9
 713 00fc F4D9     		bls	.L21
 714 00fe 2A2A     		cmp	r2, #42
 715 0100 F0D0     		beq	.L75
 716 0102 02F0DF03 		and	r3, r2, #223
 717 0106 4C2B     		cmp	r3, #76
 718 0108 CAD1     		bne	.L24
 719              	.L74:
 720 010a 2378     		ldrb	r3, [r4]	@ zero_extendqisi2
 721 010c 002B     		cmp	r3, #0
 722 010e C7D0     		beq	.L24
 723 0110 0134     		adds	r4, r4, #1
 724 0112 1A46     		mov	r2, r3
 725 0114 C4E7     		b	.L24
ARM GAS  /tmp/cctldZmN.s 			page 45


 726              	.L57:
 727 0116 0A22     		movs	r2, #10
 728              	.L29:
 729 0118 2968     		ldr	r1, [r5]
 730 011a 05A8     		add	r0, sp, #20
 731 011c 0435     		adds	r5, r5, #4
 732              	.L70:
 733 011e FFF7FEFF 		bl	long_to_string_with_divisor.constprop.0
 734 0122 019B     		ldr	r3, [sp, #4]
 735 0124 0DF11409 		add	r9, sp, #20
 736 0128 C01A     		subs	r0, r0, r3
 737 012a 00F1FF3C 		add	ip, r0, #-1
 738 012e CDF808C0 		str	ip, [sp, #8]
 739              	.L33:
 740 0132 3F1A     		subs	r7, r7, r0
 741 0134 27EAE777 		bic	r7, r7, r7, asr #31
 742 0138 BAF1000F 		cmp	r10, #0
 743 013c 12D1     		bne	.L44
 744 013e 7F42     		negs	r7, r7
 745 0140 87B1     		cbz	r7, .L44
 746 0142 99F80010 		ldrb	r1, [r9]	@ zero_extendqisi2
 747 0146 2D29     		cmp	r1, #45
 748 0148 6CD0     		beq	.L76
 749              	.L45:
 750 014a BA46     		mov	r10, r7
 751              	.L47:
 752 014c DBF80030 		ldr	r3, [fp]
 753 0150 5846     		mov	r0, fp
 754 0152 9B68     		ldr	r3, [r3, #8]
 755 0154 3146     		mov	r1, r6
 756 0156 9847     		blx	r3
 757 0158 1AF1010A 		adds	r10, r10, #1
 758 015c F6D1     		bne	.L47
 759 015e C7EB0808 		rsb	r8, r7, r8
 760 0162 5746     		mov	r7, r10
 761              	.L44:
 762 0164 029A     		ldr	r2, [sp, #8]
 763 0166 002A     		cmp	r2, #0
 764 0168 0FDB     		blt	.L48
 765 016a 09F1FF3A 		add	r10, r9, #-1
 766 016e 9144     		add	r9, r9, r2
 767              	.L50:
 768 0170 DBF80030 		ldr	r3, [fp]
 769 0174 1AF8011F 		ldrb	r1, [r10, #1]!	@ zero_extendqisi2
 770 0178 9B68     		ldr	r3, [r3, #8]
 771 017a 5846     		mov	r0, fp
 772 017c 9847     		blx	r3
 773 017e CA45     		cmp	r10, r9
 774 0180 F6D1     		bne	.L50
 775 0182 029B     		ldr	r3, [sp, #8]
 776 0184 08F10108 		add	r8, r8, #1
 777 0188 9844     		add	r8, r8, r3
 778              	.L48:
 779 018a 002F     		cmp	r7, #0
 780 018c 3FF449AF 		beq	.L11
 781 0190 B946     		mov	r9, r7
 782              	.L52:
ARM GAS  /tmp/cctldZmN.s 			page 46


 783 0192 DBF80030 		ldr	r3, [fp]
 784 0196 5846     		mov	r0, fp
 785 0198 9B68     		ldr	r3, [r3, #8]
 786 019a 3146     		mov	r1, r6
 787 019c 9847     		blx	r3
 788 019e B9F10109 		subs	r9, r9, #1
 789 01a2 F6D1     		bne	.L52
 790 01a4 B844     		add	r8, r8, r7
 791 01a6 3CE7     		b	.L11
 792              	.L30:
 793 01a8 1022     		movs	r2, #16
 794 01aa B5E7     		b	.L29
 795              	.L32:
 796 01ac D5F80090 		ldr	r9, [r5]
 797 01b0 2F4A     		ldr	r2, .L79
 798 01b2 47F6FF73 		movw	r3, #32767
 799 01b6 B9F1000F 		cmp	r9, #0
 800 01ba 08BF     		it	eq
 801 01bc 9146     		moveq	r9, r2
 802 01be 99F80000 		ldrb	r0, [r9]	@ zero_extendqisi2
 803 01c2 0435     		adds	r5, r5, #4
 804 01c4 0029     		cmp	r1, #0
 805 01c6 08BF     		it	eq
 806 01c8 1946     		moveq	r1, r3
 807 01ca 0028     		cmp	r0, #0
 808 01cc 4BD0     		beq	.L60
 809 01ce 4944     		add	r1, r1, r9
 810 01d0 4B46     		mov	r3, r9
 811 01d2 01E0     		b	.L38
 812              	.L36:
 813 01d4 9942     		cmp	r1, r3
 814 01d6 37D0     		beq	.L77
 815              	.L38:
 816 01d8 5A78     		ldrb	r2, [r3, #1]	@ zero_extendqisi2
 817 01da 0133     		adds	r3, r3, #1
 818 01dc 002A     		cmp	r2, #0
 819 01de F9D1     		bne	.L36
 820 01e0 C9EB0300 		rsb	r0, r9, r3
 821 01e4 431E     		subs	r3, r0, #1
 822 01e6 0293     		str	r3, [sp, #8]
 823 01e8 2026     		movs	r6, #32
 824 01ea A2E7     		b	.L33
 825              	.L31:
 826 01ec 0398     		ldr	r0, [sp, #12]
 827 01ee 2B68     		ldr	r3, [r5]
 828 01f0 421E     		subs	r2, r0, #1
 829 01f2 8DF81430 		strb	r3, [sp, #20]
 830 01f6 0435     		adds	r5, r5, #4
 831 01f8 0292     		str	r2, [sp, #8]
 832 01fa 2026     		movs	r6, #32
 833 01fc 0DF11409 		add	r9, sp, #20
 834 0200 97E7     		b	.L33
 835              	.L28:
 836 0202 0822     		movs	r2, #8
 837 0204 88E7     		b	.L29
 838              	.L26:
 839 0206 2968     		ldr	r1, [r5]
ARM GAS  /tmp/cctldZmN.s 			page 47


 840 0208 0435     		adds	r5, r5, #4
 841 020a 0029     		cmp	r1, #0
 842 020c 24DB     		blt	.L78
 843 020e 05A8     		add	r0, sp, #20
 844              	.L41:
 845 0210 0A22     		movs	r2, #10
 846 0212 84E7     		b	.L70
 847              	.L25:
 848 0214 0398     		ldr	r0, [sp, #12]
 849 0216 8DF81420 		strb	r2, [sp, #20]
 850 021a 421E     		subs	r2, r0, #1
 851 021c 0292     		str	r2, [sp, #8]
 852 021e 0DF11409 		add	r9, sp, #20
 853 0222 86E7     		b	.L33
 854              	.L76:
 855 0224 302E     		cmp	r6, #48
 856 0226 90D1     		bne	.L45
 857 0228 DBF80030 		ldr	r3, [fp]
 858 022c 5846     		mov	r0, fp
 859 022e 9B68     		ldr	r3, [r3, #8]
 860 0230 9847     		blx	r3
 861 0232 DDF808C0 		ldr	ip, [sp, #8]
 862 0236 09F10109 		add	r9, r9, #1
 863 023a 0CF1FF3C 		add	ip, ip, #-1
 864 023e 08F10108 		add	r8, r8, #1
 865 0242 CDF808C0 		str	ip, [sp, #8]
 866 0246 80E7     		b	.L45
 867              	.L77:
 868 0248 C9EB0100 		rsb	r0, r9, r1
 869 024c 00F1FF3C 		add	ip, r0, #-1
 870 0250 CDF808C0 		str	ip, [sp, #8]
 871 0254 2026     		movs	r6, #32
 872 0256 6CE7     		b	.L33
 873              	.L78:
 874 0258 2D23     		movs	r3, #45
 875 025a 4942     		negs	r1, r1
 876 025c 8DF81430 		strb	r3, [sp, #20]
 877 0260 0DF11500 		add	r0, sp, #21
 878 0264 D4E7     		b	.L41
 879              	.L60:
 880 0266 4FF0FF33 		mov	r3, #-1
 881 026a 0293     		str	r3, [sp, #8]
 882 026c 2026     		movs	r6, #32
 883 026e 60E7     		b	.L33
 884              	.L80:
 885              		.align	2
 886              	.L79:
 887 0270 00000000 		.word	.LC0
 888              		.size	chvprintf, .-chvprintf
 889 0274 AFF30080 		.section	.text.chsnprintf,"ax",%progbits
 889      AFF30080 
 889      AFF30080 
 890              		.align	2
 891              		.p2align 4,,15
 892              		.global	chsnprintf
 893              		.thumb
 894              		.thumb_func
ARM GAS  /tmp/cctldZmN.s 			page 48


 895              		.type	chsnprintf, %function
 896              	chsnprintf:
 897              		@ args = 4, pretend = 8, frame = 24
 898              		@ frame_needed = 0, uses_anonymous_args = 1
 899 0000 0CB4     		push	{r2, r3}
 900 0002 70B5     		push	{r4, r5, r6, lr}
 901 0004 86B0     		sub	sp, sp, #24
 902 0006 0C46     		mov	r4, r1
 903 0008 0546     		mov	r5, r0
 904 000a 0A9E     		ldr	r6, [sp, #40]
 905 000c B1B1     		cbz	r1, .L82
 906 000e 01A8     		add	r0, sp, #4
 907 0010 2946     		mov	r1, r5
 908 0012 621E     		subs	r2, r4, #1
 909 0014 0023     		movs	r3, #0
 910 0016 FFF7FEFF 		bl	msObjectInit
 911 001a 0BAB     		add	r3, sp, #44
 912 001c 1A46     		mov	r2, r3
 913 001e 01A8     		add	r0, sp, #4
 914 0020 3146     		mov	r1, r6
 915 0022 0093     		str	r3, [sp]
 916 0024 FFF7FEFF 		bl	chvprintf
 917 0028 049B     		ldr	r3, [sp, #16]
 918 002a 9C42     		cmp	r4, r3
 919 002c 01D9     		bls	.L84
 920 002e 0022     		movs	r2, #0
 921 0030 EA54     		strb	r2, [r5, r3]
 922              	.L84:
 923 0032 06B0     		add	sp, sp, #24
 924              		@ sp needed
 925 0034 BDE87040 		pop	{r4, r5, r6, lr}
 926 0038 02B0     		add	sp, sp, #8
 927 003a 7047     		bx	lr
 928              	.L82:
 929 003c 0A46     		mov	r2, r1
 930 003e 2346     		mov	r3, r4
 931 0040 0146     		mov	r1, r0
 932 0042 01A8     		add	r0, sp, #4
 933 0044 FFF7FEFF 		bl	msObjectInit
 934 0048 0BAB     		add	r3, sp, #44
 935 004a 01A8     		add	r0, sp, #4
 936 004c 3146     		mov	r1, r6
 937 004e 1A46     		mov	r2, r3
 938 0050 0093     		str	r3, [sp]
 939 0052 FFF7FEFF 		bl	chvprintf
 940 0056 06B0     		add	sp, sp, #24
 941              		@ sp needed
 942 0058 BDE87040 		pop	{r4, r5, r6, lr}
 943 005c 02B0     		add	sp, sp, #8
 944 005e 7047     		bx	lr
 945              		.size	chsnprintf, .-chsnprintf
 946              		.section	.rodata.str1.4,"aMS",%progbits,1
 947              		.align	2
 948              	.LC0:
 949 0000 286E756C 		.ascii	"(null)\000"
 949      6C2900
 950              		.comm	__gnu_lto_v1,1,1
ARM GAS  /tmp/cctldZmN.s 			page 49


 951 0007 00       		.ident	"GCC: (GNU Tools for ARM Embedded Processors) 4.8.4 20140526 (release) [ARM/embedded-4_8-br
ARM GAS  /tmp/cctldZmN.s 			page 50

