ARM GAS  /tmp/ccUoimlR.s 			page 1


   1              		.syntax unified
   2              		.cpu cortex-m4
   3              		.eabi_attribute 27, 3
   4              		.eabi_attribute 28, 1
   5              		.fpu fpv4-sp-d16
   6              		.eabi_attribute 20, 1
   7              		.eabi_attribute 21, 1
   8              		.eabi_attribute 23, 3
   9              		.eabi_attribute 24, 1
  10              		.eabi_attribute 25, 1
  11              		.eabi_attribute 26, 1
  12              		.eabi_attribute 30, 2
  13              		.eabi_attribute 34, 1
  14              		.eabi_attribute 18, 4
  15              		.thumb
  16              		.file	"chprintf.c"
  17              		.section	.gnu.lto_.jmpfuncs.7ba6aca9f933394,"",%progbits
  18 0000 789C6362 		.ascii	"x\234cb`b\300\006\026@if\006~Fv\026\010\233)\2021\223"
  18      6062C006 
  18      16406966 
  18      067E4676 
  18      16089B29 
  19 0017 11C46081 		.ascii	"\021\304`\201\363\030\271\220\204\231\230\201D\031\210"
  19      F318B990 
  19      84999881 
  19      441988
  20 0026 554F2687 		.ascii	"UO&\207\235\021d#\0101\201\305\230\240\2463A,\005\253"
  20      9D116423 
  20      083181C5 
  20      98A0A633 
  20      412C05AB 
  21 003a 6584D90D 		.ascii	"e\204\331\015\3421\000\000\2103\012\232"
  21      E2310000 
  21      88330A9A 
  22              		.text
  23              		.section	.gnu.lto_.inline.7ba6aca9f933394,"",%progbits
  24 0000 789C6362 		.ascii	"x\234cb`b\300\006\276@if\006\006\311/\314\214,\314\351"
  24      6062C006 
  24      BE406966 
  24      0606C92F 
  24      CC8C2CCC 
  25 0015 118C998C 		.ascii	"\021\214\231\214`\221\0148\013L\202\010\026\265y{m\030"
  25      60910C38 
  25      0B4C8208 
  25      16B5797B 
  25      6D18
  26 0027 D816C833 		.ascii	"\330\026\31031\260,\220\027``\272\300\257\000\226\343"
  26      31B02C90 
  26      176060BA 
  26      C0AF0096 
  26      E3
  27 0038 39C3B852 		.ascii	"9\303\270R\231\221\201i7\323\215[s\231\030\204\017\335"
  27      99918169 
  27      37D38D5B 
  27      73991884 
  27      0FDD
  28 004a E306DBC7 		.ascii	"\343\006\333\307\306\317\310\300\3020\301o\202\037\204"
ARM GAS  /tmp/ccUoimlR.s 			page 2


  28      C6CFC8C0 
  28      C230C16F 
  28      821F84
  29 0059 096631B0 		.ascii	"\011f1\260\012210\235`\274\313\016eL\360\0033\026\261"
  29      0A323130 
  29      9D60BCCB 
  29      0E654CF0 
  29      033316B1 
  30 006d B64AB10A 		.ascii	"\266J\261\012\002M\001\251\0023Z\370'\3701IH\030\002"
  30      024D01A9 
  30      02335AF8 
  30      27F83149 
  30      481802
  31 0080 9D00760D 		.ascii	"\235\000v\0153\310\256t8\013\354$\256\037\216\310.z"
  31      33C8AE74 
  31      380BEC24 
  31      AE1F8EC8 
  31      2E7A
  32 0092 C12EC002 		.ascii	"\301.\300\002\363\034#\003+\037\310k \363\230y\030@"
  32      F31C2303 
  32      2B1FC86B 
  32      20F39879 
  32      1840
  33 00a4 41001280 		.ascii	"A\000\022\200:\210\001\000I\305%\231"
  33      3A880100 
  33      49C52599 
  34              		.text
  35              		.section	.gnu.lto_.pureconst.7ba6aca9f933394,"",%progbits
  36 0000 789C6362 		.ascii	"x\234cb`b`g\200\000f\006)F)&)\000\001\313\000`"
  36      60626067 
  36      80006606 
  36      29462926 
  36      290001CB 
  37              		.text
  38              		.section	.gnu.lto_long_to_string_with_divisor.7ba6aca9f933394,"",%progbits
  39 0000 789C8D55 		.ascii	"x\234\215UKhUW\024\335\373\234\373\313\273\367\371O"
  39      4B685557 
  39      14DDFB9C 
  39      FBCBBBF7 
  39      F94F
  40 0012 6C62FE21 		.ascii	"lb\376!u \3445\012\225\342@2\021\235\033\260\303\370"
  40      7520E435 
  40      0A95E240 
  40      32119D1B 
  40      B0C3F8
  41 0025 8CD7879F 		.ascii	"\214\327\207\237\324\370A\235\344\276\274\010\261y\245"
  41      D4F8419D 
  41      E4BEBC08 
  41      B179A5
  42 0034 519CD44A 		.ascii	"Q\234\324Ji\220\"E%h\351\244*\304\037F\264\037q\364"
  42      69902245 
  42      2568E9A4 
  42      2AC41F46 
  42      B41F71F4 
  43 0048 502193C6 		.ascii	"P!\223\306A\374\264tT\252^\3279\367\343k(4\027\262\367"
  43      41FCB474 
  43      54AA5ED7 
ARM GAS  /tmp/ccUoimlR.s 			page 3


  43      39F7E36B 
  43      283417B2 
  44 005d BD6BAFBD 		.ascii	"\275k\257\275\317\336\353\354$\202\004\315\177N\342"
  44      CFDEEBEC 
  44      248204CD 
  44      7F4EE2
  45 006c 67D624DA 		.ascii	"g\326$\332\002\317Yb1\376\013Q\321\021\302\030]MAF*"
  45      02CF5962 
  45      31FE0B51 
  45      D111C218 
  45      5D4D4146 
  46 0081 EB493622 		.ascii	"\353I6\"\330`3z1\205\245\343\266\216[lG\260-\274\362"
  46      D860337A 
  46      3185A5E3 
  46      B68E5B6C 
  46      47B02DBC 
  47 0096 5D02EE8C 		.ascii	"]\002\356\214\330\300\275\210\336\343pM\024\257\021"
  47      D8C0BD88 
  47      DEE3704D 
  47      14AF11
  48 00a5 6E14CFE8 		.ascii	"n\024\317\350\270\033\341=\031f\345\211iHH\303\264l"
  48      B81BE13D 
  48      1966E589 
  48      694848C3 
  48      B46C
  49 00b7 CFA97133 		.ascii	"\317\251q3<\364)\253\026\315v\232\010\202S3w\036\237"
  49      3CF429AB 
  49      16CD769A 
  49      08825333 
  49      771E9F
  50 00ca AEFFFCDB 		.ascii	"\256\377\374\333\341\361\340m\030r\2011\314\307Ly\246"
  50      E1F1E06D 
  50      18728131 
  50      CCC74C79 
  50      A6
  51 00db 6DF8E056 		.ascii	"m\370\340V\355\204\361\357\351\242\314\251\277'\356"
  51      ED84F1EF 
  51      E9A2CCA9 
  51      BF27EE
  52 00ea 4D70702A 		.ascii	"Mpp*(\376\021\206\213u\346\206\005e\216O\275yZ\316\214"
  52      28FE1186 
  52      8B75E686 
  52      05658E4F 
  52      BD795ACE 
  53 00ff 17478330 		.ascii	"\027G\2030\034*\260\024\324\263\300\274+\375\323\301"
  53      1C2AB014 
  53      D4B3C0BC 
  53      2BFDD3C1 
  54 010f C854186E 		.ascii	"\310T\030n\324Y\233\026\330\347\217\277OW\265i\010\332"
  54      D4599B16 
  54      D8E78FBF 
  54      4F57B569 
  54      08DA
  55 0121 FC7F8993 		.ascii	"\374\177\211\223bj&\014\313c\337\314~\300\0372\355U"
  55      626A260C 
  55      CB63DFCC 
  55      7EC01F32 
ARM GAS  /tmp/ccUoimlR.s 			page 4


  55      ED55
  56 0133 B3F5F179 		.ascii	"\263\365\361yn'\031{\003\376{x3\366\026Hl+\343(\343"
  56      6E27197B 
  56      03FE7B78 
  56      33F61648 
  56      6C2BE328 
  57 0148 328C0723 		.ascii	"2\214\007#\2620\264(f-\201\237\200_\012P.#h\266<\256"
  57      B230B428 
  57      662D819F 
  57      805F0A50 
  57      2E2368B6 
  58 015e B722F6B5 		.ascii	"\267\"\366\265\261\257\2133V\202d\326+f\203\252\273"
  58      B1AF8B33 
  58      568264D6 
  58      2B6683AA 
  58      BB
  59 016f 0AF039C0 		.ascii	"\012\3609\300\215\012iRH3\336d\013\340\357\000\267\306"
  59      8D0A6952 
  59      4833DE64 
  59      0BE0EF00 
  59      B7C6
  60 0181 D96DAAE5 		.ascii	"\331m\252\345\366\270D\207*\321\031G\324\305\323\010"
  60      F6B84487 
  60      2AD11947 
  60      D4C5D308 
  61 0191 B46C8DBE 		.ascii	"\264l\215\276#\012)=\360l\205\305\012\365\262\200\223"
  61      230A293D 
  61      F06C85C5 
  61      0AF5B280 
  61      93
  62 01a2 D374FBD9 		.ascii	"\323t\373\331\215\353\365}|\201M\362\331SJY\3252meI"
  62      8DEBF57D 
  62      7C814DF2 
  62      D9534A59 
  62      D5326D65 
  63 01b7 37A5EC65 		.ascii	"7\245\354eC\321\177\246\322X\351\2075\011}\221\317Y"
  63      43D17FA6 
  63      D258E987 
  63      35097D91 
  63      CF59
  64 01c9 ADADABB9 		.ascii	"\255\255\253\271\025\262}v\305\3531\013\225\344\351"
  64      15B27D76 
  64      C5EB310B 
  64      95E4E9
  65 01d8 2CE11493 		.ascii	",\341\024\223\260\237\310\033~Y\272z_$\211K|u\012\252"
  65      B09FC81B 
  65      7E59BA7A 
  65      5F24894B 
  65      7C750AAA 
  66 01ec 7D251368 		.ascii	"}%\023h\231F\227*\024\334\346\004^\216\210f\216\226"
  66      9946972A 
  66      14DCE604 
  66      5E8E8866 
  66      8E96
  67 01fe AEA7DC15 		.ascii	"\256\247\334\025\300\325\271\362#\234\212\021fo\374"
  67      C0D5B9F2 
  67      239C8A11 
ARM GAS  /tmp/ccUoimlR.s 			page 5


  67      666FFC
  68 020d D997C674 		.ascii	"\331\227\306t\340\223t\200\012\031h\324xp\211}\256\363"
  68      E0937480 
  68      0A1968D4 
  68      7870897D 
  68      AEF3
  69 021f 2EFE6A55 		.ascii	".\376jU\010\355\271\306\223\013\000\032\274k\257\270"
  69      08EDB9C6 
  69      930B001A 
  69      BC6BAFB8 
  70 022f 428ECFB6 		.ascii	"B\216\317\266\201\317&\357\301\227\031\325\265E\243"
  70      81CF26EF 
  70      C19719D5 
  70      B545A3
  71 023e ABA53EF4 		.ascii	"\253\245>\364\331}N*\327&\247\256\217K\367b\033\242"
  71      D97D4E2A 
  71      D726A7AE 
  71      8F4BF762 
  71      1BA2
  72 0250 E9A0CADC 		.ascii	"\351\240\312\334\243\224X\347\263\241e\011\361,&=\322"
  72      A39458E7 
  72      B3A16509 
  72      F12C263D 
  72      D2
  73 0261 5CDAFC4A 		.ascii	"\\\332\374J\037\322+hK\204|Mg\212A\020\270\270A\244"
  73      1FD22B68 
  73      4B847C4D 
  73      678A4110 
  73      B8B841A4 
  74 0275 AABC6853 		.ascii	"\252\274hS\301\324\203\177Qz\265!\311\255\257\026)\255"
  74      C1D4837F 
  74      517AB521 
  74      C9ADAF16 
  74      29AD
  75 0287 D88040AC 		.ascii	"\330\200@\254\333_\267R\215W\371\330S] %6jt~z\023\002"
  75      DB5FB752 
  75      8D57F9D8 
  75      535D2025 
  75      366A747E 
  76 029e 4AC691E7 		.ascii	"J\306\221\347E;\305\346-B\205\004\2445_\277\200J\265"
  76      453BC5E6 
  76      2D428504 
  76      A4355FBF 
  76      804AB5
  77 02b1 D6D9494B 		.ascii	"\326\331IKm\206G\370\223\304\2758F\257\306\360\\\351"
  77      6D8647F8 
  77      93C4BD38 
  77      46AFC6F0 
  77      5CE9
  78 02c3 9FB4D366 		.ascii	"\237\264\323f\210>o\360\026\214\247\033:Q\252K\260V"
  78      883E6FF0 
  78      168CA71B 
  78      3A51AA4B 
  78      B056
  79 02d5 CD6C49F4 		.ascii	"\315lI\364\254y\257\347\271r\332L\233\317\254\365d\255"
  79      AC79AFE7 
  79      B972DA4C 
ARM GAS  /tmp/ccUoimlR.s 			page 6


  79      9BCFACF5 
  79      64AD
  80 02e7 2582C792 		.ascii	"%\202\307\222P\273\317fUh\370\247\343\203I\250\003\302"
  80      50BBCF66 
  80      5568F8A7 
  80      E38349A8 
  80      03C2
  81 02f9 B216D57C 		.ascii	"\262\026\325|/\252&\335\373\315\372\017\351\271Z\372"
  81      2FAA26DD 
  81      FBCDFA0F 
  81      E9B95AFA 
  82 0309 8E78E7CE 		.ascii	"\216x\347\316\227\323\366;}\226\372\372\303\344\341"
  82      97D3F63B 
  82      7D96FAFA 
  82      C3E4E1
  83 0318 A148B6F4 		.ascii	"\241H\266\364\342;u\274Z5\310\225u`\332\334\362\345"
  83      E23B75BC 
  83      5A35C895 
  83      7560DADC 
  83      F2E5
  84 032a C60A494C 		.ascii	"\306\012IL\354<\237\004\320\351\236\275\354UH]\271\203"
  84      EC3C9F04 
  84      D0E99EBD 
  84      EC55485D 
  84      B983
  85 033c A5C42460 		.ascii	"\245\304$`\034Q\252\272\261\252\031\245\352C*\316\214"
  85      1C51AABA 
  85      B1AA19A5 
  85      EA432ACE 
  85      8C
  86 034d E5532192 		.ascii	"\345S!\222\337IFL\375GZ\227\3335\260\267?\227\037\330"
  86      DF49464C 
  86      FD475A97 
  86      DB35B0B7 
  86      3F971FD8 
  87 0361 7134B7A3 		.ascii	"q4\267\243\377p.\277\253\260\2750p wp\360\320\276\335"
  87      FF702EBF 
  87      ABB0BD30 
  87      70207770 
  87      F0D0BEDD 
  88 0375 39BC1CEE 		.ascii	"9\274\034\356\033,\014\034:\200\300g\203\205}\007wv"
  88      1B2C0C1C 
  88      3A80C067 
  88      83857D07 
  88      7776
  89 0387 E5C9D8D3 		.ascii	"\345\311\330\323\325\335m\356\201]k\354\357\352^\207"
  89      D5DD6DEE 
  89      815D6BEC 
  89      EFEA5E87 
  90 0397 96F7BF03 		.ascii	"\226\367\277\003\260O}\277"
  90      B04F7DBF 
  91              		.text
  92              		.section	.gnu.lto_chvprintf.7ba6aca9f933394,"",%progbits
  93 0000 789C9D3A 		.ascii	"x\234\235:it\224U\226\357~\225JU*\225}\337C\026\262"
  93      69749455 
  93      96EF7E95 
  93      4A552A95 
ARM GAS  /tmp/ccUoimlR.s 			page 7


  93      7DDF4316 
  94 0015 41C29E10 		.ascii	"A\302\236\020\262\260i\267\266\3731\012\242\322!\011"
  94      B2B069B7 
  94      B6FB310A 
  94      A2D22109 
  95 0025 1F750C09 		.ascii	"\037u\014\011\206\204\311\014\203THT\324j\001I 3l\001"
  95      8684C90C 
  95      83544854 
  95      D46A0149 
  95      20336C01 
  96 0039 823482A2 		.ascii	"\2024\202\242\"\015-qH\320\323\332\210\3648\352\301"
  96      220D2D71 
  96      48D0D3DA 
  96      88F438EA 
  96      C1
  97 004a 6AF0343D 		.ascii	"j\3604=\216\243-\234iu\332\351\226\246\255\271\367-"
  97      8EA32D9C 
  97      6975DAE9 
  97      96A6ADB9 
  97      F72D
  98 005c 5F6DF158 		.ascii	"_m\361Xv\375x\367\275\273\275\273\275\373\275\357;\245"
  98      76FD78F7 
  98      BDBBBDBB 
  98      BDFBBDEF 
  98      3BA5
  99 006e 318D05FE 		.ascii	"1\215\005\376\026\233\030\213\314gl\003\316a!\003m\363"
  99      169B188B 
  99      CC676C03 
  99      CE612103 
  99      6DF3
 100 0080 79C67AAC 		.ascii	"y\306z\254\032\204\211\211IL\346\205i\346>\013s\332"
 100      1A848989 
 100      494CE685 
 100      69E63E0B 
 100      73DA
 101 0092 C25D6F32 		.ascii	"\302]o2\346\264\233\001\010\315\3025Ko1\242\255?\233"
 101      E6B49B01 
 101      08CDC235 
 101      4B6F31A2 
 101      AD3F9B
 102 00a5 88580B98 		.ascii	"\210X\013\230\204\224U\213\370\"\011\321\266\241*DG"
 102      8494558B 
 102      F82209D1 
 102      B6A12A44 
 102      47
 103 00b6 804DA06D 		.ascii	"\200M\240mZ$G\3339:\022\354\002m\207(1\211\322b7\026"
 103      5A2447DB 
 103      393A12EC 
 103      026D8728 
 103      3189D262 
 104 00cc 213D9A46 		.ascii	"!=\232F{\264\026\3037\263\305\321\316\366\030\210\025"
 104      7BB416C3 
 104      37B3C5D1 
 104      CEF61888 
 104      15
 105 00dd 5CB1827D 		.ascii	"\\\261\202}\314\032\247\305su)\\]<$\020\032\022\264"
 105      CC1AA7C5 
ARM GAS  /tmp/ccUoimlR.s 			page 8


 105      7375295C 
 105      5D3C2410 
 105      1A12B4
 106 00f0 64AE2491 		.ascii	"d\256$\221+I\324\222\204\222\024\256$\011\222\205\222"
 106      2B49D492 
 106      849214AE 
 106      24099285 
 106      92
 107 0101 64C13D66 		.ascii	"d\301=fM\321\322\270\222T\256$U\2562\370*MK\347\252"
 107      4DD1D2B8 
 107      9254AE24 
 107      55AE32F8 
 107      2A4D4BE7 
 108 0116 32B9AA74 		.ascii	"2\271\252t\310\024\262\031j\222i\2316\020\311\234\326"
 108      C814B219 
 108      6A926999 
 108      3610C99C 
 108      D6
 109 0127 897C9CCC 		.ascii	"\211|\234\314\307I|,\347c\026\037\263\305\034\246\013"
 109      C7497C2C 
 109      E763161F 
 109      B3C51CA6 
 109      0B
 110 0138 A16C2DE7 		.ascii	"\241l-\347\022\"l\271\257\234\241H\346@\256\300\347"
 110      12226CB9 
 110      AF9CA148 
 110      E640AEC0 
 110      E7
 111 0149 6A13F866 		.ascii	"j\023\370fy|\263\011\220'\320yP &\371b2f-\320\012\317"
 111      797CB309 
 111      9027D079 
 111      502026F9 
 111      6232662D 
 112 0160 9F2597A6 		.ascii	"\237%\227\246\2371!g\241\226\357\273\234\250\025q5\305"
 112      9F312167 
 112      A196EFBB 
 112      9CA81571 
 112      35C5
 113 0172 5C4D1194 		.ascii	"\\M\021\224\010\351b5)\321J]\344aY\337l\244\227B\231"
 113      08E96235 
 113      29D14A5D 
 113      E46159DF 
 113      6CA49742 
 114 0187 409729F3 		.ascii	"@\227)\363&A\271\230LV\223r\255\202k\234\3025V\300T"
 114      2641B998 
 114      4C569372 
 114      AD826B9C 
 114      C23556C0 
 115 019c 819EA226 		.ascii	"\201\236\242&S\225\35045\231\256\315\340{\314\344{\314"
 115      5395E834 
 115      3599AECD 
 115      E07BCCE4 
 115      7BCC
 116 01ae 8099023D 		.ascii	"\200\231\002=S\233\305UTru\263\240R\240+\265*\316]\313"
 116      539BC555 
 116      547275B3 
 116      A052A02B 
ARM GAS  /tmp/ccUoimlR.s 			page 9


 116      B52ACE5D 
 117 01c3 B9ABB4D9 		.ascii	"\271\253\264\331<\003sx\006fk\325\027m\264:\376:\005"
 117      3C037378 
 117      06666BD5 
 117      176DB43A 
 117      FE3A05
 118 01d6 AB1AE608 		.ascii	"\253\032\346\010\2319P\303\223]\243-\020\351\255\345"
 118      993950C3 
 118      935DA32D 
 118      10E9ADE5 
 119 01e6 E97D9D09 		.ascii	"\351}\235\011\374\274Z\250\347\364:\001\307\254\365"
 119      FCBC5AA8 
 119      E7F43A01 
 119      C7ACF5
 120 01f5 5A9D609C 		.ascii	"Z\235`\234\313\031G\031\314\347\014cr2f=\303\264y\202"
 120      CB194719 
 120      CCE70C63 
 120      7232663D 
 120      C3B47982 
 121 0209 C5C45980 		.ascii	"\305\304Y\200\255\327La\346p\2135\302\026i\217\212\216"
 121      ADD74C61 
 121      E6708B35 
 121      C216698F 
 121      8A8E
 122 021b 898D8B4F 		.ascii	"\211\215\213OHLJNIMK\317\310\314\312\316\311\235\220"
 122      484C4A4E 
 122      494D4BCF 
 122      C8CCCACE 
 122      C99D90
 123 022e 975F5038 		.ascii	"\227_P8\261\250\270\244\264l\322\344\362\212)S\247M"
 123      B1A8B8A4 
 123      B46CD2E4 
 123      F28A2953 
 123      A74D
 124 0240 9F317356 		.ascii	"\2371sVe\325\354\35295\257\263\332\272\372Q6\306\316"
 124      65D5ECEA 
 124      3935AFB3 
 124      DABAFA51 
 124      36C6CE
 125 0253 3058BF18 		.ascii	"0X\277\030\350\250E\347\261\275N\347\346\313\007\276"
 125      E8A845E7 
 125      B1BD4EE7 
 125      E6CB07BE 
 126 0263 FD35FC4B 		.ascii	"\3755\374K\377h\337\220\363\272\307\003\340\000<\226"
 126      FF68DF90 
 126      F3BAC703 
 126      E0003C96 
 127 0273 B3803501 		.ascii	"\263\2005\001[\204\013\310\345@\013\363?\247B\326\371"
 127      5B840BC8 
 127      E5400BF3 
 127      3FA742D6 
 127      F9
 128 0284 F2CF9D11 		.ascii	"\362\317\235\021\\\316\304\305\252C\022{f\364\2537\355"
 128      5CCEC4C5 
 128      AA43127B 
 128      66F4AB37 
 128      ED
ARM GAS  /tmp/ccUoimlR.s 			page 10


 129 0295 9B7B363A 		.ascii	"\233{6:=\236\365\0160i\254.41\347\251\346\267\234}\243"
 129      3D9EF50E 
 129      3069AC2E 
 129      3431E7A9 
 129      E6B79C7D 
 130 02aa 1E4F3D97 		.ascii	"\036O=\227\232\033\242\324\273\367\017*\2510\215\315"
 130      9A1BA2D4 
 130      BBF70F2A 
 130      A9308DCD 
 131 02ba F74A5985 		.ascii	"\367JY\205\024\214+u\301OjaHR\233G\277~\363m@\341\236"
 131      148C2B75 
 131      C14F6A61 
 131      48529B47 
 131      BF7EF36D 
 132 02d1 2F3C9E18 		.ascii	"/<\236\030\036\221\237\204\030\310\343^\327P\352\326"
 132      1E919F84 
 132      18C8E35E 
 132      D750EAD6 
 133 02e1 10A52EFA 		.ascii	"\020\245.\372I\335\033\232\324\350\237\003\215| \304"
 133      49DD1B9A 
 133      D4E89F03 
 133      8D7C20C4 
 134 02f1 B47DF3B8 		.ascii	"\264}\363\270+\305y\031\367\375\026\013\305\001f\215"
 134      2BC57919 
 134      F7FD160B 
 134      C501668D 
 135 0301 2D0D319A 		.ascii	"-\0151\232\357y\243\211Rz\210\321\374\353\343\2564\347"
 135      EF79A389 
 135      527A88D1 
 135      FCEBE3AE 
 135      34E7
 136 0313 D006B55F 		.ascii	"\320\006\265_\270\306:B\261tt\363h\377\315F}Y4\326\351"
 136      B8C63A42 
 136      B17474F3 
 136      68FFCD46 
 136      7D5934D6 
 137 0328 95FAA990 		.ascii	"\225\372\251\220\262\373K\035\325F/{<\256\323#\256s"
 137      B2FB4B1D 
 137      D5462F7B 
 137      3CAED323 
 137      AE73
 138 033a 70563B01 		.ascii	"pV;\001\300VR\\p0\321\020F\203\231\206p\032,4XY#\034"
 138      C056525C 
 138      7030D110 
 138      46839986 
 138      701A2C34 
 139 0352 843C1681 		.ascii	"\204<\026\201\360\000B\233\\GJh\2270J\302h\011c\020"
 139      F000429B 
 139      5C474A68 
 139      97304AC2 
 139      68096310 
 140 0366 1E42182B 		.ascii	"\036B\030+a\234\204\361\022&H\230\210\3600\302$\011"
 140      619C84F1 
 140      12264898 
 140      88F030C2 
 140      2409
 141 0378 93113E8F 		.ascii	"\223\021>\2170E\302T\204G\021\246I\230.a\206\204\231"
ARM GAS  /tmp/ccUoimlR.s 			page 11


 141      3045C254 
 141      844711A6 
 141      49982E61 
 141      868499
 142 038b 085F4298 		.ascii	"\010_B\230%a\266\2049\022\346J8A\302<\204\307\020\346"
 142      2561B684 
 142      3912E64A 
 142      3841C23C 
 142      84C710E6 
 143 039f 4B582061 		.ascii	"KX a\241\204\023\021\036GX\204\360\004\302b\204\277"
 143      A1841311 
 143      1E475884 
 143      F004C262 
 143      84BF
 144 03b1 44582261 		.ascii	"DX\"a\251\204U\200\301\251\246\010\315\221\236\324\""
 144      A9845580 
 144      C1A9A608 
 144      CD919ED4 
 144      22
 145 03c2 06EA9803 		.ascii	"\006\352\230\003\254\3658D\314\223\012\347\343\"l\001"
 145      ACF53844 
 145      CC930AE7 
 145      E3226C01 
 146 03d2 312EA4D9 		.ascii	"1.\244\331\0154\273\221\206\037I\271\037\023\372&\034"
 146      0D34BB91 
 146      861F49B9 
 146      1F13FA26 
 146      1C
 147 03e3 6C37D370 		.ascii	"l7\323p\013\016\354VI\273\215\030o\227\213;\210\361"
 147      0B0EEC56 
 147      49BB8D18 
 147      6F978B3B 
 147      88F1
 148 03f5 4EE2B98B 		.ascii	"N\342\271\213\206\273\211\261A\322\356\221\341\270\227"
 148      86BB89B1 
 148      41D2EE91 
 148      E1B897
 149 0404 908BE462 		.ascii	"\220\213\344b1\011\334'\035ZB\213\373%\345\001\322\373"
 149      3109DC27 
 149      1D5A428B 
 149      FB25E501 
 149      D2FB
 150 0416 200D4BA5 		.ascii	" \015K\245\231\215\244r\031\015\315\244\242\205\270"
 150      998DA472 
 150      190DCDA4 
 150      A285B8
 151 0425 7519B315 		.ascii	"u\031\263\025\204v\320\360\220\314n\253\314\316J\271"
 151      8476D0F0 
 151      90CC6EAB 
 151      CCCE4AB9 
 152 0435 6E23F676 		.ascii	"n#\366v\251|\225D>L\022\0354t\312\240u\321b\015\015"
 152      A97C9544 
 152      3E4C121D 
 152      3474CAA0 
 152      75D1620D 
 153 044a DD12B356 		.ascii	"\335\022\263V\302ur\253G\244\342\365R\207\023\210\273"
 153      C27572AB 
ARM GAS  /tmp/ccUoimlR.s 			page 12


 153      47A4E2F5 
 153      52871388 
 153      BB
 154 045b 878FBD34 		.ascii	"\207\217\2754F\366\201\024y\224#\037\343\343F\032\355"
 154      46F68114 
 154      7994231F 
 154      E3E3461A 
 154      ED
 155 046c 4F28D293 		.ascii	"O(\322\223|\351\002\351\333\3234\331\213\223M4\331\217"
 155      7CE902E9 
 155      DBD334D9 
 155      8B934D34 
 155      D98F
 156 047e 93CD20F7 		.ascii	"\223\315 \367\331\002r\343g\324d\253\232\364\223\222"
 156      D90272E3 
 156      67D464AB 
 156      9AF49392 
 157 048e B0011AAD 		.ascii	"\260\001\032\255\333h\214\330\256\024\016\2024o\207"
 157      DB688CD8 
 157      AE140E82 
 157      346F87
 158 049d C2EC540A 		.ascii	"\302\354T\012wq\376\335\234\177HQ\367*\235\373\024\333"
 158      7771FEDD 
 158      9C7F4851 
 158      F72A9DFB 
 158      14DB
 159 04af 7ECE36CC 		.ascii	"~\3166\314\331\016\360c\370\254\322y\220\357{H\311>"
 159      D90EF063 
 159      F8ACD279 
 159      90EF7B48 
 159      C93E
 160 04c1 C7390F73 		.ascii	"\3079\017s\316\347\025\362\005\245\360(\341\331\213"
 160      CEE715F2 
 160      05A5F028 
 160      E1D98B
 161 04d0 7C7C4921 		.ascii	"||I!_\246\245\351\030\037\217+\021\374\231Y\037\266"
 161      5FA6A5E9 
 161      181F8F2B 
 161      11FC9959 
 161      1FB6
 162 04e2 9B5C7190 		.ascii	"\233\\q\220\305f\242z\304\321\023\226\211\034\012E\262"
 162      C566A27A 
 162      C4D11396 
 162      891C0A45 
 162      B2
 163 04f3 3478FD88 		.ascii	"4x\375\210\343 \342\333\010\247pl\006\274\3276\361\226"
 163      E320E2DB 
 163      08A7706C 
 163      06BCD736 
 163      F196
 164 0505 76378E17 		.ascii	"v7\216\027\011h\010L\015`b;,x\303u\263\003\240C\265"
 164      0968084C 
 164      0D60623B 
 164      2C78C375 
 164      B303A043 
 165 051a E5EABB9D 		.ascii	"\345\352\273\235:X\346\203\233m\307\365<\313\310{?\325"
 165      3A58E683 
ARM GAS  /tmp/ccUoimlR.s 			page 13


 165      9B6DC7F5 
 165      3CCBC87B 
 165      3FD5
 166 052c A1101F51 		.ascii	"\241\020\037Q\254\001\302\330\377Y\340\035\326\373T"
 166      AC01C2D8 
 166      FF59E01D 
 166      D6FB54
 167 053b EFA9FEAC 		.ascii	"\357\251\376\254Fx\015\314\3307\253u\000\243a\276\303"
 167      46780DCC 
 167      D837AB75 
 167      00A361BE 
 167      C3
 168 054c 36BCFA68 		.ascii	"6\274\372h\266\"\315\331\301\376\265\307\351tNw@\224"
 168      B622CDD9 
 168      C1FEB5C7 
 168      E9744E77 
 168      4094
 169 055e E48A96ED 		.ascii	"\344\212\226\355\355-\366\306\247c{\236\264\033\254"
 169      ED2DF6C6 
 169      A7637B9E 
 169      B41BAC
 170 056d 448CF1B6 		.ascii	"D\214\361\266?7\303\335\017\200\011\307*\015\215\311"
 170      3F37C3DD 
 170      0F8009C7 
 170      2A0D8DC9 
 171 057d D3613BAE 		.ascii	"\323a;\256\210\013\251\332\310\351L2\310L.\274\303\316"
 171      880BA9DA 
 171      C8E94C32 
 171      C84C2EBC 
 171      C3CE
 172 058f 5CD1841E 		.ascii	"\\\321\204\036\341\354\014v\314\271\021\031-\310\371"
 172      E1EC0C76 
 172      CCB91119 
 172      2DC8F9
 173 059e 2EEB191A 		.ascii	".\353\031\0324\253]\362\204\362\006\010'\247\337b}W"
 173      34AB5DF2 
 173      84F20608 
 173      27A7DF62 
 173      7D57
 174 05b0 C78E05DA 		.ascii	"\307\216\005\332P\350\323\204\033P\207\333\204;l\370"
 174      50E8D384 
 174      1B5087DB 
 174      843B6CF8 
 175 05c0 ED87CFCE 		.ascii	"\355\207\317\316V|ue\254\024\363\214\316!\177\254\016"
 175      567C7565 
 175      AC14F38C 
 175      CE217FAC 
 175      0E
 176 05d1 B52417C7 		.ascii	"\265$\027\307\005\226\031O\015\224\271O\011\324\227"
 176      0596194F 
 176      0D94B94F 
 176      09D497
 177 05e0 B1E79CB1 		.ascii	"\261\347\234\261\016\210\027\"\011\250\202D\254RD\311"
 177      0E881722 
 177      09A88244 
 177      AC5244C9 
 178 05f0 FC864943 		.ascii	"\374\206IC\031\311\320P\213F9 \221\264\365n\354\375"
ARM GAS  /tmp/ccUoimlR.s 			page 14


 178      19C9D050 
 178      8B463920 
 178      91B4F56E 
 178      ECFD
 179 0602 637FAAD2 		.ascii	"c\177\252\3228\017}\341\261 \331\317\231\323u\356\275"
 179      380F7DE1 
 179      B120D9CF 
 179      99D375EE 
 179      BD
 180 0613 4C252B0C 		.ascii	"L%+\014\267\2623\334\360W\037=8`$d\2760\300H\006x\223"
 180      B7B233DC 
 180      F0571F3D 
 180      38602464 
 180      BE30C048 
 181 062a D133D560 		.ascii	"\3213\325`\342a\230\354\027\206\010\366-\005z\303\265"
 181      E26198EC 
 181      178608F6 
 181      2D057AC3 
 181      B5
 182 063b DEC303E9 		.ascii	"\336\303\003\351\212q\301Zv\015\263\213\216E\213D\307"
 182      8A71C15A 
 182      760DB38B 
 182      8E458B44 
 182      C7
 183 064c 7A55DBFC 		.ascii	"zU\333\374\337\243\032\300f\330s\312k\317B\303\036-"
 183      DFA31AC0 
 183      66D873CA 
 183      6BCF42C3 
 183      1E2D
 184 065e B038BCF6 		.ascii	"\2608\274\366,\344\366L\361)\015\015\253\316\312\013"
 184      2CE4F64C 
 184      F1290D0D 
 184      ABCECA0B 
 185 066e 7541C491 		.ascii	"uA\304\221\017V\270Y\021\261\240\357V\327\007C|{3\260"
 185      0F56B859 
 185      11B1A0EF 
 185      56D70743 
 185      7C7B33B0 
 186 0682 88910F7E 		.ascii	"\210\221\017~\316\2536R\330\216U{\332k\373\015rK\343"
 186      CEAB3652 
 186      D88E557B 
 186      DA6BFB0D 
 186      724BE3
 187 0695 31DF0076 		.ascii	"1\337\000v\262\220\324\233\220f\303\302\273!\022\027"
 187      B290D49B 
 187      9066C3C2 
 187      BB211217 
 188 06a5 89C41596 		.ascii	"\211\304\025\226\313l\227>X\305\247SX\244\353B7\011"
 188      CB6C973E 
 188      58C5A753 
 188      58A4EB42 
 188      3709
 189 06b7 4431BC16 		.ascii	"D1\274\026\013\315\377;\220\2434\337\250C\230\377yX"
 189      0BCDFF3B 
 189      90A334DF 
 189      A84398FF 
 189      7958
ARM GAS  /tmp/ccUoimlR.s 			page 15


 190 06c9 AE483F92 		.ascii	"\256H?\222\347\241\222\273\034\346\3532O\360\237\007"
 190      E7A192BB 
 190      1CE6EB32 
 190      4FF09F07 
 191 06d9 2629D61F 		.ascii	"&)\326\037#7\337\356\337\201\007\244\357\277{f\0324"
 191      2337DFEE 
 191      DF8107A4 
 191      EFBF7B66 
 191      1A34
 192 06eb 4E88F009 		.ascii	"N\210\360\011H\230\016&;Z|c\354\271\013\377\354f\231"
 192      48980E26 
 192      3B5A7C63 
 192      ECB90BFF 
 192      EC6699
 193 06fe F298D88F 		.ascii	"\362\230\330\217\\h\325\261;\304\216\270;\311\340h\266"
 193      5C68D5B1 
 193      3BC48EB8 
 193      3BC9E068 
 193      B6
 194 070f B1C8C44F 		.ascii	"\261\310\304O\236\347l\214a\024\017o\251_\262b\330\257"
 194      9EE76C8C 
 194      61140F6F 
 194      A95FB262 
 194      D8AF
 195 0721 F279D50F 		.ascii	"\362y\325\017\276\374\007P\2147Q\025\363$\333V\202i"
 195      BEFC0750 
 195      8C375115 
 195      F324DB56 
 195      8269
 196 0733 19685ED3 		.ascii	"\031h^\323\2372)\246\233\221\317\270\004\241\206\233"
 196      9F3229A6 
 196      9B91CFB8 
 196      04A1869B 
 197 0743 04615C51 		.ascii	"\004a\\Q\344\026\0212\316\347-F\0351\251'\311{\234\256"
 197      E4161132 
 197      CEE72D46 
 197      1D31A927 
 197      C97B9CAE 
 198 0757 F4B629BE 		.ascii	"\364\266)\276[\221U\331\032\313\360\335\216\262\360"
 198      5B9155D9 
 198      1ACBF0DD 
 198      8EB2F0
 199 0766 64EFD16D 		.ascii	"d\357\321m\223\025\307Q\214\206\010\203MH\377O\357\347"
 199      9315C751 
 199      8C860883 
 199      4D48FF4F 
 199      EFE7
 200 0778 86272F22 		.ascii	"\206'/\"1F\306|\215B\276\004B\352E\0201\215\301@G]\245"
 200      3146C67C 
 200      8D42BE04 
 200      42EA4510 
 200      318DC140 
 201 078f 00DE1AD3 		.ascii	"\000\336\032\323\267\230v\212\243\002\341\341\333\365"
 201      B798768A 
 201      A302E1E1 
 201      DBF5
 202 079d 94DD3F7C 		.ascii	"\224\335?|\345~\341\213\247\212#\035\017bJ\342xJ\356"
ARM GAS  /tmp/ccUoimlR.s 			page 16


 202      E57EE18B 
 202      A78A231D 
 202      0F624AE2 
 202      784AEE
 203 07b0 9729897B 		.ascii	"\227)\211{\237\253J`_$\211N\372\361\266\022\245\352"
 203      9FAB4A60 
 203      5F24894E 
 203      FAF1B612 
 203      A5EA
 204 07c2 361DCCFE 		.ascii	"6\035\314\376\225c8|\273\254\2349\274r"
 204      9563387C 
 204      BBAC9C39 
 204      BC72
 205 07d0 CC4195F3 		.ascii	"\314A\225\363\351\266r\305z\007r\007T\216\321\271\356"
 205      E9B672C5 
 205      7A077207 
 205      548ED1B9 
 205      EE
 206 07e1 08AA1CB3 		.ascii	"\010\252\034\263\016\017\306\243\327\267%\273.\016c"
 206      0E0FC6A3 
 206      D7B725BB 
 206      2E0E63
 207 07f0 9F4DD5E1 		.ascii	"\237M\325\341~Z/Jv}t\204\037\237D\366\027\233\360\372"
 207      7E5A2F4A 
 207      767D7484 
 207      1F9F44F6 
 207      179BF0FA 
 208 0804 C4DB8986 		.ascii	"\304\333\211\206=\343\024M\022\273\026!\212\346\304"
 208      3DE3144D 
 208      12BB1621 
 208      8AE6C4
 209 0813 3746A8EF 		.ascii	"7F\250\357\014\245h\356B\276\320\213\346\256\200\242"
 209      0CA568EE 
 209      42BED08B 
 209      E6AE80A2 
 210 0823 B9DBB768 		.ascii	"\271\333\267h\356\014*\032#\301\015\310\252lMf_%\212"
 210      EE0C2A1A 
 210      23C10DC8 
 210      AA6C4D66 
 210      5F258A
 211 0836 9AF16C2B 		.ascii	"\232\361l+S\014\367\350\220\352_2{S\024\355^\035\013"
 211      530CF7E8 
 211      90EA5F32 
 211      7B5314ED 
 211      5E1D0B
 212 0849 8DC7DAB0 		.ascii	"\215\307\332\260z\021\307\336#\342\210\217\201;\022"
 212      7A11C7DE 
 212      23E2888F 
 212      813B12
 213 0858 8E5CC496 		.ascii	"\216\\\304\226\324\220\364\306\022\332\"\305\250\026"
 213      D490F4C6 
 213      12DA22C5 
 213      A816
 214 0866 B7B75AE2 		.ascii	"\267\267Z\342x\334Z}\022\020.K\004S\220(R\020\207E\205"
 214      78DC5A7D 
 214      12102E4B 
 214      04539028 
ARM GAS  /tmp/ccUoimlR.s 			page 17


 214      52108745 
 215 087b 98668C32 		.ascii	"\230f\2142bZ\335,M\325\316%7\262\245&\362\264\244\262"
 215      625ADD2C 
 215      4DD5CE25 
 215      37B2A526 
 215      F2B4A4B2 
 216 088f 3734A53E 		.ascii	"74\245>\311_\375-~iIcn\220\215w{\206b\\b4\336p\377\306"
 216      C95FFD2D 
 216      7E694963 
 216      6E908D77 
 216      7B86625C 
 217 08a9 DB77D5DB 		.ascii	"\333w\325\333g\226\004<\223I[:\273\252\232\351v\243"
 217      6796043C 
 217      93495B3A 
 217      BBAA9AE9 
 217      76A3
 218 08bb 701F906A 		.ascii	"p\037\220j|\232i\006\373\003\355\212\245ye{\215\342"
 218      7C9A6906 
 218      FB03ED8A 
 218      A579657B 
 218      8DE2
 219 08cd 5B2C2D0C 		.ascii	"[,-\014;-*\274\367\\\357#\212v\037\2229-\315\320\221"
 219      3B2D2ABC 
 219      F75CEF23 
 219      8A761F92 
 219      392DCDD0 
 220 08e2 49113CC7 		.ascii	"I\021<\307v;/\375\316(\274\370\2371WO\237s\364\267\370"
 220      763B2FFD 
 220      CE28BCF8 
 220      9F31574F 
 220      9F73F4B7 
 221 08f7 9A984C6C 		.ascii	"\232\230Ll\315 ^\267$\376\027\321\210\347z\026r\242"
 221      CD205EB7 
 221      24FE17D1 
 221      88E77A16 
 221      72A2
 222 0909 D997F8AA 		.ascii	"\331\227\370\252A\274)\230\370\213\030E\274\235\023"
 222      41BC2998 
 222      F88B1845 
 222      BC9D13
 223 0918 C37D89BB 		.ascii	"\303}\211\273\015b\003'Z|\211\333\014\342\"N\324|\211"
 223      0D620327 
 223      5A7C89DB 
 223      0CE2224E 
 223      D47C89
 224 092b D72315B1 		.ascii	"\327#\025\261\211\023\255\276\304\223\206A\315\301\006"
 224      8913ADBE 
 224      C4938641 
 224      CDC106
 225 093a 8D184447 		.ascii	"\215\030DG0\361\244\261g{\260\265\375\206\344jN\214"
 225      30F1A4B1 
 225      677BB0B5 
 225      FD86E46A 
 225      4E8C
 226 094c F025BE68 		.ascii	"\360%\276hHv\005\2732h\020\273}\\\021\225j\301D\247"
 226      487605BB 
 226      326810BB 
ARM GAS  /tmp/ccUoimlR.s 			page 18


 226      7D5C1195 
 226      6AC144A7 
 227 0960 5FFF6818 		.ascii	"_\377h\030\273Cx\006\015iX\254\361X&\351'\361\211\031"
 227      BB437806 
 227      0D6958AC 
 227      F15826E9 
 227      27F18919 
 228 0974 47A83842 		.ascii	"G\2508BM\224\017\340\364K\037a\271\336\2271\274T\"\322"
 228      4D940FE0 
 228      F44B1F61 
 228      B9DE9731 
 228      BC5422D2 
 229 0988 DE7F80D2 		.ascii	"\336\177\200\322\232\305F\231\351m\326c\0259\345!\341"
 229      9AC54699 
 229      E96DD663 
 229      1539E521 
 229      E1
 230 0999 6DE33FBF 		.ascii	"m\343?\2774\332Fc(mc\031\362\205\3366\226\005\264\215"
 230      34DA4663 
 230      286D6319 
 230      F285DE36 
 230      9605B48D 
 231 09ad 66DFB6D1 		.ascii	"f\337\266\321\030\3246:\024_\013\262\372\252\227\235"
 231      18D4363A 
 231      145F0BB2 
 231      FAAA979D 
 232 09bd 18031526 		.ascii	"\030\003\025&\356?\243\257\235\265; E\334=\361G\252"
 232      EE3FA3AF 
 232      9DB53B20 
 232      45DC3DF1 
 232      47AA
 233 09cf 4C72D316 		.ascii	"Lr\323\026U\313\331\201NGH\247?\036\323\324N+Bq\332"
 233      55CBD981 
 233      4E4748A7 
 233      3F1ED3D4 
 233      4E2B4271 
 234 09e4 817CA13B 		.ascii	"\201|\241;\355\220\017\222\177R\342\017\031^\233\244"
 234      ED900F92 
 234      7F52E20F 
 234      195E9BA4 
 235 09f4 A254E3EC 		.ascii	"\242T\343\354\343\245\3138\373\017y\275\220\277\273"
 235      E3A5CB38 
 235      FB0F79BD 
 235      90BFBB
 236 0a03 2187D9F0 		.ascii	"!\207\331\360}!\227<\341\215gg\264\342V\035\312[,\221"
 236      7D21973C 
 236      E18D6767 
 236      B4E2561D 
 236      CA5B2C91 
 237 0a17 A822FBDC 		.ascii	"\250\"\373\334\227\335\024\242A\347\350\216\363X\222"
 237      97DD14A2 
 237      41E7E88E 
 237      F35892
 238 0a26 69D96CED 		.ascii	"i\331l\355.\347\340\\\007v\021\374\345\2344\221\326"
 238      2EE7E05C 
 238      077611FC 
 238      E59C3491 
ARM GAS  /tmp/ccUoimlR.s 			page 19


 238      D6
 239 0a37 092C17B5 		.ascii	"\011,\027\265\346\221V\022LGm\271\342\236\357\361\000"
 239      E6915612 
 239      4C476DB9 
 239      E29EEFF1 
 239      00
 240 0a48 9B70FD4B 		.ascii	"\233p\375K\361\030\312g;\314\242\361|\274\363A\265\357"
 240      F118CA67 
 240      3BCCA2F1 
 240      7CBCF341 
 240      B5EF
 241 0a5a 2A1DAC01 		.ascii	"*\035\254\001\215\247\200]4\213v\367\202QMm\242\333"
 241      8DA7805D 
 241      348B76F7 
 241      82514D6D 
 241      A2DB
 242 0a6c 85496E93 		.ascii	"\205In\223\3411v;\343\036\324\026\364\006b\325!2\357"
 242      E131763B 
 242      E31ED416 
 242      F40662D5 
 242      2132EF
 243 0a7f 338CD3AA 		.ascii	"3\214\323\252\374\317\"\335,C\207\364<,\362\366\374"
 243      FCCF22DD 
 243      2C4387F4 
 243      3C2CF2F6 
 243      FC
 244 0a90 CFCCB453 		.ascii	"\317\314\264S!{\225[\344}\"\264\353\220!-\227?X\317"
 244      217B955B 
 244      E47D22B4 
 244      EB90212D 
 244      973F58CF 
 245 0aa4 B7F9D430 		.ascii	"\267\371\3240\245= R\244hb`m\230\205mc\247\237\216R"
 245      A53D2052 
 245      A4686260 
 245      6D98856D 
 245      63A79F8E 
 246 0ab9 7213E50D 		.ascii	"r\023\345\015\327W\256\010#\307k\350s\357%\355\341P"
 246      D757AE08 
 246      23C76BE8 
 246      73EF25ED 
 246      E150
 247 0acb 6AA803F9 		.ascii	"j\250\003\371B\257\241\216\300\313H\247QC\341RQ\206"
 247      42AFA18E 
 247      C0CB48A7 
 247      5143E152 
 247      5186
 248 0add 9F5DC5D2 		.ascii	"\237]\305\322\256\267\2747\256\256P\314Z\203|\241\233"
 248      AEB7BC37 
 248      AEAE50CC 
 248      5A837CA1 
 248      9B
 249 0aee B526E03C 		.ascii	"\265&\340<w\373\236\347.\337\363,\254*\221u\373\311"
 249      77FB9EE7 
 249      2EDFF32C 
 249      AC2A9175 
 249      FBC9
 250 0b00 D8056F58 		.ascii	"\330\005oX\213\211/\3347\351\305\350_\221\353k\274\366"
ARM GAS  /tmp/ccUoimlR.s 			page 20


 250      8B892FDC 
 250      37E9C5E8 
 250      5F91EB6B 
 250      BCF6
 251 0b12 75170F77 		.ascii	"u\027\017w\221`)\213#wN\016^Q\375\311\373Z\253Z\300"
 251      9160298B 
 251      23774E0E 
 251      5E51FDC9 
 251      FB5AAB5A 
 252 0b27 886DFC0E 		.ascii	"\210m\374\016\300[\351d\341\316\241\336\023\273\214"
 252      C05BE964 
 252      E1CEA1DE 
 252      13BB8C
 253 0b36 07F05ADC 		.ascii	"\007\360Z\334[YVF\226\375\206=~y\260I\276\366\253\367"
 253      5B595646 
 253      96FD863D 
 253      7E79B049 
 253      BEF6ABF7 
 254 0b4a 7FE7E95D 		.ascii	"\177\347\351]\3708\0242M\342=Q\207\227\2016\335H\236"
 254      F8381432 
 254      4DE23D51 
 254      87978136 
 254      DD489E
 255 0b5d 66360176 		.ascii	"f6\001v\217\257Da\350\020\241C\011\355h\2671\351\227"
 255      8FAF4461 
 255      E810A143 
 255      09ED68B7 
 255      31E997
 256 0b70 03BB2D77 		.ascii	"\003\273-w+b\\CK\272%\332}>\012\361F\004-\337\335\331"
 256      2B625C43 
 256      4BBA25DA 
 256      7D3E0AF1 
 256      46042DDF 
 257 0b86 6CDC0AF9 		.ascii	"l\334\012\371\256Yz\356k\274\237\224\240/%x0\326\226"
 257      AE597AEE 
 257      6BBC9F94 
 257      A02F2578 
 257      30D696
 258 0b99 BECF0336 		.ascii	"\276\317\0036)\260\236-\312\323\311\201\224pE)gc\340"
 258      29B09E2D 
 258      CAD3C981 
 258      94704529 
 258      6763E0
 259 0bac 47D1D419 		.ascii	"G\321\324\031\330\364\235g\300\315\022x|cY\346\245o"
 259      D8F49D67 
 259      C0CD1278 
 259      7C6359E6 
 259      A56F
 260 0bbe 9AF9D4C6 		.ascii	"\232\371\324\306&\365\257\3453+\233\374\376Z\322\\\301"
 260      26F5AFE5 
 260      332B9BFC 
 260      FE5AD25C 
 260      C1
 261 0bcf 2E33714C 		.ascii	".3qL\256y\217\211\023B)\310\036 \316\320K\262\007\002"
 261      AE798F89 
 261      134229C8 
 261      1E20CED0 
ARM GAS  /tmp/ccUoimlR.s 			page 21


 261      4BB20702 
 262 0be3 6AB2178C 		.ascii	"j\262\027\214\220F*U\331\306Nx\3014\316T\037\020\267"
 262      90462A55 
 262      D9C64E78 
 262      C134CE54 
 262      1F10B7
 263 0bf6 8AC61465 		.ascii	"\212\306\024e\363\207>6?\032\222\315\217\001q\206n\363"
 263      F3873E36 
 263      3F1A92CD 
 263      8F017186 
 263      6EF3
 264 0c08 6381366F 		.ascii	"c\2016o\364\332lW\252r\306\265\371\011 ne\363T\312 "
 264      F4DA6C57 
 264      AA72C6B5 
 264      F909206E 
 264      65F354CA 
 265 0c1d 6738BAC7 		.ascii	"g8\272\307x\031~\022Y\022\350\313\306x\305}tOpq\037"
 265      78197E12 
 265      5912E8CB 
 265      C678C57D 
 265      744F7071 
 266 0c32 0B2C6E8F 		.ascii	"\013,n\217\310\370\270\345\253C)m\021X\353\245\024\316"
 266      C8F8B8E5 
 266      AB43296D 
 266      1158EBA5 
 266      14CE
 267 0c44 0AD7DF5A 		.ascii	"\012\327\337Z\311\304)\303\353\310\272i\201\225\027"
 267      C9C429C3 
 267      EBC8BA69 
 267      819517
 268 0c53 C6BDF9F5 		.ascii	"\306\275\371\365\207\177\375\275\377\241\016\355\271"
 268      877FFDBD 
 268      FFA10EED 
 268      B9
 269 0c60 1EAFBC9E 		.ascii	"\036\257\274\236.?k\\\351\375\304p\372it\332&\256\021"
 269      2E3F6B5C 
 269      E9FDC470 
 269      FA6974DA 
 269      26AE11
 270 0c73 465A3621 		.ascii	"FZ6!\316\316S\365D\257\361\371c3\010\346M )W\366\024"
 270      CECE53F5 
 270      44AFF1F9 
 270      633308E6 
 270      4D202957 
 271 0c89 2BDA167A 		.ascii	"+\332\026z\201%\026\376d\376\304\3739d\013\004=lm\322"
 271      812516FE 
 271      64FEC4FB 
 271      39640B04 
 271      3D6C6DD2 
 272 0c9d E02DE7ED 		.ascii	"\340-\347\355\343\235\342\340\346\344w\210\263\372\036"
 272      E39DE2E0 
 272      E6E47788 
 272      B3FA1E
 273 0cac C6076321 		.ascii	"\306\007c!Pg)\373S\027\345`\352+\353\244\354\245\230"
 273      506729FB 
 273      5317E560 
 273      EA2BEBA4 
ARM GAS  /tmp/ccUoimlR.s 			page 22


 273      ECA598
 274 0cbf BF43E3B4 		.ascii	"\277C\343\264\377Z\207\032\013\360.h\227\002\377\346"
 274      FF5A871A 
 274      0BF02E68 
 274      9702FFE6 
 275 0ccf 2790D58D 		.ascii	"'\220\325\215O\326B\0204j\243^RY\367x\330\251\343b\247"
 275      4FD64210 
 275      346AA35E 
 275      5259F778 
 275      D8A9E362 
 276 0ce4 911ADA25 		.ascii	"\221\032\332%I~\243\311\272\376\273n9-|\005\235J,C\247"
 276      497EA3C9 
 276      BAFEBB6E 
 276      392D7C05 
 276      9D4A2C43 
 277 0cf9 12A7D230 		.ascii	"\022\247\3220\015$\241\200\321\245c\006\273F\337>g\212"
 277      0D24A180 
 277      D1A56306 
 277      BB46DF3E 
 277      678A
 278 0d0b 77346C33 		.ascii	"w4l3\337l2\336\321\212\202\332L\026E}\372\021\317\220"
 278      DF6C32DE 
 278      D18A82DA 
 278      4C16457D 
 278      FA11CF90 
 279 0d1f 0AFD8C11 		.ascii	"\012\375\214\021\017\377\2402\213\375\236\327\374\241"
 279      0FFFA032 
 279      8BFD9ED7 
 279      FCA1
 280 0d2d DEAF8DEC 		.ascii	"\336\257\215\354o\305\355\262TyT\312\227\300O\306\376"
 280      6FC5EDB2 
 280      547954CA 
 280      97C04FC6 
 280      FE
 281 0d3e E6DD203B 		.ascii	"\346\335 ;(\201\331(2\023Hv\326%\241\271\212\014\344"
 281      2881D928 
 281      32134876 
 281      D625A1B9 
 281      8A0CE4
 282 0d51 8F5DCF1E 		.ascii	"\217]\317\036\243^\372\301\270\310\330\375/2\276W\267"
 282      A35EFAC1 
 282      B8C8D8FD 
 282      2F32BE57 
 282      B7
 283 0d62 7E18E703 		.ascii	"~\030\347\003\336l\226\307/m=K\024[R\300g5\342\252f"
 283      DE6C96C7 
 283      2F6D3D4B 
 283      145B52C0 
 283      6735E2AA 
 284 0d77 66D12AF7 		.ascii	"f\321*\367\2355\332\316\000\374\320\317\235\333 \350"
 284      9D35DACE 
 284      00FCD0CF 
 284      9DDB20E8 
 285 0d87 7BE7008C 		.ascii	"{\347\000\214\367\301\323\257q\015\202\364\212_\346"
 285      F7C1D3AF 
 285      710D82F4 
 285      8A5FE6
ARM GAS  /tmp/ccUoimlR.s 			page 23


 286 0d96 FCBE856E 		.ascii	"\374\276\205n\003\3711\264\037\274_C\017\016\033\037"
 286      03F931B4 
 286      1FBC5F43 
 286      0F0E1B1F 
 287 0da6 F37680EF 		.ascii	"\363v\200\357\347PN=T\240\210;\201NQ\360\265Lx<\207"
 287      E7504E3D 
 287      54A0883B 
 287      814E51F0 
 287      B54C783C 
 288 0dbb E24C2958 		.ascii	"\342L)X\211\273W\221\011\263\201l\251vmiq\263V\022\255"
 288      89BB5791 
 288      09B3816C 
 288      A9766D69 
 288      71B35612 
 289 0dd0 DAE9E107 		.ascii	"\332\351\341\007q6WV}d\213\303\315t\314\"qg\023wv5\326"
 289      71365756 
 289      7D648BC3 
 289      CD74CC22 
 289      71671377 
 290 0de7 E0523481 		.ascii	"\340R4\2010y\204\331\001\325\375[\370\265\265\206\375"
 290      307984D9 
 290      01D5FD5B 
 290      F8B5B586 
 290      FD
 291 0df8 CA0614D2 		.ascii	"\312\006\024\322\223\373\275!\335\365\203C\272;8\244"
 291      93FBBD21 
 291      DDF58343 
 291      BA3B38A4 
 292 0e08 BBC60DA9 		.ascii	"\273\306\015\251_\334v\253\270%y\303v\312\033\266!\264"
 292      5FDC76AB 
 292      B82579C3 
 292      76CA1BB6 
 292      21B4
 293 0e1a 34DF3F6C 		.ascii	"4\337?l\247\207-\212\272\027\2519\006\225\016\011xI"
 293      A7872D8A 
 293      BA17A939 
 293      06950E09 
 293      7849
 294 0e2c 41151CA5 		.ascii	"A\025\034\245\303\3129(\021\265\000c\221\254C+-\222"
 294      C3CA3928 
 294      11B50063 
 294      91AC432B 
 294      2D92
 295 0e3e 6991A383 		.ascii	"i\221\243\203N\213\275\260\000\371\362uXJ\253!Xpu\213"
 295      4E8BBDB0 
 295      00F9F275 
 295      584AAB21 
 295      5870758B 
 296 0e52 838EE202 		.ascii	"\203\216\342\002\366N\0044@\255\372\372\272\036\225"
 296      F64E0434 
 296      40ADFAFA 
 296      BA1E95
 297 0e61 D450222A 		.ascii	"\324P\"*Q\370\021TR\303\023X\211Yp\263u\244\247\346"
 297      51F81154 
 297      52C31358 
 297      895970B3 
 297      75A4A7E6 
ARM GAS  /tmp/ccUoimlR.s 			page 24


 298 0e75 4FD41CB3 		.ascii	"O\324\034\263\211~\234\253\252AU\030\371J\036\361:\366"
 298      897E9CAB 
 298      AA415518 
 298      F94A1EF1 
 298      3AF6
 299 0e87 66BEFC62 		.ascii	"f\276\374b_\255\014\336\377\203\003>\034\034\360\375"
 299      5FAD0CDE 
 299      FF83033E 
 299      1C1CF0FD 
 300 0e97 DF5FC3CF 		.ascii	"\337_\303\317\2429\321~\237\360\214\307\352A\357\331"
 300      A239D17E 
 300      9FF08CC7 
 300      EA41EFD9 
 301 0ea7 8DF63DBB 		.ascii	"\215\366=\273~\011\033V\011;\350S\350\177\0346>\373"
 301      7E091B56 
 301      093BE853 
 301      E87F1C36 
 301      3EFB
 302 0eb9 1F42FD05 		.ascii	"\037B\375\005FND\005\327\263'\212@|\004\0346\256\227"
 302      464E4405 
 302      D7B3278A 
 302      407C041C 
 302      36AE97
 303 0ecc FB9031E5 		.ascii	"\373\2201\345{^E\366\005g1Z\207\365\265@~\324\035\331"
 303      7B5E45F6 
 303      0567315A 
 303      87F5B540 
 303      7ED41DD9 
 304 0ee0 9AE56629 		.ascii	"\232\345f):<B\353}P\267s\353J7\313\325a\035\255s\353"
 304      3A3C42EB 
 304      7D50B773 
 304      EB4A37CB 
 304      D5611DAD 
 305 0ef6 30F6053A 		.ascii	"0\366\005:\034\007Z\035\202\272\221\255\215d\313\\\225"
 305      1C075A1D 
 305      82BA91AD 
 305      8D64CB5C 
 305      95
 306 0f07 C46788A9 		.ascii	"\304g\210\251\036\231\\dq=O\314<\225\230\277\0344\022"
 306      1E995C64 
 306      713D4FCC 
 306      3C9598BF 
 306      1C3412
 307 0f1a F3DC0F4E 		.ascii	"\363\334\017N\314\341\340\304<\367\375'\341\3608'a\377"
 307      CCE1E0C4 
 307      3CF7FD27 
 307      E1F03827 
 307      61FF
 308 0f2c 0123AECF 		.ascii	"\001#\256\317\243\225\205\376'\341\340\201LE}\001\251"
 308      A39585FE 
 308      27E1E081 
 308      4C457D01 
 308      A9
 309 0f3d 13BEAB81 		.ascii	"\023\276\253\201\314\247\360\363G\310k\377a\334T'\004"
 309      CCA7F0F3 
 309      47C86BFF 
 309      61DC5427 
ARM GAS  /tmp/ccUoimlR.s 			page 25


 309      04
 310 0f4e 4576820E 		.ascii	"Ev\202\016\317\300\\ e\363v\016<\354f\205:\2708\342"
 310      CFC05C20 
 310      65F3760E 
 310      3CEC6685 
 310      3AB838E2 
 311 0f62 7998E71A 		.ascii	"y\230\347\032h\244\223\000\354\"\377\373\331\364\212"
 311      68A49300 
 311      EC22FFFB 
 311      D9F48A
 312 0f71 15ED2B5B 		.ascii	"\025\355+[*\232\332\233\377\261\242\271eME\323\012\307"
 312      2A9ADA9B 
 312      FFB1A2B9 
 312      654D45D3 
 312      0AC7
 313 0f83 3247FBEA 		.ascii	"2G\373\352\212\316\216\256\266\207*p\262\246\261\303"
 313      8ACE8EAE 
 313      B6872A70 
 313      B2A6B1C3 
 314 0f93 D1DEB51A 		.ascii	"\321\336\265\032\011\253:\034m\235\313\313\233"
 314      09AB3A1C 
 314      6D9DCBCB 
 314      9B
 315 0fa0 98695579 		.ascii	"\230iUy\245iuy\025\254\202\325\320\024\276\334\321\332"
 315      A5697579 
 315      15AC82D5 
 315      D014BEDC 
 315      D1DA
 316 0fb2 DAD2018E 		.ascii	"\332\322\001\216\210U\035-M\216\325\216\3666\363?8\232"
 316      88551D2D 
 316      4D8ED58E 
 316      F636F33F 
 316      389A
 317 0fc4 3B57409B 		.ascii	";W@\233\305\261zik{\233nkmY\336\271\264\261\325\241"
 317      C5B17A69 
 317      6B7B9B6E 
 317      6B6D59DE 
 317      B9B4B1D5 
 318 0fd9 B7416B78 		.ascii	"\267Akx\347\312U\313\272\226[\212\333\272Z[K\330\377"
 318      E7CA55CB 
 318      BA965B8A 
 318      DBBA5A5B 
 318      4BD8FF
 319 0fec 038520C5 		.ascii	"\003\205 \305\210"
 319      88
 320              		.text
 321              		.section	.gnu.lto_chsnprintf.7ba6aca9f933394,"",%progbits
 322 0000 789C8D53 		.ascii	"x\234\215S\315KTQ\024?\347\276\217\321\031\3071\251"
 322      CD4B5451 
 322      143FE7BE 
 322      8FD119C7 
 322      31A9
 323 0012 452D4224 		.ascii	"E-B$\220\012z\213> \350\017\010\202V\012\265\222\347"
 323      900A7A8B 
 323      3E20E80F 
 323      0882560A 
 323      B592E7
ARM GAS  /tmp/ccUoimlR.s 			page 26


 324 0025 731A2F7E 		.ascii	"s\032/~\214\314Wd\013\357\350T\003e\014N\020\025\246"
 324      8CCC5764 
 324      0BEFE854 
 324      03650C4E 
 324      1015A6
 325 0038 222281D0 		.ascii	"\"\"\201\320\242\215D\213W\270\220D%\222@!\032\022\333"
 325      A28D448B 
 325      57B89044 
 325      25924021 
 325      1A12DB
 326 004b 4C0BA155 		.ascii	"L\013\241U\021\275\316}o\336\214fP\027\336\271\367\236"
 326      11BDCE7D 
 326      6FDE8C66 
 326      5017DEB9 
 326      F79E
 327 005d 7B7EBFF3 		.ascii	"{~\277\363;\347\360\0300\370s]\242oU\001\270L;\006\000"
 327      3BE7F018 
 327      30F8735D 
 327      A26F5501 
 327      B84C3B06 
 328 0072 59611520 		.ascii	"Ya\025 [\307\230\222o\003\021T\245mPP\365\334*\323\326"
 328      5BC79892 
 328      6F031154 
 328      A56D5050 
 328      F5DC2AD3 
 329 0087 0D72EBAF 		.ascii	"\015r\353\257\216\222[C\335s\353\210\362\000\010\303"
 329      8E925B43 
 329      DD73EB88 
 329      F20008C3 
 330 0097 4C51351D 		.ascii	"LQ5\035\207\257\242$W[aZ\330\205\322\366\313M|$\354"
 330      87AFA224 
 330      575B615A 
 330      D885D2F6 
 330      CB4D7C24 
 331 00ac DC94F8E9 		.ascii	"\334\224\370\3518\210\034I\3109\004\013\341\012]\260"
 331      38881C49 
 331      C839040B 
 331      E10A5DB0 
 332 00bc C5DD98BA 		.ascii	"\305\335\230\272W\231\207\2657\212\017PL\215\024\304"
 332      579987B5 
 332      378A0F50 
 332      4C8D14C4 
 333 00cc 2F827254 		.ascii	"/\202rT\030\234\257!\247\274\235\035\334\017\025\343"
 333      189CAF21 
 333      A7BC9D1D 
 333      DC0F15E3 
 334 00dc F6C7E2D8 		.ascii	"\366\307\342\330\341]P\225\301\205\377I*\012\366\247"
 334      E15D5095 
 334      C185FF49 
 334      2A0AF6A7 
 335 00ec F7CB28C6 		.ascii	"\367\313(\306Ev\307q\"\0345\006\027\377\005|\316\354"
 335      4576C771 
 335      221C3506 
 335      17FF057C 
 335      CEEC
 336 00fe CF8E333F 		.ascii	"\317\2163?\361}\353)\036jF0q\026[A\301~\004\265r\321"
 336      F17DEB29 
ARM GAS  /tmp/ccUoimlR.s 			page 27


 336      1E6A4630 
 336      71165B41 
 336      C17E04B5 
 337 0114 E982F564 		.ascii	"\351\202\365dX\210<s\344\011\003G\275\221L\200\0304"
 337      58883C73 
 337      E4090347 
 337      BD914C80 
 337      1834
 338 0126 C851EA16 		.ascii	"\310Q\352\026\023\247\351\305\304\031\327\316\272V\306"
 338      13A7E9C5 
 338      C419D7CE 
 338      BA56C6
 339 0135 821440AB 		.ascii	"\202\024@\253\235\254lv\0072\271+K\220\373\372\372["
 339      9DAC6C76 
 339      0732B92B 
 339      4B90FBFA 
 339      FA5B
 340 0147 5131F119 		.ascii	"Q1\361\031j\020CE\252\333#\256\003\025\310\267)+0\232"
 340      6A104345 
 340      AADB23AE 
 340      0315C8B7 
 340      292B309A 
 341 015b 1F2DCF1D 		.ascii	"\037-\317\035\367\003U?\326\241\025\251\306\252.\353"
 341      F703553F 
 341      D6A115A9 
 341      C6AA2EEB 
 342 016b 1ADC29E5 		.ascii	"\032\334)\345\313\001/\026\340&\374\020y\321\304\261"
 342      CB012F16 
 342      E026FC10 
 342      79D1C4B1 
 343 017b CE425705 		.ascii	"\316BW\005y\2068\326\3732\335\250\030\3521\304Jz\216"
 343      798638D6 
 343      FB32DDA8 
 343      18EA31C4 
 343      4A7A8E
 344 018e 418035B8 		.ascii	"A\2005\270U\272\327\273\217$d!\253\2214\370\025\273"
 344      55BAD7BB 
 344      8F246421 
 344      AB9134F8 
 344      15BB
 345 01a0 5112AE49 		.ascii	"Q\022\256IxX\302o\227\306\226u_p\250J\320hQIP\241\024"
 345      7858C26F 
 345      97C69675 
 345      5F70A84A 
 345      D0685149 
 346 01b7 C27EF8E1 		.ascii	"\302~\370\341XU\014H!\365\036'\307\210d\311\225\356"
 346      58550C48 
 346      21F51E27 
 346      C78864C9 
 346      95EE
 347 01c9 EF17D164 		.ascii	"\357\027\321dU\272\364\027\021\034\017\000\254\300\310"
 347      55BAF417 
 347      111C0F00 
 347      ACC0C8
 348 01d8 E6C297B7 		.ascii	"\346\302\227\267\350\247\017\237\204\023T\232\227\245"
 348      E8A70F9F 
 348      8413549A 
ARM GAS  /tmp/ccUoimlR.s 			page 28


 348      97A5
 349 01e6 0BFDEE2E 		.ascii	"\013\375\356.\301\342v6\\\015\212U\224\321\332\000\244"
 349      C1E27636 
 349      5C0D8A55 
 349      94D1DA00 
 349      A4
 350 01f7 2E2BF393 		.ascii	".+\363\223\263~S\330\342$\312\036k\260n\310y\334\035"
 350      B37E53D8 
 350      E224CA1E 
 350      6BB06EC8 
 350      79DC1D
 351 020a 2DCF1FF1 		.ascii	"-\317\037\361\241\215n\377\302n\342\205\235\240\347"
 351      A18D6EFF 
 351      C26EE285 
 351      9DA0E7
 352 0219 7E028FB3 		.ascii	"~\002\217\263T\341Y\216\315\024!i\002.\267<5\327\006"
 352      54E1598E 
 352      CD142169 
 352      022EB73C 
 352      35D706
 353 022c ACBB435B 		.ascii	"\254\273C[\2017e\346\341\274r\316\300\013\221\227\277"
 353      813765E6 
 353      E1BC72CE 
 353      C00B9197 
 353      BF
 354 023d 1B48D65D 		.ascii	"\033H\326]\2173\273\036\245\336w\220-M\364V\033\355"
 354      8F33BB1E 
 354      A5DE7790 
 354      2D4DF456 
 354      1BED
 355 024f D1B6D3A8 		.ascii	"\321\266\323\250\211V\216\352\264\321\023\357\217\032"
 355      89568EEA 
 355      B4D113EF 
 355      8F1A
 356 025d 56BCFB86 		.ascii	"V\274\373\206\321\035\315\030V\017\357\342\361\244\221"
 356      D11DCD18 
 356      560FEFE2 
 356      F1A491
 357 026c 4AA4077A 		.ascii	"J\244\007z\015:d\314\004\217\247\223\3640\230\340\003"
 357      0D3A64CC 
 357      048FA793 
 357      F43098E0 
 357      03
 358 027d A96BA72C 		.ascii	"\251k\247,`\346 \353O\206\222|(\332y=\3369\220\356\323"
 358      60E620EB 
 358      4F86927C 
 358      28DA793D 
 358      DE3990EE 
 359 0292 13D154C6 		.ascii	"\023\321T\306\354\373\015.n\006\015"
 359      ECFB0D2E 
 359      6E060D
 360              		.text
 361              		.section	.gnu.lto_.symbol_nodes.7ba6aca9f933394,"",%progbits
 362 0000 789C45C9 		.ascii	"x\234E\311\273\012\302P\020\204\341\231\335D\3611}\014"
 362      BB0AC250 
 362      1084E199 
 362      DD44F131 
ARM GAS  /tmp/ccUoimlR.s 			page 29


 362      7D0C
 363 0012 AB0DA952 		.ascii	"\253\015\251R\211\220\312B\013\005\301\312B\037@\020"
 363      8990CA42 
 363      0B05C1CA 
 363      421F4010 
 364 0022 2C036223 		.ascii	",\003b#\330(\301\0336\202\215 \004\317\211\007\335\346"
 364      D828C11B 
 364      36828D20 
 364      04CF8907 
 364      DDE6
 365 0034 9B9F1508 		.ascii	"\233\237\025\010\026\010'%\015\350\025\200\331 k\313"
 365      16082725 
 365      0DE81580 
 365      D9206BCB 
 366 0044 89C690C3 		.ascii	"\211\306\220\303\214r\246I\310nF\336h\372\315$!\257"
 366      8C72A649 
 366      C86E46DE 
 366      68FACD24 
 366      21AF
 367 0056 B4E85F17 		.ascii	"\264\350_\027Z\374+%\220\336_3\255\307s\331oED\276."
 367      5AFC2B25 
 367      90DE5F33 
 367      ADC773D9 
 367      6F4544BE 
 368 006b A6EA9CBF 		.ascii	"\246\352\234\277\037\015\307\266\332U\035\357h\263\317"
 368      1F0DC7B6 
 368      DA551DEF 
 368      68B3CF
 369 007a 9BFE3FF1 		.ascii	"\233\376?\361C%\306\352PQ%BYK\244G\257b\354\304\007"
 369      4325C6EA 
 369      50512542 
 369      594BA447 
 369      AF62ECC4 
 370 008f 85A73DF3 		.ascii	"\205\247=\363"
 371              		.text
 372              		.section	.gnu.lto_.refs.7ba6aca9f933394,"",%progbits
 373 0000 789C6362 		.ascii	"x\234cb`b`d\200\002\000\000F\000\006"
 373      60626064 
 373      80020000 
 373      460006
 374              		.text
 375              		.section	.gnu.lto_.decls.7ba6aca9f933394,"",%progbits
 376 0000 789CBD19 		.ascii	"x\234\275\031[l\024\327\365\336\331\207\275xe\210K\010"
 376      5B6C14D7 
 376      F5DED987 
 376      BD786588 
 376      4B08
 377 0012 49ABB248 		.ascii	"I\253\262HI?\322\302*\011QhK\241\301\022\270\037.i\010"
 377      493FD2C2 
 377      2A095168 
 377      4BA1C112 
 377      B81F2E69 
 378 0027 49D587B6 		.ascii	"I\325\207\266\343\335\261=\355>\234\335Y\023\252J\\"
 378      E3DDB13D 
 378      ED3E9CDD 
 378      5913AA4A 
 378      5C
ARM GAS  /tmp/ccUoimlR.s 			page 30


 379 0038 5E6E52D4 		.ascii	"^nR\324\326\230 ;T\370\321`\003J\322\306\004H\241\270"
 379      D698203B 
 379      54F8D160 
 379      034AD2C6 
 379      0448A1B8 
 380 004c 591E719C 		.ascii	"Y\036q\234D)%\224P\012\224%M\224>DK\212\\\031\005g{"
 380      44292594 
 380      500A9425 
 380      4D943E44 
 380      4B8A5C19 
 381 0063 EE9DC7EE 		.ascii	"\356\235\307\356\214\347\356\314:RG:3w\356\234\327="
 381      8CE7EECC 
 381      3A52473A 
 381      3377EE9C 
 381      D73D
 382 0075 E7DC73CF 		.ascii	"\347\334s\317\331\025\220\200\202\002B\005\270\216}"
 382      D9159080 
 382      82024205 
 382      B88E7D
 383 0084 06A12A0F 		.ascii	"\006\241*\017B^\204\320R\244>\375\000>m<\200\324\213"
 383      425E84D0 
 383      52A43EFD 
 383      003E6D3C 
 383      80D48B
 384 0097 CE0D021C 		.ascii	"\316\015\002\034\006\250\306\010\315\006\270\025`\016"
 384      06A8C608 
 384      CD06B815 
 384      600E
 385 00a5 46532E8A 		.ascii	"FS.\212W\245A-@P\343\265\007`\257\306\213^X\303\245"
 385      57A5412D 
 385      4050E3B5 
 385      0760AFC6 
 385      8B5E58C3 
 386 00ba DF5E04D8 		.ascii	"\337^\004\330\017p\010\340\200\205\037\225\031\322\360"
 386      0F7008E0 
 386      80851F95 
 386      19D2F0
 387 00c9 747E3AAF 		.ascii	"t~:\257EX\345\367\000<O\3003\017\260L\223M\327\360_"
 387      4558E5F7 
 387      003C4FC0 
 387      330FB04C 
 387      934DD7F0 
 388 00de 80714DD6 		.ascii	"\200qM\326\010\300Q\200/\302\313Ix^\001X\242\255\373"
 388      08C05180 
 388      2FC2CB49 
 388      785E0158 
 388      A2ADFB
 389 00f1 4B30F765 		.ascii	"K0\367e\200%\000_\001X\006\360U\200!\370\366 <\227\003"
 389      8025005F 
 389      015806F0 
 389      558021F8 
 389      F6203C97 
 390 0106 8099D071 		.ascii	"\200\231\320q\200\313\000+\221\372Nu\253\307\352:f\320"
 390      80CB002B 
 390      91FA4E75 
 390      ABC7EA3A 
 390      66D0
ARM GAS  /tmp/ccUoimlR.s 			page 31


 391 0118 39186380 		.ascii	"9\030c\200F\000\037\300*\200\207\000\276\001\3600\300"
 391      46001FC0 
 391      2A808700 
 391      BE01F030 
 391      C0
 392 0129 6A80472C 		.ascii	"j\200G,6\243\366\374\024<'J\326w\007Vm\357\325\326A"
 392      36A3F6FC 
 392      143C274A 
 392      D6770756 
 392      6DEFD5D6 
 393 013e D7BB06E6 		.ascii	"\327\273\006\346n\007\270\015\340Q\200o\001<\006\360"
 393      6E07B80D 
 393      E051806F 
 393      013C06F0 
 394 014e 6D8023F0 		.ascii	"m\200#\360\375;\360\374.V\355BE|\001\253\264\325\232"
 394      FD3BF0FC 
 394      2E56ED42 
 394      457C01AB 
 394      B4D59A
 395 0161 9FA8BFA8 		.ascii	"\237\250\277\250\276\263\265\265\314\202g-@\235E\237"
 395      BEB3B5B5 
 395      CC82672D 
 395      409D459F 
 396 0171 007A9290 		.ascii	"\000z\222\220\215\244\277\2034\214\201>\337\304\"\256"
 396      8DA4BF83 
 396      348C813E 
 396      DFC422AE 
 397 0181 0D8007E8 		.ascii	"\015\200\007\350 \030`*\335\205v\023\322\231\337\362"
 397      2018602A 
 397      DD857613 
 397      D299DFF2 
 398 0191 CF1B0221 		.ascii	"\317\033\002!\325\"\036\300\001\010\252\3731\272\033"
 398      D5221EC0 
 398      0108AAFB 
 398      31BA1B
 399 01a0 ED23F005 		.ascii	"\355#\360\005\350\347M\015\014$b_`\312\273\210w\343"
 399      E8E74D0D 
 399      0C24625F 
 399      60CABB88 
 399      77E3
 400 01b2 BB912A87 		.ascii	"\273\221*\207}\326\0064<g\"4\017\365\222\334\265|\367"
 400      7DD60634 
 400      3C672234 
 400      0FF592DC 
 400      B57CF7
 401 01c5 E8D0679F 		.ascii	"\350\320g\237!\271\315\244PX\217\346\240\035 \205jH"
 401      21B9CDA4 
 401      50588FE6 
 401      A01D2085 
 401      6A48
 402 01d7 B052837E 		.ascii	"\260R\203~RTW\323=?H\346\3165T\257\326U\307\272\352"
 402      525457D3 
 402      3D3F48E6 
 402      CE3554AF 
 402      D655C7BA 
 403 01ec 544341C4 		.ascii	"TCA\304{\231\332kmbX\325\216~G\232F\352X\037\025\260"
 403      7B99DA6B 
ARM GAS  /tmp/ccUoimlR.s 			page 32


 403      6D6258D5 
 403      8E7E479A 
 403      46EA581F 
 404 0202 BD6128D5 		.ascii	"\275a(\325\036\\\243\263\340\241\014\3419l\344\001\361"
 404      1E5CA3B3 
 404      E0A10CE1 
 404      396CE401 
 404      F1
 405 0213 068DF1E2 		.ascii	"\006\215\361\342\017\230\276\371\314\257\352W\021\257"
 405      0F98BEF9 
 405      CCAFEA57 
 405      11AF
 406 0221 F1189A0A 		.ascii	"\361\030\232\012\350G\330\260#\275\356D\317\022\322"
 406      E847D8B0 
 406      23BDEE44 
 406      CF12D2
 407 0230 454E4B0D 		.ascii	"ENK\015*k\001\365`\2121\210\347\331\352\244)\315\310"
 407      2A6B01F5 
 407      608A3188 
 407      E7D9EAA4 
 407      29CDC8
 408 0243 3A73BB26 		.ascii	":s\273&\337\300\244\216I\022\320N\007B\252\216*.\327"
 408      DFC0A48E 
 408      4912D04E 
 408      0742AA8E 
 408      2A2ED7
 409 0256 F7C29B8C 		.ascii	"\367\302\233\214\316G\351z\035\350|\001C\336p\251\274"
 409      CE47E97A 
 409      1DE87C01 
 409      43DE70A9 
 409      BC
 410 0267 DD2EE421 		.ascii	"\335.\344!\36494\010~\316\375\342\306\330\000#Um\316"
 410      F4393408 
 410      7ECEFDE2 
 410      C6D80023 
 410      556DCE
 411 027a A7D3ECFE 		.ascii	"\247\323\354\376k,\224z\230\306V\376Z\356\303\327@~"
 411      6B2C947A 
 411      98C656FE 
 411      5AEEC3D7 
 411      407E
 412 028c 17B95928 		.ascii	"\027\271Y(x\314\241%bo\200\353\303#f\037\232\302\260"
 412      78CCA125 
 412      626F80EB 
 412      C323661F 
 412      9AC2B0
 413 029f 0E6D635C 		.ascii	"\016mc\\\374\016\033\350\360\326S\367\260\0154\202\353"
 413      FC0E1BE8 
 413      F0D653F7 
 413      B00D3482 
 413      EB
 414 02b0 80CD7BD8 		.ascii	"\200\315{\330\354FG6T\217\034\220\252Djh\347\016\216"
 414      EC464736 
 414      548F1C90 
 414      AA446A68 
 414      E70E8E
 415 02c3 0689579D 		.ascii	"\006\211W\235G&v\246k>\352\247\026<<\372\374\355\244"
ARM GAS  /tmp/ccUoimlR.s 			page 33


 415      472676A6 
 415      6B3EEAA7 
 415      163C3CFA 
 415      FCEDA4
 416 02d6 FF38B655 		.ascii	"\3778\266U\037lP\"\231`]\364,\026s7@[\0153\304E\023"
 416      1F6C5022 
 416      99605DF4 
 416      2C167337 
 416      405B0D33 
 417 02ed F1AB6073 		.ascii	"\361\253`s\021\217Z\265\334\336\301\264\034u\245\345"
 417      118F5AB5 
 417      DCDEC1B4 
 417      1C75A5E5 
 418 02fd 8ED1D7C1 		.ascii	"\216\321\327\301CA\223\222\026O\321\024\3043\321\033"
 418      43419392 
 418      164FD114 
 418      C433D11B 
 419 030d D6EDB6AC 		.ascii	"\326\355\266\254\306\326mF\366\310\315\355\251-\223"
 419      C6D66D46 
 419      F6C8CDED 
 419      A92D93
 420 031c 3E3AF367 		.ascii	">:\363g\272^\370<8\256$\335\360\010D|\012\337\005wl"
 420      BA5EF83C 
 420      38AE24DD 
 420      F008447C 
 420      0ADF0577 
 421 0331 CE744636 		.ascii	"\316tF6\321\222\211\200\016\011f\347\273\340\255)3\271"
 421      D1928980 
 421      0E0966E7 
 421      BBE0AD29 
 421      33B9
 422 0343 BD77318B 		.ascii	"\275w1\213\242\267Y>\273na\244\0113.G]*\301\345\231"
 422      A2B7593E 
 422      BB6E61A4 
 422      09332E47 
 422      5D2AC1E5 
 423 0358 FCAD6212 		.ascii	"\374\255b\022,5\374\000\236\232\275x,^/\262\020\320"
 423      2C35FC00 
 423      9E9ABD78 
 423      2C5E2FB2 
 423      10D0
 424 036a 245B148D 		.ascii	"$[\024\215\026;tmh\342g\212 \330i\257\336C\317\017\317"
 424      163B746D 
 424      68E2678A 
 424      20D869AF 
 424      DE43CF0F 
 425 037f 7463E8BC 		.ascii	"tc\350\274\313\030\022\361\037\312p\271\370\311\315"
 425      CB1812F1 
 425      1FCA70B9 
 425      F8C9CD
 426 038e F2A752B3 		.ascii	"\362\247R\263l\362Tj\226P\251Y\310~B\002~\276IX\014"
 426      6CF2546A 
 426      9650A959 
 426      C87E4202 
 426      7EBE4958 
 427 03a3 1237A5C0 		.ascii	"\0227\245\300\360\316S\247\361&\240\021\361\273,\012"
 427      F0CE53A7 
ARM GAS  /tmp/ccUoimlR.s 			page 34


 427      F126A011 
 427      F1BB2C0A 
 428 03b3 4F7B6CC2 		.ascii	"O{l\302\331\025\2533o\237\034\306\033\031\253\367\031"
 428      D915AB33 
 428      6F9F1CC6 
 428      1B19ABF7 
 428      19
 429 03c4 AB73D366 		.ascii	"\253s\323f5y\346eug\374\2151\272\354\261\356\014\277"
 429      3579E665 
 429      7567FC8D 
 429      31BAECB1 
 429      EE0CBF
 430 03d7 6567F8CD 		.ascii	"eg\370\315\321\016\257T\322\004\255E\360zm\206\276T"
 430      D10EAF54 
 430      D204AD45 
 430      F07A6D86 
 430      BE54
 431 03e9 A1FF3B1D 		.ascii	"\241\377;\035/\036\256\360\003S\215E\267\201\225/\015"
 431      2F1EAEF0 
 431      03538D45 
 431      B781952F 
 431      0D
 432 03fa ACBFBB09 		.ascii	"\254\277\273\011\254\352R~\2504\260\334\355\267w\313"
 432      ACEA527E 
 432      A834B0DC 
 432      EDB777CB 
 433 040a EC946B36 		.ascii	"\354\224k6\313r\265\214\177\343\232R'\013\350j\305K"
 433      CB72B58C 
 433      7FE39A52 
 433      270BE86A 
 433      C54B
 434 041c 0921F3A5 		.ascii	"\011!\363\245\263\023\361\030\236\017\367s\354~\231"
 434      B313F118 
 434      9E0FF773 
 434      EC7E99
 435 042b DDFF0577 		.ascii	"\335\377\005wG\235N\224\232\366C\246O\256\362Tfw\225"
 435      479D4E94 
 435      9AF643A6 
 435      4FAEF254 
 435      667795
 436 043e 9EFF223E 		.ascii	"\236\377\">\306\216\232\343nT:ZTi\232G\241\210\3671"
 436      C68E9AE3 
 436      6E543A5A 
 436      54699A47 
 436      A188F731 
 437 0452 71D3AB92 		.ascii	"q\323\253\222\307\3552\241\333\272\351B\337\373\033"
 437      C7ED32A1 
 437      DBBAE942 
 437      DFFB1B
 438 0461 B46C33C1 		.ascii	"\264l3\301*\247\275\336\012+'\225Qn\370*\016\211\370"
 438      2AA7BDDE 
 438      0A2B2795 
 438      516EF82A 
 438      0E89F8
 439 0474 23C6E345 		.ascii	"#\306\343E\2575;\254\2503\233z\205\271\206\311\027\242"
 439      AF353BAC 
 439      A8339B7A 
ARM GAS  /tmp/ccUoimlR.s 			page 35


 439      85B986C9 
 439      17A2
 440 0486 A4B39A4D 		.ascii	"\244\263\232M\013\350M/\267\215X9\237\363aE\321s\037"
 440      0BE84D2F 
 440      B78D5839 
 440      9FF36145 
 440      D1731F
 441 0499 33535A30 		.ascii	"3SZ0-E\376Y\257]\225\237\357\356\270y\032?\275\2114"
 441      2D45FE59 
 441      AF5D959F 
 441      EFEEB879 
 441      1A3FBD89 
 442 04ae A84E8534 		.ascii	"\250N\2054\307\360\016sK\350\243F\255\337E.\321\026"
 442      C7F00E73 
 442      4BE8A346 
 442      ADDF452E 
 442      D116
 443 04c0 619C91FD 		.ascii	"a\234\221\375\325\201l\274\330\"\220\356\321`\247a\374"
 443      D5816CBC 
 443      D82290EE 
 443      D160A761 
 443      FC
 444 04d1 0F1C0827 		.ascii	"\017\034\010'X\215\247\326\354\204<\327\261e\226\227"
 444      588DA7D6 
 444      EC843CD7 
 444      B1659697 
 445 04e1 55D6A80C 		.ascii	"U\326\250\014\225\266~\"L)\330\373\363\271?\236\011"
 445      95B67E22 
 445      4C29D8FB 
 445      F3B93F9E 
 445      09
 446 04f2 766EC817 		.ascii	"vn\310\027\012}!\367\345\372SB\271\226K;\200\215wst"
 446      0A7D21F7 
 446      E5FA5342 
 446      B9964B3B 
 446      808D7773 
 447 0507 C2EC3F6C 		.ascii	"\302\354?lmO.\305\214\016k\234a<)8wX]d\007\265\272\332"
 447      6D4F2EC5 
 447      8C0E6B9C 
 447      613C2938 
 447      77585D64 
 448 051f 34DF7020 		.ascii	"4\337p c\232id\347ug\211x\263 \224%\323\026`ks\036\225"
 448      639A6964 
 448      E7756789 
 448      78B32094 
 448      25D31660 
 449 0537 66A99F9A 		.ascii	"f\251\237\232m\376\030\366t{\351\275\307\2536Lp\254"
 449      6DFE18F6 
 449      747BE9BD 
 449      C7AB364C 
 449      70AC
 450 0549 7E307147 		.ascii	"~0qG\317~\262\371)\362qa=\266\370`\351\255\\\037t\013"
 450      CF7EB2F9 
 450      29F27161 
 450      3DB6F860 
 450      E9AD5C1F 
 451 055f 8E2D5369 		.ascii	"\216-Si'\321ot\022\263\221\261c\017\216\322\035\273"
ARM GAS  /tmp/ccUoimlR.s 			page 36


 451      27D16F74 
 451      12B391B1 
 451      630F8ED2 
 451      1DBB
 452 0571 53A08177 		.ascii	"S\240\201w\300g\273\353\371<\250\022\273\004K'\262K"
 452      C067BBEB 
 452      F93CA812 
 452      BB044B27 
 452      B24B
 453 0583 ED97E8BC 		.ascii	"\355\227\350\274s'2\334\3217\335~\351\230\317U\277\364"
 453      732732DC 
 453      D137DD7E 
 453      E998CF55 
 453      BFF4
 454 0595 4BE6D967 		.ascii	"K\346\331g\255Z~$\206\324Yg\035'\337\012v\212j\375,"
 454      AD5A7E24 
 454      86D45967 
 454      1D27DF0A 
 454      768A6AFD 
 455 05aa E277B0CE 		.ascii	"\342w\260\316nZ\205\263Z!\252U\247\210\377R1\263\220"
 455      6E5A85B3 
 455      5A21AA55 
 455      A788FF52 
 455      31B390
 456 05bd 1DB33C63 		.ascii	"\035\263<cv\325\0153~\211\2413S\317\373\377T\314,d1"
 456      76D50D33 
 456      7E89A133 
 456      53CFFBFF 
 456      54CC2C64 
 457 05d2 5EF1901F 		.ascii	"^\361\220\037\024\350\301>\304\356{\330}\257\340\342"
 457      14E8C13E 
 457      C4EE7BD8 
 457      7DAFE0E2 
 458 05e2 44ED176A 		.ascii	"D\355\027j\212\274\2563}vM\327\354\271\375\243\314\207"
 458      8ABCAE33 
 458      7D764DD7 
 458      ECB9FDA3 
 458      CC87
 459 05f4 17596AF9 		.ascii	"\027Yj\371=\213\363J\230\331\232}\200\365r\333\004\027"
 459      3D8BF34A 
 459      98D99A7D 
 459      80F572DB 
 459      0417
 460 0606 9A399B5D 		.ascii	"\2329\233]\315^g\335hfgv;f\347\3350\233e\243\231\335"
 460      CD5E67DD 
 460      68666776 
 460      3B66E7DD 
 460      309B65A3 
 461 061c 55BAD145 		.ascii	"U\272\321E\334+\320\343\265\2179s\037\273?\307\356\317"
 461      DC2BD0E3 
 461      B58F3973 
 461      1FBB3FC7 
 461      EECF
 462 062e B3FBAFDC 		.ascii	"\263\373\257\334\270\367\031\301Z0\031\355\034\367\030"
 462      B8F719C1 
 462      5A3019ED 
 462      1CF718
ARM GAS  /tmp/ccUoimlR.s 			page 37


 463 063d B1EBEB04 		.ascii	"\261\353\353\004\224\267\244-]\341\227\314\211\267\032"
 463      94B7A42D 
 463      5DE197CC 
 463      89B71A
 464 064c FD989560 		.ascii	"\375\230\225`[\310\006\374\270\363\217\231\007\204j"
 464      5BC806FC 
 464      B8F38F99 
 464      07846A
 465 065b 5AECFAB8 		.ascii	"Z\354\372\270e\010E\320\027\250\216\365\021\220\334"
 465      650845D0 
 465      17A88EF5 
 465      1190DC
 466 066a 823A5962 		.ascii	"\202:Yb\352\251UK7M\332\367tiA\215\311\313\302-ld\352"
 466      EAA9554B 
 466      374DDAF7 
 466      7469418D 
 466      C9CBC22D 
 467 0681 C11806CF 		.ascii	"\301\030\006\317n\277\021\212\345a0P\034\350\32642i"
 467      6EBF118A 
 467      E5613050 
 467      1CE8D634 
 467      3269
 468 0693 8E71A2ED 		.ascii	"\216q\242\355\214\213\016\305\322sS\265xTG\004\036\025"
 468      8C8B0EC5 
 468      D27353B5 
 468      78544704 
 468      1E15
 469 06a5 3D927954 		.ascii	"=\222yT\277\345Pq\014\265X\247\257\322\350G*6\324\357"
 469      BFE55071 
 469      0CB558A7 
 469      AFD2E847 
 469      2A36D4EF 
 470 06b9 3886D2FF 		.ascii	"8\206\322\377/\341V\362\334\365\371\371\302^\341\022"
 470      2FE156F2 
 470      DCF5F9F9 
 470      C25EE112 
 471 06c9 0D957140 		.ascii	"\015\225q@\216KU\305\027u\214K\344\343\023\035/\022"
 471      8E4B55C5 
 471      17758C4B 
 471      E4E3131D 
 471      2F12
 472 06db E9FF0074 		.ascii	"\351\377\000t\274v\005o\333D\306\310\265Ba\246\265\362"
 472      BC76056F 
 472      DB44C6C8 
 472      B54261A6 
 472      B5F2
 473 06ed 2BE7CA93 		.ascii	"+\347\312\223eK?\333_\333-;\366\272\317\266\372\273"
 473      654B3FDB 
 473      5FDB2D3B 
 473      F6BACFB6 
 473      FABB
 474 06ff AE577F22 		.ascii	"\256W\177\"\036f\371\376\204\213\352\257\223l\247e\034"
 474      1E66F9FE 
 474      848BEAAF 
 474      936CA765 
 474      1C
 475 0710 EBFC5F72 		.ascii	"\353\374_r\240*\376\270N^\241D\354\357\222\203\016D"
ARM GAS  /tmp/ccUoimlR.s 			page 38


 475      A02AFEB8 
 475      4E5EA144 
 475      ECEF9283 
 475      0E44
 476 0722 BE925FC8 		.ascii	"\276\222_\310\311\310{\0175\024\177\036\347\021i\206"
 476      C9C87B0F 
 476      35147F1E 
 476      E7116986 
 477 0732 1A3327A0 		.ascii	"\0323'\240\020\352\243\025\327\310\252\020\253\352\004"
 477      10EAA315 
 477      D7C8AA10 
 477      ABEA04
 478 0741 34E1D30B 		.ascii	"4\341\323\013}\235b\0066\320.\234\332\330\217ULd\302"
 478      7D9D6206 
 478      36D02E9C 
 478      DAD88F55 
 478      4C64C2
 479 0754 2A723AF4 		.ascii	"*r:\36432C(\217\361s'\214^G\214\233[\2350\236\346\353"
 479      33324328 
 479      8FF17327 
 479      8C5E478C 
 479      9B5B9D30 
 480 076b 6189505A 		.ascii	"a\211PZ\261\362\302\352,'\256\335\327\303\347\314\201"
 480      B1F2C2EA 
 480      2C27AEDD 
 480      D7C3E7CC 
 480      81
 481 077c 19445B4B 		.ascii	"\031D[Ke\257\260?\007\331\217\221B\020Y.\036\352;\334"
 481      65AFB03F 
 481      07D98F91 
 481      4210592E 
 481      1EEA3BDC 
 482 0790 DD37C1F9 		.ascii	"\3357\301\371\005\202R\375\231Ku\244Lz\270\360\211-"
 482      058252FD 
 482      994B75A4 
 482      4C7AB8F0 
 482      892D
 483 07a2 72C9BA55 		.ascii	"r\311\272U\351J]\375\354s\261(\033\335\033\316f\322"
 483      E94A5DFD 
 483      EC73B128 
 483      1BDD1BCE 
 483      66D2
 484 07b4 E1B8DC14 		.ascii	"\341\270\334\024n\211F\303b:\261 \231JJ\013$\261I\016"
 484      6E8946C3 
 484      623AB120 
 484      994A4A0B 
 484      24B1490E 
 485 07c8 2F5AB878 		.ascii	"/Z\270x\341\242\260\234"
 485      E1A2B09C 
 486 07d0 8CC6B331 		.ascii	"\214\306\2631)\234Qb1\251ya+\362g\344\037J\021\305\277"
 486      299C5162 
 486      31A97961 
 486      2BF267E4 
 486      1F4A11C5 
 487 07e5 F2EB6B42 		.ascii	"\362\353kB\365\350\276pk*!\205\243\251\330\272pLj\017"
 487      F5E8BE70 
 487      6B2A2185 
ARM GAS  /tmp/ccUoimlR.s 			page 39


 487      A3A9D8BA 
 487      704C6A0F 
 488 07f9 475BE526 		.ascii	"G[\345&9\225\011+\351l\362\007a\030\264\213i9\225\315"
 488      3995092B 
 488      E96CF207 
 488      6118B48B 
 488      693995CD 
 489 080d C087B6B4 		.ascii	"\300\207\266\264\234T\232\027F\2217\332*\246?\035O%"
 489      9C549A17 
 489      469137DA 
 489      2AA63F1D 
 489      4F25
 490 081f 5B224A2A 		.ascii	"[\"J*\222Q`\276%\262VVZ#1\271]\316\244\322\270\315\223"
 490      925160BE 
 490      25B25656 
 490      5A2331B9 
 490      5DCEA4D2 
 491 0836 CC267C69 		.ascii	"\314&|i1&?Q\245\315=\340$(\255\030\272F[\201\251$&2"
 491      31263F51 
 491      A5CD3DE0 
 491      2428AD18 
 491      BA465B81 
 492 084e A0EEECE5 		.ascii	"\240\356\354\345bFZ-=\236\225\222\212,\306W\263\017"
 492      62465A2D 
 492      3D9E9592 
 492      8A2CC657 
 492      B30F
 493 0860 B7D94D3E 		.ascii	"\267\331M>\332\370\310\235\314\034f3\224\030\000\364"
 493      DAF8C89D 
 493      CC1C6633 
 493      941800F4 
 494 0870 078E5559 		.ascii	"\007\216UYx.\216(\213\312 'D\320/)\205#`31\033W\"\312"
 494      782E8E28 
 494      8BCA2027 
 494      44D02F29 
 494      85236033 
 495 0889 BA3689AA 		.ascii	"\2726\211\252\023\210D4r\337\332\264\254H^\220\034k"
 495      13884434 
 495      72DFDAB4 
 495      AC485E90 
 495      1C6B
 496 089b 70B1B6B6 		.ascii	"p\261\266\266TZ\311\204\037|\270\261\276\361\011\300"
 496      545AC984 
 496      1F7CB8B1 
 496      BEF109C0 
 497 08ab 4CB4C971 		.ascii	"L\264\311q)\235\011\257\254\257\007t\235\273/\221\001"
 497      299D09AF 
 497      ACAF0774 
 497      9DBB2F91 
 497      01
 498 08bc 9B568180 		.ascii	"\233V\201\200\373\356\215( K\033y\332\262\212\247ER"
 498      FBEE8D28 
 498      204B1B79 
 498      DAB28AA7 
 498      4552
 499 08ce 3CED09A5 		.ascii	"<\355\011\245\"\227\213\351\026\272\342v1\022\2273J"
 499      22978BE9 
ARM GAS  /tmp/ccUoimlR.s 			page 40


 499      16BAE276 
 499      31129733 
 499      4A
 500 08df 6D24D292 		.ascii	"m$\322\222\314F#\332k\315\222\246\254\034W\026\310\311"
 500      CC4623DA 
 500      6BCD92A6 
 500      AC1C5716 
 500      C8C9
 501 08f1 A5745DDA 		.ascii	"\245t]\332l \332\332\256\272\332\003>\3674'\024Al\233"
 501      6C20DADA 
 501      AEBADA03 
 501      3EF73427 
 501      14416C9B 
 502 0905 012E496A 		.ascii	"\001.Ij\263\340\033/\215\241\373\335\206NBJ\024\375"
 502      B3E01B2F 
 502      8DA1FBDD 
 502      864E424A 
 502      14FD
 503 0917 196C9412 		.ascii	"\031l\224\022\251\364:\325e\364\305p\236\277)\333\334"
 503      A9F43AD5 
 503      65F4C570 
 503      9EBF29DB 
 503      DC
 504 0928 2CA53D52 		.ascii	",\245=R*\343O57g$%\230\310\254j\372\276\024U\276\226"
 504      2AE34F35 
 504      37672425 
 504      98C8AC6A 
 504      FABE1455 
 505 093e 94155F64 		.ascii	"\224\025_dy*\025\367\306\225\22483\233\314\310-I)\026"
 505      792A15F7 
 505      C6959438 
 505      339BCCC8 
 505      2D492916 
 506 0952 01432652 		.ascii	"\001C&R\311\377\001%\210.\254"
 506      C9FF0125 
 506      882EAC
 507              		.text
 508              		.section	.gnu.lto_.symtab.7ba6aca9f933394,"",%progbits
 509 0000 63687670 		.ascii	"chvprintf\000\000\000\000\000\000\000\000\000\000\000"
 509      72696E74 
 509      66000000 
 509      00000000 
 509      00000000 
 510 0014 00B90000 		.ascii	"\000\271\000\000\000chsnprintf\000\000\000\000\000\000"
 510      00636873 
 510      6E707269 
 510      6E746600 
 510      00000000 
 511 0029 00000000 		.ascii	"\000\000\000\000\000\000\010\001\000\000msObjectIni"
 511      00000801 
 511      00006D73 
 511      4F626A65 
 511      6374496E 
 512 003e 74000002 		.ascii	"t\000\000\002\000\000\000\000\000\000\000\000\000\026"
 512      00000000 
 512      00000000 
 512      0016
ARM GAS  /tmp/ccUoimlR.s 			page 41


 513 004c 010000   		.ascii	"\001\000\000"
 514              		.text
 515              		.section	.gnu.lto_.opts,"",%progbits
 516 0000 272D6D63 		.ascii	"'-mcpu=cortex-m4' '-mfloat-abi=hard' '-mfpu=fpv4-sp"
 516      70753D63 
 516      6F727465 
 516      782D6D34 
 516      2720272D 
 517 0033 2D643136 		.ascii	"-d16' '-mno-thumb-interwork' '-mthumb' '-O2' '-fomi"
 517      2720272D 
 517      6D6E6F2D 
 517      7468756D 
 517      622D696E 
 518 0066 742D6672 		.ascii	"t-frame-pointer' '-falign-functions=16' '-ffunction"
 518      616D652D 
 518      706F696E 
 518      74657227 
 518      20272D66 
 519 0099 2D736563 		.ascii	"-sections' '-fdata-sections' '-fno-common' '-flto' "
 519      74696F6E 
 519      73272027 
 519      2D666461 
 519      74612D73 
 520 00cc 272D6673 		.ascii	"'-fsingle-precision-constant'\000"
 520      696E676C 
 520      652D7072 
 520      65636973 
 520      696F6E2D 
 521              		.text
 522              		.section	.text.long_to_string_with_divisor.constprop.0,"ax",%progbits
 523              		.align	2
 524              		.p2align 4,,15
 525              		.thumb
 526              		.thumb_func
 527              		.type	long_to_string_with_divisor.constprop.0, %function
 528              	long_to_string_with_divisor.constprop.0:
 529              		@ args = 0, pretend = 0, frame = 0
 530              		@ frame_needed = 0, uses_anonymous_args = 0
 531              		@ link register save eliminated.
 532 0000 F0B4     		push	{r4, r5, r6, r7}
 533 0002 00F10B07 		add	r7, r0, #11
 534 0006 00F10A05 		add	r5, r0, #10
 535 000a 0C46     		mov	r4, r1
 536              	.L4:
 537 000c B1FBF2F6 		udiv	r6, r1, r2
 538 0010 02FB1611 		mls	r1, r2, r6, r1
 539 0014 01F13003 		add	r3, r1, #48
 540 0018 392B     		cmp	r3, #57
 541 001a C8BF     		it	gt
 542 001c 01F13703 		addgt	r3, r1, #55
 543 0020 DBB2     		uxtb	r3, r3
 544 0022 B4FBF2F4 		udiv	r4, r4, r2
 545 0026 3146     		mov	r1, r6
 546 0028 2E46     		mov	r6, r5
 547 002a 05F80139 		strb	r3, [r5], #-1
 548 002e 002C     		cmp	r4, #0
 549 0030 ECD1     		bne	.L4
ARM GAS  /tmp/ccUoimlR.s 			page 42


 550 0032 B91B     		subs	r1, r7, r6
 551 0034 3246     		mov	r2, r6
 552 0036 0144     		add	r1, r1, r0
 553 0038 01E0     		b	.L6
 554              	.L9:
 555 003a 12F8013F 		ldrb	r3, [r2, #1]!	@ zero_extendqisi2
 556              	.L6:
 557 003e 00F8013B 		strb	r3, [r0], #1
 558 0042 8842     		cmp	r0, r1
 559 0044 F9D1     		bne	.L9
 560 0046 F0BC     		pop	{r4, r5, r6, r7}
 561 0048 7047     		bx	lr
 562              		.size	long_to_string_with_divisor.constprop.0, .-long_to_string_with_divisor.constprop.0
 563              		.section	.text.chvprintf,"ax",%progbits
 564              		.align	2
 565              		.p2align 4,,15
 566              		.global	chvprintf
 567              		.thumb
 568              		.thumb_func
 569              		.type	chvprintf, %function
 570              	chvprintf:
 571              		@ args = 0, pretend = 0, frame = 32
 572              		@ frame_needed = 0, uses_anonymous_args = 0
 573 0000 2DE9F04F 		push	{r4, r5, r6, r7, r8, r9, r10, fp, lr}
 574 0004 89B0     		sub	sp, sp, #36
 575 0006 05AB     		add	r3, sp, #20
 576 0008 0DF1150C 		add	ip, sp, #21
 577 000c 0193     		str	r3, [sp, #4]
 578 000e C3EB0C03 		rsb	r3, r3, ip
 579 0012 CDF800C0 		str	ip, [sp]
 580 0016 8346     		mov	fp, r0
 581 0018 0C46     		mov	r4, r1
 582 001a 1546     		mov	r5, r2
 583 001c 0393     		str	r3, [sp, #12]
 584 001e 4FF00008 		mov	r8, #0
 585              	.L11:
 586 0022 2178     		ldrb	r1, [r4]	@ zero_extendqisi2
 587 0024 631C     		adds	r3, r4, #1
 588 0026 69B1     		cbz	r1, .L68
 589              	.L72:
 590 0028 2529     		cmp	r1, #37
 591 002a 0FD0     		beq	.L13
 592 002c DBF80020 		ldr	r2, [fp]
 593 0030 1C46     		mov	r4, r3
 594 0032 9268     		ldr	r2, [r2, #8]
 595 0034 5846     		mov	r0, fp
 596 0036 9047     		blx	r2
 597 0038 2178     		ldrb	r1, [r4]	@ zero_extendqisi2
 598 003a 08F10108 		add	r8, r8, #1
 599 003e 631C     		adds	r3, r4, #1
 600 0040 0029     		cmp	r1, #0
 601 0042 F1D1     		bne	.L72
 602              	.L68:
 603 0044 4046     		mov	r0, r8
 604 0046 09B0     		add	sp, sp, #36
 605              		@ sp needed
 606 0048 BDE8F08F 		pop	{r4, r5, r6, r7, r8, r9, r10, fp, pc}
ARM GAS  /tmp/ccUoimlR.s 			page 43


 607              	.L13:
 608 004c 6278     		ldrb	r2, [r4, #1]	@ zero_extendqisi2
 609 004e 2D2A     		cmp	r2, #45
 610 0050 03BF     		ittte	eq
 611 0052 A278     		ldrbeq	r2, [r4, #2]	@ zero_extendqisi2
 612 0054 A31C     		addeq	r3, r4, #2
 613 0056 4FF0010A 		moveq	r10, #1
 614 005a 4FF0000A 		movne	r10, #0
 615 005e 302A     		cmp	r2, #48
 616 0060 03BF     		ittte	eq
 617 0062 5A78     		ldrbeq	r2, [r3, #1]	@ zero_extendqisi2
 618 0064 0133     		addeq	r3, r3, #1
 619 0066 3026     		moveq	r6, #48
 620 0068 2026     		movne	r6, #32
 621 006a 1C46     		mov	r4, r3
 622 006c 0027     		movs	r7, #0
 623 006e 06E0     		b	.L19
 624              	.L73:
 625 0070 2B78     		ldrb	r3, [r5]	@ zero_extendqisi2
 626 0072 0435     		adds	r5, r5, #4
 627              	.L17:
 628 0074 07EB8707 		add	r7, r7, r7, lsl #2
 629 0078 2278     		ldrb	r2, [r4]	@ zero_extendqisi2
 630 007a 03EB4707 		add	r7, r3, r7, lsl #1
 631              	.L19:
 632 007e A2F13003 		sub	r3, r2, #48
 633 0082 DBB2     		uxtb	r3, r3
 634 0084 092B     		cmp	r3, #9
 635 0086 04F10104 		add	r4, r4, #1
 636 008a F3D9     		bls	.L17
 637 008c 2A2A     		cmp	r2, #42
 638 008e EFD0     		beq	.L73
 639 0090 2E2A     		cmp	r2, #46
 640 0092 4FF00001 		mov	r1, #0
 641 0096 2BD0     		beq	.L22
 642 0098 02F0DF03 		and	r3, r2, #223
 643 009c 4C2B     		cmp	r3, #76
 644 009e 34D0     		beq	.L74
 645              	.L24:
 646 00a0 A2F14403 		sub	r3, r2, #68
 647 00a4 342B     		cmp	r3, #52
 648 00a6 00F2B680 		bhi	.L25
 649 00aa DFE803F0 		tbb	[pc, r3]
 650              	.L27:
 651 00ae AC       		.byte	(.L26-.L27)/2
 652 00af B4       		.byte	(.L25-.L27)/2
 653 00b0 B4       		.byte	(.L25-.L27)/2
 654 00b1 B4       		.byte	(.L25-.L27)/2
 655 00b2 B4       		.byte	(.L25-.L27)/2
 656 00b3 AC       		.byte	(.L26-.L27)/2
 657 00b4 B4       		.byte	(.L25-.L27)/2
 658 00b5 B4       		.byte	(.L25-.L27)/2
 659 00b6 B4       		.byte	(.L25-.L27)/2
 660 00b7 B4       		.byte	(.L25-.L27)/2
 661 00b8 B4       		.byte	(.L25-.L27)/2
 662 00b9 AA       		.byte	(.L28-.L27)/2
 663 00ba B4       		.byte	(.L25-.L27)/2
ARM GAS  /tmp/ccUoimlR.s 			page 44


 664 00bb B4       		.byte	(.L25-.L27)/2
 665 00bc B4       		.byte	(.L25-.L27)/2
 666 00bd B4       		.byte	(.L25-.L27)/2
 667 00be B4       		.byte	(.L25-.L27)/2
 668 00bf 34       		.byte	(.L57-.L27)/2
 669 00c0 B4       		.byte	(.L25-.L27)/2
 670 00c1 B4       		.byte	(.L25-.L27)/2
 671 00c2 7D       		.byte	(.L30-.L27)/2
 672 00c3 B4       		.byte	(.L25-.L27)/2
 673 00c4 B4       		.byte	(.L25-.L27)/2
 674 00c5 B4       		.byte	(.L25-.L27)/2
 675 00c6 B4       		.byte	(.L25-.L27)/2
 676 00c7 B4       		.byte	(.L25-.L27)/2
 677 00c8 B4       		.byte	(.L25-.L27)/2
 678 00c9 B4       		.byte	(.L25-.L27)/2
 679 00ca B4       		.byte	(.L25-.L27)/2
 680 00cb B4       		.byte	(.L25-.L27)/2
 681 00cc B4       		.byte	(.L25-.L27)/2
 682 00cd 9F       		.byte	(.L31-.L27)/2
 683 00ce AC       		.byte	(.L26-.L27)/2
 684 00cf B4       		.byte	(.L25-.L27)/2
 685 00d0 B4       		.byte	(.L25-.L27)/2
 686 00d1 B4       		.byte	(.L25-.L27)/2
 687 00d2 B4       		.byte	(.L25-.L27)/2
 688 00d3 AC       		.byte	(.L26-.L27)/2
 689 00d4 B4       		.byte	(.L25-.L27)/2
 690 00d5 B4       		.byte	(.L25-.L27)/2
 691 00d6 B4       		.byte	(.L25-.L27)/2
 692 00d7 B4       		.byte	(.L25-.L27)/2
 693 00d8 B4       		.byte	(.L25-.L27)/2
 694 00d9 AA       		.byte	(.L28-.L27)/2
 695 00da B4       		.byte	(.L25-.L27)/2
 696 00db B4       		.byte	(.L25-.L27)/2
 697 00dc B4       		.byte	(.L25-.L27)/2
 698 00dd 7F       		.byte	(.L32-.L27)/2
 699 00de B4       		.byte	(.L25-.L27)/2
 700 00df 34       		.byte	(.L57-.L27)/2
 701 00e0 B4       		.byte	(.L25-.L27)/2
 702 00e1 B4       		.byte	(.L25-.L27)/2
 703 00e2 7D       		.byte	(.L30-.L27)/2
 704 00e3 00       		.p2align 1
 705              	.L75:
 706 00e4 2B78     		ldrb	r3, [r5]	@ zero_extendqisi2
 707 00e6 0435     		adds	r5, r5, #4
 708              	.L21:
 709 00e8 01EB8101 		add	r1, r1, r1, lsl #2
 710 00ec 03EB4101 		add	r1, r3, r1, lsl #1
 711              	.L22:
 712 00f0 14F8012B 		ldrb	r2, [r4], #1	@ zero_extendqisi2
 713 00f4 A2F13003 		sub	r3, r2, #48
 714 00f8 DBB2     		uxtb	r3, r3
 715 00fa 092B     		cmp	r3, #9
 716 00fc F4D9     		bls	.L21
 717 00fe 2A2A     		cmp	r2, #42
 718 0100 F0D0     		beq	.L75
 719 0102 02F0DF03 		and	r3, r2, #223
 720 0106 4C2B     		cmp	r3, #76
ARM GAS  /tmp/ccUoimlR.s 			page 45


 721 0108 CAD1     		bne	.L24
 722              	.L74:
 723 010a 2378     		ldrb	r3, [r4]	@ zero_extendqisi2
 724 010c 002B     		cmp	r3, #0
 725 010e C7D0     		beq	.L24
 726 0110 0134     		adds	r4, r4, #1
 727 0112 1A46     		mov	r2, r3
 728 0114 C4E7     		b	.L24
 729              	.L57:
 730 0116 0A22     		movs	r2, #10
 731              	.L29:
 732 0118 2968     		ldr	r1, [r5]
 733 011a 05A8     		add	r0, sp, #20
 734 011c 0435     		adds	r5, r5, #4
 735              	.L70:
 736 011e FFF7FEFF 		bl	long_to_string_with_divisor.constprop.0
 737 0122 019B     		ldr	r3, [sp, #4]
 738 0124 C01A     		subs	r0, r0, r3
 739 0126 00F1FF3C 		add	ip, r0, #-1
 740 012a CDF808C0 		str	ip, [sp, #8]
 741 012e 0DF11409 		add	r9, sp, #20
 742              	.L33:
 743 0132 3F1A     		subs	r7, r7, r0
 744 0134 27EAE777 		bic	r7, r7, r7, asr #31
 745 0138 BAF1000F 		cmp	r10, #0
 746 013c 12D1     		bne	.L44
 747 013e 7F42     		negs	r7, r7
 748 0140 87B1     		cbz	r7, .L44
 749 0142 99F80010 		ldrb	r1, [r9]	@ zero_extendqisi2
 750 0146 2D29     		cmp	r1, #45
 751 0148 6DD0     		beq	.L76
 752              	.L45:
 753 014a BA46     		mov	r10, r7
 754              	.L47:
 755 014c DBF80030 		ldr	r3, [fp]
 756 0150 5846     		mov	r0, fp
 757 0152 9B68     		ldr	r3, [r3, #8]
 758 0154 3146     		mov	r1, r6
 759 0156 9847     		blx	r3
 760 0158 1AF1010A 		adds	r10, r10, #1
 761 015c F6D1     		bne	.L47
 762 015e C7EB0808 		rsb	r8, r7, r8
 763 0162 5746     		mov	r7, r10
 764              	.L44:
 765 0164 029A     		ldr	r2, [sp, #8]
 766 0166 002A     		cmp	r2, #0
 767 0168 0FDB     		blt	.L48
 768 016a 09F1FF3A 		add	r10, r9, #-1
 769 016e 9144     		add	r9, r9, r2
 770              	.L50:
 771 0170 DBF80030 		ldr	r3, [fp]
 772 0174 1AF8011F 		ldrb	r1, [r10, #1]!	@ zero_extendqisi2
 773 0178 9B68     		ldr	r3, [r3, #8]
 774 017a 5846     		mov	r0, fp
 775 017c 9847     		blx	r3
 776 017e CA45     		cmp	r10, r9
 777 0180 F6D1     		bne	.L50
ARM GAS  /tmp/ccUoimlR.s 			page 46


 778 0182 029B     		ldr	r3, [sp, #8]
 779 0184 08F10108 		add	r8, r8, #1
 780 0188 9844     		add	r8, r8, r3
 781              	.L48:
 782 018a 002F     		cmp	r7, #0
 783 018c 3FF449AF 		beq	.L11
 784 0190 B946     		mov	r9, r7
 785              	.L52:
 786 0192 DBF80030 		ldr	r3, [fp]
 787 0196 5846     		mov	r0, fp
 788 0198 9B68     		ldr	r3, [r3, #8]
 789 019a 3146     		mov	r1, r6
 790 019c 9847     		blx	r3
 791 019e B9F10109 		subs	r9, r9, #1
 792 01a2 F6D1     		bne	.L52
 793 01a4 B844     		add	r8, r8, r7
 794 01a6 3CE7     		b	.L11
 795              	.L30:
 796 01a8 1022     		movs	r2, #16
 797 01aa B5E7     		b	.L29
 798              	.L32:
 799 01ac D5F80090 		ldr	r9, [r5]
 800 01b0 304B     		ldr	r3, .L79
 801 01b2 B9F1000F 		cmp	r9, #0
 802 01b6 08BF     		it	eq
 803 01b8 9946     		moveq	r9, r3
 804 01ba 47F6FF73 		movw	r3, #32767
 805 01be 99F80000 		ldrb	r0, [r9]	@ zero_extendqisi2
 806 01c2 0435     		adds	r5, r5, #4
 807 01c4 0029     		cmp	r1, #0
 808 01c6 08BF     		it	eq
 809 01c8 1946     		moveq	r1, r3
 810 01ca 0028     		cmp	r0, #0
 811 01cc 4CD0     		beq	.L60
 812 01ce 4944     		add	r1, r1, r9
 813 01d0 4B46     		mov	r3, r9
 814 01d2 01E0     		b	.L38
 815              	.L36:
 816 01d4 9942     		cmp	r1, r3
 817 01d6 38D0     		beq	.L77
 818              	.L38:
 819 01d8 5A78     		ldrb	r2, [r3, #1]	@ zero_extendqisi2
 820 01da 0133     		adds	r3, r3, #1
 821 01dc 002A     		cmp	r2, #0
 822 01de F9D1     		bne	.L36
 823 01e0 C9EB0300 		rsb	r0, r9, r3
 824 01e4 431E     		subs	r3, r0, #1
 825 01e6 0293     		str	r3, [sp, #8]
 826 01e8 2026     		movs	r6, #32
 827 01ea A2E7     		b	.L33
 828              	.L31:
 829 01ec 0398     		ldr	r0, [sp, #12]
 830 01ee 2B68     		ldr	r3, [r5]
 831 01f0 8DF81430 		strb	r3, [sp, #20]
 832 01f4 421E     		subs	r2, r0, #1
 833 01f6 0435     		adds	r5, r5, #4
 834 01f8 0292     		str	r2, [sp, #8]
ARM GAS  /tmp/ccUoimlR.s 			page 47


 835 01fa 2026     		movs	r6, #32
 836 01fc 0DF11409 		add	r9, sp, #20
 837 0200 97E7     		b	.L33
 838              	.L28:
 839 0202 0822     		movs	r2, #8
 840 0204 88E7     		b	.L29
 841              	.L26:
 842 0206 2968     		ldr	r1, [r5]
 843 0208 0029     		cmp	r1, #0
 844 020a 05F10405 		add	r5, r5, #4
 845 020e 24DB     		blt	.L78
 846 0210 05A8     		add	r0, sp, #20
 847              	.L41:
 848 0212 0A22     		movs	r2, #10
 849 0214 83E7     		b	.L70
 850              	.L25:
 851 0216 0398     		ldr	r0, [sp, #12]
 852 0218 8DF81420 		strb	r2, [sp, #20]
 853 021c 421E     		subs	r2, r0, #1
 854 021e 0292     		str	r2, [sp, #8]
 855 0220 0DF11409 		add	r9, sp, #20
 856 0224 85E7     		b	.L33
 857              	.L76:
 858 0226 302E     		cmp	r6, #48
 859 0228 8FD1     		bne	.L45
 860 022a DBF80030 		ldr	r3, [fp]
 861 022e 5846     		mov	r0, fp
 862 0230 9B68     		ldr	r3, [r3, #8]
 863 0232 9847     		blx	r3
 864 0234 DDF808C0 		ldr	ip, [sp, #8]
 865 0238 0CF1FF3C 		add	ip, ip, #-1
 866 023c 09F10109 		add	r9, r9, #1
 867 0240 08F10108 		add	r8, r8, #1
 868 0244 CDF808C0 		str	ip, [sp, #8]
 869 0248 7FE7     		b	.L45
 870              	.L77:
 871 024a C9EB0100 		rsb	r0, r9, r1
 872 024e 00F1FF3C 		add	ip, r0, #-1
 873 0252 CDF808C0 		str	ip, [sp, #8]
 874 0256 2026     		movs	r6, #32
 875 0258 6BE7     		b	.L33
 876              	.L78:
 877 025a 2D23     		movs	r3, #45
 878 025c 4942     		negs	r1, r1
 879 025e 8DF81430 		strb	r3, [sp, #20]
 880 0262 0DF11500 		add	r0, sp, #21
 881 0266 D4E7     		b	.L41
 882              	.L60:
 883 0268 4FF0FF33 		mov	r3, #-1
 884 026c 0293     		str	r3, [sp, #8]
 885 026e 2026     		movs	r6, #32
 886 0270 5FE7     		b	.L33
 887              	.L80:
 888 0272 00BF     		.align	2
 889              	.L79:
 890 0274 00000000 		.word	.LC0
 891              		.size	chvprintf, .-chvprintf
ARM GAS  /tmp/ccUoimlR.s 			page 48


 892 0278 AFF30080 		.section	.text.chsnprintf,"ax",%progbits
 892      AFF30080 
 893              		.align	2
 894              		.p2align 4,,15
 895              		.global	chsnprintf
 896              		.thumb
 897              		.thumb_func
 898              		.type	chsnprintf, %function
 899              	chsnprintf:
 900              		@ args = 4, pretend = 8, frame = 24
 901              		@ frame_needed = 0, uses_anonymous_args = 1
 902 0000 0CB4     		push	{r2, r3}
 903 0002 70B5     		push	{r4, r5, r6, lr}
 904 0004 86B0     		sub	sp, sp, #24
 905 0006 0C46     		mov	r4, r1
 906 0008 0546     		mov	r5, r0
 907 000a 0A9E     		ldr	r6, [sp, #40]
 908 000c B1B1     		cbz	r1, .L82
 909 000e 01A8     		add	r0, sp, #4
 910 0010 2946     		mov	r1, r5
 911 0012 621E     		subs	r2, r4, #1
 912 0014 0023     		movs	r3, #0
 913 0016 FFF7FEFF 		bl	msObjectInit
 914 001a 0BAB     		add	r3, sp, #44
 915 001c 1A46     		mov	r2, r3
 916 001e 01A8     		add	r0, sp, #4
 917 0020 3146     		mov	r1, r6
 918 0022 0093     		str	r3, [sp]
 919 0024 FFF7FEFF 		bl	chvprintf
 920 0028 049B     		ldr	r3, [sp, #16]
 921 002a 9C42     		cmp	r4, r3
 922 002c 01D9     		bls	.L84
 923 002e 0022     		movs	r2, #0
 924 0030 EA54     		strb	r2, [r5, r3]
 925              	.L84:
 926 0032 06B0     		add	sp, sp, #24
 927              		@ sp needed
 928 0034 BDE87040 		pop	{r4, r5, r6, lr}
 929 0038 02B0     		add	sp, sp, #8
 930 003a 7047     		bx	lr
 931              	.L82:
 932 003c 0A46     		mov	r2, r1
 933 003e 2346     		mov	r3, r4
 934 0040 0146     		mov	r1, r0
 935 0042 01A8     		add	r0, sp, #4
 936 0044 FFF7FEFF 		bl	msObjectInit
 937 0048 0BAB     		add	r3, sp, #44
 938 004a 01A8     		add	r0, sp, #4
 939 004c 3146     		mov	r1, r6
 940 004e 1A46     		mov	r2, r3
 941 0050 0093     		str	r3, [sp]
 942 0052 FFF7FEFF 		bl	chvprintf
 943 0056 06B0     		add	sp, sp, #24
 944              		@ sp needed
 945 0058 BDE87040 		pop	{r4, r5, r6, lr}
 946 005c 02B0     		add	sp, sp, #8
 947 005e 7047     		bx	lr
ARM GAS  /tmp/ccUoimlR.s 			page 49


 948              		.size	chsnprintf, .-chsnprintf
 949              		.section	.rodata.str1.4,"aMS",%progbits,1
 950              		.align	2
 951              	.LC0:
 952 0000 286E756C 		.ascii	"(null)\000"
 952      6C2900
 953              		.comm	__gnu_lto_v1,1,1
 954 0007 00       		.ident	"GCC: (GNU Tools for ARM Embedded Processors) 4.8.4 20140526 (release) [ARM/embedded-4_8-br
ARM GAS  /tmp/ccUoimlR.s 			page 50


DEFINED SYMBOLS
                            *ABS*:0000000000000000 chprintf.c
     /tmp/ccUoimlR.s:523    .text.long_to_string_with_divisor.constprop.0:0000000000000000 $t
     /tmp/ccUoimlR.s:528    .text.long_to_string_with_divisor.constprop.0:0000000000000000 long_to_string_with_divisor.constprop.0
     /tmp/ccUoimlR.s:564    .text.chvprintf:0000000000000000 $t
     /tmp/ccUoimlR.s:570    .text.chvprintf:0000000000000000 chvprintf
     /tmp/ccUoimlR.s:651    .text.chvprintf:00000000000000ae $d
     /tmp/ccUoimlR.s:890    .text.chvprintf:0000000000000274 $d
     /tmp/ccUoimlR.s:893    .text.chsnprintf:0000000000000000 $t
     /tmp/ccUoimlR.s:899    .text.chsnprintf:0000000000000000 chsnprintf
     /tmp/ccUoimlR.s:950    .rodata.str1.4:0000000000000000 $d
                            *COM*:0000000000000001 __gnu_lto_v1
     /tmp/ccUoimlR.s:892    .text.chvprintf:0000000000000278 $t
     /tmp/ccUoimlR.s:704    .text.chvprintf:00000000000000e3 $d
     /tmp/ccUoimlR.s:704    .text.chvprintf:00000000000000e4 $t

UNDEFINED SYMBOLS
msObjectInit
