ARM GAS  /tmp/cc6maOJ5.s 			page 1


   1              		.syntax unified
   2              		.cpu cortex-m3
   3              		.fpu softvfp
   4              		.eabi_attribute 20, 1
   5              		.eabi_attribute 21, 1
   6              		.eabi_attribute 23, 3
   7              		.eabi_attribute 24, 1
   8              		.eabi_attribute 25, 1
   9              		.eabi_attribute 26, 1
  10              		.eabi_attribute 30, 2
  11              		.eabi_attribute 34, 1
  12              		.eabi_attribute 18, 4
  13              		.thumb
  14              		.file	"chqueues.c"
  15              		.section	.gnu.lto_.jmpfuncs.54745dcc9bc095d5,"",%progbits
  16 0000 789C7D4D 		.ascii	"x\234}M\311\015\2000\014\263\223B9\036\214\320\265X"
  16      C90D8030 
  16      0CB39342 
  16      391E8CD0 
  16      B558
  17 0012 A10BF4DB 		.ascii	"\241\013\364\333\311\330\205I\200T\355\253 \"E\266\354"
  17      C9D88549 
  17      8054EDAB 
  17      202245B6 
  17      EC
  18 0023 D81108BE 		.ascii	"\330\021\010\276\346h\270\202T\303D\340\344\310 \024"
  18      E668B882 
  18      54C344E0 
  18      E4C82014 
  19 0033 87C8E2C9 		.ascii	"\207\310\342\311\316H^w\033f\250v\246\021\247\366\301"
  19      CE485E77 
  19      1B66A876 
  19      A611A7F6 
  19      C1
  20 0044 2A986C81 		.ascii	"*\230l\201\014\014[U\264*\245w\014\376\257w\362f\324"
  20      0C0C5B55 
  20      B42AA577 
  20      0CFEAF77 
  20      F266D4
  21 0057 905868EE 		.ascii	"\220Xh\356o\215,\357R<\242\367\036\335"
  21      6F8D2CEF 
  21      523CA2F7 
  21      1EDD
  22              		.text
  23              		.section	.gnu.lto_.inline.54745dcc9bc095d5,"",%progbits
  24 0000 789C9551 		.ascii	"x\234\225Q=K\003A\024\234\267\273\311\335\351\345r\212"
  24      3D4B0341 
  24      149CB7BB 
  24      C9DDE9E5 
  24      728A
  25 0012 A8F89144 		.ascii	"\250\370\221D\010\2044A,\004\273\010\301\322\332\322"
  25      08843441 
  25      2C04BB08 
  25      C1D2DAD2 
  26 0022 46D4D27F 		.ascii	"F\324\322\177p\245\210h$X\330H\264\262\022!\215eJK\013"
  26      70A58868 
  26      2458D848 
ARM GAS  /tmp/cc6maOJ5.s 			page 2


  26      B4B21221 
  26      8D654A4B 
  27 0037 31162269 		.ascii	"1\026\"i\224\024\226\351\264p\337n<\016\014\250\307"
  27      941496E9 
  27      B470DF6E 
  27      3C0E0CA8 
  27      C7
  28 0048 F1DE6399 		.ascii	"\361\336c\231\235}3# 0\354+J\333G\365?F\022;\033\264"
  28      9D7D3323 
  28      2030EC2B 
  28      4ADB47F5 
  28      3F46123B 
  29 005e 4B1A2ABB 		.ascii	"K\032*\273\204\355\304L\246)q\237E\272\231\027\240\236"
  29      84EDC44C 
  29      A629719F 
  29      45BA9917 
  29      A09E
  30 0070 130AA4F6 		.ascii	"\023\012\244\366K!\337V!\024\250\276N\310\370\232D\203"
  30      4B21DF56 
  30      2114A8BE 
  30      4EC8F89A 
  30      4483
  31 0082 415C0417 		.ascii	"A\\\004\027\351]\255!{\267%\240oO3\\`d\\\0233\347\246"
  31      E95DAD21 
  31      7BB725A0 
  31      6F4F335C 
  31      60645C13 
  32 0099 012B793B 		.ascii	"\001+y;\005\357i\331\360*[\031(}\015\256\257Cb6Oi\273"
  32      05EF69D9 
  32      F02A5B19 
  32      287D0DAE 
  32      AF436236 
  33 00b0 9C5E5856 		.ascii	"\234^XV\355nvd\232\246\335\260m\2339\203\027v\367\340"
  33      ED6E7664 
  33      9AA6DDB0 
  33      6D9B3983 
  33      1776F7E0 
  34 00c4 776BDFCB 		.ascii	"wk\337\313\312\336d\310c\301\034\024\240\232\371E\210"
  34      CADE64C8 
  34      63C11C14 
  34      A09AF945 
  34      88
  35 00d5 47B72AE0 		.ascii	"G\267*\340^\317U\223\357),<\023\0312\210\342\351\211"
  35      5ECF5593 
  35      EF292C3C 
  35      13193288 
  35      E2E989
  36 00e8 83E0B541 		.ascii	"\203\340\265A\306A\225!\206\2349Z3KN\241\334\222\224"
  36      C6419521 
  36      869C395A 
  36      334B4EA1 
  36      DC9294
  37 00fb FAC538C4 		.ascii	"\372\3058\304n\250\312A#@\360\362A\261\211\375Z\210"
  37      6EA8CA41 
  37      2340F0F2 
  37      41B189FD 
  37      5A88
ARM GAS  /tmp/cc6maOJ5.s 			page 3


  38 010d AAA1164C 		.ascii	"\252\241\026L\335\221*$m\347\305J\372ov:\360',\314\332"
  38      DD912A24 
  38      6DE7C54A 
  38      FA6F763A 
  38      F0272CCC 
  39 0122 2923FB9E 		.ascii	")#\373\2363\314U]\\3\272|\337O\252v1\377\020\253\316"
  39      33CC555D 
  39      5C33BA7C 
  39      DF4FAA76 
  39      31FF10AB 
  40 0137 1DBDA511 		.ascii	"\035\275\245\021|\036[\325\014\321bc\361\036fr\344\376"
  40      7C1E5BD5 
  40      0CD16263 
  40      F11E6672 
  40      E4FE
  41 0149 2F90C15A 		.ascii	"/\220\301Z\203\310\003/Z\205\027-}\273\300u\220\216"
  41      83C8032F 
  41      5A85172D 
  41      7DBBC075 
  41      908E
  42 015b 0EEA673A 		.ascii	"\016\352g:\324v\"\266\214\033T\224\343\007\2722\022"
  42      D47622B6 
  42      8C1B5494 
  42      E307BA32 
  42      12
  43 016c C2B6A48E 		.ascii	"\302\266\244\216\021\224/S\332\301?D\242*\235\363\022"
  43      11942F53 
  43      DAC13F44 
  43      A22A9DF3 
  43      12
  44 017d 82D68D13 		.ascii	"\202\326\215\023\247\361\336\227a\"\350\272o\3238t\360"
  44      A7F1DE97 
  44      6122E8BA 
  44      6FD33874 
  44      F0
  45 018e 0551366E 		.ascii	"\005Q6n\214"
  45      8C
  46              		.text
  47              		.section	.gnu.lto_.pureconst.54745dcc9bc095d5,"",%progbits
  48 0000 789C6362 		.ascii	"x\234cb`b\020g\200\000n\006+F)&)f)\026+V+6)v)\016+N"
  48      60621067 
  48      80006E06 
  48      2B462926 
  48      29662916 
  49 001e 292E2B00 		.ascii	").+\000\030\323\002\034"
  49      18D3021C 
  50              		.text
  51              		.section	.gnu.lto_chOQPutTimeout.part.2.54745dcc9bc095d5,"",%progbits
  52 0000 789C8D52 		.ascii	"x\234\215RAh\023A\024\375\177fv\023c\0139Y\275H(xQ\351"
  52      41681341 
  52      14FD7F66 
  52      7613630B 
  52      3959BD48 
  53 0018 8A600FE2 		.ascii	"\212`\017\342\241P\021<\344bZ\320\223$\233!\031t\023"
  53      A150113C 
  53      E4625AD0 
  53      93249B21 
ARM GAS  /tmp/cc6maOJ5.s 			page 4


  53      197413
  54 002b DDCD8A3D 		.ascii	"\335\315\212=u6\344\340A!\024\304R\025R\004\251\227"
  54      7536E4E0 
  54      412114C4 
  54      52155204 
  54      A997
  55 003d 0ADEF4A2 		.ascii	"\012\336\364\242\340\241\212X\321\203\250\247\\\274"
  55      E0A18A58 
  55      D183A8A7 
  55      5CBC
  56 004b A817EFE2 		.ascii	"\250\027\357\342\372g\267I\332\"\350\300\376\377\347"
  56      FA67B749 
  56      DA22E8C0 
  56      FEFFE7
  57 005a FFF7FE7F 		.ascii	"\377\367\376\1773;\014\030\354^\247\351+R\372\036y\314"
  57      333B0C18 
  57      EC5EA7E9 
  57      2B52FA1E 
  57      79CC
  58 006c 00DADD4D 		.ascii	"\000\332\335M\012ld\211g\214oL\203\316\211\327\023\240"
  58      0A6C6489 
  58      678C6F4C 
  58      83CE89D7 
  58      13A0
  59 007e C7380A93 		.ascii	"\3078\012\223\215\262\002\2554\260\020M\000\010\213"
  59      8DB202AD 
  59      34B0104D 
  59      00088B
  60 008d 36E3C2C2 		.ascii	"6\343\302\302\305\013h\272\212IX\325z\251\377\365\371"
  60      C50B68BA 
  60      8A4958D5 
  60      7AA9FFF5 
  60      F9
  61 009e B3FDBA17 		.ascii	"\263\375\272\027u\365\3578F\2054\377\004\202\213p\236"
  61      75F5EF38 
  61      468534FF 
  61      04828B70 
  61      9E
  62 00af 36984F1C 		.ascii	"6\230O\034\333\245)e\352u\255yO\377\212c\256\220389"
  62      DBA52965 
  62      EA75AD79 
  62      4FFF8A63 
  62      AE903338 
  63 00c4 A265531A 		.ascii	"\242eS\032\376\205\266\242\327\327F4\001\377\303\351"
  63      FE85B6A2 
  63      D7D74634 
  63      01FFC3E9 
  64 00d4 BEB8F3F1 		.ascii	"\276\270\363\361\326\001\335k\017DZ\014N\215\246\025"
  64      D601DD6B 
  64      0F445A0C 
  64      4E8DA615 
  65 00e4 52A6D8C9 		.ascii	"R\246\330\311|\314t?\216\237~\317e\021=s,\2056'cQ\315"
  65      7CCC743F 
  65      8E9F7ECF 
  65      65113D73 
  65      2C853627 
  66 00fb 820E752D 		.ascii	"\202\016u-\224q\025'\241\214\017\310&Bh\315\2215\367"
ARM GAS  /tmp/cc6maOJ5.s 			page 5


  66      94711527 
  66      A18C0FC8 
  66      264268CD 
  66      9135F7
  67 010e 3587B6F1 		.ascii	"5\207\266\361|\036Y\342\337B\373\313\362\267\017X\306"
  67      7C1E59E2 
  67      DF42FBCB 
  67      F2B70F58 
  67      C6
  68 011f 356A5143 		.ascii	"5jQCv\004\016+\314\334\205\225H\353\274\302l\015\321"
  68      76040E2B 
  68      CCDC8595 
  68      48EBBCC2 
  68      6C0DD1
  69 0132 C8D8930C 		.ascii	"\310\330\223\014\257\014\217\361\012:?\242\361!\313"
  69      AF0C8FF1 
  69      0A3A3FA2 
  69      F121CB
  70 0141 4032DB65 		.ascii	"@2\333e\316#\207\215i\376\016:\375Gor)\016\014\322\030"
  70      CE23878D 
  70      69FE0E3A 
  70      FD476F72 
  70      290E0CD2 
  71 0156 02E70630 		.ascii	"\002\347\0060\221\310\330\204\366\317\033/\237\334\344"
  71      91C8D884 
  71      F6CF1B2F 
  71      9FDCE4
  72 0165 5B470018 		.ascii	"[G\000\030P\350\007#D\324\215\230<}E\007a\011\357\353"
  72      50E80723 
  72      44D48D98 
  72      3C7D4507 
  72      6109EFEB 
  73 0179 E519857B 		.ascii	"\345\031\205{\315\326\314\036K\272\015\353\267\267\352"
  73      CDD6CC1E 
  73      4BBA0DEB 
  73      B7B7EA
  74 0188 E3DB0559 		.ascii	"\343\333\005Y\311\244\367\364v\214\006n\222\237\201"
  74      C9A4F7F4 
  74      768C066E 
  74      929F81
  75 0197 1B36CD11 		.ascii	"\0336\315\021\017?\3553\267\203\006d\272\034w\352MO"
  75      0F3FED33 
  75      B7830664 
  75      BA1C77EA 
  75      4D4F
  76 01a9 3A6EB3BA 		.ascii	":n\263\272\340T\3455\307\255\253\212j\006N\313\017\033"
  76      E054E535 
  76      C7ADAB8A 
  76      6A064ECB 
  76      0F1B
  77 01bb 971C0AFC 		.ascii	"\227\034\012\374\226\023\370.\345\257\2062\224\301\224"
  77      9613F82E 
  77      E5AF8632 
  77      94C194
  78 01ca 0BA2A53C 		.ascii	"\013\242\245<\211\025\356\005\265\231\177\261\345\365"
  78      8915EE05 
  78      B5997FB1 
ARM GAS  /tmp/cc6maOJ5.s 			page 6


  78      E5F5
  79 01d8 96335B2C 		.ascii	"\2263[,\235-9\252\341^\016\253\006\353\313\213\256w"
  79      9D2D39AA 
  79      E15E0EAB 
  79      06EBCB8B 
  79      AE77
  80 01ea 266CB853 		.ascii	"&l\270Su\310\027K\347\012\225r \257\370\352h\341\320"
  80      75C8174B 
  80      E70A9572 
  80      20AFF8EA 
  80      68E1D0
  81 01fd 31603E64 		.ascii	"1`>d<\3515\375\005\370\003\271`\267\305"
  81      3CE935FD 
  81      05F803B9 
  81      60B7C5
  82              		.text
  83              		.section	.gnu.lto_chIQObjectInit.54745dcc9bc095d5,"",%progbits
  84 0000 789C9593 		.ascii	"x\234\225\223\277O\302@\024\200\337\273Z@\220`tr01q"
  84      BF4FC240 
  84      1480DFBB 
  84      5A409060 
  84      74723031 
  85 0015 D3481363 		.ascii	"\323H\023c\342?\242\211\016\016\3306\264Q R0A\007\212"
  85      E23FA289 
  85      0E0ED836 
  85      B4512052 
  85      3041078A 
  86 0029 B8190CA3 		.ascii	"\270\031\014\243\021\026\006\035\034\324\301\301\201"
  86      1116061D 
  86      1CD4C1C1 
  86      81
  87 0036 81C968FC 		.ascii	"\201\311h\374\021\235u\300\311\301\001\343Dp\300\327"
  87      119D75C0 
  87      C9C101E3 
  87      4470C0D7 
  88 0046 5E318068 		.ascii	"^1\200h\364\222\336{\275\366\373\356\275\364\312\200"
  88      F492DE7B 
  88      BDF6FBEE 
  88      BDF4CA80 
  89 0056 41F718A1 		.ascii	"A\367\030\241k@\000(QD\001\220\345\357\0002\036\206"
  89      6B400028 
  89      51440190 
  89      E5EF0032 
  89      1E86
  90 0068 68258090 		.ascii	"h%\200\220f\230^D\373\335\023V\2516\233\307\357\027"
  90      66985E44 
  90      FBDD1356 
  90      A9369BC7 
  90      EF17
  91 007a 67452CB2 		.ascii	"gE,\262a\304\010\222QGpQ\206^\232\230\217n\321O\231"
  91      61C40892 
  91      51477051 
  91      865E9A98 
  91      8F6ED14F 
  92 008f 10A0A98F 		.ascii	"\020\240\251\217 \021\266M3?\006 \333\2229\232-\363"
  92      2011B64D 
  92      333F0620 
ARM GAS  /tmp/cc6maOJ5.s 			page 7


  92      DB92399A 
  92      2DF3
  93 00a1 3C322B0A 		.ascii	"<2+\012\267\260\325\310\326rR\010K(B\030\331&l\220q"
  93      B7B0D5C8 
  93      D6725208 
  93      4B284218 
  93      D9266C90 
  94 00b6 128E4C1A 		.ascii	"\022\216L\032)\035Y\001\366QG!\214\270@\261\317\256"
  94      291D5901 
  94      F6514721 
  94      8CB840B1 
  94      CFAE
  95 00c8 6419DB5A 		.ascii	"d\031\333Z \305u\271p\363\342\376\332\212'\225\327\335"
  95      20C575B9 
  95      70F3E2FE 
  95      DA8A2795 
  95      D7DD
  96 00da 866F1480 		.ascii	"\206o\024\200\253e\264\031.\256>>\227\247t\024\311\235"
  96      AB65B419 
  96      2EAE3E3E 
  96      97A77414 
  96      C99D
  97 00ec 31CD41DA 		.ascii	"1\315A\332\305\321\203\243G\013;$\314*\311\336\342*"
  97      C5D183A3 
  97      470B3B24 
  97      CC2AC9DE 
  97      E22A
  98 00fe EF0DE101 		.ascii	"\357\015\341\001\2558\245\005~\303\3317\374\374\351"
  98      AD38A505 
  98      7EC3D937 
  98      FCFCE9
  99 010d 2D37C12B 		.ascii	"-7\301+q\004~\035]\275{\023\354h\255\270Z\375\235\327"
  99      71047E1D 
  99      5DBD7B13 
  99      EC68ADB8 
  99      5AFD9DD7 
 100 0121 EA62075D 		.ascii	"\352b\007]\240\247\330\033\3471l\301v\335C\035\340\322"
 100      A0A7D81B 
 100      E7316CC1 
 100      76DD431D 
 100      E0D2
 101 0133 8F9CD8C9 		.ascii	"\217\234\330\311\235z\273\313\375\201s\265s\331\235"
 101      9D7ABBCB 
 101      FD8173B5 
 101      73D99D
 102 0142 EC476EB2 		.ascii	"\354Gn\262\3655}\264\032F/\027\336\273\377(t;B\037\357"
 102      F5357DB4 
 102      1A462F17 
 102      DEBBFF28 
 102      743B421F 
 103 0157 BD5EBB64 		.ascii	"\275^\273d\335\244\2737\351qH?'\367\336\353\330Mzz\223"
 103      DDA4BB37 
 103      E971483F 
 103      27F7DEEB 
 103      D84D7A7A 
 104 016c FD0E1900 		.ascii	"\375\016\031\000x\200L\365j\234s\2551G'\202\216\253"
 104      78804CF5 
ARM GAS  /tmp/cc6maOJ5.s 			page 8


 104      6A9C73AD 
 104      31472782 
 104      8EAB
 105 017e F5FF4C4B 		.ascii	"\365\377LKZ,\242JrLII\212\272.\311\232\276\254\307\014"
 105      5A2CA24A 
 105      724C4949 
 105      8ABA2EC9 
 105      9ABEACC7 
 106 0193 29114F46 		.ascii	")\021OFW$J\342\011\311\210\313\264\276\226T\223\252"
 106      57244AE2 
 106      09C988CB 
 106      B4BE9654 
 106      93AA
 107 01a5 119461E6 		.ascii	"\021\224a\346\017\210\036\225W\223\012\275\244\031\262"
 107      0F881E95 
 107      57930ABD 
 107      A419B2
 108 01b4 A6043598 		.ascii	"\246\0045\230\375\027\224\320\342jH1\210\373\004\317"
 108      FD1794D0 
 108      E26A4831 
 108      88FB04CF 
 109 01c4 C5E8E4   		.ascii	"\305\350\344"
 110              		.text
 111              		.section	.gnu.lto_chIQResetI.54745dcc9bc095d5,"",%progbits
 112 0000 789C7591 		.ascii	"x\234u\221;K\003A\020\307\3773w\361\242 \332\332\011"
 112      3B4B0341 
 112      10C7FF33 
 112      77F1A220 
 112      DADA09
 113 0013 761EB820 		.ascii	"v\036\270 ~\224\010\212\225\271\034\311\"1\344%h\212"
 113      7E94088A 
 113      95B91CC9 
 113      2231E425 
 113      688A
 114 0025 5C7C809D 		.ascii	"\\|\200\235\251\025\004\033\013\013-l,,\202\215X\370"
 114      A915041B 
 114      0B0B2D6C 
 114      2C2C828D 
 114      58F8
 115 0037 EA442CF2 		.ascii	"\352D,\362\005\004K\271\3028\233\273(\011\311\300\316"
 115      05044BB9 
 115      C2389BBB 
 115      2809C9C0 
 115      CE
 116 0048 CC0EF39B 		.ascii	"\314\016\363\233\235\231e0\006eF\316\035\001Kb\311\002"
 116      9D996530 
 116      066546CE 
 116      1D014B62 
 116      C902
 117 005a 71F30968 		.ascii	"q\363\011h$\231\3108 \324\231\352\253\324\315\275\342"
 117      2499C838 
 117      20D499EA 
 117      ABD4CDBD 
 117      E2
 118 006b 56BBD3B9 		.ascii	"V\273\323\271\274\275?\377\240S\036g\312\023,h\202#"
 118      BCBD3FFF 
 118      A0531E67 
ARM GAS  /tmp/cc6maOJ5.s 			page 9


 118      CA132C68 
 118      8223
 119 007d CAA424B0 		.ascii	"\312\244$\260\037\004\315Y\300\353\002)\321\246\312"
 119      1F04CD59 
 119      C0EB0229 
 119      D1A6CA
 120 008c 32B1B1D6 		.ascii	"2\261\261\326#v\337\337\302\266\275Ng\224@\226,\027"
 120      2376DFDF 
 120      C2B6BD4E 
 120      67944096 
 120      2C17
 121 009e F3429FE0 		.ascii	"\363B\237\340\2304q\226xE\254\325}*M\275\006\005z\370"
 121      98347196 
 121      7845ACD5 
 121      7D2A4DBD 
 121      06057AF8 
 122 00b2 9A8A1017 		.ascii	"\232\212\020\027\027\201\310\332H(\242\262\346n\270"
 122      1781C8DA 
 122      4828A2B2 
 122      E66EB8
 123 00c1 E6441F37 		.ascii	"\346D\03779\222\343>\356\346;|\341A\322\036NF\326D\354"
 123      3992E33E 
 123      EEE63B7C 
 123      E141D21E 
 123      4E46D644 
 124 00d6 B8DB70EF 		.ascii	"\270\333p\357\372\310\355\215\350\324\260#\273\211\313"
 124      FAC8ED8D 
 124      E8D4B023 
 124      BB89CB
 125 00e5 14352586 		.ascii	"\0245%\206\227\261\377\177\344\031\007\255\230\007j"
 125      97B1FF7F 
 125      E41907AD 
 125      98076A
 126 00f4 0883C360 		.ascii	"\010\203\303`Z\323\230\3677\234c@\347\247\023\013\325"
 126      5AD398F7 
 126      379C6340 
 126      E7A7130B 
 126      D5
 127 0105 35258157 		.ascii	"5%\201W4\332\237s=.\222\2240\262x3\335\242\312\025\362"
 127      34DA9F73 
 127      3D2E9294 
 127      30B27833 
 127      DDA2CA15 
 128 011a BEF20A99 		.ascii	"\276\362\012\231m\225\361\267\224\227\323i](\253J\251"
 128      6D95F1B7 
 128      9497D369 
 128      5D28AB4A 
 128      A9
 129 012b BAB9A1C4 		.ascii	"\272\271\241\304)UT\271\344I\274X\365\253~y\301\303"
 129      295554B9 
 129      E449BC58 
 129      F5AB7E79 
 129      C1C3
 130 013d 2FA2C57C 		.ascii	"/\242\305|\010"
 130      08
 131              		.text
 132              		.section	.gnu.lto_chIQPutI.54745dcc9bc095d5,"",%progbits
ARM GAS  /tmp/cc6maOJ5.s 			page 10


 133 0000 789C8D54 		.ascii	"x\234\215T\315KTQ\024?\347\276\257\371\236d\374\010"
 133      CD4B5451 
 133      143FE7BE 
 133      AFF99E64 
 133      FC08
 134 0012 DA481085 		.ascii	"\332H\020\205\226S\021A\177B{\007j\025:N\343\243\324"
 134      96531141 
 134      7F427B07 
 134      6A153A4E 
 134      E3A3D4
 135 0025 729CA05C 		.ascii	"r\234\240\\\370\246\261\020j!4E_Dfe\205\224A\213\026"
 135      F8A6B110 
 135      6A213445 
 135      5F446665 
 135      8594418B 
 136 003a 2E062930 		.ascii	".\006)0\354C\011\301\302\205\271\021\"Bh\225\004\323"
 136      EC4309C1 
 136      C285B911 
 136      22426895 
 136      04D3
 137 004c 39F7CE9B 		.ascii	"9\367\316\233\031c\324.\314y\347\336\367\373\375\356"
 137      1963D42E 
 137      CC79E7DE 
 137      F7FBFDEE 
 138 005c F97A2340 		.ascii	"\371z#@\300\277+M?\335\000H\321\023}\200b\370#@\306"
 138      C0BF2B4D 
 138      3FDD0048 
 138      D1137D80 
 138      62F82340 
 139 0071 2384B6E8 		.ascii	"#\204\266\350\007\307\247\277\232\002p\002\2320\206"
 139      07C7A7BF 
 139      9A027002 
 139      9A3086
 140 0080 76F3966D 		.ascii	"v\363\226m@GC\241\014\341\035\326\350\330tf\030e\012"
 140      404743A1 
 140      0CE11DD6 
 140      E8D87466 
 140      18650A
 141 0093 4BA23C12 		.ascii	"K\242<\022e\241G\241<\350U\216\027\221\035@\030\020"
 141      65A147A1 
 141      3CE8558E 
 141      17911D40 
 141      1810
 142 00a5 9A6E9816 		.ascii	"\232n\230\026\235\014\034G\016\003w\302\210\343\014"
 142      9D0C1C47 
 142      0E0377C2 
 142      88E30C
 143 00b4 2FBD5D9E 		.ascii	"/\275]\2362o\345\362\203\367\235?\205\002\242\215\024"
 143      326FE5F2 
 143      83F79D3F 
 143      8502A28D 
 143      14
 144 00c5 F2118438 		.ascii	"\362\021\2048\3021\332`\243|\010}}\016/D~\251P\270\367"
 144      C231DA60 
 144      A37C087D 
 144      7D0E2F44 
 144      7EA950B8 
ARM GAS  /tmp/cc6maOJ5.s 			page 11


 145 00da 72227762 		.ascii	"r\"wbr^\337\216`\243f`\027\202I\236n\261\361\2221\374"
 145      725EDF8E 
 145      60A36660 
 145      1782499E 
 145      6EB1F192 
 146 00f0 748641F6 		.ascii	"t\206A\366Bl\302lj\310\230\021\366j\331\3241\270\036"
 146      426CC26C 
 146      6AC89811 
 146      F66AD9D4 
 146      31B81E
 147 0103 DA708422 		.ascii	"\332p\204\"j\240\215E\372\006\014Rl\215\300a\320j%\313"
 147      6AA08D45 
 147      FA060C52 
 147      6C8DC061 
 147      D06A25CB 
 148 0117 79C450F0 		.ascii	"y\304P\360S\373\000\027\277.>\031\337W\202)'?v\365\246"
 148      53FB0017 
 148      BF2E3E19 
 148      DF578229 
 148      273F76F5 
 149 012c D104A435 		.ascii	"\321\004\2445\212\006Q%7\211\221fx\3468\016e\372]\320"
 149      8A065125 
 149      37899166 
 149      78E6380E 
 149      65FA5DD0 
 150 0140 8577E076 		.ascii	"\205w\340v\306q\266\331\350I\242\301\311yeJ\355\214"
 150      C671B6D9 
 150      E849A2C1 
 150      C979654A 
 150      ED8C
 151 0152 6EC347C4 		.ascii	"n\303G\304\244\3057LD\332\360!m\223X\333\014M\2331\261"
 151      A4C5374C 
 151      44DAF021 
 151      6D9358DB 
 151      0C4D9B31 
 152 0167 82390D6F 		.ascii	"\2029\015oV2s\350R#\304.\327-\206\032,\372e\374\253"
 152      563273E8 
 152      5223C42E 
 152      D72D861A 
 152      2CFA65FC 
 153 017c 3B5C489D 		.ascii	";\\H\235T\367m\250.\326\251\017\376\250P\257c\234\257"
 153      54F76DA8 
 153      2ED6A90F 
 153      FEA850AF 
 153      639CAF
 154 018f B233ADA8 		.ascii	"\2623\255\250\303\203i\320b\364\276X\252\237\331\220"
 154      C38369D0 
 154      62F4BE58 
 154      AA9FD990 
 155 019f 8B6F4862 		.ascii	"\213oHb\275\022\371v\355\362\373vU(:f\031\253,\362\005"
 155      BD12F976 
 155      EDF2FB76 
 155      55283A66 
 155      19AB2CF2 
 156 01b4 EAF984C6 		.ascii	"\352\371\204\306F{\236\273qH\3724\2642\001\023h\364"
 156      467B9EBB 
 156      7148FA34 
ARM GAS  /tmp/cc6maOJ5.s 			page 12


 156      B4320113 
 156      68F4
 157 01c6 640693CB 		.ascii	"d\006\223\313\013O\003\256\204YJ\002\253f\000\252\252"
 157      0B4F03AE 
 157      84594A02 
 157      AB6600AA 
 157      AA
 158 01d7 D9A1EC63 		.ascii	"\331\241\354ct9\026\321d\002\250*~T\275P\355r\202[\310"
 158      743916D1 
 158      6402A82A 
 158      7E54BD50 
 158      ED72825B 
 159 01ec 25396252 		.ascii	"%9bR\274\222\375\225\333\343Jz\251\342r`\253J\206U\023"
 159      BC92FD95 
 159      DBE34A7A 
 159      A9E27260 
 159      AB4A8655 
 160 0201 AB484251 		.ascii	"\253HBQ\322+Y3\253>\305S=q,\033\375Ea\243\010\364\253"
 160      D22B5933 
 160      AB3EC553 
 160      3D712C1B 
 160      FD4561A3 
 161 0218 19793D36 		.ascii	"\031y=6WJ'X\232\222\015/P\244\331\220K\011mF\321\212"
 161      574A2758 
 161      9A920D2F 
 161      50A4D990 
 161      4B096D46 
 162 022e 146AD74A 		.ascii	"\024j\327J&X\272\205X\225\003eA~\227l\307\302\330o\341"
 162      2658BA85 
 162      58950365 
 162      417E976C 
 162      C7C2D86F 
 163 0243 82C29BE9 		.ascii	"\202\302\233\351\352\345P\336\315\372\326\025\350\300"
 163      EAE550DE 
 163      CDFAD615 
 163      E8C0
 164 0251 96050ABB 		.ascii	"\226\005\012\273\367z\3349X\313\216^\337\353^\\\323"
 164      F77ADC39 
 164      58CB8E5E 
 164      DFEB5E5C 
 164      D3
 165 0262 0F176C1E 		.ascii	"\017\027l\036\006)\227\2621P]\316(\247\360\011.\345"
 165      062997B2 
 165      31505DCE 
 165      28A7F009 
 165      2EE5
 166 0274 8B7C807E 		.ascii	"\213|\200~Xs\206\370#\010\306Km\256a\"\025\303v\023"
 166      587386F8 
 166      2308C64B 
 166      6DAE6122 
 166      15C37613 
 167 0288 8F910CCF 		.ascii	"\217\221\014\317\366\034\375\3031\000\325\314\242\304"
 167      F61CFDC3 
 167      3100D5CC 
 167      A2C4
 168 0296 D1BF985A 		.ascii	"\321\277\230Z8`\334\375\\[\344z\306\347\003\374q \023"
 168      3860DCFD 
ARM GAS  /tmp/cc6maOJ5.s 			page 13


 168      5C5BE47A 
 168      C6E703FC 
 168      712013
 169 02a9 59F870B4 		.ascii	"Y\370p\264\263\247+\021\215\367t\234\217v$\316E\343"
 169      B3A72B11 
 169      8DF7749C 
 169      8F7624CE 
 169      45E3
 170 02bb 9D76BBDD 		.ascii	"\235v\273\335\223\212\366\365\246\273OE\311\351\355"
 170      938AF6F5 
 170      A6BB4F45 
 170      C9E9ED
 171 02ca 8BDADDF1 		.ascii	"\213\332\335\361\323\351\016\002u\236M'\322\211TK'X"
 171      D3E90E02 
 171      759E4D27 
 171      D289544B 
 171      2758
 172 02dc F6C9BEAE 		.ascii	"\366\311\276\2563-\373\017\376\007=\325\033/S\343\360"
 172      332DFB0F 
 172      FE073DD5 
 172      1B2F53E3 
 172      F0
 173 02ed 1767A248 		.ascii	"\027g\242H\265"
 173      B5
 174              		.text
 175              		.section	.gnu.lto_chIQGetTimeout.54745dcc9bc095d5,"",%progbits
 176 0000 789C8D54 		.ascii	"x\234\215T]H\024Q\024>\347\316\316\316\354\354\230\177"
 176      5D481451 
 176      143EE7CE 
 176      CECEECEC 
 176      987F
 177 0012 A14B452D 		.ascii	"\241KE-AD\031N\005\345\253\021\004B\275dB=\305:.\353"
 177      4144194E 
 177      05E5AB11 
 177      0442BD64 
 177      423DC53A 
 178 0028 50ABB5EB 		.ascii	"P\253\265\353FV\340\254\253`D`\021\031\375@\021A\024"
 178      4656E0AC 
 178      AB604460 
 178      1119FD40 
 178      114114
 179 003b 181444F4 		.ascii	"\030\024D\364 \366#f\226eOi\177\206\224=H\024\364P\026"
 179      20F62366 
 179      96654F69 
 179      7F86943D 
 179      4814F450 
 180 0050 4CE7CEEC 		.ascii	"L\347\316\354\214\253\211va\316\3349\347;\347\236\363"
 180      8CAB8976 
 180      61CEDC39 
 180      E73BE79E 
 180      F3
 181 0061 9D738701 		.ascii	"\235s\207\001\203\331\353\024=\347E\200.zc\036 \353"
 181      83D9EB14 
 181      3DE74580 
 181      2E7A631E 
 181      20EB
 182 0073 1C0248CB 		.ascii	"\034\002H\313\214\011\375\233\301T\374\003\245`\252"
ARM GAS  /tmp/cc6maOJ5.s 			page 14


 182      8C09FD9B 
 182      C154FC03 
 182      A560AA
 183 0082 02FA1DB5 		.ascii	"\002\372\035\265\217\211\017\005R\253CO\201\364*J\\"
 183      8F890F05 
 183      52AB434F 
 183      81F42A4A 
 183      5C
 184 0093 BF45C4A0 		.ascii	"\277E\304\240c\367;\012\224\230\317F(2\207\2532\013"
 184      63F73B0A 
 184      9498CF46 
 184      283287AB 
 184      320B
 185 00a5 74ACA62F 		.ascii	"t\254\246/\205K5\200\212\203V\\\267 \"\337\000B\013"
 185      854B3580 
 185      8A83565C 
 185      B72022DF 
 185      00420B
 186 00b8 137CAAE8 		.ascii	"\023|\252\350\227\344\200\022\304\226=\310Sd+\341\212"
 186      97E48012 
 186      C4963DC8 
 186      53642BE1 
 186      8A
 187 00c9 699E1EEB 		.ascii	"i\236\036\353\273;\202]fo\372\262\371\307\262\020\015"
 187      BB3B825D 
 187      666FFAB2 
 187      F9C7B210 
 187      0D
 188 00da A4723621 		.ascii	"\244r6!\350\010\273\351\003e\373\305pf}\266og\357\253"
 188      E808BBE9 
 188      0365FBC5 
 188      70667DB6 
 188      6F67EFAB 
 189 00ee 41B533DD 		.ascii	"A\2653\335aZV\213\201\002\203\212i\267\260\343\346\233"
 189      615A568B 
 189      8102838A 
 189      69B7B0E3 
 189      E69B
 190 0100 E9768BF5 		.ascii	"\351v\213\365\216Y\326\3057_\306-,Z\201@^\022\306\021"
 190      8E59D6C5 
 190      375FC62D 
 190      2C5A8140 
 190      5E12C611 
 191 0114 64DAF914 		.ascii	"d\332\371\024\022b\220\204_%\035.\202\010^\305\225P"
 191      12629084 
 191      5F251D2E 
 191      82085EC5 
 191      9550
 192 0126 C8D5C524 		.ascii	"\310\325\305$\244\305\\\224\220\372\012\251K\371G\210"
 192      A4C55C94 
 192      90FA0AA9 
 192      4BF94788 
 193 0136 8BA53C0C 		.ascii	"\213\245<\014\005\027\241\215r\012;f\340\231\320\332"
 193      0517A18D 
 193      720A3B66 
 193      E099D0DA 
 194 0146 45F29B1F 		.ascii	"E\362\233\037j\220\321K\030\202\326\357\277\317\214"
ARM GAS  /tmp/cc6maOJ5.s 			page 15


 194      6A90D14B 
 194      1882D6EF 
 194      BFCF8C
 195 0155 87B250A0 		.ascii	"\207\262P\240X\327P\004\233#\204c\002\357\244\340\264"
 195      58D75004 
 195      9B238463 
 195      02EFA4E0 
 195      B4
 196 0166 73399CC4 		.ascii	"s9\234\304K\346\271J\203\030\240\305\253\011\204\371"
 196      4BE6B94A 
 196      8318A0C5 
 196      AB0984F9 
 197 0176 CEB37766 		.ascii	"\316\263wf\355\212S\333sh\035}\373\343\354\022'd\014"
 197      ED8A53DB 
 197      73681D7D 
 197      FBE3EC12 
 197      27640C
 198 0189 E532586B 		.ascii	"\3452Xk`\360\002\234'W5\206\022\017\221gCk=6\237@\333"
 198      60F0029C 
 198      27573586 
 198      120F9167 
 198      436B3D36 
 199 01a0 643ACF73 		.ascii	"d:\317s\341\220`.a5T\331g\237\360\002\332\306\336\367"
 199      E190602E 
 199      613554D9 
 199      679FF002 
 199      DAC6DEF7 
 200 01b4 296EB631 		.ascii	")n\2661\236\023E4\210\244,\314\0074\031\002\3450\225"
 200      9E134534 
 200      88A42CCC 
 200      07341902 
 200      E53095
 201 01c7 B9D9B5DD 		.ascii	"\271\331\265\335\243\342\252M\205We\014\203G\341\010"
 201      A3E2AA4D 
 201      8557650C 
 201      8347E108 
 202 01d7 315C0637 		.ascii	"1\\\0067LZw\350\274\374\2713\314i\370\013h\357\015E"
 202      4C5A77E8 
 202      BCFCB933 
 202      CC69F80B 
 202      68EF0D45 
 203 01eb B0DBCE71 		.ascii	"\260\333\316q\321Q\2302;\314\002\003\013\364,\210\242"
 203      D1519832 
 203      3BCC0203 
 203      0BF42C88 
 203      A2
 204 01fc C65035B0 		.ascii	"\306P5\260\220\327\363\370\023zP\036\257(\267\234]\250"
 204      90D7F3F8 
 204      137A501E 
 204      AF28B79C 
 204      5DA8
 205 020e C2E57EC0 		.ascii	"\302\345~\300\032\262w\013s\265\243{v;\"x\2358\260\351"
 205      1AB2770B 
 205      73B5A37B 
 205      763B2278 
 205      9D38B0E9 
 206 0222 871CFA23 		.ascii	"\207\034\372#x\023\227\347\362\344\347\375u\266\022"
ARM GAS  /tmp/cc6maOJ5.s 			page 16


 206      781397E7 
 206      F2E4E7FD 
 206      75B612
 207 0231 D0D82371 		.ascii	"\320\330#qq\277op\362U\200'\2508E\026\273E\312.\375"
 207      71BF6F70 
 207      F2558027 
 207      A8384516 
 207      BB45CA2E 
 208 0246 8F271E0C 		.ascii	"\217'\036\014\017\252n\003\024n,\236\331\000\031\036"
 208      0FAA6E03 
 208      146E2C9E 
 208      D900191E 
 209 0256 0A446CA6 		.ascii	"\012Dl\246#3\336\265\306\005\026\272X\213V\276\323\375"
 209      2333DEB5 
 209      C60516BA 
 209      588B56BE 
 209      D3FD
 210 0268 2AC798A5 		.ascii	"*\307\230\2456\217\214s3\313\262\244\025:3s\257g\004"
 210      368F8C73 
 210      33CBB2A4 
 210      153A3373 
 210      AF6704
 211 027b DDB0C5F6 		.ascii	"\335\260\305\366\314Hs\373\011\340\016Z\346D\346\266"
 211      CC4873FB 
 211      09E00E5A 
 211      E644E6B6 
 212 028b E7B398DC 		.ascii	"\347\263\230\334\274+\372O\032\025\013\204#\177\333"
 212      BC2BFA4F 
 212      1A150B84 
 212      237FDB
 213 029a EB7E7B89 		.ascii	"\353~{\211\033\260\204\360ir\315\247_A6\266\344\035"
 213      1BB084F0 
 213      6972CDA7 
 213      5F4136B6 
 213      E41D
 214 02ac DD3AFABA 		.ascii	"\335:\372\272gXp\241\245\363\345\353\336}\232\361\211"
 214      675870A1 
 214      A5F3E5EB 
 214      DE7D9AF1 
 214      89
 215 02bd E919A774 		.ascii	"\351\031\247tKs\351\015\300G\344s;\372\263\347\027s"
 215      4B73E90D 
 215      C047E473 
 215      3BFAB3E7 
 215      1773
 216 02cf 41A1F9E2 		.ascii	"A\241\371\342\212\323\311\014\274TfT\273a\301jC\356"
 216      8AD3C90C 
 216      BC546654 
 216      BB61C16A 
 216      43EE
 217 02e1 B90A6FEB 		.ascii	"\271\012o\353\377\374\017\026\036@J\344\353\243\343"
 217      FFFC0F16 
 217      1E404AE4 
 217      EBA3E3
 218 02f0 9697FD52 		.ascii	"\226\227\375R\342\320=&\310\307r\230~\306\374p\373\272"
 218      E2D03D26 
 218      C8C77298 
ARM GAS  /tmp/cc6maOJ5.s 			page 17


 218      7EC6FC70 
 218      FBBA
 219 0302 8C00D2D5 		.ascii	"\214\000\322\325\020\237\275[FHe\362\203\312\257\005"
 219      109FBD5B 
 219      464865F2 
 219      83CAAF05 
 220 0312 128C87DD 		.ascii	"\022\214\207\335\250\3257\306\243\232\336X\327\254\325"
 220      A8D537C6 
 220      A39ADE58 
 220      D7ACD5
 221 0321 450F697A 		.ascii	"E\017iz\275Qk4&\265\246D\252a\237F\233D\223\226L\350"
 221      BD516B34 
 221      26B5A644 
 221      AA619F46 
 221      9B449396 
 222 0337 A43F988A 		.ascii	"\244?\230\212\246\242\311r\035\260V\210'c\225\0139F"
 222      A6A2C972 
 222      1DB05688 
 222      2763950B 
 222      3946
 223 0349 0F37695B 		.ascii	"\0177i[wTWUkF\203\276?U\307\261\211\350^=\276-\325\240"
 223      77545755 
 223      6B4683BE 
 223      3F55C7B1 
 223      89E85E3D 
 224 0361 97D743C1 		.ascii	"\227\327C\301\216\352\235\341\332H2z a\254\013\257Z"
 224      8EEA9DE1 
 224      DA48327A 
 224      2061AC0B 
 224      AF5A
 225 0373 0F2C0152 		.ascii	"\017,\001R<\032oL4\303_\020Li\354"
 225      3C1A6F4C 
 225      34C35F10 
 225      4C69EC
 226              		.text
 227              		.section	.gnu.lto_chIQReadTimeout.54745dcc9bc095d5,"",%progbits
 228 0000 789CAD55 		.ascii	"x\234\255U]h\034U\024>\347\336\375\235\237\315&\026"
 228      5D681C55 
 228      143EE7DE 
 228      FD9D9FCD 
 228      2616
 229 0012 92B436DD 		.ascii	"\222\2646\335\224,\202\221\256\025\"\370dE\020\372\320"
 229      942C8291 
 229      AE1522F8 
 229      644510FA 
 229      D0
 230 0023 17D3803E 		.ascii	"\027\323\200>\210l&\353d\320Mt\223-\306(\235\354\246"
 230      886C26EB 
 230      64D04D74 
 230      932DC628 
 230      9DECA6
 231 0036 10289545 		.ascii	"\020(\225E\004\255\305\232\"\202\324\332\366\301\247"
 231      04ADC59A 
 231      2282D4DA 
 231      F6C1A7
 232 0045 FA92544B 		.ascii	"\372\222TK\032\333&\024|0\301\207\204\242E\021\251\226"
 232      1ADB2614 
ARM GAS  /tmp/cc6maOJ5.s 			page 18


 232      7C30C187 
 232      84A24511 
 232      A996
 233 0057 925AADEB 		.ascii	"\222Z\255\3539sg6\033Y\232\"\016\354\235{\3579\347;"
 233      39736736 
 233      1B599A22 
 233      0EEC9D7B 
 233      EF39E73B 
 234 006b DFF9EEB9 		.ascii	"\337\371\356\271\263\002\004\374\373\371\214~z\024\340"
 234      B30204FC 
 234      FBF98C7E 
 234      7A14E0
 235 007a 3D7A6313 		.ascii	"=zc\023\240\250,\000L\304\004J5\221\"4\3678\270Zt\276"
 235      A0A82C00 
 235      4CC4044A 
 235      35912234 
 235      F738B85A 
 236 0090 155C2384 		.ascii	"\025\\#\204Q\265\035\026\221\363\222\266\023\013\337"
 236      51B51D16 
 236      91F392B6 
 236      130BDF
 237 009f 00ED2730 		.ascii	"\000\355'0\306\373OE\320T\366\250\332\300\230\010{\036"
 237      C6FB4F45 
 237      D054F6A8 
 237      DAC09808 
 237      7B1E
 238 00b1 5A9CDD8D 		.ascii	"Z\234\335\215\270\320\246\036\242\225\316\243\241\241"
 238      B8D0A61E 
 238      A295CEA3 
 238      A1A1
 239 00bf AEBC7561 		.ascii	"\256\274uazh\206B3T\362\331\230\211\310\023@8(d(\234"
 239      7A688642 
 239      3354F2D9 
 239      9889C813 
 239      40382864 
 240 00d5 88446371 		.ascii	"\210DcqM7L<\370<2y\261\023N\270\356;+?\374\372\023\036"
 240      4D374C3C 
 240      F83C3279 
 240      B1134EB8 
 240      EE3B2B3F 
 241 00ed 756726A7 		.ascii	"ug&\247\335\277\252UD\007\251\320\036\004\013\3419Z"
 241      DDBFAA55 
 241      4407A9D0 
 241      1E040BE1 
 241      395A
 242 00ff 60CA7B89 		.ascii	"`\312{\211\320\306\312U\354\314\037o\037iw\247K\025"
 242      D0C6CA55 
 242      ECCC1F6F 
 242      1F6977A7 
 242      4B15
 243 0111 F76F0A75 		.ascii	"\367o\012uP\012xb\263\3103bf\245Z=\265\366\351\265\333"
 243      500A7862 
 243      B3C83362 
 243      66A55A3D 
 243      B5F6E9B5 
 244 0126 F8403742 		.ascii	"\370@7B\236\363\345\021%d\361c\334\011!\377\255a\036"
 244      9EF3E511 
ARM GAS  /tmp/cc6maOJ5.s 			page 19


 244      2564F163 
 244      DC0921FF 
 244      AD611E
 245 0139 854E8B13 		.ascii	"\205N\213\023\2640i\001\011\0320\011\016\206\232i\010"
 245      B4306901 
 245      091A3009 
 245      0E869A69 
 245      08
 246 014a B7D0526E 		.ascii	"\267\320Rn\241Y\244\225\367\332\031i+\315\242\333x\330"
 246      A159A495 
 246      F7DA1969 
 246      2BCDA2DB 
 246      78D8
 247 015c 4E436C07 		.ascii	"NCl\007\317R<t\362\320\345C\2479\037Q\011\303\244\353"
 247      CF523C74 
 247      F2D0E543 
 247      A7391F51 
 247      09C3A4EB 
 248 0170 56522A85 		.ascii	"VR*\2052\001\263\247g?\215\244j\037\012z\311+PZ\276"
 248      3201B3A7 
 248      673F8DA4 
 248      6A1F0A7A 
 248      C92B505A 
 249 0185 4D3265F1 		.ascii	"M2e\361\023\014\203\215z7\234t\351y\201\304:\006\037"
 249      130C838D 
 249      7A379C74 
 249      E97981C4 
 249      3A061F
 250 0198 5095711B 		.ascii	"P\225q\0335\256V\363j\354\307\240\332\005(\375\366\347"
 250      35AE56F3 
 250      6AECC7A0 
 250      DA0528FD 
 250      F6E7
 251 01aa BBD7DAFC 		.ascii	"\273\327\332\374T\000\012\302;\026\2047%7\225T\235\325"
 251      54000AC2 
 251      3B168437 
 251      25379554 
 251      9DD5
 252 01bc 0147F043 		.ascii	"\001G\360C\367\375=\016\352\274d4#\305\263\232\275\342"
 252      F7FD3D0E 
 252      EABC6434 
 252      23C5B39A 
 252      BDE2
 253 01ce DBCD7535 		.ascii	"\333\315u5\373H\267\033\021y\021&\177Y\275\360\373\354"
 253      FB48B71B 
 253      11791126 
 253      7F59BDF0 
 253      FBEC
 254 01e0 3A430EAF 		.ascii	":C\016\257S}\011\320FS\320\320n|;\276\004\302\306\004"
 254      537D09D0 
 254      4653D0D0 
 254      6E7C3BBE 
 254      04C2C604 
 255 01f4 AFD2C617 		.ascii	"\257\322\306\027o-\201doI-qym\320\306.\343\324\3356"
 255      6F2D8164 
 255      6F492D71 
 255      796DD0C6 
ARM GAS  /tmp/cc6maOJ5.s 			page 20


 255      2EE3D4DD 
 256 0209 860EC18F 		.ascii	"\206\016\301\217!\271\010\223+\227\346\"\001o\233\331"
 256      21B90893 
 256      2B97E622 
 256      016F9BD9 
 257 0219 51B10E26 		.ascii	"Q\261\016&\002\006a\240\316c\215\356\224\277<\376d\300"
 257      020661A0 
 257      CE638DEE 
 257      94BF3CFE 
 257      64C0
 258 022b A0791CDE 		.ascii	"\240y\034\336\240S\362\225:J\011\232\032KUGs\021\016"
 258      A053F295 
 258      3A4A099A 
 258      1A4B5547 
 258      73110E
 259 023e CDD400B6 		.ascii	"\315\324\000\266\214\303\035w\312M:\230\264|'B\265\261"
 259      8CC31D77 
 259      CA4D3A98 
 259      B47C2742 
 259      B5B1
 260 0250 C5C16600 		.ascii	"\305\301f\000\256x\242\247\346\313\200\221\3726\333"
 260      AE78A2A7 
 260      E6CB8091 
 260      FA36DB
 261 025f 4FFCA6E7 		.ascii	"O\374\246\347\000\373h\373\264\224\367s\016Y<I\"x\272"
 261      00FB68FB 
 261      B494F773 
 261      0E593C49 
 261      2278BA
 262 0272 439DEE59 		.ascii	"C\235\356Y\374\034;\352\025\217\262\342j\032\003\272"
 262      FC1C3BEA 
 262      158FB2E2 
 262      6A1A03BA 
 263 0282 6248A59F 		.ascii	"bH\245\237\273p\351\373\233qf\230TU\312\240\312\230"
 263      BB70E9FB 
 263      9B716698 
 263      5455CAA0 
 263      CA98
 264 0294 0ABB085F 		.ascii	"\012\273\010__\237=\266h\006\214\223\276\344\365\300"
 264      5F9F3DB6 
 264      68068C93 
 264      BEE4F5C0 
 265 02a4 71D56BE5 		.ascii	"q\325k\345\251\362\315\343\335\201ck\340[\245\247\211"
 265      A9F2CDE3 
 265      DD81636B 
 265      E05BA5A7 
 265      89
 266 02b5 FC28DB5E 		.ascii	"\374(\333^e\364\265\335M\306\306\322\012_\265V\216*"
 266      65F4B5DD 
 266      4DC6C6D2 
 266      0A5FB556 
 266      8E2A
 267 02c7 1F2EDFEA 		.ascii	"\037.\337\352\010P\333mD\357v\242B\\>\253\005\246\255"
 267      0850DB6D 
 267      44EF76A2 
 267      425C3EAB 
 267      05A6AD
ARM GAS  /tmp/cc6maOJ5.s 			page 21


 268 02da DDF0305D 		.ascii	"\335\3600]\226\306\210\001c\017\356\347Z\273m\243\260"
 268      96C68801 
 268      630FEEE7 
 268      5ABB6DA3 
 268      B0
 269 02eb 7AB88D04 		.ascii	"z\270\215\004{7\201\243x/\352\334\241\003\001\340v\345"
 269      7B3781A3 
 269      782FEADC 
 269      A10301E0 
 269      76E5
 270 02fd DFE2E346 		.ascii	"\337\342\343FkiK\3637\374^$\217\011\002\327=/\\\367"
 270      6B694BF3 
 270      37FC5E24 
 270      8F0902D7 
 270      3D2F5CF7 
 271 0311 A26055D2 		.ascii	"\242`U\322wk\2535\202;\356\257\250\322r\245)\010I\335"
 271      776BAB35 
 271      823BEEAF 
 271      A8D272A5 
 271      290849DD 
 272 0325 2B24F8A8 		.ascii	"+$\370\250Q\033^\237\330]\313BQ\365\007\252\301*\252"
 272      511B5E9F 
 272      D85DCB42 
 272      51F507AA 
 272      C12AAA
 273 0338 8FC7DABC 		.ascii	"\217\307\332\274\014\234:\357\205\033\256+\264\242o"
 273      0C9C3AEF 
 273      851BAE2B 
 273      B4A26F
 274 0347 50B16753 		.ascii	"P\261gS\025;\203\274:7\322\377\323\362\334\216_\035"
 274      153B83BC 
 274      3A37D2FF 
 274      D3F2DC8E 
 274      5F1D
 275 0359 BE6505EC 		.ascii	"\276e\005\354\273lT_\013\364\215\3453\037\265\005\306"
 275      BB6C545F 
 275      0BF48DE5 
 275      331FB505 
 275      C6
 276 036a B48D6243 		.ascii	"\264\215bC\257r\327\327\316 \335\240\345\215\377p9S"
 276      AF72D7D7 
 276      CE20DDA0 
 276      E58DFF70 
 276      3953
 277 037c 8D992A40 		.ascii	"\215\231*@\223K\277J\177\213,\210wJK\020\"\316\221\323"
 277      934BBF4A 
 277      7F8B2C88 
 277      774A4B10 
 277      22CE91D3 
 278 0390 67170DA2 		.ascii	"g\027\015\242\257_\276\373 \177\035\220\374\030\341"
 278      AF5FBEFB 
 278      207F1D90 
 278      FC18E1
 279 039f B1CCE070 		.ascii	"\261\314\340p>\227\261\206\007\3062\003\271\003\031"
 279      3E97B186 
 279      07C63203 
 279      B90319
ARM GAS  /tmp/cc6maOJ5.s 			page 22


 280 03ae 6BD0E977 		.ascii	"k\320\351w\206G2\243\205\342\320\313\031\232\024F3#"
 280      864732A3 
 280      85E2D0CB 
 280      199A1446 
 280      3323
 281 03c0 058BF65F 		.ascii	"\005\213\366_+\346\212\271\221]\026\310\241\227\306"
 281      2BE68AB9 
 281      915D16C8 
 281      A197C6
 282 03cf B0B067B3 		.ascii	"\260\260g\263\300\334\353\243\231\247\367\365\356\355"
 282      C0DCEBA3 
 282      99A7F7F5 
 282      EEED
 283 03dd CD3843D6 		.ascii	"\3158C\326+\305\001\366-\344^\264\362\317\024\207\254"
 283      2BC501F6 
 283      2DE45EB4 
 283      F2CF1487 
 283      AC
 284 03ee 5D8390DC 		.ascii	"]\203\220\334\327\373l\252?;\222{\265\340<\222J?\012"
 284      D7FB6CAA 
 284      3F3B927B 
 284      B5E03C92 
 284      4A3F0A
 285 0401 A200D17C 		.ascii	"\242\000\321|.?\\\030\203\177\000\0327\273\377"
 285      2E3F5C18 
 285      837F001A 
 285      37BBFF
 286              		.text
 287              		.section	.gnu.lto_chOQObjectInit.54745dcc9bc095d5,"",%progbits
 288 0000 789C9593 		.ascii	"x\234\225\2231K\303@\024\200\337\2734\246\266\224\212"
 288      314BC340 
 288      1480DFBB 
 288      34A6B694 
 288      8A
 289 0011 4E0E82AB 		.ascii	"N\016\202\253\026\033\020\301?\242\240\203CMB\023\264"
 289      161B10C1 
 289      3FA2A083 
 289      434D4213 
 289      B4
 290 0022 2D36ADA0 		.ascii	"-6\255\240\016M\255\233 \235\355T\254\012\025\324A\304"
 290      0E4DAD9B 
 290      209DED54 
 290      AC0A15D4 
 290      41C4
 291 0034 A183ABAD 		.ascii	"\241\203\253\255\212:\011:\324\311\301\037`\351\242"
 291      8A3A093A 
 291      D4C9C11F 
 291      60E9A2
 292 0043 2FC955DA 		.ascii	"/\311U\332ZE\017r\357\345\270\357\273\367\310\205\001"
 292      5A450F72 
 292      EFE5B8EF 
 292      BBF7C885 
 292      01
 293 0054 83EE314C 		.ascii	"\203\3561L\217W\000(RD\001\220\345o\001\262^\206h'\200"
 293      8F570028 
 293      52440190 
 293      E56F01B2 
ARM GAS  /tmp/cc6maOJ5.s 			page 23


 293      5E866827 
 294 0069 90619899 		.ascii	"\220a\230\231Gg\357\011\273\254\177|\034\237?\234U\260"
 294      4767EF09 
 294      BBAC7F7C 
 294      1C9F3F9C 
 294      55B0
 295 007b CA861063 		.ascii	"\312\206\020cHF\003A\244\014%\232\230\237^1@\231\020"
 295      48460341 
 295      A40C259A 
 295      989F5E31 
 295      409910
 296 008e A4C94390 		.ascii	"\244\311C\220\010[\226\225\037\005P\034\311\014\315"
 296      085B9695 
 296      1F05501C 
 296      C90CCD
 297 009d B6791699 		.ascii	"\266y\026\231\035\205\033\330l\346\336Kr\004\213(B\024"
 297      1D851BD8 
 297      6CE6DE4B 
 297      72048B28 
 297      4214
 298 00af D906AC93 		.ascii	"\331\006\254\2231\004e\213\306\232\201\254\000\273h"
 298      3104658B 
 298      C69A81AC 
 298      00BB68
 299 00be A010459C 		.ascii	"\240\020E\234\243\350q*Y\304\266\026HQ\253\024\256_"
 299      A3E8712A 
 299      59C4B616 
 299      4851AB14 
 299      AE5F
 300 00d0 A5AFA3DC 		.ascii	"\245\257\243\334\344\362m\247\351\037\001p\325\012:"
 300      E4F26DA7 
 300      E91F0170 
 300      D50A3A
 301 00df 8C2BAE3F 		.ascii	"\214+\256?\275T&\014\024\311\235\265\254\001:\205\353"
 301      BD54260C 
 301      14C99DB5 
 301      AC013A85 
 301      EB
 302 00f0 81EBD1C6 		.ascii	"\201\353\321\306\016\010\263Kr\216\270\312\373\"\270"
 302      0E08B34B 
 302      728EB8CA 
 302      FB22B8
 303 00ff 4F2BBCB4 		.ascii	"O+\274\264\340o8\373\206\327\236\033\245q\267\022.\010"
 303      E06F38FB 
 303      86D79E1B 
 303      A571B712 
 303      2E08
 304 0111 18D8D7BB 		.ascii	"\030\330\327\2737\301\211Q\033\267\311\306aS\354 \013"
 304      37C18951 
 304      1BB7C9C6 
 304      6153EC20 
 304      0B
 305 0122 B4177BA3 		.ascii	"\264\027{\243\036\216J\274\346\301\016p\341GN\354\344"
 305      1E8E4ABC 
 305      E6C10E70 
 305      E1474EEC 
 305      E4
ARM GAS  /tmp/cc6maOJ5.s 			page 24


 306 0133 4E7DDDA5 		.ascii	"N}\335\245\376\300\365\265s\271\355\334\336~\250\365"
 306      FEC0F5B5 
 306      73B9EDDC 
 306      DE7EA8F5 
 307 0143 25FDB4DA 		.ascii	"%\375\264\332\352\341\352N\372\243P\342B\277\333\373"
 307      EAE1EA4E 
 307      FAA350E2 
 307      42BFDBFB 
 308 0153 45B9CABA 		.ascii	"E\271\312\272I\2517\351\345d\300%\037\313M\354&\275"
 308      49A937E9 
 308      E564C025 
 308      1FCB4DEC 
 308      26BD
 309 0165 BDC97E4E 		.ascii	"\275\311~N\006\001\356![?\032s\271\326\230\241\333@"
 309      0601EE21 
 309      5B3F1A73 
 309      B9D698A1 
 309      DB40
 310 0177 57D5FE77 		.ascii	"W\325\376w&e=\021\323d%\241\256\311\252\266*+\272\261"
 310      26653D11 
 310      D36425A1 
 310      AEC9AAB6 
 310      2A2BBAB1 
 311 018b 68244C39 		.ascii	"h$L9\225L\307\227dJ\222)\331L*\264\276\222\326\322\232"
 311      954CC797 
 311      644A9229 
 311      D94C2AB4 
 311      BE92D6D2 
 312 01a0 195660EA 		.ascii	"\031V`\352\017\210\021W\226\323*m\322MEW\303:L\377\013"
 312      0F881157 
 312      96D32A6D 
 312      D24D4557 
 312      C33A4CFF 
 313 01b5 4AE9492D 		.ascii	"J\351I-\242\232\304}\002\247\032\350\007"
 313      A29AC47D 
 313      02A71AE8 
 313      07
 314              		.text
 315              		.section	.gnu.lto_chOQResetI.54745dcc9bc095d5,"",%progbits
 316 0000 789C7D92 		.ascii	"x\234}\222\273K\003A\020\306gvs\311\345\210\217\326"
 316      BB4B0341 
 316      10C66776 
 316      73C9E588 
 316      8FD6
 317 0012 CE56032E 		.ascii	"\316V\003.\210\177J\004\203\225\271\034\311\"1\344%"
 317      887F4A04 
 317      8395B91C 
 317      C92231E4 
 317      25
 318 0023 688A5C8C 		.ascii	"h\212\\\214\202v\0076\242\225\215\202\205\026i\004\233"
 318      82760736 
 318      A2958D82 
 318      85166904 
 318      9B
 319 0034 B4821A6D 		.ascii	"\264\202\032mS\205\264\202X\0071\316\336#!\2328p\337"
 319      5385B482 
 319      580731CE 
ARM GAS  /tmp/cc6maOJ5.s 			page 25


 319      DE23219A 
 319      3870DF
 320 0047 2E73F3FB 		.ascii	".s\363\373\366c\357\0300\370]\013\364$\251\275F+r@\346"
 320      F663EF18 
 320      30F85D0B 
 320      F424A9BD 
 320      462B7240 
 321 005c BC00D475 		.ascii	"\274\000\324u\206\2506\200PcXK\242;{\307Z\335\301\340"
 321      86A83680 
 321      5063584B 
 321      A23B7BC7 
 321      5ADDC1E0 
 322 0070 D639BDFE 		.ascii	"\3269\275\376\302'6\3130\207\300A\"\204\225DHPW\022"
 322      C22736CB 
 322      3087C041 
 322      22849544 
 322      48505712 
 323 0084 556290B0 		.ascii	"Ub\220\260\030\011'R\203C\333v\026\001L\327)A\252\354"
 323      18092752 
 323      8343DB76 
 323      16014CD7 
 323      2941AAEC 
 324 0098 D791A995 		.ascii	"\327\221\251\225?\303A\347\254\331\013m\341%j\220A\036"
 324      3FC341E7 
 324      ACD90B6D 
 324      E1256A90 
 324      411E
 325 00aa 876572BC 		.ascii	"\207er\274\200s\224\030\312 \333\240Us3\2440HN\320\343"
 325      80739418 
 325      CA20DBA0 
 325      557333A4 
 325      30484ED0 
 326 00bf E79C87C4 		.ascii	"\347\234\207\304\341\306\246\332\234\012yTF\205Q\234"
 326      E1C6A6DA 
 326      9C0A7954 
 326      4685519C 
 327 00cf 638C7133 		.ascii	"c\214q3S96\306u\356\233=\026\204\014\377\027\222\217"
 327      533936C6 
 327      75EE9B3D 
 327      16840CFF 
 327      17928F
 328 00e2 42BEF380 		.ascii	"B\276\363\200\210\020\364\253\245\373\326\215\223a+"
 328      8810F4AB 
 328      A5FBD68D 
 328      93612B
 329 00f1 EA0EEAEE 		.ascii	"\352\016\352\356\340\307\260k\320\013/\373\353\237\354"
 329      E0C7B06B 
 329      D00B2FFB 
 329      EB9FEC
 330 0100 E1C91942 		.ascii	"\341\311\031B~v\303\345\372\215\207\253x\340\026\253"
 330      7E76C3E5 
 330      FA8D87AB 
 330      78E016AB 
 331 0110 C2BE54D7 		.ascii	"\302\276T\327\354Z\024$F&[h\243\037\245\015G-\237\007"
 331      EC5A1424 
 331      46265B68 
 331      A31FA50D 
ARM GAS  /tmp/cc6maOJ5.s 			page 26


 331      472D9F07 
 332 0124 A842DF3E 		.ascii	"\250B\337>\266\347%\352\346\360jc\012\214~\017\374\302"
 332      B6E725EA 
 332      E6F06A63 
 332      0A8C7E0F 
 332      FCC2
 333 0136 9A5427BF 		.ascii	"\232T'\277A\275\333^\0128\257\022\304\320gWw\273*\262"
 333      41BDDB5E 
 333      0A38AF12 
 333      C4D06757 
 333      77BB2AB2 
 334 014a F99C25CC 		.ascii	"\371\234%\314|zO\244\255]afeJ\346K\242\\\254\354l\013"
 334      7C7A4FA4 
 334      AD5D6166 
 334      654AE64B 
 334      A25CACEC 
 335 0160 DA14CBA2 		.ascii	"\332\024\313\242T4\251_\250X\025\253\264b\302\017\034"
 335      5434A95F 
 335      A85815AB 
 335      B462C20F 
 335      1C
 336 0171 6895E9   		.ascii	"h\225\351"
 337              		.text
 338              		.section	.gnu.lto_chOQPutTimeout.54745dcc9bc095d5,"",%progbits
 339 0000 789C8D54 		.ascii	"x\234\215T[H\024Q\030\376\3773\263;\027\307uM\274\274"
 339      5B481451 
 339      18FEFF33 
 339      B33B17C7 
 339      754DBCBC 
 340 0014 244B1051 		.ascii	"$K\020Q\206SA/=\011A\340\203/\351B=\305:\016\353P\353"
 340      8653412F 
 340      3D0941E0 
 340      832FE942 
 340      3DC53A0E 
 341 002b D6AE1B5E 		.ascii	"\326\256\033^\036\034u\003\301\010\037\022\254\210\264"
 341      1E1C7503 
 341      C1081F12 
 341      AC88B4
 342 003a 2048A288 		.ascii	" H\242\210^\252'\263\354&\251ED-=\330E\3661{L\204\355"
 342      5EAA27B3 
 342      EC26A945 
 342      442D3DD8 
 342      45F6317B 
 343 0051 3F333BEB 		.ascii	"?3;\353*\213v`\377s\316\374\337\367_\276s\3162`\260"
 343      2A8B7660 
 343      FF73CEFC 
 343      DFF75FBE 
 343      73CE3260 
 344 0066 75F4D0EF 		.ascii	"u\364\320\357\223\0100N3\226\001\262\261\005\200A\231"
 344      9308304E 
 344      339601B2 
 344      B1058041 
 344      99
 345 0077 A1CF5D08 		.ascii	"\241\317]\010L\234\025\300V\325\205w\000\266&\242\342"
 345      4C9C15C0 
 345      56D58577 
 345      00B626A2 
ARM GAS  /tmp/cc6maOJ5.s 			page 27


 345      E2
 346 0088 7E575D00 		.ascii	"~W]\000\372\230\340xT?\207i~&\215\354\243\235\314\255"
 346      FA98E078 
 346      543F8769 
 346      7E268DEC 
 346      A39DCCAD 
 347 009c 26A1ECA2 		.ascii	"&\241\354\242e\227\206\012\"\237\001a\200\011\242\352"
 347      6597860A 
 347      229F0161 
 347      8009A2EA 
 348 00ac F34BB282 		.ascii	"\363K\262\202\003\247\221W\202{`\312\266\307\226W~d"
 348      03A79157 
 348      827B60CA 
 348      B6C79657 
 348      7E64
 349 00be F09A3D93 		.ascii	"\360\232=\223\236\264\327s9D\013\251\352\243\010\006"
 349      9EB4D773 
 349      39440BA9 
 349      EAA30806 
 350 00ce C229DA60 		.ascii	"\302)\332`\310\231\230\270\271\215\207lf9\227[\277\365"
 350      C89998B8 
 350      B98D876C 
 350      6639975B 
 350      BFF5
 351 00e0 F4F237CC 		.ascii	"\364\3627\314\260z\004\242\211\334H\030C\220i%(dD\225"
 351      B07A04A2 
 351      89DC4818 
 351      43906925 
 351      28644495 
 352 00f4 B6A84104 		.ascii	"\266\250A\004\247(]\200\177\016\222\361UrSE>V\315W5"
 352      A7285D80 
 352      7F0E92F1 
 352      55725345 
 352      3E56CD57 
 353 0109 DCD47243 		.ascii	"\334\324rC\241}\220\246\262B\300+\240\321Fv\325\017"
 353      A17D90A6 
 353      B242C02B 
 353      A0D14676 
 353      D50F
 354 011b 61643409 		.ascii	"ad4\011\0130\364\347\357\325\237u\005P\004\3578,j\021"
 354      0B30F4E7 
 354      EFD59F75 
 354      055004EF 
 354      382C6A11 
 355 012f A14FE08A 		.ascii	"\241O\340\212\013\256\354\3650\2127\355\211&\013\375"
 355      0BAEECF5 
 355      308A37ED 
 355      89260BFD 
 356 013f 7CCBBB90 		.ascii	"|\313\273\220B|U\360_\311\373\345\215\276\302(\000\351"
 356      427C55F0 
 356      5FC9FBE5 
 356      8DBEC228 
 356      00E9
 357 0151 2BBC87A1 		.ascii	"+\274\207\241\265\027\363\257\346\224|\"\267\201\242"
 357      B517F3AF 
 357      E6947C22 
 357      B781A2
ARM GAS  /tmp/cc6maOJ5.s 			page 28


 358 0160 745154FA 		.ascii	"tQT\372\241\217:l\200i\233\306c\012\257\334\200\353"
 358      A18F3A6C 
 358      80699BC6 
 358      630AAFDC 
 358      80EB
 359 0172 34A95194 		.ascii	"4\251Q\224x\2662'b;\026\311\266\010\227f\352\"8M1\242"
 359      78B63227 
 359      623B16C9 
 359      B6089766 
 359      EA22384D 
 360 0188 A8F5C39A 		.ascii	"\250\365\303\232=b\007-\324\014tQ\0245\212\252\205\345"
 360      3D62072D 
 360      D40C7451 
 360      14358AAA 
 360      85E5
 361 019a 006FE0E5 		.ascii	"\000o\340\345\012\026\240<^\240\370\000\302(\302\003"
 361      0A16A03C 
 361      5EA0F800 
 361      C228C203 
 362 01aa A1941ED3 		.ascii	"\241\224\036\323[\365\210\340]\352\312\351\037\212\372"
 362      5BF588E0 
 362      5DEACAE9 
 362      1F8AFA
 363 01b9 8FE03DAC 		.ascii	"\217\340=\254\337\010\330\206*L\276\006\014\023\235"
 363      DF08D886 
 363      2A4CBE06 
 363      0C139D
 364 01c8 EE0C57E0 		.ascii	"\356\014W\340\331\334|\356\227\302\253\222\335\316*"
 364      D9DC7CEE 
 364      97C2AB92 
 364      DDCE2A
 365 01d7 BCCEF28A 		.ascii	"\274\316\362\212Q\215\331\347\343\2375W\025\202qg\305"
 365      518DD9E7 
 365      E39F3557 
 365      15827167 
 365      C5
 366 01e8 E632FD30 		.ascii	"\3462\3750+P\260\341\221\341\337\367\367{\300\200\207"
 366      2B50B0E1 
 366      91E1DFF7 
 366      F77BC080 
 366      87
 367 01f9 CDD1E004 		.ascii	"\315\321\340\004\312\326\354:\363z\226\223\263\264\234"
 367      CAD6EC3A 
 367      F37A9693 
 367      B3B49C
 368 0208 9E520187 		.ascii	"\236R\001\207\225\231\310\036\363\242\006\033\340\000"
 368      9599C81E 
 368      F3A2061B 
 368      E000
 369 0216 DDA1D234 		.ascii	"\335\241\3224\357)R)\243\303\267\321\343T\022\315\271"
 369      EF295229 
 369      A3C3B7D1 
 369      E35412CD 
 369      B9
 370 0227 E058AA8A 		.ascii	"\340X\252\212\212\035\302\021\337a\315\257\252.\217"
 370      8A1DC211 
 370      DF61CDAF 
ARM GAS  /tmp/cc6maOJ5.s 			page 29


 370      AA2E8F
 371 0236 C083C493 		.ascii	"\300\203\304\223,\014\346\003\373\362\300*\267\334'"
 371      2C0CE603 
 371      FBF2C02A 
 371      B7DC27
 372 0245 D98F85DC 		.ascii	"\331\217\205\334\325\377W\357Pf)\340Qj\266\243\010\340"
 372      D5FF57EF 
 372      506629E0 
 372      516AB6A3 
 372      08E0
 373 0257 1D4B3A3B 		.ascii	"\035K:;X^\310B\254\342\003\221\340;\362\323\315|\311"
 373      585EC842 
 373      ACE20391 
 373      E03BF2D3 
 373      CD7CC9
 374 026a AE310F54 		.ascii	"\2561\017T\273]\\q\243\224\267K\352&\201\016\357(P\255"
 374      BB5D5C71 
 374      A394B74B 
 374      EA26810E 
 374      EF2850AD 
 375 027e 9757E617 		.ascii	"\227W\346\027a\021\322\262\227S,\334\377J\243\000'\345"
 375      6111D2B2 
 375      97532CDC 
 375      FF4AA300 
 375      27E5
 376 0290 76790C85 		.ascii	"vy\014\205\277\370\017\364w\306\035\316\261\177\005"
 376      BFF80FF4 
 376      77C61DCE 
 376      B17F05
 377 029f A4C720AE 		.ascii	"\244\307 \256?\332Mt\031\371\255E\002q\362\021\2753"
 377      3FDA4D74 
 377      19F9AD45 
 377      0271F211 
 377      BD33
 378 02b1 1E337523 		.ascii	"\0363u#\336\321\253w\230\027u\243\323j\267\342I\275"
 378      DED1AB77 
 378      981775A3 
 378      D36AB7E2 
 378      49BD
 379 02c3 3B91EA3A 		.ascii	";\221\352:\253\323\"\321\255'\023\006}\277\2202Sf\262"
 379      ABD322D1 
 379      AD271306 
 379      7DBF9032 
 379      5366B2
 380 02d6 D1002196 		.ascii	"\321\000!\226\2146\355D3{\272\365\343-\255\315\255\272"
 380      8C36ED44 
 380      337BBAF5 
 380      E32DADCD 
 380      ADBA
 381 02e8 D5659C4B 		.ascii	"\325e\234Kupl\302<c\304N\244\272\214\306N\010\266\264"
 381      75706CC2 
 381      3C63C44E 
 381      A4BA8CC6 
 381      4E08B6B4 
 382 02fc 9E0CB547 		.ascii	"\236\014\265G\222\346\371\204u0\264\367\020\260\004"
 382      92E6F984 
 382      7530B4F7 
ARM GAS  /tmp/cc6maOJ5.s 			page 30


 382      10B004
 383 030b 48313316 		.ascii	"H13\026O\364\302?U\026:\330"
 383      4FF4C23F 
 383      55163AD8 
 384              		.text
 385              		.section	.gnu.lto_chOQGetI.54745dcc9bc095d5,"",%progbits
 386 0000 789C8D54 		.ascii	"x\234\215T[KTQ\024^k\237\353\334\234t\034{\350E\204"
 386      5B4B5451 
 386      145E6B9F 
 386      EBDC9C74 
 386      1C7BE845 
 387 0015 10B21C12 		.ascii	"\020\262\034\022\252\337\320\273\003\3658\216\323\314"
 387      AADFD0BB 
 387      03F5388E 
 387      D3CC
 388 0023 A1D4729C 		.ascii	"\241\324r\234\240|p\217\243 X \022t\261\207L2\350A\013"
 388      A07C708F 
 388      A3205820 
 388      1274B187 
 388      4C32E841 
 389 0038 ECA12018 		.ascii	"\354\241 \030*\303\210.\366P$R\006\201\017\205DA\205"
 389      2AC3882E 
 389      F6502452 
 389      06810F85 
 389      444185
 390 004b 59D3DAFB 		.ascii	"Y\323\332\373\2343\227\232\262\015\263\316^\373|\337"
 390      9C33979A 
 390      B20DB3CE 
 390      5EFB7CDF 
 391 005b B7D7ED0C 		.ascii	"\267\327\355\014\003\006\277\257\014\375\2325\373\211"
 391      0306BFAF 
 391      0CFD9A35 
 391      FB89
 392 0069 5E4036F6 		.ascii	"^@6\366\004 k2\246,\373\200{\325\271\273\000\334\257"
 392      04206B32 
 392      A62CFB80 
 392      7BD5B9BB 
 392      00DCAF
 393 007c 306DA459 		.ascii	"0m\244Y\270\302\372U\324l\224\306<c\012\035\353\374"
 393      B8C2FA55 
 393      D46C94C6 
 393      3C630A1D 
 393      EBFC
 394 008e 9140E9CC 		.ascii	"\221@\351\314\220(S\242\0144m\224\211\036{\343A\024"
 394      902853A2 
 394      0C346D94 
 394      891E7BE3 
 394      4114
 395 00a0 1B401860 		.ascii	"\033@\030`\212\252\351\006\235\014\034D\021\006k\202"
 395      8AAAE906 
 395      9D0C1C44 
 395      11066B82 
 396 00b0 49CEC757 		.ascii	"I\316\307W\346?-\341Y\236\317^\342\033\205\002\242\205"
 396      E63F2DE1 
 396      599ECF5E 
 396      E21B8502 
 396      A285
ARM GAS  /tmp/cc6maOJ5.s 			page 31


 397 00c2 14F21E84 		.ascii	"\024\362\036\2048\302\001r\320\224\017\206\2259H\356"
 397      38C20172 
 397      D0940F86 
 397      953948EE 
 398 00d2 D8CA9B1B 		.ascii	"\330\312\233\033s\251\363g\362CE\256\302\240\273\304"
 398      73A9F367 
 398      F24345AE 
 398      C2A0BBC4 
 399 00e2 6DB4B96A 		.ascii	"m\264\271j%w\226\345W\012\205\231\361\227\323\027\361"
 399      257796E5 
 399      570A8599 
 399      F197D317 
 399      F1
 400 00f3 35DB8A60 		.ascii	"5\333\212`\241\252a\027\202N;\315\020\306CF\367A\014"
 400      A1AA6117 
 400      824E3BCD 
 400      10C64346 
 400      F7410C
 401 0106 27B109FC 		.ascii	"'\261\011\374\302\011\010\023$c\324\012|\235pC\302\324"
 401      C2090813 
 401      2463D40A 
 401      7C9D7043 
 401      C2D4
 402 0118 0B7C98A0 		.ascii	"\013|\230\240S\004m \307\244+4\030\242\360\032m>\210"
 402      53046D20 
 402      C7A42B34 
 402      18A2F01A 
 402      6D3E88
 403 012b 7868B593 		.ascii	"xh\265\223\025\305\210\"\023O\3451\014.mL<x\2419h\227"
 403      15C58822 
 403      134FE531 
 403      0C2E6D4C 
 403      3C78A139 
 404 0141 961F5DBD 		.ascii	"\226\037]\275I\355\211\341\025\324\210*\271I\254k\201"
 404      49ED89E1 
 404      15D4882A 
 404      B949AC6B 
 404      81
 405 0152 6B9C7391 		.ascii	"k\234s\221\362.\272v\002.d9\337b\241'\211\232\310\322"
 405      F22EBA76 
 405      022E6439 
 405      DF62A127 
 405      899AC8D2 
 406 0166 2B73EB10 		.ascii	"+s\353\020\350\030^%&-q\303\365P\014\247\311Mb\250\005"
 406      E8185E25 
 406      262D71C3 
 406      F5500CA7 
 406      C94D62A8 
 407 017b 76FC8B89 		.ascii	"v\374\213\211e\314\005\270\277\232]D\227ZG\354R\001"
 407      65CC05B8 
 407      BF9A5D44 
 407      975A47EC 
 407      5201
 408 018d A3A8C0B2 		.ascii	"\243\250\300\262O\306\377q\233\013\251\227\352\276\277"
 408      4FC6FF71 
 408      9B0BA997 
 408      EABEBF
ARM GAS  /tmp/cc6maOJ5.s 			page 32


 409 019c AAB30AF5 		.ascii	"\252\263\012\365\241\017e\352\365\002\347+oQ;\252py"
 409      A10F65EA 
 409      F502E72B 
 409      6F513BAA 
 409      7079
 410 01ae 019428BD 		.ascii	"\001\224(\275wJ\265\226\253q\361\015I\014\333\"o\347"
 410      774AB596 
 410      AB71F10D 
 410      490CDB22 
 410      6FE7
 411 01c0 3FB7D975 		.ascii	"?\267\331u\242S\241b\2264^AX\234(\010\312\317\323S\367"
 411      A253A162 
 411      96345E41 
 411      589C2808 
 411      CACFD353 
 412 01d5 74E900A8 		.ascii	"t\351\000\2502\001\035h~e\006\313\357ftWB/\346\200U"
 412      32011D68 
 412      7E6506CB 
 412      EF667457 
 412      422FE680 
 413 01ea 1300BBA8 		.ascii	"\023\000\273\250\271\221\3344\272\034\203h2~\264\013"
 413      B991DC34 
 413      BA1C8368 
 413      327EB40B 
 414 01fa BEDF7E61 		.ascii	"\276\337~aw\213\0076\221#\276T\034\315\275\237\331\351"
 414      778B0736 
 414      9123BE54 
 414      1CCDBD9F 
 414      D9E9
 415 020c 4A123454 		.ascii	"J\0224T\034\372?$\367\331=\254\"\211\216\244G\262n\017"
 415      1CFA3F24 
 415      F7D93DAC 
 415      22898EA4 
 415      47B26E0F 
 416 0220 37B8824E 		.ascii	"7\270\202NWx\220>.G[/f3\270\364\355\313s\305\205\372"
 416      5778903E 
 416      2E475B2F 
 416      6633B8F4 
 416      EDCB73C5 
 417 0236 8B4352E5 		.ascii	"\213CR\345\002\305!Q\351W\263\201\262p\375\345\303a"
 417      02C52151 
 417      E957B381 
 417      B270FDE5 
 417      C361
 418 0248 407EBB2C 		.ascii	"@~\273,\355\271\257\353\314\005\005\376\245\253\226"
 418      EDB9AFEB 
 418      CC0505FE 
 418      A5AB96
 419 0257 8279F8CC 		.ascii	"\202y\370\314[\221\355\356M\263\015\270\367\232nO\327"
 419      5B91EDEE 
 419      4DB30DB8 
 419      F79A6E4F 
 419      D7
 420 0268 73DF4BC5 		.ascii	"s\337K\305\014\366\303I\372j\035\271\264\205\376\352"
 420      0CF6C349 
 420      FA6A1DB9 
 420      B485FEEA 
ARM GAS  /tmp/cc6maOJ5.s 			page 33


 421 0278 725A2985 		.ascii	"rZ)\205\2470\234w\370\000\375\260\316G\304@\007\342"
 421      A7309C77 
 421      F800FDB0 
 421      CE47C440 
 421      07E2
 422 028a C59E0505 		.ascii	"\305\236\005\005\221\202\266\260F\006\275\226\233\232"
 422      9182B6B0 
 422      4606BD96 
 422      9B9A
 423 0298 2D56B036 		.ascii	"-V\2606\351\316r\224:!\246w\221\376\010\005\015\355"
 423      E9CE7294 
 423      3A21A677 
 423      91FE0805 
 423      0DED
 424 02aa B144C9FE 		.ascii	"\261D\311\376Qp\026\016h\033\267\302\3043O\335\011\210"
 424      5170160E 
 424      681BB7C2 
 424      C4334FDD 
 424      0988
 425 02bc D1474112 		.ascii	"\321GA\022W\265ER=]\211H\274\247\363D\2443q<\022OY\035"
 425      57B54552 
 425      3D5D8948 
 425      BCA7F344 
 425      A433713C 
 426 02d4 564F3AD2 		.ascii	"VO:\322\327\233\351>\034\241Mo_$\335\033\247\363c\231"
 426      D79BE93E 
 426      1CA14D6F 
 426      5F24DD1B 
 426      A7F36399 
 427 02e8 4426916E 		.ascii	"D&\221n\215\003v\354\375\017\222\325\035?\222\351L\224"
 427      8D0376EC 
 427      FD0F92D5 
 427      1D3F92E9 
 427      4C94
 428 02fa 882930AC 		.ascii	"\210)0\254C}]G[\333~\001\035\307Y="
 428      437D5D47 
 428      5BDB7E01 
 428      1DC7593D 
 429              		.text
 430              		.section	.gnu.lto_chOQWriteTimeout.54745dcc9bc095d5,"",%progbits
 431 0000 789CAD55 		.ascii	"x\234\255Uoh[U\024?\347\276\274\374{/M\272\332\330\316"
 431      6F685B55 
 431      143FE7BE 
 431      BCFC7B2F 
 431      4DBADAD8 
 432 0015 3664011B 		.ascii	"6d\001\033X\245qj\035~rC\020\366a_\254\005\367A$M\263"
 432      58A5716A 
 432      1D7E7243 
 432      10F6615F 
 432      AC05F741 
 433 002c D7874BAB 		.ascii	"\327\207K\253i\243\326\011{M[(\310 \210\340V\021Vd\010"
 433      69A3D609 
 433      7B4D5B28 
 433      C82088E0 
 433      56115664 
 434 0041 85B5827F 		.ascii	"\205\265\202\177\220Q\245s\202\235\335:dCL\220R(2p\203"
 434      9051A573 
ARM GAS  /tmp/cc6maOJ5.s 			page 34


 434      829DDD3A 
 434      64434C90 
 434      52283270 
 435 0056 E1972173 		.ascii	"\341\227!s\030\317\311}\3575\035a\235\340\203\334{\317"
 435      18CFC97D 
 435      EF351D61 
 435      9DE083DC 
 435      7BCF
 436 0068 3DE7FCCE 		.ascii	"=\347\374\316\377\033\001\002\356\377\346\350w\320\007"
 436      FF1B0102 
 436      EEFFE6E8 
 436      77D007
 437 0077 F011EDD8 		.ascii	"\360\021\355\330\004(Jk\000\023~\201^yP\204\347{\005"
 437      04284A6B 
 437      00137E81 
 437      5E795084 
 437      E77B05
 438 008a ACA0BAF6 		.ascii	"\254\240\272\366\023\200\245{0$\357U)p\320+\224\353"
 438      1380A57B 
 438      3024EF55 
 438      2970D02B 
 438      94EB
 439 009c 51E2FB96 		.ascii	"Q\342\373\226\366\023\333'\3743I\242\002\274\352~\014"
 439      F613DB27 
 439      FC3349A2 
 439      02BCEA7E 
 439      0C
 440 00ad 48E18008 		.ascii	"H\341\200\010\376\370,]k\227\036\245\353 j\362Z\023"
 440      FEF82C5D 
 440      6B971EA5 
 440      EB206AF2 
 440      5A13
 441 00bf A11AB62E 		.ascii	"\241\032\266.\261uT\345}\010\221\017\200pB(\036\325"
 441      B17554E5 
 441      7D08910F 
 441      80704228 
 441      1ED5
 442 00d1 EBF30782 		.ascii	"\353\363\007\202\232\036\302\023G\220]\026\011\230\263"
 442      9A1EC213 
 442      47905D16 
 442      0998B3
 443 00e0 AC0F36CE 		.ascii	"\254\0176\316~v\023O[\313Sg\254{\325*\242\211\024^/"
 443      7E76134F 
 443      5BCB5367 
 443      AC7BD52A 
 443      A289145E 
 444 00f5 4206E115 		.ascii	"B\006\341\025\"0^\333\204g{\274Rw\371\333\331\223\355"
 444      22305EDB 
 444      84677BBC 
 444      5277F9DB 
 444      D993ED
 445 0108 D69962C9 		.ascii	"\326\231b\311\372\207TMT\004<\267\223\346\242X\336\250"
 445      FA87544D 
 445      54043CB7 
 445      93E6A258 
 445      DEA8
 446 011a 562F5F3B 		.ascii	"V/_;\267\371+F{\020rl/\207\250@\032?\305\004x\354=\210"
ARM GAS  /tmp/cc6maOJ5.s 			page 35


 446      B7F92B46 
 446      7B10726C 
 446      2F87A840 
 446      1A3FC504 
 447 0132 39141A11 		.ascii	"9\024\032\021sD\204\210\200&Z0\014&z\"\264\250\315D"
 447      73448488 
 447      80265A30 
 447      0C267A22 
 447      B4A8CD44 
 448 0146 2A2D74F2 		.ascii	"*-t\362\2662H\224\031m\264\370\332\031n7\237:l\254N"
 448      B6324894 
 448      196DB4F8 
 448      DA196E37 
 448      9F3A6CAC 
 449 015b 1688D18D 		.ascii	"\026\210\321\215?\316\327{xI\360\322e\013$Y\205\234"
 449      3FCED77B 
 449      7849F0D2 
 449      650B2459 
 449      859C
 450 016d 5361CAB2 		.ascii	"Sa\312\262JqiT\262\200\343\241\357eZ)\315\375(hS\256"
 450      4A716954 
 450      B280E3A1 
 450      EF655A29 
 450      CDFD2868 
 451 0183 40B1F20D 		.ascii	"@\261\362\015%.\215gQ\005\003\265n\230\267\350{\225"
 451      252E8D67 
 451      510503B5 
 451      6E98B7E8 
 451      7B95
 452 0195 D2F731CC 		.ascii	"\322\3671\314R\334\001\003\203\034\177\260\026\365\000"
 452      52DC0103 
 452      831C7FB0 
 452      16F500
 453 01a4 3AF1AF41 		.ascii	":\361\257A\361\317\277?\334l\263M\001H\210Z\235\020"
 453      F1CFBF3F 
 453      DC6CB34D 
 453      0148885A 
 453      9D10
 454 01b6 DE53B8B9 		.ascii	"\336S\270\271\024\331a18\211\237X\247\016\230\2501\311"
 454      14D96131 
 454      38899F58 
 454      A70E98A8 
 454      31C9
 455 01c8 687A9C4F 		.ascii	"hz\234O.\277d\363C[\371\355\247L^\217\262\203w/\256"
 455      2EBF64F3 
 455      435BF9ED 
 455      A74C5E8F 
 455      B283772F 
 456 01dd FE72C7E7 		.ascii	"\376r\307\347x\0309\016\357R\326l?O\023VScGq\013\353"
 456      7818390E 
 456      EF52D66C 
 456      3F4F1356 
 456      53634771 
 457 01f3 2A4C2F3F 		.ascii	"*L/?\357\000\264\034\207\273\326\214\02511\234\261\205"
 457      EF00B41C 
 457      87BBD68C 
 457      1531319C 
ARM GAS  /tmp/cc6maOJ5.s 			page 36


 457      B185
 458 0205 08D5C066 		.ascii	"\010\325\300f\023#\000+0uk\242\327\225e@o}\331\373\321"
 458      1323002B 
 458      30756BA2 
 458      D7956540 
 458      6F7DD9FB 
 459 021a 0345541E 		.ascii	"\003ET\036&\3724\316S\014\265h\241.\3324\236\303X=\240"
 459      26FA34CE 
 459      530CB568 
 459      A12EDA34 
 459      9EC3583D 
 460 022f 0AD4F00A 		.ascii	"\012\324\360\012@\031Z\015\354\324\027\356\314v\032"
 460      40195A0D 
 460      ECD417EE 
 460      CC761A
 461 023e D4475886 		.ascii	"\324GX\206v\003\223\372\345r\332@\301d\207\201]\372"
 461      760393FA 
 461      E572DA40 
 461      C1648781 
 461      5DFA
 462 0250 52996E15 		.ascii	"R\231n\025\005Y\323\0134\030H):?}\373\313#\034GX\346"
 462      0559D30B 
 462      34184829 
 462      3A3F7DFB 
 462      CB231C47 
 463 0266 427172E1 		.ascii	"Bqr\341\227FV\340\207\033\027\312\225\220\023W\230\231"
 463      974656E0 
 463      871B17CA 
 463      95901357 
 463      9899
 464 0278 CA961365 		.ascii	"\312\226\023e@\003[UZB\202\014\011\003\333\231hb\202"
 464      40035B55 
 464      5A42820C 
 464      0903DB99 
 464      686282
 465 028b B03A54B4 		.ascii	"\260:T\264\025\304\255k&[\366\301\322~\252\315\344\314"
 465      15C4AD6B 
 465      265BF6C1 
 465      D27EAACD 
 465      E4CC
 466 029d E4CDAFBA 		.ascii	"\344\315\257\272\035\324\250\003\\\245/L\260\344\331"
 466      1DD4A803 
 466      5CA52F4C 
 466      B0E4D9
 467 02ac 21C9B4CB 		.ascii	"!\311\264\313\265\217\230\215\253%\354BDkZ\225\277\026"
 467      B58F988D 
 467      AB25EC42 
 467      446B5A95 
 467      BF16
 468 02be 56DD9E6C 		.ascii	"V\335\236l\353\206\275\324\343\215\365\234 \310\227"
 468      EB86BDD4 
 468      E38DF59C 
 468      20C897
 469 02cd F727E75D 		.ascii	"\367'\347]\235\335\244V\233Zl\344\306\323;\300\221\276"
 469      9DDDA456 
 469      9B5A6CE4 
 469      C6D33BC0 
ARM GAS  /tmp/cc6maOJ5.s 			page 37


 469      91BE
 470 02df 8DF8878B 		.ascii	"\215\370\207\213\3105\251G<?\375\235\313\213I\260f["
 470      C835A947 
 470      3C3FFD9D 
 470      CB8B49B0 
 470      665B
 471 02f1 6497EB53 		.ascii	"d\227\353S\361\322\347\232\024\"\211\011\262\254\231"
 471      F1D2E79A 
 471      14228909 
 471      B2AC99
 472 0300 D862BBE6 		.ascii	"\330b\273\346\263M\305d\304\247\0267]\274\370\303E\\"
 472      B34DC564 
 472      C4A71637 
 472      5DBCF8C3 
 472      455C
 473 0312 AC94C28E 		.ascii	"\254\224\302\216\312\236\007\2518O\0275\367\215\211"
 473      CA9E07A9 
 473      384F1735 
 473      F78D89
 474 0321 7DAE15D2 		.ascii	"}\256\025\322\252\357C?\254?&\037\204\305U\305\021J"
 474      AAEF433F 
 474      AC3F261F 
 474      84C555C5 
 474      114A
 475 0333 3C0857AD 		.ascii	"<\010W\255\013\264\244mKq\357\216)N8v\003\334K<w\027"
 475      0BB4A46D 
 475      4B71EF8E 
 475      294E3876 
 475      03DC4B3C 
 476 0349 AAB3BAFB 		.ascii	"\252\263\272\373\020\261J\375\340\221`\020\326\273\224"
 476      10B14AFD 
 476      E0916010 
 476      D6BB94
 477 0358 AB30B5B1 		.ascii	"\2530\265\261r\305\353\314\233\301o\012Y0\361\021GL"
 477      72C5EBCC 
 477      9BC16F0A 
 477      5930F111 
 477      474C
 478 036a 63BCFF67 		.ascii	"c\274\377g@\271\303/\256\376~\324\361\252\213F\257\326"
 478      40B9C32F 
 478      AEFE7ED4 
 478      F1AA8B46 
 478      AFD6
 479 037c E1683327 		.ascii	"\341h3'\277\370\272\315a&iL\267\265?O\235[\323\344}"
 479      BFF8BACD 
 479      6126694C 
 479      B7B53F4F 
 479      9D5BD3E4 
 480 0391 23C79EEA 		.ascii	"#\307\236\352p\357\231\377\352i\274\261\247\0220\304"
 480      70EF99FF 
 480      EA69BCB1 
 480      A71230C4 
 481 03a1 6FFACFF4 		.ascii	"o\372\317\364\237\3119\251U\275\014\036\362\331\263"
 481      9FC939A9 
 481      55BD0C1E 
 481      F2D9B3
 482 03b0 B05ED1C9 		.ascii	"\260^\321\311}\355\267r'\377\005 \3111\302S\251\241"
ARM GAS  /tmp/cc6maOJ5.s 			page 38


 482      7DEDB772 
 482      27FF0520 
 482      C931C253 
 482      A9A1
 483 03c2 915C3695 		.ascii	"\221\\6\225\031\031\034O\015f\337Je\206\314\001sd45"
 483      19191C4F 
 483      0D66DF4A 
 483      6586CC01 
 483      73643435 
 484 03d6 962F0CBF 		.ascii	"\226/\014\277\236\242C~,5\232\317\320\375\233\205l!"
 484      9EA2437E 
 484      2C359ACF 
 484      D0FD9B85 
 484      6C21
 485 03e8 3BDA9301 		.ascii	";\332\223\001e\370\3508\276}`'\305\354;c\251\027\016"
 485      65F8E838 
 485      BE7D6027 
 485      C5EC3B63 
 485      A9170E
 486 03fb F71DEA4B 		.ascii	"\367\035\352K\231\303\231c\205A\226\315g_\313\344^,"
 486      99C39963 
 486      854196CD 
 486      675FCBE4 
 486      5E2C
 487 040d 0C677A86 		.ascii	"\014gz\206 r\270\357\245\370@z4\373F\336|\"\376\370"
 487      2072B8EF 
 487      A5F8407A 
 487      34FB46DE 
 487      7C22FEF8 
 488 0421 9320F2E0 		.ascii	"\223 \362\340\313es#\371q\370\027I\200\301\353"
 488      CB657323 
 488      F971F817 
 488      4980C1EB 
 489              		.text
 490              		.section	.gnu.lto_.symbol_nodes.54745dcc9bc095d5,"",%progbits
 491 0000 789C4DCB 		.ascii	"x\234M\313=j\002Q\030\205\341s\356w\307\031\347g\007"
 491      3D6A0251 
 491      1885E173 
 491      EE77C719 
 491      E76707
 492 0013 822BB075 		.ascii	"\202+\260u/\256\346\263\012\222\312\015\230\306Nc\034"
 492      2FAEE6B3 
 492      0A92CA0D 
 492      98C64E63 
 492      1C
 493 0024 FF026933 		.ascii	"\377\002i3\251\214Lc\221F\204`\010\026\012\202}t\304"
 493      A98C4C63 
 493      91468460 
 493      08160A82 
 493      7D74C4
 494 0037 A0F7740F 		.ascii	"\240\367t\017\207\327\300\240N\\g\346T\240\235\003\252"
 494      87D7C0A0 
 494      4E5C67E6 
 494      54A09D03 
 494      AA
 495 0048 9D164D8F 		.ascii	"\235\026M\217\312\177>\025\354S\215\303g\2528\034P\255"
 495      CA7F3E15 
ARM GAS  /tmp/cc6maOJ5.s 			page 39


 495      EC538DC3 
 495      67AA381C 
 495      50AD
 496 005a C317AAE7 		.ascii	"\303\027\252\347pH-9L\251\276\303\0215p8\246\226\035"
 496      70482D39 
 496      4CA9BEC3 
 496      11357038 
 496      A6961D
 497 006d 4EA8E19D 		.ascii	"N\250\341\235\234R\243+\233MrF\215\357z\245&7Y`\271"
 497      9C52A32B 
 497      9B4D7246 
 497      8DEF7AA5 
 497      26375960 
 498 0082 FDA29808 		.ascii	"\375\242\230\010\335\357?\212\304\330<~T\305&\350\216"
 498      DDEF3F8A 
 498      C4D83C7E 
 498      54C526E8 
 498      8E
 499 0093 F29AB538 		.ascii	"\362\232\2658\376\024\267W\360m\335\260\036\216\351"
 499      FE14B757 
 499      F06DDDB0 
 499      1E8EE9
 500 00a2 DE881F21 		.ascii	"\336\210\037!{\330U%H\220\245yM\002\340}~\362\245\034"
 500      7BD85525 
 500      4890A579 
 500      4D02E07D 
 500      7EF2A51C 
 501 00b6 23BBD461 		.ascii	"#\273\324a\202\315\341\267bC,?\027+\017g\343\022b\251"
 501      82CDE1B7 
 501      62432C3F 
 501      172B0F67 
 501      E31262A9 
 502              		.text
 503              		.section	.gnu.lto_.refs.54745dcc9bc095d5,"",%progbits
 504 0000 789C6362 		.ascii	"x\234cb`b`d\200\002\000\000F\000\006"
 504      60626064 
 504      80020000 
 504      460006
 505              		.text
 506              		.section	.gnu.lto_.decls.54745dcc9bc095d5,"",%progbits
 507 0000 789CCD5A 		.ascii	"x\234\315Z\013p\024E\032\236\236\335$\233\307\005|\036"
 507      0B701445 
 507      1A9E9EDD 
 507      249BC705 
 507      7C1E
 508 0012 F7A83356 		.ascii	"\367\2503V\251Ey%A\345\020\037'x\036\007\251R\361Ey"
 508      A9457925 
 508      41E5101F 
 508      27781E07 
 508      A952F145 
 509 0027 556AED4D 		.ascii	"Uj\355M6\003YIv7\273\023\036wU:$\020T\324\013\033\357"
 509      36035949 
 509      7637BB13 
 509      1E77553A 
 509      241054D4 
 510 003e 7893A020 		.ascii	"x\223\240 \017AD\214\200AY\020H$\274\037r\210\232=\224"
 510      0F41448C 
ARM GAS  /tmp/cc6maOJ5.s 			page 40


 510      80415910 
 510      4824BC1F 
 510      72889A3D 
 511 0053 878A4888 		.ascii	"\207\212H\210\240\007\312\336\337=\335\2733\235\231"
 511      A007CADE 
 511      DF3DDDBB 
 511      339D99
 512 0062 DD99A057 		.ascii	"\335\231\240W\267U=\323;\323\375\375\257\257\377\376"
 512      B7553DD3 
 512      3BD3FDFD 
 512      AFAFFFFE 
 513 0072 67764541 		.ascii	"gvEA\024\372g\013B\002>\233\007\012\302m\320/\020\004"
 513      14FA670B 
 513      42023E9B 
 513      070AC26D 
 513      D02F1004 
 514 0086 E14E686E 		.ascii	"\341Nhnh\363\241\271\220 \334\016m84\374)\204\366\030"
 514      68F3A1B9 
 514      9020DC0E 
 514      6D3834FC 
 514      2984F618 
 515 009a F447437B 		.ascii	"\364GC{\022\332$h\317Ck\204\266\014Z\013\264\015\320"
 515      12DA2468 
 515      CF436B84 
 515      B60C5A0B 
 515      B40DD0
 516 00ad DAA1ED86 		.ascii	"\332\241\355\206\326\001\355\010\264ct\276\376\203q"
 516      D601ED08 
 516      B46374BE 
 516      FE8371
 517 00bc 30DE347A 		.ascii	"0\3364z\306\262OB;\2014\271\217R\331\177\201\346\205"
 517      C6B24F42 
 517      3B8134B9 
 517      8F52D97F 
 517      81E685
 518 00cf 7607B4AF 		.ascii	"v\007\264\257\241\255\2011\235p\306\220#\351\3711z."
 518      A1AD8131 
 518      9D70C690 
 518      23E9F931 
 518      7A2E
 519 00e1 E3E4603D 		.ascii	"\343\344`=s\341|\030\316\367\"\315\2461p~\002\332\022"
 519      73E17C18 
 519      CEF722CD 
 519      A631707E 
 519      02DA12
 520 00f4 41B30BCB 		.ascii	"A\263\013\313\030\014\375<hC\241\177\033\264\305\320"
 520      180CFD3C 
 520      6843A17F 
 520      1BB4C5D0 
 521 0104 1F06E707 		.ascii	"\037\006\347\007\240=\004\355\036h#\220&\357\021h\""
 521      A03D04ED 
 521      1E682390 
 521      26EF1168 
 521      22
 522 0115 C5EE8296 		.ascii	"\305\356\202\226\005\375\010\234\253\241\215\2036\001"
 522      05FD089C 
 522      ABA18D83 
ARM GAS  /tmp/cc6maOJ5.s 			page 41


 522      3601
 523 0123 DADF383D 		.ascii	"\332\3378=\236\244z`\035\260.L\207\341T\247s\324\346"
 523      9EA47A60 
 523      1DB02E4C 
 523      87E154A7 
 523      73D4E6
 524 0136 38C5BB47 		.ascii	"8\305\273G'\033\3531\224\312|\222\372\024\303\327p2"
 524      271BEB31 
 524      94CA7C92 
 524      FA14C3D7 
 524      7032
 525 0148 702C7AD1 		.ascii	"p,z\321\3301\177\272(\036\223{\202\223}RH\311\307\262"
 525      D8317FBA 
 525      281E937B 
 525      82937D52 
 525      48C9C7B2 
 526 015c 810206B9 		.ascii	"\201\002\006\271#\250\355X\276\213\3128Oc\212\365y\006"
 526      23A8ED58 
 526      BE8BCA38 
 526      4F638AF5 
 526      7906
 527 016e CECF727A 		.ascii	"\316\317rz`>\\Nc\251\327\343Q\252\013\213\205>\226\267"
 527      603E5C4E 
 527      63A9D7E3 
 527      51AA0B8B 
 527      853E96B7 
 528 0182 EBF4BA83 		.ascii	"\353\364\272\203\372\004\201\200\343T\247\341\364<\222"
 528      FA048180 
 528      E354A7E1 
 528      F43C92
 529 0191 EA328CEA 		.ascii	"\3522\214\352\310\364\023\251\334c\264?\033\316s8\275"
 529      C8F413A9 
 529      DC63B43F 
 529      1BCE7338 
 529      BD
 530 01a2 30472F13 		.ascii	"0G/\0234YL\257\341:\235\262\251\237\220\216#z\035y\275"
 530      34594CAF 
 530      E13A9DB2 
 530      A99F908E 
 530      237A1D79 
 531 01b7 B07D9974 		.ascii	"\260}\231tj\244:\341\230,\302\274\202\366\012\264\245"
 531      6AA43AE1 
 531      982CC2BC 
 531      82F60AB4 
 531      A5
 532 01c8 9C6ECB4C 		.ascii	"\234n\313Lx\312x\177\261<]\246\343\351\233p~\013Z3\264"
 532      78CA787F 
 532      B13C5DA6 
 532      E3E99B70 
 532      7E0B5A33 
 533 01dd D5D0D672 		.ascii	"\325\320\326rz\340\365\233O\375\200uf\276a\272\230\361"
 533      7AE0F59B 
 533      4FFD8075 
 533      66BE61BA 
 533      98F1
 534 01ef 359BE3EB 		.ascii	"5\233\343\353\010\216\263-:\316\256\347\344m\2401q\351"
 534      088EB32D 
ARM GAS  /tmp/cc6maOJ5.s 			page 42


 534      3ACEAEE7 
 534      E46DA031 
 534      71E9
 535 0201 6262C511 		.ascii	"bb\305\021\275Oxn\340X\210p\355qj'\213\307\003\272x"
 535      BD4F786E 
 535      E0588870 
 535      ED716A27 
 535      8BC703BA 
 536 0216 B8A83C1C 		.ascii	"\270\250<\034\217\307\350\367V8\277\017\255\215\323"
 536      8FC7E8F7 
 536      5638BF0F 
 536      AD8DD3
 537 0225 0BE7AF5E 		.ascii	"\013\347\257^\034\207\335\202\371z2\363\215\235\265"
 537      1C87DD82 
 537      F97A32F3 
 537      8D9DB5
 538 0234 8465B844 		.ascii	"\204e\270Dm-a\361;9\035p\376\274\302&_\231\016\274\277"
 538      6D2D61F1 
 538      3B391D70 
 538      FEBCC226 
 538      5F990EBC 
 539 0249 989F3E80 		.ascii	"\230\237>\200\266\237\372\351\016\324\235\267z?\211"
 539      B69FFAE9 
 539      0ED49DB7 
 539      7A3F89
 540 0258 5436E3ED 		.ascii	"T6\343\355!8\177\004\355Ch\037s:^*LS\341S\324\006\012"
 540      21387F04 
 540      ED43681F 
 540      733A5E2A 
 540      4C53E153 
 541 026f FE1949A8 		.ascii	"\376\031I\2500W\030B:\005\271\202\007\356_+,P\325\372"
 541      30571842 
 541      3A05B982 
 541      07EE5F2B 
 541      2C50D5FA 
 542 0283 F8E4636D 		.ascii	"\370\344cmnU\365Hh>\272\024\360\301\242\353\205%0\257"
 542      6E55F548 
 542      683EBA14 
 542      F0C1A2EB 
 542      852530AF 
 543 0297 5E550F5F 		.ascii	"^U\017_\307A\352q\233\206X\001\213\302\203H\220\320"
 543      C741EA71 
 543      9B865801 
 543      8BC28348 
 543      90D0
 544 02a9 42C093D0 		.ascii	"B\300\223\320\002t\275&I\215Oo\3357\021MTU\244\335\023"
 544      0274BD26 
 544      498D4F6F 
 544      DD37114D 
 544      5455A4DD 
 545 02be E85D93CF 		.ascii	"\350]\223\317\325B\223\252\326\304\366\327\315\375\205"
 545      D54293AA 
 545      D6C4F6D7 
 545      CDFD85
 546 02cd DAB411E5 		.ascii	"\332\264\021\345\013\317\302W\265\251N\035\336VhbV\223"
 546      0BCFC257 
 546      B5A94E1D 
ARM GAS  /tmp/cc6maOJ5.s 			page 43


 546      DE566862 
 546      5693
 547 02df 9B89FF63 		.ascii	"\233\211\377c\312\256I\245E\022ZJl\232\201\220AVF\010"
 547      CAAE49A5 
 547      45125A4A 
 547      6C9A8190 
 547      41564608 
 548 02f3 51984FA6 		.ascii	"Q\230O\246,\357f\302\224O\230\011\313m\231p\236\232"
 548      2CEF66C2 
 548      944F9809 
 548      CB6D9970 
 548      9E9A
 549 0305 20A12560 		.ascii	" \241%`\206(\274\232\304\245\202\213\230\\\034N\332"
 549      8628BC9A 
 549      C4A5828B 
 549      985C1C4E 
 549      DA
 550 0316 D53E7480 		.ascii	"\325>t\200\021\357\302\226\202z\211\201\275\341\030"
 550      11EFC296 
 550      827A8981 
 550      BDE118
 551 0325 ACC800D6 		.ascii	"\254\310\000\326\320:\207(\227+<\235\362\257`\012F\235"
 551      D03A8728 
 551      972B3C9D 
 551      F2AF600A 
 551      469D
 552 0337 DAD5BE63 		.ascii	"\332\325\276c7\252%\3667\3034Q\250\021\215\256\265\017"
 552      37AA25F6 
 552      37C33451 
 552      A8118DAE 
 552      B50F
 553 0349 D51CDDBC 		.ascii	"\325\034\335\274\001\325\020\2505\004jE\217\241:\033"
 553      01D510A8 
 553      35046A45 
 553      8FA13A1B 
 554 0359 D6DD4A28 		.ascii	"\326\335J(\334B\200\276\342\200$\224\223tc\362;\033"
 554      DC4280BE 
 554      E2802494 
 554      937463F2 
 554      3B1B
 555 036b 80D1C86D 		.ascii	"\200\321\310m\332\301\025W/\341'\036.\012\337\2116B"
 555      DAC11557 
 555      2FE1271E 
 555      2E0ADF89 
 555      3642
 556 037d E7B1E281 		.ascii	"\347\261\342\201\032\377\347\224#h\246\032\233\344b"
 556      1AFFE794 
 556      2368A61A 
 556      9BE462
 557 038c AB31DBCA 		.ascii	"\2531\333\312G\242\220 \262b<\227\033g}UC\271\034\263"
 557      47A29020 
 557      B2623C97 
 557      1B677D55 
 557      43B91CB3 
 558 03a0 C5E5D5ED 		.ascii	"\305\345\325\355\323\355-G\221\311\277\206\310\337\340"
 558      D3ED2D47 
 558      91C9BF86 
ARM GAS  /tmp/cc6maOJ5.s 			page 44


 558      C8DFE0
 559 03af C2F237F3 		.ascii	"\302\3627\363\362[>9[K\345o\266%\177\345\236\027\273"
 559      F25B3E39 
 559      5B4BE56F 
 559      B6257FE5 
 559      9E17BB
 560 03c2 CB97D09D 		.ascii	"\313\227\320\235W\244\343F\343\254\326\323T\312\373"
 560      57A4E346 
 560      E3ACD6D3 
 560      54CAFB
 561 03d1 64D14C75 		.ascii	"d\321Lu\363\354\030\234o\214\037|\327\015\020\205\027"
 561      F3EC189C 
 561      6F8C1F7C 
 561      D70D1085 
 561      17
 562 03e2 DD4CFF1E 		.ascii	"\335L\377\036\255Y0t\333\213(Z\253\266\365g:Lw\214X"
 562      AD593074 
 562      DB8B285A 
 562      ABB6F567 
 562      3A4C778C 
 563 03f7 64F0C49B 		.ascii	"d\360\304\233{H\026\320\300f\331\001\263\244RM\354-"
 563      7B4816D0 
 563      C066D901 
 563      B3A4524D 
 563      EC2D
 564 0409 3DD85CC7 		.ascii	"=\330\\\307`F\315\326\350\301\232\354\200\365\266\326"
 564      6046CDD6 
 564      E8C19AEC 
 564      80F5B6D6 
 565 0419 EC6D3DD8 		.ascii	"\354m=\330\313\216\301\214\232\255\323\203\275b\007"
 565      CB8EC18C 
 565      9AADD383 
 565      BD6207
 566 0428 AC8FB566 		.ascii	"\254\217\265f\357\352\301\226:\0063j\266K\017\366\232"
 566      EFEAC196 
 566      3A06336A 
 566      B64B0FF6 
 566      9A
 567 0439 1DB02213 		.ascii	"\035\260\"\023\315\222\037\263y\230\326\233P\222\347"
 567      CD921FB3 
 567      7998D69B 
 567      5092E7
 568 0448 A2B0D2CD 		.ascii	"\242\260\322\315r\202CN\013)\214f\267\323\034f\260\033"
 568      7282434E 
 568      0B298C66 
 568      B7D31C66 
 568      B01B
 569 045a 36D3A3F3 		.ascii	"6\323\243\363Q\203\266.\264\015\255\305\016b\032\302"
 569      5183B62E 
 569      B40DADC5 
 569      0E621AC2 
 570 046a CC6AD5ED 		.ascii	"\314j\325\355\216\3579\006\343\250\214\301\014\271\206"
 570      8EEF3906 
 570      E3A88CC1 
 570      0CB986
 571 0479 EE48F185 		.ascii	"\356H\361\205\261>3R\351\316\303\260p\261\244\3456\250"
 571      B13E3352 
ARM GAS  /tmp/cc6maOJ5.s 			page 45


 571      E9CEC3B0 
 571      70B1A4E5 
 571      36A8
 572 048b 9DC4E460 		.ascii	"\235\304\344`\265O\037\363\261\022:\212\256\205\343"
 572      B54F1FF3 
 572      B1123A8A 
 572      AE85E3
 573 049a 31949BD4 		.ascii	"1\224\233\324B\353\263^\202\224|\355n\2632\214\000\244"
 573      42EBB35E 
 573      82947CED 
 573      6EB3328C 
 573      00A4
 574 04ac 9F6AC584 		.ascii	"\237j\305\204\317\364L\330e\307Mi\226BG\353\234\237"
 574      CFF44CD8 
 574      65C74D69 
 574      964247EB 
 574      9C9F
 575 04be ABF118D2 		.ascii	"\253\361\030\322\331\233\3269PDL\335\316\212\210/\311"
 575      D99BD639 
 575      50444CDD 
 575      CE8A882F 
 575      C9
 576 04cf 867DC06D 		.ascii	"\206}\300m\272\363\333\200j\216.\377-\331\371O\022\240"
 576      BAF3DB80 
 576      6A8E2EFF 
 576      2DD9F94F 
 576      12A0
 577 04e1 788F813A 		.ascii	"x\217\201:\033\346\015\"@\235\004\350x\267M\002q%\004"
 577      1BE60D22 
 577      409D04E8 
 577      78B74D02 
 577      712504
 578 04f4 326EF249 		.ascii	"2n\362I\337S\327\377TcE\3414\037/\2039\031\263\015T"
 578      DF53D7FF 
 578      546345E1 
 578      341F2F83 
 578      3919B30D 
 579 0509 E13F4C43 		.ascii	"\341?LC]5\352\214\376\016\"\326\276\215E\354,\361\317"
 579      5D35EA8C 
 579      FE0E22D6 
 579      BE8D45EC 
 579      2CF1CF
 580 051c B96EFE39 		.ascii	"\271n\3769\351\320AP:f95\244\257\321\220)\233\242\316"
 580      E9D04150 
 580      3A663935 
 580      A4AFD190 
 580      299BA2CE 
 581 0530 0D4952EF 		.ascii	"\015IR\357<1\344\331\254\2137$\352\330\220\376:C\360"
 581      3C31E4D9 
 581      AC8B3724 
 581      EAD890FE 
 581      3A43F0
 582 0543 43C599A8 		.ascii	"C\305\231\250\226\007/\023\242\351\2139\254\217*^f("
 582      96072F13 
 582      A2E98B39 
 582      AC8F2A5E 
 582      6628
ARM GAS  /tmp/cc6maOJ5.s 			page 46


 583 0555 A46207B7 		.ascii	"\244b\007\267\242\"\355r\246\032J\215}\273UW\362\253"
 583      A222ED72 
 583      A61A4A8D 
 583      7DBB5557 
 583      F2AB
 584 0567 B64AFEA9 		.ascii	"\266J\376\251;\231\313jE\354\262\231Y&\213\314\026T"
 584      3B99CB6A 
 584      45ECB299 
 584      59268BCC 
 584      1654
 585 0579 F39E4D2B 		.ascii	"\363\236M+i\311_G\240\032{\014\325\271w\265\266^\237"
 585      69C95F47 
 585      A01A7B0C 
 585      D5B977B5 
 585      B65E9F
 586 058c 21408BBA 		.ascii	"!@\213\272\2051\233\213b\2661\212\360\025K\372\016\027"
 586      85319B8B 
 586      62B6318A 
 586      F0154BFA 
 586      0E17
 587 059e E4E8297A 		.ascii	"\344\350)z\005\177\311\021\376\347\363`7&\352\343\010"
 587      057FC911 
 587      FEE7F360 
 587      3726EAE3 
 587      08
 588 05af F6A4C2C4 		.ascii	"\366\244\302\304\014:\022e;\251\026\2445\027\205X\023"
 588      0C3A1265 
 588      3BA916A4 
 588      35178558 
 588      13
 589 05c0 5B35953D 		.ascii	"[5\225=\267\016\306{\351\206\213\204\333\335\356\370"
 589      B70EC67B 
 589      E9868B84 
 589      DBDDEEF8 
 590 05d0 4973EA3E 		.ascii	"Is\352>F\273(\261\250\255[\210\327\360+\325\316\203"
 590      46BB28B1 
 590      A8AD5B88 
 590      D7F02BD5 
 590      CE83
 591 05e2 D7BE9E5A 		.ascii	"\327\276\236Z\222\374\210\302!~\301\333\255\321X\270"
 591      92FC88C2 
 591      217EC1DB 
 591      ADD158B8 
 592 05f2 5ABFA5E1 		.ascii	"Z\277\245\341\312\370\364F\275\261\360\323\230\366\222"
 592      CAF8F446 
 592      BDB1F0D3 
 592      98F692
 593 0601 6686885F 		.ascii	"f\206\210_htp\276\260\361\020x\222L\231-v{\241\261\235"
 593      687470BE 
 593      B0F11078 
 593      924C992D 
 593      767BA1B1 
 594 0616 BDD0C0F7 		.ascii	"\275\320\300\367l<\004\032^hHh%\022)nO\375i\010aJA\011"
 594      6C3C041A 
 594      5E684868 
 594      2512296E 
 594      4FFD6908 
ARM GAS  /tmp/cc6maOJ5.s 			page 47


 595 062e CD157175 		.ascii	"\315\025qu4O\274Z\357\373\013\216}_\244\367}\354|\373"
 595      344FBC5A 
 595      EFFB0B8E 
 595      7D5FA4F7 
 595      7DEC7CFB 
 596 0642 1CA4E9AF 		.ascii	"\034\244\351\257\275\357z:\233\303\033\242\257\\i\267"
 596      BDEF7A3A 
 596      9BC31BA2 
 596      AF5C69B7 
 597 0652 AF652C63 		.ascii	"\257e,c\321\035\244\344\324V]\003\017f\246\\\177+\260"
 597      D11DA4E4 
 597      D4565D03 
 597      0F66A65C 
 597      7F2BB0
 598 0665 9AD83C0D 		.ascii	"\232\330<\015L#\374L\307`E\006\260w^\260\367\366LE\372"
 598      4C23FC4C 
 598      C7604506 
 598      B0775EB0 
 598      F7F64C45 
 599 067a 62581416 		.ascii	"bX\024\026\020\271\213y\2464w\355\232B\231\262\330\006"
 599      10B98B79 
 599      A63477ED 
 599      9A4299B2 
 599      D806
 600 068c 5360AB39 		.ascii	"S`\2539\222\253F\013\230\237?I\242\246\361\263\031O"
 600      92AB460B 
 600      989F3F49 
 600      A2A6F1B3 
 600      194F
 601 069e D88BB4CF 		.ascii	"\330\213\264\317\337G\004N+\356\217\362p\016\037z/\310"
 601      DF47044E 
 601      2BEE8FF2 
 601      700E1F7A 
 601      2FC8
 602 06b0 6DFD9D39 		.ascii	"m\375\2359F[\211\261Ck\361f\273\222,\303\223\331|J\322"
 602      465B89B1 
 602      436BF166 
 602      BB922CC3 
 602      93D97C4A 
 603 06c5 3CA3E3F3 		.ascii	"<\243\343\363b\035\237\227\022>\277\012|\206\260\222"
 603      621D9F97 
 603      123EBF0A 
 603      7C86B092 
 604 06d5 E30A3DB7 		.ascii	"\343\012=\267\255\366\373\327E]\265~\326\261\335E\\"
 604      ADF6FBD7 
 604      455DB57E 
 604      D6B1DD45 
 604      5C
 605 06e6 74ACC42C 		.ascii	"t\254\304,\322\213\371\301\016\367\006Y\272\027\322"
 605      D28BF9C1 
 605      0EF70659 
 605      BA17D2
 606 06f5 CAFE06B6 		.ascii	"\312\376\006\266!i/\012\247\3448E4\262\271\363\005\303"
 606      21692F0A 
 606      A7E43845 
 606      34B2B9F3 
 606      05C3
ARM GAS  /tmp/cc6maOJ5.s 			page 48


 607 0707 8614B503 		.ascii	"\206\024\265\0037\304DA\263\217\376E/\004\205<\224\275"
 607      37C44441 
 607      B38FFE45 
 607      2F04853C 
 607      94BD
 608 0719 8E7080DE 		.ascii	"\216p\200\336 \3077\311q=9v\220\343\277\311\361Sr\374"
 608      20C737C9 
 608      713D3976 
 608      90E3BFC9 
 608      F15372FC 
 609 072d 821CCF90 		.ascii	"\202\034\317\220\3439rL\220\343t\022\342&r|\211\034"
 609      E339724C 
 609      90E37412 
 609      E226727C 
 609      891C
 610 073f 1790E32B 		.ascii	"\027\220\343+\344\370\0269\256\261C\000-\321&i\306r"
 610      E4F81639 
 610      AEB14300 
 610      2DD12669 
 610      C672
 611 0751 EEC21EBF 		.ascii	"\356\302\036\277D\376 \365\022YB\253\034\203\361\214"
 611      44FE20F5 
 611      125942AB 
 611      1C83F18C 
 612 0761 327872A1 		.ascii	"2xr\241\316\223\213\210'\027\023o\274\255\267\324\260"
 612      CE938B88 
 612      2717136F 
 612      BCADB7D4 
 612      B0
 613 0772 F2AE14FE 		.ascii	"\362\256\024\376A\213>\025)\226\257\3630\366:\361J\322"
 613      418B3E15 
 613      2996AFF3 
 613      30F63AF1 
 613      4AD2
 614 0784 7391DF41 		.ascii	"s\221\337A\004g\357!\351Nz\346\\\254\317ZU\355\015\361"
 614      0467EF21 
 614      E94E7AE6 
 614      5CACCF5A 
 614      55ED0DF1 
 615 0798 246B7877 		.ascii	"$kxwN\346\337\006\270\367\231\037\221)\033\271\004\031"
 615      4EE6DF06 
 615      B8F7991F 
 615      91291BB9 
 615      0419
 616 07aa 7BA7AE40 		.ascii	"{\247\256@uk\3273'\307\365[\214\333\320\221$f\317\322"
 616      756BD733 
 616      27C7F55B 
 616      8CDBD091 
 616      2466CFD2 
 617 07be E32E1C52 		.ascii	"\343.\034R\373\325\325\372D\374\266\025\304\013md\257"
 617      FBD5D5FA 
 617      44FCB615 
 617      C40B6D64 
 617      AF
 618 07cf 79       		.ascii	"y"
 619 07d0 C9C367B2 		.ascii	"\311\303g\262,\256\266\3122\326VY\271\251N\262\266Z"
 619      2CAEB6CA 
ARM GAS  /tmp/cc6maOJ5.s 			page 49


 619      32D65659 
 619      B9A94EB2 
 619      B65A
 620 07e2 E2E18C70 		.ascii	"\342\341\214p\226\224!6m\277|\373\015U}&\233{\305\213"
 620      96942136 
 620      6DBF7CFB 
 620      0D557D26 
 620      9B7BC58B 
 621 07f6 9FC9AC48 		.ascii	"\237\311\254H\261]\237\267V9\326\240\310\340\306}\332"
 621      B15D9FB7 
 621      5639D6A0 
 621      C8E0C67D 
 621      DA
 622 0807 CAC098A2 		.ascii	"\312\300\230\242\260\316\016X\232\267Q\377\322\203m"
 622      B0CE0E58 
 622      9AB751FF 
 622      D2836D
 623 0816 740C66D4 		.ascii	"t\014f\324\354C=\330V;`i\336\331|\274e\016M\246-\004"
 623      EC433DD8 
 623      563B6069 
 623      DED97CBC 
 623      650E4DA6 
 624 082c 6F8F633C 		.ascii	"o\217c<\243r\035u\206\344|\310\016\\\221\211zf\037\375"
 624      A3721D75 
 624      86E47CC8 
 624      0E5C9189 
 624      7A661FFD 
 625 0840 4A93D026 		.ascii	"J\223\320&\262\207n&\311\263\225\034\267\221\343Nr\334"
 625      B2876E26 
 625      C9B3951C 
 625      B791E34E 
 625      72DC
 626 0852 4D8E7BC9 		.ascii	"M\216{\311q?9\036\260\223`\337MQHB#]i\307\3232`z\335"
 626      713F391E 
 626      B09360DF 
 626      4D514842 
 626      235D69C7 
 627 086b E578B16B 		.ascii	"\345x\261k\356;\314\255\036\216\2758mY\211>$\346[\344"
 627      EE3BCCAD 
 627      1E8EBD38 
 627      6D59893E 
 627      24E65BE4 
 628 087f 8A6EF7AE 		.ascii	"\212n\367\256\022\346\251\261S\361\265\213\3763bzmM"
 628      12E6A9B1 
 628      53F1B58B 
 628      FE33627A 
 628      6D4D
 629 0891 9B7A0AAF 		.ascii	"\233z\012\257:.y\3422\324J\324\307?J\366\334\365\233"
 629      3A2E79E2 
 629      32D44AD4 
 629      C73F4AF6 
 629      DCF59B
 630 08a4 65246FC4 		.ascii	"e$o\304I\366l\314\345\363\306z\276\002\372\311\243\327"
 630      49F66CCC 
 630      E5F3C67A 
 630      BE02FAC9 
 630      A3D7
ARM GAS  /tmp/cc6maOJ5.s 			page 50


 631 08b6 61113D51 		.ascii	"a\021=Qx\215\323\356\032\341eU\215\022\017\356\2004"
 631      788DD3EE 
 631      1AE16555 
 631      8D120FEE 
 631      8034
 632 08c8 93ABCD15 		.ascii	"\223\253\315\025\205Md\334G\342U\2462\222\022\256\023"
 632      854D64DC 
 632      47E255A6 
 632      329212AE 
 632      13
 633 08d9 16E257BB 		.ascii	"\026\342W\273+\352&\367vk\256\026\322L\243\012}*\212"
 633      2BEA26F7 
 633      766BAE16 
 633      D24CA30A 
 633      7D2A8A
 634 08ec 7A7FE020 		.ascii	"z\177\340 6\305c\235u\355P\315\252\337'\022.>\204i\366"
 634      36C5639D 
 634      75ED50CD 
 634      AADF2712 
 634      2E3E8469 
 635 0901 BFE33F4A 		.ascii	"\277\343?J\004\217\377Z\213\340\227$\202m\377\007\021"
 635      048FFF5A 
 635      8BE09724 
 635      826DFF07 
 635      11
 636 0912 FC221541 		.ascii	"\374\"\025AjZ2\255'\277\267\021w\247\276\267p\367\265"
 636      6A5A32AD 
 636      27BFB711 
 636      77A7BEB7 
 636      70F7B5
 637 0925 1FF13802 		.ascii	"\037\3618\002|`E\200\015\277\332\246\021\340\013B\200"
 637      7C604580 
 637      0DBFDAA6 
 637      11E00B42 
 637      80
 638 0936 2364DC31 		.ascii	"#d\3341K\002\020\005\265\311\352~y8K\303\237g\230\266"
 638      4B021005 
 638      B5C9EA7E 
 638      79384BC3 
 638      9F6798B6 
 639 094a 5D37ED3C 		.ascii	"]7\355<\236\246m\266'2L#\246j\323b][\032!\263\212,\323"
 639      9EA66DB6 
 639      27324C23 
 639      A66AD362 
 639      5D5B1A21 
 640 0962 746698DA 		.ascii	"tf\230\332\242\223\270\032K$\371\370l\206Y\203S\364"
 640      A293B81A 
 640      4B24F9F8 
 640      6C865983 
 640      53F4
 641 0974 56819AB5 		.ascii	"V\201\232\265MH\315&D\024\3504\003\035N\2332z]kA\375"
 641      4D48CD26 
 641      4414E834 
 641      031D4E9B 
 641      327A5D6B 
 642 098a C4782271 		.ascii	"\304x\"q\225}:'\214t\326\334\314E\360\274i\004\325i"
 642      957D3A27 
ARM GAS  /tmp/cc6maOJ5.s 			page 51


 642      8C74D6DC 
 642      CC45F0BC 
 642      6904D569 
 643 099e D8366DF8 		.ascii	"\3306m\3707\"\256_/\244\217\035\263N}^\235\334\033%"
 643      3722AE5F 
 643      2FA48F1D 
 643      B34E7D5E 
 643      9DDC1B25 
 644 09b2 6DBBC0DB 		.ascii	"m\273\300\3336\321ef\333\314\255\226\2535]\302\235\354"
 644      36D16566 
 644      DBCCAD96 
 644      AB355DC2 
 644      9DEC
 645 09c4 32B12FF9 		.ascii	"2\261/\371\205\276g\346\354\255\3133\2657Q\306\331;"
 645      85BE67E6 
 645      ECADCB33 
 645      B53751C6 
 645      D93B
 646 09d6 C96587AB 		.ascii	"\311e\207\253k\037\357\303~\032\371;\001\326M\343~\212"
 646      6B1FEFC3 
 646      7E1AF93B 
 646      01D64DE3 
 646      7E8A
 647 09e8 A2EA5037 		.ascii	"\242\352P7q9\316J\0325\364\351\356^\213\237\212\275"
 647      7139CE4A 
 647      1A35F4E9 
 647      EE5E8B9F 
 647      8ABD
 648 09fa D16ECE88 		.ascii	"\321n\316\210t.{!\215\313hu\253\326\251}\027\247\222"
 648      742E7B21 
 648      8DCB6875 
 648      ABD6A97D 
 648      17A792
 649 0a0d 5C6F0681 		.ascii	"\\o\006\201\307\320\034\267y\366\025xs\236\346\302W"
 649      C7D01CB7 
 649      79F61578 
 649      739EE6C2 
 649      57
 650 0a1e A7711EB5 		.ascii	"\247q\036\265\015\323\324\034\275\022\303\274H`f\367"
 650      0DD3D41C 
 650      BD12C3BC 
 650      486066F7 
 651 0a2e 1426DED9 		.ascii	"\024&\336\331\260H\373w\312t\002\264 \217O\270.\256"
 651      B048FB77 
 651      CA7402B4 
 651      208F4FB8 
 651      2EAE
 652 0a40 D476194B 		.ascii	"\324v\031KmWn\252\203\031\370\323\016\346\370\270\302"
 652      6D576EAA 
 652      8319F8D3 
 652      0EE6F8B8 
 652      C2
 653 0a51 948F9041 		.ascii	"\224\217\220A\337\277a{*\2032V>o\213\225\007\245\276"
 653      DFBF617B 
 653      2A833256 
 653      3E6F8B95 
 653      07A5BE
ARM GAS  /tmp/cc6maOJ5.s 			page 52


 654 0a64 2C38EF12 		.ascii	",8\357\022x\3354\203\003\265Q\226\254\264\222F\355\230"
 654      78DD3483 
 654      03B55196 
 654      ACB49246 
 654      ED98
 655 0a76 65BA96BB 		.ascii	"e\272\226\273^x\016\022jM,\221\030\314\257\345\2664"
 655      5E780E12 
 655      6A4D2C91 
 655      18CCAFE5 
 655      B634
 656 0a88 C46C4ABB 		.ascii	"\304lJ\273\2263mV\324\014\316\267\357\231\257\365F>"
 656      96336D56 
 656      D40CCEB7 
 656      EF99AFF5 
 656      463E
 657 0a9a B735DAF2 		.ascii	"\2675\332\362\352!\266/I\350l\206i\272})vf\007\335`"
 657      EA21B62F 
 657      49E86C86 
 657      69BA7D29 
 657      766607DD 
 658 0aaf B4BD692F 		.ascii	"\264\275i/\321\311z\252noR\327\2628Jh\256\213\223\230"
 658      D1C97AAA 
 658      6E6F52D7 
 658      B2384A68 
 658      AE8B9398 
 659 0ac3 268E3524 		.ascii	"&\2165$\006\3172\231B\032y\324\371\013M#\331\034\355"
 659      06CF3299 
 659      421A79D4 
 659      F90B4D23 
 659      D91CED
 660 0ad6 490DB59C 		.ascii	"I\015\265\234\017d\207\223@\332\252:\366\233\307u6\016"
 660      0F648793 
 660      40DAAA3A 
 660      F69BC775 
 660      360E
 661 0ae8 500709D0 		.ascii	"P\007\011\320\021\022\240e\226^\356\320\305\365\000"
 661      1112A065 
 661      965EEED0 
 661      C5F500
 662 0af7 1F57EB69 		.ascii	"\037W\353i\372z\343\007VoH\350\273\014\323\364\365\306"
 662      FA7AE307 
 662      566F48E8 
 662      BB0CD3F4 
 662      F5C6
 663 0b09 EA3D867A 		.ascii	"\352=\206z\3433b\212\365T\263zCB\337g\020h\2507\232"
 663      E333628A 
 663      F554B37A 
 663      4342DF67 
 663      1068A837 
 664 0b1e A3C67A03 		.ascii	"\243\306z\003O\323}$\264\3124\372\365{\035\327\033\353"
 664      4FD37D24 
 664      B4CA34FA 
 664      F57B1DD7 
 664      1BEB
 665 0b30 CC42CFC5 		.ascii	"\314B\317\305\356s\363\3305\360\261kI\037;\213z\243"
 665      EE73F3D8 
 665      35F0B16B 
ARM GAS  /tmp/cc6maOJ5.s 			page 53


 665      491F3B8B 
 665      7AA3
 666 0b42 85B7ED5D 		.ascii	"\205\267\355]\323\2353\261\2271\273\326\343\244\340"
 666      D39D33B1 
 666      9731BBD6 
 666      E3A4E0
 667 0b51 D89896DB 		.ascii	"\330\230\226\333t\207\317\220\224\2761w\300\\\336\001"
 667      7487CF90 
 667      94BE3177 
 667      C05CDE01 
 668 0b61 1BEC9197 		.ascii	"\033\354\221\227\025 \022\232\352\342\246\231\025 \254"
 668      1520129A 
 668      EAE2A699 
 668      1520AC
 669 0b70 BCAB2BB8 		.ascii	"\274\253+\270\337\230Z6\364l\213\260\322\222:l\213)"
 669      DF985A36 
 669      F46C8BB0 
 669      D2923A6C 
 669      8B29
 670 0b82 B5A2079C 		.ascii	"\265\242\007\234\027.\333lp\2536\337\272\226\325\273"
 670      172EDB6C 
 670      70AB36DF 
 670      BA96D5BB 
 671 0b92 B6DD26B7 		.ascii	"\266\335&\2678[\255\246Q\015w\230\332\272zV\217\266"
 671      385BADA6 
 671      510D7798 
 671      DABA7A56 
 671      8FB6
 672 0ba4 C33D6998 		.ascii	"\303=i\230\346\364/S\022\372\232\274'\316\360?\013+"
 672      E6F42F53 
 672      12FA9ABC 
 672      27CEF03F 
 672      0B2B
 673 0bb6 55F6BBF4 		.ascii	"U\366\273\364\177\337t\270\005?g\036\222U|Hv\333b;y"
 673      7FDF74B8 
 673      053F671E 
 673      92557C48 
 673      76DB623B 
 674 0bcb C6C3FAB0 		.ascii	"\306\303\372\260Tm=\215hMs\356\332Y\013R[\260\204\226"
 674      546D3D8D 
 674      684D73EE 
 674      DA590B52 
 674      5BB08496 
 675 0bdf B8D24FD5 		.ascii	"\270\322O\325o\301-\374\026\274\333\346\026\214\343"
 675      6FC12DFC 
 675      16BCDBE6 
 675      168CE3
 676 0bee 6ED882AD 		.ascii	"n\330\202\255\344Q/\0374IT\365\361so\037\034<S\3358"
 676      E4512F1F 
 676      344954F5 
 676      F1736F1F 
 676      1C3C53DD 
 677 0c03 494D249E 		.ascii	"IM$\236r\260\007\307]\326\3571\264\027\342V3\017\273"
 677      72B007C7 
 677      5DD6EF31 
 677      B417E256 
 677      330FBB
ARM GAS  /tmp/cc6maOJ5.s 			page 54


 678 0c16 BABF29D0 		.ascii	"\272\277)\320\370\337m\023\346\"\313\014\371\314\314"
 678      F8DF6D13 
 678      E622CB0C 
 678      F9CCCC
 679 0c25 90D8373B 		.ascii	"\220\3307;\237S\221\266\3505\365D\341\250\005\300QS"
 679      9F5391B6 
 679      E835F544 
 679      E1A805C0 
 679      5153
 680 0c37 80AE9DB0 		.ascii	"\200\256\235\260\216\346\233\256\243ti\3438\277\216"
 680      8EE69BAE 
 680      A37469E3 
 680      38BF8E
 681 0c46 B0811938 		.ascii	"\260\201\0318\373\235\205b_\032\025\363\010S\310\312"
 681      FB9D8562 
 681      5F1A15F3 
 681      0853C8CA 
 682 0c56 9BAC4E44 		.ascii	"\233\254NDU\346+/\365gE\011\235py\000\373\371\002\313"
 682      55E62B2F 
 682      F5674509 
 682      9D707900 
 682      FBF902CB 
 683 0c6a BF1AE201 		.ascii	"\277\032\342\001\370\203\347k}\326\203)\227\010\365"
 683      F883E76B 
 683      7DD68329 
 683      9708F5
 684 0c79 C4E42133 		.ascii	"\304\344!3\012\265\277\037\232q\220,u\327%\244g\370"
 684      0AB5BF1F 
 684      9A71902C 
 684      75D725A4 
 684      67F8
 685 0c8b A70F1961 		.ascii	"\247\017\031a\345\242S\256\324_\034\013rS\035\246(\025"
 685      E5A253AE 
 685      D45F1C0B 
 685      72531DA6 
 685      2815
 686 0c9d 5DC4491E 		.ascii	"]\304I\036\304\306\345P\234N\307\222O[H\316\326\205"
 686      C4C6E550 
 686      9C4EC792 
 686      4F5B48CE 
 686      D685
 687 0caf 3E762A3E 		.ascii	">v*>}J\353\001\362\367n\362F\266\311c\177\035|c\026"
 687      7D4AEB01 
 687      F2F76EF2 
 687      46B6C963 
 687      7F1D7C63 
 688 0cc4 7D2EDA0D 		.ascii	"}.\332\015\005\246\031j/N5x\270(\314##\272,\363\005"
 688      05A6196A 
 688      2F4E3578 
 688      B828CC23 
 688      23BA2CF3 
 689 0cd9 5D3374D3 		.ascii	"]3t\3238\244\336\337'Y\217t\361\365\310Y#\207\270\225"
 689      38A4DEDF 
 689      27598F74 
 689      F1F5C859 
 689      2387B895 
 690 0ced 89178695 		.ascii	"\211\027\206\225-\347R+\223\372\345\314\271S#\226\341"
ARM GAS  /tmp/cc6maOJ5.s 			page 55


 690      2DE7522B 
 690      93FAE5CC 
 690      B9532396 
 690      E1
 691 0cfe 5F73D40B 		.ascii	"_s\324\013\211\247&N\272\213\363\013f\216\025\330\367"
 691      89A7264E 
 691      BA8BF30B 
 691      668E15D8 
 691      F7
 692 0d0f 664F5B9C 		.ascii	"fO[\234c^2w\314z\376\351\351|\372\247'\226\021\325\203"
 692      635E3277 
 692      CC7AFEE9 
 692      E97CFAA7 
 692      279611D5 
 693 0d24 1F61C768 		.ascii	"\037a\307h\3146\314\362\360\214\203\333\027\322\372"
 693      CC36CCF2 
 693      F08C83DB 
 693      17D2FA
 694 0d33 E9781A3F 		.ascii	"\351x\032?Mt\347[\314\3728\315\317\0045n\316\273\261"
 694      4D74E75B 
 694      CCFA38CD 
 694      CF04356E 
 694      CEBBB1
 695 0d46 FA0FB522 		.ascii	"\372\017\265\"\2451V\3173.\235g'\2713\327)\257\245\241"
 695      A53156CF 
 695      332E9D67 
 695      27B933D7 
 695      29AFA5A1 
 696 0d5a 9C7E53AC 		.ascii	"\234~S\254u\333\251Sx\317\352f\231y\266\316m\360\254"
 696      75DBA953 
 696      78CFEA66 
 696      9979B6CE 
 696      6DF0AC
 697 0d6d 30A8B83C 		.ascii	"0\250\270<X)\027\373\202e\023\212\313\344\261\305\276"
 697      582917FB 
 697      8265138A 
 697      CBE4B1C5 
 697      BE
 698 0d7e 727FA93F 		.ascii	"r\177\251?\030)V\302\325\2011\305\320\011+\305\376\200"
 698      182956C2 
 698      D58131C5 
 698      D0092BC5 
 698      FE80
 699 0d90 AFA2BA0C 		.ascii	"\257\242\272\014\006\225G&D\224\011!9\322\257\\\350"
 699      06954726 
 699      44940921 
 699      39D2AF5C 
 699      E8
 700 0da1 A5948765 		.ascii	"\245\224\207e\251,\342\255\252\226\253e\257\222=\354"
 700      A92CE2AD 
 700      AA96AB65 
 700      AF923DEC 
 701 0db1 BE914577 		.ascii	"\276\221Ew\013\275}\345^\303\235\001\316\004\370\312"
 701      0BBD7DE5 
 701      5EC39D01 
 701      CE04F8CA 
 702 0dc1 CB00DCA3 		.ascii	"\313\000\334\243Ax\225\334$\\v\310\033\220\307+p\012"
ARM GAS  /tmp/cc6maOJ5.s 			page 56


 702      417895DC 
 702      245C76C8 
 702      1B90C72B 
 702      700A
 703 0dd3 85E5B1C3 		.ascii	"\205\345\261\303m\240\206\202a%R|\327\203\367\336}\357"
 703      6DA08682 
 703      6125527C 
 703      D783F7DE 
 703      7DEF
 704 0de5 78185919 		.ascii	"x\030Y\031\362W\310\341H\361\260\273\357\206\341\314"
 704      F257C8E1 
 704      48F1B0BB 
 704      EF86E1CC 
 705 0df5 8C1C2514 		.ascii	"\214\034%\024\366\007\275\3125\305\325\221p\261\024"
 705      F607BDCA 
 705      35C5D591 
 705      70B114
 706 0e04 AEBC2110 		.ascii	"\256\274!\020\014\3107\310R\251?\251VD)\363\007\024"
 706      0CC837C8 
 706      52A93FA9 
 706      564429F3 
 706      0714
 707 0e16 AC56359C 		.ascii	"\254V5\234o\276\311\253\014H3\272R\002e\002r\261\267"
 707      6FBEC9AB 
 707      0C4833BA 
 707      52026502 
 707      72B1B7
 708 0e29 4C1E2555 		.ascii	"L\036%UW(^&*\317\353e\363\211\025\376`\216/\030P\300"
 708      57285E26 
 708      2ACFEB65 
 708      F38915FE 
 708      608E2F18 
 709 0e3f A85B1D5B 		.ascii	"\250[\035[S\356\013\206e\300\314\307\227\275\200\352"
 709      53EE0B86 
 709      65C0CCC7 
 709      97BD80EA 
 710 0e4f 53C6FFBE 		.ascii	"S\306\377\276g(\336\261\267Tb\333\302\362h0\310\253"
 710      6728DEB1 
 710      B75462DB 
 710      C2F26830 
 710      C8AB
 711 0e61 88E10162 		.ascii	"\210\341\001b\370wbx\240\030\276E\014\017\022\303\267"
 711      F8776278 
 711      A018BE45 
 711      0C0F12C3 
 711      B7
 712 0e72 BAC237F6 		.ascii	"\272\3027\366\207v\243X\021\206\323\315Y!/H\313\301"
 712      8776A358 
 712      1186D3CD 
 712      59212F48 
 712      CBC1
 713 0e84 F1182787 		.ascii	"\361\030'\207\341\034\254(\223\303n_\271\024\306A\222"
 713      E11CAC28 
 713      93C36E5F 
 713      B914C641 
 713      92
 714 0e95 2A658F12 		.ascii	"*e\217\022Q$\005H\221\203\015\036\004a\324L\207\036"
ARM GAS  /tmp/cc6maOJ5.s 			page 57


 714      51240548 
 714      91830D1E 
 714      0461D44C 
 714      871E
 715 0ea7 0C27F772 		.ascii	"\014'\367r\224\312`\231L\276\217\252\220FGr\224\260"
 715      94CA6099 
 715      4CBE8FAA 
 715      90464772 
 715      94B0
 716 0eb9 3C2A423C 		.ascii	"<*B<\203;Y\225\221\321p\223\272\013\2463\307\205\313"
 716      833B5995 
 716      91D17093 
 716      BA0BA633 
 716      C785CB
 717 0ecc 26C02D8F 		.ascii	"&\300-\217<\336\257\200\241r\3668%X\372D(_\036+\007"
 717      3CDEAF80 
 717      A172F638 
 717      2558FA44 
 717      285F1E2B 
 718 0ee1 944A2932 		.ascii	"\224J)2\006\206\310\343p\307\025\362V\0272&V\370#\020"
 718      0686C8E3 
 718      70C715F2 
 718      56173226 
 718      56F82310 
 719 0ef5 875E3A6E 		.ascii	"\207^:n\342+\271!\3578\311\257\370\003\243\363B^@%|"
 719      E22BB921 
 719      EF38C9AF 
 719      F803A3F3 
 719      425E4025 
 720 0f0a CD225DB8 		.ascii	"\315\"]\270 \207\344\000\304}tVe5\304\350fG4\256T\306"
 720      2087E400 
 720      C47D7456 
 720      6535C4E8 
 720      664734AE 
 721 0f20 636E556A 		.ascii	"cnUjK\000\316\301q\001p\025A\002\015+\011\225A<\214"
 721      4B00CEC1 
 721      71017015 
 721      41020D2B 
 721      0995413C 
 722 0f35 C38AE461 		.ascii	"\303\212\344a\243\245\012B\011\270\030\012\006+\006"
 722      A3A50A42 
 722      09B8180A 
 722      062B06
 723 0f44 3A9247C4 		.ascii	":\222G\304\020\216\001\227\351\202\364\260nn\0253\363"
 723      108E0197 
 723      E982F4B0 
 723      6E6E1533 
 723      F3
 724 0f55 2642DB0A 		.ascii	"&B\333\012\177i\361h\237\217\243\357\200~\203\372\015"
 724      7F69F168 
 724      9F8FA3EF 
 724      807E83FA 
 724      0D
 725 0f66 D0531EE8 		.ascii	"\320S\036\350\013\200\331\021\377_\001\0140|\301j k"
 725      0B80D911 
 725      FF5F010C 
 725      307CC16A 
ARM GAS  /tmp/cc6maOJ5.s 			page 58


 725      206B
 726 0f78 D853E52D 		.ascii	"\330S\345-\255\0365J\016gUy\225`(\007\300\303!%\014"
 726      AD1E354A 
 726      0E675579 
 726      95602807 
 726      C0C32125 
 727 0f8d E770199C 		.ascii	"\347p\031\234\341v \250\370GM\310\256\002\037\007\306"
 727      E17620A8 
 727      F8474DC8 
 727      AE021F07 
 727      C6
 728 0f9e E456     		.ascii	"\344V"
 729 0fa0 695FBDCA 		.ascii	"i_\275\312M6,\212\204})k|Ba\260Z\011U+\314\242+|\345"
 729      4D362C8A 
 729      847D296B 
 729      7C4261B0 
 729      5A09552B 
 730 0fb9 231EB8BF 		.ascii	"#\036\270\277Zy\330_)\303\235~!)\254\364\273\311\025"
 730      5A79D85F 
 730      29C39D7E 
 730      2129ACF4 
 730      BBC915
 731 0fcc AC0AFDCC 		.ascii	"\254\012\375\314\037\320\215+\364\225\227<0\242\364"
 731      1FD08D2B 
 731      F495973C 
 731      30A2F4
 732 0fdb 09D9A794 		.ascii	"\011\331\247\224\004\374\212\313_\025\022KCnl\211\333"
 732      04FC8ACB 
 732      5F15124B 
 732      436E6C89 
 732      DB
 733 0fec 1F1835C1 		.ascii	"\037\0305\301\215\025\313\303\203\036\224#\262R\342"
 733      8D15CBC3 
 733      831E9423 
 733      B252E2
 734 0ffb C15DC02D 		.ascii	"\301]\300-A"
 734      41
 735 1000 A5B938C3 		.ascii	"\245\2718\303\001<\270\017\023\366\306\201^\205.[\334"
 735      013CB80F 
 735      13F6C681 
 735      5E852E5B 
 735      DC
 736 1011 25C0C364 		.ascii	"%\300\303d\246\200\033\217\354\245\341He\364\"\012\024"
 736      A6801B8F 
 736      ECA5E148 
 736      65F4220A 
 736      14
 737 1022 623553E2 		.ascii	"b5S\342\335A\020\231\207\257i\322\012\215Vx\360W\300"
 737      DD411099 
 737      87AF69D2 
 737      0A8D5678 
 737      F057C0
 738 1035 2CE98D3B 		.ascii	",\351\215;\217\204\375\212L\357\334\342\210\002\224"
 738      8F84FD8A 
 738      4CEFDCE2 
 738      880294
 739 1044 D8103200 		.ascii	"\330\0202\000z\270\274\354\2172\361\306]\025\025%\227"
ARM GAS  /tmp/cc6maOJ5.s 			page 59


 739      7AB8BCEC 
 739      8F32F1C6 
 739      5D151525 
 739      97
 740 1055 E82FDC07 		.ascii	"\350/\334\007\314+\271\234\\\031\032 W\250\270\207\262"
 740      CC2BB99C 
 740      5C191A20 
 740      57A8B887 
 740      B2
 741 1066 BC7F00E2 		.ascii	"\274\177\000\342\345iN\364c\307)U\241|l^I\344O\325\200"
 741      E5694EF4 
 741      63C72955 
 741      A17C6C5E 
 741      49E44FD5 
 742 107b 5380352C 		.ascii	"S\2005,\211\014\255\014)\023J\376\013e \304\345"
 742      890CAD0C 
 742      29134AFE 
 742      0B6520C4 
 742      E5
 743              		.text
 744              		.section	.gnu.lto_.symtab.54745dcc9bc095d5,"",%progbits
 745 0000 63684951 		.ascii	"chIQObjectInit\000\000\000\000\000\000\000\000\000\000"
 745      4F626A65 
 745      6374496E 
 745      69740000 
 745      00000000 
 746 0018 00006701 		.ascii	"\000\000g\001\000\000chIQResetI\000\000\000\000\000"
 746      00006368 
 746      49515265 
 746      73657449 
 746      00000000 
 747 002d 00000000 		.ascii	"\000\000\000\000\000\000\000~\001\000\000chIQPutI\000"
 747      0000007E 
 747      01000063 
 747      68495150 
 747      75744900 
 748 0041 00000000 		.ascii	"\000\000\000\000\000\000\000\000\000\000\000\204\001"
 748      00000000 
 748      00000084 
 748      01
 749 004e 00006368 		.ascii	"\000\000chIQGetTimeout\000\000\000\000\000\000\000\000"
 749      49514765 
 749      7454696D 
 749      656F7574 
 749      00000000 
 750 0066 00000000 		.ascii	"\000\000\000\000\215\001\000\000chIQReadTimeout\000"
 750      8D010000 
 750      63684951 
 750      52656164 
 750      54696D65 
 751 007e 00000000 		.ascii	"\000\000\000\000\000\000\000\000\000\000\000\237\001"
 751      00000000 
 751      0000009F 
 751      01
 752 008b 00006368 		.ascii	"\000\000chOQObjectInit\000\000\000\000\000\000\000\000"
 752      4F514F62 
 752      6A656374 
ARM GAS  /tmp/cc6maOJ5.s 			page 60


 752      496E6974 
 752      00000000 
 753 00a3 00000000 		.ascii	"\000\000\000\000\254\001\000\000chOQResetI\000\000\000"
 753      AC010000 
 753      63684F51 
 753      52657365 
 753      74490000 
 754 00b8 00000000 		.ascii	"\000\000\000\000\000\000\000\000\000\273\001\000\000"
 754      00000000 
 754      00BB0100 
 754      00
 755 00c5 63684F51 		.ascii	"chOQPutTimeout\000\000\000\000\000\000\000\000\000\000"
 755      50757454 
 755      696D656F 
 755      75740000 
 755      00000000 
 756 00dd 0000C101 		.ascii	"\000\000\301\001\000\000chOQGetI\000\000\000\000\000"
 756      00006368 
 756      4F514765 
 756      74490000 
 756      000000
 757 00f0 00000000 		.ascii	"\000\000\000\000\000\000\000\313\001\000\000chOQWri"
 757      000000CB 
 757      01000063 
 757      684F5157 
 757      7269
 758 0102 74655469 		.ascii	"teTimeout\000\000\000\000\000\000\000\000\000\000\000"
 758      6D656F75 
 758      74000000 
 758      00000000 
 758      00000000 
 759 0116 00D10100 		.ascii	"\000\321\001\000\000chThdDequeueAllI\000\000\002\000"
 759      00636854 
 759      68644465 
 759      71756575 
 759      65416C6C 
 760 012f 00000000 		.ascii	"\000\000\000\000\000\000\000\000\337\001\000\000chT"
 760      00000000 
 760      DF010000 
 760      636854
 761 013e 68644465 		.ascii	"hdDequeueNextI\000\000\002\000\000\000\000\000\000\000"
 761      71756575 
 761      654E6578 
 761      74490000 
 761      02000000 
 762 0156 0000E501 		.ascii	"\000\000\345\001\000\000chThdEnqueueTimeoutS\000\000"
 762      00006368 
 762      54686445 
 762      6E717565 
 762      75655469 
 763 0172 02000000 		.ascii	"\002\000\000\000\000\000\000\000\000\000\347\001\000"
 763      00000000 
 763      0000E701 
 763      00
 764 017f 00       		.ascii	"\000"
 765              		.text
 766              		.section	.gnu.lto_.opts,"",%progbits
ARM GAS  /tmp/cc6maOJ5.s 			page 61


 767 0000 272D6D63 		.ascii	"'-mcpu=cortex-m3' '-mno-thumb-interwork' '-mthumb' "
 767      70753D63 
 767      6F727465 
 767      782D6D33 
 767      2720272D 
 768 0033 272D4F32 		.ascii	"'-O2' '-fomit-frame-pointer' '-falign-functions=16'"
 768      2720272D 
 768      666F6D69 
 768      742D6672 
 768      616D652D 
 769 0066 20272D66 		.ascii	" '-ffunction-sections' '-fdata-sections' '-fno-comm"
 769      66756E63 
 769      74696F6E 
 769      2D736563 
 769      74696F6E 
 770 0099 6F6E2720 		.ascii	"on' '-flto'\000"
 770      272D666C 
 770      746F2700 
 771              		.text
 772              		.section	.text.chIQObjectInit,"ax",%progbits
 773              		.align	2
 774              		.p2align 4,,15
 775              		.global	chIQObjectInit
 776              		.thumb
 777              		.thumb_func
 778              		.type	chIQObjectInit, %function
 779              	chIQObjectInit:
 780              		@ args = 4, pretend = 0, frame = 0
 781              		@ frame_needed = 0, uses_anonymous_args = 0
 782              		@ link register save eliminated.
 783 0000 30B4     		push	{r4, r5}
 784 0002 029C     		ldr	r4, [sp, #8]
 785 0004 0025     		movs	r5, #0
 786 0006 0A44     		add	r2, r2, r1
 787 0008 8560     		str	r5, [r0, #8]
 788 000a 0462     		str	r4, [r0, #32]
 789 000c 0261     		str	r2, [r0, #16]
 790 000e 4060     		str	r0, [r0, #4]
 791 0010 0060     		str	r0, [r0]
 792 0012 4161     		str	r1, [r0, #20]
 793 0014 8161     		str	r1, [r0, #24]
 794 0016 C160     		str	r1, [r0, #12]
 795 0018 C361     		str	r3, [r0, #28]
 796 001a 30BC     		pop	{r4, r5}
 797 001c 7047     		bx	lr
 798              		.size	chIQObjectInit, .-chIQObjectInit
 799 001e 00BF     		.section	.text.chIQResetI,"ax",%progbits
 800              		.align	2
 801              		.p2align 4,,15
 802              		.global	chIQResetI
 803              		.thumb
 804              		.thumb_func
 805              		.type	chIQResetI, %function
 806              	chIQResetI:
 807              		@ args = 0, pretend = 0, frame = 0
 808              		@ frame_needed = 0, uses_anonymous_args = 0
 809              		@ link register save eliminated.
ARM GAS  /tmp/cc6maOJ5.s 			page 62


 810 0000 C268     		ldr	r2, [r0, #12]
 811 0002 0021     		movs	r1, #0
 812 0004 8160     		str	r1, [r0, #8]
 813 0006 4261     		str	r2, [r0, #20]
 814 0008 8261     		str	r2, [r0, #24]
 815 000a 6FF00101 		mvn	r1, #1
 816 000e FFF7FEBF 		b	chThdDequeueAllI
 817              		.size	chIQResetI, .-chIQResetI
 818 0012 00BFAFF3 		.section	.text.chIQPutI,"ax",%progbits
 818      0080AFF3 
 818      0080AFF3 
 818      0080
 819              		.align	2
 820              		.p2align 4,,15
 821              		.global	chIQPutI
 822              		.thumb
 823              		.thumb_func
 824              		.type	chIQPutI, %function
 825              	chIQPutI:
 826              		@ args = 0, pretend = 0, frame = 0
 827              		@ frame_needed = 0, uses_anonymous_args = 0
 828 0000 8269     		ldr	r2, [r0, #24]
 829 0002 4369     		ldr	r3, [r0, #20]
 830 0004 10B5     		push	{r4, lr}
 831 0006 9342     		cmp	r3, r2
 832 0008 8268     		ldr	r2, [r0, #8]
 833 000a 0FD0     		beq	.L12
 834              	.L6:
 835 000c 0132     		adds	r2, r2, #1
 836 000e 5C1C     		adds	r4, r3, #1
 837 0010 8260     		str	r2, [r0, #8]
 838 0012 4461     		str	r4, [r0, #20]
 839 0014 1970     		strb	r1, [r3]
 840 0016 4269     		ldr	r2, [r0, #20]
 841 0018 0369     		ldr	r3, [r0, #16]
 842 001a 9A42     		cmp	r2, r3
 843 001c 01D3     		bcc	.L8
 844 001e C368     		ldr	r3, [r0, #12]
 845 0020 4361     		str	r3, [r0, #20]
 846              	.L8:
 847 0022 0021     		movs	r1, #0
 848 0024 FFF7FEFF 		bl	chThdDequeueNextI
 849 0028 0020     		movs	r0, #0
 850 002a 10BD     		pop	{r4, pc}
 851              	.L12:
 852 002c 002A     		cmp	r2, #0
 853 002e EDD0     		beq	.L6
 854 0030 6FF00300 		mvn	r0, #3
 855 0034 10BD     		pop	{r4, pc}
 856              		.size	chIQPutI, .-chIQPutI
 857 0036 00BFAFF3 		.section	.text.chIQGetTimeout,"ax",%progbits
 857      0080AFF3 
 857      0080
 858              		.align	2
 859              		.p2align 4,,15
 860              		.global	chIQGetTimeout
 861              		.thumb
ARM GAS  /tmp/cc6maOJ5.s 			page 63


 862              		.thumb_func
 863              		.type	chIQGetTimeout, %function
 864              	chIQGetTimeout:
 865              		@ args = 0, pretend = 0, frame = 0
 866              		@ frame_needed = 0, uses_anonymous_args = 0
 867 0000 70B5     		push	{r4, r5, r6, lr}
 868 0002 2023     		movs	r3, #32
 869 0004 0E46     		mov	r6, r1
 870 0006 0446     		mov	r4, r0
 871              	@ 546 "/home/cody/dev/chibios/trunk/os/ext/CMSIS/include/core_cmFunc.h" 1
 872 0008 83F31188 		MSR basepri, r3
 873              	@ 0 "" 2
 874              		.thumb
 875 000c C369     		ldr	r3, [r0, #28]
 876 000e 2BB1     		cbz	r3, .L16
 877 0010 9847     		blx	r3
 878 0012 03E0     		b	.L16
 879              	.L18:
 880 0014 FFF7FEFF 		bl	chThdEnqueueTimeoutS
 881 0018 0028     		cmp	r0, #0
 882 001a 15DB     		blt	.L23
 883              	.L16:
 884 001c A568     		ldr	r5, [r4, #8]
 885 001e 2046     		mov	r0, r4
 886 0020 3146     		mov	r1, r6
 887 0022 002D     		cmp	r5, #0
 888 0024 F6D0     		beq	.L18
 889 0026 A269     		ldr	r2, [r4, #24]
 890 0028 2169     		ldr	r1, [r4, #16]
 891 002a 531C     		adds	r3, r2, #1
 892 002c 8B42     		cmp	r3, r1
 893 002e A361     		str	r3, [r4, #24]
 894 0030 05F1FF35 		add	r5, r5, #-1
 895 0034 28BF     		it	cs
 896 0036 E368     		ldrcs	r3, [r4, #12]
 897 0038 A560     		str	r5, [r4, #8]
 898 003a 1078     		ldrb	r0, [r2]	@ zero_extendqisi2
 899 003c 28BF     		it	cs
 900 003e A361     		strcs	r3, [r4, #24]
 901 0040 0023     		movs	r3, #0
 902              	@ 546 "/home/cody/dev/chibios/trunk/os/ext/CMSIS/include/core_cmFunc.h" 1
 903 0042 83F31188 		MSR basepri, r3
 904              	@ 0 "" 2
 905              		.thumb
 906 0046 70BD     		pop	{r4, r5, r6, pc}
 907              	.L23:
 908              	@ 546 "/home/cody/dev/chibios/trunk/os/ext/CMSIS/include/core_cmFunc.h" 1
 909 0048 85F31188 		MSR basepri, r5
 910              	@ 0 "" 2
 911              		.thumb
 912 004c 70BD     		pop	{r4, r5, r6, pc}
 913              		.size	chIQGetTimeout, .-chIQGetTimeout
 914 004e 00BF     		.section	.text.chIQReadTimeout,"ax",%progbits
 915              		.align	2
 916              		.p2align 4,,15
 917              		.global	chIQReadTimeout
 918              		.thumb
ARM GAS  /tmp/cc6maOJ5.s 			page 64


 919              		.thumb_func
 920              		.type	chIQReadTimeout, %function
 921              	chIQReadTimeout:
 922              		@ args = 0, pretend = 0, frame = 0
 923              		@ frame_needed = 0, uses_anonymous_args = 0
 924 0000 2DE9F84F 		push	{r3, r4, r5, r6, r7, r8, r9, r10, fp, lr}
 925 0004 0446     		mov	r4, r0
 926 0006 1D46     		mov	r5, r3
 927 0008 D0F81C80 		ldr	r8, [r0, #28]
 928 000c 4FF0200B 		mov	fp, #32
 929              	@ 546 "/home/cody/dev/chibios/trunk/os/ext/CMSIS/include/core_cmFunc.h" 1
 930 0010 8BF31188 		MSR basepri, fp
 931              	@ 0 "" 2
 932              		.thumb
 933 0014 0026     		movs	r6, #0
 934 0016 01EB020A 		add	r10, r1, r2
 935 001a 01F10109 		add	r9, r1, #1
 936              	.L31:
 937 001e B8F1000F 		cmp	r8, #0
 938 0022 05D0     		beq	.L27
 939 0024 2046     		mov	r0, r4
 940 0026 C047     		blx	r8
 941 0028 02E0     		b	.L27
 942              	.L29:
 943 002a FFF7FEFF 		bl	chThdEnqueueTimeoutS
 944 002e F0B9     		cbnz	r0, .L35
 945              	.L27:
 946 0030 A768     		ldr	r7, [r4, #8]
 947 0032 2046     		mov	r0, r4
 948 0034 2946     		mov	r1, r5
 949 0036 002F     		cmp	r7, #0
 950 0038 F7D0     		beq	.L29
 951 003a A269     		ldr	r2, [r4, #24]
 952 003c 7B1E     		subs	r3, r7, #1
 953 003e 511C     		adds	r1, r2, #1
 954 0040 A161     		str	r1, [r4, #24]
 955 0042 A360     		str	r3, [r4, #8]
 956 0044 1378     		ldrb	r3, [r2]	@ zero_extendqisi2
 957 0046 09F8013C 		strb	r3, [r9, #-1]
 958 004a 2369     		ldr	r3, [r4, #16]
 959 004c A269     		ldr	r2, [r4, #24]
 960 004e 9A42     		cmp	r2, r3
 961 0050 24BF     		itt	cs
 962 0052 E368     		ldrcs	r3, [r4, #12]
 963 0054 A361     		strcs	r3, [r4, #24]
 964 0056 0023     		movs	r3, #0
 965              	@ 546 "/home/cody/dev/chibios/trunk/os/ext/CMSIS/include/core_cmFunc.h" 1
 966 0058 83F31188 		MSR basepri, r3
 967              	@ 0 "" 2
 968              		.thumb
 969 005c D145     		cmp	r9, r10
 970 005e 06F10106 		add	r6, r6, #1
 971 0062 06D0     		beq	.L28
 972              	@ 546 "/home/cody/dev/chibios/trunk/os/ext/CMSIS/include/core_cmFunc.h" 1
 973 0064 8BF31188 		MSR basepri, fp
 974              	@ 0 "" 2
 975              		.thumb
ARM GAS  /tmp/cc6maOJ5.s 			page 65


 976 0068 09F10109 		add	r9, r9, #1
 977 006c D7E7     		b	.L31
 978              	.L35:
 979              	@ 546 "/home/cody/dev/chibios/trunk/os/ext/CMSIS/include/core_cmFunc.h" 1
 980 006e 87F31188 		MSR basepri, r7
 981              	@ 0 "" 2
 982              		.thumb
 983              	.L28:
 984 0072 3046     		mov	r0, r6
 985 0074 BDE8F88F 		pop	{r3, r4, r5, r6, r7, r8, r9, r10, fp, pc}
 986              		.size	chIQReadTimeout, .-chIQReadTimeout
 987 0078 AFF30080 		.section	.text.chOQObjectInit,"ax",%progbits
 987      AFF30080 
 988              		.align	2
 989              		.p2align 4,,15
 990              		.global	chOQObjectInit
 991              		.thumb
 992              		.thumb_func
 993              		.type	chOQObjectInit, %function
 994              	chOQObjectInit:
 995              		@ args = 4, pretend = 0, frame = 0
 996              		@ frame_needed = 0, uses_anonymous_args = 0
 997              		@ link register save eliminated.
 998 0000 30B4     		push	{r4, r5}
 999 0002 029C     		ldr	r4, [sp, #8]
 1000 0004 8D18     		adds	r5, r1, r2
 1001 0006 0561     		str	r5, [r0, #16]
 1002 0008 0462     		str	r4, [r0, #32]
 1003 000a 4060     		str	r0, [r0, #4]
 1004 000c 0060     		str	r0, [r0]
 1005 000e 8260     		str	r2, [r0, #8]
 1006 0010 4161     		str	r1, [r0, #20]
 1007 0012 8161     		str	r1, [r0, #24]
 1008 0014 C160     		str	r1, [r0, #12]
 1009 0016 C361     		str	r3, [r0, #28]
 1010 0018 30BC     		pop	{r4, r5}
 1011 001a 7047     		bx	lr
 1012              		.size	chOQObjectInit, .-chOQObjectInit
 1013 001c AFF30080 		.section	.text.chOQResetI,"ax",%progbits
 1014              		.align	2
 1015              		.p2align 4,,15
 1016              		.global	chOQResetI
 1017              		.thumb
 1018              		.thumb_func
 1019              		.type	chOQResetI, %function
 1020              	chOQResetI:
 1021              		@ args = 0, pretend = 0, frame = 0
 1022              		@ frame_needed = 0, uses_anonymous_args = 0
 1023              		@ link register save eliminated.
 1024 0000 C268     		ldr	r2, [r0, #12]
 1025 0002 0169     		ldr	r1, [r0, #16]
 1026 0004 4261     		str	r2, [r0, #20]
 1027 0006 891A     		subs	r1, r1, r2
 1028 0008 8160     		str	r1, [r0, #8]
 1029 000a 8261     		str	r2, [r0, #24]
 1030 000c 6FF00101 		mvn	r1, #1
 1031 0010 FFF7FEBF 		b	chThdDequeueAllI
ARM GAS  /tmp/cc6maOJ5.s 			page 66


 1032              		.size	chOQResetI, .-chOQResetI
 1033 0014 AFF30080 		.section	.text.chOQPutTimeout,"ax",%progbits
 1033      AFF30080 
 1033      AFF30080 
 1034              		.align	2
 1035              		.p2align 4,,15
 1036              		.global	chOQPutTimeout
 1037              		.thumb
 1038              		.thumb_func
 1039              		.type	chOQPutTimeout, %function
 1040              	chOQPutTimeout:
 1041              		@ args = 0, pretend = 0, frame = 0
 1042              		@ frame_needed = 0, uses_anonymous_args = 0
 1043 0000 F8B5     		push	{r3, r4, r5, r6, r7, lr}
 1044 0002 0446     		mov	r4, r0
 1045 0004 0F46     		mov	r7, r1
 1046 0006 1646     		mov	r6, r2
 1047 0008 2023     		movs	r3, #32
 1048              	@ 546 "/home/cody/dev/chibios/trunk/os/ext/CMSIS/include/core_cmFunc.h" 1
 1049 000a 83F31188 		MSR basepri, r3
 1050              	@ 0 "" 2
 1051              		.thumb
 1052 000e 03E0     		b	.L39
 1053              	.L42:
 1054 0010 FFF7FEFF 		bl	chThdEnqueueTimeoutS
 1055 0014 0028     		cmp	r0, #0
 1056 0016 18DB     		blt	.L48
 1057              	.L39:
 1058 0018 A568     		ldr	r5, [r4, #8]
 1059 001a 2046     		mov	r0, r4
 1060 001c 3146     		mov	r1, r6
 1061 001e 002D     		cmp	r5, #0
 1062 0020 F6D0     		beq	.L42
 1063 0022 6369     		ldr	r3, [r4, #20]
 1064 0024 013D     		subs	r5, r5, #1
 1065 0026 5A1C     		adds	r2, r3, #1
 1066 0028 6261     		str	r2, [r4, #20]
 1067 002a A560     		str	r5, [r4, #8]
 1068 002c 1F70     		strb	r7, [r3]
 1069 002e 2369     		ldr	r3, [r4, #16]
 1070 0030 6269     		ldr	r2, [r4, #20]
 1071 0032 9A42     		cmp	r2, r3
 1072 0034 24BF     		itt	cs
 1073 0036 E368     		ldrcs	r3, [r4, #12]
 1074 0038 6361     		strcs	r3, [r4, #20]
 1075 003a E369     		ldr	r3, [r4, #28]
 1076 003c 0BB1     		cbz	r3, .L44
 1077 003e 2046     		mov	r0, r4
 1078 0040 9847     		blx	r3
 1079              	.L44:
 1080 0042 0020     		movs	r0, #0
 1081              	@ 546 "/home/cody/dev/chibios/trunk/os/ext/CMSIS/include/core_cmFunc.h" 1
 1082 0044 80F31188 		MSR basepri, r0
 1083              	@ 0 "" 2
 1084              		.thumb
 1085 0048 F8BD     		pop	{r3, r4, r5, r6, r7, pc}
 1086              	.L48:
ARM GAS  /tmp/cc6maOJ5.s 			page 67


 1087              	@ 546 "/home/cody/dev/chibios/trunk/os/ext/CMSIS/include/core_cmFunc.h" 1
 1088 004a 85F31188 		MSR basepri, r5
 1089              	@ 0 "" 2
 1090              		.thumb
 1091 004e F8BD     		pop	{r3, r4, r5, r6, r7, pc}
 1092              		.size	chOQPutTimeout, .-chOQPutTimeout
 1093              		.section	.text.chOQGetI,"ax",%progbits
 1094              		.align	2
 1095              		.p2align 4,,15
 1096              		.global	chOQGetI
 1097              		.thumb
 1098              		.thumb_func
 1099              		.type	chOQGetI, %function
 1100              	chOQGetI:
 1101              		@ args = 0, pretend = 0, frame = 0
 1102              		@ frame_needed = 0, uses_anonymous_args = 0
 1103 0000 4269     		ldr	r2, [r0, #20]
 1104 0002 8369     		ldr	r3, [r0, #24]
 1105 0004 10B5     		push	{r4, lr}
 1106 0006 9A42     		cmp	r2, r3
 1107 0008 8268     		ldr	r2, [r0, #8]
 1108 000a 0ED0     		beq	.L57
 1109              	.L52:
 1110 000c 0169     		ldr	r1, [r0, #16]
 1111 000e 541C     		adds	r4, r2, #1
 1112 0010 5A1C     		adds	r2, r3, #1
 1113 0012 8460     		str	r4, [r0, #8]
 1114 0014 8261     		str	r2, [r0, #24]
 1115 0016 8A42     		cmp	r2, r1
 1116 0018 1C78     		ldrb	r4, [r3]	@ zero_extendqisi2
 1117 001a 01D3     		bcc	.L54
 1118 001c C368     		ldr	r3, [r0, #12]
 1119 001e 8361     		str	r3, [r0, #24]
 1120              	.L54:
 1121 0020 0021     		movs	r1, #0
 1122 0022 FFF7FEFF 		bl	chThdDequeueNextI
 1123 0026 2046     		mov	r0, r4
 1124 0028 10BD     		pop	{r4, pc}
 1125              	.L57:
 1126 002a 002A     		cmp	r2, #0
 1127 002c EED0     		beq	.L52
 1128 002e 6FF00200 		mvn	r0, #2
 1129 0032 10BD     		pop	{r4, pc}
 1130              		.size	chOQGetI, .-chOQGetI
 1131 0034 AFF30080 		.section	.text.chOQWriteTimeout,"ax",%progbits
 1131      AFF30080 
 1131      AFF30080 
 1132              		.align	2
 1133              		.p2align 4,,15
 1134              		.global	chOQWriteTimeout
 1135              		.thumb
 1136              		.thumb_func
 1137              		.type	chOQWriteTimeout, %function
 1138              	chOQWriteTimeout:
 1139              		@ args = 0, pretend = 0, frame = 8
 1140              		@ frame_needed = 0, uses_anonymous_args = 0
 1141 0000 2DE9F04F 		push	{r4, r5, r6, r7, r8, r9, r10, fp, lr}
ARM GAS  /tmp/cc6maOJ5.s 			page 68


 1142 0004 83B0     		sub	sp, sp, #12
 1143 0006 0446     		mov	r4, r0
 1144 0008 8B46     		mov	fp, r1
 1145 000a 1646     		mov	r6, r2
 1146 000c 0193     		str	r3, [sp, #4]
 1147 000e D0F81C80 		ldr	r8, [r0, #28]
 1148 0012 4FF0200A 		mov	r10, #32
 1149              	@ 546 "/home/cody/dev/chibios/trunk/os/ext/CMSIS/include/core_cmFunc.h" 1
 1150 0016 8AF31188 		MSR basepri, r10
 1151              	@ 0 "" 2
 1152              		.thumb
 1153 001a 0027     		movs	r7, #0
 1154 001c B946     		mov	r9, r7
 1155              	.L59:
 1156 001e A568     		ldr	r5, [r4, #8]
 1157 0020 0BF1010A 		add	r10, fp, #1
 1158 0024 2046     		mov	r0, r4
 1159 0026 6A1E     		subs	r2, r5, #1
 1160 0028 DDB1     		cbz	r5, .L62
 1161 002a 6369     		ldr	r3, [r4, #20]
 1162 002c A260     		str	r2, [r4, #8]
 1163 002e 5A1C     		adds	r2, r3, #1
 1164 0030 6261     		str	r2, [r4, #20]
 1165 0032 9BF80020 		ldrb	r2, [fp]	@ zero_extendqisi2
 1166 0036 1A70     		strb	r2, [r3]
 1167 0038 2369     		ldr	r3, [r4, #16]
 1168 003a 6269     		ldr	r2, [r4, #20]
 1169 003c 9A42     		cmp	r2, r3
 1170 003e 24BF     		itt	cs
 1171 0040 E368     		ldrcs	r3, [r4, #12]
 1172 0042 6361     		strcs	r3, [r4, #20]
 1173 0044 B8F1000F 		cmp	r8, #0
 1174 0048 00D0     		beq	.L64
 1175 004a C047     		blx	r8
 1176              	.L64:
 1177              	@ 546 "/home/cody/dev/chibios/trunk/os/ext/CMSIS/include/core_cmFunc.h" 1
 1178 004c 89F31188 		MSR basepri, r9
 1179              	@ 0 "" 2
 1180              		.thumb
 1181 0050 013E     		subs	r6, r6, #1
 1182 0052 07F10107 		add	r7, r7, #1
 1183 0056 0CD0     		beq	.L61
 1184 0058 2023     		movs	r3, #32
 1185              	@ 546 "/home/cody/dev/chibios/trunk/os/ext/CMSIS/include/core_cmFunc.h" 1
 1186 005a 83F31188 		MSR basepri, r3
 1187              	@ 0 "" 2
 1188              		.thumb
 1189 005e D346     		mov	fp, r10
 1190 0060 DDE7     		b	.L59
 1191              	.L62:
 1192 0062 2046     		mov	r0, r4
 1193 0064 0199     		ldr	r1, [sp, #4]
 1194 0066 FFF7FEFF 		bl	chThdEnqueueTimeoutS
 1195 006a 0028     		cmp	r0, #0
 1196 006c D7D0     		beq	.L59
 1197              	@ 546 "/home/cody/dev/chibios/trunk/os/ext/CMSIS/include/core_cmFunc.h" 1
 1198 006e 85F31188 		MSR basepri, r5
ARM GAS  /tmp/cc6maOJ5.s 			page 69


 1199              	@ 0 "" 2
 1200              		.thumb
 1201              	.L61:
 1202 0072 3846     		mov	r0, r7
 1203 0074 03B0     		add	sp, sp, #12
 1204              		@ sp needed
 1205 0076 BDE8F08F 		pop	{r4, r5, r6, r7, r8, r9, r10, fp, pc}
 1206              		.size	chOQWriteTimeout, .-chOQWriteTimeout
 1207              		.comm	__gnu_lto_v1,1,1
 1208 007a 00BFAFF3 		.ident	"GCC: (GNU Tools for ARM Embedded Processors) 4.8.4 20140526 (release) [ARM/embedded-4_8-br
 1208      0080
ARM GAS  /tmp/cc6maOJ5.s 			page 70


DEFINED SYMBOLS
                            *ABS*:0000000000000000 chqueues.c
     /tmp/cc6maOJ5.s:773    .text.chIQObjectInit:0000000000000000 $t
     /tmp/cc6maOJ5.s:779    .text.chIQObjectInit:0000000000000000 chIQObjectInit
     /tmp/cc6maOJ5.s:800    .text.chIQResetI:0000000000000000 $t
     /tmp/cc6maOJ5.s:806    .text.chIQResetI:0000000000000000 chIQResetI
     /tmp/cc6maOJ5.s:819    .text.chIQPutI:0000000000000000 $t
     /tmp/cc6maOJ5.s:825    .text.chIQPutI:0000000000000000 chIQPutI
     /tmp/cc6maOJ5.s:858    .text.chIQGetTimeout:0000000000000000 $t
     /tmp/cc6maOJ5.s:864    .text.chIQGetTimeout:0000000000000000 chIQGetTimeout
     /tmp/cc6maOJ5.s:915    .text.chIQReadTimeout:0000000000000000 $t
     /tmp/cc6maOJ5.s:921    .text.chIQReadTimeout:0000000000000000 chIQReadTimeout
     /tmp/cc6maOJ5.s:988    .text.chOQObjectInit:0000000000000000 $t
     /tmp/cc6maOJ5.s:994    .text.chOQObjectInit:0000000000000000 chOQObjectInit
     /tmp/cc6maOJ5.s:1014   .text.chOQResetI:0000000000000000 $t
     /tmp/cc6maOJ5.s:1020   .text.chOQResetI:0000000000000000 chOQResetI
     /tmp/cc6maOJ5.s:1034   .text.chOQPutTimeout:0000000000000000 $t
     /tmp/cc6maOJ5.s:1040   .text.chOQPutTimeout:0000000000000000 chOQPutTimeout
     /tmp/cc6maOJ5.s:1094   .text.chOQGetI:0000000000000000 $t
     /tmp/cc6maOJ5.s:1100   .text.chOQGetI:0000000000000000 chOQGetI
     /tmp/cc6maOJ5.s:1132   .text.chOQWriteTimeout:0000000000000000 $t
     /tmp/cc6maOJ5.s:1138   .text.chOQWriteTimeout:0000000000000000 chOQWriteTimeout
                            *COM*:0000000000000001 __gnu_lto_v1

UNDEFINED SYMBOLS
chThdDequeueAllI
chThdDequeueNextI
chThdEnqueueTimeoutS
