ARM GAS  /tmp/cci85wme.s 			page 1


   1              		.syntax unified
   2              		.cpu cortex-m4
   3              		.eabi_attribute 27, 3
   4              		.eabi_attribute 28, 1
   5              		.fpu fpv4-sp-d16
   6              		.eabi_attribute 20, 1
   7              		.eabi_attribute 21, 1
   8              		.eabi_attribute 23, 3
   9              		.eabi_attribute 24, 1
  10              		.eabi_attribute 25, 1
  11              		.eabi_attribute 26, 1
  12              		.eabi_attribute 30, 2
  13              		.eabi_attribute 34, 1
  14              		.eabi_attribute 18, 4
  15              		.thumb
  16              		.file	"chqueues.c"
  17              		.section	.gnu.lto_.jmpfuncs.961ee309c06e882b,"",%progbits
  18 0000 789C7D4D 		.ascii	"x\234}M\311\015\2000\014\263\223B9\036\214\320\265X"
  18      C90D8030 
  18      0CB39342 
  18      391E8CD0 
  18      B558
  19 0012 A10BF4DB 		.ascii	"\241\013\364\333\311\330\205I\200T\355\253 \"E\266\354"
  19      C9D88549 
  19      8054EDAB 
  19      202245B6 
  19      EC
  20 0023 D81108BE 		.ascii	"\330\021\010\276\346h\270\202T\303D\340\344\310 \024"
  20      E668B882 
  20      54C344E0 
  20      E4C82014 
  21 0033 87C8E2C9 		.ascii	"\207\310\342\311\316H^w\033f\250v\246\021\247\366\301"
  21      CE485E77 
  21      1B66A876 
  21      A611A7F6 
  21      C1
  22 0044 2A986C81 		.ascii	"*\230l\201\014\014[U\264*\245w\014\376\257w\362f\324"
  22      0C0C5B55 
  22      B42AA577 
  22      0CFEAF77 
  22      F266D4
  23 0057 905868EE 		.ascii	"\220Xh\356o\215,\357R<\242\367\036\335"
  23      6F8D2CEF 
  23      523CA2F7 
  23      1EDD
  24              		.text
  25              		.section	.gnu.lto_.inline.961ee309c06e882b,"",%progbits
  26 0000 789C9551 		.ascii	"x\234\225Q=K\003A\024\234\267\273\311\335\351\345r\212"
  26      3D4B0341 
  26      149CB7BB 
  26      C9DDE9E5 
  26      728A
  27 0012 A8F89144 		.ascii	"\250\370\221D\010\2044A,\004\273\010\301\322\332\322"
  27      08843441 
  27      2C04BB08 
  27      C1D2DAD2 
  28 0022 46D4D27F 		.ascii	"F\324\322\177p\245\210h$X\330H\264\262\022!\215eJK\013"
ARM GAS  /tmp/cci85wme.s 			page 2


  28      70A58868 
  28      2458D848 
  28      B4B21221 
  28      8D654A4B 
  29 0037 31162269 		.ascii	"1\026\"i\224\024\226\351\264p\337n<\016\014\250\307"
  29      941496E9 
  29      B470DF6E 
  29      3C0E0CA8 
  29      C7
  30 0048 F1DE6399 		.ascii	"\361\336c\231\235}3# 0\354+J\333G\365?F\022;\033\264"
  30      9D7D3323 
  30      2030EC2B 
  30      4ADB47F5 
  30      3F46123B 
  31 005e 4B1A2ABB 		.ascii	"K\032*\273\204\355\304L\246)q\237E\272\231\027\240\236"
  31      84EDC44C 
  31      A629719F 
  31      45BA9917 
  31      A09E
  32 0070 130AA4F6 		.ascii	"\023\012\244\366K!\337V!\024\250\276N\310\370\232D\203"
  32      4B21DF56 
  32      2114A8BE 
  32      4EC8F89A 
  32      4483
  33 0082 415C0417 		.ascii	"A\\\004\027\351]\255!{\267%\240oO3\\`d\\\0233\347\246"
  33      E95DAD21 
  33      7BB725A0 
  33      6F4F335C 
  33      60645C13 
  34 0099 012B793B 		.ascii	"\001+y;\005\357i\331\360*[\031(}\015\256\257Cb6Oi\273"
  34      05EF69D9 
  34      F02A5B19 
  34      287D0DAE 
  34      AF436236 
  35 00b0 9C5E5856 		.ascii	"\234^XV\355nvd\232\246\335\260m\2339\203\027v\367\340"
  35      ED6E7664 
  35      9AA6DDB0 
  35      6D9B3983 
  35      1776F7E0 
  36 00c4 776BDFCB 		.ascii	"wk\337\313\312\336d\310c\301\034\024\240\232\371E\210"
  36      CADE64C8 
  36      63C11C14 
  36      A09AF945 
  36      88
  37 00d5 47B72AE0 		.ascii	"G\267*\340^\317U\223\357),<\023\0312\210\342\351\211"
  37      5ECF5593 
  37      EF292C3C 
  37      13193288 
  37      E2E989
  38 00e8 83E0B541 		.ascii	"\203\340\265A\306A\225!\206\2349Z3KN\241\334\222\224"
  38      C6419521 
  38      869C395A 
  38      334B4EA1 
  38      DC9294
  39 00fb FAC538C4 		.ascii	"\372\3058\304n\250\312A#@\360\362A\261\211\375Z\210"
  39      6EA8CA41 
  39      2340F0F2 
ARM GAS  /tmp/cci85wme.s 			page 3


  39      41B189FD 
  39      5A88
  40 010d AAA1164C 		.ascii	"\252\241\026L\335\221*$m\347\305J\372ov:\360',\314\332"
  40      DD912A24 
  40      6DE7C54A 
  40      FA6F763A 
  40      F0272CCC 
  41 0122 2923FB9E 		.ascii	")#\373\2363\314U]\\3\272|\337O\252v1\377\020\253\316"
  41      33CC555D 
  41      5C33BA7C 
  41      DF4FAA76 
  41      31FF10AB 
  42 0137 1DBDA511 		.ascii	"\035\275\245\021|\036[\325\014\321bc\361\036fr\344\376"
  42      7C1E5BD5 
  42      0CD16263 
  42      F11E6672 
  42      E4FE
  43 0149 2F90C15A 		.ascii	"/\220\301Z\203\310\003/Z\205\027-}\273\300u\220\216"
  43      83C8032F 
  43      5A85172D 
  43      7DBBC075 
  43      908E
  44 015b 0EEA673A 		.ascii	"\016\352g:\324v\"\266\214\033T\224\343\007\2722\022"
  44      D47622B6 
  44      8C1B5494 
  44      E307BA32 
  44      12
  45 016c C2B6A48E 		.ascii	"\302\266\244\216\021\224/S\332\301?D\242*\235\363\022"
  45      11942F53 
  45      DAC13F44 
  45      A22A9DF3 
  45      12
  46 017d 82D68D13 		.ascii	"\202\326\215\023\247\361\336\227a\"\350\272o\3238t\360"
  46      A7F1DE97 
  46      6122E8BA 
  46      6FD33874 
  46      F0
  47 018e 0551366E 		.ascii	"\005Q6n\214"
  47      8C
  48              		.text
  49              		.section	.gnu.lto_.pureconst.961ee309c06e882b,"",%progbits
  50 0000 789C6362 		.ascii	"x\234cb`b\020g\200\000n\006+F)&)f)\026+V+6)v)\016+N"
  50      60621067 
  50      80006E06 
  50      2B462926 
  50      29662916 
  51 001e 292E2B00 		.ascii	").+\000\030\323\002\034"
  51      18D3021C 
  52              		.text
  53              		.section	.gnu.lto_chOQPutTimeout.part.2.961ee309c06e882b,"",%progbits
  54 0000 789C8D52 		.ascii	"x\234\215RAh\023A\024\375ofw\023c\013=U\274H(xQ\351"
  54      41681341 
  54      14FD6F66 
  54      7713630B 
  54      3D55BC48 
  55 0018 8A600FE2 		.ascii	"\212`\017\342\241\240\010\036r1-\350I\222\315\222\014"
  55      A1A0081E 
ARM GAS  /tmp/cci85wme.s 			page 4


  55      72312DE8 
  55      4992CD92 
  55      0C
  56 0029 BA89EE66 		.ascii	"\272\211\356f\305\236:\0119xP\010\005\261T\205\026A"
  56      C59E3A09 
  56      39785008 
  56      05B15485 
  56      1641
  57 003b EAA58237 		.ascii	"\352\245\2027\275(x\250\"V\364 \352)\027/\352\305\273"
  57      BD2878A8 
  57      2256F420 
  57      EA29172F 
  57      EAC5BB
  58 004e B8FED9B4 		.ascii	"\270\376\331\264i\024\241\035\330\377\377\374\377\336"
  58      6914A11D 
  58      D8FFFFFC 
  58      FFDE
  59 005c FF6F6647 		.ascii	"\377ofG\220\240\177\327i\376\012\234\276\307\036\031"
  59      90A07FD7 
  59      69FE0A9C 
  59      BEC71E19 
  60 006c 82D3DDE0 		.ascii	"\202\323\335\340\300\201H\275\020r}\212t\316z\275\217"
  60      C08148BD 
  60      10727D8A 
  60      74CE7ABD 
  60      8F
  61 007d F4888465 		.ascii	"\364\210\204e\262\255\254\005\273\037\330\200\011\010"
  61      B2ADAC05 
  61      BB1FD880 
  61      0908
  62 008b 34EF0869 		.ascii	"4\357\010i\331\230\277\000\323\325\232\240\025\255\027"
  62      D998BF00 
  62      D3D59AA0 
  62      15AD17
  63 009a 7A5F9F3F 		.ascii	"z_\237?\333\257\227\333]\375;I\240\300\363\217\203<"
  63      DBAF97DB 
  63      5DFD3B49 
  63      A0C0F38F 
  63      833C
  64 00ac D079DE20 		.ascii	"\320y\336 \237:a\375-\250\317\324kZ\313e\375+I\244\202"
  64      9F3A61FD 
  64      2DA8CFD4 
  64      6B5ACB65 
  64      FD2B49A4 
  65 00c1 1474629B 		.ascii	"\024tb\233\226\355\323\360\037\332\222^[\335\246q\343"
  65      96EDD3F0 
  65      1FDA925E 
  65      5BDDA671 
  65      E3
  66 00d2 5D70BA2F 		.ascii	"]p\272/\356|\2745,\322\026tr'\221\217\205\356%\311\323"
  66      EE7CBC35 
  66      2CD21674 
  66      7227918F 
  66      85EE25C9 
  67 00e7 EFB92C10 		.ascii	"\357\271,\020\230c)8\222\215\3155\233:\3345_\302\012"
  67      98632938 
  67      928DCD35 
ARM GAS  /tmp/cci85wme.s 			page 5


  67      9B3ADC35 
  67      5FC20A
  68 00fa 26A88407 		.ascii	"&\250\204\007lS!\274f\330\232\373\232\201c\274\234\205"
  68      6C5321BC 
  68      66D89AFB 
  68      9A8163BC 
  68      9C85
  69 010c 48FD5B6A 		.ascii	"H\375[j\177Y\374\366\001%\254r\213*\304a:\244\220\271"
  69      7F59FCF6 
  69      0125AC72 
  69      8B2AC461 
  69      3AA490B9 
  70 0120 4B4B2DAD 		.ascii	"KK-\255\307\024\262U\300\310\330\223\016/\017\216\361"
  70      C714B255 
  70      C0C8D893 
  70      0E2F0F8E 
  70      F1
  71 0131 8A3A3F5A 		.ascii	"\212:?Z\243\003\226\201d\206e\316B\322\372\224|G\235"
  71      A3039681 
  71      648665CE 
  71      42D2FA94 
  71      7C479D
  72 0144 DEA337B9 		.ascii	"\336\2437\271>\216\014\322\030\006\347\266`V*c\203\332"
  72      3E8E0CD2 
  72      1806E7B6 
  72      60562A63 
  72      83DA
  73 0156 3F6FBC7C 		.ascii	"?o\274|rSn\036\201h\213\302?\030\324\342n\314\224\375"
  73      72536E1E 
  73      81688BC2 
  73      3F18D4E2 
  73      6ECC94FD 
  74 016a 57748016 		.ascii	"Wt\200\026p_/N+\3545[3{$\3556\250\337\336\254\217\016"
  74      705F2F4E 
  74      2BEC355B 
  74      337B24ED 
  74      36A8DFDE 
  75 0181 0BB2D349 		.ascii	"\013\262\323I\357\371\355\030\015\322$?\2234l\236c="
  75      EFF9ED18 
  75      0DD2243F 
  75      93346C9E 
  75      633D
  76 0193 FC346E6E 		.ascii	"\3744nn\007\006d\272\034sk\215\300w\275Fe\316\255\370"
  76      070664BA 
  76      1C736B8D 
  76      C077BD46 
  76      65CEADF8 
  77 01a7 D75CAFA6 		.ascii	"\327\\\257\246\312\252\021\271\3150\256_r9\010\233n"
  77      CAAA11B9 
  77      CD30AE5F 
  77      7239089B 
  77      6E
  78 01b8 147A9CBF 		.ascii	"\024z\234\277\032\373\261\037Mzd5U\340\243,\203\250"
  78      1AFBB11F 
  78      4D7A6435 
  78      55E0A32C 
  78      83A8
ARM GAS  /tmp/cci85wme.s 			page 6


  79 01ca 3ABD13DB 		.ascii	":\275\023\333\277\336tO\025\212g\213\256\252{\227\343"
  79      BFDE744F 
  79      158A678B 
  79      AEAA7B97 
  79      E3
  80 01db 8AC186FE 		.ascii	"\212\301\206\376E/8\023\327\275\311\032\215\025\212"
  80      452F3813 
  80      D7BDC91A 
  80      8D158A
  81 01ea E7F2E552 		.ascii	"\347\362\345R\344_\011\325\221\374\301\243$B\312\004"
  81      E45F09D5 
  81      91FCC1A3 
  81      2442CA04 
  82 01fa 7ED008E7 		.ascii	"~\320\010\347\350\017\360[\267\331"
  82      E80FF05B 
  82      B7D9
  83              		.text
  84              		.section	.gnu.lto_chIQObjectInit.961ee309c06e882b,"",%progbits
  85 0000 789C9593 		.ascii	"x\234\225\223\277O\302@\024\200\337\273Z@\220`tr01q"
  85      BF4FC240 
  85      1480DFBB 
  85      5A409060 
  85      74723031 
  86 0015 D3481363 		.ascii	"\323H\023c\342?\242\211\016\016\3306\264Q R0A\007\212"
  86      E23FA289 
  86      0E0ED836 
  86      B4512052 
  86      3041078A 
  87 0029 B8190CA3 		.ascii	"\270\031\014\243\021\026\006\035\034\324\301\301\201"
  87      1116061D 
  87      1CD4C1C1 
  87      81
  88 0036 81C968FC 		.ascii	"\201\311h\374\021\235u\300\311\301\001\343Dp\300\327"
  88      119D75C0 
  88      C9C101E3 
  88      4470C0D7 
  89 0046 5E318068 		.ascii	"^1\200h\364\222\336{\275\366\373\356\275\364\312\200"
  89      F492DE7B 
  89      BDF6FBEE 
  89      BDF4CA80 
  90 0056 41F718A1 		.ascii	"A\367\030\241k@\000(QD\001\220\345\357\0002\036\206"
  90      6B400028 
  90      51440190 
  90      E5EF0032 
  90      1E86
  91 0068 68258090 		.ascii	"h%\200\220f\230^D\373\335\023V\2516\233\307\357\027"
  91      66985E44 
  91      FBDD1356 
  91      A9369BC7 
  91      EF17
  92 007a 67452CB2 		.ascii	"gE,\262a\304\010\222QGpQ\206^\232\230\217n\321O\231"
  92      61C40892 
  92      51477051 
  92      865E9A98 
  92      8F6ED14F 
  93 008f 10A0A98F 		.ascii	"\020\240\251\217 \021\266M3?\006 \333\2229\232-\363"
  93      2011B64D 
ARM GAS  /tmp/cci85wme.s 			page 7


  93      333F0620 
  93      DB92399A 
  93      2DF3
  94 00a1 3C322B0A 		.ascii	"<2+\012\267\260\325\310\326rR\010K(B\030\331&l\220q"
  94      B7B0D5C8 
  94      D6725208 
  94      4B284218 
  94      D9266C90 
  95 00b6 128E4C1A 		.ascii	"\022\216L\032)\035Y\001\366QG!\214\270@\261\317\256"
  95      291D5901 
  95      F6514721 
  95      8CB840B1 
  95      CFAE
  96 00c8 6419DB5A 		.ascii	"d\031\333Z \305u\271p\363\342\376\332\212'\225\327\335"
  96      20C575B9 
  96      70F3E2FE 
  96      DA8A2795 
  96      D7DD
  97 00da 866F1480 		.ascii	"\206o\024\200\253e\264\031.\256>>\227\247t\024\311\235"
  97      AB65B419 
  97      2EAE3E3E 
  97      97A77414 
  97      C99D
  98 00ec 31CD41DA 		.ascii	"1\315A\332\305\321\203\243G\013;$\314*\311\336\342*"
  98      C5D183A3 
  98      470B3B24 
  98      CC2AC9DE 
  98      E22A
  99 00fe EF0DE101 		.ascii	"\357\015\341\001\2558\245\005~\303\3317\374\374\351"
  99      AD38A505 
  99      7EC3D937 
  99      FCFCE9
 100 010d 2D37C12B 		.ascii	"-7\301+q\004~\035]\275{\023\354h\255\270Z\375\235\327"
 100      71047E1D 
 100      5DBD7B13 
 100      EC68ADB8 
 100      5AFD9DD7 
 101 0121 EA62075D 		.ascii	"\352b\007]\240\247\330\033\3471l\301v\335C\035\340\322"
 101      A0A7D81B 
 101      E7316CC1 
 101      76DD431D 
 101      E0D2
 102 0133 8F9CD8C9 		.ascii	"\217\234\330\311\235z\273\313\375\201s\265s\331\235"
 102      9D7ABBCB 
 102      FD8173B5 
 102      73D99D
 103 0142 EC476EB2 		.ascii	"\354Gn\262\3655}\264\032F/\027\336\273\377(t;B\037\357"
 103      F5357DB4 
 103      1A462F17 
 103      DEBBFF28 
 103      743B421F 
 104 0157 BD5EBB64 		.ascii	"\275^\273d\335\244\2737\351qH?'\367\336\353\330Mzz\223"
 104      DDA4BB37 
 104      E971483F 
 104      27F7DEEB 
 104      D84D7A7A 
 105 016c FD0E1900 		.ascii	"\375\016\031\000x\200L\365j\234s\2551G'\202\216\253"
ARM GAS  /tmp/cci85wme.s 			page 8


 105      78804CF5 
 105      6A9C73AD 
 105      31472782 
 105      8EAB
 106 017e F5FF4C4B 		.ascii	"\365\377LKZ,\242JrLII\212\272.\311\232\276\254\307\014"
 106      5A2CA24A 
 106      724C4949 
 106      8ABA2EC9 
 106      9ABEACC7 
 107 0193 29114F46 		.ascii	")\021OFW$J\342\011\311\210\313\264\276\226T\223\252"
 107      57244AE2 
 107      09C988CB 
 107      B4BE9654 
 107      93AA
 108 01a5 119461E6 		.ascii	"\021\224a\346\017\210\036\225W\223\012\275\244\031\262"
 108      0F881E95 
 108      57930ABD 
 108      A419B2
 109 01b4 A6043598 		.ascii	"\246\0045\230\375\027\224\320\342jH1\210\373\004\317"
 109      FD1794D0 
 109      E26A4831 
 109      88FB04CF 
 110 01c4 C5E8E4   		.ascii	"\305\350\344"
 111              		.text
 112              		.section	.gnu.lto_chIQResetI.961ee309c06e882b,"",%progbits
 113 0000 789C7591 		.ascii	"x\234u\221;K\003A\020\307\3773w\361\242 \332\332\011"
 113      3B4B0341 
 113      10C7FF33 
 113      77F1A220 
 113      DADA09
 114 0013 761EB820 		.ascii	"v\036\270 ~\224\010\212\225\271\034\311\"1\344%h\212"
 114      7E94088A 
 114      95B91CC9 
 114      2231E425 
 114      688A
 115 0025 5C7C809D 		.ascii	"\\|\200\235\251\025\004\033\013\013-l,,\202\215X\370"
 115      A915041B 
 115      0B0B2D6C 
 115      2C2C828D 
 115      58F8
 116 0037 EA442CF2 		.ascii	"\352D,\362\005\004K\271\3028\233\273(\011\311\300\316"
 116      05044BB9 
 116      C2389BBB 
 116      2809C9C0 
 116      CE
 117 0048 CC0EF39B 		.ascii	"\314\016\363\233\235\231e0\006eF\316\035\001Kb\311\002"
 117      9D996530 
 117      066546CE 
 117      1D014B62 
 117      C902
 118 005a 71F30968 		.ascii	"q\363\011h$\231\3108 \324\231\352\253\324\315\275\342"
 118      2499C838 
 118      20D499EA 
 118      ABD4CDBD 
 118      E2
 119 006b 56BBD3B9 		.ascii	"V\273\323\271\274\275?\377\240S\036g\312\023,h\202#"
 119      BCBD3FFF 
ARM GAS  /tmp/cci85wme.s 			page 9


 119      A0531E67 
 119      CA132C68 
 119      8223
 120 007d CAA424B0 		.ascii	"\312\244$\260\037\004\315Y\300\353\002)\321\246\312"
 120      1F04CD59 
 120      C0EB0229 
 120      D1A6CA
 121 008c 32B1B1D6 		.ascii	"2\261\261\326#v\337\337\302\266\275Ng\224@\226,\027"
 121      2376DFDF 
 121      C2B6BD4E 
 121      67944096 
 121      2C17
 122 009e F3429FE0 		.ascii	"\363B\237\340\2304q\226xE\254\325}*M\275\006\005z\370"
 122      98347196 
 122      7845ACD5 
 122      7D2A4DBD 
 122      06057AF8 
 123 00b2 9A8A1017 		.ascii	"\232\212\020\027\027\201\310\332H(\242\262\346n\270"
 123      1781C8DA 
 123      4828A2B2 
 123      E66EB8
 124 00c1 E6441F37 		.ascii	"\346D\03779\222\343>\356\346;|\341A\322\036NF\326D\354"
 124      3992E33E 
 124      EEE63B7C 
 124      E141D21E 
 124      4E46D644 
 125 00d6 B8DB70EF 		.ascii	"\270\333p\357\372\310\355\215\350\324\260#\273\211\313"
 125      FAC8ED8D 
 125      E8D4B023 
 125      BB89CB
 126 00e5 14352586 		.ascii	"\0245%\206\227\261\377\177\344\031\007\255\230\007j"
 126      97B1FF7F 
 126      E41907AD 
 126      98076A
 127 00f4 0883C360 		.ascii	"\010\203\303`Z\323\230\3677\234c@\347\247\023\013\325"
 127      5AD398F7 
 127      379C6340 
 127      E7A7130B 
 127      D5
 128 0105 35258157 		.ascii	"5%\201W4\332\237s=.\222\2240\262x3\335\242\312\025\362"
 128      34DA9F73 
 128      3D2E9294 
 128      30B27833 
 128      DDA2CA15 
 129 011a BEF20A99 		.ascii	"\276\362\012\231m\225\361\267\224\227\323i](\253J\251"
 129      6D95F1B7 
 129      9497D369 
 129      5D28AB4A 
 129      A9
 130 012b BAB9A1C4 		.ascii	"\272\271\241\304)UT\271\344I\274X\365\253~y\301\303"
 130      295554B9 
 130      E449BC58 
 130      F5AB7E79 
 130      C1C3
 131 013d 2FA2C57C 		.ascii	"/\242\305|\010"
 131      08
 132              		.text
ARM GAS  /tmp/cci85wme.s 			page 10


 133              		.section	.gnu.lto_chIQPutI.961ee309c06e882b,"",%progbits
 134 0000 789C8D54 		.ascii	"x\234\215T\315KTQ\024?\347\276\257\371\236d\374\010"
 134      CD4B5451 
 134      143FE7BE 
 134      AFF99E64 
 134      FC08
 135 0012 DA481085 		.ascii	"\332H\020\205\226S\021A\177B{\007j\025:N\343\243\324"
 135      96531141 
 135      7F427B07 
 135      6A153A4E 
 135      E3A3D4
 136 0025 729CA05C 		.ascii	"r\234\240\\\370\246\261\020j!4E_Dfe\205\224A\213\026"
 136      F8A6B110 
 136      6A213445 
 136      5F446665 
 136      8594418B 
 137 003a 2E062930 		.ascii	".\006)0\354C\011\301\302\205\271\021\"Bh\225\004\323"
 137      EC4309C1 
 137      C285B911 
 137      22426895 
 137      04D3
 138 004c 39F7CE9B 		.ascii	"9\367\316\233\031c\324.\314y\347\336\367\373\375\356"
 138      1963D42E 
 138      CC79E7DE 
 138      F7FBFDEE 
 139 005c F97A2340 		.ascii	"\371z#@\300\277+M?\335\000H\321\023}\200b\370#@\306"
 139      C0BF2B4D 
 139      3FDD0048 
 139      D1137D80 
 139      62F82340 
 140 0071 2384B6E8 		.ascii	"#\204\266\350\007\307\247\277\232\002p\002\2320\206"
 140      07C7A7BF 
 140      9A027002 
 140      9A3086
 141 0080 76F3966D 		.ascii	"v\363\226m@GC\241\014\341\035\326\350\330tf\030e\012"
 141      404743A1 
 141      0CE11DD6 
 141      E8D87466 
 141      18650A
 142 0093 4BA23C12 		.ascii	"K\242<\022e\241G\241<\350U\216\027\221\035@\030\020"
 142      65A147A1 
 142      3CE8558E 
 142      17911D40 
 142      1810
 143 00a5 9A6E9816 		.ascii	"\232n\230\026\235\014\034G\016\003w\302\210\343\014"
 143      9D0C1C47 
 143      0E0377C2 
 143      88E30C
 144 00b4 2FBD5D9E 		.ascii	"/\275]\2362o\345\362\203\367\235?\205\002\242\215\024"
 144      326FE5F2 
 144      83F79D3F 
 144      8502A28D 
 144      14
 145 00c5 F2118438 		.ascii	"\362\021\2048\3021\332`\243|\010}}\016/D~\251P\270\367"
 145      C231DA60 
 145      A37C087D 
 145      7D0E2F44 
ARM GAS  /tmp/cci85wme.s 			page 11


 145      7EA950B8 
 146 00da 72227762 		.ascii	"r\"wbr^\337\216`\243f`\027\202I\236n\261\361\2221\374"
 146      725EDF8E 
 146      60A36660 
 146      1782499E 
 146      6EB1F192 
 147 00f0 748641F6 		.ascii	"t\206A\366Bl\302lj\310\230\021\366j\331\3241\270\036"
 147      426CC26C 
 147      6AC89811 
 147      F66AD9D4 
 147      31B81E
 148 0103 DA708422 		.ascii	"\332p\204\"j\240\215E\372\006\014Rl\215\300a\320j%\313"
 148      6AA08D45 
 148      FA060C52 
 148      6C8DC061 
 148      D06A25CB 
 149 0117 79C450F0 		.ascii	"y\304P\360S\373\000\027\277.>\031\337W\202)'?v\365\246"
 149      53FB0017 
 149      BF2E3E19 
 149      DF578229 
 149      273F76F5 
 150 012c D104A435 		.ascii	"\321\004\2445\212\006Q%7\211\221fx\3468\016e\372]\320"
 150      8A065125 
 150      37899166 
 150      78E6380E 
 150      65FA5DD0 
 151 0140 8577E076 		.ascii	"\205w\340v\306q\266\331\350I\242\301\311yeJ\355\214"
 151      C671B6D9 
 151      E849A2C1 
 151      C979654A 
 151      ED8C
 152 0152 6EC347C4 		.ascii	"n\303G\304\244\3057LD\332\360!m\223X\333\014M\2331\261"
 152      A4C5374C 
 152      44DAF021 
 152      6D9358DB 
 152      0C4D9B31 
 153 0167 82390D6F 		.ascii	"\2029\015oV2s\350R#\304.\327-\206\032,\372e\374\253"
 153      563273E8 
 153      5223C42E 
 153      D72D861A 
 153      2CFA65FC 
 154 017c 3B5C489D 		.ascii	";\\H\235T\367m\250.\326\251\017\376\250P\257c\234\257"
 154      54F76DA8 
 154      2ED6A90F 
 154      FEA850AF 
 154      639CAF
 155 018f B233ADA8 		.ascii	"\2623\255\250\303\203i\320b\364\276X\252\237\331\220"
 155      C38369D0 
 155      62F4BE58 
 155      AA9FD990 
 156 019f 8B6F4862 		.ascii	"\213oHb\275\022\371v\355\362\373vU(:f\031\253,\362\005"
 156      BD12F976 
 156      EDF2FB76 
 156      55283A66 
 156      19AB2CF2 
 157 01b4 EAF984C6 		.ascii	"\352\371\204\306F{\236\273qH\3724\2642\001\023h\364"
 157      467B9EBB 
ARM GAS  /tmp/cci85wme.s 			page 12


 157      7148FA34 
 157      B4320113 
 157      68F4
 158 01c6 640693CB 		.ascii	"d\006\223\313\013O\003\256\204YJ\002\253f\000\252\252"
 158      0B4F03AE 
 158      84594A02 
 158      AB6600AA 
 158      AA
 159 01d7 D9A1EC63 		.ascii	"\331\241\354ct9\026\321d\002\250*~T\275P\355r\202[\310"
 159      743916D1 
 159      6402A82A 
 159      7E54BD50 
 159      ED72825B 
 160 01ec 25396252 		.ascii	"%9bR\274\222\375\225\333\343Jz\251\342r`\253J\206U\023"
 160      BC92FD95 
 160      DBE34A7A 
 160      A9E27260 
 160      AB4A8655 
 161 0201 AB484251 		.ascii	"\253HBQ\322+Y3\253>\305S=q,\033\375Ea\243\010\364\253"
 161      D22B5933 
 161      AB3EC553 
 161      3D712C1B 
 161      FD4561A3 
 162 0218 19793D36 		.ascii	"\031y=6WJ'X\232\222\015/P\244\331\220K\011mF\321\212"
 162      574A2758 
 162      9A920D2F 
 162      50A4D990 
 162      4B096D46 
 163 022e 146AD74A 		.ascii	"\024j\327J&X\272\205X\225\003eA~\227l\307\302\330o\341"
 163      2658BA85 
 163      58950365 
 163      417E976C 
 163      C7C2D86F 
 164 0243 82C29BE9 		.ascii	"\202\302\233\351\352\345P\336\315\372\326\025\350\300"
 164      EAE550DE 
 164      CDFAD615 
 164      E8C0
 165 0251 96050ABB 		.ascii	"\226\005\012\273\367z\3349X\313\216^\337\353^\\\323"
 165      F77ADC39 
 165      58CB8E5E 
 165      DFEB5E5C 
 165      D3
 166 0262 0F176C1E 		.ascii	"\017\027l\036\006)\227\2621P]\316(\247\360\011.\345"
 166      062997B2 
 166      31505DCE 
 166      28A7F009 
 166      2EE5
 167 0274 8B7C807E 		.ascii	"\213|\200~Xs\206\370#\010\306Km\256a\"\025\303v\023"
 167      587386F8 
 167      2308C64B 
 167      6DAE6122 
 167      15C37613 
 168 0288 8F910CCF 		.ascii	"\217\221\014\317\366\034\375\3031\000\325\314\242\304"
 168      F61CFDC3 
 168      3100D5CC 
 168      A2C4
 169 0296 D1BF985A 		.ascii	"\321\277\230Z8`\334\375\\[\344z\306\347\003\374q \023"
ARM GAS  /tmp/cci85wme.s 			page 13


 169      3860DCFD 
 169      5C5BE47A 
 169      C6E703FC 
 169      712013
 170 02a9 59F870B4 		.ascii	"Y\370p\264\263\247+\021\215\367t\234\217v$\316E\343"
 170      B3A72B11 
 170      8DF7749C 
 170      8F7624CE 
 170      45E3
 171 02bb 9D76BBDD 		.ascii	"\235v\273\335\223\212\366\365\246\273OE\311\351\355"
 171      938AF6F5 
 171      A6BB4F45 
 171      C9E9ED
 172 02ca 8BDADDF1 		.ascii	"\213\332\335\361\323\351\016\002u\236M'\322\211TK'X"
 172      D3E90E02 
 172      759E4D27 
 172      D289544B 
 172      2758
 173 02dc F6C9BEAE 		.ascii	"\366\311\276\2563-\373\017\376\007=\325\033/S\343\360"
 173      332DFB0F 
 173      FE073DD5 
 173      1B2F53E3 
 173      F0
 174 02ed 1767A248 		.ascii	"\027g\242H\265"
 174      B5
 175              		.text
 176              		.section	.gnu.lto_chIQGetTimeout.961ee309c06e882b,"",%progbits
 177 0000 789C8D54 		.ascii	"x\234\215T]H\024Q\024>\347\316\316\316\354\354\230\177"
 177      5D481451 
 177      143EE7CE 
 177      CECEECEC 
 177      987F
 178 0012 A14B452D 		.ascii	"\241KE-AD\031N\005\345\253\021\004B\275dB=\305:.\353"
 178      4144194E 
 178      05E5AB11 
 178      0442BD64 
 178      423DC53A 
 179 0028 50ABB5EB 		.ascii	"P\253\265\353FV\340\254\253`D`\021\031\375@\021A\024"
 179      4656E0AC 
 179      AB604460 
 179      1119FD40 
 179      114114
 180 003b 181444F4 		.ascii	"\030\024D\364 \366#f\226eOi\177\206\224=H\024\364P\026"
 180      20F62366 
 180      96654F69 
 180      7F86943D 
 180      4814F450 
 181 0050 4CE7CEEC 		.ascii	"L\347\316\354\214\253\211va\316\3349\347;\347\236\363"
 181      8CAB8976 
 181      61CEDC39 
 181      E73BE79E 
 181      F3
 182 0061 9D738701 		.ascii	"\235s\207\001\203\331\353\024=\347E\200.zc\036 \353"
 182      83D9EB14 
 182      3DE74580 
 182      2E7A631E 
 182      20EB
ARM GAS  /tmp/cci85wme.s 			page 14


 183 0073 1C0248CB 		.ascii	"\034\002H\313\214\011\375\233\301T\374\003\245`\252"
 183      8C09FD9B 
 183      C154FC03 
 183      A560AA
 184 0082 02FA1DB5 		.ascii	"\002\372\035\265\217\211\017\005R\253CO\201\364*J\\"
 184      8F890F05 
 184      52AB434F 
 184      81F42A4A 
 184      5C
 185 0093 BF45C4A0 		.ascii	"\277E\304\240c\367;\012\224\230\317F(2\207\2532\013"
 185      63F73B0A 
 185      9498CF46 
 185      283287AB 
 185      320B
 186 00a5 74ACA62F 		.ascii	"t\254\246/\205K5\200\212\203V\\\267 \"\337\000B\013"
 186      854B3580 
 186      8A83565C 
 186      B72022DF 
 186      00420B
 187 00b8 137CAAE8 		.ascii	"\023|\252\350\227\344\200\022\304\226=\310Sd+\341\212"
 187      97E48012 
 187      C4963DC8 
 187      53642BE1 
 187      8A
 188 00c9 699E1EEB 		.ascii	"i\236\036\353\273;\202]fo\372\262\371\307\262\020\015"
 188      BB3B825D 
 188      666FFAB2 
 188      F9C7B210 
 188      0D
 189 00da A4723621 		.ascii	"\244r6!\350\010\273\351\003e\373\305pf}\266og\357\253"
 189      E808BBE9 
 189      0365FBC5 
 189      70667DB6 
 189      6F67EFAB 
 190 00ee 41B533DD 		.ascii	"A\2653\335aZV\213\201\002\203\212i\267\260\343\346\233"
 190      615A568B 
 190      8102838A 
 190      69B7B0E3 
 190      E69B
 191 0100 E9768BF5 		.ascii	"\351v\213\365\216Y\326\3057_\306-,Z\201@^\022\306\021"
 191      8E59D6C5 
 191      375FC62D 
 191      2C5A8140 
 191      5E12C611 
 192 0114 64DAF914 		.ascii	"d\332\371\024\022b\220\204_%\035.\202\010^\305\225P"
 192      12629084 
 192      5F251D2E 
 192      82085EC5 
 192      9550
 193 0126 C8D5C524 		.ascii	"\310\325\305$\244\305\\\224\220\372\012\251K\371G\210"
 193      A4C55C94 
 193      90FA0AA9 
 193      4BF94788 
 194 0136 8BA53C0C 		.ascii	"\213\245<\014\005\027\241\215r\012;f\340\231\320\332"
 194      0517A18D 
 194      720A3B66 
 194      E099D0DA 
ARM GAS  /tmp/cci85wme.s 			page 15


 195 0146 45F29B1F 		.ascii	"E\362\233\037j\220\321K\030\202\326\357\277\317\214"
 195      6A90D14B 
 195      1882D6EF 
 195      BFCF8C
 196 0155 87B250A0 		.ascii	"\207\262P\240X\327P\004\233#\204c\002\357\244\340\264"
 196      58D75004 
 196      9B238463 
 196      02EFA4E0 
 196      B4
 197 0166 73399CC4 		.ascii	"s9\234\304K\346\271J\203\030\240\305\253\011\204\371"
 197      4BE6B94A 
 197      8318A0C5 
 197      AB0984F9 
 198 0176 CEB37766 		.ascii	"\316\263wf\355\212S\333sh\035}\373\343\354\022'd\014"
 198      ED8A53DB 
 198      73681D7D 
 198      FBE3EC12 
 198      27640C
 199 0189 E532586B 		.ascii	"\3452Xk`\360\002\234'W5\206\022\017\221gCk=6\237@\333"
 199      60F0029C 
 199      27573586 
 199      120F9167 
 199      436B3D36 
 200 01a0 643ACF73 		.ascii	"d:\317s\341\220`.a5T\331g\237\360\002\332\306\336\367"
 200      E190602E 
 200      613554D9 
 200      679FF002 
 200      DAC6DEF7 
 201 01b4 296EB631 		.ascii	")n\2661\236\023E4\210\244,\314\0074\031\002\3450\225"
 201      9E134534 
 201      88A42CCC 
 201      07341902 
 201      E53095
 202 01c7 B9D9B5DD 		.ascii	"\271\331\265\335\243\342\252M\205We\014\203G\341\010"
 202      A3E2AA4D 
 202      8557650C 
 202      8347E108 
 203 01d7 315C0637 		.ascii	"1\\\0067LZw\350\274\374\2713\314i\370\013h\357\015E"
 203      4C5A77E8 
 203      BCFCB933 
 203      CC69F80B 
 203      68EF0D45 
 204 01eb B0DBCE71 		.ascii	"\260\333\316q\321Q\2302;\314\002\003\013\364,\210\242"
 204      D1519832 
 204      3BCC0203 
 204      0BF42C88 
 204      A2
 205 01fc C65035B0 		.ascii	"\306P5\260\220\327\363\370\023zP\036\257(\267\234]\250"
 205      90D7F3F8 
 205      137A501E 
 205      AF28B79C 
 205      5DA8
 206 020e C2E57EC0 		.ascii	"\302\345~\300\032\262w\013s\265\243{v;\"x\2358\260\351"
 206      1AB2770B 
 206      73B5A37B 
 206      763B2278 
 206      9D38B0E9 
ARM GAS  /tmp/cci85wme.s 			page 16


 207 0222 871CFA23 		.ascii	"\207\034\372#x\023\227\347\362\344\347\375u\266\022"
 207      781397E7 
 207      F2E4E7FD 
 207      75B612
 208 0231 D0D82371 		.ascii	"\320\330#qq\277op\362U\200'\2508E\026\273E\312.\375"
 208      71BF6F70 
 208      F2558027 
 208      A8384516 
 208      BB45CA2E 
 209 0246 8F271E0C 		.ascii	"\217'\036\014\017\252n\003\024n,\236\331\000\031\036"
 209      0FAA6E03 
 209      146E2C9E 
 209      D900191E 
 210 0256 0A446CA6 		.ascii	"\012Dl\246#3\336\265\306\005\026\272X\213V\276\323\375"
 210      2333DEB5 
 210      C60516BA 
 210      588B56BE 
 210      D3FD
 211 0268 2AC798A5 		.ascii	"*\307\230\2456\217\214s3\313\262\244\025:3s\257g\004"
 211      368F8C73 
 211      33CBB2A4 
 211      153A3373 
 211      AF6704
 212 027b DDB0C5F6 		.ascii	"\335\260\305\366\314Hs\373\011\340\016Z\346D\346\266"
 212      CC4873FB 
 212      09E00E5A 
 212      E644E6B6 
 213 028b E7B398DC 		.ascii	"\347\263\230\334\274+\372O\032\025\013\204#\177\333"
 213      BC2BFA4F 
 213      1A150B84 
 213      237FDB
 214 029a EB7E7B89 		.ascii	"\353~{\211\033\260\204\360ir\315\247_A6\266\344\035"
 214      1BB084F0 
 214      6972CDA7 
 214      5F4136B6 
 214      E41D
 215 02ac DD3AFABA 		.ascii	"\335:\372\272gXp\241\245\363\345\353\336}\232\361\211"
 215      675870A1 
 215      A5F3E5EB 
 215      DE7D9AF1 
 215      89
 216 02bd E919A774 		.ascii	"\351\031\247tKs\351\015\300G\344s;\372\263\347\027s"
 216      4B73E90D 
 216      C047E473 
 216      3BFAB3E7 
 216      1773
 217 02cf 41A1F9E2 		.ascii	"A\241\371\342\212\323\311\014\274TfT\273a\301jC\356"
 217      8AD3C90C 
 217      BC546654 
 217      BB61C16A 
 217      43EE
 218 02e1 B90A6FEB 		.ascii	"\271\012o\353\377\374\017\026\036@J\344\353\243\343"
 218      FFFC0F16 
 218      1E404AE4 
 218      EBA3E3
 219 02f0 9697FD52 		.ascii	"\226\227\375R\342\320=&\310\307r\230~\306\374p\373\272"
 219      E2D03D26 
ARM GAS  /tmp/cci85wme.s 			page 17


 219      C8C77298 
 219      7EC6FC70 
 219      FBBA
 220 0302 8C00D2D5 		.ascii	"\214\000\322\325\020\237\275[FHe\362\203\312\257\005"
 220      109FBD5B 
 220      464865F2 
 220      83CAAF05 
 221 0312 128C87DD 		.ascii	"\022\214\207\335\250\3257\306\243\232\336X\327\254\325"
 221      A8D537C6 
 221      A39ADE58 
 221      D7ACD5
 222 0321 450F697A 		.ascii	"E\017iz\275Qk4&\265\246D\252a\237F\233D\223\226L\350"
 222      BD516B34 
 222      26B5A644 
 222      AA619F46 
 222      9B449396 
 223 0337 A43F988A 		.ascii	"\244?\230\212\246\242\311r\035\260V\210'c\225\0139F"
 223      A6A2C972 
 223      1DB05688 
 223      2763950B 
 223      3946
 224 0349 0F37695B 		.ascii	"\0177i[wTWUkF\203\276?U\307\261\211\350^=\276-\325\240"
 224      77545755 
 224      6B4683BE 
 224      3F55C7B1 
 224      89E85E3D 
 225 0361 97D743C1 		.ascii	"\227\327C\301\216\352\235\341\332H2z a\254\013\257Z"
 225      8EEA9DE1 
 225      DA48327A 
 225      2061AC0B 
 225      AF5A
 226 0373 0F2C0152 		.ascii	"\017,\001R<\032oL4\303_\020Li\354"
 226      3C1A6F4C 
 226      34C35F10 
 226      4C69EC
 227              		.text
 228              		.section	.gnu.lto_chIQReadTimeout.961ee309c06e882b,"",%progbits
 229 0000 789CAD55 		.ascii	"x\234\255U]h\034U\024>\347\336\375\235\237\315&\026"
 229      5D681C55 
 229      143EE7DE 
 229      FD9D9FCD 
 229      2616
 230 0012 92B436DD 		.ascii	"\222\2646\335\224,\202\221\256\025\"\370dE\020\372\320"
 230      942C8291 
 230      AE1522F8 
 230      644510FA 
 230      D0
 231 0023 17D3803E 		.ascii	"\027\323\200>\210l&\353d\320Mt\223-\306(\235\354\246"
 231      886C26EB 
 231      64D04D74 
 231      932DC628 
 231      9DECA6
 232 0036 10289545 		.ascii	"\020(\225E\004\255\305\232\"\202\324\332\366\301\247"
 232      04ADC59A 
 232      2282D4DA 
 232      F6C1A7
 233 0045 FA92544B 		.ascii	"\372\222TK\032\333&\024|0\301\207\204\242E\021\251\226"
ARM GAS  /tmp/cci85wme.s 			page 18


 233      1ADB2614 
 233      7C30C187 
 233      84A24511 
 233      A996
 234 0057 925AADEB 		.ascii	"\222Z\255\3539sg6\033Y\232\"\016\354\235{\3579\347;"
 234      39736736 
 234      1B599A22 
 234      0EEC9D7B 
 234      EF39E73B 
 235 006b DFF9EEB9 		.ascii	"\337\371\356\271\263\002\004\374\373\371\214~z\024\340"
 235      B30204FC 
 235      FBF98C7E 
 235      7A14E0
 236 007a 3D7A6313 		.ascii	"=zc\023\240\250,\000L\304\004J5\221\"4\3678\270Zt\276"
 236      A0A82C00 
 236      4CC4044A 
 236      35912234 
 236      F738B85A 
 237 0090 155C2384 		.ascii	"\025\\#\204Q\265\035\026\221\363\222\266\023\013\337"
 237      51B51D16 
 237      91F392B6 
 237      130BDF
 238 009f 00ED2730 		.ascii	"\000\355'0\306\373OE\320T\366\250\332\300\230\010{\036"
 238      C6FB4F45 
 238      D054F6A8 
 238      DAC09808 
 238      7B1E
 239 00b1 5A9CDD8D 		.ascii	"Z\234\335\215\270\320\246\036\242\225\316\243\241\241"
 239      B8D0A61E 
 239      A295CEA3 
 239      A1A1
 240 00bf AEBC7561 		.ascii	"\256\274uazh\206B3T\362\331\230\211\310\023@8(d(\234"
 240      7A688642 
 240      3354F2D9 
 240      9889C813 
 240      40382864 
 241 00d5 88446371 		.ascii	"\210DcqM7L<\370<2y\261\023N\270\356;+?\374\372\023\036"
 241      4D374C3C 
 241      F83C3279 
 241      B1134EB8 
 241      EE3B2B3F 
 242 00ed 756726A7 		.ascii	"ug&\247\335\277\252UD\007\251\320\036\004\013\3419Z"
 242      DDBFAA55 
 242      4407A9D0 
 242      1E040BE1 
 242      395A
 243 00ff 60CA7B89 		.ascii	"`\312{\211\320\306\312U\354\314\037o\037iw\247K\025"
 243      D0C6CA55 
 243      ECCC1F6F 
 243      1F6977A7 
 243      4B15
 244 0111 F76F0A75 		.ascii	"\367o\012uP\012xb\263\3103bf\245Z=\265\366\351\265\333"
 244      500A7862 
 244      B3C83362 
 244      66A55A3D 
 244      B5F6E9B5 
 245 0126 F8403742 		.ascii	"\370@7B\236\363\345\021%d\361c\334\011!\377\255a\036"
ARM GAS  /tmp/cci85wme.s 			page 19


 245      9EF3E511 
 245      2564F163 
 245      DC0921FF 
 245      AD611E
 246 0139 854E8B13 		.ascii	"\205N\213\023\2640i\001\011\0320\011\016\206\232i\010"
 246      B4306901 
 246      091A3009 
 246      0E869A69 
 246      08
 247 014a B7D0526E 		.ascii	"\267\320Rn\241Y\244\225\367\332\031i+\315\242\333x\330"
 247      A159A495 
 247      F7DA1969 
 247      2BCDA2DB 
 247      78D8
 248 015c 4E436C07 		.ascii	"NCl\007\317R<t\362\320\345C\2479\037Q\011\303\244\353"
 248      CF523C74 
 248      F2D0E543 
 248      A7391F51 
 248      09C3A4EB 
 249 0170 56522A85 		.ascii	"VR*\2052\001\263\247g?\215\244j\037\012z\311+PZ\276"
 249      3201B3A7 
 249      673F8DA4 
 249      6A1F0A7A 
 249      C92B505A 
 250 0185 4D3265F1 		.ascii	"M2e\361\023\014\203\215z7\234t\351y\201\304:\006\037"
 250      130C838D 
 250      7A379C74 
 250      E97981C4 
 250      3A061F
 251 0198 5095711B 		.ascii	"P\225q\0335\256V\363j\354\307\240\332\005(\375\366\347"
 251      35AE56F3 
 251      6AECC7A0 
 251      DA0528FD 
 251      F6E7
 252 01aa BBD7DAFC 		.ascii	"\273\327\332\374T\000\012\302;\026\2047%7\225T\235\325"
 252      54000AC2 
 252      3B168437 
 252      25379554 
 252      9DD5
 253 01bc 0147F043 		.ascii	"\001G\360C\367\375=\016\352\274d4#\305\263\232\275\342"
 253      F7FD3D0E 
 253      EABC6434 
 253      23C5B39A 
 253      BDE2
 254 01ce DBCD7535 		.ascii	"\333\315u5\373H\267\033\021y\021&\177Y\275\360\373\354"
 254      FB48B71B 
 254      11791126 
 254      7F59BDF0 
 254      FBEC
 255 01e0 3A430EAF 		.ascii	":C\016\257S}\011\320FS\320\320n|;\276\004\302\306\004"
 255      537D09D0 
 255      4653D0D0 
 255      6E7C3BBE 
 255      04C2C604 
 256 01f4 AFD2C617 		.ascii	"\257\322\306\027o-\201doI-qym\320\306.\343\324\3356"
 256      6F2D8164 
 256      6F492D71 
ARM GAS  /tmp/cci85wme.s 			page 20


 256      796DD0C6 
 256      2EE3D4DD 
 257 0209 860EC18F 		.ascii	"\206\016\301\217!\271\010\223+\227\346\"\001o\233\331"
 257      21B90893 
 257      2B97E622 
 257      016F9BD9 
 258 0219 51B10E26 		.ascii	"Q\261\016&\002\006a\240\316c\215\356\224\277<\376d\300"
 258      020661A0 
 258      CE638DEE 
 258      94BF3CFE 
 258      64C0
 259 022b A0791CDE 		.ascii	"\240y\034\336\240S\362\225:J\011\232\032KUGs\021\016"
 259      A053F295 
 259      3A4A099A 
 259      1A4B5547 
 259      73110E
 260 023e CDD400B6 		.ascii	"\315\324\000\266\214\303\035w\312M:\230\264|'B\265\261"
 260      8CC31D77 
 260      CA4D3A98 
 260      B47C2742 
 260      B5B1
 261 0250 C5C16600 		.ascii	"\305\301f\000\256x\242\247\346\313\200\221\3726\333"
 261      AE78A2A7 
 261      E6CB8091 
 261      FA36DB
 262 025f 4FFCA6E7 		.ascii	"O\374\246\347\000\373h\373\264\224\367s\016Y<I\"x\272"
 262      00FB68FB 
 262      B494F773 
 262      0E593C49 
 262      2278BA
 263 0272 439DEE59 		.ascii	"C\235\356Y\374\034;\352\025\217\262\342j\032\003\272"
 263      FC1C3BEA 
 263      158FB2E2 
 263      6A1A03BA 
 264 0282 6248A59F 		.ascii	"bH\245\237\273p\351\373\233qf\230TU\312\240\312\230"
 264      BB70E9FB 
 264      9B716698 
 264      5455CAA0 
 264      CA98
 265 0294 0ABB085F 		.ascii	"\012\273\010__\237=\266h\006\214\223\276\344\365\300"
 265      5F9F3DB6 
 265      68068C93 
 265      BEE4F5C0 
 266 02a4 71D56BE5 		.ascii	"q\325k\345\251\362\315\343\335\201ck\340[\245\247\211"
 266      A9F2CDE3 
 266      DD81636B 
 266      E05BA5A7 
 266      89
 267 02b5 FC28DB5E 		.ascii	"\374(\333^e\364\265\335M\306\306\322\012_\265V\216*"
 267      65F4B5DD 
 267      4DC6C6D2 
 267      0A5FB556 
 267      8E2A
 268 02c7 1F2EDFEA 		.ascii	"\037.\337\352\010P\333mD\357v\242B\\>\253\005\246\255"
 268      0850DB6D 
 268      44EF76A2 
 268      425C3EAB 
ARM GAS  /tmp/cci85wme.s 			page 21


 268      05A6AD
 269 02da DDF0305D 		.ascii	"\335\3600]\226\306\210\001c\017\356\347Z\273m\243\260"
 269      96C68801 
 269      630FEEE7 
 269      5ABB6DA3 
 269      B0
 270 02eb 7AB88D04 		.ascii	"z\270\215\004{7\201\243x/\352\334\241\003\001\340v\345"
 270      7B3781A3 
 270      782FEADC 
 270      A10301E0 
 270      76E5
 271 02fd DFE2E346 		.ascii	"\337\342\343FkiK\3637\374^$\217\011\002\327=/\\\367"
 271      6B694BF3 
 271      37FC5E24 
 271      8F0902D7 
 271      3D2F5CF7 
 272 0311 A26055D2 		.ascii	"\242`U\322wk\2535\202;\356\257\250\322r\245)\010I\335"
 272      776BAB35 
 272      823BEEAF 
 272      A8D272A5 
 272      290849DD 
 273 0325 2B24F8A8 		.ascii	"+$\370\250Q\033^\237\330]\313BQ\365\007\252\301*\252"
 273      511B5E9F 
 273      D85DCB42 
 273      51F507AA 
 273      C12AAA
 274 0338 8FC7DABC 		.ascii	"\217\307\332\274\014\234:\357\205\033\256+\264\242o"
 274      0C9C3AEF 
 274      851BAE2B 
 274      B4A26F
 275 0347 50B16753 		.ascii	"P\261gS\025;\203\274:7\322\377\323\362\334\216_\035"
 275      153B83BC 
 275      3A37D2FF 
 275      D3F2DC8E 
 275      5F1D
 276 0359 BE6505EC 		.ascii	"\276e\005\354\273lT_\013\364\215\3453\037\265\005\306"
 276      BB6C545F 
 276      0BF48DE5 
 276      331FB505 
 276      C6
 277 036a B48D6243 		.ascii	"\264\215bC\257r\327\327\316 \335\240\345\215\377p9S"
 277      AF72D7D7 
 277      CE20DDA0 
 277      E58DFF70 
 277      3953
 278 037c 8D992A40 		.ascii	"\215\231*@\223K\277J\177\213,\210wJK\020\"\316\221\323"
 278      934BBF4A 
 278      7F8B2C88 
 278      774A4B10 
 278      22CE91D3 
 279 0390 67170DA2 		.ascii	"g\027\015\242\257_\276\373 \177\035\220\374\030\341"
 279      AF5FBEFB 
 279      207F1D90 
 279      FC18E1
 280 039f B1CCE070 		.ascii	"\261\314\340p>\227\261\206\007\3062\003\271\003\031"
 280      3E97B186 
 280      07C63203 
ARM GAS  /tmp/cci85wme.s 			page 22


 280      B90319
 281 03ae 6BD0E977 		.ascii	"k\320\351w\206G2\243\205\342\320\313\031\232\024F3#"
 281      864732A3 
 281      85E2D0CB 
 281      199A1446 
 281      3323
 282 03c0 058BF65F 		.ascii	"\005\213\366_+\346\212\271\221]\026\310\241\227\306"
 282      2BE68AB9 
 282      915D16C8 
 282      A197C6
 283 03cf B0B067B3 		.ascii	"\260\260g\263\300\334\353\243\231\247\367\365\356\355"
 283      C0DCEBA3 
 283      99A7F7F5 
 283      EEED
 284 03dd CD3843D6 		.ascii	"\3158C\326+\305\001\366-\344^\264\362\317\024\207\254"
 284      2BC501F6 
 284      2DE45EB4 
 284      F2CF1487 
 284      AC
 285 03ee 5D8390DC 		.ascii	"]\203\220\334\327\373l\252?;\222{\265\340<\222J?\012"
 285      D7FB6CAA 
 285      3F3B927B 
 285      B5E03C92 
 285      4A3F0A
 286 0401 A200D17C 		.ascii	"\242\000\321|.?\\\030\203\177\000\0327\273\377"
 286      2E3F5C18 
 286      837F001A 
 286      37BBFF
 287              		.text
 288              		.section	.gnu.lto_chOQObjectInit.961ee309c06e882b,"",%progbits
 289 0000 789C9593 		.ascii	"x\234\225\2231K\303@\024\200\337\2734\246\266\224\212"
 289      314BC340 
 289      1480DFBB 
 289      34A6B694 
 289      8A
 290 0011 4E0E82AB 		.ascii	"N\016\202\253\026\033\020\301?\242\240\203CMB\023\264"
 290      161B10C1 
 290      3FA2A083 
 290      434D4213 
 290      B4
 291 0022 2D36ADA0 		.ascii	"-6\255\240\016M\255\233 \235\355T\254\012\025\324A\304"
 291      0E4DAD9B 
 291      209DED54 
 291      AC0A15D4 
 291      41C4
 292 0034 A183ABAD 		.ascii	"\241\203\253\255\212:\011:\324\311\301\037`\351\242"
 292      8A3A093A 
 292      D4C9C11F 
 292      60E9A2
 293 0043 2FC955DA 		.ascii	"/\311U\332ZE\017r\357\345\270\357\273\367\310\205\001"
 293      5A450F72 
 293      EFE5B8EF 
 293      BBF7C885 
 293      01
 294 0054 83EE314C 		.ascii	"\203\3561L\217W\000(RD\001\220\345o\001\262^\206h'\200"
 294      8F570028 
 294      52440190 
ARM GAS  /tmp/cci85wme.s 			page 23


 294      E56F01B2 
 294      5E866827 
 295 0069 90619899 		.ascii	"\220a\230\231Gg\357\011\273\254\177|\034\237?\234U\260"
 295      4767EF09 
 295      BBAC7F7C 
 295      1C9F3F9C 
 295      55B0
 296 007b CA861063 		.ascii	"\312\206\020cHF\003A\244\014%\232\230\237^1@\231\020"
 296      48460341 
 296      A40C259A 
 296      989F5E31 
 296      409910
 297 008e A4C94390 		.ascii	"\244\311C\220\010[\226\225\037\005P\034\311\014\315"
 297      085B9695 
 297      1F05501C 
 297      C90CCD
 298 009d B6791699 		.ascii	"\266y\026\231\035\205\033\330l\346\336Kr\004\213(B\024"
 298      1D851BD8 
 298      6CE6DE4B 
 298      72048B28 
 298      4214
 299 00af D906AC93 		.ascii	"\331\006\254\2231\004e\213\306\232\201\254\000\273h"
 299      3104658B 
 299      C69A81AC 
 299      00BB68
 300 00be A010459C 		.ascii	"\240\020E\234\243\350q*Y\304\266\026HQ\253\024\256_"
 300      A3E8712A 
 300      59C4B616 
 300      4851AB14 
 300      AE5F
 301 00d0 A5AFA3DC 		.ascii	"\245\257\243\334\344\362m\247\351\037\001p\325\012:"
 301      E4F26DA7 
 301      E91F0170 
 301      D50A3A
 302 00df 8C2BAE3F 		.ascii	"\214+\256?\275T&\014\024\311\235\265\254\001:\205\353"
 302      BD54260C 
 302      14C99DB5 
 302      AC013A85 
 302      EB
 303 00f0 81EBD1C6 		.ascii	"\201\353\321\306\016\010\263Kr\216\270\312\373\"\270"
 303      0E08B34B 
 303      728EB8CA 
 303      FB22B8
 304 00ff 4F2BBCB4 		.ascii	"O+\274\264\340o8\373\206\327\236\033\245q\267\022.\010"
 304      E06F38FB 
 304      86D79E1B 
 304      A571B712 
 304      2E08
 305 0111 18D8D7BB 		.ascii	"\030\330\327\2737\301\211Q\033\267\311\306aS\354 \013"
 305      37C18951 
 305      1BB7C9C6 
 305      6153EC20 
 305      0B
 306 0122 B4177BA3 		.ascii	"\264\027{\243\036\216J\274\346\301\016p\341GN\354\344"
 306      1E8E4ABC 
 306      E6C10E70 
 306      E1474EEC 
ARM GAS  /tmp/cci85wme.s 			page 24


 306      E4
 307 0133 4E7DDDA5 		.ascii	"N}\335\245\376\300\365\265s\271\355\334\336~\250\365"
 307      FEC0F5B5 
 307      73B9EDDC 
 307      DE7EA8F5 
 308 0143 25FDB4DA 		.ascii	"%\375\264\332\352\341\352N\372\243P\342B\277\333\373"
 308      EAE1EA4E 
 308      FAA350E2 
 308      42BFDBFB 
 309 0153 45B9CABA 		.ascii	"E\271\312\272I\2517\351\345d\300%\037\313M\354&\275"
 309      49A937E9 
 309      E564C025 
 309      1FCB4DEC 
 309      26BD
 310 0165 BDC97E4E 		.ascii	"\275\311~N\006\001\356![?\032s\271\326\230\241\333@"
 310      0601EE21 
 310      5B3F1A73 
 310      B9D698A1 
 310      DB40
 311 0177 57D5FE77 		.ascii	"W\325\376w&e=\021\323d%\241\256\311\252\266*+\272\261"
 311      26653D11 
 311      D36425A1 
 311      AEC9AAB6 
 311      2A2BBAB1 
 312 018b 68244C39 		.ascii	"h$L9\225L\307\227dJ\222)\331L*\264\276\222\326\322\232"
 312      954CC797 
 312      644A9229 
 312      D94C2AB4 
 312      BE92D6D2 
 313 01a0 195660EA 		.ascii	"\031V`\352\017\210\021W\226\323*m\322MEW\303:L\377\013"
 313      0F881157 
 313      96D32A6D 
 313      D24D4557 
 313      C33A4CFF 
 314 01b5 4AE9492D 		.ascii	"J\351I-\242\232\304}\002\247\032\350\007"
 314      A29AC47D 
 314      02A71AE8 
 314      07
 315              		.text
 316              		.section	.gnu.lto_chOQResetI.961ee309c06e882b,"",%progbits
 317 0000 789C7D92 		.ascii	"x\234}\222\273K\003A\020\306gvs\311\345\210\217\326"
 317      BB4B0341 
 317      10C66776 
 317      73C9E588 
 317      8FD6
 318 0012 CE56032E 		.ascii	"\316V\003.\210\177J\004\203\225\271\034\311\"1\344%"
 318      887F4A04 
 318      8395B91C 
 318      C92231E4 
 318      25
 319 0023 688A5C8C 		.ascii	"h\212\\\214\202v\0076\242\225\215\202\205\026i\004\233"
 319      82760736 
 319      A2958D82 
 319      85166904 
 319      9B
 320 0034 B4821A6D 		.ascii	"\264\202\032mS\205\264\202X\0071\316\336#!\2328p\337"
 320      5385B482 
ARM GAS  /tmp/cci85wme.s 			page 25


 320      580731CE 
 320      DE23219A 
 320      3870DF
 321 0047 2E73F3FB 		.ascii	".s\363\373\366c\357\0300\370]\013\364$\251\275F+r@\346"
 321      F663EF18 
 321      30F85D0B 
 321      F424A9BD 
 321      462B7240 
 322 005c BC00D475 		.ascii	"\274\000\324u\206\2506\200PcXK\242;{\307Z\335\301\340"
 322      86A83680 
 322      5063584B 
 322      A23B7BC7 
 322      5ADDC1E0 
 323 0070 D639BDFE 		.ascii	"\3269\275\376\302'6\3130\207\300A\"\204\225DHPW\022"
 323      C22736CB 
 323      3087C041 
 323      22849544 
 323      48505712 
 324 0084 556290B0 		.ascii	"Ub\220\260\030\011'R\203C\333v\026\001L\327)A\252\354"
 324      18092752 
 324      8343DB76 
 324      16014CD7 
 324      2941AAEC 
 325 0098 D791A995 		.ascii	"\327\221\251\225?\303A\347\254\331\013m\341%j\220A\036"
 325      3FC341E7 
 325      ACD90B6D 
 325      E1256A90 
 325      411E
 326 00aa 876572BC 		.ascii	"\207er\274\200s\224\030\312 \333\240Us3\2440HN\320\343"
 326      80739418 
 326      CA20DBA0 
 326      557333A4 
 326      30484ED0 
 327 00bf E79C87C4 		.ascii	"\347\234\207\304\341\306\246\332\234\012yTF\205Q\234"
 327      E1C6A6DA 
 327      9C0A7954 
 327      4685519C 
 328 00cf 638C7133 		.ascii	"c\214q3S96\306u\356\233=\026\204\014\377\027\222\217"
 328      533936C6 
 328      75EE9B3D 
 328      16840CFF 
 328      17928F
 329 00e2 42BEF380 		.ascii	"B\276\363\200\210\020\364\253\245\373\326\215\223a+"
 329      8810F4AB 
 329      A5FBD68D 
 329      93612B
 330 00f1 EA0EEAEE 		.ascii	"\352\016\352\356\340\307\260k\320\013/\373\353\237\354"
 330      E0C7B06B 
 330      D00B2FFB 
 330      EB9FEC
 331 0100 E1C91942 		.ascii	"\341\311\031B~v\303\345\372\215\207\253x\340\026\253"
 331      7E76C3E5 
 331      FA8D87AB 
 331      78E016AB 
 332 0110 C2BE54D7 		.ascii	"\302\276T\327\354Z\024$F&[h\243\037\245\015G-\237\007"
 332      EC5A1424 
 332      46265B68 
ARM GAS  /tmp/cci85wme.s 			page 26


 332      A31FA50D 
 332      472D9F07 
 333 0124 A842DF3E 		.ascii	"\250B\337>\266\347%\352\346\360jc\012\214~\017\374\302"
 333      B6E725EA 
 333      E6F06A63 
 333      0A8C7E0F 
 333      FCC2
 334 0136 9A5427BF 		.ascii	"\232T'\277A\275\333^\0128\257\022\304\320gWw\273*\262"
 334      41BDDB5E 
 334      0A38AF12 
 334      C4D06757 
 334      77BB2AB2 
 335 014a F99C25CC 		.ascii	"\371\234%\314|zO\244\255]afeJ\346K\242\\\254\354l\013"
 335      7C7A4FA4 
 335      AD5D6166 
 335      654AE64B 
 335      A25CACEC 
 336 0160 DA14CBA2 		.ascii	"\332\024\313\242T4\251_\250X\025\253\264b\302\017\034"
 336      5434A95F 
 336      A85815AB 
 336      B462C20F 
 336      1C
 337 0171 6895E9   		.ascii	"h\225\351"
 338              		.text
 339              		.section	.gnu.lto_chOQPutTimeout.961ee309c06e882b,"",%progbits
 340 0000 789C8D54 		.ascii	"x\234\215T[H\024Q\030\376\3773\263;\027\307uM\274\274"
 340      5B481451 
 340      18FEFF33 
 340      B33B17C7 
 340      754DBCBC 
 341 0014 244B1051 		.ascii	"$K\020Q\206SA/=\011A\340\203/\351B=\305:\016\353P\353"
 341      8653412F 
 341      3D0941E0 
 341      832FE942 
 341      3DC53A0E 
 342 002b D6AE1B5E 		.ascii	"\326\256\033^\036\034u\003\301\010\037\022\254\210\264"
 342      1E1C7503 
 342      C1081F12 
 342      AC88B4
 343 003a 2048A288 		.ascii	" H\242\210^\252'\263\354&\251ED-=\330E\3661{L\204\355"
 343      5EAA27B3 
 343      EC26A945 
 343      442D3DD8 
 343      45F6317B 
 344 0051 3F333BEB 		.ascii	"?3;\353*\213v`\377s\316\374\337\367_\276s\3162`\260"
 344      2A8B7660 
 344      FF73CEFC 
 344      DFF75FBE 
 344      73CE3260 
 345 0066 75F4D0EF 		.ascii	"u\364\320\357\223\0100N3\226\001\262\261\005\200A\231"
 345      9308304E 
 345      339601B2 
 345      B1058041 
 345      99
 346 0077 A1CF5D08 		.ascii	"\241\317]\010L\234\025\300V\325\205w\000\266&\242\342"
 346      4C9C15C0 
 346      56D58577 
ARM GAS  /tmp/cci85wme.s 			page 27


 346      00B626A2 
 346      E2
 347 0088 7E575D00 		.ascii	"~W]\000\372\230\340xT?\207i~&\215\354\243\235\314\255"
 347      FA98E078 
 347      543F8769 
 347      7E268DEC 
 347      A39DCCAD 
 348 009c 26A1ECA2 		.ascii	"&\241\354\242e\227\206\012\"\237\001a\200\011\242\352"
 348      6597860A 
 348      229F0161 
 348      8009A2EA 
 349 00ac F34BB282 		.ascii	"\363K\262\202\003\247\221W\202{`\312\266\307\226W~d"
 349      03A79157 
 349      827B60CA 
 349      B6C79657 
 349      7E64
 350 00be F09A3D93 		.ascii	"\360\232=\223\236\264\327s9D\013\251\352\243\010\006"
 350      9EB4D773 
 350      39440BA9 
 350      EAA30806 
 351 00ce C229DA60 		.ascii	"\302)\332`\310\231\230\270\271\215\207lf9\227[\277\365"
 351      C89998B8 
 351      B98D876C 
 351      6639975B 
 351      BFF5
 352 00e0 F4F237CC 		.ascii	"\364\3627\314\260z\004\242\211\334H\030C\220i%(dD\225"
 352      B07A04A2 
 352      89DC4818 
 352      43906925 
 352      28644495 
 353 00f4 B6A84104 		.ascii	"\266\250A\004\247(]\200\177\016\222\361UrSE>V\315W5"
 353      A7285D80 
 353      7F0E92F1 
 353      55725345 
 353      3E56CD57 
 354 0109 DCD47243 		.ascii	"\334\324rC\241}\220\246\262B\300+\240\321Fv\325\017"
 354      A17D90A6 
 354      B242C02B 
 354      A0D14676 
 354      D50F
 355 011b 61643409 		.ascii	"ad4\011\0130\364\347\357\325\237u\005P\004\3578,j\021"
 355      0B30F4E7 
 355      EFD59F75 
 355      055004EF 
 355      382C6A11 
 356 012f A14FE08A 		.ascii	"\241O\340\212\013\256\354\3650\2127\355\211&\013\375"
 356      0BAEECF5 
 356      308A37ED 
 356      89260BFD 
 357 013f 7CCBBB90 		.ascii	"|\313\273\220B|U\360_\311\373\345\215\276\302(\000\351"
 357      427C55F0 
 357      5FC9FBE5 
 357      8DBEC228 
 357      00E9
 358 0151 2BBC87A1 		.ascii	"+\274\207\241\265\027\363\257\346\224|\"\267\201\242"
 358      B517F3AF 
 358      E6947C22 
ARM GAS  /tmp/cci85wme.s 			page 28


 358      B781A2
 359 0160 745154FA 		.ascii	"tQT\372\241\217:l\200i\233\306c\012\257\334\200\353"
 359      A18F3A6C 
 359      80699BC6 
 359      630AAFDC 
 359      80EB
 360 0172 34A95194 		.ascii	"4\251Q\224x\2662'b;\026\311\266\010\227f\352\"8M1\242"
 360      78B63227 
 360      623B16C9 
 360      B6089766 
 360      EA22384D 
 361 0188 A8F5C39A 		.ascii	"\250\365\303\232=b\007-\324\014tQ\0245\212\252\205\345"
 361      3D62072D 
 361      D40C7451 
 361      14358AAA 
 361      85E5
 362 019a 006FE0E5 		.ascii	"\000o\340\345\012\026\240<^\240\370\000\302(\302\003"
 362      0A16A03C 
 362      5EA0F800 
 362      C228C203 
 363 01aa A1941ED3 		.ascii	"\241\224\036\323[\365\210\340]\352\312\351\037\212\372"
 363      5BF588E0 
 363      5DEACAE9 
 363      1F8AFA
 364 01b9 8FE03DAC 		.ascii	"\217\340=\254\337\010\330\206*L\276\006\014\023\235"
 364      DF08D886 
 364      2A4CBE06 
 364      0C139D
 365 01c8 EE0C57E0 		.ascii	"\356\014W\340\331\334|\356\227\302\253\222\335\316*"
 365      D9DC7CEE 
 365      97C2AB92 
 365      DDCE2A
 366 01d7 BCCEF28A 		.ascii	"\274\316\362\212Q\215\331\347\343\2375W\025\202qg\305"
 366      518DD9E7 
 366      E39F3557 
 366      15827167 
 366      C5
 367 01e8 E632FD30 		.ascii	"\3462\3750+P\260\341\221\341\337\367\367{\300\200\207"
 367      2B50B0E1 
 367      91E1DFF7 
 367      F77BC080 
 367      87
 368 01f9 CDD1E004 		.ascii	"\315\321\340\004\312\326\354:\363z\226\223\263\264\234"
 368      CAD6EC3A 
 368      F37A9693 
 368      B3B49C
 369 0208 9E520187 		.ascii	"\236R\001\207\225\231\310\036\363\242\006\033\340\000"
 369      9599C81E 
 369      F3A2061B 
 369      E000
 370 0216 DDA1D234 		.ascii	"\335\241\3224\357)R)\243\303\267\321\343T\022\315\271"
 370      EF295229 
 370      A3C3B7D1 
 370      E35412CD 
 370      B9
 371 0227 E058AA8A 		.ascii	"\340X\252\212\212\035\302\021\337a\315\257\252.\217"
 371      8A1DC211 
ARM GAS  /tmp/cci85wme.s 			page 29


 371      DF61CDAF 
 371      AA2E8F
 372 0236 C083C493 		.ascii	"\300\203\304\223,\014\346\003\373\362\300*\267\334'"
 372      2C0CE603 
 372      FBF2C02A 
 372      B7DC27
 373 0245 D98F85DC 		.ascii	"\331\217\205\334\325\377W\357Pf)\340Qj\266\243\010\340"
 373      D5FF57EF 
 373      506629E0 
 373      516AB6A3 
 373      08E0
 374 0257 1D4B3A3B 		.ascii	"\035K:;X^\310B\254\342\003\221\340;\362\323\315|\311"
 374      585EC842 
 374      ACE20391 
 374      E03BF2D3 
 374      CD7CC9
 375 026a AE310F54 		.ascii	"\2561\017T\273]\\q\243\224\267K\352&\201\016\357(P\255"
 375      BB5D5C71 
 375      A394B74B 
 375      EA26810E 
 375      EF2850AD 
 376 027e 9757E617 		.ascii	"\227W\346\027a\021\322\262\227S,\334\377J\243\000'\345"
 376      6111D2B2 
 376      97532CDC 
 376      FF4AA300 
 376      27E5
 377 0290 76790C85 		.ascii	"vy\014\205\277\370\017\364w\306\035\316\261\177\005"
 377      BFF80FF4 
 377      77C61DCE 
 377      B17F05
 378 029f A4C720AE 		.ascii	"\244\307 \256?\332Mt\031\371\255E\002q\362\021\2753"
 378      3FDA4D74 
 378      19F9AD45 
 378      0271F211 
 378      BD33
 379 02b1 1E337523 		.ascii	"\0363u#\336\321\253w\230\027u\243\323j\267\342I\275"
 379      DED1AB77 
 379      981775A3 
 379      D36AB7E2 
 379      49BD
 380 02c3 3B91EA3A 		.ascii	";\221\352:\253\323\"\321\255'\023\006}\277\2202Sf\262"
 380      ABD322D1 
 380      AD271306 
 380      7DBF9032 
 380      5366B2
 381 02d6 D1002196 		.ascii	"\321\000!\226\2146\355D3{\272\365\343-\255\315\255\272"
 381      8C36ED44 
 381      337BBAF5 
 381      E32DADCD 
 381      ADBA
 382 02e8 D5659C4B 		.ascii	"\325e\234Kupl\302<c\304N\244\272\214\306N\010\266\264"
 382      75706CC2 
 382      3C63C44E 
 382      A4BA8CC6 
 382      4E08B6B4 
 383 02fc 9E0CB547 		.ascii	"\236\014\265G\222\346\371\204u0\264\367\020\260\004"
 383      92E6F984 
ARM GAS  /tmp/cci85wme.s 			page 30


 383      7530B4F7 
 383      10B004
 384 030b 48313316 		.ascii	"H13\026O\364\302?U\026:\330"
 384      4FF4C23F 
 384      55163AD8 
 385              		.text
 386              		.section	.gnu.lto_chOQGetI.961ee309c06e882b,"",%progbits
 387 0000 789C8D54 		.ascii	"x\234\215T[KTQ\024^k\237\353\334\234t\034{\350E\204"
 387      5B4B5451 
 387      145E6B9F 
 387      EBDC9C74 
 387      1C7BE845 
 388 0015 10B21C12 		.ascii	"\020\262\034\022\252\337\320\273\003\3658\216\323\314"
 388      AADFD0BB 
 388      03F5388E 
 388      D3CC
 389 0023 A1D4729C 		.ascii	"\241\324r\234\240|p\217\243 X \022t\261\207L2\350A\013"
 389      A07C708F 
 389      A3205820 
 389      1274B187 
 389      4C32E841 
 390 0038 ECA12018 		.ascii	"\354\241 \030*\303\210.\366P$R\006\201\017\205DA\205"
 390      2AC3882E 
 390      F6502452 
 390      06810F85 
 390      444185
 391 004b 59D3DAFB 		.ascii	"Y\323\332\373\2343\227\232\262\015\263\316^\373|\337"
 391      9C33979A 
 391      B20DB3CE 
 391      5EFB7CDF 
 392 005b B7D7ED0C 		.ascii	"\267\327\355\014\003\006\277\257\014\375\2325\373\211"
 392      0306BFAF 
 392      0CFD9A35 
 392      FB89
 393 0069 5E4036F6 		.ascii	"^@6\366\004 k2\246,\373\200{\325\271\273\000\334\257"
 393      04206B32 
 393      A62CFB80 
 393      7BD5B9BB 
 393      00DCAF
 394 007c 306DA459 		.ascii	"0m\244Y\270\302\372U\324l\224\306<c\012\035\353\374"
 394      B8C2FA55 
 394      D46C94C6 
 394      3C630A1D 
 394      EBFC
 395 008e 9140E9CC 		.ascii	"\221@\351\314\220(S\242\0144m\224\211\036{\343A\024"
 395      902853A2 
 395      0C346D94 
 395      891E7BE3 
 395      4114
 396 00a0 1B401860 		.ascii	"\033@\030`\212\252\351\006\235\014\034D\021\006k\202"
 396      8AAAE906 
 396      9D0C1C44 
 396      11066B82 
 397 00b0 49CEC757 		.ascii	"I\316\307W\346?-\341Y\236\317^\342\033\205\002\242\205"
 397      E63F2DE1 
 397      599ECF5E 
 397      E21B8502 
ARM GAS  /tmp/cci85wme.s 			page 31


 397      A285
 398 00c2 14F21E84 		.ascii	"\024\362\036\2048\302\001r\320\224\017\206\2259H\356"
 398      38C20172 
 398      D0940F86 
 398      953948EE 
 399 00d2 D8CA9B1B 		.ascii	"\330\312\233\033s\251\363g\362CE\256\302\240\273\304"
 399      73A9F367 
 399      F24345AE 
 399      C2A0BBC4 
 400 00e2 6DB4B96A 		.ascii	"m\264\271j%w\226\345W\012\205\231\361\227\323\027\361"
 400      257796E5 
 400      570A8599 
 400      F197D317 
 400      F1
 401 00f3 35DB8A60 		.ascii	"5\333\212`\241\252a\027\202N;\315\020\306CF\367A\014"
 401      A1AA6117 
 401      824E3BCD 
 401      10C64346 
 401      F7410C
 402 0106 27B109FC 		.ascii	"'\261\011\374\302\011\010\023$c\324\012|\235pC\302\324"
 402      C2090813 
 402      2463D40A 
 402      7C9D7043 
 402      C2D4
 403 0118 0B7C98A0 		.ascii	"\013|\230\240S\004m \307\244+4\030\242\360\032m>\210"
 403      53046D20 
 403      C7A42B34 
 403      18A2F01A 
 403      6D3E88
 404 012b 7868B593 		.ascii	"xh\265\223\025\305\210\"\023O\3451\014.mL<x\2419h\227"
 404      15C58822 
 404      134FE531 
 404      0C2E6D4C 
 404      3C78A139 
 405 0141 961F5DBD 		.ascii	"\226\037]\275I\355\211\341\025\324\210*\271I\254k\201"
 405      49ED89E1 
 405      15D4882A 
 405      B949AC6B 
 405      81
 406 0152 6B9C7391 		.ascii	"k\234s\221\362.\272v\002.d9\337b\241'\211\232\310\322"
 406      F22EBA76 
 406      022E6439 
 406      DF62A127 
 406      899AC8D2 
 407 0166 2B73EB10 		.ascii	"+s\353\020\350\030^%&-q\303\365P\014\247\311Mb\250\005"
 407      E8185E25 
 407      262D71C3 
 407      F5500CA7 
 407      C94D62A8 
 408 017b 76FC8B89 		.ascii	"v\374\213\211e\314\005\270\277\232]D\227ZG\354R\001"
 408      65CC05B8 
 408      BF9A5D44 
 408      975A47EC 
 408      5201
 409 018d A3A8C0B2 		.ascii	"\243\250\300\262O\306\377q\233\013\251\227\352\276\277"
 409      4FC6FF71 
 409      9B0BA997 
ARM GAS  /tmp/cci85wme.s 			page 32


 409      EABEBF
 410 019c AAB30AF5 		.ascii	"\252\263\012\365\241\017e\352\365\002\347+oQ;\252py"
 410      A10F65EA 
 410      F502E72B 
 410      6F513BAA 
 410      7079
 411 01ae 019428BD 		.ascii	"\001\224(\275wJ\265\226\253q\361\015I\014\333\"o\347"
 411      774AB596 
 411      AB71F10D 
 411      490CDB22 
 411      6FE7
 412 01c0 3FB7D975 		.ascii	"?\267\331u\242S\241b\2264^AX\234(\010\312\317\323S\367"
 412      A253A162 
 412      96345E41 
 412      589C2808 
 412      CACFD353 
 413 01d5 74E900A8 		.ascii	"t\351\000\2502\001\035h~e\006\313\357ftWB/\346\200U"
 413      32011D68 
 413      7E6506CB 
 413      EF667457 
 413      422FE680 
 414 01ea 1300BBA8 		.ascii	"\023\000\273\250\271\221\3344\272\034\203h2~\264\013"
 414      B991DC34 
 414      BA1C8368 
 414      327EB40B 
 415 01fa BEDF7E61 		.ascii	"\276\337~aw\213\0076\221#\276T\034\315\275\237\331\351"
 415      778B0736 
 415      9123BE54 
 415      1CCDBD9F 
 415      D9E9
 416 020c 4A123454 		.ascii	"J\0224T\034\372?$\367\331=\254\"\211\216\244G\262n\017"
 416      1CFA3F24 
 416      F7D93DAC 
 416      22898EA4 
 416      47B26E0F 
 417 0220 37B8824E 		.ascii	"7\270\202NWx\220>.G[/f3\270\364\355\313s\305\205\372"
 417      5778903E 
 417      2E475B2F 
 417      6633B8F4 
 417      EDCB73C5 
 418 0236 8B4352E5 		.ascii	"\213CR\345\002\305!Q\351W\263\201\262p\375\345\303a"
 418      02C52151 
 418      E957B381 
 418      B270FDE5 
 418      C361
 419 0248 407EBB2C 		.ascii	"@~\273,\355\271\257\353\314\005\005\376\245\253\226"
 419      EDB9AFEB 
 419      CC0505FE 
 419      A5AB96
 420 0257 8279F8CC 		.ascii	"\202y\370\314[\221\355\356M\263\015\270\367\232nO\327"
 420      5B91EDEE 
 420      4DB30DB8 
 420      F79A6E4F 
 420      D7
 421 0268 73DF4BC5 		.ascii	"s\337K\305\014\366\303I\372j\035\271\264\205\376\352"
 421      0CF6C349 
 421      FA6A1DB9 
ARM GAS  /tmp/cci85wme.s 			page 33


 421      B485FEEA 
 422 0278 725A2985 		.ascii	"rZ)\205\2470\234w\370\000\375\260\316G\304@\007\342"
 422      A7309C77 
 422      F800FDB0 
 422      CE47C440 
 422      07E2
 423 028a C59E0505 		.ascii	"\305\236\005\005\221\202\266\260F\006\275\226\233\232"
 423      9182B6B0 
 423      4606BD96 
 423      9B9A
 424 0298 2D56B036 		.ascii	"-V\2606\351\316r\224:!\246w\221\376\010\005\015\355"
 424      E9CE7294 
 424      3A21A677 
 424      91FE0805 
 424      0DED
 425 02aa B144C9FE 		.ascii	"\261D\311\376Qp\026\016h\033\267\302\3043O\335\011\210"
 425      5170160E 
 425      681BB7C2 
 425      C4334FDD 
 425      0988
 426 02bc D1474112 		.ascii	"\321GA\022W\265ER=]\211H\274\247\363D\2443q<\022OY\035"
 426      57B54552 
 426      3D5D8948 
 426      BCA7F344 
 426      A433713C 
 427 02d4 564F3AD2 		.ascii	"VO:\322\327\233\351>\034\241Mo_$\335\033\247\363c\231"
 427      D79BE93E 
 427      1CA14D6F 
 427      5F24DD1B 
 427      A7F36399 
 428 02e8 4426916E 		.ascii	"D&\221n\215\003v\354\375\017\222\325\035?\222\351L\224"
 428      8D0376EC 
 428      FD0F92D5 
 428      1D3F92E9 
 428      4C94
 429 02fa 882930AC 		.ascii	"\210)0\254C}]G[\333~\001\035\307Y="
 429      437D5D47 
 429      5BDB7E01 
 429      1DC7593D 
 430              		.text
 431              		.section	.gnu.lto_chOQWriteTimeout.961ee309c06e882b,"",%progbits
 432 0000 789CAD55 		.ascii	"x\234\255Uoh[U\024?\347\276\274\374{/M\272\332\330\316"
 432      6F685B55 
 432      143FE7BE 
 432      BCFC7B2F 
 432      4DBADAD8 
 433 0015 3664011B 		.ascii	"6d\001\033X\245qj\035~rC\020\366a_\254\005\367A$M\263"
 433      58A5716A 
 433      1D7E7243 
 433      10F6615F 
 433      AC05F741 
 434 002c D7874BAB 		.ascii	"\327\207K\253i\243\326\011{M[(\310 \210\340V\021Vd\010"
 434      69A3D609 
 434      7B4D5B28 
 434      C82088E0 
 434      56115664 
 435 0041 85B5827F 		.ascii	"\205\265\202\177\220Q\245s\202\235\335:dCL\220R(2p\203"
ARM GAS  /tmp/cci85wme.s 			page 34


 435      9051A573 
 435      829DDD3A 
 435      64434C90 
 435      52283270 
 436 0056 E1972173 		.ascii	"\341\227!s\030\317\311}\3575\035a\235\340\203\334{\317"
 436      18CFC97D 
 436      EF351D61 
 436      9DE083DC 
 436      7BCF
 437 0068 3DE7FCCE 		.ascii	"=\347\374\316\377\033\001\002\356\377\346\350w\320\007"
 437      FF1B0102 
 437      EEFFE6E8 
 437      77D007
 438 0077 F011EDD8 		.ascii	"\360\021\355\330\004(Jk\000\023~\201^yP\204\347{\005"
 438      04284A6B 
 438      00137E81 
 438      5E795084 
 438      E77B05
 439 008a ACA0BAF6 		.ascii	"\254\240\272\366\023\200\245{0$\357U)p\320+\224\353"
 439      1380A57B 
 439      3024EF55 
 439      2970D02B 
 439      94EB
 440 009c 51E2FB96 		.ascii	"Q\342\373\226\366\023\333'\3743I\242\002\274\352~\014"
 440      F613DB27 
 440      FC3349A2 
 440      02BCEA7E 
 440      0C
 441 00ad 48E18008 		.ascii	"H\341\200\010\376\370,]k\227\036\245\353 j\362Z\023"
 441      FEF82C5D 
 441      6B971EA5 
 441      EB206AF2 
 441      5A13
 442 00bf A11AB62E 		.ascii	"\241\032\266.\261uT\345}\010\221\017\200pB(\036\325"
 442      B17554E5 
 442      7D08910F 
 442      80704228 
 442      1ED5
 443 00d1 EBF30782 		.ascii	"\353\363\007\202\232\036\302\023G\220]\026\011\230\263"
 443      9A1EC213 
 443      47905D16 
 443      0998B3
 444 00e0 AC0F36CE 		.ascii	"\254\0176\316~v\023O[\313Sg\254{\325*\242\211\024^/"
 444      7E76134F 
 444      5BCB5367 
 444      AC7BD52A 
 444      A289145E 
 445 00f5 4206E115 		.ascii	"B\006\341\025\"0^\333\204g{\274Rw\371\333\331\223\355"
 445      22305EDB 
 445      84677BBC 
 445      5277F9DB 
 445      D993ED
 446 0108 D69962C9 		.ascii	"\326\231b\311\372\207TMT\004<\267\223\346\242X\336\250"
 446      FA87544D 
 446      54043CB7 
 446      93E6A258 
 446      DEA8
ARM GAS  /tmp/cci85wme.s 			page 35


 447 011a 562F5F3B 		.ascii	"V/_;\267\371+F{\020rl/\207\250@\032?\305\004x\354=\210"
 447      B7F92B46 
 447      7B10726C 
 447      2F87A840 
 447      1A3FC504 
 448 0132 39141A11 		.ascii	"9\024\032\021sD\204\210\200&Z0\014&z\"\264\250\315D"
 448      73448488 
 448      80265A30 
 448      0C267A22 
 448      B4A8CD44 
 449 0146 2A2D74F2 		.ascii	"*-t\362\2662H\224\031m\264\370\332\031n7\237:l\254N"
 449      B6324894 
 449      196DB4F8 
 449      DA196E37 
 449      9F3A6CAC 
 450 015b 1688D18D 		.ascii	"\026\210\321\215?\316\327{xI\360\322e\013$Y\205\234"
 450      3FCED77B 
 450      7849F0D2 
 450      650B2459 
 450      859C
 451 016d 5361CAB2 		.ascii	"Sa\312\262JqiT\262\200\343\241\357eZ)\315\375(hS\256"
 451      4A716954 
 451      B280E3A1 
 451      EF655A29 
 451      CDFD2868 
 452 0183 40B1F20D 		.ascii	"@\261\362\015%.\215gQ\005\003\265n\230\267\350{\225"
 452      252E8D67 
 452      510503B5 
 452      6E98B7E8 
 452      7B95
 453 0195 D2F731CC 		.ascii	"\322\3671\314R\334\001\003\203\034\177\260\026\365\000"
 453      52DC0103 
 453      831C7FB0 
 453      16F500
 454 01a4 3AF1AF41 		.ascii	":\361\257A\361\317\277?\334l\263M\001H\210Z\235\020"
 454      F1CFBF3F 
 454      DC6CB34D 
 454      0148885A 
 454      9D10
 455 01b6 DE53B8B9 		.ascii	"\336S\270\271\024\331a18\211\237X\247\016\230\2501\311"
 455      14D96131 
 455      38899F58 
 455      A70E98A8 
 455      31C9
 456 01c8 687A9C4F 		.ascii	"hz\234O.\277d\363C[\371\355\247L^\217\262\203w/\256"
 456      2EBF64F3 
 456      435BF9ED 
 456      A74C5E8F 
 456      B283772F 
 457 01dd FE72C7E7 		.ascii	"\376r\307\347x\0309\016\357R\326l?O\023VScGq\013\353"
 457      7818390E 
 457      EF52D66C 
 457      3F4F1356 
 457      53634771 
 458 01f3 2A4C2F3F 		.ascii	"*L/?\357\000\264\034\207\273\326\214\02511\234\261\205"
 458      EF00B41C 
 458      87BBD68C 
ARM GAS  /tmp/cci85wme.s 			page 36


 458      1531319C 
 458      B185
 459 0205 08D5C066 		.ascii	"\010\325\300f\023#\000+0uk\242\327\225e@o}\331\373\321"
 459      1323002B 
 459      30756BA2 
 459      D7956540 
 459      6F7DD9FB 
 460 021a 0345541E 		.ascii	"\003ET\036&\3724\316S\014\265h\241.\3324\236\303X=\240"
 460      26FA34CE 
 460      530CB568 
 460      A12EDA34 
 460      9EC3583D 
 461 022f 0AD4F00A 		.ascii	"\012\324\360\012@\031Z\015\354\324\027\356\314v\032"
 461      40195A0D 
 461      ECD417EE 
 461      CC761A
 462 023e D4475886 		.ascii	"\324GX\206v\003\223\372\345r\332@\301d\207\201]\372"
 462      760393FA 
 462      E572DA40 
 462      C1648781 
 462      5DFA
 463 0250 52996E15 		.ascii	"R\231n\025\005Y\323\0134\030H):?}\373\313#\034GX\346"
 463      0559D30B 
 463      34184829 
 463      3A3F7DFB 
 463      CB231C47 
 464 0266 427172E1 		.ascii	"Bqr\341\227FV\340\207\033\027\312\225\220\023W\230\231"
 464      974656E0 
 464      871B17CA 
 464      95901357 
 464      9899
 465 0278 CA961365 		.ascii	"\312\226\023e@\003[UZB\202\014\011\003\333\231hb\202"
 465      40035B55 
 465      5A42820C 
 465      0903DB99 
 465      686282
 466 028b B03A54B4 		.ascii	"\260:T\264\025\304\255k&[\366\301\322~\252\315\344\314"
 466      15C4AD6B 
 466      265BF6C1 
 466      D27EAACD 
 466      E4CC
 467 029d E4CDAFBA 		.ascii	"\344\315\257\272\035\324\250\003\\\245/L\260\344\331"
 467      1DD4A803 
 467      5CA52F4C 
 467      B0E4D9
 468 02ac 21C9B4CB 		.ascii	"!\311\264\313\265\217\230\215\253%\354BDkZ\225\277\026"
 468      B58F988D 
 468      AB25EC42 
 468      446B5A95 
 468      BF16
 469 02be 56DD9E6C 		.ascii	"V\335\236l\353\206\275\324\343\215\365\234 \310\227"
 469      EB86BDD4 
 469      E38DF59C 
 469      20C897
 470 02cd F727E75D 		.ascii	"\367'\347]\235\335\244V\233Zl\344\306\323;\300\221\276"
 470      9DDDA456 
 470      9B5A6CE4 
ARM GAS  /tmp/cci85wme.s 			page 37


 470      C6D33BC0 
 470      91BE
 471 02df 8DF8878B 		.ascii	"\215\370\207\213\3105\251G<?\375\235\313\213I\260f["
 471      C835A947 
 471      3C3FFD9D 
 471      CB8B49B0 
 471      665B
 472 02f1 6497EB53 		.ascii	"d\227\353S\361\322\347\232\024\"\211\011\262\254\231"
 472      F1D2E79A 
 472      14228909 
 472      B2AC99
 473 0300 D862BBE6 		.ascii	"\330b\273\346\263M\305d\304\247\0267]\274\370\303E\\"
 473      B34DC564 
 473      C4A71637 
 473      5DBCF8C3 
 473      455C
 474 0312 AC94C28E 		.ascii	"\254\224\302\216\312\236\007\2518O\0275\367\215\211"
 474      CA9E07A9 
 474      384F1735 
 474      F78D89
 475 0321 7DAE15D2 		.ascii	"}\256\025\322\252\357C?\254?&\037\204\305U\305\021J"
 475      AAEF433F 
 475      AC3F261F 
 475      84C555C5 
 475      114A
 476 0333 3C0857AD 		.ascii	"<\010W\255\013\264\244mKq\357\216)N8v\003\334K<w\027"
 476      0BB4A46D 
 476      4B71EF8E 
 476      294E3876 
 476      03DC4B3C 
 477 0349 AAB3BAFB 		.ascii	"\252\263\272\373\020\261J\375\340\221`\020\326\273\224"
 477      10B14AFD 
 477      E0916010 
 477      D6BB94
 478 0358 AB30B5B1 		.ascii	"\2530\265\261r\305\353\314\233\301o\012Y0\361\021GL"
 478      72C5EBCC 
 478      9BC16F0A 
 478      5930F111 
 478      474C
 479 036a 63BCFF67 		.ascii	"c\274\377g@\271\303/\256\376~\324\361\252\213F\257\326"
 479      40B9C32F 
 479      AEFE7ED4 
 479      F1AA8B46 
 479      AFD6
 480 037c E1683327 		.ascii	"\341h3'\277\370\272\315a&iL\267\265?O\235[\323\344}"
 480      BFF8BACD 
 480      6126694C 
 480      B7B53F4F 
 480      9D5BD3E4 
 481 0391 23C79EEA 		.ascii	"#\307\236\352p\357\231\377\352i\274\261\247\0220\304"
 481      70EF99FF 
 481      EA69BCB1 
 481      A71230C4 
 482 03a1 6FFACFF4 		.ascii	"o\372\317\364\237\3119\251U\275\014\036\362\331\263"
 482      9FC939A9 
 482      55BD0C1E 
 482      F2D9B3
ARM GAS  /tmp/cci85wme.s 			page 38


 483 03b0 B05ED1C9 		.ascii	"\260^\321\311}\355\267r'\377\005 \3111\302S\251\241"
 483      7DEDB772 
 483      27FF0520 
 483      C931C253 
 483      A9A1
 484 03c2 915C3695 		.ascii	"\221\\6\225\031\031\034O\015f\337Je\206\314\001sd45"
 484      19191C4F 
 484      0D66DF4A 
 484      6586CC01 
 484      73643435 
 485 03d6 962F0CBF 		.ascii	"\226/\014\277\236\242C~,5\232\317\320\375\233\205l!"
 485      9EA2437E 
 485      2C359ACF 
 485      D0FD9B85 
 485      6C21
 486 03e8 3BDA9301 		.ascii	";\332\223\001e\370\3508\276}`'\305\354;c\251\027\016"
 486      65F8E838 
 486      BE7D6027 
 486      C5EC3B63 
 486      A9170E
 487 03fb F71DEA4B 		.ascii	"\367\035\352K\231\303\231c\205A\226\315g_\313\344^,"
 487      99C39963 
 487      854196CD 
 487      675FCBE4 
 487      5E2C
 488 040d 0C677A86 		.ascii	"\014gz\206 r\270\357\245\370@z4\373F\336|\"\376\370"
 488      2072B8EF 
 488      A5F8407A 
 488      34FB46DE 
 488      7C22FEF8 
 489 0421 9320F2E0 		.ascii	"\223 \362\340\313es#\371q\370\027I\200\301\353"
 489      CB657323 
 489      F971F817 
 489      4980C1EB 
 490              		.text
 491              		.section	.gnu.lto_.symbol_nodes.961ee309c06e882b,"",%progbits
 492 0000 789C4DCB 		.ascii	"x\234M\313;n\302P\024\204\341\231{\256c\343\307\016"
 492      3B6EC250 
 492      1484E199 
 492      7BAE63E3 
 492      C70E
 493 0012 22B1025A 		.ascii	"\"\261\002Z\366\302j\016J\021ETl\2004l\000\312\264q"
 493      F6C26A0E 
 493      4A114554 
 493      6C80346C 
 493      00CAB471 
 494 0026 2A406E28 		.ascii	"*@n(h\020Rbb\314+B\242O0\002\305w\272O\243\337\300\240"
 494      68105262 
 494      62CC2B42 
 494      A24F3002 
 494      C577BA4F 
 495 003e 4DDC669E 		.ascii	"M\334f\236\214\002\375\014P\035\274\320|Qy\347k\305"
 495      8C02FD0C 
 495      501DBCD0 
 495      7C5179E7 
 495      6BC5
 496 0050 9C6A1CAE 		.ascii	"\234j\034\256\251\342\360\233j\035\026T\317\341\206"
ARM GAS  /tmp/cci85wme.s 			page 39


 496      A9E2F09B 
 496      6A1D1654 
 496      CFE186
 497 005f FAE0B0A4 		.ascii	"\372\340\260\244\372\016\267\324\300\341\216\332p\270"
 497      FA0EB7D4 
 497      C0E18EDA 
 497      70B8
 498 006d A7863579 		.ascii	"\247\2065y\240F7v\273\344\221\032\327\372\241&\377\262"
 498      A0463776 
 498      BBE4911A 
 498      D7FAA126 
 498      FFB2
 499 007f C0BC5C50 		.ascii	"\300\274\\PL\204\341\347/Eb\344\275\217\246\330\004"
 499      4C84E1E7 
 499      2F4562E4 
 499      BD8FA6D8 
 499      04
 500 0090 C371D6B2 		.ascii	"\303q\326\262\026\347uu{\025\337V\035\353\341<:\032"
 500      16E77575 
 500      7B15DF56 
 500      1DEBE13C 
 500      3A1A
 501 00a2 F123A4CF 		.ascii	"\361#\244\317\207\246\004\011\322Q\326\222\000x\237"
 501      87A60409 
 501      D251D692 
 501      00789F
 502 00b1 FCF9D288 		.ascii	"\374\371\322\210\221^\3530A~*\036m\210\371t\266\364"
 502      915EEB30 
 502      417E2A1E 
 502      6D88F974 
 502      B6F4
 503 00c3 7001CFB3 		.ascii	"p\001\317\263e:"
 503      653A
 504              		.text
 505              		.section	.gnu.lto_.refs.961ee309c06e882b,"",%progbits
 506 0000 789C6362 		.ascii	"x\234cb`b`d\200\002\000\000F\000\006"
 506      60626064 
 506      80020000 
 506      460006
 507              		.text
 508              		.section	.gnu.lto_.decls.961ee309c06e882b,"",%progbits
 509 0000 789CC55B 		.ascii	"x\234\305[\177t\024\305\035\337\331\273\\\356\222\030"
 509      7F7414C5 
 509      1DDFD9BB 
 509      5CEE9218 
 510 0010 F0072D6D 		.ascii	"\360\007-mmM\237\266\317g\237\004\002*\332W\301Z\253"
 510      6D4D9FB6 
 510      CF679F04 
 510      022ADA57 
 510      C15AAB
 511 0023 F9A3D5DA 		.ascii	"\371\243\325\332\366\325W\355\273n.\013\271\232\334"
 511      F6D557ED 
 511      BB6E2E0B 
 511      B99ADC
 512 0032 5DEEF604 		.ascii	"]\356\366\004Z\373\334$\220Xbi8~\0121\204\002-\250\210"
 512      5AFBDC24 
 512      90586269 
ARM GAS  /tmp/cci85wme.s 			page 40


 512      387E0A31 
 512      84022DA8 
 513 0047 A0081195 		.ascii	"\240\010\021\225\223b\022A~\213\012Q\211?P\374U\240"
 513      93621241 
 513      7E8B0A51 
 513      893F50FC 
 513      55A0
 514 0059 88A844AE 		.ascii	"\210\250D\256\337\231\235\275\233\235\354\356\355Fl"
 514      DF999DBD 
 514      9B9DECEE 
 514      ED466C
 515 0068 EFBD999D 		.ascii	"\357\275\231\235\335\235\371|\177\316\367;3\233\210"
 515      DD9DF97C 
 515      7FCEF73B 
 515      339B88
 516 0077 82288CF6 		.ascii	"\202(\214\366\011B\006~k\256\021\204I\320.\021\004\341"
 516      0942067E 
 516      6BAE1184 
 516      49D02E11 
 516      04E1
 517 0089 5A285E28 		.ascii	"Z(^(K\241\\\214\004\341v(5P\360\257\024\312\335\320"
 517      4BA15C8C 
 517      04E17628 
 517      3550F0AF 
 517      14CADDD0 
 518 009d 6E81D201 		.ascii	"n\201\322\001e9\224\325P\272\240tC\331\017\245\017\312"
 518      653994D5 
 518      50BAA074 
 518      43D90FA5 
 518      0FCA
 519 00af 61281F40 		.ascii	"a(\037@\371\014J\006\012\022\205A?\214\203\361\326\322"
 519      F90C4A06 
 519      0A128541 
 519      3F8C83F1 
 519      D6D2
 520 00c1 2BA65D0A 		.ascii	"+\246]\012m\237\250\321\375\023\245\255B\271\007\312"
 520      6D9FA8D1 
 520      FD13A5AD 
 520      42B907CA 
 521 00d1 1D5002F0 		.ascii	"\035P\002\360n#\364+\206+f)\211\264\353\335\364:\035"
 521      6E23F42B 
 521      862B6629 
 521      89B4EBDD 
 521      F43A1D
 522 00e4 1969603E 		.ascii	"\031i`>\003p\035\200k\035\322dj\205\353L(\253\004M."
 522      03701D80 
 522      6B1DD264 
 522      6A85EB4C 
 522      28AB044D 
 523 00f9 4C6302B4 		.ascii	"Lc\002\264\213\240\310\320\376-\224\225\320\236\014"
 523      8BA0C8D0 
 523      FE2D9495 
 523      D09E0C
 524 0108 D77A2809 		.ascii	"\327z(\011(\265P\242H\2437\005\212H\261\317\201F\001"
 524      28B550A2 
 524      48A33705 
 524      8A48B1CF 
ARM GAS  /tmp/cci85wme.s 			page 41


 524      814601
 525 011b B4E7407B 		.ascii	"\264\347@{\036\224\005P\356\207\262\230\343\243\203"
 525      1E940550 
 525      EE87B298 
 525      E3A383
 526 012a F28179C0 		.ascii	"\362\201y\300\274\350<\324P\236.\2402\177\2164\274Z"
 526      BCE83CD4 
 526      509E2EA0 
 526      327F8E34 
 526      BC5A
 527 013c 8636E643 		.ascii	"\2066\346C\2464;\250N1\374\3379\032\330\026\303\250"
 527      A6343BA8 
 527      4E31FCDF 
 527      391AD816 
 527      C3A8
 528 014e ED747D5E 		.ascii	"\355t}^L\361t\272X\267,\355R\206>\246\015.`\240\033"
 528      4CF174BA 
 528      58B72CED 
 528      52863EA6 
 528      0D2E60A0 
 529 0163 A5B263FA 		.ascii	"\245\262c\372\036Jc\204\250\331\024\363\263\012\256"
 529      1E4A6384 
 529      A8D914F3 
 529      B30AAE
 530 0172 0F727C60 		.ascii	"\017r|`\177\270\200\332\222\345\343O\224\027\335\026"
 530      7FB880DA 
 530      92E5E34F 
 530      9417DD16 
 531 0182 AC2D6F67 		.ascii	"\254-ogtr\007\345\351[\360\\\0245\236j(oI\312\313d\312"
 531      747207E5 
 531      E95BF05C 
 531      14359E6A 
 531      286F49CA 
 532 0199 A3CE9F48 		.ascii	"\243\316\237H\351b?\303\355\365\320~\202\343\013\373"
 532      E9623FC3 
 532      EDF5D07E 
 532      82E30BFB 
 533 01a9 E8F98246 		.ascii	"\350\371\202FK\347\253\206\341\311G\365\204\030\037"
 533      4BE7AB86 
 533      E1C947F5 
 533      84181F
 534 01b8 6179E4F9 		.ascii	"ay\344\371*u\300S\027\345\011\333\344Yho\201\222\206"
 534      2A75C053 
 534      17E509DB 
 534      E459686F 
 534      819286
 535 01cb B295E3AD 		.ascii	"\262\225\343\255\333\304Ou\277\377\262~\332\315\370"
 535      DBC44F75 
 535      BFFFB27E 
 535      DACDF8
 536 01da E94E68EF 		.ascii	"\351Nh\357\206\262\013\312\036(\3738>\360\374-\246z"
 536      86B20BCA 
 536      1E28FB38 
 536      3EF0FC2D 
 536      A67A
 537 01ec C03CEBBA 		.ascii	"\300<\353\272\321y1\363W\037\347\257Q\316g\3673>{\200"
 537      D17931F3 
ARM GAS  /tmp/cci85wme.s 			page 42


 537      571FE7AF 
 537      51CE67F7 
 537      333E7B80 
 538 0200 A3D7476D 		.ascii	"\243\327Gmr1c\023+\037au\302\373\006\266\305\205p\377"
 538      72316313 
 538      2B1F6175 
 538      C2FB06B6 
 538      C58570FF 
 539 0214 676A4FDD 		.ascii	"gjO\335\036\365\214=<\224\036\266\307\335\364\376\015"
 539      1EF58C3D 
 539      3C941EB6 
 539      C7DDF4FE 
 539      0D
 540 0225 B8BE05E5 		.ascii	"\270\276\005\345M\216\257\303t.\261>\354\265\230Of\272"
 540      4D8EAFC3 
 540      742EB13E 
 540      ECB5984F 
 540      66BA
 541 0237 71329730 		.ascii	"q2\2270\215o\323\271\204\311\277\307\361\200\343\347"
 541      8D6FD3B9 
 541      84C9BFC7 
 541      F180E3E7 
 542 0247 0887FEAA 		.ascii	"\010\207\376\252\363\300\353K\327\3231xw\224\352\351"
 542      F3C0EB4B 
 542      D7D33178 
 542      7794EAE9 
 543 0257 0E13BF65 		.ascii	"\016\023\277e\365$R\332\272\337\236\204\366'P>\206r"
 543      F52452DA 
 543      BADF9E84 
 543      F627503E 
 543      8672
 544 0269 8AE3F13C 		.ascii	"\212\343\361<a\266\012\277\262^`\3606$\241\322\2000"
 544      61B60ABF 
 544      B25E60F0 
 544      3624A1D2 
 544      8030
 545 027b 91344A02 		.ascii	"\2214J\002\202\037\336\177OX\256\252m\3753\336\355\365"
 545      821FDE7F 
 545      4F58AEAA 
 545      6DFD33DE 
 545      EDF5
 546 028d AAAA5F42 		.ascii	"\252\252_BK\321y\200\377C$\\&\254\202qm\252\372\346"
 546      4BD17980 
 546      FF43245C 
 546      26AC8271 
 546      6DAAFAE6 
 547 02a1 F7394816 		.ascii	"\3679H\026\267s\242\025\260(\334\212\004\011\255\000"
 547      B773A215 
 547      B028DC8A 
 547      0409AD00 
 548 02b1 3C092D47 		.ascii	"<\011-G\227i\224\324\376\005=/6\240\006UE\332;\201\276"
 548      976994D4 
 548      FE053D2F 
 548      36A00655 
 548      45DA3B81 
 549 02c6 35F97D57 		.ascii	"5\371}W\350T\325\306\364\376\346\007\276\241vnA\305"
 549      E854D5C6 
ARM GAS  /tmp/cci85wme.s 			page 43


 549      F4FEE607 
 549      BEA1766E 
 549      41C5
 550 02d8 C24CB855 		.ascii	"\302L\270U;\233\325\233zKM\304\352\364\352\344\177\222"
 550      3B9BD59B 
 550      7A4B4DC4 
 550      EAF4EAE4 
 550      7F92
 551 02ea 936B7A55 		.ascii	"\223kzU\231\204\036$2-D\310@+/\204(,%CV\017\022\241"
 551      99841E24 
 551      322D44C8 
 551      402B2F84 
 551      282C2543 
 552 0302 E5755D84 		.ascii	"\345u]\204\325\216D8ME\220\320*\020C\024\036\312\342"
 552      D58E4438 
 552      4D4590D0 
 552      2A104314 
 552      1ECAE2
 553 0315 52C2653A 		.ascii	"R\302e:]lN\332\324~\264\203\021\357LwI\233\244\203\255"
 553      5D6C4EDA 
 553      D47EB483 
 553      11EF4C77 
 553      499BA483 
 554 032a 730D5666 		.ascii	"s\015Vf\000\233\323\323N\230\013\010\367\346\364+\230"
 554      009BD3D3 
 554      4E980B08 
 554      F7E6F42B 
 554      98
 555 033b 8251A59E 		.ascii	"\202Q\245\236\330\276s\017j\"\362\257\207a\242\320("
 555      D8BE730F 
 555      6A22F2AF 
 555      8761A2D0 
 555      28
 556 034c 1A55EB1C 		.ascii	"\032U\353\034j}\352\271gQ#\201\332H\240\326\014\031"
 556      6A7DEAB9 
 556      67512381 
 556      DA48A0D6 
 556      0C19
 557 035e EAF89CA7 		.ascii	"\352\370\234\247\256&.\274\211\000}\304\001I\2500\253"
 557      AE262EBC 
 557      89007DC4 
 557      0149A830 
 557      AB
 558 036f C6ECBDDE 		.ascii	"\306\354\275\336\001\243\221\327\264\201W\\\303\204"
 558      01A391D7 
 558      B481575C 
 558      C384
 559 037d AFB8BB28 		.ascii	"\257\270\273(|*:0\235\337\312\017\324\376\371-\207\321"
 559      7C2A3A30 
 559      9DDFCA0F 
 559      D4FEF92D 
 559      87D1
 560 038f FD6A7ABA 		.ascii	"\375jz\272G\237\215>+\035\211B\206\320J\363\276\274"
 560      479F8D3E 
 560      2B1D8942 
 560      86D04AF3 
 560      BEBC
ARM GAS  /tmp/cci85wme.s 			page 44


 561 03a1 64D1478D 		.ascii	"d\321G\215\324\227\323\216|y\303\366\005\316\246\243"
 561      D497D38E 
 561      7C79C3F6 
 561      05CEA6A3 
 562 03b1 4FA75F4D 		.ascii	"O\247_M\350?\353\301\364\237\343\351oz\375\223&J\377"
 562      E83FEBC1 
 562      F49FE3E9 
 562      6F7AFD93 
 562      264AFF
 563 03c4 3947F40F 		.ascii	"9G\364\017\355\232;\230\276\204\256\035a\347\033K\026"
 563      ED9A3B98 
 563      BE84AE1D 
 563      61E71B4B 
 563      16
 564 03d5 F5FC8752 		.ascii	"\365\374\207Ry\236L\232V/\357\035\023\212\215\366\203"
 564      799E4C9A 
 564      562FEF1D 
 564      138A8DF6 
 564      83
 565 03e6 7BA68328 		.ascii	"{\246\203(\314\365\352\374\017i\316\366o\352\030\230"
 565      CCF5EAFC 
 565      0F69CEF6 
 565      6FEA1898 
 566 03f6 83524D6A 		.ascii	"\203RMj\357h\235\207\205\256\021\313\014\232\370\317"
 566      EF689D87 
 566      85AE11CB 
 566      0C9AF8CF 
 567 0406 2E120534 		.ascii	".\022\0054\260v'`\226\256\324\230\376\230\005\353t\015"
 567      B0762760 
 567      96AED498 
 567      FE9805EB 
 567      740D
 568 0418 66E4EC13 		.ascii	"f\344\354\023\026l\271\023\260\341\326\234}\312\202"
 568      166CB913 
 568      B0E1D69C 
 568      7DCA82
 569 0427 AD740D66 		.ascii	"\255t\015f\344\354s\026\354a'`#\2559\033`\301\036u\015"
 569      E4EC7316 
 569      EC612760 
 569      23AD391B 
 569      60C11E75 
 570 043c 66E4EC0C 		.ascii	"f\344\354\014\013\366\270\023\2602k\316\332\3662`\033"
 570      0BF6B813 
 570      B0326BCE 
 570      DAF63260 
 570      1B
 571 044d 5D831939 		.ascii	"]\203\0319K\261`O9\001\273\324\232\263\271,X\3325\230"
 571      4BB1604F 
 571      3901BBD4 
 571      9AB3B92C 
 571      58DA3598 
 572 0461 91B3F92C 		.ascii	"\221\263\371,\330V'`\243\2559[\310\202\365\272\0063"
 572      D8562760 
 572      A3AD395B 
 572      C882F5BA 
 572      0633
 573 0473 72B68805 		.ascii	"r\266\210\005{\301\011\330xk\316\332Y\260\335\256\301"
ARM GAS  /tmp/cci85wme.s 			page 45


 573      7BC109D8 
 573      786BCEDA 
 573      59B0DDAE 
 573      C1
 574 0484 8C9C3DCA 		.ascii	"\214\234=\312\202\275\350\004l\2425g\353X\260\227]\203"
 574      82BDE804 
 574      6CA23567 
 574      EB58B097 
 574      5D83
 575 0496 19397B9C 		.ascii	"\0319{\234\005;\350\004\354&k\316\236`\301^s\015f\344"
 575      053BE804 
 575      EC266BCE 
 575      9E60C15E 
 575      730D66E4 
 576 04aa 6C230BD6 		.ascii	"l#\013\326\357\004\354\026k\316\236d\301\336r\015f\344"
 576      EF04EC16 
 576      6BCE9E64 
 576      C1DE720D 
 576      66E4
 577 04bc EC2916EC 		.ascii	"\354)\026\354\035'`\267Ys\366\014\013\366\276k0#g\273"
 577      1D2760B7 
 577      5973F60C 
 577      0BF6BE6B 
 577      302367BB 
 578 04d0 59B07F3B 		.ascii	"Y\260\177;\001\373\275\011g\331\237\3318\234\246\267"
 578      01FBBD09 
 578      67D99FD9 
 578      389CA6B7 
 579 04e0 A26CDE16 		.ascii	"\242l\336\026\205\343^}\215\3432G\0139\214\223^\267"
 579      85E35E7D 
 579      8DE33247 
 579      0B398C93 
 579      5EB7
 580 04f2 6B3283DC 		.ascii	"k2\203\334\2609xg)\232\243\345ym\201~\332\011\242M\002"
 580      B0397867 
 580      299AA3E5 
 580      796D817E 
 580      DA09A24D 
 581 0507 5CD4C3AC 		.ascii	"\\\324\303\254\366\233\012\334\202q\256\214\301\014"
 581      F69B0ADC 
 581      8271AE8C 
 581      C10C
 582 0515 6B27BAC2 		.ascii	"k'\272\302\356_\221\036\2710\267|\363\353Xx\363\247"
 582      EE5F911E 
 582      B930B77C 
 582      F3EB5878 
 582      F3A7
 583 0527 ADD5602F 		.ascii	"\255\325`/(f;\253#G\232\367\225P\263\370=\250[\304@"
 583      28663BAB 
 583      23479AF7 
 583      9550B3F8 
 583      3DA85BC4 
 584 053c 960BADAD 		.ascii	"\226\013\255\255\267\264\243\251\326\002\263m%\001\260"
 584      B7B4A3A9 
 584      D602B36D 
 584      2501B0
 585 054b 1F6AE509 		.ascii	"\037j\345\011\323E\306\023\332\234\250\311&\265\037"
ARM GAS  /tmp/cci85wme.s 			page 46


 585      D345C613 
 585      DA9CA8C9 
 585      26B51F
 586 055a EA69FFBA 		.ascii	"\352i\377\272\332\237F\214\274\266\312\201MQ\353\016"
 586      DA9F468C 
 586      BCB6CA81 
 586      4D51EB0E 
 587 056a 7D53D42A 		.ascii	"}S\324*\342\015\310\202\002\323\235\214\003\250\365"
 587      E20DC882 
 587      02D39D8C 
 587      03A8F5
 588 0579 A9D53F20 		.ascii	"\251\325? ;\231Y\004\250s\310@\307\347t\214'@\263\011"
 588      3B995904 
 588      A873C840 
 588      C7E7748C 
 588      2740B309 
 589 058d D04A0E48 		.ascii	"\320J\016HB\210\333\022!\343\246\005\005r\215\214\321"
 589      4288DB12 
 589      21E3A605 
 589      05728D8C 
 589      D1
 590 059e 5C67B52F 		.ascii	"\\g\265/lby{\031\304\311\273z\352_\320\363\305lt\242"
 590      6C62797B 
 590      19C4C9BB 
 590      7AEA5FD0 
 590      F3C56C74 
 591 05b3 515D38DA 		.ascii	"Q]8\332\205\305\266\277\240[l>\321\317\223\203\3643"
 591      85C5B6BF 
 591      A05B6C3E 
 591      D1CF9383 
 591      F433
 592 05c5 4B74A720 		.ascii	"Kt\247 Q\330\342Z\220K\215\202\264lM\271\027$\353z\213"
 592      51D8E25A 
 592      904B8D82 
 592      B46C4DB9 
 592      1724EB7A 
 593 05da 8920DBCE 		.ascii	"\211 \333\316\202 {]\0132\232\021\004\037\222\234Li"
 593      82207B5D 
 593      0B329A11 
 593      041F929C 
 593      4C69
 594 05ec 71F07C21 		.ascii	"q\360|!e\2779\305\374t\212\347\0336\206\351\003\333"
 594      65BF39C5 
 594      FC748AE7 
 594      1B3686E9 
 594      03DB
 595 05fe 5099F638 		.ascii	"P\231\3668\337\236PM\237\332\306\034a\250\216\2160Z"
 595      DF9E504D 
 595      9FDAC61C 
 595      61A88E8E 
 595      305A
 596 0610 77E92A5B 		.ascii	"w\351*[FTv\300l\2229\202Z\277w\353Zz\204\361\017\002"
 596      465476C0 
 596      6C923982 
 596      5ABF77EB 
 596      5A7A84F1 
 597 0626 7568C850 		.ascii	"uh\310P\307\367m\320\346\353*\002\364\356 3\3728+\372"
ARM GAS  /tmp/cci85wme.s 			page 47


 597      C7F76DD0 
 597      E6EB2A02 
 597      F4EE2033 
 597      FA382BFA 
 598 063a 8C56845B 		.ascii	"\214V\204[L\351S|\300\200\356\241O\360M\241\360?\037"
 598      4CE9537C 
 598      C080EEA1 
 598      4FF04DA1 
 598      F03F1F
 599 064d 07D998B0 		.ascii	"\007\331\230\260\217-\3502\033g=\350pJ\317\244\232\221"
 599      8F2DE832 
 599      1B673DE8 
 599      704ACFA4 
 599      9A91
 600 065f 3EFD5288 		.ascii	">\375R\210\215\351\307Z\365s\270\0118\2276\370\276\034"
 600      8DE9C75A 
 600      F573B809 
 600      389736F8 
 600      BE1C
 601 0671 DC9EEDAE 		.ascii	"\334\236\355\256O\316Z_\324\335n\035\221\350^\037o\342"
 601      4FCE5A5F 
 601      D4DD6E1D 
 601      91E85E1F 
 601      6FE2
 602 0683 8D7C4C76 		.ascii	"\215|Lvr\2204w\250\222d\177\242\260\330\347 e\226\331"
 602      72903477 
 602      A892647F 
 602      A2B0D8E7 
 602      206596D9 
 603 0697 98ABE714 		.ascii	"\230\253\347\0245W\336\323(\252\215\025o\245\265C\347"
 603      3557DED3 
 603      28AA8D15 
 603      6FA5B543 
 603      E7
 604 06a8 8D223EA0 		.ascii	"\215\">\240]\302\351\302\301\241\326#d\310&q\320\001"
 604      5DC2E9C2 
 604      C1A1D623 
 604      64C82671 
 604      D001
 605 06ba ED0EFD80 		.ascii	"\355\016\375\200\026\277sp\250e8\240\225\320Z$R\334"
 605      16BF7370 
 605      A86538A0 
 605      95D05A24 
 605      52DC
 606 06cc A1EAD360 		.ascii	"\241\352\323`\302\034\203\022z\232\254\216\236\021\277"
 606      C21C8312 
 606      7A9AAC8E 
 606      9E11BF
 607 06db CBEAFE19 		.ascii	"\313\352\376\031\327\272/cu\237>\275\275\035i\374k\347"
 607      D7BA2F63 
 607      759F3EBD 
 607      BD1D69FC 
 607      6BE7
 608 06ed F7BD3CDE 		.ascii	"\367\275<\336Dv\345J\233\226\273t5\235\332I\226\234"
 608      4476E54A 
 608      9B96BB74 
 608      359DDA49 
ARM GAS  /tmp/cci85wme.s 			page 48


 608      969C
 609 06ff DAACDBE7 		.ascii	"\332\254\333\347\2049\233\215u\207\006\2469\374\001"
 609      84399B8D 
 609      758706A6 
 609      39FC01
 610 070e D7606506 		.ascii	"\327`e\006\260\247g9\373\032\240\"v1,\012o\023\272\275"
 610      B0A76739 
 610      FB1AA022 
 610      76312C0A 
 610      6F13BABD 
 611 0722 BCA7AC3F 		.ascii	"\274\247\254?\265\273\205zJ\257\003O\201Ts8\240\246"
 611      B5BB857A 
 611      4AAF034F 
 611      81547338 
 611      A0A6
 612 0734 4A743D77 		.ascii	"Jt=w\024\352\2506z6\363\023\375\303\300{\317#\002\247"
 612      14EAA836 
 612      7A36F313 
 612      FDC3C07B 
 612      CF2302A7 
 613 0748 2DEEFFC1 		.ascii	"-\356\377\301\303\345\335{\030\341\316\310\275\243\335"
 613      C3E5DD7B 
 613      18E1CEC8 
 613      BDA3DD
 614 0757 29469B89 		.ascii	")F\233\211\351\276.\234l\367\220i\370H!\037\2224\315"
 614      E9BE2E9C 
 614      6CF79069 
 614      F848211F 
 614      9234CD
 615 076a 30FEDCCB 		.ascii	"0\376\334\313\370\3636\342\317\333\301\237%\264\203"
 615      F8F336E2 
 615      CFDBC19F 
 615      25B483
 616 0779 D4BB58DF 		.ascii	"\324\273X\337\266\312\367\273\331\325\372\023\256\345"
 616      B6CAF7BB 
 616      D9D5FA13 
 616      AEE5
 617 0787 2EE3AC63 		.ascii	".\343\254cE\246\207%\363t\241\003\337\263>\207\201\260"
 617      45A68725 
 617      F374A103 
 617      DFB33E87 
 617      81B0
 618 0799 B27F8E9E 		.ascii	"\262\177\216\236\220\264\017\037=\256\021\215\336||"
 618      90B40F1F 
 618      3DAE118D 
 618      DE7C7C
 619 07a8 962121ED 		.ascii	"\226!!\355u\0027\321\204A\263\037\373\341JBk\0206\323"
 619      750237D1 
 619      8441B31F 
 619      FBE14A42 
 619      6B1036D3 
 620 07bc A3081B68 		.ascii	"\243\010\033h\035\251\037'\365fRgH\335@\314\327D\352"
 620      1DA91F27 
 620      F5665267 
 620      48DD40CC 
 620      D744EA
 621 07cf 99       		.ascii	"\231"
ARM GAS  /tmp/cci85wme.s 			page 49


 622 07d0 A49E47EA 		.ascii	"\244\236G\352E\244^B\352\015\244N\223z\013\251\267\222"
 622      45A45E42 
 622      EA0DA44E 
 622      937A0BA9 
 622      B792
 623 07e2 BA9BD42F 		.ascii	"\272\233\324/\221\372\025'\016\240\005\332\254\233\351"
 623      91FA1527 
 623      0EA005DA 
 623      AC9BE9
 624 07f1 3177C590 		.ascii	"1w\305\220?\212\275\224\373(&\241\307\\\203\361\036"
 624      3F8ABD94 
 624      FB2826A1 
 624      C75C83F1 
 624      1E
 625 0802 65D0E40A 		.ascii	"e\320\344\012F\223\377$\232\\I4v\220\225\3240\363\276"
 625      4693FF24 
 625      9A5C4934 
 625      769095D4 
 625      30F3BE
 626 0815 26CCA38B 		.ascii	"&\314\243\213>\025)\226\237'0\366\253\342\327H\313C"
 626      3E152996 
 626      9F2730F6 
 626      ABE2D748 
 626      CB43
 627 0827 BEEB0A79 		.ascii	"\276\353\012y\277\253\210:\300%B6\223\236<\223\036\331"
 627      BFAB883A 
 627      C0254236 
 627      939E3C93 
 627      1ED9
 628 0839 A5AAC325 		.ascii	"\245\252\303%t\210\314\341\331\376\374\337:\0158\242"
 628      7488CCE1 
 628      D9FEFCDF 
 628      3A0D38A2 
 629 0849 D04E86BC 		.ascii	"\320N\206\274\311\005\310\364\323\315%\252W{\236?8n"
 629      C905C8F4 
 629      D3CD25AA 
 629      577B9E3F 
 629      386E
 630 085b EE36A6A1 		.ascii	"\3566\246\241\025Y\314\241\205\307\335\330\244\316W"
 630      1559CCA1 
 630      85C7DDD8 
 630      A4CE57
 631 086a 579B97BD 		.ascii	"W\233\227\275q\315\032\242\205#$\327\274\351\347#Y\001"
 631      71CD1AA2 
 631      852324D7 
 631      BCE9E723 
 631      5901
 632 087c B7B62A30 		.ascii	"\267\266*0\256\255\012\002\271Fvm\365\036/\204\273\240"
 632      AEAD0A02 
 632      B946766D 
 632      F51E2F84 
 632      BBA0
 633 088e 0CB6E9FD 		.ascii	"\014\266\351\375\346\223\353T\365/>\356\223\025\336"
 633      E693EB54 
 633      F52F3EEE 
 633      9315DE
 634 089d 935939C5 		.ascii	"\223Y9\305Gl\334:\341\232\2032\203\032_\324f\006\306"
ARM GAS  /tmp/cci85wme.s 			page 50


 634      476CDC3A 
 634      E19A8332 
 634      831A5FD4 
 634      6606C6
 635 08b0 14850127 		.ascii	"\024\205\001'`6\247Q\257\260`\215\001\267`F\316\016"
 635      6036A751 
 635      AFB0608D 
 635      01B76046 
 635      CE0E
 636 08c2 B260339D 		.ascii	"\262`3\235\200\331\234\331\274\326\335N\203i\037\301"
 636      80D99CD9 
 636      BCD6DD4E 
 636      83691FC1 
 637 08d2 4BB9C633 		.ascii	"K\271\30632w\250\331\020\234\027;\201+3a\317\354\307"
 637      3277A8D9 
 637      109C173B 
 637      812B3361 
 637      CFECC7
 638 08e5 CE3409BD 		.ascii	"\3164\011\275Mr\350a\022<\337%\365\207\244>J\352\343"
 638      4D72E861 
 638      123CDF25 
 638      F587A43E 
 638      4AEAE3
 639 08f8 A43E41EA 		.ascii	"\244>A\352\223\244>\345$\300\276\236s!\011\375\332c"
 639      93A43EE5 
 639      24C0BE9E 
 639      732109FD 
 639      DA63
 640 090a DB9F2E03 		.ascii	"\333\237.\003\0264_\200'\273\246\276\277\007\214\263"
 640      16345F80 
 640      27BBA6BE 
 640      BF078CB3 
 641 091a 87F35E1C 		.ascii	"\207\363^\034\266\254H\237\026\213-b\305\240w\027\011"
 641      B6AC489F 
 641      168B2D62 
 641      C5A07717 
 641      09
 642 092b 1D6AFA58 		.ascii	"\035j\372X\177\327C\237\335\274\240\251\261W=\206g\035"
 642      7FD7439F 
 642      DDBCA0A9 
 642      B1573D86 
 642      671D
 643 093d 173C97D9 		.ascii	"\027<\227\331L\224/\316J\364\334\375\235\207I\334P="
 643      4C942FCE 
 643      4AF4DCFD 
 643      9D8749DC 
 643      503D
 644 094f 386C1D0A 		.ascii	"8l\035\012\360q\343\020\277\002\372\312\255\227\261"
 644      F071E310 
 644      BF02FACA 
 644      AD97B1
 645 095e B09E28FC 		.ascii	"\260\236(\374\233\343\356\022a\231\252\246\210\006w"
 645      9BE3EE12 
 645      6199AAA6 
 645      880677
 646 096d 42980968 		.ascii	"B\230\011hcEaz\021\3567 ^dJ#K\341\373\302\012|\264\273"
 646      6345617A 
ARM GAS  /tmp/cci85wme.s 			page 51


 646      11EE3720 
 646      5E644A23 
 646      4BE1FBC2 
 647 0985 A679C670 		.ascii	"\246y\306p\257\246j\301f\030e\250\311c\370sQl\304\316"
 647      AFA66AC1 
 647      661865A8 
 647      C963F873 
 647      516CC4CE 
 648 0999 FEF4F1E6 		.ascii	"\376\364\361\346\355\260\232U\0072\031\017oB\233\374"
 648      EDB09A55 
 648      0732190F 
 648      6F429BFC 
 649 09a9 77AFE76C 		.ascii	"w\257\347lX\360\310\205\232\005[\211\005\357-\372\377"
 649      58F0C885 
 649      9A055B89 
 649      05EF2DFA 
 649      FF
 650 09ba 5B70A627 		.ascii	"[p\246'kA*Z6\254g\357\217h\307r\331\373>\356\275\366"
 650      6B412A5A 
 650      36AC67EF 
 650      8F68C772 
 650      D9FB3EEE 
 651 09d0 47099C03 		.ascii	"G\011\234\003\314/\262p\200g\277\365\202\346\000\230"
 651      CC2FB270 
 651      8067BFF5 
 651      82E60098 
 652 09e0 34645FD2 		.ascii	"4d_\322\257\305c\345\000\204Am\260\272_\276I\017\303"
 652      AFC563E5 
 652      0084416D 
 652      B0BA5FBE 
 652      490FC3
 653 09f3 ABF20C23 		.ascii	"\253\362\014#2\320a\247\3610-\331>\234g\030\021U\033"
 653      32D061A7 
 653      F1302DD9 
 653      3E9C6718 
 653      11551B
 654 0a06 963ED1BD 		.ascii	"\226>\321\275\004\"\253\250G\232\265y\206\3661\0247"
 654      0422ABA8 
 654      479AB579 
 654      86F63114 
 654      37
 655 0a17 608A241E 		.ascii	"`\212$\036?\221g\324\204\234{\253\340\232M\235H\365"
 655      3F9167D4 
 655      849C7BAB 
 655      E09A4D9D 
 655      48F5
 656 0a29 114714E8 		.ascii	"\021G\024\3500\203;\244L=\372\251\236\222\266\206\376"
 656      30833BA4 
 656      4C3DFAA9 
 656      9E92B686 
 656      FE
 657 0a3a 4CE622E7 		.ascii	"L\346\"\347\356\274\304\350\316\232\2329\013n2\265\240"
 657      EEBCC4E8 
 657      CE9A9A39 
 657      0B6E32B5 
 657      A0
 658 0a4b 3A1BCBA6 		.ascii	":\033\313\246u\237\353\301\353\327\016{\333\351\322"
ARM GAS  /tmp/cci85wme.s 			page 52


 658      759FEBC1 
 658      EBD70E7B 
 658      DBE9D2
 659 0a5a A97F5567 		.ascii	"\251\177Ug\014GY\331:x\331\226\232\312v\3776\313\331"
 659      0C4759D9 
 659      3A78D996 
 659      9ACA76FF 
 659      36CBD9
 660 0a6d 6A177057 		.ascii	"j\027pW\230\311\227\275\241\347\314\234\274\335\346"
 660      98C997BD 
 660      A1E7CC9C 
 660      BCDDE6
 661 0a7c F266AA39 		.ascii	"\362f\2529y\227;\362\325\256\337\215\324?\215\354\322"
 661      79973BF2 
 661      D5AEDF8D 
 661      D43F8DEC 
 661      D2
 662 0a8d 8073C3B8 		.ascii	"\200s\303\270OQ\224\035\252&.\306YQ\243\202\256\034"
 662      4F51941D 
 662      AA262EC6 
 662      5951A382 
 662      AE1C
 663 0a9f ACB5FE63 		.ascii	"\254\265\376c\351u\333\315=\302Ne\217\330\250\314\371"
 663      E975DBCD 
 663      3DC24E65 
 663      8FD8A8CC 
 663      F9
 664 0ab0 EA76C6E2 		.ascii	"\352v\306\342\02189\257\365`\301\367\014\012pC87\034"
 664      113839AF 
 664      F560C1F7 
 664      0C0A7043 
 664      38371C
 665 0ac3 6CA83EAB 		.ascii	"l\250>\253\320\362\374\345;r\241E7\327jG\346:\200\275"
 665      D0F2FCE5 
 665      3B72A145 
 665      37D76A47 
 665      E63A80BD 
 666 0ad7 5AE3FA7D 		.ascii	"Z\343\372}\002o=\014\367\2624\227\3250*\307\343\246"
 666      026F3D0C 
 666      F7B23497 
 666      D5302AC7 
 666      E3A6
 667 0ae9 4E7E62D6 		.ascii	"N~b\326}\020i\032\323\231\314\004\336\311\217\330X\354"
 667      7D10691A 
 667      D399CC04 
 667      DEC98FD8 
 667      58EC
 668 0afb 495B27CF 		.ascii	"I['\317\027\305\251\030\234n\217\232O\202%\374\244\357"
 668      17C5A918 
 668      9C6E8F9A 
 668      4F8225FC 
 668      A4EF
 669 0b0d 72A4D53E 		.ascii	"r\244\325>=`Kh~\236aL\300N\237\334I#\257\026\2643\204"
 669      3D604B68 
 669      7E9E614C 
 669      C04E9FDC 
 669      4923AF16 
ARM GAS  /tmp/cci85wme.s 			page 53


 670 0b24 27EBA14C 		.ascii	"'\353\241L\320V\273t;JhC\036\212\254\035\033\211\015"
 670      D056BB74 
 670      3B4A6843 
 670      1E8AAC1D 
 670      1B890D
 671 0b37 66EA3405 		.ascii	"f\3524\005\233\201T\371\233M-\271>5\224\305E\017oH\274"
 671      9B8154F9 
 671      9B4D2DB9 
 671      3E3594C5 
 671      450F6F48 
 672 0b4c EA39BBE9 		.ascii	"\3529\273\351\270\241\330\324\256\213\261\2722\304@"
 672      B8A1D8D4 
 672      AE8BB1BA 
 672      32C440
 673 0b5b 3388BABA 		.ascii	"3\210\272\272-\325\225a\362\333\313\274]\255\207\261"
 673      2DD59561 
 673      F2DBCBBC 
 673      5DAD87B1 
 674 0b6b 89F80B3D 		.ascii	"\211\370\013=\021Kha\236al\"\336\260\327\220\210\333"
 674      114B6861 
 674      9E616C22 
 674      DEB0D790 
 674      88DB
 675 0b7d 8828D643 		.ascii	"\210(\326C\315\022\261\204\332\363\0204$\342\365)c\""
 675      CD12B184 
 675      DAF31034 
 675      24E2F529 
 675      6322
 676 0b8f EEE693D5 		.ascii	"\356\346\223\325\016S\353\267\355s\235\210_23=g\273"
 676      0E53EBB7 
 676      ED739D88 
 676      5F32333D 
 676      67BB
 677 0ba1 79E6B69B 		.ascii	"y\346\266\233\303\333n\277\275\355,\022\361~^\266WL"
 677      C3DB6EBF 
 677      BDED2C12 
 677      F17E5EB6 
 677      574C
 678 0bb3 534A669F 		.ascii	"SJf\237\356\331M~7\231\370U[\337\236\345((u\232+\340"
 678      EED94D7E 
 678      3799F855 
 678      5BDF9EE5 
 678      2828759A 
 679 0bc9 015E017D 		.ascii	"\001^\001}\316\234W\317\314\022z\210\037f\226\231\365"
 679      CE9C57CF 
 679      CC127A88 
 679      1F669699 
 679      F5
 680 0bda 754F7749 		.ascii	"uOwI\0332\306\026kz\2669\302j\030\325X\277\251o\245"
 680      1B32C616 
 680      6B7AB639 
 680      C26A18D5 
 680      58BFA96F 
 681 0bef 5E769FD2 		.ascii	"^v\237\322\337q\340\\k\314u;\233\327\355a\207\316\305"
 681      DF71E05C 
 681      6BCC753B 
 681      9BD7ED61 
ARM GAS  /tmp/cci85wme.s 			page 54


 681      87CEC5
 682 0c02 C96A358C 		.ascii	"\311j5\214rx\304T\326\015\213\206\224\017?\264q5\267"
 682      7278C454 
 682      D60D8B86 
 682      940F3FB4 
 682      7135B7
 683 0c15 7F4C24A1 		.ascii	"\177L$\241\277\221\355V\236\277@\260b\345hn[%\270\316"
 683      BF91ED56 
 683      9EBF40B0 
 683      62E5686E 
 683      5B25B8CE 
 684 0c29 C11BCD4D 		.ascii	"\301\033\315M\362\030o\222\017\034\271;\331\375\034"
 684      F2186F92 
 684      0F1CB93B 
 684      D9FD1C
 685 0c38 F5E462B5 		.ascii	"\365\344b\265\365\260\243\271\324\235\356Z\264<\227"
 685      F5B0A3B9 
 685      D49DEE5A 
 685      B43C97
 686 0c47 8325F4AF 		.ascii	"\203%\364\257<C\331\034\274\211\317\301\326\303\214"
 686      3C43D91C 
 686      BC89CFC1 
 686      D6C38C
 687 0c56 3918DBDD 		.ascii	"9\030\333\335\220\203\255\006R-\2370\211Tm\375\353\236"
 687      9083AD06 
 687      522D9F30 
 687      89546DFD 
 687      EB9E
 688 0c68 3930E17E 		.ascii	"90\341~u\313t5\223\271\307E\022\376\334f\207\257\035"
 688      75CB7435 
 688      93B9C745 
 688      12FEDC66 
 688      87AF1D
 689 0c7b 155B8D1C 		.ascii	"\025[\215\0340\331C/3\335b4\224\030-\253\013r\306L\220"
 689      30D9432F 
 689      33DD6234 
 689      94182DAB 
 689      0B72C64C 
 690 0c90 F4C7BBEE 		.ascii	"\364\307\273\356S\2216\3515\366D!e\001\240z\315\000"
 690      539136E9 
 690      35F64421 
 690      6501A07A 
 690      CD00
 691 0ca2 4EEC8279 		.ascii	"N\354\202y\264\324t\036\331\205\215F/7\217\006\330u"
 691      B4D4741E 
 691      D9858D46 
 691      2F378F06 
 691      D875
 692 0cb4 A5B9CF2E 		.ascii	"\245\271\317.\267`l\206\2211\277\320Bf\336\014\265\001"
 692      B7606C86 
 692      9131BFD0 
 692      4266DE0C 
 692      B501
 693 0cc6 D59BCFBC 		.ascii	"\325\233\317\274\334\237\361I\250\331\353\007\354\256"
 693      DC9FF149 
 693      A8D9EB07 
 693      ECAE
ARM GAS  /tmp/cci85wme.s 			page 55


 694 0cd4 12E35F6A 		.ascii	"\022\343_j1\360\270\003\376\341\361Z[o\301\220s\205"
 694      31F0B803 
 694      FEE1F15A 
 694      5B6FC190 
 694      7385
 695 0ce6 3622F2C4 		.ascii	"6\"\362\304\205\245\332\037\346Qr\303ur\"E\371\213\367"
 695      85A5DA1F 
 695      E65172C3 
 695      75722245 
 695      F98BF7
 696 0cf9 5CD232FC 		.ascii	"\\\3222\374\015\014\351ayl\342\315\375\361_I \327\320"
 696      0D0CE961 
 696      796CE2CD 
 696      FDF15F49 
 696      20D7D0
 697 0d0c 19A5A4CB 		.ascii	"\031\245\244\3138\312\343\365~\205\024\247\3255\345"
 697      38CAE3F5 
 697      7E8514A7 
 697      D535E5
 698 0d1b FB2C28FB 		.ascii	"\373,(\373\030\323\247\217\365/h\351y\231\374#\0079"
 698      18D3A78F 
 698      F52F68E9 
 698      7999FC23 
 698      0739
 699 0d2d ABECF43B 		.ascii	"\253\354\364;\237\007\263\314\254\317Y{s\211i\204\332"
 699      9F07B3CC 
 699      ACCF597B 
 699      73896984 
 699      DA
 700 0d3e 8727FE00 		.ascii	"\207'\376\0009\326\331Fz\374\325k5\361\007\014G\003"
 700      39D6D946 
 700      7AFCD56B 
 700      35F1070C 
 700      4703
 701 0d50 7DEA2D23 		.ascii	"}\352-#\263\013\022<\310`\3446\243\017q3\023O\014+Y"
 701      B30B123C 
 701      C860E436 
 701      A30F7133 
 701      134F0C2B 
 702 0d65 E67AB333 		.ascii	"\346z\2633\223\352\345\344\231c7?\214\277s\250g2\367"
 702      93EAE5E4 
 702      9963373F 
 702      8CBF73A8 
 702      6732F7
 703 0d78 344CBF8E 		.ascii	"4L\277\216\323\013\366\034+\260\371\274bL\316Lv\232"
 703      D30BF61C 
 703      2BB0F9BC 
 703      624CCE4C 
 703      769A
 704 0d8a 2B6633BF 		.ascii	"+f3\277}\232g\251\030\366\314\244Q=\360*V\214\346\331"
 704      7D9A67A9 
 704      18F6CCA4 
 704      513DF02A 
 704      568CE6D9 
 705 0d9e 86517EDE 		.ascii	"\206Q~\336\343\360\232\332VOxV[\211\2668\247'n\324\027"
 705      E3F09ADA 
 705      564F7856 
ARM GAS  /tmp/cci85wme.s 			page 56


 705      5B89B638 
 705      A7276ED4 
 706 0db3 3607E8ED 		.ascii	"6\007\350\355\274v\323m\007\265E\312\222t\033\357qv"
 706      BC76D36D 
 706      07B545CA 
 706      92741BEF 
 706      7176
 707 0dc5 9AEDE035 		.ascii	"\232\355\3405k\262N9h\343rlR|\300R\263\354:\205\327"
 707      6BB24E39 
 707      68E3726C 
 707      527CC052 
 707      B3EC3A85 
 708 0dda EC03F69A 		.ascii	"\354\003\366\232\3554jV\030_^\023\255\223\313C\321\352"
 708      ED346A56 
 708      185F5E13 
 708      AD93CB43 
 708      D1EA
 709 0dec 69E5D5F2 		.ascii	"i\345\325\362]\345\241\232pU8\232(W\342\311\310\235"
 709      5DE5A19A 
 709      7055389A 
 709      2857E2C9 
 709      C89D
 710 0dfe E5D0882B 		.ascii	"\345\320\210+\345\341H\2506Y\015\235j\022\323\022\312"
 710      E5E148A8 
 710      36590D9D 
 710      6A12D312 
 710      CA
 711 0e0f B4989C18 		.ascii	"\264\230\234\030U#\014Sj\342\262T\235\010\326'\345\244"
 711      55230C53 
 711      6AE2B254 
 711      9D08D627 
 711      E5A4
 712 0e21 1C547C37 		.ascii	"\034T|7\376\374\327e\327\013\303C5A\303\233q\356\010"
 712      FEFCD765 
 712      D70BC343 
 712      3541C39B 
 712      71EE08
 713 0e34 846AAA01 		.ascii	"\204j\252\001\334\257A\004\225@\026\316\027\013F\344"
 713      DCAF4104 
 713      954016CE 
 713      170B46E4 
 714 0e44 A90A5C62 		.ascii	"\251\012\\bq\371\256\233\034\240\306\242q%Q~\335\255"
 714      71F9AE9B 
 714      1CA0C6A2 
 714      7125517E 
 714      DDAD
 715 0e56 3FBBFE67 		.ascii	"?\273\376gS\241g],\\+\307\023\3457^\177=t\327\305(T"
 715      53A1675D 
 715      2C5C2BC7 
 715      13E5375E 
 715      7F3D74D7 
 716 0e6d 62F17034 		.ascii	"b\361p4\250\\R\236L\304\313\245x\335\345\221hD\276\\"
 716      A85C529E 
 716      4CC4CBA5 
 716      78DDE591 
 716      6844BE5C 
 717 0e81 96AAC259 		.ascii	"\226\252\302Y\266\022Ju8\242`\266\222p\035[\021T\306"
ARM GAS  /tmp/cci85wme.s 			page 57


 717      B6124A75 
 717      38A260B6 
 717      92701D5B 
 717      1154C6
 718 0e94 D9F4AE93 		.ascii	"\331\364\256\223\200\231\210\\\036\254\226'I\311Z%\250"
 718      8099885C 
 718      1EAC9627 
 718      49C95A25 
 718      A8
 719 0ea5 932A0A06 		.ascii	"\223*\012\006\365\361D\212p\2640\024\215( \324\325\256"
 719      F5F1448A 
 719      70B43014 
 719      8D2820D4 
 719      D5AE
 720 0eb7 A5A90945 		.ascii	"\245\251\011E\3432`\026\343\307A@\015)S\17744\224\340"
 720      E3326016 
 720      E3C74140 
 720      0D29537F 
 720      343494E0 
 721 0ecb 5D57D561 		.ascii	"]W\325a\331\342\362d\020(\250x\022c\256\204r\025\224"
 721      D9E2F264 
 721      1028A878 
 721      1263AE84 
 721      721594
 722 0ede F150AEF6 		.ascii	"\361P\256\366$*FC\031\003\245\002\312X(\343\240\\\001"
 722      242A4643 
 722      1903A502 
 722      CA5828E3 
 722      A05C01
 723 0ef1 05FA5540 		.ascii	"\005\372U@\277\012\350W\001\375\306B\277\261c\304\370"
 723      BF0AE857 
 723      01FDC642 
 723      BFB163C4 
 723      F8
 724 0f02 38317E85 		.ascii	"81~\205\030\277R\214_%\306\307\213\361\253=\3611\243"
 724      18BF528C 
 724      5F25C6C7 
 724      8BF1AB3D 
 724      F131A3
 725 0f15 A18C116B 		.ascii	"\241\214\021k\343p\031[\020\013\002\267\205\330\236"
 725      E370195B 
 725      100B02B7 
 725      85D89E
 726 0f24 53E4385C 		.ascii	"S\3448\\\243\265\325r\334\033\252\221\342\330\310R\235"
 726      A3B5D572 
 726      DC1BAA91 
 726      E2D8C852 
 726      9D
 727 0f35 EC57128A 		.ascii	"\354W\022\212\244\200S\025b\205\215\0077\320T\007-\350"
 727      A4805315 
 727      62858D07 
 727      37D05407 
 727      2DE8
 728 0f47 4EDE152A 		.ascii	"N\336\025*u\321j\231\334O\252\225&'\012\225\270<)A4"
 728      75D16A99 
 728      DC4FAA95 
 728      26270A95 
ARM GAS  /tmp/cci85wme.s 			page 58


 728      B83C2941 
 729 0f5c 8B1B0575 		.ascii	"\213\033\005u\211\311\360\222\252\033\206\353\212\217"
 729      89C9F092 
 729      AA1B86EB 
 729      8A8F
 730 0f6a 574F8357 		.ascii	"WO\203W~yjX\001E\311\276)J\264\352\017\261b\371.9\242"
 730      7E796A58 
 730      0145C9BE 
 730      294AB4EA 
 730      0FB162F9 
 731 0f81 D449893B 		.ascii	"\324I\211;\241\213<\0057<\261`\262T\367\344\332p\002"
 731      A18B3C05 
 731      373CB160 
 731      B254F7E4 
 731      DA7002
 732 0f94 EC388CF1 		.ascii	"\3548\214\361m\374$\020\013N\221\302"
 732      6DFC2410 
 732      0B4E91C2 
 733 0fa0 4A3832B9 		.ascii	"J82\271(\026\004T\342\357\005\244\011\017\344\230\034"
 733      28160454 
 733      E2EF05A4 
 733      090FE498 
 733      1C
 734 0fb1 01BF995C 		.ascii	"\001\277\231\\P\227\004\033\217u5\015\352\224\251\330"
 734      5097041B 
 734      8F75350D 
 734      EA94A9D8 
 735 0fc1 37EBB429 		.ascii	"7\353\264)\004\327\350\224\010\250\212 \001\207ud*\000"
 735      04D7E894 
 735      08A88A20 
 735      01877564 
 735      2A00
 736 0fd3 79E88719 		.ascii	"y\350\207\031)\302BK\265\304\245\340a,\032\255\275\322"
 736      29C2424B 
 736      B5C4A5E0 
 736      612C1AAD 
 736      BDD2
 737 0fe5 153D4286 		.ascii	"\025=B\206\370(\314\005:\241\375z3P\257\213YA\334\276"
 737      F828CC05 
 737      3AA1FD7A 
 737      3350AF8B 
 737      5941DCBE 
 738 0ff9 365C553E 		.ascii	"6\\U>9\024\342"
 738      3914E2
 739 1000 DC7FDCA8 		.ascii	"\334\177\334\250\361\243\306\261S\006\334\037\000}\211"
 739      F1A3C6B1 
 739      5306DC1F 
 739      007D89
 740 100f F01F010C 		.ascii	"\360\037\001\0140B\321$8{\334_\037\254JN\232$\307\013"
 740      3042D124 
 740      387BDC5F 
 740      1FAC4A4E 
 740      9A24C70B 
 741 1023 EA834A34 		.ascii	"\352\203J4V\010\340\361\230\022\207k\274\032\256\360"
 741      5608E0F1 
 741      9812876B 
 741      BC1AAEF0 
ARM GAS  /tmp/cci85wme.s 			page 59


 742 1033 3A1255C2 		.ascii	":\022U\302\223\246\371\352A\307\221;\003\365\332mP\251"
 742      93A6F9EA 
 742      41C7913B 
 742      03F5DA6D 
 742      50A9
 743 1045 70205122 		.ascii	"p Q\"\036\312I\023\022J\243I%\226Tt\211F\204jn\376\305"
 743      1ECA4913 
 743      124AA349 
 743      25965474 
 743      8946846A 
 744 105c 2D49E557 		.ascii	"-I\345W\341:\031\336\214\212IqeT\205'Z\037;'\034a\372"
 744      E13A19DE 
 744      8C8A4971 
 744      65548527 
 744      5A1F3B27 
 745 1073 95866A2A 		.ascii	"\225\206j*\177qs\325\037\344\220R\031\011+\236p}L\254"
 745      7F7173D5 
 745      1FE49052 
 745      19092B9E 
 745      707D4CAC 
 746 1087 8A79B124 		.ascii	"\212y\261$\336pd\3224/f\254\010w\272UN\310J\245\037"
 746      DE7064D2 
 746      342F66AC 
 746      0877BA55 
 746      4EC84AA5 
 747 109c 3701B712 		.ascii	"7\001\267\022U\005p\204\004x\012r\243\254\023\363\342"
 747      55057084 
 747      04780A72 
 747      A3AC13F3 
 747      E2
 748 10ad A7C3B431 		.ascii	"\247\303\2641R5}\210\"\245\230\245\034)o\024\340\213"
 748      52357D88 
 748      22A598A5 
 748      1C296F14 
 748      E08B
 749 10bf F0330DB9 		.ascii	"\3603\015\271\324\310\261\037\337\002f\345p\334\370"
 749      D4C8B11F 
 749      DF0266E5 
 749      70DCF8
 750 10ce 4D3CACC8 		.ascii	"M<\254\310\364\315U\256\314M\235\030\314\003@\277\252"
 750      F4CD55AE 
 750      CC4D9D18 
 750      CC0340BF 
 750      AA
 751 10df A9FE894C 		.ascii	"\251\376\211L$\277\256\266\266\362\\\366\301\317\301"
 751      24BFAEB6 
 751      B6F25CF6 
 751      C1CFC1
 752 10ee CB2A2F20 		.ascii	"\313*/ On\210\220'\224\334/\013\202?\006'+\322\024\026"
 752      4F6E8890 
 752      2794DC2F 
 752      0B823F06 
 752      272BD214 
 753 1103 C64A52EA 		.ascii	"\306JR\352c\305X\274\312\304O\223\200S\2029\254L\334"
 753      63C558BC 
 753      CAC44F93 
 753      80538239 
ARM GAS  /tmp/cci85wme.s 			page 60


 753      AC4CDC
 754 1116 501753A6 		.ascii	"P\027S\246U\376\027E\314^\250"
 754      55FE1745 
 754      CC5EA8
 755              		.text
 756              		.section	.gnu.lto_.symtab.961ee309c06e882b,"",%progbits
 757 0000 63684951 		.ascii	"chIQObjectInit\000\000\000\000\000\000\000\000\000\000"
 757      4F626A65 
 757      6374496E 
 757      69740000 
 757      00000000 
 758 0018 00008701 		.ascii	"\000\000\207\001\000\000chIQResetI\000\000\000\000\000"
 758      00006368 
 758      49515265 
 758      73657449 
 758      00000000 
 759 002d 00000000 		.ascii	"\000\000\000\000\000\000\000\236\001\000\000chIQPut"
 759      0000009E 
 759      01000063 
 759      68495150 
 759      7574
 760 003f 49000000 		.ascii	"I\000\000\000\000\000\000\000\000\000\000\000\000\244"
 760      00000000 
 760      00000000 
 760      00A4
 761 004d 01000063 		.ascii	"\001\000\000chIQGetTimeout\000\000\000\000\000\000\000"
 761      68495147 
 761      65745469 
 761      6D656F75 
 761      74000000 
 762 0065 00000000 		.ascii	"\000\000\000\000\000\255\001\000\000chIQReadTimeout"
 762      00AD0100 
 762      00636849 
 762      51526561 
 762      6454696D 
 763 007d 00000000 		.ascii	"\000\000\000\000\000\000\000\000\000\000\000\000\271"
 763      00000000 
 763      00000000 
 763      B9
 764 008a 01000063 		.ascii	"\001\000\000chOQObjectInit\000\000\000\000\000\000\000"
 764      684F514F 
 764      626A6563 
 764      74496E69 
 764      74000000 
 765 00a2 00000000 		.ascii	"\000\000\000\000\000\306\001\000\000chOQResetI\000\000"
 765      00C60100 
 765      0063684F 
 765      51526573 
 765      65744900 
 766 00b7 00000000 		.ascii	"\000\000\000\000\000\000\000\000\000\000\325\001\000"
 766      00000000 
 766      0000D501 
 766      00
 767 00c4 0063684F 		.ascii	"\000chOQPutTimeout\000\000\000\000\000\000\000\000\000"
 767      51507574 
 767      54696D65 
 767      6F757400 
ARM GAS  /tmp/cci85wme.s 			page 61


 767      00000000 
 768 00dc 000000DB 		.ascii	"\000\000\000\333\001\000\000chOQGetI\000\000\000\000"
 768      01000063 
 768      684F5147 
 768      65744900 
 768      000000
 769 00ef 00000000 		.ascii	"\000\000\000\000\000\000\000\000\345\001\000\000chO"
 769      00000000 
 769      E5010000 
 769      63684F
 770 00fe 51577269 		.ascii	"QWriteTimeout\000\000\000\000\000\000\000\000\000\000"
 770      74655469 
 770      6D656F75 
 770      74000000 
 770      00000000 
 771 0115 0000EB01 		.ascii	"\000\000\353\001\000\000chThdDequeueAllI\000\000\002"
 771      00006368 
 771      54686444 
 771      65717565 
 771      7565416C 
 772 012e 00000000 		.ascii	"\000\000\000\000\000\000\000\000\000\371\001\000\000"
 772      00000000 
 772      00F90100 
 772      00
 773 013b 63685468 		.ascii	"chThdDequeueNextI\000\000\002\000\000\000\000\000\000"
 773      64446571 
 773      75657565 
 773      4E657874 
 773      49000002 
 774 0155 000000FF 		.ascii	"\000\000\000\377\001\000\000chThdEnqueueTimeoutS\000"
 774      01000063 
 774      68546864 
 774      456E7175 
 774      65756554 
 775 0171 00020000 		.ascii	"\000\002\000\000\000\000\000\000\000\000\000\001\002"
 775      00000000 
 775      00000001 
 775      02
 776 017e 0000     		.ascii	"\000\000"
 777              		.text
 778              		.section	.gnu.lto_.opts,"",%progbits
 779 0000 272D6D63 		.ascii	"'-mcpu=cortex-m4' '-mfloat-abi=hard' '-mfpu=fpv4-sp"
 779      70753D63 
 779      6F727465 
 779      782D6D34 
 779      2720272D 
 780 0033 2D643136 		.ascii	"-d16' '-mno-thumb-interwork' '-mthumb' '-O2' '-fomi"
 780      2720272D 
 780      6D6E6F2D 
 780      7468756D 
 780      622D696E 
 781 0066 742D6672 		.ascii	"t-frame-pointer' '-falign-functions=16' '-ffunction"
 781      616D652D 
 781      706F696E 
 781      74657227 
 781      20272D66 
 782 0099 2D736563 		.ascii	"-sections' '-fdata-sections' '-fno-common' '-flto' "
ARM GAS  /tmp/cci85wme.s 			page 62


 782      74696F6E 
 782      73272027 
 782      2D666461 
 782      74612D73 
 783 00cc 272D6673 		.ascii	"'-fsingle-precision-constant'\000"
 783      696E676C 
 783      652D7072 
 783      65636973 
 783      696F6E2D 
 784              		.text
 785              		.section	.text.chIQObjectInit,"ax",%progbits
 786              		.align	2
 787              		.p2align 4,,15
 788              		.global	chIQObjectInit
 789              		.thumb
 790              		.thumb_func
 791              		.type	chIQObjectInit, %function
 792              	chIQObjectInit:
 793              		@ args = 4, pretend = 0, frame = 0
 794              		@ frame_needed = 0, uses_anonymous_args = 0
 795              		@ link register save eliminated.
 796 0000 30B4     		push	{r4, r5}
 797 0002 029C     		ldr	r4, [sp, #8]
 798 0004 0462     		str	r4, [r0, #32]
 799 0006 0025     		movs	r5, #0
 800 0008 0A44     		add	r2, r2, r1
 801 000a 8560     		str	r5, [r0, #8]
 802 000c 0261     		str	r2, [r0, #16]
 803 000e 4060     		str	r0, [r0, #4]
 804 0010 0060     		str	r0, [r0]
 805 0012 4161     		str	r1, [r0, #20]
 806 0014 8161     		str	r1, [r0, #24]
 807 0016 C160     		str	r1, [r0, #12]
 808 0018 C361     		str	r3, [r0, #28]
 809 001a 30BC     		pop	{r4, r5}
 810 001c 7047     		bx	lr
 811              		.size	chIQObjectInit, .-chIQObjectInit
 812 001e 00BF     		.section	.text.chIQResetI,"ax",%progbits
 813              		.align	2
 814              		.p2align 4,,15
 815              		.global	chIQResetI
 816              		.thumb
 817              		.thumb_func
 818              		.type	chIQResetI, %function
 819              	chIQResetI:
 820              		@ args = 0, pretend = 0, frame = 0
 821              		@ frame_needed = 0, uses_anonymous_args = 0
 822              		@ link register save eliminated.
 823 0000 0021     		movs	r1, #0
 824 0002 C268     		ldr	r2, [r0, #12]
 825 0004 8160     		str	r1, [r0, #8]
 826 0006 4261     		str	r2, [r0, #20]
 827 0008 8261     		str	r2, [r0, #24]
 828 000a 6FF00101 		mvn	r1, #1
 829 000e FFF7FEBF 		b	chThdDequeueAllI
 830              		.size	chIQResetI, .-chIQResetI
 831 0012 00BFAFF3 		.section	.text.chIQPutI,"ax",%progbits
ARM GAS  /tmp/cci85wme.s 			page 63


 831      0080AFF3 
 831      0080AFF3 
 831      0080
 832              		.align	2
 833              		.p2align 4,,15
 834              		.global	chIQPutI
 835              		.thumb
 836              		.thumb_func
 837              		.type	chIQPutI, %function
 838              	chIQPutI:
 839              		@ args = 0, pretend = 0, frame = 0
 840              		@ frame_needed = 0, uses_anonymous_args = 0
 841 0000 8269     		ldr	r2, [r0, #24]
 842 0002 4369     		ldr	r3, [r0, #20]
 843 0004 9342     		cmp	r3, r2
 844 0006 10B5     		push	{r4, lr}
 845 0008 8268     		ldr	r2, [r0, #8]
 846 000a 0FD0     		beq	.L12
 847              	.L6:
 848 000c 0132     		adds	r2, r2, #1
 849 000e 5C1C     		adds	r4, r3, #1
 850 0010 8260     		str	r2, [r0, #8]
 851 0012 4461     		str	r4, [r0, #20]
 852 0014 1970     		strb	r1, [r3]
 853 0016 4269     		ldr	r2, [r0, #20]
 854 0018 0369     		ldr	r3, [r0, #16]
 855 001a 9A42     		cmp	r2, r3
 856 001c 01D3     		bcc	.L8
 857 001e C368     		ldr	r3, [r0, #12]
 858 0020 4361     		str	r3, [r0, #20]
 859              	.L8:
 860 0022 0021     		movs	r1, #0
 861 0024 FFF7FEFF 		bl	chThdDequeueNextI
 862 0028 0020     		movs	r0, #0
 863 002a 10BD     		pop	{r4, pc}
 864              	.L12:
 865 002c 002A     		cmp	r2, #0
 866 002e EDD0     		beq	.L6
 867 0030 6FF00300 		mvn	r0, #3
 868 0034 10BD     		pop	{r4, pc}
 869              		.size	chIQPutI, .-chIQPutI
 870 0036 00BFAFF3 		.section	.text.chIQGetTimeout,"ax",%progbits
 870      0080AFF3 
 870      0080
 871              		.align	2
 872              		.p2align 4,,15
 873              		.global	chIQGetTimeout
 874              		.thumb
 875              		.thumb_func
 876              		.type	chIQGetTimeout, %function
 877              	chIQGetTimeout:
 878              		@ args = 0, pretend = 0, frame = 0
 879              		@ frame_needed = 0, uses_anonymous_args = 0
 880 0000 70B5     		push	{r4, r5, r6, lr}
 881 0002 2023     		movs	r3, #32
 882 0004 0E46     		mov	r6, r1
 883 0006 0446     		mov	r4, r0
ARM GAS  /tmp/cci85wme.s 			page 64


 884              	@ 546 "/home/cody/dev/chibios/trunk/os/ext/CMSIS/include/core_cmFunc.h" 1
 885 0008 83F31188 		MSR basepri, r3
 886              	@ 0 "" 2
 887              		.thumb
 888 000c C369     		ldr	r3, [r0, #28]
 889 000e 2BB1     		cbz	r3, .L16
 890 0010 9847     		blx	r3
 891 0012 03E0     		b	.L16
 892              	.L18:
 893 0014 FFF7FEFF 		bl	chThdEnqueueTimeoutS
 894 0018 0028     		cmp	r0, #0
 895 001a 15DB     		blt	.L23
 896              	.L16:
 897 001c A568     		ldr	r5, [r4, #8]
 898 001e 2046     		mov	r0, r4
 899 0020 3146     		mov	r1, r6
 900 0022 002D     		cmp	r5, #0
 901 0024 F6D0     		beq	.L18
 902 0026 A269     		ldr	r2, [r4, #24]
 903 0028 2169     		ldr	r1, [r4, #16]
 904 002a 531C     		adds	r3, r2, #1
 905 002c 8B42     		cmp	r3, r1
 906 002e 05F1FF35 		add	r5, r5, #-1
 907 0032 A361     		str	r3, [r4, #24]
 908 0034 A560     		str	r5, [r4, #8]
 909 0036 28BF     		it	cs
 910 0038 E368     		ldrcs	r3, [r4, #12]
 911 003a 1078     		ldrb	r0, [r2]	@ zero_extendqisi2
 912 003c 28BF     		it	cs
 913 003e A361     		strcs	r3, [r4, #24]
 914 0040 0023     		movs	r3, #0
 915              	@ 546 "/home/cody/dev/chibios/trunk/os/ext/CMSIS/include/core_cmFunc.h" 1
 916 0042 83F31188 		MSR basepri, r3
 917              	@ 0 "" 2
 918              		.thumb
 919 0046 70BD     		pop	{r4, r5, r6, pc}
 920              	.L23:
 921              	@ 546 "/home/cody/dev/chibios/trunk/os/ext/CMSIS/include/core_cmFunc.h" 1
 922 0048 85F31188 		MSR basepri, r5
 923              	@ 0 "" 2
 924              		.thumb
 925 004c 70BD     		pop	{r4, r5, r6, pc}
 926              		.size	chIQGetTimeout, .-chIQGetTimeout
 927 004e 00BF     		.section	.text.chIQReadTimeout,"ax",%progbits
 928              		.align	2
 929              		.p2align 4,,15
 930              		.global	chIQReadTimeout
 931              		.thumb
 932              		.thumb_func
 933              		.type	chIQReadTimeout, %function
 934              	chIQReadTimeout:
 935              		@ args = 0, pretend = 0, frame = 0
 936              		@ frame_needed = 0, uses_anonymous_args = 0
 937 0000 2DE9F84F 		push	{r3, r4, r5, r6, r7, r8, r9, r10, fp, lr}
 938 0004 0446     		mov	r4, r0
 939 0006 1D46     		mov	r5, r3
 940 0008 D0F81C80 		ldr	r8, [r0, #28]
ARM GAS  /tmp/cci85wme.s 			page 65


 941 000c 4FF0200B 		mov	fp, #32
 942              	@ 546 "/home/cody/dev/chibios/trunk/os/ext/CMSIS/include/core_cmFunc.h" 1
 943 0010 8BF31188 		MSR basepri, fp
 944              	@ 0 "" 2
 945              		.thumb
 946 0014 0026     		movs	r6, #0
 947 0016 01EB020A 		add	r10, r1, r2
 948 001a 01F10109 		add	r9, r1, #1
 949              	.L31:
 950 001e B8F1000F 		cmp	r8, #0
 951 0022 05D0     		beq	.L27
 952 0024 2046     		mov	r0, r4
 953 0026 C047     		blx	r8
 954 0028 02E0     		b	.L27
 955              	.L29:
 956 002a FFF7FEFF 		bl	chThdEnqueueTimeoutS
 957 002e F0B9     		cbnz	r0, .L35
 958              	.L27:
 959 0030 A768     		ldr	r7, [r4, #8]
 960 0032 2046     		mov	r0, r4
 961 0034 2946     		mov	r1, r5
 962 0036 002F     		cmp	r7, #0
 963 0038 F7D0     		beq	.L29
 964 003a A269     		ldr	r2, [r4, #24]
 965 003c 7B1E     		subs	r3, r7, #1
 966 003e 511C     		adds	r1, r2, #1
 967 0040 A161     		str	r1, [r4, #24]
 968 0042 A360     		str	r3, [r4, #8]
 969 0044 1378     		ldrb	r3, [r2]	@ zero_extendqisi2
 970 0046 09F8013C 		strb	r3, [r9, #-1]
 971 004a 2369     		ldr	r3, [r4, #16]
 972 004c A269     		ldr	r2, [r4, #24]
 973 004e 9A42     		cmp	r2, r3
 974 0050 24BF     		itt	cs
 975 0052 E368     		ldrcs	r3, [r4, #12]
 976 0054 A361     		strcs	r3, [r4, #24]
 977 0056 0023     		movs	r3, #0
 978              	@ 546 "/home/cody/dev/chibios/trunk/os/ext/CMSIS/include/core_cmFunc.h" 1
 979 0058 83F31188 		MSR basepri, r3
 980              	@ 0 "" 2
 981              		.thumb
 982 005c D145     		cmp	r9, r10
 983 005e 06F10106 		add	r6, r6, #1
 984 0062 06D0     		beq	.L28
 985              	@ 546 "/home/cody/dev/chibios/trunk/os/ext/CMSIS/include/core_cmFunc.h" 1
 986 0064 8BF31188 		MSR basepri, fp
 987              	@ 0 "" 2
 988              		.thumb
 989 0068 09F10109 		add	r9, r9, #1
 990 006c D7E7     		b	.L31
 991              	.L35:
 992              	@ 546 "/home/cody/dev/chibios/trunk/os/ext/CMSIS/include/core_cmFunc.h" 1
 993 006e 87F31188 		MSR basepri, r7
 994              	@ 0 "" 2
 995              		.thumb
 996              	.L28:
 997 0072 3046     		mov	r0, r6
ARM GAS  /tmp/cci85wme.s 			page 66


 998 0074 BDE8F88F 		pop	{r3, r4, r5, r6, r7, r8, r9, r10, fp, pc}
 999              		.size	chIQReadTimeout, .-chIQReadTimeout
 1000 0078 AFF30080 		.section	.text.chOQObjectInit,"ax",%progbits
 1000      AFF30080 
 1001              		.align	2
 1002              		.p2align 4,,15
 1003              		.global	chOQObjectInit
 1004              		.thumb
 1005              		.thumb_func
 1006              		.type	chOQObjectInit, %function
 1007              	chOQObjectInit:
 1008              		@ args = 4, pretend = 0, frame = 0
 1009              		@ frame_needed = 0, uses_anonymous_args = 0
 1010              		@ link register save eliminated.
 1011 0000 30B4     		push	{r4, r5}
 1012 0002 029C     		ldr	r4, [sp, #8]
 1013 0004 0462     		str	r4, [r0, #32]
 1014 0006 8D18     		adds	r5, r1, r2
 1015 0008 0561     		str	r5, [r0, #16]
 1016 000a 4060     		str	r0, [r0, #4]
 1017 000c 0060     		str	r0, [r0]
 1018 000e 8260     		str	r2, [r0, #8]
 1019 0010 4161     		str	r1, [r0, #20]
 1020 0012 8161     		str	r1, [r0, #24]
 1021 0014 C160     		str	r1, [r0, #12]
 1022 0016 C361     		str	r3, [r0, #28]
 1023 0018 30BC     		pop	{r4, r5}
 1024 001a 7047     		bx	lr
 1025              		.size	chOQObjectInit, .-chOQObjectInit
 1026 001c AFF30080 		.section	.text.chOQResetI,"ax",%progbits
 1027              		.align	2
 1028              		.p2align 4,,15
 1029              		.global	chOQResetI
 1030              		.thumb
 1031              		.thumb_func
 1032              		.type	chOQResetI, %function
 1033              	chOQResetI:
 1034              		@ args = 0, pretend = 0, frame = 0
 1035              		@ frame_needed = 0, uses_anonymous_args = 0
 1036              		@ link register save eliminated.
 1037 0000 C268     		ldr	r2, [r0, #12]
 1038 0002 4261     		str	r2, [r0, #20]
 1039 0004 10B4     		push	{r4}
 1040 0006 0469     		ldr	r4, [r0, #16]
 1041 0008 8261     		str	r2, [r0, #24]
 1042 000a A41A     		subs	r4, r4, r2
 1043 000c 8460     		str	r4, [r0, #8]
 1044 000e 6FF00101 		mvn	r1, #1
 1045 0012 5DF8044B 		ldr	r4, [sp], #4
 1046 0016 FFF7FEBF 		b	chThdDequeueAllI
 1047              		.size	chOQResetI, .-chOQResetI
 1048 001a 00BFAFF3 		.section	.text.chOQPutTimeout,"ax",%progbits
 1048      0080
 1049              		.align	2
 1050              		.p2align 4,,15
 1051              		.global	chOQPutTimeout
 1052              		.thumb
ARM GAS  /tmp/cci85wme.s 			page 67


 1053              		.thumb_func
 1054              		.type	chOQPutTimeout, %function
 1055              	chOQPutTimeout:
 1056              		@ args = 0, pretend = 0, frame = 0
 1057              		@ frame_needed = 0, uses_anonymous_args = 0
 1058 0000 F8B5     		push	{r3, r4, r5, r6, r7, lr}
 1059 0002 0446     		mov	r4, r0
 1060 0004 0F46     		mov	r7, r1
 1061 0006 1646     		mov	r6, r2
 1062 0008 2023     		movs	r3, #32
 1063              	@ 546 "/home/cody/dev/chibios/trunk/os/ext/CMSIS/include/core_cmFunc.h" 1
 1064 000a 83F31188 		MSR basepri, r3
 1065              	@ 0 "" 2
 1066              		.thumb
 1067 000e 03E0     		b	.L39
 1068              	.L42:
 1069 0010 FFF7FEFF 		bl	chThdEnqueueTimeoutS
 1070 0014 0028     		cmp	r0, #0
 1071 0016 18DB     		blt	.L48
 1072              	.L39:
 1073 0018 A568     		ldr	r5, [r4, #8]
 1074 001a 2046     		mov	r0, r4
 1075 001c 3146     		mov	r1, r6
 1076 001e 002D     		cmp	r5, #0
 1077 0020 F6D0     		beq	.L42
 1078 0022 6369     		ldr	r3, [r4, #20]
 1079 0024 013D     		subs	r5, r5, #1
 1080 0026 5A1C     		adds	r2, r3, #1
 1081 0028 6261     		str	r2, [r4, #20]
 1082 002a A560     		str	r5, [r4, #8]
 1083 002c 1F70     		strb	r7, [r3]
 1084 002e 2369     		ldr	r3, [r4, #16]
 1085 0030 6269     		ldr	r2, [r4, #20]
 1086 0032 9A42     		cmp	r2, r3
 1087 0034 24BF     		itt	cs
 1088 0036 E368     		ldrcs	r3, [r4, #12]
 1089 0038 6361     		strcs	r3, [r4, #20]
 1090 003a E369     		ldr	r3, [r4, #28]
 1091 003c 0BB1     		cbz	r3, .L44
 1092 003e 2046     		mov	r0, r4
 1093 0040 9847     		blx	r3
 1094              	.L44:
 1095 0042 0020     		movs	r0, #0
 1096              	@ 546 "/home/cody/dev/chibios/trunk/os/ext/CMSIS/include/core_cmFunc.h" 1
 1097 0044 80F31188 		MSR basepri, r0
 1098              	@ 0 "" 2
 1099              		.thumb
 1100 0048 F8BD     		pop	{r3, r4, r5, r6, r7, pc}
 1101              	.L48:
 1102              	@ 546 "/home/cody/dev/chibios/trunk/os/ext/CMSIS/include/core_cmFunc.h" 1
 1103 004a 85F31188 		MSR basepri, r5
 1104              	@ 0 "" 2
 1105              		.thumb
 1106 004e F8BD     		pop	{r3, r4, r5, r6, r7, pc}
 1107              		.size	chOQPutTimeout, .-chOQPutTimeout
 1108              		.section	.text.chOQGetI,"ax",%progbits
 1109              		.align	2
ARM GAS  /tmp/cci85wme.s 			page 68


 1110              		.p2align 4,,15
 1111              		.global	chOQGetI
 1112              		.thumb
 1113              		.thumb_func
 1114              		.type	chOQGetI, %function
 1115              	chOQGetI:
 1116              		@ args = 0, pretend = 0, frame = 0
 1117              		@ frame_needed = 0, uses_anonymous_args = 0
 1118 0000 4269     		ldr	r2, [r0, #20]
 1119 0002 8369     		ldr	r3, [r0, #24]
 1120 0004 9A42     		cmp	r2, r3
 1121 0006 10B5     		push	{r4, lr}
 1122 0008 8268     		ldr	r2, [r0, #8]
 1123 000a 0ED0     		beq	.L57
 1124              	.L52:
 1125 000c 0169     		ldr	r1, [r0, #16]
 1126 000e 541C     		adds	r4, r2, #1
 1127 0010 5A1C     		adds	r2, r3, #1
 1128 0012 8460     		str	r4, [r0, #8]
 1129 0014 8261     		str	r2, [r0, #24]
 1130 0016 8A42     		cmp	r2, r1
 1131 0018 1C78     		ldrb	r4, [r3]	@ zero_extendqisi2
 1132 001a 01D3     		bcc	.L54
 1133 001c C368     		ldr	r3, [r0, #12]
 1134 001e 8361     		str	r3, [r0, #24]
 1135              	.L54:
 1136 0020 0021     		movs	r1, #0
 1137 0022 FFF7FEFF 		bl	chThdDequeueNextI
 1138 0026 2046     		mov	r0, r4
 1139 0028 10BD     		pop	{r4, pc}
 1140              	.L57:
 1141 002a 002A     		cmp	r2, #0
 1142 002c EED0     		beq	.L52
 1143 002e 6FF00200 		mvn	r0, #2
 1144 0032 10BD     		pop	{r4, pc}
 1145              		.size	chOQGetI, .-chOQGetI
 1146 0034 AFF30080 		.section	.text.chOQWriteTimeout,"ax",%progbits
 1146      AFF30080 
 1146      AFF30080 
 1147              		.align	2
 1148              		.p2align 4,,15
 1149              		.global	chOQWriteTimeout
 1150              		.thumb
 1151              		.thumb_func
 1152              		.type	chOQWriteTimeout, %function
 1153              	chOQWriteTimeout:
 1154              		@ args = 0, pretend = 0, frame = 8
 1155              		@ frame_needed = 0, uses_anonymous_args = 0
 1156 0000 2DE9F04F 		push	{r4, r5, r6, r7, r8, r9, r10, fp, lr}
 1157 0004 83B0     		sub	sp, sp, #12
 1158 0006 0446     		mov	r4, r0
 1159 0008 8B46     		mov	fp, r1
 1160 000a 1646     		mov	r6, r2
 1161 000c 0193     		str	r3, [sp, #4]
 1162 000e D0F81C80 		ldr	r8, [r0, #28]
 1163 0012 4FF0200A 		mov	r10, #32
 1164              	@ 546 "/home/cody/dev/chibios/trunk/os/ext/CMSIS/include/core_cmFunc.h" 1
ARM GAS  /tmp/cci85wme.s 			page 69


 1165 0016 8AF31188 		MSR basepri, r10
 1166              	@ 0 "" 2
 1167              		.thumb
 1168 001a 0027     		movs	r7, #0
 1169 001c B946     		mov	r9, r7
 1170              	.L59:
 1171 001e A568     		ldr	r5, [r4, #8]
 1172 0020 0BF1010A 		add	r10, fp, #1
 1173 0024 2046     		mov	r0, r4
 1174 0026 6A1E     		subs	r2, r5, #1
 1175 0028 DDB1     		cbz	r5, .L62
 1176 002a 6369     		ldr	r3, [r4, #20]
 1177 002c A260     		str	r2, [r4, #8]
 1178 002e 5A1C     		adds	r2, r3, #1
 1179 0030 6261     		str	r2, [r4, #20]
 1180 0032 9BF80020 		ldrb	r2, [fp]	@ zero_extendqisi2
 1181 0036 1A70     		strb	r2, [r3]
 1182 0038 2369     		ldr	r3, [r4, #16]
 1183 003a 6269     		ldr	r2, [r4, #20]
 1184 003c 9A42     		cmp	r2, r3
 1185 003e 24BF     		itt	cs
 1186 0040 E368     		ldrcs	r3, [r4, #12]
 1187 0042 6361     		strcs	r3, [r4, #20]
 1188 0044 B8F1000F 		cmp	r8, #0
 1189 0048 00D0     		beq	.L64
 1190 004a C047     		blx	r8
 1191              	.L64:
 1192              	@ 546 "/home/cody/dev/chibios/trunk/os/ext/CMSIS/include/core_cmFunc.h" 1
 1193 004c 89F31188 		MSR basepri, r9
 1194              	@ 0 "" 2
 1195              		.thumb
 1196 0050 013E     		subs	r6, r6, #1
 1197 0052 07F10107 		add	r7, r7, #1
 1198 0056 0CD0     		beq	.L61
 1199 0058 2023     		movs	r3, #32
 1200              	@ 546 "/home/cody/dev/chibios/trunk/os/ext/CMSIS/include/core_cmFunc.h" 1
 1201 005a 83F31188 		MSR basepri, r3
 1202              	@ 0 "" 2
 1203              		.thumb
 1204 005e D346     		mov	fp, r10
 1205 0060 DDE7     		b	.L59
 1206              	.L62:
 1207 0062 2046     		mov	r0, r4
 1208 0064 0199     		ldr	r1, [sp, #4]
 1209 0066 FFF7FEFF 		bl	chThdEnqueueTimeoutS
 1210 006a 0028     		cmp	r0, #0
 1211 006c D7D0     		beq	.L59
 1212              	@ 546 "/home/cody/dev/chibios/trunk/os/ext/CMSIS/include/core_cmFunc.h" 1
 1213 006e 85F31188 		MSR basepri, r5
 1214              	@ 0 "" 2
 1215              		.thumb
 1216              	.L61:
 1217 0072 3846     		mov	r0, r7
 1218 0074 03B0     		add	sp, sp, #12
 1219              		@ sp needed
 1220 0076 BDE8F08F 		pop	{r4, r5, r6, r7, r8, r9, r10, fp, pc}
 1221              		.size	chOQWriteTimeout, .-chOQWriteTimeout
ARM GAS  /tmp/cci85wme.s 			page 70


 1222              		.comm	__gnu_lto_v1,1,1
 1223 007a 00BFAFF3 		.ident	"GCC: (GNU Tools for ARM Embedded Processors) 4.8.4 20140526 (release) [ARM/embedded-4_8-br
 1223      0080
ARM GAS  /tmp/cci85wme.s 			page 71


DEFINED SYMBOLS
                            *ABS*:0000000000000000 chqueues.c
     /tmp/cci85wme.s:786    .text.chIQObjectInit:0000000000000000 $t
     /tmp/cci85wme.s:792    .text.chIQObjectInit:0000000000000000 chIQObjectInit
     /tmp/cci85wme.s:813    .text.chIQResetI:0000000000000000 $t
     /tmp/cci85wme.s:819    .text.chIQResetI:0000000000000000 chIQResetI
     /tmp/cci85wme.s:832    .text.chIQPutI:0000000000000000 $t
     /tmp/cci85wme.s:838    .text.chIQPutI:0000000000000000 chIQPutI
     /tmp/cci85wme.s:871    .text.chIQGetTimeout:0000000000000000 $t
     /tmp/cci85wme.s:877    .text.chIQGetTimeout:0000000000000000 chIQGetTimeout
     /tmp/cci85wme.s:928    .text.chIQReadTimeout:0000000000000000 $t
     /tmp/cci85wme.s:934    .text.chIQReadTimeout:0000000000000000 chIQReadTimeout
     /tmp/cci85wme.s:1001   .text.chOQObjectInit:0000000000000000 $t
     /tmp/cci85wme.s:1007   .text.chOQObjectInit:0000000000000000 chOQObjectInit
     /tmp/cci85wme.s:1027   .text.chOQResetI:0000000000000000 $t
     /tmp/cci85wme.s:1033   .text.chOQResetI:0000000000000000 chOQResetI
     /tmp/cci85wme.s:1049   .text.chOQPutTimeout:0000000000000000 $t
     /tmp/cci85wme.s:1055   .text.chOQPutTimeout:0000000000000000 chOQPutTimeout
     /tmp/cci85wme.s:1109   .text.chOQGetI:0000000000000000 $t
     /tmp/cci85wme.s:1115   .text.chOQGetI:0000000000000000 chOQGetI
     /tmp/cci85wme.s:1147   .text.chOQWriteTimeout:0000000000000000 $t
     /tmp/cci85wme.s:1153   .text.chOQWriteTimeout:0000000000000000 chOQWriteTimeout
                            *COM*:0000000000000001 __gnu_lto_v1

UNDEFINED SYMBOLS
chThdDequeueAllI
chThdDequeueNextI
chThdEnqueueTimeoutS
