ARM GAS  /tmp/ccnnv6ua.s 			page 1


   1              		.syntax unified
   2              		.cpu cortex-m4
   3              		.eabi_attribute 27, 3
   4              		.eabi_attribute 28, 1
   5              		.fpu fpv4-sp-d16
   6              		.eabi_attribute 20, 1
   7              		.eabi_attribute 21, 1
   8              		.eabi_attribute 23, 3
   9              		.eabi_attribute 24, 1
  10              		.eabi_attribute 25, 1
  11              		.eabi_attribute 26, 1
  12              		.eabi_attribute 30, 2
  13              		.eabi_attribute 34, 1
  14              		.eabi_attribute 18, 4
  15              		.thumb
  16              		.file	"chschd.c"
  17              		.section	.gnu.lto_.jmpfuncs.58322ff69e4d23d5,"",%progbits
  18 0000 789C6362 		.ascii	"x\234cb`b\300\006*\24047\003#\023\0033#\013\220dd|\300"
  18      6062C006 
  18      2AA03437 
  18      03231303 
  18      33230B90 
  19 0018 18C198C9 		.ascii	"\030\301\230\311\310\300\010\024gefd\006Re\014 \036"
  19      C8C00814 
  19      67656664 
  19      0652650C 
  19      201E
  20 002a 8CC9C2C0 		.ascii	"\214\311\302\300\000d1\002YL\325\014\277\032:\032\004"
  20      00643102 
  20      594CD50C 
  20      BF1A3A1A 
  20      04
  21 003b 32191993 		.ascii	"2\031\031\223\031\241F\26113A\324\241\030\304\316\300"
  21      19A146B1 
  21      313341D4 
  21      A118C4CE 
  21      C0
  22 004c 01710227 		.ascii	"\001q\002'\204\342\002\331\311\300\000\000\241\362\011"
  22      84E202D9 
  22      C9C00000 
  22      A1F209
  23 005b F2       		.ascii	"\362"
  24              		.text
  25              		.section	.gnu.lto_.inline.58322ff69e4d23d5,"",%progbits
  26 0000 789C6362 		.ascii	"x\234cb`b\300\006\252\030!47\003\203\226\035#\003\223"
  26      6062C006 
  26      AA182134 
  26      37038396 
  26      1D230393 
  27 0014 F3815D6C 		.ascii	"\363\201]l\014\202\015\223\030\301\312\231\0308\330"
  27      0C820D93 
  27      18C1CA99 
  27      1838D8
  28 0023 81825C13 		.ascii	"\201\202\\\023\374\030\330\026\310\203\205\230\031\370"
  28      FC18D816 
  28      C8838598 
  28      19F8
ARM GAS  /tmp/ccnnv6ua.s 			page 2


  29 0031 0E303032 		.ascii	"\0160022\000\3651;\260\010>\370\303\312\300y\303\214"
  29      3200F531 
  29      3BB0083E 
  29      F8C3CAC0 
  29      79C38C
  30 0044 8981F179 		.ascii	"\211\201\361y\030\013\204\004\251ba\340\023\003j\024"
  30      180B8404 
  30      A96261E0 
  30      13036A14 
  31 0054 68A84568 		.ascii	"h\250Eh\344\001\2327\301o\202\037\253\210\230\012#3"
  31      E4019A37 
  31      C16F821F 
  31      AB88980A 
  31      2333
  32 0066 63460463 		.ascii	"cF\004c&#\323\177 \340g``LG\341\201\034\305\302\262"
  32      2623D37F 
  32      20E06760 
  32      604C47E1 
  32      811CC5C2 
  33 007b 401EA219 		.ascii	"@\036\242\031\310\020`\340\370\241\0036\231\211\233"
  33      C81060E0 
  33      F8A10336 
  33      99899B
  34 008a 81838171 		.ascii	"\201\203\201q\202\037\220f\001:\002B\001\015\345\003"
  34      821F9066 
  34      013A0242 
  34      010DE503 
  35 009a D22C0C40 		.ascii	"\322,\014@\207N\360ccP:\210p\242\341\216[l\014\334`"
  35      874EF063 
  35      63503A88 
  35      70A2E18E 
  35      5B6C0CDC 
  36 00af 27BE6067 		.ascii	"'\276`g\201\220(\356a\307\364$\007\203\304e\220\341"
  36      819028EE 
  36      61C7F424 
  36      0783C465 
  36      90E1
  37 00c1 2AD3D673 		.ascii	"*\323\326s`z\200\023\257,\027\003\027\017P\222\347A"
  37      607A8013 
  37      AF2C1703 
  37      170F5092 
  37      E741
  38 00d3 2C5C8E91 		.ascii	",\\\216\221\013\034\302, q \013E\230\001\000\26738\375"
  38      0B1CC22C 
  38      2071200B 
  38      45980100 
  38      B73338FD 
  39              		.text
  40              		.section	.gnu.lto_.pureconst.58322ff69e4d23d5,"",%progbits
  41 0000 789C6362 		.ascii	"x\234cb`b\020g\200\000n\006+&)f)\026)VI6)vV\016)N)."
  41      60621067 
  41      80006E06 
  41      2B262966 
  41      29162956 
  42 001e 496E0900 		.ascii	"In\011\000\024\262\001\215"
  42      14B2018D 
  43              		.text
ARM GAS  /tmp/ccnnv6ua.s 			page 3


  44              		.section	.gnu.lto_wakeup.58322ff69e4d23d5,"",%progbits
  45 0000 789CAD56 		.ascii	"x\234\255Voh[U\024?\347\375M\362f\377$m\322\025,Ap\037"
  45      6F685B55 
  45      143FE7FD 
  45      4DF266FF 
  45      246DD215 
  46 0018 365906D3 		.ascii	"6Y\006\323\017\"\302D\020\206\354\213]A?\315\344%$\017"
  46      0F22C244 
  46      1086EC8B 
  46      5D413FCD 
  46      E425240F 
  47 002c 4D3B9256 		.ascii	"M;\222V\035C\372\262\005,ZY\235\023\374\203lCW\264\210"
  47      1D43FAB2 
  47      052C5A59 
  47      9D13FC83 
  47      6C4357B4 
  48 0041 22F861E0 		.ascii	"\"\370a\340\300\250\037\264tK\273\341\207m\364C\347"
  48      C0A81FB4 
  48      744BBBE1 
  48      876DF443 
  48      E7
  49 0052 2822C2EC 		.ascii	"(\"\302\354V\205V\207\361\334{\337}\371\323\326v\340"
  49      56855687 
  49      F1DC7BDF 
  49      7DF9D3D6 
  49      76E0
  50 0064 0D39F7E4 		.ascii	"\0159\367\344\236\373;\347\374\316=\357\335(\240@\353"
  50      9EFB3BE7 
  50      FCCE3DEF 
  50      DD28A040 
  50      EB
  51 0075 38415F35 		.ascii	"8A_5\010\3607\315\270\015P\231\250\002\224\002\212n"
  51      08F037CD 
  51      B80D5099 
  51      A8029402 
  51      8A6E
  52 0087 CEB5831B 		.ascii	"\316\265\203\033P\271\324\2704\270\324\305:\206\304"
  52      50B9D4B8 
  52      34B8D4C5 
  52      3A86C4
  53 0096 460D4DA1 		.ascii	"F\015M\241\350h\010\305\220+&\006\204\022P\254\361\037"
  53      E86808C5 
  53      902B2606 
  53      841250AC 
  53      F11F
  54 00a8 00DC50B0 		.ascii	"\000\334P\260l\202\273\315\022\353O\004\245\217\020"
  54      6C82BBCD 
  54      12EB4F04 
  54      A58F10
  55 00b7 22530061 		.ascii	"\"S\000aTQ5\3350\003V0\204\243\317!K\020\037\200\263"
  55      545135DD 
  55      30035630 
  55      84A3CF21 
  55      4B101F80 
  56 00cc AE7B7261 		.ascii	"\256{ra\361\267_\361=\267R>\343\336\255\325\020\035"
  56      F1B75FF1 
  56      3DB7523E 
ARM GAS  /tmp/ccnnv6ua.s 			page 4


  56      E3DEADD5 
  56      101D
  57 00de 24327B11 		.ascii	"$2{\021l\204g\351\007\306\371\244h\315\354\276P*\013"
  57      6C8467E9 
  57      07C6F9A4 
  57      68CDECBE 
  57      502A0B
  58 00f1 B5DAC5B7 		.ascii	"\265\332\305\267\377\274q\025\273vh\230G0\301A\"\354"
  58      FFBC7115 
  58      BB766898 
  58      4730C141 
  58      22EC
  59 0103 A06631D1 		.ascii	"\240f1\321IB\0173\021!\001]Lt3\021\205$\236\245\340"
  59      49420F33 
  59      1121015D 
  59      4C743311 
  59      85249EA5 
  60 0118 316FEEA1 		.ascii	"1o\356\241Ec;\023\275\314LC\207\262\353N\304\201\345"
  60      45633B13 
  60      BDCC4C43 
  60      87B2EB4E 
  60      C481E5
  61 012b 40E320C9 		.ascii	"@\343 \311\305\000\014\240B\223Z\205c\267o\235\272\331"
  61      C5000CA0 
  61      42935A85 
  61      63B76F9D 
  61      BAD9
  62 013d E36F4AE2 		.ascii	"\343oJ\342G\250sB\364yYeG\241\212\363\350\2031\374\320"
  62      47A87342 
  62      F4795965 
  62      47A18AF3 
  62      E88331FC 
  63 0152 7D779F83 		.ascii	"}w\237\203&\373\311x\004\342L\363\355ox\366\240`u\011"
  63      26FBC978 
  63      04E24CF3 
  63      ED6F78F6 
  63      A0607509 
  64 0166 8E5D9F3F 		.ascii	"\216]\237?s\356~\3412\213\346.\330\351`\350\003x\237"
  64      73EE7EE1 
  64      328BE62E 
  64      D8E960E8 
  64      03789F
  65 0179 A0561635 		.ascii	"\240V\0265\346BlM\241,\305Ex\255\242\372\2107a\274T"
  65      E6426C4D 
  65      A12CC545 
  65      78ADA2FA 
  65      883761BC 
  66 018e 763B1C3A 		.ascii	"v;\034:r\032i\024\333\304j\345J\230\326\231\017U\030"
  66      721A6914 
  66      DBC46AE5 
  66      4A98D699 
  66      0F5518
  67 01a1 9546E3BC 		.ascii	"\225F\343\274oT\271Qm4\236\214H\243\306\215Z\243\361"
  67      6F54B951 
  67      6D349E8C 
  67      48A3C68D 
  67      5AA3F1
ARM GAS  /tmp/ccnnv6ua.s 			page 5


  68 01b4 0F1FA973 		.ascii	"\017\037\251s\243\336h\374\3077\232\015H1\006(\310\015"
  68      A3DE68FC 
  68      C7379A0D 
  68      48310628 
  68      C80D
  69 01c6 5467A855 		.ascii	"Tg\250U\274t\250\272_\336:e\377Wq\2238I0^Lh(f\022?\305"
  69      BC74A8BA 
  69      5FDE3A65 
  69      FF577193 
  69      3849305E 
  70 01e1 BE46D79A 		.ascii	"\276F\327\232t-|pB\274\300\027\316=-\313\025\344\005"
  70      742D7C70 
  70      42BCC017 
  70      CE3D2DCB 
  70      15E405
  71 01f4 D676C194 		.ascii	"\326v\301\224K\343U\007\357[\277\326\350\315\3621#?"
  71      4BE35507 
  71      EF5BBFD6 
  71      E8CDF231 
  71      233F
  72 0206 E797A2C2 		.ascii	"\347\227\242\302\013!J\004\266\034l#\207\014\325\016"
  72      0B214A04 
  72      B61C6C23 
  72      870CD50E 
  73 0216 F2B8DBEA 		.ascii	"\362\270\333\352\351\350\255\351\350\"\235\225\317\177"
  73      E9E8ADE9 
  73      E8229D95 
  73      CF7F
  74 0224 D6653A56 		.ascii	"\326e:VS:\247\361^\362\271~wj\365\223\320\332\302e\261"
  74      533AA7F1 
  74      5EF2B97E 
  74      776AF593 
  74      D0DAC265 
  75 0239 5364483D 		.ascii	"SdH=\321A!\230\233\316\200\204\035\037;^H\342\005\036"
  75      D1412198 
  75      9BCE8084 
  75      1D1F3B5E 
  75      48E2051E 
  76 024d 3D4C5B99 		.ascii	"=L[\231\265\003\205\307\375\302\260\001\232\366Kj\006"
  76      B50385C7 
  76      FDC2B001 
  76      9AF64B6A 
  76      06
  77 025e 7CA73651 		.ascii	"|\2476Q\323\274\214nN\277\376=\372)\011\2452\263\370"
  77      D3BC8C6E 
  77      4EBFFE3D 
  77      FA2909A5 
  77      32B3F8
  78 0271 B12EF3B3 		.ascii	"\261.\363\263\005\223,F\004\347\205\323\325\237z\014"
  78      05932C46 
  78      04E785D3 
  78      D59F7A0C 
  79 0281 E2E9076D 		.ascii	"\342\351\007me\2562hEPc1\226\332\222\370\015O\277\213"
  79      65AE3268 
  79      45506331 
  79      96DA92F8 
  79      0D4FBF8B 
ARM GAS  /tmp/ccnnv6ua.s 			page 6


  80 0295 176F63A4 		.ascii	"\027oc\244\326\214\234^\262\004\322\253\366\343-\330"
  80      D68C9C5E 
  80      B204D2AB 
  80      F6E32DD8 
  81 02a5 C8FA588A 		.ascii	"\310\372X\212#\002_\235\0327d\350\356\3777t\367\372"
  81      23025F9D 
  81      1A3764E8 
  81      EEFF3774 
  81      F7FA
  82 02b7 84292759 		.ascii	"\204)'Yq\023\312fS\305Q\364\344\374W\223;\305\222\347"
  82      7113CA66 
  82      53C551F4 
  82      E4FC5793 
  82      3BC592E7 
  83 02cb FA1107C3 		.ascii	"\372\021\007\303\236jm\332M\272\337\267\341\232\034"
  83      9E6A6DDA 
  83      4DBADFB7 
  83      E19A1C
  84 02da 382A3CAF 		.ascii	"8*<\257\374\276*OR\2746\345y\272_O\366\325\217\2237"
  84      FCBE2A4F 
  84      52BC36E5 
  84      79BA5F4F 
  84      F6D58F93 
  85 02ef A40858A9 		.ascii	"\244\010X\251U\025\361\362Z\277(\374\231\235eA\331j"
  85      5515F1F2 
  85      5ABF28FC 
  85      999D6541 
  85      D96A
  86 0301 A8FEA404 		.ascii	"\250\376\244\004\200.\015\225\327\370\316\267\230\304"
  86      802E0D95 
  86      D7F8CEB7 
  86      98C4
  87 030f 2AAF71CC 		.ascii	"*\257q\314\243\361hK\261\242k\012=[\357\216\225;\267"
  87      A3F1684B 
  87      B1A26B0A 
  87      3D5BEF8E 
  87      953BB7
  88 0322 7D073DFC 		.ascii	"}\007=\374\220\"\215\330X#\326h\301N\264K\344\366\265"
  88      90228DD8 
  88      5823D668 
  88      C14EB44B 
  88      E4F6B5
  89 0335 486D23E4 		.ascii	"Hm#\344\217P\376\245d\3721\011,\211]\203\350Q\370\313"
  89      8F50FEA5 
  89      64FA3109 
  89      2C895D83 
  89      E851F8CB 
  90 0349 1D732B6F 		.ascii	"\035s+o\235\210:\254]9\237\243\016k\037\256\036r0\232"
  90      9D883AAC 
  90      5D399FA3 
  90      0E6B1FAE 
  90      1E72309A 
  91 035d 4723C5AE 		.ascii	"G#\305\256\013\317a\212\275\344<\335\233\314\034%n}"
  91      0BCF618A 
  91      BDE43CDD 
  91      9BCC1C25 
  91      6E7D
ARM GAS  /tmp/ccnnv6ua.s 			page 7


  92 036f B6FA3CBB 		.ascii	"\266\372<\273\231,\240\013\030\007\350\002\241\206`"
  92      992CA00B 
  92      1807E802 
  92      A18660
  93 037e AD757E59 		.ascii	"\255u~Y2\256\037\373&\2159+\232+\346\365\365\362eE\246"
  93      32AE1FFB 
  93      268D392B 
  93      9A2BE6F5 
  93      F5F26545 
  94 0393 DFBBB6AF 		.ascii	"\337\273\266\257ckz\263^\262\3519s\353\241\325\206\320"
  94      636B7AB3 
  94      5EB2E939 
  94      73EBA1D5 
  94      86D0
  95 03a5 BD1C3EB3 		.ascii	"\275\034>\263\262|Mkr0\262\265\340Y\357\2053=g5\301"
  95      B27C4D6B 
  95      7230B2B5 
  95      E059EF85 
  95      333D6735 
  96 03ba 1F6B81F7 		.ascii	"\037k\201\367nD]\343\027\317\246\327\372Vo\236\020\373"
  96      6E445DE3 
  96      17CFA6D7 
  96      FA566F9E 
  96      10FB
  97 03cc 9F70194A 		.ascii	"\237p\031JKW\336\351\366\335\360q\220\236\265\305\000"
  97      4B57DEE9 
  97      F6DDF071 
  97      909EB5C5 
  97      00
  98 03dd 43ED49E4 		.ascii	"C\355I\344\206\362\231\204=\224>\222Hg^J\3309'\345\014"
  98      86F29984 
  98      3D943E92 
  98      48675E4A 
  98      D83927E5 
  99 03f2 1513C385 		.ascii	"\025\023\303\205\221\301\027\022\244\024\206\023\305"
  99      91C11712 
  99      A4148613 
  99      C5
 100 03ff 824DEB45 		.ascii	"\202M\353E;\227\336m\203b\037\336\267\031&\363\312p"
 100      3B97DE6D 
 100      83621FDE 
 100      B71926F3 
 100      CA70
 101 0411 E2C903FD 		.ascii	"\342\311\003\375\373\373\023\316\240\375\342H\232\355"
 101      FBFB13CE 
 101      A0FDE248 
 101      9AED
 102 041f 2D640ED9 		.ascii	"-d\016\331\371\247F\006\355\3359\3508\320\377L<\225"
 102      F9A74606 
 102      EDDD39E8 
 102      38D0FF4C 
 102      3C95
 103 0431 2C660E17 		.ascii	",f\016\027\234\207\342\017\356\001\245\000f>\223\037"
 103      9C87E20F 
 103      EE01A500 
 103      663E931F 
 104 0441 2A1C81BD 		.ascii	"*\034\201\275[H\310\367\232+f\362\344\357\341{\3030"
ARM GAS  /tmp/ccnnv6ua.s 			page 8


 104      5B48C8F7 
 104      9A2B66F2 
 104      E4EFE17B 
 104      C330
 105 0453 2239F817 		.ascii	"\"9\370\027Q\353a}"
 105      51EB617D 
 106              		.text
 107              		.section	.gnu.lto__scheduler_init.58322ff69e4d23d5,"",%progbits
 108 0000 789C6362 		.ascii	"x\234cb`b@\007\222@\374\022(\234\016\244\031\231\031"
 108      60624007 
 108      9240FC12 
 108      289C0EA4 
 108      199919
 109 0013 1899269C 		.ascii	"\030\231&\234c`h\344`bd\0041\030\030\031\352\231\030"
 109      636068E4 
 109      60626404 
 109      31181819 
 109      EA9918
 110 0026 EB2319C1 		.ascii	"\353#\031\301j\3273\035x\360\377\377\272)m\363\3460"
 110      6AD7331D 
 110      78F0FFFF 
 110      BA296DF3 
 110      E630
 111 0038 CE64E200 		.ascii	"\316d\342\000\212\2602\26444LP``H\006\253\010\001\222"
 111      8AB032B4 
 111      34344C50 
 111      60604806 
 111      AB080192 
 112 004c 206DA18C 		.ascii	" m\241\214L \232\371,C\323\351?\263\316<g\207\253\203"
 112      4C209AF9 
 112      2C43D3E9 
 112      3FB3CE3C 
 112      6787AB83 
 113 0060 300E741F 		.ascii	"0\016t\037\273\310\314\300\220\310\270\220\221\025\250"
 113      BBC8CCC0 
 113      90C8B890 
 113      9115A8
 114 006f 15AC579B 		.ascii	"\025\254W\233aUCC\303\203\353\017\367\350f22\314f\230"
 114      61554343 
 114      C383EB0F 
 114      F7E86632 
 114      32CC6698 
 115 0083 D5D8D020 		.ascii	"\325\330\320 \220\311\310X\315\360\253\241\003\304b"
 115      90C9C858 
 115      CDF0ABA1 
 115      03C462
 116 0092 CA05AB8B 		.ascii	"\312\005\253\213`\314\004\272\023\004\222@\374D\306"
 116      60CC04BA 
 116      13049240 
 116      FC44C6
 117 00a1 C5403318 		.ascii	"\305@3\030 \252\036\264>~\001\222\206\230\325\020\017"
 117      20AA1EB4 
 117      3E7E0192 
 117      8698D510 
 117      0F
 118 00b2 D40E6506 		.ascii	"\324\016e\006g2\262\000\365'A\354\002\322\220\220\200"
 118      6732B200 
ARM GAS  /tmp/ccnnv6ua.s 			page 9


 118      F52741EC 
 118      02D29090 
 118      80
 119 00c3 B8000880 		.ascii	"\270\000\010\200.=\011ti;k\"\343\"\240\010T\027?\321"
 119      2E3D0974 
 119      693B6B22 
 119      E322A008 
 119      54173FD1 
 120 00d7 2E61A6A6 		.ascii	".a\246\246Kv\354x|\203\011\"\000\325d\236\311\310\012"
 120      4B76EC78 
 120      7C830922 
 120      00D5649E 
 120      C9C80A
 121 00ea 657203F5 		.ascii	"er\003\365\303\335\304\206\315MLP\203a\026\2600\300"
 121      C3DDC486 
 121      CD4D4C50 
 121      836116B0 
 121      30C0
 122 00fc 646016FC 		.ascii	"d`\026\374j\336\337\343\217bA-\320\247Pf!\311\026\200"
 122      6ADEDFE3 
 122      8F62412D 
 122      D0A75066 
 122      21C91680 
 123 0110 8D857ABC 		.ascii	"\215\205z\274\3416P\001;\324\250\217\214\250\236e\200"
 123      E1365001 
 123      3BD4A88F 
 123      8CA89E65 
 123      80
 124 0121 05F5046E 		.ascii	"\005\365\004nt\3571\220\355=6\222l\277\310\320\370`"
 124      74EF3190 
 124      ED3D3692 
 124      6CBFC8D0 
 124      F860
 125 0133 A6323CB4 		.ascii	"\2462<\264\031 \311\226\021\224\\A\006\033\350g\344"
 125      1920C996 
 125      11945C41 
 125      061BE867 
 125      E4
 126 0144 E7A6EA27 		.ascii	"\347\246\352'\347\247T\352\247\244\226\351'gd&e\346"
 126      E7A754EA 
 126      A7A496E9 
 126      27676426 
 126      65E6
 127 0156 17EB9714 		.ascii	"\027\353\227\024\225\346e\353\003\031E%\372\305E\311"
 127      95E665EB 
 127      03194525 
 127      FAC545C9 
 128 0166 40F1E2E4 		.ascii	"@\361\342\344\214\024\275d\006\023\"4d\346%\347\224"
 128      8C14BD64 
 128      06132234 
 128      64E625E7 
 128      94
 129 0177 A6A4C234 		.ascii	"\246\244\3024e0\000\000\035\037\341\027"
 129      65300000 
 129      1D1FE117 
 130              		.text
 131              		.section	.gnu.lto_chSchReadyI.58322ff69e4d23d5,"",%progbits
ARM GAS  /tmp/ccnnv6ua.s 			page 10


 132 0000 789C8D52 		.ascii	"x\234\215RAk\023A\030\375\336\314N\266\333*\036\004"
 132      416B1341 
 132      18FDDECC 
 132      4EB6DB2A 
 132      1E04
 133 0012 CFC5630B 		.ascii	"\317\305c\013]A<\210^\374\017\006\364\244\315\246$\203"
 133      5D413C88 
 133      5EFC0F06 
 133      F4A4CDA6 
 133      2483
 134 0024 C448D20A 		.ascii	"\304H\322\012\322C'%\207\036\012\215\336Z/\026o\"x\361"
 134      D2432725 
 134      871E0A8D 
 134      DE5A2F16 
 134      6F2278F1 
 135 0038 D0633CD9 		.ascii	"\320c<\331\"\212\275%\236\202 R\024\244\015B*B\374f"
 135      228ABD25 
 135      9E822052 
 135      14A40D42 
 135      2A42FC66 
 136 004c 67B32635 		.ascii	"g\263&5P\007v\276ogx\357{\357\355\012\022tr]\347gN\022"
 136      500776BE 
 136      6F6778EF 
 136      7BEFED0A 
 136      1274725D 
 137 0064 5DE18A0C 		.ascii	"]\341\212\014A4>\020\325&\004\244k\244P\353o\211\314"
 137      41343E10 
 137      D52604A4 
 137      6BA450EB 
 137      6F89CC
 138 0077 A457F7C9 		.ascii	"\244W\367\311\234Q\356\374\206\007\330J\240\025!\225"
 138      9C51EEFC 
 138      8607D84A 
 138      A0152195 
 139 0087 8795DBB0 		.ascii	"\207\225\333\260l\270H\333\306<\351|\371v\200M\323\254"
 139      6CB848DB 
 139      C63CE97C 
 139      F976804D 
 139      D3AC
 140 0099 3F33BFFB 		.ascii	"?3\277\373}@\203'_\006E\240[\374\202\351\270\010oT\312"
 140      7D408327 
 140      5F0645A0 
 140      5BFC82E9 
 140      B8086F54 
 141 00ae 2BD1ECF4 		.ascii	"+\321\354\364\373\337\177\276\376\334\306\371\263\240"
 141      FBDF7FBE 
 141      FEDCC6F9 
 141      B3A0
 142 00bc 796C339F 		.ascii	"yl3\237D\011\244\222\227\014iH\337n\001o\026\244\250"
 142      4409A492 
 142      970C6948 
 142      DF6E016F 
 142      16A4A8
 143 00cf 6E4C63DA 		.ascii	"nLc\332]\223\235\300\353&\357,7\013\301E\276\247\325"
 143      5D939DC0 
 143      EB26EF2C 
 143      370BC145 
ARM GAS  /tmp/ccnnv6ua.s 			page 11


 143      BEA7D5
 144 00e2 9DDE8F63 		.ascii	"\235\336\217c\314\3439\024\315\322\013\303kJ\303{J["
 144      CCE33914 
 144      CDD20BC3 
 144      6B4AC37B 
 144      4A5B
 145 00f4 2C431520 		.ascii	",C\025 \255\034'\"\227T{\222\352\313B\022\333\265L\237"
 145      AD1C2722 
 145      97547B92 
 145      EACB4212 
 145      DBB54C9F 
 146 0108 5A476F12 		.ascii	"ZGo\022\246\002TBv\225\321)\031\206\311\222\206,\262"
 146      A6025442 
 146      7695D129 
 146      1986C992 
 146      862CB2
 147 011b 77749822 		.ascii	"wt\230\"3\2634\243\221IAj\030$\206@\215s\003\210\177"
 147      33B334A3 
 147      9149416A 
 147      18248640 
 147      8D730388 
 148 0130 0222C741 		.ascii	"\002\"\307Av\251\376\265\346\247S\0305\360\320&,\323"
 148      76A9FEB5 
 148      E6A75318 
 148      35F0D026 
 148      2CD3
 149 0142 2FB3669A 		.ascii	"/\263f\232\2177.h\313\026K_\326\230H\332;\032A\011\310"
 149      8F372E68 
 149      CB164B5F 
 149      D69848DA 
 149      3B1A4109 
 150 0157 B159479A 		.ascii	"\261YG\232\372\027EV\250^\036\337\265\321*\342\037\002"
 150      FA174556 
 150      A85E1EDF 
 150      B5D12AE2 
 150      1F02
 151 0169 59BE75D9 		.ascii	"Y\276u\331\356\355t\017\377\311\226\306\313t\015\223"
 151      EEED740F 
 151      FFC996C6 
 151      CB740D93 
 152 0179 3973ADEE 		.ascii	"9s\255\356\276\030h\015b{4>\021\3657\221\275\217\376"
 152      BE18680D 
 152      627B343E 
 152      11F53791 
 152      BD8FFE
 153 018c 7F0E53C9 		.ascii	"\177\016S\311\260 \306\275\353u\333\336\010r\351\224"
 153      B020C6BD 
 153      EB75DBDE 
 153      0872E994 
 154 019c 71051B44 		.ascii	"q\005\033D<qj\004wm\030\027\214\263\307\270}\252uZ\205"
 154      3C716A04 
 154      776D1817 
 154      8CB3C7B8 
 154      7DAA755A 
 155 01b1 81399728 		.ascii	"\2019\227(\207\007\016\315~\253Ka\261\\Z\010\243r\376"
 155      87070ECD 
 155      7EAB4B61 
ARM GAS  /tmp/ccnnv6ua.s 			page 12


 155      B15C5A08 
 155      A372FE
 156 01c4 51985F78 		.ascii	"Q\230_x\030FE\235\323\345j\270XY\272\177/\344\246\262"
 156      1846459D 
 156      D3E56AB8 
 156      5859BA7F 
 156      2FE4A6B2 
 157 01d8 18562B11 		.ascii	"\030V+\021\237W\243b~.\"\021=\370\003\201\300\307}"
 157      9F57A362 
 157      7E2E2211 
 157      3DF80381 
 157      C0C77D
 158              		.text
 159              		.section	.gnu.lto_chSchGoSleepS.58322ff69e4d23d5,"",%progbits
 160 0000 789CA552 		.ascii	"x\234\245R\317k\023A\024~o6\033\263+J\301SO\226\336"
 160      CF6B1341 
 160      147E6F36 
 160      1BB32B4A 
 160      C1534F96 
 161 0015 6CA96BA9 		.ascii	"l\251k\251\336\374\007<\012\012zL'a3\330$%I\205\"\322"
 161      DEFC073C 
 161      0A0A7A4C 
 161      276133D8 
 161      24254985 
 162 002b 498DD043 		.ascii	"I\215\320C\321\352\251\332\213%-E\361\3271\307\010\012"
 162      D1EAA9DA 
 162      8B252D45 
 162      F1D731C7 
 162      080A
 163 003d 2D45AB9E 		.ascii	"-E\253\236\244\027\327\203\007o\2365t}og\263M\252\240"
 163      A417D783 
 163      076F9E35 
 163      747D6F67 
 163      B34DAAA0 
 164 0051 D881DDF7 		.ascii	"\330\201\335\367f\230\357{\337{\337\010\020pp\015\322"
 164      6698EF7B 
 164      DF7BDF08 
 164      1070700D 
 164      D2
 165 0062 B7660194 		.ascii	"\267f\001\224(\242\005(\226\336\001\3243\002\221\023"
 165      28A20528 
 165      96DE01D4 
 165      33029113 
 166 0072 40981338 		.ascii	"@\230\0238w\025\371\252\030\206U\255\357\007\353?\277"
 166      7715F9AA 
 166      188655AD 
 166      EF07EB3F 
 166      BF
 167 0083 E103DD6E 		.ascii	"\341\003\335n<\322\2350DTH\264\023\010\022\341\012m"
 167      3CD29D30 
 167      445448B4 
 167      130812E1 
 167      0A6D
 168 0095 70280A22 		.ascii	"p(\012\"\325_'\306~~\374\372\013\336\273\2457u\243M"
 168      D55F27C6 
 168      7E7EFCFA 
 168      0BDEBBA5 
ARM GAS  /tmp/ccnnv6ua.s 			page 13


 168      3775A34D 
 169 00a9 E0931178 		.ascii	"\340\223\021x\352o\340\027\242\035\204\341\363O;\033"
 169      EA6FE017 
 169      A21D84E1 
 169      F34F3B1B 
 170 00b9 1DDC14C7 		.ascii	"\035\334\024\307\004dq\025\207\301\302\"\202C\233&m"
 170      04647115 
 170      87C1C222 
 170      82439B26 
 170      6D
 171 00ca 5C50914A 		.ascii	"\\P\221J\033\032Z/\015\231\033\300\304\264.\321\237"
 171      1B1A5A2F 
 171      0D991BC0 
 171      C4B42ED1 
 171      9F
 172 00db FBB98C82 		.ascii	"\373\271\214\202\243\365\026\346w[{\2570\213\353h\203"
 172      A3F516E6 
 172      775B7BAF 
 172      308BEB68 
 172      83
 173 00ec 8F62149E 		.ascii	"\217b\024\236hZ\347\210c\024F\024Z+\360\260\256\365"
 173      685AE788 
 173      63144614 
 173      5A2BF0B0 
 173      AEF5
 174 00fe 80C2D40D 		.ascii	"\200\302\324\015\370\241\0278\263\213\310d,\320\216"
 174      F8A11738 
 174      B38BC864 
 174      2CD08E
 175 010d 644D22C4 		.ascii	"dM\"\3041N\200x\267\337\0377\2541\345E\205i\"#\320\021"
 175      314E8078 
 175      B7DF1F37 
 175      AC31E545 
 175      85692223 
 176 0123 AAC3E02E 		.ascii	"\252\303\340.\310\230\341\323\324\031\267\333Yy\263"
 176      C898E1D3 
 176      D419B7DB 
 176      5979B3
 177 0132 7C3E51DF 		.ascii	"|>Q\337\214\324\233m{;\234\0000\254\322\324\362\321"
 177      8CD49B6D 
 177      7B3B9C00 
 177      30ACD2D4 
 177      F2D1
 178 0144 31FC66A2 		.ascii	"1\374f\242\202X\023\305\231?)v\342\242\026\023=3\015"
 178      825813C5 
 178      993F2976 
 178      E2A21613 
 178      3D330D
 179 0157 70D5E5E6 		.ascii	"p\325\345\346\342X\026\237FSp\243\326\367\211H\260\323"
 179      E258169F 
 179      465370A3 
 179      D6F78948 
 179      B0D3
 180 0169 2B38D58F 		.ascii	"+8\325\217\335z\351\032d\334\351\370\177\210\240\242"
 180      DD7AE91A 
 180      64DCE9F8 
 180      7F88A0A2 
ARM GAS  /tmp/ccnnv6ua.s 			page 14


 181 0179 666ADF4F 		.ascii	"fj\337O\364q\335<\240\303\355\325a'pS$\370\032\016*"
 181      F471DD3C 
 181      A0C3EDD5 
 181      61277053 
 181      24F81A0E 
 182 018e 1E08A9CF 		.ascii	"\036\010\251\317\030\373\250\346\276;\351(\232\371\031"
 182      18FBA8E6 
 182      BE3BE928 
 182      9AF919
 183 019d E917BA16 		.ascii	"\351\027\272\026\215\034\312p\237;\"\272V\253\371Q\364"
 183      8D1CCA70 
 183      9F3B22BA 
 183      56ABF951 
 183      F4
 184 01ae B93EDEEB 		.ascii	"\271>\336\353\272\363\273\353|\222\346\263\035\270\035"
 184      BAF3BBEB 
 184      7C92E6B3 
 184      1DB81D
 185 01bd DC515D6D 		.ascii	"\334Q]mIiW&\317\303\361\331\336\243\000\037\240\036"
 185      49695726 
 185      CFC3F1D9 
 185      DEA3001F 
 185      A01E
 186 01cf DC3D95B4 		.ascii	"\334=\225\264\001\346a#?h\276{\306+\224\213yO\226s\263"
 186      01E66123 
 186      3F68BE7B 
 186      C62B948B 
 186      794F9673 
 187 01e4 5E2E7FDD 		.ascii	"^.\177\335\223\0055\251\312U\257V\231)]\363(\251\324"
 187      930535A9 
 187      CA55AF56 
 187      99295DF3 
 187      28A9D4
 188 01f7 BC6A45D2 		.ascii	"\274jE\322yU\026r\247%X\345\332\364\331\177\000\251"
 188      79551672 
 188      A72558E5 
 188      DAF4D97F 
 188      00A9
 189 0209 929C9AC9 		.ascii	"\222\234\232\311\345\273\300\002\210\332\364/\220\221"
 189      E5BBC002 
 189      88DAF42F 
 189      9091
 190 0217 FB5F     		.ascii	"\373_"
 191              		.text
 192              		.section	.gnu.lto_chSchGoSleepTimeoutS.58322ff69e4d23d5,"",%progbits
 193 0000 789CA552 		.ascii	"x\234\245R\317k\023Q\020\236yo7\233\337\211?rV<Zu\225"
 193      CF6B1351 
 193      109E796F 
 193      379BDF89 
 193      3F72563C 
 194 0017 56E845FC 		.ascii	"V\350E\374'Z\260\336\322MI\036\022#I,h\017}+)\346fN"
 194      275AB0DE 
 194      D24D491E 
 194      1223492C 
 194      680F7D2B 
 195 002f 8A564C4B 		.ascii	"\212VLK=\211\340\301\213xZ=\011\242\242'\351)\220\203"
 195      3D89E0C1 
ARM GAS  /tmp/ccnnv6ua.s 			page 15


 195      8B785A3D 
 195      09A2A227 
 195      E9299083 
 196 0043 60BDF4E0 		.ascii	"`\275\364\340E*\353\314\276\335P-\342\301\007\373f\336"
 196      452AEBCC 
 196      BEDD502D 
 196      E2C107FB 
 196      66DE
 197 0055 BE99EFFB 		.ascii	"\276\231\357\373f\336\010\020\360\347\232\247\357\262"
 197      66DE0810 
 197      F0E79AA7 
 197      EFB2
 198 0063 04384F16 		.ascii	"\0048O\026\323\200b\360\036\300O\013!\207\263\240\263"
 198      D38062F0 
 198      1EC04F0B 
 198      2187B3A0 
 198      B3
 199 0074 A9DD0AE8 		.ascii	"\251\335\012\350\274\024\326\372\005:\331\337\313t\262"
 199      BC14D6FA 
 199      053AD9DF 
 199      CB74B2
 200 0083 D0364136 		.ascii	"\3206A6:\306I%\216\203\310\016 \254\012i\331)\007W\027"
 200      3AC64925 
 200      8E83C80E 
 200      20AC0A69 
 200      D9290757 
 201 0098 9069F004 		.ascii	"\220i\360\004l\352`0Z\033\177\025\276\016z\033z/\014"
 201      6CEA6030 
 201      5A1B7F15 
 201      BE0E7A1B 
 201      7A2F0C
 202 00ab 111592A4 		.ascii	"\021\025\222\244i\004\017\341\022\035p\303Xq\364w\221"
 202      69040FE1 
 202      121D70C3 
 202      5871F477 
 202      91
 203 00bc CF44300A 		.ascii	"\317D0\012\303\275\341\317\361#\254\224$6\021lP(\035"
 203      C3BDE1CF 
 203      F123AC94 
 203      2436116C 
 203      50281D
 204 00cf F230439E 		.ascii	"\3620C\236U\340c\2216\233\302m\350i=8\016\014Kk\216"
 204      55E06391 
 204      369BC26D 
 204      E8693D38 
 204      0E0C4B6B 
 205 00e4 7656358F 		.ascii	"vV5\217\202\255|\003\275o\257\356\335\225U\334\242\360"
 205      82AD7C03 
 205      BD6FAFEE 
 205      DD9555DC 
 205      A2F0
 206 00f6 3A4AA64C 		.ascii	":J\246L\205\264J\373\033\203\022\206\263\362\035\334"
 206      85B44AFB 
 206      1B831286 
 206      B3F21DDC 
 207 0106 DAFE3CDE 		.ascii	"\332\376<\336\266b\314*nR)\000&\227V\035\355)8I\344"
 207      B662CC2A 
ARM GAS  /tmp/ccnnv6ua.s 			page 16


 207      6E522900 
 207      2697561D 
 207      ED293849 
 208 011b D1EEACC3 		.ascii	"\321\356\254\303\003_\353\262\302\364\012\374\320}\366"
 208      035FEBB2 
 208      C2F40AFC 
 208      D07DF6
 209 012a 324DE4B6 		.ascii	"2M\344\2663I&B^D\210m\354\300\007\270\035\034\253\342"
 209      33492642 
 209      5E44886D 
 209      ECC007B8 
 209      1D1CABE2 
 210 013e E3087292 		.ascii	"\343\010r\222\230\365\342\200\025\270\2510g\250\343"
 210      98F5E280 
 210      15B8A930 
 210      67A8E3
 211 014d 2852CD71 		.ascii	"(R\315qi*\335C1\371i+\3143\\ot\347m\366\000`\301\243"
 211      692ADD43 
 211      31F9692B 
 211      CC335C6F 
 211      74E76DF6 
 212 0165 9A8C6847 		.ascii	"\232\214hGa\021\200\212{\2716~z\332D\3261C\362If\211"
 212      6111808A 
 212      7BB9367E 
 212      7ADA44D6 
 212      3143F249 
 213 017b 33A22A72 		.ascii	"3\242*rI\275\221\374\\>\241\007\340&\372\347&\211|\275"
 213      49BD91FC 
 213      5C3EA107 
 213      E026FAE7 
 213      26897CBD 
 214 018f BF7BD43E 		.ascii	"\277{\324>\013\372\247$K\271\277sPJ\331\243\373\277"
 214      0BFAA724 
 214      4BB9BF73 
 214      504AD9A3 
 214      FBBF
 215 01a1 D4A6F050 		.ascii	"\324\246\360P\202a\233'x\275\023\227h\342f\340\271\356"
 215      82619B27 
 215      78BD1397 
 215      68E266E0 
 215      B9EE
 216 01b3 F3EC4CB8 		.ascii	"\363\354L\270R\260[\211\270\036r\331[\377(\333\3448"
 216      52B05B89 
 216      B81E72D9 
 216      5BFF28DB 
 216      E438
 217 01c5 D130F0FB 		.ascii	"\3210\360\373\276\370\362\011\223a(\374\377k2\344\265"
 217      BEF8F209 
 217      936128FC 
 217      FF6B32E4 
 217      B5
 218 01d6 04AF3805 		.ascii	"\004\2578\005O\250\227zA\361\240D\356E\205\207M\243"
 218      4FA8977A 
 218      41F1A044 
 218      EE458587 
 218      4DA3
 219 01e8 8F101F23 		.ascii	"\217\020\037#\311\030A\304V\306H\037\301\017&c\032\013"
ARM GAS  /tmp/ccnnv6ua.s 			page 17


 219      C91841C4 
 219      56C6481F 
 219      C10F2663 
 219      1A0B
 220 01fa 9F231E12 		.ascii	"\237#\036\022\316\241g\335F\253\271\344z\255\332\015"
 220      CEA167DD 
 220      46ABB9E4 
 220      7AADDA0D 
 221 020a B7B6B4EC 		.ascii	"\267\266\264\354z\015\265\250Z\035\267\333\276~\365"
 221      7A0DB5A8 
 221      5A1DB7DB 
 221      BE7EF5
 222 0219 8A4B4EBB 		.ascii	"\212KN\273\353v\332\036\375\357x\215\332\031\017\304"
 222      EB76DA1E 
 222      FDEF788D 
 222      DA190FC4 
 223 0229 72F71777 		.ascii	"r\367\027w_\330f"
 223      5FD866
 224              		.text
 225              		.section	.gnu.lto_chSchWakeupS.58322ff69e4d23d5,"",%progbits
 226 0000 789CA555 		.ascii	"x\234\245UKO\023Q\024>\347\316tf\332\201R(uM\330h \261"
 226      4B4F1351 
 226      143EE7CE 
 226      7466DA81 
 226      5228754D 
 227 0018 1A638C71 		.ascii	"\032c\214q\305\177\200DW\012\003)\023\203\030\036&\206"
 227      C57F8044 
 227      570A0329 
 227      1383181E 
 227      2686
 228 002a 0503A949 		.ascii	"\005\003\251I\027&\242+_\013\021\335\250\361\265\252"
 228      1726A22B 
 228      5F0B11DD 
 228      A8F1B5AA 
 229 003a BBBA6891 		.ascii	"\273\272h\221\020\021X\001+b\242\211q\241B\214<\214"
 229      10115801 
 229      2B62A289 
 229      71A1428C 
 229      3C8C
 230 004c F5DC7B67 		.ascii	"\365\334{g\206\351+`\274\011\367^\316\314\367\235\357"
 230      86E92B60 
 230      BC09F75E 
 230      CECCF79D 
 230      EF
 231 005d 9CFBDD0E 		.ascii	"\234\373\335\016\003\006\345c\222\376\006\014\200\223"
 231      0306E563 
 231      92FE060C 
 231      8093
 232 006b B4621D20 		.ascii	"\264b\035 \233Z\000\2300\030S2\207\301\211h|\256SP\225"
 232      9B5A0098 
 232      30185332 
 232      87C18968 
 232      7CAE5350 
 233 0080 619545AE 		.ascii	"a\225E\256\317\002\305Ci\235\342\021\031\357\010aX>"
 233      CF02C543 
 233      699DE211 
 233      19EF0861 
ARM GAS  /tmp/ccnnv6ua.s 			page 18


 233      583E
 234 0092 D750971B 		.ascii	"\327P\227\033\235\231\362EC\274h\312x\207\341\275\030"
 234      9D99F245 
 234      43BC68CA 
 234      7887E1BD 
 234      18
 235 00a3 46E41B40 		.ascii	"F\344\033@\030g\212\032\011i\272I\261\361s\3105\261"
 235      18678A1A 
 235      0969BA49 
 235      B1F173C8 
 235      35B1
 236 00b5 5698769C 		.ascii	"V\230v\234[\353\237\276~\301;N.\375\300\371],\"\332"
 236      5BEB9FBE 
 236      7EC13B4E 
 236      2EFDC0F9 
 236      5D2C22DA 
 237 00c9 48FA4F20 		.ascii	"H\372O X\010g\351\037l\021\013SK\013\222X\347\265\343"
 237      580867E9 
 237      1F6C110B 
 237      534B0B92 
 237      58E7B5E3 
 238 00dd 84054E21 		.ascii	"\204\005N!X7>D\266\017\356\005\313\255\027\213\367\337"
 238      58373E44 
 238      B60FEE05 
 238      CBAD178B 
 238      F7DF
 239 00ef FCFCB88B 		.ascii	"\374\374\270\213\211\026\005\007\020T\232P\003\033\025"
 239      89160507 
 239      10549A50 
 239      031B15
 240 00fe 9D2630F8 		.ascii	"\235&0\370.Jd\323\330\012\015\356\032\343\301F\376\270"
 240      2E4A64D3 
 240      D80A0DEE 
 240      1AE3C146 
 240      FEB8
 241 0110 89223314 		.ascii	"\211\"3\024\211\273k3\177\222\340Oh\204 \3558S-\300"
 241      89BB6B33 
 241      7F92E04F 
 241      688420ED 
 241      38532DC0 
 242 0124 45D0E8A4 		.ascii	"E\320\350\2449\023\205.R\225\211*\357ar~ks\215u\343"
 242      3913852E 
 242      5295892A 
 242      EF61727E 
 242      6B738D75 
 243 0139 230C413B 		.ascii	"#\014A;<qh\234\262Qu\267\3656\206\356\301]\022\255\245"
 243      3C71689C 
 243      B25175B7 
 243      F53686EE 
 243      C15D12AD 
 244 014e 50E1E2A5 		.ascii	"P\341\342\245\344\036\177\225\233\024RMD\266\226\375"
 244      E41E7F95 
 244      9B14524D 
 244      44B696FD 
 245 015e B58C922C 		.ascii	"\265\214\222,\205Z;\264\331\250W\307{~\340\240E\323"
 245      855A3BB4 
 245      D9A857C7 
ARM GAS  /tmp/ccnnv6ua.s 			page 19


 245      7B7EE0A0 
 245      45D3
 246 0170 83E80202 		.ascii	"\203\350\002\002b6\0108\34181\033\303c\260\343d\370"
 246      62360838 
 246      E138311B 
 246      C363B0E3 
 246      64F8
 247 0182 2E322080 		.ascii	".2 \200\234(\342\022)\356\252\006\010\277G=B\243L\203"
 247      9C28E212 
 247      29EEAA06 
 247      08BF473D 
 247      42A34C83 
 248 0196 5E4DC33B 		.ascii	"^M\303;H\177\236\250\367e\023j\357p\272(AZ\347\215\312"
 248      487F9EA8 
 248      F765136A 
 248      EF70BA28 
 248      415AE78D 
 249 01ab 6E7DDB46 		.ascii	"n}\333F\267\233\362\004\274\346:\273\317\217\000H\274"
 249      B79BF204 
 249      BCE63ABB 
 249      CF8F0048 
 249      BC
 250 01bc 253B22FB 		.ascii	"%;\"\373\227+.0\033M\277\220\362&\2048\352\025_x\324"
 250      972B2E30 
 250      1B4DBF90 
 250      F2268438 
 250      EA155F78 
 251 01d1 DCCBA902 		.ascii	"\334\313\251\002y\224'][\331xK\015})\2245\270\247r\232"
 251      7994275D 
 251      5BD9784B 
 251      0D7D2994 
 251      35B8A772 
 252 01e6 18829CD1 		.ascii	"\030\202\234\321 \247\346s\312^lm\374\360\011b~7|lC"
 252      20A7E673 
 252      CA5E6C6D 
 252      FCF00962 
 252      7E377C6C 
 253 01fb 59437CAC 		.ascii	"YC|\254h\212\356!\351\315\230'o\025\242\362@r7o\034"
 253      688AEE21 
 253      E9CD9827 
 253      6F15A2F2 
 253      4072376F 
 254 0210 B2B1CE55 		.ascii	"\262\261\316U5fc\275\273=O\247G'%\016\307%\354A\335"
 254      356663BD 
 254      BB3D4FA7 
 254      4727250E 
 254      C725EC41 
 255 0225 DFBB8BD2 		.ascii	"\337\273\213\322O\351#\317\266/pWF\200n-v\361\006\213"
 255      4FE923CF 
 255      B62F7057 
 255      46806E2D 
 255      76F1068B 
 256 0239 6ECF6537 		.ascii	"n\317e7=\335.\251YV\265R\275j\342\224\205\257l.1O~\243"
 256      3DDD2EA9 
 256      5956B552 
 256      BD6AE294 
 256      85AF6C2E 
ARM GAS  /tmp/ccnnv6ua.s 			page 20


 257 0251 F455CDC2 		.ascii	"\364U\315\302\215\322\246\315-\352\007Om\004R7\0128"
 257      8DD2A6CD 
 257      2DEA074F 
 257      6D045237 
 257      0A38
 258 0263 5DA955B5 		.ascii	"]\251U\265\204`\364`\311S\274a\"\277Y\002?S\006o\254"
 258      8460F460 
 258      C953BC61 
 258      22BF5902 
 258      3F53066F 
 259 0278 55BAE219 		.ascii	"U\272\342\031H\253j\332\231\240i\037'\003?\016\322\274"
 259      48AB6ADA 
 259      99A0691F 
 259      27033F0E 
 259      D2BC
 260 028a 00FBFA57 		.ascii	"\000\373\372W\257\360o\241\212\177\3652\377\346\305"
 260      AFF06FA1 
 260      8A7FF532 
 260      FFE6C5
 261 0299 29C46BF8 		.ascii	")\304k\370\267\251\242\234B\271\177%As\245\177\343\025"
 261      B7A9A29C 
 261      42B97F25 
 261      4173A57F 
 261      E315
 262 02ab FE2D94FA 		.ascii	"\376-\224\372W\"\015\002\357\371\267\351\237\374[\010"
 262      57220D02 
 262      EFF9B7E9 
 262      9FFC5B08 
 263 02bb F8B710A8 		.ascii	"\370\267\020\250Y#\377\306M\327\277\246\353_\243\324"
 263      5923FFC6 
 263      4DD7BFA6 
 263      EB5FA3D4 
 264 02cb BFF9DA26 		.ascii	"\277\371\332&\322\253WM\234A\377J\371\211J\377\306+"
 264      D2AB574D 
 264      9C41FF4A 
 264      F9894AFF 
 264      C62B
 265 02dd 2C5428F5 		.ascii	",T(\365\357AS\033\201\324\211\240\177\363\265\375[#"
 265      EF41531B 
 265      81D489A0 
 265      7FF3B5FD 
 265      5B23
 266 02ef 798A37C9 		.ascii	"y\2127\311\363o\276\266\177\023\265J\227\360\371\225"
 266      F36FBEB6 
 266      7F13B54A 
 266      97F0F995 
 267 02ff 9DB66E9C 		.ascii	"\235\266n\234\025\370\377\373\034x\027*{\373\3172\363"
 267      15F8FFFB 
 267      1C78172A 
 267      7BFBCF32 
 267      F3
 268 0310 2885A4E3 		.ascii	"(\205\244\343\322\327U\276L\242\211\322\320<\366\001"
 268      D2D755BE 
 268      4CA289D2 
 268      D03CF601 
 269 0320 AEAD6F3F 		.ascii	"\256\255o?E\011\006\360sG-\367\373Ap\022n\363\237\035"
 269      450906F0 
ARM GAS  /tmp/ccnnv6ua.s 			page 21


 269      73472DF7 
 269      FB417012 
 269      6EF39F1D 
 270 0334 69FE30FF 		.ascii	"i\3760\377\262.\301\304\372n\273\177\255\304\350\244"
 270      B22EC1C4 
 270      FA6EBB7F 
 270      ADC4E8A4 
 271 0344 BB958972 		.ascii	"\273\225\211r\324\261d\377\340@_\322\032\354\275\232"
 271      D4B164FF 
 271      E0405FD2 
 271      1AECBD9A 
 272 0354 ECEDBB92 		.ascii	"\354\355\273\222\264\372\355\036{p8924z\351b\2226C#"
 272      B4FAED1E 
 272      7B703839 
 272      32347AE9 
 272      62923643 
 273 0369 C9E1218B 		.ascii	"\311\341!\213\342\303V\177\357Q\013\230u\371/\007\225"
 273      E2C3567F 
 273      EF510B98 
 273      75F92F07 
 273      95
 274 037a 02BC     		.ascii	"\002\274"
 275              		.text
 276              		.section	.gnu.lto_chSchIsPreemptionRequired.58322ff69e4d23d5,"",%progbits
 277 0000 789C9550 		.ascii	"x\234\225P;K\003A\020\236\231\275\273D\260\260\022\354"
 277      3B4B0341 
 277      109E99BD 
 277      BB44B0B0 
 277      12EC
 278 0012 424A45D7 		.ascii	"BJE\327\007\210\177C\210\240X%\227`\016\211\011I\024"
 278      07887F43 
 278      88A05825 
 278      97600E89 
 278      094914
 279 0025 C4221B93 		.ascii	"\304\"\033\223\"e\260\363Q\030\304\306\"v\212]@,\243"
 279      2265B0F3 
 279      5118C4C6 
 279      22768A5D 
 279      402CA3
 280 0038 5829B109 		.ascii	"X)\261\011V\226V\026\"\234\263w\227\020% \016\334\274"
 280      56965616 
 280      229CB377 
 280      97102520 
 280      0EDCBC
 281 004b 6EBE6FBE 		.ascii	"n\276o\276Y\002\202\3376\301\3374\267\2278\242\000\244"
 281      590282DF 
 281      36C1DF34 
 281      B79738A2 
 281      00A4
 282 005d FA3D4039 		.ascii	"\372=@9L\210:\001\204\022ai\015\365(E\241\241\324A\367"
 282      4C883A01 
 282      84126169 
 282      0DF52845 
 282      A1A1D441 
 283 0072 AEF98287 		.ascii	"\256\371\202\207\252U=U_\256\213\350 \323. \330\010"
 283      AA553D55 
 283      5FAE8BE8 
ARM GAS  /tmp/ccnnv6ua.s 			page 22


 283      20D32E20 
 283      D808
 284 0084 AB5C60C4 		.ascii	"\253\\`\304\013d\374\334\343c[\037\235\321z\271\246"
 284      0B64FCDC 
 284      E3635B1F 
 284      9DD17AB9 
 284      A6
 285 0095 5CB7E4C1 		.ascii	"\\\267\344\301\026\377\202]R\253\353\272'O7\257\017"
 285      16FF825D 
 285      52ABEBBA 
 285      274F37AF 
 285      0F
 286 00a6 381E2270 		.ascii	"8\036\"pP\010\210c\003\243`\350\302\344\342\214\013"
 286      50088863 
 286      03A360E8 
 286      C2E4E28C 
 286      0B
 287 00b7 8B0B0D35 		.ascii	"\213\013\0155\241\252T=\342O\370\277@\257`\213\261\327"
 287      A1AA543D 
 287      E24FF8BF 
 287      40AF608B 
 287      B1D7
 288 00c9 37AD20E9 		.ascii	"7\255 \351(\332\260\337yn\336R\034\317\321\204\015\244"
 288      28DAB0DF 
 288      796EDE52 
 288      1CCFD184 
 288      0DA4
 289 00db 29986446 		.ascii	")\230dF\317\233\236\267\216\341\250\254\324\230\203"
 289      CF9B9EB7 
 289      8EE1A8AC 
 289      D49883
 290 00ea A13DF854 		.ascii	"\241=\370T5\235\2053\036\231\326\032\366\024&\020\202"
 290      359D8533 
 290      1E99D61A 
 290      F6142610 
 290      82
 291 00fb 8841EC3D 		.ascii	"\210A\354=\262^\360n\365\350\231\370B\261-\363\341\314"
 291      B25EF06E 
 291      F5E899F8 
 291      42B12DF3 
 291      E1CC
 292 010d CBF811DE 		.ascii	"\313\370\021\336\251yD\200\023\003\270\267\246\350\001"
 292      A9794480 
 292      1303B8B7 
 292      A6E801
 293 011c 8D015DFF 		.ascii	"\215\001]\377Td\014Ub\006J\326\007\225\030\303\225T"
 293      54640C55 
 293      62064AD6 
 293      079518C3 
 293      9554
 294 012e DA95EBAB 		.ascii	"\332\225\353\253\276\024\213\317`<\300#`\277\347\217"
 294      BE148BCF 
 294      603CC023 
 294      60BFE78F 
 295 013e C6F87C7E 		.ascii	"\306\370|~U}\373\254Lg3)ig\223\2732\231\332\221v\332"
 295      557DFBAC 
 295      4C673329 
ARM GAS  /tmp/ccnnv6ua.s 			page 23


 295      696793BB 
 295      3299DA91 
 296 0154 4938D982 		.ascii	"I8\331\202,\346\267\2676%'\371\242,\344m\356\027\354"
 296      2CE6B7B7 
 296      362527F9 
 296      A22CE46D 
 296      EE17EC
 297 0167 7472C606 		.ascii	"tr\306\006\312\315Qn\376\033\234O\211K"
 297      CACD516E 
 297      FE1B9C4F 
 297      894B
 298              		.text
 299              		.section	.gnu.lto_chSchDoRescheduleBehind.58322ff69e4d23d5,"",%progbits
 300 0000 789C9D54 		.ascii	"x\234\235TOH\024Q\030\377\27673\373\337-\010\354\020"
 300      4F481451 
 300      18FFBE37 
 300      33FBDF2D 
 300      08EC10
 301 0013 94784C6A 		.ascii	"\224xLj\012#\010\275t\354\256P\247ZgewH]\3235\010\011"
 301      0A2308BD 
 301      74ECAE50 
 301      A75A6765 
 301      77485DD3 
 302 002a 676B85C0 		.ascii	"gk\205\300\205\264\223\345%\021\211\312\250n\202R\253"
 302      85B493E5 
 302      251189CA 
 302      A86E8252 
 302      AB
 303 003b 14299125 		.ascii	"\024)\221%]4\210\266 \"<Tz\321\020\266\357\27573\373"
 303      5D3488B6 
 303      20223C54 
 303      7AD110B6 
 303      EFBD3733 
 304 0050 4F69F1C1 		.ascii	"Oi\361\301\316\367\336\233\375\375~\337\337a\300\240"
 304      CEF7DE9B 
 304      FDFD7EDF 
 304      DF61C0A0 
 305 0060 7C35D36F 		.ascii	"|5\323o\334\003p\205,z\000\331\360\022@\312\307P\221"
 305      DC037085 
 305      2C7A00D9 
 305      F01240CA 
 305      C75091
 306 0073 1B856999 		.ascii	"\033\205i\2317\000V@M{\301\012i\362\376\254\212\310"
 306      37005640 
 306      4D7BC10A 
 306      69F2FEAC 
 306      8AC8
 307 0085 2D200C30 		.ascii	"- \0140ESq\340\002r6\245\036\306-\353Nnpf\015\357Z\331"
 307      455371E0 
 307      027236A5 
 307      1EC62DEB 
 307      4E6E7066 
 308 009d F47D6B3B 		.ascii	"\364}k;\237G4\221\224\033\021\014\204\363t\300:a\230"
 308      9F473491 
 308      941B110C 
 308      84F374C0 
 308      3A6198
ARM GAS  /tmp/ccnnv6ua.s 			page 24


 309 00b0 5AEA8A8D 		.ascii	"Z\352\212\215\375\362\360\325W\034\271i-X\351,\201\217"
 309      FDF2F0D5 
 309      571CB969 
 309      2D58E92C 
 309      818F
 310 00c2 08704795 		.ascii	"\010pG\225\340\357k?+\204\023\377\303>e\331\\>?\373"
 310      E0EF6B3F 
 310      2B8413FF 
 310      C33E65D9 
 310      5C3E3FFB 
 311 00d6 F9F9B70C 		.ascii	"\371\371\267\014\036\254e\020\301q\254\007\037\331\011"
 311      1EAC6510 
 311      C171AC07 
 311      1FD909
 312 00e5 B27E2096 		.ascii	"\262~ \226\000\035&\351\020\264m\210.\225\032\376\010"
 312      001D26E9 
 312      10B46D88 
 312      2E951AFE 
 312      08
 313 00f6 F3D7B434 		.ascii	"\363\327\2644H[\326p\235\304\002W\244\325BO\312[+22"
 313      485BD670 
 313      9DC40257 
 313      A4D5424F 
 313      CA5B2B32 
 314 010b CA3BB8F1 		.ascii	"\312;\270\361ie\246)\202\017P\203\030\262\006xd\321"
 314      6965A629 
 314      820F5083 
 314      18B20678 
 314      64D1
 315 011d 6A248206 		.ascii	"j$\202\0068j\242:\006\367R\226\265\337D\255\037\376"
 315      386AA23A 
 315      06F75296 
 315      B5DF44AD 
 315      1FFE
 316 012f 5AB7F8CE 		.ascii	"Z\267\370\316\323)\210\270\333\036\341l\033\202m\355"
 316      D32988B8 
 316      DB1EE16C 
 316      1B826DED 
 317 013f 0D70DAED 		.ascii	"\015p\332\355\261\327\243\315\256\013\023\302\005y\314"
 317      B1D7A3CD 
 317      AE0B13C2 
 317      0579CC
 318 014e 0E6D9F06 		.ascii	"\016m\237\006\220\232\206\304\304\320'\245e\256\031"
 318      909A86C4 
 318      C4D027A5 
 318      65AE19
 319 015d E9BBCADE 		.ascii	"\351\273\312\336\235\224}\266\"\343DO\210\310V\035\235"
 319      9D947DB6 
 319      22E3444F 
 319      88C8561D 
 319      9D
 320 016e C81C8BE0 		.ascii	"\310\034\213\340\224\210\306/B(\020\371I\205c\035o\225"
 320      9488C62F 
 320      422810F9 
 320      4985631D 
 320      6F95
 321 0180 52ECE2B3 		.ascii	"R\354\342\263\200D\332I8\271\007'HTp\275\375}\240\204"
ARM GAS  /tmp/ccnnv6ua.s 			page 25


 321      8044DA49 
 321      38B90727 
 321      485470BD 
 321      FD7DA084 
 322 0194 EB7A991F 		.ascii	"\353z\231\037\376b?T\027.Er\203/\016\231<!\344\275W"
 322      FE623F54 
 322      172E4572 
 322      832F0E99 
 322      3C21E4BD 
 323 01a9 9681340B 		.ascii	"\226\2014\013Y\026\016\333\371\223\256\237\223\007\031"
 323      59160EDB 
 323      F993AE9F 
 323      930719
 324 01b8 EFDE0B17 		.ascii	"\357\336\013\027\343\021\021\335\364\312\313\217\314"
 324      E31111DD 
 324      F4CACB8F 
 324      CC
 325 01c5 A1747211 		.ascii	"\241tr\021 F\254L\242d\3427\001\224\316Lo\376\332B\267"
 325      2046AC4C 
 325      A264E237 
 325      0194CE4C 
 325      6FFEDA42 
 326 01da F0934585 		.ascii	"\360\223E\205\267\036\317\036.\024^L\276\344\317\346"
 326      B71ECF1E 
 326      2E145E4C 
 326      BEE4CFE6 
 327 01ea 97985470 		.ascii	"\227\230Tp3\304\312D\"8\317\303\025B\316\224\264R\011"
 327      33C4CA44 
 327      2238CFC3 
 327      1542CE94 
 327      B45209
 328 01fd 69E66517 		.ascii	"i\346e\027\257\317a\004\347D\341\203\266\327g\312\262"
 328      AFCF6104 
 328      E744E183 
 328      B6D767CA 
 328      B2
 329 020e 1EA8A8FE 		.ascii	"\036\250\250\376|\241s6\327\377\270\004!\221\303`16"
 329      7CA17336 
 329      D7FFB804 
 329      2191C360 
 329      3136
 330 0220 588CF596 		.ascii	"X\214\365\226a\207\3679\310\232J$\333\015\271\000\351"
 330      6187F739 
 330      C89A4A24 
 330      DB0DB900 
 330      E9
 331 0231 1F29AFAB 		.ascii	"\037)\257\253I`'\260U\010\310\252eGn\327\232\316lX\375"
 331      496027B0 
 331      5508C8AA 
 331      65476ED7 
 331      9ACE6C58 
 332 0246 A21FC4F6 		.ascii	"\242\037\304\366bQS\330\204\2421\354\275mX\234\034\327"
 332      625153D8 
 332      84A231EC 
 332      BD6D589C 
 332      1CD7
 333 0258 A6B62EF1 		.ascii	"\246\266.\361\271\327\200>\233\330J\355&\007\177qz\303"
ARM GAS  /tmp/ccnnv6ua.s 			page 26


 333      B9D7803E 
 333      9BD84AED 
 333      26077F71 
 333      7AC3
 334 026a 89D8260D 		.ascii	"\211\330&\015\226\345\213\355\234/\342\224a\257l,3\307"
 334      96E58BED 
 334      9C2FE294 
 334      61AF6C2C 
 334      33C7
 335 027c FD70E5B0 		.ascii	"\375p\345\260\005+\232\274\220\262\305\017\336\352\245"
 335      052B9ABC 
 335      90B2C50F 
 335      DEEAA5
 336 028b D522E9B0 		.ascii	"\325\"\351\260\234\257\315\215U\265\204\240\257:\361"
 336      9CAFCD8D 
 336      55B584A0 
 336      AF3AF1
 337 029a 186F3BA1 		.ascii	"\030o;\241\037,\2017\225\301\303\273\205N\360\3670\230"
 337      1F2C8137 
 337      95C1C3BB 
 337      854EF0F7 
 337      3098
 338 02ac 1B4A38F3 		.ascii	"\033J8\363\347\216W\310\340\177\224c\024\343\2370*\347"
 338      E78E57C8 
 338      E07F9463 
 338      14E39F30 
 338      2AE7
 339 02be 32A47219 		.ascii	"2\244r\031\335\035U\261Zh\332\322^\336\375'\364x\242"
 339      DD1D55B1 
 339      5A68DAD2 
 339      5EDEFD27 
 339      F478A2
 340 02d1 B35D3712 		.ascii	"\263]7\022\321kz\264\375\252n\304\31563\321\253'{\372"
 340      D16B7AB4 
 340      FDAA6EC4 
 340      CD3633D1 
 340      AB277BFA 
 341 02e5 BA2EEBB4 		.ascii	"\272.\353\264\351I\352\275=\006\335\367\032\361\350"
 341      E949EABD 
 341      3D06DDF7 
 341      1AF1E8
 342 02f4 71039444 		.ascii	"q\003\224D\262\373T\025 \263\313\350\350\213\266;\300"
 342      B2FB5415 
 342      20B3CBE8 
 342      E88BB63B 
 342      C0
 343 0305 38B06437 		.ascii	"8\260d73\272\377\001^4\257\011"
 343      33BAFF01 
 343      5E34AF09 
 344              		.text
 345              		.section	.gnu.lto_chSchDoRescheduleAhead.58322ff69e4d23d5,"",%progbits
 346 0000 789C9D54 		.ascii	"x\234\235T]H\024Q\024>\347\316\314\316\272\256\224F"
 346      5D481451 
 346      143EE7CE 
 346      CCCEBAAE 
 346      9446
 347 0012 BDF490F8 		.ascii	"\275\364\220\370\230\324\024\006\022\031\321c\357\012"
ARM GAS  /tmp/ccnnv6ua.s 			page 27


 347      98D41406 
 347      1219D163 
 347      EF0A
 348 0020 F514EBAC 		.ascii	"\365\024\353\254\354\016\245k\272\026!\341\335Z!\310"
 348      EC0EA56B 
 348      BA1621E1 
 348      DD5A21C8 
 349 0030 07EB692B 		.ascii	"\007\353i+\220D$\212\376\036}\212\005\215\224H\211\240"
 349      9044248A 
 349      FE1E7D8A 
 349      058D9448 
 349      89A0
 350 0042 EC87D808 		.ascii	"\354\207\330\010|PHQ\"\311\205\355\334{g\306\335mC\361"
 350      7C504851 
 350      22C985ED 
 350      DC7B67C6 
 350      DD6D43F1 
 351 0056 C2CCB9F7 		.ascii	"\302\314\271\3672\337\317=\367\234a\300\240|\264\320"
 351      32DFCF3D 
 351      F79C61C0 
 351      A07CB4D0 
 352 0066 D31400B8 		.ascii	"\323\024\000\270D\021\003\200lx\026 \025d\250\251\211"
 352      44110380 
 352      6C781620 
 352      1564A8A9 
 352      89
 353 0077 C68CA1D7 		.ascii	"\306\214\241\327\000<\244\247M\340aC\355\237\326\021"
 353      003CA4A7 
 353      4DE06143 
 353      ED9FD611 
 354 0087 45048401 		.ascii	"E\004\204\001\246\031:\016\234C\301\2465\300(\347wr"
 354      A6193A0E 
 354      9C43C1A6 
 354      35C028E7 
 354      7772
 355 0099 838B4B78 		.ascii	"\203\213Kx\227g\323\017x\276P@t\220\224\233\020l\204"
 355      9767D30F 
 355      78BE5040 
 355      7490949B 
 355      106C84
 356 00ac B3B4C07A 		.ascii	"\263\264\300z\031\230^jEa\371\307\3504Og\013\205S\022"
 356      19985E6A 
 356      4561F9C7 
 356      E8344F67 
 356      0B855312 
 357 00c0 D5BC3D54 		.ascii	"\325\274=T\356\327\243\251\357x\373\006WX< \301\211"
 357      EED7A3A9 
 357      EF78FB06 
 357      57583C20 
 357      C189
 358 00d2 ADC0CF59 		.ascii	"\255\300\317Y6W(<{\371m<\217y\266\027!\202c\330\000"
 358      3657283C 
 358      7BF96D3C 
 358      8F79B617 
 358      218263D8 
 359 00e7 1AC5518A 		.ascii	"\032\305Q\212Aw]\005\016j!\361\012\323\013ji{\234\266"
 359      41775D05 
ARM GAS  /tmp/ccnnv6ua.s 			page 28


 359      0E6A21F1 
 359      0AD30B6A 
 359      697B9CB6 
 360 00fb EBC48286 		.ascii	"\353\304\202\206\001i\316\207\353\025F!@\010\323h\245"
 360      0169CE87 
 360      EB154621 
 360      4008D368 
 360      A5
 361 010c 3725AE0D 		.ascii	"7%\256\015\031\005\355-\\\377<\277x\"\202\017\321\200"
 361      1905ED2D 
 361      5CFF3CBF 
 361      7822820F 
 361      D180
 362 011e 186A8DF0 		.ascii	"\030j\215\360\230\323h\"\232F8\350\240~\037\356\245"
 362      98D36822 
 362      9A4638E8 
 362      A07E1FEE 
 362      A5
 363 012f 38DFEDA0 		.ascii	"8\337\355\240\321\017\177\370M1\013tJ\"\341> =\267#"
 363      D10F7FF8 
 363      4D310B74 
 363      4A22E13E 
 363      203DB723 
 364 0143 B8D19D80 		.ascii	"\270\321\235\200\240\375:\362*\323\342\033\031\227\026"
 364      A0FD3AF2 
 364      2AD3E21B 
 364      199716
 365 0152 D4327BEB 		.ascii	"\3242{\353C3\200\322\264\025&\206\265JZ\245\215\221"
 365      433380D2 
 365      B4152686 
 365      B54A5AA5 
 365      8D91
 366 0164 BEAF6C56 		.ascii	"\276\257lVR\016\272\212L\020=%\"W536t(\202O\344i\352"
 366      520EBA8A 
 366      4C103D25 
 366      22573533 
 366      36742882 
 367 017c E4113689 		.ascii	"\344\0216\211\252HE`=\267Z)v\346EH!\335$\034\335\201"
 367      AA484560 
 367      3DB75A29 
 367      76E64548 
 367      21DD241C 
 368 0192 0912955C 		.ascii	"\011\022\225\\oV\366\224p]+\363QW\354C\367\341J$7\270"
 368      6F56F694 
 368      705D2BF3 
 368      5157EC43 
 368      F7E14A24 
 369 01a8 B49FC8A5 		.ascii	"\264\237\310\245{S]\003infY\032v\363\247\254\237Q\013"
 369      7B535D03 
 369      696E6659 
 369      1A76F3A7 
 369      AC9F510B 
 370 01bc 75DE9D5F 		.ascii	"u\336\235_\034\345G\322M\314\377|\317<J/\027!b\304\177"
 370      1CE547D2 
 370      4DCCFF7C 
 370      CF3C4A2F 
 370      172162C4 
ARM GAS  /tmp/ccnnv6ua.s 			page 29


 371 01d1 93A898C4 		.ascii	"\223\250\230\304N\010\225\231\211\314\362d)\272\246"
 371      4E089599 
 371      89CCF264 
 371      29BAA6
 372 01e0 18ADFD07 		.ascii	"\030\255\375\007\355u@\033\335\013u\262,\315\365\345"
 372      ED75401B 
 372      DD0B75B2 
 372      2CCDF5E5 
 373 01f0 49F46A33 		.ascii	"I\364j3\350\222\035W\251TdXv\237~\365eV\327|d\225\314"
 373      E8921D57 
 373      A9546458 
 373      769F7EF5 
 373      6556D77C 
 374 0207 48B50F0A 		.ascii	"H\265\017\012\026\203\314\"\320\360.\017\022*\203h\225"
 374      1683CC22 
 374      D0F02E0F 
 374      122A8368 
 374      95
 375 0218 20D330B5 		.ascii	" \3230\265\2202}\225\330\346\031>\001\252\254g7F\366"
 375      90327D95 
 375      D8E6193E 
 375      01AAAC67 
 375      3746F6
 376 022b 39BEF57E 		.ascii	"9\276\365~y\237rz\276\362\245\322`qrh\344\177GD\257"
 376      799F727A 
 376      BEF2A5D2 
 376      60717268 
 376      E47F4744 
 377 0240 1A40FF3A 		.ascii	"\032@\377:l\243\022Q\315:3\277\272\201\345\271\205\312"
 377      6CA31251 
 377      CD3A33BF 
 377      BA81E5B9 
 377      85CA
 378 0252 3635F74E 		.ascii	"65\367N\203\352p\353\253_\230\3475\354wF\205\214x\177"
 378      83EA70EB 
 378      AB5F98E7 
 378      35EC7746 
 378      858C787F 
 379 0266 2421B762 		.ascii	"$!\267bnSLw\305\302\012\227Y\373\241\227 \257l!\027"
 379      6E534C77 
 379      C5C20A97 
 379      59FBA197 
 379      20AF6C21 
 380 027b 1376A562 		.ascii	"\023v\245bu\011\356d1.\\\351x\024\347`07\233\360\032"
 380      7509EE64 
 380      312E5CE9 
 380      7814E760 
 380      30379BF0 
 381 0290 C2AFF7B0 		.ascii	"\302\257\367\260\215\314\253k\372\316\301\032\200w\220"
 381      8DCCAB6B 
 381      FACEC11A 
 381      807790
 382 029f CACD597E 		.ascii	"\312\315Y~\357\310\321J\345\2376\305\247G\254x\242\263"
 382      EFC8D14A 
 382      E59F36C5 
 382      A747AC78 
 382      A2B3
ARM GAS  /tmp/ccnnv6ua.s 			page 30


 383 02b1 C3B213D1 		.ascii	"\303\262\023\321\253V\264\343\262e\307\235v'\321k%{"
 383      AB56B4E3 
 383      B265C79D 
 383      7627D16B 
 383      257B
 384 02c3 FABA2E58 		.ascii	"\372\272.X4\351IZ\275=6\355\367\332\361\350a\033\264"
 384      34E9495A 
 384      BD3D36ED 
 384      F7DAF1E8 
 384      611BB4
 385 02d6 44B29BD9 		.ascii	"D\262\233\331\335\307\266\201s\272\354\213}\321\016"
 385      DDC7B681 
 385      73BAEC8B 
 385      7DD10E
 386 02e5 0F1B0796 		.ascii	"\017\033\007\226\354\376\013\324\035\207\364"
 386      ECFE0BD4 
 386      1D87F4
 387              		.text
 388              		.section	.gnu.lto_chSchRescheduleS.58322ff69e4d23d5,"",%progbits
 389 0000 789C9D52 		.ascii	"x\234\235R\317K\033A\024\376\336\354\354n,\245x\322"
 389      CF4B1B41 
 389      14FEDEEC 
 389      EC6E2CA5 
 389      78D2
 390 0012 9BB4D74A 		.ascii	"\233\264\327J;\245\315\237\222\200zKfCv\251\032H\264"
 390      3BA5CD9F 
 390      92807A4B 
 390      664376A9 
 390      1A48B4
 391 0025 507A70E2 		.ascii	"Pzp\342\017\020\274\344\030#\010\266Ph)\325S\017\236"
 391      0F10BCE4 
 391      182308B6 
 391      506829D5 
 391      530F9E
 392 0038 3C88F450 		.ascii	"<\210\364P\177],\344\224\036*x\350?P\012\366\315lwK"
 392      7F5D2CE4 
 392      941E2A78 
 392      E83F500A 
 392      F6CD6C77 
 393 004d 958238B0 		.ascii	"\225\2028\260o\276\367\366}\337|\363C@\340\352x\312"
 393      6FBEF7F6 
 393      7DDF7CF3 
 393      4340E0EA 
 393      78CA
 394 005f DF032ED7 		.ascii	"\337\003.\327y&\037$:G@\273 \204\267;\006sG\236)\230"
 394      79261F24 
 394      3A4740BB 
 394      2084B73B 
 394      0673479E 
 395 0075 BB1EC9B4 		.ascii	"\273\036\311\264,\211,\000aAx\222\026&\311\211l\213"
 395      2C892C00 
 395      61417892 
 395      1626C989 
 395      6C8B
 396 0087 BDC1E5E5 		.ascii	"\275\301\345\345\307n\177\363\003]\210\202DB\3609P`"
 396      C76E7FF3 
 396      035D8882 
ARM GAS  /tmp/ccnnv6ua.s 			page 31


 396      4442F039 
 396      5060
 397 0099 51681177 		.ascii	"Qh\021w\371X6\246s\037\320\216U\342h\305\312$\354\354"
 397      F95836A6 
 397      731FD08E 
 397      55E268C5 
 397      CA24ECEC 
 398 00ad 1D62B1FF 		.ascii	"\035b\261\377\253\367\275[\314\373R\260\267\366\345"
 398      ABF7BD5B 
 398      CCFB52B0 
 398      B7F6E5
 399 00bc 53085468 		.ascii	"S\010Th\213\375i\247\204:\311q\2747\306\014\276\276"
 399      8BFD69A7 
 399      843AC971 
 399      BC37C60C 
 399      BEBE
 400 00ce 3BD822E2 		.ascii	";\330\"\342U\306\3610!\341\242\267\201^\333\230\341"
 400      55C6F130 
 400      21E1A2B7 
 400      815EDB98 
 400      E1
 401 00df 84E42BFC 		.ascii	"\204\344+\3744\253\026\3713\2168\301\255\276\363\\\265"
 401      34AB16F9 
 401      338E38C1 
 401      ADBEF35C 
 401      B5
 402 00f0 7985DED8 		.ascii	"y\205\336\330\264jUs,r\014\260\251\251\012\275\346\244"
 402      B46A5573 
 402      2C720CB0 
 402      A9A90ABD 
 402      E6A4
 403 0102 4EBE130F 		.ascii	"N\276\023\017r\361\220]X=\374\321\363\376\345\365wF"
 403      72F1905D 
 403      583DFCD1 
 403      F3FEE5F5 
 403      7746
 404 0114 3266E098 		.ascii	"2f\340\230\270\2559yE\370d4\023\016\257[\012\376g\351"
 404      B8AD3979 
 404      45F86434 
 404      130EAF5B 
 404      0AFE67E9 
 405 0128 33F6CFBF 		.ascii	"3\366\317\277\255\274}\226\036$o\207\351\177\337A\231"
 405      ADBC7D96 
 405      1E246F87 
 405      E97FDF41 
 405      99
 406 0139 7B77C7BC 		.ascii	"{w\307\274c,\015\326\177\334K{\200\334aAS\372v\022\032"
 406      632C0DD6 
 406      7FDC4B7B 
 406      80DC6141 
 406      53FA7612 
 407 014e CA08D25D 		.ascii	"\312\010\322]\333)\332\203\336\243\214\220\216\022\237"
 407      DB29DA83 
 407      DEA38C90 
 407      8E129F
 408 015d 27FFB38C 		.ascii	"'\377\263\214'*n\314\324\224nD/UT{\241t\234T\223FK\315"
 408      272A6ECC 
ARM GAS  /tmp/ccnnv6ua.s 			page 32


 408      D4946E44 
 408      2F55547B 
 408      A1749C54 
 409 0175 35E7679F 		.ascii	"5\347g\237+\006\3159\325jj\256\267t\034=\326(\336\200"
 409      2B06CD39 
 409      D56A6AAE 
 409      B7741C3D 
 409      D628DE80 
 410 0189 90CCEAE9 		.ascii	"\220\314\352\351\371\250\226\221b\374\006\357\265\240"
 410      F9A89691 
 410      62FC06EF 
 410      B5A0
 411 0197 45       		.ascii	"E"
 412              		.text
 413              		.section	.gnu.lto_chSchDoReschedule.58322ff69e4d23d5,"",%progbits
 414 0000 789C6362 		.ascii	"x\234cb`b@\007\222@\\\007\304F@\314\310\314\300\310"
 414      60624007 
 414      92405C07 
 414      C44640CC 
 414      C8CCC0C8 
 415 0014 34E11C03 		.ascii	"4\341\034\003C#\007\023##\210\301\300\310P\317\304X"
 415      43230713 
 415      232388C1 
 415      C0C850CF 
 415      C458
 416 0026 1FC90856 		.ascii	"\037\311\010V\273\236\351\300\203\377\377\327]\233?"
 416      BB9EE9C0 
 416      83FFFFD7 
 416      5D9B3F
 417 0035 FF0F6387 		.ascii	"\377\017c\20723P\204\225\241\245\241a\202\002\003C2"
 417      32335084 
 417      95A1A5A1 
 417      61820203 
 417      4332
 418 0047 58450890 		.ascii	"XE\010\220\004i\013ed\002\321\314\347\031\232\037\364"
 418      04690B65 
 418      6402D1CC 
 418      E7199A1F 
 418      F4
 419 0058 6E7CC298 		.ascii	"n|\302\230\310\270\220\221\025(_\315\360\253\241\243"
 419      C8B89091 
 419      15285FCD 
 419      F0ABA1A3 
 420 0068 41209311 		.ascii	"A \223\021\250\036bd&\210\276\310\320\370\240\177#\013"
 420      A81E6264 
 420      2688BEC8 
 420      D0F8A07F 
 420      230B
 421 007a 4C150484 		.ascii	"L\025\004\204\000e\200f\200\\l\240\237\221\237\233\252"
 421      00658066 
 421      805C6CA0 
 421      9F919F9B 
 421      AA
 422 008b 9F9C9F52 		.ascii	"\237\234\237R\251\237\222Z\246\237\234\221\231\224\231"
 422      A99F925A 
 422      A69F9C91 
 422      999499
ARM GAS  /tmp/ccnnv6ua.s 			page 33


 423 009a 5FAC5F52 		.ascii	"_\254_RT\232\227\255\017d\024\225\350\027\027%\003\305"
 423      549A97AD 
 423      0F641495 
 423      E8171725 
 423      03C5
 424 00ac 8B933352 		.ascii	"\213\2233R\364\222\031\000b\0005\252"
 424      F4921900 
 424      620035AA 
 425              		.text
 426              		.section	.gnu.lto_.symbol_nodes.58322ff69e4d23d5,"",%progbits
 427 0000 789C4DCA 		.ascii	"x\234M\312=\016\001Q\030\205\341s\356\235\213a\330\202"
 427      3D0E0151 
 427      1885E173 
 427      EE9D8B61 
 427      D882
 428 0012 D2066CC8 		.ascii	"\322\006l\310J\316\204DP\210\005\210\202\025(\254@\241"
 428      4ACE8444 
 428      50880588 
 428      821528AC 
 428      40A1
 429 0024 B302858C 		.ascii	"\263\002\205\214\377\277\240Q\211\020\204\3735o\236"
 429      FFBFA051 
 429      891084FB 
 429      356F9E
 430 0033 93CFC0A0 		.ascii	"\223\317\300\240D|\316\254)\2403\005\244n\263\342\022"
 430      447CCEAC 
 430      29A03305 
 430      A46EB3E2 
 430      12
 431 0044 C2096641 		.ascii	"\302\011fA\361\273\366\0324K\312x\\Q\326\343\206\012"
 431      F1BBF61A 
 431      344BCA78 
 431      5C51D6E3 
 431      860A
 432 0056 3C6E29E7 		.ascii	"<n)\347qO\245<\036\250\264\307#\225\361\270\243B\217"
 432      714FA53C 
 432      1EA8B4C7 
 432      2395F1B8 
 432      A3428F
 433 0069 272AFB27 		.ascii	"'*\373'\317T\356\3038&\257T\364\327\205\312\377d\203"
 433      CF54EEC3 
 433      3826AF54 
 433      F4D785CA 
 433      FF6483
 434 007c 08B5FAB1 		.ascii	"\010\265\372\261h]\001\343\373\214\326\005H\336\315"
 434      685D01E3 
 434      FB8CD605 
 434      48DECD
 435 008b 633C9CBC 		.ascii	"c<\234\274]\255\317\002\233\2120h\337\3226\363j\353"
 435      5DADCF02 
 435      9B8A3068 
 435      DFD236F3 
 435      6AEB
 436 009d F51F7E9B 		.ascii	"\365\037~\233\015\321\037\225m.Du\376 \236\205S\\O"
 436      0DD11F95 
 436      6D2E4475 
 436      FE209E85 
ARM GAS  /tmp/ccnnv6ua.s 			page 34


 436      535C4F
 437              		.text
 438              		.section	.gnu.lto_.refs.58322ff69e4d23d5,"",%progbits
 439 0000 789C4D8A 		.ascii	"x\234M\212\211\015\000 \014\002\001\265>k\272\377\016"
 439      890D0020 
 439      0C0201B5 
 439      3E6BBAFF 
 439      0E
 440 0011 D6276A43 		.ascii	"\326'jC\323\002'\010\035{\010\261\212t\255\275_\020"
 440      D3022708 
 440      1D7B08B1 
 440      8A74ADBD 
 440      5F10
 441 0023 53F4FA24 		.ascii	"S\364\372$!\201r<\232\337\315\344\331Zy\214h\365wj\323"
 441      2181723C 
 441      9ADFCDE4 
 441      D95A798C 
 441      68F5776A 
 442 0038 61004C3F 		.ascii	"a\000L?\001\023"
 442      0113
 443              		.text
 444              		.section	.gnu.lto_.decls.58322ff69e4d23d5,"",%progbits
 445 0000 789CBD5B 		.ascii	"x\234\275[ip\024\307\275\237\236Y\255\264\222\000\371"
 445      697014C7 
 445      BD9F9E59 
 445      ADB49200 
 445      F9
 446 0011 C2D89557 		.ascii	"\302\330\225W\226]9\034\374\022q\305\340\017\261q\234"
 446      965D391C 
 446      FC1271C5 
 446      E00FB171 
 446      9C
 447 0022 2AE37A15 		.ascii	"*\343z\025\307e\222\367\362!U\233aw@\373\254=<;\342"
 447      C76592F7 
 447      F221559B 
 447      617740FB 
 447      AC3D3C3B 
 448 0037 F8907874 		.ascii	"\370\220xt\341+`!\001\02672\340\003\033\314i,\014x\015"
 448      E12B6021 
 448      01163732 
 448      E0031BCC 
 448      692C0C78 
 449 004c 08645406 		.ascii	"\010dT\006E\010q\330\001\371\220\261\235\230\200\271"
 449      450871D8 
 449      01F990B1 
 449      9D9880B9 
 450 005c 2D82DEBF 		.ascii	"-\202\336\277{zv{zgV3\212_\266\3243=3\335\277\377\357"
 450      7B7A767B 
 450      7A675633 
 450      8A5FB6D4 
 450      333D33DD 
 451 0073 7F744F1F 		.ascii	"\177tO\037#Q\020\205cy\202\320\017\277\007\177.\010"
 451      23511085 
 451      637982D0 
 451      0FBF077F 
 451      2E08
 452 0085 C17C4128 		.ascii	"\301|A(\026\004\341~H\022\244fH\257C\202\333\3447\024"
ARM GAS  /tmp/ccnnv6ua.s 			page 35


 452      1604E17E 
 452      4812A466 
 452      48AF4382 
 452      DBE43714 
 453 0099 D27A489B 		.ascii	"\322zH\233!m\203\024C\202P\011\251\012\322\363\220\032"
 453      216D8314 
 453      43825009 
 453      A90AD2F3 
 453      901A
 454 00ab 202D80D4 		.ascii	" -\200\324\004i\011\244\345\220VAz\007\022\374\011\273"
 454      046909A4 
 454      E5905641 
 454      7A0712FC 
 454      09BB
 455 00bd 9160F961 		.ascii	"\221`\371a\254[!\265Pl,\033\027y\000\222\237\312\025"
 455      AC5B21B5 
 455      506C2C1B 
 455      17790092 
 455      9FCA15
 456 00d0 45416883 		.ascii	"EAh\203\263O4\370l\247\374~\004\005\375p/\000\251\020"
 456      B34F34F8 
 456      6CA7FC7E 
 456      0405FD70 
 456      2F00A910 
 457 00e4 D2104823 		.ascii	"\322\020H#\341^+\306\202\374$\310\037\200\024\200\353"
 457      E15E2BC6 
 457      82FC24C8 
 457      1F801480 
 457      EB
 458 00f5 DBE1FC43 		.ascii	"\333\341\374CH\367B\332\015\327)H?\206\374^8\277\017"
 458      48F742DA 
 458      0DD72948 
 458      3F86FC5E 
 458      38BF0F
 459 0108 E70E64E8 		.ascii	"\347\016d\350\213\371\014\023\015\335\260\354\015\220"
 459      8BF90C13 
 459      0DDDB0EC 
 459      0D90
 460 0116 6E82EB9B 		.ascii	"n\202\353\233!\335\002i8\244[\305l=\260=\012\250\036"
 460      21DD0269 
 460      38A45BC5 
 460      6C3DB03D 
 460      0AA81E
 461 0129 58EE08D1 		.ascii	"X\356\010\321\340p\200\362\331\003\347\333D\003\363"
 461      E07080F2 
 461      D903E7DB 
 461      4403F3
 462 0138 D72823F3 		.ascii	"\327(#\363QH\235\220\216A\352\206$R\254\333E{{a^\205"
 462      51489D90 
 462      8E41EA86 
 462      2452ACDB 
 462      457B7B61 
 463 014e 9CBDF285 		.ascii	"\234\275\362\205\214]x\335\375Tw\254/\253\353njg\214"
 463      8C5D78DD 
 463      FD5477AC 
 463      2FABEB6E 
 463      6A678C
ARM GAS  /tmp/ccnnv6ua.s 			page 36


 464 0161 87653E81 		.ascii	"\207e>\201\262ea\337\026s\2620\346\036\252\237)\023"
 464      B26561DF 
 464      1673B230 
 464      E61EAA9F 
 464      2913
 465 0173 CBC232EF 		.ascii	"\313\3022\357\204\264\002\031|\260\234\023\310\220\375"
 465      84B40219 
 465      7CB09C13 
 465      C890FD
 466 0182 28958F65 		.ascii	"(\225\217e\232v\306\330w\211F|`\371\252\215|\034W7\303"
 466      9A76C6D8 
 466      7789467C 
 466      60F9AA8D 
 466      7C1C5737 
 467 0197 F9159491 		.ascii	"\371\025\224\221\217\271\340x\034I\345\260|\356\206"
 467      8FB9E078 
 467      1C49E5B0 
 467      7CEE86
 468 01a6 F432E477 		.ascii	"\3642\344w@\3721\344\343p\336\002i$\344W##^0_\037\303"
 468      40FA31E4 
 468      E370DE02 
 468      6924E457 
 468      23235E30 
 469 01bd 0FC7048E 		.ascii	"\017\307\004\216\203<*\017\307\351z\312o\025\345\372"
 469      833C2A0F 
 469      C7E97ACA 
 469      6F15E5FA 
 470 01cd 2738FFD1 		.ascii	"'8\377\321\206\037\216\371\022\033_\214dd\265\332\330"
 470      861F8EF9 
 470      121B5F8C 
 470      6464B5DA 
 470      D8
 471 01de CCF48F69 		.ascii	"\314\364\217i/\034\237&\217\275\202\325v)!\343/\211"
 471      2F1C9F26 
 471      8FBD82D5 
 471      762921E3 
 471      2F89
 472 01f0 CAC43E5B 		.ascii	"\312\304>[N\271\315\206\36336\334p[,4\343\201\261\335"
 472      4EB9CD86 
 472      F33336DC 
 472      705B2C34 
 472      E381B1DD 
 473 0204 1C94890D 		.ascii	"\034\224\211\015\223\023\346\231'Xc\022\3638A\333\354"
 473      9313E699 
 473      27586312 
 473      F33841DB 
 473      EC
 474 0215 F30E6DB7 		.ascii	"\363\016m\267\201\372\205\327\237\3056cc;\215Q\314\307"
 474      81FA85D7 
 474      9FC53663 
 474      633B8D51 
 474      CCC7
 475 0227 D4BB80D1 		.ascii	"\324\273\200\321\225\217\221\333)\007\037\225s\227\230"
 475      958F91DB 
 475      29071F95 
 475      739798
 476 0236 D1DB8ECB 		.ascii	"\321\333\216\313\202\177\003\027\211\3121\343\326\216"
ARM GAS  /tmp/ccnnv6ua.s 			page 37


 476      827F0317 
 476      89CA31E3 
 476      D68E
 477 0244 4713CAB4 		.ascii	"G\023\312\264O,\237\2675\226\211\345\337\003\371-9\354"
 477      4F2C9FB7 
 477      359689E5 
 477      DF03F92D 
 477      39EC
 478 0256 2E51ACFF 		.ascii	".Q\254\377\024\015\231v\262\226\320\266cb\341\237H\357"
 478      140D9976 
 478      B296D0B6 
 478      6362E19F 
 478      48EF
 479 0268 2FE0CAE2 		.ascii	"/\340\312\342_@xF\327\253\365\2365\372\210&\260\321"
 479      5F407846 
 479      D7ABF59E 
 479      35FA8826 
 479      B0D1
 480 027a EF908C86 		.ascii	"\357\220\214\206\006@s\234)\016\020\021?\020V\353z}"
 480      0640739C 
 480      290E1011 
 480      3F1056EB 
 480      7A7D
 481 028c 4FEBE75F 		.ascii	"O\353\347_H\272^ \243f\024\000\310\377B\302H\3415\035"
 481      48BA5E20 
 481      A3661400 
 481      C8FF42C2 
 481      48E1351D 
 482 02a0 9E40FD7B 		.ascii	"\236@\375{l\220=@_\236\275\356\036\002\275\206@\353"
 482      6C903D40 
 482      5F9EBDEE 
 482      1E02BD86 
 482      40EB
 483 02b2 0809325A 		.ascii	"\010\0112Z\215Fz\006\332\370\334\362\011\004\350U\002"
 483      8D467A06 
 483      DAF8DCF2 
 483      0904E855 
 483      02
 484 02c3 B4930392 		.ascii	"\264\223\003\222\021\012\260\014\311\265Y\000\243\221"
 484      110AB00C 
 484      C9B55900 
 484      A391
 485 02d1 C734D36F 		.ascii	"\3074\323o\325\351;-[$<\2075Z9[\237\3246t\270\260\000"
 485      D5E93B2D 
 485      5B243C87 
 485      355A395B 
 485      9FD43674 
 486 02e8 CC882F74 		.ascii	"\314\210/t\244\311\350\376[L\015KM\015}\024\365\015"
 486      A4C9E8FE 
 486      5B4C0D4B 
 486      4D0D7D14 
 486      F50D
 487 02fa 349CE424 		.ascii	"4\234\344$\342R\270\361@\021\034~+\245\005;U|\035\025"
 487      E252B8F1 
 487      40111C7E 
 487      2BA5053B 
 487      557C1D15 
ARM GAS  /tmp/ccnnv6ua.s 			page 38


 488 030e B186B843 		.ascii	"\261\206\270CX\256\247\316\366\254\230{\260\013\315"
 488      58AEA7CE 
 488      F6AC987B 
 488      B00BCD
 489 031d ABD1DBF4 		.ascii	"\253\321\333\364\263\375\375\303(\276(\\\341\254\366"
 489      B3FDFDC3 
 489      28BE285C 
 489      E1ACF6
 490 032c 7D6195AE 		.ascii	"}a\225\2567\350\027\303\223\210@\0214\300\005\326\243"
 490      37E817C3 
 490      93884011 
 490      34C005D6 
 490      A3
 491 033d 3B6CE591 		.ascii	";l\345\221B\360\373\241\260\006\253\365\216\376\330"
 491      42F0FBA1 
 491      B006ABF5 
 491      8EFED8
 492 034c 08A29440 		.ascii	"\010\242\224@\353X\354\364&\022\331\033\230\330\312"
 492      EB58ECF4 
 492      2612D91B 
 492      98D8CA
 493 035b 9ED482D9 		.ascii	"\236\324\202\331\355\010$^\353\357\227\004\367\326\331"
 493      ED08245E 
 493      EBEF9704 
 493      F7D6D9
 494 036a 42AD93B1 		.ascii	"B\255\223\261\210(T\211V]\322\264\364Wu)Mk3Okk6\255"
 494      88285489 
 494      565DD2B4 
 494      F4577529 
 494      4D6B334F 
 495 0382 9EB3A9BF 		.ascii	"\236\263\251\277\036\234s\233\276\262:\325\337\377\256"
 495      1E9C739B 
 495      BEB23AD5 
 495      DFFFAE
 496 0391 8EACC42C 		.ascii	"\216\254\304,\016\275Q\230\207\237\224\266e\202u\245"
 496      0EBD5198 
 496      879F94B6 
 496      658275A5 
 497 03a1 CF64FB4B 		.ascii	"\317d\373K!\035\255\207\033\3666\243\032\250.\243\355"
 497      211DAD87 
 497      1BF636A3 
 497      1AA82EA3 
 497      ED
 498 03b2 E846607B 		.ascii	"\350F`{\200c; \220(\034&UvBu\243\"\201\326{\372\026"
 498      80633B20 
 498      90281C26 
 498      55764275 
 498      A32281D6 
 499 03c9 9EAC4255 		.ascii	"\236\254BU\004\032?\0238#0\277;\205\225\300<\3257{\031"
 499      041A3F13 
 499      382330BF 
 499      3B8595C0 
 499      3CD5377B 
 500 03de E8B61BCA 		.ascii	"\350\266\033\312\267 \354\343\006\311\304\26537\315"
 500      B720ECE3 
 500      06C9C4B5 
 500      3337CD
ARM GAS  /tmp/ccnnv6ua.s 			page 39


 501 03ed 5A82CE8A 		.ascii	"Z\202\316\212w}_q\275l\202-\362\014Vj\001k\334\277\224"
 501      777D5F71 
 501      BD6C822D 
 501      F20C566A 
 501      016BDCBF 
 502 0402 90A31D81 		.ascii	"\220\243\035\201ae\373h\247\246]s\232vV\255\244#X)\331"
 502      6165FB68 
 502      A7A65D73 
 502      9A7656AD 
 502      A4235829 
 503 0417 F6282E80 		.ascii	"\366(.\200.\317n}\017U\023C\266\021\250W\007\015\265"
 503      2ECF6E7D 
 503      0F551343 
 503      B611A857 
 503      070DB5
 504 042a F1B91DF7 		.ascii	"\361\271\035\367\021N\355\004h\243\304wN\371\\\347\224"
 504      114EED04 
 504      68A3C477 
 504      4EF95CE7 
 504      94
 505 043b 6FED44F2 		.ascii	"o\355D\362\003\231\014\036\232\017\023\376\237\213\213"
 505      03990C1E 
 505      9A0F13FE 
 505      9F8B8B
 506 044a C20E378E 		.ascii	"\302\0167\216+p\212\002\275\347\333\205\275h\221\236"
 506      2B708A02 
 506      BDE7DB85 
 506      BD68919E 
 507 045a AA956824 		.ascii	"\252\225h$\257\364;\331H\024\366\020Y\035|$o[\376u5"
 507      AFF43BD9 
 507      4814F610 
 507      591D7C24 
 507      6F5BFE75 
 508 046f 8DE40E57 		.ascii	"\215\344\016W\221\274\255\375E\022,\0036I\277)?L\344"
 508      91BCADFD 
 508      45122C03 
 508      3649BF29 
 508      3F4CE4
 509 0482 D7F9B0FC 		.ascii	"\327\371\260\374#\274\374\303\237|q\177\223\256\227"
 509      23BCFCC3 
 509      9F7C717F 
 509      93AE97
 510 0491 188F0616 		.ascii	"\030\217\006\026\177\352\320\374l\361\216\375\026\015"
 510      7FEAD0FC 
 510      6CF18EFD 
 510      160D
 511 049f 8D6DCBF7 		.ascii	"\215m\313\367\177C\225<NZ\314!\037\037\034F\247*\260"
 511      7F43953C 
 511      4E5ACC21 
 511      1F1F1C46 
 511      A72AB0
 512 04b2 D74C0198 		.ascii	"\327L\001\230\260\245\351\017\252\301\202\236\251\007"
 512      B0A5E90F 
 512      AAC1829E 
 512      A907
 513 04c0 5EDBA4EB 		.ascii	"^\333\244\353\317\372M\016\037yF,\265X\342\233C\244"
 513      CFFA4D0E 
ARM GAS  /tmp/ccnnv6ua.s 			page 40


 513      1F79462C 
 513      B558E29B 
 513      43A4
 514 04d2 0B30C07A 		.ascii	"\0130\300z\334\2009FRu\352\002\013\366\231g0+\263K,"
 514      DC803946 
 514      5275EA02 
 514      0BF69967 
 514      302BB34B 
 515 04e7 D8176EC0 		.ascii	"\330\027n\300J\234\231]a\301\376\356\031\314\312\354"
 515      4A9C995D 
 515      61C1FEEE 
 515      19CCCAEC 
 516 04f7 5B16ECAC 		.ascii	"[\026\354\254\033\260\021\316\314\256\261`\027<\203"
 516      1BB011CE 
 516      CCAEB160 
 516      173C83
 517 0506 59995D67 		.ascii	"Y\231]g\301\256\270\001+ufV\337\311\200]\363\014fe\326"
 517      C1AEB801 
 517      2B756656 
 517      DFC9805D 
 517      F30C6665 
 518 051b C082E979 		.ascii	"\300\202\351y.\300\356vf6\237\005\253\365\014fe\266"
 518      2EC0EE76 
 518      66369F05 
 518      ABF50C66 
 518      65B6
 519 052d 90057BC6 		.ascii	"\220\005{\306\015\330(gfM,\330\237=\203Y\231-f\301\352"
 519      0DD82867 
 519      664D2CD8 
 519      9F3D8359 
 519      992D66C1 
 520 0542 DD804D70 		.ascii	"\335\200Mpf\266\224\005\233\357\031\314\312l\003\013"
 520      66B69405 
 520      9BEF19CC 
 520      CA6C030B 
 521 0552 D6E4066C 		.ascii	"\326\344\006l\2423\263M,\330\022\317`Vf[X\260\345n\300"
 521      A233B34D 
 521      2CD812CF 
 521      6056665B 
 521      58B0E56E 
 522 0567 2639337B 		.ascii	"&93{\213\005k\366\014fe\3666\013\266\332\015\330c\316"
 522      8B056BF6 
 522      0C6665F6 
 522      360BB6DA 
 522      0DD863CE 
 523 057b CCB6B360 		.ascii	"\314\266\263`\257x\006\2632\333\301\202\255u\003\366"
 523      AF7806B3 
 523      32DBC182 
 523      AD7503F6 
 524 058b 3B6766BB 		.ascii	";gf\273X\260\365\236\301\254\314:X\260Mn\300\376`\303"
 524      58B0F59E 
 524      C1ACCC3A 
 524      58B04D6E 
 524      C0FE60C3 
 525 059f 2CFDB3AB 		.ascii	",\375\263\253\207_\323](\375\336\026\205\255y\346\020"
 525      875FD35D 
 525      28FDDE16 
ARM GAS  /tmp/ccnnv6ua.s 			page 41


 525      85AD79E6 
 525      10
 526 05b0 C7E33B5A 		.ascii	"\307\343;Z\310`\264\344y\035\222Y\364\206\231\301\347"
 526      C860B4E4 
 526      791D9259 
 526      F48699C1 
 526      E7
 527 05c1 CDA81126 		.ascii	"\315\250\021&}\243\314\321\371\273n\020s\274\000\027"
 527      7DA3CCD1 
 527      F9BB6E10 
 527      73BC0017 
 528 05d1 EF6786FA 		.ascii	"\357g\206\372\373=\203q\241\214\301,c\247\364\354?\225"
 528      FB3D8371 
 528      A18CC12C 
 528      63A7F4EC 
 528      3F95
 529 05e3 7BF68F17 		.ascii	"{\366\217\027\"Df\251`\204}Y\031-\024\177\000\307\027"
 529      224466A9 
 529      60847D59 
 529      192D147F 
 529      00C717
 530 05f6 C5409A85 		.ascii	"\305@\232\205\2217s\375d\011\345P\236\335\232\006\001"
 530      913773FD 
 530      6409E550 
 530      9EDD9A06 
 530      01
 531 0607 C85DD529 		.ascii	"\310]\325)\022\346\213L$t\2711S\216W\373\251\375Ko\325"
 531      12E68B4C 
 531      2474B931 
 531      538E57FB 
 531      A9FD4B6F 
 532 061c 7B52C85C 		.ascii	"{R\310\\\215\371\220\307\263\350<\360\333\375\322\376"
 532      8DF990C7 
 532      B3E83CF0 
 532      DBFDD2FE 
 533 062c A20D7F70 		.ascii	"\242\015\177p\277\316\262\306\\\013Z&b\351\237\346\361"
 533      BFCEB2C6 
 533      5C0B5A26 
 533      62E99FE6 
 533      F1
 534 063d A3D5351E 		.ascii	"\243\3255\036\027ZD\341o\2365\270\233\213\353\275\015"
 534      175A44E1 
 534      6F9E35B8 
 534      9B8BEBBD 
 534      0D
 535 064e E87CB5DE 		.ascii	"\350|\265\3364\312\275\032\275\246\032/\0215\316\177"
 535      34CABD1A 
 535      BDA61A2F 
 535      1135CE7F 
 536 065e 076AF479 		.ascii	"\007j\364yVc\024\243\006\236\270_l0\232\347MBC\356)"
 536      566314A3 
 536      069EB85F 
 536      6C309AE7 
 536      4D4243EE 
 537 0673 13E6F38A 		.ascii	"\023\346\363\212x\223e\272\222:~\000\225\032\267\007"
 537      789365BA 
 537      923A7E00 
ARM GAS  /tmp/ccnnv6ua.s 			page 42


 537      951AB707 
 538 0683 9AAAE8A9 		.ascii	"\232\252\350\251\313\007\230i\265\356f\012\333jN\253"
 538      CB079869 
 538      B5EE660A 
 538      DB6A4EAB 
 539 0693 D7128355 		.ascii	"\327\022\203U\373m\346\302\256\200.\357\333\273\221"
 539      FB6DE6C2 
 539      AE802EEF 
 539      DBBB91
 540 06a2 4EABD711 		.ascii	"N\253\327\021\250g\006\015\265\361\3006c\315o\003\001"
 540      A867060D 
 540      B5F1C036 
 540      63CD6F03 
 540      01
 541 06b3 AAF7F34E 		.ascii	"\252\367\363N\364s>\364[}\010\227X\322\025<\351EO\321"
 541      F4733EF4 
 541      5B7D0897 
 541      58D2153C 
 541      E9454FD1 
 542 06c7 3BF8225F 		.ascii	";\370\"_\370\267\327\023\205\305\204>\366\237\307WD"
 542      F8B7D713 
 542      85C5843E 
 542      F69FC757 
 542      44
 543 06d8 3A7E7A1B 		.ascii	":~z\033\314\356\335pR\363\277\204X\235\332\374\274\271"
 543      CCEEDD70 
 543      52F3BF84 
 543      589DDAFC 
 543      BCB9
 544 06ea 324416FF 		.ascii	"2D\026\377\326\376\213p\177i\367\272\226S\367\025\015"
 544      D6FE8B70 
 544      7F69F7BA 
 544      9653F715 
 544      0D
 545 06fb BA16A2CF 		.ascii	"\272\026\242\317\306,\007\267\361\255\324\315\322\306"
 545      C62C07B7 
 545      F1ADD4CD 
 545      D2C6
 546 0709 CEC1EA91 		.ascii	"\316\301\352\221\376\211\302^\277\213^\2744\207\263"
 546      FE89C25E 
 546      BF8B5EBC 
 546      3487B3
 547 0718 BA2F5367 		.ascii	"\272/Sg\015\270>b.\031v\356\253B\265\244\335\274+\342"
 547      0DB83E62 
 547      2E1976EE 
 547      AB42B5A4 
 547      DDBC2BE2 
 548 072c 25C336CE 		.ascii	"%\3036\316\032.\026Z\216\222*\273\305\254%\303\017\314"
 548      1A2E165A 
 548      8E922ABB 
 548      C5AC25C3 
 548      0FCC
 549 073e 2543FCCC 		.ascii	"%C\374\314\305B\213e\311PF\357!\221\342\016\326\242"
 549      C5428B65 
 549      C95046EF 
 549      2191E20E 
 549      D6A2
ARM GAS  /tmp/ccnnv6ua.s 			page 43


 550 0750 16276608 		.ascii	"\026'f\010\312h/ye\267\212w\262\326?\355\331\372\245"
 550      CA682F79 
 550      65B78A77 
 550      B2D63FED 
 550      D9FAA5
 551 0763 ACF5537D 		.ascii	"\254\365S}\355K\021\346o\26364\221\035H\245Wk\017\316"
 551      ED4B11E6 
 551      6FB33634 
 551      911D48A5 
 551      576B0FCE 
 552 0777 A3A66F23 		.ascii	"\243\246o#\246?\347`\372\211N@\242P\225\217\253\264"
 552      A63FE760 
 552      FA894E40 
 552      A250958F 
 552      ABB4
 553 0789 6799BEBB 		.ascii	"g\231\276\273\3134}\273+\323\037\2615}\273w\323S\274"
 553      CB347DBB 
 553      2BD31FB1 
 553      357DBB77 
 553      D353BC
 554 079c EECC6AAD 		.ascii	"\356\314j\255\214\366x\006+\315\345\307v\306\217\037"
 554      8CF67806 
 554      2BCDE5C7 
 554      76C68F1F 
 555 07ac 103F1E04 		.ascii	"\020?\036\004?\312\350\220\325\233\015\371\2347-\246"
 555      3FCAE890 
 555      D59B0DF9 
 555      9C372DA6 
 556 07bc A359C789 		.ascii	"\243Y\307\211\273\236j<\270\224\232\304\350\366\226"
 556      BB9E6A3C 
 556      B8949AC4 
 556      E8F696
 557 07cb F17803CE 		.ascii	"\361x\003\316\220"
 557      90
 558 07d0 AD26597E 		.ascii	"\255&Y~\3200\011\001[\345\031\254\324\002\266s\3562"
 558      D0300901 
 558      5BE519AC 
 558      D402B673 
 558      EE32
 559 07e2 576B923A 		.ascii	"Wk\222:b\207\3100\311!r\217\362\361r\274\257\343i\032"
 559      6287C830 
 559      C921728F 
 559      F2F172BC 
 559      AFE3691A 
 560 07f6 2F475DC4 		.ascii	"/G]\304\013\274\351{\003zC\261\031\270_\244Qs\230:G"
 560      0BBCE97B 
 560      037A43B1 
 560      19B85FA4 
 560      5173983A 
 561 080b B4F47DF9 		.ascii	"\264\364}\371>\"p\306\220\377,\0177\340\214\304\012"
 561      3E2270C6 
 561      90FF2C0F 
 561      37E08CC4 
 561      0A
 562 081c 775D691B 		.ascii	"w]i\033\345\3150F\213L}\330\202\307:=D\247+\371\374"
 562      E5CD3046 
 562      8B4C7DD8 
ARM GAS  /tmp/ccnnv6ua.s 			page 44


 562      82C73A3D 
 562      44A72BF9 
 563 0831 5BC1B00C 		.ascii	"[\301\260\014\023\210G\231@<N\002\361\004\011\304\217"
 563      13884799 
 563      403C4E02 
 563      F10409C4 
 563      8F
 564 0842 C8F1241B 		.ascii	"\310\361$\033\216N\303\255S\354\030^/\360\252w)\347"
 564      8E4EC3AD 
 564      53EC185E 
 564      2FF0AA77 
 564      29E7
 565 0854 1D2731DD 		.ascii	"\035'1\335\254\230\247\013\\\304\236\363\352\014\364"
 565      AC98A70B 
 565      5CC49EF3 
 565      EA0CF4
 566 0863 EB471ACD 		.ascii	"\353G\032\315\021\201\261\0332\3173\2425\232\317\315"
 566      1181B11B 
 566      32CF33A2 
 566      359ACFCD 
 567 0873 B58C0896 		.ascii	"\265\214\010\226\272\201\233hC\320\356\307\356e\301"
 567      BA819B68 
 567      43D0EEC7 
 567      EE65C1
 568 0882 3B0E6137 		.ascii	";\016a7\245\020v\320nr\334K\216\207\310\361\005\342"
 568      A51076D0 
 568      6E72DC4B 
 568      8E87C8F1 
 568      05E2
 569 0894 B879E4D8 		.ascii	"\270y\344\330H\216\213\311q)96\223\343\313\344\270\213"
 569      488E8BC9 
 569      71293936 
 569      93E3CBE4 
 569      B88B
 570 08a6 1CF793E3 		.ascii	"\034\367\223\343_\310\36109\036!\307^r<\355&\000Z\254"
 570      5FC8F130 
 570      391E21C7 
 570      5E723CED 
 570      26005AAC 
 571 08ba 1BA94EC5 		.ascii	"\033\251N\305\336\3467j\215z\314N\255(\254.\260\333"
 571      DEE6376A 
 571      8D7ACC4E 
 571      AD28AC2E 
 571      B0DB
 572 08cc 66ED5931 		.ascii	"f\355Y1\367h#\232_\243O2\233\327\006Rn\233\343nk\013"
 572      F768239A 
 572      5FA34F32 
 572      9BD70652 
 572      6E9BE36E 
 573 08e2 CA6CB756 		.ascii	"\312l\267V\353\333>{l\222y\317\271\026\245\371\225h"
 573      EBDB3E7B 
 573      6C9279CF 
 573      B916A5F9 
 573      9568
 574 08f4 B7CD79FC 		.ascii	"\267\315y\374\205\301\354\276\376C\344Tn&s%\213\312"
 574      85C1ECBE 
 574      FE43E454 
ARM GAS  /tmp/ccnnv6ua.s 			page 45


 574      6E267325 
 574      8BCA
 575 0906 9B6D55D6 		.ascii	"\233mU\326\373~?\302\234\307\276GJ\234\021\323\264\271"
 575      FB7E3FC2 
 575      9CC7BE47 
 575      4A9C11D3 
 575      B4B9
 576 0918 B97BB331 		.ascii	"\271{\2631\324\243\233\270s\364\272\022\224\336\305"
 576      D4A39BB8 
 576      73F4BA12 
 576      94DEC5
 577 0927 C5B52C91 		.ascii	"\305\265,\221t\316V\275\376\303\216\352\3417\207\223"
 577      74CE56BD 
 577      FEC38EEA 
 577      E1378793 
 578 0937 7E97ECF4 		.ascii	"~\227\354\364\243\027\356\307\262\207\033\336\032I\306"
 578      A317EEC7 
 578      B2871BDE 
 578      1A49C6
 579 0946 B257C97B 		.ascii	"\262W\311{\345@\001\337k\015b,+\010\274\235\273\034"
 579      E54001DF 
 579      6B0D622C 
 579      2B08BC9D 
 579      BB1C
 580 0958 42EB607F 		.ascii	"B\353`\177\027\272P\255\2170\235s^\304o\372\213\271"
 580      17BA50AD 
 580      8F309D73 
 580      5EC46FFA 
 580      8BB9
 581 096a AD4D9D74 		.ascii	"\255M\235t^\231d\262\376\222\3003\325\270\210\274*\262"
 581      5E9964B2 
 581      FE92C033 
 581      D5B888BC 
 581      2AB2
 582 097c 4E7A7376 		.ascii	"Nzsv]\211\317\260\255\220\243\032\325\343\232\255\317"
 582      5D89CFB0 
 582      AD90A31A 
 582      D5E39AAD 
 582      CF
 583 098d 1A5F1C4C 		.ascii	"\032_\034LHVK6\2550}a\020\342Mw\306!D\303\351\366\330"
 583      48564B36 
 583      AD307D61 
 583      10E24D77 
 583      C62144C3 
 584 09a4 474A5449 		.ascii	"GJTI9\333#\251V\257o\304F3\306#\375\003T[+:G6\256e\011"
 584      39DB23A9 
 584      56AF6FC4 
 584      4633C623 
 584      FD03545B 
 585 09bf 8A3AC9EE 		.ascii	"\212:\311\356\263\211oN\024\327W\365\364\367\257\200"
 585      B3896F4E 
 585      14D757F5 
 585      F4F7AF80 
 586 09cf 08B358A9 		.ascii	"\010\263X\251@x\232\254\210\324\351U\350\311\201\226"
 586      40789AAC 
 586      88D4E955 
 586      E8C98196 
ARM GAS  /tmp/ccnnv6ua.s 			page 46


 587 09df D0643447 		.ascii	"\320d4G*\000\3025\001\307\0050\\@\240qh\344\315\\\216"
 587      2A00C235 
 587      01C70530 
 587      5C40A071 
 587      68E4CD5C 
 588 09f4 F5AF3F4B 		.ascii	"\365\257?K\331\237g<\033\260\375<\243Z_O>\3170\260e"
 588      D99F673C 
 588      1BB0FD3C 
 588      A35A5F4F 
 588      3ECF30B0 
 589 0a09 F4BC641F 		.ascii	"\364\274d\037\241\024\257>\333\032\0203\335\037\032"
 589      A114AF3E 
 589      DB1A1033 
 589      DD1F1A
 590 0a18 D6B8C3F8 		.ascii	"\326\270\303\3702\004\006q\366\302t\353\267 \015\274"
 590      32040671 
 590      F6C274EB 
 590      B7200DBC 
 591 0a28 AD1B6DD1 		.ascii	"\255\033m\321w\235\344\320\337q\205\276\200G_h\213\336"
 591      779DE4D0 
 591      DF7185BE 
 591      80475F68 
 591      8BDE
 592 0a3a 748243EF 		.ascii	"t\202C\357t\205\336\304\243/\262\215\223\356S\034\372"
 592      7485DEC4 
 592      A32FB28D 
 592      93EE531C 
 592      FA
 593 0a4b A7AED097 		.ascii	"\247\256\320\227\360\350Km\270C\027\367\311\225\337"
 593      F0E84B6D 
 593      B84317F7 
 593      C995DF
 594 0a5a 376DD26B 		.ascii	"7m\322k\237\325\257\367?\205\334\267\326\0259[+}\313"
 594      9FD5AFF7 
 594      3F85DCB7 
 594      D615395B 
 594      2B7DCB
 595 0a6d 71ADF562 		.ascii	"q\255\365b\026q\243\320K\266\314\346o\372\262l\221\276"
 595      1671A3D0 
 595      4BB6CCE6 
 595      6FFAB26C 
 595      91BE
 596 0a7f BB56EFEF 		.ascii	"\273V\357\357\177\312C7\262\332Jl\300\357\012\322CU"
 596      7FCA4337 
 596      B2DA4A6C 
 596      C0EF0AD2 
 596      4355
 597 0a91 FC9D6A7A 		.ascii	"\374\235jz\336~\322\234<\276\"\341\361\352\326\302\201"
 597      DE7ED29C 
 597      3CBE22E1 
 597      F1EAD6C2 
 597      81
 598 0aa2 3FF5B100 		.ascii	"?\365\261\000\211B+\251\262V\312\232<~]C'\003\370\331"
 598      89422BA9 
 598      B256CA9A 
 598      3C7E5D43 
 598      2703F8D9 
ARM GAS  /tmp/ccnnv6ua.s 			page 47


 599 0ab6 C093C796 		.ascii	"\300\223\307\226\027\314\341\333\313\022\356\320\272"
 599      17CCE1DB 
 599      CB12EED0 
 599      BA
 600 0ac3 D3B8839B 		.ascii	"\323\270\203\233<n7v\206\015\260\223\236\301J-`;\017"
 600      3C6E3776 
 600      860DB093 
 600      9EC14A2D 
 600      603B0F
 601 0ad6 99D338E3 		.ascii	"\231\3238\343]\363\271\033\274\034\223\213]\207\370"
 601      5DF3B91B 
 601      BC1C938B 
 601      5D87F8
 602 0ae5 FD04E333 		.ascii	"\375\004\3433\267\234\357\350\217\252\350\332\344\026"
 602      B79CEFE8 
 602      8FAAE8DA 
 602      E416
 603 0af3 A2D33F0A 		.ascii	"\242\323?\012\371\267\364\353\210\373\032\203\373\300"
 603      F9B7F4EB 
 603      88FB1A83 
 603      FBC0
 604 0b01 0EE6239E 		.ascii	"\016\346#\236y[\354\000^\275\260\312\034\265\223Q\266"
 604      795BEC00 
 604      5EBDB0CA 
 604      1CB59351 
 604      B6
 605 0b12 5EE402D0 		.ascii	"^\344\002\320n\227\306\356\307\206\021\330C\302\243"
 605      6E97C6EE 
 605      C78611D8 
 605      43C2A3
 606 0b21 EC75121E 		.ascii	"\354u\022\036\005\277I\216\033\311q39\276-\271\030\027"
 606      05BF498E 
 606      1BC97133 
 606      39BE2DB9 
 606      1817
 607 0b33 63E7A7B1 		.ascii	"c\347\247\261-M\364\351\"\373&\272\335\266\211.\330"
 607      2D4DF4E9 
 607      22FB26BA 
 607      DDB6892E 
 607      D8
 608 0b44 74BC6C30 		.ascii	"t\274l0\235\307\016\276\363\300\204\322\027t@\222\276"
 608      9DC70EBE 
 608      F3C084D2 
 608      17744092 
 608      BE
 609 0b55 DE62B065 		.ascii	"\336b\260e?\243\314&>\337\201\370{V\342w\011\315zO\007"
 609      3FA3CC26 
 609      3EDF81F8 
 609      7B56E277 
 609      09CD7A4F 
 610 0b6a 8CADD6FD 		.ascii	"\214\255\326\375G\225\236\202&\016\203\024d\267\246"
 610      47959E82 
 610      260E8314 
 610      64B7A6
 611 0b79 B4523249 		.ascii	"\264R2I\217\023\230X;c~\002\270\207\364\013+\212\006"
 611      8F139858 
 611      3B637E02 
ARM GAS  /tmp/ccnnv6ua.s 			page 48


 611      B887F40B 
 611      2B8A06
 612 0b8c EE172C40 		.ascii	"\356\027,@\242\360:\251\262/\253_X\330ZG\373\205}.\372"
 612      A2F03AA9 
 612      B22FAB5F 
 612      58D85A47 
 612      FB857D2E 
 613 0ba1 053DB5AC 		.ascii	"\005=\265\254\333q=\254'\335\025}\217\341\336y\344c"
 613      DB713DAC 
 613      27DD157D 
 613      8FE1DE79 
 613      E463
 614 0bb3 CAFD80D1 		.ascii	"\312\375\200\321\247\015\314\335\012$\012\273I\225\017"
 614      A70DCCDD 
 614      0A240ABB 
 614      49950F
 615 0bc2 B2B977D5 		.ascii	"\262\271w\325R\356\037\270\342~\270\323\340n.qt\244"
 615      52EE1FB8 
 615      E27EB8D3 
 615      E06E2E71 
 615      74A4
 616 0bd4 7107B7C4 		.ascii	"q\007\267\304\321e\354\016\033\363\345c<\230\247>HO"
 616      D165EC0E 
 616      1BF3E563 
 616      3C98A73E 
 616      484F
 617 0be6 1D33C03A 		.ascii	"\0353\300:\3107\236\247<\203\225Z\230\235j\260~\250"
 617      C8379EA7 
 617      3C83955A 
 617      989D6AB0 
 617      7EA8
 618 0bf8 D9EB062F 		.ascii	"\331\353\006/\307\356\355\331Nf\367\366k\317`Vr\227"
 618      C7EEEDD9 
 618      4E66F7F6 
 618      6BCF6056 
 618      7297
 619 0c0a 58B08B6E 		.ascii	"X\260\213n\300\354\3668\355~l\220\300\374\237\364X\035"
 619      C0ECF638 
 619      ED7E6C90 
 619      C0FC9FF4 
 619      581D
 620 0c1c A47FEA24 		.ascii	"\244\177\352$\307.r\354&\307c\344x\202\355\267`\374"
 620      C72E72EC 
 620      26C763E4 
 620      7882EDB7 
 620      60FC
 621 0c2e 9D6E25B6 		.ascii	"\235n%\266\2418PH\350\251\255\316\315\303nu\012\232"
 621      A1385048 
 621      E8A9ADCE 
 621      CDC36E75 
 621      0A9A
 622 0c40 766F15AA 		.ascii	"vo\025\252#1|\2224\217\272\342\001\233\007\277\376\267"
 622      23317C92 
 622      348FBAE2 
 622      019B07BF 
 622      FEB7
 623 0c52 8454F938 		.ascii	"\204T\3718\373\225\377O\363\225\377\261\253W\376U\313"
ARM GAS  /tmp/ccnnv6ua.s 			page 49


 623      FB95FF4F 
 623      F395FFB1 
 623      AB57FE55 
 623      CB
 624 0c63 2B5F46EB 		.ascii	"+_F\353%\221\342\016\356\225\177-\363\312\227\321\006"
 624      2591E20E 
 624      EE957F2D 
 624      F3CA97D1 
 624      06
 625 0c74 CF60D6A0 		.ascii	"\317`\326\240\231\327\311\276\362e\264\311\015^\216"
 625      99D7C9BE 
 625      F265B4C9 
 625      0D5E8E
 626 0c83 573EFD82 		.ascii	"W>\375\202\310\030?lJ[\320cs\263\017\302\217\231 \374"
 626      C8183F6C 
 626      4A5BD063 
 626      73B30FC2 
 626      8F9920FC 
 627 0c97 9404E167 		.ascii	"\224\004\341g$\330z\311\361sr<m\015\274]\305\\\340Y"
 627      24D87AC9 
 627      F173723C 
 627      6D0DBC5D 
 627      C55CE059 
 628 0cab 9D6CD70E 		.ascii	"\235l\327\016X\373\350\251\035\335\240\217\373\015\242"
 628      58FBE8A9 
 628      1DDDA08F 
 628      FB0DA2
 629 0cba D3E606D1 		.ascii	"\323\346\006\321\337H\324\265\332G]\256\015\242.R\345"
 629      DF48D4B5 
 629      DA475DAE 
 629      0DA22E52 
 629      E5
 630 0ccb 4C76A7DC 		.ascii	"Lv\247\334kv\312g\006\216\272\332\232\324\326\306\227"
 630      6B76CA67 
 630      068EBADA 
 630      9AD4D6C6 
 630      97
 631 0cdc 33ABDE35 		.ascii	"3\253\3365\351\341\327\202\034\253,\226\217$>K\363\360"
 631      E9E1D782 
 631      1CAB2C96 
 631      8F243E4B 
 631      F3F0
 632 0cee 18A5F6BE 		.ascii	"\030\245\366\276;\303\370\356,\361\3359\253\247\316"
 632      3BC3F8EE 
 632      2CF1DD39 
 632      ABA7CE
 633 0cfd F09EB293 		.ascii	"\360\236\262\223\347\370\271\237\236:\332m\004\262["
 633      E7F8B99F 
 633      9E3ADA6D 
 633      04B25B
 634 0d0c 5F1D397D 		.ascii	"_\0359}n<Y\014\272D<\265f\210GO\221\241\015\347\245"
 634      6E3C590C 
 634      BA443CB5 
 634      6688474F 
 634      91A10DE7 
 635 0d21 D479A5D4 		.ascii	"\324y\245\324\270\353\342\233\377^\262\216\357~\365"
 635      B8EBE29B 
ARM GAS  /tmp/ccnnv6ua.s 			page 50


 635      FF5EB28E 
 635      EF7EF5
 636 0d30 AAF553BA 		.ascii	"\252\365S\272\023{M\302m\353-\216\360 wbw\021\230\253"
 636      137B4DC2 
 636      6DEB2D8E 
 636      F0207762 
 636      771198AB 
 637 0d44 DF959BAF 		.ascii	"\337\225\233\2572n\376\226\270\271\317\352\346\326!"
 637      326EFE96 
 637      B8B9CFEA 
 637      E6D621
 638 0d53 2EDC6CB7 		.ascii	".\334l\2673d/o\037#\257\215\310{\237t\003\177%\307\257"
 638      33642F6F 
 638      1F23AF8D 
 638      C87B9F74 
 638      037F25C7 
 639 0d68 C8F1A295 		.ascii	"\310\361\242\225A[\332p\266C:\262\344\343K\2172o\020"
 639      415BDA70 
 639      B6433AB2 
 639      E4E34B8F 
 639      326F10
 640 0d7b EA491C4C 		.ascii	"\352I\034Ll\032j|eD+\225\230uDZ\247\332w\003\311Y\276"
 640      6C1A6A7C 
 640      65442B95 
 640      9875445A 
 640      A7DA7703 
 641 0d92 9D20259C 		.ascii	"\235 %\234\242\247\306\227\371\222\2518\220\311 \253"
 641      A2A7C697 
 641      F992A938 
 641      90C920AB 
 642 0da2 E8524EF2 		.ascii	"\350RN\362\004\263\\>\305\251\365,\271\316A\262\237"
 642      04B35C3E 
 642      C5A9F52C 
 642      B9CE41B2 
 642      9F
 643 0db3 4AE6A66C 		.ascii	"J\346\246l\333\035v\027\314\357\347\317\034\377\336"
 643      DB1D7617 
 643      CCEFE7CF 
 643      1CFFDE
 644 0dc2 1BE423FD 		.ascii	"\033\344#\375\331><\364\250\031\312Gf\013?c\343V\362"
 644      D93E3CF4 
 644      A819CA47 
 644      660B3F63 
 644      E356F2
 645 0dd5 397918C6 		.ascii	"9y\030\306\211\372\263\2764\224\207/g\314\217\030\236"
 645      89FAB3BE 
 645      3494872F 
 645      67CC8F18 
 645      9E
 646 0de6 F361872D 		.ascii	"\363a\207-\314\"\270N\034\374g*\034y,\302\211\374\234"
 646      CC22B84E 
 646      1CFC672A 
 646      1C792CC2 
 646      89FC9C
 647 0df9 0C79AE56 		.ascii	"\014y\256V\233\303F\026\25657S\213\376\357X_\367\241"
 647      9BC34616 
 647      AE353753 
ARM GAS  /tmp/ccnnv6ua.s 			page 51


 647      8BFEEF58 
 647      5FF7A1
 648 0e0c 11DBF1BF 		.ascii	"\021\333\361\277\013\340\211ZU-2\366<Da)\247\030]?="
 648      0BE0895A 
 648      552D32F6 
 648      3C446129 
 648      A7185D3F 
 649 0e21 A24C324D 		.ascii	"\242L2M\376w\262\350\374\202\317\335~\306E\313~\206"
 649      FE77B2E8 
 649      FC82CFDD 
 649      7EC645CB 
 649      7E86
 650 0e33 532D4AB3 		.ascii	"S-J\263\336g\231\232\225\012+\300\364\365z\235h\377"
 650      DE67999A 
 650      950A2BC0 
 650      F4F57A9D 
 650      68FF
 651 0e45 0F68EE9E 		.ascii	"\017h\356\236\343\035\231q\372\374\202\\eR\327\033\364"
 651      E31D9971 
 651      FAFC825C 
 651      6552D71B 
 651      F4
 652 0e56 C29C28A9 		.ascii	"\302\234(\251\013\316%8G\354q\350\231\310\012\237\243"
 652      0BCE2538 
 652      47EC71E8 
 652      99C80A9F 
 652      A3
 653 0e67 FB0EE4A8 		.ascii	"\373\016\344\250\265(\333}\013\367\037E\015\346\277"
 653      B528DB7D 
 653      0BF71F45 
 653      0DE6BF
 654 0e76 FEAD2C70 		.ascii	"\376\255,p?\323^\342\343f\33286\270\251\363Z\373 8\214"
 654      3FD35EE2 
 654      E366DA38 
 654      36B8A9F3 
 654      5AFB2038 
 655 0e8b 83602E69 		.ascii	"\203`.i\240[I\211\305\216A@\003\216.C~\310\376\017!"
 655      A05B4989 
 655      C58E4140 
 655      038E2E43 
 655      7EC8FE0F 
 656 0ea0 AEC4FC64 		.ascii	"\256\304\374d\264\314\352u\316.xY\321I\227f\336.\251"
 656      B4CCEA75 
 656      CE2E7859 
 656      D1499766 
 656      DE2EA9
 657 0eb3 C64F3A24 		.ascii	"\306O:$\374\017Kx\211\360N\316(8\010\235\220V\271\260"
 657      FC0F4B78 
 657      89F04ECE 
 657      2838089D 
 657      9056B9B0 
 658 0ec7 4A8BBD55 		.ascii	"J\213\275U\372L\253\000W\037n\032/\271\262\012\3374"
 658      FA4CAB00 
 658      571F6E1A 
 658      2FB9B20A 
 658      DF34
 659 0ed9 9C6A5182 		.ascii	"\234jQ\202kr\032iG\016#\275\352\030rx\313\317\251\326"
ARM GAS  /tmp/ccnnv6ua.s 			page 52


 659      6B721A69 
 659      470E23BD 
 659      EA187278 
 659      CBCFA9D6 
 660 0eed 6B8EB556 		.ascii	"k\216\265V\347\220\265\326\261\326\026\2075;\262\370"
 660      E790B5D6 
 660      B1D61687 
 660      353BB2F8 
 661 0efd 96E5C67F 		.ascii	"\226\345\306\177~\322#\232nl.1\366\036D\241\235s\200"
 661      7ED2239A 
 661      6E6C2E31 
 661      F61E44A1 
 661      9D7380
 662 0f10 C36EC31B 		.ascii	"\303n\303\033\276\234\273\015\353\254\226\024&\225\225"
 662      BE9CBB0D 
 662      EBAC9614 
 662      269595
 663 0f1f C7A34A59 		.ascii	"\307\243JY(\036\236U\026V\246\227\205\312#S\"\361d\231"
 663      281E9E55 
 663      1656A697 
 663      85CA2353 
 663      22F16499 
 664 0f33 A656C69E 		.ascii	"\246V\306\236(\203\214\252\225%\342\252\226,{\360\361"
 664      28838CAA 
 664      9525E2AA 
 664      962C7BF0 
 664      F1
 665 0f44 5F3DF4AB 		.ascii	"_=\364\253\231P2\232\210T(j\262\354\341\207\036\202"
 665      9950329A 
 665      8854286A 
 665      B2ECE187 
 665      1E82
 666 0f56 E2DAAC84 		.ascii	"\342\332\254\204\222\374i\271P\240%5YS\202\232\377\341"
 666      92FC69B9 
 666      50A02535 
 666      5953829A 
 666      FFE1
 667 0f68 477F5BFA 		.ascii	"G\177[\372\220\360\375\262\312\244Z&\253\321\237\304"
 667      90F0FDB2 
 667      CAA45A26 
 667      ABD19FC4 
 668 0f78 E231E527 		.ascii	"\3421\345'\212<%R\026\211\205**\303JYR\013Gb\032T\312"
 668      8A3C2552 
 668      1689852A 
 668      2AC34A59 
 668      520B4762 
 669 0f8f AF84F384 		.ascii	"\257\204\363\204\2406.G\341\250\014\234bJY0\254"
 669      A0362E47 
 669      E1A80C9C 
 669      624A5930 
 669      AC
 670 0fa0 4C952B2B 		.ascii	"L\225++\264\240)1\020\014\322\352\243\\(\221TCp?\031"
 670      B4A02931 
 670      100CD2EA 
 670      A35C2891 
 670      5443703F 
 671 0fb5 2A0FFF34 		.ascii	"*\017\3774$\370g\310O(\225\011\224\030\026\204;J\270"
ARM GAS  /tmp/ccnnv6ua.s 			page 53


 671      24F867C8 
 671      4F289509 
 671      94181684 
 671      3B4AB8
 672 0fc8 12140A46 		.ascii	"\022\024\012Fb\021m\202\013$\223\030\240\315Jf\324/"
 672      62116D82 
 672      0B249318 
 672      A0CD4A66 
 672      D42F
 673 0fda 5715391C 		.ascii	"W\0259\034\324\002\241\362\240\221\037\347\015\0133"
 673      D402A1F2 
 673      A0911FE7 
 673      0D0B33
 674 0fe9 2B17FC89 		.ascii	"+\027\374\211`L\231\251\301)\241*\323\363\265\204\032"
 674      604C99A9 
 674      C129A12A 
 674      D3F3B584 
 674      1A
 675 0ffa 8907B502 		.ascii	"\211\007\265\002\254\350"
 675      ACE8
 676 1000 D83141AD 		.ascii	"\3301A\255\320\320\031gI\221H<?\024\217iP\343>\317\216"
 676      D0D01967 
 676      4991483C 
 676      3F148F69 
 676      50E33ECF 
 677 1015 2C0FC555 		.ascii	",\017\305U\005D\026\341\333\240\275\026\322f\376|p("
 677      054416E1 
 677      DBA0BD16 
 677      D266FE7C 
 677      7028
 678 1027 C1E9E3A3 		.ascii	"\301\351\343\243\330\010\2522\015\234\030\324\244\344"
 678      D808AA32 
 678      0D9C18D4 
 678      A4E4
 679 1035 E87B218D 		.ascii	"\350{!\215\2074\001\322}Rr\314(H\243!\215\2014\026\322"
 679      873401D2 
 679      7D5272CC 
 679      2848A321 
 679      8D813416 
 680 104a 38483F83 		.ascii	"8H?\203\004\345\306@\2711Pn\014\224\033\013\345\306"
 680      04E5C640 
 680      B931506E 
 680      0C941B0B 
 680      E5C6
 681 105c 8E16D571 		.ascii	"\216\026\325q\242\3723Q\275WT\307\213\352\004Q\275O"
 681      A2FA3351 
 681      BD5754C7 
 681      8BEA0451 
 681      BD4F
 682 106e 52478F82 		.ascii	"RG\217\2024Z\254P\34146/\021\004\266\371\330X3\024\025"
 682      345AAC50 
 682      E134362F 
 682      1104B6F9 
 682      D8583314 
 683 1083 CEF18AB0 		.ascii	"\316\361\212\260\242\372B\345\262\212-(G\025\270G\002"
 683      A2FA42E5 
 683      B28A2D28 
ARM GAS  /tmp/ccnnv6ua.s 			page 54


 683      4715B847 
 683      02
 684 1094 325F8BC6 		.ascii	"2_\213\306\303\020\226p=\265B\236\226\314\327Tej\222"
 684      C3109670 
 684      3DB5429E 
 684      96CCD754 
 684      656A92
 685 10a7 980F67F2 		.ascii	"\230\017g\362\242\311i\360\220\332\024B\312\264\256"
 685      A2C969F0 
 685      90DA1442 
 685      CAB4AE
 686 10b6 1A9E058F 		.ascii	"\032\236\005\217\012\224\231\021\015\254\241\370gh\361"
 686      0A949911 
 686      0DACA1F8 
 686      6768F1
 687 10c5 29FF9B28 		.ascii	")\377\233(R\246+1-*'\237\200\"\312\014\234\221\022\301"
 687      52A62B31 
 687      2D2A279F 
 687      8022CA0C 
 687      9C9112C1 
 688 10d9 CAA186C7 		.ascii	"\312\241\206\307\223\301\212H\022\002tX:\006\214;\201"
 688      93C18A48 
 688      12027458 
 688      3A068C3B 
 688      81
 689 10ea 4470861C 		.ascii	"Dp\206\034\321\"\261i\303\314\333OV*\225\300\252\204"
 689      D122B169 
 689      C3CCDB4F 
 689      562A95C0 
 689      AA84
 690 10fc 29496E15 		.ascii	")In\025&\202 \226d\363H\026n(\011%\006\015fZ^\264\022"
 690      26822096 
 690      64F34816 
 690      6E280925 
 690      060D665A 
 691 1113 3C3DD653 		.ascii	"<=\326SXE\265\231\270\235E\015t8\307g\304\300`\004\011"
 691      5845B599 
 691      B89D450D 
 691      7438C767 
 691      C4C06004 
 692 1128 54889268 		.ascii	"T\210\222h\003~P\0163-\304V\221+H`\301\315D<^Q\024*"
 692      037E500E 
 692      332DC456 
 692      912B4860 
 692      C1CD443C 
 693 1140 9F1C2A7F 		.ascii	"\237\034*\177\034(\316zD\324\022C\310\345\303\361\311"
 693      1C28CE7A 
 693      44D41243 
 693      C8E5C3F1 
 693      C9
 694 1151 158A9298 		.ascii	"\025\212\222\230\\\000\366'f\016\340\266\020\211\202"
 694      5C00F627 
 694      660EE0B6 
 694      108982
 695 1160 4A37B305 		.ascii	"J7\263\005~\003\267\342\225\332d\037~VL\236\374\017"
 695      7E03B7E2 
 695      95DA641F 
ARM GAS  /tmp/ccnnv6ua.s 			page 55


 695      7E564C9E 
 695      FC0F
 696 1172 697A93A5 		.ascii	"iz\223\245\230\226\220@\277\274\340/@\310m\344\321#"
 696      98969040 
 696      BFBCE02F 
 696      40C86DE4 
 696      D123
 697 1184 C9C75445 		.ascii	"\311\307TE\211&\264H<\366\270\362deDU\302\267\222'\277"
 697      8926B448 
 697      3CF6B8F2 
 697      64654455 
 697      C2B79227 
 698 1199 8C3FAE98 		.ascii	"\214?\256\230-\365\027\012\364\007\341\341Y\367\037"
 698      2DF5170A 
 698      F407E1E1 
 698      59F71F
 699 11a8 2C078E25 		.ascii	",\007\216%\224\255ys\362\015Y\345\212\203$\340\2233"
 699      94AD7973 
 699      F20D59E5 
 699      8A8324E0 
 699      9333
 700 11ba C0B3E563 		.ascii	"\300\263\345c<Ys:\356\264\206M\217\250Z\245\\\021\304"
 700      3C59733A 
 700      EEB4864D 
 700      8FA85AA5 
 700      5C11C4
 701 11cd 3AA9860F 		.ascii	":\251\206\017-\267\362\247k\304\254\370\214[q\001\234"
 701      2DB7F2A7 
 701      6BC4ACF8 
 701      8C5B7101 
 701      9C
 702 11de C34A8526 		.ascii	"\303J\205&Cfje,\024$Op\316\217K\310*\030\346\277\177"
 702      43666A65 
 702      2C14244F 
 702      70CE8F4B 
 702      C82A18E6 
 703 11f4 43282ADA 		.ascii	"C(*\332#\205\306\305d\310\202\351\203\330\256J\324\350"
 703      2385C6C5 
 703      64C882E9 
 703      83D8AE4A 
 703      D4E8
 704 1206 578C7C31 		.ascii	"W\214|1\016\227Y4\324\300\035\301\314u\276j\370\331"
 704      0E975934 
 704      D4C01DC1 
 704      CC75BE6A 
 704      F8D9
 705 1218 AF92BE21 		.ascii	"\257\222\276!O%\255D\245\255D5ZI\000\356V\252*\304q"
 705      4F25AD44 
 705      A5AD4435 
 705      5A4900EE 
 705      56AA2AC4 
 706 122d 9E8A2BDD 		.ascii	"\236\212+\335b!o\306\360p^+\343A\0210\256\220\223\032"
 706      62216FC6 
 706      F0705E2B 
 706      E3411130 
 706      AE90931A 
 707 1241 BE05ECF1 		.ascii	"\276\005\354\361\255\241\224bX\231R9\315\010~\366N "
ARM GAS  /tmp/ccnnv6ua.s 			page 56


 707      ADA19462 
 707      58995239 
 707      CD087EF6 
 707      4E20
 708 1253 21C72221 		.ascii	"!\307\"!\034\312Rx\3124o\366\326p\257R\242E\203!\271"
 708      1CCA5278 
 708      CA346FF6 
 708      D670AF52 
 708      A2458321 
 709 1268 22324595 		.ascii	"\"2E\225q`\200\365T-\024\003\212\376\370\324\251`1Q"
 709      716080F5 
 709      542D1403 
 709      8AFEF8D4 
 709      A9603151 
 710 127c 8B8AA1F2 		.ascii	"\213\212\241\362\361\336\200\2156\007\3507\322\216\033"
 710      F1DE808D 
 710      3607E837 
 710      D28E1B
 711 128b 3A03056C 		.ascii	":\003\005l\022\202\010\316#\350C\214&\032V\214vi\\\341"
 711      128208CE 
 711      23E8438C 
 711      261A568C 
 711      76695CE1 
 712 129f 7784A43D 		.ascii	"w\204\244=\231\270\301\270\234\032\231\032\207\232\321"
 712      99B8C1B8 
 712      9C1A991A 
 712      879AD1
 713 12ae F874E566 		.ascii	"\370t\345f\032\3018\316\314\330}\344\377\000\013\177"
 713      1AC138CE 
 713      CCD87DE4 
 713      FF000B7F 
 714 12be 600A     		.ascii	"`\012"
 715              		.text
 716              		.section	.gnu.lto_.symtab.58322ff69e4d23d5,"",%progbits
 717 0000 63680000 		.ascii	"ch\000\000\000\000\000\000\000\000\000\000\000\000\302"
 717      00000000 
 717      00000000 
 717      0000C2
 718 000f 0100005F 		.ascii	"\001\000\000_scheduler_init\000\000\000\000\000\000"
 718      73636865 
 718      64756C65 
 718      725F696E 
 718      69740000 
 719 0027 00000000 		.ascii	"\000\000\000\000\000\000\263\000\000\000chSchReadyI"
 719      0000B300 
 719      00006368 
 719      53636852 
 719      65616479 
 720 003c 00000000 		.ascii	"\000\000\000\000\000\000\000\000\000\000\000\000\267"
 720      00000000 
 720      00000000 
 720      B7
 721 0049 00000063 		.ascii	"\000\000\000chSchGoSleepS\000\000\000\000\000\000\000"
 721      68536368 
 721      476F536C 
 721      65657053 
 721      00000000 
ARM GAS  /tmp/ccnnv6ua.s 			page 57


 722 0060 00000000 		.ascii	"\000\000\000\000\000n\001\000\000chSchGoSleepTimeou"
 722      006E0100 
 722      00636853 
 722      6368476F 
 722      536C6565 
 723 007b 74530000 		.ascii	"tS\000\000\000\000\000\000\000\000\000\000\000\000u"
 723      00000000 
 723      00000000 
 723      000075
 724 008a 01000063 		.ascii	"\001\000\000chSchWakeupS\000\000\000\000\000\000\000"
 724      68536368 
 724      57616B65 
 724      75705300 
 724      00000000 
 725 00a0 00000000 		.ascii	"\000\000\000\000\000\201\001\000\000chSchIsPreempti"
 725      00810100 
 725      00636853 
 725      63684973 
 725      50726565 
 726 00b8 6F6E5265 		.ascii	"onRequired\000\000\000\000\000\000\000\000\000\000\000"
 726      71756972 
 726      65640000 
 726      00000000 
 726      00000000 
 727 00cd 008B0100 		.ascii	"\000\213\001\000\000chSchDoRescheduleBehind\000\000"
 727      00636853 
 727      6368446F 
 727      52657363 
 727      68656475 
 728 00eb 00000000 		.ascii	"\000\000\000\000\000\000\000\000\000\000\222\001\000"
 728      00000000 
 728      00009201 
 728      00
 729 00f8 00636853 		.ascii	"\000chSchDoRescheduleAhead\000\000\000\000\000\000\000"
 729      6368446F 
 729      52657363 
 729      68656475 
 729      6C654168 
 730 0116 00000000 		.ascii	"\000\000\000\000\000\225\001\000\000chSchReschedule"
 730      00950100 
 730      00636853 
 730      63685265 
 730      73636865 
 731 012e 53000000 		.ascii	"S\000\000\000\000\000\000\000\000\000\000\000\000\230"
 731      00000000 
 731      00000000 
 731      0098
 732 013c 01000063 		.ascii	"\001\000\000chSchDoReschedule\000\000\000\000\000\000"
 732      68536368 
 732      446F5265 
 732      73636865 
 732      64756C65 
 733 0156 00000000 		.ascii	"\000\000\000\000\000\000\233\001\000\000_port_switc"
 733      00009B01 
 733      00005F70 
 733      6F72745F 
 733      73776974 
ARM GAS  /tmp/ccnnv6ua.s 			page 58


 734 016b 68000002 		.ascii	"h\000\000\002\000\000\000\000\000\000\000\000\000\236"
 734      00000000 
 734      00000000 
 734      009E
 735 0179 01000063 		.ascii	"\001\000\000chVTDoResetI\000\000\002\000\000\000\000"
 735      68565444 
 735      6F526573 
 735      65744900 
 735      00020000 
 736 018f 00000000 		.ascii	"\000\000\000\000\000\243\001\000\000chVTDoSetI\000\000"
 736      00A30100 
 736      00636856 
 736      54446F53 
 736      65744900 
 737 01a4 02000000 		.ascii	"\002\000\000\000\000\000\000\000\000\000\273\001\000"
 737      00000000 
 737      0000BB01 
 737      00
 738 01b1 00       		.ascii	"\000"
 739              		.text
 740              		.section	.gnu.lto_.opts,"",%progbits
 741 0000 272D6D63 		.ascii	"'-mcpu=cortex-m4' '-mfloat-abi=hard' '-mfpu=fpv4-sp"
 741      70753D63 
 741      6F727465 
 741      782D6D34 
 741      2720272D 
 742 0033 2D643136 		.ascii	"-d16' '-mno-thumb-interwork' '-mthumb' '-O2' '-fomi"
 742      2720272D 
 742      6D6E6F2D 
 742      7468756D 
 742      622D696E 
 743 0066 742D6672 		.ascii	"t-frame-pointer' '-falign-functions=16' '-ffunction"
 743      616D652D 
 743      706F696E 
 743      74657227 
 743      20272D66 
 744 0099 2D736563 		.ascii	"-sections' '-fdata-sections' '-fno-common' '-flto' "
 744      74696F6E 
 744      73272027 
 744      2D666461 
 744      74612D73 
 745 00cc 272D6673 		.ascii	"'-fsingle-precision-constant'\000"
 745      696E676C 
 745      652D7072 
 745      65636973 
 745      696F6E2D 
 746              		.text
 747              		.section	.text.wakeup,"ax",%progbits
 748              		.align	2
 749              		.p2align 4,,15
 750              		.thumb
 751              		.thumb_func
 752              		.type	wakeup, %function
 753              	wakeup:
 754              		@ args = 0, pretend = 0, frame = 0
 755              		@ frame_needed = 0, uses_anonymous_args = 0
 756              		@ link register save eliminated.
ARM GAS  /tmp/ccnnv6ua.s 			page 59


 757 0000 10B4     		push	{r4}
 758 0002 2023     		movs	r3, #32
 759              	@ 546 "/home/cody/dev/chibios/trunk/os/ext/CMSIS/include/core_cmFunc.h" 1
 760 0004 83F31188 		MSR basepri, r3
 761              	@ 0 "" 2
 762              		.thumb
 763 0008 037F     		ldrb	r3, [r0, #28]	@ zero_extendqisi2
 764 000a 072B     		cmp	r3, #7
 765 000c 0ED8     		bhi	.L2
 766 000e DFE803F0 		tbb	[pc, r3]
 767              	.L4:
 768 0012 27       		.byte	(.L3-.L4)/2
 769 0013 0D       		.byte	(.L2-.L4)/2
 770 0014 0D       		.byte	(.L2-.L4)/2
 771 0015 23       		.byte	(.L5-.L4)/2
 772 0016 08       		.byte	(.L6-.L4)/2
 773 0017 04       		.byte	(.L7-.L4)/2
 774 0018 0D       		.byte	(.L2-.L4)/2
 775 0019 08       		.byte	(.L6-.L4)/2
 776              		.p2align 1
 777              	.L7:
 778 001a 036A     		ldr	r3, [r0, #32]
 779 001c 9A68     		ldr	r2, [r3, #8]
 780 001e 0132     		adds	r2, r2, #1
 781 0020 9A60     		str	r2, [r3, #8]
 782              	.L6:
 783 0022 90E80C00 		ldmia	r0, {r2, r3}
 784 0026 1A60     		str	r2, [r3]
 785 0028 0268     		ldr	r2, [r0]
 786 002a 5360     		str	r3, [r2, #4]
 787              	.L2:
 788 002c 4FF0FF34 		mov	r4, #-1
 789 0030 0022     		movs	r2, #0
 790 0032 8168     		ldr	r1, [r0, #8]
 791 0034 0D4B     		ldr	r3, .L12
 792 0036 0462     		str	r4, [r0, #32]
 793 0038 0277     		strb	r2, [r0, #28]
 794              	.L10:
 795 003a 1B68     		ldr	r3, [r3]
 796 003c 9A68     		ldr	r2, [r3, #8]
 797 003e 8A42     		cmp	r2, r1
 798 0040 FBD2     		bcs	.L10
 799 0042 5A68     		ldr	r2, [r3, #4]
 800 0044 4260     		str	r2, [r0, #4]
 801 0046 0360     		str	r3, [r0]
 802 0048 0021     		movs	r1, #0
 803 004a 5860     		str	r0, [r3, #4]
 804 004c 1060     		str	r0, [r2]
 805              	@ 546 "/home/cody/dev/chibios/trunk/os/ext/CMSIS/include/core_cmFunc.h" 1
 806 004e 81F31188 		MSR basepri, r1
 807              	@ 0 "" 2
 808              		.thumb
 809 0052 5DF8044B 		ldr	r4, [sp], #4
 810 0056 7047     		bx	lr
 811              	.L5:
 812 0058 036A     		ldr	r3, [r0, #32]
 813 005a 0022     		movs	r2, #0
ARM GAS  /tmp/ccnnv6ua.s 			page 60


 814 005c 1A60     		str	r2, [r3]
 815 005e E5E7     		b	.L2
 816              	.L3:
 817 0060 0023     		movs	r3, #0
 818              	@ 546 "/home/cody/dev/chibios/trunk/os/ext/CMSIS/include/core_cmFunc.h" 1
 819 0062 83F31188 		MSR basepri, r3
 820              	@ 0 "" 2
 821              		.thumb
 822 0066 5DF8044B 		ldr	r4, [sp], #4
 823 006a 7047     		bx	lr
 824              	.L13:
 825              		.align	2
 826              	.L12:
 827 006c 00000000 		.word	.LANCHOR0
 828              		.size	wakeup, .-wakeup
 829              		.section	.text._scheduler_init,"ax",%progbits
 830              		.align	2
 831              		.p2align 4,,15
 832              		.global	_scheduler_init
 833              		.thumb
 834              		.thumb_func
 835              		.type	_scheduler_init, %function
 836              	_scheduler_init:
 837              		@ args = 0, pretend = 0, frame = 0
 838              		@ frame_needed = 0, uses_anonymous_args = 0
 839              		@ link register save eliminated.
 840 0000 034B     		ldr	r3, .L15
 841 0002 0022     		movs	r2, #0
 842 0004 5B60     		str	r3, [r3, #4]
 843 0006 1B60     		str	r3, [r3]
 844 0008 5B61     		str	r3, [r3, #20]
 845 000a 1B61     		str	r3, [r3, #16]
 846 000c 9A60     		str	r2, [r3, #8]
 847 000e 7047     		bx	lr
 848              	.L16:
 849              		.align	2
 850              	.L15:
 851 0010 00000000 		.word	.LANCHOR0
 852              		.size	_scheduler_init, .-_scheduler_init
 853 0014 AFF30080 		.section	.text.chSchReadyI,"ax",%progbits
 853      AFF30080 
 853      AFF30080 
 854              		.align	2
 855              		.p2align 4,,15
 856              		.global	chSchReadyI
 857              		.thumb
 858              		.thumb_func
 859              		.type	chSchReadyI, %function
 860              	chSchReadyI:
 861              		@ args = 0, pretend = 0, frame = 0
 862              		@ frame_needed = 0, uses_anonymous_args = 0
 863              		@ link register save eliminated.
 864 0000 0022     		movs	r2, #0
 865 0002 8168     		ldr	r1, [r0, #8]
 866 0004 084B     		ldr	r3, .L20
 867 0006 10B4     		push	{r4}
 868 0008 0446     		mov	r4, r0
ARM GAS  /tmp/ccnnv6ua.s 			page 61


 869 000a 0277     		strb	r2, [r0, #28]
 870              	.L19:
 871 000c 1B68     		ldr	r3, [r3]
 872 000e 9A68     		ldr	r2, [r3, #8]
 873 0010 8A42     		cmp	r2, r1
 874 0012 FBD2     		bcs	.L19
 875 0014 5A68     		ldr	r2, [r3, #4]
 876 0016 6260     		str	r2, [r4, #4]
 877 0018 2360     		str	r3, [r4]
 878 001a 2046     		mov	r0, r4
 879 001c 5C60     		str	r4, [r3, #4]
 880 001e 1460     		str	r4, [r2]
 881 0020 5DF8044B 		ldr	r4, [sp], #4
 882 0024 7047     		bx	lr
 883              	.L21:
 884 0026 00BF     		.align	2
 885              	.L20:
 886 0028 00000000 		.word	.LANCHOR0
 887              		.size	chSchReadyI, .-chSchReadyI
 888 002c AFF30080 		.section	.text.chSchGoSleepS,"ax",%progbits
 889              		.align	2
 890              		.p2align 4,,15
 891              		.global	chSchGoSleepS
 892              		.thumb
 893              		.thumb_func
 894              		.type	chSchGoSleepS, %function
 895              	chSchGoSleepS:
 896              		@ args = 0, pretend = 0, frame = 0
 897              		@ frame_needed = 0, uses_anonymous_args = 0
 898              		@ link register save eliminated.
 899 0000 074B     		ldr	r3, .L23
 900 0002 30B4     		push	{r4, r5}
 901 0004 1A68     		ldr	r2, [r3]
 902 0006 9969     		ldr	r1, [r3, #24]
 903 0008 1468     		ldr	r4, [r2]
 904 000a 0877     		strb	r0, [r1, #28]
 905 000c 0125     		movs	r5, #1
 906 000e 6360     		str	r3, [r4, #4]
 907 0010 1577     		strb	r5, [r2, #28]
 908 0012 1C60     		str	r4, [r3]
 909 0014 1046     		mov	r0, r2
 910 0016 30BC     		pop	{r4, r5}
 911 0018 9A61     		str	r2, [r3, #24]
 912 001a FFF7FEBF 		b	_port_switch
 913              	.L24:
 914 001e 00BF     		.align	2
 915              	.L23:
 916 0020 00000000 		.word	.LANCHOR0
 917              		.size	chSchGoSleepS, .-chSchGoSleepS
 918 0024 AFF30080 		.section	.text.chSchGoSleepTimeoutS,"ax",%progbits
 918      AFF30080 
 918      AFF30080 
 919              		.align	2
 920              		.p2align 4,,15
 921              		.global	chSchGoSleepTimeoutS
 922              		.thumb
 923              		.thumb_func
ARM GAS  /tmp/ccnnv6ua.s 			page 62


 924              		.type	chSchGoSleepTimeoutS, %function
 925              	chSchGoSleepTimeoutS:
 926              		@ args = 0, pretend = 0, frame = 24
 927              		@ frame_needed = 0, uses_anonymous_args = 0
 928 0000 30B5     		push	{r4, r5, lr}
 929 0002 4B1C     		adds	r3, r1, #1
 930 0004 87B0     		sub	sp, sp, #28
 931 0006 0546     		mov	r5, r0
 932 0008 11D0     		beq	.L26
 933 000a 0C4C     		ldr	r4, .L32
 934 000c 0C4A     		ldr	r2, .L32+4
 935 000e A369     		ldr	r3, [r4, #24]
 936 0010 01A8     		add	r0, sp, #4
 937 0012 FFF7FEFF 		bl	chVTDoSetI
 938 0016 2846     		mov	r0, r5
 939 0018 FFF7FEFF 		bl	chSchGoSleepS
 940 001c 049B     		ldr	r3, [sp, #16]
 941 001e 13B1     		cbz	r3, .L28
 942 0020 01A8     		add	r0, sp, #4
 943 0022 FFF7FEFF 		bl	chVTDoResetI
 944              	.L28:
 945 0026 A369     		ldr	r3, [r4, #24]
 946 0028 186A     		ldr	r0, [r3, #32]
 947 002a 07B0     		add	sp, sp, #28
 948              		@ sp needed
 949 002c 30BD     		pop	{r4, r5, pc}
 950              	.L26:
 951 002e 034C     		ldr	r4, .L32
 952 0030 FFF7FEFF 		bl	chSchGoSleepS
 953 0034 A369     		ldr	r3, [r4, #24]
 954 0036 186A     		ldr	r0, [r3, #32]
 955 0038 07B0     		add	sp, sp, #28
 956              		@ sp needed
 957 003a 30BD     		pop	{r4, r5, pc}
 958              	.L33:
 959              		.align	2
 960              	.L32:
 961 003c 00000000 		.word	.LANCHOR0
 962 0040 00000000 		.word	wakeup
 963              		.size	chSchGoSleepTimeoutS, .-chSchGoSleepTimeoutS
 964 0044 AFF30080 		.section	.text.chSchWakeupS,"ax",%progbits
 964      AFF30080 
 964      AFF30080 
 965              		.align	2
 966              		.p2align 4,,15
 967              		.global	chSchWakeupS
 968              		.thumb
 969              		.thumb_func
 970              		.type	chSchWakeupS, %function
 971              	chSchWakeupS:
 972              		@ args = 0, pretend = 0, frame = 0
 973              		@ frame_needed = 0, uses_anonymous_args = 0
 974              		@ link register save eliminated.
 975 0000 DFF858C0 		ldr	ip, .L42
 976 0004 F0B4     		push	{r4, r5, r6, r7}
 977 0006 DCF81870 		ldr	r7, [ip, #24]
 978 000a 8568     		ldr	r5, [r0, #8]
ARM GAS  /tmp/ccnnv6ua.s 			page 63


 979 000c BC68     		ldr	r4, [r7, #8]
 980 000e 0162     		str	r1, [r0, #32]
 981 0010 A542     		cmp	r5, r4
 982 0012 0646     		mov	r6, r0
 983 0014 0DD8     		bhi	.L35
 984 0016 0022     		movs	r2, #0
 985 0018 6346     		mov	r3, ip
 986 001a 0277     		strb	r2, [r0, #28]
 987              	.L37:
 988 001c 1B68     		ldr	r3, [r3]
 989 001e 9A68     		ldr	r2, [r3, #8]
 990 0020 9542     		cmp	r5, r2
 991 0022 FBD9     		bls	.L37
 992 0024 5A68     		ldr	r2, [r3, #4]
 993 0026 7260     		str	r2, [r6, #4]
 994 0028 3360     		str	r3, [r6]
 995 002a 5E60     		str	r6, [r3, #4]
 996 002c 1660     		str	r6, [r2]
 997 002e F0BC     		pop	{r4, r5, r6, r7}
 998 0030 7047     		bx	lr
 999              	.L35:
 1000 0032 0023     		movs	r3, #0
 1001 0034 3B77     		strb	r3, [r7, #28]
 1002 0036 6346     		mov	r3, ip
 1003              	.L40:
 1004 0038 1B68     		ldr	r3, [r3]
 1005 003a 9A68     		ldr	r2, [r3, #8]
 1006 003c 9442     		cmp	r4, r2
 1007 003e FBD9     		bls	.L40
 1008 0040 5A68     		ldr	r2, [r3, #4]
 1009 0042 7A60     		str	r2, [r7, #4]
 1010 0044 0124     		movs	r4, #1
 1011 0046 3B60     		str	r3, [r7]
 1012 0048 5F60     		str	r7, [r3, #4]
 1013 004a 1760     		str	r7, [r2]
 1014 004c 3477     		strb	r4, [r6, #28]
 1015 004e 3946     		mov	r1, r7
 1016 0050 3046     		mov	r0, r6
 1017 0052 CCF81860 		str	r6, [ip, #24]
 1018 0056 F0BC     		pop	{r4, r5, r6, r7}
 1019 0058 FFF7FEBF 		b	_port_switch
 1020              	.L43:
 1021              		.align	2
 1022              	.L42:
 1023 005c 00000000 		.word	.LANCHOR0
 1024              		.size	chSchWakeupS, .-chSchWakeupS
 1025              		.section	.text.chSchIsPreemptionRequired,"ax",%progbits
 1026              		.align	2
 1027              		.p2align 4,,15
 1028              		.global	chSchIsPreemptionRequired
 1029              		.thumb
 1030              		.thumb_func
 1031              		.type	chSchIsPreemptionRequired, %function
 1032              	chSchIsPreemptionRequired:
 1033              		@ args = 0, pretend = 0, frame = 0
 1034              		@ frame_needed = 0, uses_anonymous_args = 0
 1035              		@ link register save eliminated.
ARM GAS  /tmp/ccnnv6ua.s 			page 64


 1036 0000 044B     		ldr	r3, .L45
 1037 0002 1A68     		ldr	r2, [r3]
 1038 0004 9B69     		ldr	r3, [r3, #24]
 1039 0006 9068     		ldr	r0, [r2, #8]
 1040 0008 9B68     		ldr	r3, [r3, #8]
 1041 000a 9842     		cmp	r0, r3
 1042 000c 94BF     		ite	ls
 1043 000e 0020     		movls	r0, #0
 1044 0010 0120     		movhi	r0, #1
 1045 0012 7047     		bx	lr
 1046              	.L46:
 1047              		.align	2
 1048              	.L45:
 1049 0014 00000000 		.word	.LANCHOR0
 1050              		.size	chSchIsPreemptionRequired, .-chSchIsPreemptionRequired
 1051 0018 AFF30080 		.section	.text.chSchDoRescheduleBehind,"ax",%progbits
 1051      AFF30080 
 1052              		.align	2
 1053              		.p2align 4,,15
 1054              		.global	chSchDoRescheduleBehind
 1055              		.thumb
 1056              		.thumb_func
 1057              		.type	chSchDoRescheduleBehind, %function
 1058              	chSchDoRescheduleBehind:
 1059              		@ args = 0, pretend = 0, frame = 0
 1060              		@ frame_needed = 0, uses_anonymous_args = 0
 1061              		@ link register save eliminated.
 1062 0000 0D4A     		ldr	r2, .L51
 1063 0002 1068     		ldr	r0, [r2]
 1064 0004 70B4     		push	{r4, r5, r6}
 1065 0006 0368     		ldr	r3, [r0]
 1066 0008 9569     		ldr	r5, [r2, #24]
 1067 000a 1360     		str	r3, [r2]
 1068 000c 0126     		movs	r6, #1
 1069 000e 0021     		movs	r1, #0
 1070 0010 AC68     		ldr	r4, [r5, #8]
 1071 0012 5A60     		str	r2, [r3, #4]
 1072 0014 0677     		strb	r6, [r0, #28]
 1073 0016 0346     		mov	r3, r0
 1074 0018 9061     		str	r0, [r2, #24]
 1075 001a 2977     		strb	r1, [r5, #28]
 1076 001c 00E0     		b	.L49
 1077              	.L50:
 1078 001e 1B68     		ldr	r3, [r3]
 1079              	.L49:
 1080 0020 9A68     		ldr	r2, [r3, #8]
 1081 0022 A242     		cmp	r2, r4
 1082 0024 FBD2     		bcs	.L50
 1083 0026 5A68     		ldr	r2, [r3, #4]
 1084 0028 6A60     		str	r2, [r5, #4]
 1085 002a 2B60     		str	r3, [r5]
 1086 002c 2946     		mov	r1, r5
 1087 002e 5D60     		str	r5, [r3, #4]
 1088 0030 1560     		str	r5, [r2]
 1089 0032 70BC     		pop	{r4, r5, r6}
 1090 0034 FFF7FEBF 		b	_port_switch
 1091              	.L52:
ARM GAS  /tmp/ccnnv6ua.s 			page 65


 1092              		.align	2
 1093              	.L51:
 1094 0038 00000000 		.word	.LANCHOR0
 1095              		.size	chSchDoRescheduleBehind, .-chSchDoRescheduleBehind
 1096 003c AFF30080 		.section	.text.chSchDoRescheduleAhead,"ax",%progbits
 1097              		.align	2
 1098              		.p2align 4,,15
 1099              		.global	chSchDoRescheduleAhead
 1100              		.thumb
 1101              		.thumb_func
 1102              		.type	chSchDoRescheduleAhead, %function
 1103              	chSchDoRescheduleAhead:
 1104              		@ args = 0, pretend = 0, frame = 0
 1105              		@ frame_needed = 0, uses_anonymous_args = 0
 1106              		@ link register save eliminated.
 1107 0000 0D4A     		ldr	r2, .L57
 1108 0002 1068     		ldr	r0, [r2]
 1109 0004 70B4     		push	{r4, r5, r6}
 1110 0006 0368     		ldr	r3, [r0]
 1111 0008 9569     		ldr	r5, [r2, #24]
 1112 000a 1360     		str	r3, [r2]
 1113 000c 0126     		movs	r6, #1
 1114 000e 0021     		movs	r1, #0
 1115 0010 AC68     		ldr	r4, [r5, #8]
 1116 0012 5A60     		str	r2, [r3, #4]
 1117 0014 0677     		strb	r6, [r0, #28]
 1118 0016 0346     		mov	r3, r0
 1119 0018 9061     		str	r0, [r2, #24]
 1120 001a 2977     		strb	r1, [r5, #28]
 1121 001c 00E0     		b	.L55
 1122              	.L56:
 1123 001e 1B68     		ldr	r3, [r3]
 1124              	.L55:
 1125 0020 9A68     		ldr	r2, [r3, #8]
 1126 0022 A242     		cmp	r2, r4
 1127 0024 FBD8     		bhi	.L56
 1128 0026 5A68     		ldr	r2, [r3, #4]
 1129 0028 6A60     		str	r2, [r5, #4]
 1130 002a 2B60     		str	r3, [r5]
 1131 002c 2946     		mov	r1, r5
 1132 002e 5D60     		str	r5, [r3, #4]
 1133 0030 1560     		str	r5, [r2]
 1134 0032 70BC     		pop	{r4, r5, r6}
 1135 0034 FFF7FEBF 		b	_port_switch
 1136              	.L58:
 1137              		.align	2
 1138              	.L57:
 1139 0038 00000000 		.word	.LANCHOR0
 1140              		.size	chSchDoRescheduleAhead, .-chSchDoRescheduleAhead
 1141 003c AFF30080 		.section	.text.chSchRescheduleS,"ax",%progbits
 1142              		.align	2
 1143              		.p2align 4,,15
 1144              		.global	chSchRescheduleS
 1145              		.thumb
 1146              		.thumb_func
 1147              		.type	chSchRescheduleS, %function
 1148              	chSchRescheduleS:
ARM GAS  /tmp/ccnnv6ua.s 			page 66


 1149              		@ args = 0, pretend = 0, frame = 0
 1150              		@ frame_needed = 0, uses_anonymous_args = 0
 1151              		@ link register save eliminated.
 1152 0000 044B     		ldr	r3, .L62
 1153 0002 1A68     		ldr	r2, [r3]
 1154 0004 9B69     		ldr	r3, [r3, #24]
 1155 0006 9268     		ldr	r2, [r2, #8]
 1156 0008 9B68     		ldr	r3, [r3, #8]
 1157 000a 9A42     		cmp	r2, r3
 1158 000c 00D8     		bhi	.L61
 1159 000e 7047     		bx	lr
 1160              	.L61:
 1161 0010 FFF7FEBF 		b	chSchDoRescheduleAhead
 1162              	.L63:
 1163              		.align	2
 1164              	.L62:
 1165 0014 00000000 		.word	.LANCHOR0
 1166              		.size	chSchRescheduleS, .-chSchRescheduleS
 1167 0018 AFF30080 		.section	.text.chSchDoReschedule,"ax",%progbits
 1167      AFF30080 
 1168              		.align	2
 1169              		.p2align 4,,15
 1170              		.global	chSchDoReschedule
 1171              		.thumb
 1172              		.thumb_func
 1173              		.type	chSchDoReschedule, %function
 1174              	chSchDoReschedule:
 1175              		@ args = 0, pretend = 0, frame = 0
 1176              		@ frame_needed = 0, uses_anonymous_args = 0
 1177              		@ link register save eliminated.
 1178 0000 FFF7FEBF 		b	chSchDoRescheduleAhead
 1179              		.size	chSchDoReschedule, .-chSchDoReschedule
 1180              		.global	ch
 1181 0004 AFF30080 		.section	.bss.ch,"aw",%nobits
 1181      AFF30080 
 1181      AFF30080 
 1182              		.align	2
 1183              		.set	.LANCHOR0,. + 0
 1184              		.type	ch, %object
 1185              		.size	ch, 52
 1186              	ch:
 1187 0000 00000000 		.space	52
 1187      00000000 
 1187      00000000 
 1187      00000000 
 1187      00000000 
 1188              		.comm	__gnu_lto_v1,1,1
 1189              		.ident	"GCC: (GNU Tools for ARM Embedded Processors) 4.8.4 20140526 (release) [ARM/embedded-4_8-br
ARM GAS  /tmp/ccnnv6ua.s 			page 67


DEFINED SYMBOLS
                            *ABS*:0000000000000000 chschd.c
     /tmp/ccnnv6ua.s:748    .text.wakeup:0000000000000000 $t
     /tmp/ccnnv6ua.s:753    .text.wakeup:0000000000000000 wakeup
     /tmp/ccnnv6ua.s:768    .text.wakeup:0000000000000012 $d
     /tmp/ccnnv6ua.s:776    .text.wakeup:000000000000001a $t
     /tmp/ccnnv6ua.s:827    .text.wakeup:000000000000006c $d
     /tmp/ccnnv6ua.s:830    .text._scheduler_init:0000000000000000 $t
     /tmp/ccnnv6ua.s:836    .text._scheduler_init:0000000000000000 _scheduler_init
     /tmp/ccnnv6ua.s:851    .text._scheduler_init:0000000000000010 $d
     /tmp/ccnnv6ua.s:854    .text.chSchReadyI:0000000000000000 $t
     /tmp/ccnnv6ua.s:860    .text.chSchReadyI:0000000000000000 chSchReadyI
     /tmp/ccnnv6ua.s:886    .text.chSchReadyI:0000000000000028 $d
     /tmp/ccnnv6ua.s:889    .text.chSchGoSleepS:0000000000000000 $t
     /tmp/ccnnv6ua.s:895    .text.chSchGoSleepS:0000000000000000 chSchGoSleepS
     /tmp/ccnnv6ua.s:916    .text.chSchGoSleepS:0000000000000020 $d
     /tmp/ccnnv6ua.s:919    .text.chSchGoSleepTimeoutS:0000000000000000 $t
     /tmp/ccnnv6ua.s:925    .text.chSchGoSleepTimeoutS:0000000000000000 chSchGoSleepTimeoutS
     /tmp/ccnnv6ua.s:961    .text.chSchGoSleepTimeoutS:000000000000003c $d
     /tmp/ccnnv6ua.s:965    .text.chSchWakeupS:0000000000000000 $t
     /tmp/ccnnv6ua.s:971    .text.chSchWakeupS:0000000000000000 chSchWakeupS
     /tmp/ccnnv6ua.s:1023   .text.chSchWakeupS:000000000000005c $d
     /tmp/ccnnv6ua.s:1026   .text.chSchIsPreemptionRequired:0000000000000000 $t
     /tmp/ccnnv6ua.s:1032   .text.chSchIsPreemptionRequired:0000000000000000 chSchIsPreemptionRequired
     /tmp/ccnnv6ua.s:1049   .text.chSchIsPreemptionRequired:0000000000000014 $d
     /tmp/ccnnv6ua.s:1052   .text.chSchDoRescheduleBehind:0000000000000000 $t
     /tmp/ccnnv6ua.s:1058   .text.chSchDoRescheduleBehind:0000000000000000 chSchDoRescheduleBehind
     /tmp/ccnnv6ua.s:1094   .text.chSchDoRescheduleBehind:0000000000000038 $d
     /tmp/ccnnv6ua.s:1097   .text.chSchDoRescheduleAhead:0000000000000000 $t
     /tmp/ccnnv6ua.s:1103   .text.chSchDoRescheduleAhead:0000000000000000 chSchDoRescheduleAhead
     /tmp/ccnnv6ua.s:1139   .text.chSchDoRescheduleAhead:0000000000000038 $d
     /tmp/ccnnv6ua.s:1142   .text.chSchRescheduleS:0000000000000000 $t
     /tmp/ccnnv6ua.s:1148   .text.chSchRescheduleS:0000000000000000 chSchRescheduleS
     /tmp/ccnnv6ua.s:1165   .text.chSchRescheduleS:0000000000000014 $d
     /tmp/ccnnv6ua.s:1168   .text.chSchDoReschedule:0000000000000000 $t
     /tmp/ccnnv6ua.s:1174   .text.chSchDoReschedule:0000000000000000 chSchDoReschedule
     /tmp/ccnnv6ua.s:1186   .bss.ch:0000000000000000 ch
     /tmp/ccnnv6ua.s:1182   .bss.ch:0000000000000000 $d
                            *COM*:0000000000000001 __gnu_lto_v1
     /tmp/ccnnv6ua.s:853    .text._scheduler_init:0000000000000014 $t
     /tmp/ccnnv6ua.s:888    .text.chSchReadyI:000000000000002c $t
     /tmp/ccnnv6ua.s:918    .text.chSchGoSleepS:0000000000000024 $t
     /tmp/ccnnv6ua.s:964    .text.chSchGoSleepTimeoutS:0000000000000044 $t
     /tmp/ccnnv6ua.s:1051   .text.chSchIsPreemptionRequired:0000000000000018 $t
     /tmp/ccnnv6ua.s:1096   .text.chSchDoRescheduleBehind:000000000000003c $t
     /tmp/ccnnv6ua.s:1141   .text.chSchDoRescheduleAhead:000000000000003c $t
     /tmp/ccnnv6ua.s:1167   .text.chSchRescheduleS:0000000000000018 $t

UNDEFINED SYMBOLS
_port_switch
chVTDoSetI
chVTDoResetI
