ARM GAS  /tmp/cclD5DnM.s 			page 1


   1              		.syntax unified
   2              		.cpu cortex-m3
   3              		.fpu softvfp
   4              		.eabi_attribute 20, 1
   5              		.eabi_attribute 21, 1
   6              		.eabi_attribute 23, 3
   7              		.eabi_attribute 24, 1
   8              		.eabi_attribute 25, 1
   9              		.eabi_attribute 26, 1
  10              		.eabi_attribute 30, 2
  11              		.eabi_attribute 34, 1
  12              		.eabi_attribute 18, 4
  13              		.thumb
  14              		.file	"chschd.c"
  15              		.section	.gnu.lto_.jmpfuncs.aa8a28c3b75f4c1d,"",%progbits
  16 0000 789C6362 		.ascii	"x\234cb`b\300\006*\24047\003#\023\0033#\013\220dd|\300"
  16      6062C006 
  16      2AA03437 
  16      03231303 
  16      33230B90 
  17 0018 18C198C9 		.ascii	"\030\301\230\311\310\300\010\024gefd\006Re\014 \036"
  17      C8C00814 
  17      67656664 
  17      0652650C 
  17      201E
  18 002a 8CC9C2C0 		.ascii	"\214\311\302\300\000d1\002YL\325\014\277\032:\032\004"
  18      00643102 
  18      594CD50C 
  18      BF1A3A1A 
  18      04
  19 003b 32191993 		.ascii	"2\031\031\223\031\241F\26113A\324\241\030\304\316\300"
  19      19A146B1 
  19      313341D4 
  19      A118C4CE 
  19      C0
  20 004c 01710227 		.ascii	"\001q\002'\204\342\002\331\311\300\000\000\241\362\011"
  20      84E202D9 
  20      C9C00000 
  20      A1F209
  21 005b F2       		.ascii	"\362"
  22              		.text
  23              		.section	.gnu.lto_.inline.aa8a28c3b75f4c1d,"",%progbits
  24 0000 789C6362 		.ascii	"x\234cb`b\300\006\312\030!47\003\203\226\035#\003\223"
  24      6062C006 
  24      CA182134 
  24      37038396 
  24      1D230393 
  25 0014 F3815D6C 		.ascii	"\363\201]l\014\202\015\223\030\301\312\231\0308\330"
  25      0C820D93 
  25      18C1CA99 
  25      1838D8
  26 0023 81825C13 		.ascii	"\201\202\\\023\374\030\330\026\310\203\205\230\031\370"
  26      FC18D816 
  26      C8838598 
  26      19F8
  27 0031 0E303032 		.ascii	"\0160022\000\3651;\260\010>\370\303\312\300y\303\214"
  27      3200F531 
ARM GAS  /tmp/cclD5DnM.s 			page 2


  27      3BB0083E 
  27      F8C3CAC0 
  27      79C38C
  28 0044 8981F179 		.ascii	"\211\201\361y\030\013\204\004\251ba\340\023\003j\024"
  28      180B8404 
  28      A96261E0 
  28      13036A14 
  29 0054 68A84568 		.ascii	"h\250Eh\344\001\2327\301o\202\037\253\210\230\012#3"
  29      E4019A37 
  29      C16F821F 
  29      AB88980A 
  29      2333
  30 0066 63460463 		.ascii	"cF\004c&#\323\377\377\314\014\014\214\351Hl\220\203"
  30      2623D3FF 
  30      FFCC0C0C 
  30      8CE9486C 
  30      9083
  31 0078 585816C8 		.ascii	"XX\026\310C4\002\031\002\014\034?t\300\2462q3p00N\360"
  31      43340219 
  31      020C1C3F 
  31      74C0A632 
  31      71337030 
  32 008f 03D22C40 		.ascii	"\003\322,@\007@(\240\201|@\232\205\001\350\310\011~"
  32      074028A0 
  32      817C409A 
  32      8501E8C8 
  32      097E
  33 00a1 6C0C4A07 		.ascii	"l\014J\007\021\3163\334q\213\215\201\033\354\274\027"
  33      11CE33DC 
  33      718B8D81 
  33      1BECBC17 
  34 00b1 EC2C1012 		.ascii	"\354,\020\022\305-\354\230\036\344`\220\270\0142\\e"
  34      C52DEC98 
  34      1EE46090 
  34      B80C325C 
  34      65
  35 00c2 DA7A0E4C 		.ascii	"\332z\016L\307s\342\225\345b\340\342\001J\362<\210\205"
  35      C773E295 
  35      E562E0E2 
  35      014AF23C 
  35      8885
  36 00d4 CB317281 		.ascii	"\3131r\201C\227\005$\016d\241\0103\000\000f\3514\345"
  36      43970524 
  36      0E64A108 
  36      33000066 
  36      E934E5
  37              		.text
  38              		.section	.gnu.lto_.pureconst.aa8a28c3b75f4c1d,"",%progbits
  39 0000 789C6362 		.ascii	"x\234cb`b\020g\200\000n\006+&)f)\026)VI6)vV\016)N)."
  39      60621067 
  39      80006E06 
  39      2B262966 
  39      29162956 
  40 001e 496E0900 		.ascii	"In\011\000\024\262\001\215"
  40      14B2018D 
  41              		.text
  42              		.section	.gnu.lto_wakeup.aa8a28c3b75f4c1d,"",%progbits
ARM GAS  /tmp/cclD5DnM.s 			page 3


  43 0000 789CAD56 		.ascii	"x\234\255Voh[U\024?\347\375M\362f\377$m\322\025,Ap\037"
  43      6F685B55 
  43      143FE7FD 
  43      4DF266FF 
  43      246DD215 
  44 0018 365906D3 		.ascii	"6Y\006\323\017\"\302D\020\206\354\213]A?\315\344%$\017"
  44      0F22C244 
  44      1086EC8B 
  44      5D413FCD 
  44      E425240F 
  45 002c 4D3B9256 		.ascii	"M;\222V\035C\372\262\005,ZY\235\023\374\203lCW\264\210"
  45      1D43FAB2 
  45      052C5A59 
  45      9D13FC83 
  45      6C4357B4 
  46 0041 22F861E0 		.ascii	"\"\370a\340\300\250\037\264tK\273\341\207m\364C\347"
  46      C0A81FB4 
  46      744BBBE1 
  46      876DF443 
  46      E7
  47 0052 2822C2EC 		.ascii	"(\"\302\354V\205V\207\361\334{\337}\371\323\326v\340"
  47      56855687 
  47      F1DC7BDF 
  47      7DF9D3D6 
  47      76E0
  48 0064 0D39F7E4 		.ascii	"\0159\367\344\236\373;\347\374\316=\357\335(\240@\353"
  48      9EFB3BE7 
  48      FCCE3DEF 
  48      DD28A040 
  48      EB
  49 0075 38415F35 		.ascii	"8A_5\010\3607\315\270\015P\231\250\002\224\002\212n"
  49      08F037CD 
  49      B80D5099 
  49      A8029402 
  49      8A6E
  50 0087 CEB5831B 		.ascii	"\316\265\203\033P\271\324\2704\270\324\305:\206\304"
  50      50B9D4B8 
  50      34B8D4C5 
  50      3A86C4
  51 0096 460D4DA1 		.ascii	"F\015M\241\350h\010\305\220+&\006\204\022P\254\361\037"
  51      E86808C5 
  51      902B2606 
  51      841250AC 
  51      F11F
  52 00a8 00DC50B0 		.ascii	"\000\334P\260l\202\273\315\022\353O\004\245\217\020"
  52      6C82BBCD 
  52      12EB4F04 
  52      A58F10
  53 00b7 22530061 		.ascii	"\"S\000aTQ5\3350\003V0\204\243\317!K\020\037\200\263"
  53      545135DD 
  53      30035630 
  53      84A3CF21 
  53      4B101F80 
  54 00cc AE7B7261 		.ascii	"\256{ra\361\267_\361=\267R>\343\336\255\325\020\035"
  54      F1B75FF1 
  54      3DB7523E 
  54      E3DEADD5 
ARM GAS  /tmp/cclD5DnM.s 			page 4


  54      101D
  55 00de 24327B11 		.ascii	"$2{\021l\204g\351\007\306\371\244h\315\354\276P*\013"
  55      6C8467E9 
  55      07C6F9A4 
  55      68CDECBE 
  55      502A0B
  56 00f1 B5DAC5B7 		.ascii	"\265\332\305\267\377\274q\025\273vh\230G0\301A\"\354"
  56      FFBC7115 
  56      BB766898 
  56      4730C141 
  56      22EC
  57 0103 A06631D1 		.ascii	"\240f1\321IB\0173\021!\001]Lt3\021\205$\236\245\340"
  57      49420F33 
  57      1121015D 
  57      4C743311 
  57      85249EA5 
  58 0118 316FEEA1 		.ascii	"1o\356\241Ec;\023\275\314LC\207\262\353N\304\201\345"
  58      45633B13 
  58      BDCC4C43 
  58      87B2EB4E 
  58      C481E5
  59 012b 40E320C9 		.ascii	"@\343 \311\305\000\014\240B\223Z\205c\267o\235\272\331"
  59      C5000CA0 
  59      42935A85 
  59      63B76F9D 
  59      BAD9
  60 013d E36F4AE2 		.ascii	"\343oJ\342G\250sB\364yYeG\241\212\363\350\2031\374\320"
  60      47A87342 
  60      F4795965 
  60      47A18AF3 
  60      E88331FC 
  61 0152 7D779F83 		.ascii	"}w\237\203&\373\311x\004\342L\363\355ox\366\240`u\011"
  61      26FBC978 
  61      04E24CF3 
  61      ED6F78F6 
  61      A0607509 
  62 0166 8E5D9F3F 		.ascii	"\216]\237?s\356~\3412\213\346.\330\351`\350\003x\237"
  62      73EE7EE1 
  62      328BE62E 
  62      D8E960E8 
  62      03789F
  63 0179 A0561635 		.ascii	"\240V\0265\346BlM\241,\305Ex\255\242\372\2107a\274T"
  63      E6426C4D 
  63      A12CC545 
  63      78ADA2FA 
  63      883761BC 
  64 018e 763B1C3A 		.ascii	"v;\034:r\032i\024\333\304j\345J\230\326\231\017U\030"
  64      721A6914 
  64      DBC46AE5 
  64      4A98D699 
  64      0F5518
  65 01a1 9546E3BC 		.ascii	"\225F\343\274oT\271Qm4\236\214H\243\306\215Z\243\361"
  65      6F54B951 
  65      6D349E8C 
  65      48A3C68D 
  65      5AA3F1
  66 01b4 0F1FA973 		.ascii	"\017\037\251s\243\336h\374\3077\232\015H1\006(\310\015"
ARM GAS  /tmp/cclD5DnM.s 			page 5


  66      A3DE68FC 
  66      C7379A0D 
  66      48310628 
  66      C80D
  67 01c6 5467A855 		.ascii	"Tg\250U\274t\250\272_\336:e\377Wq\2238I0^Lh(f\022?\305"
  67      BC74A8BA 
  67      5FDE3A65 
  67      FF577193 
  67      3849305E 
  68 01e1 BE46D79A 		.ascii	"\276F\327\232t-|pB\274\300\027\316=-\313\025\344\005"
  68      742D7C70 
  68      42BCC017 
  68      CE3D2DCB 
  68      15E405
  69 01f4 D676C194 		.ascii	"\326v\301\224K\343U\007\357[\277\326\350\315\3621#?"
  69      4BE35507 
  69      EF5BBFD6 
  69      E8CDF231 
  69      233F
  70 0206 E797A2C2 		.ascii	"\347\227\242\302\013!J\004\266\034l#\207\014\325\016"
  70      0B214A04 
  70      B61C6C23 
  70      870CD50E 
  71 0216 F2B8DBEA 		.ascii	"\362\270\333\352\351\350\255\351\350\"\235\225\317\177"
  71      E9E8ADE9 
  71      E8229D95 
  71      CF7F
  72 0224 D6653A56 		.ascii	"\326e:VS:\247\361^\362\271~wj\365\223\320\332\302e\261"
  72      533AA7F1 
  72      5EF2B97E 
  72      776AF593 
  72      D0DAC265 
  73 0239 5364483D 		.ascii	"SdH=\321A!\230\233\316\200\204\035\037;^H\342\005\036"
  73      D1412198 
  73      9BCE8084 
  73      1D1F3B5E 
  73      48E2051E 
  74 024d 3D4C5B99 		.ascii	"=L[\231\265\003\205\307\375\302\260\001\232\366Kj\006"
  74      B50385C7 
  74      FDC2B001 
  74      9AF64B6A 
  74      06
  75 025e 7CA73651 		.ascii	"|\2476Q\323\274\214nN\277\376=\372)\011\2452\263\370"
  75      D3BC8C6E 
  75      4EBFFE3D 
  75      FA2909A5 
  75      32B3F8
  76 0271 B12EF3B3 		.ascii	"\261.\363\263\005\223,F\004\347\205\323\325\237z\014"
  76      05932C46 
  76      04E785D3 
  76      D59F7A0C 
  77 0281 E2E9076D 		.ascii	"\342\351\007me\2562hEPc1\226\332\222\370\015O\277\213"
  77      65AE3268 
  77      45506331 
  77      96DA92F8 
  77      0D4FBF8B 
  78 0295 176F63A4 		.ascii	"\027oc\244\326\214\234^\262\004\322\253\366\343-\330"
ARM GAS  /tmp/cclD5DnM.s 			page 6


  78      D68C9C5E 
  78      B204D2AB 
  78      F6E32DD8 
  79 02a5 C8FA588A 		.ascii	"\310\372X\212#\002_\235\0327d\350\356\3777t\367\372"
  79      23025F9D 
  79      1A3764E8 
  79      EEFF3774 
  79      F7FA
  80 02b7 84292759 		.ascii	"\204)'Yq\023\312fS\305Q\364\344\374W\223;\305\222\347"
  80      7113CA66 
  80      53C551F4 
  80      E4FC5793 
  80      3BC592E7 
  81 02cb FA1107C3 		.ascii	"\372\021\007\303\236jm\332M\272\337\267\341\232\034"
  81      9E6A6DDA 
  81      4DBADFB7 
  81      E19A1C
  82 02da 382A3CAF 		.ascii	"8*<\257\374\276*OR\2746\345y\272_O\366\325\217\2237"
  82      FCBE2A4F 
  82      52BC36E5 
  82      79BA5F4F 
  82      F6D58F93 
  83 02ef A40858A9 		.ascii	"\244\010X\251U\025\361\362Z\277(\374\231\235eA\331j"
  83      5515F1F2 
  83      5ABF28FC 
  83      999D6541 
  83      D96A
  84 0301 A8FEA404 		.ascii	"\250\376\244\004\200.\015\225\327\370\316\267\230\304"
  84      802E0D95 
  84      D7F8CEB7 
  84      98C4
  85 030f 2AAF71CC 		.ascii	"*\257q\314\243\361hK\261\242k\012=[\357\216\225;\267"
  85      A3F1684B 
  85      B1A26B0A 
  85      3D5BEF8E 
  85      953BB7
  86 0322 7D073DFC 		.ascii	"}\007=\374\220\"\215\330X#\326h\301N\264K\344\366\265"
  86      90228DD8 
  86      5823D668 
  86      C14EB44B 
  86      E4F6B5
  87 0335 486D23E4 		.ascii	"Hm#\344\217P\376\245d\3721\011,\211]\203\350Q\370\313"
  87      8F50FEA5 
  87      64FA3109 
  87      2C895D83 
  87      E851F8CB 
  88 0349 1D732B6F 		.ascii	"\035s+o\235\210:\254]9\237\243\016k\037\256\036r0\232"
  88      9D883AAC 
  88      5D399FA3 
  88      0E6B1FAE 
  88      1E72309A 
  89 035d 4723C5AE 		.ascii	"G#\305\256\013\317a\212\275\344<\335\233\314\034%n}"
  89      0BCF618A 
  89      BDE43CDD 
  89      9BCC1C25 
  89      6E7D
  90 036f B6FA3CBB 		.ascii	"\266\372<\273\231,\240\013\030\007\350\002\241\206`"
ARM GAS  /tmp/cclD5DnM.s 			page 7


  90      992CA00B 
  90      1807E802 
  90      A18660
  91 037e AD757E59 		.ascii	"\255u~Y2\256\037\373&\2159+\232+\346\365\365\362eE\246"
  91      32AE1FFB 
  91      268D392B 
  91      9A2BE6F5 
  91      F5F26545 
  92 0393 DFBBB6AF 		.ascii	"\337\273\266\257ckz\263^\262\3519s\353\241\325\206\320"
  92      636B7AB3 
  92      5EB2E939 
  92      73EBA1D5 
  92      86D0
  93 03a5 BD1C3EB3 		.ascii	"\275\034>\263\262|Mkr0\262\265\340Y\357\2053=g5\301"
  93      B27C4D6B 
  93      7230B2B5 
  93      E059EF85 
  93      333D6735 
  94 03ba 1F6B81F7 		.ascii	"\037k\201\367nD]\343\027\317\246\327\372Vo\236\020\373"
  94      6E445DE3 
  94      17CFA6D7 
  94      FA566F9E 
  94      10FB
  95 03cc 9F70194A 		.ascii	"\237p\031JKW\336\351\366\335\360q\220\236\265\305\000"
  95      4B57DEE9 
  95      F6DDF071 
  95      909EB5C5 
  95      00
  96 03dd 43ED49E4 		.ascii	"C\355I\344\206\362\231\204=\224>\222Hg^J\3309'\345\014"
  96      86F29984 
  96      3D943E92 
  96      48675E4A 
  96      D83927E5 
  97 03f2 1513C385 		.ascii	"\025\023\303\205\221\301\027\022\244\024\206\023\305"
  97      91C11712 
  97      A4148613 
  97      C5
  98 03ff 824DEB45 		.ascii	"\202M\353E;\227\336m\203b\037\336\267\031&\363\312p"
  98      3B97DE6D 
  98      83621FDE 
  98      B71926F3 
  98      CA70
  99 0411 E2C903FD 		.ascii	"\342\311\003\375\373\373\023\316\240\375\342H\232\355"
  99      FBFB13CE 
  99      A0FDE248 
  99      9AED
 100 041f 2D640ED9 		.ascii	"-d\016\331\371\247F\006\355\3359\3508\320\377L<\225"
 100      F9A74606 
 100      EDDD39E8 
 100      38D0FF4C 
 100      3C95
 101 0431 2C660E17 		.ascii	",f\016\027\234\207\342\017\356\001\245\000f>\223\037"
 101      9C87E20F 
 101      EE01A500 
 101      663E931F 
 102 0441 2A1C81BD 		.ascii	"*\034\201\275[H\310\367\232+f\362\344\357\341{\3030"
 102      5B48C8F7 
ARM GAS  /tmp/cclD5DnM.s 			page 8


 102      9A2B66F2 
 102      E4EFE17B 
 102      C330
 103 0453 2239F817 		.ascii	"\"9\370\027Q\353a}"
 103      51EB617D 
 104              		.text
 105              		.section	.gnu.lto__scheduler_init.aa8a28c3b75f4c1d,"",%progbits
 106 0000 789C6362 		.ascii	"x\234cb`b@\007\222@\374\022(\234\016\244\031\231\031"
 106      60624007 
 106      9240FC12 
 106      289C0EA4 
 106      199919
 107 0013 1899269C 		.ascii	"\030\231&\234c`h\344`bd\0041\030\030\031\352\231\030"
 107      636068E4 
 107      60626404 
 107      31181819 
 107      EA9918
 108 0026 EB2319C1 		.ascii	"\353#\031\301j\3273\035x\360\377\377\272)m\363\3460"
 108      6AD7331D 
 108      78F0FFFF 
 108      BA296DF3 
 108      E630
 109 0038 CE64E200 		.ascii	"\316d\342\000\212\2602\26444LP``H\006\253\010\001\222"
 109      8AB032B4 
 109      34344C50 
 109      60604806 
 109      AB080192 
 110 004c 206DA18C 		.ascii	" m\241\214L \232\371,C\323\351?\263\316<g\207\253\203"
 110      4C209AF9 
 110      2C43D3E9 
 110      3FB3CE3C 
 110      6787AB83 
 111 0060 300E741F 		.ascii	"0\016t\037\273\310\314\300\220\310\270\220\221\025\250"
 111      BBC8CCC0 
 111      90C8B890 
 111      9115A8
 112 006f 15AC579B 		.ascii	"\025\254W\233aUCC\303\203\353\017\367\350f22\314f\230"
 112      61554343 
 112      C383EB0F 
 112      F7E86632 
 112      32CC6698 
 113 0083 D5D8D020 		.ascii	"\325\330\320 \220\311\310X\315\360\253\241\003\304b"
 113      90C9C858 
 113      CDF0ABA1 
 113      03C462
 114 0092 CA05AB8B 		.ascii	"\312\005\253\213`\314\004\272\023\004\222@\374D\306"
 114      60CC04BA 
 114      13049240 
 114      FC44C6
 115 00a1 C5403318 		.ascii	"\305@3\030 \252\036\264>~\001\222\206\230\325\020\017"
 115      20AA1EB4 
 115      3E7E0192 
 115      8698D510 
 115      0F
 116 00b2 D40E6506 		.ascii	"\324\016e\006g2\262\000\365'A\354\002\322\220\220\200"
 116      6732B200 
 116      F52741EC 
ARM GAS  /tmp/cclD5DnM.s 			page 9


 116      02D29090 
 116      80
 117 00c3 B8000880 		.ascii	"\270\000\010\200.=\011ti;k\"\343\"\240\010T\027?\321"
 117      2E3D0974 
 117      693B6B22 
 117      E322A008 
 117      54173FD1 
 118 00d7 2E61A6A6 		.ascii	".a\246\246Kv\354x|\203\011\"\000\325d\236\311\310\012"
 118      4B76EC78 
 118      7C830922 
 118      00D5649E 
 118      C9C80A
 119 00ea 657203F5 		.ascii	"er\003\365\303\335\304\206\315MLP\203a\026\2600\300"
 119      C3DDC486 
 119      CD4D4C50 
 119      836116B0 
 119      30C0
 120 00fc 646016FC 		.ascii	"d`\026\374j\336\337\343\217bA-\320\247Pf!\311\026\200"
 120      6ADEDFE3 
 120      8F62412D 
 120      D0A75066 
 120      21C91680 
 121 0110 8D857ABC 		.ascii	"\215\205z\274\3416P\001;\324\250\217\214\250\236e\200"
 121      E1365001 
 121      3BD4A88F 
 121      8CA89E65 
 121      80
 122 0121 05F5046E 		.ascii	"\005\365\004nt\3571\220\355=6\222l\277\310\320\370`"
 122      74EF3190 
 122      ED3D3692 
 122      6CBFC8D0 
 122      F860
 123 0133 A6323CB4 		.ascii	"\2462<\264\031 \311\226\021\224\\A\006\033\350g\344"
 123      1920C996 
 123      11945C41 
 123      061BE867 
 123      E4
 124 0144 E7A6EA27 		.ascii	"\347\246\352'\347\247T\352\247\244\226\351'gd&e\346"
 124      E7A754EA 
 124      A7A496E9 
 124      27676426 
 124      65E6
 125 0156 17EB9714 		.ascii	"\027\353\227\024\225\346e\353\003\031E%\372\305E\311"
 125      95E665EB 
 125      03194525 
 125      FAC545C9 
 126 0166 40F1E2E4 		.ascii	"@\361\342\344\214\024\275d\006\023\"4d\346%\347\224"
 126      8C14BD64 
 126      06132234 
 126      64E625E7 
 126      94
 127 0177 A6A4C234 		.ascii	"\246\244\3024e0\000\000\035\037\341\027"
 127      65300000 
 127      1D1FE117 
 128              		.text
 129              		.section	.gnu.lto_chSchReadyI.aa8a28c3b75f4c1d,"",%progbits
 130 0000 789C8D52 		.ascii	"x\234\215RAk\023A\030\375\336\314N\266\333*\036\004"
ARM GAS  /tmp/cclD5DnM.s 			page 10


 130      416B1341 
 130      18FDDECC 
 130      4EB6DB2A 
 130      1E04
 131 0012 CFC5630B 		.ascii	"\317\305c\013]A<\210^\374\017\006\364\244\315\246$\203"
 131      5D413C88 
 131      5EFC0F06 
 131      F4A4CDA6 
 131      2483
 132 0024 C448D20A 		.ascii	"\304H\322\012\322C'%\207\036\012\215\336Z/\026o\"x\361"
 132      D2432725 
 132      871E0A8D 
 132      DE5A2F16 
 132      6F2278F1 
 133 0038 D0633CD9 		.ascii	"\320c<\331\"\212\275%\236\202 R\024\244\015B*B\374f"
 133      228ABD25 
 133      9E822052 
 133      14A40D42 
 133      2A42FC66 
 134 004c 67B32635 		.ascii	"g\263&5P\007v\276ogx\357{\357\355\012\022tr]\347gN\022"
 134      500776BE 
 134      6F6778EF 
 134      7BEFED0A 
 134      1274725D 
 135 0064 5DE18A0C 		.ascii	"]\341\212\014A4>\020\325&\004\244k\244P\353o\211\314"
 135      41343E10 
 135      D52604A4 
 135      6BA450EB 
 135      6F89CC
 136 0077 A457F7C9 		.ascii	"\244W\367\311\234Q\356\374\206\007\330J\240\025!\225"
 136      9C51EEFC 
 136      8607D84A 
 136      A0152195 
 137 0087 8795DBB0 		.ascii	"\207\225\333\260l\270H\333\306<\351|\371v\200M\323\254"
 137      6CB848DB 
 137      C63CE97C 
 137      F976804D 
 137      D3AC
 138 0099 3F33BFFB 		.ascii	"?3\277\373}@\203'_\006E\240[\374\202\351\270\010oT\312"
 138      7D408327 
 138      5F0645A0 
 138      5BFC82E9 
 138      B8086F54 
 139 00ae 2BD1ECF4 		.ascii	"+\321\354\364\373\337\177\276\376\334\306\371\263\240"
 139      FBDF7FBE 
 139      FEDCC6F9 
 139      B3A0
 140 00bc 796C339F 		.ascii	"yl3\237D\011\244\222\227\014iH\337n\001o\026\244\250"
 140      4409A492 
 140      970C6948 
 140      DF6E016F 
 140      16A4A8
 141 00cf 6E4C63DA 		.ascii	"nLc\332]\223\235\300\353&\357,7\013\301E\276\247\325"
 141      5D939DC0 
 141      EB26EF2C 
 141      370BC145 
 141      BEA7D5
ARM GAS  /tmp/cclD5DnM.s 			page 11


 142 00e2 9DDE8F63 		.ascii	"\235\336\217c\314\3439\024\315\322\013\303kJ\303{J["
 142      CCE33914 
 142      CDD20BC3 
 142      6B4AC37B 
 142      4A5B
 143 00f4 2C431520 		.ascii	",C\025 \255\034'\"\227T{\222\352\313B\022\333\265L\237"
 143      AD1C2722 
 143      97547B92 
 143      EACB4212 
 143      DBB54C9F 
 144 0108 5A476F12 		.ascii	"ZGo\022\246\002TBv\225\321)\031\206\311\222\206,\262"
 144      A6025442 
 144      7695D129 
 144      1986C992 
 144      862CB2
 145 011b 77749822 		.ascii	"wt\230\"3\2634\243\221IAj\030$\206@\215s\003\210\177"
 145      33B334A3 
 145      9149416A 
 145      18248640 
 145      8D730388 
 146 0130 0222C741 		.ascii	"\002\"\307Av\251\376\265\346\247S\0305\360\320&,\323"
 146      76A9FEB5 
 146      E6A75318 
 146      35F0D026 
 146      2CD3
 147 0142 2FB3669A 		.ascii	"/\263f\232\2177.h\313\026K_\326\230H\332;\032A\011\310"
 147      8F372E68 
 147      CB164B5F 
 147      D69848DA 
 147      3B1A4109 
 148 0157 B159479A 		.ascii	"\261YG\232\372\027EV\250^\036\337\265\321*\342\037\002"
 148      FA174556 
 148      A85E1EDF 
 148      B5D12AE2 
 148      1F02
 149 0169 59BE75D9 		.ascii	"Y\276u\331\356\355t\017\377\311\226\306\313t\015\223"
 149      EEED740F 
 149      FFC996C6 
 149      CB740D93 
 150 0179 3973ADEE 		.ascii	"9s\255\356\276\030h\015b{4>\021\3657\221\275\217\376"
 150      BE18680D 
 150      627B343E 
 150      11F53791 
 150      BD8FFE
 151 018c 7F0E53C9 		.ascii	"\177\016S\311\260 \306\275\353u\333\336\010r\351\224"
 151      B020C6BD 
 151      EB75DBDE 
 151      0872E994 
 152 019c 71051B44 		.ascii	"q\005\033D<qj\004wm\030\027\214\263\307\270}\252uZ\205"
 152      3C716A04 
 152      776D1817 
 152      8CB3C7B8 
 152      7DAA755A 
 153 01b1 81399728 		.ascii	"\2019\227(\207\007\016\315~\253Ka\261\\Z\010\243r\376"
 153      87070ECD 
 153      7EAB4B61 
 153      B15C5A08 
ARM GAS  /tmp/cclD5DnM.s 			page 12


 153      A372FE
 154 01c4 51985F78 		.ascii	"Q\230_x\030FE\235\323\345j\270XY\272\177/\344\246\262"
 154      1846459D 
 154      D3E56AB8 
 154      5859BA7F 
 154      2FE4A6B2 
 155 01d8 18562B11 		.ascii	"\030V+\021\237W\243b~.\"\021=\370\003\201\300\307}"
 155      9F57A362 
 155      7E2E2211 
 155      3DF80381 
 155      C0C77D
 156              		.text
 157              		.section	.gnu.lto_chSchGoSleepS.aa8a28c3b75f4c1d,"",%progbits
 158 0000 789CA552 		.ascii	"x\234\245R\317k\023A\024~o6\033\263+J\301SO\226\336"
 158      CF6B1341 
 158      147E6F36 
 158      1BB32B4A 
 158      C1534F96 
 159 0015 6CA96BA9 		.ascii	"l\251k\251\336\374\007<\012\012zL'a3\330$%I\205\"\322"
 159      DEFC073C 
 159      0A0A7A4C 
 159      276133D8 
 159      24254985 
 160 002b 498DD043 		.ascii	"I\215\320C\321\352\251\332\213%-E\361\3271\307\010\012"
 160      D1EAA9DA 
 160      8B252D45 
 160      F1D731C7 
 160      080A
 161 003d 2D45AB9E 		.ascii	"-E\253\236\244\027\327\203\007o\2365t}og\263M\252\240"
 161      A417D783 
 161      076F9E35 
 161      747D6F67 
 161      B34DAAA0 
 162 0051 D881DDF7 		.ascii	"\330\201\335\367f\230\357{\337{\337\010\020pp\015\322"
 162      6698EF7B 
 162      DF7BDF08 
 162      1070700D 
 162      D2
 163 0062 B7660194 		.ascii	"\267f\001\224(\242\005(\226\336\001\3243\002\221\023"
 163      28A20528 
 163      96DE01D4 
 163      33029113 
 164 0072 40981338 		.ascii	"@\230\0238w\025\371\252\030\206U\255\357\007\353?\277"
 164      7715F9AA 
 164      188655AD 
 164      EF07EB3F 
 164      BF
 165 0083 E103DD6E 		.ascii	"\341\003\335n<\322\2350DTH\264\023\010\022\341\012m"
 165      3CD29D30 
 165      445448B4 
 165      130812E1 
 165      0A6D
 166 0095 70280A22 		.ascii	"p(\012\"\325_'\306~~\374\372\013\336\273\2457u\243M"
 166      D55F27C6 
 166      7E7EFCFA 
 166      0BDEBBA5 
 166      3775A34D 
ARM GAS  /tmp/cclD5DnM.s 			page 13


 167 00a9 E0931178 		.ascii	"\340\223\021x\352o\340\027\242\035\204\341\363O;\033"
 167      EA6FE017 
 167      A21D84E1 
 167      F34F3B1B 
 168 00b9 1DDC14C7 		.ascii	"\035\334\024\307\004dq\025\207\301\302\"\202C\233&m"
 168      04647115 
 168      87C1C222 
 168      82439B26 
 168      6D
 169 00ca 5C50914A 		.ascii	"\\P\221J\033\032Z/\015\231\033\300\304\264.\321\237"
 169      1B1A5A2F 
 169      0D991BC0 
 169      C4B42ED1 
 169      9F
 170 00db FBB98C82 		.ascii	"\373\271\214\202\243\365\026\346w[{\2570\213\353h\203"
 170      A3F516E6 
 170      775B7BAF 
 170      308BEB68 
 170      83
 171 00ec 8F62149E 		.ascii	"\217b\024\236hZ\347\210c\024F\024Z+\360\260\256\365"
 171      685AE788 
 171      63144614 
 171      5A2BF0B0 
 171      AEF5
 172 00fe 80C2D40D 		.ascii	"\200\302\324\015\370\241\0278\263\213\310d,\320\216"
 172      F8A11738 
 172      B38BC864 
 172      2CD08E
 173 010d 644D22C4 		.ascii	"dM\"\3041N\200x\267\337\0377\2541\345E\205i\"#\320\021"
 173      314E8078 
 173      B7DF1F37 
 173      AC31E545 
 173      85692223 
 174 0123 AAC3E02E 		.ascii	"\252\303\340.\310\230\341\323\324\031\267\333Yy\263"
 174      C898E1D3 
 174      D419B7DB 
 174      5979B3
 175 0132 7C3E51DF 		.ascii	"|>Q\337\214\324\233m{;\234\0000\254\322\324\362\321"
 175      8CD49B6D 
 175      7B3B9C00 
 175      30ACD2D4 
 175      F2D1
 176 0144 31FC66A2 		.ascii	"1\374f\242\202X\023\305\231?)v\342\242\026\023=3\015"
 176      825813C5 
 176      993F2976 
 176      E2A21613 
 176      3D330D
 177 0157 70D5E5E6 		.ascii	"p\325\345\346\342X\026\237FSp\243\326\367\211H\260\323"
 177      E258169F 
 177      465370A3 
 177      D6F78948 
 177      B0D3
 178 0169 2B38D58F 		.ascii	"+8\325\217\335z\351\032d\334\351\370\177\210\240\242"
 178      DD7AE91A 
 178      64DCE9F8 
 178      7F88A0A2 
 179 0179 666ADF4F 		.ascii	"fj\337O\364q\335<\240\303\355\325a'pS$\370\032\016*"
ARM GAS  /tmp/cclD5DnM.s 			page 14


 179      F471DD3C 
 179      A0C3EDD5 
 179      61277053 
 179      24F81A0E 
 180 018e 1E08A9CF 		.ascii	"\036\010\251\317\030\373\250\346\276;\351(\232\371\031"
 180      18FBA8E6 
 180      BE3BE928 
 180      9AF919
 181 019d E917BA16 		.ascii	"\351\027\272\026\215\034\312p\237;\"\272V\253\371Q\364"
 181      8D1CCA70 
 181      9F3B22BA 
 181      56ABF951 
 181      F4
 182 01ae B93EDEEB 		.ascii	"\271>\336\353\272\363\273\353|\222\346\263\035\270\035"
 182      BAF3BBEB 
 182      7C92E6B3 
 182      1DB81D
 183 01bd DC515D6D 		.ascii	"\334Q]mIiW&\317\303\361\331\336\243\000\037\240\036"
 183      49695726 
 183      CFC3F1D9 
 183      DEA3001F 
 183      A01E
 184 01cf DC3D95B4 		.ascii	"\334=\225\264\001\346a#?h\276{\306+\224\213yO\226s\263"
 184      01E66123 
 184      3F68BE7B 
 184      C62B948B 
 184      794F9673 
 185 01e4 5E2E7FDD 		.ascii	"^.\177\335\223\0055\251\312U\257V\231)]\363(\251\324"
 185      930535A9 
 185      CA55AF56 
 185      99295DF3 
 185      28A9D4
 186 01f7 BC6A45D2 		.ascii	"\274jE\322yU\026r\247%X\345\332\364\331\177\000\251"
 186      79551672 
 186      A72558E5 
 186      DAF4D97F 
 186      00A9
 187 0209 929C9AC9 		.ascii	"\222\234\232\311\345\273\300\002\210\332\364/\220\221"
 187      E5BBC002 
 187      88DAF42F 
 187      9091
 188 0217 FB5F     		.ascii	"\373_"
 189              		.text
 190              		.section	.gnu.lto_chSchGoSleepTimeoutS.aa8a28c3b75f4c1d,"",%progbits
 191 0000 789CA552 		.ascii	"x\234\245R\315kSA\020\237\331}\037\371N\374\310Y\361"
 191      CD6B5341 
 191      109FD97D 
 191      1FF94EFC 
 191      C859F1
 192 0013 68D5A758 		.ascii	"h\325\247X\241\027\361\237h\241=\246/%Y$F\222X\320\036"
 192      A117F19F 
 192      68A13DA6 
 192      2F255924 
 192      469258D0 
 193 0028 BA9194E6 		.ascii	"\272\221\224\346fN\212VLK=\211\340\301\213xzz\022DE"
 193      664E8A56 
 193      4C4B3D89 
ARM GAS  /tmp/cclD5DnM.s 			page 15


 193      E0C18B78 
 193      7A7A1244 
 194 003d 4FD25320 		.ascii	"O\322S \007\301z\351\301\213T\2363o\337\013\326\"\036"
 194      07C17AE9 
 194      C18B549E 
 194      336FDF0B 
 194      D6221E
 195 0050 5C783BB3 		.ascii	"\\x;\263og~\277\337\314\216\000\001\177\2569\372\346"
 195      6F677EBF 
 195      DFCC8E00 
 195      017FAE39 
 195      FAE6
 196 0062 25C025B2 		.ascii	"%\300%\262\230\002\024\203\367\000\335\224\020r8\003"
 196      98021483 
 196      F700DD94 
 196      10723803 
 197 0072 3AE3EC95 		.ascii	":\343\354\225A\347\244\2606.\323\311\376^\242\223\205"
 197      41E7A4B0 
 197      362ED3C9 
 197      FE5EA293 
 197      85
 198 0083 B609B2D1 		.ascii	"\266\011\262\3215\216\2238.\";\200\260*\244e;.\256."
 198      358E9338 
 198      2E223B80 
 198      B02AA465 
 198      3B2EAE2E 
 199 0097 20D3E029 		.ascii	" \323\340)\330\322\301`\2646\376*\272:\350m\352\375"
 199      D8D2C160 
 199      B436FE2A 
 199      BA3AE86D 
 199      EAFD
 200 00a9 30445448 		.ascii	"0DTH\222.\"\370\010\363t\300Mc\305\361\203\"\237\211"
 200      922E22F8 
 200      08F374C0 
 200      4D63C5F1 
 200      83229F89 
 201 00bd 601486FB 		.ascii	"`\024\206\373\303\237\343GX.Jl \330\240P\272\344a\232"
 201      C39FE347 
 201      582E4A6C 
 201      20D8A050 
 201      BAE4619A 
 202 00d1 3C2BCFC7 		.ascii	"<+\317\307\002m6\205\333\320\323zp\022\030\226\326,"
 202      026D3685 
 202      DBD0D37A 
 202      70121896 
 202      D62C
 203 00e3 EDAC6A0E 		.ascii	"\355\254j\016\005[\371\006z\337^\335\273++\270M\341"
 203      055BF906 
 203      7ADF5EDD 
 203      BB2B2BB8 
 203      4DE1
 204 00f5 35944CE9 		.ascii	"5\224L\351\204\241\374\275-(a8#\337\301\355\235\317"
 204      84A1FCBD 
 204      2D286138 
 204      23DFC1ED 
 204      9DCF
 205 0107 E31D2B46 		.ascii	"\343\035+F\254\340\026\025\002`2i\325\320\236\202\323"
ARM GAS  /tmp/cclD5DnM.s 			page 16


 205      ACE01615 
 205      02603269 
 205      D5D09E82 
 205      D3
 206 0118 441DEDEE 		.ascii	"D\035\355\356\006<\350j]R\230Z\201\037\272\317^\272"
 206      063CE86A 
 206      5D52985A 
 206      811FBACF 
 206      5EBA
 207 012a 81DC74A6 		.ascii	"\201\334t\246HG\310\213\010\261\215\035\370\000\353"
 207      4847C88B 
 207      08B18D1D 
 207      F800EB
 208 0139 C1890A3E 		.ascii	"\301\211\012>\216 '\211\031?\016X\201[\012\263\206:"
 208      8E202789 
 208      193F0E58 
 208      815B0AB3 
 208      863A
 209 014b 8E22CD1C 		.ascii	"\216\"\315\034\227\242\302}\024\223\237\266\302\034"
 209      97A2C27D 
 209      14939FB6 
 209      C21C
 210 0159 C3F54677 		.ascii	"\303\365Fw\336f\016\001\346}4\025\326\320UX\000\240"
 210      DE660E01 
 210      E67D3415 
 210      D6D05558 
 210      00A0
 211 016b E25EAE8D 		.ascii	"\342^\256\215\237\2365\2215L\223|\222Y\344\214\250\212"
 211      9F9E3591 
 211      354C937C 
 211      9259E48C 
 211      A88A
 212 017d 6C526F24 		.ascii	"lRo$?\233K\350\001\270\205\335\013\223D\276.\036\230"
 212      3F9B4BE8 
 212      01B885DD 
 212      0B9344BE 
 212      2E1E98
 213 0190 2AB4A07F 		.ascii	"*\264\240\177F\262\224\373\273\207\245\224|\272\377"
 213      46B294FB 
 213      BB87A594 
 213      7CBAFF
 214 019f 4B6D0A8F 		.ascii	"Km\012\217$\030\266y\202\327\273q\211&n\032\236\353"
 214      2418B679 
 214      82D7BB71 
 214      89266E1A 
 214      9EEB
 215 01b1 3E4FCE84 		.ascii	">O\316\204\313\201\275r\304\365\220\313\336\376G\331"
 215      CB81BD72 
 215      C4F590CB 
 215      DEFE47D9 
 216 01c1 26C78D46 		.ascii	"&\307\215F\201\337\367\305\227O\230\214B\376\377_\223"
 216      81DFF7C5 
 216      974F988C 
 216      42FEFF5F 
 216      93
 217 01d2 21AF2778 		.ascii	"!\257'x\205)xB\275\324\013\212\007%r\257(<j\032}\214"
 217      85297842 
ARM GAS  /tmp/cclD5DnM.s 			page 17


 217      BDD40B8A 
 217      072572AF 
 217      283C6A1A 
 218 01e8 F81849C6 		.ascii	"\370\030I\306\010\"\266\311\034~\204n0\031\322X\370"
 218      0822B6C9 
 218      1C7E846E 
 218      3019D258 
 218      F8
 219 01f9 2CF19070 		.ascii	",\361\220p\016=\357\325\233\215%\317oVoz\325\245e\317"
 219      0E3DEFD5 
 219      9B8D25CF 
 219      6F566F7A 
 219      D5A565CF 
 220 020d AFAB45D5 		.ascii	"\257\253E\325l{\235\326\215kW=rZ\035\257\335\362\351"
 220      6C7B9DD6 
 220      8D6B573D 
 220      725A1DAF 
 220      DDF2E9
 221 0220 7FDBAF57 		.ascii	"\177\333\257W\317\371 \226;\277\000\023\312\326Z"
 221      CFF92096 
 221      3BBF0013 
 221      CAD65A
 222              		.text
 223              		.section	.gnu.lto_chSchWakeupS.aa8a28c3b75f4c1d,"",%progbits
 224 0000 789CA555 		.ascii	"x\234\245UKO\023Q\024>\347\316tf\332\201R(uM\330h \261"
 224      4B4F1351 
 224      143EE7CE 
 224      7466DA81 
 224      5228754D 
 225 0018 1A638C71 		.ascii	"\032c\214q\305\177\200DW\012\003)\023\203\030\036&\206"
 225      C57F8044 
 225      570A0329 
 225      1383181E 
 225      2686
 226 002a 0503A949 		.ascii	"\005\003\251I\027&\242+_\013\021\335\250\361\265\252"
 226      1726A22B 
 226      5F0B11DD 
 226      A8F1B5AA 
 227 003a BBBA6891 		.ascii	"\273\272h\221\020\021X\001+b\242\211q\241B\214<\214"
 227      10115801 
 227      2B62A289 
 227      71A1428C 
 227      3C8C
 228 004c F5DC7B67 		.ascii	"\365\334{g\206\351+`\274\011\367^\316\314\367\235\357"
 228      86E92B60 
 228      BC09F75E 
 228      CECCF79D 
 228      EF
 229 005d 9CFBDD0E 		.ascii	"\234\373\335\016\003\006\345c\222\376\006\014\200\223"
 229      0306E563 
 229      92FE060C 
 229      8093
 230 006b B4621D20 		.ascii	"\264b\035 \233Z\000\2300\030S2\207\301\211h|\256SP\225"
 230      9B5A0098 
 230      30185332 
 230      87C18968 
 230      7CAE5350 
ARM GAS  /tmp/cclD5DnM.s 			page 18


 231 0080 619545AE 		.ascii	"a\225E\256\317\002\305Ci\235\342\021\031\357\010aX>"
 231      CF02C543 
 231      699DE211 
 231      19EF0861 
 231      583E
 232 0092 D750971B 		.ascii	"\327P\227\033\235\231\362EC\274h\312x\207\341\275\030"
 232      9D99F245 
 232      43BC68CA 
 232      7887E1BD 
 232      18
 233 00a3 46E41B40 		.ascii	"F\344\033@\030g\212\032\011i\272I\261\361s\3105\261"
 233      18678A1A 
 233      0969BA49 
 233      B1F173C8 
 233      35B1
 234 00b5 5698769C 		.ascii	"V\230v\234[\353\237\276~\301;N.\375\300\371],\"\332"
 234      5BEB9FBE 
 234      7EC13B4E 
 234      2EFDC0F9 
 234      5D2C22DA 
 235 00c9 48FA4F20 		.ascii	"H\372O X\010g\351\037l\021\013SK\013\222X\347\265\343"
 235      580867E9 
 235      1F6C110B 
 235      534B0B92 
 235      58E7B5E3 
 236 00dd 84054E21 		.ascii	"\204\005N!X7>D\266\017\356\005\313\255\027\213\367\337"
 236      58373E44 
 236      B60FEE05 
 236      CBAD178B 
 236      F7DF
 237 00ef FCFCB88B 		.ascii	"\374\374\270\213\211\026\005\007\020T\232P\003\033\025"
 237      89160507 
 237      10549A50 
 237      031B15
 238 00fe 9D2630F8 		.ascii	"\235&0\370.Jd\323\330\012\015\356\032\343\301F\376\270"
 238      2E4A64D3 
 238      D80A0DEE 
 238      1AE3C146 
 238      FEB8
 239 0110 89223314 		.ascii	"\211\"3\024\211\273k3\177\222\340Oh\204 \3558S-\300"
 239      89BB6B33 
 239      7F92E04F 
 239      688420ED 
 239      38532DC0 
 240 0124 45D0E8A4 		.ascii	"E\320\350\2449\023\205.R\225\211*\357ar~ks\215u\343"
 240      3913852E 
 240      5295892A 
 240      EF61727E 
 240      6B738D75 
 241 0139 230C413B 		.ascii	"#\014A;<qh\234\262Qu\267\3656\206\356\301]\022\255\245"
 241      3C71689C 
 241      B25175B7 
 241      F53686EE 
 241      C15D12AD 
 242 014e 50E1E2A5 		.ascii	"P\341\342\245\344\036\177\225\233\024RMD\266\226\375"
 242      E41E7F95 
 242      9B14524D 
ARM GAS  /tmp/cclD5DnM.s 			page 19


 242      44B696FD 
 243 015e B58C922C 		.ascii	"\265\214\222,\205Z;\264\331\250W\307{~\340\240E\323"
 243      855A3BB4 
 243      D9A857C7 
 243      7B7EE0A0 
 243      45D3
 244 0170 83E80202 		.ascii	"\203\350\002\002b6\0108\34181\033\303c\260\343d\370"
 244      62360838 
 244      E138311B 
 244      C363B0E3 
 244      64F8
 245 0182 2E322080 		.ascii	".2 \200\234(\342\022)\356\252\006\010\277G=B\243L\203"
 245      9C28E212 
 245      29EEAA06 
 245      08BF473D 
 245      42A34C83 
 246 0196 5E4DC33B 		.ascii	"^M\303;H\177\236\250\367e\023j\357p\272(AZ\347\215\312"
 246      487F9EA8 
 246      F765136A 
 246      EF70BA28 
 246      415AE78D 
 247 01ab 6E7DDB46 		.ascii	"n}\333F\267\233\362\004\274\346:\273\317\217\000H\274"
 247      B79BF204 
 247      BCE63ABB 
 247      CF8F0048 
 247      BC
 248 01bc 253B22FB 		.ascii	"%;\"\373\227+.0\033M\277\220\362&\2048\352\025_x\324"
 248      972B2E30 
 248      1B4DBF90 
 248      F2268438 
 248      EA155F78 
 249 01d1 DCCBA902 		.ascii	"\334\313\251\002y\224'][\331xK\015})\2245\270\247r\232"
 249      7994275D 
 249      5BD9784B 
 249      0D7D2994 
 249      35B8A772 
 250 01e6 18829CD1 		.ascii	"\030\202\234\321 \247\346s\312^lm\374\360\011b~7|lC"
 250      20A7E673 
 250      CA5E6C6D 
 250      FCF00962 
 250      7E377C6C 
 251 01fb 59437CAC 		.ascii	"YC|\254h\212\356!\351\315\230'o\025\242\362@r7o\034"
 251      688AEE21 
 251      E9CD9827 
 251      6F15A2F2 
 251      4072376F 
 252 0210 B2B1CE55 		.ascii	"\262\261\316U5fc\275\273=O\247G'%\016\307%\354A\335"
 252      356663BD 
 252      BB3D4FA7 
 252      4727250E 
 252      C725EC41 
 253 0225 DFBB8BD2 		.ascii	"\337\273\213\322O\351#\317\266/pWF\200n-v\361\006\213"
 253      4FE923CF 
 253      B62F7057 
 253      46806E2D 
 253      76F1068B 
 254 0239 6ECF6537 		.ascii	"n\317e7=\335.\251YV\265R\275j\342\224\205\257l.1O~\243"
ARM GAS  /tmp/cclD5DnM.s 			page 20


 254      3DDD2EA9 
 254      5956B552 
 254      BD6AE294 
 254      85AF6C2E 
 255 0251 F455CDC2 		.ascii	"\364U\315\302\215\322\246\315-\352\007Om\004R7\0128"
 255      8DD2A6CD 
 255      2DEA074F 
 255      6D045237 
 255      0A38
 256 0263 5DA955B5 		.ascii	"]\251U\265\204`\364`\311S\274a\"\277Y\002?S\006o\254"
 256      8460F460 
 256      C953BC61 
 256      22BF5902 
 256      3F53066F 
 257 0278 55BAE219 		.ascii	"U\272\342\031H\253j\332\231\240i\037'\003?\016\322\274"
 257      48AB6ADA 
 257      99A0691F 
 257      27033F0E 
 257      D2BC
 258 028a 00FBFA57 		.ascii	"\000\373\372W\257\360o\241\212\177\3652\377\346\305"
 258      AFF06FA1 
 258      8A7FF532 
 258      FFE6C5
 259 0299 29C46BF8 		.ascii	")\304k\370\267\251\242\234B\271\177%As\245\177\343\025"
 259      B7A9A29C 
 259      42B97F25 
 259      4173A57F 
 259      E315
 260 02ab FE2D94FA 		.ascii	"\376-\224\372W\"\015\002\357\371\267\351\237\374[\010"
 260      57220D02 
 260      EFF9B7E9 
 260      9FFC5B08 
 261 02bb F8B710A8 		.ascii	"\370\267\020\250Y#\377\306M\327\277\246\353_\243\324"
 261      5923FFC6 
 261      4DD7BFA6 
 261      EB5FA3D4 
 262 02cb BFF9DA26 		.ascii	"\277\371\332&\322\253WM\234A\377J\371\211J\377\306+"
 262      D2AB574D 
 262      9C41FF4A 
 262      F9894AFF 
 262      C62B
 263 02dd 2C5428F5 		.ascii	",T(\365\357AS\033\201\324\211\240\177\363\265\375[#"
 263      EF41531B 
 263      81D489A0 
 263      7FF3B5FD 
 263      5B23
 264 02ef 798A37C9 		.ascii	"y\2127\311\363o\276\266\177\023\265J\227\360\371\225"
 264      F36FBEB6 
 264      7F13B54A 
 264      97F0F995 
 265 02ff 9DB66E9C 		.ascii	"\235\266n\234\025\370\377\373\034x\027*{\373\3172\363"
 265      15F8FFFB 
 265      1C78172A 
 265      7BFBCF32 
 265      F3
 266 0310 2885A4E3 		.ascii	"(\205\244\343\322\327U\276L\242\211\322\320<\366\001"
 266      D2D755BE 
ARM GAS  /tmp/cclD5DnM.s 			page 21


 266      4CA289D2 
 266      D03CF601 
 267 0320 AEAD6F3F 		.ascii	"\256\255o?E\011\006\360sG-\367\373Ap\022n\363\237\035"
 267      450906F0 
 267      73472DF7 
 267      FB417012 
 267      6EF39F1D 
 268 0334 69FE30FF 		.ascii	"i\3760\377\262.\301\304\372n\273\177\255\304\350\244"
 268      B22EC1C4 
 268      FA6EBB7F 
 268      ADC4E8A4 
 269 0344 BB958972 		.ascii	"\273\225\211r\324\261d\377\340@_\322\032\354\275\232"
 269      D4B164FF 
 269      E0405FD2 
 269      1AECBD9A 
 270 0354 ECEDBB92 		.ascii	"\354\355\273\222\264\372\355\036{p8924z\351b\2226C#"
 270      B4FAED1E 
 270      7B703839 
 270      32347AE9 
 270      62923643 
 271 0369 C9E1218B 		.ascii	"\311\341!\213\342\303V\177\357Q\013\230u\371/\007\225"
 271      E2C3567F 
 271      EF510B98 
 271      75F92F07 
 271      95
 272 037a 02BC     		.ascii	"\002\274"
 273              		.text
 274              		.section	.gnu.lto_chSchIsPreemptionRequired.aa8a28c3b75f4c1d,"",%progbits
 275 0000 789C9550 		.ascii	"x\234\225P;K\003A\020\236\231\275\273D\260\260\022\354"
 275      3B4B0341 
 275      109E99BD 
 275      BB44B0B0 
 275      12EC
 276 0012 424A45D7 		.ascii	"BJE\327\007\210\177C\210\240X%\227`\016\211\011I\024"
 276      07887F43 
 276      88A05825 
 276      97600E89 
 276      094914
 277 0025 C4221B93 		.ascii	"\304\"\033\223\"e\260\363Q\030\304\306\"v\212]@,\243"
 277      2265B0F3 
 277      5118C4C6 
 277      22768A5D 
 277      402CA3
 278 0038 5829B109 		.ascii	"X)\261\011V\226V\026\"\234\263w\227\020% \016\334\274"
 278      56965616 
 278      229CB377 
 278      97102520 
 278      0EDCBC
 279 004b 6EBE6FBE 		.ascii	"n\276o\276Y\002\202\3376\301\3374\267\2278\242\000\244"
 279      590282DF 
 279      36C1DF34 
 279      B79738A2 
 279      00A4
 280 005d FA3D4039 		.ascii	"\372=@9L\210:\001\204\022ai\015\365(E\241\241\324A\367"
 280      4C883A01 
 280      84126169 
 280      0DF52845 
ARM GAS  /tmp/cclD5DnM.s 			page 22


 280      A1A1D441 
 281 0072 AEF98287 		.ascii	"\256\371\202\207\252U=U_\256\213\350 \323. \330\010"
 281      AA553D55 
 281      5FAE8BE8 
 281      20D32E20 
 281      D808
 282 0084 AB5C60C4 		.ascii	"\253\\`\304\013d\374\334\343c[\037\235\321z\271\246"
 282      0B64FCDC 
 282      E3635B1F 
 282      9DD17AB9 
 282      A6
 283 0095 5CB7E4C1 		.ascii	"\\\267\344\301\026\377\202]R\253\353\272'O7\257\017"
 283      16FF825D 
 283      52ABEBBA 
 283      274F37AF 
 283      0F
 284 00a6 381E2270 		.ascii	"8\036\"pP\010\210c\003\243`\350\302\344\342\214\013"
 284      50088863 
 284      03A360E8 
 284      C2E4E28C 
 284      0B
 285 00b7 8B0B0D35 		.ascii	"\213\013\0155\241\252T=\342O\370\277@\257`\213\261\327"
 285      A1AA543D 
 285      E24FF8BF 
 285      40AF608B 
 285      B1D7
 286 00c9 37AD20E9 		.ascii	"7\255 \351(\332\260\337yn\336R\034\317\321\204\015\244"
 286      28DAB0DF 
 286      796EDE52 
 286      1CCFD184 
 286      0DA4
 287 00db 29986446 		.ascii	")\230dF\317\233\236\267\216\341\250\254\324\230\203"
 287      CF9B9EB7 
 287      8EE1A8AC 
 287      D49883
 288 00ea A13DF854 		.ascii	"\241=\370T5\235\2053\036\231\326\032\366\024&\020\202"
 288      359D8533 
 288      1E99D61A 
 288      F6142610 
 288      82
 289 00fb 8841EC3D 		.ascii	"\210A\354=\262^\360n\365\350\231\370B\261-\363\341\314"
 289      B25EF06E 
 289      F5E899F8 
 289      42B12DF3 
 289      E1CC
 290 010d CBF811DE 		.ascii	"\313\370\021\336\251yD\200\023\003\270\267\246\350\001"
 290      A9794480 
 290      1303B8B7 
 290      A6E801
 291 011c 8D015DFF 		.ascii	"\215\001]\377Td\014Ub\006J\326\007\225\030\303\225T"
 291      54640C55 
 291      62064AD6 
 291      079518C3 
 291      9554
 292 012e DA95EBAB 		.ascii	"\332\225\353\253\276\024\213\317`<\300#`\277\347\217"
 292      BE148BCF 
 292      603CC023 
ARM GAS  /tmp/cclD5DnM.s 			page 23


 292      60BFE78F 
 293 013e C6F87C7E 		.ascii	"\306\370|~U}\373\254Lg3)ig\223\2732\231\332\221v\332"
 293      557DFBAC 
 293      4C673329 
 293      696793BB 
 293      3299DA91 
 294 0154 4938D982 		.ascii	"I8\331\202,\346\267\2676%'\371\242,\344m\356\027\354"
 294      2CE6B7B7 
 294      362527F9 
 294      A22CE46D 
 294      EE17EC
 295 0167 7472C606 		.ascii	"tr\306\006\312\315Qn\376\033\234O\211K"
 295      CACD516E 
 295      FE1B9C4F 
 295      894B
 296              		.text
 297              		.section	.gnu.lto_chSchDoRescheduleBehind.aa8a28c3b75f4c1d,"",%progbits
 298 0000 789C9D54 		.ascii	"x\234\235TOH\024Q\030\377\27673\373\337-\010\354\020"
 298      4F481451 
 298      18FFBE37 
 298      33FBDF2D 
 298      08EC10
 299 0013 94784C6A 		.ascii	"\224xLj\012#\010\275t\354\256P\247ZgewH]\3235\010\011"
 299      0A2308BD 
 299      74ECAE50 
 299      A75A6765 
 299      77485DD3 
 300 002a 676B85C0 		.ascii	"gk\205\300\205\264\223\345%\021\211\312\250n\202R\253"
 300      85B493E5 
 300      251189CA 
 300      A86E8252 
 300      AB
 301 003b 14299125 		.ascii	"\024)\221%]4\210\266 \"<Tz\321\020\266\357\27573\373"
 301      5D3488B6 
 301      20223C54 
 301      7AD110B6 
 301      EFBD3733 
 302 0050 4F69F1C1 		.ascii	"Oi\361\301\316\367\336\233\375\375~\337\337a\300\240"
 302      CEF7DE9B 
 302      FDFD7EDF 
 302      DF61C0A0 
 303 0060 7C35D36F 		.ascii	"|5\323o\334\003p\205,z\000\331\360\022@\312\307P\221"
 303      DC037085 
 303      2C7A00D9 
 303      F01240CA 
 303      C75091
 304 0073 1B856999 		.ascii	"\033\205i\2317\000V@M{\301\012i\362\376\254\212\310"
 304      37005640 
 304      4D7BC10A 
 304      69F2FEAC 
 304      8AC8
 305 0085 2D200C30 		.ascii	"- \0140ESq\340\002r6\245\036\306-\353Nnpf\015\357Z\331"
 305      455371E0 
 305      027236A5 
 305      1EC62DEB 
 305      4E6E7066 
 306 009d F47D6B3B 		.ascii	"\364}k;\237G4\221\224\033\021\014\204\363t\300:a\230"
ARM GAS  /tmp/cclD5DnM.s 			page 24


 306      9F473491 
 306      941B110C 
 306      84F374C0 
 306      3A6198
 307 00b0 5AEA8A8D 		.ascii	"Z\352\212\215\375\362\360\325W\034\271i-X\351,\201\217"
 307      FDF2F0D5 
 307      571CB969 
 307      2D58E92C 
 307      818F
 308 00c2 08704795 		.ascii	"\010pG\225\340\357k?+\204\023\377\303>e\331\\>?\373"
 308      E0EF6B3F 
 308      2B8413FF 
 308      C33E65D9 
 308      5C3E3FFB 
 309 00d6 F9F9B70C 		.ascii	"\371\371\267\014\036\254e\020\301q\254\007\037\331\011"
 309      1EAC6510 
 309      C171AC07 
 309      1FD909
 310 00e5 B27E2096 		.ascii	"\262~ \226\000\035&\351\020\264m\210.\225\032\376\010"
 310      001D26E9 
 310      10B46D88 
 310      2E951AFE 
 310      08
 311 00f6 F3D7B434 		.ascii	"\363\327\2644H[\326p\235\304\002W\244\325BO\312[+22"
 311      485BD670 
 311      9DC40257 
 311      A4D5424F 
 311      CA5B2B32 
 312 010b CA3BB8F1 		.ascii	"\312;\270\361ie\246)\202\017P\203\030\262\006xd\321"
 312      6965A629 
 312      820F5083 
 312      18B20678 
 312      64D1
 313 011d 6A248206 		.ascii	"j$\202\0068j\242:\006\367R\226\265\337D\255\037\376"
 313      386AA23A 
 313      06F75296 
 313      B5DF44AD 
 313      1FFE
 314 012f 5AB7F8CE 		.ascii	"Z\267\370\316\323)\210\270\333\036\341l\033\202m\355"
 314      D32988B8 
 314      DB1EE16C 
 314      1B826DED 
 315 013f 0D70DAED 		.ascii	"\015p\332\355\261\327\243\315\256\013\023\302\005y\314"
 315      B1D7A3CD 
 315      AE0B13C2 
 315      0579CC
 316 014e 0E6D9F06 		.ascii	"\016m\237\006\220\232\206\304\304\320'\245e\256\031"
 316      909A86C4 
 316      C4D027A5 
 316      65AE19
 317 015d E9BBCADE 		.ascii	"\351\273\312\336\235\224}\266\"\343DO\210\310V\035\235"
 317      9D947DB6 
 317      22E3444F 
 317      88C8561D 
 317      9D
 318 016e C81C8BE0 		.ascii	"\310\034\213\340\224\210\306/B(\020\371I\205c\035o\225"
 318      9488C62F 
ARM GAS  /tmp/cclD5DnM.s 			page 25


 318      422810F9 
 318      4985631D 
 318      6F95
 319 0180 52ECE2B3 		.ascii	"R\354\342\263\200D\332I8\271\007'HTp\275\375}\240\204"
 319      8044DA49 
 319      38B90727 
 319      485470BD 
 319      FD7DA084 
 320 0194 EB7A991F 		.ascii	"\353z\231\037\376b?T\027.Er\203/\016\231<!\344\275W"
 320      FE623F54 
 320      172E4572 
 320      832F0E99 
 320      3C21E4BD 
 321 01a9 9681340B 		.ascii	"\226\2014\013Y\026\016\333\371\223\256\237\223\007\031"
 321      59160EDB 
 321      F993AE9F 
 321      930719
 322 01b8 EFDE0B17 		.ascii	"\357\336\013\027\343\021\021\335\364\312\313\217\314"
 322      E31111DD 
 322      F4CACB8F 
 322      CC
 323 01c5 A1747211 		.ascii	"\241tr\021 F\254L\242d\3427\001\224\316Lo\376\332B\267"
 323      2046AC4C 
 323      A264E237 
 323      0194CE4C 
 323      6FFEDA42 
 324 01da F0934585 		.ascii	"\360\223E\205\267\036\317\036.\024^L\276\344\317\346"
 324      B71ECF1E 
 324      2E145E4C 
 324      BEE4CFE6 
 325 01ea 97985470 		.ascii	"\227\230Tp3\304\312D\"8\317\303\025B\316\224\264R\011"
 325      33C4CA44 
 325      2238CFC3 
 325      1542CE94 
 325      B45209
 326 01fd 69E66517 		.ascii	"i\346e\027\257\317a\004\347D\341\203\266\327g\312\262"
 326      AFCF6104 
 326      E744E183 
 326      B6D767CA 
 326      B2
 327 020e 1EA8A8FE 		.ascii	"\036\250\250\376|\241s6\327\377\270\004!\221\303`16"
 327      7CA17336 
 327      D7FFB804 
 327      2191C360 
 327      3136
 328 0220 588CF596 		.ascii	"X\214\365\226a\207\3679\310\232J$\333\015\271\000\351"
 328      6187F739 
 328      C89A4A24 
 328      DB0DB900 
 328      E9
 329 0231 1F29AFAB 		.ascii	"\037)\257\253I`'\260U\010\310\252eGn\327\232\316lX\375"
 329      496027B0 
 329      5508C8AA 
 329      65476ED7 
 329      9ACE6C58 
 330 0246 A21FC4F6 		.ascii	"\242\037\304\366bQS\330\204\2421\354\275mX\234\034\327"
 330      625153D8 
ARM GAS  /tmp/cclD5DnM.s 			page 26


 330      84A231EC 
 330      BD6D589C 
 330      1CD7
 331 0258 A6B62EF1 		.ascii	"\246\266.\361\271\327\200>\233\330J\355&\007\177qz\303"
 331      B9D7803E 
 331      9BD84AED 
 331      26077F71 
 331      7AC3
 332 026a 89D8260D 		.ascii	"\211\330&\015\226\345\213\355\234/\342\224a\257l,3\307"
 332      96E58BED 
 332      9C2FE294 
 332      61AF6C2C 
 332      33C7
 333 027c FD70E5B0 		.ascii	"\375p\345\260\005+\232\274\220\262\305\017\336\352\245"
 333      052B9ABC 
 333      90B2C50F 
 333      DEEAA5
 334 028b D522E9B0 		.ascii	"\325\"\351\260\234\257\315\215U\265\204\240\257:\361"
 334      9CAFCD8D 
 334      55B584A0 
 334      AF3AF1
 335 029a 186F3BA1 		.ascii	"\030o;\241\037,\2017\225\301\303\273\205N\360\3670\230"
 335      1F2C8137 
 335      95C1C3BB 
 335      854EF0F7 
 335      3098
 336 02ac 1B4A38F3 		.ascii	"\033J8\363\347\216W\310\340\177\224c\024\343\2370*\347"
 336      E78E57C8 
 336      E07F9463 
 336      14E39F30 
 336      2AE7
 337 02be 32A47219 		.ascii	"2\244r\031\335\035U\261Zh\332\322^\336\375'\364x\242"
 337      DD1D55B1 
 337      5A68DAD2 
 337      5EDEFD27 
 337      F478A2
 338 02d1 B35D3712 		.ascii	"\263]7\022\321kz\264\375\252n\304\31563\321\253'{\372"
 338      D16B7AB4 
 338      FDAA6EC4 
 338      CD3633D1 
 338      AB277BFA 
 339 02e5 BA2EEBB4 		.ascii	"\272.\353\264\351I\352\275=\006\335\367\032\361\350"
 339      E949EABD 
 339      3D06DDF7 
 339      1AF1E8
 340 02f4 71039444 		.ascii	"q\003\224D\262\373T\025 \263\313\350\350\213\266;\300"
 340      B2FB5415 
 340      20B3CBE8 
 340      E88BB63B 
 340      C0
 341 0305 38B06437 		.ascii	"8\260d73\272\377\001^4\257\011"
 341      33BAFF01 
 341      5E34AF09 
 342              		.text
 343              		.section	.gnu.lto_chSchDoRescheduleAhead.aa8a28c3b75f4c1d,"",%progbits
 344 0000 789C9D54 		.ascii	"x\234\235T]H\024Q\024>\347\316\314\316\272\256\224F"
 344      5D481451 
ARM GAS  /tmp/cclD5DnM.s 			page 27


 344      143EE7CE 
 344      CCCEBAAE 
 344      9446
 345 0012 BDF490F8 		.ascii	"\275\364\220\370\230\324\024\006\022\031\321c\357\012"
 345      98D41406 
 345      1219D163 
 345      EF0A
 346 0020 F514EBAC 		.ascii	"\365\024\353\254\354\016\245k\272\026!\341\335Z!\310"
 346      EC0EA56B 
 346      BA1621E1 
 346      DD5A21C8 
 347 0030 07EB692B 		.ascii	"\007\353i+\220D$\212\376\036}\212\005\215\224H\211\240"
 347      9044248A 
 347      FE1E7D8A 
 347      058D9448 
 347      89A0
 348 0042 EC87D808 		.ascii	"\354\207\330\010|PHQ\"\311\205\355\334{g\306\335mC\361"
 348      7C504851 
 348      22C985ED 
 348      DC7B67C6 
 348      DD6D43F1 
 349 0056 C2CCB9F7 		.ascii	"\302\314\271\3672\337\317=\367\234a\300\240|\264\320"
 349      32DFCF3D 
 349      F79C61C0 
 349      A07CB4D0 
 350 0066 D31400B8 		.ascii	"\323\024\000\270D\021\003\200lx\026 \025d\250\251\211"
 350      44110380 
 350      6C781620 
 350      1564A8A9 
 350      89
 351 0077 C68CA1D7 		.ascii	"\306\214\241\327\000<\244\247M\340aC\355\237\326\021"
 351      003CA4A7 
 351      4DE06143 
 351      ED9FD611 
 352 0087 45048401 		.ascii	"E\004\204\001\246\031:\016\234C\301\2465\300(\347wr"
 352      A6193A0E 
 352      9C43C1A6 
 352      35C028E7 
 352      7772
 353 0099 838B4B78 		.ascii	"\203\213Kx\227g\323\017x\276P@t\220\224\233\020l\204"
 353      9767D30F 
 353      78BE5040 
 353      7490949B 
 353      106C84
 354 00ac B3B4C07A 		.ascii	"\263\264\300z\031\230^jEa\371\307\3504Og\013\205S\022"
 354      19985E6A 
 354      4561F9C7 
 354      E8344F67 
 354      0B855312 
 355 00c0 D5BC3D54 		.ascii	"\325\274=T\356\327\243\251\357x\373\006WX< \301\211"
 355      EED7A3A9 
 355      EF78FB06 
 355      57583C20 
 355      C189
 356 00d2 ADC0CF59 		.ascii	"\255\300\317Y6W(<{\371m<\217y\266\027!\202c\330\000"
 356      3657283C 
 356      7BF96D3C 
ARM GAS  /tmp/cclD5DnM.s 			page 28


 356      8F79B617 
 356      218263D8 
 357 00e7 1AC5518A 		.ascii	"\032\305Q\212Aw]\005\016j!\361\012\323\013ji{\234\266"
 357      41775D05 
 357      0E6A21F1 
 357      0AD30B6A 
 357      697B9CB6 
 358 00fb EBC48286 		.ascii	"\353\304\202\206\001i\316\207\353\025F!@\010\323h\245"
 358      0169CE87 
 358      EB154621 
 358      4008D368 
 358      A5
 359 010c 3725AE0D 		.ascii	"7%\256\015\031\005\355-\\\377<\277x\"\202\017\321\200"
 359      1905ED2D 
 359      5CFF3CBF 
 359      7822820F 
 359      D180
 360 011e 186A8DF0 		.ascii	"\030j\215\360\230\323h\"\232F8\350\240~\037\356\245"
 360      98D36822 
 360      9A4638E8 
 360      A07E1FEE 
 360      A5
 361 012f 38DFEDA0 		.ascii	"8\337\355\240\321\017\177\370M1\013tJ\"\341> =\267#"
 361      D10F7FF8 
 361      4D310B74 
 361      4A22E13E 
 361      203DB723 
 362 0143 B8D19D80 		.ascii	"\270\321\235\200\240\375:\362*\323\342\033\031\227\026"
 362      A0FD3AF2 
 362      2AD3E21B 
 362      199716
 363 0152 D4327BEB 		.ascii	"\3242{\353C3\200\322\264\025&\206\265JZ\245\215\221"
 363      433380D2 
 363      B4152686 
 363      B54A5AA5 
 363      8D91
 364 0164 BEAF6C56 		.ascii	"\276\257lVR\016\272\212L\020=%\"W536t(\202O\344i\352"
 364      520EBA8A 
 364      4C103D25 
 364      22573533 
 364      36742882 
 365 017c E4113689 		.ascii	"\344\0216\211\252HE`=\267Z)v\346EH!\335$\034\335\201"
 365      AA484560 
 365      3DB75A29 
 365      76E64548 
 365      21DD241C 
 366 0192 0912955C 		.ascii	"\011\022\225\\oV\366\224p]+\363QW\354C\367\341J$7\270"
 366      6F56F694 
 366      705D2BF3 
 366      5157EC43 
 366      F7E14A24 
 367 01a8 B49FC8A5 		.ascii	"\264\237\310\245{S]\003infY\032v\363\247\254\237Q\013"
 367      7B535D03 
 367      696E6659 
 367      1A76F3A7 
 367      AC9F510B 
 368 01bc 75DE9D5F 		.ascii	"u\336\235_\034\345G\322M\314\377|\317<J/\027!b\304\177"
ARM GAS  /tmp/cclD5DnM.s 			page 29


 368      1CE547D2 
 368      4DCCFF7C 
 368      CF3C4A2F 
 368      172162C4 
 369 01d1 93A898C4 		.ascii	"\223\250\230\304N\010\225\231\211\314\362d)\272\246"
 369      4E089599 
 369      89CCF264 
 369      29BAA6
 370 01e0 18ADFD07 		.ascii	"\030\255\375\007\355u@\033\335\013u\262,\315\365\345"
 370      ED75401B 
 370      DD0B75B2 
 370      2CCDF5E5 
 371 01f0 49F46A33 		.ascii	"I\364j3\350\222\035W\251TdXv\237~\365eV\327|d\225\314"
 371      E8921D57 
 371      A9546458 
 371      769F7EF5 
 371      6556D77C 
 372 0207 48B50F0A 		.ascii	"H\265\017\012\026\203\314\"\320\360.\017\022*\203h\225"
 372      1683CC22 
 372      D0F02E0F 
 372      122A8368 
 372      95
 373 0218 20D330B5 		.ascii	" \3230\265\2202}\225\330\346\031>\001\252\254g7F\366"
 373      90327D95 
 373      D8E6193E 
 373      01AAAC67 
 373      3746F6
 374 022b 39BEF57E 		.ascii	"9\276\365~y\237rz\276\362\245\322`qrh\344\177GD\257"
 374      799F727A 
 374      BEF2A5D2 
 374      60717268 
 374      E47F4744 
 375 0240 1A40FF3A 		.ascii	"\032@\377:l\243\022Q\315:3\277\272\201\345\271\205\312"
 375      6CA31251 
 375      CD3A33BF 
 375      BA81E5B9 
 375      85CA
 376 0252 3635F74E 		.ascii	"65\367N\203\352p\353\253_\230\3475\354wF\205\214x\177"
 376      83EA70EB 
 376      AB5F98E7 
 376      35EC7746 
 376      858C787F 
 377 0266 2421B762 		.ascii	"$!\267bnSLw\305\302\012\227Y\373\241\227 \257l!\027"
 377      6E534C77 
 377      C5C20A97 
 377      59FBA197 
 377      20AF6C21 
 378 027b 1376A562 		.ascii	"\023v\245bu\011\356d1.\\\351x\024\347`07\233\360\032"
 378      7509EE64 
 378      312E5CE9 
 378      7814E760 
 378      30379BF0 
 379 0290 C2AFF7B0 		.ascii	"\302\257\367\260\215\314\253k\372\316\301\032\200w\220"
 379      8DCCAB6B 
 379      FACEC11A 
 379      807790
 380 029f CACD597E 		.ascii	"\312\315Y~\357\310\321J\345\2376\305\247G\254x\242\263"
ARM GAS  /tmp/cclD5DnM.s 			page 30


 380      EFC8D14A 
 380      E59F36C5 
 380      A747AC78 
 380      A2B3
 381 02b1 C3B213D1 		.ascii	"\303\262\023\321\253V\264\343\262e\307\235v'\321k%{"
 381      AB56B4E3 
 381      B265C79D 
 381      7627D16B 
 381      257B
 382 02c3 FABA2E58 		.ascii	"\372\272.X4\351IZ\275=6\355\367\332\361\350a\033\264"
 382      34E9495A 
 382      BD3D36ED 
 382      F7DAF1E8 
 382      611BB4
 383 02d6 44B29BD9 		.ascii	"D\262\233\331\335\307\266\201s\272\354\213}\321\016"
 383      DDC7B681 
 383      73BAEC8B 
 383      7DD10E
 384 02e5 0F1B0796 		.ascii	"\017\033\007\226\354\376\013\324\035\207\364"
 384      ECFE0BD4 
 384      1D87F4
 385              		.text
 386              		.section	.gnu.lto_chSchRescheduleS.aa8a28c3b75f4c1d,"",%progbits
 387 0000 789C9D52 		.ascii	"x\234\235R\317K\033A\024\376\336\354\354n,\245x\322"
 387      CF4B1B41 
 387      14FEDEEC 
 387      EC6E2CA5 
 387      78D2
 388 0012 9BB4D74A 		.ascii	"\233\264\327J;\245\315\237\222\200zKfCv\251\032H\264"
 388      3BA5CD9F 
 388      92807A4B 
 388      664376A9 
 388      1A48B4
 389 0025 507A70E2 		.ascii	"Pzp\342\017\020\274\344\030#\010\266Ph)\325S\017\236"
 389      0F10BCE4 
 389      182308B6 
 389      506829D5 
 389      530F9E
 390 0038 3C88F450 		.ascii	"<\210\364P\177],\344\224\036*x\350?P\012\366\315lwK"
 390      7F5D2CE4 
 390      941E2A78 
 390      E83F500A 
 390      F6CD6C77 
 391 004d 958238B0 		.ascii	"\225\2028\260o\276\367\366}\337|\363C@\340\352x\312"
 391      6FBEF7F6 
 391      7DDF7CF3 
 391      4340E0EA 
 391      78CA
 392 005f DF032ED7 		.ascii	"\337\003.\327y&\037$:G@\273 \204\267;\006sG\236)\230"
 392      79261F24 
 392      3A4740BB 
 392      2084B73B 
 392      0673479E 
 393 0075 BB1EC9B4 		.ascii	"\273\036\311\264,\211,\000aAx\222\026&\311\211l\213"
 393      2C892C00 
 393      61417892 
 393      1626C989 
ARM GAS  /tmp/cclD5DnM.s 			page 31


 393      6C8B
 394 0087 BDC1E5E5 		.ascii	"\275\301\345\345\307n\177\363\003]\210\202DB\3609P`"
 394      C76E7FF3 
 394      035D8882 
 394      4442F039 
 394      5060
 395 0099 51681177 		.ascii	"Qh\021w\371X6\246s\037\320\216U\342h\305\312$\354\354"
 395      F95836A6 
 395      731FD08E 
 395      55E268C5 
 395      CA24ECEC 
 396 00ad 1D62B1FF 		.ascii	"\035b\261\377\253\367\275[\314\373R\260\267\366\345"
 396      ABF7BD5B 
 396      CCFB52B0 
 396      B7F6E5
 397 00bc 53085468 		.ascii	"S\010Th\213\375i\247\204:\311q\2747\306\014\276\276"
 397      8BFD69A7 
 397      843AC971 
 397      BC37C60C 
 397      BEBE
 398 00ce 3BD822E2 		.ascii	";\330\"\342U\306\3610!\341\242\267\201^\333\230\341"
 398      55C6F130 
 398      21E1A2B7 
 398      815EDB98 
 398      E1
 399 00df 84E42BFC 		.ascii	"\204\344+\3744\253\026\3713\2168\301\255\276\363\\\265"
 399      34AB16F9 
 399      338E38C1 
 399      ADBEF35C 
 399      B5
 400 00f0 7985DED8 		.ascii	"y\205\336\330\264jUs,r\014\260\251\251\012\275\346\244"
 400      B46A5573 
 400      2C720CB0 
 400      A9A90ABD 
 400      E6A4
 401 0102 4EBE130F 		.ascii	"N\276\023\017r\361\220]X=\374\321\363\376\345\365wF"
 401      72F1905D 
 401      583DFCD1 
 401      F3FEE5F5 
 401      7746
 402 0114 3266E098 		.ascii	"2f\340\230\270\2559yE\370d4\023\016\257[\012\376g\351"
 402      B8AD3979 
 402      45F86434 
 402      130EAF5B 
 402      0AFE67E9 
 403 0128 33F6CFBF 		.ascii	"3\366\317\277\255\274}\226\036$o\207\351\177\337A\231"
 403      ADBC7D96 
 403      1E246F87 
 403      E97FDF41 
 403      99
 404 0139 7B77C7BC 		.ascii	"{w\307\274c,\015\326\177\334K{\200\334aAS\372v\022\032"
 404      632C0DD6 
 404      7FDC4B7B 
 404      80DC6141 
 404      53FA7612 
 405 014e CA08D25D 		.ascii	"\312\010\322]\333)\332\203\336\243\214\220\216\022\237"
 405      DB29DA83 
ARM GAS  /tmp/cclD5DnM.s 			page 32


 405      DEA38C90 
 405      8E129F
 406 015d 27FFB38C 		.ascii	"'\377\263\214'*n\314\324\224nD/UT{\241t\234T\223FK\315"
 406      272A6ECC 
 406      D4946E44 
 406      2F55547B 
 406      A1749C54 
 407 0175 35E7679F 		.ascii	"5\347g\237+\006\3159\325jj\256\267t\034=\326(\336\200"
 407      2B06CD39 
 407      D56A6AAE 
 407      B7741C3D 
 407      D628DE80 
 408 0189 90CCEAE9 		.ascii	"\220\314\352\351\371\250\226\221b\374\006\357\265\240"
 408      F9A89691 
 408      62FC06EF 
 408      B5A0
 409 0197 45       		.ascii	"E"
 410              		.text
 411              		.section	.gnu.lto_chSchDoReschedule.aa8a28c3b75f4c1d,"",%progbits
 412 0000 789C6362 		.ascii	"x\234cb`b@\007\222@\\\007\304F@\314\310\314\300\310"
 412      60624007 
 412      92405C07 
 412      C44640CC 
 412      C8CCC0C8 
 413 0014 34E11C03 		.ascii	"4\341\034\003C#\007\023##\210\301\300\310P\317\304X"
 413      43230713 
 413      232388C1 
 413      C0C850CF 
 413      C458
 414 0026 1FC90856 		.ascii	"\037\311\010V\273\236\351\300\203\377\377\327]\233?"
 414      BB9EE9C0 
 414      83FFFFD7 
 414      5D9B3F
 415 0035 FF0F6387 		.ascii	"\377\017c\20723P\204\225\241\245\241a\202\002\003C2"
 415      32335084 
 415      95A1A5A1 
 415      61820203 
 415      4332
 416 0047 58450890 		.ascii	"XE\010\220\004i\013ed\002\321\314\347\031\232\037\364"
 416      04690B65 
 416      6402D1CC 
 416      E7199A1F 
 416      F4
 417 0058 6E7CC298 		.ascii	"n|\302\230\310\270\220\221\025(_\315\360\253\241\243"
 417      C8B89091 
 417      15285FCD 
 417      F0ABA1A3 
 418 0068 41209311 		.ascii	"A \223\021\250\036bd&\210\276\310\320\370\240\177#\013"
 418      A81E6264 
 418      2688BEC8 
 418      D0F8A07F 
 418      230B
 419 007a 4C150484 		.ascii	"L\025\004\204\000e\200f\200\\l\240\237\221\237\233\252"
 419      00658066 
 419      805C6CA0 
 419      9F919F9B 
 419      AA
ARM GAS  /tmp/cclD5DnM.s 			page 33


 420 008b 9F9C9F52 		.ascii	"\237\234\237R\251\237\222Z\246\237\234\221\231\224\231"
 420      A99F925A 
 420      A69F9C91 
 420      999499
 421 009a 5FAC5F52 		.ascii	"_\254_RT\232\227\255\017d\024\225\350\027\027%\003\305"
 421      549A97AD 
 421      0F641495 
 421      E8171725 
 421      03C5
 422 00ac 8B933352 		.ascii	"\213\2233R\364\222\031\000b\0005\252"
 422      F4921900 
 422      620035AA 
 423              		.text
 424              		.section	.gnu.lto_.symbol_nodes.aa8a28c3b75f4c1d,"",%progbits
 425 0000 789C4DCA 		.ascii	"x\234M\312=\016\001Q\030\205\341s\356\235\213\031\303"
 425      3D0E0151 
 425      1885E173 
 425      EE9D8B19 
 425      C3
 426 0011 16943660 		.ascii	"\026\2246`CVr\204d\202B,@\024t\376\177\203Z\241\263"
 426      43567284 
 426      6482422C 
 426      401474FE 
 426      7F835AA1 
 427 0026 0285A8D5 		.ascii	"\002\205\250\325*\021\202p\277\346\315s\362\031\030"
 427      2A118270 
 427      BFE6CD73 
 427      F21918
 428 0035 1489CF99 		.ascii	"\024\211\317\231\011\005\264\217\200\324i\224\335\200"
 428      0905B48F 
 428      80D46994 
 428      DD80
 429 0043 70821952 		.ascii	"p\202\031R\374\256\335:\315\2102\036\307\224\3658\245"
 429      FCAEDD3A 
 429      CD88321E 
 429      C794F538 
 429      A5
 430 0054 028F33CA 		.ascii	"\002\2173\312y\\P)\217K*\355qEe<\316\251\320\343\232"
 430      795C5029 
 430      8F4B2AED 
 430      7145653C 
 430      CEA9D0E3 
 431 0069 8AFEE486 		.ascii	"\212\376\344\206\312~X\251\220;*\376kK\345~\262A\214"
 431      CA7E58A9 
 431      903B2AFE 
 431      6B4BE57E 
 431      B2418C
 432 007c 5A722D58 		.ascii	"Zr-X\227\307\376~\242u\001.\357\346\260\237\037\336"
 432      97C7FE7E 
 432      A275012E 
 432      EFE6B09F 
 432      1FDE
 433 008e AE26A7C0 		.ascii	"\256&\247\300\246b\364[\267\264\315\274\332|\375\207"
 433      A662F45B 
 433      B7B4CDBC 
 433      DA7CFD87 
 434 009e DF46217A 		.ascii	"\337F!z\353\222\315\206\250\236\037\304\023\004\355"
ARM GAS  /tmp/cclD5DnM.s 			page 34


 434      EB92CD86 
 434      A89E1FC4 
 434      1304ED
 435 00ad 5907     		.ascii	"Y\007"
 436              		.text
 437              		.section	.gnu.lto_.refs.aa8a28c3b75f4c1d,"",%progbits
 438 0000 789C4D8A 		.ascii	"x\234M\212\211\015\000 \014\002\001\265>k\272\377\016"
 438      890D0020 
 438      0C0201B5 
 438      3E6BBAFF 
 438      0E
 439 0011 D6276A43 		.ascii	"\326'jC\323\002'\010\035{\010\261\212t\255\275_\020"
 439      D3022708 
 439      1D7B08B1 
 439      8A74ADBD 
 439      5F10
 440 0023 53F4FA24 		.ascii	"S\364\372$!\201r<\232\337\315\344\331Zy\214h\365wj\323"
 440      2181723C 
 440      9ADFCDE4 
 440      D95A798C 
 440      68F5776A 
 441 0038 61004C3F 		.ascii	"a\000L?\001\023"
 441      0113
 442              		.text
 443              		.section	.gnu.lto_.decls.aa8a28c3b75f4c1d,"",%progbits
 444 0000 789CBD5B 		.ascii	"x\234\275[{p\024\307\235\356\236\221\264\273\222,\204"
 444      7B7014C7 
 444      9DEE9E91 
 444      B4BB922C 
 444      84
 445 0011 E3605295 		.ascii	"\343`R\225+\313W\316\025\345T,\034\373b\374\3079N\234"
 445      2BCB57CE 
 445      15E5542C 
 445      1CFB62FC 
 445      C7394E9C 
 446 0025 2A435D25 		.ascii	"*C]%\347\202\370\356\376H\325z\330\035\320\236\265\017"
 446      E782F8EE 
 446      FE48D57A 
 446      D81DD09E 
 446      B50F
 447 0037 66473CCA 		.ascii	"fG<\312U\361HH\302(\341%a\014>\036\222mbq`@\306XH\001"
 447      55F14848 
 447      C228E125 
 447      610C3E1E 
 447      926D6271 
 448 0051 B26064C9 		.ascii	"\262`d\311\340\200\014B\004\203\215L\214\301\344al\036"
 448      E0800C42 
 448      04838D4C 
 448      8CC1E461 
 448      6C1E
 449 0063 3216B0F7 		.ascii	"2\026\260\367\353\236\236\335\231\336\231\325\214\342"
 449      EB9E9EDD 
 449      99DE99D5 
 449      8CE2
 450 0071 644BDDF3 		.ascii	"dK\335\363\352\376~\257\257{\3721\022\220\200\376P\210"
 450      EAFE7EAF 
 450      AF7BFA31 
ARM GAS  /tmp/cclD5DnM.s 			page 35


 450      129080FE 
 450      5088
 451 0083 501A7E4F 		.ascii	"P\032~O>\214\320\003>\204J\021B\217@\022!\265A\332\314"
 451      3E8CD003 
 451      3E844A11 
 451      428F4012 
 451      21B541DA 
 452 0098 CEC9AF0C 		.ascii	"\316\311\257\014\322VH; uB\372\031F\350IH\263!\315\201"
 452      D256483B 
 452      207542FA 
 452      1946E849 
 452      48B321CD 
 453 00ad 341FD233 		.ascii	"4\037\3223\220~\011\251\026R=\244\305\220\332 \301\037"
 453      907E09A9 
 453      16523DA4 
 453      C590DA20 
 453      C11F
 454 00bf 6AC7C8F2 		.ascii	"j\307\310\362#XwB\352b\330D6)\362CHE\220@\035t\001n"
 454      23587742 
 454      EA62D844 
 454      3629F243 
 454      48459040 
 455 00d7 F4C1F122 		.ascii	"\364\301\361\"\326\365\351f\372\371\340\372\317\220"
 455      D6F5E966 
 455      FAF9E0FA 
 455      CF90
 456 00e5 3E837409 		.ascii	">\203t\011\322eH\305\220z\340\331\0258N\202\264\035"
 456      D26548C5 
 456      907AE0D9 
 456      15384E82 
 456      B41D
 457 00f7 5200AEBF 		.ascii	"R\000\256\277\"xp>\001\322~8OA\012\300\371\0018n\203"
 457      2278703E 
 457      01D27E38 
 457      4F410AC0 
 457      F901386E 
 458 010c E39B58B7 		.ascii	"\343\233X\267\221\350s\025\353\266\021\331\333!]\207"
 458      91E87315 
 458      EBB611D9 
 458      DB215D87 
 459 011c EBAF208D 		.ascii	"\353\257 \215@\272\001\351&\316\265\203\370\303\317"
 459      40BA01E9 
 459      26CEB583 
 459      F8C3CF
 460 012b EC20726F 		.ascii	"\354 roa]\207\355L\237MpLc\035\263\022ge\336\007i\027"
 460      615D87ED 
 460      4C9F4D70 
 460      4C631DB3 
 460      126765DE 
 461 0142 A4BD9076 		.ascii	"\244\275\220vC\022\030\0269\261\363\027\321\253\230"
 461      43121816 
 461      39B1F317 
 461      D1AB98
 462 0151 F3970F65 		.ascii	"\363\227\017e\375\302\333^\304l'\366\232m\335\317\374"
 462      FDC2DB5E 
 462      C46C27F6 
 462      9A6DDDCF 
ARM GAS  /tmp/cclD5DnM.s 			page 36


 462      FC
 463 0162 DCA98B42 		.ascii	"\334\251\213B\377nc\023\211m)'\213`nb\366\0312'1[}\000"
 463      FF6E6313 
 463      896D2927 
 463      8B606E62 
 463      F6193227 
 464 017a D4C06C24 		.ascii	"\324\300l$rRX\227Ml$\362\211L\303\317\004\333/\350\374"
 464      72525897 
 464      4D6C24F2 
 464      894CC3CF 
 464      04DB2FE8 
 465 018f 20F2A7DB 		.ascii	" \362\247\333\310'\274\272\003\216KpV>\321\205\360\261"
 465      C827BCBA 
 465      038E4B70 
 465      563ED185 
 465      F0B1
 466 01a1 98E198F5 		.ascii	"\230\341\230\365)\003\240_\303\361%H\343\340\374?\340"
 466      2903A05F 
 466      C3F12548 
 466      E3E0FC3F 
 466      E0
 467 01b2 F822A472 		.ascii	"\370\"\244r8o\302:_\210\276\005&\375\010'\010\017\012"
 467      386FC23A 
 467      5F88BE05 
 467      26FD0827 
 467      080F0A
 468 01c5 993CC2D3 		.ascii	"\231<\302\323\255L\277\305LF\030\216!\033\375\010\347"
 468      AD4CBFC5 
 468      4C46188E 
 468      211BFD08 
 468      E7
 469 01d6 CB6D6251 		.ascii	"\313mbQl\222\325c\3433#>\206\277\010?\015=\016 \253"
 469      6C92D563 
 469      E333233E 
 469      86BF083F 
 469      0D3D0E20 
 470 01eb EF52281B 		.ascii	"\357R(\033/\221\311$1\253g\272U\3031f\243\033i\213\305"
 470      2F91C924 
 470      31AB67BA 
 470      55C33166 
 470      A31B698B 
 471 0200 4CBED977 		.ascii	"L\276\331wI\0237\014\235\210\236\205\310\312I\242G\212"
 471      4913370C 
 471      9D889E85 
 471      C8CA49A2 
 471      478A
 472 0212 B5D9390E 		.ascii	"\265\3319\016mw>\213\013o\277\031\333\340\006\221\321"
 472      6D773E8B 
 472      0B6FBF19 
 472      DBE00691 
 472      D1
 473 0223 C6F431EC 		.ascii	"\306\3641\354\366\233l\3459Bl?\300b5\237q\305\260\333"
 473      F69B6CE5 
 473      39426C3F 
 473      C062359F 
 473      71C5B0DB 
 474 0237 4E9767FE 		.ascii	"N\227g\376\001\272\210L\216\301[;=~\211\263\355\223"
ARM GAS  /tmp/cclD5DnM.s 			page 37


 474      01BA884C 
 474      8EC15B3B 
 474      3D7E89B3 
 474      ED93
 475 0249 C8E77D4D 		.ascii	"\310\347}Md\022\371\343\001\343\215<~\027\031\326\355"
 475      6412F9E3 
 475      01E38D3C 
 475      7E1719D6 
 475      ED
 476 025a 822ED34E 		.ascii	"\202.\323NV-k;\006\026\371\011\354\3763\\Y\362\013\240"
 476      562D6B3B 
 476      0616F909 
 476      ECFE335C 
 476      59F20BA0 
 477 026e E734AD4E 		.ascii	"\3474\255N\033\332\250M\\\015>\372o,\341\262\000XNN"
 477      1BDAA84D 
 477      5C0D3EFA 
 477      6F2CE1B2 
 477      00584E4E 
 478 0282 4A0354C4 		.ascii	"J\003T\304w\320+\232\266|\250\347\223\013\242\246\371"
 478      77D02B9A 
 478      B67CA8E7 
 478      930BA2A6 
 478      F9
 479 0293 25DC8603 		.ascii	"%\334\206\003\000\011\235\303\275h\223\006O\240\376"
 479      00099DC3 
 479      BD689306 
 479      4FA0FE
 480 02a2 776D903D 		.ascii	"wm\220=@\0177\276\366]\012\275\221Bk\030#\011\277\202"
 480      400F37BE 
 480      F65D0ABD 
 480      91426B18 
 480      2309BF82 
 481 02b6 EFF50CD4 		.ascii	"\357\365\014\324\321\264~\012\005j\247@{8 \011\343\200"
 481      D1B47E0A 
 481      056AA740 
 481      7B382009 
 481      E380
 482 02c8 59437A6D 		.ascii	"YCzm\024 h\3641;I[m\372Z\313\226\240&bQk\2436\265\257"
 482      142068F4 
 482      313B495B 
 482      6DFA5ACB 
 482      96A02662 
 483 02e2 6C027A1E 		.ascii	"l\002z\036\334H.4\254J\370\221o\032\026V\030\026\026"
 483      DC482E34 
 483      AC4AF891 
 483      6F1A1656 
 483      181616
 484 02f5 30D42D78 		.ascii	"0\324-x\002=\023iH\341\306\017K {R\314\010v\252\270"
 484      023D1369 
 484      48E1C60F 
 484      4B207B52 
 484      CC0876AA 
 485 030a 1997981D 		.ascii	"\031\227\230\035q\027Z\257\245.\015mXzx\000\257X\250"
 485      71175AAF 
 485      A52E0D6D 
 485      587A7800 
ARM GAS  /tmp/cclD5DnM.s 			page 38


 485      AF58A8
 486 031d F56997D2 		.ascii	"\365i\227\322\351q\014_@_r^\273\007\275\254i\315\332"
 486      E9710C5F 
 486      405F725E 
 486      BB07BDAC 
 486      69CDDA
 487 0330 D5F0542A 		.ascii	"\325\360T*P\000\013H\201\255\370.[y\264\020\374\376"
 487      50000B48 
 487      81ADF82E 
 487      5B79B410 
 487      FCFE
 488 0342 056D2466 		.ascii	"\005m$f\375V{b\"5\012\261:\026?m\303\202\371\006Q\254"
 488      FD567B62 
 488      22350AB1 
 488      3A163F6D 
 488      C382F906 
 489 0358 7528F57C 		.ascii	"u(\365|\343!\014\022o\244\323\"r\357\2357\230w\262\036"
 489      E3210C12 
 489      6FA4D322 
 489      72EF9D37 
 489      9877B21E 
 490 036c 1150AD60 		.ascii	"\021P\255`\265%\243\226\326\256\211\031\265v\360j\355"
 490      B525A396 
 490      D6AE8919 
 490      B576F06A 
 490      ED
 491 037d CC556BE8 		.ascii	"\314Uk\350R\352\203\303K\276\245\265\326\245\322\351"
 491      52EA83C3 
 491      4BBEA5B5 
 491      D6A5D2E9 
 492 038d DF69D8AA 		.ascii	"\337i\330\252\230%\240\267\243\025\344IE_\226\254\255"
 492      9825A0B7 
 492      A315E449 
 492      455F96AC 
 492      AD
 493 039e 0586B63F 		.ascii	"\005\206\266?A\031\266\036k>\320\206\027Bu\011w\343"
 493      4119B61E 
 493      6B3ED086 
 493      17427509 
 493      77E3
 494 03b0 DB41DB83 		.ascii	"\333A\333\203\234\266\243\002\011\350\030\255\262\007"
 494      9CB6A302 
 494      09E818AD 
 494      B207
 495 03be AAEB1529 		.ascii	"\252\353\025)\26464\262\352\303Z\\K\241\3113\3049\301"
 495      B43634B2 
 495      EAC35A5C 
 495      4BA1C933 
 495      C439C1
 496 03d1 F4BB1BB5 		.ascii	"\364\273\033\265\202\346\251\221\306u`\333~(\337\205"
 496      82E6A991 
 496      C67560DB 
 496      7E28DF85 
 497 03e1 498C9B45 		.ascii	"I\214\233E\003\327\316\335\354\324B:+\336\255\267K\227"
 497      03D7CEDD 
 497      ECD4423A 
 497      2BDEADB7 
ARM GAS  /tmp/cclD5DnM.s 			page 39


 497      4B97
 498 03f3 4B06D81A 		.ascii	"K\006\330\032\317`\025\026\260\226\336\265T9\326\021"
 498      CF601516 
 498      B096DEB5 
 498      5439D611 
 499 0403 E85EB667 		.ascii	"\350^\266g;s\355\306\363\254\263\352\241\035A\253h\333"
 499      3B73EDC6 
 499      F3ACB3EA 
 499      A11D41AB 
 499      68DB
 500 0415 A3B8001A 		.ascii	"\243\270\000\032n\354\331\207\353\250#\373(T\373\230"
 500      6EECD987 
 500      EBA823FB 
 500      2854FB98 
 501 0425 A13A9A76 		.ascii	"\241:\232v?Lu:D\201:D\276s\362q\235\223\317\332\211"
 501      3F4C753A 
 501      44813A44 
 501      BE73F271 
 501      9D93CFDA 
 502 043a F802D913 		.ascii	"\370\002\331\02324\037\207\376\316\305\005\264\333M"
 502      32341F87 
 502      FECEC505 
 502      B4DB4D
 503 0449 E0FC4E2C 		.ascii	"\340\374N,\320\206\276Zu\016\257\321R\365\"crk\221\223"
 503      D086BE5A 
 503      750EAFD1 
 503      52F52263 
 503      726B9193 
 504 045d 8F04F416 		.ascii	"\217\004\364\026\225\325\3173\271s\375_\352\030\223"
 504      95D5CF33 
 504      B973FD5F 
 504      EA1893
 505 046c FB5D31B9 		.ascii	"\373]1\271\363\320\013\224,\2436I\301\220\177\017\225"
 505      F3D00B94 
 505      2CA33649 
 505      C1907F0F 
 505      95
 506 047d DF5040E4 		.ascii	"\337P@\344\037\347\345\037;{\341\221\325\232V\256?\032"
 506      1FE7E51F 
 506      3B7BE191 
 506      D59A56AE 
 506      3F1A
 507 048f 5D7CC7D1 		.ascii	"]|\307\321\225\271\342\035\373-F\215\316\365\275_0#"
 507      95B9E21D 
 507      FB2D468D 
 507      CEF5BD5F 
 507      3023
 508 04a1 4FD21673 		.ascii	"O\322\026s\244\200'\207\336\251\"\363\265\251\000L\330"
 508      A4802787 
 508      DEA922F3 
 508      B5A9004C 
 508      D8
 509 04b2 32EA8FA9 		.ascii	"2\352\217\251\301\202\235}\3236\275\256i\213\213\014"
 509      C1829D7D 
 509      D336BDAE 
 509      698B8B0C 
 510 04c2 1D4E7946 		.ascii	"\035NyF\254\260x\342\215\243\264\013\320\301>t\003\346"
ARM GAS  /tmp/cclD5DnM.s 			page 40


 510      ACB078E2 
 510      8DA3B40B 
 510      D0C13E74 
 510      03E6
 511 04d4 C8A4BAD4 		.ascii	"\310\244\272\324\233f\260\217<\203Y5\333e\006\373\330"
 511      9B66B08F 
 511      3C835935 
 511      DB6506FB 
 511      D8
 512 04e5 0D58B9B3 		.ascii	"\015X\271\263f\335f\260\363\236\301\254\232\3556\203"
 512      66DD66B0 
 512      F39EC1AC 
 512      9AED3683 
 513 04f5 5D740336 		.ascii	"]t\0036\321Y\263\275f\260\277z\006\263j\326o\006\373"
 513      D159B3BD 
 513      66B0BF7A 
 513      06B36AD6 
 513      6F06FB
 514 0508 C20D5885 		.ascii	"\302\015X\205\215f\231\237\323K|\000gx.\240\253\005"
 514      8D66999F 
 514      D34B7C00 
 514      67782EA0 
 514      AB05
 515 051a 4697E091 		.ascii	"F\227\340\221\323(\213q\275\300k\027f\261\033\336\244"
 515      D3288B71 
 515      BDC06B17 
 515      66B11BDE 
 515      A4
 516 052b 9FB4E116 		.ascii	"\237\264\341\026\030$M6\336fi7\210y\010\363b\257\351"
 516      18244D36 
 516      DE666937 
 516      887908F3 
 516      62AFE9
 517 053e D5B8A8D0 		.ascii	"\325\270\250\320+\030Ge\002f\351k2\243\345T\376\321"
 517      2B184765 
 517      0266E96B 
 517      32A3E554 
 517      FED1
 518 0550 3219B80B 		.ascii	"2\031\270\013\246\241\365D\373\262\022\276\206\277\003"
 518      A6A1F544 
 518      FBB212BE 
 518      86BF03
 519 055f F9301B3A 		.ascii	"\3710\033:\223G\303\231\361\3540\033\320\012hY\241\335"
 519      9347C399 
 519      F1EC301B 
 519      D00A6859 
 519      A1DD
 520 0571 1C8002E4 		.ascii	"\034\200\002\344\257\352\304\204+f&\254t\343\246<M\341"
 520      AFEAC484 
 520      2B6626AC 
 520      74E3A63C 
 520      4DE1
 521 0583 4CEFDA3B 		.ascii	"L\357\332;\265\241\0246f/\377\313\343Yl\036\2755\\\353"
 521      B5A11436 
 521      662FFFCB 
 521      E3596C1E 
 521      BD355CEB 
ARM GAS  /tmp/cclD5DnM.s 			page 41


 522 0597 2DD9FE94 		.ascii	"-\331\376\224\373y\311Fc\356t\223J\177\271\220\357\335"
 522      FB79C946 
 522      63EE7493 
 522      4A7FB990 
 522      EFDD
 523 05a9 377A9C98 		.ascii	"7z\234\230\010h\263g\013&q\274>\320\214/\327i\253'\273"
 523      0868B367 
 523      0B2671BC 
 523      3ED08C2F 
 523      D769AB27 
 524 05be 37E39C61 		.ascii	"7\343\234aF\235@\314\330\3615\230\361[\317fL6\231A\006"
 524      469D40CC 
 524      D8F13598 
 524      F15BCF66 
 524      4C369941 
 525 05d3 BA579BF5 		.ascii	"\272W\233\365\346\371\015\324\234\177\210A\364Y$|\303"
 525      E6F90DD4 
 525      9C7F8841 
 525      F459247C 
 525      C3
 526 05e4 F27A4F9D 		.ascii	"\362zO\235<\210+\364\333\243\275\332\265\324\360A\323"
 526      3C882BF4 
 526      DBA3BDDA 
 526      B5D4F041 
 526      D3
 527 05f5 30547333 		.ascii	"0Ts3\344\3531\206\241M\324a\373\013m\306\216\256\200"
 527      E4EB3186 
 527      A14DD461 
 527      FB0B6DC6 
 527      8EAE80
 528 0608 86DF3ED0 		.ascii	"\206\337>\320\301\206\241K(T\337\230\241:\016v\352s"
 528      C186A14B 
 528      2854DF98 
 528      A13A0E76 
 528      EA73
 529 061a E4E514A8 		.ascii	"\344\345\024\250?'\210E\\\014\213\2541\204K\"\351K2"
 529      3F278845 
 529      5C0C8BAC 
 529      31844B22 
 529      E94B32
 530 062d 48C4CFB2 		.ascii	"H\304\317\262;\344\302\207\376\341\365\004\364>U\237"
 530      3BE4C287 
 530      FEE1F504 
 530      F43E559F 
 531 063d C46F2CC3 		.ascii	"\304o,\303\036\302\237s\315F\367\256\007\351\243\277"
 531      1EC29F73 
 531      CD46F7AE 
 531      07E9A3BF 
 532 064d 09B12EB5 		.ascii	"\011\261.\265\343W\306L\212N\226/\376\215p\357\035\362"
 532      E357C64C 
 532      8A4E962F 
 532      FE8D70EF 
 532      1DF2
 533 065f 3AF769B8 		.ascii	":\367i\270\310H\267\206\332\363yN\200\373\370V\352f"
 533      C848B786 
 533      DAF3794E 
 533      80FBF856 
ARM GAS  /tmp/cclD5DnM.s 			page 42


 533      EA66
 534 0671 2A7073AC 		.ascii	"*ps\254vd~\002\252/r\321\213W\344\011\326\3400\013\326"
 534      76647E02 
 534      AA2F72D1 
 534      8B57E409 
 534      D6E0300B 
 535 0686 A8F30963 		.ascii	"\250\363\011c\212}\364\355Z\\O\333\315\006\201L\261"
 535      8A7DF4ED 
 535      5A5C4FDB 
 535      CD06814C 
 535      B1
 536 0697 9F2BB29D 		.ascii	"\237+\262\235b\347\233\230\274@\253\274$\344L\261\177"
 536      62E79B98 
 536      BC40ABBC 
 536      24E44CB1 
 536      7F
 537 06a8 6F4CB1C9 		.ascii	"oL\261\3113\027\023\023\313\024[\302\373\260\300p\307"
 537      33171313 
 537      CB145BC2 
 537      FBB0C070 
 537      C7
 538 06b9 EA514B10 		.ascii	"\352QK\020\263\012B.\220W\366F\341n\263\367_\365\354"
 538      B30A422E 
 538      9057F646 
 538      E16EB3F7 
 538      5FF5EC
 539 06cc FD0AB3F7 		.ascii	"\375\012\263\367S#\207\326b\242\277\315\\\352Q\363@"
 539      532387D6 
 539      62A2BFCD 
 539      5CEA51F3 
 539      40
 540 06dd 2AB3BA71 		.ascii	"*\263\272qx\005s};u}\207\203\353\037u\002\022\320>Z"
 540      7805737D 
 540      3B757D87 
 540      83EB1F75 
 540      0212D03E 
 541 06f2 65738EEB 		.ascii	"es\216\353\007\007\014\327ov\345\372\343\266\256\337"
 541      07070CD7 
 541      6F76E5FA 
 541      E3B6AEDF 
 542 0702 ECDDF50C 		.ascii	"\354\335\365\014o0\273\272!\341\267<\203U\344\213\343"
 542      6F30BBBA 
 542      21E1B73C 
 542      8355E48B 
 542      E3
 543 0713 66531C5F 		.ascii	"fS\034_\243q\334\012q\224\3606k4\217\362\321\264\270"
 543      A371DC0A 
 543      7194F036 
 543      6B348FF2 
 543      D1B4B8
 544 0726 8E9D4E72 		.ascii	"\216\235Nr2AK\265\034^\313\\\242w{\037\270a\307dg\227"
 544      32414BB5 
 544      1C5ECB5C 
 544      A2777B1F 
 544      B861C764 
 545 073c AC3F4C5D 		.ascii	"\254?L]\242\3679\177\364\014Va\001\333\263t\235\253"
 545      A2F7397F 
ARM GAS  /tmp/cclD5DnM.s 			page 43


 545      F40C5661 
 545      01DBB374 
 545      9DAB
 546 074e 39BC86CD 		.ascii	"9\274\206\315Cd\230\344P\271\235<_N\016\367/b|\351t"
 546      436498E4 
 546      50B99D3C 
 546      5F4E0EF7 
 546      2F627CE9 
 547 0763 C11778D3 		.ascii	"\301\027x\323\237\013h\315\245\006q\333}\006j\036W\347"
 547      9F0B68CD 
 547      A50671DB 
 547      7D066A1E 
 547      57E7
 548 0775 61CBC8A7 		.ascii	"a\313\310\247\357`\012\247\017\371\267\363p\036\247"
 548      EF600AA7 
 548      0FF9B7F3 
 548      701EA7
 549 0784 C2B7E4BE 		.ascii	"\302\267\344\276\311\336\034\243\267\310\324\251.2\326"
 549      C9DE1CA3 
 549      B7C8D4A9 
 549      2E32D6
 550 0793 49519B76 		.ascii	"IQ\233v\371\370\267\202\356\031\023\021;MD\354\242D"
 550      F9F8B782 
 550      EE191311 
 550      3B4D44EC 
 550      A244
 551 07a5 ECA644DC 		.ascii	"\354\246D\334M\363\275f::\015\267~'\230\306\360)\317"
 551      4DF3BD66 
 551      3A3A0DB7 
 551      7E2798C6 
 551      F029CF
 552 07b8 765770D1 		.ascii	"vWp\321q\022\363\246YL\257\317\005\367\2468\272\027"
 552      7112F3A6 
 552      594CAFCF 
 552      05F7A638 
 552      BA17
 553 07ca FAF5E32D 		.ascii	"\372\365\343-\306\210"
 553      C688
 554 07d0 405F3D7C 		.ascii	"@_=|\3173\242\225\315\237/\265\214\010N\273\201{\324"
 554      CF33A295 
 554      CD9F2FB5 
 554      8C084EBB 
 554      817BD4
 555 07e3 4641BB9F 		.ascii	"FA\273\237y\355\027\374M\247j)L\002\264\237\346\007"
 555      79ED17FC 
 555      4DA76A29 
 555      4C02B49F 
 555      E607
 556 07f5 687E84E6 		.ascii	"h~\204\346\237\321\374s\232_\246\371W4\277A\363Z\032"
 556      9FD1FC73 
 556      9A5FA6F9 
 556      5734BF41 
 556      F35A1A
 557 0808 D6469AAF 		.ascii	"\326F\232\257\247\371\2534\357\240\371\016\232\357\244"
 557      A7F9AB34 
 557      EFA0F90E 
 557      9AEFA4
ARM GAS  /tmp/cclD5DnM.s 			page 44


 558 0817 790FCD7B 		.ascii	"y\017\315{\335\020\240\313\272\361\340Tl\027\277\261"
 558      DD10A0CB 
 558      BAF1E054 
 558      6C17BFB1 
 559 0827 A1D733ED 		.ascii	"\241\3273\355l\010\350c\216\261\372\266\304\320\206"
 559      6C08E863 
 559      8EB1FAB6 
 559      C4D086
 560 0836 A5275AF0 		.ascii	"\245'Z\360\312\205\332T\243y]\322i\346\270;\321\205"
 560      CA85DA54 
 560      A3795DD2 
 560      69E6B83B 
 560      D185
 561 0848 B3DB1375 		.ascii	"\263\333\023uZ\347\307OL5\3569\327bj\036\024\354\266"
 561      5AE7C74F 
 561      4C35EE39 
 561      D7626A1E 
 561      14ECB6
 562 085b 054E2E1B 		.ascii	"\005N.\033\313n\305\021\2013\271\215\316\225,&_\266"
 562      CB6EC511 
 562      8133B98D 
 562      CE952C26 
 562      5FB6
 563 086d 35591BF9 		.ascii	"5Y\033\371\305Dc\036[\353'%\016\013\031\265\271\271"
 563      C544631E 
 563      5BEB2725 
 563      0E0B19B5 
 563      B9B9
 564 087f 7B9B3ED4 		.ascii	"{\233>\324c\233\036K\264\206r\234\331\365 \265,Lz\317"
 564      639B1E4B 
 564      B486729C 
 564      D9F520B5 
 564      2C4C7ACF 
 565 0893 D6BCF431 		.ascii	"\326\274\3641G\363\310\233\303\311\276A;\373\330\005"
 565      47F3C89B 
 565      C3C9BE41 
 565      3BFBD805 
 566 08a3 1BCB6A8D 		.ascii	"\033\313j\215\332\244\366l\237Un@\2202\231AD\347\275"
 566      DAA4F66C 
 566      9F556E40 
 566      90329941 
 566      44E7BD
 567 08b6 742C7B92 		.ascii	"t,{\222\276W\232\374\266\213\357\243\003\265\0167N\320"
 567      BE579AFC 
 567      B68BEFA3 
 567      03B50E37 
 567      4ED0
 568 08c8 0A247C9A 		.ascii	"\012$|\232\302\254\034+\314PG\323\253\372\032\376\031"
 568      C2AC1C2B 
 568      CC5047D3 
 568      ABFA1AFE 
 568      19
 569 08d9 0AB4CECF 		.ascii	"\012\264\316\317\367\242\"7\264\026\255Ck1\220=!\016"
 569      F7A22237 
 569      B416AD43 
 569      6B31903D 
 569      210E
ARM GAS  /tmp/cclD5DnM.s 			page 45


 570 08eb FDFB16E6 		.ascii	"\375\373\026\346\350\324\356\267oA\207\323\003\370J"
 570      E8D4EEB7 
 570      6F4187D3 
 570      03F84A
 571 08fa 9D36D1E0 		.ascii	"\2356\321\340\3401\201\014h\216\347'\025\343\342ei\222"
 571      E031810C 
 571      688EE727 
 571      15E3E265 
 571      6992
 572 090c 119C3D14 		.ascii	"\021\234=\024\336T\315\342@\275T\226\213\333\032\033"
 572      DE54CDE2 
 572      40BD5496 
 572      8BDB1A1B 
 573 091c CA0B740A 		.ascii	"\312\013t\012!k5\273\226w\326\226\232-/\214\245\345"
 573      216B35BB 
 573      9677D696 
 573      9A2D2F8C 
 573      A5E5
 574 092e 5DE09949 		.ascii	"]\340\231IZ\177\346BW\210w\335~[\327i#\341L\267s\204"
 574      5A7FE642 
 574      578877DD 
 574      7E5BD769 
 574      23E14CB7 
 575 0944 9638EF60 		.ascii	"\2268\357`\006\353bh\265\345Z\207<\325\030v\035\033"
 575      06EB6268 
 575      B5E55A87 
 575      3CD51876 
 575      1D1B
 576 0956 A55A93E0 		.ascii	"\245Z\223\340\334\200\317\363\015\370O\271^j\035J}\361"
 576      DC80CFF3 
 576      0DF84FB9 
 576      5E6A1D4A 
 576      7DF1
 577 0968 7EE9F2DA 		.ascii	"~\351\362\332\241tz\003\020\327\342%?ZD\027~\032\264"
 577      A1747A03 
 577      10D7E225 
 577      3F5A4417 
 577      7E1AB4
 578 097b 5A3C67B4 		.ascii	"Z<g\264\225Bxe\010~P\370\204\337q\235\217\024@\214\205"
 578      95427865 
 578      087E50F8 
 578      84DF719D 
 578      8F14408C 
 579 0990 FAB97196 		.ascii	"\372\271q\226g\231\357\013!w\327\366\003\316\333\231"
 579      6799EF0B 
 579      2177D7F6 
 579      03CEDB99 
 580 09a0 DE7A2BDD 		.ascii	"\336z+\335\265\325\261\341M\346\300P\206w\315\2263\203"
 580      B5D5B1E1 
 580      4DE6C050 
 580      8677CD96 
 580      3383
 581 09b2 A7746FDC 		.ascii	"\247to\334\245o\030\013h\330^\230f\335\"\376\222\367"
 581      A56F180B 
 581      68D85E98 
 581      66DD22FE 
 581      92F7
ARM GAS  /tmp/cclD5DnM.s 			page 46


 582 09c4 F5755BF4 		.ascii	"\365u[\364\275\037r\350\313\002n\320Gx\364\033\266\350"
 582      BD1F72E8 
 582      CB026ED0 
 582      4778F41B 
 582      B6E8
 583 09d6 ABDFE7D0 		.ascii	"\253\337\347\320\177\343\012\375\026\217\236\266\345"
 583      7FE30AFD 
 583      168F9EB6 
 583      E5
 584 09e3 C9E0190E 		.ascii	"\311\340\031\016\275\323\025z\255\310\241\327\211\271"
 584      BDD3157A 
 584      ADC8A1D7 
 584      89B9
 585 09f1 BA434F7E 		.ascii	"\272CO~\366\313_\254~]\253_\254\335J?\213\335\267\326"
 585      F6CB5FAC 
 585      7E5DAB5F 
 585      ACDD4A3F 
 585      8BDDB7D6 
 586 0a05 06315F6B 		.ascii	"\0061_ke/s\256\265\276\223\243\270^\3509[\315No\375"
 586      652F73AE 
 586      B5BE93A3 
 586      B85EE839 
 586      5BCD4E6F 
 587 0a1a B4728DB6 		.ascii	"\264r\215\266\277^K\247\237\365\320\2154Y\025\033u\273"
 587      BF5E4BA7 
 587      9FF5D08D 
 587      3459151B 
 587      75BB
 588 0a2c 31332227 		.ascii	"13\"'\237\257e\226'>4\346\310KD2,_\\<\372\027\000\026"
 588      9FAF6596 
 588      273E34E6 
 588      C84B4432 
 588      2C5F5C3C 
 589 0a44 2001ADA1 		.ascii	" \001\255\241U\226\2139s\344\277,ds\036\362l\3649r\327"
 589      55968B39 
 589      73E4BF2C 
 589      64731EF2 
 589      6CF43972 
 590 0a59 326394FA 		.ascii	"2c\224\372k\221th\377\227\301\035\333\034\271\373\010"
 590      6B917468 
 590      FF97C11D 
 590      DB1CB9FB 
 590      08
 591 0a6a 9D10EA60 		.ascii	"\235\020\352`\257{\006\253\260\200\3559\262v\242\326"
 591      AF7B06AB 
 591      B080ED39 
 591      B276A2D6 
 592 0a7a BA0F1BEF 		.ascii	"\272\017\033\357\232n\036\317\362\256\031}\016\265\367"
 592      9A6E1ECF 
 592      F2AE197D 
 592      0EB5F7
 593 0a89 08BF6DA2 		.ascii	"\010\277m\242\177\375b\247]f(r\272\226-\301\276Hmz\253"
 593      7FFD62A7 
 593      5D662872 
 593      BA962DC1 
 593      BE486D7A 
 594 0a9e 987FF96F 		.ascii	"\230\177\371o\306\334&-\367\335\215\200\336u\343\207"
ARM GAS  /tmp/cclD5DnM.s 			page 47


 594      C6DC262D 
 594      F7DD8D80 
 594      DE75E387 
 595 0aae 7CBB5183 		.ascii	"|\273Q\203W^6&'t21\340\006\320n3\312\356g\246\221\204"
 595      575E3626 
 595      27743231 
 595      E006D06E 
 595      33CAEE67 
 596 0ac5 9B453299 		.ascii	"\233E2\231h\021\311`\377y\232\277@\36354_/\272\030\376"
 596      6811C960 
 596      FF799ABF 
 596      40F33534 
 596      5F2FBA18 
 597 0ada 93E067B0 		.ascii	"\223\340g\260-M\364T\261}\023m\265m\242\037l=Y9\226"
 597      2D4DF454 
 597      B17D136D 
 597      B56DA21F 
 597      6C3D5939 
 598 0aef CEE325BE 		.ascii	"\316\343%\276\363 \012e.\330\200$s\375\242\256\255\371"
 598      F3200A65 
 598      2ED88024 
 598      73FDA2AE 
 598      ADF9
 599 0b01 EBAA5CC5 		.ascii	"\353\252\\\305/8(\376\252U\361\177Fm\332P?\214\255^"
 599      2F3828FE 
 599      AA55F17F 
 599      466DDA50 
 599      3F8CAD5E 
 600 0b15 FBA75A2D 		.ascii	"\373\247Z-\005M\034\006)\330n\351L\023\315\353!\031"
 600      054D1C06 
 600      29D86EE9 
 600      4C13CDEB 
 600      2119
 601 0b27 AEFDD5F8 		.ascii	"\256\375\325\3702h\023\355\027.\217\336/X\201\004\224"
 601      326813ED 
 601      172E8FDE 
 601      2F588104 
 601      94
 602 0b38 A655B6E4 		.ascii	"\246U\266\344\364\013\253z\032X\277\260\305E\277\240"
 602      F40BAB7A 
 602      1A58BFB0 
 602      C545BFA0 
 603 0b48 A5D60D3A 		.ascii	"\245\326\015:.\373\015e\272\242o\233t?z\374#\246\373"
 603      2EFB0D65 
 603      BAA26F9B 
 603      743F7AFC 
 603      23A6FB
 604 0b5b 76BD4F2B 		.ascii	"v\275O+\031Uw+\220\200V\321*;ru\037\250g\272\357p\245"
 604      1955772B 
 604      908056D1 
 604      2A3B7275 
 604      1FA867BA 
 605 0b72 FBB1A3BA 		.ascii	"\373\261\243\272\356\306J\316+\031\334\261\255\344\014"
 605      EEC64ACE 
 605      2B19DCB1 
 605      ADE40C
 606 0b81 E89BE0FA 		.ascii	"\350\233\340\372\262\300\026\036\314\323:\216\226\372"
ARM GAS  /tmp/cclD5DnM.s 			page 48


 606      B2C0161E 
 606      CCD33A8E 
 606      96FA
 607 0b8f 830ED64F 		.ascii	"\203\016\326O?\375\332\341\031\254\302\242\331\231f"
 607      3FFDDAE1 
 607      19ACC2A2 
 607      D99966
 608 0b9e EBF75B5D 		.ascii	"\353\367[]n\360\362lR_:j\332\244\336\347\031\314\252"
 608      6EF0F26C 
 608      525F3A6A 
 608      DAA4DEE7 
 608      19CCAA
 609 0bb1 DC3533D8 		.ascii	"\33453\330;n\300\354\266r\355~f\222Hx'\355\261\336\244"
 609      3B6EC0EC 
 609      B672ED7E 
 609      66924878 
 609      27EDB1DE 
 610 0bc6 FDD32E9A 		.ascii	"\375\323.\232w\323|7\315\367\322<e\356\267`\374]b\264"
 610      77D37C37 
 610      CDF7D23C 
 610      65EEB760 
 610      FC5D62B4 
 611 0bda 125B2A8E 		.ascii	"\022[*\216F\011-\265\323\271y<eT/5\265\216\346s\265"
 611      46092DB5 
 611      D3B9793C 
 611      65542F35 
 611      B58EE673 
 612 0bef B88152F8 		.ascii	"\270\201R\370\000m\035'Go\035\026\034\001}Fk\364\346"
 612      006D1D27 
 612      476F1D16 
 612      1C017D46 
 612      6BF4E6
 613 0c02 BEF06F1A 		.ascii	"\276\360o\032/\374^W/\374\353\226\027\276\204W\212\002"
 613      2FFC5E57 
 613      2FFCEB96 
 613      17BE8457 
 613      8A02
 614 0c14 C31DDB0B 		.ascii	"\303\035\333\013\377F\366\205/\341U\236\301\254\224"
 614      FF46F685 
 614      2FE1559E 
 614      C1AC94
 615 0c23 5971D4FC 		.ascii	"Yq\324\374\302\227\360j\036\317\343\013\177{si\377S"
 615      C297F06A 
 615      1ECFE30B 
 615      7F7B7369 
 615      FF53
 616 0c35 C6E8A1B1 		.ascii	"\306\350\241\261\024{\004+\317G\301^\023\005\337\241"
 616      147B042B 
 616      CF47C15E 
 616      1305DFA1 
 617 0c45 143C48A9 		.ascii	"\024<H\251v\210\346\357\322\374\367V\3325\227r\264\263"
 617      7688E6EF 
 617      D2FCF756 
 617      DA359772 
 617      B4B3
 618 0c57 C4D8AE11 		.ascii	"\304\330\256\021\230\335\243\245v\017\202\257\335o\202"
 618      98DDA3A5 
ARM GAS  /tmp/cclD5DnM.s 			page 49


 618      760F82AF 
 618      DD6F82
 619 0c66 9D3736C1 		.ascii	"\23576\301\336\243\234[S\352y\023\254\235V\031\310\355"
 619      DEA39C5B 
 619      53EA7913 
 619      AC9D5619 
 619      C8ED
 620 0c78 91CF193D 		.ascii	"\221\317\031=\362\300\350\244\253_\230\332\331\362\233"
 620      F2C0E8A4 
 620      AB5F98DA 
 620      D9F29B
 621 0c87 ECCAFEC2 		.ascii	"\354\312\376\302\314\330\353*v^I\262|\010\262+\243\207"
 621      CCD8EB2A 
 621      765E49B2 
 621      7C08B22B 
 621      A387
 622 0c99 4792DA87 		.ascii	"G\222\332\207n\300\024\272A\032\272\023\326@\355\347"
 622      6EC014BA 
 622      411ABA13 
 622      D640EDE7 
 623 0ca9 0365272F 		.ascii	"\003e'/\3176\313\211A}\233\305m\254\326}\362\371Ct\201"
 623      CF36CB89 
 623      417D9BC5 
 623      6DACD67D 
 623      F2F94374 
 624 0cbe E9348DD4 		.ascii	"\3514\215\324u\257\221\"F\235\341\242\224\272,W\350"
 624      75AF9122 
 624      469DE1A2 
 624      94BA2C57 
 624      E8
 625 0ccf 775D7C07 		.ascii	"w]|\007|\216\356U\270\337m\356\371#\333m>+\322\025\272"
 625      7C8EEE55 
 625      B8DF6DEE 
 625      F923DB6D 
 625      3E2BD215 
 626 0ce4 DBBE96DD 		.ascii	"\333\276\226\335\346f\012s\346\353\012\363\031S\230"
 626      E6660A73 
 626      E6EB0AF3 
 626      195398
 627 0cf3 8768983F 		.ascii	"\207h\230?\262\206y\315m^\303\\\221O\336\026\223\274"
 627      B28679CD 
 627      6D5EC35C 
 627      914FDE16 
 627      93BC
 628 0d05 AD54DE36 		.ascii	"\255T\3366\332\013\274E\363~\232\237\262j\2606\3438"
 628      DA0BBC45 
 628      F37E9A9F 
 628      B26AB036 
 628      E338
 629 0d17 DBF11C5D 		.ascii	"\333\361\034]\357\311\0161\307\243\345\224\007\217\256"
 629      EFC90E31 
 629      C7A3E594 
 629      078FAE
 630 0d26 2ED3BFA4 		.ascii	".\323\277\244\262\353\310\350b\2278\236\236Y\276\017"
 630      B2EBC8E8 
 630      6297389E 
 630      9E59BE0F 
ARM GAS  /tmp/cclD5DnM.s 			page 50


 631 0d36 A1259CD8 		.ascii	"\241%\234\330\363\251\230\375Z\2534\220=\301V\321\025"
 631      F3A998FD 
 631      5AAB3490 
 631      3DC156D1 
 631      15
 632 0d47 9CE42946 		.ascii	"\234\344)F9\037\303\271\350Y\362\237\034$\0271\311\334"
 632      391FC3B9 
 632      E859F29F 
 632      1C241731 
 632      C9DC
 633 0d59 7CADDB61 		.ascii	"|\255\333a\007\205\0213}\361\344\267\267\320\017w\377"
 633      07851133 
 633      7DF1E4B7 
 633      B7D00F77 
 633      FF
 634 0d6a 4CA76B27 		.ascii	"L\247k'r\230\331\305O\327\270\335\012N\036\201qR\375"
 634      7298D9C5 
 634      4FD7B8DD 
 634      0A4E1E81 
 634      7152FD
 635 0d7d B3EC44C7 		.ascii	"\263\354D\307\303\327A\306\207\032\227h\323\271\230"
 635      C3D741C6 
 635      871A9768 
 635      D3B998
 636 0d8c A3E01261 		.ascii	"\243\340\022a\354\237\342p\312\023\021N\312_\316*\317"
 636      EC9FE270 
 636      CA13114E 
 636      CA5FCE2A 
 636      CF
 637 0d9d D56A77D8 		.ascii	"\325jw\330\254\243\335r\266\026\373\177\222\221\301"
 637      ACA3DD72 
 637      B616FB7F 
 637      9291C1
 638 0dac 2313BBC9 		.ascii	"#\023\273\311'\304d\226V[\217\365}\035\001]\342\014"
 638      27C46496 
 638      565B8FF5 
 638      7D1D015D 
 638      E20C
 639 0dbe 638BA7C7 		.ascii	"c\213\247\307\345\251\206\313\337\245+\316WEw{6W-{6"
 639      E5A986CB 
 639      DFA52BCE 
 639      5745777B 
 639      36572D7B 
 640 0dd3 4EB5989A 		.ascii	"N\265\230\232\327\254\363\262\012\264\001\\\277\\k\020"
 640      D7ACF3B2 
 640      0AB4015C 
 640      BF5C6B10 
 641 0de3 ECFF29C5 		.ascii	"\354\377)\305\335s\262\353\364\240\266\322\237\257L"
 641      DD73B2EB 
 641      F4A0B6D2 
 641      9FAF4C
 642 0df2 EA56B356 		.ascii	"\352V\263V\234\027%u\305\271\004\027\210M\016=\023]"
 642      9C172575 
 642      C5B90417 
 642      884D0E3D 
 642      135D
 643 0e04 DE730CDF 		.ascii	"\336s\014\337\366<\265\322\271\341[\325{\0027\033\377"
ARM GAS  /tmp/cclD5DnM.s 			page 51


 643      F63CB5D2 
 643      B9E15BD5 
 643      7B02371B 
 643      FF
 644 0e15 0ED4EA77 		.ascii	"\016\324\352w?\315\256-\340\246\331W\304\234\355\273"
 644      3FCDAE2D 
 644      E0A6D957 
 644      C49CEDBB 
 645 0e25 5BF62438 		.ascii	"[\366$8FHp\2056\320\305e\244\204V\340D\002F8\266\006"
 645      46487085 
 645      36D0C565 
 645      A48456E0 
 645      44024638 
 646 0e3b 79CAFC7F 		.ascii	"y\312\374\177E\244\222\351'\341\205\005\226\250s~!k"
 646      45A492E9 
 646      27E18505 
 646      96A8737E 
 646      216B
 647 0e4d 8A4EB62C 		.ascii	"\212N\266,*\340\374\222j9\333/\222\177b \353\203wsN"
 647      2AE0FC92 
 647      6A39DB2F 
 647      927F6220 
 647      EB837773 
 648 0e62 21247442 		.ascii	"!$tBZ\354\302+K\312\354\367\025\014\257\200\256\005"
 648      5AECC22B 
 648      4BCAECF7 
 648      150CAF80 
 648      AE05
 649 0e74 A4693CE7 		.ascii	"\244i<\347\312+|\323p\252\305\024\374U^'\275\224\307"
 649      CA2B7CD3 
 649      70AAC514 
 649      FC555E27 
 649      BD94C7
 650 0e87 494B0B9C 		.ascii	"IK\013\234(G\2665\235j-s\254\325\224G\326r\307Zo8,\330"
 650      2847B635 
 650      9D6A2D73 
 650      ACD59447 
 650      D672C75A 
 651 0e9f 915A2B72 		.ascii	"\221Z+r\302x\363\354\220`\204\261\255\\\337x\020\320"
 651      C278F3EC 
 651      906084B1 
 651      AD5CDF78 
 651      10D0
 652 0eb1 062E000E 		.ascii	"\006.\000\016[\015\315\005y\267\032Z\254\236DS+\253"
 652      5B0DCD05 
 652      79B71A5A 
 652      AC9E4453 
 652      2BAB
 653 0ec3 E251B932 		.ascii	"\342Q\2712\024\017/\250\014\313s+CU\221\231\221x\262"
 653      140F2FA8 
 653      0CCB732B 
 653      43559199 
 653      9178B2
 654 0ed6 52556A62 		.ascii	"RUjbOW\302\211\242V&\342\212\232\254\374\321\364\237"
 654      4F57C289 
 654      A25626E2 
 654      8A9AACFC 
ARM GAS  /tmp/cclD5DnM.s 			page 52


 654      D1F49F
 655 0ee9 3EF6D3F9 		.ascii	">\366\323\371P2\232\210T\313J\262\362\361\307\036\203"
 655      50329A88 
 655      54CB4AB2 
 655      F2F1C71E 
 655      83
 656 0efa E2EA8284 		.ascii	"\342\352\202\204\234\274\257\012\371\325\244*\251rP"
 656      9CBCAF0A 
 656      F9D5A42A 
 656      A97250
 657 0f09 2D7AFC67 		.ascii	"-z\374gOV<\206\356\251\254I*\225\222\022\375^,\036\223"
 657      4F563C86 
 657      EEA9AC49 
 657      2A959212 
 657      FD5E2C1E 
 658 0f1e BF274B33 		.ascii	"\277'K3#\225\221X\250\272&,W&\325p$\246B%_\015\034\247"
 658      23959158 
 658      A8BA262C 
 658      5726D570 
 658      24A64225 
 659 0f36 04D507F3 		.ascii	"\004\325\007\363\024\216J\240SL\256\014\206\345YRM\265"
 659      148E4AA0 
 659      534CAE0C 
 659      86E55952 
 659      4DB5
 660 0f48 1A342406 		.ascii	"\0324$\006\202AV}\262\013#\222J\010\356'CU\341\373B"
 660      8241567D 
 660      B20B2392 
 660      4A08EE27 
 660      4355E1FB 
 661 0f5d A8689EF4 		.ascii	"\250h\236\364\264\\\223\300\211qA\270#\207k\300\240"
 661      B45C93C0 
 661      897141B8 
 661      23876BC0 
 661      A0
 662 0f6e 60241651 		.ascii	"`$\026Q\247\270@2\024\003\264\005\311\254\371U\212,"
 662      A7B84032 
 662      1403B405 
 662      C9ACF955 
 662      8A2C
 663 0f80 85836A20 		.ascii	"\205\203j T\025\324\317\037\364\206E4\253BE\211`L\236"
 663      5415D4CF 
 663      1FF48645 
 663      34AB4245 
 663      89604C9E 
 664 0f94 AFC221A1 		.ascii	"\257\302!\241\310s}jB\211\304\203"
 664      C8737D6A 
 664      4289C483 
 665 0fa0 AA9F18FA 		.ascii	"\252\237\030\372\300\367\203j\261n39\245E\"q_(\036S"
 665      C0F7836A 
 665      B16E3339 
 665      A5452271 
 665      5F281E53 
 666 0fb4 A1C6C39E 		.ascii	"\241\306\303\236\003Y\025\212+2\210,!\267\301z5\244"
 666      0359158A 
 666      2B32882C 
 666      21B7C17A 
ARM GAS  /tmp/cclD5DnM.s 			page 53


 666      35A4
 667 0fc6 CEFFB7B1 		.ascii	"\316\377\267\261\241\004\347>\024%NP\344\331\020\304"
 667      A104E73E 
 667      14254E50 
 667      E4D910C4 
 668 0fd6 A02A280F 		.ascii	"\240*(\017\012\312\277\012\312\017\004\345!A\231\"("
 668      0ACABF0A 
 668      CA0F04E5 
 668      21419922 
 668      28
 669 0fe7 0F8BCAFD 		.ascii	"\017\213\312\375\223!\335/T+px\2400\021\004i>b\354<"
 669      9321DD2F 
 669      542B7078 
 669      A0301104 
 669      693E62EC 
 670 0ffc 598163BC 		.ascii	"Y\201c\274"
 671 1000 3A2C2B05 		.ascii	":,+\005\241*I!\036\220\2422\334\243\204\362\251\321"
 671      A12A4921 
 671      1E90A232 
 671      DCA384F2 
 671      A9D1
 672 1012 78186805 		.ascii	"x\030h\005\327\263\252\245\331I\237\252\310\263\222"
 672      D7B3AAA5 
 672      D9499FAA 
 672      C8B392
 673 1021 D47C7252 		.ascii	"\324|rR\030M\316\206\207\314'@\011\303;Jx\001<\362\313"
 673      184DCE86 
 673      87CC2740 
 673      09C33B4A 
 673      78013CF2 
 674 1036 F3232A58 		.ascii	"\363#*X#\027\315S\3433\377'Q\"\317\225cjTJ>\015E\344"
 674      2317CD53 
 674      E333FF27 
 674      5122CF95 
 674      636A544A 
 675 104e 79E4444C 		.ascii	"y\344DL\004k\312\364\210%\203\325\221$\020l\\&\206\372"
 675      046BCAF4 
 675      882583D5 
 675      9124106C 
 675      5C2686FA 
 676 1062 9D402238 		.ascii	"\235@\"8O\212\250\221\330\354q\306\35595r\015hUn*Io"
 676      4F8AA891 
 676      D8EC71C6 
 676      ED393572 
 676      0D68556E 
 677 1079 15278220 		.ascii	"\025'\202 \226\236\026\322S\270!'\344\030\020~va\264"
 677      969E16D2 
 677      53B82127 
 677      E418107E 
 677      7661B4
 678 108c 0622F580 		.ascii	"\006\"\365\200'ZD\325\371\244\235Dut8\306\347\305\300"
 678      275A44D5 
 678      F9A49D44 
 678      757438C6 
 678      E7C5C0
 679 109f 6114094C 		.ascii	"a\024\011L\210R\266\200~P\216hZL\274\"USb\300\315D<"
 679      8852B680 
ARM GAS  /tmp/cclD5DnM.s 			page 54


 679      7E508E68 
 679      5A4CBC22 
 679      555362C0 
 680 10b6 5E5D12AA 		.ascii	"^]\022\252\232\021\252\232\016*.\230&\250\211\333\350"
 680      9A11AA9A 
 680      0E2A2E98 
 680      26A889DB 
 680      E8
 681 10c7 E5E3F119 		.ascii	"\345\343\361\031\325\262\234\230\341\007\377S7\007\010"
 681      D5B29C98 
 681      E107FF53 
 681      370708
 682 10d6 97235199 		.ascii	"\227#Q\231q\355\376\037d\270FN\3570W\3729\024\213\327"
 682      71EDFE1F 
 682      64B8464E 
 682      EF3057FA 
 682      39148BD7 
 683 10ea A8330A48 		.ascii	"\2503\012H\371R\372\344\277hs\232!\306\324\204\0106"
 683      F952FAE4 
 683      BF68739A 
 683      21C6D484 
 683      0836
 684 10fc 17067F0C 		.ascii	"\027\006\177\014\202\277E\037MK>\241\310r4\241F\342"
 684      82BF451F 
 684      4D4B3EA1 
 684      C87234A1 
 684      46E2
 685 110e B1E9F29C 		.ascii	"\261\351\362\234\232\210\"\207\357\244O~\022\237.\033"
 685      9A882287 
 685      EFA44F7E 
 685      129F2E1B 
 686 111e ADEFC732 		.ascii	"\255\357\3072\264\361\360\204\234\373?\252\002\275\313"
 686      B4F1F084 
 686      9CFB3FAA 
 686      02BDCB
 687 112d 9905C6CD 		.ascii	"\231\005\306\315\031\343s\312\225\006)\211\223\363 "
 687      19E373CA 
 687      95062989 
 687      93F320
 688 113c DA55DFF7 		.ascii	"\332U\337\367\344\341\271\244#\03277\242\2505Ru\220"
 688      E4E1B9A4 
 688      231A3737 
 688      A2A83552 
 688      7590
 689 114e D8A4E871 		.ascii	"\330\244\350q\265\334\362\315U\251\253\311\221\264L"
 689      B5DCF2CD 
 689      55A9ABC9 
 689      91B44C
 690 115d 3F1CC372 		.ascii	"?\034\303r\265*\301\311\254\232X(H\237\220\263\"RBR"
 690      B52AC1C9 
 690      AC9A5828 
 690      489F90B3 
 690      22524252 
 691 1171 C031FFF9 		.ascii	"\3001\377\371s\252\242\254N+\326/f\300)\204#H|-G\365"
 691      73AAA2AC 
 691      4E2BD62F 
 691      66C02984 
ARM GAS  /tmp/cclD5DnM.s 			page 55


 691      23487C2D 
 692 1187 BE423F2F 		.ascii	"\276B?/%\024Z\300\350\007!\012f\257}\212\036\373\"\205"
 692      25145AC0 
 692      E807210A 
 692      66AF7D8A 
 692      1EFB2285 
 693 119b B6F74285 		.ascii	"\266\367B\205\266\034\205\265\034Eo9\001\270[\243(\300"
 693      B61C85B5 
 693      1C456F39 
 693      01B85BA3 
 693      28C0
 694 11ad ED428554 		.ascii	"\355B\205T\372\246Ey\203\327\023x\253\364\007%\240q"
 694      FAA64579 
 694      83D71378 
 694      ABF40725 
 694      A071
 695 11bf B59454C9 		.ascii	"\265\224T\311-\320\236\334*c*\206\345\2315\263\365\006"
 695      2DD09EDC 
 695      2A632A86 
 695      E59935B3 
 695      F506
 696 11d1 61BE1348 		.ascii	"a\276\023HH\261H\210\320[\014\317\234\355\315\337*\351"
 696      48B14888 
 696      D05B0CCF 
 696      9CEDCDDF 
 696      2AE9
 697 11e3 29CAD568 		.ascii	")\312\325h0$UGf*\022!\006xOQC1P\261(>k\026xLP\243B\250"
 697      30245547 
 697      662A1221 
 697      06784F51 
 697      433150B1 
 698 1201 EA216FC0 		.ascii	"\352!o\300z;\004\364\333Yg\014\035\204\014>\011\001"
 698      7A3B04F4 
 698      DB59670C 
 698      1D840C3E 
 698      0901
 699 1213 AB0B29FA 		.ascii	"\253\013)\372mz\263\015\313z[\325\257H\277/\252s\022"
 699      6D7AB30D 
 699      CB7A5BD5 
 699      AF48BF2F 
 699      AA7312
 700 1226 E3F5CB59 		.ascii	"\343\365\313Y\221Yq\250\031\215\317\225\357`\014&<3"
 700      915971A8 
 700      198DCF95 
 700      EF600C26 
 700      3C33
 701 1238 B83BEDFF 		.ascii	"\270;\355\377\001\016^\304\274"
 701      010E5EC4 
 701      BC
 702              		.text
 703              		.section	.gnu.lto_.symtab.aa8a28c3b75f4c1d,"",%progbits
 704 0000 63680000 		.ascii	"ch\000\000\000\000\000\000\000\000\000\000\000\000\250"
 704      00000000 
 704      00000000 
 704      0000A8
 705 000f 0100005F 		.ascii	"\001\000\000_scheduler_init\000\000\000\000\000\000"
 705      73636865 
ARM GAS  /tmp/cclD5DnM.s 			page 56


 705      64756C65 
 705      725F696E 
 705      69740000 
 706 0027 00000000 		.ascii	"\000\000\000\000\000\000\263\000\000\000chSchReadyI"
 706      0000B300 
 706      00006368 
 706      53636852 
 706      65616479 
 707 003c 00000000 		.ascii	"\000\000\000\000\000\000\000\000\000\000\000\000\267"
 707      00000000 
 707      00000000 
 707      B7
 708 0049 00000063 		.ascii	"\000\000\000chSchGoSleepS\000\000\000\000\000\000\000"
 708      68536368 
 708      476F536C 
 708      65657053 
 708      00000000 
 709 0060 00000000 		.ascii	"\000\000\000\000\000N\001\000\000chSchGoSleepTimeou"
 709      004E0100 
 709      00636853 
 709      6368476F 
 709      536C6565 
 710 007b 74530000 		.ascii	"tS\000\000\000\000\000\000\000\000\000\000\000\000U"
 710      00000000 
 710      00000000 
 710      000055
 711 008a 01000063 		.ascii	"\001\000\000chSchWakeupS\000\000\000\000\000\000\000"
 711      68536368 
 711      57616B65 
 711      75705300 
 711      00000000 
 712 00a0 00000000 		.ascii	"\000\000\000\000\000g\001\000\000chSchIsPreemptionR"
 712      00670100 
 712      00636853 
 712      63684973 
 712      50726565 
 713 00bb 65717569 		.ascii	"equired\000\000\000\000\000\000\000\000\000\000\000"
 713      72656400 
 713      00000000 
 713      00000000 
 713      0000
 714 00cd 00710100 		.ascii	"\000q\001\000\000chSchDoRescheduleBehind\000\000\000"
 714      00636853 
 714      6368446F 
 714      52657363 
 714      68656475 
 715 00ec 00000000 		.ascii	"\000\000\000\000\000\000\000\000\000x\001\000\000ch"
 715      00000000 
 715      00780100 
 715      006368
 716 00fb 53636844 		.ascii	"SchDoRescheduleAhead\000\000\000\000\000\000\000\000"
 716      6F526573 
 716      63686564 
 716      756C6541 
 716      68656164 
 717 0117 00000000 		.ascii	"\000\000\000\000{\001\000\000chSchRescheduleS\000\000"
 717      7B010000 
ARM GAS  /tmp/cclD5DnM.s 			page 57


 717      63685363 
 717      68526573 
 717      63686564 
 718 0131 00000000 		.ascii	"\000\000\000\000\000\000\000\000\000\000~\001\000\000"
 718      00000000 
 718      00007E01 
 718      0000
 719 013f 63685363 		.ascii	"chSchDoReschedule\000\000\000\000\000\000\000\000\000"
 719      68446F52 
 719      65736368 
 719      6564756C 
 719      65000000 
 720 0159 00000081 		.ascii	"\000\000\000\201\001\000\000_port_switch\000\000\002"
 720      0100005F 
 720      706F7274 
 720      5F737769 
 720      74636800 
 721 016f 00000000 		.ascii	"\000\000\000\000\000\000\000\000\000\204\001\000\000"
 721      00000000 
 721      00840100 
 721      00
 722 017c 63685654 		.ascii	"chVTDoResetI\000\000\002\000\000\000\000\000\000\000"
 722      446F5265 
 722      73657449 
 722      00000200 
 722      00000000 
 723 0192 00008901 		.ascii	"\000\000\211\001\000\000chVTDoSetI\000\000\002\000\000"
 723      00006368 
 723      5654446F 
 723      53657449 
 723      00000200 
 724 01a7 00000000 		.ascii	"\000\000\000\000\000\000\000\241\001\000\000"
 724      000000A1 
 724      010000
 725              		.text
 726              		.section	.gnu.lto_.opts,"",%progbits
 727 0000 272D6D63 		.ascii	"'-mcpu=cortex-m3' '-mno-thumb-interwork' '-mthumb' "
 727      70753D63 
 727      6F727465 
 727      782D6D33 
 727      2720272D 
 728 0033 272D4F32 		.ascii	"'-O2' '-fomit-frame-pointer' '-falign-functions=16'"
 728      2720272D 
 728      666F6D69 
 728      742D6672 
 728      616D652D 
 729 0066 20272D66 		.ascii	" '-ffunction-sections' '-fdata-sections' '-fno-comm"
 729      66756E63 
 729      74696F6E 
 729      2D736563 
 729      74696F6E 
 730 0099 6F6E2720 		.ascii	"on' '-flto'\000"
 730      272D666C 
 730      746F2700 
 731              		.text
 732              		.section	.text.wakeup,"ax",%progbits
 733              		.align	2
ARM GAS  /tmp/cclD5DnM.s 			page 58


 734              		.p2align 4,,15
 735              		.thumb
 736              		.thumb_func
 737              		.type	wakeup, %function
 738              	wakeup:
 739              		@ args = 0, pretend = 0, frame = 0
 740              		@ frame_needed = 0, uses_anonymous_args = 0
 741              		@ link register save eliminated.
 742 0000 10B4     		push	{r4}
 743 0002 2023     		movs	r3, #32
 744              	@ 546 "/home/cody/dev/chibios/trunk/os/ext/CMSIS/include/core_cmFunc.h" 1
 745 0004 83F31188 		MSR basepri, r3
 746              	@ 0 "" 2
 747              		.thumb
 748 0008 037F     		ldrb	r3, [r0, #28]	@ zero_extendqisi2
 749 000a 072B     		cmp	r3, #7
 750 000c 0ED8     		bhi	.L2
 751 000e DFE803F0 		tbb	[pc, r3]
 752              	.L4:
 753 0012 27       		.byte	(.L3-.L4)/2
 754 0013 0D       		.byte	(.L2-.L4)/2
 755 0014 0D       		.byte	(.L2-.L4)/2
 756 0015 23       		.byte	(.L5-.L4)/2
 757 0016 08       		.byte	(.L6-.L4)/2
 758 0017 04       		.byte	(.L7-.L4)/2
 759 0018 0D       		.byte	(.L2-.L4)/2
 760 0019 08       		.byte	(.L6-.L4)/2
 761              		.p2align 1
 762              	.L7:
 763 001a 036A     		ldr	r3, [r0, #32]
 764 001c 9A68     		ldr	r2, [r3, #8]
 765 001e 0132     		adds	r2, r2, #1
 766 0020 9A60     		str	r2, [r3, #8]
 767              	.L6:
 768 0022 90E80C00 		ldmia	r0, {r2, r3}
 769 0026 1A60     		str	r2, [r3]
 770 0028 0268     		ldr	r2, [r0]
 771 002a 5360     		str	r3, [r2, #4]
 772              	.L2:
 773 002c 4FF0FF34 		mov	r4, #-1
 774 0030 0022     		movs	r2, #0
 775 0032 8168     		ldr	r1, [r0, #8]
 776 0034 0D4B     		ldr	r3, .L12
 777 0036 0462     		str	r4, [r0, #32]
 778 0038 0277     		strb	r2, [r0, #28]
 779              	.L10:
 780 003a 1B68     		ldr	r3, [r3]
 781 003c 9A68     		ldr	r2, [r3, #8]
 782 003e 8A42     		cmp	r2, r1
 783 0040 FBD2     		bcs	.L10
 784 0042 5A68     		ldr	r2, [r3, #4]
 785 0044 0021     		movs	r1, #0
 786 0046 0360     		str	r3, [r0]
 787 0048 4260     		str	r2, [r0, #4]
 788 004a 5860     		str	r0, [r3, #4]
 789 004c 1060     		str	r0, [r2]
 790              	@ 546 "/home/cody/dev/chibios/trunk/os/ext/CMSIS/include/core_cmFunc.h" 1
ARM GAS  /tmp/cclD5DnM.s 			page 59


 791 004e 81F31188 		MSR basepri, r1
 792              	@ 0 "" 2
 793              		.thumb
 794 0052 5DF8044B 		ldr	r4, [sp], #4
 795 0056 7047     		bx	lr
 796              	.L5:
 797 0058 036A     		ldr	r3, [r0, #32]
 798 005a 0022     		movs	r2, #0
 799 005c 1A60     		str	r2, [r3]
 800 005e E5E7     		b	.L2
 801              	.L3:
 802 0060 0023     		movs	r3, #0
 803              	@ 546 "/home/cody/dev/chibios/trunk/os/ext/CMSIS/include/core_cmFunc.h" 1
 804 0062 83F31188 		MSR basepri, r3
 805              	@ 0 "" 2
 806              		.thumb
 807 0066 5DF8044B 		ldr	r4, [sp], #4
 808 006a 7047     		bx	lr
 809              	.L13:
 810              		.align	2
 811              	.L12:
 812 006c 00000000 		.word	.LANCHOR0
 813              		.size	wakeup, .-wakeup
 814              		.section	.text._scheduler_init,"ax",%progbits
 815              		.align	2
 816              		.p2align 4,,15
 817              		.global	_scheduler_init
 818              		.thumb
 819              		.thumb_func
 820              		.type	_scheduler_init, %function
 821              	_scheduler_init:
 822              		@ args = 0, pretend = 0, frame = 0
 823              		@ frame_needed = 0, uses_anonymous_args = 0
 824              		@ link register save eliminated.
 825 0000 034B     		ldr	r3, .L15
 826 0002 0022     		movs	r2, #0
 827 0004 5B60     		str	r3, [r3, #4]
 828 0006 1B60     		str	r3, [r3]
 829 0008 5B61     		str	r3, [r3, #20]
 830 000a 1B61     		str	r3, [r3, #16]
 831 000c 9A60     		str	r2, [r3, #8]
 832 000e 7047     		bx	lr
 833              	.L16:
 834              		.align	2
 835              	.L15:
 836 0010 00000000 		.word	.LANCHOR0
 837              		.size	_scheduler_init, .-_scheduler_init
 838 0014 AFF30080 		.section	.text.chSchReadyI,"ax",%progbits
 838      AFF30080 
 838      AFF30080 
 839              		.align	2
 840              		.p2align 4,,15
 841              		.global	chSchReadyI
 842              		.thumb
 843              		.thumb_func
 844              		.type	chSchReadyI, %function
 845              	chSchReadyI:
ARM GAS  /tmp/cclD5DnM.s 			page 60


 846              		@ args = 0, pretend = 0, frame = 0
 847              		@ frame_needed = 0, uses_anonymous_args = 0
 848              		@ link register save eliminated.
 849 0000 0022     		movs	r2, #0
 850 0002 8168     		ldr	r1, [r0, #8]
 851 0004 084B     		ldr	r3, .L20
 852 0006 10B4     		push	{r4}
 853 0008 0446     		mov	r4, r0
 854 000a 0277     		strb	r2, [r0, #28]
 855              	.L19:
 856 000c 1B68     		ldr	r3, [r3]
 857 000e 9A68     		ldr	r2, [r3, #8]
 858 0010 8A42     		cmp	r2, r1
 859 0012 FBD2     		bcs	.L19
 860 0014 5A68     		ldr	r2, [r3, #4]
 861 0016 2046     		mov	r0, r4
 862 0018 2360     		str	r3, [r4]
 863 001a 6260     		str	r2, [r4, #4]
 864 001c 5C60     		str	r4, [r3, #4]
 865 001e 1460     		str	r4, [r2]
 866 0020 5DF8044B 		ldr	r4, [sp], #4
 867 0024 7047     		bx	lr
 868              	.L21:
 869 0026 00BF     		.align	2
 870              	.L20:
 871 0028 00000000 		.word	.LANCHOR0
 872              		.size	chSchReadyI, .-chSchReadyI
 873 002c AFF30080 		.section	.text.chSchGoSleepS,"ax",%progbits
 874              		.align	2
 875              		.p2align 4,,15
 876              		.global	chSchGoSleepS
 877              		.thumb
 878              		.thumb_func
 879              		.type	chSchGoSleepS, %function
 880              	chSchGoSleepS:
 881              		@ args = 0, pretend = 0, frame = 0
 882              		@ frame_needed = 0, uses_anonymous_args = 0
 883              		@ link register save eliminated.
 884 0000 074B     		ldr	r3, .L23
 885 0002 30B4     		push	{r4, r5}
 886 0004 1A68     		ldr	r2, [r3]
 887 0006 9969     		ldr	r1, [r3, #24]
 888 0008 1468     		ldr	r4, [r2]
 889 000a 0125     		movs	r5, #1
 890 000c 0877     		strb	r0, [r1, #28]
 891 000e 6360     		str	r3, [r4, #4]
 892 0010 1577     		strb	r5, [r2, #28]
 893 0012 1C60     		str	r4, [r3]
 894 0014 1046     		mov	r0, r2
 895 0016 30BC     		pop	{r4, r5}
 896 0018 9A61     		str	r2, [r3, #24]
 897 001a FFF7FEBF 		b	_port_switch
 898              	.L24:
 899 001e 00BF     		.align	2
 900              	.L23:
 901 0020 00000000 		.word	.LANCHOR0
 902              		.size	chSchGoSleepS, .-chSchGoSleepS
ARM GAS  /tmp/cclD5DnM.s 			page 61


 903 0024 AFF30080 		.section	.text.chSchGoSleepTimeoutS,"ax",%progbits
 903      AFF30080 
 903      AFF30080 
 904              		.align	2
 905              		.p2align 4,,15
 906              		.global	chSchGoSleepTimeoutS
 907              		.thumb
 908              		.thumb_func
 909              		.type	chSchGoSleepTimeoutS, %function
 910              	chSchGoSleepTimeoutS:
 911              		@ args = 0, pretend = 0, frame = 24
 912              		@ frame_needed = 0, uses_anonymous_args = 0
 913 0000 30B5     		push	{r4, r5, lr}
 914 0002 4FF6FF73 		movw	r3, #65535
 915 0006 9942     		cmp	r1, r3
 916 0008 87B0     		sub	sp, sp, #28
 917 000a 0546     		mov	r5, r0
 918 000c 11D0     		beq	.L26
 919 000e 0C4C     		ldr	r4, .L32
 920 0010 01A8     		add	r0, sp, #4
 921 0012 A369     		ldr	r3, [r4, #24]
 922 0014 0B4A     		ldr	r2, .L32+4
 923 0016 FFF7FEFF 		bl	chVTDoSetI
 924 001a 2846     		mov	r0, r5
 925 001c FFF7FEFF 		bl	chSchGoSleepS
 926 0020 049B     		ldr	r3, [sp, #16]
 927 0022 13B1     		cbz	r3, .L28
 928 0024 01A8     		add	r0, sp, #4
 929 0026 FFF7FEFF 		bl	chVTDoResetI
 930              	.L28:
 931 002a A369     		ldr	r3, [r4, #24]
 932 002c 186A     		ldr	r0, [r3, #32]
 933 002e 07B0     		add	sp, sp, #28
 934              		@ sp needed
 935 0030 30BD     		pop	{r4, r5, pc}
 936              	.L26:
 937 0032 FFF7FEFF 		bl	chSchGoSleepS
 938 0036 024C     		ldr	r4, .L32
 939 0038 A369     		ldr	r3, [r4, #24]
 940 003a 186A     		ldr	r0, [r3, #32]
 941 003c 07B0     		add	sp, sp, #28
 942              		@ sp needed
 943 003e 30BD     		pop	{r4, r5, pc}
 944              	.L33:
 945              		.align	2
 946              	.L32:
 947 0040 00000000 		.word	.LANCHOR0
 948 0044 00000000 		.word	wakeup
 949              		.size	chSchGoSleepTimeoutS, .-chSchGoSleepTimeoutS
 950 0048 AFF30080 		.section	.text.chSchWakeupS,"ax",%progbits
 950      AFF30080 
 951              		.align	2
 952              		.p2align 4,,15
 953              		.global	chSchWakeupS
 954              		.thumb
 955              		.thumb_func
 956              		.type	chSchWakeupS, %function
ARM GAS  /tmp/cclD5DnM.s 			page 62


 957              	chSchWakeupS:
 958              		@ args = 0, pretend = 0, frame = 0
 959              		@ frame_needed = 0, uses_anonymous_args = 0
 960              		@ link register save eliminated.
 961 0000 DFF858C0 		ldr	ip, .L42
 962 0004 F0B4     		push	{r4, r5, r6, r7}
 963 0006 DCF81870 		ldr	r7, [ip, #24]
 964 000a 8568     		ldr	r5, [r0, #8]
 965 000c BC68     		ldr	r4, [r7, #8]
 966 000e 0646     		mov	r6, r0
 967 0010 A542     		cmp	r5, r4
 968 0012 0162     		str	r1, [r0, #32]
 969 0014 0DD8     		bhi	.L35
 970 0016 0022     		movs	r2, #0
 971 0018 6346     		mov	r3, ip
 972 001a 0277     		strb	r2, [r0, #28]
 973              	.L37:
 974 001c 1B68     		ldr	r3, [r3]
 975 001e 9A68     		ldr	r2, [r3, #8]
 976 0020 9542     		cmp	r5, r2
 977 0022 FBD9     		bls	.L37
 978 0024 5A68     		ldr	r2, [r3, #4]
 979 0026 3360     		str	r3, [r6]
 980 0028 7260     		str	r2, [r6, #4]
 981 002a 5E60     		str	r6, [r3, #4]
 982 002c 1660     		str	r6, [r2]
 983 002e F0BC     		pop	{r4, r5, r6, r7}
 984 0030 7047     		bx	lr
 985              	.L35:
 986 0032 0023     		movs	r3, #0
 987 0034 3B77     		strb	r3, [r7, #28]
 988 0036 6346     		mov	r3, ip
 989              	.L40:
 990 0038 1B68     		ldr	r3, [r3]
 991 003a 9A68     		ldr	r2, [r3, #8]
 992 003c 9442     		cmp	r4, r2
 993 003e FBD9     		bls	.L40
 994 0040 5A68     		ldr	r2, [r3, #4]
 995 0042 0124     		movs	r4, #1
 996 0044 3B60     		str	r3, [r7]
 997 0046 7A60     		str	r2, [r7, #4]
 998 0048 5F60     		str	r7, [r3, #4]
 999 004a 1760     		str	r7, [r2]
 1000 004c 3477     		strb	r4, [r6, #28]
 1001 004e 3946     		mov	r1, r7
 1002 0050 3046     		mov	r0, r6
 1003 0052 CCF81860 		str	r6, [ip, #24]
 1004 0056 F0BC     		pop	{r4, r5, r6, r7}
 1005 0058 FFF7FEBF 		b	_port_switch
 1006              	.L43:
 1007              		.align	2
 1008              	.L42:
 1009 005c 00000000 		.word	.LANCHOR0
 1010              		.size	chSchWakeupS, .-chSchWakeupS
 1011              		.section	.text.chSchIsPreemptionRequired,"ax",%progbits
 1012              		.align	2
 1013              		.p2align 4,,15
ARM GAS  /tmp/cclD5DnM.s 			page 63


 1014              		.global	chSchIsPreemptionRequired
 1015              		.thumb
 1016              		.thumb_func
 1017              		.type	chSchIsPreemptionRequired, %function
 1018              	chSchIsPreemptionRequired:
 1019              		@ args = 0, pretend = 0, frame = 0
 1020              		@ frame_needed = 0, uses_anonymous_args = 0
 1021              		@ link register save eliminated.
 1022 0000 044B     		ldr	r3, .L45
 1023 0002 1A68     		ldr	r2, [r3]
 1024 0004 9B69     		ldr	r3, [r3, #24]
 1025 0006 9068     		ldr	r0, [r2, #8]
 1026 0008 9B68     		ldr	r3, [r3, #8]
 1027 000a 9842     		cmp	r0, r3
 1028 000c 94BF     		ite	ls
 1029 000e 0020     		movls	r0, #0
 1030 0010 0120     		movhi	r0, #1
 1031 0012 7047     		bx	lr
 1032              	.L46:
 1033              		.align	2
 1034              	.L45:
 1035 0014 00000000 		.word	.LANCHOR0
 1036              		.size	chSchIsPreemptionRequired, .-chSchIsPreemptionRequired
 1037 0018 AFF30080 		.section	.text.chSchDoRescheduleBehind,"ax",%progbits
 1037      AFF30080 
 1038              		.align	2
 1039              		.p2align 4,,15
 1040              		.global	chSchDoRescheduleBehind
 1041              		.thumb
 1042              		.thumb_func
 1043              		.type	chSchDoRescheduleBehind, %function
 1044              	chSchDoRescheduleBehind:
 1045              		@ args = 0, pretend = 0, frame = 0
 1046              		@ frame_needed = 0, uses_anonymous_args = 0
 1047              		@ link register save eliminated.
 1048 0000 0D4A     		ldr	r2, .L51
 1049 0002 70B4     		push	{r4, r5, r6}
 1050 0004 1068     		ldr	r0, [r2]
 1051 0006 9569     		ldr	r5, [r2, #24]
 1052 0008 0368     		ldr	r3, [r0]
 1053 000a 0126     		movs	r6, #1
 1054 000c 0021     		movs	r1, #0
 1055 000e AC68     		ldr	r4, [r5, #8]
 1056 0010 1360     		str	r3, [r2]
 1057 0012 5A60     		str	r2, [r3, #4]
 1058 0014 0677     		strb	r6, [r0, #28]
 1059 0016 0346     		mov	r3, r0
 1060 0018 9061     		str	r0, [r2, #24]
 1061 001a 2977     		strb	r1, [r5, #28]
 1062 001c 00E0     		b	.L49
 1063              	.L50:
 1064 001e 1B68     		ldr	r3, [r3]
 1065              	.L49:
 1066 0020 9A68     		ldr	r2, [r3, #8]
 1067 0022 A242     		cmp	r2, r4
 1068 0024 FBD2     		bcs	.L50
 1069 0026 5A68     		ldr	r2, [r3, #4]
ARM GAS  /tmp/cclD5DnM.s 			page 64


 1070 0028 2946     		mov	r1, r5
 1071 002a 2B60     		str	r3, [r5]
 1072 002c 6A60     		str	r2, [r5, #4]
 1073 002e 5D60     		str	r5, [r3, #4]
 1074 0030 1560     		str	r5, [r2]
 1075 0032 70BC     		pop	{r4, r5, r6}
 1076 0034 FFF7FEBF 		b	_port_switch
 1077              	.L52:
 1078              		.align	2
 1079              	.L51:
 1080 0038 00000000 		.word	.LANCHOR0
 1081              		.size	chSchDoRescheduleBehind, .-chSchDoRescheduleBehind
 1082 003c AFF30080 		.section	.text.chSchDoRescheduleAhead,"ax",%progbits
 1083              		.align	2
 1084              		.p2align 4,,15
 1085              		.global	chSchDoRescheduleAhead
 1086              		.thumb
 1087              		.thumb_func
 1088              		.type	chSchDoRescheduleAhead, %function
 1089              	chSchDoRescheduleAhead:
 1090              		@ args = 0, pretend = 0, frame = 0
 1091              		@ frame_needed = 0, uses_anonymous_args = 0
 1092              		@ link register save eliminated.
 1093 0000 0D4A     		ldr	r2, .L57
 1094 0002 70B4     		push	{r4, r5, r6}
 1095 0004 1068     		ldr	r0, [r2]
 1096 0006 9569     		ldr	r5, [r2, #24]
 1097 0008 0368     		ldr	r3, [r0]
 1098 000a 0126     		movs	r6, #1
 1099 000c 0021     		movs	r1, #0
 1100 000e AC68     		ldr	r4, [r5, #8]
 1101 0010 1360     		str	r3, [r2]
 1102 0012 5A60     		str	r2, [r3, #4]
 1103 0014 0677     		strb	r6, [r0, #28]
 1104 0016 0346     		mov	r3, r0
 1105 0018 9061     		str	r0, [r2, #24]
 1106 001a 2977     		strb	r1, [r5, #28]
 1107 001c 00E0     		b	.L55
 1108              	.L56:
 1109 001e 1B68     		ldr	r3, [r3]
 1110              	.L55:
 1111 0020 9A68     		ldr	r2, [r3, #8]
 1112 0022 A242     		cmp	r2, r4
 1113 0024 FBD8     		bhi	.L56
 1114 0026 5A68     		ldr	r2, [r3, #4]
 1115 0028 2946     		mov	r1, r5
 1116 002a 2B60     		str	r3, [r5]
 1117 002c 6A60     		str	r2, [r5, #4]
 1118 002e 5D60     		str	r5, [r3, #4]
 1119 0030 1560     		str	r5, [r2]
 1120 0032 70BC     		pop	{r4, r5, r6}
 1121 0034 FFF7FEBF 		b	_port_switch
 1122              	.L58:
 1123              		.align	2
 1124              	.L57:
 1125 0038 00000000 		.word	.LANCHOR0
 1126              		.size	chSchDoRescheduleAhead, .-chSchDoRescheduleAhead
ARM GAS  /tmp/cclD5DnM.s 			page 65


 1127 003c AFF30080 		.section	.text.chSchRescheduleS,"ax",%progbits
 1128              		.align	2
 1129              		.p2align 4,,15
 1130              		.global	chSchRescheduleS
 1131              		.thumb
 1132              		.thumb_func
 1133              		.type	chSchRescheduleS, %function
 1134              	chSchRescheduleS:
 1135              		@ args = 0, pretend = 0, frame = 0
 1136              		@ frame_needed = 0, uses_anonymous_args = 0
 1137              		@ link register save eliminated.
 1138 0000 044B     		ldr	r3, .L62
 1139 0002 1A68     		ldr	r2, [r3]
 1140 0004 9B69     		ldr	r3, [r3, #24]
 1141 0006 9268     		ldr	r2, [r2, #8]
 1142 0008 9B68     		ldr	r3, [r3, #8]
 1143 000a 9A42     		cmp	r2, r3
 1144 000c 00D8     		bhi	.L61
 1145 000e 7047     		bx	lr
 1146              	.L61:
 1147 0010 FFF7FEBF 		b	chSchDoRescheduleAhead
 1148              	.L63:
 1149              		.align	2
 1150              	.L62:
 1151 0014 00000000 		.word	.LANCHOR0
 1152              		.size	chSchRescheduleS, .-chSchRescheduleS
 1153 0018 AFF30080 		.section	.text.chSchDoReschedule,"ax",%progbits
 1153      AFF30080 
 1154              		.align	2
 1155              		.p2align 4,,15
 1156              		.global	chSchDoReschedule
 1157              		.thumb
 1158              		.thumb_func
 1159              		.type	chSchDoReschedule, %function
 1160              	chSchDoReschedule:
 1161              		@ args = 0, pretend = 0, frame = 0
 1162              		@ frame_needed = 0, uses_anonymous_args = 0
 1163              		@ link register save eliminated.
 1164 0000 FFF7FEBF 		b	chSchDoRescheduleAhead
 1165              		.size	chSchDoReschedule, .-chSchDoReschedule
 1166              		.global	ch
 1167 0004 AFF30080 		.section	.bss.ch,"aw",%nobits
 1167      AFF30080 
 1167      AFF30080 
 1168              		.align	2
 1169              		.set	.LANCHOR0,. + 0
 1170              		.type	ch, %object
 1171              		.size	ch, 48
 1172              	ch:
 1173 0000 00000000 		.space	48
 1173      00000000 
 1173      00000000 
 1173      00000000 
 1173      00000000 
 1174              		.comm	__gnu_lto_v1,1,1
 1175              		.ident	"GCC: (GNU Tools for ARM Embedded Processors) 4.8.4 20140526 (release) [ARM/embedded-4_8-br
ARM GAS  /tmp/cclD5DnM.s 			page 66


DEFINED SYMBOLS
                            *ABS*:0000000000000000 chschd.c
     /tmp/cclD5DnM.s:733    .text.wakeup:0000000000000000 $t
     /tmp/cclD5DnM.s:738    .text.wakeup:0000000000000000 wakeup
     /tmp/cclD5DnM.s:753    .text.wakeup:0000000000000012 $d
     /tmp/cclD5DnM.s:761    .text.wakeup:000000000000001a $t
     /tmp/cclD5DnM.s:812    .text.wakeup:000000000000006c $d
     /tmp/cclD5DnM.s:815    .text._scheduler_init:0000000000000000 $t
     /tmp/cclD5DnM.s:821    .text._scheduler_init:0000000000000000 _scheduler_init
     /tmp/cclD5DnM.s:836    .text._scheduler_init:0000000000000010 $d
     /tmp/cclD5DnM.s:839    .text.chSchReadyI:0000000000000000 $t
     /tmp/cclD5DnM.s:845    .text.chSchReadyI:0000000000000000 chSchReadyI
     /tmp/cclD5DnM.s:871    .text.chSchReadyI:0000000000000028 $d
     /tmp/cclD5DnM.s:874    .text.chSchGoSleepS:0000000000000000 $t
     /tmp/cclD5DnM.s:880    .text.chSchGoSleepS:0000000000000000 chSchGoSleepS
     /tmp/cclD5DnM.s:901    .text.chSchGoSleepS:0000000000000020 $d
     /tmp/cclD5DnM.s:904    .text.chSchGoSleepTimeoutS:0000000000000000 $t
     /tmp/cclD5DnM.s:910    .text.chSchGoSleepTimeoutS:0000000000000000 chSchGoSleepTimeoutS
     /tmp/cclD5DnM.s:947    .text.chSchGoSleepTimeoutS:0000000000000040 $d
     /tmp/cclD5DnM.s:951    .text.chSchWakeupS:0000000000000000 $t
     /tmp/cclD5DnM.s:957    .text.chSchWakeupS:0000000000000000 chSchWakeupS
     /tmp/cclD5DnM.s:1009   .text.chSchWakeupS:000000000000005c $d
     /tmp/cclD5DnM.s:1012   .text.chSchIsPreemptionRequired:0000000000000000 $t
     /tmp/cclD5DnM.s:1018   .text.chSchIsPreemptionRequired:0000000000000000 chSchIsPreemptionRequired
     /tmp/cclD5DnM.s:1035   .text.chSchIsPreemptionRequired:0000000000000014 $d
     /tmp/cclD5DnM.s:1038   .text.chSchDoRescheduleBehind:0000000000000000 $t
     /tmp/cclD5DnM.s:1044   .text.chSchDoRescheduleBehind:0000000000000000 chSchDoRescheduleBehind
     /tmp/cclD5DnM.s:1080   .text.chSchDoRescheduleBehind:0000000000000038 $d
     /tmp/cclD5DnM.s:1083   .text.chSchDoRescheduleAhead:0000000000000000 $t
     /tmp/cclD5DnM.s:1089   .text.chSchDoRescheduleAhead:0000000000000000 chSchDoRescheduleAhead
     /tmp/cclD5DnM.s:1125   .text.chSchDoRescheduleAhead:0000000000000038 $d
     /tmp/cclD5DnM.s:1128   .text.chSchRescheduleS:0000000000000000 $t
     /tmp/cclD5DnM.s:1134   .text.chSchRescheduleS:0000000000000000 chSchRescheduleS
     /tmp/cclD5DnM.s:1151   .text.chSchRescheduleS:0000000000000014 $d
     /tmp/cclD5DnM.s:1154   .text.chSchDoReschedule:0000000000000000 $t
     /tmp/cclD5DnM.s:1160   .text.chSchDoReschedule:0000000000000000 chSchDoReschedule
     /tmp/cclD5DnM.s:1172   .bss.ch:0000000000000000 ch
     /tmp/cclD5DnM.s:1168   .bss.ch:0000000000000000 $d
                            *COM*:0000000000000001 __gnu_lto_v1
     /tmp/cclD5DnM.s:838    .text._scheduler_init:0000000000000014 $t
     /tmp/cclD5DnM.s:873    .text.chSchReadyI:000000000000002c $t
     /tmp/cclD5DnM.s:903    .text.chSchGoSleepS:0000000000000024 $t
     /tmp/cclD5DnM.s:950    .text.chSchGoSleepTimeoutS:0000000000000048 $t
     /tmp/cclD5DnM.s:1037   .text.chSchIsPreemptionRequired:0000000000000018 $t
     /tmp/cclD5DnM.s:1082   .text.chSchDoRescheduleBehind:000000000000003c $t
     /tmp/cclD5DnM.s:1127   .text.chSchDoRescheduleAhead:000000000000003c $t
     /tmp/cclD5DnM.s:1153   .text.chSchRescheduleS:0000000000000018 $t

UNDEFINED SYMBOLS
_port_switch
chVTDoSetI
chVTDoResetI
