ARM GAS  /tmp/ccGp8fg9.s 			page 1


   1              		.syntax unified
   2              		.cpu cortex-m4
   3              		.eabi_attribute 27, 3
   4              		.eabi_attribute 28, 1
   5              		.fpu fpv4-sp-d16
   6              		.eabi_attribute 20, 1
   7              		.eabi_attribute 21, 1
   8              		.eabi_attribute 23, 3
   9              		.eabi_attribute 24, 1
  10              		.eabi_attribute 25, 1
  11              		.eabi_attribute 26, 1
  12              		.eabi_attribute 30, 2
  13              		.eabi_attribute 34, 1
  14              		.eabi_attribute 18, 4
  15              		.thumb
  16              		.file	"chsem.c"
  17              		.section	.gnu.lto_.jmpfuncs.98ce37eee27d8eb2,"",%progbits
  18 0000 789C6D4E 		.ascii	"x\234mN\313\025\2000\014\202`\375\333\371\\\301\005"
  18      CB158030 
  18      0C8260FD 
  18      DBF95CC1 
  18      05
  19 0011 3CBB88BB 		.ascii	"<\273\210\273\232\370j{1\027 \020^\014\206\277\271\013"
  19      9AF86A7B 
  19      31172010 
  19      5E0C86BF 
  19      B90B
  20 0023 6690B6F3 		.ascii	"f\220\266\363 \022`\262\312\005\360t =q\275k\002\235"
  20      201260B2 
  20      CA05F074 
  20      203D71BD 
  20      6B029D
  21 0036 921C7A45 		.ascii	"\222\034zEm\211\014a\214\244K\270\234d\205\025\177V"
  21      6D890C61 
  21      8CA44BB8 
  21      9C648515 
  21      7F56
  22 0048 CB2E74FE 		.ascii	"\313.t\376\225a\255G[\264f\241\375\022\376\003)M\011"
  22      9561AD47 
  22      5BB466A1 
  22      FD12FE03 
  22      294D09
  23 005b 08       		.ascii	"\010"
  24              		.text
  25              		.section	.gnu.lto_.inline.98ce37eee27d8eb2,"",%progbits
  26 0000 789C8592 		.ascii	"x\234\205\222\277K\303@\024\307\277\357\362\232\344"
  26      BF4BC340 
  26      14C7BFEF 
  26      F29AE4
  27 000f 2E499B56 		.ascii	".I\233V\250 B\255\213\340 \270t.\270gvq\365\307\037"
  27      A82042AD 
  27      8BE020B8 
  27      742EB867 
  27      7671F5C7 
  28 0024 21888374 		.ascii	"!\210\203t\314\237\320\331\277\240\356uq\353V\234\034"
  28      CC9FD0D9 
  28      BFA0EE75 
ARM GAS  /tmp/ccGp8fg9.s 			page 2


  28      71EB569C 
  28      1C
  29 0035 05419C9D 		.ascii	"\005A\234\235|w\227\244\251\010\206\343q\274\357\273"
  29      7C7797A4 
  29      A90886E3 
  29      71BCEFBB 
  30 0045 EF7DF24D 		.ascii	"\357}\362M\024\024\376z&U\273+kH\004\222\275\312\357"
  30      1414FE7A 
  30      2655BB2B 
  30      6B480492 
  30      BDCAEF
  31 0058 6E117F9D 		.ascii	"n\021\177\2358I%\220\246j\251\351\333E\243r&\015\224"
  31      38492590 
  31      A66AA9E9 
  31      DB45A372 
  31      260D94
  32 006b 45003320 		.ascii	"E\0003 \345t[\002p\264\236 \232\035I\357=\212}m\354"
  32      E5745B02 
  32      70B49E20 
  32      9A1D49EF 
  32      3D8A7D6D 
  33 0080 CA821176 		.ascii	"\312\202\021vj\277`\261\013\275\366 \035\344+\362F\301"
  33      6ABF60B1 
  33      0BBDF620 
  33      1DE42BF2 
  33      46C1
  34 0092 D4C9DC7B 		.ascii	"\324\311\334{\231i\350\207gr&\354+X\244 %\353\025B\357"
  34      9969E887 
  34      677226EC 
  34      2B58A420 
  34      25EB1542 
  35 00a7 0921CF47 		.ascii	"\011!\317G\010\347#gC\306\311b^\026e\021!Kh\233\333"
  35      08E72367 
  35      43C6C962 
  35      5E166511 
  35      214B689B 
  36 00bc 6A723446 		.ascii	"jr4F\242=F0e\361m\210\345\032y\001n\215j\364Rb\272:"
  36      A23D4630 
  36      65F16D88 
  36      E51A7901 
  36      6E8D6AF4 
  37 00d4 A71BB216 		.ascii	"\247\033\262\026t]\357\374q\262\260Q\333#w\0369x\221"
  37      745DEFFC 
  37      71B2B051 
  37      DB23771E 
  37      397891
  38 00e7 1C80C696 		.ascii	"\034\200\306\226|\314Uh\261'3\320\375_\350.Q\253%\350"
  38      7CCC5568 
  38      B12733D0 
  38      FD5FE82E 
  38      51AB25E8 
  39 00fb A7754483 		.ascii	"\247uD\203\327K\230\317\323\006]\006\220\302\374\313"
  39      D74B98CF 
  39      D3065D06 
  39      90C2FCCB 
  40 010b 5EA59D61 		.ascii	"^\245\235a\347\003\325\347q\234jx\277\3240\337+i\306"
  40      E703D5E7 
ARM GAS  /tmp/ccGp8fg9.s 			page 3


  40      719C6A78 
  40      BFD430DF 
  40      2B69C6
  41 011e 9B24BB38 		.ascii	"\233$\2738\334\337\032;~|\"t\227g\233P\375\357Pe\202"
  41      DCDF1A3B 
  41      7E7C2274 
  41      97679B50 
  41      FDEF5065 
  42 0133 1F9D0C3F 		.ascii	"\037\235\014?\034"
  42      1C
  43              		.text
  44              		.section	.gnu.lto_.pureconst.98ce37eee27d8eb2,"",%progbits
  45 0000 789C6362 		.ascii	"x\234cb`b\220e\200\000>\006)&)f)\026)V)6+v+\016)N)."
  45      60629065 
  45      80003E06 
  45      29262966 
  45      29162956 
  46 001e 2B6E2B1E 		.ascii	"+n+\036)^)>+\000$\334\002\244"
  46      295E293E 
  46      2B0024DC 
  46      02A4
  47              		.text
  48              		.section	.gnu.lto_chSemWaitS.part.0.98ce37eee27d8eb2,"",%progbits
  49 0000 789CAD53 		.ascii	"x\234\255S\261N\033A\020\235\331\335\363\031\014\204"
  49      B14E1B41 
  49      109DD9DD 
  49      F3190C84 
  50 0010 4FA00D96 		.ascii	"O\240\015\226\270&\224(\037\001HP\244\200\265\261O\304"
  50      B8269428 
  50      1F014850 
  50      A480B5B1 
  50      4FC4
  51 0022 58B20D12 		.ascii	"X\262\015\022\241\340 \024\224\224\210\204\202.\212"
  51      A1E02014 
  51      94948884 
  51      822E8A
  52 0031 40B8A483 		.ascii	"@\270\244\203\026\241\200RD\002\224HD\024H\320\230\""
  52      16A18052 
  52      44029448 
  52      441448D0 
  52      9822
  53 0043 42A2E098 		.ascii	"B\242\340\230\331]\037`\205\210\"'\335\314\334\336\276"
  53      D95D1F60 
  53      85882227 
  53      DDCCDCDE 
  53      BE
  54 0054 376F6767 		.ascii	"7ogg\004\010h}\262\364\256J\200\011\362\350\001\252"
  54      0408687D 
  54      B2F4AE4A 
  54      8009F2E8 
  54      01AA
  55 0066 95430A14 		.ascii	"\225C\012\024\012\343\005J\366\013i\211\310\001 \314"
  55      0AE3054A 
  55      F60B6989 
  55      C80120CC 
  56 0076 2B21717E 		.ascii	"+!q~\024\015z[Dgq\374\253\276\216\257\020B\004\201%"
  56      140D7A5B 
ARM GAS  /tmp/ccGp8fg9.s 			page 4


  56      446771FC 
  56      ABBE8EAF 
  56      10420481 
  57 008b 0449112A 		.ascii	"\004I\021*\376\364\330\244\310\010\237\015\001<X\212"
  57      FEF4D8A4 
  57      C8089F0D 
  57      013C588A 
  58 009b A2951E00 		.ascii	"\242\225\036\000m\010\206\3102\357\020\355'/\207i\023"
  58      6D0886C8 
  58      32EF10ED 
  58      272F8769 
  58      13
  59 00ac FB6FB078 		.ascii	"\373o\260xz|\361z\0147HS\0011\013\275\304d\254\374\004"
  59      7A7CF17A 
  59      0C374853 
  59      01310BBD 
  59      C464ACFC 
  60 00c1 6B0B51D4 		.ascii	"k\013Q\324\035\242\232\203\333h\231#\257\204L7\202\024"
  60      1DA29A83 
  60      DB689923 
  60      AF844C37 
  60      8214
  61 00d3 1A5DE356 		.ascii	"\032]\343V\036y\027\0001\03642\2260\013_#z\336\206\230"
  61      1E791700 
  61      311E3432 
  61      96300B5F 
  61      237ADE86 
  62 00e8 72617F88 		.ascii	"ra\177\210~\302\233\246\204L\325\244\020\316K\343\013"
  62      7EC29BA6 
  62      844CD5A4 
  62      10CE4BE3 
  62      0B
  63 00f9 FC4D6CB7 		.ascii	"\374Ml\267\037\343\317^S\240\234\203\017\241\223\331"
  63      1FE3CF5E 
  63      53A09C83 
  63      0FA193D9 
  64 0109 9610B5D3 		.ascii	"\226\020\265\323^&\3128\002\365Pv\226\363s\355\356F"
  64      5E26CA38 
  64      02F55076 
  64      96F373ED 
  64      EE46
  65 011b 2605B1C1 		.ascii	"&\005\261\301\336\301\321 \200\245\325V\274\225x\366"
  65      DEC1D120 
  65      80A5D556 
  65      BC9578F6 
  66 012b E37A3745 		.ascii	"\343z7E\232\236U\3511l\213]\201\225r\005w\342s1\206"
  66      9A9E55E9 
  66      316C8B5D 
  66      81957205 
  66      77E27331 
  67 0140 9B46A1B2 		.ascii	"\233F\241\262%L\340mN\033:x*\201\033\354~\303\267HW"
  67      254CE06D 
  67      4E1B3A78 
  67      2A811BEC 
  67      7EC3B748 
  68 0155 A0CE7FA5 		.ascii	"\240\316\177\245\366\037\245V\366l\307\361\225zB0\373"
  68      F61FA556 
ARM GAS  /tmp/ccGp8fg9.s 			page 5


  68      F66CC7F1 
  68      957A4230 
  68      FB
  69 0166 B2E4055E 		.ascii	"\262\344\005^3\3713O\340\003-\371\325sG\247\305#Xj,"
  69      33F9334F 
  69      E0032DF9 
  69      D57347A7 
  69      C523586A 
  70 017b FEF982B6 		.ascii	"\376\371\202\266\212\000I\233thw\227\014\356\344\346"
  70      8A00499B 
  70      74687797 
  70      0CEEE4E6 
  71 018b EC7285BA 		.ascii	"\354r\205\272\374\215\315\253\364\376K\257\235\326\023"
  71      FC8DCDAB 
  71      F4FE4BAF 
  71      9DD613
  72 019a C2668FBD 		.ascii	"\302f\217\275\243\011p\341`K\273y\177k\267\364\243)"
  72      A30970E1 
  72      604BBB79 
  72      7F6BB7F4 
  72      A329
  73 01ac 1DA62BE5 		.ascii	"\035\246+\345\271\370N\243\310\247\364y\361\004|b\027"
  73      B9F84EA3 
  73      C8A7F479 
  73      F1047C62 
  73      17
  74 01bd 233C3EC8 		.ascii	"#<>\310\277\031\031\004\305r)\037\350rn6\310\345g\002"
  74      BF191904 
  74      C572291F 
  74      E8726E36 
  74      C8E56702 
  75 01d1 5D0CC7C3 		.ascii	"]\014\307\303r5\250U\246\247&\003\012*\265\240Z\321"
  75      7235A855 
  75      A6A72603 
  75      0A2AB5A0 
  75      5AD1
  76 01e3 B45ECD97 		.ascii	"\264^\315\227\3724\274y\301\376pJ\277\237\316\345\031"
  76      FA34BC79 
  76      C1FE704A 
  76      BF9FCEE5 
  76      19
  77 01f4 A38BB9BE 		.ascii	"\243\213\271\276\"\334\003\231\347\361\017"
  77      22DC0399 
  77      E7F10F
  78              		.text
  79              		.section	.gnu.lto_chSemWaitTimeoutS.part.1.98ce37eee27d8eb2,"",%progbits
  80 0000 789C8D52 		.ascii	"x\234\215R=KcA\024\275wf\336{j\374j\266\337\332\200"
  80      3D4B6341 
  80      14BD7766 
  80      DE7B6AFC 
  80      6AB6DFDA 
  81 0015 AFD152FC 		.ascii	"\257\321R\374\023\021\264\324I6\0314\006\022\025\324"
  81      1311B4D4 
  81      49361934 
  81      061215D4 
  82 0025 C2E71758 		.ascii	"\302\347\027X\332\330\304\312\"M\330\305\326ba\227\355"
  82      DAD8C4CA 
ARM GAS  /tmp/ccGp8fg9.s 			page 6


  82      224DD8C5 
  82      D6626197 
  82      ED
  83 0036 16D95DB6 		.ascii	"\026\331]\266\020T\024\004K\233l\265\220\302x\357\314"
  83      10541404 
  83      4B9B6CB5 
  83      90C278EF 
  83      CC
  84 0047 E4F9018A 		.ascii	"\344\371\001\212\003o\356\231;s\316=\357\316\010\020"
  84      036FEE99 
  84      3B73CE3D 
  84      EFCE0810 
  85 0057 F07264E9 		.ascii	"\360rd\351kS\372\023E\014\000\325\376o\002\012\205\215"
  85      6B53FA13 
  85      450C00D5 
  85      FE6F020A 
  85      858D
  86 0069 0225C7CD 		.ascii	"\002%\307\315\036\211\310\000\0206\224\220\2701\203"
  86      1E89C800 
  86      10369490 
  86      B83183
  87 0078 967D2C92 		.ascii	"\226},\222\233N\347\372k\003\207\020\014\202\3002\202"
  87      9B4EE7FA 
  87      6B038710 
  87      0C82C032 
  87      82
  88 0089 24848A97 		.ascii	"$\204\212\227\001-1$$\"\236\210\020\300N\222\354\177"
  88      012D3124 
  88      24229E88 
  88      10C04E92 
  88      EC7F
  89 009b 04D05620 		.ascii	"\004\320V G3\353\346\350<E9E\2078\376\202\255\313\363"
  89      4733EBE6 
  89      E83C4539 
  89      458738FE 
  89      82ADCBF3 
  90 00af E6C82C1E 		.ascii	"\346\310,\036\221\247\"b\026FH\316\316\362\020\352\233"
  90      91A72262 
  90      164648CE 
  90      CEF210EA 
  90      9B
  91 00c0 49326C50 		.ascii	"I2lP\255C;\331c\024\224\255\3704\022\264\276\346\234"
  91      AD433BD9 
  91      631494AD 
  91      F83412B4 
  91      BEE69C
  92 00d3 3D8A1E00 		.ascii	"=\212\036\000)\236\2662N0\013\315\204\306\244\301\320"
  92      299EB632 
  92      4E300BCD 
  92      84C6A4C1 
  92      D0
  93 00e4 C3718351 		.ascii	"\303q\203Q\252\333C\005Y\252+!|\2246\026yMj\355\355"
  93      AADB4305 
  93      59AA2B21 
  93      7C943616 
  93      794D6AED 
  94 00f9 E346D035 		.ascii	"\343F\3205(\327a\315x\233\275\251P\037\235e\241\214"
ARM GAS  /tmp/ccGp8fg9.s 			page 7


  94      28D761CD 
  94      789BBDA9 
  94      501F9D65 
  94      A18C
  95 010b 17508F6D 		.ascii	"\027P\217mg;W\365\373\3772m\210\003\337O\317r\000NV"
  95      673B57F5 
  95      FBFF326D 
  95      8803DF4F 
  95      CF72004E 
  96 0120 3BF3CEE2 		.ascii	";\363\316\342\315\331\277o!yz\325e\300\264/\034\212"
  96      CDD9BF6F 
  96      21797AD5 
  96      65C0B42F 
  96      1C8A
  97 0132 EC943B78 		.ascii	"\354\224;x\322\271\025\263\370\331:T\256\205)\275\327"
  97      D2B915B3 
  97      F8D93A54 
  97      AE8529BD 
  97      D7
  98 0143 7B434F0F 		.ascii	"{CO\017S\272\345\376lE\216\351\0334\360V\351\350Ii\345"
  98      53BAE5FE 
  98      6C458EE9 
  98      1B34F056 
  98      E9E84969 
  99 0158 FEEDBC73 		.ascii	"\376\355\274s\247\236\011\254\276\257x\221s\266~\346"
  99      A79E09AC 
  99      BEAF7891 
  99      73B67EE6 
 100 0168 197DE245 		.ascii	"\031}\342E}\365\332\257S\362\017\354\266~\034|\350\336"
 100      7DF5DAAF 
 100      53F20FEC 
 100      B67E1C7C 
 100      E8DE
 101 017a 4D983E93 		.ascii	"M\230>\223~\355\357\222\311\003\274\027\030\034t*S\324"
 101      7EEDEF92 
 101      C903BC17 
 101      181C742A 
 101      53D4
 102 018c 347E797F 		.ascii	"4~y\177\351\261\263N\304\311\013\210\210/\354CE\336"
 102      E9B1B34E 
 102      C4C90B88 
 102      882FEC43 
 102      45DE
 103 019e 6618C7A5 		.ascii	"f\030\307\245J\271\020\353J~5\316\027Vb]2s\246R\213"
 103      4AB910EB 
 103      4A7E35CE 
 103      1756625D 
 103      3273A652 
 104 01b3 97AACB8B 		.ascii	"\227\252\313\213\3631\201\352R\\\253j\312\327\012\345"
 104      F33181EA 
 104      525CAB6A 
 104      CAD70AE5 
 105 01c3 510D63EF 		.ascii	"Q\015c\3578o\026\365\302r\276\300\034]\312\217\226\340"
 105      386F16F5 
 105      C272BEC0 
 105      1C5DCA8F 
 105      96E0
ARM GAS  /tmp/ccGp8fg9.s 			page 8


 106 01d5 01465CCF 		.ascii	"\001F\\\317\315"
 106      CD
 107              		.text
 108              		.section	.gnu.lto_chSemSignalI.part.2.98ce37eee27d8eb2,"",%progbits
 109 0000 789C8D93 		.ascii	"x\234\215\223\317k\023A\024\307\337wfRc<(x\362RJ\017"
 109      CF6B1341 
 109      14C7DF77 
 109      6652633C 
 109      2878F252 
 110 0016 1E0C6611 		.ascii	"\036\014f\021\004\361\217\360\326B=\266\233\220\035"
 110      04F18FF0 
 110      D6423DB6 
 110      9B901D
 111 0025 348D24A9 		.ascii	"4\215$\251\240E:\2519\024\2544\024A[A\332\372\223*T"
 111      A0453AA9 
 111      3914AC34 
 111      14415B41 
 111      DAFA932A 
 112 003a F0E23107 		.ascii	"\360\3421\007+\210\250x\021\321\036\266x\364\342\305"
 112      2B88A878 
 112      11D11EB6 
 112      78F4E2C5 
 113 004a 83458C6F 		.ascii	"\203E\214of\226\260)\210\031\330}ov\347\363\375\276"
 113      6696B029 
 113      8819D87D 
 113      6F76E7F3 
 113      FDBE
 114 005c B7332B48 		.ascii	"\2673+H\320\376\221\347\353\270$\322\034\221!\250\366"
 114      D0FE91E7 
 114      EBB824D2 
 114      1C9121A8 
 114      F6
 115 006d 7B4E1484 		.ascii	"{N\024\204\213\002\322\306fV\0026!\320\234\022\022s"
 115      8B02D2C6 
 115      66560236 
 115      21D09C12 
 115      1273
 116 007f E7616139 		.ascii	"\347aa9J\353\306,\307\333\033\213\303+\246\323Z3\277"
 116      4AEBC62C 
 116      C7DB1B8B 
 116      C32BA6D3 
 116      5A33BF
 117 0092 BB5D4083 		.ascii	"\273]@\203\215\316\200B\320\004O0\342\202P\375\316\216"
 117      8DCE8042 
 117      D0044F30 
 117      E28250FD 
 117      CE8E
 118 00a4 5D8D7FEE 		.ascii	"]\215\177\356>\036Z\271\225fi\020p\271s\373\323\322"
 118      3E1E5AB9 
 118      95666910 
 118      70B973FB 
 118      D3D2
 119 00b6 31B336DF 		.ascii	"1\2636\3376\177\230cl\022\033\020\377A\267\204\211\273"
 119      367F9863 
 119      6C121B10 
 119      FF41B784 
 119      89BB
ARM GAS  /tmp/ccGp8fg9.s 			page 9


 120 00c8 DD5FDF72 		.ascii	"\335_\337r9\240b\253\324\220\222\311\007\030%E\316\233"
 120      39A062AB 
 120      D49092C9 
 120      07182545 
 120      CE9B
 121 00da 32D432A6 		.ascii	"2\3242\246=\342\252\3401\306w\333\372\030\224\215r\234"
 121      3DE2AAE0 
 121      31C677DB 
 121      FA18948D 
 121      729C
 122 00ec 4D6C7C47 		.ascii	"Ml|G\363{\327\267\236\235K\226{\015b\255\207\374\031"
 122      F37BD7B7 
 122      9E9D4B96 
 122      7B0D62AD 
 122      87FC19
 123 00ff 79942166 		.ascii	"y\224!f\351*\353\347i\323\360x\301\345\250\273\264\332"
 123      E92AEBE7 
 123      69D3F078 
 123      C1E5A8BB 
 123      B4DA
 124 0111 34E68846 		.ascii	"4\346\210F\246\014\330\002\207\\YSH\325\310\302_v\236"
 124      A60CD802 
 124      875C5953 
 124      48D5C8C2 
 124      5F769E
 125 0124 BCDA953D 		.ascii	"\274\332\225=\345u\247\354\247\235\357_?\017\303\372"
 125      E575A7EC 
 125      A79DEF5F 
 125      3F0FC3FA 
 126 0134 3C629F10 		.ascii	"<b\237\020\360^\211\213\335\211\002\267\321\363Q\211"
 126      F05E898B 
 126      DD8902B7 
 126      D1F35189 
 127 0144 8F4C7C1C 		.ascii	"\217L|\034\371\324Wh\215\356\334_<9\211M~P\206\312\323"
 127      F9D45768 
 127      8DEEDC5F 
 127      3C39894D 
 127      7E5086CA 
 128 0159 89347B80 		.ascii	"\2114{\200e'\374\2068V\364\263o\236\347<\2314xj0_\366"
 128      6527FC86 
 128      3856F4B3 
 128      6F9EE73C 
 128      9934786A 
 129 0170 71F8DB1F 		.ascii	"q\370\333\037G\373\360k\373\254U\332Z\246p\341\360\227"
 129      47FBF06B 
 129      FBAC55DA 
 129      5AA670E1 
 129      F097
 130 0182 3BF75E6F 		.ascii	";\367^og\374WH\024\316jd\223\364\260\306\301\177\366"
 130      67FC5748 
 130      14CE6A64 
 130      93F4B0C6 
 130      C17FF6
 131 0195 A192E81A 		.ascii	"\241\222\350\032q\307$k\223\017\324\212o\336\310yI\242"
 131      71C7246B 
 131      930FD48A 
 131      6FDEC879 
ARM GAS  /tmp/ccGp8fg9.s 			page 10


 131      49A2
 132 01a7 59DA330B 		.ascii	"Y\3323\013\026\317\205\360\277\015\313h\034\362*\343"
 132      16CF85F0 
 132      BF0DCB68 
 132      1CF22AE3 
 133 01b7 5C923D05 		.ascii	"\\\222=\005\037\251\031/\345{\233N\376\304\300\276\263"
 133      1FA9192F 
 133      E57B9B4E 
 133      FEC4C0BE 
 133      B3
 134 01c8 D0E920AA 		.ascii	"\320\351 \252VJAX-^\011\212\245\313A\030\351)]\255\007"
 134      564A4158 
 134      2D5E098A 
 134      A5CB4118 
 134      E9295DAD 
 135 01dd 8DDACCF4 		.ascii	"\215\332\314\364\205\200\223Z#\320\323\341\305\231\""
 135      8580935A 
 135      23D0D3E1 
 135      C59922
 136 01ec 2F8AEA61 		.ascii	"/\212\352aT,D$\032\227\202\001\270z-\264L\251R\010\351"
 136      542C4424 
 136      1A978201 
 136      B87A2DB4 
 136      4CA95208 
 137 0201 2F210AE4 		.ascii	"/!\012\344("
 137      28
 138              		.text
 139              		.section	.gnu.lto_chSemObjectInit.98ce37eee27d8eb2,"",%progbits
 140 0000 789C8D91 		.ascii	"x\234\215\221?K\003A\020\305\347m<\374Whk!\010\226b"
 140      3F4B0341 
 140      10C5E76D 
 140      3CFC5768 
 140      6B210896 
 141 0015 B6F19B18 		.ascii	"\266\361\233\030A\313d\357\314-z9\310%\202Z\344b\004"
 141      41CB64EF 
 141      CC2D7A39 
 141      C825825A 
 141      E46204
 142 0028 3B496511 		.ascii	";Ie\021\265H\241\205\2056\226\202i%*\244\260\020R\234"
 142      B548A185 
 142      85369682 
 142      69252AA4 
 142      B010529C 
 143 003c 55BE834D 		.ascii	"U\276\203M\234\275\273\210\250\210\003\2733,\363~\363"
 143      9CBDBB88 
 143      A88803BB 
 143      332CF37E 
 143      F3
 144 004d 765790A0 		.ascii	"vW\220\240\3571\307\253\001\242M\316\310\020D\363\231"
 144      EF31C7AB 
 144      01A24DCE 
 144      C81044F3 
 144      99
 145 005e A83E2100 		.ascii	"\250>!\000S\020\250&P\333@\334{#:\321px}rt{\206s1\011"
 145      5310A826 
 145      50DB40DC 
 145      7B233AD1 
ARM GAS  /tmp/ccGp8fg9.s 			page 11


 145      70787D72 
 146 0078 7860A206 		.ascii	"x`\242\006Y\\\231\026\213\016\303\260\271@\244bA\216"
 146      595C9916 
 146      8B0EC3B0 
 146      B940A462 
 146      418E
 147 008a 77435983 		.ascii	"wCY\20309\363D\007\357\215\373\343\371<\332\260\250"
 147      3039F344 
 147      07EF8DFB 
 147      E3F93CDA 
 147      B0A8
 148 009c 08B14F7B 		.ascii	"\010\261O{\254^\242\253\220cU\003\247\324\202\206(\002"
 148      AC5EA2AB 
 148      90635503 
 148      A7D48286 
 148      2802
 149 00ae EB9C33F1 		.ascii	"\353\2343\361\324\002\276\330eD\267\337z\034\214\177"
 149      D402BED8 
 149      6544B7DF 
 149      7A1C8C7F 
 150 00be 8E4A8A4E 		.ascii	"\216J\212Nw\320\343\366\204\254b3)7zy\273[\326\030c"
 150      77D0E3F6 
 150      84AC6233 
 150      29377A79 
 150      BB5BD618 
 151 00d3 743D0C67 		.ascii	"t=\014gyHJ\247\224\016#\273d\231q\024OxhN\345q\301'"
 151      79484AA7 
 151      940E23BB 
 151      64997114 
 151      4F78684E 
 152 00eb A9B399BF 		.ascii	"\251\263\231\277\344\342\207\274\333\217FwL\001\323"
 152      E4E287BC 
 152      DB8F4677 
 152      4C01D3
 153 00fa 1AD6EF57 		.ascii	"\032\326\357WKr\321\310{T\217^\027\023\335(r\354\216"
 153      4B72D1C8 
 153      7B548F5E 
 153      1713DD28 
 153      72EC8E
 154 010d 5FCE7C9B 		.ascii	"_\316|\233\224\256\3579R\371\366\256\264\235\035\251"
 154      94AEEF39 
 154      52F9F6AE 
 154      B49D1DA9 
 155 011d 5C5DD07E 		.ascii	"\\]\320~ +\345jiKrQ\256\310\240\254\370<p\274\254\242"
 155      202BE56A 
 155      694B7251 
 155      AEC8A0AC 
 155      F83C70BC 
 156 0133 957FF4EB 		.ascii	"\225\177\364\353\222\332\256\332\216\321(\327\316\272"
 156      92DAAEDA 
 156      8ED128D7 
 156      CEBA
 157 0141 F401C433 		.ascii	"\364\001\3043\201\331"
 157      81D9
 158              		.text
 159              		.section	.gnu.lto_chSemResetI.98ce37eee27d8eb2,"",%progbits
 160 0000 789C8D93 		.ascii	"x\234\215\223\317k\023A\024\307\337\233\335m~\232\210"
ARM GAS  /tmp/ccGp8fg9.s 			page 12


 160      CF6B1341 
 160      14C7DF9B 
 160      DD6D7E9A 
 160      88
 161 0011 9E04A1A5 		.ascii	"\236\004\241\245 \210\305.\212 \202\376\027\025\364"
 161      2088C52E 
 161      8A2082FE 
 161      1715F4
 162 0020 986E42B2 		.ascii	"\230nB\262\324$\222\244\202\226\222I\263\207\"9\324"
 162      D42492A4 
 162      82969249 
 162      B3872239 
 162      D4
 163 0031 1E8A3F10 		.ascii	"\036\212?\020Z\202\012Z\023\217\036#(\266\326\237x\250"
 163      5A820A5A 
 163      138F1E23 
 163      28B6D69F 
 163      78A8
 164 0043 891622A8 		.ascii	"\211\026\"\250 x\350\261\0241\276\331\231\215I\021\332"
 164      2078E8B1 
 164      1431BED9 
 164      998D4911 
 164      DA
 165 0054 81DD9937 		.ascii	"\201\335\2317\273\237\367}o\276\273\014\030\354\034"
 165      BB9FF77D 
 165      6FBEBB0C 
 165      18EC1C
 166 0063 E7E85AD7 		.ascii	"\347\350Z\327\000\3224\343\000 \233{\013P\3623\324\345"
 166      00D234E3 
 166      00209B7B 
 166      0B50F233 
 166      D4E5
 167 0075 42938B67 		.ascii	"B\223\213g~\235i\225\227\000<h8>\340a\003Q\354\003B"
 167      7E9D6995 
 167      97003C68 
 167      383EE061 
 167      0351EC03 
 168 008a 9169BA81 		.ascii	"\221i\272\201\305\213(\322\261aX\342|\256\375\342\321"
 168      C58B28D2 
 168      B16158E2 
 168      7CAEFDE2 
 168      D1
 169 009b 2ADEE20D 		.ascii	"*\336\342\015g\221\377\356t\020m$\351\223\010\026\302"
 169      6791FFEE 
 169      74106D24 
 169      E9930816 
 169      C2
 170 00ac 050A70C8 		.ascii	"\005\012p\310\235\230\336_\213\313\316\2677\276?\377"
 170      9D98DE5F 
 170      8BCBCEB7 
 170      37BE3FFF 
 171 00bc 8A37CA7C 		.ascii	"\2127\312|\205;\015\202\007m\324\030L\354\006\327Y\243"
 171      853B0D82 
 171      076DD418 
 171      4CEC06D7 
 171      59A3
 172 00ce DDE9D45A 		.ascii	"\335\351\324Z\327k\313\270\314\016 \304p\011\207A\307"
ARM GAS  /tmp/ccGp8fg9.s 			page 13


 172      D76BCBB8 
 172      CC0E20C4 
 172      70098741 
 172      C7
 173 00df 3482A182 		.ascii	"4\202\241\202\001\012\320\257\202\000\330\250\207\351"
 173      010AD0AF 
 173      8200D8A8 
 173      87E9
 174 00ed A64568A7 		.ascii	"\246Eh\247J;Q\021P*\003\034\352aH\276\006B\227\306\030"
 174      4A3B5111 
 174      502A031C 
 174      EA6148BE 
 174      064297C6 
 175 0102 DDA9F3F3 		.ascii	"\335\251\363\363\310h\322\336\300L\353S\375L\014\357"
 175      C868D2DE 
 175      C04CEB53 
 175      FD4C0CEF 
 176 0112 A1014934 		.ascii	"\241\001I4F\340!\247q\232\032\275\003\267\251<#\211"
 176      46E021A7 
 176      719A1ABD 
 176      03B7A93C 
 176      2389
 177 0124 BA2873C0 		.ascii	"\272(s\300-n\034\2752\011\\\333\252\377DI*,\264\013"
 177      2D6E1CBD 
 177      32095CDB 
 177      AAFF4449 
 177      2A2CB40B 
 178 0138 965431A9 		.ascii	"\226T1\251k@.\010\371\355\362\203\205\243\236~`\012"
 178      6B402E08 
 178      F9EDF283 
 178      85A39E7E 
 178      600A
 179 014a AE51372A 		.ascii	"\256Q7*\335]J\340\373\177\276n\035n%\255/\237_\337<"
 179      DD5D4AE0 
 179      FB7FBE6E 
 179      1D6E25AD 
 179      2F9F5FDF 
 180 015f DB6DB7EA 		.ascii	"\333m\267\352\266+\303\306\332\267\031\003@\012X\222"
 180      B62BC3C6 
 180      DAB71903 
 180      400A5892 
 181 016f 4B62442A 		.ascii	"KbD*H\213\030\235\026\251\2248\337OzJHWBL\2605b\225"
 181      488B189D 
 181      16A99438 
 181      DF4F7A4A 
 181      4857424C 
 182 0187 D2D6FDCA 		.ascii	"\322\326\375\312\361\030>v\253\215\216\300\261^\326"
 182      F1183E76 
 182      AB8D8EC0 
 182      B15ED6
 183 0196 4F8905AB 		.ascii	"O\211\005\253)V\353gW\237\004%\251\332;\2617]\322\221"
 183      2956EB67 
 183      579F0425 
 183      A9DA3BB1 
 183      375DD291 
 184 01aa C7BD79B0 		.ascii	"\307\275y\260\017\237\336!\035\355\225\326{\360\000"
 184      0F9FDE21 
ARM GAS  /tmp/ccGp8fg9.s 			page 14


 184      1DED95D6 
 184      7BF000
 185 01b9 C03B7036 		.ascii	"\300;p6\347\233\213\350\235sx\012\266\371\254\000\003"
 185      E79B8BE8 
 185      9D73780A 
 185      B6F9AC00 
 185      03
 186 01ca 1632E54D 		.ascii	"\0262\345M\304\306\240\253\364\364\375`\237\255\033"
 186      C4C6A0AB 
 186      F4F4FD60 
 186      9FAD1B
 187 01d9 9438A4D6 		.ascii	"\2248\244\326\037i\035\226\236\220f\270W\323P\263\364"
 187      1F691D96 
 187      9E9066B8 
 187      57D350B3 
 187      F4
 188 01ea 483C09FD 		.ascii	"H<\011\375\351\250\201E\317x\035\350\177#\343\313\263"
 188      E9A88145 
 188      CF781DE8 
 188      7F23E3CB 
 188      B3
 189 01fb E5EAC221 		.ascii	"\345\352\302!\257 \312\205\202\000a\320\0128?\272\245"
 189      AF20CA85 
 189      820061D0 
 189      0A383FBA 
 189      A5
 190 020c FAC5F6BE 		.ascii	"\372\305\366\276\177v7\001\351;e\277\326\017\3233\255"
 190      7F763701 
 190      E93B65BF 
 190      D60FD333 
 190      AD
 191 021d D28C8BA4 		.ascii	"\322\214\213\244\206\370\226?@\251\375\352\210\344\274"
 191      86F8963F 
 191      40A9FDEA 
 191      88E4BC
 192 022c 31468E3B 		.ascii	"1F\216;>\321\241i\246\262\351\204ie\343W\315x\342\212"
 192      3ED1A169 
 192      A6B2E984 
 192      6965E357 
 192      CD78E28A 
 193 0240 69A5EC71 		.ascii	"i\245\354q;\2337\013\271\311\314\204I\213\\\301\314"
 193      3B9B370B 
 193      B9C9CC84 
 193      498B5CC1 
 193      CC
 194 0251 E72CDACF 		.ascii	"\347,\332\317'\322\243\026hV\246pj\017\214\235\261."
 194      27D2A316 
 194      6856A670 
 194      6A0F8C9D 
 194      B12E
 195 0263 4DC61382 		.ascii	"M\306\023\202\263R\361\321\024\260\302\345\277\206\262"
 195      B352F1D1 
 195      14B0C2E5 
 195      BF86B2
 196 0272 1283     		.ascii	"\022\203"
 197              		.text
 198              		.section	.gnu.lto_chSemReset.98ce37eee27d8eb2,"",%progbits
ARM GAS  /tmp/ccGp8fg9.s 			page 15


 199 0000 789C8D90 		.ascii	"x\234\215\220\261J\003A\020\206\377\331\273\250\244"
 199      B14A0341 
 199      1086FFD9 
 199      BBA8A4
 200 000f 4AA94DB8 		.ascii	"J\251M\270\306N\262>B@\020,\322\030\003Z\311es$\213"
 200      C64EB23E 
 200      4240102C 
 200      D218035A 
 200      C9657324 
 201 0024 5E4EEE12 		.ascii	"^N\356\022I\260\310%F\264\020Iaac!\010\332\250\217\240"
 201      49B0C825 
 201      46B41049 
 201      61616321 
 201      08DAA88F 
 202 0039 9D5D243E 		.ascii	"\235]$>A \235U\004+\013\343\355]\014\242\205.\354\316"
 202      41209D55 
 202      042B0BE3 
 202      ED5D0CA2 
 202      852EECCE 
 203 004d B0F3ED3F 		.ascii	"\260\363\355?\377\016\003\303\3175\027\354\034\001'"
 203      FF0E03C3 
 203      CF3517EC 
 203      1C0127
 204 005c 41240DC4 		.ascii	"A$\015\304:]\2409\303\210T\002B\203Qc\203B\366\216="
 204      3A5DA039 
 204      C3885402 
 204      42835163 
 204      8342F68E 
 205 0071 F447A3DB 		.ascii	"\364G\243\333\267\307\233c\272fq\215l\202\036\034\252"
 205      B7C79B63 
 205      BA66718D 
 205      6C821E1C 
 205      AA
 206 0082 1A43DBF7 		.ascii	"\032C\333\367;\006 Bv-8\225@\216\230\212Z\027\255\327"
 206      3B062042 
 206      762D3895 
 206      408E988A 
 206      5A17ADD7 
 207 0096 97D3C1EC 		.ascii	"\227\323\301\354\0043\351\202b\010;\020<M9\323\"{I\264"
 207      0433E982 
 207      62083B10 
 207      3C4D39D3 
 207      227B49B4 
 208 00aa E9DC3F4B 		.ascii	"\351\334?K\313\250\351:I\"Ce\223\372\341\270>\376\315"
 208      CBA8E93A 
 208      49224365 
 208      93FAE1B8 
 208      3EFECD
 209 00bd 130E86CF 		.ascii	"\023\016\206\317\367\265/\305=\274\373G~B\222&(\222"
 209      F7B52FC5 
 209      3DBCFB47 
 209      7E429226 
 209      2892
 210 00cf 28925624 		.ascii	"(\222V$]\222\256\330\375\376\307 \376\213\215\211\261"
 210      5D92AED8 
 210      FDFEC720 
 210      FE8B8D89 
ARM GAS  /tmp/ccGp8fg9.s 			page 16


 210      B1
 211 00e0 9AA429E0 		.ascii	"\232\244)\340?nM\272\014\346\025\272\3037w&]Q2\362\325"
 211      3F6E4DBA 
 211      0CE615BA 
 211      C3377726 
 211      5D5132F2 
 212 00f5 4373D8EA 		.ascii	"Cs\330\352\351\223\267\210\006Cj \212\345\274\344\330"
 212      E993B788 
 212      06436A20 
 212      8AE5BCE4 
 212      D8
 213 0106 16174EA1 		.ascii	"\026\027N\241\316\013\326.\027%\231\227\216\307+n\265"
 213      CE0BD62E 
 213      17259997 
 213      8EC72B6E 
 213      B5
 214 0117 BCC583C4 		.ascii	"\274\305\203\304\255p\317\025\301\275g\331)\201\364"
 214      AD70CF15 
 214      C1BD67D9 
 214      2981F4
 215 0126 5FBC55AB 		.ascii	"_\274U\253\360\245Lv%\313eYlW\013\212u\255Ma/W\313\""
 215      F0A54C76 
 215      25CB6559 
 215      6C570B8A 
 215      75AD4D61 
 216 013e 55422293 		.ascii	"UB\"\223]5\362\246g\355\270r\301\230_\004s1m[\266\343"
 216      5D35F2A6 
 216      67EDB872 
 216      C1985F04 
 216      73316D5B 
 217 0154 D6F10995 		.ascii	"\326\361\011\225rz\255"
 217      727AAD
 218              		.text
 219              		.section	.gnu.lto_chSemWait.98ce37eee27d8eb2,"",%progbits
 220 0000 789C8D51 		.ascii	"x\234\215Q=h\024A\030\375\336\314\336\355FLL)\010\307"
 220      3D681441 
 220      18FDDECC 
 220      DEED464C 
 220      4C2908C7 
 221 0014 35564A46 		.ascii	"5VJFl,\015(\202E\232\234\001-D\366\346\226\275A\367"
 221      6C2C0D28 
 221      82459A9C 
 221      012D44F6 
 221      E696BD41 
 222 0029 4E76EFC4 		.ascii	"Nv\357\304`qs\311A\002\202\244\020\374/\004\305\237"
 222      607173C9 
 222      410282A4 
 222      10FC2F04 
 222      C59F
 223 003b 220ADAD9 		.ascii	"\"\012\332\331\244\260\320\"g,\025\013Ql\354\004! \302"
 223      A4B0D022 
 223      672C150B 
 223      516CEC04 
 223      2120C2
 224 004e 39B3933B 		.ascii	"9\263\223;\242\215\031\230o\276\371\346}\357\275\231"
 224      A28D1998 
 224      6FBEF9E6 
ARM GAS  /tmp/ccGp8fg9.s 			page 17


 224      7DEFBD99 
 225 005e 61C4E8DF 		.ascii	"a\304\350\337q\330\314\343\246|\315\254(\020\330J\237"
 225      71D8CCE3 
 225      A67CCDAC 
 225      2810D84A 
 225      9F
 226 006f A81B30C6 		.ascii	"\250\0330\3067'H\357\362n\035%\275\233\303se\017\260"
 226      372748EF 
 226      F26E1D25 
 226      BD9BC373 
 226      650FB0
 227 0082 09813A8C 		.ascii	"\011\201:\214{\350\234AN\362\214\255}\036\014V7\256"
 227      7BE89C41 
 227      4EF28CAD 
 227      7D1E0C56 
 227      37AE
 228 0094 3EFC8D55 		.ascii	">\374\215U\266\207#\001\025I\201|\033\002\0230f\203"
 228      B6872301 
 228      1549817C 
 228      1B021330 
 228      6683
 229 00a6 8116A8A7 		.ascii	"\201\026\250\247\365J\231H\346\255\247L\264\214s`v\345"
 229      F54A9948 
 229      E6ADA74C 
 229      B48C7360 
 229      76E5
 230 00b8 7D5AF8F1 		.ascii	"}Z\370\361\375\372\327\275#X\210\373\306V.\011\312\270"
 230      FDFAD7BD 
 230      235888FB 
 230      C6562E09 
 230      CAB8
 231 00ca BD0177D7 		.ascii	"\275\001w\327(Q\017\367\364\315i\205|{\032\012\274l"
 231      28510FF7 
 231      F4CD6985 
 231      7C7B1A0A 
 231      BC6C
 232 00dc B3D1F9D2 		.ascii	"\263\321\371\322\326\271\347\256\272N\013\037?\375\274"
 232      D6B9E7AE 
 232      BA4E0B1F 
 232      3FFDBC
 233 00eb BB6FC4ED 		.ascii	"\273o\304\355\022\375\342\206?\324\221\271G\212Q<@O"
 233      12FDE286 
 233      3FD491B9 
 233      478A513C 
 233      404F
 234 00fd B5D66BAF 		.ascii	"\265\326k\257\372\343\012\205;t\273\253\365\244B1\006"
 234      FAE30A85 
 234      3B74BBAB 
 234      F5A44231 
 234      06
 235 010e B7427E4E 		.ascii	"\267B~NX\265\340\020O\234\301uZ\\^,\205xl\2661|\303"
 235      58B5E010 
 235      4F9CC175 
 235      5A5C5E2C 
 235      85786CB6 
 236 0125 619185C1 		.ascii	"a\221\205\301p\240\223[x\273\001\207q\012\372\310\316"
 236      70A0935B 
ARM GAS  /tmp/ccGp8fg9.s 			page 18


 236      78BB0187 
 236      710AFAC8 
 236      CE
 237 0136 F8635B7B 		.ascii	"\370c[{C\257\277u\307G\022\026\371\327g\316\201\323"
 237      43AFBF75 
 237      C7471216 
 237      F9D767CE 
 237      81D3
 238 0148 E6047F47 		.ascii	"\346\004\177G\275`\010\012\256\320/\275l\271\003\011"
 238      BD60080A 
 238      AED02FBD 
 238      6CB90309 
 239 0158 36326B74 		.ascii	"62kt\224\371\223\255.o\307o\037\342\201\321\310\337"
 239      94F993AD 
 239      2E6FC76F 
 239      1FE281D1 
 239      C8DF
 240 016a 9AB6BD75 		.ascii	"\232\266\275u\210G(9\266\367\324}\376\345\254k\215\235"
 240      88472839 
 240      B6F7D47D 
 240      FEE5AC6B 
 240      8D9D
 241 017c C4071AB3 		.ascii	"\304\007\032\263\035\306+{\3316\2268\354\307\303\212"
 241      1DC62B7B 
 241      D9369638 
 241      ECC7C38A 
 242 018c DA6E21EA 		.ascii	"\332n!\352\315$\022\262Y\233\027\265\350\222\220uUU"
 242      CD2412B2 
 242      599B17B5 
 242      E8929075 
 242      5555
 243 019e CD4CB4D2 		.ascii	"\315L\264\322v\343\2740I\332\022Y*M=\213\222)I\323\377"
 243      76E3BC30 
 243      49DA1259 
 243      2A4D3D8B 
 243      922949D3 
 244 01b3 C347975B 		.ascii	"\303G\227[\342\330L\345dE\250\206\274\320\256Yl\032"
 244      E2D84CE5 
 244      6445A886 
 244      BCD0AE59 
 244      6C1A
 245 01c5 9D93C989 		.ascii	"\235\223\311\211vCN\325ir\2462[\256\206Yt1U\007\313"
 245      76434ED5 
 245      6972A632 
 245      5BAE8659 
 245      74315507 
 246 01da FB0F114B 		.ascii	"\373\017\021K\311O\242\244\231\316\323\037Me\265\244"
 246      C94FA2A4 
 246      99CED31F 
 246      4D65B5A4 
 247              		.text
 248              		.section	.gnu.lto_chSemWaitS.98ce37eee27d8eb2,"",%progbits
 249 0000 789C8591 		.ascii	"x\234\205\221\275NBA\020\205\347\354\356%D\221\370\004"
 249      BD4E4241 
 249      1085E7EC 
 249      EE254491 
 249      F804
ARM GAS  /tmp/ccGp8fg9.s 			page 19


 250 0012 C65A1237 		.ascii	"\306Z\0227V\226\276\204$Z\312\205\300\306 \011\240\211"
 250      5696BE84 
 250      245ACA85 
 250      C0C62009 
 250      A089
 251 0024 B160F929 		.ascii	"\261`\371)(i\305\312\302\306B[c,,,4\021\324\022+\033"
 251      2869C5CA 
 251      C2C6425B 
 251      632C2C2C 
 251      3411D412 
 252 003a E3131812 		.ascii	"\343\023\030\022\033\234\271p)l\234\344\316\354\356"
 252      1B9CB970 
 252      296C9CE4 
 252      CEECEE
 253 0049 3DE79BFD 		.ascii	"=\347\233\375Q\244\350ol\360W\302\264\" \250\336\220"
 253      51A4E86F 
 253      6CF057C2 
 253      B42220A8 
 253      DE90
 254 005b A899544A 		.ascii	"\250\231TJ\217\323\344\027\314\351\026\371\224\206\221"
 254      8FD3E417 
 254      CCE916F9 
 254      948691
 255 006a 6518402A 		.ascii	"e\030@*\201\032J\0334v\0211\256\325\375\307dr\325\037"
 255      811A4A1B 
 255      34761131 
 255      AED5FDC7 
 255      6472D51F 
 256 007e 5E3CE356 		.ascii	"^<\343V-\202\034\270\023'\2032(\340\021\022\222X\032"
 256      2D821CB8 
 256      13278332 
 256      28E01112 
 256      92581A
 257 0091 50C7FBDE 		.ascii	"P\307\373\336*Q\030Y\2679\0131\013%U\017\250\365~\363"
 257      2A511859 
 257      B7390B31 
 257      0B25550F 
 257      A8F57EF3 
 258 00a5 35C21ECE 		.ascii	"5\302\036\316y3E\004\031ZsPg\324\207\203.\302\354p5"
 258      79334504 
 258      195A7350 
 258      67D48783 
 258      2EC2EC70 
 259 00ba 51D31CE2 		.ascii	"Q\323\034\342#\014\250\335m\257\304\226\004\273D\245"
 259      230CA8DD 
 259      6DAFC496 
 259      04BB44A5 
 260 00ca 2671A021 		.ascii	"&q\240!\232\326\323\353\014\233\241K\317\261\371\017"
 260      9AD6D3EB 
 260      0C9BA14B 
 260      CFB1F90F 
 261 00da 9851448F 		.ascii	"\230QD\217\364\360\331\\\232\263E5\357+\221\205\246"
 261      F4F0D95C 
 261      9AB34535 
 261      EF2B9185 
 261      A6
 262 00eb 715ABF50 		.ascii	"qZ\277P'\031\213\324\011\375\370\256_v\010\302\231\230"
ARM GAS  /tmp/ccGp8fg9.s 			page 20


 262      27198BD4 
 262      09FDF8AE 
 262      5F7608C2 
 262      9998
 263 00fd F94E6853 		.ascii	"\371NhS\207\211\216\372\306\267,\177\"\305\210\300F"
 263      87898EFA 
 263      C6B72C7F 
 263      22C588C0 
 263      46
 264 010e 0DE1F354 		.ascii	"\015\341\363T\335}\247\344r Jy3kK\225r\301\206\225\374"
 264      DD7DA7E4 
 264      72204A79 
 264      336B4B95 
 264      72C18695 
 265 0123 B1CD178E 		.ascii	"\261\315\027\216lXr9W\251\331z\365\360`\337\362\240"
 265      6C587239 
 265      57A9D97A 
 265      F5F060DF 
 265      F2A0
 266 0135 5AB7B56A 		.ascii	"Z\267\265j\310\353\265By=\244_\232\304f\321"
 266      C8EBB542 
 266      793DA45F 
 266      9AC466D1 
 267              		.text
 268              		.section	.gnu.lto_chSemWaitTimeoutS.98ce37eee27d8eb2,"",%progbits
 269 0000 789C8552 		.ascii	"x\234\205R\317K\002Q\020\376\346\355\276UB\241k`\321"
 269      CF4B0251 
 269      10FEE6ED 
 269      BE5542A1 
 269      6B60D1
 270 0013 39A1453A 		.ascii	"9\241E:\364GtM\250c\256\242K\230\240\026D\007W-\360"
 270      F447744D 
 270      A863AEA2 
 270      4B98A016 
 270      4407572D 
 271 0028 D041042F 		.ascii	"\320A\004/\006A'\241C]\273H?\210\250\240\037\322)O]"
 271      064127A1 
 271      435DBB48 
 271      3F88A8A0 
 271      1FD2294F 
 272 003d A24B274F 		.ascii	"\242K'O\021\221\315[]\251.\016\354\233\231}\337\367"
 272      1191CD5B 
 272      5DA92E0E 
 272      EC9B997D 
 272      DFF7
 273 004f CDBC374F 		.ascii	"\315\2747O@\340\277-\360\327% \302\236| Q\275\007\212"
 273      40E0BF2D 
 273      F0D72520 
 273      C29E7C20 
 273      51BD078A 
 274 0063 7E21B476 		.ascii	"~!\264v\010\316\230q\032\201\023\320\204\276\357\343"
 274      08CE9871 
 274      1A8113D0 
 274      84BEEFE3 
 275 0073 4C76AFC0 		.ascii	"Lv\257\300\251NF\037%\373\001\031D\312\203P\020\232"
 275      A94E461F 
 275      25FB0119 
ARM GAS  /tmp/ccGp8fg9.s 			page 21


 275      44CA8350 
 275      109A
 276 0085 2E0D2A2C 		.ascii	".\015*,\223\253~,\316^z\275\243F\255\365E\267\"H\260"
 276      93AB7E2C 
 276      CE5E7ABD 
 276      A346ADF5 
 276      45B72248 
 277 009a 897BE045 		.ascii	"\211{\340E\2474ArD\206Z\374\234*\206\304\266\343T\247"
 277      A7344172 
 277      44865AFC 
 277      9C2A86C4 
 277      B6E354A7 
 278 00ae 01CBE52F 		.ascii	"\001\313\345/\362\252\204\243$\224\327\356P\352\234"
 278      F2AA84A3 
 278      2494D7EE 
 278      50EA9C
 279 00bd 343BB442 		.ascii	"4;\264B\007$\221$\031\306\214Mb\017\015\262IK\222\276"
 279      07249124 
 279      19C68C4D 
 279      620F0DB2 
 279      494B92BE 
 280 00d1 C45E772B 		.ascii	"\304^w+\307\310;\341\035\312\225\362\224G1\230\245P"
 280      C7C83BE1 
 280      1DCA95F2 
 280      94473198 
 280      A550
 281 00e3 A2E71915 		.ascii	"\242\347\031\025\024\246t\3638\220\015\343\320a\233"
 281      14A674F3 
 281      38900DE3 
 281      D0619B
 282 00f2 1F21CC52 		.ascii	"\037!\314R\3005._\213\301\241\266B\015\353*\213\222"
 282      C0352E5F 
 282      8BC1A1B6 
 282      420DEB2A 
 282      8B92
 283 0104 86764863 		.ascii	"\206vHc\330\333y\253\026\360\200~\005\224\177\201:\236"
 283      D8DB79AB 
 283      16F0807E 
 283      05947F81 
 283      3A9E
 284 0116 843AE0CD 		.ascii	"\204:\340\315G\363B\374\351dnd'\322\023\221\370\236"
 284      47F342FC 
 284      E9646E64 
 284      27D21391 
 284      F89E
 285 0128 D01EB0E3 		.ascii	"\320\036\260\343\367*\211-|:\025g\334&\303\032\264\306"
 285      F72A892D 
 285      7C3A1567 
 285      DC26C31A 
 285      B4C6
 286 013a 1ADC81CD 		.ascii	"\032\334\201\315\303\036\220\014\367n\333<O\265\351"
 286      C31E900C 
 286      F76EDB3C 
 286      4FB5E9
 287 0149 829E41AA 		.ascii	"\202\236A\252\016~]\222\276[\237d=\331\337\000\304{"
 287      0E7E5D92 
 287      BE5B9F64 
ARM GAS  /tmp/ccGp8fg9.s 			page 22


 287      3DD9DF00 
 287      C47B
 288 015b 3DA82644 		.ascii	"=\250&D\212\255\336\225i\2462\351\204ie\342\233f<\261"
 288      8AADDE95 
 288      69A632E9 
 288      846965E2 
 288      9B663CB1 
 289 016f 615A293B 		.ascii	"aZ);fgrf>\273\276\266jr\220\315\233\271\254\305\377"
 289      66677266 
 289      3EBBBEB6 
 289      6A7290CD 
 289      9BB9ACC5 
 290 0184 7389F4AC 		.ascii	"s\211\364\254\205\037\215\270\217\025"
 290      851F8DB8 
 290      8F15
 291              		.text
 292              		.section	.gnu.lto_chSemWaitTimeout.98ce37eee27d8eb2,"",%progbits
 293 0000 789C8D4F 		.ascii	"x\234\215O\275J\003A\020\236\331\313\217X\005l\024$"
 293      BD4A0341 
 293      109ED9CB 
 293      8F58056C 
 293      1424
 294 0012 1C829D64 		.ascii	"\034\202\235d\305'\010\010\202E\032\023A+\271l\216\344"
 294      C5270808 
 294      82451A13 
 294      412BB96C 
 294      8EE4
 295 0024 D04BE42E 		.ascii	"\320K\344.QC\212\234\022!`\023\304BA\301 \010V\372\010"
 295      51438A9C 
 295      12216013 
 295      C44241C1 
 295      200856FA 
 296 0039 692C6C22 		.ascii	"i,l\"\372\004\201XX\211ZX\030\341\234\275\213Amt\226"
 296      FA048158 
 296      58895A58 
 296      18E19CBD 
 296      8B416D74 
 297 004e 9DFF99EF 		.ascii	"\235\377\231\357\033\006\014~\313\030\3752\002\354\223"
 297      1B060C7E 
 297      CB18FD32 
 297      02EC93
 298 005d 45059035 		.ascii	"E\005\2205\332\000\333C\014Q:\200PeX]F\331\212\023\320"
 298      DA00DB43 
 298      0C513A80 
 298      5065585D 
 298      46D98A13 
 299 0072 749C46E7 		.ascii	"t\234F\347\372\355\006\217\234V\355\324\371p]D\003i"
 299      FAED068F 
 299      9C56EDD4 
 299      F9705D44 
 299      0369
 300 0084 ED0C8240 		.ascii	"\355\014\202@X\242\000U\317\260\300O\234K\326\352\270"
 300      58A20055 
 300      CFB0C04F 
 300      9C4BD6EA 
 300      B8
 301 0095 EE71EFA1 		.ascii	"\356q\357\241\373\210#\303\012\232\010\001R\030\002"
ARM GAS  /tmp/ccGp8fg9.s 			page 23


 301      FB8823C3 
 301      0A9A0801 
 301      521802
 302 00a4 0D9BB499 		.ascii	"\015\233\264\231$\0105Z\257~\305\302\003M\221\226L\026"
 302      2408355A 
 302      AF7EC5C2 
 302      034D9196 
 302      4C16
 303 00b6 9149ABB4 		.ascii	"\221I\253\264a\347\345\351\240;\332o\006\032?\303\240"
 303      61E7E5E9 
 303      A03BDA6F 
 303      061A3FC3 
 303      A0
 304 00c7 478FDEA6 		.ascii	"G\217\336\246\"OT\374;\243P\307\023\3470n\320]$\222"
 304      224F54FC 
 304      3BA350C7 
 304      13E7306E 
 304      D05D2492 
 305 00db 554095DE 		.ascii	"U@\225\336\240\276\327\257\007}\216\267\260\373|\337"
 305      A0BED7AF 
 305      077D8EB7 
 305      B0FB7CDF 
 306 00eb 1BF73766 		.ascii	"\033\3677f1T\201w\247\356D\014\014\011\364\310PR\311"
 306      31548177 
 306      A7EE440C 
 306      0C09F4C8 
 306      5052C9
 307 00fe 62C0C030 		.ascii	"b\300\3000\300\177\210hxN\330\0360|\003\326\360\002"
 307      C07F8868 
 307      784ED81E 
 307      307C03D6 
 307      F002
 308 0110 A33EE41D 		.ascii	"\243>\344\035l_\275V\006\210~2Eht\253\354\345<W0u.\012"
 308      6C5FBD56 
 308      06887E32 
 308      456874AB 
 308      ECE53C57 
 309 0128 9932CFE8 		.ascii	"\2312\317\350\033\\\344\214\264Q\260y\321*\345W99V\221"
 309      1B5CE48C 
 309      B451B079 
 309      D12AE557 
 309      39395691 
 310 013c DB96A0BC 		.ascii	"\333\226\240\274\255\2331\001\212ig\343\177\315\350"
 310      AD9B3101 
 310      8A6967E3 
 310      7FCDE8
 311 014b 5B453E9B 		.ascii	"[E>\233H\316'\271\221\027k\245\214\354\265\364\025a"
 311      48CE27B9 
 311      91176BA5 
 311      8CECB5F4 
 311      1561
 312 015d CE95F222 		.ascii	"\316\225\362\"\226\203H\"\271\240\2465[_\267\214)ur"
 312      96834822 
 312      B9A0A635 
 312      5B5FB78C 
 312      297572
 313 0170 1A980561 		.ascii	"\032\230\005aS7\013V\031>\001\317k\204\260"
ARM GAS  /tmp/ccGp8fg9.s 			page 24


 313      53370B56 
 313      193E01CF 
 313      6B84B0
 314              		.text
 315              		.section	.gnu.lto_chSemSignal.98ce37eee27d8eb2,"",%progbits
 316 0000 789C9553 		.ascii	"x\234\225SMh\023A\024~of\323\306\232\324R=\207 x\250"
 316      4D681341 
 316      147E6F66 
 316      D3C69AD4 
 316      523D8720 
 317 0016 D5AC8AD0 		.ascii	"\325\254\212\320\243\005A\360\320\213\261\240'I7K\262"
 317      A30541F0 
 317      D08BB1A0 
 317      2749374B 
 317      B2
 318 0027 6892B249 		.ascii	"h\222\262I\305Z\244\223&B\017\005\213\247V\361\247\026"
 318      C55AA493 
 318      26420F05 
 318      8BA756F1 
 318      A716
 319 0039 8A3F5035 		.ascii	"\212?P5\210'\301\200U,%U\361\026=\324\213\036\364\020"
 319      8827C180 
 319      552C2555 
 319      F1163DD4 
 319      8B1EF410 
 320 004d 4F8520C4 		.ascii	"O\205 \3047;\273iZ\204\326\201\314O\346\373y\363\336"
 320      373BBB69 
 320      5A84D681 
 320      CC4FE6FB 
 320      79F3DE
 321 0060 5B060CB6 		.ascii	"[\006\014\266\216c\364[\344\000\357hE\037 \233^\005"
 321      8E63F45B 
 321      E400EF68 
 321      451F209B 
 321      5E05
 322 0072 C8FB19E3 		.ascii	"\310\373\031\343\353\235 :\264\331\023 \002\0345\365"
 322      EB9D203A 
 322      B4D91320 
 322      021C35F5 
 323 0082 B7862837 		.ascii	"\267\206(7\2000\316\270\206\343\347Qj\340~\230\023\342"
 323      8030CEB8 
 323      86E3E751 
 323      6AE07E98 
 323      13E2
 324 0094 E6DADB07 		.ascii	"\346\332\333\007S\241YQ.\336\027\177\032\015D\013\311"
 324      53A15951 
 324      2EDE177F 
 324      1A0D440B 
 324      C9
 325 00a5 AF0FC140 		.ascii	"\257\017\301@8G\007\014;\013\3236\007\360\224\225\327"
 325      3847070C 
 325      3B0BD336 
 325      07F09495 
 325      D7
 326 00b6 1A8DC51B 		.ascii	"\032\215\305\033\245\352\022~\351\351\3260\205\340\003"
 326      A5EA127E 
 326      E9E9D630 
ARM GAS  /tmp/ccGp8fg9.s 			page 25


 326      85E003
 327 00c5 0B799B9C 		.ascii	"\013y\233\234\3744i\001\210\341\034\231\004\351 )>("
 327      FC346901 
 327      88E11C99 
 327      04E92029 
 327      3E28
 328 00d7 0A311D06 		.ascii	"\0121\035\006\251L\343,\3152\252Adr\345\2530\361\273"
 328      A94CE32C 
 328      CD32AA41 
 328      6472E5AB 
 328      30F1BB
 329 00ea FAA634C5 		.ascii	"\372\2464\305\233\270\030\316\323\333\234\270\021\236"
 329      9BB818CE 
 329      D3DB9CB8 
 329      119E
 330 00f8 209779E0 		.ascii	" \227y\340*\031!x\205w\304L\277\245\0002\302\266\260"
 330      2A192178 
 330      8577C44C 
 330      BFA50032 
 330      C2B6B0
 331 010b DC35EF5F 		.ascii	"\3345\357_\273\367\355*\336\012LT\277\336\375\365\202"
 331      BBF7ED2A 
 331      DE0A4C54 
 331      BFDEFDF5 
 331      82
 332 011c 2BD104FA 		.ascii	"+\321\004\372z\341\240\205\376\333p\213\270\273\022"
 332      7AE1A085 
 332      FEDB708B 
 332      B8BB12
 333 012b A8498D0E 		.ascii	"\250I\215\016\007;\204\336++P\230,\204<J\033\261$\312"
 333      073B84DE 
 333      2B2B5098 
 333      2C843C4A 
 333      1BB124CA 
 334 013f 8F4A70F9 		.ascii	"\217Jp\371#\252\253^x,h\364m\243G\012\000\357\241\370"
 334      23AAAB5E 
 334      782C68F4 
 334      6DA3470A 
 334      00EFA1F8 
 335 0153 3D1F6C4A 		.ascii	"=\037lJJ\024oM\354 \035\327;9\311\327\013?\026z<\240"
 335      4A146F4D 
 335      EC201DD7 
 335      3B39C9D7 
 335      0B3F167A 
 336 0169 7F0CAE52 		.ascii	"\177\014\256RN]\247{\304\332\375o+\334\220r\336\374"
 336      4E5DA77B 
 336      C4DAFD6F 
 336      2BDC9072 
 336      DEFC
 337 017b 70E99B97 		.ascii	"p\351\233\227QU\016\257\020\345\237+\225n\346e\331P"
 337      51550EAF 
 337      10E59F2B 
 337      956EE665 
 337      D950
 338 018d C4040694 		.ascii	"\304\004\006\224\205\354\212\010\325\215L\362Bt\221"
 338      85EC8A08 
 338      D58D4CF2 
ARM GAS  /tmp/ccGp8fg9.s 			page 26


 338      427491
 339 019c 9DEBA3B9 		.ascii	"\235\353\243\271>\016\263\244\322/\215f\346\247\016"
 339      3E0EB3A4 
 339      D22F8D66 
 339      E6A70E
 340 01ab C7F0B913 		.ascii	"\307\360\271\023l\320\311\355\0067@\262\222\013.\227"
 340      6CD0C9ED 
 340      063740B2 
 340      920B2E97 
 341 01bb 6FE62E3F 		.ascii	"o\346.?\353PL\367uGw\346K>\016}\245\266w\023\375\332"
 341      EB504CF7 
 341      754777E6 
 341      4B3E0E7D 
 341      A5B67713 
 342 01d1 16EB60AB 		.ascii	"\026\353`\253\265\326B\367\003|\200\353\265z\351\363"
 342      B5D642F7 
 342      037C80EB 
 342      B57AE9F3 
 343 01e1 3EAFD5C6 		.ascii	">\257\325\306\240.&%/h s\213\346\204\336\011\324\305"
 343      A02E2625 
 343      2F682073 
 343      8BE684DE 
 343      09D4C5
 344 01f4 7BBC1269 		.ascii	"{\274\022i\377\321\2611\\\240\215\323\241\320\322\241"
 344      FFD1B131 
 344      5CA08DD3 
 344      A1D0D2A1 
 345 0204 317C8421 		.ascii	"1|\204!\245\367\011\362\265\372\313h\223\014\352\363"
 345      A5F709F2 
 345      B5FACB68 
 345      930CEAF3 
 346 0214 406922B1 		.ascii	"@i\"\261\307\365d&e\352F&>\252\307\315\313\272\221\264"
 346      C7F56426 
 346      65EA4626 
 346      3EAAC7CD 
 346      CBBA91B4 
 347 0228 86AC4C56 		.ascii	"\206\254LV\317\331#\351\213:m\354\234n\245\215K#q\002"
 347      CFD923E9 
 347      8B3A6DEC 
 347      9C6EA58D 
 347      4B237102 
 348 023c 25B34632 		.ascii	"%\263F2\036I\002\313\015\353;\340emCr\314T\304\200\376"
 348      1E4902CB 
 348      0DEB3BE0 
 348      656D4372 
 348      CC54C480 
 349 0251 EDF0E695 		.ascii	"\355\360\346\225\234~r z:\272a\227\261\315\013F\352"
 349      9C7E7220 
 349      7A3ABA61 
 349      97B1CD0B 
 349      46EA
 350 0263 D448DA20 		.ascii	"\324H\332 \317\256\201\350\231\360P,k\016\333\326\241"
 350      CFAE81E8 
 350      99F0502C 
 350      6B0EDBD6 
 350      A1
 351 0274 F08123C0 		.ascii	"\360\201#\300lhO\231\251\214=\012\177\001\337\322\025"
ARM GAS  /tmp/ccGp8fg9.s 			page 27


 351      6C684F99 
 351      A98C3D0A 
 351      7F01DFD2 
 351      15
 352 0285 C8       		.ascii	"\310"
 353              		.text
 354              		.section	.gnu.lto_chSemSignalI.98ce37eee27d8eb2,"",%progbits
 355 0000 789C8551 		.ascii	"x\234\205Q;K\2031\024='I\241\212\026\177\2018\373\201"
 355      3B4B8331 
 355      143D2749 
 355      A18A167F 
 355      8138FB81 
 356 0014 C1C9D1CD 		.ascii	"\301\311\321\315_\320\202\216\366ki\203\324B[\005qh"
 356      5FD0828E 
 356      F66B6983 
 356      D4425B05 
 356      7168
 357 0026 FA18BA59 		.ascii	"\372\030\272Yp\3611\27188\324\277\340\250C}l\322\251"
 357      70F131B9 
 357      3838D4BF 
 357      E0A8437D 
 357      6CD2A9
 358 0039 3838BB15 		.ascii	"88\273\025D\250I\332\012\272x \367&\271\347\234\334"
 358      44A849DA 
 358      0ABA7820 
 358      F726B9E7 
 358      9CDC
 359 004b 2402027F 		.ascii	"$\002\002\177\261\356\306\026'\231\011Pt\037\201FR\010"
 359      B1EEC616 
 359      27990950 
 359      741F8146 
 359      5208
 360 005d 394AC1CE 		.ascii	"9J\301\316\253\363M\330\005I\345\267\251H\237A\324\205"
 360      ABF34DD8 
 360      0549E5B7 
 360      A9489F41 
 360      D485
 361 006f 54ACEF30 		.ascii	"T\254\3570x\334\212\273\341x\334\3738\275\376\342\253"
 361      78DC8ABB 
 361      E178DCFB 
 361      38BDFEE2 
 361      AB
 362 0080 98132C11 		.ascii	"\230\023,\021\022\206P>8$\320\266\266\273\002\304a\231"
 362      1286503E 
 362      3824D0B6 
 362      B6BB02C4 
 362      6199
 363 0092 76D1FB64 		.ascii	"v\321\373d(|\226}4\007go\003\356\362\312\265P\240\214"
 363      287C967D 
 363      3407676F 
 363      03EEF2CA 
 363      B550A08C 
 364 00a6 B06AC84B 		.ascii	"\260j\310K\\\320P\024(\266]\226\341\250,g\215\367\321"
 364      5CD05014 
 364      28B65D96 
 364      E1A82C67 
 364      8DF7D1
ARM GAS  /tmp/ccGp8fg9.s 			page 28


 365 00b9 EAB49667 		.ascii	"\352\264\226g\022\345T\236E\206R\363\341y\352\026\341"
 365      12E5549E 
 365      458652F3 
 365      E179EA16 
 365      E1
 366 00ca C63A6CFC 		.ascii	"\306:l\374\343\347\034\200{\264\337\033\213?\226\236"
 366      E3E71C80 
 366      7BB4DF1B 
 366      8B3F969E 
 367 00da F5EBAD32 		.ascii	"\365\353\2552N4J\311'\264\223\023\022p\214O\333\261"
 367      4E344AC9 
 367      27B49313 
 367      12708C4F 
 367      DBB1
 368 00ec 4B862A26 		.ascii	"K\206*&\247N\302\204R\020\250p\301\0274\206'\321L3A"
 368      A74EC284 
 368      5210A870 
 368      C1173486 
 368      27D14C33 
 369 0101 DAF15DCD 		.ascii	"\332\361]\315\377\210\326\305r)\257\343r\356H\347\362"
 369      FF88D6C5 
 369      7229AFE3 
 369      72EE48E7 
 369      F2
 370 0112 873A2E9A 		.ascii	"\207:.\232\254)Wu\255r\260\277\247\335\244R\323\325"
 370      AC295775 
 370      AD72B0BF 
 370      A7DDA452 
 370      D3D5
 371 0124 4AECF6AB 		.ascii	"J\354\366\253\371\322Z\214oDgZC"
 371      F9D25A8C 
 371      6F44675A 
 371      43
 372              		.text
 373              		.section	.gnu.lto_chSemAddCounterI.98ce37eee27d8eb2,"",%progbits
 374 0000 789C8D53 		.ascii	"x\234\215S\315k\023Q\020\237yo\277\272&4\301z\360\""
 374      CD6B1351 
 374      109F796F 
 374      BFBA2634 
 374      C17AF022 
 375 0014 C5638359 		.ascii	"\305c\203Y\012\202\007\377\215\024\365\230lb\262h\032"
 375      0A8207FF 
 375      8D14F598 
 375      6C62B268 
 375      1A
 376 0025 4952418B 		.ascii	"IRA\213d\323\344\320C\016\301\213\237\207\326\034\224"
 376      64D3E4D0 
 376      430EC18B 
 376      9F87D61C 
 376      94
 377 0036 2A516F7A 		.ascii	"*QozKi\325\326P\213 \212\322C\274\364`\017\306\233\004"
 377      4B69D5D6 
 377      508B208A 
 377      D243BCF4 
 377      600FC69B 
 378 004b 25CEDB0F 		.ascii	"%\316\333\017\363\201`\007v\346\355{\363\233\337\274"
 378      F3816007 
ARM GAS  /tmp/ccGp8fg9.s 			page 29


 378      76E6ED7B 
 378      F39BDFBC 
 379 005b 99790C18 		.ascii	"\231y\014\030\214\3139\372>p\000\213,j\200\254\376\016"
 379      8CCB39FA 
 379      3E70008B 
 379      2C6A80AC 
 379      FE0E
 380 006d A0AC3154 		.ascii	"\240\2541T\334\005g\322\212\016\266.w7\000\354\200\204"
 380      DC0567D2 
 380      8A0EB62E 
 380      773700EC 
 380      8084
 381 007f B2BB2FBB 		.ascii	"\262\273/\273\016\353\232\302x\355\015\035\351jU%\007"
 381      0EEB9AC2 
 381      78ED0D1D 
 381      E96A5525 
 381      07
 382 0090 1551EC03 		.ascii	"\025Q\354\003B\211qIVT,]@A\204'a\325\266ov^=\250\235"
 382      42897149 
 382      56542C5D 
 382      40418427 
 382      61D5B66F 
 383 00a9 B863B7AA 		.ascii	"\270c\267\252+\366\257~\037\321BJ\352\014\202\211p\236"
 383      2BF6AF7E 
 383      1FD1424A 
 383      EA0C8289 
 383      709E
 384 00bb 7E70DA31 		.ascii	"~p\3321L\032\315\362)ku\372\375\346\356\301\333\327"
 384      4C1ACDF2 
 384      296B75FA 
 384      FDE6EEC1 
 384      DBD7
 385 00cd D88E4C21 		.ascii	"\330\216L!d\021$$\245\220B\025,\344\232P:))H\012&\205"
 385      64112424 
 385      A5904215 
 385      2CE49A50 
 385      3A292948 
 386 00e4 4B08E2B8 		.ascii	"K\010\342\270J\304a\261C\"C\325\266\353\323 \330Hb\244"
 386      4AC461B1 
 386      432243D5 
 386      B6EBD320 
 386      D84862A4 
 387 00f8 29E91832 		.ascii	")\351\03022|\0169\320M\370\016,}\371\371\375\033\306"
 387      327C0E39 
 387      D04DF80E 
 387      2C7DF9F9 
 387      FD1BC6
 388 010b B18132A4 		.ascii	"\261\2012\244Q\215\300\214\205\362=\270K\211)iTD\202"
 388      518DC08C 
 388      85F23DB8 
 388      4B892969 
 388      544482
 389 011e AA935602 		.ascii	"\252\223V\002\375\004w\240\262\\\271\350C4B\011/\031"
 389      FD0477A0 
 389      B25CB9E8 
 389      43344209 
 389      2F19
ARM GAS  /tmp/ccGp8fg9.s 			page 30


 390 0130 9DA3A5ED 		.ascii	"\235\243\245\355\272\342\036E`\315&9\373\237x\024\001"
 390      BAE21E45 
 390      60CD2639 
 390      FB9F7814 
 390      01
 391 0141 600BAAFB 		.ascii	"`\013\252\373\345\331\277!\205\027\037\256\311\034J"
 391      E5D9BF21 
 391      85171FAE 
 391      C91C4A
 392 0150 B03621D2 		.ascii	"\2606!\322\355U\032\315\031\337Q_\204\353T\004\217\351"
 392      ED551ACD 
 392      19DF515F 
 392      84EB5404 
 392      8FE9
 393 0162 39A1B47F 		.ascii	"9\241\264\177S\341 \224\270\362\336\243\315\257\334"
 393      53E12094 
 393      B8F2DEA3 
 393      CDAFDC
 394 0171 2B905B35 		.ascii	"+\220[5\277^\255\203\215\275)\232\034\227\301t\201i"
 394      BF5EAD83 
 394      8DBD299A 
 394      1C97C174 
 394      8169
 395 0183 0CB914A2 		.ascii	"\014\271\024\242\241Q*/\221\224m;d\211\313;<\222\307"
 395      A1512A2F 
 395      91946D3B 
 395      6489CB3B 
 395      3C92C7
 396 0196 E3209F10 		.ascii	"\343 \237\020\322#\272\335\250\235\212\343c'\331\260"
 396      D223BADD 
 396      A89D8AE3 
 396      6327D9B0 
 397 01a6 53DB0176 		.ascii	"S\333\001v\202\302\012,xX>\212\335~\246\273H\357v\263"
 397      82C20A2C 
 397      78583E8A 
 397      DD7EA6BB 
 397      48EF76B3 
 398 01ba 87E3251E 		.ascii	"\207\343%\036\007\336\356\036\035\201\337\030\243\016"
 398      07DEEE1E 
 398      1D81DF18 
 398      A30E
 399 01c8 0F534B43 		.ascii	"\017SKCp\035`\027\252\335^\375\3261\277\314\301E\350"
 399      701D6017 
 399      AADD5EFD 
 399      D631BFCC 
 399      C145E8
 400 01db D9CB02A8 		.ascii	"\331\313\002\250\233\310\274\256\321\337\021\207\351"
 400      9BC8BCAE 
 400      D1DF1187 
 400      E9
 401 01e8 453D31D2 		.ascii	"E=1\322\360\037\0248\340\255?\321:\350\266\2048\203"
 401      F01F1438 
 401      E0AD3FD1 
 401      3AE8B684 
 401      3883
 402 01fa C39CB267 		.ascii	"\303\234\262g\025\307\212\223\300\240\333\2627\2354"
 402      15C78A93 
ARM GAS  /tmp/ccGp8fg9.s 			page 31


 402      C0A0DBB2 
 402      379D34
 403 0209 680F9B8A 		.ascii	"h\017\233\212\237\307d\032\321\031\265\276/X\362\021"
 403      9FC7641A 
 403      D119B5BE 
 403      2F58F211 
 404 0219 0AD053E4 		.ascii	"\012\320S\344[\260\271\277\376\373c\300G\340\330$}\006"
 404      5BB0B9BF 
 404      FEFB63C0 
 404      47E0D824 
 404      7D06
 405 022b 4CA3C448 		.ascii	"L\243\304HM\312\367_\036\027@U\274\207\367P\356\264"
 405      4DCAF75F 
 405      1E174055 
 405      BC87F750 
 405      EEB4
 406 023d 232ECA97 		.ascii	"#.\312\227\0305\277\252\212\353\23662\271l\3120s\311"
 406      1835BFAA 
 406      8AEB9E36 
 406      32B96CCA 
 406      3073C9
 407 0250 6B463275 		.ascii	"kF2u\32503V\302\312\025\214b~a\376\222A\213|\321\260"
 407      D5303356 
 407      C2CA158C 
 407      627E61FE 
 407      92418B7C 
 408 0266 E6CDCB0B 		.ascii	"\346\315\313\013Ir\312\024\314L2\232\001V\274b\034\002"
 408      4972CA14 
 408      CC4C329A 
 408      0156BC62 
 408      1C02
 409 0278 57C89B02 		.ascii	"W\310\233\002\223\312FM\370\003\257\253\016\234"
 409      93CA464D 
 409      F803AFAB 
 409      0E9C
 410              		.text
 411              		.section	.gnu.lto_chSemSignalWait.98ce37eee27d8eb2,"",%progbits
 412 0000 789C9555 		.ascii	"x\234\225Umh[e\024>\347~%\275m\232\326T\355\350\307"
 412      6D685B65 
 412      143EE77E 
 412      25BD6D9A 
 412      D654EDE8 
 413 0015 C24091CD 		.ascii	"\302@\221\315-*\"\210\216\015\004\301\037\373c\335T"
 413      2D2A2288 
 413      8E0D04C1 
 413      1FFB63DD 
 413      54
 414 0026 F643D2DB 		.ascii	"\366C\322\333\220^4MIR\261\016\351m\023a`\301\372\361"
 414      905E344D 
 414      4952B10E 
 414      E96D1361 
 414      60C1FAF1 
 415 003a 232ACE76 		.ascii	"#*\316ve\210\323\331\241S\372g,\270\216n\226\256\033"
 415      6588D3D9 
 415      A153FA67 
 415      2CB88E6E 
 415      96AE1B
ARM GAS  /tmp/ccGp8fg9.s 			page 32


 416 004d 53D45130 		.ascii	"S\324Q02&\250\1772A,U\026\317\373qo>\354L\275\220\367"
 416      3226A87F 
 416      32412C55 
 416      16CFFB71 
 416      6F3EEC4C 
 417 0064 7DEF7BCF 		.ascii	"}\357{\317s\236\363\236\363\234\274\012(P\377\034\240"
 417      739EF39E 
 417      F39CBC0A 
 417      2850FF1C 
 417      A0
 418 0075 DF841FE0 		.ascii	"\337\204\037\340\"\315\350\007T\246h5\356W\024u\332"
 418      22CDE807 
 418      54A66835 
 418      EE571475 
 418      DA
 419 0086 04C7D44A 		.ascii	"\004\307\324Jg\001\234\026\0255\261\257)\372Z+\355\033"
 419      67019C16 
 419      1535B1AF 
 419      29FA5A2B 
 419      ED1B
 420 0098 F93DB4AD 		.ascii	"\371=\264\255\243Ol\033\356\302\2078\305]\301\230\242"
 420      A34F6C1B 
 420      EEC28738 
 420      C55DC198 
 420      A2
 421 00a9 6ABAE1C3 		.ascii	"j\272\341\303\261g\221\361\250\333`\306q\246\212\327"
 421      B16791F1 
 421      A8DB60C6 
 421      71A68AD7 
 422 00b9 D7BFC677 		.ascii	"\327\277\306w\234Bn\332\371\273\\F\264\221bz\000\301"
 422      9C426EDA 
 422      F9BB5C46 
 422      B491627A 
 422      00C1
 423 00cb 4278865E 		.ascii	"Bx\206^0\314'E\253\015\222c\337,\274u\365\365-\316\364"
 423      30CC2745 
 423      AB0D9263 
 423      DF2CBC75 
 423      F5F52DCE 
 424 00e0 C4947393 		.ascii	"\304\224s\223\2406\252\012<\2649d\361\217\217\026~\302"
 424      A036AA0A 
 424      3CB43964 
 424      F18F8F16 
 424      7EC2
 425 00f2 37B2CE79 		.ascii	"7\262\316y'W \354V\016N6\002\317)\205b\271\374\3517"
 425      275720EC 
 425      560E4E36 
 425      02CF2985 
 425      62B9FCE9 
 426 0107 DF9D5EC5 		.ascii	"\337\235^\305_\224\273\021\2428\203\333\300\300\004"
 426      5F94BB11 
 426      A23883DB 
 426      C0C004
 427 0116 820F6CD4 		.ascii	"\202\017l\324\374l0i\320\0034\250A\372\200ml\257\235"
 427      FC6C3069 
 427      D00334A8 
 427      41FA806D 
ARM GAS  /tmp/ccGp8fg9.s 			page 33


 427      6CAF9D
 428 0129 0D21B29F 		.ascii	"\015!\262\237%\373\016f\320)\301]4\037\243\271\233\001"
 428      25FB0E66 
 428      D029C15D 
 428      341FA3B9 
 428      9B01
 429 013b 7AD84044 		.ascii	"z\330@D:\344(7aa\001,*z\236\242\221\345r?*lV/\302\304"
 429      3AE42837 
 429      6161012C 
 429      2A7A9EA2 
 429      91E5723F 
 430 0155 8D5FCF7E 		.ascii	"\215_\317~6\251Jk O\037\242\016<\333\010\237\223'*\257"
 430      36A94A6B 
 430      204F1FA2 
 430      0E3CDB08 
 430      9F93272A 
 431 016a 2A6ADC0B 		.ascii	"*j\334\013\013\370\276\223\337k\243\301^\331\351|a^"
 431      0BF8BE93 
 431      DF6BA3C1 
 431      5ED9E97C 
 431      615E
 432 017c 07F7FBA2 		.ascii	"\007\367\373\242\374\356\027g]\206\211\253\253ks\335"
 432      FCEE1767 
 432      5D8689AB 
 432      AB6B73DD 
 433 018c C2671C7D 		.ascii	"\302g\034};`\273\215M\357\301\273\0045\343h0\027\315"
 433      3B60BB8D 
 433      4DEFC1BB 
 433      0435E368 
 433      3017CD
 434 019f DCB41FDD 		.ascii	"\334\264\037\335\004-C\366p\266\327\205\370\011\305"
 434      042D43F6 
 434      70B6D785 
 434      F809C5
 435 01ae AC9A50F8 		.ascii	"\254\232P\370\273p\011\305\247\035p\334\241\347\341"
 435      BB7009C5 
 435      A71D70DC 
 435      A1E7E1
 436 01bd 06FEE22C 		.ascii	"\006\376\342,\226\363\220\373y<\340\271dV5U\331O\307"
 436      96F390FB 
 436      793CE0B9 
 436      64563555 
 436      D94FC7
 437 01d0 9C365572 		.ascii	"\2346Ur\277\236-\317\335\343\032\232\207\340e\312\262"
 437      BF9E2DCF 
 437      DDE31A9A 
 437      87E065CA 
 437      B2
 438 01e1 64FA8050 		.ascii	"d\372\200P-\033Sa\305\025?\362\221s\371G\275\364\037"
 438      2D1B5361 
 438      C5153FF2 
 438      9173F947 
 438      BDF41F
 439 01f4 E3E917AF 		.ascii	"\343\351\027\257\205\245\362\253\272\233cK\340\342\330"
 439      85A5F2AB 
 439      BA9B634B 
 439      E0E2D8
ARM GAS  /tmp/ccGp8fg9.s 			page 34


 440 0203 251884A0 		.ascii	"%\030\204\240\024\252\036\261\214;N\033\361I\"]\022"
 440      14AA1EB1 
 440      8C3B4E1B 
 440      F149225D 
 440      12
 441 0214 290CFBA5 		.ascii	")\014\373\245xeL\371\331\311\235Q\374\202G\333\315\223"
 441      78654CF9 
 441      D9C99D51 
 441      FC8247DB 
 441      CD93
 442 0226 5BC106C8 		.ascii	"[\301\006\3101\303\252\022\253\326b/\2344\005R\036\357"
 442      31C3AA12 
 442      ABD6622F 
 442      9C340552 
 442      1EEF
 443 0238 FECDF112 		.ascii	"\376\315\361\022\017\207/\225B5\360W\352\250\273\253"
 443      0F872F95 
 443      4235F057 
 443      EAA8BBAB 
 444 0248 A9B52AB8 		.ascii	"\251\265*\270\011\260\002\271\322\357gf\320\315s\340"
 444      09B002B9 
 444      D2EF6766 
 444      D0CD73E0 
 445 0258 10AC3B87 		.ascii	"\020\254;\207\031\260\325BE\226\255\313\306 g\232/m"
 445      19B0D542 
 445      4596ADCB 
 445      C620679A 
 445      2F6D
 446 026a ADA9F88F 		.ascii	"\255\251\370\217\254\277\345\372[Z\267\211\232\020g"
 446      ACBFE5FA 
 446      5B5AB789 
 446      9A1067
 447 0279 A09AD30D 		.ascii	"\240\232\323\015\235K\225k\265\252\334\032\027?\317"
 447      9D4B956B 
 447      B5AADC1A 
 447      173FCF
 448 0288 E0D16B5E 		.ascii	"\340\321k^\034mu\362\0146\226g;\241\270<\313\356\203"
 448      1C6D75F2 
 448      0C369667 
 448      3BA1B83C 
 448      CBEE83
 449 029b 638D75BA 		.ascii	"c\215u\272\201cr\305t\272p\275\242\323\366\015t\252"
 449      816372C5 
 449      74BA70BD 
 449      A2D3F60D 
 449      74AA
 450 02ad C35A2B8F 		.ascii	"\303Z+\217{\376\350_\350Il\226K\314\353\3348\206$\353"
 450      7BFEE85F 
 450      E8496C96 
 450      4BCCEBDC 
 450      388624EB 
 451 02c1 41CA073F 		.ascii	"A\312\007?T\273W\233\333\274d\207\022<\331\214%$c\361"
 451      54BB579B 
 451      DBBC6487 
 451      123CD98C 
 451      252463F1 
 452 02d5 C9D95F51 		.ascii	"\311\331_Q\363z\366\343Sz\024\027yH\035nGl\257\356\205"
ARM GAS  /tmp/ccGp8fg9.s 			page 35


 452      F37AF6E3 
 452      537A1417 
 452      79481D6E 
 452      476CAFEE 
 453 02ea E0AD7B61 		.ascii	"\340\255{ai\365\310\315?+\177.\262\013^;w\200\205\273"
 453      69F5C8CD 
 453      3F2B7F2E 
 453      B20B5E3B 
 453      778085BB 
 454 02fe C89B8017 		.ascii	"\310\233\200\027\314\355\200\033g\214:!\205\376\245"
 454      CCED801B 
 454      678C3A21 
 454      85FEA5
 455 030d E14B4248 		.ascii	"\341KBH\035\242\005\346\313\327\224(\256\360\360z\352"
 455      1DA205E6 
 455      CBD79428 
 455      AEF0F07A 
 455      EA
 456 031e 5AA045C6 		.ascii	"Z\240E\306\346j\241\311\203\213\032\225|\002)\263\025"
 456      E66AA1C9 
 456      838B1A95 
 456      7C0229B3 
 456      15
 457 032f F82F6AAD 		.ascii	"\370/j\255\212\272G\234\355\373\362oZ\215\203\321\315"
 457      8ABA479C 
 457      EDFBF26F 
 457      5A8D83D1 
 457      CD
 458 0340 91C759BE 		.ascii	"\221\307Y\2769\177s\015|w\035\177\317\255\216\036\222"
 458      397F730D 
 458      7C771D7F 
 458      CFAD8E1E 
 458      92
 459 0351 B9FDE4D4 		.ascii	"\271\375\344\324N\221E\351\340\021\033;*\355\\i\214"
 459      4E9145E9 
 459      E0111B3B 
 459      2AED5C69 
 459      8C
 460 0362 D0468D61 		.ascii	"\320F\215aJ\335\005yC\026'\227M\341\013\300S\310\355"
 460      4ADD0579 
 460      43162797 
 460      4DE10BC0 
 460      53C8ED
 461 0375 96D41FC3 		.ascii	"\226\324\037\303\337\241\323\305r\247L\372\354\022\272"
 461      DFA1D3C5 
 461      72A74CFA 
 461      EC12BA
 462 0384 9AE8948C 		.ascii	"\232\350\224\214OW\332rwCr\243F\325\006\344\367\250"
 462      4F57DA72 
 462      774372A3 
 462      46D506E4 
 462      F7A8
 463 0396 2B902DE6 		.ascii	"+\220-\346O4\273*\366\202\350\264$\312\306-.\300\367"
 463      4F34BB2A 
 463      F682E8B4 
 463      24CAC62D 
 463      2EC0F7
ARM GAS  /tmp/ccGp8fg9.s 			page 36


 464 03a9 3F2EAF28 		.ascii	"?.\257(\036\247\005\277\2548Z^VQ<\201\275\302\337e\030"
 464      1EA705BF 
 464      AC385A5E 
 464      56513C81 
 464      BDC2DF65 
 465 03be 3FF9D515 		.ascii	"?\371\325\025\357o\200+\370\007@:\232\276z9&\377:\214"
 465      EF6F802B 
 465      F807403A 
 465      9ABE7A39 
 465      26FF3A8C 
 466 03d2 B7AF20BB 		.ascii	"\267\257 \273?\221Q3\017\221\310`2\021\213X\311\201"
 466      3F915133 
 466      0F91C860 
 466      32118B58 
 466      C981
 467 03e4 D1C840EC 		.ascii	"\321\310@\354\305\2105h\367\333\311t$\223\032\031z>"
 467      C5883568 
 467      F7DBC974 
 467      24931A19 
 467      7A3E
 468 03f6 428B5426 		.ascii	"B\213T&\222NY\264\237\216%vY\240&\322q\325\312\014?"
 468      924E59B4 
 468      9F8E2576 
 468      59A026D2 
 468      71D5CA0C 
 469 040b B8099C3D 		.ascii	"\270\011\234=d\27502\020cXkp`\327 (\231\341\275\215"
 469      64BD3032 
 469      1063586B 
 469      7060D720 
 469      2899E1BD 
 470 0420 70B19732 		.ascii	"p\261\2272\221\307\366\365=\321W\201'S\261\347\254\304"
 470      91C7F6F5 
 470      3DD15781 
 470      2753B1E7 
 470      ACC4
 471 0432 E3234316 		.ascii	"\343#C\026\371h\333\327\367d\270?\232\216\015\247\354"
 471      F968DBD7 
 471      F764B83F 
 471      9A8E0DA7 
 471      EC
 472 0443 7BC377DD 		.ascii	"{\303w\335\007J\012|\211X\"\231\032\205\177\000\351"
 472      074A0A7C 
 472      89582299 
 472      1A857F00 
 472      E9
 473 0454 7636D1   		.ascii	"v6\321"
 474              		.text
 475              		.section	.gnu.lto_.symbol_nodes.98ce37eee27d8eb2,"",%progbits
 476 0000 789C4DCD 		.ascii	"x\234M\315;N\003A\020\004\320\252n\326\177\257\275&"
 476      3B4E0341 
 476      1004D0AA 
 476      6ED67FAF 
 476      BD26
 477 0012 2041E200 		.ascii	" A\342\000\370\216\265\002a\021 \304\005L`n\202\205"
 477      F88EB502 
 477      611120C4 
 477      054C606E 
ARM GAS  /tmp/ccGp8fg9.s 			page 37


 477      8285
 478 0024 439F0130 		.ascii	"C\237\0010\177V\230\217\020\221\201\201E\354tRzS\255"
 478      7F56988F 
 478      10918181 
 478      45EC7452 
 478      7A53AD
 479 0037 1E83614C 		.ascii	"\036\203aL\224c\271\0118\232\003\322x\237\311k(\004"
 479      9463B909 
 479      389A03D2 
 479      789FC96B 
 479      2804
 480 0049 DB33B17A 		.ascii	"\3333\261z\265\003\223E\274\244\374\217\307\201W\324"
 480      B5039345 
 480      BCA4FC8F 
 480      C78157D4 
 481 0059 5AC40595 		.ascii	"Z\304\005\225D\274\246j\021o\250z\304;\252\021\361\226"
 481      44BCA66A 
 481      116FA87A 
 481      C43BAA11 
 481      F196
 482 006b 6A46BCA7 		.ascii	"jF\274\247Z\021\037\250v\304G\252\023\261\240\272\025"
 482      5A111FA8 
 482      76C447AA 
 482      13B1A0BA 
 482      15
 483 007c F946A525 		.ascii	"\371F\245%\363\234|\247z\225\236\251~\245'*\253\364"
 483      F39C7CA7 
 483      7A959EA9 
 483      7EA5272A 
 483      ABF4
 484 008e 410DFEE5 		.ascii	"A\015\376\345\350awTl\271\365\313\364\014\323\213Oz"
 484      E8617754 
 484      6CB9F5CB 
 484      F40CD38B 
 484      4F7A
 485 00a0 9261B15A 		.ascii	"\222a\261Zn{-\301\344<\2706\300\364'\353\300d\265\341"
 485      6E7B2DC1 
 485      E43CB836 
 485      C0F427EB 
 485      C064B5E1 
 486 00b4 0D602744 		.ascii	"\015`'D\323p\3722\364V\263\\j\257c:\3732\357\370o\333"
 486      D370FA32 
 486      F456B35C 
 486      6AAF633A 
 486      FB32EFF8 
 487 00ca CD70325A 		.ascii	"\315p2Z\016=\0157gg\346i\370k\036\3524\334:,6\361\015"
 487      0E3D0D37 
 487      6767E669 
 487      F86B1EEA 
 487      34DC3A2C 
 488 00e1 AF5E8186 		.ascii	"\257^\201\206"
 489              		.text
 490              		.section	.gnu.lto_.refs.98ce37eee27d8eb2,"",%progbits
 491 0000 789C6362 		.ascii	"x\234cb`b\340g\200\000&\006\006F\006FF& \346\003\262"
 491      6062E067 
 491      80002606 
 491      06460646 
ARM GAS  /tmp/ccGp8fg9.s 			page 38


 491      462620E6 
 492 0016 00026E00 		.ascii	"\000\002n\000,"
 492      2C
 493              		.text
 494              		.section	.gnu.lto_.decls.98ce37eee27d8eb2,"",%progbits
 495 0000 789CBD5C 		.ascii	"x\234\275\\yp\324V\232\227\324\355n\033\233k2\223e\266"
 495      7970D456 
 495      9A97D4ED 
 495      6E1B9B6B 
 495      329365B6 
 496 0014 B62ACED6 		.ascii	"\266*\316\326\314V*S\211\271&\201\255\332\300\024S\033"
 496      CC562A53 
 496      89B92681 
 496      ADDAC014 
 496      531B
 497 0026 52BBB39B 		.ascii	"R\273\263\233\012\223Mv\377\351\210\266\260{\342>\242"
 497      0A934D76 
 497      FFE988B6 
 497      B07BE23E 
 497      A2
 498 0037 9639AA66 		.ascii	"\2269\252fkds\205#\304\330@\300\\v\202\007\310\311}"
 498      6B647385 
 498      23C4D840 
 498      C05C7682 
 498      07C8C97D 
 499 004b 0C873B04 		.ascii	"\014\207;\004l0\030\203\215\315a \206\304\201d\023\226"
 499      6C301883 
 499      8DCD6120 
 499      86C48164 
 499      1396
 500 005d 9B211CBD 		.ascii	"\233!\034\275\337{z\352~z-\251%Of\273x:\337\367{\277"
 500      DF7B7AEA 
 500      7E7A2DA9 
 500      254F66BB 
 500      783ADFF7 
 501 0073 EF789FA4 		.ascii	"\357x\237\244O2\002'p\007}\034\227\204\337\256_s\\\310"
 501      4F320227 
 501      70077D1C 
 501      9784DFAE 
 501      5F735CC8 
 502 0087 CF710339 		.ascii	"\317q\0039\216{\016\232\007Z=\264\017\240\301a\374{"
 502      8E7B0E9A 
 502      075A3DB4 
 502      0FA0C161 
 502      FC7B
 503 0099 04DA1668 		.ascii	"\004\332\026h1\236\343~\017\255\022\332<hU\320\026C"
 503      319EE37E 
 503      0FAD12DA 
 503      3C6855D0 
 503      1643
 504 00ab 5B0E6D35 		.ascii	"[\016m5\264\265\320>\204\266\011\3326h\273\240\035\200"
 504      B4B5D03E 
 504      84B609DA 
 504      3668BBA0 
 504      1D80
 505 00bd 7608DA51 		.ascii	"v\010\332Qh\355\320:\241\301?\356\014\317\031~\010\037"
 505      68EDD03A 
ARM GAS  /tmp/ccGp8fg9.s 			page 39


 505      A1C13FEE 
 505      0CCF197E 
 505      081F
 506 00cf 71688236 		.ascii	"qh\2026L\320\306\277\010}\272\241\015\207\3751\260?"
 506      4CD0C6BF 
 506      087DBAA1 
 506      0D87FD31 
 506      B03F
 507 00e1 12B69B61 		.ascii	"\022\266\233a\335\010m\007\264\355\320F\010\032\337"
 507      DD086D07 
 507      B4EDD046 
 507      081ADF
 508 00f0 26389707 		.ascii	"&8\227\007\353\013\260\276\016m\004\264\177\204\266"
 508      EB0BB0BE 
 508      0E6D04B4 
 508      7F84B6
 509 00ff 178EB542 		.ascii	"\027\216\265B\223`\273\015\326\317\360\232\216h\274"
 509      9360BB0D 
 509      D6CFF09A 
 509      8E68BC
 510 010e 9182C60F 		.ascii	"\221\202\306\017V\\\230\317\344\204\364\355\013\247"
 510      565C98CF 
 510      E484F4ED 
 510      0BA7
 511 011c E708A716 		.ascii	"\347\010\247\0268\227\353\200\223\207\214\205\370\034"
 511      3897EB80 
 511      93878C85 
 511      F81C
 512 012a 22FCA6C2 		.ascii	"\"\374\246\302z\232\011'd\377\002\302i\000\247m#n\364"
 512      7A9A0927 
 512      64FF02C2 
 512      6900A76D 
 512      236EF4
 513 013d F8CDC47F 		.ascii	"\370\315\304\177\210\333\0308\327\006kp7\036\367\000"
 513      88DB1838 
 513      D7066B70 
 513      371EF700 
 514 014d 191B8D8B 		.ascii	"\031\033\215\213\370\350\366@\270c\005\315OhH\225\031"
 514      F8E8F640 
 514      B86305CD 
 514      4F684895 
 514      19
 515 015e B79260B0 		.ascii	"\267\222`\260c!\036\245p\316K\360\221Nh\214\022bW$\367"
 515      63211EA5 
 515      70CE4BF0 
 515      914E688C 
 515      12625724 
 516 0173 CF82B63D 		.ascii	"\317\202\266=\033\266\337dpQ\034\015 \030\272>\272\275"
 516      1BB6DF64 
 516      70511C0D 
 516      2018BA3E 
 516      BABD
 517 0185 F5311A89 		.ascii	"\3651\032\211N\272.\272n\210\217\237\214\245\217\335"
 517      4EBA2EBA 
 517      6E888F9F 
 517      8CA58FDD 
 518 0195 46F4A375 		.ascii	"F\364\243uCc\374+\321\015\361x\013\326\013\030\036("
ARM GAS  /tmp/ccGp8fg9.s 			page 40


 518      4363FC2B 
 518      D10DF178 
 518      0BD60B18 
 518      1E28
 519 01a7 9611D68B 		.ascii	"\226\021\326\213\320\241\023\326/\301\372\267\320\246"
 519      D0A113D6 
 519      2FC1FAB7 
 519      D0A6
 520 01b5 C3F19761 		.ascii	"\303\361\227a\335A\372{H\337y$\236\021^5\254k\030<4"
 520      DD41FA7B 
 520      48DF7924 
 520      9E115E35 
 520      AC6B183C 
 521 01ca 2FFA711A 		.ascii	"/\372q\032\307\017\030\\\244\253\256\333\177\300\376"
 521      C70F185C 
 521      A4ABAEDB 
 521      7FC0FE
 522 01d9 564EB379 		.ascii	"VN\263y\011\341\253\317\251-\344\3702\006{9\341\372"
 522      09E1ABCF 
 522      A92DE4F8 
 522      32067B39 
 522      E1FA
 523 01eb 01C1B7C3 		.ascii	"\001\301\267\303\0238#\326J\006k5\211Q3,4\306+\000\360"
 523      133823D6 
 523      4A066B35 
 523      8951332C 
 523      34C62B00 
 524 0200 066FC443 		.ascii	"\006o\304C21\262\275\006\326\015\014\346Z\012S\367)"
 524      3231B2BD 
 524      06D60D0C 
 524      E65A0A53 
 524      F729
 525 0212 ADFFABD0 		.ascii	"\255\377\253\320\352\210\214@\372\257&x\353a\375>\203"
 525      EA888C40 
 525      FAAF2678 
 525      EB61FD3E 
 525      83
 526 0223 8772CA20 		.ascii	"\207r\312 \316\030\363z,Z\331U\217\231\377$\363\266"
 526      CE18F37A 
 526      2C5AD955 
 526      8F99FF24 
 526      F3B6
 527 0235 0BCEE570 		.ascii	"\013\316\345p\351X\241\347\201\207\214\201\342_\317"
 527      E958A1E7 
 527      81878C81 
 527      E25FCF
 528 0244 4F1B180E 		.ascii	"O\033\030\016\233H\274\2616\372/\220\371o\306>\250\357"
 528      9B48BCB1 
 528      36FA2F90 
 528      F96FC63E 
 528      A8EF
 529 0256 EFC9B12D 		.ascii	"\357\311\261-\014\3166\022\347f\272\230\361gc\236\216"
 529      0CCE3612 
 529      E766BA98 
 529      F167639E 
 529      8E
 530 0267 77ABB9BC 		.ascii	"w\253\271\274\215\232\313\210\317N\204\313\360@\271"
ARM GAS  /tmp/ccGp8fg9.s 			page 41


 530      8D9ACB88 
 530      CF4E84CB 
 530      F040B9
 531 0276 F96F191F 		.ascii	"\371o\031\0375\271\260\253\316\013qbs\"\235\223\365"
 531      35B9B0AB 
 531      CE0B7162 
 531      73229D93 
 531      F5
 532 0287 B9939F85 		.ascii	"\271\223\237\205\267\236#%\222#}\204\243\256\207\236"
 532      B79E2325 
 532      92237D84 
 532      A3AE879E 
 533 0297 ABDB898E 		.ascii	"\253\333\211\216\011X\3573\311\217y\334\233\252Z\251"
 533      0958EF33 
 533      C98F79DC 
 533      9BAA5AA9 
 534 02a7 F634A843 		.ascii	"\3664\250C\226\202^\257\362\"? \017\242\021m\024\344"
 534      96825EAF 
 534      F2223F20 
 534      0FA2116D 
 534      14E4
 535 02b9 6197FC9C 		.ascii	"a\227\374\234[\243\252U=\007\276\272\354Q\325\\\221"
 535      5BA3AA55 
 535      3D07BEBA 
 535      EC51D55C 
 535      91
 536 02ca AFE7F3C0 		.ascii	"\257\347\363\300L\377\302sOr\353U8\003\362\277`P]B\337"
 536      4CFFC273 
 536      4F72EB55 
 536      3803F2BF 
 536      60505D42 
 537 02df 99F5D12F 		.ascii	"\231\365\321/0t\003\206Vy\236\023\3715\374\223\256\201"
 537      30740386 
 537      56799E13 
 537      F935FC93 
 537      AE81
 538 02f1 36CE5D35 		.ascii	"6\316]5\012\003\255\303@{\030 \221\347\363h\206x_\357"
 538      0A03ADC3 
 538      407B1820 
 538      91E7F368 
 538      86785FEF 
 539 0305 80D0F069 		.ascii	"\200\320\360i\262\2214\352\364\203\366\305\032\251j"
 539      B29134EA 
 539      F483F6C5 
 539      1AA96A
 540 0314 DD2C75FC 		.ascii	"\335,u\374\301\264F\205\272F^\312\352\227\210\325?\300"
 540      C1B44685 
 540      BA465ECA 
 540      EA9788D5 
 540      3FC0
 541 0326 1A359B99 		.ascii	"\0325\233\231\306\021\320\235\246\375\033\371JU\205"
 541      C611D09D 
 541      A6FD1BF9 
 541      4A5585
 542 0335 131F63A8 		.ascii	"\023\037c\250\326>Cml\331\256Yy#\006\352\314\260\262"
 542      D63E436D 
 542      6CD9AE59 
ARM GAS  /tmp/ccGp8fg9.s 			page 42


 542      792306EA 
 542      CCB0B2
 543 0348 8FB1B2CF 		.ascii	"\217\261\262\317h\015\330E#\375\031\335O\361\177 G\320"
 543      680DD845 
 543      23FD19DD 
 543      4FF17F20 
 543      47D0
 544 035a 8E9FFB7F 		.ascii	"\216\237\373\177\227{\214[\245&\256\366$\2176\305\227"
 544      977B8C5B 
 544      A526AEF6 
 544      248F36C5 
 544      97
 545 036b 552566A8 		.ascii	"U%f\250\311\344\037\270G\271\305\304\022*\257h\2267"
 545      C9E41FB8 
 545      47B9C5C4 
 545      122AAF68 
 545      9637
 546 037d B3061A69 		.ascii	"\263\006\032i+\377(\336\362\340\304\001\263v.\212T\315"
 546      2BFF28DE 
 546      F2E0C401 
 546      B3762E8A 
 546      54CD
 547 038f 863FE216 		.ascii	"\206?\342\026\"\230B\312\232\257\351\362\005ik6\266"
 547      229842CA 
 547      9AAFE9F2 
 547      05696B36 
 547      B6
 548 03a0 EFD63CBC 		.ascii	"\357\326<\274\203\377\021\240|&\030\255\231\015E\340"
 548      83FF11A0 
 548      7C2618AD 
 548      990D45E0 
 549 03b0 DAB0C42E 		.ascii	"\332\260\304.\220\326\3440\256\232\350\256\347\013\265"
 549      90D6E430 
 549      AE9AE8AE 
 549      E70BB5
 550 03bf C39C01D0 		.ascii	"\303\234\001\320\360{\234\253C}\317\365\346\251\325"
 550      F07B9CAB 
 550      437DCFF5 
 550      E6A9D5
 551 03ce 0526438D 		.ascii	"\005&C\215\325\207\312M\023\276\261\344\350B~\006\216"
 551      D587CA4D 
 551      13BEB1E4 
 551      E8427E06 
 551      8E
 552 03df A4464CB9 		.ascii	"\244FL\271\332cJ\271n\254\025\220\300\275\213E\3661"
 552      DA634AB9 
 552      6EAC1590 
 552      C0BD8B45 
 552      F631
 553 03f1 9C7B4E76 		.ascii	"\234{Nv\237\250\340+0\364>\007\304+\023\235\263V\376"
 553      9FA8E02B 
 553      30F43E07 
 553      C42B139D 
 553      B356FE
 554 0404 54ADDBC7 		.ascii	"T\255\333\307g3|\235W\037\377\327iE\256/\331\317c\313"
 554      67337C9D 
 554      571FFFD7 
ARM GAS  /tmp/ccGp8fg9.s 			page 43


 554      6945AE2F 
 554      D9CF63CB 
 555 0418 3763352E 		.ascii	"7c5.\233\253a\015#p\327\260HK\206\032\313\317\353j\264"
 555      9BAB610D 
 555      2370D7B0 
 555      484B861A 
 555      CBCFEB6A 
 556 042d 3852E31E 		.ascii	"8R\343\036QC\344\233@\025\201\273\227\3025\013<\262"
 556      5143E49B 
 556      401581BB 
 556      97C2350B 
 556      3CB2
 557 043f A9FD4807 		.ascii	"\251\375H\007#\336\303\246\202*Q\007\253\364\272\005"
 557      23DEC3A6 
 557      822A5107 
 557      ABF4BA05 
 558 044f 2B3480D5 		.ascii	"+4\200\3254\257\300\344H\032v\220 \032\364\244\325\216"
 558      34AFC0E4 
 558      481A7690 
 558      201AF4A4 
 558      D58E
 559 0461 13C41CAF 		.ascii	"\023\304\034\257i>w\222\264f\035\370\224$\255N\014\265"
 559      693E7792 
 559      B4661DF8 
 559      9424AD4E 
 559      0CB5
 560 0473 B0CF501B 		.ascii	"\260\317P\033\347\356\036\2159\235\302@\265^6i\371\231"
 560      E7EE1E8D 
 560      399DC240 
 560      B55E3669 
 560      F999
 561 0485 A4E53726 		.ascii	"\244\3457&\021\177^z\003\345\216\201\334_\271\273\300"
 561      117F5E7A 
 561      03E58E81 
 561      DC5FB9BB 
 561      C0
 562 0496 3538715C 		.ascii	"58q\\\256U\024\250=]\313{\371ejb\206G\237\220>+\033"
 562      AE5514A8 
 562      3D5DCB7B 
 562      F9656A62 
 562      86479F90 
 563 04ad 09DC8778 		.ascii	"\011\334\207x\254sl$\237\376\342\330SKUu\220v*{ o?\374"
 563      AC736C24 
 563      9FFEE2D8 
 563      534B5575 
 563      90762A7B 
 564 04c5 8EB3F9E8 		.ascii	"\216\263\371\350\323\207/\306\303_\301\303_d\207\277"
 564      D3872FC6 
 564      C35FC1C3 
 564      5F6487BF 
 565 04d5 75E9F273 		.ascii	"u\351\362s\332\360\027\035\015\377y\333\242\314\341"
 565      DAF0171D 
 565      0DFF79DB 
 565      A2CCE1
 566 04e4 45FEB99F 		.ascii	"E\376\271\237\330E\306\351/\256>\261\032\017\362\025"
 566      D845C6E9 
 566      2FAE3EB1 
ARM GAS  /tmp/ccGp8fg9.s 			page 44


 566      1A0FF215 
 567 04f4 9E2F3B72 		.ascii	"\236/;r\330\320\030\223ot\036\354S\035\004\356\323\034"
 567      D8D01893 
 567      6F741EEC 
 567      531D04EE 
 567      D31C
 568 0506 9D7D9FA6 		.ascii	"\235}\237\246+\250\231\030\263~\223\252\316\361\351"
 568      2BA89918 
 568      B37E93AA 
 568      CEF1E9
 569 0515 1C0EB846 		.ascii	"\034\016\270F,4\030\342z\033N\000\032\330!'`\226qT\231"
 569      2C3418E2 
 569      7A1B4E00 
 569      1AD82127 
 569      60967154 
 570 052a B84983B5 		.ascii	"\270I\203\265\272\00632\273M\203\035w\0026\310\232\331"
 570      BA063332 
 570      BB4D831D 
 570      770236C8 
 570      9AD9
 571 053c 9F69B04E 		.ascii	"\237i\260N\327`Ff\337\323`\247\235\200\015\261fv\237"
 571      D7604666 
 571      DFD360A7 
 571      9D800DB1 
 571      66769F
 572 054f 063BE71A 		.ascii	"\006;\347\032\314\310\354!\015v\301\011X\2415\263\252"
 572      CCC8EC21 
 572      0D76C109 
 572      58A135B3 
 572      AA
 573 0560 760AACD7 		.ascii	"v\012\254\3275\230\221Y5\015\366\265\023\260'\254\231"
 573      35989159 
 573      350DF6B5 
 573      13B027AC 
 573      99
 574 0571 2DA2C1BE 		.ascii	"-\242\301\276s\015fd\266\204\006\273\346\004l\2505\263"
 574      730D6664 
 574      B68406BB 
 574      E6046CA8 
 574      35B3
 575 0583 A534D82D 		.ascii	"\2454\330-\327`Ff\2654\330]'`\243\254\231\255\240\301"
 575      D7604666 
 575      B534D85D 
 575      2760A3AC 
 575      99ADA0C1 
 576 0597 1EB80633 		.ascii	"\036\270\00632\333@\203U\370\034\200\215\265f\266\211"
 576      32DB4083 
 576      55F81C80 
 576      8DB566B6 
 576      89
 577 05a8 069BE11A 		.ascii	"\006\233\341\032\314\310l\013\0156\333\011\330xkf\333"
 577      CCC86C0B 
 577      0D36DB09 
 577      D8786B66 
 577      DB
 578 05b9 68B0B9AE 		.ascii	"h\260\271\256\301\214\314v\320`o9\001{\321\232\331\237"
 578      C18CCC76 
ARM GAS  /tmp/ccGp8fg9.s 			page 45


 578      D0606F39 
 578      017BD19A 
 578      D99F
 579 05cb 68B02AD7 		.ascii	"h\260*\327`Ff\273i\260\032'`\257Z3\333K\203\275\343"
 579      604666BB 
 579      69B01A27 
 579      60AF5A33 
 579      DB4B83BD 
 580 05e0 1ACCC8EC 		.ascii	"\032\314\310\354\030\015\266\334\011\330k&\314R?39t"
 580      180DB6DC 
 580      09D86B26 
 580      CC523F33 
 580      3974
 581 05f2 99BEC0A7 		.ascii	"\231\276\300\247\256\333\002\267\312\247\337\340\270"
 581      AEDB02B7 
 581      CAA7DFE0 
 581      B8
 582 05ff BC467369 		.ascii	"\274Fsi\214w}no\310\014z\303s\301W\365|\315t\365\340"
 582      8C777D6E 
 582      6FC80C7A 
 582      C373C157 
 582      F57CCD74 
 583 0615 50FDDE7C 		.ascii	"P\375\336|\235\023D\233\013`m3u\243\277\3015\030\023"
 583      9D13449B 
 583      0B606D33 
 583      75A3BFC1 
 583      351813
 584 0628 CA08CC70 		.ascii	"\312\010\314p\353\224\252\274$\354+/\250\010$Pe\232"
 584      EB94AABC 
 584      24EC2B2F 
 584      A8082450 
 584      659A
 585 063a 21E67D45 		.ascii	"!\346}E\376=\341\347\350\326I\310K\261\320\266\365\255"
 585      FE3DE1E7 
 585      E8D649C8 
 585      4BB1D0B6 
 585      F5AD
 586 064c 242EC1ED 		.ascii	"$.\301\355\360\231\325\2230\200\275\250U$\324\013T$"
 586      F099D593 
 586      3080BDA8 
 586      5524D40B 
 586      5424
 587 065e EC716226 		.ascii	"\354qb&\233K\373\347\315+\376F\355I\360z%l?\213g\320"
 587      9B4BFBE7 
 587      CD2BFE46 
 587      ED49F07A 
 587      256C3F8B 
 588 0674 39FBD5FD 		.ascii	"9\373\325\375vs\376\206\327\234\327\270\032\364:\334"
 588      7673FE86 
 588      D79CD7B8 
 588      1AF43ADC 
 589 0684 FB021AFD 		.ascii	"\373\002\032\375\210\217\275[mpY\344\022\270\023\256"
 589      888FBD5B 
 589      6D7059E4 
 589      12B813AE 
 590 0694 35788289 		.ascii	"5x\202\211\353\375\325\374\215Ju\351P\347j\364\352j"
 590      EBFDD5FC 
ARM GAS  /tmp/ccGp8fg9.s 			page 46


 590      8D4A75E9 
 590      50E76AF4 
 590      EA6A
 591 06a6 7C82D538 		.ascii	"|\202\3258\373\003\250\361\245k5\206Rj\240\307\366["
 591      FB03A8F1 
 591      A56B3586 
 591      526AA0C7 
 591      F65B
 592 06b8 D5DAF47C 		.ascii	"\325\332\364|\204\253\266\177`B|\266\010\217\030+.\247"
 592      84ABB67F 
 592      60427CB6 
 592      088F182B 
 592      2EA7
 593 06ca 5B50C505 		.ascii	"[P\305\005\035\316^q\271\323\262\202<\361k\205\275\377"
 593      1DCE5E71 
 593      B9D3B282 
 593      3CF16B85 
 593      BDFF
 594 06dc C1DC91AC 		.ascii	"\301\334\221\254\313\364D\360\026\035\306\211@\003\273"
 594      CBF444F0 
 594      161DC689 
 594      4003BB
 595 06eb FE178155 		.ascii	"\376\027\201U&6\317\323\313\021cp5\342/\204;~\330m\001"
 595      2636CFD3 
 595      CB116370 
 595      35E22F84 
 595      3B7ED86D 
 596 0700 61E63724 		.ascii	"a\3467$8\366\340\340\250\364\263\301\321\311\006\207"
 596      38F6E0E0 
 596      A8F4B3C1 
 596      D1C90687 
 597 0710 93E7E905 		.ascii	"\223\347\351\005\376>\352\221\372\011\334b\277\203\344"
 597      FE3EEA91 
 597      FA09DC62 
 597      BF83E4
 598 071f 5168E9A7 		.ascii	"Qh\351\247\236\223\335wH\214e}(\327\313m]M\025\244\334"
 598      9E93DD77 
 598      488C657D 
 598      28D7CB6D 
 598      5D4D15A4 
 599 0734 F69980EA 		.ascii	"\366\231\200\352T\313\030k8x\272_\207E\232\204\214:"
 599      54CB186B 
 599      3878BA5F 
 599      87459A84 
 599      8C3A
 600 0746 55AB5EA7 		.ascii	"U\253^\247B\347\034<\336\033\352T\"\177\224\027\010"
 600      42E71C3C 
 600      DE1BEA54 
 600      227F9417 
 600      08
 601 0757 6E5F2D6A 		.ascii	"n_-jpb\232\240\310\037\304W\212C\302\343\264\365w\270"
 601      70629AA0 
 601      C81FC457 
 601      8A43C2E3 
 601      B4F577B8 
 602 076b B67E216D 		.ascii	"\266~!m\375\304\275\303+x\215\277V\271\334\307\342\215"
 602      FDC4BDC3 
ARM GAS  /tmp/ccGp8fg9.s 			page 47


 602      2B788DBF 
 602      56B9DCC7 
 602      E28D
 603 077d A5AFE264 		.ascii	"\245\257\342d\323\362\211EMT\037\245f]\253\023r6\017"
 603      D3F28945 
 603      4D541FA5 
 603      665DAB13 
 603      72360F
 604 0790 19AB3430 		.ascii	"\031\25340-\344;\\\203\025\032\300\366,pV\030Uy\372"
 604      2DE43B5C 
 604      83151AC0 
 604      F62C7056 
 604      185579FA 
 605 07a4 C640E0CE 		.ascii	"\306@\340\316\343q;\330HY\226<6\233DJ\207\203H\201\374"
 605      E3713BD8 
 605      4859963C 
 605      369B444A 
 605      87834881 
 606 07b9 862BCABA 		.ascii	"\206+\312\272\235\227\346\352\2506v6\213\023\275>\372"
 606      9D97E6EA 
 606      A8367636 
 606      8B13BD3E 
 606      FA
 607 07ca F5211EC3 		.ascii	"\365!\036\303i7"
 607      6937
 608 07d0 3A752C5C 		.ascii	":u,\\\326\3730#\334C\351\340Pw\206\321\346b\242{'\312"
 608      D6FB3023 
 608      DC43E9E0 
 608      507786D1 
 608      E662A27B 
 609 07e6 F067F134 		.ascii	"\360g\3614\\\227\313&%\3152T<wP\361\334\211\343\271"
 609      5C97CB26 
 609      25CD3254 
 609      3C7750F1 
 609      DC89E3B9 
 610 07fa 0BE259E4 		.ascii	"\013\342Y\344O\341\345\031:\266\255.2\335\364\235\313"
 610      4FE1E519 
 610      3AB6AD2E 
 610      32DDF49D 
 610      CB
 611 080b 06D77A17 		.ascii	"\006\327z\0272\336\261\032\246\235\036f{\256\203\330"
 611      32DEB11A 
 611      A69D1E66 
 611      7BAE83D8 
 612 081b B37E2685 		.ascii	"\263~&\205\264\322Y\243\337\346j\025\340O]#\032\243"
 612      B4D259A3 
 612      DFE66A15 
 612      E04F5D23 
 612      1AA3
 613 082d F9DA02C3 		.ascii	"\371\332\002\303\005\351\210\023\270\261&\004\315~t"
 613      05E98813 
 613      B8B12604 
 613      CD7E74
 614 083c FD5EE48F 		.ascii	"\375^\344\217\360\310M\255<rP\033^\036\307\313\263x"
 614      F0C84DAD 
 614      3C72501B 
 614      5E1EC7CB 
ARM GAS  /tmp/ccGp8fg9.s 			page 48


 614      B378
 615 084e B9023B6E 		.ascii	"\271\002;n\025^\326\341\345Z\274\\\217\227\037\343\345"
 615      155ED6E1 
 615      E55ABC5C 
 615      8F971FE3 
 615      E5
 616 085f 66BCDC87 		.ascii	"f\274\334\207\227\207\361\262\025/\333\360\3628^^\300"
 616      9787F1B2 
 616      152FDBF0 
 616      F2385E5E 
 616      C0
 617 0870 CB2F9C04 		.ascii	"\313/\234\004\200\226hSa\246\347\334}}~7\320\225~7 "
 617      80966853 
 617      61A6E7DC 
 617      7D7D7E37 
 617      D0957E37 
 618 0885 F2C75C83 		.ascii	"\362\307\\\203\261\021e\260\344>\312\222\373\261%\017"
 618      B11165B0 
 618      E43ECA92 
 618      FBB1250F 
 619 0895 60BBF51A 		.ascii	"`\273\365\032\323\370\211\\\375\215U_\322\201\332\323"
 619      D3F8895C 
 619      FD8D555F 
 619      D281DAD3 
 620 08a5 58BD7B34 		.ascii	"X\275{4.l\273x\217\252\337Q\\\326n73&\357\307\354\035"
 620      2E6CBB78 
 620      8FAADF51 
 620      5CD66E37 
 620      3326EFC7 
 621 08bb 858B9788 		.ascii	"\205\213\227\210\002w\221\325\310iF2\267\343.\312\216"
 621      027791D5 
 621      C8694632 
 621      B7E32ECA 
 621      8E
 622 08cc 7BB01DF7 		.ascii	"{\260\035\367b;^r\0221\333\323\217\275\"\377\262\207"
 622      623B5E72 
 622      1231DBD3 
 622      8FBD22FF 
 622      B287
 623 08de B2FB6546 		.ascii	"\262\373eF\353\237q\357\251j5z\371y\003\315\327\361"
 623      EB9F71EF 
 623      A96A357A 
 623      F97903CD 
 623      D7F1
 624 08f0 9AACC07D 		.ascii	"\232\254\300}\217\373m\341\0373\035#5\302?p\015\350"
 624      8FFB6DE1 
 624      1F331D23 
 624      35C23F70 
 624      0DE8
 625 0902 C9EF9359 		.ascii	"\311\357\223Y3\007y\265\213 g#F\010}+\010\264\256\332"
 625      330779B5 
 625      8B206723 
 625      46087D2B 
 625      08B4AEDA 
 626 0916 FBD7446D 		.ascii	"\373\327Dm\373\374\334\252\212\236d\3621\027/_\257\011"
 626      FBFCDCAA 
 626      8A9E64F2 
ARM GAS  /tmp/ccGp8fg9.s 			page 49


 626      31172F5F 
 626      AF09
 627 0928 8697AF1A 		.ascii	"\206\227\257\032/\262\343\374^\363\306\222mO\342\310"
 627      2FB2E3FC 
 627      5EF3C692 
 627      6D4FE2C8 
 628 0938 B88923E3 		.ascii	"\270\211#\343AFd\364\341^3\323\364\263\363\254L\377"
 628      414664F4 
 628      E15E33D3 
 628      F4B3F3AC 
 628      4CFF
 629 094a 25BF2865 		.ascii	"%\277(ez\221\277\"\240\011yU\2605\275&\254\236\226\306"
 629      7A91BF22 
 629      A0097955 
 629      B035BD26 
 629      AC9E96C6 
 630 095e EBACEB30 		.ascii	"\353\254\3530\274\265\330M\355\261\331\334cVbD\217;"
 630      BCB5D84D 
 630      EDB1D9DC 
 630      63566244 
 630      8F3B
 631 0970 A61EBB56 		.ascii	"\246\036\273Vs\270\002\256\311\352\375d\322\303\276"
 631      73B802AE 
 631      C9EAFD64 
 631      D2C3BE
 632 097f 31B778DF 		.ascii	"1\267x\337\202\300\036\230\371\214\261U\203\251\255"
 632      82C01E98 
 632      F98CB155 
 632      83A9AD
 633 098e D4851263 		.ascii	"\324\205\022c\245\373\366VJ\251\373\226:s\020\217Yq"
 633      A5FBF656 
 633      4AA9FB96 
 633      3A73108F 
 633      5971
 634 09a0 44CAE0CE 		.ascii	"D\312\340\316d\246~=W\023K\232\013L\003\322F\267\351"
 634      64A67E3D 
 634      57134B9A 
 634      0B4C03D2 
 634      46B7E9
 635 09b3 1EEB78D4 		.ascii	"\036\353x\324\022Of\\\3544\327\365\035V\327JO\366\210"
 635      124F665C 
 635      EC34D7F5 
 635      1D56D74A 
 635      4FF688
 636 09c6 A8527721 		.ascii	"\250Rw!1-\303\035\302\300\326b\227\251\210P\031\023"
 636      312DC31D 
 636      C2C0D662 
 636      97A98850 
 636      1913
 637 09d8 21298389 		.ascii	"!)\203\211fy\314Lt\246\205\230HS]\340\016\233+\223,"
 637      6679CC4C 
 637      74A68598 
 637      48535DE0 
 637      0E9B2B93 
 638 09ed 669499E7 		.ascii	"f\224\231\347H\231\315\2722\"?\307c/f\247\314<V\231"
 638      4899CDBA 
 638      32223FC7 
ARM GAS  /tmp/ccGp8fg9.s 			page 50


 638      632F66A7 
 638      CC3C5699 
 639 0a01 F9A6CADC 		.ascii	"\371\246\312\334lf\2249i\256\314\003V\231*G\312ld\225"
 639      6C669439 
 639      69AECC03 
 639      56992A47 
 639      CA6C6495 
 640 0a15 B116B353 		.ascii	"\261\026\263S\246\212Uf\241\2512\307\017\037\266\232"
 640      A68A5566 
 640      A1A932C7 
 640      0F1FB69A 
 641 0a25 9B760975 		.ascii	"\233v\011u\211Y\0003\001{\321\241Y\026\333\233%\245"
 641      89590033 
 641      017BD1A1 
 641      5916DB9B 
 641      25A5
 642 0a37 1F938BAC 		.ascii	"\037\223\213\254\304\010\303\245\246\352\326\036\325"
 642      C408C3A5 
 642      A6EAD61E 
 642      D5
 643 0a44 7CB77AAC 		.ascii	"|\267z\254\246\203\300}\3530\022\227\367\215\245\225"
 643      A683C07D 
 643      EB301297 
 643      F78DA595 
 644 0a54 1861B9C2 		.ascii	"\030a\271\302\234e\273\316\322\205K\352ls\312M\323\234"
 644      9C65BBCE 
 644      D2854BEA 
 644      6C73CA4D 
 644      D39C
 645 0a66 72C75CF9 		.ascii	"r\307\\\371\225lNY\355 r\251\253\214\310\177\237E\354"
 645      956C4E59 
 645      ED2072A9 
 645      AB8CC87F 
 645      9F45EC
 646 0a79 A6217219 		.ascii	"\246!r\031\233Y\211\021E\3373\265\331\246\266\324\254"
 646      9B598911 
 646      45DF33B5 
 646      D9A6B6D4 
 646      AC
 647 0a8a ACC38E9D 		.ascii	"\254\303\216\235\323\317T\267\345\254nk\035\351v\222"
 647      D3CF54B7 
 647      E5AC6E6B 
 647      1DE97692 
 648 0a9a D5CD5ACC 		.ascii	"\325\315Z\314V7+1\242\333\272L\335\352z\022\013k,'\251"
 648      56372B31 
 648      A2DBBA4C 
 648      DDEA7A12 
 648      0B6B2C27 
 649 0aaf CD45E623 		.ascii	"\315E\346#\007s\264\326\334H\031\321\377\241\303\350"
 649      0773B4D6 
 649      DC4819D1 
 649      FFA1C3E8 
 650 0abf 37E6A00F 		.ascii	"7\346\240\017\331\034\364\211\251\353\256v\244'\345"
 650      D91CF489 
 650      A9EBAE76 
 650      A427E5
 651 0ace 47D8777F 		.ascii	"G\330w\1774\247\225q]\337\324'Z\233XZ\233M\255~\266"
ARM GAS  /tmp/ccGp8fg9.s 			page 51


 651      34A79571 
 651      5DDFD427 
 651      5A9B585A 
 651      9B4DAD7E 
 652 0ae3 8BC9F39B 		.ascii	"\213\311\363\233\315Y-cYms\224\347\367\260y\336Z\314"
 652      CD592D63 
 652      596D7394 
 652      E7F7B079 
 652      DE5ACC
 653 0af6 2ECF6F63 		.ascii	".\317oc\225\331n\252L\347\311>\345\371\335\266I\205"
 653      95D96EAA 
 653      4CE7C93E 
 653      E5F9DDB6 
 653      4985
 654 0b08 189989A9 		.ascii	"\030\231\211\251\375Y\314\004Ou\270\307.G\023\357\\"
 654      FD59CC04 
 654      4F75B8C7 
 654      2E4713EF 
 654      5C
 655 0b19 5AEC9413 		.ascii	"Z\354\224\0231\253\211g%F\024m4\211\314*T\366\234\305"
 655      31AB8967 
 655      2546146D 
 655      3489CC2A 
 655      54F69CC5 
 656 0b2d 2F9C5E77 		.ascii	"/\234^wP\275\212\356\326\235\317\275&\326n\365\370\235"
 656      50BD8AEE 
 656      D69DCFBD 
 656      26D66EF5 
 656      F89D
 657 0b3f 84C14E67 		.ascii	"\204\301Ng\031;\351T\016\232QIl?3\377\247j}e\"\231\034"
 657      193BE954 
 657      0E9A5149 
 657      6C3F33FF 
 657      A76A7D65 
 658 0b56 E3C6812D 		.ascii	"\343\306\201-fD\262\\\025\276\261 \326jJl\363\231\005"
 658      6644B25C 
 658      15BEB120 
 658      D66A4A6C 
 658      F39905
 659 0b69 56C450E5 		.ascii	"V\304P\345\300\212X\033K\254)3;%-\210\0347%\262\253"
 659      C08A581B 
 659      4BAC2933 
 659      3B252D88 
 659      1C3725B2 
 660 0b7e D6D24236 		.ascii	"\326\322B6\236\352 <\322C\013\334\274|\363qO\230\216"
 660      9EEA203C 
 660      D2430BDC 
 660      BC7CF371 
 660      4F988E
 661 0b91 BBE3CC7C 		.ascii	"\273\343\314|\225w\373\004\320e\246~jG\013Z\326\034"
 661      9577FB04 
 661      D065A67E 
 661      6A470B5A 
 661      D61C
 662 0ba3 2B2C689D 		.ascii	"+,h\2356\322\372{\256\036\321J\276\263\204\007s\250"
 662      36D2FA7B 
 662      AE1ED14A 
ARM GAS  /tmp/ccGp8fg9.s 			page 52


 662      BEB38407 
 662      73A8
 663 0bb5 EAC36492 		.ascii	"\352\303d\2227\373\260\316\243s\032\311Q\217\270W\352"
 663      37FBB0CE 
 663      A3731AC9 
 663      518FB857 
 663      EA
 664 0bc6 F9E9B87A 		.ascii	"\371\351\270z\333\355A\265\313\365\314\230Y\201\004"
 664      DBED41B5 
 664      CBF5CC98 
 664      598104
 665 0bd5 6E2B1639 		.ascii	"n+\0269\357\311x\205p`&)\014\243s\331\013\303+\273\264"
 665      EFC97885 
 665      70602629 
 665      0CA373D9 
 665      0BC32BBB 
 666 0bea 12BCC990 		.ascii	"\022\274\311\220=\251\222\353\337Q\334\273:/\020\356"
 666      3DA992EB 
 666      DF51DCBB 
 666      3A2F10EE 
 667 0bfa 1731F7C6 		.ascii	"\0271\367\306\354\334\215@\002w\004\213\364fr?1\203"
 667      ECDC8D40 
 667      0277048B 
 667      F466723F 
 667      3183
 668 0c0c 70EF75C4 		.ascii	"p\357u\304\275\243\335\370\372\340L\012\267/u\254\312"
 668      BDA3DDF8 
 668      FAE04C0A 
 668      B72F75AC 
 668      CA
 669 0c1d C409ED3B 		.ascii	"\304\011\355;\010\255Fz\221\005sU\324V\023\2474\260"
 669      08AD467A 
 669      91057355 
 669      D45613A7 
 669      34B0
 670 0c2f 7398D9D7 		.ascii	"s\230\331\327\256\301\012\015\314>\2576~\220\374\277"
 670      AEC10A0D 
 670      CC3EAF36 
 670      7E90FCBF 
 671 0c3f 4EF06CBE 		.ascii	"N\360l\276S\270\332N}\247p\3075\230\221\334m\032,\351"
 671      53B8DA4E 
 671      7DA770C7 
 671      359891DC 
 671      6D1A2CE9 
 672 0c53 04CCEC6D 		.ascii	"\004\314\354m\276\331\217\016\022\221\277\344A\225\267"
 672      BED98F0E 
 672      1291BFE4 
 672      4195B7
 673 0c62 CB1E5479 		.ascii	"\313\036Ty\373\006/\277\305\313+xy\025/\257{\014\225"
 673      FB062FBF 
 673      C5CB2B78 
 673      79152FAF 
 673      7B0C95
 674 0c75 CD3905FA 		.ascii	"\3159\005\372,1\015\305l!\241&\266ZO\017\2637\0220\265"
 674      2C310DC5 
 674      6C21A126 
 674      B65A4F0F 
ARM GAS  /tmp/ccGp8fg9.s 			page 53


 674      B3371230 
 675 0c8a 7B2BF899 		.ascii	"{+\370\2318\206o\343\351\361vA\326\351\301\276\363i"
 675      38866FE3 
 675      E9F17641 
 675      D6E9C1BE 
 675      F369
 676 0c9c C0227733 		.ascii	"\300\"w3\246G\367\203\351dz\334u0=*\023w\337v\3701~"
 676      A647F783 
 676      E9647ADC 
 676      75303D2A 
 676      1377DF76 
 677 0cb3 6AFC1F53 		.ascii	"j\374\037S\212t\235\327\377\252\340!VdwvE\214@0\317"
 677      8A749DD7 
 677      FFAAE021 
 677      56647776 
 677      458C4030 
 678 0cc8 B1488537 		.ascii	"\261H\2057C\221\357tE\320\271\354\212\354|[\217\376"
 678      4391EF74 
 678      45D0B9EC 
 678      8AEC7C5B 
 678      8FFE
 679 0cda 071EFCFD 		.ascii	"\007\036\374\375f\012\327&\306,\235Z\231\370\223\366"
 679      660AD726 
 679      C62C9D5A 
 679      99F893F6 
 680 0cea FDA606D6 		.ascii	"\375\246\006\326\353\032\314\030\375{\332\364/\007\264"
 680      EB1ACC18 
 680      FD7BDAF4 
 680      2F07B4
 681 0cf9 D2DF774E 		.ascii	"\322\337wN\360l^\206\355mc\277\372q~\275\233\357e\256"
 681      F06C5E86 
 681      ED6D63BF 
 681      FA717EBD 
 681      9BEF65AE 
 682 0d0d 776398AB 		.ascii	"wc\230\253\275\231`*r\317V\220o\373\347y\221an3\016"
 682      BD99602A 
 682      72CF5690 
 682      6FFBE779 
 682      91616E33 
 683 0d22 673EE246 		.ascii	"g>\342FcY\361\250\362\346[85\343\034d\014\327\00638"
 683      6359F1A8 
 683      F2E65B38 
 683      35E31C64 
 683      0CD70633 
 684 0d37 00C2E9E6 		.ascii	"\000\302\351\346{\372\353-\374:jv\177\007\200f\311\321"
 684      7BFAEB2D 
 684      FC3A6A76 
 684      7F078066 
 684      C9D1
 685 0d49 EC47C72F 		.ascii	"\354G\307/<\242xQ\012\232\341E\251f\026^\276\211\227"
 685      3CA27851 
 685      0A9AE145 
 685      A966165E 
 685      BE8997
 686 0d5c 73F1B2DA 		.ascii	"s\361\262\332\353\340u\000\212\272\024\366L\257@\246"
 686      EBE07500 
 686      8ABA14F6 
ARM GAS  /tmp/ccGp8fg9.s 			page 54


 686      4CAF40A6 
 687 0d6c 7ADF22F9 		.ascii	"z\337\"\371~:\222E~\266k0\203!\023\013\333\351H\206"
 687      7E3A9245 
 687      7EB66B30 
 687      8321130B 
 687      DBE94886 
 688 0d80 07262778 		.ascii	"\007&'x6\221L>_\325\246\305\202\376\274K\260B;\247\334"
 688      36914C3E 
 688      5FD5A6C5 
 688      82FEBC4B 
 688      B0423BA7 
 689 0d95 A5AE0BF7 		.ascii	"\245\256\013\367\360u\341>\316\377\213\260#\026\343"
 689      F075E13E 
 689      CEFF8BB0 
 689      2316E3
 690 0da4 E512AFE1 		.ascii	"\345\022\257\341ZP\333\237\271\026\030\363\256\331\245"
 690      5A50DB9F 
 690      B91618F3 
 690      AED9A5
 691 0db3 89B68F9A 		.ascii	"\211\266\217\232\330\015\217\252\242\363\317D.\351\237"
 691      D80D8FAA 
 691      A2F3CF44 
 691      2EE99F
 692 0dc2 89D47A51 		.ascii	"\211\324zQ\376\254\357\357\3723\221\015XdeF\376\\\336"
 692      FEACEFEF 
 692      FA33910D 
 692      58646546 
 692      FE5CDE
 693 0dd5 ABDF27AD 		.ascii	"\253\337'\255\314\236?gLOl\255\371c\372B0=5\203\337"
 693      CC9E3F67 
 693      4C4F6CAD 
 693      F963FA42 
 693      303D3583 
 694 0dea 15AC9F68 		.ascii	"\025\254\237h\014_\350%R<\\F\251\271\357VR\023j5\236"
 694      0C5FE825 
 694      523C5C46 
 694      A9B9EF56 
 694      52136A35 
 695 0dff 5075464F 		.ascii	"PuFO\265\260\2362\033\317\362[s5q\262K\013d\247\276"
 695      B5B09E32 
 695      1BCFF25B 
 695      733571B2 
 695      4B0B64A7 
 696 0e14 DA73E5DA 		.ascii	"\332s\345\332\263\332\337\273bOU\014p\351)\\Sb\274\224"
 696      B3DADFBB 
 696      624F550C 
 696      70E9295C 
 696      5362BC94 
 697 0e28 B821156A 		.ascii	"\270!\025jG\263_\337\356\365\342\317)\234\277#;\360"
 697      47B35FDF 
 697      EEF5E2CF 
 697      299CBF23 
 697      3BF0
 698 0e3a 85FE57A8 		.ascii	"\205\376W\250^4\267\252\031\302}\374\036\253\026\303"
 698      5E34B7AA 
 698      19C27DFC 
 698      1EAB16C3 
ARM GAS  /tmp/ccGp8fg9.s 			page 55


 699 0e4a ACFBA1DC 		.ascii	"\254\373\241\334\274\216r\363z\354\346\367\215n\256"
 699      BC8E72F3 
 699      7AECE6F7 
 699      8D6EAE
 700 0e59 1FE0C0CD 		.ascii	"\037\340\300\315f\037\350\230\217w\236J\011=8%\\\300"
 700      661FE898 
 700      8F779E4A 
 700      093D3825 
 700      5CC0
 701 0e6b 29E1165E 		.ascii	")\341\026^.\303)a\215\221\301\232\224\341L\237\262\020"
 701      2EC32961 
 701      8D91C19A 
 701      94E14C9F 
 701      B210
 702 0e7d EA066FEA 		.ascii	"\352\006o\352\261\217\271\0006Z\274]FR\033\275\371\026"
 702      B18FB900 
 702      365ABC5D 
 702      46521BBD 
 702      F916
 703 0e8f 52DD16EA 		.ascii	"R\335\026\352\342\222\231\245\024\252tXImNK\221\277"
 703      E29299A5 
 703      14AA7458 
 703      496D4E4B 
 703      91BF
 704 0ea1 9E3DB9FC 		.ascii	"\236=\271\374\301I\276\032\256\210\270\240R\227\353"
 704      C149BE1A 
 704      AE88B8A0 
 704      5297EB
 705 0eb0 FC06622B 		.ascii	"\374\006b+{\003ax`&Z1\017\314k\231\350#%\245\235\250"
 705      7B036178 
 705      60265A31 
 705      0FCC6B99 
 705      E82325A5 
 706 0ec6 A4A43D13 		.ascii	"\244\244=\023l\301=\266x\255JJMT%\252\246\251\240\212"
 706      6CC13DB6 
 706      78AD4A4A 
 706      4D5425AA 
 706      A6A9A08A 
 707 0eda D78612B8 		.ascii	"\327\206\022\270\355Y\004\011!R\213\352V_\034\222\252"
 707      ED590409 
 707      21528BEA 
 707      565F1C92 
 707      AA
 708 0eeb D8212143 		.ascii	"\330!!Cx\354\360\032\236\337\031\003\267\330\030x\257"
 708      78ECF01A 
 708      9EDF1903 
 708      B7D81878 
 708      AF
 709 0efc A55BDA6C 		.ascii	"\245[\332l\244\032Y\267$j.\036\363\240\317$\320\037"
 709      A41A59B7 
 709      246A2E1E 
 709      F3A0CF24 
 709      D01F
 710 0f0e 353FEEA2 		.ascii	"5?\356\242\210\363)\353\224\215\336\214\"\316.s'\334"
 710      88F329EB 
 710      948DDE8C 
 710      22CE2E73 
ARM GAS  /tmp/ccGp8fg9.s 			page 56


 710      27DC
 711 0f20 434ED0BA 		.ascii	"CN\320\272\357\306W\363\204#[V\252\267\276|\221\270"
 711      EFC657F3 
 711      84235B56 
 711      AAB7BE7C 
 711      91B8
 712 0f32 8FB39122 		.ascii	"\217\263\221\"\004?\363fTl@\335\225\347\227@\026F\225"
 712      043FF366 
 712      546C40DD 
 712      95E79740 
 712      164695
 713 0f45 A246F571 		.ascii	"\242F\365q\027\265\242f\007\352\266\232\253\333\301"
 713      17B5A266 
 713      07EAB69A 
 713      ABDBC1
 714 0f54 AADBD497 		.ascii	"\252\333\324\227\320ibC\347\220\251~\033iwj^\022\270"
 714      D0696243 
 714      E790A97E 
 714      1B69776A 
 714      5E12B8
 715 0f67 530EFD70 		.ascii	"S\016\375p\244O~\260\222\"<[\215<\007sU\330\344c\227"
 715      A44F7EB0 
 715      92223C5B 
 715      8D3C0773 
 715      55D8E463 
 716 0f7c 0ED03EC9 		.ascii	"\016\320>\311'\242\203tQ\201\310\035\363\016\306[\206"
 716      27A28374 
 716      5181C81D 
 716      F30EC65B 
 716      86
 717 0f8d CF77700F 		.ascii	"\317wp\017+\037\035\367\246?\373/\310Ko\360\306\241"
 717      2B1F1DF7 
 717      A63FFB2F 
 717      C84B6FF0 
 717      C6A1
 718 0f9f 0B       		.ascii	"\013"
 719 0fa0 999147E9 		.ascii	"\231\221G\351\375\374\004\247\335\365\310\035\026#\373"
 719      FDFC04A7 
 719      DDF5C81D 
 719      1623FB
 720 0faf C8C8CC0C 		.ascii	"\310\310\314\014\235n3COX\316\353\016\033\251NK)\364"
 720      9D6E3343 
 720      4F58CEEB 
 720      0E1BA94E 
 720      4B29F4
 721 0fc2 9F0F5849 		.ascii	"\237\017XIuYJ\241\257f\254\244NZJ\325\3310<e)\325e#"
 721      75594AA1 
 721      AF66ACA4 
 721      4E5A4AD5 
 721      D9303C65 
 722 0fda 75DA52EA 		.ascii	"u\332R\352\201\015\3033i)n|Qi4,\025\005\243\305\323"
 722      810DC333 
 722      69296E7C 
 722      5169342C 
 722      1505A3C5 
 723 0fef 8A8AA5C9 		.ascii	"\212\212\245\311E\301\322\320\304P4^\244\310\345\221"
 723      45C1D2D0 
ARM GAS  /tmp/ccGp8fg9.s 			page 57


 723      C450345E 
 723      A4C8E591 
 724 0fff D7       		.ascii	"\327"
 725 1000 8B604356 		.ascii	"\213`CV\212bQY\211\027\375\352\245\337\214\373\315T"
 725      8A625159 
 725      8917FDEA 
 725      A5DF8CFB 
 725      CD54
 726 1012 E8198E85 		.ascii	"\350\031\216\205\312$9^\364\374\270q\320]\231\026\223"
 726      CA24395E 
 726      F4FCB871 
 726      D05D9916 
 726      93
 727 1023 E24F9772 		.ascii	"\342O\227r\271J\\\021\025)\240\370\236\377\267\227\013"
 727      B94A5C11 
 727      1529A0F8 
 727      9EFFB797 
 727      0B
 728 1034 C7713F2B 		.ascii	"\307q?+*\217\313E\242\034~*\022\215HOI\342\304PQ(\022"
 728      2A8FCB45 
 728      A21C7E2A 
 728      128D484F 
 728      49E2C450 
 729 104b 2C2B2F96 		.ascii	",+/\226\212\342Jq(\242\200\220\277\034\326\243\002\312"
 729      8AE24A71 
 729      28A28090 
 729      BF1CD6A3 
 729      02CA
 730 105d 489BCE61 		.ascii	"H\233\316a\0218E\244\242@\2614I,/S\002\372\210y\201"
 730      113845A4 
 730      A240B134 
 730      492C2F53 
 730      02FA8879 
 731 1072 0011CF09 		.ascii	"\000\021\317\011\307K\002\212\037vF\014\017(p\234l\025"
 731      C74B028A 
 731      1F76460C 
 731      0F28709C 
 731      6C15
 732 1084 39502E2E 		.ascii	"9P..\007\341x\\\012?\035\344F8\350\257\323\322dJ\271"
 732      07E1785C 
 732      0A3F1DE4 
 732      4638E8AF 
 732      D3D2644A 
 733 1099 7C5889B1 		.ascii	"|X\211\261\322\250\014\252\347\245\266G\271C\232\026"
 733      D2A80CAA 
 733      E7A5B647 
 733      B9439A16 
 734 10a9 D7951AA8 		.ascii	"\327\225\032\250\224\312\222X\034\017\274Q.\225\003"
 734      94CA9258 
 734      1C0FBC51 
 734      2E9503
 735 10b8 E4A06069 		.ascii	"\344\240`i\300ph\244;\344`i1v\016\206\000\206)8_,\020"
 735      C07068A4 
 735      3BE46069 
 735      31760E86 
 735      00862938 
 736 10cf 91A62AB0 		.ascii	"\221\246*\260\212\311\322d\277\022\223C\321\200\222"
ARM GAS  /tmp/ccGp8fg9.s 			page 58


 736      8AC9D264 
 736      BF129343 
 736      D18092
 737 10de 5B4E4CD7 		.ascii	"[NL\327O3.\332\304]BQ\1770\032Q@b\264\353\210)\015\202"
 737      4F332EDA 
 737      C45D4251 
 737      7F301A51 
 737      4062B4EB 
 738 10f6 4590A9D0 		.ascii	"E\220\251\320a\344\233\2402\365\237\372\206\022\230"
 738      61E49BA0 
 738      32F59FFA 
 738      861298
 739 1105 FC2C327A 		.ascii	"\374,2z\256,\225@\264\004\024O|\3303\320\236\2056\012"
 739      AE2C9540 
 739      B404144F 
 739      7CD833D0 
 739      9E85360A 
 740 1119 DA684F7C 		.ascii	"\332hO|\370Ph\303\240\015\2076\002\332Hh\277\204\006"
 740      F85068C3 
 740      A00D8736 
 740      02DA4868 
 740      BF8406
 741 112c FD8643BF 		.ascii	"\375\206C\277\341\320o8\364\033\001\375F\014\023\344"
 741      E1D06F38 
 741      F41B01FD 
 741      460C13E4 
 742 113c 9182FC4B 		.ascii	"\221\202\374KA~F\220\237\025\344Q\202<\332#\017\033"
 742      417E4690 
 742      9F15E451 
 742      823CDA23 
 742      0F1B
 743 114e 0A6D9850 		.ascii	"\012m\230P&\303jDN,\000l\375\310XS$\031\326\321\262"
 743      26C36A44 
 743      4E2C006C 
 743      FDC85853 
 743      2419D6D1 
 744 1163 6249F606 		.ascii	"bI\366\006KE\031YP\014Kp\014G\276_\011G\213\301c\260"
 744      4B451959 
 744      500C4B70 
 744      0C47BE5F 
 744      09478BC1 
 745 1179 3FA94C2C 		.ascii	"?\251L,\211\373\025Y\232\024\307\346C\033>\271x\032"
 745      89FB1559 
 745      9A14C7E6 
 745      431B3EB9 
 745      781A
 746 118b 8469AE34 		.ascii	"\204i\25645\244\200\326\222o\212\022\235\370\273X\276"
 746      35A480D6 
 746      926F8A12 
 746      9DF8BB58 
 746      BE
 747 119c 34598A28 		.ascii	"4Y\212(a1\376:\364\224\246\240\015O,P>@\367yY(\016\021"
 747      6131FE3A 
 747      F494A6A0 
 747      0D4F2C50 
 747      3E40F779 
 748 11b4 3F908A02 		.ascii	"?\220\212\002t$/\026\230\"\206\224P\244\244_,\000\250"
ARM GAS  /tmp/ccGp8fg9.s 			page 59


 748      74242F16 
 748      98228694 
 748      50A4A45F 
 748      2C00A8
 749 11c7 383272F0 		.ascii	"82r\360&\034\220bR\004&XIN\270\034\034\346.\250\303"
 749      261C9062 
 749      52042658 
 749      494EB81C 
 749      1CE62EA8 
 750 11dc CA54342F 		.ascii	"\312T4/\303Z\260\301::%\002zc$`\030\306A\003\303C?D"
 750      C35AB0C1 
 750      3A3A2502 
 750      7A632460 
 750      18C64103 
 751 11f4 A41F524E 		.ascii	"\244\037RN,\303\361\001\007c\321h\231\237\004jN0\002"
 751      2CC3F101 
 751      0763D168 
 751      999F046A 
 751      4E3002
 752 1207 CC73E201 		.ascii	"\314s\342\001X\017\016\226N\220\302\257\000\345\011"
 752      580F0E96 
 752      4E90C2AF 
 752      00E509
 753 1216 4FC74459 		.ascii	"O\307DYyz\250\020\217\345\241\260\017\205\301dCR\247"
 753      797AA810 
 753      8FE5A1B0 
 753      0F85C164 
 753      4352A7
 754 1229 7F0BFBD1 		.ascii	"\177\013\373\321r\275\3270/:\377\010>;!T\022\021\313"
 754      72BDD730 
 754      2F3AFF08 
 754      3E3B2154 
 754      1211CB
 755 123c 5ED04E0C 		.ascii	"^\320N\014\037\210\217\375\373\304\337IA\345\205HH\341"
 755      1F888FFD 
 755      FBC4DF49 
 755      41E58548 
 755      48E1
 756 124e 23F9F8C8 		.ascii	"#\371\370\310KR\\R^\350\227\336\316KA\367Ks\030\234"
 756      4B525C52 
 756      5EE897DE 
 756      CE4B41F7 
 756      4B73189C 
 757 1262 31DE20F6 		.ascii	"1\336 \366H>5h\001M@\353\371\253\342\342q\321r\230\017"
 757      483E3568 
 757      014D40EB 
 757      F9ABE2E2 
 757      71D17298 
 758 1277 F20B03A9 		.ascii	"\362\013\003\251\263\010\300\023\217\305\241M\351\017"
 758      B308C013 
 758      8FC5A14D 
 758      E90F
 759 1285 C783A5CF 		.ascii	"\307\203\245\317G'\224IRl\302\217\351=}\324||\360%p"
 759      47279449 
 759      526CC28F 
 759      E93D7DD4 
 759      7C7CF025 
ARM GAS  /tmp/ccGp8fg9.s 			page 60


 760 129a EB348C8B 		.ascii	"\3534\214\213\266a\306J\305\345e\322\204\002|\340\025"
 760      B661C64A 
 760      C5E565D2 
 760      84027CE0 
 760      15
 761 12ab F175A93C 		.ascii	"\361u\251<\206z\006\220\271\244\2606\207\265\355\002"
 761      867A0690 
 761      B9A4B036 
 761      87B5ED02 
 762 12bb 1411D348 		.ascii	"\024\021\323H\214\300x\201\364\276_\326\274\340\223"
 762      8CC07881 
 762      F4BE5FD6 
 762      BCE093
 763 12ca F1E4CD91 		.ascii	"\361\344\315\221q\030\313$\214e-\214\363\340h\271,C"
 763      7118CB24 
 763      8C652D8C 
 763      F3E068B9 
 763      2C43
 764 12dc 00E6C848 		.ascii	"\000\346\310H\350'\223C\262R.\226\005\220\331e=\370"
 764      E8279343 
 764      B2522E96 
 764      0590D965 
 764      3DF8
 765 12ee 1E056093 		.ascii	"\036\005`\223\023\003\015\307\264Le8\344\237\254\340"
 765      13030DC7 
 765      B44C6538 
 765      E49FACE0 
 766 12fe 68416B94 		.ascii	"hAk\224cra],\225)\"lL*\217\004\003\370\014\332\362\241"
 766      6372615D 
 766      2C952922 
 766      6C4C2A8F 
 766      0403F80C 
 767 1315 1EA29C0F 		.ascii	"\036\242\234\017\25321\256 i8\204\006\031@\224.\226"
 767      AB3231AE 
 767      20693884 
 767      06194094 
 767      2E96
 768 1327 26969768 		.ascii	"&\226\227h\363\200>\222\027\023#\241 \012{O\361\304"
 768      F3803E92 
 768      171323A1 
 768      200A7B4F 
 768      F1C4
 769 1339 92E1AE22 		.ascii	"\222\341\256\"]A\211d\220\022\016\004\305\262\320DY"
 769      5D418964 
 769      90120E04 
 769      C5B2D044 
 769      59
 770 134a 5442D108 		.ascii	"TB\321\010P\222\025\034\267\276\350\244I\020>\202\022"
 770      5092151C 
 770      B7BEE8A4 
 770      49103E82 
 770      12
 771 135b 1682A505 		.ascii	"\026\202\245\005Z2\016E\342\222\014\207b\036\345\215"
 771      5A320E45 
 771      E2920C87 
 771      621EE58D 
 772 136b D860EDD8 		.ascii	"\330`\355\330\244\320\244(\230=\034\235,\365\323{\205"
ARM GAS  /tmp/ccGp8fg9.s 			page 61


 772      A4D0A428 
 772      983D1C9D 
 772      2CF5D37B 
 772      85
 773 137c 1472B22C 		.ascii	"\024r\262,}\362\377\000{\207\351o"
 773      7DF2FF00 
 773      7B87E96F 
 774              		.text
 775              		.section	.gnu.lto_.symtab.98ce37eee27d8eb2,"",%progbits
 776 0000 63685365 		.ascii	"chSemObjectInit\000\000\000\000\000\000\000\000\000"
 776      6D4F626A 
 776      65637449 
 776      6E697400 
 776      00000000 
 777 0018 00000082 		.ascii	"\000\000\000\202\001\000\000chSemResetI\000\000\000"
 777      01000063 
 777      6853656D 
 777      52657365 
 777      74490000 
 778 002d 00000000 		.ascii	"\000\000\000\000\000\000\000\000\000\213\001\000\000"
 778      00000000 
 778      008B0100 
 778      00
 779 003a 63685365 		.ascii	"chSemReset\000\000\000\000\000\000\000\000\000\000\000"
 779      6D526573 
 779      65740000 
 779      00000000 
 779      00000000 
 780 004f 00900100 		.ascii	"\000\220\001\000\000chSemWait\000\000\000\000\000\000"
 780      00636853 
 780      656D5761 
 780      69740000 
 780      00000000 
 781 0063 00000000 		.ascii	"\000\000\000\000\000\000\225\001\000\000chSemWaitS\000"
 781      00009501 
 781      00006368 
 781      53656D57 
 781      61697453 
 782 0078 00000000 		.ascii	"\000\000\000\000\000\000\000\000\000\000\000\233\001"
 782      00000000 
 782      0000009B 
 782      01
 783 0085 00006368 		.ascii	"\000\000chSemWaitTimeoutS\000\000\000\000\000\000\000"
 783      53656D57 
 783      61697454 
 783      696D656F 
 783      75745300 
 784 009f 00000000 		.ascii	"\000\000\000\000\000\237\001\000\000chSemWaitTimeou"
 784      009F0100 
 784      00636853 
 784      656D5761 
 784      69745469 
 785 00b7 74000000 		.ascii	"t\000\000\000\000\000\000\000\000\000\000\000\000\247"
 785      00000000 
 785      00000000 
 785      00A7
 786 00c5 01000063 		.ascii	"\001\000\000chSemSignal\000\000\000\000\000\000\000"
ARM GAS  /tmp/ccGp8fg9.s 			page 62


 786      6853656D 
 786      5369676E 
 786      616C0000 
 786      00000000 
 787 00da 00000000 		.ascii	"\000\000\000\000\000\254\001\000\000chSemSignalI\000"
 787      00AC0100 
 787      00636853 
 787      656D5369 
 787      676E616C 
 788 00f0 00000000 		.ascii	"\000\000\000\000\000\000\000\000\000\000\000\262\001"
 788      00000000 
 788      000000B2 
 788      01
 789 00fd 00006368 		.ascii	"\000\000chSemAddCounterI\000\000\000\000\000\000\000"
 789      53656D41 
 789      6464436F 
 789      756E7465 
 789      72490000 
 790 0116 00000000 		.ascii	"\000\000\000\000\000\266\001\000\000chSemSignalWait"
 790      00B60100 
 790      00636853 
 790      656D5369 
 790      676E616C 
 791 012e 00000000 		.ascii	"\000\000\000\000\000\000\000\000\000\000\000\000\273"
 791      00000000 
 791      00000000 
 791      BB
 792 013b 01000063 		.ascii	"\001\000\000ch\000\000\002\000\000\000\000\000\000\000"
 792      68000002 
 792      00000000 
 792      000000
 793 014a 0000DA01 		.ascii	"\000\000\332\001\000\000chSchGoSleepS\000\000\002\000"
 793      00006368 
 793      53636847 
 793      6F536C65 
 793      65705300 
 794 0161 00000000 		.ascii	"\000\000\000\000\000\000\000\000\305\001\000\000chS"
 794      00000000 
 794      C5010000 
 794      636853
 795 0170 6368476F 		.ascii	"chGoSleepTimeoutS\000\000\002\000\000\000\000\000\000"
 795      536C6565 
 795      7054696D 
 795      656F7574 
 795      53000002 
 796 018a 000000C9 		.ascii	"\000\000\000\311\001\000\000chSchReadyI\000\000\002"
 796      01000063 
 796      68536368 
 796      52656164 
 796      79490000 
 797 019f 00000000 		.ascii	"\000\000\000\000\000\000\000\000\000\316\001\000\000"
 797      00000000 
 797      00CE0100 
 797      00
 798 01ac 63685363 		.ascii	"chSchRescheduleS\000\000\002\000\000\000\000\000\000"
 798      68526573 
 798      63686564 
ARM GAS  /tmp/ccGp8fg9.s 			page 63


 798      756C6553 
 798      00000200 
 799 01c5 000000D2 		.ascii	"\000\000\000\322\001\000\000chSchWakeupS\000\000\002"
 799      01000063 
 799      68536368 
 799      57616B65 
 799      75705300 
 800 01db 00000000 		.ascii	"\000\000\000\000\000\000\000\000\000\325\001\000\000"
 800      00000000 
 800      00D50100 
 800      00
 801              		.text
 802              		.section	.gnu.lto_.opts,"",%progbits
 803 0000 272D6D63 		.ascii	"'-mcpu=cortex-m4' '-mfloat-abi=hard' '-mfpu=fpv4-sp"
 803      70753D63 
 803      6F727465 
 803      782D6D34 
 803      2720272D 
 804 0033 2D643136 		.ascii	"-d16' '-mno-thumb-interwork' '-mthumb' '-O2' '-fomi"
 804      2720272D 
 804      6D6E6F2D 
 804      7468756D 
 804      622D696E 
 805 0066 742D6672 		.ascii	"t-frame-pointer' '-falign-functions=16' '-ffunction"
 805      616D652D 
 805      706F696E 
 805      74657227 
 805      20272D66 
 806 0099 2D736563 		.ascii	"-sections' '-fdata-sections' '-fno-common' '-flto' "
 806      74696F6E 
 806      73272027 
 806      2D666461 
 806      74612D73 
 807 00cc 272D6673 		.ascii	"'-fsingle-precision-constant'\000"
 807      696E676C 
 807      652D7072 
 807      65636973 
 807      696F6E2D 
 808              		.text
 809              		.section	.text.chSemObjectInit,"ax",%progbits
 810              		.align	2
 811              		.p2align 4,,15
 812              		.global	chSemObjectInit
 813              		.thumb
 814              		.thumb_func
 815              		.type	chSemObjectInit, %function
 816              	chSemObjectInit:
 817              		@ args = 0, pretend = 0, frame = 0
 818              		@ frame_needed = 0, uses_anonymous_args = 0
 819              		@ link register save eliminated.
 820 0000 4060     		str	r0, [r0, #4]
 821 0002 0060     		str	r0, [r0]
 822 0004 8160     		str	r1, [r0, #8]
 823 0006 7047     		bx	lr
 824              		.size	chSemObjectInit, .-chSemObjectInit
 825 0008 AFF30080 		.section	.text.chSemResetI,"ax",%progbits
 825      AFF30080 
ARM GAS  /tmp/ccGp8fg9.s 			page 64


 826              		.align	2
 827              		.p2align 4,,15
 828              		.global	chSemResetI
 829              		.thumb
 830              		.thumb_func
 831              		.type	chSemResetI, %function
 832              	chSemResetI:
 833              		@ args = 0, pretend = 0, frame = 0
 834              		@ frame_needed = 0, uses_anonymous_args = 0
 835 0000 70B5     		push	{r4, r5, r6, lr}
 836 0002 8568     		ldr	r5, [r0, #8]
 837 0004 8160     		str	r1, [r0, #8]
 838 0006 0135     		adds	r5, r5, #1
 839 0008 002D     		cmp	r5, #0
 840 000a 0446     		mov	r4, r0
 841 000c 0BDC     		bgt	.L2
 842 000e 6FF00106 		mvn	r6, #1
 843              	.L5:
 844 0012 6068     		ldr	r0, [r4, #4]
 845 0014 4368     		ldr	r3, [r0, #4]
 846 0016 6360     		str	r3, [r4, #4]
 847 0018 1C60     		str	r4, [r3]
 848 001a FFF7FEFF 		bl	chSchReadyI
 849 001e 0135     		adds	r5, r5, #1
 850 0020 012D     		cmp	r5, #1
 851 0022 0662     		str	r6, [r0, #32]
 852 0024 F5D1     		bne	.L5
 853              	.L2:
 854 0026 70BD     		pop	{r4, r5, r6, pc}
 855              		.size	chSemResetI, .-chSemResetI
 856 0028 AFF30080 		.section	.text.chSemReset,"ax",%progbits
 856      AFF30080 
 857              		.align	2
 858              		.p2align 4,,15
 859              		.global	chSemReset
 860              		.thumb
 861              		.thumb_func
 862              		.type	chSemReset, %function
 863              	chSemReset:
 864              		@ args = 0, pretend = 0, frame = 0
 865              		@ frame_needed = 0, uses_anonymous_args = 0
 866 0000 08B5     		push	{r3, lr}
 867 0002 2023     		movs	r3, #32
 868              	@ 546 "/home/cody/dev/chibios/trunk/os/ext/CMSIS/include/core_cmFunc.h" 1
 869 0004 83F31188 		MSR basepri, r3
 870              	@ 0 "" 2
 871              		.thumb
 872 0008 FFF7FEFF 		bl	chSemResetI
 873 000c FFF7FEFF 		bl	chSchRescheduleS
 874 0010 0023     		movs	r3, #0
 875              	@ 546 "/home/cody/dev/chibios/trunk/os/ext/CMSIS/include/core_cmFunc.h" 1
 876 0012 83F31188 		MSR basepri, r3
 877              	@ 0 "" 2
 878              		.thumb
 879 0016 08BD     		pop	{r3, pc}
 880              		.size	chSemReset, .-chSemReset
 881 0018 AFF30080 		.section	.text.chSemWait,"ax",%progbits
ARM GAS  /tmp/ccGp8fg9.s 			page 65


 881      AFF30080 
 882              		.align	2
 883              		.p2align 4,,15
 884              		.global	chSemWait
 885              		.thumb
 886              		.thumb_func
 887              		.type	chSemWait, %function
 888              	chSemWait:
 889              		@ args = 0, pretend = 0, frame = 0
 890              		@ frame_needed = 0, uses_anonymous_args = 0
 891 0000 10B5     		push	{r4, lr}
 892 0002 0346     		mov	r3, r0
 893 0004 2022     		movs	r2, #32
 894              	@ 546 "/home/cody/dev/chibios/trunk/os/ext/CMSIS/include/core_cmFunc.h" 1
 895 0006 82F31188 		MSR basepri, r2
 896              	@ 0 "" 2
 897              		.thumb
 898 000a 8268     		ldr	r2, [r0, #8]
 899 000c 013A     		subs	r2, r2, #1
 900 000e 002A     		cmp	r2, #0
 901 0010 8260     		str	r2, [r0, #8]
 902 0012 04DB     		blt	.L14
 903 0014 0020     		movs	r0, #0
 904 0016 0023     		movs	r3, #0
 905              	@ 546 "/home/cody/dev/chibios/trunk/os/ext/CMSIS/include/core_cmFunc.h" 1
 906 0018 83F31188 		MSR basepri, r3
 907              	@ 0 "" 2
 908              		.thumb
 909 001c 10BD     		pop	{r4, pc}
 910              	.L14:
 911 001e 084C     		ldr	r4, .L15
 912 0020 A269     		ldr	r2, [r4, #24]
 913 0022 1062     		str	r0, [r2, #32]
 914 0024 4168     		ldr	r1, [r0, #4]
 915 0026 5160     		str	r1, [r2, #4]
 916 0028 1060     		str	r0, [r2]
 917 002a 5A60     		str	r2, [r3, #4]
 918 002c 0520     		movs	r0, #5
 919 002e 0A60     		str	r2, [r1]
 920 0030 FFF7FEFF 		bl	chSchGoSleepS
 921 0034 A369     		ldr	r3, [r4, #24]
 922 0036 186A     		ldr	r0, [r3, #32]
 923 0038 0023     		movs	r3, #0
 924              	@ 546 "/home/cody/dev/chibios/trunk/os/ext/CMSIS/include/core_cmFunc.h" 1
 925 003a 83F31188 		MSR basepri, r3
 926              	@ 0 "" 2
 927              		.thumb
 928 003e 10BD     		pop	{r4, pc}
 929              	.L16:
 930              		.align	2
 931              	.L15:
 932 0040 00000000 		.word	ch
 933              		.size	chSemWait, .-chSemWait
 934 0044 AFF30080 		.section	.text.chSemWaitS,"ax",%progbits
 934      AFF30080 
 934      AFF30080 
 935              		.align	2
ARM GAS  /tmp/ccGp8fg9.s 			page 66


 936              		.p2align 4,,15
 937              		.global	chSemWaitS
 938              		.thumb
 939              		.thumb_func
 940              		.type	chSemWaitS, %function
 941              	chSemWaitS:
 942              		@ args = 0, pretend = 0, frame = 0
 943              		@ frame_needed = 0, uses_anonymous_args = 0
 944 0000 8268     		ldr	r2, [r0, #8]
 945 0002 013A     		subs	r2, r2, #1
 946 0004 002A     		cmp	r2, #0
 947 0006 10B5     		push	{r4, lr}
 948 0008 0346     		mov	r3, r0
 949 000a 8260     		str	r2, [r0, #8]
 950 000c 01DB     		blt	.L20
 951 000e 0020     		movs	r0, #0
 952 0010 10BD     		pop	{r4, pc}
 953              	.L20:
 954 0012 074C     		ldr	r4, .L21
 955 0014 A269     		ldr	r2, [r4, #24]
 956 0016 1062     		str	r0, [r2, #32]
 957 0018 4168     		ldr	r1, [r0, #4]
 958 001a 5160     		str	r1, [r2, #4]
 959 001c 1060     		str	r0, [r2]
 960 001e 5A60     		str	r2, [r3, #4]
 961 0020 0520     		movs	r0, #5
 962 0022 0A60     		str	r2, [r1]
 963 0024 FFF7FEFF 		bl	chSchGoSleepS
 964 0028 A369     		ldr	r3, [r4, #24]
 965 002a 186A     		ldr	r0, [r3, #32]
 966 002c 10BD     		pop	{r4, pc}
 967              	.L22:
 968 002e 00BF     		.align	2
 969              	.L21:
 970 0030 00000000 		.word	ch
 971              		.size	chSemWaitS, .-chSemWaitS
 972 0034 AFF30080 		.section	.text.chSemWaitTimeoutS,"ax",%progbits
 972      AFF30080 
 972      AFF30080 
 973              		.align	2
 974              		.p2align 4,,15
 975              		.global	chSemWaitTimeoutS
 976              		.thumb
 977              		.thumb_func
 978              		.type	chSemWaitTimeoutS, %function
 979              	chSemWaitTimeoutS:
 980              		@ args = 0, pretend = 0, frame = 0
 981              		@ frame_needed = 0, uses_anonymous_args = 0
 982              		@ link register save eliminated.
 983 0000 0346     		mov	r3, r0
 984 0002 8068     		ldr	r0, [r0, #8]
 985 0004 421E     		subs	r2, r0, #1
 986 0006 002A     		cmp	r2, #0
 987 0008 10B4     		push	{r4}
 988 000a 9A60     		str	r2, [r3, #8]
 989 000c 03DB     		blt	.L27
 990 000e 0020     		movs	r0, #0
ARM GAS  /tmp/ccGp8fg9.s 			page 67


 991              	.L24:
 992 0010 5DF8044B 		ldr	r4, [sp], #4
 993 0014 7047     		bx	lr
 994              	.L27:
 995 0016 61B1     		cbz	r1, .L28
 996 0018 084A     		ldr	r2, .L29
 997 001a 9269     		ldr	r2, [r2, #24]
 998 001c 1362     		str	r3, [r2, #32]
 999 001e 5C68     		ldr	r4, [r3, #4]
 1000 0020 0520     		movs	r0, #5
 1001 0022 82E81800 		stmia	r2, {r3, r4}
 1002 0026 5A60     		str	r2, [r3, #4]
 1003 0028 2260     		str	r2, [r4]
 1004 002a 5DF8044B 		ldr	r4, [sp], #4
 1005 002e FFF7FEBF 		b	chSchGoSleepTimeoutS
 1006              	.L28:
 1007 0032 9860     		str	r0, [r3, #8]
 1008 0034 4FF0FF30 		mov	r0, #-1
 1009 0038 EAE7     		b	.L24
 1010              	.L30:
 1011 003a 00BF     		.align	2
 1012              	.L29:
 1013 003c 00000000 		.word	ch
 1014              		.size	chSemWaitTimeoutS, .-chSemWaitTimeoutS
 1015              		.section	.text.chSemWaitTimeout,"ax",%progbits
 1016              		.align	2
 1017              		.p2align 4,,15
 1018              		.global	chSemWaitTimeout
 1019              		.thumb
 1020              		.thumb_func
 1021              		.type	chSemWaitTimeout, %function
 1022              	chSemWaitTimeout:
 1023              		@ args = 0, pretend = 0, frame = 0
 1024              		@ frame_needed = 0, uses_anonymous_args = 0
 1025 0000 08B5     		push	{r3, lr}
 1026 0002 2023     		movs	r3, #32
 1027              	@ 546 "/home/cody/dev/chibios/trunk/os/ext/CMSIS/include/core_cmFunc.h" 1
 1028 0004 83F31188 		MSR basepri, r3
 1029              	@ 0 "" 2
 1030              		.thumb
 1031 0008 FFF7FEFF 		bl	chSemWaitTimeoutS
 1032 000c 0023     		movs	r3, #0
 1033              	@ 546 "/home/cody/dev/chibios/trunk/os/ext/CMSIS/include/core_cmFunc.h" 1
 1034 000e 83F31188 		MSR basepri, r3
 1035              	@ 0 "" 2
 1036              		.thumb
 1037 0012 08BD     		pop	{r3, pc}
 1038              		.size	chSemWaitTimeout, .-chSemWaitTimeout
 1039 0014 AFF30080 		.section	.text.chSemSignal,"ax",%progbits
 1039      AFF30080 
 1039      AFF30080 
 1040              		.align	2
 1041              		.p2align 4,,15
 1042              		.global	chSemSignal
 1043              		.thumb
 1044              		.thumb_func
 1045              		.type	chSemSignal, %function
ARM GAS  /tmp/ccGp8fg9.s 			page 68


 1046              	chSemSignal:
 1047              		@ args = 0, pretend = 0, frame = 0
 1048              		@ frame_needed = 0, uses_anonymous_args = 0
 1049 0000 08B5     		push	{r3, lr}
 1050 0002 2022     		movs	r2, #32
 1051 0004 0346     		mov	r3, r0
 1052              	@ 546 "/home/cody/dev/chibios/trunk/os/ext/CMSIS/include/core_cmFunc.h" 1
 1053 0006 82F31188 		MSR basepri, r2
 1054              	@ 0 "" 2
 1055              		.thumb
 1056 000a 8268     		ldr	r2, [r0, #8]
 1057 000c 0132     		adds	r2, r2, #1
 1058 000e 002A     		cmp	r2, #0
 1059 0010 8260     		str	r2, [r0, #8]
 1060 0012 03DD     		ble	.L34
 1061 0014 0023     		movs	r3, #0
 1062              	@ 546 "/home/cody/dev/chibios/trunk/os/ext/CMSIS/include/core_cmFunc.h" 1
 1063 0016 83F31188 		MSR basepri, r3
 1064              	@ 0 "" 2
 1065              		.thumb
 1066 001a 08BD     		pop	{r3, pc}
 1067              	.L34:
 1068 001c 0068     		ldr	r0, [r0]
 1069 001e 0268     		ldr	r2, [r0]
 1070 0020 1A60     		str	r2, [r3]
 1071 0022 0021     		movs	r1, #0
 1072 0024 5360     		str	r3, [r2, #4]
 1073 0026 FFF7FEFF 		bl	chSchWakeupS
 1074 002a 0023     		movs	r3, #0
 1075              	@ 546 "/home/cody/dev/chibios/trunk/os/ext/CMSIS/include/core_cmFunc.h" 1
 1076 002c 83F31188 		MSR basepri, r3
 1077              	@ 0 "" 2
 1078              		.thumb
 1079 0030 08BD     		pop	{r3, pc}
 1080              		.size	chSemSignal, .-chSemSignal
 1081 0032 00BFAFF3 		.section	.text.chSemSignalI,"ax",%progbits
 1081      0080AFF3 
 1081      0080AFF3 
 1081      0080
 1082              		.align	2
 1083              		.p2align 4,,15
 1084              		.global	chSemSignalI
 1085              		.thumb
 1086              		.thumb_func
 1087              		.type	chSemSignalI, %function
 1088              	chSemSignalI:
 1089              		@ args = 0, pretend = 0, frame = 0
 1090              		@ frame_needed = 0, uses_anonymous_args = 0
 1091              		@ link register save eliminated.
 1092 0000 8368     		ldr	r3, [r0, #8]
 1093 0002 0133     		adds	r3, r3, #1
 1094 0004 002B     		cmp	r3, #0
 1095 0006 8360     		str	r3, [r0, #8]
 1096 0008 00DD     		ble	.L37
 1097 000a 7047     		bx	lr
 1098              	.L37:
 1099 000c 0368     		ldr	r3, [r0]
ARM GAS  /tmp/ccGp8fg9.s 			page 69


 1100 000e 1A68     		ldr	r2, [r3]
 1101 0010 0260     		str	r2, [r0]
 1102 0012 0021     		movs	r1, #0
 1103 0014 5060     		str	r0, [r2, #4]
 1104 0016 1846     		mov	r0, r3
 1105 0018 1962     		str	r1, [r3, #32]
 1106 001a FFF7FEBF 		b	chSchReadyI
 1107              		.size	chSemSignalI, .-chSemSignalI
 1108 001e 00BF     		.section	.text.chSemAddCounterI,"ax",%progbits
 1109              		.align	2
 1110              		.p2align 4,,15
 1111              		.global	chSemAddCounterI
 1112              		.thumb
 1113              		.thumb_func
 1114              		.type	chSemAddCounterI, %function
 1115              	chSemAddCounterI:
 1116              		@ args = 0, pretend = 0, frame = 0
 1117              		@ frame_needed = 0, uses_anonymous_args = 0
 1118 0000 70B5     		push	{r4, r5, r6, lr}
 1119 0002 0C1E     		subs	r4, r1, #0
 1120 0004 0546     		mov	r5, r0
 1121 0006 11DD     		ble	.L38
 1122 0008 0026     		movs	r6, #0
 1123 000a 01E0     		b	.L42
 1124              	.L40:
 1125 000c 013C     		subs	r4, r4, #1
 1126 000e 0DD0     		beq	.L38
 1127              	.L42:
 1128 0010 AB68     		ldr	r3, [r5, #8]
 1129 0012 0133     		adds	r3, r3, #1
 1130 0014 002B     		cmp	r3, #0
 1131 0016 AB60     		str	r3, [r5, #8]
 1132 0018 F8DC     		bgt	.L40
 1133 001a 2868     		ldr	r0, [r5]
 1134 001c 0368     		ldr	r3, [r0]
 1135 001e 2B60     		str	r3, [r5]
 1136 0020 5D60     		str	r5, [r3, #4]
 1137 0022 FFF7FEFF 		bl	chSchReadyI
 1138 0026 013C     		subs	r4, r4, #1
 1139 0028 0662     		str	r6, [r0, #32]
 1140 002a F1D1     		bne	.L42
 1141              	.L38:
 1142 002c 70BD     		pop	{r4, r5, r6, pc}
 1143              		.size	chSemAddCounterI, .-chSemAddCounterI
 1144 002e 00BF     		.section	.text.chSemSignalWait,"ax",%progbits
 1145              		.align	2
 1146              		.p2align 4,,15
 1147              		.global	chSemSignalWait
 1148              		.thumb
 1149              		.thumb_func
 1150              		.type	chSemSignalWait, %function
 1151              	chSemSignalWait:
 1152              		@ args = 0, pretend = 0, frame = 8
 1153              		@ frame_needed = 0, uses_anonymous_args = 0
 1154 0000 10B5     		push	{r4, lr}
 1155 0002 0346     		mov	r3, r0
 1156 0004 82B0     		sub	sp, sp, #8
ARM GAS  /tmp/ccGp8fg9.s 			page 70


 1157 0006 2022     		movs	r2, #32
 1158              	@ 546 "/home/cody/dev/chibios/trunk/os/ext/CMSIS/include/core_cmFunc.h" 1
 1159 0008 82F31188 		MSR basepri, r2
 1160              	@ 0 "" 2
 1161              		.thumb
 1162 000c 8268     		ldr	r2, [r0, #8]
 1163 000e 0132     		adds	r2, r2, #1
 1164 0010 002A     		cmp	r2, #0
 1165 0012 8260     		str	r2, [r0, #8]
 1166 0014 1DDD     		ble	.L50
 1167              	.L47:
 1168 0016 8B68     		ldr	r3, [r1, #8]
 1169 0018 013B     		subs	r3, r3, #1
 1170 001a 002B     		cmp	r3, #0
 1171 001c 8B60     		str	r3, [r1, #8]
 1172 001e 07DB     		blt	.L51
 1173 0020 FFF7FEFF 		bl	chSchRescheduleS
 1174 0024 0020     		movs	r0, #0
 1175 0026 0023     		movs	r3, #0
 1176              	@ 546 "/home/cody/dev/chibios/trunk/os/ext/CMSIS/include/core_cmFunc.h" 1
 1177 0028 83F31188 		MSR basepri, r3
 1178              	@ 0 "" 2
 1179              		.thumb
 1180 002c 02B0     		add	sp, sp, #8
 1181              		@ sp needed
 1182 002e 10BD     		pop	{r4, pc}
 1183              	.L51:
 1184 0030 0D4A     		ldr	r2, .L52
 1185 0032 4B68     		ldr	r3, [r1, #4]
 1186 0034 9469     		ldr	r4, [r2, #24]
 1187 0036 0520     		movs	r0, #5
 1188 0038 84E80A00 		stmia	r4, {r1, r3}
 1189 003c 4C60     		str	r4, [r1, #4]
 1190 003e 1C60     		str	r4, [r3]
 1191 0040 2162     		str	r1, [r4, #32]
 1192 0042 FFF7FEFF 		bl	chSchGoSleepS
 1193 0046 206A     		ldr	r0, [r4, #32]
 1194 0048 0023     		movs	r3, #0
 1195              	@ 546 "/home/cody/dev/chibios/trunk/os/ext/CMSIS/include/core_cmFunc.h" 1
 1196 004a 83F31188 		MSR basepri, r3
 1197              	@ 0 "" 2
 1198              		.thumb
 1199 004e 02B0     		add	sp, sp, #8
 1200              		@ sp needed
 1201 0050 10BD     		pop	{r4, pc}
 1202              	.L50:
 1203 0052 0068     		ldr	r0, [r0]
 1204 0054 0268     		ldr	r2, [r0]
 1205 0056 1A60     		str	r2, [r3]
 1206 0058 5360     		str	r3, [r2, #4]
 1207 005a 0191     		str	r1, [sp, #4]
 1208 005c FFF7FEFF 		bl	chSchReadyI
 1209 0060 0023     		movs	r3, #0
 1210 0062 0362     		str	r3, [r0, #32]
 1211 0064 0199     		ldr	r1, [sp, #4]
 1212 0066 D6E7     		b	.L47
 1213              	.L53:
ARM GAS  /tmp/ccGp8fg9.s 			page 71


 1214              		.align	2
 1215              	.L52:
 1216 0068 00000000 		.word	ch
 1217              		.size	chSemSignalWait, .-chSemSignalWait
 1218              		.comm	__gnu_lto_v1,1,1
 1219 006c AFF30080 		.ident	"GCC: (GNU Tools for ARM Embedded Processors) 4.8.4 20140526 (release) [ARM/embedded-4_8-br
ARM GAS  /tmp/ccGp8fg9.s 			page 72


DEFINED SYMBOLS
                            *ABS*:0000000000000000 chsem.c
     /tmp/ccGp8fg9.s:810    .text.chSemObjectInit:0000000000000000 $t
     /tmp/ccGp8fg9.s:816    .text.chSemObjectInit:0000000000000000 chSemObjectInit
     /tmp/ccGp8fg9.s:826    .text.chSemResetI:0000000000000000 $t
     /tmp/ccGp8fg9.s:832    .text.chSemResetI:0000000000000000 chSemResetI
     /tmp/ccGp8fg9.s:857    .text.chSemReset:0000000000000000 $t
     /tmp/ccGp8fg9.s:863    .text.chSemReset:0000000000000000 chSemReset
     /tmp/ccGp8fg9.s:882    .text.chSemWait:0000000000000000 $t
     /tmp/ccGp8fg9.s:888    .text.chSemWait:0000000000000000 chSemWait
     /tmp/ccGp8fg9.s:932    .text.chSemWait:0000000000000040 $d
     /tmp/ccGp8fg9.s:935    .text.chSemWaitS:0000000000000000 $t
     /tmp/ccGp8fg9.s:941    .text.chSemWaitS:0000000000000000 chSemWaitS
     /tmp/ccGp8fg9.s:970    .text.chSemWaitS:0000000000000030 $d
     /tmp/ccGp8fg9.s:973    .text.chSemWaitTimeoutS:0000000000000000 $t
     /tmp/ccGp8fg9.s:979    .text.chSemWaitTimeoutS:0000000000000000 chSemWaitTimeoutS
     /tmp/ccGp8fg9.s:1013   .text.chSemWaitTimeoutS:000000000000003c $d
     /tmp/ccGp8fg9.s:1016   .text.chSemWaitTimeout:0000000000000000 $t
     /tmp/ccGp8fg9.s:1022   .text.chSemWaitTimeout:0000000000000000 chSemWaitTimeout
     /tmp/ccGp8fg9.s:1040   .text.chSemSignal:0000000000000000 $t
     /tmp/ccGp8fg9.s:1046   .text.chSemSignal:0000000000000000 chSemSignal
     /tmp/ccGp8fg9.s:1082   .text.chSemSignalI:0000000000000000 $t
     /tmp/ccGp8fg9.s:1088   .text.chSemSignalI:0000000000000000 chSemSignalI
     /tmp/ccGp8fg9.s:1109   .text.chSemAddCounterI:0000000000000000 $t
     /tmp/ccGp8fg9.s:1115   .text.chSemAddCounterI:0000000000000000 chSemAddCounterI
     /tmp/ccGp8fg9.s:1145   .text.chSemSignalWait:0000000000000000 $t
     /tmp/ccGp8fg9.s:1151   .text.chSemSignalWait:0000000000000000 chSemSignalWait
     /tmp/ccGp8fg9.s:1216   .text.chSemSignalWait:0000000000000068 $d
                            *COM*:0000000000000001 __gnu_lto_v1
     /tmp/ccGp8fg9.s:934    .text.chSemWait:0000000000000044 $t
     /tmp/ccGp8fg9.s:972    .text.chSemWaitS:0000000000000034 $t
     /tmp/ccGp8fg9.s:1219   .text.chSemSignalWait:000000000000006c $t

UNDEFINED SYMBOLS
chSchReadyI
chSchRescheduleS
chSchGoSleepS
ch
chSchGoSleepTimeoutS
chSchWakeupS
