ARM GAS  /tmp/cc1SpKIA.s 			page 1


   1              		.syntax unified
   2              		.cpu cortex-m4
   3              		.eabi_attribute 27, 3
   4              		.eabi_attribute 28, 1
   5              		.fpu fpv4-sp-d16
   6              		.eabi_attribute 20, 1
   7              		.eabi_attribute 21, 1
   8              		.eabi_attribute 23, 3
   9              		.eabi_attribute 24, 1
  10              		.eabi_attribute 25, 1
  11              		.eabi_attribute 26, 1
  12              		.eabi_attribute 30, 2
  13              		.eabi_attribute 34, 1
  14              		.eabi_attribute 18, 4
  15              		.thumb
  16              		.file	"chsys.c"
  17              		.section	.gnu.lto_.jmpfuncs.9ff4dc438a46aaa9,"",%progbits
  18 0000 789C6362 		.ascii	"x\234cb`b\300\006\272\2414\017\003\003#\0033\020\203"
  18      6062C006 
  18      BAA1340F 
  18      03032303 
  18      331083
  19 0013 68867A06 		.ascii	"h\206z\006\006\026\006V\006\0066\006V\246j\206_\015"
  19      06160656 
  19      06063606 
  19      56A66A86 
  19      5F0D
  20 0025 1D0D0299 		.ascii	"\035\015\002\231\214\014\271\214`\245L\021\214\231\214"
  20      8C0CB98C 
  20      60A54C11 
  20      8C998C
  21 0034 8C0F98A0 		.ascii	"\214\017\230\240,&\240(B\021s2\222\"\026\020\003!\307"
  21      2C26A028 
  21      42117332 
  21      92221610 
  21      0321C7
  22 0047 9ACBC808 		.ascii	"\232\313\310\010\227cr\2009\201\213\221\033l?/#\003"
  22      97637280 
  22      39818B91 
  22      1B6C3F2F 
  22      2303
  23 0059 1F3B3F23 		.ascii	"\037;?#\003\0007~\021\200"
  23      0300377E 
  23      1180
  24              		.text
  25              		.section	.gnu.lto_.inline.9ff4dc438a46aaa9,"",%progbits
  26 0000 789C758F 		.ascii	"x\234u\217\261\015\3020\020E\3779\216\023\022\207D("
  26      B10DC230 
  26      1045FF39 
  26      8E131287 
  26      4428
  27 0012 05501006 		.ascii	"\005P\020\006@\214\222\232\206\032X\201\001\250\020"
  27      408C929A 
  27      861A5881 
  27      01A810
  28 0021 CA081982 		.ascii	"\312\010\031\202-h\250\221\2202\0025\025>'\030\020\340"
  28      2D68A891 
ARM GAS  /tmp/cc1SpKIA.s 			page 2


  28      90320235 
  28      153E2718 
  28      10E0
  29 0033 C2FEFAF7 		.ascii	"\302\376\372\367\316\377N@\340\327\331R\373j K\011b"
  29      CEFF4E40 
  29      E0D7D952 
  29      FB6A204B 
  29      0962
  30 0045 5C9D08AA 		.ascii	"\\\235\010\252.,M\220\302x\262. \333~\017\323\013[\263"
  30      2E2C4D90 
  30      C278B22E 
  30      20DB7E0F 
  30      D30B5BB3 
  31 0059 E33D7798 		.ascii	"\343=w\230\210\015Z\225\024\031-3b-\321\013\014\246"
  31      880D5A95 
  31      14192D33 
  31      622DD10B 
  31      0CA6
  32 006b ABD2513E 		.ascii	"\253\322Q>\242\230\255\303\313\262\035\012\243\006\\"
  32      A298ADC3 
  32      CBB21D0A 
  32      A3065C
  33 007a 6896AEA0 		.ascii	"h\226\256\240R\346\371\310\004\234l\311\277W\3645g\014"
  33      52E6F9C8 
  33      049C6CC9 
  33      BF57F435 
  33      670C
  34 008c A9C9CA8F 		.ascii	"\251\311\312\217,\215\200gP\267\371\247\237@E\344a\265"
  34      2C8D8067 
  34      50B7F9A7 
  34      9F4045E4 
  34      61B5
  35 009e A00D2976 		.ascii	"\240\015)v\327N\221\335\272\373\307$d]\223\004\372H"
  35      D74E91DD 
  35      BAFBC724 
  35      645D9304 
  35      FA48
  36 00b0 02F20413 		.ascii	"\002\362\004\023DO\326\177c5\302\272\030\"<\2479\227"
  36      444FD67F 
  36      6335C2BA 
  36      18223CA7 
  36      3997
  37 00c2 530CAEBC 		.ascii	"S\014\256\274\351d\267\217]>\036gI\0376"
  37      E964B78F 
  37      5D3E1E67 
  37      491F36
  38              		.text
  39              		.section	.gnu.lto_.pureconst.9ff4dc438a46aaa9,"",%progbits
  40 0000 789C6362 		.ascii	"x\234cb`b\220d\200\000\036\006)F3f+\026+V+6+.3n\011"
  40      60629064 
  40      80001E06 
  40      29463366 
  40      2B162B56 
  41 001b 1E2B5E09 		.ascii	"\036+^\011>\006~)\000\"\330\002z"
  41      3E067E29 
  41      0022D802 
  41      7A
ARM GAS  /tmp/cc1SpKIA.s 			page 3


  42              		.text
  43              		.section	.gnu.lto_port_init.9ff4dc438a46aaa9,"",%progbits
  44 0000 789CAD93 		.ascii	"x\234\255\223Oh\023A\024\306\337\333?\3156\311\226\340"
  44      4F681341 
  44      14C6DFDB 
  44      3FCD36C9 
  44      96E0
  45 0012 4111148A 		.ascii	"A\021\024\212\327\252\213 x\020A\351)`.\266B=\225t\263"
  45      D7AA8B20 
  45      781041E9 
  45      29602EB6 
  45      423D9574 
  46 0027 6C169B46 		.ascii	"l\026\233F\322$\324S'$\352\245H\360R\255\036Rc\255T"
  46      D224D453 
  46      2724EAA5 
  46      48F052AD 
  46      1E5263AD 
  47 003c 316011A2 		.ascii	"1`\021\242^\202\340\301\203b=\326\202AA\304^\352\245"
  47      5E82E0C1 
  47      83623DD6 
  47      824141C4 
  47      5EEAA5
  48 004f 7808C679 		.ascii	"x\010\306y;\273\261\255\332\366\340\300\316\333\235"
  48      3BBBB1AD 
  48      DAF6E0C0 
  48      CEDB9D
  49 005e 79F37DBF 		.ascii	"y\363}\277\231y+\201\004[\333~\376D\025\200k<\242\014"
  49      99792B81 
  49      045BDB7E 
  49      FE441580 
  49      6B3CA20C 
  50 0072 2895DF02 		.ascii	"(\225\337\002\0244\011\221^\000aR\302\311\013H\251x"
  50      14340991 
  50      5E006152 
  50      C2C90B48 
  50      A978
  51 0084 086619BB 		.ascii	"\010f\031\273\321\234\253M\037\270\305\032\245\012k"
  51      D19CAB4D 
  51      1FB8C51A 
  51      A50A6B
  52 0093 B5DB880E 		.ascii	"\265\333\210\016r\331\323\010&\302\020\377\300^7H\312"
  52      72D9D308 
  52      26C210FF 
  52      C05E3748 
  52      CA
  53 00a4 669F9AD4 		.ascii	"f\237\232\324h\266\333\217\027\353\265\263\255%u\217"
  53      68B6DB8F 
  53      17EBB5B3 
  53      AD25758F 
  54 00b4 020ECA2A 		.ascii	"\002\016\312*u\001\3524\352\302\020\307Yn\242{\261\307"
  54      7501EA34 
  54      EAC210C7 
  54      596EA27B 
  54      B1C7
  55 00c6 8BBCA950 		.ascii	"\213\274\251Pb\254\334\013d\302\333 \357\011\357<J\024"
  55      62ACDC0B 
  55      64C2DB20 
ARM GAS  /tmp/cc1SpKIA.s 			page 4


  55      EF09EF3C 
  55      4A14
  56 00d8 E537F0B2 		.ascii	"\3457\360\262^\377\371\015\343XE\025\372`\201\225\012"
  56      5EFFF90D 
  56      E3584515 
  56      FA608195 
  56      0A
  57 00e9 4C7750B9 		.ascii	"LwP\271\0153\234E%\240.\266\\d=.[\227K4\202\202\214"
  57      0D339C45 
  57      25A02EB6 
  57      5C643D2E 
  57      5B974B34 
  58 0100 465C58AE 		.ascii	"F\\X\256\262\274RY\377${n\276\273\370l\254N\265B'\001"
  58      B2BC5259 
  58      FF247B6E 
  58      BEBBF86C 
  58      AC4EB542 
  59 0116 848789EE 		.ascii	"\204\207\211\356j\033\303\302\255y\345\311\364aaX(\263"
  59      6A1BC3C2 
  59      AD79E5C9 
  59      F4616158 
  59      28B3
  60 0128 C8BF3D91 		.ascii	"\310\277=\221\024\346\271\202kX|Q\234_\177/\307\361"
  60      14E6B982 
  60      6B587C51 
  60      9C5F7F2F 
  60      C7F1
  61 013a 3E1FB151 		.ascii	">\037\261Q\347z\224,\267\277\313b\376Y\361!\007\362"
  61      E77A942C 
  61      B7BFCB62 
  61      FE59F121 
  61      07F2
  62 014c E77B788A 		.ascii	"\347{x\212;\317\256~5\004\361\353\007\213\373\304\364"
  62      3BCFAE7E 
  62      3504F1EB 
  62      078BFBC4 
  62      F4
  63 015d E66DEF96 		.ascii	"\346m\357\226\202\213z;\377\362\343\343\220\330\234"
  63      828B7A3B 
  63      FFF2E3E3 
  63      90D89C
  64 016c 8D8A108B 		.ascii	"\215\212\020\213t\2160@\253\265\265\017\276\220\346"
  64      748E3040 
  64      ABB5B50F 
  64      BE90E6
  65 017b 09F90545 		.ascii	"\011\371\005E\250\262\277Z\345\002\002\2231M`F7^\315"
  65      A8B2BF5A 
  65      E5020293 
  65      314D6046 
  65      375ECD
  66 018e 6E656D02 		.ascii	"nem\002$\266\233wW\321\027\017l\325\350\246\205AVa\236"
  66      24B69B77 
  66      57D1170F 
  66      6CD5E8A6 
  66      85415661 
  67 01a3 46D0D390 		.ascii	"F\320\323\220\377\206\246\331\302S\306m\271\266\327"
  67      FF86A6D9 
ARM GAS  /tmp/cc1SpKIA.s 			page 5


  67      C253C66D 
  67      B9B6D7
  68 01b2 B48993CE 		.ascii	"\264\211\223\316~\345\336\253j\250S\233\235:\231\322"
  68      7EE5DEAB 
  68      6AA8539B 
  68      9D3A99D2 
  69 01c2 FB7ED789 		.ascii	"\373~\327\211\273\225#\360\210\212dn\341\316A\007C\336"
  69      BB9523F0 
  69      888A646E 
  69      E1CE4107 
  69      43DE
  70 01d4 4D1D7330 		.ascii	"M\035s0\274\343M)\244\364\224\016\302\305\016\270\303"
  70      BCE34D29 
  70      A4F4940E 
  70      C2C50EB8 
  70      C3
  71 01e5 1B46F488 		.ascii	"\033F\364\210W\007\357\366\376\011r\375\177\203<\357"
  71      5707EFF6 
  71      FE0972FD 
  71      7F833CEF 
  72 01f5 80043D90 		.ascii	"\200\004=\220\316\210\316\215a\011\012k3\237\253!\341"
  72      CE88CE8D 
  72      61090A6B 
  72      339FAB21 
  72      E1
  73 0206 E9B7415E 		.ascii	"\351\267A^o\3747%\200SF2\235\262\0143\235\270l$\254"
  73      6FFC3725 
  73      80534632 
  73      9DB20C33 
  73      9DB86C24 
  74 021b BC61269D 		.ascii	"\274a&\235\021'=nd3\271\261\213\006\177\261&\262F\177"
  74      11273D6E 
  74      6433B9B1 
  74      8B067FB1 
  74      26B2467F 
  75 022f 6C203A60 		.ascii	"l :`8c\346h.A\271\031k\330L\035?\232\204\356\214e\017"
  75      3863E668 
  75      2E41B919 
  75      6BD84C1D 
  75      3F9A84EE 
  76 0246 E7E3A339 		.ascii	"\347\343\2439kG\235L\326\270\224\316d\307\2153\347b"
  76      6B479D4C 
  76      D6B894CE 
  76      64C78D33 
  76      E762
  77 0258 FDB1099E 		.ascii	"\375\261\011\236\340\352\344O\244\270\316/\272Q;\034"
  77      E0EAE44F 
  77      A4B8CE2F 
  77      BA513B1C 
  78              		.text
  79              		.section	.gnu.lto__idle_thread.9ff4dc438a46aaa9,"",%progbits
  80 0000 789C5D90 		.ascii	"x\234]\220\261J\003A\020\206\347\237\335SK\313Tb\255"
  80      B14A0341 
  80      1086E79F 
  80      DD534BCB 
  80      5462AD
  81 0013 C48534B6 		.ascii	"\304\2054\266\372\016'hi\366\016\263h<\270\213B\260"
ARM GAS  /tmp/cc1SpKIA.s 			page 6


  81      FA0E2768 
  81      69F60EB3 
  81      683CB88B 
  81      42B0
  82 0025 C8462C2C 		.ascii	"\310F,,S\206\250\205\205\255\202O`\225N\037\300*\235"
  82      5386A885 
  82      85AD824F 
  82      60954E1F 
  82      C02A9D
  83 0038 8D4F9026 		.ascii	"\215O\220&\316\355\032\004\027f\347\337a\346\373\231"
  83      CEED1A04 
  83      1766E7DF 
  83      61E6FB99 
  84 0048 6562FA7F 		.ascii	"eb\372\177\232\022\337\022\273\022H\010<\372 \032\256"
  84      9A12DF12 
  84      BB124808 
  84      3CFA201A 
  84      AE
  85 0059 3154140A 		.ascii	"1T\024\012:\012\035+\373\240\001+\215\301\021\302\374"
  85      3A0A1D2B 
  85      FBA0012B 
  85      8DC111C2 
  85      FC
  86 006a 0BBFCD16 		.ascii	"\013\277\315\026\213\347\327\351\323=&\254\231\\\250"
  86      8BE7D7E9 
  86      D33D26AC 
  86      995CA8
  87 0079 2774E3FD 		.ascii	"'t\343\375h\223\310\206g*7\350\000LP\357t\3759\376j"
  87      6893C886 
  87      672A37E8 
  87      004C50EF 
  87      74FD39FE 
  88 008e 1CE351FC 		.ascii	"\034\343Q\374N\300\333\264%3\341\306\035M\206\336\257"
  88      4EC0DBB4 
  88      2533E1C6 
  88      1D4D86DE 
  88      AF
  89 009f 3BF015CD 		.ascii	";\360\025\315\375m\255T7\020\016!28\266\243\261\344"
  89      FD6DAD54 
  89      37100E21 
  89      3238B6A3 
  89      B1E4
  90 00b1 5F41429C 		.ascii	"_AB\234\253\310\013\030-\030iO\004^\217-\333\343\362"
  90      ABC80B18 
  90      2D18694F 
  90      045E8F2D 
  90      DBE3F2
  91 00c4 35B8E1B0 		.ascii	"5\270\341\260\262A\255\007?\336sX\375\373\214T,dI\225"
  91      B241AD07 
  91      3FDE7358 
  91      FDFB8C54 
  91      2C644995 
  92 00d8 42D719E9 		.ascii	"B\327\031\351\322\302\230N\321\315\215-\262\276\311"
  92      D2C2984E 
  92      D1CD8D2D 
  92      B2BEC9
  93 00e7 F24B633B 		.ascii	"\362Kc;\256\355\212\312\364\312\213\363S#\242\354\231"
ARM GAS  /tmp/cc1SpKIA.s 			page 7


  93      AEED8ACA 
  93      F4CA8BF3 
  93      5323A2EC 
  93      99
  94 00f8 AAB452AF 		.ascii	"\252\264R\257\372\325\216\245\304eg9\375\000\3468H\317"
  94      FAD58EA5 
  94      C4656739 
  94      FD00E638 
  94      48CF
  95              		.text
  96              		.section	.gnu.lto_chVTDoTickI.9ff4dc438a46aaa9,"",%progbits
  97 0000 789CAD54 		.ascii	"x\234\255T]l\024U\024>gfwfv\273\266\013V\2515\201M\023"
  97      5D6C1455 
  97      143E6766 
  97      776676BB 
  97      B60B56A9 
  98 0018 5FC03002 		.ascii	"_\3000\002!\206\007\003\246\306\244I\367\205m\243>\030"
  98      21860703 
  98      A6C6A449 
  98      F7856DA3 
  98      3E18
  99 002a 32DD5D77 		.ascii	"2\335]w'\356v\233\355\356\006\302\003w\273\253\326H"
  99      27EE769B 
  99      EDEE06C2 
  99      0377BBAB 
  99      D648
 100 003c 6AE34FAC 		.ascii	"j\343O\254\020\0254\004\361E\342Sy(.\006\371I(\204\370"
 100      10153404 
 100      F145E253 
 100      79282E06 
 100      F9492884 
 101 0051 A07437D8 		.ascii	"\240t7\330@\002\004\315Z%\030\203\304z\356\334\231\331"
 101      400204CD 
 101      5A251883 
 101      C47AEEDC 
 101      99D9
 102 0063 6D69D2FA 		.ascii	"mi\322\372s\223\231{\347\316|\337\371\316w\356\034\011"
 102      7393997B 
 102      E7CE7CDF 
 102      F9CE77EE 
 102      1C09
 103 0075 24583C0C 		.ascii	"$X<\014\272\206T\200.\004@\037\2404~\021\240\250I\350"
 103      BA865480 
 103      2E04401F 
 103      A0347E11 
 103      A0A849E8 
 104 0089 110B592C 		.ascii	"\021\013Y,Ni\036I\336\177\026\200\371\275e\025X\300"
 104      4E691E49 
 104      DE7F1680 
 104      F9BD6515 
 104      58C0
 105 009b 2B29BFD3 		.ascii	"+)\277\323\354W\017\234\241\315\200\202\232\370^u\026"
 105      EC570F9C 
 105      A1CD8082 
 105      9AF85E75 
 105      16
 106 00ac 1A225F00 		.ascii	"\032\"_\000\302>I\366x\025U\303}/!\017)w\301a\306\336"
ARM GAS  /tmp/cc1SpKIA.s 			page 8


 106      C23E49F6 
 106      781555C3 
 106      7D2F210F 
 106      2977C161 
 107 00c2 99FDF6F6 		.ascii	"\231\375\366\366u\351CV)\037b\367\347\347\021M$y[\021"
 107      75E94356 
 107      291F62F7 
 107      E7E7114D 
 107      24795B11 
 108 00d6 A2082FD2 		.ascii	"\242\010/\322\003\206\254I\362,\324+\260\225+W\307\036"
 108      0386AC49 
 108      F22CD42B 
 108      B0952B57 
 108      C71E
 109 00e8 638746C6 		.ascii	"c\207F\306\331_\0045Q\226`\333\012\221w>~\273\031\351"
 109      D95F0435 
 109      519660DB 
 109      0A91773E 
 109      7EBB19E9 
 110 00fc 9160FB72 		.ascii	"\221`\373r\310/\245\312\354\374|\355\307\023\327\252"
 110      C82FA5CA 
 110      ECFC7CED 
 110      C713D7AA 
 111 010c B8661D82 		.ascii	"\270f\035\202\201\237a\027(`\242W\265\0374\232\017\323"
 111      819F6117 
 111      2860A257 
 111      B51F349A 
 111      0FD3
 112 011e ECE39B7E 		.ascii	"\354\343\233~{\263\205?\004\370\255\225v\216\320N\220"
 112      7BB3853F 
 112      04F8AD95 
 112      768ED04E 
 112      90
 113 012f 1EA09D6E 		.ascii	"\036\240\235nJ\007\337\356\244\233L\001\274Pfl<$(\004"
 113      4A07DFEE 
 113      A49B4C01 
 113      BC50666C 
 113      3C242804 
 114 0143 16B8261A 		.ascii	"\026\270&\032}t'\303\373Q\242I\236\206ofj\327*\237+"
 114      7D7427C3 
 114      FB51A249 
 114      9E866F66 
 114      6AD72A9F 
 115 0158 36C28156 		.ascii	"6\302\201VN\274W#\"\003\217\242\227\200\0262\201\235"
 115      4EBC5723 
 115      22038FA2 
 115      97801632 
 115      819D
 116 016a 1BE00B56 		.ascii	"\033\340\013V.\316\276\377\372\351O\271\277\352A8P\034"
 116      2ECEBEFF 
 116      FAE94FB9 
 116      BFEA4138 
 116      501C
 117 017c 67411335 		.ascii	"gA\0235\236\246\217\321\360X\031\373\254<\0078\316\300"
 117      9EA68FD1 
 117      F05819FB 
 117      AC3C0738 
ARM GAS  /tmp/cc1SpKIA.s 			page 9


 117      CEC0
 118 018e 63C44163 		.ascii	"c\304Ac\032Ffj\307\247z\005i\002\225\015\260\236\344"
 118      1A46666A 
 118      C7A77A05 
 118      6902950D 
 118      B09EE4
 119 01a1 724E1A7B 		.ascii	"rN\032{M\364s:\306\351Z\366\302=6\312W\201\264\025\233"
 119      4DF4733A 
 119      C6E95AF6 
 119      C23D36CA 
 119      5781B415 
 120 01b6 73066C4E 		.ascii	"s\006lN\264g\347\354MC\351\315R\301aUI&q\213W\375\344"
 120      B467E7EC 
 120      4D43E9CD 
 120      52C16155 
 120      4926718B 
 121 01cd 061D32D9 		.ascii	"\006\0352\331\372\344\353\251\307]_\216X\216\010\214"
 121      FAE4EBA9 
 121      C75D5F8E 
 121      588E088C 
 122 01dd 959A3F81 		.ascii	"\225\232?\201\230\340\262\271\312\211zU6\360\270\305"
 122      98E0B2B9 
 122      CA897A55 
 122      36F0B8C5 
 123 01ed D722F405 		.ascii	"\327\"\364\005]\245\301\377\"t\324\345\015P4b\267\002"
 123      5DA5C1FF 
 123      2274D4E5 
 123      0D503462 
 123      B702
 124 01ff F688CDFF 		.ascii	"\366\210\315\377+R\202\357\363<&\353w\320\211\327j\373"
 124      2B5282EF 
 124      F33C26EB 
 124      77D089D7 
 124      6AFB
 125 0211 FC321D51 		.ascii	"\3742\035Q\"%\360C\011Q6\260\301\262+sd\362\207\372"
 125      2225F043 
 125      095136B0 
 125      C1B22B73 
 125      64F287FA 
 126 0225 7752B328 		.ascii	"wR\263(\266i\031\030\337iu\252|\253\356\246\031\264"
 126      B6691918 
 126      DF6975AA 
 126      7CABEEA6 
 126      19B4
 127 0237 8A0C4B43 		.ascii	"\212\014KC=\215\210\367Ju\\\0200\322\214\0126\243\254"
 127      3D8D88F7 
 127      4A755C10 
 127      30D28C0A 
 127      36A3AC
 128 024a 8A81B083 		.ascii	"\212\201\260\203]\246\027m6\344{Z\373\311\034\307\017"
 128      5DA6176D 
 128      36E47B5A 
 128      FBC91CC7 
 128      0F
 129 025b 87FBFCC4 		.ascii	"\207\373\374\304/\177.\314\346\031b\263\227m\377\330"
 129      2F7F2ECC 
 129      E61962B3 
ARM GAS  /tmp/cc1SpKIA.s 			page 10


 129      976DFFD8 
 130 026b 64C53639 		.ascii	"d\30569\010p\021F~\035;\373\325~\331\375}D\030\340m"
 130      08701146 
 130      7E1D3BFB 
 130      D57ED9FD 
 130      7D4418E0 
 131 0280 0AE10D49 		.ascii	"\012\341\015I\346\035R\026mr-LH\037\261\211\035&G\012"
 131      E61D5216 
 131      6D722D4C 
 131      481FB189 
 131      1D26470A 
 132 0294 EA551695 		.ascii	"\352U\026\225\373\376\240\375~\265+}\246\366\307\224"
 132      FBFEA0FD 
 132      7EB52B7D 
 132      A6F6C794 
 133 02a4 EA78D96E 		.ascii	"\352x\331ny\251\010\265\354\351\007\375T\355\234/A\271"
 133      79A908B5 
 133      ECE907FD 
 133      54ED9C2F 
 133      41B9
 134 02b6 A23A4A12 		.ascii	"\242:J\022\274.\0046\361\341\225\0126\360<\225\325\022"
 134      BC2E0436 
 134      F1E1950A 
 134      36F03C95 
 134      D512
 135 02c8 186A1268 		.ascii	"\030j\022h\340\005\\\333p\266\237\352G\035Y\266dNN\255"
 135      E0055CDB 
 135      70B69FEA 
 135      471D59B6 
 135      644E4EAD 
 136 02dc 73FE40CD 		.ascii	"s\376@\315v6\3370\371\205\177i\262\360`n\265C\355\023"
 136      7636DF30 
 136      F9857F69 
 136      B2F0606E 
 136      B543ED13 
 137 02f0 2D63E9D3 		.ascii	"-c\351\323\244\331\220sP\276Q\334\342B\022\215\323p"
 137      A4D99073 
 137      50BE51DC 
 137      E242128D 
 137      D370
 138 0302 05E81F57 		.ascii	"\005\350\037W\245\013w\363\364\303\313\367\357\246y"
 138      A50B77F3 
 138      F4C3CBF7 
 138      EFA679
 139 0311 125EDE07 		.ascii	"\022^\336\007\317\301\351\233\247\336\375Dvs\260\217"
 139      CFC1E99B 
 139      A7DEFD44 
 139      7673B08F 
 140 0321 575BE374 		.ascii	"W[\343tm]\342p5\254P\240\012\362%(\315\215\275\366\323"
 140      6D5DE270 
 140      35AC50A0 
 140      0AF22528 
 140      CD8DBDF6 
 141 0336 1C2EEEA6 		.ascii	"\034.\356\246o\3358\2526\272\251\335\017\\\033\332\243"
 141      6FDD38AA 
 141      36BAA9DD 
 141      0F5C1BDA 
ARM GAS  /tmp/cc1SpKIA.s 			page 11


 141      A3
 142 0347 4881ABA2 		.ascii	"H\201\253\242\014&>\342p\252pL\341\255k\264t\375\344"
 142      0C263EE2 
 142      70AA704C 
 142      E1AD6BB4 
 142      74FDE4
 143 035a 36475987 		.ascii	"6GY\207\225R\247Ud\012\366\333\255\007\203\375\374A"
 143      9552A755 
 143      640AF6DB 
 143      AD0783FD 
 143      FC41
 144 036c 5330CFA2 		.ascii	"S0\317\242`\217F\321k\340U\247\357u\230\270\306\211"
 144      608F46D1 
 144      6BE055A7 
 144      EF7598B8 
 144      C689
 145 037e A771272E 		.ascii	"\247q'.Cq\266\252\273\235\321\032}\224sY\345\2627\353"
 145      4371B6AA 
 145      BB9DD11A 
 145      7D947359 
 145      E5B237EB 
 146 0392 C94C3AAE 		.ascii	"\311L:\256G3\261=z,^\320\243Is\300\314\014\353\271l"
 146      4733B13D 
 146      7A2C5ED0 
 146      A34973C0 
 146      CC0CEBB9 
 147 03a7 7EF0559D 		.ascii	"~\360U\235\026\331\234n\016FS\371\030}\224,\3446&A."
 147      16D99C6E 
 147      0E4653F9 
 147      187D942C 
 147      E4362641 
 148 03bc E486BCB1 		.ascii	"\344\206\274\261x*gH\257\014v/\207O\032)}(\223\315\015"
 148      782A6748 
 148      AF0C762F 
 148      874F1A29 
 148      7D2893CD 
 149 03d1 EB91BEF0 		.ascii	"\353\221\276\360\226\315zo\357sz_O\270\260I\037\316"
 149      96CD7A6F 
 149      EF737A5F 
 149      4FB8B049 
 149      1FCE
 150 03e3 ED4AA562 		.ascii	"\355J\245bD\270}\005\032\004\305\263;\303\335\341\335"
 150      44B87D05 
 150      1A04C5B3 
 150      3BC3DDE1 
 150      DD
 151 03f4 F4413493 		.ascii	"\364A4\223\215\357\312\231\351x\226\360;\226\303\307"
 151      8DEFCA99 
 151      E97896F0 
 151      3B96C3C7 
 152 0404 77E7F4EE 		.ascii	"w\347\364\356p\244'\322H\205\343\243\351\347\363\203"
 152      70A427D2 
 152      4885E3A3 
 152      E9E7F383 
 153 0414 51220886 		.ascii	"Q\"\010\206#;C\003\306p|(k>\031z\342)\220\262\240\246"
 153      233B4303 
 153      C6707C28 
ARM GAS  /tmp/cc1SpKIA.s 			page 12


 153      6B3E197A 
 153      E22990B2 
 154 042a E3E94C76 		.ascii	"\343\351Lv\017\374\015/\016\026\312"
 154      0FFC0D2F 
 154      0E16CA
 155              		.text
 156              		.section	.gnu.lto_chSysGetStatusAndLockX.part.0.9ff4dc438a46aaa9,"",%progbits
 157 0000 789C9553 		.ascii	"x\234\225SOh\323P\030\377\276\244I\2538\364\272K\015"
 157      4F68D350 
 157      18FFBEA4 
 157      49AB38F4 
 157      BA4B0D
 158 0013 036F63CF 		.ascii	"\003oc\317\233\247\301\244\"x\350\245\355@O\222\245"
 158      9BA7C1A4 
 158      2278E8A5 
 158      ED404F92 
 158      A5
 159 0024 610DAE7F 		.ascii	"a\015\256\177H\322\261\235\366\326\366\354\272^\334"
 159      48D2B19D 
 159      F6D6F6EC 
 159      BA5EDC
 160 0033 04615594 		.ascii	"\004aU\224\211\240\010\016\004\013\026\007u\010V\204"
 160      89A0080E 
 160      040B1607 
 160      75085684 
 161 0043 DDAD4304 		.ascii	"\335\255C\004q\036*(\010b\374^\332uu\023W_H\276\357"
 161      711E2A28 
 161      0862FC5E 
 161      DA757513 
 161      575F48BE 
 162 0058 7DDFFBFD 		.ascii	"}\337\373\375\311{\211\004\022\034\034\027\350\036\226"
 162      C97B8904 
 162      121C1C17 
 162      E81E96
 163 0067 013E51C4 		.ascii	"\001>Q\304 \240ZnR\242\242\344GI\222ka\340\307\003\333"
 163      20A05A6E 
 163      52A2A2E4 
 163      4749926B 
 163      61E0C703 
 164 007c 0CF80919 		.ascii	"\014\370\011\031\025Q]\014\005\366\022\005Q$\200\260"
 164      15515D0C 
 164      05F61205 
 164      512480B0 
 165 008c A04A7240 		.ascii	"\240Jr@\301\205+(X\325\021\250r^i\335\365vp\225\327"
 165      C1852B28 
 165      58D511A8 
 165      725E69DD 
 165      F5767095 
 166 00a1 4B6BFCA7 		.ascii	"Kk\374\247\347!ZH\016\"\010\006\302e\232\240\346\007"
 166      E7215A48 
 166      0E220806 
 166      C2659AA0 
 166      E607
 167 00b3 29F0A725 		.ascii	")\360\247%\037{\263\265\321\370p\007\333/\012+\274T"
 167      1F7BB3B5 
 167      D1F87007 
 167      DB2F0A2B 
ARM GAS  /tmp/cc1SpKIA.s 			page 13


 167      BC54
 168 00c5 27F0690B 		.ascii	"'\360i\013\311\346\0362\324A\342\337\220\374\341:\227"
 168      C9E61E32 
 168      D441E2DF 
 168      90FCE13A 
 168      97
 169 00d6 7D457950 		.ascii	"}EyPL\245\365\355\345\233\006.\027\371VO\215\254>\305"
 169      4CA5F5ED 
 169      E59B062E 
 169      17F9564F 
 169      8DAC3EC5 
 170 00ea FFF1BABC 		.ascii	"\377\361\272\274Y\330G\007`\020d\245~c\351\3720_+\224"
 170      59D84707 
 170      601064A5 
 170      7E63E9FA 
 170      305F2B94 
 171 00fe F92FC211 		.ascii	"\371/\302\021L\307{(\035\001}$\361\226\347\375\370~"
 171      4CC77B28 
 171      1D017D24 
 171      F196E7FD 
 171      F87E
 172 0110 2C88A063 		.ascii	",\210\240c\025G\310\252\205\012u\024(q^\326t\\\247\242"
 172      1547C8AA 
 172      850A7514 
 172      28715ED6 
 172      745CA7A2 
 173 0124 EF804682 		.ascii	"\357\200F\202\236\342\224\022\250\212(O\222\200\210"
 173      9EE29412 
 173      A88A284F 
 173      928088
 174 0133 4D586C7F 		.ascii	"MXl\177}>\324\303T}Lw\012\304|\337\347\364\007Q\324"
 174      7D3ED4C3 
 174      547D4C77 
 174      0AC47CDF 
 174      E7F40751 
 175 0148 682FE9FB 		.ascii	"h/\351\373\221;\037Q\030^\341-\2762a\021)\215i\354l"
 175      913B1F51 
 175      185EE12D 
 175      BE326111 
 175      298D69EC 
 176 015d EB6B283E 		.ascii	"\353k(>\333\374\274\264\373\345\244\216\017\010>\215"
 176      DBFCBCB4 
 176      FBE5A48E 
 176      0F083E8D 
 177 016d 12B5C44B 		.ascii	"\022\265\304K(\036\035\005lAi\367\375F\343cQ\356\320"
 177      281E1D05 
 177      6C4169F7 
 177      FD46E363 
 177      51EED0
 178 0180 53DF6FF6 		.ascii	"S\337o\366\277\336$\011\325\302d\257\320\276\275\332"
 178      BFDE2409 
 178      D5C264AF 
 178      D0BEBDDA 
 179 0190 C0C38690 		.ascii	"\300\303\206\220\256\346\0017\357\272n\202b*(A\023Y"
 179      AEE60137 
 179      EFBA6E82 
 179      622A2841 
ARM GAS  /tmp/cc1SpKIA.s 			page 14


 179      1359
 180 01a2 AFBFD3ED 		.ascii	"\257\277\323\355\207\372u\002\260\315\204\316\2775t"
 180      87FA7502 
 180      B0CD84CE 
 180      BF3574
 181 01b1 7C4CC921 		.ascii	"|L\311!N\035\237`\270\237M\361w\365-\375\026\373\325"
 181      4E1D9F60 
 181      B89F4DF1 
 181      77F52DFD 
 181      16FBD5
 182 01c4 04ED0B55 		.ascii	"\004\355\013U\005`\202\245\262i\223\031\331\344<K\232"
 182      056082A5 
 182      B2699319 
 182      D9E43C4B 
 182      9A
 183 01d5 B3CC4859 		.ascii	"\263\314HYSV\326a\256\235\317\\c\224\230s.\213D\343"
 183      5356D661 
 183      AE9DCF5C 
 183      63949873 
 183      2E8B44E3 
 184 01e9 97E2CCCA 		.ascii	"\227\342\314\312\0303\371\244Xk\233W\215\364\305|\306"
 184      1833F9A4 
 184      586B9B57 
 184      8DF4C57C 
 184      C6
 185 01fa 184B816A 		.ascii	"\030K\201j\233N~\306eG\361\330.sl\203\352\316\2743f"
 185      9B4E7EC6 
 185      6547F1D8 
 185      2E736C83 
 185      EACEBC33 
 186 020f C0F800EB 		.ascii	"\300\370\000\353sY\333u\330\371X4\022\235\243\005\276"
 186      7359DB75 
 186      D8F95834 
 186      129DA305 
 186      BE
 187 0220 EEECB934 		.ascii	"\356\354\2714\211\312\216\353\014Ecq\355\314\331Q\315"
 187      89CA8EEB 
 187      0C456371 
 187      EDCCD951 
 187      CD
 188 0231 CA3936C8 		.ascii	"\31296\310\3436\234\212\306c\332\224\356\2309\333\032"
 188      E3369C8A 
 188      C663DA94 
 188      EE9839DB 
 188      1A
 189 0242 A5164836 		.ascii	"\245\026H6\004\323f:k\317\303o{\013\005{"
 189      04D3663A 
 189      6BCFC36F 
 189      7B0B057B 
 190              		.text
 191              		.section	.gnu.lto_chSysRestoreStatusX.part.1.9ff4dc438a46aaa9,"",%progbits
 192 0000 789C8D52 		.ascii	"x\234\215RMh\023Q\020\236yo7\211A\2617\025$\204\202"
 192      4D681351 
 192      109E796F 
 192      378941B1 
 192      37152484 
 193 0015 B7D2275E 		.ascii	"\267\322'^<\025*\025\301C.I\013z\222\355fi\026\233\037"
ARM GAS  /tmp/cc1SpKIA.s 			page 15


 193      3C152A15 
 193      C1432E49 
 193      0B7A92ED 
 193      6669169B 
 194 002a 7637B541 		.ascii	"v7\265A\260\257i\016\"\036\242(XAh\015\242^\014z\254"
 194      B0AF690E 
 194      221EA228 
 194      5841680D 
 194      A25E0C7A 
 195 003f 1EFC41F0 		.ascii	"\036\374A\360b\304K=\211QOB-\355\301\213J\326y\233\244"
 195      62C44B3D 
 195      89514F42 
 195      2DEDC18B 
 195      4AD6799B 
 196 0054 2456306F 		.ascii	"$V0o\331\235y\363\315\367\315\314{\313\200\301\337\353"
 196      D99D79F3 
 196      CDF7CDCC 
 196      7BCB80C1 
 196      DFEB
 197 0066 24BD0D0A 		.ascii	"$\275\015\012\177#\213a\300P\265AN\010Y`\031\343\353"
 197      7F238B61 
 197      C050B541 
 197      4E085960 
 197      19E3EB
 198 0079 0264545B 		.ascii	"\002dT[\213\201\334\313QW\321\305\210\326utD\345\000"
 198      8B81DCCB 
 198      5157D1C5 
 198      88D67574 
 198      44E500
 199 008c C2428871 		.ascii	"\302B\210qM\307\205\263\250T\265aX\225\362z\363\365"
 199      4DC785B3 
 199      A854B561 
 199      5895F27A 
 199      F3F5
 200 009e AFC787E4 		.ascii	"\257\307\207\344J\271*[\276\2176R\375c\010&\302\031"
 200      4AB92A5B 
 200      BE8F3652 
 200      FD630826 
 200      C219
 201 00b0 DA603C30 		.ascii	"\332`<0L\353o\250\303\374\370\243~xY>\257\254\310\337"
 201      4CEB6FA8 
 201      C3FCF8A3 
 201      7E78593E 
 201      AFACC8DF 
 202 00c4 44A53CCE 		.ascii	"D\245<\316\340\302@\334\333\252\352\201+M\331\255JI"
 202      E0C240DC 
 202      DBAAEA81 
 202      2B4DD9AD 
 202      4A49
 203 00d6 5D5AA44D 		.ascii	"]Z\244M\303\177\321\344\243\007\222\007\345\370\000"
 203      C37FD1E4 
 203      A3079207 
 203      E5F800
 204 00e5 9C3A934D 		.ascii	"\234:\223M\337_\276\033\215 \030X\303a\232\315F\235"
 204      DF5FBE1B 
 204      8D201858 
 204      C3619ACD 
ARM GAS  /tmp/cc1SpKIA.s 			page 16


 204      469D
 205 00f7 101D2A52 		.ascii	"\020\035*RV\343\006\256R0\220\2415I_uR\223\030R\226"
 205      56E306AE 
 205      523090A1 
 205      35495F75 
 205      52931852 
 206 010c 4F210B6C 		.ascii	"O!\013l\003\026\2677[\037p\207T\013H\235-\220\364\375"
 206      0316B737 
 206      5B1F7087 
 206      540B489D 
 206      2D90F4FD 
 207 0120 403458A4 		.ascii	"@4X\244q\211\253;\344\355\213\214\301U\274#o\215\333"
 207      7189AB3B 
 207      E4ED8B8C 
 207      C155BC23 
 207      6F8DDB
 208 0133 244A6B06 		.ascii	"$Jk\006\333=\276\205\245\247\257j77\276\3577\360!\261"
 208      DB3DBE85 
 208      A5A7AF6A 
 208      3737BEEF 
 208      37F021B1 
 209 0147 679011A4 		.ascii	"g\220\021\244\206\320}N\370\033\250l|\276\327z\201m"
 209      86D07D4E 
 209      F81BA86C 
 209      7CBED77A 
 209      816D
 210 0159 718203AC 		.ascii	"q\202\003\254w\272)\344\260.\250\273\362\366\346\215"
 210      77BA29E4 
 210      B02EA8BB 
 210      F2F6E68D 
 211 0169 AF0777B7 		.ascii	"\257\007w\267\203\3644\260\277\231O\235f\302j\253$y"
 211      83F434B0 
 211      BF994F9D 
 211      66C26AAB 
 211      2479
 212 017b A0B5837F 		.ascii	"\240\265\203\177\351\340\221\336:\032\254\305\370;X"
 212      E9E091DE 
 212      3A1AACC5 
 212      F83B58
 213 018a DA7AE93F 		.ascii	"\332z\351?\303\256\374E\370)/\313!\033\367\230\235\231"
 213      C3AEFC45 
 213      F8292FCB 
 213      211BF798 
 213      9D99
 214 019c 6C8CD27F 		.ascii	"l\214\322\177:H;\006\326\311\331U\336\300'\030\353-"
 214      3A483B06 
 214      D6C9D955 
 214      DEC02718 
 214      EB2D
 215 01ae AC07E7FF 		.ascii	"\254\007\347\377\036\026\267\312\327\364\276c\246KB"
 215      1E16B7CA 
 215      D7F4BE63 
 215      A64B42
 216 01bd 052A9E10 		.ascii	"\005*\236\020\231|\326\022f>]\022ikN\230\031{\332\316"
 216      997CD612 
 216      663E5D12 
 216      696B4E98 
ARM GAS  /tmp/cc1SpKIA.s 			page 17


 216      197BDACE 
 217 01d1 BBC2738A 		.ascii	"\273\302s\212\271\363\202\034\307\023\256cR\334-\271"
 217      B9F3821C 
 217      C713AE63 
 217      52DC2DB9 
 218 01e1 A32670D7 		.ascii	"\243&p\327s\307\377\307\261\346=1\221H\235N\011;g\316"
 218      73C7FFC7 
 218      B1E63D31 
 218      91489D4E 
 218      093B67CE 
 219 01f5 16D32AD7 		.ascii	"\026\323*\327\261\316\231\331S\305\2349\232\201\220"
 219      B1CE99D9 
 219      53C59C39 
 219      9A8190
 220 0204 63B9C559 		.ascii	"c\271\305Yo_\"\231\212\0379:\022\267\013\256\003|\314"
 220      6F5F2299 
 220      8A1F393A 
 220      12B70BAE 
 220      037CCC
 221 0217 81B101BA 		.ascii	"\201\261\001\272)\344\035\317\025'\222\211\211\304<"
 221      29E41DCF 
 221      15279289 
 221      89C43C
 222 0226 2504CA73 		.ascii	"%\004\312s\307\263$;\224H%\343\323\206k\025\034{\204"
 222      C7B3243B 
 222      944825E3 
 222      D3866B15 
 222      1C7B84
 223 0239 84813910 		.ascii	"\204\2019\020\316Z\331\274S\202?\347\265\365\351"
 223      CE5AD9BC 
 223      53823FE7 
 223      B5F5E9
 224              		.text
 225              		.section	.gnu.lto_chSysInit.9ff4dc438a46aaa9,"",%progbits
 226 0000 789CA593 		.ascii	"x\234\245\223\317k\023A\024\307\337\233i\222\335\326"
 226      CF6B1341 
 226      14C7DF9B 
 226      6992DDD6 
 227 0010 68AC15EA 		.ascii	"h\254\025\352Es\351E\245k\377\203@A\350\241\027\243"
 227      4573E945 
 227      A56BFF83 
 227      4041E8A1 
 227      17A3
 228 0022 A0789066 		.ascii	"\240x\220f\262\230A7)\273\211\030<t\323V*\"\330\203"
 228      B2984137 
 228      29BB8918 
 228      3C74D356 
 228      2A22D883 
 229 0036 D060512C 		.ascii	"\320`Q,\275)\250\307\034\013^5\245\007/\265J\240'\305"
 229      BD29A8C7 
 229      1C0B5E35 
 229      A5072FB5 
 229      4AA027C5 
 230 004a 8BD722C4 		.ascii	"\213\327\"\3047\373\213M\273\342\301\201\235\231}\363"
 230      37FB8B4D 
 230      BBE2C181 
 230      9D997DF3 
ARM GAS  /tmp/cc1SpKIA.s 			page 18


 231 005a 7D9F99FD 		.ascii	"}\237\231\375\316[\006\014\016\2673\364\274\344\000"
 231      CE5B060C 
 231      0EB733F4 
 231      BCE400
 232 0069 6B342207 		.ascii	"k4\"\007d\253]\200\226\306\020\325\004\020\026\030."
 232      64AB5D80 
 232      96C610D5 
 232      04101618 
 232      2E
 233 007a DC402545 		.ascii	"\334@%E\013\341\035\333\352\365\373o\333+kO\360\015"
 233      0BE11DDB 
 233      EAF5FB6F 
 233      DB2B6B4F 
 233      F00D
 234 008c 1BD54122 		.ascii	"\033\325A\"dUG-\005\313\256\273\232\267\324\213\360"
 234      6455472D 
 234      05CBAEBB 
 234      9AB7D48B 
 234      F0
 235 009d 2257A957 		.ascii	"\"W\251W\230k\310\324\310\267a\251\267\273\224\231\303"
 235      986BC8D4 
 235      C8B761A9 
 235      B7BB9499 
 235      C3
 236 00ae 0D4CD1F2 		.ascii	"\015L\321\362\0038p\037\2719\211(\320\323\023\210N\250"
 236      0338701F 
 236      B9398928 
 236      D0D31388 
 236      4EA8
 237 00c0 545F3E0C 		.ascii	"T_>\014'\251\330\240jo?\235\244\342\003\252W\337x\222"
 237      27A9D8A0 
 237      6A6F3F9D 
 237      A4E203AA 
 237      57DF7892 
 238 00d4 686810F5 		.ascii	"hh\020\365}3\361X\251A\324\317DT:.z\330\353\013_t\033"
 238      7D33F158 
 238      A941D4CF 
 238      44543A2E 
 238      7AD8EB0B 
 239 00eb F548C505 		.ascii	"\365H\305\005f<\225\212h\344\027\271\024\240\256\243"
 239      663C958A 
 239      68E417B9 
 239      14A0AEA3 
 240 00fb C4A102A5 		.ascii	"\304\241\002\245\323\374\023,\316\370\341\013p\236T"
 240      D3FC132C 
 240      CEF8E10B 
 240      709E54
 241 010a 5E9F5E87 		.ascii	"^\237^\207\347-WQ2\021O\263<\307T\256\346qK\276\201"
 241      E72D5751 
 241      32114FB3 
 241      3CC754AE 
 241      E6714BBE 
 242 011f 34FA13DA 		.ascii	"4\372\023\332\334\303u:\233;,D\276v\251MI\324\211H\231"
 242      DCC3753A 
 242      9B3B2C44 
 242      BE76A94D 
 242      49D48948 
ARM GAS  /tmp/cc1SpKIA.s 			page 19


 243 0134 C3245284 		.ascii	"\303$R\2040\323wWEt\025\353\302\342\257\037\317\366"
 243      30D37757 
 243      457415EB 
 243      C2E2AF1F 
 243      CFF6
 244 0146 C7837B85 		.ascii	"\307\203{\205\360\300\252*\020\034\256\252\211\373%"
 244      F0C0AA2A 
 244      101CAEAA 
 244      89FB25
 245 0155 751696F1 		.ascii	"u\026\226\361\205\333.H\034\011\021\307<X\264\276\022"
 245      85DB2E48 
 245      1C0911C7 
 245      3C58B4BE 
 245      12
 246 0166 AC67FDCD 		.ascii	"\254g\375\315\272\320\332X\0379JV\354\247\370\267,\372"
 246      BAD0DA58 
 246      1F394A56 
 246      ECA7F8B7 
 246      2CFA
 247 0178 9EDD8FBF 		.ascii	"\236\335\217\277\307B{\263\377k\222G<\3401\307\217G"
 247      C7427BB3 
 247      FF6B9247 
 247      3CE031C7 
 247      8F47
 248 018a CE64E3CE 		.ascii	"\316d\343\316\360\350\356\306%\236\260\002\247\266\241"
 248      F0E8EEC6 
 248      259EB002 
 248      A7B6A1
 249 0199 EDEE7D7E 		.ascii	"\355\356}~\217Gj\"'\202\015\375\210{S\342I\013y\354"
 249      8F476A22 
 249      27820DFD 
 249      887B53E2 
 249      490B79EC 
 250 01ad C2477BCC 		.ascii	"\302G{\314\277x\0144[_\037\237\223xJ\240\036S\215\251"
 250      BF780C34 
 250      5B5F1F9F 
 250      93784AA0 
 250      1E538DA9 
 251 01c1 AA3A0DB0 		.ascii	"\252:\015\260\003\255^g\"f\222\367o\241\372\247\324"
 251      03AD5E67 
 251      226692F7 
 251      6FA1FAA7 
 251      D4
 252 01d2 490CA352 		.ascii	"I\014\243R\263LC\324\312M\243l\3363DE\226d\3151\352"
 252      B34C43D4 
 252      CA4DA36C 
 252      DE334445 
 252      9664CD31 
 253 01e7 76A37AC7 		.ascii	"v\243z\307\240\211]7\034[P\334i:\223\002\012\377\322"
 253      A0895D37 
 253      1C5B50DC 
 253      693A9302 
 253      0AFFD2
 254 01fa 9BF7EBC6 		.ascii	"\233\367\353\306\364lq\246h\310\252\270\333(+\255m\336"
 254      F46C71A6 
 254      68C8AAB8 
 254      DB282BAD 
ARM GAS  /tmp/cc1SpKIA.s 			page 20


 254      6DDE
 255 020c 12D6E546 		.ascii	"\022\326\345FULV 7[\274\222/\3159\346\274-/\346'.\001"
 255      554C5620 
 255      375BBC92 
 255      2FCD39E6 
 255      BC2D2FE6 
 256 0223 B3216399 		.ascii	"\263!c\231V\315n\202&\346\035i\346%\374\001\332\253"
 256      56CD6E82 
 256      26E61D69 
 256      E625FC01 
 256      DAAB
 257 0235 F901     		.ascii	"\371\001"
 258              		.text
 259              		.section	.gnu.lto_chSysHalt.9ff4dc438a46aaa9,"",%progbits
 260 0000 789C858F 		.ascii	"x\234\205\217\277J\304@\020\306gvsz`\343\023\310\365"
 260      BF4AC440 
 260      10C66776 
 260      737A60E3 
 260      13C8F5
 261 0013 EA6DE10B 		.ascii	"\352m\341\013\234\010\202\205\325E\320J\314&\230E\223"
 261      9C088285 
 261      D545D04A 
 261      CC269845 
 261      93
 262 0024 48721183 		.ascii	"Hr\021\203\302m\360\012\301\346*\021\377\0246\026\026"
 262      C26DF00A 
 262      C1E62A11 
 262      FF143616 
 262      16
 263 0035 E72B88AD 		.ascii	"\347+\210\255z\245\325\025\226bg+\3029\311\006\013\033"
 263      7AA5D515 
 263      9662672B 
 263      C239C906 
 263      0B1B
 264 0047 07BEDDDF 		.ascii	"\007\276\335\337||;\3142`\360\267\346I\357\244c\022"
 264      7C7C3BCC 
 264      3260F0B7 
 264      E649EFA4 
 264      6312
 265 0059 D600597F 		.ascii	"\326\000Y\177\010\220\327\031r\003\034-\003\226q\026"
 265      0890D719 
 265      72031C2D 
 265      03967116 
 266 0069 11BA8C5B 		.ascii	"\021\272\214[\330\335\300\362\375={x\033\217\007W\247"
 266      D8DDC0F2 
 266      FD3D7B78 
 266      1B8F0757 
 266      A7
 267 007a B7CF3860 		.ascii	"\267\3178`\023\034\203\322\257AO\353~\003@\226\255M"
 267      131C83D2 
 267      AF414FEB 
 267      7E034096 
 267      AD4D
 268 008c 27C21A32 		.ascii	"'\302\0322@>\204\374\363c\364\212\277\221-\274\241\246"
 268      403E84FC 
 268      F363F48A 
 268      BF912DBC 
ARM GAS  /tmp/cc1SpKIA.s 			page 21


 268      A1A6
 269 009e 2C84849B 		.ascii	",\204\204\233%g\340\350Z\237\267\024V{\276\300\343\323"
 269      2567E0E8 
 269      5A9FB714 
 269      567BBEC0 
 269      E3D3
 270 00b0 E8FB6CCE 		.ascii	"\350\373l\316\204g\341N\367r\275\240\020\013\244\232"
 270      8467E14E 
 270      F772BDA0 
 270      100BA49A 
 271 00c0 52C82EE1 		.ascii	"R\310.\341\"\327zZ!?\204/}R\220\025`1a\035\011\3139"
 271      22D77A5A 
 271      213F842F 
 271      7D529015 
 271      6031611D 
 272 00d7 4E35D041 		.ascii	"N5\320A\003\333\310\215a\023\320\007\271MA\272\321\256"
 272      03DBC88D 
 272      6113D007 
 272      B94D41BA 
 272      D1AE
 273 00e9 0220841F 		.ascii	"\002 \204\037\005\236\220\221\233\011\327\333\027\322"
 273      059E9091 
 273      9B09D7DB 
 273      17D2
 274 00f7 578E8A12 		.ascii	"W\216\212\022\321\211\323pG\020\304\035\221\304\222"
 274      D189D370 
 274      4710C41D 
 274      91C492
 275 0106 FC244B9A 		.ascii	"\374$K\232\022Z\377\345\275\203\216XZm\257\264\205\012"
 275      125AFFE5 
 275      BD838E58 
 275      5A6DAFB4 
 275      850A
 276 0118 E56EEA16 		.ascii	"\345n\352\026\331\330\333\224\301r\032\312\246\017u"
 276      D9D8DB94 
 276      C1721ACA 
 276      A60F75
 277 0127 B99728B7 		.ascii	"\271\227(\267\241`2\360\202(\316\340\0072\016i\223"
 277      A16032F0 
 277      8228CEE0 
 277      07320E69 
 277      93
 278              		.text
 279              		.section	.gnu.lto_chSysTimerHandlerI.9ff4dc438a46aaa9,"",%progbits
 280 0000 789C6362 		.ascii	"x\234cb`b@\007\222@\\\003\304\206@\314\310\314\300\310"
 280      60624007 
 280      92405C03 
 280      C48640CC 
 280      C8CCC0C8 
 281 0014 34E11C03 		.ascii	"4\341\034\003C#\007\023##\210\301\300\310P\317\304X"
 281      43230713 
 281      232388C1 
 281      C0C850CF 
 281      C458
 282 0026 1FC90856 		.ascii	"\037\311\010V\273\236\351\300\203\377\377\327M:7\177"
 282      BB9EE9C0 
 282      83FFFFD7 
ARM GAS  /tmp/cc1SpKIA.s 			page 22


 282      4D3A377F 
 283 0036 0DE32E26 		.ascii	"\015\343.&f\240\010+CKC\303\004\005\006\206d\260\212"
 283      66A0082B 
 283      434B43C3 
 283      04050686 
 283      64B08A
 284 0049 102009D2 		.ascii	"\020 \011\322\026\312\310\004\242\231\31734?\230w\234"
 284      16CAC804 
 284      A299CF33 
 284      343F9877 
 284      9C
 285 005a 3D917121 		.ascii	"=\221q!#+P\272\232\341WCG\203@&#P9\304\304L\020}\221"
 285      232B50BA 
 285      9AE15743 
 285      47834026 
 285      235039C4 
 286 0073 A1F1C12A 		.ascii	"\241\361\301*u\230\"\010\010\001J\000M\000\271W_?#?"
 286      75982208 
 286      08014A00 
 286      4D00B957 
 286      5F3F233F 
 287 0087 37553F39 		.ascii	"7U?9?\245R?%\265L?9#3)3\277X\277\244\2504/[\037\310"
 287      3FA5523F 
 287      25B54C3F 
 287      39233329 
 287      33BF58BF 
 288 00a2 282AD12F 		.ascii	"(*\321/.J\006\212\027W\026\353%3\000\000K\3443\345"
 288      2E4A068A 
 288      175716EB 
 288      25330000 
 288      4BE433E5 
 289              		.text
 290              		.section	.gnu.lto_chSysGetStatusAndLockX.9ff4dc438a46aaa9,"",%progbits
 291 0000 789C854F 		.ascii	"x\234\205O1KBQ\024>\347\336\247X4\00454\211\004m\341"
 291      314B4251 
 291      143EE7DE 
 291      A7583404 
 291      35348904 
 292 0016 CDC62010 		.ascii	"\315\306 \020\202\240\301%\025j\022\275>\364Qj\274\247"
 292      82A0C125 
 292      156A12BD 
 292      3EF4516A 
 292      BCA7
 293 0028 A5347425 		.ascii	"\2454t%\203\206 i*(H\372\001\375\001\007\207\206&#p"
 293      83862069 
 293      2A2848FA 
 293      01FD0107 
 293      87862623 
 294 003d B2458568 		.ascii	"\262E\205h\013\252\251\010^\367>5\260\245\013\367~\367"
 294      0BAAA908 
 294      5EF73E35 
 294      B0A50BF7 
 294      7EF7
 295 004f 9CF39DEF 		.ascii	"\234\363\235\357|\207\000\201\277' \357\022\002\234"
 295      7C870081 
 295      BF2720EF 
 295      12029C
ARM GAS  /tmp/cc1SpKIA.s 			page 23


 296 005e 4A441720 		.ascii	"JD\027 \2516\001\312\036Bh\213\201\030\327\352^\020"
 296      A93601CA 
 296      1E42688B 
 296      8118D7EA 
 296      5E10
 297 0070 13143595 		.ascii	"\023\0245\225F\015Q! \034\020\252\341\301&*\011\234"
 297      460D5121 
 297      201C10AA 
 297      E1C1262A 
 297      099C
 298 0082 859A1067 		.ascii	"\205\232\020g\235\347\367.^\210F\345Z|\3336\242\201"
 298      9DE7F72E 
 298      5E8846E5 
 298      5A7CDB36 
 298      A281
 299 0094 72DC2202 		.ascii	"r\334\"\002G\330\220\001\372\034 \332\350\374[\322\350"
 299      47D89001 
 299      FA1C20DA 
 299      E8FC5BD2 
 299      E8
 300 00a5 D8F6E567 		.ascii	"\330\366\345g\275\367\204Scn\210cM\352\311\343\202\212"
 300      BDF78453 
 300      636E8863 
 300      4DEAC9E3 
 300      828A
 301 00b7 1055DF30 		.ascii	"\020U\3370\346\316\250\210|\225\203(\022\205\264\011"
 301      E6CEA888 
 301      7C958328 
 301      1285B409 
 302 00c7 E5B7D776 		.ascii	"\345\267\327vof@\006\331~#\267p\\\001\354Q\2650\355"
 302      6F664006 
 302      D97E23B7 
 302      705C01EC 
 302      51B530ED 
 303 00db 6FED8513 		.ascii	"o\355\205\023\274\022\347A\003\251\012S\350vh\367p\367"
 303      BC12E741 
 303      03A90A53 
 303      E87668F7 
 303      70F7
 304 00ed D23DFA08 		.ascii	"\322=\372\010\364\033eV\231\034\361\030\225\015-F\037"
 304      F41B6556 
 304      991CF118 
 304      950D2D46 
 304      1F
 305 00fe E0D03354 		.ascii	"\340\3203T\337\207/q,&\015tqt|\2011\220\223l\315q\366"
 305      DF872F71 
 305      2C260D74 
 305      71747C81 
 305      3190936C 
 306 0115 08E54E3B 		.ascii	"\010\345N;\365\253\332/F$[\026\225\037\306\322\271\214"
 306      F5ABDA2F 
 306      46245B16 
 306      951FC6D2 
 306      B98C
 307 0127 CE782E59 		.ascii	"\316x.YbI}\227\361\264\2210r\026\313\233\205\354\026"
 307      62497D97 
 307      F1B49130 
ARM GAS  /tmp/cc1SpKIA.s 			page 24


 307      7216CB9B 
 307      85EC16
 308 013a 931F33CF 		.ascii	"\223\0373\317,\223\313\274U\262\374\034\250\225\267"
 308      2C93CBBC 
 308      55B2FC1C 
 308      A895B7
 309 0149 82FFF5E8 		.ascii	"\202\377\365\350\305<[\011\205\327\302\314\310\362\355"
 309      C53C5B09 
 309      85D7C2CC 
 309      C8F2ED
 310 0158 4252714D 		.ascii	"BRqM=\3063\253\205,\367\247a:\264\036\366\315-\314\373"
 310      3DC633AB 
 310      852CF7A7 
 310      613AB41E 
 310      F6CD2DCC 
 311 016d 12714BDF 		.ascii	"\022qK\3371\215X&^\004\272l\302\017I\326~\373"
 311      318D5826 
 311      5E04BA6C 
 311      C20F49D6 
 311      7EFB
 312              		.text
 313              		.section	.gnu.lto_chSysRestoreStatusX.9ff4dc438a46aaa9,"",%progbits
 314 0000 789C6362 		.ascii	"x\234cb`b@\007\206@\274\031J3\262202M8\307\300\320\310"
 314      60624007 
 314      8640BC19 
 314      4A33B232 
 314      30324D38 
 315 0018 C1C4C47C 		.ascii	"\301\304\304|E\237\241\201\213e\217\034C\003\0173#\013"
 315      459FA181 
 315      8B658F1C 
 315      43030F33 
 315      230B
 316 002a 48989185 		.ascii	"H\230\221\205\221\021D302\32431\2630\326G2\202\315X"
 316      91114433 
 316      3032D433 
 316      31B330D6 
 316      473282CD 
 317 003f CF74E0C1 		.ascii	"\317t\340\301\377\377\353\356\364\257\351a<\301\304"
 317      FFFFEBEE 
 317      F4AFE961 
 317      3CC1C4
 318 004e C1C8980B 		.ascii	"\301\310\230\013\026gehih\230\240\300\300\220\014\346"
 318      16676568 
 318      696898A0 
 318      C0C0900C 
 318      E6
 319 005f 86004990 		.ascii	"\206\000I\220\356PF&\020\315|\202\341\310\363\203\037"
 319      EE504626 
 319      10CD7C82 
 319      E1C8F383 
 319      1F
 320 0070 FB991319 		.ascii	"\373\231\023\031\027\002-Ngd\214`\314dDq[(#3\303\025"
 320      17022D4E 
 320      67648C60 
 320      CC644471 
 320      5B282333 
 321 0086 7DE6F30C 		.ascii	"}\346\363\014\315\034\020E\014\014\325\014\277\032:"
ARM GAS  /tmp/cc1SpKIA.s 			page 25


 321      CD1C1045 
 321      0C0CD50C 
 321      BF1A3A
 322 0095 1A043219 		.ascii	"\032\0042\031\031\223\031!\2123\031\231`\252Y\300\346"
 322      19931921 
 322      8A331999 
 322      60AA59C0 
 322      E6
 323 00a6 5E64687C 		.ascii	"^dh|\320\241\011\323\000\001!@\305@9\220J}\375\214\374"
 323      D0A109D3 
 323      00012140 
 323      C5403990 
 323      4A7DFD8C 
 324 00bb DC54FDE4 		.ascii	"\334T\375\344\374\224J\375\224\3242\375\344\214\314"
 324      FC944AFD 
 324      94D432FD 
 324      E48CCC
 325 00ca A4CCFC62 		.ascii	"\244\314\374b\375\222\242\322\274l} \243\250D\277\270"
 325      FD92A2D2 
 325      BC6C7D20 
 325      A3A844BF 
 325      B8
 326 00db 2819285E 		.ascii	"(\031(^\\Y\254\227\314\000\000\277\361@\303"
 326      5C59AC97 
 326      CC0000BF 
 326      F140C3
 327              		.text
 328              		.section	.gnu.lto_chSysIsCounterWithinX.9ff4dc438a46aaa9,"",%progbits
 329 0000 789C8552 		.ascii	"x\234\205R=h\024Q\020\236\357\275\375y\273\027\033\355"
 329      3D681451 
 329      109EEFBD 
 329      FD79BB17 
 329      1BED
 330 0012 35A44997 		.ascii	"5\244I\227\305X\0106\202\235\235E\016by\331\304\313"
 330      C5580836 
 330      829D9D45 
 330      0E6279D9 
 330      C4CB
 331 0024 229793BB 		.ascii	"\"\227\223\273SHu\273z\305\025W\034AI\023\210A\202E"
 331      534875BB 
 331      7AC51557 
 331      1C414913 
 331      88418245 
 332 0038 8A542922 		.ascii	"\212T)\"\212\027H\021\020\005\305F\020<\204S+\011V\026"
 332      8A174811 
 332      1005C546 
 332      103C8453 
 332      2B095616 
 333 004c C23AEFED 		.ascii	"\302:\357\355n\214A\311\300\31673|3\363\315c\005\011"
 333      6E8C41C9 
 333      C0CE3733 
 333      7C33F3CD 
 333      630509
 334 005f 3A693DFE 		.ascii	":i=\376\332\\\276\316\2101\202\350\277!J\224\020\262"
 334      DA5CBECE 
 334      883182E8 
 334      BF214A94 
ARM GAS  /tmp/cc1SpKIA.s 			page 26


 334      10B2
 335 0071 3B49B1EF 		.ascii	";I\261\357j?&\205e2\333d\226p\236\237\327\331\373\200"
 335      6A3F2685 
 335      6532DB64 
 335      96709E9F 
 335      D7D9FB80 
 336 0085 331B4ED6 		.ascii	"3\033N\326\342\240\224\005\256\360\015[\031\266\312"
 336      E2A09405 
 336      AEF00D5B 
 336      19B6CA
 337 0094 33CF641E 		.ascii	"3\317d\036\374\214\344\027\354\022\240\003\002\313\220"
 337      FC8CE417 
 337      EC12A003 
 337      02CB90
 338 00a3 96EDB8CA 		.ascii	"\226\355\270\312\363Kh\337\204V''h#\216W\206\243\255"
 338      F34B68DF 
 338      84562727 
 338      68238E57 
 338      86A3AD
 339 00b6 1FCEEAC3 		.ascii	"\037\316\352\303A\3628\376\225\246@\004\276d\032\024"
 339      41F238FE 
 339      95A64004 
 339      BE641A14 
 340 00c6 82663981 		.ascii	"\202f9\2012 \360\367i\246\267\037\257\217n\034\304\235"
 340      3220F0F7 
 340      69A6B71F 
 340      AF8F6E1C 
 340      C49D
 341 00d8 419A5E8D 		.ascii	"A\232^\215 \005]\371\3236\236\265Y\377j\033\034\276"
 341      20055DF9 
 341      D3369EB5 
 341      59FF6A1B 
 341      1CBE
 342 00ea EBF9FDA4 		.ascii	"\353\371\375\244\033\247i\333\364];\255o[\014\206i\372"
 342      1BA769DB 
 342      F45D3BAD 
 342      6F5B0C86 
 342      69FA
 343 00fc F1D14E6F 		.ascii	"\361\321No\015\257\204\017\252`\003\023,\264\202'\214"
 343      0DAF840F 
 343      AA600313 
 343      2CB48227 
 343      8C
 344 010d 927193D1 		.ascii	"\222q\223\321B\015d\263\203\303N\2709M\345\310fS\207"
 344      420D64B3 
 344      83C34EB8 
 344      394DE5C8 
 344      665387
 345 0120 058C93DE 		.ascii	"\005\214\223\336\3076\303^\277P\031B\243<\240\375/{"
 345      C736C35E 
 345      BF501942 
 345      A33CA0FD 
 345      2F7B
 346 0132 9F562E57 		.ascii	"\237V.W\360\0246UaU\031\216\254\014I\335I&u\276&\353"
 346      F0143655 
 346      6155198E 
 346      AC0C49DD 
ARM GAS  /tmp/cc1SpKIA.s 			page 27


 346      492675BE 
 347 0148 2838CE09 		.ascii	"(8\316\011\216E\373\347\364\240\321q\306\261{f\270\266"
 347      8E45FBE7 
 347      F4A0D171 
 347      C6B17B66 
 347      B8B6
 348 015a 7B4196E1 		.ascii	"{A\226\341\350a\257\351\376\367\007\317dAu\2530\377"
 348      E861AFE9 
 348      FEF707CF 
 348      644175AB 
 348      30FF
 349 016c D10712FA 		.ascii	"\321\007\022\372\035$\310\372\351\231Hk\327\343\335"
 349      1D24C8FA 
 349      E999486B 
 349      D7E3DD
 350 017b 42C2DEE1 		.ascii	"B\302\336\341\331\377IP\247J\360\350\263\307\022\374"
 350      D9FF4950 
 350      A74AF0E8 
 350      B3C712FC 
 351 018b 23092F37 		.ascii	"#\011/7\227\012\256\252\352mZ\203\3145\250\336\352\013"
 351      970AAEAA 
 351      EA6D5A83 
 351      CC35A8DE 
 351      EA0B
 352 019d 91ABF028 		.ascii	"\221\253\360(/\272fU\311\274\333[J\206\333Q1\000Y7\370"
 352      2FBA6655 
 352      C9BCDB5B 
 352      4A86DB51 
 352      31005937 
 353 01b2 1CE7DB19 		.ascii	"\034\347\333\031\036\350\233\235\320T}]\020,\326k\013"
 353      1EE89B9D 
 353      D0547D5D 
 353      102CD66B 
 353      0B
 354 01c3 41589F5F 		.ascii	"AX\237_\016\346\027\356\005\341b4\027\325\233A\253q"
 354      0EE617EE 
 354      05E16234 
 354      17D59B41 
 354      AB71
 355 01d5 77E976C0 		.ascii	"w\351v\300A\243\0254\033!\327\233\313\315\251\220\334"
 355      41A31534 
 355      1B21D79B 
 355      CBCDA990 
 355      DC
 356 01e6 E856AB76 		.ascii	"\350V\253vg\352b\216\3239^\372\015\000b\264\373"
 356      67EA628E 
 356      D3395EFA 
 356      0D0062B4 
 356      FB
 357              		.text
 358              		.section	.gnu.lto_chSysPolledDelayX.9ff4dc438a46aaa9,"",%progbits
 359 0000 789C9D54 		.ascii	"x\234\235TOH\024Q\030\377\27673;\177w\213\352P\007A"
 359      4F481451 
 359      18FFBE37 
 359      333B7F77 
 359      8BEA5007 
 360 0015 BC48040E 		.ascii	"\274H\004\016\031\324\251B\202nB\204B\235b]\267u\210"
ARM GAS  /tmp/cc1SpKIA.s 			page 28


 360      19D4A942 
 360      826E4284 
 360      429D625D 
 360      B77588
 361 0028 75657793 		.ascii	"uew\223<9\253[,\265\207E\210\262\016)aR\036\204\222"
 361      3C39AB5B 
 361      2CB58745 
 361      88B20E29 
 361      61521E84 
 362 003d A0405A4B 		.ascii	"\240@ZKH\010\203\354\244f\254BzY\242\242C\007q\372\346"
 362      480883EC 
 362      A466AC42 
 362      7A59A2A2 
 362      430771FA 
 363 0052 CDECA646 		.ascii	"\315\354\246F%=\230\367{\337{\277\337\367~\337\2747"
 363      253D98F7 
 363      7BDF7BBF 
 363      DFF77EDF 
 363      BC37
 364 0064 C380C1F6 		.ascii	"\303\200\301\3666N\317\206\000p\203\020w\001\262\302"
 364      364ECF86 
 364      00708310 
 364      7701B2C2 
 365 0074 5B808CC2 		.ascii	"[\200\214\302P\360\006\002\023s\365`k\212\333\033\""
 365      50F00602 
 365      1373F560 
 365      6B8ADB1B 
 365      22
 366 0085 937814E0 		.ascii	"\223x\024\340\221\304\344MQ\000eO\"\243\341\015\024"
 366      91C4E44D 
 366      5100654F 
 366      22A3E10D 
 366      14
 367 0096 A6F37595 		.ascii	"\246\363u\225\257\253~\244\361HC\335#\351\025\266\301"
 367      AFAB7EA4 
 367      F14843DD 
 367      23E915B6 
 367      C1
 368 00a7 42F9D740 		.ascii	"B\371\327@\204`V&B\310s\320\024Dt\021\020z\231 J\001"
 368      84605626 
 368      42C873D0 
 368      14447411 
 368      107A9920 
 369 00bd 595135DD 		.ascii	"YQ5\335\010\005\261\367<\272\005\210u0l\333\003\245"
 369      0805B1F7 
 369      3CBA0588 
 369      75306CDB 
 369      03A5
 370 00cf AB4F1770 		.ascii	"\253O\027p\320.f\207\354u\307A\264\220\212mD\210 \234"
 370      D02E6687 
 370      EC75C741 
 370      B4908A6D 
 370      4488209C 
 371 00e3 A3006B39 		.ascii	"\243\000k90qk\365\\[(~\235\033=p}\250\257`o\220\324"
 371      30716BF5 
 371      5C5B287E 
 371      9D1B3D70 
ARM GAS  /tmp/cc1SpKIA.s 			page 29


 371      7DA8AF60 
 372 00fa 4281C1D1 		.ascii	"B\201\301\321\035*?\316\345\265B&g;N/\327\235\330\221"
 372      1D2A3FCE 
 372      E5B54226 
 372      673B4E2F 
 372      D79DD891 
 373 010e 6EC05E5A 		.ascii	"n\300^Z:s\333\316\026\035\347\244\205\"\203\323\277"
 373      3A73DBCE 
 373      161DE7A4 
 373      852283D3 
 373      BF
 374 011f 648A27C3 		.ascii	"d\212'\303m\307\304\212%\307)\017.\257,\342\276\220"
 374      6DC7C48A 
 374      25C7290F 
 374      2EAF2CE2 
 374      BE90
 375 0131 88710409 		.ascii	"\210q\004\011\3028\214u \003\325\252\270\235J3#4\243"
 375      C2388C75 
 375      2003D5AA 
 375      B89D4A33 
 375      2334A3
 376 0144 118E12EA 		.ascii	"\021\216\022\352\204\367\011\015?\016\372HM\202,\331"
 376      84F7090D 
 376      3F0EFA48 
 376      4D822CD9 
 377 0154 AFF53280 		.ascii	"\257\3652\200\2739\265\026\352\351\335\267\"#\020f\341"
 377      BB39B516 
 377      EAE9DDB7 
 377      22231066 
 377      E1
 378 0165 E5C287B5 		.ascii	"\345\302\207\265R>\342s+\242\342\233\265\011\2720a|"
 378      523EE273 
 378      2BA2E29B 
 378      B509BA30 
 378      617C
 379 0177 881209B9 		.ascii	"\210\022\011\2712\206\362!xdg3\245\311k\253\373k,\224"
 379      3286F221 
 379      78646733 
 379      A5C96BAB 
 379      FB6B2C94 
 380 018b EEC29D4C 		.ascii	"\356\302\235L\301\336ma\300-G\266\207l;\304+\223y=m"
 380      C1DE6D61 
 380      C02D47B6 
 380      876C3BC4 
 380      2B93793D 
 381 01a0 AE2C8C63 		.ascii	"\256,\214c\224\202\332,\364\347^\335(O\010^\322\030"
 381      9482DA2C 
 381      F4E75EDD 
 381      284F085E 
 381      D218
 382 01b2 4A311463 		.ascii	"J1\024c>\225\374\010@W\340/\206\312\337\345\337\014"
 382      3E95FC08 
 382      4057E02F 
 382      86CADFE5 
 382      DF0C
 383 01c4 29FF6568 		.ascii	")\377eh\33434\003\323\253\313\237\306\276\005\252[y"
 383      DC333403 
ARM GAS  /tmp/cc1SpKIA.s 			page 30


 383      D3ABCB9F 
 383      C6BE05AA 
 383      5B79
 384 01d6 D97966A9 		.ascii	"\331yf\251\352\314s'B\256^\230\201\354j\346\036\206"
 384      EACC7327 
 384      42AE5E98 
 384      81EC6AE6 
 384      1E86
 385 01e8 F1312F40 		.ascii	"\3611/@&\003\2339\022L\357\025\334\254U\206\264\205"
 385      26039B39 
 385      124CEF15 
 385      DCAC5586 
 385      B485
 386 01fa D1820178 		.ascii	"\321\202\001xP#\264RfJ6\013}\237\373\237\013\025\252"
 386      5023B452 
 386      664A360B 
 386      7D9FFB9F 
 386      0B15AA
 387 020d 1643D525 		.ascii	"\026C\325%\315\203\352\032\026\350\354\177x#\200\000"
 387      CD83EA1A 
 387      16E8EC7F 
 387      78238000 
 388 021d 4FAF542C 		.ascii	"O\257T,L}\331\363'\013\352?-h\260\242\222\005\275j\341"
 388      4C7DD9F3 
 388      270BEA3F 
 388      2D68B0A2 
 388      9205BD6A 
 389 0232 C5486785 		.ascii	"\305Hg\205k\304h\236{\320}\017J\376\326$\363\307*\370"
 389      6BC4689E 
 389      7BD07D0F 
 389      4AFED624 
 389      F3C72AF8 
 390 0246 7634BE95 		.ascii	"v4\276\225\301\317\213\374\224\247\236\2747*\207\032"
 390      C1CF8BFC 
 390      94A79EBC 
 390      372A871A 
 391 0256 74399B3E 		.ascii	"t9\233>\207y\010Rm\362\372\315g\002\345\327\271\205"
 391      87790852 
 391      6DF2FACD 
 391      6702E5D7 
 391      B985
 392 0268 10D03F00 		.ascii	"\020\320?\000[1\350\336\300w\220)-\036\254\276y\337"
 392      5B31E8DE 
 392      C0779029 
 392      2D1EACBE 
 392      79DF
 393 027a 25D292FB 		.ascii	"%\322\222\373\0373\315\216D<jF\022\355=f{\264\333\214"
 393      1F33CD8E 
 393      443C6A46 
 393      12ED3D66 
 393      7BB4DB8C 
 394 028e 74586D56 		.ascii	"tXmV\"e\246\223\227;/\2314H\246\315T2B\363\251\236T"
 394      2265A693 
 394      973B2F99 
 394      3448A6CD 
 394      543242F3 
 395 02a5 43048468 		.ascii	"C\004\204hg\273l]L\307\273\032\216\370\330\350\343\341"
ARM GAS  /tmp/cc1SpKIA.s 			page 31


 395      67BB6C5D 
 395      4CC7BB1A 
 395      8EF8D8E8 
 395      E3E1
 396 02b7 E33BC8D5 		.ascii	"\343;\310\325\225H\246Sf\323\331\346S\315W\210\020I"
 396      9548A653 
 396      66D3D9E6 
 396      53CD5788 
 396      1049
 397 02c9 24A317BA 		.ascii	"$\243\027\272\217\305\033:\340']s4\202"
 397      8FC51B3A 
 397      E0275D73 
 397      3482
 398              		.text
 399              		.section	.gnu.lto_.symbol_nodes.9ff4dc438a46aaa9,"",%progbits
 400 0000 789C4DCC 		.ascii	"x\234M\3149N\003A\020\205\341\367\272\247\315b\033\274"
 400      394E0341 
 400      1085E1F7 
 400      BAA7CD62 
 400      1BBC
 401 0012 B2247009 		.ascii	"\262$p\011\016\3011\340$\317\362\004X\"\341\000@\300"
 401      0EC131E0 
 401      24CFF204 
 401      5822E100 
 401      40C0
 402 0024 24644484 		.ascii	"$dD\204$X\010!$'p\000\300\330l\006\314\236\001\303\330"
 402      24580821 
 402      24277000 
 402      C0D86C06 
 402      CC9E01C3 
 403 0039 B8A7925F 		.ascii	"\270\247\222_\237TU\006\006\347\304`L\037\"6Z\200\264"
 403      9F545506 
 403      06E7C460 
 403      4C1F2236 
 403      5A80B4
 404 004c D558356D 		.ascii	"\325X5m\012Cn\236\254\270W\032\010f\2172\251\245\272"
 404      0A436E9E 
 404      ACB8571A 
 404      08668F32 
 404      A9A5BA
 405 005f 911D9126 		.ascii	"\221\035\221&4\012R\274\246\334\220\333\015\272\027"
 405      340A52BC 
 405      A6DC90DB 
 405      0DBA17
 406 006e 3290756F 		.ascii	"2\220uo\264\361'wE\3042\035*\363\277\263l\272\324\230"
 406      B4F12777 
 406      45C4321D 
 406      2AF3BFB3 
 406      6CBAD498 
 407 0082 BF3037D4 		.ascii	"\27707\324x\212\267\324D\212w\324d\212\367T\326\223"
 407      788AB7D4 
 407      448A77D4 
 407      648AF754 
 407      D693
 408 0094 9F546EC0 		.ascii	"\237Tn\300Z\215\374\240\362^_\324\224\327;5\355\325"
 408      5A8DFCA0 
 408      F25E5FD4 
ARM GAS  /tmp/cc1SpKIA.s 			page 32


 408      94D73B35 
 408      EDD5
 409 00a6 A70A5ECF 		.ascii	"\247\012^\317T\321\353\211*y=Re\257\036U\361z\240\252"
 409      54D1EB89 
 409      2A793D52 
 409      65AF1E55 
 409      F17AA0AA 
 410 00ba 23595B44 		.ascii	"#Y[Dx\332\215[@s\375h!\2608;\3769p\326\225\020\356/"
 410      78DA8D5B 
 410      4073FD68 
 410      21B0383B 
 410      FE3970D6 
 411 00d2 D90C50BF 		.ascii	"\331\014P\277\370\246\315\314#J:\207f\322Y\264\223\316"
 411      F8A6CDCC 
 411      234A3A87 
 411      66D259B4 
 411      93CE
 412 00e4 20BCFC6B 		.ascii	" \274\374k\025Q\322\012\232I\313\210\326z\2136k\007"
 412      1551D20A 
 412      9A49CB88 
 412      D67A8B36 
 412      6B07
 413 00f6 F7B90087 		.ascii	"\367\271\000\207\273-\332\274\303N\\\374\002\270P\223"
 413      BB2DDABC 
 413      C34E5CFC 
 413      02B85093 
 414 0106 3A       		.ascii	":"
 415              		.text
 416              		.section	.gnu.lto_.refs.9ff4dc438a46aaa9,"",%progbits
 417 0000 789C2588 		.ascii	"x\234%\210\201\011\000 \014\303\332\010\233\372\210"
 417      81090020 
 417      0CC3DA08 
 417      9BFA88
 418 000f FF7F68D1 		.ascii	"\377\177h\321BB(BG\177\266\350\221\003CP\\E\277\232"
 418      42422842 
 418      477FB6E8 
 418      91034350 
 418      5C45BF9A 
 419 0023 2CEC9DBE 		.ascii	",\354\235\276\016\321\000\216"
 419      0ED1008E 
 420              		.text
 421              		.section	.gnu.lto_.decls.9ff4dc438a46aaa9,"",%progbits
 422 0000 789CC55C 		.ascii	"x\234\305\\\011|\024U\232\257\252\356N'$r\251\210\243"
 422      097C1455 
 422      9AAFAAEE 
 422      4E272472 
 422      A988A3
 423 0013 33C4B9D6 		.ascii	"3\304\271\326uv\314\205\2103\263#\330\341\310\216\321"
 423      7576CC85 
 423      8833B323 
 423      D8E1C88E 
 423      D1
 424 0024 4C12909D 		.ascii	"L\022\220\235\331\375\265e\322\220h\222\316twPfw\326"
 424      D9FDB565 
 424      D2906892 
 424      CE747750 
 424      6677D6
ARM GAS  /tmp/cc1SpKIA.s 			page 33


 425 0037 4AB85414 		.ascii	"J\270T\024B\202\010\310)r(r\204+\3344\"\227 \367%\227"
 425      428208C8 
 425      29722872 
 425      842BDC34 
 425      229720F7 
 426 004d 4151C093 		.ascii	"AQ\300\223\200rK\366{_]\357UWu\252\030g7\277\274\257"
 426      80724BF6 
 426      7B5F5DEF 
 426      555775AA 
 426      186737BF 
 427 0063 5E7DEFBD 		.ascii	"^}\357\275\377\373\336\367}\357\250W\257Z\340\004\356"
 427      FFFBDEF7 
 427      7DEFA857 
 427      AF5AE004 
 427      EE
 428 0074 360FC7B5 		.ascii	"6\017\307\265\300_E\230\343:v\340\270[8\216\373=\004"
 428      C05F4598 
 428      E33A76E0 
 428      B85B388E 
 428      FB3D04
 429 0087 2F841910 		.ascii	"/\204\031\020 \231[\000\241\021\302\303\020V)i\344\257"
 429      20995B00 
 429      A111C2C3 
 429      10562969 
 429      E4AF
 430 0099 1384A779 		.ascii	"\023\204\247y\216\013B\010C\030\014\341o\020\252!\014"
 430      8E0B4208 
 430      43180CE1 
 430      6F10AA21 
 430      0C
 431 00aa 83300AC2 		.ascii	"\2030\012\302h\010u\020&Bx\007\302\022\010\253 \254"
 431      68087510 
 431      26427807 
 431      C21208AB 
 431      20AC
 432 00bc 81B00EC2 		.ascii	"\201\260\016\302.\010\373!\034\204p\030\302\021\010"
 432      2E08FB21 
 432      1C847018 
 432      C21108
 433 00cb C720B801 		.ascii	"\307 \270\001\373\004\\\233 |\002\241\253\3001\177\244"
 433      FB045C9B 
 433      207C02A1 
 433      ABC0317F 
 433      A4
 434 00dc CEB6706D 		.ascii	"\316\266pm\340\344k\212\"W\011\344+\2050\013\302l\010"
 434      E0E46B8A 
 434      225709E4 
 434      2B85300B 
 434      C26C08
 435 00ef 4B202C85 		.ascii	"K ,\205p\006\302\337 \3747\004^iW\030\342U\020\032 "
 435      7006C2DF 
 435      20FC3704 
 435      5E695718 
 435      E255101A 
 436 0104 AC84F05F 		.ascii	"\254\204\360_\020\\\012\366Y\210\2373\324\311)\355M"
 436      105C0AF6 
 436      59889F33 
ARM GAS  /tmp/cc1SpKIA.s 			page 34


 436      D4C929ED 
 436      4D
 437 0115 54F4F005 		.ascii	"T\364\360\005\304OAx\036\012\245\300u5\360$\210W\273"
 437      C44F4178 
 437      1E0AA5C0 
 437      7535F024 
 437      8857BB
 438 0128 649CCF81 		.ascii	"d\234\317\201w\015B2/\327\371\264r%\355\241\377\210"
 438      770D4232 
 438      2FD7F9B4 
 438      7225EDA1 
 438      FF88
 439 013a EE3AC335 		.ascii	"\356:\3035A\320\333\262\034x\267\011r\233\036V\332U"
 439      41D0DBB2 
 439      1C78B709 
 439      729B1E56 
 439      DA55
 440 014c 03A08B20 		.ascii	"\003\240\213 \264P\365z\005\3316\015\020_\354\222\365"
 440      B450F57A 
 440      05D9360D 
 440      105FEC92 
 440      F5
 441 015d B104AE2B 		.ascii	"\261\004\256+\340\272\014\256\225\220o9\\\227\3025\011"
 441      E0BA0CAE 
 441      95906F39 
 441      5C97C235 
 441      09
 442 016e 7813217E 		.ascii	"x\023!~\003\342wC\271[!\334\002\241\035\004\017\204"
 442      03E27743 
 442      B95B21DC 
 442      02A11D04 
 442      0F84
 443 0180 CE103A40 		.ascii	"\316\020:@HPdj\204\274\253]\262\275\326\271d\333\231"
 443      4850646A 
 443      84BCAB5D 
 443      B2BDD6B9 
 443      64DB99
 444 0193 C93F58C1 		.ascii	"\311?X\301\246m\361:\360\236\343e\3717*\262\021\271"
 444      A66DF13A 
 444      F09EE365 
 444      F9372AB2 
 444      11B9
 445 01a5 C81FAF94 		.ascii	"\310\037\257\2241\376\021\337I\346\344r*N\203\202e\304"
 445      31FE11DF 
 445      49E6E472 
 445      2A4E8382 
 445      65C4
 446 01b7 51DB46FE 		.ascii	"Q\333F\376\004\245\354\032\023L\342\213\235\024{\251"
 446      04A5EC1A 
 446      134CE28B 
 446      9D147BA9 
 447 01c7 6536B964 		.ascii	"e6\271d\237\336\315\2636\274U\261!\255Gb\327\315p\335"
 447      9FDECDB3 
 447      36BC55B1 
 447      21AD4762 
 447      D7CD70DD 
 448 01db E2D2FB83 		.ascii	"\342\322\373\203\332\027\326+~\252\332\271\243b\353"
ARM GAS  /tmp/cc1SpKIA.s 			page 35


 448      DA17D62B 
 448      7EAADAB9 
 448      A362EB
 449 01ea 364ABD41 		.ascii	"6J\275A\305\227\217(\276}P\361\365]\212\357?\255\224"
 449      C5978F28 
 449      BE7D50F1 
 449      F55D8AEF 
 449      3FAD94
 450 01fd A77DFC84 		.ascii	"\247}\374\204\241\015\244\037y\024Y\376\011\322S\005"
 450      A10DA41F 
 450      791459FE 
 450      09D25305 
 451 020d 5D5ED2EE 		.ascii	"]^\322\356.@~\251\3704\311Kx/\360\2616\032\245\244\031"
 451      2E407EA9 
 451      F834C94B 
 451      782FF0B1 
 451      361AA5A4 
 452 0222 F5364AE9 		.ascii	"\3656J\351\273\306\277\321\212\316i[\020\375\023\336"
 452      BBC6BFD1 
 452      8ACE695B 
 452      10FD13DE 
 453 0232 56B83E4B 		.ascii	"V\270>Ka\214\346\315\355I\372=19)\263\015\"\377C\225"
 453      618CE6CD 
 453      ED49FA3D 
 453      313929B3 
 453      0D22FF43 
 454 0247 A953C60A 		.ascii	"\251S\306\012\302\032o(;Q\321\313\353T\335n%\215W\322"
 454      C21A6F28 
 454      3B51D1CB 
 454      EB54DD6E 
 454      258D57D2 
 455 025b 09EE5B70 		.ascii	"\011\356[p\235\003a\226\241\374;J\037\235f(O\360J\250"
 455      9D036196 
 455      A1FC3B4A 
 455      1F9D6628 
 455      4FF04AA8 
 456 026f F180145B 		.ascii	"\361\200\024[-\310\362\2202\357\273d\336\"\003^2\367"
 456      2DC8F290 
 456      32EFBB64 
 456      DE22035E 
 456      32F7
 457 0281 9224D548 		.ascii	"\222$\325H\323GH}\267\266\355\300\325J\360\227\372\302"
 457      D347487D 
 457      B7B6EDC0 
 457      D54AF097 
 457      FAC2
 458 0293 277C12F7 		.ascii	"'|\022\367\002\341GGH/\360\325\015ws\334\000^\344\333"
 458      02E14747 
 458      482FF0D5 
 458      0D7773DC 
 458      005EE4DB 
 459 02a7 26713D30 		.ascii	"&q=0\222\222\204B\374\202{S\222j\2336\315\331#HR\242"
 459      92928442 
 459      FC827B53 
 459      926A9B36 
 459      CDD92348 
 460 02bd C8CF8462 		.ascii	"\310\317\204b\002\367;\236\273\217{\013p\000\354\343"
ARM GAS  /tmp/cc1SpKIA.s 			page 36


 460      02F73B9E 
 460      BB8F7B0B 
 460      7000ECE3 
 461 02cd 9F99E88E 		.ascii	"\237\231\350\216s\002\276v\304\256\015|\215$A\302\034"
 461      7302BE76 
 461      C4AE0D7C 
 461      8D2441C2 
 461      1C
 462 02de 84078B8A 		.ascii	"\204\007\213\212\374l\376>\347X\323\257l\271[r\213\374"
 462      FC6CFE3E 
 462      E758D3AF 
 462      6CB95B72 
 462      8BFC
 463 02f0 DB88D3C0 		.ascii	"\333\210\323\300\263@\"\237\224D\013\211\367j\006\202"
 463      B340229F 
 463      94440B89 
 463      F76A0682 
 464 0300 85C94AA4 		.ascii	"\205\311J\244E\375c\233\367\017-\2434L\352\244\266\254"
 464      45FD639B 
 464      F70F2DA3 
 464      344CEAA4 
 464      B6AC
 465 0312 495000DE 		.ascii	"IP\000\336\340;\350\272\220\024cb\026\245L\252Z\304"
 465      E03BE8BA 
 465      90146362 
 465      16A54CAA 
 465      5AC4
 466 0324 AD9498CF 		.ascii	"\255\224\230\317\313mU\330Z\344W\212PV\345f\360\311"
 466      CB6D55D8 
 466      5AE4578A 
 466      5056E566 
 466      F0C9
 467 0336 0623CA95 		.ascii	"\006#\312\225\231\227PLxe\373\316=\374P4\341\002T\375"
 467      9997504C 
 467      7865FBCE 
 467      3DFC5034 
 467      E10254FD 
 468 034a 70C1D486 		.ascii	"p\301\324\2066\240\326\216\330\244zC\003B\275r\323P"
 468      36A0D68E 
 468      D8A47A43 
 468      0342BD72 
 468      D350
 469 035c 5746AE79 		.ascii	"WF\256y\010\275v)\002\215\027\214\356\3405\270\203\227"
 469      08BD7629 
 469      028D178C 
 469      EEE035B8 
 469      8397
 470 036e 35933749 		.ascii	"5\2237I\217\020\013\265\343\376\301\331\231\256\332"
 470      8F100BB5 
 470      E3FEC1D9 
 470      99AEDA
 471 037d 897B5531 		.ascii	"\211{U1\265\304GD\376\367\267[\232l\005\337\011c.\034"
 471      B5C44744 
 471      FEF7B75B 
 471      9A6C05DF 
 471      09632E1C 
 472 0391 0B80F170 		.ascii	"\013\200\361p2\220~.\255n\253\202\215|2\255\021\246"
ARM GAS  /tmp/cc1SpKIA.s 			page 37


 472      32907E2E 
 472      AD6EAB82 
 472      8D7C32AD 
 472      11A6
 473 03a3 FA8EDC58 		.ascii	"\372\216\334X\034)(\035Ow\253\000\331\272\222\353\353"
 473      1C29281D 
 473      4F77AB00 
 473      D9BA92EB 
 473      EB
 474 03b4 DF9BA198 		.ascii	"\337\233\241\230~5\337\021$8bPs\253@\002\367\011\026"
 474      7E35DF11 
 474      24386250 
 474      73AB4002 
 474      F70916
 475 03c7 5907C5E5 		.ascii	"Y\007\305\345\202\010-5\255~\355D5_\215\320$\215c`\231"
 475      82082D35 
 475      AD7EED44 
 475      355F8DD0 
 475      248D6360 
 476 03dc BF7BB8E9 		.ascii	"\277{\270\351 y\364\332\210)wJ\323\337\205\374\253\240"
 476      2079F4DA 
 476      8829774A 
 476      D3DF85FC 
 476      ABA0
 477 03ee 6502F786 		.ascii	"e\002\367\206K\3055\323\200\3263(\025\261x76\247\324"
 477      4BC535D3 
 477      80D63328 
 477      15B17837 
 477      36A7D4
 478 0401 8A2AD85B 		.ascii	"\212*\330[\216\301R\031\260\372-\223\025\341\344.\262"
 478      8EC15219 
 478      B0FA2D93 
 478      15E1E42E 
 478      B2
 479 0412 C80E5EA2 		.ascii	"\310\016^\242\225pRt\334\026\020NQ\356\364\004\253\256"
 479      95705274 
 479      DC16104E 
 479      51EEF404 
 479      ABAE
 480 0424 20C03A88 		.ascii	" \300:\210\324\263\325\250\334M\3137\360\3309\266\332"
 480      D4B3D5A8 
 480      DC4DCB37 
 480      F0D839B6 
 480      DA
 481 0435 526DE3F6 		.ascii	"Rm\343\366\327P\372V}$A\255\275\030k_\217\265\177`\254"
 481      D750FA56 
 481      7D2441AD 
 481      BD186B5F 
 481      8FB57F60 
 482 044a BDF1C4C5 		.ascii	"\275\361\304\305\241\212i?\260U\377G\273\306\305\326"
 482      A18A693F 
 482      B055FF47 
 482      BBC6C5D6 
 483 045a 6FD92BD4 		.ascii	"o\331+\324ik\346\025\271\215{\320\202/\272\215\003\300"
 483      696BE615 
 483      B98D7BD0 
 483      822FBA8D 
ARM GAS  /tmp/cc1SpKIA.s 			page 38


 483      03C0
 484 046c C3C97455 		.ascii	"\303\311tUJ\307\3212\010\\\235[\225\376\246\034\250"
 484      4AC7D132 
 484      085C9D5B 
 484      95FEA61C 
 484      A8
 485 047d A971EAF5 		.ascii	"\251q\352\365z\276n\250\2645]\225a\274cD\326\213\316"
 485      7ABE6EA8 
 485      B4355D95 
 485      61BC6344 
 485      D68BCE
 486 0490 EF429794 		.ascii	"\357B\227\224\301&\331\001\263t\241\232\350\2674\330"
 486      C126D901 
 486      B374A19A 
 486      E8B734D8 
 487 04a0 54C760AC 		.ascii	"T\307`\254d\027i\2607\354\200\265\267\226\3542\0156"
 487      641769B0 
 487      37EC80B5 
 487      B796EC32 
 487      0D36
 488 04b2 DB31182B 		.ascii	"\3331\030+\331U\032\354m;`\235\255%\273N\203-p\014\306"
 488      D9551AEC 
 488      6D3B609D 
 488      AD25BB4E 
 488      832D700C 
 489 04c7 4A768306 		.ascii	"Jv\203\006[l\007,\325Z\262\332\275\024\330r\307`\254"
 489      5B6C072C 
 489      D55AB2DA 
 489      BD14D872 
 489      C760AC
 490 04da 647534D8 		.ascii	"du4\330*;`\367ZK6\216\006[\347\030\214\225l<\015\366"
 490      2A3B60F7 
 490      5A4B368E 
 490      065BE718 
 490      8C956C3C 
 491 04f0 AE1DB074 		.ascii	"\256\035\260tk\311&\320`\233\035\203\261\222M\242\301"
 491      6BC926D0 
 491      609B1D83 
 491      B1924DA2 
 491      C1
 492 0501 DEB703D6 		.ascii	"\336\267\003\326\335Z\262\3114\330N\307`\254d\213h\260"
 492      DD5AB2C9 
 492      34D84EC7 
 492      60AC648B 
 492      68B0
 493 0513 BD76C07A 		.ascii	"\275v\300zXK\266\230\006;\340\030\214\225l)\015v\330"
 493      584BB698 
 493      063BE018 
 493      8C956C29 
 493      0D76D8
 494 0526 0E585F6B 		.ascii	"\016X_k\311\226\323`G\035\203\261\222\255\240\301N\330"
 494      C996D360 
 494      471D83B1 
 494      92ADA0C1 
 494      4ED8
 495 0538 01CBB396 		.ascii	"\001\313\263\226l\025\015v\3221\030+\331\032\032\354"
 495      6C150D76 
ARM GAS  /tmp/cc1SpKIA.s 			page 39


 495      D231182B 
 495      D91A1AEC 
 496 0548 941DB001 		.ascii	"\224\035\260\001\326\222\255\243\301\3168\006c%\333"
 496      D692ADA3 
 496      C1CE3806 
 496      6325DB
 497 0557 4D837D69 		.ascii	"M\203}i\007\354I\023\311\264?\253u\353\016\375\031E"
 497      07EC4913 
 497      C9B43FAB 
 497      75EB0EFD 
 497      1945
 498 0569 E0BE71AB 		.ascii	"\340\276q\253\353\033\207s4\247c\\p;]\2131\355\206\225"
 498      EB1B8773 
 498      34A7635C 
 498      703B5D8B 
 498      31ED8695 
 499 057d EA6733F8 		.ascii	"\352g3\370zy\236\227W\213W\354 \306\231\000'm\241\226"
 499      7A799E97 
 499      578B57EC 
 499      20C69900 
 499      276DA196 
 500 0591 9ED51EA7 		.ascii	"\236\325\036\247`\006W&`\314\312Iy\210j\232\025\355"
 500      60065726 
 500      60CCCA49 
 500      79886A9A 
 500      15ED
 501 05a3 3C415FBC 		.ascii	"<A_\274%\252X\344\371U^\251\301\023\276\240e\226:w6"
 501      25AA58E4 
 501      F9555EA9 
 501      C113BEA0 
 501      65963A77 
 502 05b8 CF2BF2A3 		.ascii	"\317+\362\243\205_\000\035#\350\017\235r\\\215\265\340"
 502      855F001D 
 502      23E80F9D 
 502      725C8DB5 
 502      E0
 503 05c9 0ECE8B1E 		.ascii	"\016\316\213\036\263\315\002\004\210_\324\312\023^\026"
 503      B3CD0204 
 503      885FD4CA 
 503      135E16
 504 05d8 284F186D 		.ascii	"(O\030mGMq\246\366\217\266L\276Cj\212\362T{\343*\007"
 504      474D71A6 
 504      F68FB64C 
 504      BE436A8A 
 504      F2547BE3 
 505 05ee 9E30477D 		.ascii	"\2360G}\240>\367\326\013dQ\377\252\307\364a\325\006"
 505      A03EF7D6 
 505      0B6451FF 
 505      AAC7F461 
 505      D506
 506 0600 D4DA11F3 		.ascii	"\324\332\021\363\177\205k\325\361\0104\365\246\201\256"
 506      7F856BD5 
 506      F10834F5 
 506      A681AE
 507 060f 8C9CDA1D 		.ascii	"\214\234\332\035\201&\"\320l\003\220\310\363\206\247"
 507      812622D0 
 507      6C0390C8 
ARM GAS  /tmp/cc1SpKIA.s 			page 40


 507      F386A7
 508 061e 5E9E7D2E 		.ascii	"^\236}.\345\223\364H\314F\306\017\230\027\236\200\214"
 508      E593F448 
 508      CC46C60F 
 508      98179E80 
 508      8C
 509 062f F6629AD3 		.ascii	"\366b\232\323\352\352\251i\365\241\357\307\362\027j"
 509      EAEAA969 
 509      F5A1EFC7 
 509      F2176A
 510 063e A409E90E 		.ascii	"\244\011\351\016\264\263}\207j\261\251\250\237\0251"
 510      B4B37D87 
 510      6AB1A9A8 
 510      9F1531
 511 064d FA192F38 		.ascii	"\372\031/8S\220\300E\0357\344^\266!\257\275W\347\274"
 511      5390C045 
 511      1D37E45E 
 511      B621AFBD 
 511      57E7BC
 512 0660 219AEBCD 		.ascii	"!\232\353\315\304\206l\375\001\032\262\333qC\322\251"
 512      C4866CFD 
 512      011AB2DB 
 512      7143D2A9 
 513 0670 869027F6 		.ascii	"\206\220'\366\357\352\344q\360V\256.\376\203)\221g\256"
 513      EFEAE471 
 513      F056AE2E 
 513      FE832991 
 513      67AE
 514 0682 702BF358 		.ascii	"p+\363X\030\375\360}>Uf\267\366D(E/\275/?O3[b\346ui"
 514      18FDF07D 
 514      3E5566B7 
 514      F6442845 
 514      2FBD2F3F 
 515 069d BD7597AA 		.ascii	"\275u\227\252\262y\250\262Cf\235\314\026\324\332\315"
 515      B279A8B2 
 515      43669DCC 
 515      16D4DACD 
 516 06ad EF3528BB 		.ascii	"\3575(\273T\013\020\352\370MC]\331\322(\367\327\006"
 516      540B10EA 
 516      F84D435D 
 516      D9D228F7 
 516      D706
 517 06bf 04FA34C6 		.ascii	"\004\3724\306\214\011\006+&\260V\204[R\323e\334C|^\341"
 517      8C09062B 
 517      26B05684 
 517      5B52D365 
 517      DC437C5E 
 518 06d4 901B2FF7 		.ascii	"\220\033/\367\177^\016fc\024\237X\320\341l\254y\320"
 518      7F5E0E66 
 518      63149F58 
 518      D0E16CAC 
 518      79D0
 519 06e6 A775EA4C 		.ascii	"\247u\352L*\033\351\342\337\205X\023]2J\335\024z\230"
 519      2A1BE9E2 
 519      DF855813 
 519      5D324ADD 
 519      147A98
ARM GAS  /tmp/cc1SpKIA.s 			page 41


 520 06f9 CCA52D7F 		.ascii	"\314\245-\177'\334\236\355\224\333\331\333\206\034\265"
 520      27DC9EED 
 520      94DBD9DB 
 520      861CB5
 521 0708 5F75BB55 		.ascii	"_u\273U\330\242\021\011F\0237\030\307\344\326\367\012"
 521      D8A21109 
 521      46133718 
 521      C7E4D6F7 
 521      0A
 522 0719 05AE2EE1 		.ascii	"\005\256.\341&[\242\375\011\334\304\004\033Sfj\034s"
 522      265BA2FD 
 522      09DCC404 
 522      1B53666A 
 522      1C73
 523 072b 1DBAA498 		.ascii	"\035\272\244\230\253\325\235(u\277p\337\346j~\030j#"
 523      ABD59D28 
 523      75BF70DF 
 523      E66A7E18 
 523      6A23
 524 073d 2A90FDC2 		.ascii	"*\220\375\302)\006m\330\330\322z\007\213l\024b\366\013"
 524      29066DD8 
 524      D8D27A07 
 524      8B6C1462 
 524      F60B
 525 074f 3F50F70B 		.ascii	"?P\367\013I\232\215M-f\277P\344\337\345\005\005\367"
 525      499A8D4D 
 525      2D66BF50 
 525      E4DFE505 
 525      05F7
 526 0761 6635CA18 		.ascii	"f5\312\030Q\027P\3447\341\372h\263p\017\255\3755\216"
 526      511750E4 
 526      37E1FA68 
 526      B3700FAD 
 526      FD358E
 527 0774 B59F4A6B 		.ascii	"\265\237Jk?zm\373d\236\310o\262\017\327\203^\265j[\265"
 527      3F7A6DFB 
 527      649EC86F 
 527      B20FD783 
 527      5EB56A5B 
 528 0789 3BC72AAA 		.ascii	";\307*\252\337\206\252\337l\241\372\036V@\002w\020\213"
 528      DF86AADF 
 528      6CA1FA1E 
 528      56400277 
 528      108B
 529 079b EC8851FD 		.ascii	"\354\210Q\375\241\375\252\352w\330R\375\001S\325\357"
 529      A1FDAAEA 
 529      77D852FD 
 529      0153D5EF 
 530 07ab 70AE7A05 		.ascii	"p\256z\005\357\240\276U+\362\3579\006K\215g\307\035"
 530      EFA0BE55 
 530      2BF2EF39 
 530      064B8D67 
 530      C71D
 531 07bd 941D77A2 		.ascii	"\224\035w\242\035w\201\035E~7k\315\323Fk2\252S"
 531      1D77811D 
 531      457E376B 
 531      CDD3466B 
ARM GAS  /tmp/cc1SpKIA.s 			page 42


 531      32AA53
 532 07d0 A296BB24 		.ascii	"\242\226\273$R\264~\247\272A,\017|\347\355xG\234\275"
 532      52B47EA7 
 532      BA412C0F 
 532      7CE7ED78 
 532      479CBD
 533 07e3 8DA93B65 		.ascii	"\215\251;e\225 \330e\307`\251\014\330\332\321Sl\355"
 533      9520D865 
 533      C760A90C 
 533      D8DAD153 
 533      6CED
 534 07f5 FF4A3CFD 		.ascii	"\377J<\375<\"pC\275\244\336\303F\177Yru\367H\305_\016"
 534      3C227043 
 534      BDA4DEC3 
 534      467F5972 
 534      75F748C5 
 535 080b DBF01798 		.ascii	"\333\360\027\230\355?M\222\352RT\307]\253\241\306Qu"
 535      ED3F4D92 
 535      EA5254C7 
 535      5DABA1C6 
 535      5175
 536 081d 1C6FB976 		.ascii	"\034o\271vv\033\217p\362\363\325&#\\\253\217\177,\334"
 536      761B8F70 
 536      F2F3D526 
 536      235CAB8F 
 536      7F2CDC
 537 0830 8DC0D674 		.ascii	"\215\300\326tg\212\221{d\364\350J\262\3369\211m\372"
 537      678A917B 
 537      64F4E84A 
 537      B2DE3989 
 537      6DFA
 538 0842 C06B9C15 		.ascii	"\300k\234\025d\315P\216x\230r\304#\350\210G\321\021"
 538      64CD508E 
 538      789872C4 
 538      23E88847 
 538      D111
 539 0854 8F23FD88 		.ascii	"\217#\375\210vG\253%W\023\375\300t\300q\273S\015\326"
 539      7647AB25 
 539      5713FDC0 
 539      74C071BB 
 539      530DD6
 540 0867 B1AAE610 		.ascii	"\261\252\346\020]\3151\257\015\337\263\336\012\203q"
 540      5DCD31AF 
 540      0DDFB3DE 
 540      0A8371
 541 0876 FD40BDBA 		.ascii	"\375@\275\272&\220\337\235|\346\030\221\365\346\346"
 541      2690DF9D 
 541      7CE61891 
 541      F5E6E6
 542 0885 D1CC9AA0 		.ascii	"\321\314\232\240\331\016\\\017\023\001\315\376\350\027"
 542      D90E5C0F 
 542      1301CDFE 
 542      E817
 543 0893 5930C7F1 		.ascii	"Y0\307\361\304L\033xb\240\215H7!\335\202t$\032\356E"
 543      C44C1B78 
 543      62A08D48 
 543      3721DD82 
ARM GAS  /tmp/cc1SpKIA.s 			page 43


 543      74241AEE 
 544 08a8 A4A390D6 		.ascii	"\244\243\220\326!\235\202\364\015\244s\220\256G\272"
 544      219D82F4 
 544      0DA47390 
 544      AE47BA
 545 08b7 15E95EA4 		.ascii	"\025\351^\244\373\221\036D\372\031\3223v\034`\025\373"
 545      FB911E44 
 545      FA19D233 
 545      761C6015 
 545      FB
 546 08c8 CEAF0B37 		.ascii	"\316\257\0137U\21267]h\331z\347\224\305\222\364\242"
 546      558A3637 
 546      5D68D97A 
 546      E794C592 
 546      F4A2
 547 08da 74A3E579 		.ascii	"t\243\345y^~\245(po%\262.\371sn\246$\325Ic\003}\025"
 547      5E7EA528 
 547      706F25B2 
 547      2EF9736E 
 547      A624D549 
 548 08f2 C52DC70C 		.ascii	"\305-\307\014\237\013]L\253S\337\257\374\222\233Ez\303"
 548      9F0B5D4C 
 548      AB53DFAF 
 548      FC929B45 
 548      7AC3
 549 0904 6A29AF33 		.ascii	"j)\2573\276\261\341\2242\214\322\276\020\230\363J(\327"
 549      BEB1E194 
 549      328CD2BE 
 549      1098F34A 
 549      28D7
 550 0916 B9A6C6A9 		.ascii	"\271\246\306\251\2276\341\013\024\351\034\254z\244D"
 550      9736E10B 
 550      14E91CAC 
 550      7AA444
 551 0925 FB2F45CF 		.ascii	"\373/E\317\011\235\224\230\372\"\024\236\365\014\355"
 551      099D9498 
 551      FA22149E 
 551      F50CED
 552 0934 D14493E6 		.ascii	"\321D\223\346J.M\264o\214\2425\233\2126n\366\331\340"
 552      4A2E4DB4 
 552      6F8CA235 
 552      9B8A366E 
 552      F6D9E0
 553 0947 44293A4C 		.ascii	"D):Ljiy>U\256O\340\276\263U\303\005c\015\337\232\324"
 553      6A69793E 
 553      55AE4FE0 
 553      BEB355C3 
 553      05630DDF 
 554 095d D0448CF2 		.ascii	"\320D\214\362\273I\213\247+Fa\232\356d\365\251=\360"
 554      BB498BA7 
 554      2B46619A 
 554      EE64F5A9 
 554      3DF0
 555 096f 5EC699A0 		.ascii	"^\306\231\240:\351\007X}Zi\375\222\211\326_J2\325I\235"
 555      3AE90758 
 555      7D5A69FD 
 555      9289D65F 
ARM GAS  /tmp/cc1SpKIA.s 			page 44


 555      4A32D549 
 556 0984 D2BEB952 		.ascii	"\322\276\271R\222,\032)u\321\302\225\024\320kfz\212"
 556      922C1A29 
 556      75D1C295 
 556      14D06B66 
 556      7A8A
 557 0996 1E1FB3BD 		.ascii	"\036\037\263\275\032\206s\351zK\213\213\263\357!7Ld"
 557      1A8673E9 
 557      7A4B8B8B 
 557      B3EF2137 
 557      4C64
 558 09a8 9D6B2E6B 		.ascii	"\235k.k-k\277\357\215\366k\211\225kzSt\302\226\224\332"
 558      2D6BBFEF 
 558      8DF66B89 
 558      956B7A53 
 558      74C29694 
 559 09bd EAA69696 		.ascii	"\352\246\226\226.\252wl4G7xG\265\313\200^\343\212Ao"
 559      2EAA776C 
 559      34473778 
 559      47B5CB80 
 559      5EE38A41 
 560 09d2 6A8E4EDE 		.ascii	"j\216N\336\256\240\333o\361p\227\341\240\000\331>cN"
 560      AEA0DB6F 
 560      F17097E1 
 560      A000D93E 
 560      634E
 561 09e4 0AC03494 		.ascii	"\012\3004\224d\332\347\257\024\367\225\263\303S3\346"
 561      64DAE7AF 
 561      14F795B3 
 561      C35333E6 
 562 09f4 18E6B2EA 		.ascii	"\030\346\262\352\364\312\236\234\322\264W\244\341\355"
 562      F4CA9E9C 
 562      D2B457A4 
 562      E1ED
 563 0a02 79AD6DC3 		.ascii	"y\255m\303\214m\033\031\3336\320\\\335N\203\346N\330"
 563      8C6D1B19 
 563      DB36D05C 
 563      DD4E83E6 
 563      4ED8
 564 0a14 D2DC2823 		.ascii	"\322\334(#\372\313\246\350\365c^\201\321\277&\332\322"
 564      FACBA6E8 
 564      F5635E81 
 564      D1BF26DA 
 564      D2
 565 0a25 B21E6665 		.ascii	"\262\036fe\203\372\210'Z\351o\214+\326c\232\315%\253"
 565      83FA8827 
 565      5AE96F8C 
 565      2BD6639A 
 565      CD25AB
 566 0a38 9158C71E 		.ascii	"\221X\307\036m\241.\005\257\326TPpl\305\257\207&:p\354"
 566      6DA12E05 
 566      AFD65450 
 566      706CC5AF 
 566      87263A70 
 567 0a4d 7AA39989 		.ascii	"z\243\231\211\020\0063\277\320\306\324\314\257\221\241"
 567      100633BF 
 567      D0C6D4CC 
ARM GAS  /tmp/cc1SpKIA.s 			page 45


 567      AF91A1
 568 0a5c 5D1E2726 		.ascii	"]\036'&c\216:K3\313-37s\235\321\020\257\306\266\357"
 568      638E3A4B 
 568      33CB2D33 
 568      37739DD1 
 568      10AFC6B6 
 569 0a71 DCB9E891 		.ascii	"\334\271\350\221\275\262\231\247\365`\032\227\310\215"
 569      BDB299A7 
 569      F5601A97 
 569      C88D
 570 0a7f C44DB0E1 		.ascii	"\304M\260\341R5\377\2278\233`\2709-\362\257\273\022"
 570      5235FF97 
 570      389B60B8 
 570      392DF2AF 
 570      BB12
 571 0a91 41DCE96D 		.ascii	"A\334\351m,\267\226I\006\362G\312\313q5\026ggy\022\253"
 571      2CB79649 
 571      06F247CA 
 571      CB713516 
 571      67677912 
 572 0aa6 442703EE 		.ascii	"D'\003\356\026u\300\235\346\302\035\3306?\300\200\253"
 572      1675C09D 
 572      E6C21DD8 
 572      363FC080 
 572      AB
 573 0ab7 D9926072 		.ascii	"\331\222`r\261\367\006\363.05/\214\270g\376m\007L\363"
 573      B1F706F3 
 573      2E30352F 
 573      8CB867FE 
 573      6D074CF3 
 574 0acb 49AA6CEF 		.ascii	"I\252l\357a\276\211\226FFt\3057\366\021\337\220\213"
 574      61BE8996 
 574      464674C5 
 574      37F611DF 
 574      908B
 575 0add 6D75506C 		.ascii	"muPl,<\231i\272\330i\247\240\326\205\276\032\216N%\333"
 575      2C3C9969 
 575      BAD869A7 
 575      A0D685BE 
 575      1A8E4E25 
 576 0af2 8C29C638 		.ascii	"\214)\3068\203\242\3047M\373\320\344}\216\207\311\371"
 576      83A2C437 
 576      4DFBD0E4 
 576      7D8E87C9 
 576      F9
 577 0b03 C6FE43A4 		.ascii	"\306\376C\2442(x\257y\377\031\253\353\350\024\346x\307"
 577      322878AF 
 577      79FF19AB 
 577      EBE814E6 
 577      78C7
 578 0b15 56538DFD 		.ascii	"VS\215\375\347\035c\377Yh2\005\324656\236\275k\302b"
 578      E71D63FF 
 578      59683205 
 578      D4363536 
 578      9EBD6BC2 
 579 0b2a 6998C902 		.ascii	"i\230\311\002!n\003\227\336\254o\327\327/\277\017\367"
 579      216E0397 
ARM GAS  /tmp/cc1SpKIA.s 			page 46


 579      DEAC6FD7 
 579      D72FBF0F 
 579      F7
 580 0b3b 2A976313 		.ascii	"*\227c\023\247$\377\000\236mP\354\234d\343x*\003\255"
 580      A724FF00 
 580      9E6D50EC 
 580      9C64E378 
 580      2A03AD
 581 0b4e B4D0C049 		.ascii	"\264\320\300IJ\003\352l\261\330\002c\265)\306\252C;"
 581      4A03EA6C 
 581      B1D80263 
 581      B529C6AA 
 581      433B
 582 0b60 13264AEF 		.ascii	"\023&J\357\342B\216S!\326Y@\2545\205X\277n\303\357\247"
 582      E2428E53 
 582      21D65940 
 582      AC358558 
 582      BF6EC3EF 
 583 0b75 581982AC 		.ascii	"X\031\202\254\270\255,\261\336\350j\260bvl\225i\037"
 583      B8AD2CB1 
 583      DEE86AB0 
 583      62766C95 
 583      691F
 584 0b87 9FFCCD42 		.ascii	"\237\374\315BIj/\362\357\242YV\245\030\315\3421X\305"
 584      496A2FF2 
 584      EFA25956 
 584      A518CDE2 
 584      3158C5
 585 0b9a C35AC593 		.ascii	"\303Z\305\223\244G\364\223\213\232L\013xz\310\211wH"
 585      A447F493 
 585      8B9A4C0B 
 585      787AC889 
 585      7748
 586 0bac 715E9CC9 		.ascii	"q^\234\311s\253IS[=\245\250\264\020\364\373\343\267"
 586      73AB4953 
 586      5B3DA5A8 
 586      B410F4FB 
 586      E3B7
 587 0bbe B0855B5C 		.ascii	"\260\205[\\d\011\262\301\320B\303\2510R\225\225\030"
 587      6409B2C1 
 587      D042C3A9 
 587      30529595 
 587      18
 588 0bcf 3B5CC926 		.ascii	";\\\311&\206\265J\243\205\345b|u[\212\271\223\3544s"
 588      86B54AA3 
 588      85E5627C 
 588      755B8AB9 
 588      93EC3473 
 589 0be3 92E8B231 		.ascii	"\222\350\2621c\356\224f\220e\307\303\306\311<\236\213"
 589      63EE9466 
 589      9065C7C3 
 589      C6C93C9E 
 589      8B
 590 0bf4 EC36EA8D 		.ascii	"\3546\352\215d6\332\306 \330Q\013\301\366\231zo\303"
 590      6436DAC6 
 590      20D8510B 
 590      C1F6997A 
ARM GAS  /tmp/cc1SpKIA.s 			page 47


 590      6FC3
 591 0c06 E9E6BB63 		.ascii	"\351\346\273c;\321\224[\3141\016\230b,\372b\317\335"
 591      3BD1945B 
 591      CC310E98 
 591      622CFA62 
 591      CFDD
 592 0c18 319DA8C9 		.ascii	"1\235\250\311\002\342\220)\304\362oN\336\025\0031\265"
 592      02E29029 
 592      C4F26F4E 
 592      DE150331 
 592      B5
 593 0c29 AD39C487 		.ascii	"\2559\304\207\246\020\343f\357I\213\201\230c\001q\324"
 593      A610E366 
 593      EF498B81 
 593      98630171 
 593      D4
 594 0c3a 7C34786D 		.ascii	"|4xmG\354h\260\310\002\3428\013\361Sn\206\024\335\335"
 594      47EC68B0 
 594      C802E238 
 594      0BF1536E 
 594      8614DDDD 
 595 0c4e 74BEE572 		.ascii	"t\276\345rB\265\024\235 I`k\276\213|z[\340\242\032\210"
 595      42B5149D 
 595      2049606B 
 595      BE8B7C7A 
 595      5BE0A21A 
 596 0c63 BA25147B 		.ascii	"\272%\024{\316\373#\035P\006\213\276\276\345U\036\026"
 596      CEFB231D 
 596      50068BBE 
 596      BEE5551E 
 596      16
 597 0c74 ABB5609B 		.ascii	"\253\265`\233\026^=c\273\033\241\252\365\271\205=Q\213"
 597      165E3D63 
 597      BB1BA1AA 
 597      F5B9853D 
 597      518B
 598 0c86 2ED096A7 		.ascii	".\320\226\247\221\240e\253\017\265\300\263\2644}\253"
 598      91A065AB 
 598      0FB5C0B3 
 598      B4347DAB 
 599 0c96 2297D9E9 		.ascii	"\"\227\331\351M\227\012\323\225\243\006\375\257\325"
 599      4D970AD3 
 599      95A306FD 
 599      AFD5
 600 0ca4 13BEA75C 		.ascii	"\023\276\247\\\244\366/\014\332h\025H\340.a\221\323"
 600      A4F62F0C 
 600      DA681548 
 600      E02E6191 
 600      D3
 601 0cb5 AE981DFB 		.ascii	"\256\230\035\373M\303\225m@\222\326\3726\340\224\203"
 601      4DC3956D 
 601      4092D6FA 
 601      36E09483 
 602 0cc5 963BDE4D 		.ascii	"\226;\336M\332\006\333\335\224\354\373\016\234Td\377"
 602      DA06DBDD 
 602      94ECFB0E 
 602      9C5464FF 
ARM GAS  /tmp/cc1SpKIA.s 			page 48


 603 0cd5 0265AF6E 		.ascii	"\002e\257n\327\252\354,\220\300\215\306\"_\307\312\276"
 603      D7AAEC2C 
 603      90C08DC6 
 603      225FC7CA 
 603      BE
 604 0ce6 7F9822FB 		.ascii	"\177\230\"\373\327\266d\337\267W\226]\335\304\234\254"
 604      D7B664DF 
 604      B757965D 
 604      DDC49CAC 
 605 0cf6 E1DEDC26 		.ascii	"\341\336\334&\346~\371\260\215\274#\366\246\021\314"
 605      E67EF9B0 
 605      8DBC23F6 
 605      A611CC
 606 0d05 D116A614 		.ascii	"\321\026\246\024=,\203mE\367\232\347\030,\225\221\354"
 606      3D2C836D 
 606      45F79AE7 
 606      182C9591 
 606      EC
 607 0d16 A33AF61C 		.ascii	"\243:\366\034v\203\035\2748\207a\316\355\245\016\303"
 607      76831DBC 
 607      388761CE 
 607      EDA50EC3 
 608 0d26 AC740CC6 		.ascii	"\254t\014\306\012w\221\006\333`\007\314\354\310\210"
 608      0A779106 
 608      DB6007CC 
 608      ECC888
 609 0d35 D91FED24 		.ascii	"\331\037\355$0r\270\310\316_\263\213\354\314]@\372\035"
 609      3072B8C8 
 609      CE5FB38B 
 609      ECCC5D40 
 609      FA1D
 610 0d47 D24B48AF 		.ascii	"\322KH\257 \275\346b\336 lo\247\366\022SWl\315%\244"
 610      20BDE662 
 610      DE206C6F 
 610      A7F61253 
 610      576CCD25 
 611 0d5c E832EBEE 		.ascii	"\3502\353\356a\266\377\014]\373\323j~8\372p\013v\217"
 611      61B6FF0C 
 611      5DFBD36A 
 611      7E38FA70 
 611      0B768F
 612 0d6f 3DAD770F 		.ascii	"=\255w\017\343\016\377i,R\343\216y#\364\275z\302\233"
 612      E30EFF69 
 612      2C52E38E 
 612      7923F4BD 
 612      7AC29B
 613 0d82 A4B5FE46 		.ascii	"\244\265\376F\350\312\030{o\030\246k\365\337F5d\337"
 613      E8CA187B 
 613      6F18A66B 
 613      F5DF4635 
 613      64DF
 614 0d94 09F5D5D6 		.ascii	"\011\365\325\326H7i\310\215\326\033\302\002A?oO\212"
 614      483769C8 
 614      8DD61BC2 
 614      02413F6F 
 614      4F8A
 615 0da6 BC14DB90 		.ascii	"\274\024\333\220\257\324\206\274d\253!+\307\250\336"
ARM GAS  /tmp/cc1SpKIA.s 			page 49


 615      AFD486BC 
 615      64AB212B 
 615      C7A8DE
 616 0db5 3FC24D7C 		.ascii	"?\302M|l\232\206\033\307\307,\215Z\023]%\037\022\226"
 616      6C9A861B 
 616      C7C72C8D 
 616      5A135D25 
 616      1F1296
 617 0dc8 C1E63806 		.ascii	"\301\3468\006c\275\177\355.\365%\223\274\204_h\007/"
 617      63BD7FED 
 617      2EF52593 
 617      BC845F68 
 617      072F
 618 0dda CEAB8F75 		.ascii	"\316\253\217u\273\214G\313\344\315\343\270\017\021\307"
 618      BB8C47CB 
 618      E4CDE3B8 
 618      0F11C7
 619 0de9 AA95B313 		.ascii	"\252\225\263\023\343\260M+\332\033\327\253\215\274\341"
 619      E3B04D2B 
 619      DA1BD7AB 
 619      8DBCE1
 620 0df8 60BEE14B 		.ascii	"`\276\341K\025\350\270\216\345f\364\000V\375v\246\372"
 620      15E8B88E 
 620      E566F400 
 620      56FD76A6 
 620      FA
 621 0e09 4E01B7B2 		.ascii	"N\001\267\262\267\331\0014\033\243\314\376h7\022\371"
 621      B7D90134 
 621      1BA3CCFE 
 621      683712F9 
 622 0e19 97DD6424 		.ascii	"\227\335d$x\305Mz\374\030\244c\221\326#\235\340\266"
 622      78C54D7A 
 622      FC18A463 
 622      91D6239D 
 622      E0B6
 623 0e2b B16B4F8C 		.ascii	"\261kO\214\257a\217v\013J\217\2739\207\272\256;\224"
 623      AF618F76 
 623      0B4A8FBB 
 623      3987BAAE 
 623      3B94
 624 0e3d C8D73A06 		.ascii	"\310\327:\006c\035j\354^\332\241D\276\316\016^\034\207"
 624      631D6AEC 
 624      5EDAA144 
 624      BECE0E5E 
 624      1C87
 625 0e4f 528E2ACB 		.ascii	"R\216*\313\336\271\273=\357\020,5\236Qj(\243\014C\243"
 625      DEB9BB3D 
 625      EF102C35 
 625      9E516A28 
 625      A30C43A3 
 626 0e63 0C47134C 		.ascii	"\014G\023LB\372:\322\311nfH>\326\3360$\263\303\237\331"
 626      42FA3AD2 
 626      C96E6648 
 626      3ED6DE30 
 626      24B3C39F 
 627 0e78 0C41EB47 		.ascii	"\014A\353G\212\2569h\3473\035m\030;\255\036\216\230"
 627      8AAE3968 
ARM GAS  /tmp/cc1SpKIA.s 			page 50


 627      E7331D6D 
 627      183BAD1E 
 627      8E98
 628 0e8a 8EC3D827 		.ascii	"\216\303\330'\355M\207\261x\207#\316c\221\2311\303\330"
 628      ED4D87B1 
 628      788723CE 
 628      63919931 
 628      C3D8
 629 0e9c 6B9FAACB 		.ascii	"k\237\252\313\225\231\255\017c\303\206F\227\325\317"
 629      9599AD0F 
 629      63C38646 
 629      97D5CF
 630 0eab D6C7E3A1 		.ascii	"\326\307\343\241Z\347~%\316#\036s\032\263\246\203*\207"
 630      5AE77E25 
 630      CE231E73 
 630      1AB3A683 
 630      2A87
 631 0ebd 432F35B7 		.ascii	"C/5\267\335L\312v\263\320v\263YK\275\334\301`)\263\372"
 631      DD4CCA76 
 631      B3D076B3 
 631      594BBDDC 
 631      C16029B3 
 632 0ed2 2CBF2B90 		.ascii	",\277+\220\242\207\016\312\216l\327V\215\3374?\210{"
 632      A2870ECA 
 632      8E6CD756 
 632      8DDF343F 
 632      887B
 633 0ee4 21F3D052 		.ascii	"!\363\320R\265\035\034Z\012\237\336\014V\212^\010\244"
 633      B51D1C5A 
 633      0A9FDE0C 
 633      568A5E08 
 633      A4
 634 0ef5 CADCD6A7 		.ascii	"\312\334\326\247\231k\237*\357\260\345\355\246\031X"
 634      996B9F2A 
 634      EFB0E5ED 
 634      A61958
 635 0f04 FF821F4A 		.ascii	"\377\202\037J\335\013(u/Du/b\325=\327\216\272\315N'"
 635      DD0B2875 
 635      2F44752F 
 635      62D53DD7 
 635      8EBACD4E 
 636 0f19 98D7779A 		.ascii	"\230\327w\232Z9\235\305\225\323\347\270B\272\201t\032"
 636      5A399DC5 
 636      95D3E7B8 
 636      42BA8174 
 636      1A
 637 0f2a 76CDB759 		.ascii	"v\315\267Y\011\346i\0327}\350 \250K\334\314\343\324"
 637      09E6691A 
 637      377DE820 
 637      A84BDCCC 
 637      E3D4
 638 0f3c B9DAA6B5 		.ascii	"\271\332\246\265\363\366\336\273\266F\0326\234\234`"
 638      F3F6DEBB 
 638      B6461A36 
 638      9C9C60
 639 0f4b C3458F6C 		.ascii	"\303E\217l&\350\030suC-\322:y'\315\340\321e\233\371"
 639      26E81873 
ARM GAS  /tmp/cc1SpKIA.s 			page 51


 639      75432DD2 
 639      3A7927CD 
 639      E0D1659B 
 640 0f60 54751961 		.ascii	"Tu\031a\231\027F.\320V\253\331H\306\025F\343\037%\306"
 640      9917462E 
 640      D056ABD9 
 640      48C61546 
 640      E31F25C6 
 641 0f74 5F61C3F8 		.ascii	"_a\303\370R\364\370w\211\322\210\024\345k\356\351=&"
 641      52F4F877 
 641      89D28814 
 641      E56BEEE9 
 641      3D26
 642 0f86 B4958F4A 		.ascii	"\264\225\217J[\371\331j\267\323\317\207\327\270\315"
 642      5BF9D96A 
 642      B7D3CF87 
 642      D7B8CD
 643 0f95 3F1F5677 		.ascii	"?\037Vw\031`\335\207\352_q"
 643      1960DD87 
 643      EA5F71
 644 0fa0 D3B3D089 		.ascii	"\323\263\320\211\377\234\220\256\236v\376\316\210ev"
 644      FF9C90AE 
 644      9E76FECE 
 644      886576
 645 0faf EE94C14A 		.ascii	"\356\224\301Je\260\316QX\337;\306b\016\343F\317\213"
 645      65B0CE51 
 645      58DF3BC6 
 645      620EE346 
 645      CF8B
 646 0fc1 73D563B8 		.ascii	"s\325c\270\322\010\351^\312\204\355\325\322\002G\035"
 646      D208E95E 
 646      CA84EDD5 
 646      D202471D 
 647 0fd1 DB6EFC17 		.ascii	"\333n\374\027\034\0056\272\361\273\347\216\354(`\037"
 647      1C0536BA 
 647      F1BBE78E 
 647      EC28601F 
 648 0fe1 E8CAC839 		.ascii	"\350\312\3109\362\307\312\233\021htG\343\232\310e\330"
 648      F2C7CA9B 
 648      11687447 
 648      E39AC865 
 648      D8
 649 0ff2 C373B17B 		.ascii	"\303s\261{x\256$=B\336\203:\313,"
 649      78AE243D 
 649      42DE833A 
 649      CB2C
 650 1000 70133B1A 		.ascii	"p\023;\032\324\306\010i\2466\372\350o\015\351X\207\370"
 650      D4C60869 
 650      A636FAE8 
 650      6F0DE958 
 650      87F8
 651 1012 66728659 		.ascii	"fr\206Y5\304\233FD3C\304Y\011\\\244\214\272\3201V\""
 651      35C49B46 
 651      443343C4 
 651      59095CA4 
 651      8CBAD031 
 652 1028 837599C2 		.ascii	"\203u\231\302Z\355\030\253=\203u\225\302\332\346\030"
ARM GAS  /tmp/cc1SpKIA.s 			page 52


 652      5AED18AB 
 652      3D837595 
 652      C2DAE618 
 653 1038 AB338375 		.ascii	"\2533\203u\235\302:\340\030\213\355\0047(\254&\307X"
 653      9DC23AE0 
 653      188BED04 
 653      3728AC26 
 653      C758
 654 104a 6C27A8DD 		.ascii	"l'\250\335\234\274\350I\025\354+\307`\214kD\353h\260"
 654      9CBCE849 
 654      15EC2BC7 
 654      608C6B44 
 654      EB68B0
 655 105d AB8EC1BA 		.ascii	"\253\216\301\2723`\343h\260\021\267\332\000\213\263"
 655      3360E368 
 655      B011B7DA 
 655      008BB3
 656 106c B1308106 		.ascii	"\2610\201\006\033\357\030\214\365\261I4\330L\307`\254"
 656      1BEF188C 
 656      F5B14934 
 656      D84CC760 
 656      AC
 657 107d 934DA6C1 		.ascii	"\223M\246\301\0269\006c\275l*\015\266\3061\030\353f"
 657      16390663 
 657      BD6C2A0D 
 657      B6C63118 
 657      EB66
 658 108f 8B69B0ED 		.ascii	"\213i\260\355\216\301\356\345\330?u\322_\211\213\214"
 658      8EC1EEE5 
 658      D83F75D2 
 658      5F898B8C 
 659 109f 5538D1AF 		.ascii	"U8\321\257C\032E\372.\322\367\221\356@\272\023\351n"
 659      431A45FA 
 659      2ED2F791 
 659      EE40BA13 
 659      E96E
 660 10b1 A47B91EE 		.ascii	"\244{\221\356Gz\020\351a\244G\220\036Cz\002i\023\322"
 660      477A10E9 
 660      61A44790 
 660      1E437A02 
 660      6913D2
 661 10c4 8F919E62 		.ascii	"\217\221\236b\027\022\207n5\216\265\362$L\311\250\317"
 661      1712876E 
 661      358EB5F2 
 661      244CC9A8 
 661      CF
 662 10d5 D5DCFF97 		.ascii	"\325\334\377\227\224'5)-W\024\247\365\345\016N<C\343"
 662      94273529 
 662      2D5714A7 
 662      F5E50E4E 
 662      3C43E3
 663 10e8 BE3D12F9 		.ascii	"\276=\022\371\305x8\255\365Wtf\233\244\232\241_\326"
 663      C57838AD 
 663      F5577466 
 663      9BA49AA1 
 663      5FD6
 664 10fa DEC7D736 		.ascii	"\336\307\3276-[\177\265D\336m=\213\213\342\271\267\265"
ARM GAS  /tmp/cc1SpKIA.s 			page 53


 664      2D5B7FB5 
 664      44DE6D3D 
 664      8B8BE2B9 
 664      B7B5
 665 110c BEDBCA02 		.ascii	"\276\333\312\002\021\261\2764.\214\366\034J!\277\352"
 665      11B1BE34 
 665      2E8CF61C 
 665      4A21BFEA 
 666 111c F265EB4B 		.ascii	"\362e\353K\243qC\243\007\016\215\323\017\350\023\015"
 666      A37143A3 
 666      070E8DD3 
 666      0FE8130D 
 667 112c 447F000D 		.ascii	"D\177\000\015\010\\\0036\345\313\233[\356\300\343\324"
 667      085C0336 
 667      E5CB9B5B 
 667      EEC0E3D4 
 668 113c C143F85C 		.ascii	"\301C\370\\{\006g\367F\307`\251\014\330a\032l\215\035"
 668      7B0667F7 
 668      46C760A9 
 668      0CD8611A 
 668      6C8D1D
 669 114f 30AB7916 		.ascii	"0\253y\026\300\216\320`\033\034\203\261\222\035\243"
 669      C08ED060 
 669      1B1C83B1 
 669      921DA3
 670 115e C1B6D801 		.ascii	"\301\266\330\001\263\032\236\001\354\004\015\266\335"
 670      B31A9E01 
 670      EC040DB6 
 670      DD
 671 116b 31182D59 		.ascii	"1\030-Yu\364\334\023\213\236T\177\376hB[\305;\342}h"
 671      75F4DC13 
 671      8B9E547F 
 671      FE68425B 
 671      C53BE27D 
 672 1180 25F2AFE1 		.ascii	"%\362\257\341\031\333V\276\232R\212>\251\026M\301J\365"
 672      19DB56BE 
 672      9A528A3E 
 672      A9164DC1 
 672      4AF5
 673 1192 9AE4A1D2 		.ascii	"\232\344\241\322<\027<\3378^\231\267X\254\314\351\035"
 673      3C173CDF 
 673      385E99B7 
 673      58ACCCE9 
 673      1D
 674 11a3 333D1728 		.ascii	"3=\027(n\227Qq\214\020J\324\352\263H\260\302y\332\012"
 674      6E975171 
 674      8C104AD4 
 674      EAB348B0 
 674      C279DA0A 
 675 11b7 FBEC5821 		.ascii	"\373\354X!\325\332?\276\245\301>\264\003fub\036\300"
 675      D5DA3FBE 
 675      A5C13EB4 
 675      03667562 
 675      1EC0
 676 11c9 2ED26027 		.ascii	".\322`'\034\203\261\222]\246\301>\261\003fu\366\036"
 676      1C83B192 
 676      5DA6C13E 
ARM GAS  /tmp/cc1SpKIA.s 			page 54


 676      B1036675 
 676      F61E
 677 11db C0AED260 		.ascii	"\300\256\322`g\034\203\261\222]\247\301\276\266\003"
 677      671C83B1 
 677      925DA7C1 
 677      BEB603
 678 11ea 6675981A 		.ascii	"fu\230\032\300n\320`\027\034\203Q\222\215\253\216\326"
 678      C06ED060 
 678      171C8351 
 678      928DAB8E 
 678      D6
 679 11fb FEA956D4 		.ascii	"\376\251V\324\036B\211\337~\343\326\034\267\007;Z0\331"
 679      1E4289DF 
 679      7EE3D61C 
 679      B7073B5A 
 679      30D9
 680 120d C83111F3 		.ascii	"\3101\021\363l\"?\326\343\264G\324y\314{\004} L\317"
 680      6C223FD6 
 680      E3B447D4 
 680      79CC7B04 
 680      7D204CCF 
 681 1221 05CDBE6C 		.ascii	"\005\315\276ll6#\204\022\355a\241C\230b\352\216\240"
 681      6C362384 
 681      12ED61A1 
 681      439862EA 
 681      8EA0
 682 1233 0EBF411D 		.ascii	"\016\277A\035^\267\243C\253\037-\000\260q4\230t\273"
 682      5EB7A343 
 682      AB1F2D00 
 682      B0713498 
 682      74BB
 683 1245 5330D620 		.ascii	"S0\326 \343u\203\244\032\354\301n\\\352#\224\301\036"
 683      E37583A4 
 683      1AECC16E 
 683      5CEA2394 
 683      C11E
 684 1257 C66C223F 		.ascii	"\306l\"?I1\210\276)`\274\025\270aF\271M\267I\255~ \001"
 684      493188BE 
 684      2960BC15 
 684      B86146B9 
 684      4DB749AD 
 685 126e 049F602D 		.ascii	"\004\237`-8\373\236\306Rpc6\221\237\352\330\223\246"
 685      38FB9EC6 
 685      52706336 
 685      919FEAD8 
 685      93A6
 686 1280 59789276 		.ascii	"Yx\222vR\223\311\005\355~\321\330nV\012%\372\244E\273"
 686      5293C905 
 686      ED7ED1D8 
 686      6E560A25 
 686      FAA445BB 
 687 1294 616933E9 		.ascii	"ai3\351O\304\370DRx\346\267\005Via}\350\333\223\217"
 687      4FC4F844 
 687      5278E6B7 
 687      05566961 
 687      7DE8DB93 
 688 12a9 507D7B82 		.ascii	"P}{\202\035Wz\2017\021\315\354\217^\225\211\374W\270"
ARM GAS  /tmp/cc1SpKIA.s 			page 55


 688      1D577A81 
 688      3711CDEC 
 688      8F5E9589 
 688      FC57B8
 689 12bc 58FF1A97 		.ascii	"X\377\032\227\251\315H/ \375\016\351%\244W\220^CZ\355"
 689      A9CD482F 
 689      20FD0EE9 
 689      25A45790 
 689      5E435AED 
 690 12d0 217428D2 		.ascii	"!t(\322\341HG\"}\021\351(\244\257 \035\203t\034\322"
 690      E1484722 
 690      7D11E928 
 690      A4AF201D 
 690      83741CD2 
 691 12e4 F1482720 		.ascii	"\361H' \235\214t\006\322\231\036jalx\367t\326\242\275"
 691      9D8C7406 
 691      D2991E6A 
 691      616C78F7 
 691      74D6A2BD 
 692 12f8 A405B33C 		.ascii	"\244\005\263<\332\034i\367\003\235k\013\357$+\317\331"
 692      DA1C69F7 
 692      039D6B0B 
 692      EF242BCF 
 692      D9
 693 1309 1EB29A9D 		.ascii	"\036\262\232\235z\273\303\227\243\244\322\267<\206\305"
 693      7ABBC397 
 693      A3A4D2B7 
 693      3C86C5
 694 1318 EC470BB7 		.ascii	"\354G\013\267\311?JERZ\337\206\277\260p\233@>3p\251"
 694      C93F4A45 
 694      525ADF86 
 694      BFB0709B 
 694      403E3370 
 695 132d 769D8F52 		.ascii	"v\235\217R\220\3027\267\020\375v\241\262o,\303-q\014"
 695      90C237B7 
 695      10FD76A1 
 695      B26F2CC3 
 695      2D710C
 696 1340 C7FADC45 		.ascii	"\307\372\334E\026n\245\035\2708\213\321\313,\334z\307"
 696      166EA51D 
 696      B8388BD1 
 696      CB2CDC7A 
 696      C7
 697 1351 70A9F17C 		.ascii	"p\251\361|X7\206\310\277\355!><\017=j>\322\205H\033"
 697      583786C8 
 697      BFED213E 
 697      3C0F3D6A 
 697      3ED28548 
 698 1366 E278D76C 		.ascii	"\342x\327l\013Ap\2579\256w5y\324\374\377\241{W\313\371"
 698      0B4170AF 
 698      39AE7735 
 698      79D4FCFF 
 698      A17B57CB 
 699 137b CEC4BB96 		.ascii	"\316\304\273\226\242wmj\335\273X\020|/j\364\256)\347"
 699      A2776D6A 
 699      DDBB5810 
 699      7C2F6AF4 
ARM GAS  /tmp/cc1SpKIA.s 			page 56


 699      AE29E7
 700 138e B7CADED5 		.ascii	"\267\312\336\325h\313\273\032\316oe\275k'J\321x\323"
 700      68CBBB1A 
 700      CE6F65BD 
 700      6B274AD1 
 700      78D3
 701 13a0 DEB598D4 		.ascii	"\336\265\230\324\257\333o\237c8\326\273\226\262pG\354"
 701      AFDB6F9F 
 701      6338D6BB 
 701      96B27047 
 701      EC
 702 13b1 C0C5F1AE 		.ascii	"\300\305\361\256\345,\334I\307p\254t+X\2703v\340\342"
 702      E52CDC49 
 702      C770AC74 
 702      2B58B833 
 702      76E0E2
 703 13c4 3CEEAC62 		.ascii	"<\356\254b\341\232\035\303\261\322\255a\341.\333\201"
 703      E19A1DC3 
 703      B1D2AD61 
 703      E12EDB81 
 704 13d4 B37A0C80 		.ascii	"\263z\014\200u\312:\025NY\251tr\012\307J\267\233\225"
 704      75CA3A15 
 704      4E59A974 
 704      720AC74A 
 704      B79B95
 705 13e7 6EB81DB8 		.ascii	"n\270\035\270Tk\335\355e\341F9\206c\245\333\317\302"
 705      546BDDED 
 705      65E14639 
 705      8663A5DB 
 705      CFC2
 706 13f9 8DB50317 		.ascii	"\215\265\003\027\347\323\336\2032\234\272\006N0,]b\306"
 706      E7D3DE83 
 706      329CBA06 
 706      4E302C5D 
 706      62C6
 707 140b 92DD8E57 		.ascii	"\222\335\216W.{,V.\352\237\310\277\341\021\034\266\201"
 707      2E7B2C56 
 707      2EEA9FC8 
 707      BFE1111C 
 707      B681
 708 141d 55C96156 		.ascii	"U\311aV%\257\333QI\234'\244#,\334\014\307p\254t\307"
 708      25AFDB51 
 708      499C27A4 
 708      232CDC0C 
 708      C770AC74 
 709 1432 58B83976 		.ascii	"X\2709v\340,?9\225\242'T\270\335\2702kp\014\307Jw\216"
 709      E02C3F39 
 709      95A22754 
 709      B8DDB832 
 709      6B700CC7 
 710 1449 956EB51D 		.ascii	"\225n\265\035\270\036\326\272;\317\302mp\014\307J\367"
 710      B81ED6BA 
 710      3BCFC26D 
 710      700CC74A 
 710      F7
 711 145a 2D0BB7C5 		.ascii	"-\013\267\305\016\234\345\257\260I\321\213\254\356\366"
 711      0E9CE5AF 
ARM GAS  /tmp/cc1SpKIA.s 			page 57


 711      B049D18B 
 711      ACEEF6
 712 1469 388663A5 		.ascii	"8\206c\245\273\314Jw\324\016\234\325\203\006y27L\001"
 712      BBCC4A77 
 712      D40E9CD5 
 712      83067932 
 712      374C01
 713 147c 8EE158E9 		.ascii	"\216\341X\351\256\263p\247\355\300\231\375\032\233\331"
 713      AEB370A7 
 713      EDC099FD 
 713      1A9BD9
 714 148b 1F3DBD8B 		.ascii	"\037=\275\213\374\012\\\257\254\3045\312j\244k\221\256"
 714      FC0A5CAF 
 714      ACC435CA 
 714      6AA46B91 
 714      AE
 715 149c 47BA01E9 		.ascii	"G\272\001\351F\244\233\220nA\272\015\351v\244\037 \335"
 715      46A49B90 
 715      6E41BA0D 
 715      E976A41F 
 715      20DD
 716 14ae 85742FD2 		.ascii	"\205t/\322\375H\017\"=\214\364\010\322cHO mB\3721\322"
 716      FD480F22 
 716      3D8CF408 
 716      D263484F 
 716      206D42FA 
 717 14c4 53483F8B 		.ascii	"SH?\213\263BZ\032g\205tF_!\311\337\320F/\255j\026\324"
 717      B3425A1A 
 717      67857446 
 717      5F21C9DF 
 717      D0462FAD 
 718 14db 6F68EFB1 		.ascii	"oh\357\261\377\375\312\347\036\303\221\370\006>\346"
 718      FFFDCAE7 
 718      1EC391F8 
 718      063EE6
 719 14ea 039DE64E 		.ascii	"\003\235\346N\354rJ\371@\247\231|\240#\377\260\364K"
 719      EC724AF9 
 719      40A7997C 
 719      A023FFB0 
 719      F44B
 720 14fc 77901C67 		.ascii	"w\220\034g=V\037\350(\337\262(\037\350\034\247\277^"
 720      3D561FE8 
 720      28DFB228 
 720      1FE81CA7 
 720      BF5E
 721 150e 26851843 		.ascii	"&\205\030C}\3511\371D8\272\346\343m\352\367{/\010\016"
 721      7DE931F9 
 721      4438BAE6 
 721      E36DEAF7 
 721      7B2F080E 
 722 1522 3EE06B66 		.ascii	">\340kf\333\347\345F\220\202M\303kZ\373Q\250\346\253"
 722      DBE7E546 
 722      90824DC3 
 722      6B5AFB51 
 722      A8E6AB
 723 1535 EFFF4ADE 		.ascii	"\357\377J\336\177\277\340\361B\341\375w\260J\260\201"
 723      7FBFE0F1 
ARM GAS  /tmp/cc1SpKIA.s 			page 58


 723      42E1FD77 
 723      B04AB081 
 724 1545 44EABF08 		.ascii	"D\352\277\010\205\231U\345\361\336\25127\316\212\022"
 724      859955E5 
 724      F1DEA932 
 724      37CE8A12 
 725 1555 8515B813 		.ascii	"\205\025\270\023w\310\217@\320\035\316k?m\376\274\222"
 725      77C88F40 
 725      D01DCE6B 
 725      3F6DFEBC 
 725      92
 726 1566 785E4FFC 		.ascii	"x^O\374VO\324\013\277\320YK\377\316,}\274\236~\321,"
 726      564FD40B 
 726      BFD0594B 
 726      FFCE2C7D 
 726      BC9E7ED1 
 727 157b 7DB69E7E 		.ascii	"}\266\236~\315,}\261\236~\335,\375==\375\206Y\372n="
 727      CD2C7DB1 
 727      9E7EDD2C 
 727      FD3D3DFD 
 727      8659FA6E 
 728 1590 BDC52CFD 		.ascii	"\275\305,\375\270\236N\353\344\264\316\346)\3669\235"
 728      B89E4EEB 
 728      E4B4CEE6 
 728      29F6399D 
 729 15a0 2D506CE9 		.ascii	"-Pl\351N\215\355\242\330\243u\266\233bO\324\331\036"
 729      4E8DEDA2 
 729      D8A375B6 
 729      9B624FD4 
 729      D91E
 730 15b2 8AFD86CE 		.ascii	"\212\375\206\316N\240\330\363u\266\227b\257\320\331"
 730      4EA0D8F3 
 730      75B69762 
 730      AFD0D9
 731 15c1 89147BA3 		.ascii	"\211\024{\243\316N\242\330;uv\033\212\375\241\316N\246"
 731      CE4EA2D8 
 731      3B75761B 
 731      8AFDA1CE 
 731      4EA6
 732 15d3 D85FE8EC 		.ascii	"\330_\350\354\024\212\375\275\316\276\205b\217\371\221"
 732      148AFDBD 
 732      CEBE8562 
 732      8FF991
 733 15e2 C66E4BB1 		.ascii	"\306nK\261g\350\354v\024{\211\316nO\2617\351\354\016"
 733      67E8EC76 
 733      147B89CE 
 733      6E4FB137 
 733      E9EC0E
 734 15f5 14FB90CE 		.ascii	"\024\373\220\316\356H\261\233t\366\035\024\373+\235"
 734      EE48B19B 
 734      74F61D14 
 734      FB2B9D
 735 1604 DD99B6CE 		.ascii	"\335\231\266\316]\032\373N\212]\257\263\177D\261\347"
 735      5D1AFB4E 
 735      8A5DAFB3 
 735      7F44B1E7 
 736 1614 E9ECBB68 		.ascii	"\351\354\273h}\353\354\273)\366\273:\373\307\024{\207"
ARM GAS  /tmp/cc1SpKIA.s 			page 59


 736      7DEBECBB 
 736      29F6BB3A 
 736      FBC7147B 
 736      87
 737 1625 CEFE09C5 		.ascii	"\316\376\011\305>\250\263\273P\354Otv*\355l:\373\036"
 737      3EA8B3BB 
 737      50EC4F74 
 737      762AED6C 
 737      3AFB1E
 738 1638 DA0C3AFB 		.ascii	"\332\014:\373\247\024\373\245\2735\366\317(\3668\235"
 738      A714FBA5 
 738      BB35F6CF 
 738      28F6389D 
 739 1648 FD738A3D 		.ascii	"\375s\212=Ug\377\202b\277\255\263\177I\261\227\353\354"
 739      5567FF82 
 739      62BFADB3 
 739      7F49B197 
 739      EBEC
 740 165a 7B69A3E9 		.ascii	"{i\243\351\354\177\246\330\373u\366}\024\373S\235\235"
 740      EC7FA6D8 
 740      FB75F67D 
 740      14FB539D 
 740      9D
 741 166b 46B12FE9 		.ascii	"F\261/\351\354\014\212]\375c\215\235I\261G\351\354,"
 741      EC0C8A5D 
 741      FD638D9D 
 741      49B147E9 
 741      EC2C
 742 167d 8AFDAACE 		.ascii	"\212\375\252\316\356N\261\347\350\354\207(\366J\235"
 742      EE4EB1E7 
 742      E8EC8728 
 742      F64A9D
 743 168c FD1B8ABD 		.ascii	"\375\033\212\275]g\377\226b\037\327\331\277\243\330"
 743      5D67FF96 
 743      621FD7D9 
 743      BFA3D8
 744 169b DFE86C1F 		.ascii	"\337\350l\037\305\276\246\263\263)\366+?\321\330\275"
 744      C5BEA6B3 
 744      B329F62B 
 744      3FD1D8BD 
 745 16ab 28F6349D 		.ascii	"(\3664\235\335\233b7\350\354>\024{\255\316\356K\261"
 745      DD9B6237 
 745      E8EC3E14 
 745      7BADCEEE 
 745      4BB1
 746 16bd DFD7D939 		.ascii	"\337\327\3319t\337\321\331\177\244\373\216\316.T\346"
 746      74DFD1D9 
 746      7FA4FB8E 
 746      CE2E54E6 
 747 16cd 01720BC3 		.ascii	"\001r\013\303\205\244\217\217\012\347y\216\376\243g"
 747      85A48F8F 
 747      0AE7798E 
 747      FEA367
 748 16dc 1991BF84 		.ascii	"\031\221\277\204\213\233\313\036W\334\342\314|\317\305"
 748      8B9BCB1E 
 748      57DCE2CC 
 748      7CCFC5
ARM GAS  /tmp/cc1SpKIA.s 			page 60


 749 16eb 7CF5F6F9 		.ascii	"|\365\366\371OL\246|\362R\372\374\213|\375W\303\245"
 749      4F4CA67C 
 749      F252FAFC 
 749      8B7CFD57 
 749      C3A5
 750 16fd 74755ABC 		.ascii	"tuZ\274\206\031\317y\314?'\226s\031>_\226\227\014R\027"
 750      8619CF79 
 750      CC3F2796 
 750      73193E5F 
 750      96970C52 
 751 1712 4341FB4B 		.ascii	"CA\373K\206s\306%\303\225\004f\311`XG\235\2628X\211"
 751      8673C625 
 751      C3950466 
 751      C9605847 
 751      9DB23858 
 752 1727 EFF61292 		.ascii	"\357\366\022\222MK\321\357\034\251\323\200\367\252\345"
 752      4D4BD1EF 
 752      1CA9D380 
 752      F7AAE5
 753 1736 3D4AF96A 		.ascii	"=J\371j\257\272\241\257\355d[U%y\343n\231j?\366\377"
 753      AFBAA1AF 
 753      ED645B55 
 753      2579E36E 
 753      996A3FF6 
 754 174b 24A7AD41 		.ascii	"$\247\255A\226\\=Z!\257Aj\274\370\255Z\227\326wM\031"
 754      965C3D5A 
 754      21AF416A 
 754      BCF8AD5A 
 754      97D6774D 
 755 1760 1C52EF70 		.ascii	"\034R\357p\257a_\353\373#x\004\200\360[\337\325j9\242"
 755      AF615FEB 
 755      FB237804 
 755      80F05BDF 
 755      D56A39A2 
 756 1774 9E499757 		.ascii	"\236I\227W\345\307P\004R6\316\252\234Q\004\213W{\224"
 756      E5C75004 
 756      5236CEAA 
 756      9C51048B 
 756      577B94
 757 1787 DA576F72 		.ascii	"\332Wor\014\226\312\200\325\321`\247\354\200\305\331"
 757      0C96CA80 
 757      D5D160A7 
 757      EC80C5D9 
 758 1797 D01A4783 		.ascii	"\320\032G\203\235u\014\306J6\236\006\373\332\016X\234"
 758      9D750CC6 
 758      4A369E06 
 758      FBDA0E58 
 758      9C
 759 17a8 CDAC0934 		.ascii	"\315\254\0114X\263c0V\262I4\330wv\300\342\274\317\236"
 759      58B36330 
 759      56B24934 
 759      D87776C0 
 759      E2BCCF9E 
 760 17bc 4C835D73 		.ascii	"L\203]s\014\306J6\225\006\253N\265\001\226j-\331\"\032"
 760      0CC64A36 
 760      9506AB4E 
 760      B501966A 
ARM GAS  /tmp/cc1SpKIA.s 			page 61


 760      2DD9221A 
 761 17d0 6C846330 		.ascii	"l\204c0V\262\3054\330Kv\300\342\274i_J\203\215v\014"
 761      56B2C534 
 761      D84B76C0 
 761      E2BC695F 
 761      4A838D76 
 762 17e5 C64AB69C 		.ascii	"\306J\266\234\006\253\263\003f\271\217T\035]\361g\366"
 762      06ABB303 
 762      66B98F54 
 762      1D5DF167 
 762      F6
 763 17f6 C5E119EB 		.ascii	"\305\341\031\3537\236\246\2572E\376*~\261BI`\372\356"
 763      379EA6AF 
 763      3245FE2A 
 763      7EB14249 
 763      60FAEE
 764 1809 32CEDED3 		.ascii	"2\316\336\323*\272=\343\355\264\247\2075\330\032\032"
 764      2ABA3DE3 
 764      EDB4A787 
 764      35D81A1A 
 765 1819 EC753B60 		.ascii	"\354u;`V[1\000\266\216\006\233\346\030\214\225l7\015"
 765      565B3100 
 765      B68E069B 
 765      E6188C95 
 765      6C370D
 766 182c F6A61DB0 		.ascii	"\366\246\035\2608\3330{i\2609\216\301h\311\252\243\373"
 766      38DB307B 
 766      69B0398E 
 766      C168C9AA 
 766      A3FB
 767 183e FF6C3886 		.ascii	"\377l8\206@9A\017v\340\323\317\0270'\002\346\033%`\212"
 767      4039410F 
 767      76E0D3CF 
 767      17302702 
 767      E61B2560 
 768 1853 2951FBFB 		.ascii	")Q\373\3736\372\364%\362#\274di3\322\213\357;\221\216"
 768      36FAF425 
 768      F223BC64 
 768      6933D28B 
 768      EF3B918E 
 769 1867 42FA0AD2 		.ascii	"B\372\012\3221H\307\"\255G\372*\322\327\220ND\372:\322"
 769      3148C722 
 769      AD47FA2A 
 769      D2D7904E 
 769      44FA3AD2 
 770 187b 2948A721 		.ascii	")H\247!\235\201t&\322YH\347 }\013\351<\244\363\275\326"
 770      9D817426 
 770      D25948E7 
 770      207D0BE9 
 770      3CA4F3BD 
 771 1890 BB343516 		.ascii	"\27345\026\252&\262/\362\232\257.\344OD\255J5\350\245"
 771      AA26B22F 
 771      F29AAF2E 
 771      E44F44AD 
 771      4A35E8A5 
 772 18a4 ACBE4A60 		.ascii	"\254\276J`\016\224\343\341;o\214%,\2260\335\325\242"
 772      0E94E3E1 
ARM GAS  /tmp/cc1SpKIA.s 			page 62


 772      3B6F8C25 
 772      2C9630DD 
 772      D5A2
 773 18b6 5EA5C012 		.ascii	"^\245\300\022\257\323\015\362\245^\363\015\362\004\363"
 773      AFD30DF2 
 773      A55EF30D 
 773      F204F3
 774 18c5 B692EFFE 		.ascii	"\266\222\357\376\255\240\226Yjhi\234\037\236X\3565\354"
 774      ADA09659 
 774      6A68699C 
 774      1F9E58EE 
 774      35EC
 775 18d7 7E35ED9F 		.ascii	"~5\355\237\371\362\015~\254\372\343v\323\215?nG>\201"
 775      F9F20D7E 
 775      ACFAE376 
 775      D38D3F6E 
 775      473E81
 776 18ea B3025BE1 		.ascii	"\263\002[\341\215\375%\252\213\251\354B\313\360KT\313"
 776      8DFD25AA 
 776      8BA9EC42 
 776      CBF04B54 
 776      CB
 777 18fb 5DF22F51 		.ascii	"]\362/Q5z\343\376\022\325J\257\331\217\335-y\373\345"
 777      357AE3FE 
 777      12D54AAF 
 777      D98FDD2D 
 777      79FBE5
 778 190e B7F90DB3 		.ascii	"\267\371\015\263FH\344\267t\236\237\026m\257\3762\302"
 778      4648E4B7 
 778      749E9F16 
 778      6DAFFE32 
 778      C2
 779 191f B67B4C2B 		.ascii	"\266{L+\225\330\037\346Z\3555,~\327\230\325\022\275"
 779      95D81FE6 
 779      5AED352C 
 779      7ED798D5 
 779      12BD
 780 1931 BE59F93D 		.ascii	"\276Y\371=(\202Ot)p\037\031\360\225U\371!\262\215'\177"
 780      28824F74 
 780      29701F19 
 780      F09555F9 
 780      21B28D27 
 781 1946 23F82DE6 		.ascii	"#\370-\346Xg\321*\265\335\252X\037\322k\362uF\261\326"
 781      5867D12A 
 781      B5DDAA58 
 781      1FD26BF2 
 781      7546B1D6 
 782 195a B3625978 		.ascii	"\263bYxcg\265\002\227Rl\243co|\317\302\033\325\352\015"
 782      6367B502 
 782      97526CA3 
 782      636F7CCF 
 782      C21BD5EA 
 783 196f 7EB53B8E 		.ascii	"~\265;\216_m\262\364\306eq\316Bl\266,\265>N][,K]\212"
 783      5F6DB2F4 
 783      C66571CE 
 783      426CB62C 
 783      B53E4E5D 
ARM GAS  /tmp/cc1SpKIA.s 			page 63


 784 1988 D35FB65A 		.ascii	"\323_\266Z\226\272\021\247\324\266\230\376\3228\365"
 784      96BA11A7 
 784      D4B698FE 
 784      D238F5
 785 1997 D3CE0BD5 		.ascii	"\323\316\013\325\037\251\254\036f\374\235\235iq\372"
 785      1FA9AC1E 
 785      66FC9D9D 
 785      6971FA
 786 19a6 CB7693FE 		.ascii	"\313v\223\376r\305\334u\325\3762M\351/\357\307\357/"
 786      72C5DC75 
 786      D5FE324D 
 786      E92FEFC7 
 786      EF2F
 787 19b8 3B5897E1 		.ascii	";X\227\341\036J+\011\226\007\322\212\202\305C\322\212"
 787      1E4A2B09 
 787      9607D28A 
 787      82C543D2 
 787      8A
 788 19c9 0383D38A 		.ascii	"\003\203\323\212JJ\237*\015\206\323\"\241\252\212g\322"
 788      4A4A9F2A 
 788      0D86D322 
 788      A1AA8A67 
 788      D2
 789 19da 20128AA4 		.ascii	" \022\212\244U\006C\221pZ\317\374\\_\356s\220\241(\030"
 789      55064391 
 789      705ACFFC 
 789      5C5FEE73 
 789      90A12818 
 790 19ee 0ADC5FC2 		.ascii	"\012\334_\302\265\011G\236\021\313J\007U\370#\011}\036"
 790      B509479E 
 790      11CB4A07 
 790      55F82309 
 790      7D1E
 791 1a00 EB97EAE3 		.ascii	"\353\227\352\343~\236V\025\016\245\211\241\362_W\004"
 791      7E9E5615 
 791      0EA589A1 
 791      F25F5704 
 792 1a10 2B02BF0E 		.ascii	"+\002\277\016\210O\225\246\225V\024\225U\025\007\322"
 792      884F95A6 
 792      95561495 
 792      551507D2 
 793 1a20 C291E2D2 		.ascii	"\302\221\342\322\212\010\024K\254\202k\267\256\376H"
 793      8A08144B 
 793      AC826BB7 
 793      AEFE48
 794 1a2f D738B9CB 		.ascii	"\3278\271\313E\220\243\"\220\346/\016\014\024\253\312"
 794      4590A322 
 794      90E62F0E 
 794      0C14ABCA 
 795 1a3f 22FEC890 		.ascii	"\"\376\310\220\312@\230T\352\367\253\345\373:\226<X"
 795      CA409854 
 795      EAF7ABE5 
 795      FB3A963C 
 795      58
 796 1a50 5E595A16 		.ascii	"^YZ\026\010\205\323\372\370|\220]\305\364F*C\245A\177"
 796      0885D3FA 
 796      F87C905D 
ARM GAS  /tmp/cc1SpKIA.s 			page 64


 796      C5F4462A 
 796      43A5417F 
 797 1a64 0425CBCA 		.ascii	"\004%\313\312\364G\224JH\264\273\215JT\241\213J\302"
 797      F447944A 
 797      48B4BB8D 
 797      4A54A18B 
 797      4AC2
 798 1a76 43C22A68 		.ascii	"C\302*hb\244$\024\020\213\375\221\244\242\022\277\034"
 798      62A42414 
 798      108BFD91 
 798      A4A212BF 
 798      1C
 799 1a87 EFEA0CAB 		.ascii	"\357\352\014\253\250\244\030p\022*\375\025\201\347\""
 799      A8A41870 
 799      122AFD15 
 799      81E722
 800 1a96 70A90C05 		.ascii	"p\251\014\005\006\343\2454\350-\012VD\200\233L\332\347"
 800      06E3A534 
 800      E82D0A56 
 800      44809B4C 
 800      DAE7
 801 1aa8 07518B22 		.ascii	"\007Q\213\"\317\375\353\315\031\322?\370\301r\"n(0\010"
 801      CFFDEBCD 
 801      19D23FF8 
 801      C172226E 
 801      283008
 802 1abb 4CE18FB8 		.ascii	"L\341\217\270\302\031\335 <\010\241;\204\207\\\341\314"
 802      C219DD20 
 802      3C08A13B 
 802      84875CE1 
 802      CC
 803 1acc 74081910 		.ascii	"t\010\031\0202!dA\350\012\341\001\010\220/\023\362e"
 803      32216441 
 803      E80AE101 
 803      08902F13 
 803      F265
 804 1ade 42BE4CC8 		.ascii	"B\276L\310\227\005\371\2622\204PW!\364\200\020\352&"
 804      9705F9B2 
 804      32845057 
 804      21F48010 
 804      EA26
 805 1af0 841E1442 		.ascii	"\204\036\024B\335\205\320C\256PF:\204\014\241,\004\227"
 805      DD85D043 
 805      AE50463A 
 805      840CA12C 
 805      0497
 806 1b02 2C4FA51F 		.ascii	",O\245\037\244\365\222f=\033\010\3015XV\034\010\271"
 806      A4F59266 
 806      3D1B08C1 
 806      3558561C 
 806      08B9
 807 1b14 8B4AC410 		.ascii	"\213J\304\020i\253X\036H\214\204#b$\340\217x\211\025"
 807      69AB581E 
 807      488C8423 
 807      6224E08F 
 807      788915
 808 1b27 BA830A65 		.ascii	"\272\203\012e{@\014\262c\2327R\036,\016\340\375\300"
ARM GAS  /tmp/cc1SpKIA.s 			page 65


 808      7B400CB2 
 808      639A3752 
 808      1E2C0EE0 
 808      FDC0
 809 1b39 327150D8 		.ascii	"2qP\330\033\011\005\006\206\375DM$\342)\017\017\202"
 809      1B090506 
 809      86FD444D 
 809      24E2290F 
 809      0F82
 810 1b4b 44C58650 		.ascii	"D\305\206P\\\211%\204\212\207@Rb\340\271\322\010(*\220"
 810      5C892584 
 810      8A874052 
 810      62E0B9D2 
 810      08282A90 
 811 1b5f F06C24F8 		.ascii	"\360l$\370\324\323\225\311\201\301\201\212H\271\030"
 811      D4D395C9 
 811      81C1818A 
 811      48B918
 812 1b6e 7E06B204 		.ascii	"~\006\262\004\236%\021W\245\277\252\255l\266\260\277"
 812      9E251157 
 812      A5BFAAAD 
 812      6CB6B0BF 
 813 1b7e AC340C1E 		.ascii	"\2544\014\036\330N3\244\314I\252\364?+\226FJ+\006\265"
 813      D84E33A4 
 813      CC49AAF4 
 813      3F2B9646 
 813      4A2B06B5 
 814 1b92 53D97FA9 		.ascii	"S\331\177\251\012T\201T\355\251\234\310jS\351\207j1"
 814      0A548154 
 814      EDA99CC8 
 814      6A53E987 
 814      6A31
 815 1ba4 EAC12830 		.ascii	"\352\301(0\002\225\201\012\350\022\203<\345U`\312,G"
 815      0295810A 
 815      E812833C 
 815      E55560CA 
 815      2C47
 816 1bb6 BE511E79 		.ascii	"\276Q\036y\216\370m\271\214\016\327\340\263\025\240"
 816      8EF86DB9 
 816      8C0ED7E0 
 816      B315A0
 817 1bc5 4B448226 		.ascii	"KD\202&\224\243\313\200|\220\217H\332\206hE,C\317\001"
 817      94A3CB80 
 817      7C908F48 
 817      DA866845 
 817      2C43CF01 
 818 1bd9 66653058 		.ascii	"fe0X\226f\243\276p\250H\366\351\373\213\270\024\177"
 818      9666A3BE 
 818      70A848F6 
 818      E9FB8BB8 
 818      147F
 819 1beb 69715940 		.ascii	"iqY@i\025_\231\2448^i$\323\221\340\203\311\010\220\\"
 819      69155F99 
 819      A4385E69 
 819      24D391E0 
 819      83C90890 
 820 1c00 54D2BF30 		.ascii	"T\322\2770;XXZ\364LN\"\300\207#`\271\037\027\225\024"
ARM GAS  /tmp/cc1SpKIA.s 			page 66


 820      3B58585A 
 820      F44C4E22 
 820      C0872360 
 820      B91F1795 
 821 1c15 0C09F709 		.ascii	"\014\011\367\011D\012\300\276U\341\236\025\305\217\006"
 821      440AC0BE 
 821      55E19E15 
 821      C58F06
 822 1c24 8B9E1970 		.ascii	"\213\236\031p\177\245\030\212\334\237\376#L\315\017"
 822      7FA5188A 
 822      DC9FFE23 
 822      4CCD0F
 823 1c33 8423E0B2 		.ascii	"\204#\340\262r\016%)#\011\223r@\0249\326W,\003;\007"
 823      720E2529 
 823      23099372 
 823      401439D6 
 823      572C033B 
 824 1c48 C470B0A2 		.ascii	"\304p\260\242#2\012K\313\003\241\276b\005\310\037\312"
 824      23320A4B 
 824      CB03A1BE 
 824      6205C81F 
 824      CA
 825 1c59 E9645ECD 		.ascii	"\351d^\315\255&\370.\220\313\343\177\004\224\345\015"
 825      AD26F82E 
 825      90CBE37F 
 825      0494E50D 
 826 1c69 458A2AC0 		.ascii	"E\212*\300\003n\227\253\012\373\202U\320\375BO\224F"
 826      036E97AB 
 826      0AFB8255 
 826      D0FD424F 
 826      9446
 827 1c7b 60901AE0 		.ascii	"`\220\032\340\2024\017xe(\342\002\213v\300<y\301\262"
 827      82340F78 
 827      6528E202 
 827      8B76C03C 
 827      79C1B2
 828 1c8e B2407176 		.ascii	"\262@qv\240L\0342 \241hHQY \234\321\232\242J\3042j\264"
 828      A04C1C32 
 828      20A16848 
 828      5159209C 
 828      D19AA24A 
 829 1ca6 043D2591 		.ascii	"\004=%\221\341\004\204\207\001)\034)\010Dz\226A\017"
 829      E1048487 
 829      01291C29 
 829      08447A96 
 829      410F
 830 1cb8 4D866824 		.ascii	"M\206h$X\211q\360\263\202\242\022\220\272\250$P\\U\026"
 830      588971F0 
 830      B382A212 
 830      90BAA824 
 830      505C5516 
 831 1ccc 2878D091 		.ascii	"(x\320\2211\024\027\205\2322q(.+}*mPQ\221aH\356z\177"
 831      31141785 
 831      9A327128 
 831      2E2B7D2A 
 831      6D505191 
 832 1ce5 F7FBBBD2 		.ascii	"\367\373\273\322\3038\014\311d\\\012\227\376\225t\300"
ARM GAS  /tmp/cc1SpKIA.s 			page 67


 832      C3380CC9 
 832      645C0A97 
 832      FE9574C0 
 833 1cf5 C8C0AA8A 		.ascii	"\310\300\252\212\"\177\004\232]XR\354\003\300\010\352"
 833      227F049A 
 833      5D5852EC 
 833      03C008EA 
 834 1d05 AFB42845 		.ascii	"\257\264(Eq\026\364\022gC_I@\254\304\261\236D\260\274"
 834      7116F412 
 834      67435F49 
 834      40ACC4B1 
 834      9E44B0BC 
 835 1d19 B3869507 		.ascii	"\263\206\225\007\312\3259\312\217c\234sG\215\340\240"
 835      CAD539CA 
 835      8F639C73 
 835      478DE0A0 
 836 1d29 E88F9463 		.ascii	"\350\217\224c\331D\377`\331\333\333\371U]\207\224{\252"
 836      D944FF60 
 836      D9DBDBF9 
 836      555D8794 
 836      7BAA
 837 1d3b 5BC070D0 		.ascii	"[\300p\320\246\\\204\241\006\357\332\351\321\373\273"
 837      A65C84A1 
 837      06EFDAE9 
 837      D1FBBB
 838 1d4a 65657407 		.ascii	"eet\007\257\367\023\203\006\312\3459A\216\247\220\364"
 838      AFF71383 
 838      06CAE539 
 838      418EA790 
 838      F4
 839 1d5b 21CA0873 		.ascii	"!\312\010s\013\260\365{oH\356\336\011!\034\363=!\034"
 839      0BB0F57B 
 839      6F48EEDE 
 839      09211CF3 
 839      3D211C
 840 1d6e 3743CAB8 		.ascii	"7C\312\270\031\222\307\315$\340V\205B0|yB\244\320\355"
 840      1992C7CD 
 840      24E05685 
 840      42307C79 
 840      42A4D0ED 
 841 1d82 834B4391 		.ascii	"\203KC\221*\261\314O\034'\244\016]\340\365~\223\204"
 841      2AB1CC4F 
 841      1C27A40E 
 841      5DE0F57E 
 841      9384
 842 1d94 760C4F1E 		.ascii	"v\014O\036\267\030\226\027\232M\206\022r%\323O\"\\\213"
 842      B7189617 
 842      9A4D8612 
 842      7225D34F 
 842      225C8B
 843 1da7 03651111 		.ascii	"\003e\021\021\"\262\335I\012\211%\220\034b(\031.eb8"
 843      22B2DD49 
 843      0A892590 
 843      1C622819 
 843      2E656238 
 844 1dbb 424A038B 		.ascii	"BJ\003\213T\322Vitq\340\251\252A\362(Js\222*\305\212"
 844      54D25669 
ARM GAS  /tmp/cc1SpKIA.s 			page 68


 844      7471E0A9 
 844      AA41F228 
 844      4A73922A 
 845 1dd1 D2223226 		.ascii	"\322\"2&\272\212\237\032\324\036\024^\004\213\212\247"
 845      BA8A9F1A 
 845      D41E145E 
 845      048B8AA7 
 846 1de1 42E04241 		.ascii	"B\340BA\262\262\010\016\034\030\016D\204H\271PT\342"
 846      B2B2080E 
 846      1C180E44 
 846      8448B950 
 846      54E2
 847 1df3 6C328619 		.ascii	"l2\206\031\015\252\017\015\001C\022\305\226\026\203"
 847      0DAA0F0D 
 847      014312C5 
 847      961683
 848 1e02 924A0796 		.ascii	"\222J\007\226B\253\340\356\257\201P\220\\\211\027\343"
 848      42ABE0EE 
 848      AF815090 
 848      5C8917E3 
 849 1e12 BC9FD14D 		.ascii	"\274\237\321M\233\3671JT\001z\002!H\2642\022\"9\211"
 849      9BF7314A 
 849      54017A02 
 849      2148B432 
 849      12223989 
 850 1e26 0D49D348 		.ascii	"\015I\323H\374\026}\220\307\224\201~\020\025-\325F\211"
 850      FC167D90 
 850      C794817E 
 850      10152DD5 
 850      4689
 851 1e38 83B95294 		.ascii	"\203\271R\224(\332L\275A\303\251\005\310\204\327N\211"
 851      28DA4CBD 
 851      41C3A905 
 851      C884D74E 
 851      89
 852 1e49 C382AAAC 		.ascii	"\303\202\252\254\264\2744\222\242\335CoRop\236SK\221"
 852      B4BC3492 
 852      A2DD436F 
 852      526F709E 
 852      534B91
 853 1e5c 49AEAD56 		.ascii	"I\256\255Ve P^\031Q\223\210|\340_\212\272\023AJ\214"
 853      6520505E 
 853      19519388 
 853      7CE05F8A 
 853      BA13414A 
 854 1e71 B6BA3C00 		.ascii	"\266\272<\0003\247\371r\013r\012t\025\222\256ST\336"
 854      33A7F972 
 854      0B720A74 
 854      1592AE53 
 854      54DE
 855 1e83 95F48402 		.ascii	"\225\364\204\002\337#\376BX\332x|y\375r\262\3359\276"
 855      DF23FE42 
 855      58DA787C 
 855      79FD72B2 
 855      DD39BE
 856 1e96 827C77FF 		.ascii	"\202|w\377\302\307\363==s\362}\371\256\002\010>r\355"
 856      C2C7F33D 
ARM GAS  /tmp/cc1SpKIA.s 			page 69


 856      3D73F27D 
 856      F9AE0208 
 856      3E72ED
 857 1ea9 9BE729E8 		.ascii	"\233\347)\350K\022}\275\201\364%$\033\210'7\267w\317"
 857      4B127DBD 
 857      81F42524 
 857      1B882737 
 857      B777CF
 858 1ebc 7CF72384 		.ascii	"|\367#\204\364\204{W^\357|W6\204\236\331\371nH\313w"
 858      F4847B57 
 858      5EEF7C57 
 858      36849ED9 
 858      F96E48CB 
 859 1ed1 E714F4CC 		.ascii	"\347\024\364\314O\312\357U\320+\277\177\257\354t\250"
 859      4FCAEF55 
 859      D02BBF7F 
 859      AFEC74A8 
 860 1ee1 A6A72FBF 		.ascii	"\246\247/\277\255\017$\310\306\206`\335\331\004\331"
 860      AD0F24C8 
 860      C68660DD 
 860      D904D9
 861 1ef0 93EDCB97 		.ascii	"\223\355\313\227i6\320^\271\276\374\304\354'\0121\203"
 861      6936D05E 
 861      B9BEFCC4 
 861      EC270A31 
 861      83
 862 1f01 DB5798FF 		.ascii	"\333W\230\377h\202\357\337}\276\307\012\023|y9\344\322"
 862      6882EFDF 
 862      7DBEC70A 
 862      137C7939 
 862      E4D2
 863 1f13 6B00B94B 		.ascii	"k\000\271K,x\264W\257<r\377hA?\270x{?\376h6\\\335y\004"
 863      2C78B457 
 863      AF3C72FF 
 863      68413FB8 
 863      787B3FFE 
 864 1f2d D1F7786E 		.ascii	"\321\367xn^\272'\267g\301\037\322\223z\367{\314W\230"
 864      5EBA27B7 
 864      67C11FD2 
 864      937AF77B 
 864      CC5798
 865 1f40 F3F863E9 		.ascii	"\363\370c\351\310\315@n\206\306\315\320D\314\300\364"
 865      C8CD406E 
 865      86C6CDD0 
 865      44CCC0F4 
 866 1f50 4C4CCFD4 		.ascii	"LL\317\324\3223\265\364LL\317\302\364,-=\253\363c\375"
 866      D233B5F4 
 866      4C4CCFC2 
 866      F42C2D3D 
 866      ABF363FD 
 867 1f64 737C7E18 		.ascii	"s|~\030\314\363\300QB\245\221!}B\301\252JX\006\334\302"
 867      CCF3C051 
 867      42A59121 
 867      7D42C1AA 
 867      4A5806DC 
 868 1f79 307E6BDF 		.ascii	"0~k\337Z\005\2050(\227ge\016\354\232\236\361\034\031"
 868      5A058530 
ARM GAS  /tmp/cc1SpKIA.s 			page 70


 868      28976765 
 868      0EEC9A9E 
 868      F11C19
 869 1f8c F39272F2 		.ascii	"\363\222r\362\377X\201\372\270\365\261`E.,f\304\247"
 869      FF5881FA 
 869      B8F5B160 
 869      452E2C66 
 869      C4A7
 870 1f9e CA02     		.ascii	"\312\002"
 871 1fa0 39308191 		.ascii	"90\201\221\204\333s\003\345\301\320\220\\\261B\034\024"
 871      84DB7303 
 871      E5C1D090 
 871      5CB1421C 
 871      14
 872 1fb1 280F28DC 		.ascii	"(\017(\334[\036\251\012\367\306\2056\271k\327/\014\211"
 872      5B1EA90A 
 872      F7C68536 
 872      B96BD72F 
 872      0C89
 873 1fc3 FA7D7241 		.ascii	"\372}rA\177\237XV\206\361\016h\217\334 \014~\301\220"
 873      7F9F5856 
 873      86F10E68 
 873      8FDC200C 
 873      7EC190
 874 1fd6 9C9A07D3 		.ascii	"\234\232\007\323^A\177\214\247\340|[\364\014\336$=\361"
 874      5E417F8C 
 874      A7E07C5B 
 874      F40CDE24 
 874      3DF1
 875 1fe8 44761F8C 		.ascii	"Dv\037\214%\346\365\317\226\221\013{\346\346\371\013"
 875      25E6F5CF 
 875      96910B7B 
 875      E6E6F90B 
 876 1ff8 9062BDF9 		.ascii	"\220b\275\371\205>\377\023"
 876      853EFF13 
 877 2000 7FE827DF 		.ascii	"\177\350'\337\265\351\375h\317\202\276r\211|\237O\346"
 877      B5E9FD68 
 877      CF82BE72 
 877      897C9F4F 
 877      E6
 878 2011 F51A5098 		.ascii	"\365\032P\230\223\256G3\364h\246\036\315\322\243]\025"
 878      93AE4733 
 878      F468A61E 
 878      CDD2A35D 
 878      15
 879 2022 31737B66 		.ascii	"1s{f\370\013`Y(\226\247\307p2b8\2311\234\254\030N,\362"
 879      F80B6059 
 879      2896A7C7 
 879      70326238 
 879      99319CAC 
 880 203a 03319C6E 		.ascii	"\0031\234n\262\364=\263e\351S\210D\017\371\345|\035"
 880      B2F43DB3 
 880      65E95388 
 880      440FF9E5 
 880      7C1D
 881 204c 0B737233 		.ascii	"\013sr3\374\217\344\377\301\017\221\207(\0264\237\\"
 881      FC8FE4FF 
ARM GAS  /tmp/cc1SpKIA.s 			page 71


 881      C10F9187 
 881      2816349F 
 881      5C
 882 205d 6539EF40 		.ascii	"e9\357@Va~\037?8\020\362eiS\220\257h%\011n2\265X\226"
 882      56617E1F 
 882      3F3810F2 
 882      65695390 
 882      AF682509 
 883 2076 1693454C 		.ascii	"\026\223EL\311\311\364e\370{\365\247o\362\265\233L:"
 883      C9C9F465 
 883      F87BF5A7 
 883      6FF2B59B 
 883      4C3A
 884 2088 25534D49 		.ascii	"%SMI*\310StKb2vr?\350\224\205\031T\\\346\267EC<\340"
 884      2AC85374 
 884      4B623276 
 884      723FE894 
 884      8519545C 
 885 20a2 57246E4B 		.ascii	"W$nK\214\210\013\022\274m\377xa\037\177\357\002\335"
 885      8C880B12 
 885      BC6DFF78 
 885      611F7FEF 
 885      02DD
 886 20b4 ACB47E1E 		.ascii	"\254\264~\036T\252\310\316y\\\023\372\001\255Z]\347"
 886      54AAC8CE 
 886      795C13FA 
 886      01AD5A5D 
 886      E7
 887 20c5 9931B6CB 		.ascii	"\2311\266\313\214\261]f\214\3552cl\227\311\330.Y\021"
 887      8CB15D66 
 887      8CED3263 
 887      6C97C9D8 
 887      2E5911
 888 20d8 CD98FA40 		.ascii	"\315\230\372@\014\247[\014\347AJ\015\3354\375e\321\312"
 888      0CA75B0C 
 888      E7414A0D 
 888      DD34FD65 
 888      D1CA
 889 20ea CC529599 		.ascii	"\314R\225\231\330;\257\237\326(\271\352\366\306\216"
 889      D83BAF9F 
 889      D628B9EA 
 889      F6C68E
 890 20f9 EFC68C95 		.ascii	"\357\306\214\225\312]o;\253C\371\361\255\24007+3\355"
 890      CA5D6F3B 
 890      AB43F9F1 
 890      ADA03037 
 890      2B33ED
 891 210c D147B3D3 		.ascii	"\321G\263\323@w\2033\344\336O\206}\262\264\326n\340"
 891      40778333 
 891      E4DE4F86 
 891      7DB2B4D6 
 891      6EE0
 892 211e 49CE979F 		.ascii	"I\316\227\237\001!\323]\000c\244;;\247W\276\000\003"
 892      0121D35D 
 892      0063A43B 
 892      3BA757BE 
 892      0003
ARM GAS  /tmp/cc1SpKIA.s 			page 72


 893 2130 6FAF3E30 		.ascii	"o\257>0\336\371r\3633\220f\272}\276^0t?V\350\312+\360"
 893      DEF972F3 
 893      339066BA 
 893      7DBE5E30 
 893      743F56E8 
 894 2147 B97AE6E7 		.ascii	"\271z\346\347\273`8w?\222]\010\3033)\225\3333_x\\.\221"
 894      BB603877 
 894      3F925D08 
 894      C3332995 
 894      DB335F78 
 895 215e 057907E4 		.ascii	"\005y\007\344\373\376\036A\375ee\344\231\266\243\034"
 895      FBFE1E41 
 895      FD6565E4 
 895      99B6A31C 
 896 216e F30F0A44 		.ascii	"\363\017\012D`}\206k\351\207o\362\351\025\227)\000y"
 896      607D866B 
 896      E9876FF2 
 896      E9159729 
 896      0079
 897 2180 3B3E90C8 		.ascii	";>\220\310\353\030X\304W\372E\342\217\267\321\\\250"
 897      EB1858C4 
 897      57FA45E2 
 897      8FB7D15C 
 897      A8
 898 2191 0C996E72 		.ascii	"\014\231nr\177'\246\300?%\203\177\260XV\025\370_\266"
 898      7F27A6C0 
 898      3F25837F 
 898      B0585615 
 898      F85FB6
 899 21a4 0EBB0A   		.ascii	"\016\273\012"
 900              		.text
 901              		.section	.gnu.lto_.symtab.9ff4dc438a46aaa9,"",%progbits
 902 0000 63685379 		.ascii	"chSysInit\000\000\000\000\000\000\000\000\000\000\000"
 902      73496E69 
 902      74000000 
 902      00000000 
 902      00000000 
 903 0014 00810100 		.ascii	"\000\201\001\000\000chSysHalt\000\000\000\000\000\000"
 903      00636853 
 903      79734861 
 903      6C740000 
 903      00000000 
 904 0028 00000000 		.ascii	"\000\000\000\000\000\000\204\001\000\000chSysTimerH"
 904      00008401 
 904      00006368 
 904      53797354 
 904      696D6572 
 905 003d 616E646C 		.ascii	"andlerI\000\000\000\000\000\000\000\000\000\000\000"
 905      65724900 
 905      00000000 
 905      00000000 
 905      0000
 906 004f 008B0100 		.ascii	"\000\213\001\000\000chSysGetStatusAndLockX\000\000\000"
 906      00636853 
 906      79734765 
 906      74537461 
 906      74757341 
ARM GAS  /tmp/cc1SpKIA.s 			page 73


 907 006d 00000000 		.ascii	"\000\000\000\000\000\000\000\000\000\216\001\000\000"
 907      00000000 
 907      008E0100 
 907      00
 908 007a 63685379 		.ascii	"chSysRestoreStatusX\000\000\000\000\000\000\000\000"
 908      73526573 
 908      746F7265 
 908      53746174 
 908      75735800 
 909 0095 00000000 		.ascii	"\000\000\000\000\222\001\000\000chSysIsCounterWithi"
 909      92010000 
 909      63685379 
 909      73497343 
 909      6F756E74 
 910 00b0 6E580000 		.ascii	"nX\000\000\000\000\000\000\000\000\000\000\000\000\231"
 910      00000000 
 910      00000000 
 910      000099
 911 00bf 01000063 		.ascii	"\001\000\000chSysPolledDelayX\000\000\000\000\000\000"
 911      68537973 
 911      506F6C6C 
 911      65644465 
 911      6C617958 
 912 00d9 00000000 		.ascii	"\000\000\000\000\000\000\254\001\000\000ch\000\000\002"
 912      0000AC01 
 912      00006368 
 912      000002
 913 00e8 00000000 		.ascii	"\000\000\000\000\000\000\000\000\000\343\001\000\000"
 913      00000000 
 913      00E30100 
 913      00
 914 00f5 63685F64 		.ascii	"ch_debug\000\000\002\000\000\000\000\000\000\000\000"
 914      65627567 
 914      00000200 
 914      00000000 
 914      000000
 915 0108 00340200 		.ascii	"\0004\002\000\000stSetAlarm\000\000\002\000\000\000"
 915      00737453 
 915      6574416C 
 915      61726D00 
 915      00020000 
 916 011d 00000000 		.ascii	"\000\000\000\000\000\000\263\001\000\000stStopAlarm"
 916      0000B301 
 916      00007374 
 916      53746F70 
 916      416C6172 
 917 0132 00000200 		.ascii	"\000\000\002\000\000\000\000\000\000\000\000\000\272"
 917      00000000 
 917      00000000 
 917      BA
 918 013f 01000063 		.ascii	"\001\000\000chSchRescheduleS\000\000\002\000\000\000"
 918      68536368 
 918      52657363 
 918      68656475 
 918      6C655300 
 919 0158 00000000 		.ascii	"\000\000\000\000\000\000\274\001\000\000chThdCreate"
 919      0000BC01 
ARM GAS  /tmp/cc1SpKIA.s 			page 74


 919      00006368 
 919      54686443 
 919      72656174 
 920 016d 53746174 		.ascii	"Static\000\000\002\000\000\000\000\000\000\000\000\000"
 920      69630000 
 920      02000000 
 920      00000000 
 920      0000
 921 017f BE010000 		.ascii	"\276\001\000\000_thread_init\000\000\002\000\000\000"
 921      5F746872 
 921      6561645F 
 921      696E6974 
 921      00000200 
 922 0195 00000000 		.ascii	"\000\000\000\000\000\000\317\001\000\000_heap_init\000"
 922      0000CF01 
 922      00005F68 
 922      6561705F 
 922      696E6974 
 923 01aa 00020000 		.ascii	"\000\002\000\000\000\000\000\000\000\000\000\324\001"
 923      00000000 
 923      000000D4 
 923      01
 924 01b7 00005F63 		.ascii	"\000\000_core_init\000\000\002\000\000\000\000\000\000"
 924      6F72655F 
 924      696E6974 
 924      00000200 
 924      00000000 
 925 01cc 000000D6 		.ascii	"\000\000\000\326\001\000\000_tm_init\000\000\002\000"
 925      0100005F 
 925      746D5F69 
 925      6E697400 
 925      000200
 926 01df 00000000 		.ascii	"\000\000\000\000\000\000\000\000\330\001\000\000_vt"
 926      00000000 
 926      D8010000 
 926      5F7674
 927 01ee 5F696E69 		.ascii	"_init\000\000\002\000\000\000\000\000\000\000\000\000"
 927      74000002 
 927      00000000 
 927      00000000 
 927      00
 928 01ff DA010000 		.ascii	"\332\001\000\000_scheduler_init\000\000\002\000\000"
 928      5F736368 
 928      6564756C 
 928      65725F69 
 928      6E697400 
 929 0217 00000000 		.ascii	"\000\000\000\000\000\000\000\334\001\000\000"
 929      000000DC 
 929      010000
 930              		.text
 931              		.section	.gnu.lto_.opts,"",%progbits
 932 0000 272D6D63 		.ascii	"'-mcpu=cortex-m4' '-mfloat-abi=hard' '-mfpu=fpv4-sp"
 932      70753D63 
 932      6F727465 
 932      782D6D34 
 932      2720272D 
 933 0033 2D643136 		.ascii	"-d16' '-mno-thumb-interwork' '-mthumb' '-O2' '-fomi"
ARM GAS  /tmp/cc1SpKIA.s 			page 75


 933      2720272D 
 933      6D6E6F2D 
 933      7468756D 
 933      622D696E 
 934 0066 742D6672 		.ascii	"t-frame-pointer' '-falign-functions=16' '-ffunction"
 934      616D652D 
 934      706F696E 
 934      74657227 
 934      20272D66 
 935 0099 2D736563 		.ascii	"-sections' '-fdata-sections' '-fno-common' '-flto' "
 935      74696F6E 
 935      73272027 
 935      2D666461 
 935      74612D73 
 936 00cc 272D6673 		.ascii	"'-fsingle-precision-constant'\000"
 936      696E676C 
 936      652D7072 
 936      65636973 
 936      696F6E2D 
 937              		.text
 938              		.section	.text._idle_thread,"ax",%progbits
 939              		.align	2
 940              		.p2align 4,,15
 941              		.thumb
 942              		.thumb_func
 943              		.type	_idle_thread, %function
 944              	_idle_thread:
 945              		@ Volatile: function does not return.
 946              		@ args = 0, pretend = 0, frame = 0
 947              		@ frame_needed = 0, uses_anonymous_args = 0
 948              		@ link register save eliminated.
 949 0000 024B     		ldr	r3, .L4
 950 0002 034A     		ldr	r2, .L4+4
 951 0004 9B69     		ldr	r3, [r3, #24]
 952 0006 9A61     		str	r2, [r3, #24]
 953              	.L2:
 954 0008 FEE7     		b	.L2
 955              	.L5:
 956 000a 00BF     		.align	2
 957              	.L4:
 958 000c 00000000 		.word	ch
 959 0010 00000000 		.word	.LC0
 960              		.size	_idle_thread, .-_idle_thread
 961 0014 AFF30080 		.section	.text.chSysInit,"ax",%progbits
 961      AFF30080 
 961      AFF30080 
 962              		.align	2
 963              		.p2align 4,,15
 964              		.global	chSysInit
 965              		.thumb
 966              		.thumb_func
 967              		.type	chSysInit, %function
 968              	chSysInit:
 969              		@ args = 0, pretend = 0, frame = 0
 970              		@ frame_needed = 0, uses_anonymous_args = 0
 971 0000 1D4B     		ldr	r3, .L7
 972 0002 1E4A     		ldr	r2, .L7+4
ARM GAS  /tmp/cc1SpKIA.s 			page 76


 973 0004 1E48     		ldr	r0, .L7+8
 974 0006 1F49     		ldr	r1, .L7+12
 975 0008 70B5     		push	{r4, r5, r6, lr}
 976 000a 0024     		movs	r4, #0
 977 000c 9C60     		str	r4, [r3, #8]
 978 000e DE68     		ldr	r6, [r3, #12]
 979 0010 4FF6FF05 		movw	r5, #63743
 980 0014 3540     		ands	r5, r5, r6
 981 0016 2A43     		orrs	r2, r2, r5
 982 0018 DA60     		str	r2, [r3, #12]
 983 001a C268     		ldr	r2, [r0, #12]
 984 001c 42F08072 		orr	r2, r2, #16777216
 985 0020 C260     		str	r2, [r0, #12]
 986 0022 0D68     		ldr	r5, [r1]
 987 0024 2022     		movs	r2, #32
 988 0026 1020     		movs	r0, #16
 989 0028 45F00105 		orr	r5, r5, #1
 990 002c 0D60     		str	r5, [r1]
 991 002e 82B0     		sub	sp, sp, #8
 992 0030 D877     		strb	r0, [r3, #31]
 993 0032 83F82220 		strb	r2, [r3, #34]
 994 0036 FFF7FEFF 		bl	_scheduler_init
 995 003a FFF7FEFF 		bl	_vt_init
 996 003e FFF7FEFF 		bl	_tm_init
 997 0042 FFF7FEFF 		bl	_core_init
 998 0046 FFF7FEFF 		bl	_heap_init
 999 004a 4021     		movs	r1, #64
 1000 004c 0E48     		ldr	r0, .L7+16
 1001 004e FFF7FEFF 		bl	_thread_init
 1002 0052 0E4B     		ldr	r3, .L7+20
 1003 0054 0122     		movs	r2, #1
 1004 0056 9861     		str	r0, [r3, #24]
 1005 0058 0277     		strb	r2, [r0, #28]
 1006              	@ 546 "/home/cody/dev/chibios/trunk/os/ext/CMSIS/include/core_cmFunc.h" 1
 1007 005a 84F31188 		MSR basepri, r4
 1008              	@ 0 "" 2
 1009              	@ 331 "/home/cody/dev/chibios/trunk/os/ext/CMSIS/include/core_cmFunc.h" 1
 1010 005e 62B6     		cpsie i
 1011              	@ 0 "" 2
 1012              		.thumb
 1013 0060 9B69     		ldr	r3, [r3, #24]
 1014 0062 0B49     		ldr	r1, .L7+24
 1015 0064 9961     		str	r1, [r3, #24]
 1016 0066 0B48     		ldr	r0, .L7+28
 1017 0068 0094     		str	r4, [sp]
 1018 006a 0B4B     		ldr	r3, .L7+32
 1019 006c 4FF4B071 		mov	r1, #352
 1020 0070 FFF7FEFF 		bl	chThdCreateStatic
 1021 0074 02B0     		add	sp, sp, #8
 1022              		@ sp needed
 1023 0076 70BD     		pop	{r4, r5, r6, pc}
 1024              	.L8:
 1025              		.align	2
 1026              	.L7:
 1027 0078 00ED00E0 		.word	-536810240
 1028 007c 0003FA05 		.word	100270848
 1029 0080 F0ED00E0 		.word	-536810000
ARM GAS  /tmp/cc1SpKIA.s 			page 77


 1030 0084 001000E0 		.word	-536866816
 1031 0088 00000000 		.word	.LANCHOR0
 1032 008c 00000000 		.word	ch
 1033 0090 00000000 		.word	ch_debug
 1034 0094 00000000 		.word	.LANCHOR1
 1035 0098 00000000 		.word	_idle_thread
 1036              		.size	chSysInit, .-chSysInit
 1037 009c AFF30080 		.section	.text.chSysHalt,"ax",%progbits
 1038              		.align	2
 1039              		.p2align 4,,15
 1040              		.global	chSysHalt
 1041              		.thumb
 1042              		.thumb_func
 1043              		.type	chSysHalt, %function
 1044              	chSysHalt:
 1045              		@ Volatile: function does not return.
 1046              		@ args = 0, pretend = 0, frame = 0
 1047              		@ frame_needed = 0, uses_anonymous_args = 0
 1048              		@ link register save eliminated.
 1049              	@ 342 "/home/cody/dev/chibios/trunk/os/ext/CMSIS/include/core_cmFunc.h" 1
 1050 0000 72B6     		cpsid i
 1051              	@ 0 "" 2
 1052              		.thumb
 1053 0002 014B     		ldr	r3, .L11
 1054 0004 D862     		str	r0, [r3, #44]
 1055              	.L10:
 1056 0006 FEE7     		b	.L10
 1057              	.L12:
 1058              		.align	2
 1059              	.L11:
 1060 0008 00000000 		.word	ch
 1061              		.size	chSysHalt, .-chSysHalt
 1062 000c AFF30080 		.section	.text.chSysTimerHandlerI,"ax",%progbits
 1063              		.align	2
 1064              		.p2align 4,,15
 1065              		.global	chSysTimerHandlerI
 1066              		.thumb
 1067              		.thumb_func
 1068              		.type	chSysTimerHandlerI, %function
 1069              	chSysTimerHandlerI:
 1070              		@ args = 0, pretend = 0, frame = 0
 1071              		@ frame_needed = 0, uses_anonymous_args = 0
 1072 0000 2DE9F047 		push	{r4, r5, r6, r7, r8, r9, r10, lr}
 1073 0004 1A4C     		ldr	r4, .L21
 1074 0006 4FF08042 		mov	r2, #1073741824
 1075 000a E369     		ldr	r3, [r4, #28]
 1076 000c D2F82490 		ldr	r9, [r2, #36]
 1077 0010 A06A     		ldr	r0, [r4, #40]
 1078 0012 9A68     		ldr	r2, [r3, #8]
 1079 0014 C0EB0905 		rsb	r5, r0, r9
 1080 0018 9542     		cmp	r5, r2
 1081 001a 04F11C06 		add	r6, r4, #28
 1082 001e 1AD3     		bcc	.L14
 1083 0020 A046     		mov	r8, r4
 1084 0022 4FF0000A 		mov	r10, #0
 1085 0026 2027     		movs	r7, #32
 1086 0028 01E0     		b	.L15
ARM GAS  /tmp/cc1SpKIA.s 			page 78


 1087              	.L19:
 1088 002a D8F82800 		ldr	r0, [r8, #40]
 1089              	.L15:
 1090 002e 1968     		ldr	r1, [r3]
 1091 0030 D3F80CC0 		ldr	ip, [r3, #12]
 1092 0034 1044     		add	r0, r0, r2
 1093 0036 A062     		str	r0, [r4, #40]
 1094 0038 AD1A     		subs	r5, r5, r2
 1095 003a C3F80CA0 		str	r10, [r3, #12]
 1096 003e 4E60     		str	r6, [r1, #4]
 1097 0040 E161     		str	r1, [r4, #28]
 1098              	@ 546 "/home/cody/dev/chibios/trunk/os/ext/CMSIS/include/core_cmFunc.h" 1
 1099 0042 8AF31188 		MSR basepri, r10
 1100              	@ 0 "" 2
 1101              		.thumb
 1102 0046 1869     		ldr	r0, [r3, #16]
 1103 0048 E047     		blx	ip
 1104              	@ 546 "/home/cody/dev/chibios/trunk/os/ext/CMSIS/include/core_cmFunc.h" 1
 1105 004a 87F31188 		MSR basepri, r7
 1106              	@ 0 "" 2
 1107              		.thumb
 1108 004e E369     		ldr	r3, [r4, #28]
 1109 0050 9A68     		ldr	r2, [r3, #8]
 1110 0052 AA42     		cmp	r2, r5
 1111 0054 E9D9     		bls	.L19
 1112              	.L14:
 1113 0056 B342     		cmp	r3, r6
 1114 0058 05D0     		beq	.L20
 1115 005a 02EB0900 		add	r0, r2, r9
 1116 005e BDE8F047 		pop	{r4, r5, r6, r7, r8, r9, r10, lr}
 1117 0062 FFF7FEBF 		b	stSetAlarm
 1118              	.L20:
 1119 0066 BDE8F047 		pop	{r4, r5, r6, r7, r8, r9, r10, lr}
 1120 006a FFF7FEBF 		b	stStopAlarm
 1121              	.L22:
 1122 006e 00BF     		.align	2
 1123              	.L21:
 1124 0070 00000000 		.word	ch
 1125              		.size	chSysTimerHandlerI, .-chSysTimerHandlerI
 1126 0074 AFF30080 		.section	.text.chSysGetStatusAndLockX,"ax",%progbits
 1126      AFF30080 
 1126      AFF30080 
 1127              		.align	2
 1128              		.p2align 4,,15
 1129              		.global	chSysGetStatusAndLockX
 1130              		.thumb
 1131              		.thumb_func
 1132              		.type	chSysGetStatusAndLockX, %function
 1133              	chSysGetStatusAndLockX:
 1134              		@ args = 0, pretend = 0, frame = 0
 1135              		@ frame_needed = 0, uses_anonymous_args = 0
 1136              		@ link register save eliminated.
 1137              	@ 533 "/home/cody/dev/chibios/trunk/os/ext/CMSIS/include/core_cmFunc.h" 1
 1138 0000 EFF31280 		MRS r0, basepri_max
 1139              	@ 0 "" 2
 1140              		.thumb
 1141 0004 20B9     		cbnz	r0, .L24
ARM GAS  /tmp/cc1SpKIA.s 			page 79


 1142              	@ 383 "/home/cody/dev/chibios/trunk/os/ext/CMSIS/include/core_cmFunc.h" 1
 1143 0006 EFF30583 		MRS r3, ipsr
 1144              	@ 0 "" 2
 1145              		.thumb
 1146 000a 2023     		movs	r3, #32
 1147              	@ 546 "/home/cody/dev/chibios/trunk/os/ext/CMSIS/include/core_cmFunc.h" 1
 1148 000c 83F31188 		MSR basepri, r3
 1149              	@ 0 "" 2
 1150              		.thumb
 1151              	.L24:
 1152 0010 7047     		bx	lr
 1153              		.size	chSysGetStatusAndLockX, .-chSysGetStatusAndLockX
 1154 0012 00BFAFF3 		.section	.text.chSysRestoreStatusX,"ax",%progbits
 1154      0080AFF3 
 1154      0080AFF3 
 1154      0080
 1155              		.align	2
 1156              		.p2align 4,,15
 1157              		.global	chSysRestoreStatusX
 1158              		.thumb
 1159              		.thumb_func
 1160              		.type	chSysRestoreStatusX, %function
 1161              	chSysRestoreStatusX:
 1162              		@ args = 0, pretend = 0, frame = 0
 1163              		@ frame_needed = 0, uses_anonymous_args = 0
 1164 0000 10B5     		push	{r4, lr}
 1165 0002 58B9     		cbnz	r0, .L26
 1166              	@ 383 "/home/cody/dev/chibios/trunk/os/ext/CMSIS/include/core_cmFunc.h" 1
 1167 0004 EFF30584 		MRS r4, ipsr
 1168              	@ 0 "" 2
 1169              		.thumb
 1170 0008 C4F30804 		ubfx	r4, r4, #0, #9
 1171 000c 14B1     		cbz	r4, .L28
 1172              	@ 546 "/home/cody/dev/chibios/trunk/os/ext/CMSIS/include/core_cmFunc.h" 1
 1173 000e 80F31188 		MSR basepri, r0
 1174              	@ 0 "" 2
 1175              		.thumb
 1176 0012 10BD     		pop	{r4, pc}
 1177              	.L28:
 1178 0014 FFF7FEFF 		bl	chSchRescheduleS
 1179              	@ 546 "/home/cody/dev/chibios/trunk/os/ext/CMSIS/include/core_cmFunc.h" 1
 1180 0018 84F31188 		MSR basepri, r4
 1181              	@ 0 "" 2
 1182              		.thumb
 1183              	.L26:
 1184 001c 10BD     		pop	{r4, pc}
 1185              		.size	chSysRestoreStatusX, .-chSysRestoreStatusX
 1186 001e 00BF     		.section	.text.chSysIsCounterWithinX,"ax",%progbits
 1187              		.align	2
 1188              		.p2align 4,,15
 1189              		.global	chSysIsCounterWithinX
 1190              		.thumb
 1191              		.thumb_func
 1192              		.type	chSysIsCounterWithinX, %function
 1193              	chSysIsCounterWithinX:
 1194              		@ args = 0, pretend = 0, frame = 0
 1195              		@ frame_needed = 0, uses_anonymous_args = 0
ARM GAS  /tmp/cc1SpKIA.s 			page 80


 1196              		@ link register save eliminated.
 1197 0000 8A42     		cmp	r2, r1
 1198 0002 06D9     		bls	.L30
 1199 0004 8142     		cmp	r1, r0
 1200 0006 08D8     		bhi	.L34
 1201              	.L36:
 1202 0008 8242     		cmp	r2, r0
 1203 000a 94BF     		ite	ls
 1204 000c 0020     		movls	r0, #0
 1205 000e 0120     		movhi	r0, #1
 1206 0010 7047     		bx	lr
 1207              	.L30:
 1208 0012 8142     		cmp	r1, r0
 1209 0014 F8D8     		bhi	.L36
 1210 0016 0120     		movs	r0, #1
 1211 0018 7047     		bx	lr
 1212              	.L34:
 1213 001a 0020     		movs	r0, #0
 1214 001c 7047     		bx	lr
 1215              		.size	chSysIsCounterWithinX, .-chSysIsCounterWithinX
 1216 001e 00BF     		.section	.text.chSysPolledDelayX,"ax",%progbits
 1217              		.align	2
 1218              		.p2align 4,,15
 1219              		.global	chSysPolledDelayX
 1220              		.thumb
 1221              		.thumb_func
 1222              		.type	chSysPolledDelayX, %function
 1223              	chSysPolledDelayX:
 1224              		@ args = 0, pretend = 0, frame = 0
 1225              		@ frame_needed = 0, uses_anonymous_args = 0
 1226              		@ link register save eliminated.
 1227 0000 0C49     		ldr	r1, .L48
 1228 0002 4A68     		ldr	r2, [r1, #4]
 1229 0004 1044     		add	r0, r0, r2
 1230              	.L43:
 1231 0006 9042     		cmp	r0, r2
 1232 0008 4B68     		ldr	r3, [r1, #4]
 1233 000a 0CD9     		bls	.L38
 1234 000c 9A42     		cmp	r2, r3
 1235 000e 03D9     		bls	.L46
 1236 0010 0023     		movs	r3, #0
 1237 0012 002B     		cmp	r3, #0
 1238 0014 F7D1     		bne	.L43
 1239              	.L47:
 1240 0016 7047     		bx	lr
 1241              	.L46:
 1242 0018 9842     		cmp	r0, r3
 1243 001a 94BF     		ite	ls
 1244 001c 0023     		movls	r3, #0
 1245 001e 0123     		movhi	r3, #1
 1246 0020 002B     		cmp	r3, #0
 1247 0022 F0D1     		bne	.L43
 1248 0024 F7E7     		b	.L47
 1249              	.L38:
 1250 0026 9A42     		cmp	r2, r3
 1251 0028 F6D8     		bhi	.L46
 1252 002a 0123     		movs	r3, #1
ARM GAS  /tmp/cc1SpKIA.s 			page 81


 1253 002c 002B     		cmp	r3, #0
 1254 002e EAD1     		bne	.L43
 1255 0030 F1E7     		b	.L47
 1256              	.L49:
 1257 0032 00BF     		.align	2
 1258              	.L48:
 1259 0034 001000E0 		.word	-536866816
 1260              		.size	chSysPolledDelayX, .-chSysPolledDelayX
 1261 0038 AFF30080 		.section	.bss.mainthread.6318,"aw",%nobits
 1261      AFF30080 
 1262              		.align	2
 1263              		.set	.LANCHOR0,. + 0
 1264              		.type	mainthread.6318, %object
 1265              		.size	mainthread.6318, 68
 1266              	mainthread.6318:
 1267 0000 00000000 		.space	68
 1267      00000000 
 1267      00000000 
 1267      00000000 
 1267      00000000 
 1268              		.section	.rodata.str1.4,"aMS",%progbits,1
 1269              		.align	2
 1270              	.LC0:
 1271 0000 69646C65 		.ascii	"idle\000"
 1271      00
 1272 0005 000000   		.section	.bss._idle_thread_wa,"aw",%nobits
 1273              		.align	3
 1274              		.set	.LANCHOR1,. + 0
 1275              		.type	_idle_thread_wa, %object
 1276              		.size	_idle_thread_wa, 352
 1277              	_idle_thread_wa:
 1278 0000 00000000 		.space	352
 1278      00000000 
 1278      00000000 
 1278      00000000 
 1278      00000000 
 1279              		.comm	__gnu_lto_v1,1,1
 1280              		.ident	"GCC: (GNU Tools for ARM Embedded Processors) 4.8.4 20140526 (release) [ARM/embedded-4_8-br
ARM GAS  /tmp/cc1SpKIA.s 			page 82


DEFINED SYMBOLS
                            *ABS*:0000000000000000 chsys.c
     /tmp/cc1SpKIA.s:939    .text._idle_thread:0000000000000000 $t
     /tmp/cc1SpKIA.s:944    .text._idle_thread:0000000000000000 _idle_thread
     /tmp/cc1SpKIA.s:958    .text._idle_thread:000000000000000c $d
     /tmp/cc1SpKIA.s:962    .text.chSysInit:0000000000000000 $t
     /tmp/cc1SpKIA.s:968    .text.chSysInit:0000000000000000 chSysInit
     /tmp/cc1SpKIA.s:1027   .text.chSysInit:0000000000000078 $d
     /tmp/cc1SpKIA.s:1038   .text.chSysHalt:0000000000000000 $t
     /tmp/cc1SpKIA.s:1044   .text.chSysHalt:0000000000000000 chSysHalt
     /tmp/cc1SpKIA.s:1060   .text.chSysHalt:0000000000000008 $d
     /tmp/cc1SpKIA.s:1063   .text.chSysTimerHandlerI:0000000000000000 $t
     /tmp/cc1SpKIA.s:1069   .text.chSysTimerHandlerI:0000000000000000 chSysTimerHandlerI
     /tmp/cc1SpKIA.s:1124   .text.chSysTimerHandlerI:0000000000000070 $d
     /tmp/cc1SpKIA.s:1127   .text.chSysGetStatusAndLockX:0000000000000000 $t
     /tmp/cc1SpKIA.s:1133   .text.chSysGetStatusAndLockX:0000000000000000 chSysGetStatusAndLockX
     /tmp/cc1SpKIA.s:1155   .text.chSysRestoreStatusX:0000000000000000 $t
     /tmp/cc1SpKIA.s:1161   .text.chSysRestoreStatusX:0000000000000000 chSysRestoreStatusX
     /tmp/cc1SpKIA.s:1187   .text.chSysIsCounterWithinX:0000000000000000 $t
     /tmp/cc1SpKIA.s:1193   .text.chSysIsCounterWithinX:0000000000000000 chSysIsCounterWithinX
     /tmp/cc1SpKIA.s:1217   .text.chSysPolledDelayX:0000000000000000 $t
     /tmp/cc1SpKIA.s:1223   .text.chSysPolledDelayX:0000000000000000 chSysPolledDelayX
     /tmp/cc1SpKIA.s:1259   .text.chSysPolledDelayX:0000000000000034 $d
     /tmp/cc1SpKIA.s:1262   .bss.mainthread.6318:0000000000000000 $d
     /tmp/cc1SpKIA.s:1266   .bss.mainthread.6318:0000000000000000 mainthread.6318
     /tmp/cc1SpKIA.s:1269   .rodata.str1.4:0000000000000000 $d
     /tmp/cc1SpKIA.s:1273   .bss._idle_thread_wa:0000000000000000 $d
     /tmp/cc1SpKIA.s:1277   .bss._idle_thread_wa:0000000000000000 _idle_thread_wa
                            *COM*:0000000000000001 __gnu_lto_v1
     /tmp/cc1SpKIA.s:961    .text._idle_thread:0000000000000014 $t
     /tmp/cc1SpKIA.s:1037   .text.chSysInit:000000000000009c $t
     /tmp/cc1SpKIA.s:1062   .text.chSysHalt:000000000000000c $t
     /tmp/cc1SpKIA.s:1126   .text.chSysTimerHandlerI:0000000000000074 $t
     /tmp/cc1SpKIA.s:1261   .text.chSysPolledDelayX:0000000000000038 $t

UNDEFINED SYMBOLS
ch
_scheduler_init
_vt_init
_tm_init
_core_init
_heap_init
_thread_init
chThdCreateStatic
ch_debug
stSetAlarm
stStopAlarm
chSchRescheduleS
