ARM GAS  /tmp/cc1JfMAm.s 			page 1


   1              		.syntax unified
   2              		.cpu cortex-m3
   3              		.fpu softvfp
   4              		.eabi_attribute 20, 1
   5              		.eabi_attribute 21, 1
   6              		.eabi_attribute 23, 3
   7              		.eabi_attribute 24, 1
   8              		.eabi_attribute 25, 1
   9              		.eabi_attribute 26, 1
  10              		.eabi_attribute 30, 2
  11              		.eabi_attribute 34, 1
  12              		.eabi_attribute 18, 4
  13              		.thumb
  14              		.file	"chsys.c"
  15              		.section	.gnu.lto_.jmpfuncs.45429554284da2fa,"",%progbits
  16 0000 789C6362 		.ascii	"x\234cb`b\300\006\272\2414\017\003\003#\0033\020\203"
  16      6062C006 
  16      BAA1340F 
  16      03032303 
  16      331083
  17 0013 68867A06 		.ascii	"h\206z\006\006\026\006V\006\0066\006V\246j\206_\015"
  17      06160656 
  17      06063606 
  17      56A66A86 
  17      5F0D
  18 0025 1D0D0299 		.ascii	"\035\015\002\231\214\014\271\214`\245L\021\214\231\214"
  18      8C0CB98C 
  18      60A54C11 
  18      8C998C
  19 0034 8C3718A1 		.ascii	"\2147\030\241,&\020\003\256\2109\031I\021\013\210\201"
  19      2C261003 
  19      AE883919 
  19      49110B88 
  19      81
  20 0045 9063CD65 		.ascii	"\220c\315ed\204\31319\300\234\300\305\310\015\266\237"
  20      6484CB31 
  20      39C09CC0 
  20      C5C80DB6 
  20      9F
  21 0056 9791818F 		.ascii	"\227\221\201\217\235\237\221\001\0004U\021w"
  21      9D9F9101 
  21      00345511 
  21      77
  22              		.text
  23              		.section	.gnu.lto_.inline.45429554284da2fa,"",%progbits
  24 0000 789C758F 		.ascii	"x\234u\217\261\015\3020\020E\3779\216\023\022\207D("
  24      B10DC230 
  24      1045FF39 
  24      8E131287 
  24      4428
  25 0012 05501006 		.ascii	"\005P\020\006@\214\222\232\206\032X\201\001\250\020"
  25      408C929A 
  25      861A5881 
  25      01A810
  26 0021 CA081982 		.ascii	"\312\010\031\202-h\250\221\2202\0025\025>'\030\020\340"
  26      2D68A891 
  26      90320235 
ARM GAS  /tmp/cc1JfMAm.s 			page 2


  26      153E2718 
  26      10E0
  27 0033 C2FEFAF7 		.ascii	"\302\376\372\367\316\377N@\340\327\331R\373j K\011b"
  27      CEFF4E40 
  27      E0D7D952 
  27      FB6A204B 
  27      0962
  28 0045 5C9D08AA 		.ascii	"\\\235\010\252.,M\220\302x\262. \333~\017\323\013[\263"
  28      2E2C4D90 
  28      C278B22E 
  28      20DB7E0F 
  28      D30B5BB3 
  29 0059 E33D7798 		.ascii	"\343=w\230\210\015Z\225\024\031-3b-\321\013\014\246"
  29      880D5A95 
  29      14192D33 
  29      622DD10B 
  29      0CA6
  30 006b ABD2513E 		.ascii	"\253\322Q>\242\230\255\303\313\262\035\012\243\006\\"
  30      A298ADC3 
  30      CBB21D0A 
  30      A3065C
  31 007a 6896AEA0 		.ascii	"h\226\256\240R\346\371\310\004\234l\311\277W\3645g\014"
  31      52E6F9C8 
  31      049C6CC9 
  31      BF57F435 
  31      670C
  32 008c A9C9CA8F 		.ascii	"\251\311\312\217,\215\200gP\267\371\247\237@E\344a\265"
  32      2C8D8067 
  32      50B7F9A7 
  32      9F4045E4 
  32      61B5
  33 009e A00D2976 		.ascii	"\240\015)v\327N\221\335\272\373\307$d]\223\004\372H"
  33      D74E91DD 
  33      BAFBC724 
  33      645D9304 
  33      FA48
  34 00b0 02F20413 		.ascii	"\002\362\004\023DO\326\177c5\302\272\030\"<\2479\227"
  34      444FD67F 
  34      6335C2BA 
  34      18223CA7 
  34      3997
  35 00c2 530CAEBC 		.ascii	"S\014\256\274\351d\267\217]>\036gI\0376"
  35      E964B78F 
  35      5D3E1E67 
  35      491F36
  36              		.text
  37              		.section	.gnu.lto_.pureconst.45429554284da2fa,"",%progbits
  38 0000 789C6362 		.ascii	"x\234cb`b\220d\200\000\036\006)F3f+\026+V+6+.3n\011"
  38      60629064 
  38      80001E06 
  38      29463366 
  38      2B162B56 
  39 001b 1E2B5E09 		.ascii	"\036+^\011>\006~)\000\"\330\002z"
  39      3E067E29 
  39      0022D802 
  39      7A
  40              		.text
ARM GAS  /tmp/cc1JfMAm.s 			page 3


  41              		.section	.gnu.lto_port_init.45429554284da2fa,"",%progbits
  42 0000 789CAD93 		.ascii	"x\234\255\223Mh\023A\024\307\337\333\217f\233dC\360"
  42      4D681341 
  42      14C7DFDB 
  42      8F669B64 
  42      43F0
  43 0012 5010148A 		.ascii	"P\020\024\212\327\252\203x\360 \202\322S\300\\l\205"
  43      D7AA8378 
  43      F02082D2 
  43      53C05C6C 
  43      85
  44 0023 7A2AE966 		.ascii	"z*\351f\331,6\215\244I\250\247NH\324K\221\340\241j\275"
  44      D92C368D 
  44      A449A8A7 
  44      4E48D44B 
  44      91E0A16A 
  45 0038 A4291A69 		.ascii	"\244)\032i\305\036D\210z\011\336<(\326c-\030\224\212"
  45      C51E4488 
  45      7A09DE3C 
  45      28D6632D 
  45      18948A
  46 004b D84B050F 		.ascii	"\330K\005\017\036\202q>vc[\265\355\301\201\235\267;"
  46      1E82713E 
  46      76635BB5 
  46      EDC1819D 
  46      B73B
  47 005d F3E6FFFF 		.ascii	"\363\346\377\377\315\314[\005\024\330\331\016\262'\246"
  47      CDCC5B05 
  47      14D8D90E 
  47      B227A6
  48 006c 01DC6011 		.ascii	"\001\334`\021U@\245\362\006\240h(\210\374\005\020\246"
  48      5540A5F2 
  48      06A06828 
  48      88FC0510 
  48      A6
  49 007d 159CBE84 		.ascii	"\025\234\276\204<\025\217\300<\245\267Z\367\353\263"
  49      3C158FC0 
  49      3CA5B75A 
  49      F7EBB3
  50 008c 87EED266 		.ascii	"\207\356\322f\271J\333\235\016\242\213L\366,\202\205"
  50      B94ADB9D 
  50      0EA28B4C 
  50      F62C8285 
  51 009c 30C23EB0 		.ascii	"0\302>\260_\004E\333\356\263\2544[\235\316\343'\215"
  51      5F0445DB 
  51      EEB3AC34 
  51      5B9DCEE3 
  51      278D
  52 00ae E5F3ED15 		.ascii	"\345\363\355\025\375\200\006.\252:\357\002\2743x\027"
  52      FD80062E 
  52      AA3AEF02 
  52      BC337817 
  53 00be 8604CE33 		.ascii	"\206\004\3163\023\323\213\021/\262\246C\231\322J?p\023"
  53      13D38B11 
  53      2FB2A643 
  53      99D24A3F 
  53      7013
ARM GAS  /tmp/cc1JfMAm.s 			page 4


  54 00d0 D68659CF 		.ascii	"\326\206Y\317\361.\242\302\243\372\032^6\032?\277b\002"
  54      F12EA2C2 
  54      A3FA1A5E 
  54      361A3FBF 
  54      6202
  55 00e2 17508701 		.ascii	"\027P\207\001X\244\345\"5]\324\356\301\034c\3219P\017"
  55      58A4E522 
  55      355DD4EE 
  55      C11C63D1 
  55      39500F
  56 00f5 5D2DD188 		.ascii	"]-\321\210`\353\021Dc(\311\370\210\200e*\253k\325\365"
  56      60EB1144 
  56      6328C9F8 
  56      8880652A 
  56      AB6BD5F5 
  57 0109 8FAAE7E6 		.ascii	"\217\252\347\346\273\313\317\346\306L;t\032@zX(V;\030"
  57      BBCBCFE6 
  57      C64C3B74 
  57      1A407A58 
  57      28563B18 
  58 011d 966EAD6B 		.ascii	"\226n\255k\213\263G\245a\261B\243\377\366D\256Pg\012"
  58      8BB347A5 
  58      61B142A3 
  58      FFF644AE 
  58      50670A
  59 0130 C2B0F4A2 		.ascii	"\302\260\364\242T_\177\247&\360\001\033q\320dz<Y\355"
  59      545F7FA7 
  59      26F0011B 
  59      71D0647A 
  59      3C59ED
  60 0143 7C53E5FC 		.ascii	"|S\345\374\263\322\022\003\362\347#,E\314\323\353_\210"
  60      B3D21203 
  60      F2E7232C 
  60      45CCD3EB 
  60      5F88
  61 0155 247EF570 		.ascii	"$~\365p\251ONo\337\366~)\230\250\267\363\317?>\214\310"
  61      A94F4E6F 
  61      DFF67E29 
  61      98A8B7F3 
  61      CF3F3E8C 
  62 016a CD39A849 		.ascii	"\3159\250I\261h\367\010\003|\265\261\371\336\0272<!"
  62      B168F708 
  62      037CB5B1 
  62      F9DE1732 
  62      3C21
  63 017c BFA038AA 		.ascii	"\277\2408\252\352\257\326\231\200\304\244\324\220\230"
  63      EAAFD699 
  63      80C4A4D4 
  63      9098
  64 018a B1AD57B3 		.ascii	"\261\255W\263_Y\207\003r\266;\265\015\364\305\003;5"
  64      5F598703 
  64      72B63BB5 
  64      0DF4C503 
  64      3B35
  65 019c 7AF9C220 		.ascii	"z\371\302 \255RO#\350i\250\177C3\034\351\251\342\256"
  65      AD524F23 
  65      E869A87F 
ARM GAS  /tmp/cc1JfMAm.s 			page 5


  65      43331CE9 
  65      A9E2AE
  66 01af 5CBB6B3A 		.ascii	"\\\273k:\234\223\237\375Z\365{-\324\255\315n\235\314"
  66      9C939FFD 
  66      5AF57B2D 
  66      D4ADCD6E 
  66      9DCC
  67 01c1 9803BFEB 		.ascii	"\230\003\277\353Dl\345\030<\022ER\273}\330\305\220w"
  67      446CE518 
  67      3C124552 
  67      BB7DD8C5 
  67      9077
  68 01d3 53275C0C 		.ascii	"S'\\\014\357yS\032Wz\312\017B`\007\304\360\226\0213"
  68      EF79531A 
  68      577ACA0F 
  68      426007C4 
  68      F0961133 
  69 01e7 EAD5C1DB 		.ascii	"\352\325\301\333\276?An\376o\220\347]\220\240\007\322"
  69      BE3F416E 
  69      FE6F90E7 
  69      5D90A007 
  69      D2
  70 01f8 1D319931 		.ascii	"\0351\2311\254@qs\356\323BHz\372m\230\325\033\373M9"
  70      AC407173 
  70      EED34248 
  70      7AFA6D98 
  70      D51BFB4D 
  71 020d C01992CA 		.ascii	"\300\031\222\312\244mbe\222WI\322.\020+\345\216\271"
  71      A46D6265 
  71      925749D2 
  71      2E102BE5 
  71      8EB9
  72 021f 994992CB 		.ascii	"\231I\222\313\346'.\023\366bO\345\310`|(6D\334\011k"
  72      E6272E13 
  72      F6624FE5 
  72      C8607C28 
  72      3644DC09 
  73 0234 3C9FE4B9 		.ascii	"<\237\344\271Y{\324J\237<\236\202\336\254\355\214\026"
  73      597BD44A 
  73      9F3C9E82 
  73      DEACED8C 
  73      16
  74 0245 12E3797B 		.ascii	"\022\343y{O\235l\216\\\311ds\223\344\334\205\370`|\212"
  74      4F9D6C8E 
  74      5CC96473 
  74      93E4DC85 
  74      F8607C8A 
  75 0259 25089DC2 		.ascii	"%\010\235\302\2514\323\371\005rQ:\235"
  75      A934D3F9 
  75      0572513A 
  75      9D
  76              		.text
  77              		.section	.gnu.lto__idle_thread.45429554284da2fa,"",%progbits
  78 0000 789C5D90 		.ascii	"x\234]\220\261J\003A\020\206\347\237\335SK\313Tb\255"
  78      B14A0341 
  78      1086E79F 
  78      DD534BCB 
ARM GAS  /tmp/cc1JfMAm.s 			page 6


  78      5462AD
  79 0013 C48534B6 		.ascii	"\304\2054\266\372\016'hi\366\016\263h<\270\213B\260"
  79      FA0E2768 
  79      69F60EB3 
  79      683CB88B 
  79      42B0
  80 0025 C8462C2C 		.ascii	"\310F,,S\206\250\205\205\255\202O`\225N\037\300*\235"
  80      5386A885 
  80      85AD824F 
  80      60954E1F 
  80      C02A9D
  81 0038 8D4F9026 		.ascii	"\215O\220&\316\355\032\004\027f\347\337a\346\373\231"
  81      CEED1A04 
  81      1766E7DF 
  81      61E6FB99 
  82 0048 6562FA7F 		.ascii	"eb\372\177\232\022\337\022\273\022H\010<\372 \032\256"
  82      9A12DF12 
  82      BB124808 
  82      3CFA201A 
  82      AE
  83 0059 3154140A 		.ascii	"1T\024\012:\012\035+\373\240\001+\215\301\021\302\374"
  83      3A0A1D2B 
  83      FBA0012B 
  83      8DC111C2 
  83      FC
  84 006a 0BBFCD16 		.ascii	"\013\277\315\026\213\347\327\351\323=&\254\231\\\250"
  84      8BE7D7E9 
  84      D33D26AC 
  84      995CA8
  85 0079 2774E3FD 		.ascii	"'t\343\375h\223\310\206g*7\350\000LP\357t\3759\376j"
  85      6893C886 
  85      672A37E8 
  85      004C50EF 
  85      74FD39FE 
  86 008e 1CE351FC 		.ascii	"\034\343Q\374N\300\333\264%3\341\306\035M\206\336\257"
  86      4EC0DBB4 
  86      2533E1C6 
  86      1D4D86DE 
  86      AF
  87 009f 3BF015CD 		.ascii	";\360\025\315\375m\255T7\020\016!28\266\243\261\344"
  87      FD6DAD54 
  87      37100E21 
  87      3238B6A3 
  87      B1E4
  88 00b1 5F41429C 		.ascii	"_AB\234\253\310\013\030-\030iO\004^\217-\333\343\362"
  88      ABC80B18 
  88      2D18694F 
  88      045E8F2D 
  88      DBE3F2
  89 00c4 35B8E1B0 		.ascii	"5\270\341\260\262A\255\007?\336sX\375\373\214T,dI\225"
  89      B241AD07 
  89      3FDE7358 
  89      FDFB8C54 
  89      2C644995 
  90 00d8 42D719E9 		.ascii	"B\327\031\351\322\302\230N\321\315\215-\262\276\311"
  90      D2C2984E 
  90      D1CD8D2D 
ARM GAS  /tmp/cc1JfMAm.s 			page 7


  90      B2BEC9
  91 00e7 F24B633B 		.ascii	"\362Kc;\256\355\212\312\364\312\213\363S#\242\354\231"
  91      AEED8ACA 
  91      F4CA8BF3 
  91      5323A2EC 
  91      99
  92 00f8 AAB452AF 		.ascii	"\252\264R\257\372\325\216\245\304eg9\375\000\3468H\317"
  92      FAD58EA5 
  92      C4656739 
  92      FD00E638 
  92      48CF
  93              		.text
  94              		.section	.gnu.lto_chVTDoTickI.45429554284da2fa,"",%progbits
  95 0000 789CAD54 		.ascii	"x\234\255T_h[U\030\377\276{\223{o\323\254\215\263\272"
  95      5F685B55 
  95      18FFBE7B 
  95      937B6FD3 
  95      AC8DB3BA 
  96 0014 B8C20C05 		.ascii	"\270\302\014\005_\234x\335\306\220=\310&\025\241\320"
  96      5F9C78DD 
  96      C6903DC8 
  96      2615A1D0 
  97 0024 BC2C2DEA 		.ascii	"\274,-\352\203\214\333$&\027\223\246\244I\330\330\303"
  97      838CDB24 
  97      261793A6 
  97      A449D8D8 
  97      C3
  98 0035 6E9AA895 		.ascii	"n\232\250\225\215Z\252b\335P;dl\363\305\341SE\252\231"
  98      8D5AAA62 
  98      DD503B64 
  98      6CF3C5E1 
  98      5345AA99 
  99 0049 EC2FAC1B 		.ascii	"\354/\254\033\303\007]\023f\331`\016\225X\035\023\231"
  99      C3075D13 
  99      66D9600E 
  99      95581D13 
  99      99
 100 005a C3FA9D73 		.ascii	"\303\372\235s\356\275I\327B\347\237\003\367\234s\317"
 100      EEBD49D7 
 100      42E79F03 
 100      F79C73CF 
 101 006a B9BFDFEF 		.ascii	"\271\277\337\357\373~\347\334O\002\011\356m\006=\373"
 101      FB7EE7DC 
 101      4F0209EE 
 101      6D063DFB 
 102 007a 55802E04 		.ascii	"U\200.\004\300\026@i\374\"@Q\223\320#&\262\230\234\324"
 102      C0164069 
 102      FC224051 
 102      93D02326 
 102      B2989CD4 
 103 008e 3C927CE0 		.ascii	"<\222|\340,\200\345\363\226U\260\374^I\371\235F\237"
 103      2C80E5F3 
 103      9655B0FC 
 103      5E49F99D 
 103      469F
 104 00a0 7AF00C2D 		.ascii	"z\360\014-\372\025\324\304\367\2523\321\020\331\004"
 104      FA15D4C4 
ARM GAS  /tmp/cc1JfMAm.s 			page 8


 104      F7AA33D1 
 104      10D904
 105 00af 10F649B2 		.ascii	"\020\366I\262\307\253\250\032\356{\011\231\244\334\005"
 105      C7ABA81A 
 105      EE7B0999 
 105      A4DC05
 106 00be 872D6B62 		.ascii	"\207-kb\376\364\217\327\245\367\255Jy\312\272\273\270"
 106      FEF48FD7 
 106      A5F7AD4A 
 106      79CABABB 
 106      B8
 107 00cf 88682285 		.ascii	"\210h\"\205\267\025!\212\360\"\275`\210\017\222gi\274"
 107      B715218A 
 107      F022BD60 
 107      880F9267 
 107      69BC
 108 00e1 025BB972 		.ascii	"\002[\271ru,hM\025\307\255\277\010j\242,\301\266\006"
 108      752C684D 
 108      15C7ADBF 
 108      086AA22C 
 108      C1B606
 109 00f4 322090D2 		.ascii	"2 \220\322\212\310[\037\276\365\21055\342 =\022l_M\363"
 109      8AC85B1F 
 109      BEF58835 
 109      35E2203D 
 109      126C5F4D 
 110 0109 53A932BF 		.ascii	"S\2512\277\270X\373\376\363kU\\\027B0\360c\354\002\005"
 110      B858FBFE 
 110      F36B555C 
 110      174230F0 
 110      63EC0205 
 111 011d 4CF4AAF6 		.ascii	"L\364\252\366\213F\343a\032[\330\242\317^le/~\326\265"
 111      8B46E361 
 111      1A5BD8A2 
 111      CF5E6C65 
 111      2F7ED6B5 
 112 0131 D1CA115A 		.ascii	"\321\312\021Z\011\320\013tP\247\004\331\362z\352\324"
 112      09D00B74 
 112      50A704D9 
 112      F27AEAD4 
 113 0141 4EEA6452 		.ascii	"N\352dR\361B\331\262\306C\202G\020\000\013\214Z\037"
 113      F142D9B2 
 113      C6438247 
 113      10000B8C 
 113      5A1F
 114 0153 F5E47A3F 		.ascii	"\365\344z?J4\310\263\360\365\\\355Z\345\330\004\332"
 114      4A34C8B3 
 114      F0F55CED 
 114      5AE5D804 
 114      DA
 115 0164 10075BF9 		.ascii	"\020\007[\371\342\235\232LT\006\036\245\255(rl\002\327"
 115      E29D9A4C 
 115      54061EA5 
 115      AD28726C 
 115      02D7
 116 0176 6F844FAC 		.ascii	"o\204O\254rq\376\335\327OM\240\307D\355\020\034$\347"
 116      7271FEDD 
ARM GAS  /tmp/cc1JfMAm.s 			page 9


 116      D74F4DA0 
 116      C744ED10 
 116      1C24E7
 117 0189 0226B6B0 		.ascii	"\002&\266\260l}\0265\017O\334\307\323\035`8\003\217"
 117      6C7D1635 
 117      0F4FDCC7 
 117      D31D6038 
 117      038F
 118 019b 1307B559 		.ascii	"\023\007\265Y\030\251\227\332\014<F\257\011\354$:\276"
 118      18A997DA 
 118      0C3C46AF 
 118      09EC243A 
 118      BE
 119 01ac 36573B31 		.ascii	"6W;1\323+\204\022\250l\204\307)\011\246Cm\257\211\255"
 119      D32B8412 
 119      A86C84C7 
 119      2909A643 
 119      6DAF89AD 
 120 01c0 4CC26212 		.ascii	"L\302b\022\376\275p\307\032e\2635i\036\017\323Yc\353"
 120      FEBD70C7 
 120      1A65B335 
 120      691E0FD3 
 120      5963EB
 121 01d3 A03D3A27 		.ascii	"\240=:'5\013\2457K\005\207U\345r\212\330\352'\217\350"
 121      350BA537 
 121      4B058755 
 121      E5728AD8 
 121      EA278FE8 
 122 01e7 FEC9FC93 		.ascii	"\376\311\374\223\257f:]\267\216p\237\004\206\247\353"
 122      AF663A5D 
 122      B78E709F 
 122      0486A7EB 
 123 01f7 4B2026E8 		.ascii	"K &\350*\363('\353U\331\300\023\234\257U\304\027p#\015"
 123      2AF32827 
 123      EB55D9C0 
 123      139CAF55 
 123      C4177023 
 124 020c FC974047 		.ascii	"\374\227@G]^?\251\021;\027\354\021\213\377\227\022\221"
 124      5D5E3FA9 
 124      113B17EC 
 124      118BFF97 
 124      1291
 125 021e 8B3CA6EB 		.ascii	"\213<\246\353\267\320\321k\263}~\231n/\221\022\270-"
 125      B7D0D16B 
 125      B37D7E99 
 125      6E2F9112 
 125      B82D
 126 0230 811A2301 		.ascii	"\201\032#\001\033,\273a\216L\177W\377Fj\016\312\332"
 126      1B2CBB61 
 126      8E4C7F57 
 126      FF466A0E 
 126      CADA
 127 0242 B40A8CAD 		.ascii	"\264\012\214\255\264\333\350\271\233u7\315\000?dX\031"
 127      B4DBE8B9 
 127      9B7537CD 
 127      003F6458 
 127      19
ARM GAS  /tmp/cc1JfMAm.s 			page 10


 128 0253 EA6928DE 		.ascii	"\352i(\336)\325q\211`\244\031\025hF\361\023\003a\207"
 128      29D57189 
 128      60A41915 
 128      6846F113 
 128      036187
 129 0266 75993602 		.ascii	"u\2316\0026\344[\232\267\2229\216\037\016\367\371\311"
 129      36E45B9A 
 129      B792398E 
 129      1F0EF7F9 
 129      C9
 130 0277 5FFE5C9A 		.ascii	"_\376\\\232\3153\304fO\333\377\261\311\212mr\000\340"
 130      CD33C466 
 130      4FDBFFB1 
 130      C98A6D72 
 130      00E0
 131 0289 228CFC3A 		.ascii	"\"\214\374:v\366\263\003\262\373O\011\031`\025\014\341"
 131      76F6B303 
 131      B2FB4F09 
 131      1960150C 
 131      E1
 132 029a 0D4966C5 		.ascii	"\015If\305S\026\025t\003LJ\037X\223;L|\300\241^\313"
 132      53161574 
 132      034C4A1F 
 132      58933B4C 
 132      7CC0A15E 
 133 02af A9DCFD43 		.ascii	"\251\334\375C\366\376\203n\350s\265?fT\307\313\016\356"
 133      F6FE836E 
 133      E873B53F 
 133      6654C7CB 
 133      0EEE
 134 02c1 A522A2B5 		.ascii	"\245\"\242\265\236^\356\247j\347|\011\312\025\325\211"
 134      9E5EEEA7 
 134      6AE77C09 
 134      CA15D589 
 135 02d1 848E9E75 		.ascii	"\204\216\236u\035&v\334o\300\006\236\247c\345\001\206"
 135      1D2676DC 
 135      6FC0069E 
 135      A763E501 
 135      86
 136 02e2 9A0234F0 		.ascii	"\232\0024\360\002nh8\333O\347G\305Z\346aN\317<\352\374"
 136      026E6838 
 136      DB4FE747 
 136      C55AE661 
 136      4ECF3CEA 
 137 02f7 819AED6C 		.ascii	"\201\232\355l\276a\362\013\377\322d\341\301\302Z\207"
 137      BE61F20B 
 137      FFD264E1 
 137      C1C25A87 
 138 0307 BA45948C 		.ascii	"\272E\224\214\225o\223fC\316A\371Fq\213\013I4n\303\025"
 138      956F9366 
 138      43CE41F9 
 138      46718B0B 
 138      49346EC3 
 139 031c A07F5C95 		.ascii	"\240\177\\\225.\334\316\323\017/\337\275\235fIxYu<\007"
 139      2EDCCED3 
 139      0F2FDFBD 
 139      9D664978 
ARM GAS  /tmp/cc1JfMAm.s 			page 11


 139      59753C07 
 140 0330 A77E38F9 		.ascii	"\247~8\371\366G\262\233\203}\275\332\033\267k\353\012"
 140      F647B29B 
 140      837DBDDA 
 140      1BB76BEB 
 140      0A
 141 0341 97AB6185 		.ascii	"\227\253a\205\002U\220/Aia\354\265\237\026\226\225\330"
 141      0255902F 
 141      416961EC 
 141      B59F1696 
 141      95D8
 142 0353 FD378EAA 		.ascii	"\3757\216\252\215\012k\327\003\327\206\207\242H\302"
 142      8D0A6BD7 
 142      03D78687 
 142      A248C2
 143 0362 55710C26 		.ascii	"Uq\014&>\354p\252p\\a\245k\264t\375\313mNdA\236R'?d"
 143      3EEC70AA 
 143      705C61A5 
 143      6BB474FD 
 143      CB6D4E64 
 144 037c 12FBEDE6 		.ascii	"\022\373\355\346r\261\237\337k\022\363\334#\266.\212"
 144      72B19FDF 
 144      6B12F3DC 
 144      23B62E8A 
 145 038c 5E03AF3A 		.ascii	"^\003\257:u/hb\320\321\323\230\023\227\2418_\325\335"
 145      752F6862 
 145      D0D1D398 
 145      1397A138 
 145      5FD5DD
 146 039f CAC85B1F 		.ascii	"\312\310[\037\345\\VY\330\233\365d&\035\327\243\231"
 146      E55C5659 
 146      D89BF564 
 146      261DD7A3 
 146      99
 147 03b0 D81E3D16 		.ascii	"\330\036=\026/\350\321\2449`f\206\365\\6?\370\252N\223"
 147      2FE8D1A4 
 147      39606686 
 147      F55C363F 
 147      F8AA4E93 
 148 03c4 6C4E3707 		.ascii	"lN7\007\243\251|\214>J\026rO&A.\344\206\274\261x*gH"
 148      A3A97C8C 
 148      3E4A1672 
 148      4F26412E 
 148      E486BCB1 
 149 03dc AF0C76AF 		.ascii	"\257\014v\257\206O\032)}(\223\315\015\353\221\276\360"
 149      864F1A29 
 149      7D2893CD 
 149      0DEB91BE 
 149      F0
 150 03ed 96CD7A6F 		.ascii	"\226\315zo\357sz_O\270\260I\037\316\355J\245bD\270\375"
 150      EF737A5F 
 150      4FB8B049 
 150      1FCEED4A 
 150      A56244B8 
 151 0402 3E621014 		.ascii	">b\020\024\317\356\014w\207w\323\007\321L6\276+g\246"
 151      CFEE0C77 
 151      8777D307 
ARM GAS  /tmp/cc1JfMAm.s 			page 12


 151      D14C36BE 
 151      2B67A6
 152 0415 E359C2EF 		.ascii	"\343Y\302\357X\015\037\337\235\323\273\303\221\236H"
 152      580D1FDF 
 152      9DD3BBC3 
 152      919E48
 153 0424 2315868F 		.ascii	"#\025\206\217\246\237\317\017F\211 \020\216\354\014"
 153      A69FCF0F 
 153      46892010 
 153      8EEC0C
 154 0433 0D18C3F1 		.ascii	"\015\030\303\361\241\254\371D\350\261\247@\312\202\232"
 154      A1ACF944 
 154      E8B1A740 
 154      CA829A
 155 0442 8EA733D9 		.ascii	"\216\2473\331=\3607\326\267\034\364"
 155      3DF037D6 
 155      B71CF4
 156              		.text
 157              		.section	.gnu.lto_chSysGetStatusAndLockX.part.0.45429554284da2fa,"",%progbits
 158 0000 789C9553 		.ascii	"x\234\225SOh\323P\030\377\276\244I\2538\364\272K\015"
 158      4F68D350 
 158      18FFBEA4 
 158      49AB38F4 
 158      BA4B0D
 159 0013 036F63CF 		.ascii	"\003oc\317\233\247\301\244\"x\350\245\355@O\222\245"
 159      9BA7C1A4 
 159      2278E8A5 
 159      ED404F92 
 159      A5
 160 0024 610DAE7F 		.ascii	"a\015\256\177H\322\261\235\366\326\366\354\272^\334"
 160      48D2B19D 
 160      F6D6F6EC 
 160      BA5EDC
 161 0033 04615594 		.ascii	"\004aU\224\211\240\010\016\004\013\026\007u\010V\204"
 161      89A0080E 
 161      040B1607 
 161      75085684 
 162 0043 DDAD4304 		.ascii	"\335\255C\004q\036*(\010b\374^\332uu\023W_H\276\357"
 162      711E2A28 
 162      0862FC5E 
 162      DA757513 
 162      575F48BE 
 163 0058 7DDFFBFD 		.ascii	"}\337\373\375\311{\211\004\022\034\034\027\350\036\226"
 163      C97B8904 
 163      121C1C17 
 163      E81E96
 164 0067 013E51C4 		.ascii	"\001>Q\304 \240ZnR\242\242\344GI\222ka\340\307\003\333"
 164      20A05A6E 
 164      52A2A2E4 
 164      4749926B 
 164      61E0C703 
 165 007c 0CF80919 		.ascii	"\014\370\011\031\025Q]\014\005\366\022\005Q$\200\260"
 165      15515D0C 
 165      05F61205 
 165      512480B0 
 166 008c A04A7240 		.ascii	"\240Jr@\301\205+(X\325\021\250r^i\335\365vp\225\327"
 166      C1852B28 
ARM GAS  /tmp/cc1JfMAm.s 			page 13


 166      58D511A8 
 166      725E69DD 
 166      F5767095 
 167 00a1 4B6BFCA7 		.ascii	"Kk\374\247\347!ZH\016\"\010\006\302e\232\240\346\007"
 167      E7215A48 
 167      0E220806 
 167      C2659AA0 
 167      E607
 168 00b3 29F0A725 		.ascii	")\360\247%\037{\263\265\321\370p\007\333/\012+\274T"
 168      1F7BB3B5 
 168      D1F87007 
 168      DB2F0A2B 
 168      BC54
 169 00c5 27F0690B 		.ascii	"'\360i\013\311\346\0362\324A\342\337\220\374\341:\227"
 169      C9E61E32 
 169      D441E2DF 
 169      90FCE13A 
 169      97
 170 00d6 7D457950 		.ascii	"}EyPL\245\365\355\345\233\006.\027\371VO\215\254>\305"
 170      4CA5F5ED 
 170      E59B062E 
 170      17F9564F 
 170      8DAC3EC5 
 171 00ea FFF1BABC 		.ascii	"\377\361\272\274Y\330G\007`\020d\245~c\351\3720_+\224"
 171      59D84707 
 171      601064A5 
 171      7E63E9FA 
 171      305F2B94 
 172 00fe F92FC211 		.ascii	"\371/\302\021L\307{(\035\001}$\361\226\347\375\370~"
 172      4CC77B28 
 172      1D017D24 
 172      F196E7FD 
 172      F87E
 173 0110 2C88A063 		.ascii	",\210\240c\025G\310\252\205\012u\024(q^\326t\\\247\242"
 173      1547C8AA 
 173      850A7514 
 173      28715ED6 
 173      745CA7A2 
 174 0124 EF804682 		.ascii	"\357\200F\202\236\342\224\022\250\212(O\222\200\210"
 174      9EE29412 
 174      A88A284F 
 174      928088
 175 0133 4D586C7F 		.ascii	"MXl\177}>\324\303T}Lw\012\304|\337\347\364\007Q\324"
 175      7D3ED4C3 
 175      547D4C77 
 175      0AC47CDF 
 175      E7F40751 
 176 0148 682FE9FB 		.ascii	"h/\351\373\221;\037Q\030^\341-\2762a\021)\215i\354l"
 176      913B1F51 
 176      185EE12D 
 176      BE326111 
 176      298D69EC 
 177 015d EB6B283E 		.ascii	"\353k(>\333\374\274\264\373\345\244\216\017\010>\215"
 177      DBFCBCB4 
 177      FBE5A48E 
 177      0F083E8D 
 178 016d 12B5C44B 		.ascii	"\022\265\304K(\036\035\005lAi\367\375F\343cQ\356\320"
ARM GAS  /tmp/cc1JfMAm.s 			page 14


 178      281E1D05 
 178      6C4169F7 
 178      FD46E363 
 178      51EED0
 179 0180 53DF6FF6 		.ascii	"S\337o\366\277\336$\011\325\302d\257\320\276\275\332"
 179      BFDE2409 
 179      D5C264AF 
 179      D0BEBDDA 
 180 0190 C0C38690 		.ascii	"\300\303\206\220\256\346\0017\357\272n\202b*(A\023Y"
 180      AEE60137 
 180      EFBA6E82 
 180      622A2841 
 180      1359
 181 01a2 AFBFD3ED 		.ascii	"\257\277\323\355\207\372u\002\260\315\204\316\2775t"
 181      87FA7502 
 181      B0CD84CE 
 181      BF3574
 182 01b1 7C4CC921 		.ascii	"|L\311!N\035\237`\270\237M\361w\365-\375\026\373\325"
 182      4E1D9F60 
 182      B89F4DF1 
 182      77F52DFD 
 182      16FBD5
 183 01c4 04ED0B55 		.ascii	"\004\355\013U\005`\202\245\262i\223\031\331\344<K\232"
 183      056082A5 
 183      B2699319 
 183      D9E43C4B 
 183      9A
 184 01d5 B3CC4859 		.ascii	"\263\314HYSV\326a\256\235\317\\c\224\230s.\213D\343"
 184      5356D661 
 184      AE9DCF5C 
 184      63949873 
 184      2E8B44E3 
 185 01e9 97E2CCCA 		.ascii	"\227\342\314\312\0303\371\244Xk\233W\215\364\305|\306"
 185      1833F9A4 
 185      586B9B57 
 185      8DF4C57C 
 185      C6
 186 01fa 184B816A 		.ascii	"\030K\201j\233N~\306eG\361\330.sl\203\352\316\2743f"
 186      9B4E7EC6 
 186      6547F1D8 
 186      2E736C83 
 186      EACEBC33 
 187 020f C0F800EB 		.ascii	"\300\370\000\353sY\333u\330\371X4\022\235\243\005\276"
 187      7359DB75 
 187      D8F95834 
 187      129DA305 
 187      BE
 188 0220 EEECB934 		.ascii	"\356\354\2714\211\312\216\353\014Ecq\355\314\331Q\315"
 188      89CA8EEB 
 188      0C456371 
 188      EDCCD951 
 188      CD
 189 0231 CA3936C8 		.ascii	"\31296\310\3436\234\212\306c\332\224\356\2309\333\032"
 189      E3369C8A 
 189      C663DA94 
 189      EE9839DB 
 189      1A
ARM GAS  /tmp/cc1JfMAm.s 			page 15


 190 0242 A5164836 		.ascii	"\245\026H6\004\323f:k\317\303o{\013\005{"
 190      04D3663A 
 190      6BCFC36F 
 190      7B0B057B 
 191              		.text
 192              		.section	.gnu.lto_chSysRestoreStatusX.part.1.45429554284da2fa,"",%progbits
 193 0000 789C8D52 		.ascii	"x\234\215RMh\023Q\020\236yo7\211A\2617\025$\204\202"
 193      4D681351 
 193      109E796F 
 193      378941B1 
 193      37152484 
 194 0015 B7D2275E 		.ascii	"\267\322'^<\025*\025\301C.I\013z\222\355fi\026\233\037"
 194      3C152A15 
 194      C1432E49 
 194      0B7A92ED 
 194      6669169B 
 195 002a 7637B541 		.ascii	"v7\265A\260\257i\016\"\036\242(XAh\015\242^\014z\254"
 195      B0AF690E 
 195      221EA228 
 195      5841680D 
 195      A25E0C7A 
 196 003f 1EFC41F0 		.ascii	"\036\374A\360b\304K=\211QOB-\355\301\213J\326y\233\244"
 196      62C44B3D 
 196      89514F42 
 196      2DEDC18B 
 196      4AD6799B 
 197 0054 2456306F 		.ascii	"$V0o\331\235y\363\315\367\315\314{\313\200\301\337\353"
 197      D99D79F3 
 197      CDF7CDCC 
 197      7BCB80C1 
 197      DFEB
 198 0066 24BD0D0A 		.ascii	"$\275\015\012\177#\213a\300P\265AN\010Y`\031\343\353"
 198      7F238B61 
 198      C050B541 
 198      4E085960 
 198      19E3EB
 199 0079 0264545B 		.ascii	"\002dT[\213\201\334\313QW\321\305\210\326utD\345\000"
 199      8B81DCCB 
 199      5157D1C5 
 199      88D67574 
 199      44E500
 200 008c C2428871 		.ascii	"\302B\210qM\307\205\263\250T\265aX\225\362z\363\365"
 200      4DC785B3 
 200      A854B561 
 200      5895F27A 
 200      F3F5
 201 009e AFC787E4 		.ascii	"\257\307\207\344J\271*[\276\2176R\375c\010&\302\031"
 201      4AB92A5B 
 201      BE8F3652 
 201      FD630826 
 201      C219
 202 00b0 DA603C30 		.ascii	"\332`<0L\353o\250\303\374\370\243~xY>\257\254\310\337"
 202      4CEB6FA8 
 202      C3FCF8A3 
 202      7E78593E 
 202      AFACC8DF 
 203 00c4 44A53CCE 		.ascii	"D\245<\316\340\302@\334\333\252\352\201+M\331\255JI"
ARM GAS  /tmp/cc1JfMAm.s 			page 16


 203      E0C240DC 
 203      DBAAEA81 
 203      2B4DD9AD 
 203      4A49
 204 00d6 5D5AA44D 		.ascii	"]Z\244M\303\177\321\344\243\007\222\007\345\370\000"
 204      C37FD1E4 
 204      A3079207 
 204      E5F800
 205 00e5 9C3A934D 		.ascii	"\234:\223M\337_\276\033\215 \030X\303a\232\315F\235"
 205      DF5FBE1B 
 205      8D201858 
 205      C3619ACD 
 205      469D
 206 00f7 101D2A52 		.ascii	"\020\035*RV\343\006\256R0\220\2415I_uR\223\030R\226"
 206      56E306AE 
 206      523090A1 
 206      35495F75 
 206      52931852 
 207 010c 4F210B6C 		.ascii	"O!\013l\003\026\2677[\037p\207T\013H\235-\220\364\375"
 207      0316B737 
 207      5B1F7087 
 207      540B489D 
 207      2D90F4FD 
 208 0120 403458A4 		.ascii	"@4X\244q\211\253;\344\355\213\214\301U\274#o\215\333"
 208      7189AB3B 
 208      E4ED8B8C 
 208      C155BC23 
 208      6F8DDB
 209 0133 244A6B06 		.ascii	"$Jk\006\333=\276\205\245\247\257j77\276\3577\360!\261"
 209      DB3DBE85 
 209      A5A7AF6A 
 209      3737BEEF 
 209      37F021B1 
 210 0147 679011A4 		.ascii	"g\220\021\244\206\320}N\370\033\250l|\276\327z\201m"
 210      86D07D4E 
 210      F81BA86C 
 210      7CBED77A 
 210      816D
 211 0159 718203AC 		.ascii	"q\202\003\254w\272)\344\260.\250\273\362\366\346\215"
 211      77BA29E4 
 211      B02EA8BB 
 211      F2F6E68D 
 212 0169 AF0777B7 		.ascii	"\257\007w\267\203\3644\260\277\231O\235f\302j\253$y"
 212      83F434B0 
 212      BF994F9D 
 212      66C26AAB 
 212      2479
 213 017b A0B5837F 		.ascii	"\240\265\203\177\351\340\221\336:\032\254\305\370;X"
 213      E9E091DE 
 213      3A1AACC5 
 213      F83B58
 214 018a DA7AE93F 		.ascii	"\332z\351?\303\256\374E\370)/\313!\033\367\230\235\231"
 214      C3AEFC45 
 214      F8292FCB 
 214      211BF798 
 214      9D99
 215 019c 6C8CD27F 		.ascii	"l\214\322\177:H;\006\326\311\331U\336\300'\030\353-"
ARM GAS  /tmp/cc1JfMAm.s 			page 17


 215      3A483B06 
 215      D6C9D955 
 215      DEC02718 
 215      EB2D
 216 01ae AC07E7FF 		.ascii	"\254\007\347\377\036\026\267\312\327\364\276c\246KB"
 216      1E16B7CA 
 216      D7F4BE63 
 216      A64B42
 217 01bd 052A9E10 		.ascii	"\005*\236\020\231|\326\022f>]\022ikN\230\031{\332\316"
 217      997CD612 
 217      663E5D12 
 217      696B4E98 
 217      197BDACE 
 218 01d1 BBC2738A 		.ascii	"\273\302s\212\271\363\202\034\307\023\256cR\334-\271"
 218      B9F3821C 
 218      C713AE63 
 218      52DC2DB9 
 219 01e1 A32670D7 		.ascii	"\243&p\327s\307\377\307\261\346=1\221H\235N\011;g\316"
 219      73C7FFC7 
 219      B1E63D31 
 219      91489D4E 
 219      093B67CE 
 220 01f5 16D32AD7 		.ascii	"\026\323*\327\261\316\231\331S\305\2349\232\201\220"
 220      B1CE99D9 
 220      53C59C39 
 220      9A8190
 221 0204 63B9C559 		.ascii	"c\271\305Yo_\"\231\212\0379:\022\267\013\256\003|\314"
 221      6F5F2299 
 221      8A1F393A 
 221      12B70BAE 
 221      037CCC
 222 0217 81B101BA 		.ascii	"\201\261\001\272)\344\035\317\025'\222\211\211\304<"
 222      29E41DCF 
 222      15279289 
 222      89C43C
 223 0226 2504CA73 		.ascii	"%\004\312s\307\263$;\224H%\343\323\206k\025\034{\204"
 223      C7B3243B 
 223      944825E3 
 223      D3866B15 
 223      1C7B84
 224 0239 84813910 		.ascii	"\204\2019\020\316Z\331\274S\202?\347\265\365\351"
 224      CE5AD9BC 
 224      53823FE7 
 224      B5F5E9
 225              		.text
 226              		.section	.gnu.lto_chSysInit.45429554284da2fa,"",%progbits
 227 0000 789CA593 		.ascii	"x\234\245\223\317k\023A\024\307\337\233i\222\335\326"
 227      CF6B1341 
 227      14C7DF9B 
 227      6992DDD6 
 228 0010 68AC15EA 		.ascii	"h\254\025\352Es\351E\245k\377\203\200 \364\320\213Q"
 228      4573E945 
 228      A56BFF83 
 228      8020F4D0 
 228      8B51
 229 0022 503C4833 		.ascii	"P<H3Y\314\240\233\224\335D\014=t\323V*\"\330\203\320"
 229      59CCA09B 
ARM GAS  /tmp/cc1JfMAm.s 			page 18


 229      94DD440C 
 229      3D74D356 
 229      2A22D883 
 230 0037 60512CBD 		.ascii	"`Q,\275)\250\307\034\013^5\245\007Aj\225@O\212\027\257"
 230      29A8C71C 
 230      0B5E35A5 
 230      07416A95 
 230      404F8A17 
 231 004c 45886FF6 		.ascii	"E\210o\366\027\033\273\342\301\201\235\231}\363}\237"
 231      171BBBE2 
 231      C1819D99 
 231      7DF37D9F 
 232 005c 99FDCE5B 		.ascii	"\231\375\316[\006\014\376l\247\350y\316\001\326hD\016"
 232      060CFE6C 
 232      A7E879CE 
 232      01D66844 
 232      0E
 233 006d C856BB00 		.ascii	"\310V\273\000-\215!\252\011 ,0\\\270\216J\212\026\302"
 233      2D8D21AA 
 233      09202C30 
 233      5CB88E4A 
 233      8A16C2
 234 0080 1BB6D5EB 		.ascii	"\033\266\325\353\367_\267W\326\036\341+6\252\203D\310"
 234      F75FB757 
 234      D61EE12B 
 234      36AA8344 
 234      C8
 235 0091 AA8E5A0A 		.ascii	"\252\216Z\012\226]w5o\251\027\341E\256P\2570W\221\251"
 235      965D7735 
 235      6FA917E1 
 235      45AE50AF 
 235      305791A9 
 236 00a5 916FC352 		.ascii	"\221o\303Row)3\213\033\230\242\345y8p\037\2709\211("
 236      6F772933 
 236      8B1B98A2 
 236      E5793870 
 236      1FB83989 
 237 00ba D0D31388 		.ascii	"\320\323\023\210N\250T\237\337\015'\251\330\240jo?\235"
 237      4EA8549F 
 237      DF0D27A9 
 237      D8A06A6F 
 237      3F9D
 238 00cc A4E203AA 		.ascii	"\244\342\003\252\027_y\222hh\020\365m3\361X\251A\324"
 238      175F7992 
 238      686810F5 
 238      6D33F158 
 238      A941D4
 239 00df 8F44543A 		.ascii	"\217DT:.\272\337\353\013_t\013\365H\305\005f<\225\212"
 239      2EBADFEB 
 239      0B5F740B 
 239      F548C505 
 239      663C958A 
 240 00f3 68E417B9 		.ascii	"h\344\027\271\024\240\256\241\304\241\002\245\323\374"
 240      14A0AEA1 
 240      C4A102A5 
 240      D3FC
 241 0101 032C4EFB 		.ascii	"\003,N\373\341sp\226T^\237^\207\247-WQ2\021O\263<\307"
ARM GAS  /tmp/cc1JfMAm.s 			page 19


 241      E1737096 
 241      545E9F5E 
 241      87A72D57 
 241      5132114F 
 242 0118 54AEE671 		.ascii	"T\256\346qK\276\2014\372\023\332\334\303u:\233;,D\276"
 242      4BBE8134 
 242      FA13DADC 
 242      C3753A9B 
 242      3B2C44BE 
 243 012c 74A94D49 		.ascii	"t\251MI\324\211H\231\303$R\2040\323wWEt\025\353\302"
 243      D4894899 
 243      C3245284 
 243      30D37757 
 243      457415EB 
 244 0141 E2CFEF4F 		.ascii	"\342\317\357O\366\307\203{\205\360\300\252*\020\034"
 244      F6C7837B 
 244      85F0C0AA 
 244      2A101C
 245 0150 AEAA89FB 		.ascii	"\256\252\211\373%u\032\226\361\231\333.H\034\011\021"
 245      25751A96 
 245      F199DB2E 
 245      481C0911 
 246 0160 473C58B4 		.ascii	"G<X\264\276\022\254g\375\315\272\320\332X\0379LV\354"
 246      BE12AC67 
 246      FDCDBAD0 
 246      DA581F39 
 246      4C56EC
 247 0173 C7F8B72C 		.ascii	"\307\370\267,\372\236\335\367\277\306B{\263\377k\222"
 247      FA9EDDF7 
 247      BFC6427B 
 247      B3FF6B92 
 248 0183 473CE031 		.ascii	"G<\3401\307\217F\316d\343\316\360\350\356\306%\036\263"
 248      C78F46CE 
 248      64E3CEF0 
 248      E8EEC625 
 248      1EB3
 249 0195 02A7B6A1 		.ascii	"\002\247\266\241\355\356}|\213\207j\"'\202\015\375\210"
 249      EDEE7D7C 
 249      8B876A22 
 249      27820DFD 
 249      88
 250 01a6 7B43E271 		.ascii	"{C\342q\013y\354\302G?\241\177\361\030h\266\276<<#\361"
 250      0B79ECC2 
 250      473FA17F 
 250      F11868B6 
 250      BE3C3C23 
 251 01bb 84403DA6 		.ascii	"\204@=\246\032SUu\022`\007Z\275\316D\314$\357\337B\365"
 251      1A535575 
 251      1260075A 
 251      BDCE44CC 
 251      24EFDF42 
 252 01d0 4FA99318 		.ascii	"O\251\223\030F\245f\231\206\250\225\233F\331\274k\210"
 252      46A56699 
 252      86A8959B 
 252      46D9BC6B 
 252      88
 253 01e1 8A2CC99A 		.ascii	"\212,\311\232c\324\355F\365\266A\023\273n8\266\240\270"
ARM GAS  /tmp/cc1JfMAm.s 			page 20


 253      63D4ED46 
 253      F5B64113 
 253      BB6E38B6 
 253      A0B8
 254 01f3 D3742605 		.ascii	"\323t&\005\024\376\2457\357\325\215\2133\305\351\242"
 254      14FEA537 
 254      EFD58D8B 
 254      33C5E9A2 
 255 0203 21ABE24E 		.ascii	"!\253\342N\243\254\264\266ySX\227\032U1Y\201\334L\361"
 255      A3ACB4B6 
 255      79535897 
 255      1A553159 
 255      81DC4CF1 
 256 0217 72BE34EB 		.ascii	"r\2764\353\230s\266<\237\237\270\000\314\206\214eZ5"
 256      9873B63C 
 256      9F9FB800 
 256      CC868C65 
 256      5A35
 257 0229 BB099A98 		.ascii	"\273\011\232\230s\244\231\227\360\033\322\272\370\370"
 257      73A49997 
 257      F01BD2BA 
 257      F8F8
 258              		.text
 259              		.section	.gnu.lto_chSysHalt.45429554284da2fa,"",%progbits
 260 0000 789C858F 		.ascii	"x\234\205\217\277J\304@\020\306gvsz`\343\023\310\365"
 260      BF4AC440 
 260      10C66776 
 260      737A60E3 
 260      13C8F5
 261 0013 EA6DE10B 		.ascii	"\352m\341\013\234\010\202\205\325E\320J\314&\230E\223"
 261      9C088285 
 261      D545D04A 
 261      CC269845 
 261      93
 262 0024 48721183 		.ascii	"Hr\021\203\302m\360\012\301\346*\021\377\0246\026\026"
 262      C26DF00A 
 262      C1E62A11 
 262      FF143616 
 262      16
 263 0035 E72B88AD 		.ascii	"\347+\210\255z\245\325\025\226bg+\3029\311\006\013\033"
 263      7AA5D515 
 263      9662672B 
 263      C239C906 
 263      0B1B
 264 0047 07BEDDDF 		.ascii	"\007\276\335\337||;\3142`\360\267\346I\357\244c\022"
 264      7C7C3BCC 
 264      3260F0B7 
 264      E649EFA4 
 264      6312
 265 0059 D600597F 		.ascii	"\326\000Y\177\010\220\327\031r\003\034-\003\226q\026"
 265      0890D719 
 265      72031C2D 
 265      03967116 
 266 0069 11BA8C5B 		.ascii	"\021\272\214[\330\335\300\362\375={x\033\217\007W\247"
 266      D8DDC0F2 
 266      FD3D7B78 
 266      1B8F0757 
ARM GAS  /tmp/cc1JfMAm.s 			page 21


 266      A7
 267 007a B7CF3860 		.ascii	"\267\3178`\023\034\203\322\257AO\353~\003@\226\255M"
 267      131C83D2 
 267      AF414FEB 
 267      7E034096 
 267      AD4D
 268 008c 27C21A32 		.ascii	"'\302\0322@>\204\374\363c\364\212\277\221-\274\241\246"
 268      403E84FC 
 268      F363F48A 
 268      BF912DBC 
 268      A1A6
 269 009e 2C84849B 		.ascii	",\204\204\233%g\340\350Z\237\267\024V{\276\300\343\323"
 269      2567E0E8 
 269      5A9FB714 
 269      567BBEC0 
 269      E3D3
 270 00b0 E8FB6CCE 		.ascii	"\350\373l\316\204g\341N\367r\275\240\020\013\244\232"
 270      8467E14E 
 270      F772BDA0 
 270      100BA49A 
 271 00c0 52C82EE1 		.ascii	"R\310.\341\"\327zZ!?\204/}R\220\025`1a\035\011\3139"
 271      22D77A5A 
 271      213F842F 
 271      7D529015 
 271      6031611D 
 272 00d7 4E35D041 		.ascii	"N5\320A\003\333\310\215a\023\320\007\271MA\272\321\256"
 272      03DBC88D 
 272      6113D007 
 272      B94D41BA 
 272      D1AE
 273 00e9 0220841F 		.ascii	"\002 \204\037\005\236\220\221\233\011\327\333\027\322"
 273      059E9091 
 273      9B09D7DB 
 273      17D2
 274 00f7 578E8A12 		.ascii	"W\216\212\022\321\211\323pG\020\304\035\221\304\222"
 274      D189D370 
 274      4710C41D 
 274      91C492
 275 0106 FC244B9A 		.ascii	"\374$K\232\022Z\377\345\275\203\216XZm\257\264\205\012"
 275      125AFFE5 
 275      BD838E58 
 275      5A6DAFB4 
 275      850A
 276 0118 E56EEA16 		.ascii	"\345n\352\026\331\330\333\224\301r\032\312\246\017u"
 276      D9D8DB94 
 276      C1721ACA 
 276      A60F75
 277 0127 B99728B7 		.ascii	"\271\227(\267\241`2\360\202(\316\340\0072\016i\223"
 277      A16032F0 
 277      8228CEE0 
 277      07320E69 
 277      93
 278              		.text
 279              		.section	.gnu.lto_chSysTimerHandlerI.45429554284da2fa,"",%progbits
 280 0000 789C6362 		.ascii	"x\234cb`b@\007\222@\\\003\304\206@\314\310\314\300\310"
 280      60624007 
 280      92405C03 
ARM GAS  /tmp/cc1JfMAm.s 			page 22


 280      C48640CC 
 280      C8CCC0C8 
 281 0014 34E11C03 		.ascii	"4\341\034\003C#\007\023##\210\301\300\310P\317\304X"
 281      43230713 
 281      232388C1 
 281      C0C850CF 
 281      C458
 282 0026 1FC90856 		.ascii	"\037\311\010V\273\236\351\300\203\377\377\327M:7\177"
 282      BB9EE9C0 
 282      83FFFFD7 
 282      4D3A377F 
 283 0036 0DE32E26 		.ascii	"\015\343.&f\240\010+CKC\303\004\005\006\206d\260\212"
 283      66A0082B 
 283      434B43C3 
 283      04050686 
 283      64B08A
 284 0049 102009D2 		.ascii	"\020 \011\322\026\312\310\004\242\231\31734?\230w\234"
 284      16CAC804 
 284      A299CF33 
 284      343F9877 
 284      9C
 285 005a 3D917121 		.ascii	"=\221q!#+P\272\232\341WCG\203@&#P9\304\304L\020}\221"
 285      232B50BA 
 285      9AE15743 
 285      47834026 
 285      235039C4 
 286 0073 A1F1C12A 		.ascii	"\241\361\301*u\230\"\010\010\001J\000M\000\271W_?#?"
 286      75982208 
 286      08014A00 
 286      4D00B957 
 286      5F3F233F 
 287 0087 37553F39 		.ascii	"7U?9?\245R?%\265L?9#3)3\277X\277\244\2504/[\037\310"
 287      3FA5523F 
 287      25B54C3F 
 287      39233329 
 287      33BF58BF 
 288 00a2 282AD12F 		.ascii	"(*\321/.J\006\212\027W\026\353%3\000\000K\3443\345"
 288      2E4A068A 
 288      175716EB 
 288      25330000 
 288      4BE433E5 
 289              		.text
 290              		.section	.gnu.lto_chSysGetStatusAndLockX.45429554284da2fa,"",%progbits
 291 0000 789C854F 		.ascii	"x\234\205O1KBQ\024>\347\336\247X4\00454\211\004m\341"
 291      314B4251 
 291      143EE7DE 
 291      A7583404 
 291      35348904 
 292 0016 CDC62010 		.ascii	"\315\306 \020\202\240\301%\025j\022\275>\364Qj\274\247"
 292      82A0C125 
 292      156A12BD 
 292      3EF4516A 
 292      BCA7
 293 0028 A5347425 		.ascii	"\2454t%\203\206 i*(H\372\001\375\001\007\207\206&#p"
 293      83862069 
 293      2A2848FA 
 293      01FD0107 
ARM GAS  /tmp/cc1JfMAm.s 			page 23


 293      87862623 
 294 003d B2458568 		.ascii	"\262E\205h\013\252\251\010^\367>5\260\245\013\367~\367"
 294      0BAAA908 
 294      5EF73E35 
 294      B0A50BF7 
 294      7EF7
 295 004f 9CF39DEF 		.ascii	"\234\363\235\357|\207\000\201\277' \357\022\002\234"
 295      7C870081 
 295      BF2720EF 
 295      12029C
 296 005e 4A441720 		.ascii	"JD\027 \2516\001\312\036Bh\213\201\030\327\352^\020"
 296      A93601CA 
 296      1E42688B 
 296      8118D7EA 
 296      5E10
 297 0070 13143595 		.ascii	"\023\0245\225F\015Q! \034\020\252\341\301&*\011\234"
 297      460D5121 
 297      201C10AA 
 297      E1C1262A 
 297      099C
 298 0082 859A1067 		.ascii	"\205\232\020g\235\347\367.^\210F\345Z|\3336\242\201"
 298      9DE7F72E 
 298      5E8846E5 
 298      5A7CDB36 
 298      A281
 299 0094 72DC2202 		.ascii	"r\334\"\002G\330\220\001\372\034 \332\350\374[\322\350"
 299      47D89001 
 299      FA1C20DA 
 299      E8FC5BD2 
 299      E8
 300 00a5 D8F6E567 		.ascii	"\330\366\345g\275\367\204Scn\210cM\352\311\343\202\212"
 300      BDF78453 
 300      636E8863 
 300      4DEAC9E3 
 300      828A
 301 00b7 1055DF30 		.ascii	"\020U\3370\346\316\250\210|\225\203(\022\205\264\011"
 301      E6CEA888 
 301      7C958328 
 301      1285B409 
 302 00c7 E5B7D776 		.ascii	"\345\267\327vof@\006\331~#\267p\\\001\354Q\2650\355"
 302      6F664006 
 302      D97E23B7 
 302      705C01EC 
 302      51B530ED 
 303 00db 6FED8513 		.ascii	"o\355\205\023\274\022\347A\003\251\012S\350vh\367p\367"
 303      BC12E741 
 303      03A90A53 
 303      E87668F7 
 303      70F7
 304 00ed D23DFA08 		.ascii	"\322=\372\010\364\033eV\231\034\361\030\225\015-F\037"
 304      F41B6556 
 304      991CF118 
 304      950D2D46 
 304      1F
 305 00fe E0D03354 		.ascii	"\340\3203T\337\207/q,&\015tqt|\2011\220\223l\315q\366"
 305      DF872F71 
 305      2C260D74 
ARM GAS  /tmp/cc1JfMAm.s 			page 24


 305      71747C81 
 305      3190936C 
 306 0115 08E54E3B 		.ascii	"\010\345N;\365\253\332/F$[\026\225\037\306\322\271\214"
 306      F5ABDA2F 
 306      46245B16 
 306      951FC6D2 
 306      B98C
 307 0127 CE782E59 		.ascii	"\316x.YbI}\227\361\264\2210r\026\313\233\205\354\026"
 307      62497D97 
 307      F1B49130 
 307      7216CB9B 
 307      85EC16
 308 013a 931F33CF 		.ascii	"\223\0373\317,\223\313\274U\262\374\034\250\225\267"
 308      2C93CBBC 
 308      55B2FC1C 
 308      A895B7
 309 0149 82FFF5E8 		.ascii	"\202\377\365\350\305<[\011\205\327\302\314\310\362\355"
 309      C53C5B09 
 309      85D7C2CC 
 309      C8F2ED
 310 0158 4252714D 		.ascii	"BRqM=\3063\253\205,\367\247a:\264\036\366\315-\314\373"
 310      3DC633AB 
 310      852CF7A7 
 310      613AB41E 
 310      F6CD2DCC 
 311 016d 12714BDF 		.ascii	"\022qK\3371\215X&^\004\272l\302\017I\326~\373"
 311      318D5826 
 311      5E04BA6C 
 311      C20F49D6 
 311      7EFB
 312              		.text
 313              		.section	.gnu.lto_chSysRestoreStatusX.45429554284da2fa,"",%progbits
 314 0000 789C6362 		.ascii	"x\234cb`b@\007\206@\274\031J3\262202M8\307\300\320\310"
 314      60624007 
 314      8640BC19 
 314      4A33B232 
 314      30324D38 
 315 0018 C1C4C47C 		.ascii	"\301\304\304|E\237\241\201\213e\217\034C\003\0173#\013"
 315      459FA181 
 315      8B658F1C 
 315      43030F33 
 315      230B
 316 002a 48989185 		.ascii	"H\230\221\205\221\021D302\32431\2630\326G2\202\315X"
 316      91114433 
 316      3032D433 
 316      31B330D6 
 316      473282CD 
 317 003f CF74E0C1 		.ascii	"\317t\340\301\377\377\353\356\364\257\351a<\301\304"
 317      FFFFEBEE 
 317      F4AFE961 
 317      3CC1C4
 318 004e C1C8980B 		.ascii	"\301\310\230\013\026gehih\230\240\300\300\220\014\346"
 318      16676568 
 318      696898A0 
 318      C0C0900C 
 318      E6
 319 005f 86004990 		.ascii	"\206\000I\220\356PF&\020\315|\202\341\310\363\203\037"
ARM GAS  /tmp/cc1JfMAm.s 			page 25


 319      EE504626 
 319      10CD7C82 
 319      E1C8F383 
 319      1F
 320 0070 FB991319 		.ascii	"\373\231\023\031\027\002-Ngd\214`\314dDq[(#3\303\025"
 320      17022D4E 
 320      67648C60 
 320      CC644471 
 320      5B282333 
 321 0086 7DE6F30C 		.ascii	"}\346\363\014\315\034\020E\014\014\325\014\277\032:"
 321      CD1C1045 
 321      0C0CD50C 
 321      BF1A3A
 322 0095 1A043219 		.ascii	"\032\0042\031\031\223\031!\2123\031\231`\252Y\300\346"
 322      19931921 
 322      8A331999 
 322      60AA59C0 
 322      E6
 323 00a6 5E64687C 		.ascii	"^dh|\320\241\011\323\000\001!@\305@9\220J}\375\214\374"
 323      D0A109D3 
 323      00012140 
 323      C5403990 
 323      4A7DFD8C 
 324 00bb DC54FDE4 		.ascii	"\334T\375\344\374\224J\375\224\3242\375\344\214\314"
 324      FC944AFD 
 324      94D432FD 
 324      E48CCC
 325 00ca A4CCFC62 		.ascii	"\244\314\374b\375\222\242\322\274l} \243\250D\277\270"
 325      FD92A2D2 
 325      BC6C7D20 
 325      A3A844BF 
 325      B8
 326 00db 2819285E 		.ascii	"(\031(^\\Y\254\227\314\000\000\277\361@\303"
 326      5C59AC97 
 326      CC0000BF 
 326      F140C3
 327              		.text
 328              		.section	.gnu.lto_chSysIsCounterWithinX.45429554284da2fa,"",%progbits
 329 0000 789C8552 		.ascii	"x\234\205R=h\024Q\020\236\357\275\375y\273\027\033\355"
 329      3D681451 
 329      109EEFBD 
 329      FD79BB17 
 329      1BED
 330 0012 35A44997 		.ascii	"5\244I\227\305X\0106\202\235\235E\016by\331\304\313"
 330      C5580836 
 330      829D9D45 
 330      0E6279D9 
 330      C4CB
 331 0024 229793BB 		.ascii	"\"\227\223\273SHu\273z\305\025W\034AI\023\210A\202E"
 331      534875BB 
 331      7AC51557 
 331      1C414913 
 331      88418245 
 332 0038 8A542922 		.ascii	"\212T)\"\212\027H\021\020\005\305F\020<\204S+\011V\026"
 332      8A174811 
 332      1005C546 
 332      103C8453 
ARM GAS  /tmp/cc1JfMAm.s 			page 26


 332      2B095616 
 333 004c C23AEFED 		.ascii	"\302:\357\355n\214A\311\300\31673|3\363\315c\005\011"
 333      6E8C41C9 
 333      C0CE3733 
 333      7C33F3CD 
 333      630509
 334 005f 3A693DFE 		.ascii	":i=\376\332\\\276\316\2101\202\350\277!J\224\020\262"
 334      DA5CBECE 
 334      883182E8 
 334      BF214A94 
 334      10B2
 335 0071 3B49B1EF 		.ascii	";I\261\357j?&\205e2\333d\226p\236\237\327\331\373\200"
 335      6A3F2685 
 335      6532DB64 
 335      96709E9F 
 335      D7D9FB80 
 336 0085 331B4ED6 		.ascii	"3\033N\326\342\240\224\005\256\360\015[\031\266\312"
 336      E2A09405 
 336      AEF00D5B 
 336      19B6CA
 337 0094 33CF641E 		.ascii	"3\317d\036\374\214\344\027\354\022\240\003\002\313\220"
 337      FC8CE417 
 337      EC12A003 
 337      02CB90
 338 00a3 96EDB8CA 		.ascii	"\226\355\270\312\363Kh\337\204V''h#\216W\206\243\255"
 338      F34B68DF 
 338      84562727 
 338      68238E57 
 338      86A3AD
 339 00b6 1FCEEAC3 		.ascii	"\037\316\352\303A\3628\376\225\246@\004\276d\032\024"
 339      41F238FE 
 339      95A64004 
 339      BE641A14 
 340 00c6 82663981 		.ascii	"\202f9\2012 \360\367i\246\267\037\257\217n\034\304\235"
 340      3220F0F7 
 340      69A6B71F 
 340      AF8F6E1C 
 340      C49D
 341 00d8 419A5E8D 		.ascii	"A\232^\215 \005]\371\3236\236\265Y\377j\033\034\276"
 341      20055DF9 
 341      D3369EB5 
 341      59FF6A1B 
 341      1CBE
 342 00ea EBF9FDA4 		.ascii	"\353\371\375\244\033\247i\333\364];\255o[\014\206i\372"
 342      1BA769DB 
 342      F45D3BAD 
 342      6F5B0C86 
 342      69FA
 343 00fc F1D14E6F 		.ascii	"\361\321No\015\257\204\017\252`\003\023,\264\202'\214"
 343      0DAF840F 
 343      AA600313 
 343      2CB48227 
 343      8C
 344 010d 927193D1 		.ascii	"\222q\223\321B\015d\263\203\303N\2709M\345\310fS\207"
 344      420D64B3 
 344      83C34EB8 
 344      394DE5C8 
ARM GAS  /tmp/cc1JfMAm.s 			page 27


 344      665387
 345 0120 058C93DE 		.ascii	"\005\214\223\336\3076\303^\277P\031B\243<\240\375/{"
 345      C736C35E 
 345      BF501942 
 345      A33CA0FD 
 345      2F7B
 346 0132 9F562E57 		.ascii	"\237V.W\360\0246UaU\031\216\254\014I\335I&u\276&\353"
 346      F0143655 
 346      6155198E 
 346      AC0C49DD 
 346      492675BE 
 347 0148 2838CE09 		.ascii	"(8\316\011\216E\373\347\364\240\321q\306\261{f\270\266"
 347      8E45FBE7 
 347      F4A0D171 
 347      C6B17B66 
 347      B8B6
 348 015a 7B4196E1 		.ascii	"{A\226\341\350a\257\351\376\367\007\317dAu\2530\377"
 348      E861AFE9 
 348      FEF707CF 
 348      644175AB 
 348      30FF
 349 016c D10712FA 		.ascii	"\321\007\022\372\035$\310\372\351\231Hk\327\343\335"
 349      1D24C8FA 
 349      E999486B 
 349      D7E3DD
 350 017b 42C2DEE1 		.ascii	"B\302\336\341\331\377IP\247J\360\350\263\307\022\374"
 350      D9FF4950 
 350      A74AF0E8 
 350      B3C712FC 
 351 018b 23092F37 		.ascii	"#\011/7\227\012\256\252\352mZ\203\3145\250\336\352\013"
 351      970AAEAA 
 351      EA6D5A83 
 351      CC35A8DE 
 351      EA0B
 352 019d 91ABF028 		.ascii	"\221\253\360(/\272fU\311\274\333[J\206\333Q1\000Y7\370"
 352      2FBA6655 
 352      C9BCDB5B 
 352      4A86DB51 
 352      31005937 
 353 01b2 1CE7DB19 		.ascii	"\034\347\333\031\036\350\233\235\320T}]\020,\326k\013"
 353      1EE89B9D 
 353      D0547D5D 
 353      102CD66B 
 353      0B
 354 01c3 41589F5F 		.ascii	"AX\237_\016\346\027\356\005\341b4\027\325\233A\253q"
 354      0EE617EE 
 354      05E16234 
 354      17D59B41 
 354      AB71
 355 01d5 77E976C0 		.ascii	"w\351v\300A\243\0254\033!\327\233\313\315\251\220\334"
 355      41A31534 
 355      1B21D79B 
 355      CBCDA990 
 355      DC
 356 01e6 E856AB76 		.ascii	"\350V\253vg\352b\216\3239^\372\015\000b\264\373"
 356      67EA628E 
 356      D3395EFA 
ARM GAS  /tmp/cc1JfMAm.s 			page 28


 356      0D0062B4 
 356      FB
 357              		.text
 358              		.section	.gnu.lto_chSysPolledDelayX.45429554284da2fa,"",%progbits
 359 0000 789C9D54 		.ascii	"x\234\235TOH\024Q\030\377\27673;\177w\213\352P\007A"
 359      4F481451 
 359      18FFBE37 
 359      333B7F77 
 359      8BEA5007 
 360 0015 BC48040E 		.ascii	"\274H\004\016\031\324\251B\202nB\204B\235b]\267u\210"
 360      19D4A942 
 360      826E4284 
 360      429D625D 
 360      B77588
 361 0028 75657793 		.ascii	"uew\223<9\253[,\265\207E\210\262\016)aR\036\204\222"
 361      3C39AB5B 
 361      2CB58745 
 361      88B20E29 
 361      61521E84 
 362 003d A0405A4B 		.ascii	"\240@ZKH\010\203\354\244f\254BzY\242\242C\007q\372\346"
 362      480883EC 
 362      A466AC42 
 362      7A59A2A2 
 362      430771FA 
 363 0052 CDECA646 		.ascii	"\315\354\246F%=\230\367{\337{\277\337\367~\337\2747"
 363      253D98F7 
 363      7BDF7BBF 
 363      DFF77EDF 
 363      BC37
 364 0064 C380C1F6 		.ascii	"\303\200\301\3666N\317\206\000p\203\020w\001\262\302"
 364      364ECF86 
 364      00708310 
 364      7701B2C2 
 365 0074 5B808CC2 		.ascii	"[\200\214\302P\360\006\002\023s\365`k\212\333\033\""
 365      50F00602 
 365      1373F560 
 365      6B8ADB1B 
 365      22
 366 0085 937814E0 		.ascii	"\223x\024\340\221\304\344MQ\000eO\"\243\341\015\024"
 366      91C4E44D 
 366      5100654F 
 366      22A3E10D 
 366      14
 367 0096 A6F37595 		.ascii	"\246\363u\225\257\253~\244\361HC\335#\351\025\266\301"
 367      AFAB7EA4 
 367      F14843DD 
 367      23E915B6 
 367      C1
 368 00a7 42F9D740 		.ascii	"B\371\327@\204`V&B\310s\320\024Dt\021\020z\231 J\001"
 368      84605626 
 368      42C873D0 
 368      14447411 
 368      107A9920 
 369 00bd 595135DD 		.ascii	"YQ5\335\010\005\261\367<\272\005\210u0l\333\003\245"
 369      0805B1F7 
 369      3CBA0588 
 369      75306CDB 
ARM GAS  /tmp/cc1JfMAm.s 			page 29


 369      03A5
 370 00cf AB4F1770 		.ascii	"\253O\027p\320.f\207\354u\307A\264\220\212mD\210 \234"
 370      D02E6687 
 370      EC75C741 
 370      B4908A6D 
 370      4488209C 
 371 00e3 A3006B39 		.ascii	"\243\000k90qk\365\\[(~\235\033=p}\250\257`o\220\324"
 371      30716BF5 
 371      5C5B287E 
 371      9D1B3D70 
 371      7DA8AF60 
 372 00fa 4281C1D1 		.ascii	"B\201\301\321\035*?\316\345\265B&g;N/\327\235\330\221"
 372      1D2A3FCE 
 372      E5B54226 
 372      673B4E2F 
 372      D79DD891 
 373 010e 6EC05E5A 		.ascii	"n\300^Z:s\333\316\026\035\347\244\205\"\203\323\277"
 373      3A73DBCE 
 373      161DE7A4 
 373      852283D3 
 373      BF
 374 011f 648A27C3 		.ascii	"d\212'\303m\307\304\212%\307)\017.\257,\342\276\220"
 374      6DC7C48A 
 374      25C7290F 
 374      2EAF2CE2 
 374      BE90
 375 0131 88710409 		.ascii	"\210q\004\011\3028\214u \003\325\252\270\235J3#4\243"
 375      C2388C75 
 375      2003D5AA 
 375      B89D4A33 
 375      2334A3
 376 0144 118E12EA 		.ascii	"\021\216\022\352\204\367\011\015?\016\372HM\202,\331"
 376      84F7090D 
 376      3F0EFA48 
 376      4D822CD9 
 377 0154 AFF53280 		.ascii	"\257\3652\200\2739\265\026\352\351\335\267\"#\020f\341"
 377      BB39B516 
 377      EAE9DDB7 
 377      22231066 
 377      E1
 378 0165 E5C287B5 		.ascii	"\345\302\207\265R>\342s+\242\342\233\265\011\2720a|"
 378      523EE273 
 378      2BA2E29B 
 378      B509BA30 
 378      617C
 379 0177 881209B9 		.ascii	"\210\022\011\2712\206\362!xdg3\245\311k\253\373k,\224"
 379      3286F221 
 379      78646733 
 379      A5C96BAB 
 379      FB6B2C94 
 380 018b EEC29D4C 		.ascii	"\356\302\235L\301\336ma\300-G\266\207l;\304+\223y=m"
 380      C1DE6D61 
 380      C02D47B6 
 380      876C3BC4 
 380      2B93793D 
 381 01a0 AE2C8C63 		.ascii	"\256,\214c\224\202\332,\364\347^\335(O\010^\322\030"
 381      9482DA2C 
ARM GAS  /tmp/cc1JfMAm.s 			page 30


 381      F4E75EDD 
 381      284F085E 
 381      D218
 382 01b2 4A311463 		.ascii	"J1\024c>\225\374\010@W\340/\206\312\337\345\337\014"
 382      3E95FC08 
 382      4057E02F 
 382      86CADFE5 
 382      DF0C
 383 01c4 29FF6568 		.ascii	")\377eh\33434\003\323\253\313\237\306\276\005\252[y"
 383      DC333403 
 383      D3ABCB9F 
 383      C6BE05AA 
 383      5B79
 384 01d6 D97966A9 		.ascii	"\331yf\251\352\314s'B\256^\230\201\354j\346\036\206"
 384      EACC7327 
 384      42AE5E98 
 384      81EC6AE6 
 384      1E86
 385 01e8 F1312F40 		.ascii	"\3611/@&\003\2339\022L\357\025\334\254U\206\264\205"
 385      26039B39 
 385      124CEF15 
 385      DCAC5586 
 385      B485
 386 01fa D1820178 		.ascii	"\321\202\001xP#\264RfJ6\013}\237\373\237\013\025\252"
 386      5023B452 
 386      664A360B 
 386      7D9FFB9F 
 386      0B15AA
 387 020d 1643D525 		.ascii	"\026C\325%\315\203\352\032\026\350\354\177x#\200\000"
 387      CD83EA1A 
 387      16E8EC7F 
 387      78238000 
 388 021d 4FAF542C 		.ascii	"O\257T,L}\331\363'\013\352?-h\260\242\222\005\275j\341"
 388      4C7DD9F3 
 388      270BEA3F 
 388      2D68B0A2 
 388      9205BD6A 
 389 0232 C5486785 		.ascii	"\305Hg\205k\304h\236{\320}\017J\376\326$\363\307*\370"
 389      6BC4689E 
 389      7BD07D0F 
 389      4AFED624 
 389      F3C72AF8 
 390 0246 7634BE95 		.ascii	"v4\276\225\301\317\213\374\224\247\236\2747*\207\032"
 390      C1CF8BFC 
 390      94A79EBC 
 390      372A871A 
 391 0256 74399B3E 		.ascii	"t9\233>\207y\010Rm\362\372\315g\002\345\327\271\205"
 391      87790852 
 391      6DF2FACD 
 391      6702E5D7 
 391      B985
 392 0268 10D03F00 		.ascii	"\020\320?\000[1\350\336\300w\220)-\036\254\276y\337"
 392      5B31E8DE 
 392      C0779029 
 392      2D1EACBE 
 392      79DF
 393 027a 25D292FB 		.ascii	"%\322\222\373\0373\315\216D<jF\022\355=f{\264\333\214"
ARM GAS  /tmp/cc1JfMAm.s 			page 31


 393      1F33CD8E 
 393      443C6A46 
 393      12ED3D66 
 393      7BB4DB8C 
 394 028e 74586D56 		.ascii	"tXmV\"e\246\223\227;/\2314H\246\315T2B\363\251\236T"
 394      2265A693 
 394      973B2F99 
 394      3448A6CD 
 394      543242F3 
 395 02a5 43048468 		.ascii	"C\004\204hg\273l]L\307\273\032\216\370\330\350\343\341"
 395      67BB6C5D 
 395      4CC7BB1A 
 395      8EF8D8E8 
 395      E3E1
 396 02b7 E33BC8D5 		.ascii	"\343;\310\325\225H\246Sf\323\331\346S\315W\210\020I"
 396      9548A653 
 396      66D3D9E6 
 396      53CD5788 
 396      1049
 397 02c9 24A317BA 		.ascii	"$\243\027\272\217\305\033:\340']s4\202"
 397      8FC51B3A 
 397      E0275D73 
 397      3482
 398              		.text
 399              		.section	.gnu.lto_.symbol_nodes.45429554284da2fa,"",%progbits
 400 0000 789C4DCC 		.ascii	"x\234M\314\313.CQ\024\306\361\357\333\373\354\272\264"
 400      CB2E4351 
 400      14C6F1EF 
 400      DBFBECBA 
 400      B4
 401 0011 A5579709 		.ascii	"\245W\227\011/a\340\021<\006O\3625:\320\304\304\003"
 401      2F61E011 
 401      3C064FF2 
 401      353AD0C4 
 401      C403
 402 0023 60E04CC4 		.ascii	"`\340L\304\375V\227R\022\215\010M:\361\002\244\211\221"
 402      FD569752 
 402      128D084D 
 402      3AF102A4 
 402      8991
 403 0035 9981198E 		.ascii	"\231\201\031\216\323\352>k\362\317/Yk\031\030\274\020"
 403      D3EA3E6B 
 403      F2CF2F59 
 403      6B1918BC 
 403      10
 404 0046 BD31F322 		.ascii	"\2751\363\"\326:\200\264Q[2\273\024\372\\\177Zt\015"
 404      D63A80B4 
 404      515B32BB 
 404      14FA5C7F 
 404      5A740D
 405 0059 1A08E60B 		.ascii	"\032\010\346\0132\211\245g\312\016H\323\246\202\004"
 405      3289A567 
 405      CA0E48D3 
 405      A68204
 406 0068 F728D7E7 		.ascii	"\367(\327\347f\215\356\212\014d\3355m\364\311\355\020"
 406      668DEE8A 
 406      0C64DD35 
ARM GAS  /tmp/cc1JfMAm.s 			page 32


 406      6DF4C9ED 
 406      10
 407 0079 91CC3E95 		.ascii	"\221\314>\225\372\337Y0\007\324\220\2770\207\324p\202"
 407      FADF5930 
 407      07D490BF 
 407      3087D470 
 407      82
 408 008a 47D44882 		.ascii	"G\324H\202\307\324h\202'T\332\223\267T\246\307J\205"
 408      C7D46882 
 408      2754DA93 
 408      B754A6C7 
 408      4A85
 409 009c 6C5259AF 		.ascii	"lRY\257;j\314\353\206\032\367\272\244r^\027T\336\353"
 409      3B6ACCEB 
 409      861AF7BA 
 409      A4725E17 
 409      54DEEB
 410 00af 9C2A78D5 		.ascii	"\234*x\325\251\242\327\031U\362:\245\312\003Y\233G\330"
 410      A9A2D719 
 410      55F23AA5 
 410      CA03599B 
 410      47D8
 411 00c1 7E8F9A43 		.ascii	"~\217\232Cw\365a&\260\370|\374i:\353\012\250\326\347"
 411      77F56126 
 411      B0F87CFC 
 411      693AEB0A 
 411      A8D6E7
 412 00d4 6C0A587E 		.ascii	"l\012X~\375\246MM#\214;\205V\334It\343N\240\372\366"
 412      FDA64D4D 
 412      238C3B85 
 412      56DC4974 
 412      E34EA0FA 
 413 00e9 D732C2B8 		.ascii	"\3272\302\270%\264\342\026\021\256|\314\332\264\355"
 413      25B4E216 
 413      11AE7CCC 
 413      DAB4ED
 414 00f8 DD6702DC 		.ascii	"\335g\002\334owh\263\016[Q\361\013\236G\216\346"
 414      6F7768B3 
 414      0E5B51F1 
 414      0B9E478E 
 414      E6
 415              		.text
 416              		.section	.gnu.lto_.refs.45429554284da2fa,"",%progbits
 417 0000 789C2588 		.ascii	"x\234%\210\201\011\000 \014\303\332\010\233\372\210"
 417      81090020 
 417      0CC3DA08 
 417      9BFA88
 418 000f FF7F68D1 		.ascii	"\377\177h\321BB(BG\177\266\350\221\003CP\\E\277\232"
 418      42422842 
 418      477FB6E8 
 418      91034350 
 418      5C45BF9A 
 419 0023 2CEC9DBE 		.ascii	",\354\235\276\016\321\000\216"
 419      0ED1008E 
 420              		.text
 421              		.section	.gnu.lto_.decls.45429554284da2fa,"",%progbits
 422 0000 789CC55C 		.ascii	"x\234\305\\\011x\025U\226\256\252\267$!\001\242(\202"
ARM GAS  /tmp/cc1JfMAm.s 			page 33


 422      09781555 
 422      96AEAAB7 
 422      242101A2 
 422      2882
 423 0012 D24DECB6 		.ascii	"\322M\354\266{\230\236\257\315\202\013\316\327\323\022"
 423      7B989EAF 
 423      CD820BCE 
 423      D7D312
 424 0021 5F58D24D 		.ascii	"_X\322M0\223\004d>\273\347Y$\017\222![\277\274\240\214"
 424      30930464 
 424      3EBBE759 
 424      240F9221 
 424      5BBFBCA0 
 425 0036 339F9540 		.ascii	"3\237\225@X\232-$aQ\266\260\011:\212\200l\262\371\260"
 425      589A2D24 
 425      6151B6B0 
 425      093A8A80 
 425      6CB2F9B0 
 426 004a 59C2BE83 		.ascii	"Y\302\276\203\210@hE\240\001\015 \373\2229\367T\325"
 426      88406845 
 426      A0010D20 
 426      FB9239F7 
 426      54D5
 427 005c AB7BEB55 		.ascii	"\253{\353U\275T\305v\346}\271\247n\235{\357\177\317"
 427      BD54C576 
 427      E67DB9A7 
 427      6E9D7BEF 
 427      7FCF
 428 006e 3DE7DCB5 		.ascii	"=\347\334\265\252\"p\002\327\311\305q\315\360\313/\342"
 428      AA227002 
 428      D7C9C571 
 428      CDF0CB2F 
 428      E2
 429 007f B898788E 		.ascii	"\270\230x\216k\313q\334o!DA\230\007\001\222\271\245"
 429      6BCB71DC 
 429      6F214441 
 429      98070192 
 429      B9A5
 430 0091 10D64078 		.ascii	"\020\326@x\021\302:%\215\374:B\370\035\317q/C\310\206"
 430      11C23A25 
 430      8DFC3A42 
 430      F81DCF71 
 430      2F43C886 
 431 00a5 3010C21F 		.ascii	"0\020\302\037!\210\020\362 \014\203P\014\301\017a\004"
 431      218810F2 
 431      200C8350 
 431      0CC10F61 
 431      04
 432 00b6 8409106A 		.ascii	"\204\011\020j!\324C\230\017a!\204U\020\326A\330\000"
 432      21D44398 
 432      0F612184 
 432      5510D641 
 432      D800
 433 00c8 61138420 		.ascii	"a\023\204 \204\317 8\001{\013\\\267A\330\001\341q\201"
 433      84CF2038 
 433      017B0B5C 
 433      B741D801 
ARM GAS  /tmp/cc1JfMAm.s 			page 34


 433      E17181
 434 00db 637EA4CE 		.ascii	"c~\244\316vp]\316\311\3278E\256\276\220/\035B\025\204"
 434      76705DCE 
 434      C9D73845 
 434      AEBE902F 
 434      1D421584 
 435 00ef D1106A21 		.ascii	"\321\020j!\324Ah\200\360G\010\177\200\300+\355\312\206"
 435      D4416880 
 435      F047087F 
 435      80C02BED 
 435      CA86
 436 0101 F8000853 		.ascii	"\370\000\010S \274\015\341U\010\016\005{\007\304\367"
 436      20BC0DE1 
 436      55080E05 
 436      7B07C4F7 
 437 0111 EBEAE494 		.ascii	"\353\352\344\224\366F+z8\000\361\235\020zA\241Kp\277"
 437      F6462B7A 
 437      3800F19D 
 437      107A41A1 
 437      4B70BF
 438 0124 1E426F88 		.ascii	"\036Bo\210\367q\3108\373!\355\014\204\213\234\\')K\256"
 438      F771C838 
 438      FB21ED0C 
 438      848B9C5C 
 438      27294BAE 
 439 0138 A43DF48F 		.ascii	"\244=\364\217\350\2563\\/\361Z[\246A\374\016/\343\274"
 439      E8AE335C 
 439      2FF15A5B 
 439      A641FC0E 
 439      2FE3BC
 440 014b 48B5AD2F 		.ascii	"H\265\255/0\206C8K\325}\231\227\355\363:\304\337p\310"
 440      30864338 
 440      4BD57D99 
 440      97EDF33A 
 440      C4DF70C8 
 441 015f 3A1901D7 		.ascii	":\031\001\327\265p}\023\256\231\220\376_p\255\203k\014"
 441      B5707D13 
 441      AE9990FE 
 441      5F70AD83 
 441      6B0C
 442 0171 F0BC10FF 		.ascii	"\360\274\020\377\032\342\002\340\335\206\3535\010\327"
 442      1AE202E0 
 442      DD86EB35 
 442      08D7
 443 017f 899C101E 		.ascii	"\211\234\020\036@\270\011\301\255\310\365\337\220\267"
 443      40B809C1 
 443      ADC8F5DF 
 443      90B7
 444 018d C221DB6C 		.ascii	"\302!\333l\224C\266\237Q\033\006*\330\264=\336\004\336"
 444      9443B69F 
 444      511B062A 
 444      D8B43DDE 
 444      04DE
 445 019f 205E967D 		.ascii	" ^\226}\234\"\033\221\213S\3641P\207A~\304\177b9\271"
 445      9C221B91 
 445      8B53F431 
 445      5087417E 
ARM GAS  /tmp/cc1JfMAm.s 			page 35


 445      C47F6239 
 446 01b4 9C8AB35C 		.ascii	"\234\212\263\\\301\322\343\250m#?A);\337\000\223\370"
 446      C1D2E3A8 
 446      6D233F41 
 446      293BDF00 
 446      93F8
 447 01c6 6347C566 		.ascii	"cG\305fj\231\361\016\331\257W\363\254\035\257)v\244"
 447      6A99F10E 
 447      D9AF57F3 
 447      AC1DAF29 
 447      76A4
 448 01d8 F5486C3B 		.ascii	"\365Hl;\001\256\023\035Z\237P\373\303\"\305WU[_\345"
 448      01AE131D 
 448      5A9F50FB 
 448      C322C557 
 448      555B5FE5 
 449 01ec 647BB751 		.ascii	"d{\267Q\352}Y\361\347\240\342\337\033\024\177_\245\370"
 449      EA7D59F1 
 449      E7A0E2DF 
 449      1B147F5F 
 449      A5F8
 450 01fe FFEF94F2 		.ascii	"\377\357\224\362\264\237o\321\265\201\364%\227\"K[H"
 450      B49F6FD1 
 450      B581F425 
 450      97224B5B 
 450      48
 451 020f 770B9ABC 		.ascii	"w\013\232\274\244\335. q\212_\223\274\204\227\317\207"
 451      A4DD2E20 
 451      718A5F93 
 451      BC8497CF 
 451      87
 452 0220 DB689892 		.ascii	"\333h\230\222\246\327\3330\245\377\352\177\305\212\316"
 452      A6D7DB30 
 452      A5FFEA7F 
 452      C58ACE
 453 022f 695B10FD 		.ascii	"i[\020\375\023\336$\270\276Ba\024\363\306\366\364+>"
 453      13DE24B8 
 453      BE426114 
 453      F3C6F6F4 
 453      2B3E
 454 0241 4CCA4C86 		.ascii	"L\312L\206\310\277Se\374\312xAX\303ueG(zy\223\252\333"
 454      C8BF5365 
 454      FCCA7841 
 454      58C37565 
 454      47287A79 
 455 0258 A9A4F14A 		.ascii	"\251\244\361J:\301\035\007\3271\020\252t\345'(\375\364"
 455      3AC11D07 
 455      D73110AA 
 455      74E52728 
 455      FDF4
 456 026a 2D5D7982 		.ascii	"-]y\202\327\227\032\023H\261\231\202,\017)S\355\220"
 456      D7971A13 
 456      48B19982 
 456      2C0F2953 
 456      ED90
 457 027c 79D53ABC 		.ascii	"y\325:\274X\356\317\222T)\325\217\226\3726\264{\210"
 457      58EECF92 
ARM GAS  /tmp/cc1JfMAm.s 			page 36


 457      5429D58F 
 457      96FA36B4 
 457      7B88
 458 028e AB96E097 		.ascii	"\253\226\340\2270\366+>\206\033K\370\301\321\322X\276"
 458      30F62B3E 
 458      861B4BF8 
 458      C1D1D258 
 458      BE
 459 029f 627917A2 		.ascii	"by\027\242,\221o\027\303\365\304H\\\014\012\361\013"
 459      2C916F17 
 459      C3F5C448 
 459      5C0C0AF1 
 459      0B
 460 02b0 6EA12455 		.ascii	"n\241$U7n]|@\220\244h\221_\000\305\004\3567<\367+\356"
 460      376E5D7C 
 460      4090A468 
 460      915F00C5 
 460      04EE373C 
 461 02c7 3DC001B0 		.ascii	"=\300\001\260\277\376\334@w\234\035\360\215\243\367"
 461      BFFEDC40 
 461      779C1DF0 
 461      8DA3F7
 462 02d6 6DE62B25 		.ascii	"m\346+%\011\022\026#|\031\017\016\370.\377+\373X\365"
 462      09121623 
 462      7C190F0E 
 462      F82EFF2B 
 462      FB58F5
 463 02e9 B7B77791 		.ascii	"\267\267w\221\234\"\377>\342,\347Y \221\217\211\241"
 463      9C22FF3E 
 463      E22CE759 
 463      20918F89 
 463      A1
 464 02fa 85C47B35 		.ascii	"\205\304{5\003\301\302d%\322\254\376\330\346\375\250"
 464      03C1C264 
 464      25D2ACFE 
 464      D8E6FDA8 
 465 030a 65948605 		.ascii	"e\224\206\005\333\252-\373\234W\000\346\363\017i\272"
 465      DBAA2DFB 
 465      9C5700E6 
 465      F30F69BA 
 466 031a 90146362 		.ascii	"\220\024cb\026\245L\202Z\304\251\224\370\220\227\333"
 466      16A54C82 
 466      5AC4A994 
 466      F89097DB 
 467 032a AAB04391 		.ascii	"\252\260C\221\307\025\241\314\312\315\343cuF\224+3."
 467      C715A1CC 
 467      CACDE363 
 467      7546942B 
 467      332E
 468 033c A198F0F6 		.ascii	"\241\230\360\366\256\275\007\370\221h\302\245\250\372"
 468      AEBD07F8 
 468      9168C2A5 
 468      A8FA
 469 034a 2AC1D086 		.ascii	"*\301\320\206\026\2406\216\336\252z\303r\204\232\330"
 469      16A0368E 
 469      DEAA7AC3 
 469      72849AD8 
ARM GAS  /tmp/cc1JfMAm.s 			page 37


 470 035a 6AA8DB63 		.ascii	"j\250\333c6\274\200^\273\022\201\246\011zw\210\322\271"
 470      36BC805E 
 470      BB1281A6 
 470      097A7788 
 470      D2B9
 471 036c 43146BA6 		.ascii	"C\024k\246\250\030-B,\324\236\373\221\2633]\265#7U1"
 471      A8182D42 
 471      2CD49EFB 
 471      91B3335D 
 471      B5233755 
 472 0381 B5C40744 		.ascii	"\265\304\007D\376\267\217\232\232l-\337\021c\016\034"
 472      FEB78F9A 
 472      9A6C2DDF 
 472      11630E1C 
 473 0391 0B80F162 		.ascii	"\013\200\361b,\220\001\216P\335f\005\327\360\261\264"
 473      2C90018E 
 473      50DD6605 
 473      D7F0B1B4 
 474 03a1 4698EA1F 		.ascii	"F\230\352\037\346\246\340HA\351\270\336\251\002\244"
 474      E6A6E048 
 474      41E9B8DE 
 474      A902A4
 475 03b0 694AAEAD 		.ascii	"iJ\256\255\3352O1\375z\376a\220\340\013\235\232[\004"
 475      DD324F31 
 475      FD7AFE61 
 475      90E00B9D 
 475      9A5B04
 476 03c3 12B8AFB0 		.ascii	"\022\270\257\260\310&(.\027Dh\251q\375\364S\025|\005"
 476      C826282E 
 476      174468A9 
 476      71FDF453 
 476      157C05
 477 03d6 4293348E 		.ascii	"B\2234\216\201e~Or\365 y\360\356\350\331\235\245\372"
 477      81657E4F 
 477      72F52079 
 477      F0EEE8D9 
 477      9DA5FA
 478 03e9 CF20FF3A 		.ascii	"\317 \377:h\231\300\315w\250\270F\032\010\365\014JE"
 478      6899C0CD 
 478      77A8B846 
 478      1A08F50C 
 478      4A45
 479 03fb 2CDE836D 		.ascii	",\336\203mq\325\242\012\366\236m\260\004\006\254v\373"
 479      71D5A20A 
 479      F69E6DB0 
 479      0406AC76 
 479      FB
 480 040c 2C4538B9 		.ascii	",E8\271\213,\263\202\027m&\234\024\254\333\016\302)"
 480      8B2CB382 
 480      176D269C 
 480      14ACDB0E 
 480      C229
 481 041e CAAD779B 		.ascii	"\312\255w\233u\005\201[\203\3654\350\225\273u\365f\036"
 481      7505815B 
 481      83F534E8 
 481      95BB75F5 
 481      661E
ARM GAS  /tmp/cc1JfMAm.s 			page 38


 482 0430 3B478325 		.ascii	";G\203%\325\256\3315\035\245o\321G\004\265\366\247\260"
 482      D5AED935 
 482      1DA56FD1 
 482      4704B5F6 
 482      A7B0
 483 0442 F64FB1F6 		.ascii	"\366O\261\366=\372\332\327\234\2721R1\355\036K\365/"
 483      3DFADAD7 
 483      9CBA3152 
 483      31ED1E4B 
 483      F52F
 484 0454 3F58175E 		.ascii	"?X\027^\277i\257P\247\255\005\267\3456\036@\013\216"
 484      BF69AF50 
 484      A7AD05B7 
 484      E5361E40 
 484      0B8E
 485 0466 73EA0780 		.ascii	"s\352\007\200\027c\351\252\224\216\023\312 p5NU\372"
 485      1763E9AA 
 485      948E13CA 
 485      2070354E 
 485      55FA
 486 0478 56391034 		.ascii	"V9\0204sw\035_3RjHRe\230j\033\221\365\242\225\007\321"
 486      73771D5F 
 486      33526A48 
 486      5265986A 
 486      1B91F5A2 
 487 048f 2565B019 		.ascii	"%e\260\031V\300L]\2502\270\232\006\233i\033\214\225"
 487      56C04C5D 
 487      A832B89A 
 487      069B691B 
 487      8C95
 488 04a1 6C2D0D36 		.ascii	"l-\0156\307\012X\274\271d\353h\260y\266\301X\3116\320"
 488      C70A58BC 
 488      B964EB68 
 488      B079B6C1 
 488      58C936D0 
 489 04b5 600BAD80 		.ascii	"`\013\255\200u2\227l\023\015\266\3046\030+\331~\032"
 489      7532976C 
 489      130DB6C4 
 489      36182BD9 
 489      7E1A
 490 04c7 EC032B60 		.ascii	"\354\003+`\011\006\222\205~f\343\374nmN\027\270\217"
 490      09069285 
 490      7E66E3FC 
 490      6E6D4E17 
 490      B88F
 491 04d9 9CEA7860 		.ascii	"\234\352x`\323\2479\015\343c\247\335\261\213i7\214\354"
 491      D3A7390D 
 491      E363A7DD 
 491      B18B6937 
 491      8CEC
 492 04eb DFCCE36B 		.ascii	"\337\314\343k\345~!\217\256\237XA\214\3400\357l\247"
 492      E57E218F 
 492      AE9F5841 
 492      8CE030EF 
 492      6CA7
 493 04fd 86EACDB6 		.ascii	"\206\352\315\266\301t\256L\300\230\221FYt4.\012v\232"
 493      C174AE4C 
ARM GAS  /tmp/cc1JfMAm.s 			page 39


 493      C0989146 
 493      5974342E 
 493      0A769A
 494 0510 A10D76D1 		.ascii	"\241\015v\321*\026Y\246\311#\033\254\210\205Pf\251S"
 494      2A1659A6 
 494      C9231BAC 
 494      88855066 
 494      A953
 495 0522 27E3BC22 		.ascii	"'\343\274\"\377-\377\013\240\337Q\21349\256\306\232"
 495      FF2DFF0B 
 495      A0DF518B 
 495      3439AEC6 
 495      9A
 496 0533 71C7B3C3 		.ascii	"q\307\263\303i\264\270F\200\310E\315<\341\022\355\011"
 496      69B4B846 
 496      80C845CD 
 496      3CE112ED 
 496      09
 497 0544 7BADA829 		.ascii	"{\255\250)BW8\275}\326cRc\220\247\332\033Q9\260\"\033"
 497      425738BD 
 497      7DD66352 
 497      6390A7DA 
 497      1B5139B0 
 498 055a BF475D27 		.ascii	"\277G]'^\303I\360\210\323pqg\001j\343\350\017\377\011"
 498      5EC349F0 
 498      88D37071 
 498      67016AE3 
 498      E80FFF09 
 499 056e C7F61B08 		.ascii	"\307\366\033\010t\252\325@\267\307\314\351\201@\267"
 499      74AAD540 
 499      B7C7CCE9 
 499      8140B7
 500 057d 11E89BB0 		.ascii	"\021\350\233\260I\202\327\255\022yv\035\027\322\275"
 500      4982D7AD 
 500      1279761D 
 500      17D2BD
 501 058c A2FA1F2B 		.ascii	"\242\372\037+\257\3005\351\355\3054\247\305\321\246"
 501      AFC035E9 
 501      EDC534A7 
 501      C5D1A6
 502 059b 71FDB1FB 		.ascii	"q\375\261\373S\370k\225\322\214$\033\332\331\265[\265"
 502      53F86B95 
 502      D28C241B 
 502      DAD9B55B 
 502      B5
 503 05ac D803D4CF 		.ascii	"\330\003\324\317\2550\375\334\260\251 \201\223\\v\033"
 503      AD30FDDC 
 503      B0A92081 
 503      935C761B 
 504 05bc D28D6DC8 		.ascii	"\322\215m\310\364-5\366\033\022r\275\221\002i\310X\327"
 504      F42D35F6 
 504      1B1272BD 
 504      910269C8 
 504      58D7
 505 05ce 0F6F48B5 		.ascii	"\017oH\265\355\206$Q\015!+\334\3535\3628\330\201\253"
 505      ED862451 
 505      0D212BDC 
ARM GAS  /tmp/cc1JfMAm.s 			page 40


 505      EB35F238 
 505      D881AB
 506 05e1 89BC9023 		.ascii	"\211\274\220#\362\214\025:0\313\250\340\361\235|\202"
 506      F28C153A 
 506      30CBA8E0 
 506      F19D7C82 
 507 05f1 CC6E6905 		.ascii	"\314ni\005%\005o\356\224\327\237\314\0262\362\376i\374"
 507      25056FEE 
 507      94D79FCC 
 507      1632F2FE 
 507      69FC
 508 0603 3E5565E3 		.ascii	">Ue\343Qe\323]\006\235\314\022\324\306m[\226+\273\272"
 508      5165D35D 
 508      069DCC12 
 508      D4C66D5B 
 508      962BBBBA 
 509 0617 490835BB 		.ascii	"I\0105\273\325P\267\267\257\221\373\353\024\004Z\024"
 509      D550B7B7 
 509      AF91FBEB 
 509      14045A14 
 510 0627 6646B7CE 		.ascii	"fF\267\316\212n\326\212pKj\272\205{\356\267\024\016"
 510      8A6ED68A 
 510      704B6ABA 
 510      857BEEB7 
 510      140E
 511 0639 B989E2FE 		.ascii	"\271\211\342\376\317\313\301l\214\342\023\013\266f\205"
 511      CFCBC16C 
 511      8CE2130B 
 511      B66685
 512 0648 493CE86C 		.ascii	"I<\350l\215:\223\312FZ\375\203\020+\203\037\217W7Q/"
 512      8D3A93CA 
 512      465AFD83 
 512      102B831F 
 512      8F573751 
 513 065d 92B9F4D3 		.ascii	"\222\271\364\323\037\010w`\027\345v\326\266\355\343"
 513      1F087760 
 513      17E576D6 
 513      B6EDE3
 514 066c 0FAB6EF7 		.ascii	"\017\253n\367\016\266h[\230\211\227\353{j\313{k\201"
 514      0EB6685B 
 514      988997EB 
 514      7B6ACB7B 
 514      6B81
 515 067e 3BD8DA96 		.ascii	";\330\332\226\204~\002w\\\337\341\255\256\321Ts\035"
 515      847E0277 
 515      5CDFE1AD 
 515      AED15473 
 515      1D
 516 068f BBA998AB 		.ascii	"\273\251\230\253\305\235\233\272\277>\264\255\202\037"
 516      C59D9BBA 
 516      BF3EB4AD 
 516      821F
 517 069d 85DAA817 		.ascii	"\205\332\250\027\310\376\372\244N\033\026\266\200\227"
 517      C8FEFAA4 
 517      4E1B16B6 
 517      8097
 518 06ab B0C80221 		.ascii	"\260\310\002!l\177\275G\335_\2234\013\233@f\177-\362"
ARM GAS  /tmp/cc1JfMAm.s 			page 41


 518      6C7FBD47 
 518      DD5F9334 
 518      0B9B4066 
 518      7F2DF2
 519 06be 9FF18282 		.ascii	"\237\361\202\202\333Z\2152F\324\004\024\371E\002Y\037"
 519      DB5A8D32 
 519      46D40414 
 519      F9450259 
 519      1F
 520 06cf BD2B3C49 		.ascii	"\275+<Ik\377\236m\355'\320\332\017\336\3355\213'\362"
 520      6BFF9E6D 
 520      ED27D0DA 
 520      0FDEDD35 
 520      8B27F2
 521 06e2 1BEC5B7B 		.ascii	"\033\354[{\322\253\326\320\321\306\336)\212\352\337"
 521      D2ABD6D0 
 521      D1C6DE29 
 521      8AEADF
 522 06f1 43D58F76 		.ascii	"C\325\217v\033\253\276\247\031\220\300M\303\"\037\204"
 522      1BABBEA7 
 522      1990C04D 
 522      C3221F84 
 523 0701 A9FED861 		.ascii	"\251\376\330aU\365\037XR\375\021C\325\177`_\365\012"
 523      55F51F58 
 523      52FD1143 
 523      D57F605F 
 523      F50A
 524 0713 DE51ED68 		.ascii	"\336Q\355hC\344\267\330\006K\210d\307\017(;.E;~\004"
 524      43E4B7D8 
 524      064B8864 
 524      C70F283B 
 524      2E453B7E 
 525 0728 7614F965 		.ascii	"v\024\371e\2545\027\273u\326dT\247D\273\2315A\012\326"
 525      AC3517BB 
 525      75D66454 
 525      A744BB99 
 525      35410AD6 
 526 073c EE550F54 		.ascii	"\356U\017T\344\201o\205\036\317\250\025I\346*\231\263"
 526      E4816F85 
 526      1ECFA815 
 526      49E62A99 
 526      B3
 527 074d 1755228F 		.ascii	"\027U\"\2179km\203%0`\033'\315\266t^\"\361\364~D\340"
 527      396B6D83 
 527      2530601B 
 527      27CDB674 
 527      5E22F1F4 
 528 0764 FE82F5AE 		.ascii	"\376\202\365\256\325\373\313\3077\366\217Q\374e\255"
 528      D5FBCBC7 
 528      37F68F51 
 528      FC65AD
 529 0773 057F81D9 		.ascii	"\005\177\201\331\376l\214T\023\247:\356\375\020j\004"
 529      FE6C8C54 
 529      13A73AEE 
 529      FD106A04 
 530 0783 5547F096 		.ascii	"UG\360\226\273\027v\360\010'\357\257\252\242tp-n\377"
 530      BB1776F0 
ARM GAS  /tmp/cc1JfMAm.s 			page 42


 530      0827EFAF 
 530      AAA27470 
 530      2D6EFF
 531 0796 58B807BE 		.ascii	"X\270\007\276\206${\212\221{d\360\304'd\275\263\031"
 531      86247B8A 
 531      917B64F0 
 531      C42764BD 
 531      B319
 532 07a8 DB34314A 		.ascii	"\33341J?+\310\232\241\034q-\345\210\353\320\021\327"
 532      3F2BC89A 
 532      A11C712D 
 532      E588EBD0 
 532      11D7
 533 07ba A3236E44 		.ascii	"\243#nD\372)\355\216fK\256\240@m\230\246\332nw\202\316"
 533      FA29ED8E 
 533      664BAEA0 
 533      406D98A6 
 533      DA6E7782 
 534 07cf 3A       		.ascii	":"
 535 07d0 66D5ACA1 		.ascii	"f\325\254\241\253\231\025e\301\367z\230\252\027\306"
 535      AB991565 
 535      C1F77A98 
 535      AA17C6
 536 07df F523B5EA 		.ascii	"\365#\265\352\232@>k|\3276\"\353\315W&1k\202\345V\340"
 536      9A403E6B 
 536      7CD73622 
 536      EBCD5726 
 536      316B82E5 
 537 07f5 7A1A0868 		.ascii	"z\032\010h\364\243\017~A\337\270/\336\314\023\003\375"
 537      F4A30F7E 
 537      41DFB82F 
 537      DECC1303 
 537      FD
 538 0806 05E956A4 		.ascii	"\005\351V\244\333\221\236Cz\001\351E\244W\221\336GZ"
 538      DB919E43 
 538      7A01E945 
 538      A45791DE 
 538      475A
 539 0818 89661D83 		.ascii	"\211f\035\203t.\322%HW ]\211t5\322mH\033\2548\300:\366"
 539      742ED225 
 539      4857205D 
 539      897435D2 
 539      6D481BAC 
 540 0830 8CBC2B37 		.ascii	"\214\274+7G\012^i\274v\267\241\363\354\025\2224Nz\320"
 540      470A5E69 
 540      BC76B7A1 
 540      F3EC1592 
 540      344E7AD0 
 541 0844 FC162F1F 		.ascii	"\374\026/\037\301\013\334\005\235K>\305-\220\244\032"
 541      C10BDC05 
 541      9D4B3EC5 
 541      2D90A41A 
 542 0854 698AAFAF 		.ascii	"i\212\257\257\242\270\033\230a\247\320\325\260:\365"
 542      A2B81B98 
 542      61A7D0D5 
 542      B03AF5
 543 0863 3CF297DC 		.ascii	"<\362\227\334\"\322\033\326K\231\235\360\204\223S\312"
ARM GAS  /tmp/cc1JfMAm.s 			page 43


 543      22D21BD6 
 543      4B999DF0 
 543      849353CA 
 544 0873 304ADB25 		.ascii	"0J\333%0\317\370Q\256\246\3065snn\305\003G\251\011V"
 544      30CFF851 
 544      AEA6C635 
 544      736E6EC5 
 544      0347A909 
 545 0888 3D52B4F5 		.ascii	"=R\264\365\207\010\373\205\216JL}p\000{=]{B\242IK$G"
 545      8708FB85 
 545      8E4A4C7D 
 545      70007B3D 
 545      5D7B42A2 
 546 08a0 48B47D7A 		.ascii	"H\264}z\321\016\030\212V7\377B\311\333Rp\224\324\334"
 546      D10E188A 
 546      5637FF42 
 546      C9DB5270 
 546      94D4DC
 547 08b3 FC56825C 		.ascii	"\374V\202\\\237\300\255\212\266R\303!}\015\207\015j"
 547      9FC0AD8A 
 547      B652C321 
 547      7D0D870D 
 547      6A
 548 08c4 682446F9 		.ascii	"h$F\371\315;+\352\025\2430M\267\263\372\014mx?\307\231"
 548      CD3B2BEA 
 548      15A3304D 
 548      B7B3FA0C 
 548      6D783FC7 
 549 08d9 6073B47E 		.ascii	"`s\264~\234i\305\352\323L\353\307\014\264\276\323X'"
 549      9C69C5EA 
 549      D34CEBC7 
 549      0CB4BED3 
 549      5827
 550 08eb 354AFB96 		.ascii	"5J\373\226H1\262h\244\324Q\023WR@O\030\351)xr\362\256"
 550      4831B268 
 550      A4D45113 
 550      5752404F 
 550      18E92978 
 551 0902 0A18CEA5 		.ascii	"\012\030\316\245{\315\315\016\316\272\207\2342\220\365"
 551      7BCDCD0E 
 551      CEBA879C 
 551      3290F5
 552 0911 BCB1ACD5 		.ascii	"\274\261\254\325\254\375N\352\355w:\\\256\372\306\340"
 552      ACFD4EEA 
 552      ED773A5C 
 552      AEFAC6E0 
 553 0921 8CED71D5 		.ascii	"\214\355q\325\025\215\315\315]U\357\030\031c\305;\316"
 553      158DCDCD 
 553      5D55EF18 
 553      1963C53B 
 553      CE
 554 0932 E8D1FF1A 		.ascii	"\350\321\377\032\216\336x%8k\227\202n\275\305g\005\335"
 554      8EDE7825 
 554      386B9782 
 554      6EBDC567 
 554      05DD
 555 0944 83B54BBC 		.ascii	"\203\265K\274\356\311\032LC1\206}\376v^_9;\354\2321"
ARM GAS  /tmp/cc1JfMAm.s 			page 44


 555      EEC91A4C 
 555      4331867D 
 555      FE765E5F 
 555      393BEC9A 
 556 0959 C7D7A69D 		.ascii	"\307\327\246\235^9\223S\2326Q\252\212\347Cm\373Z\337"
 556      5E399353 
 556      9A3651AA 
 556      8AE7436D 
 556      FB5ADF
 557 096c B673869A 		.ascii	"\266s\206\232\253\331\253\323\334\034K\232\273\250G"
 557      ABD9ABD3 
 557      DC1C4B9A 
 557      BBA847
 558 097b BF64885E 		.ascii	"\277d\210^;y\"\214\376\225\301\346\346OaV\326\251\217"
 558      3B79228C 
 558      FE95C1E6 
 558      E64F6156 
 558      D6A98F
 559 098e 78A299FE 		.ascii	"x\242\231\376\2763\360\230\345\306\222UJ\254c\177\033"
 559      BE33F098 
 559      E5C69255 
 559      4AAC637F 
 559      1B
 560 099f D9B19B0C 		.ascii	"\331\261\233\014\005\005\307V\374zd\264\015\307\276"
 560      0505C756 
 560      FC7A64B4 
 560      0DC7BE
 561 09ae A6373311 		.ascii	"\24673\021Bg\346\006c3O'C\273<N|\2119\256\232\232Yn"
 561      4267E606 
 561      63334F27 
 561      43BB3C4E 
 561      7C8939AE 
 562 09c6 99B199AF 		.ascii	"\231\261\231\257\352\015q=\274}MM\301/\016\312f\236"
 562      EA0D713D 
 562      BC7D4D4D 
 562      C12F0ECA 
 562      669E
 563 09d8 DB93695C 		.ascii	"\333\223i\\47\006\017\301\252\244\012\376O\021\016\301"
 563      3437060F 
 563      C1AAA40A 
 563      FE4F110E 
 563      C1
 564 09e9 F0705AE4 		.ascii	"\360pZ\344\357\012\321 nc\214\351\3212\311@~\244\274"
 564      EF0AD120 
 564      6E638CE9 
 564      D132C940 
 564      7EA4BC
 565 09fc 1C576311 		.ascii	"\034Wc\021N\226\357\260J\2643\340nW\007\334fT\34471"
 565      4E96EFB0 
 565      4AB433E0 
 565      6E5707DC 
 565      6654E437 
 566 0a11 7F870137 		.ascii	"\177\207\0017d\313fY\355\372{\235y\27754/\214\270\347"
 566      64CB6659 
 566      EDFA7B9D 
 566      79BF3534 
 566      2F8CB8E7 
ARM GAS  /tmp/cc1JfMAm.s 			page 45


 567 0a25 7FB71BA6 		.ascii	"\177\267\033\246\371\030U\266QmH\276\333\246FFt\305"
 567      F91855B6 
 567      516D48BE 
 567      DBA64646 
 567      74C5
 568 0a37 370E11DF 		.ascii	"7\016\021\337\220\213\215\265Ql\012\354\314B\272\230"
 568      908B8DB5 
 568      516C0AEC 
 568      CC42BA98 
 569 0a47 64A560A8 		.ascii	"d\245`\250\013]\256B\247\222m\306\024c\234AQ\342(\207"
 569      0B5DAE42 
 569      A7926DC6 
 569      14639C41 
 569      51E22887 
 570 0a5b 511F9A75 		.ascii	"Q\037\232u\310\36609\321\241\353?\315\341\375\247\246"
 570      C8F63039 
 570      D1A1EB3F 
 570      CDE1FDA7 
 570      A6
 571 0a6c 8DF9D248 		.ascii	"\215\371\322Hn\352B\3141\301a\245\251\372\376CJ1\016"
 571      6EEA42CC 
 571      31C161A5 
 571      A9FAFE43 
 571      4A310E
 572 0a7f 3239BC6D 		.ascii	"29\274m\215\325\215k>\276\360\304\214\025\322(\203\005"
 572      8DD58D6B 
 572      3EBEF0C4 
 572      8C15D228 
 572      8305
 573 0a91 42C406D6 		.ascii	"B\304\006\3269\214|[\032-u[\242\371v\274ZJ\340\250\023"
 573      398C7C5B 
 573      1A2D755B 
 573      A2F976BC 
 573      5A4AE0A8 
 574 0aa6 8435BFC2 		.ascii	"\2045\277\302\263\312i\016\302?\251S\202e\240\372\215"
 574      B3CA690E 
 574      C23FA953 
 574      8265A0FA 
 574      8D
 575 0ab7 A33B92F7 		.ascii	"\243;\222\367\232\336F\230s\255\205i\274=f\261\374F"
 575      9ADE4698 
 575      73AD8569 
 575      BC3D66B1 
 575      FC46
 576 0ac9 CC2C046A 		.ascii	"\314,\004jj\243\357i\016]Gs\260\035\315\021\243E\310"
 576      6AA3EF69 
 576      0E5D4773 
 576      B01DCD11 
 576      A345C8
 577 0adc E2E147CC 		.ascii	"\342\341G\314\254\363\237\273m\364\323\206\0143\327"
 577      ACF39FBB 
 577      6DF4D386 
 577      0C33D7
 578 0aeb C4D06728 		.ascii	"\304\320g(C\253\223\342\350Xc\214y\206\030\353\216\355"
 578      43AB93E2 
 578      E858638C 
 578      798618EB 
ARM GAS  /tmp/cc1JfMAm.s 			page 46


 578      8EED
 579 0afd 75BF2D7D 		.ascii	"u\277-}\206\353UN\205\2501\201X`\0101}\375\346\337\316"
 579      86EB554E 
 579      85A83181 
 579      58600831 
 579      7DFDE6DF 
 580 0b12 36F337B2 		.ascii	"6\3637\262\2610s\270E\372\036\005\033\003\333\003\353"
 580      B13073B8 
 580      45FA1E05 
 580      1B03DB03 
 580      EB
 581 0b23 CD4D67FE 		.ascii	"\315Mg\376\371#I\212\207m\020Z{R\234\336\332.\235\265"
 581      F923498A 
 581      876D105A 
 581      7B529CDE 
 581      DA2E9DB5 
 582 0b37 5DAC4D5C 		.ascii	"]\254M\\1ZD{\241)$\323R\236\036Y#\275\2734>\302\032"
 582      315A447B 
 582      A12924D3 
 582      529E1E59 
 582      23BDBB34 
 583 0b4e 61A94153 		.ascii	"a\251AS[|yIi!\350\367'\357a\013?t\340\313\025\272\026"
 583      5B7C7949 
 583      6921E8F7 
 583      27EF610B 
 583      3F74E0CB 
 584 0b65 EA5E1621 		.ascii	"\352^\026!U\231\211\261\302\021k`X\2634ZX.\314Wg\307"
 584      559989B1 
 584      C2116B60 
 584      58B3345A 
 584      582ECC57 
 585 0b7b 193BC94A 		.ascii	"\031;\311J#'\011\256\232<\271\2634\217\254\256^\324"
 585      232709AE 
 585      9A3CB9B3 
 585      348FACAE 
 585      5ED4
 586 0b8d AF5922B9 		.ascii	"\257Y\"\271\310j\275\336Hf\275mt\202}d\"\330'\206\336"
 586      C86ABDDE 
 586      4866BD6D 
 586      74827D64 
 586      22D82786 
 587 0ba2 7BFBAB2B 		.ascii	"{\373\253+]\302;\321\025\023\214\365\206\030\267\316"
 587      5DC23BD1 
 587      15138CF5 
 587      8618B7CE 
 588 0bb2 1DE812D6 		.ascii	"\035\350\022\326\211V\2665\206\330h\010\361\340\342"
 588      8956B635 
 588      86D86808 
 588      F1E0E2
 589 0bc1 9927C220 		.ascii	"\231'\302 \256\232@|j\010Q7\377@b\030\304]\023\210\315"
 589      AE9A407C 
 589      6A085137 
 589      FF406218 
 589      C45D1388 
 590 0bd6 C6A3C1F4 		.ascii	"\306\243\301\364\335\341\243\301\250v\306\020\177a!"
 590      DDE1A3C1 
 590      A876C610 
ARM GAS  /tmp/cc1JfMAm.s 			page 47


 590      7F6121
 591 0be5 7EC6CD93 		.ascii	"~\306\315\223\202\373\033\257\336\275\345\256\220\202"
 591      82FB1BAF 
 591      DEBDE5AE 
 591      9082
 592 0bf3 3324096C 		.ascii	"3$\011l\315w\225_\352\024\270\272\020\210bj\203\327"
 592      CD77955F 
 592      EA14B8BA 
 592      1088626A 
 592      83D7
 593 0c05 3FB76A80 		.ascii	"?\267j\2002Xp\346\366\251<\254\311\253\3016\315\274"
 593      325870E6 
 593      F6A93CAC 
 593      C9ABC136 
 593      CDBC
 594 0c17 FAEADD42 		.ascii	"\372\352\335B\204:\243M\373\354\213v\350\002\355x\032"
 594      843AA34D 
 594      FBEC8B76 
 594      E802ED78 
 594      1A
 595 0c28 095AB6FE 		.ascii	"\011Z\266\376X\363V\276F\252oP\3442:\213s\320'\236\241"
 595      58F356BE 
 595      46AA6F50 
 595      E4323A8B 
 595      73D0279E 
 596 0c3d B9ED5BF5 		.ascii	"\271\355[\365\305\277\235\016R\373\247:m\264\010$p\273"
 596      C5BF9D0E 
 596      52FBA73A 
 596      6DB40824 
 596      70BB
 597 0c4f B0C81E47 		.ascii	"\260\310\036G\330\203\211\255U\352\333a\016+\247\235"
 597      D88389AD 
 597      55EADB61 
 597      0E2BA79D 
 598 0c5f B38F9A1E 		.ascii	"\263\217\232\036\3547\206\316\021\273P\262\037:rF\221"
 598      EC3786CE 
 598      11BB50B2 
 598      1F3A7246 
 598      91
 599 0c70 FD00CA7E 		.ascii	"\375\000\312~\244e\331Y \201\373+\0269\034.\373\341"
 599      A465D959 
 599      2081FB2B 
 599      16391C2E 
 599      FBE1
 600 0c82 518AEC87 		.ascii	"Q\212\354\207-\311~\350\240,\273zV\333\024\302m\335"
 600      2DC97EE8 
 600      A02CBB7A 
 600      56DB14C2 
 600      6DDD
 601 0c94 59ED61F9 		.ascii	"Y\355a\371\235\"\371\340\357\226\036\314\326I\255\024"
 601      9D22F9E0 
 601      EF961ECC 
 601      D649AD14 
 602 0ca4 FC5C066B 		.ascii	"\374\\\006k@\367j\266\015\226\300Hv\272\206}=\263\252"
 602      40F76AB6 
 602      0D96C048 
 602      76BA867D 
ARM GAS  /tmp/cc1JfMAm.s 			page 48


 602      3DB3AA
 603 0cb7 BD05BC08 		.ascii	"\275\005\274\010\357\3744\035\244\336\371\231h\033\214"
 603      EFFC341D 
 603      A4DEF999 
 603      681B8C
 604 0cc6 15EE060D 		.ascii	"\025\356\006\0156\325\012\230\321\2331F?\332ID\376\250"
 604      36D50A98 
 604      D19B3146 
 604      3FDA4944 
 604      FEA8
 605 0cd8 831C701E 		.ascii	"\203\034p\036s\220\003\310\343HO =\211\3644\3223\016"
 605      739003C8 
 605      E3484F20 
 605      3D89F434 
 605      D2330E
 606 0ceb E641C9DC 		.ascii	"\346A\311\334\366j/1t\305\226\\B\012\2562\357\036\257"
 606      F66A2F31 
 606      74C5965C 
 606      420AAE32 
 606      EF1EAF
 607 0cfe A9C5E3A8 		.ascii	"\251\305\343\250\336Q{\266\202\257B\027>\213\275cQ\373"
 607      DE517BB6 
 607      82AF4217 
 607      3E8BBD63 
 607      51FB
 608 0d10 167B0783 		.ascii	"\026{\007\203#p\353\261\304\371\260\316q\354\276\372"
 608      2370EBB1 
 608      C4F9B0CE 
 608      71ECBEFA 
 609 0d20 DAE7790B 		.ascii	"\332\347y\013\235\2432x{\262\265\307(\365!\215<B\265"
 609      9DA33278 
 609      7BB2B5C7 
 609      28F5218D 
 609      3C42B5
 610 0d33 E3D029F5 		.ascii	"\343\320)\365\371\335el\307\301\226\333\301\002A/\307"
 610      F9DD656C 
 610      C7C196DB 
 610      C102412F 
 610      C7
 611 0d44 224DE10D 		.ascii	"\"M\341\015\271\2546\244\311RC>\231\254\372\376%\\\252"
 611      B9AC36A4 
 611      C952433E 
 611      99ACFAFE 
 611      255CAA
 612 0d57 5C0BE146 		.ascii	"\\\013\341F\3600S\223V\006\327\355Cw\225\301\356\332"
 612      F0305393 
 612      5606D7ED 
 612      437795C1 
 612      EEDA
 613 0d69 06637D7F 		.ascii	"\006c}\177\343\276Y\235\244\372\315\274\272O\031\031"
 613      E3BE599D 
 613      A4FACDBC 
 613      BA4F1919 
 614 0d79 AFC363F6 		.ascii	"\257\303c\366\022-\215\032\225\301M\373\364\357\317"
 614      122D8D1A 
 614      95C14DFB 
 614      F4EFCF
ARM GAS  /tmp/cc1JfMAm.s 			page 49


 615 0d88 C927E411 		.ascii	"\311'\344\021\226r\265\265_V(/\210\334\3016M\210\327"
 615      9672B5B5 
 615      5F56282F 
 615      88DCC136 
 615      4D88D7
 616 0d9b AF56D7F0 		.ascii	"\257V\327\360\272\267uu\257\257C\267\325\313mo\200\002"
 616      BAB77575 
 616      AFAF43B7 
 616      D5CB6D6F 
 616      8002
 617 0dad AB7EBF40 		.ascii	"\253~\277@}p\202\347\365\263\255\000\032\215PF?\332"
 617      7D7082E7 
 617      F5B3AD00 
 617      1A8D5046 
 617      3FDA
 618 0dbf 8D44FE2A 		.ascii	"\215D\376*\216\003\327\260\277_Gz\023\351m\244\017\350"
 618      8E03D7B0 
 618      BF5F477A 
 618      13E96DA4 
 618      0FE8
 619 0dd1 11C06C09 		.ascii	"\021\300l\011H\214\037\302\376\336!(=\256u\016uOs(\221"
 619      488C1FC2 
 619      FEDE2128 
 619      3DAE750E 
 619      754F7328 
 620 0de6 BF611B8C 		.ascii	"\277a\033\214u\250)\007i\207\022\371[z<\233\016\265"
 620      75A82907 
 620      698712F9 
 620      5B7A3C9B 
 620      0EB5
 621 0df8 AC266EFF 		.ascii	"\254&n\377k\252w.\214\347m\202\305G2\312y\312(\177C"
 621      6BAA772E 
 621      8CE76D82 
 621      C54732CA 
 621      79CA287F 
 622 0e0d A35C4413 		.ascii	"\243\\D\023HNB+\220V:\231\001yY\274n@fF?\243\351\201"
 622      484E422B 
 622      90563A99 
 622      017959BC 
 622      6E406646 
 623 0e25 568F14DC 		.ascii	"V\217\024\334p\324\312\253\373\241Q\354\234\372\002"
 623      70D4CAAB 
 623      FBA151EC 
 623      9CFA02
 624 0e34 C8682719 		.ascii	"\310h'\031\305\326\304\033\216b\221^\000\331\206E\306"
 624      C5D6C41B 
 624      8E62915E 
 624      00D98645 
 624      C6
 625 0e45 39C3D62A 		.ascii	"9\303\326*g\325\265\012Ika\024\03352\270\252\366]m8"
 625      67D5B50A 
 625      496B6114 
 625      1B3532B8 
 625      AAF65D6D 
 626 0e5a 1E19EADB 		.ascii	"\036\031\352\333\227y\363\375\035\363\306\351\321\220"
 626      9779F3FD 
 626      1DF3C6E9 
ARM GAS  /tmp/cc1JfMAm.s 			page 50


 626      D190
 627 0e68 1C369DD4 		.ascii	"\0346\235\324\330tZ\203`\217\351$\246\233\300\032\252"
 627      D8745A83 
 627      608FE924 
 627      A69BC01A 
 627      AA
 628 0e79 516F28A3 		.ascii	"Qo(\243\372\"\274bp\354\250\374\212\201U[5_\274\362"
 628      FA22BC62 
 628      70ECA8FC 
 628      8A81555B 
 628      355FBCF2 
 629 0e8d BCFC6E1A 		.ascii	"\274\374n\032Z\352k\273\226\302\303&\235\225\202\327"
 629      5AEA6BBB 
 629      96C2C326 
 629      9D9582D7 
 630 0e9d 7C0932B7 		.ascii	"|\0112\267\345Y\346\356Y\3459\275|\244v\035\353\257"
 630      E559E6EE 
 630      59E539BD 
 630      7CA4761D 
 630      EBAF
 631 0eaf FB7BA9BB 		.ascii	"\373{\251\273\216R\367TT\3674V\335\367l\253;!R}{\250"
 631      8E52F754 
 631      54F73456 
 631      DDF76CAB 
 631      3B21527D 
 632 0ec5 9EB90F7B 		.ascii	"\236\271\017{\346~\354\231_#\255\302\236Y\315J\320\034"
 632      E67EEC99 
 632      5F23ADC2 
 632      9E59CD4A 
 632      D01C
 633 0ed7 D2B8E18E 		.ascii	"\322\270\341\216\203\240\276\355d\366RM\325\215S\337"
 633      83A0BEED 
 633      64F6524D 
 633      D58D53DF 
 634 0ee7 3FD86D63 		.ascii	"?\330mc\2454\252\212\274\245\3077;T3A\307\240\316\323"
 634      A534AA8A 
 634      BCA5C737 
 634      3B543341 
 634      C7A0CED3 
 635 0efb 96855606 		.ascii	"\226\205V\006\035C\006\017\256\332\306'\250\253\010"
 635      1D43060F 
 635      AEDAC627 
 635      A8AB08
 636 0f0a D3BC223F 		.ascii	"\323\274\"?\013\264\325b6\222q\216\336\370'\210\361"
 636      0BB4D562 
 636      3692718E 
 636      DEF82788 
 636      F1
 637 0f1b E75830BE 		.ascii	"\347X0\276\024<y=Z\032\035\247|\341Y\337sF;\371up3?"
 637      143C793D 
 637      5A1A1DA7 
 637      7CE159DF 
 637      73463BF9 
 638 0f33 9BE7B4FB 		.ascii	"\233\347\264\373I\341|\247\361'\205\352\021\003,\373"
 638      49E17CA7 
 638      F12785EA 
 638      11032CFB 
ARM GAS  /tmp/cc1JfMAm.s 			page 51


 639 0f43 1EE29546 		.ascii	"\036\342\225F\264n\022:\365\307\031I\352\033\335;\364"
 639      B46E123A 
 639      F5C71949 
 639      EA1BDD3B 
 639      F4
 640 0f54 5846EFD6 		.ascii	"XF\357\3262X\011\014V\023\205u\3006\026\363\302q\360"
 640      3258090C 
 640      56138575 
 640      C03616F3 
 640      C271F0
 641 0f67 AAB82449 		.ascii	"\252\270$I=}=\256\3072\232~\030\254$\006\353{J\256\257"
 641      3D7D3DAE 
 641      C7329A7E 
 641      18AC2406 
 641      EB7B4AAE 
 642 0f7c ADC81561 		.ascii	"\255\310\025a^\274Aa}g\033+\232\301\272Ea\335\265\215"
 642      5EBC4161 
 642      7D671B2B 
 642      9AC1BA45 
 642      61DDB58D 
 643 0f90 15CF60DD 		.ascii	"\025\317`\335\241\260\306=l\027\253\023\203u\217\302"
 643      A1B0C63D 
 643      6C17AB13 
 643      83758FC2 
 644 0fa0 9A6A1B8B 		.ascii	"\232j\033\213\365\211\007\024V\275m,\326'\252\267\305"
 644      F5890714 
 644      56BD6D2C 
 644      D627AAB7 
 644      C5
 645 0fb1 2E7B4D05 		.ascii	".{M\005\373\3206\030\353\02454\330:\333`=\030\260:\032"
 645      FBD03618 
 645      EB143534 
 645      D83ADB60 
 645      3D18B03A 
 646 0fc6 6C9B15B0 		.ascii	"l\233\025\260\010\233\354\0314\330Q\333`\254\217\275"
 646      089BEC19 
 646      34D851DB 
 646      60AC8FBD 
 647 0fd6 43837D65 		.ascii	"C\203}e\033\214u\262Y4X\223m0\326\313\346\320`\367l"
 647      1B8C75B2 
 647      59345893 
 647      6D30D6CB 
 647      E6D060F7 
 648 0feb 83B16EB6 		.ascii	"\203\261n\266\202\006\033\337\301.X7\216\375\251s\340"
 648      82061BDF 
 648      C12E5837 
 648      8EFDA973 
 648      E0
 649 0ffc 5C9C73EB 		.ascii	"\\\234s\353"
 650 1000 71DE5B88 		.ascii	"q\336[\210\364]\244K\220\276\217\364\003\244K\221.C"
 650      F45DA44B 
 650      90BE8FF4 
 650      03A44B91 
 650      2E43
 651 1012 BA02E94A 		.ascii	"\272\002\351J\244\253\221\256E\272\016\351\006\244\233"
 651      A4AB91AE 
 651      45BA0EE9 
ARM GAS  /tmp/cc1JfMAm.s 			page 52


 651      06A49B
 652 1021 9006917E 		.ascii	"\220\006\221~\206t\013;\257N\357\240\337\215\311s\022"
 652      86740B3B 
 652      AF4EEFA0 
 652      DF8DC973 
 652      12
 653 1032 25A33675 		.ascii	"%\2436uq\377_R\316\013Ii:\301n\327f\177\234\370FF|\222"
 653      71FF5F52 
 653      CE0B4969 
 653      3AC16ED7 
 653      667F9CF8 
 654 104a 0272E1FB 		.ascii	"\002r\341\373h-?o6:0\014\031zB\350\021|u\343\252\365"
 654      682D3F6F 
 654      363A300C 
 654      197A42E8 
 654      117C75E3 
 655 1060 775E954F 		.ascii	"w^\225O\036w\340\032\361\274N\263-\003\021\261v\353"
 655      1E77E01A 
 655      F1BC4EB3 
 655      2D0311B1 
 655      76EB
 656 1072 D709CB8F 		.ascii	"\327\011\313\217\306\221\007\204\273[^)\324\3012\376"
 656      C6910784 
 656      BB5B5E29 
 656      D4C132FE 
 657 1082 689DF64E 		.ascii	"h\235\366N>\321@\360\357\240\001\201\273\202M\331\335"
 657      3ED140F0 
 657      EFA00181 
 657      BB824DD9 
 657      DD
 658 1093 BAD91F76 		.ascii	"\272\331\037v\027\253\217\312\207\215N\322mn\332\006"
 658      17AB8FCA 
 658      878D4ED2 
 658      6D6EDA06 
 659 10a3 4B60C0D6 		.ascii	"K`\300\326\322`\367\254\200\231\315\263\000\266\216"
 659      D260F7AC 
 659      8099CDB3 
 659      00B68E
 660 10b2 06AB78C4 		.ascii	"\006\253x\304.\030+\331\006\032l\214\0250\263\341\031"
 660      2E182BD9 
 660      061A6C8C 
 660      1530B3E1 
 660      19
 661 10c3 C036D160 		.ascii	"\3006\321`\343m\203\321\222U\004\367\017\\\366\232\372"
 661      E36D83D1 
 661      925504F7 
 661      0F5CF69A 
 661      FA
 662 10d4 1F4266B4 		.ascii	"\037Bf\264S\274#\322\267U\"\177\023\275\243\205\017"
 662      53BC23D2 
 662      B755227F 
 662      13BDA385 
 662      0F
 663 10e5 A594A2CC 		.ascii	"\245\224\242\314.\231\343\264\232\344\241\3228\227\310"
 663      2E99E3B4 
 663      9AE4A1D2 
 663      3897C8
ARM GAS  /tmp/cc1JfMAm.s 			page 53


 664 10f4 9FB2BD50 		.ascii	"\237\262\275P=m\262P\245\317\217\264\\\240\270\311z"
 664      3D6DB250 
 664      A5CF8FB4 
 664      5CA0B8C9 
 664      7A
 665 1105 C5B5B8A1 		.ascii	"\305\265\270\241g\255p\220\266B\255\025+$\230\373\307"
 665      67AD7090 
 665      B642AD15 
 665      2B2498FB 
 665      C7
 666 1116 611AEC6D 		.ascii	"a\032\354m+`f;X\000;J\203\315\261\015\306J\3669\015"
 666      2B60663B 
 666      58003B4A 
 666      83CDB10D 
 666      C64AF639 
 667 112b B6C00A98 		.ascii	"\266\300\012\230\331\353\366\000\366\005\015\266\304"
 667      D9EBF600 
 667      F6050DB6 
 667      C4
 668 1138 36182BD9 		.ascii	"6\030+\331\2274\330R+`f\357O\003\330)\032\354c\333`"
 668      9734D852 
 668      2B6066EF 
 668      4F03D829 
 668      1AEC63DB 
 669 114d 94647515 		.ascii	"\224du\025\301\246\201\325bhOF\374v\2373\344\270=\331"
 669      C1A681D5 
 669      62684F46 
 669      FC769F33 
 669      E4B83DD9 
 670 1161 D182C9B6 		.ascii	"\321\202\311\266\2347\313&\362Wl\367\210\253&=\202~"
 670      9C37CB26 
 670      F2576CF7 
 670      88AB263D 
 670      827E
 671 1173 074CCB05 		.ascii	"\007L\313\005\315^\253o6#\204\022\355i\242C\230b\256"
 671      CD5EAB6F 
 671      36238412 
 671      ED69A243 
 671      9862AE
 672 1186 CA3ADC87 		.ascii	"\312:\334\207:\334`E\207}\315\301\276\247\301\202\266"
 672      3ADC6045 
 672      877DCDC1 
 672      BEA7C182 
 672      B6
 673 1197 C15883DC 		.ascii	"\301X\203\334\320\014\222\240\263\007\373\315\2016B"
 673      D00C92A0 
 673      B307FBCD 
 673      813642
 674 11a6 E9ECA1CF 		.ascii	"\351\354\241\317&\362w\024\203h{d\375\255\300m\321\313"
 674      26F27714 
 674      83687B64 
 674      FDADC06D 
 674      D1CB
 675 11b8 CDC228D1 		.ascii	"\315\302(\321L3-T\004o\231\013\316>\2650\025\\\237M"
 675      4C332D54 
 675      046F990B 
 675      CE3EB530 
ARM GAS  /tmp/cc1JfMAm.s 			page 54


 675      155C9F4D 
 676 11cc E41FD8F6 		.ascii	"\344\037\330\366\244f\023O\012\275\234\311\344\"\373"
 676      A466134F 
 676      0ABD9CC9 
 676      E422FB
 677 11db 787DBB59 		.ascii	"x}\273Y)\224\350k&\355\206\245\315\235\201\304\370D"
 677      2994E86B 
 677      26ED86A5 
 677      CD9D81C4 
 677      F844
 678 11ed 5281DB6B 		.ascii	"R\201\333k\011\254\324\304\372\320\267\357\321}\373"
 678      09ACD4C4 
 678      FAD0B7EF 
 678      D17DFB
 679 11fc 732BAE34 		.ascii	"s+\2564\2267\020\315\350G\257\312D~\017.\326\367\342"
 679      963710CD 
 679      E847AFCA 
 679      447E0F2E 
 679      D6F7E2
 680 120f 32F500D2 		.ascii	"2\365\000\322CH\217 =\206\3648\322\023H\317 \375\012"
 680      43488F20 
 680      3D86F438 
 680      D21348CF 
 680      20FD0A
 681 1222 E959A4E7 		.ascii	"\351Y\244\347\220^@z\021\351e\244\337!\375\036\351\015"
 681      905E407A 
 681      11E965A4 
 681      DF21FD1E 
 681      E90D
 682 1234 A4B790DE 		.ascii	"\244\267\220\336\223\017\254]\204\216tQ\013c\335\223"
 682      930FAC5D 
 682      848E7451 
 682      0B63DD93 
 683 1244 981D26ED 		.ascii	"\230\035&\355%-\250r\205\346H\253\337\344\034Y\334\231"
 683      252DA872 
 683      85E648AB 
 683      DFE41C59 
 683      DC99
 684 1256 AC3C47BB 		.ascii	"\254<G\273\310j\366\324#-\256f\303{\3178\227n1\373\311"
 684      C86AF6D4 
 684      232DAE66 
 684      C37BCF38 
 684      976E31FB 
 685 126b E21DF2FF 		.ascii	"\342\035\362\377m!)-\237Jo\\\274C _\0268T\273^F)H\341"
 685      6D21292D 
 685      9F4A6F5C 
 685      BC43205F 
 685      163854BB 
 686 1284 D62D4437 		.ascii	"\326-D7-V\216Qe\270k\266\341X\237\333\317\302\335\266"
 686      2D568E51 
 686      65B86BB6 
 686      E1589FDB 
 686      CFC2DDB6 
 687 1298 02176131 		.ascii	"\002\027a1z\220\205k\266\015\227\020\311\2075c\210\374"
 687      7A90856B 
 687      B60D9710 
 687      C9873563 
ARM GAS  /tmp/cc1JfMAm.s 			page 55


 687      88FC
 688 12aa 9F5DC487 		.ascii	"\237]\304\207\307\243GMD:\031\351\224\010\3365\332D"
 688      C7A3474D 
 688      443A19E9 
 688      9408DE35 
 688      DA44
 689 12bc 10825D1B 		.ascii	"\020\202]\033\321\273\032]j\376?h\336u\377\273N\304"
 689      D1BB1A5D 
 689      6AFE3F68 
 689      DE75FFBB 
 689      4EC4
 690 12ce BBEAD0BB 		.ascii	"\273\352\320\273\252\036my\257\304\200\220J\247\353"
 690      AA1E6D79 
 690      AFC48090 
 690      4AA7EB
 691 12dd BD6BE677 		.ascii	"\275k\346w\015\262wM\267\344]s\277k`\275k\022J1\275"
 691      0DB2774D 
 691      B7E45D73 
 691      BF6B60BD 
 691      6B124A31 
 692 12f2 D5DEB58C 		.ascii	"\325\336\265\214\324\257\331\257\3266\034\353]+X\270"
 692      D4AFD9AF 
 692      D6361CEB 
 692      5D2B58B8 
 693 1302 77ACC045 		.ascii	"w\254\300E\360\256\225,\334<\333p\254t\253Y\270%V\340"
 693      F0AE952C 
 693      DC3CDB70 
 693      AC74AB59 
 693      B82556E0 
 694 1316 226C77D6 		.ascii	"\"lw\326\262p\313m\303\261\322\255c\341\326Z\2013\333"
 694      B270CB6D 
 694      C3B1D2AD 
 694      63E1D65A 
 694      8133DB
 695 1329 06C03A65 		.ascii	"\006\300:e\203\012\247\254Tl\303\261\322mb\245\333j"
 695      830AA7AC 
 695      546CC3B1 
 695      D26D62A5 
 695      DB6A
 696 133b 052EC15C 		.ascii	"\005.\301\\w\373Y\270]\266\341X\351\016\262p\007\254"
 696      77FB59B8 
 696      5DB6E158 
 696      E90EB270 
 696      07AC
 697 134d C04578D4 		.ascii	"\300Ex\324vX\206S\327\300n\335\322%l,Y\346\262\273r"
 697      76588653 
 697      D7C06EDD 
 697      D2256C2C 
 697      59E6B2BB 
 698 1362 59EE325E 		.ascii	"Y\3562^\271\250?\221\257t\0116\333\300\252\344(\253"
 698      B9A83F91 
 698      AF740936 
 698      DBC0AAE4 
 698      28AB
 699 1374 92135654 		.ascii	"\222\023VT\022a\207\3649\013w\3066\034+\335\027,\334"
 699      126187F4 
 699      390B77C6 
ARM GAS  /tmp/cc1JfMAm.s 			page 56


 699      361C2BDD 
 699      172CDC
 700 1387 392B70A6 		.ascii	"9+p\246_\231J\301/U8b\011\201\273b\033\216\225\356\024"
 700      5F994AC1 
 700      2F553862 
 700      0981BB62 
 700      1B8E95EE 
 701 139c 2BDD5D2B 		.ascii	"+\335]+p=\315u\327\304\302Ut\264\013\307Jw\225\205\033"
 701      703DCD75 
 701      D7C4C255 
 701      74B40BC7 
 701      4A779585 
 702 13b1 6305CE6C 		.ascii	"c\005\316lC\003\272\373\236\325\335\024\333p\254t7X"
 702      4303BAFB 
 702      9ED5DD14 
 702      DB70AC74 
 702      3758
 703 13c3 E9665A81 		.ascii	"\351fZ\2013\333h\000\334-\335\024`\033\216\225\356\016"
 703      33DB6800 
 703      DC2DDD14 
 703      601B8E95 
 703      EE0E
 704 13d5 0BB7D80A 		.ascii	"\013\267\330\012\334 \003\351\214~\364\364.\3623p\275"
 704      DC2003E9 
 704      8C7EF4F4 
 704      2EF23370 
 704      BD
 705 13e6 F236AE51 		.ascii	"\3626\256Qf\"\235\215t.\322yH\027 ]\204t1\322\367\220"
 705      66229D8D 
 705      742ED279 
 705      4817205D 
 705      847431D2 
 706 13fc FE0FD20F 		.ascii	"\376\017\322\017\221~\204t\005\322\225HW#]\213t\035"
 706      917E8474 
 706      05D29548 
 706      57235D8B 
 706      741D
 707 140e D20D4837 		.ascii	"\322\015H7!\015\"\375\014\351\026\244\333\"\254\220"
 707      210D22FD 
 707      0CE916A4 
 707      DB22AC90 
 708 141e EA22AC90 		.ascii	"\352\"\254\220\032\264\025\222\374\331lp\315\212+\202"
 708      1AB41592 
 708      FCD96C70 
 708      CD8A2B82 
 709 142e FAD9EC93 		.ascii	"\372\331\354\223\326?Y\331\351\322\275\036\276\234\017"
 709      D63F59D9 
 709      E9D2BD1E 
 709      BE9C0F
 710 143d FB266779 		.ascii	"\373&gyGv9\245|\223s\205|\223#\377\357\325\235\230c"
 710      477639A5 
 710      7C937385 
 710      7C9323FF 
 710      EFD59D98 
 711 1452 87CBEC9B 		.ascii	"\207\313\354\233\034\345\303,\345\233\234\223\364\007"
 711      1CE5C32C 
 711      E59B9C93 
ARM GAS  /tmp/cc1JfMAm.s 			page 57


 711      F407
 712 1460 CBA41063 		.ascii	"\313\244\020c\250\335.\203\257\202\203w\326\354P?\331"
 712      A8DD2E83 
 712      AF828377 
 712      D6EC503F 
 712      D9
 713 1471 1B2BD8F8 		.ascii	"\033+\330\370f\357\000\333\276(n4)\330XU\331\322\377"
 713      66EF00DB 
 713      BE286E34 
 713      29D85855 
 713      D9D2FF
 714 1484 81BA72E3 		.ascii	"\201\272r\343\2637\345\363\367C\256((\\\363\030\253"
 714      B337E5F3 
 714      F743AE28 
 714      285CF318 
 714      AB
 715 1495 040B4802 		.ascii	"\004\013H\0027\013\013\035\005\000fe9w|{\262X%\374\010"
 715      370B0B1D 
 715      05006665 
 715      39777C7B 
 715      B25825FC 
 716 14aa EB4A1419 		.ascii	"\353J\024\031\272\325c\362F\010:\305\325\320\377\000"
 716      BAD563F2 
 716      46083AC5 
 716      D5D0FF00 
 717 14ba 7E4B495C 		.ascii	"~KI\\\245%~\257%j\205wi\351\327\215\322\217k\3517\214"
 717      A5257EAF 
 717      256A8577 
 717      69E9D78D 
 717      D28F6BE9 
 718 14d0 D22F68E9 		.ascii	"\322/h\351w\215\322\257k\351\367\214\322\307t\012\245"
 718      778DD2AF 
 718      6BE9F78C 
 718      D2C7740A 
 718      A5
 719 14e1 3F304AAF 		.ascii	"?0J\257\325\322\233\215\322\353\265tZ'\357kl\236b\177"
 719      D5D29B8D 
 719      D2EBB574 
 719      5A27EF6B 
 719      6C9E627F 
 720 14f5 ACB1058A 		.ascii	"\254\261\005\212\375\251\306vP\354\006\215\355\244\330"
 720      FDA9C676 
 720      50EC068D 
 720      EDA4D8
 721 1504 8734B68B 		.ascii	"\2074\266\213b\177\251\261\335\024\373\234\306\216\242"
 721      627FA9B1 
 721      DD14FB9C 
 721      C68EA2
 722 1513 D8573576 		.ascii	"\330W5v4\305\276\257\261c(\366\330\316!v\033\212]\253"
 722      34C5BEAF 
 722      B16328F6 
 722      D8CE2176 
 722      1B8A5DAB 
 723 1527 B16329F6 		.ascii	"\261c)\366\273\032;\216b\177\242\261\333R\354\335\032"
 723      BB1A3B8E 
 723      627FA2B1 
 723      DB52ECDD 
ARM GAS  /tmp/cc1JfMAm.s 			page 58


 723      1A
 724 1538 BB1DC53E 		.ascii	"\273\035\305>\255\261\333\323rk\354x\212]\365x\210\375"
 724      ADB1DBD3 
 724      726BEC78 
 724      8A5DF578 
 724      88FD
 725 154a 10C59EA1 		.ascii	"\020\305\236\241\261\037\246\330\0135v\007\212\275V"
 725      B11FA6D8 
 725      0B357607 
 725      8ABD56
 726 1559 633F42B1 		.ascii	"c?B\261\367h\354G)\366\011\215\335\221b_\320\330\217"
 726      F768EC47 
 726      29F6098D 
 726      DD91625F 
 726      D0D88F
 727 156c 51EC1B1A 		.ascii	"Q\354\033\032\273\023\305\036\365D\210\335\231bO\321"
 727      BB13C51E 
 727      F54488DD 
 727      99624FD1 
 728 157c D88F53EC 		.ascii	"\330\217S\354\005\032\373\011\212\275Lcw\241\330\353"
 728      051AFB09 
 728      8ABD4C63 
 728      77A1D8EB 
 729 158c 34F64F28 		.ascii	"4\366O(\366\026\215\375S\212\275Wcw\245[\251\261\023"
 729      F6168DFD 
 729      538ABD57 
 729      6377A55B 
 729      A9B113
 730 159f 28F6798D 		.ascii	"(\366y\215\375$\305\276\256\261\177F\261+\273\204\330"
 730      FD24C5BE 
 730      AEB17F46 
 730      B12BBB84 
 730      D8
 731 15b0 3FA7D813 		.ascii	"?\247\330\0234\366S\024{\232\306\376\005\305\236\257"
 731      34F65314 
 731      7B9AC6FE 
 731      05C59EAF 
 732 15c0 B17F49B1 		.ascii	"\261\177I\261\227j\354\177\240\033\257\261\273Q\354"
 732      976AEC7F 
 732      A01BAFB1 
 732      BB51EC
 733 15cf 1D1AFB1F 		.ascii	"\035\032\373\037)\3661\215\255\216t\344\026\372\200"
 733      29F6318D 
 733      AD8E74E4 
 733      16FA80
 734 15de A4757A85 		.ascii	"\244uz\205\363\0263\006\322\203\247\310\177\216\363"
 734      F3163306 
 734      D283A7C8 
 734      7F8EF3
 735 15ed F6719723 		.ascii	"\366q\227#bqf*\343\302>n\372\246\213\301lF\236\267\376"
 735      6271662A 
 735      E3C23E6E 
 735      FAA68BC1 
 735      6C469EB7 
 736 1602 ED345F73 		.ascii	"\3554_s\271JJ\222G|\221?\206\253\374\375.\343\217c\345"
 736      B94A4A92 
 736      477C913F 
ARM GAS  /tmp/cc1JfMAm.s 			page 59


 736      86ABFCFD 
 736      2EE38F63 
 737 1617 5CBA8F71 		.ascii	"\\\272\217q\345\331\360&\326\260\2775\263\341~\375l"
 737      E5D9F026 
 737      D6B0BF35 
 737      B3E17EFD 
 737      6C
 738 1628 187433B3 		.ascii	"\030t3\263\241n\211\260\323\344\025:\374\026\310\035"
 738      A16E89B0 
 738      D3E4153A 
 738      FC16C81D 
 739 1638 6B588A7E 		.ascii	"kX\212~\234F\275\367\325M-\357R\312ow\253g\325\241C"
 739      9C46BDF7 
 739      D54D2DEF 
 739      52CA6F77 
 739      AB67D5A1 
 740 164d 5AB3AAB6 		.ascii	"Z\263\252\266\271#\236\006\272\325\374\257q\241\351"
 740      B9239E06 
 740      BAD5FCAF 
 740      71A1E9
 741 165c 75CADF4E 		.ascii	"u\312\337N\024\313\323k\203\233\034\331l\377I\313\007"
 741      14CBD36B 
 741      839B1CD9 
 741      6CFF49CB 
 741      07
 742 166d 820C0EA9 		.ascii	"\202\014\016\251w\227[wds\377\013|\272M\370-\037\330"
 742      77975B77 
 742      6473FF0B 
 742      7CBA4DF8 
 742      2D1FD8
 743 1680 347FA1FE 		.ascii	"4\177\241\376_(y\301y\010E e#,8\031E\260x\325'\250#"
 743      5F2879C1 
 743      79084520 
 743      65232C38 
 743      1945B078 
 744 1698 E363B6C1 		.ascii	"\343c\266\301\022\030\260\032\032\354\204\025\260\010"
 744      1218B01A 
 744      1AEC8415 
 744      B008
 745 16a6 67357534 		.ascii	"g5u4X\243m0V\262i4\330Y+`\021\316if\320`\347m\203\261"
 745      58A36D30 
 745      56B26934 
 745      D8592B60 
 745      11CE6966 
 746 16c0 92BD4383 		.ascii	"\222\275C\203]\262\002\026\341Q\355,\032\354\252m0V"
 746      5DB20216 
 746      E151ED2C 
 746      1AECAA6D 
 746      3056
 747 16d2 B23934D8 		.ascii	"\26294\330-+`\011\346\222-\243\301\356\333\006c%[A\203"
 747      2D2B6009 
 747      E6922DA3 
 747      C1EEDB06 
 747      63255B41 
 748 16e7 55FCD402 		.ascii	"U\374\324\002X\204\207\310+i\260*\333`\254d\253i\260"
 748      588487C8 
 748      2B69B02A 
ARM GAS  /tmp/cc1JfMAm.s 			page 60


 748      DB60AC64 
 748      AB69B0
 749 16fa 7156C04C 		.ascii	"qV\300L\217H*\202k_e\237\2115\230?\3143|J'\362_8\005"
 749      8F482A82 
 749      6B5F659F 
 749      8935983F 
 749      CC337C4A 
 750 1713 5602C3C7 		.ascii	"V\002\303\307r\021\216U\326\321\355\231h\245==\315\301"
 750      72118E55 
 750      D6D1ED99 
 750      68A53D3D 
 750      CDC1
 751 1725 36D06035 		.ascii	"6\320`5V\300\314N\031\310\371!\0156\3156\030+\331~\032"
 751      56C0CC4E 
 751      19C8F921 
 751      0D36CD36 
 751      182BD97E 
 752 173a 6CA615B0 		.ascii	"l\246\025\260\010'\014\007i\2609\266\301h\311*\202\207"
 752      08270C07 
 752      69B039B6 
 752      C168C92A 
 752      8287
 753 174c 5FD53D61 		.ascii	"_\325=a\247\234\240';\360i\217\316\231\207\335\013\365"
 753      A79CA027 
 753      3BF0698F 
 753      CE9987DD 
 753      0BF5
 754 175e 1230C594 		.ascii	"\0220\305\224\250\365#\011m\372\202]\257\233,m\366\270"
 754      A8F52309 
 754      6DFA825D 
 754      AF9B2C6D 
 754      F6B8
 755 1770 C9A1C03E 		.ascii	"\311\241\300>\244\007\220\036Bz\004\3511\244\307\221"
 755      A407901E 
 755      427A04E9 
 755      31A4C791 
 756 1780 9E407A12 		.ascii	"\236@z\022\351i\244g\220~\205\364,\322sH/ \275\210\364"
 756      E969A467 
 756      907E85F4 
 756      2CD27348 
 756      2F20BD88 
 757 1795 32D2EF90 		.ascii	"2\322\357\220^Az\315m~\000\321`\242j\"\373\015\223\325"
 757      5E417ACD 
 757      6D7E00D1 
 757      60A26A22 
 757      FB0D93D5 
 758 17a9 85FC29A0 		.ascii	"\205\374)\240Y\251\233Z)\263\367\317\231\267\244I\231"
 758      59A99B5A 
 758      29B3F7CF 
 758      99B7A449 
 758      99
 759 17ba 5BEE304B 		.ascii	"[\3560K\230,az\250E\243\224\002\267\335v\317~\357\270"
 759      982C617A 
 759      A845A394 
 759      02B7DD76 
 759      CF7EEFB8 
 760 17ce 8DCF     		.ascii	"\215\317"
ARM GAS  /tmp/cc1JfMAm.s 			page 61


 761 17d0 7EDDC66D 		.ascii	"~\335\306m%\237w\233A\3355\325P]\204\377/p\317\255;"
 761      259F779B 
 761      41DD35D5 
 761      505D84FF 
 761      2F70CFAD 
 762 17e5 D8695C71 		.ascii	"\330i\\q\355ZW\263\203\035\362\241\223\031\322\003w"
 762      ED5A57B3 
 762      831DF2A1 
 762      9319D203 
 762      77
 763 17f6 F83F55BA 		.ascii	"\370?U\272\374Sv\225\025\372\2170\313\226H.\031\216"
 763      FC537695 
 763      15FA8F30 
 763      CB96482E 
 763      198E
 764 1808 14B8EFEE 		.ascii	"\024\270\357\356jb\016Lnf\327\244\212\234S\356\034z"
 764      6A620E4C 
 764      6E66D7A4 
 764      8A9C53EE 
 764      1C7A
 765 181a FC03F55F 		.ascii	"\374\003\365_\335U\214\342\325\217\337\203]\015\353"
 765      DD558CE2 
 765      D58FDF83 
 765      5D0DEB
 766 1829 94D87F31 		.ascii	"\224\330\1771U\021\245[\370VF\031\035\003\335\333\246"
 766      5511A55B 
 766      F8564619 
 766      1D03DDDB 
 766      A6
 767 183a FC67A360 		.ascii	"\374g\243`\274\254G\201;\252\303WV\344\307\304n\352"
 767      BCAC4781 
 767      3BAAC357 
 767      56E4C7C4 
 767      6EEA
 768 184c 87601731 		.ascii	"\207`\0271\307\250(\343F\251\315V\305:N\257\307G\351"
 768      C7A828E3 
 768      46A9CD56 
 768      C53A4EAF 
 768      C747E9
 769 185f C5AA62C5 		.ascii	"\305\252b\3052\361\304Nj\005\016\245\330\270(\273\236"
 769      32F1C44E 
 769      6A050EA5 
 769      D8B828BB 
 769      9E
 770 1870 F8E72863 		.ascii	"\370\347(cOT\253\327\371\324\352\010>5>\312\314\023"
 770      4F54ABD7 
 770      F9D4EA08 
 770      3E353ECA 
 770      CC13
 771 1882 674678C4 		.ascii	"gFx\304?\301\264\324\242\010uM4-u,B_\231dZ\352T\204"
 771      3FC1B4D4 
 771      A208754D 
 771      342D752C 
 771      425F9964 
 772 189a 5293A3F4 		.ascii	"R\223\243\364}e\315\234\263\235>\242|P\327]\232#\374"
 772      7D65CD9C 
 772      B39D3EA2 
ARM GAS  /tmp/cc1JfMAm.s 			page 62


 772      7C50D75D 
 772      9A23FC
 773 18ad 7F912951 		.ascii	"\177\221)Q\341\335\245\311\330u\325\377A\326\254\374"
 773      E1DDA5C9 
 773      D875D5FF 
 773      41D6ACFC 
 774 18bd 0FB2EAA8 		.ascii	"\017\262\352\250\210\377\203\254\206u\031\356\205\304"
 774      88FF83AC 
 774      867519EE 
 774      85C4
 775 18cb FC92225F 		.ascii	"\374\222\"_bnI\336\210\304<\337\360\304\334\374\202"
 775      626E49DE 
 775      88C43CDF 
 775      F0C4DCFC 
 775      82
 776 18dc C1052565 		.ascii	"\301\005%e\211\001\177y\361\260D\210\370\003\211\245"
 776      89017F79 
 776      F1B04488 
 776      F80389A5 
 777 18ec 25FE4059 		.ascii	"%\376@YbjV\206'\343\015\310\220[\342\367=\235\317\265"
 777      626A5686 
 777      27E30DC8 
 777      905BE2F7 
 777      3D9DCFB5 
 778 1900 290B0C13 		.ascii	")\013\014\023\013\013\206\026{\003\356>\375\007$x\270"
 778      0B0B8616 
 778      7B03EE3E 
 778      FD072478 
 778      B8
 779 1911 A712CBCB 		.ascii	"\247\022\313\313\374\211\242\277\350\327\305%\305\276"
 779      FC89A2BF 
 779      E8D7C525 
 779      C5BE
 780 191f 5FFBC4C1 		.ascii	"_\373\304\301\005\211\005\305\271\205\345y\276\304\262"
 780      058905C5 
 780      B985E579 
 780      BEC4B2
 781 192e 405E4171 		.ascii	"@^Aq\000\212E\227\303\365\271g\274\201g\"\344.\022A"
 781      008A4597 
 781      C3F5B967 
 781      BC816722 
 781      E42E1241 
 782 1942 8E625FA2 		.ascii	"\216b_\2427\3177D,/\014x\003#J}e\244R\257W-\337\327"
 782      37CF3744 
 782      2C2F0C78 
 782      03234A7D 
 782      65A452AF 
 783 195a B6E42545 		.ascii	"\266\344%E\245\005\205>\177Yb\037\217\007\262\253\230"
 783      A505853E 
 783      7F59621F 
 783      8F07B2AB 
 783      98
 784 196b 5181527F 		.ascii	"Q\201R\177A\2117\200\222uO\361\006\224JH\264\207\205"
 784      41893780 
 784      92754FF1 
 784      06944A48 
 784      B48785
ARM GAS  /tmp/cc1JfMAm.s 			page 63


 785 197e 4A54A173 		.ascii	"JT\241s\363\313F\224\251\240\321\201|\277O\314\363\006"
 785      F3CB4694 
 785      A9A0D181 
 785      7CBF4FCC 
 785      F306
 786 1990 6272F3BD 		.ascii	"br\363\275r\374\031{X\271\371y\200\343.\365\026\373"
 786      72FC197B 
 786      58B9F979 
 786      80E32EF5 
 786      16FB
 787 19a2 DE08C0A5 		.ascii	"\336\010\300\245\324\357\033\216\227\202\222\250\334"
 787      D4EF1B8E 
 787      978292A8 
 787      DC
 788 19af 92E20070 		.ascii	"\222\342\000pcI\373\274 jn\340\215\177i\235!\275\303"
 788      6349FBBC 
 788      206A6EE0 
 788      8D7F699D 
 788      21BDC3
 789 19c2 9F2F22E2 		.ascii	"\237/\"\342\372}C\301\024\336\200\340\177F\360?+\370"
 789      FA7D43C1 
 789      14DE80E0 
 789      7F46F03F 
 789      2BF8
 790 19d4 9F13FCCF 		.ascii	"\237\023\374\317\013\376\036\202\377\005\207?9\011B"
 790      0BFE1E82 
 790      FF05873F 
 790      390942
 791 19e3 B250E887 		.ascii	"\262P\350\207KwW\251\027j\213\"b\275\356\363\303\265"
 791      4B7757A9 
 791      176A8B22 
 791      62BDEEF3 
 791      C3B5
 792 19f5 A430CFE7 		.ascii	"\2440\317\347w\346\346\213~\"\253X\344\213\016\224\005"
 792      77E6E68B 
 792      7E22AB58 
 792      E48B0E94 
 792      05
 793 1a06 C480CF1B 		.ascii	"\304\200\317\033\210\"Z\354\001*\220\365\0111\310\216"
 793      88225AEC 
 793      012A90F5 
 793      0931C88E 
 794 1a16 695181A2 		.ascii	"iQ\201\242\222<\037\336\017)\024\207\226E\005\374\276"
 794      923C1FDE 
 794      0F291487 
 794      964505FC 
 794      BE
 795 1a27 21655ED2 		.ascii	"!e^\322L\022q\025\225\015\205D\305\006P\\\211\271\375"
 795      4C127115 
 795      950D8544 
 795      C506505C 
 795      89B9FD
 796 1a3a 79232029 		.ascii	"y# )\332\367FA\000\032\352s\277\036(\031\374\037\245"
 796      DAF74641 
 796      001AEA73 
 796      BF1E2819 
 796      FC1FA5
ARM GAS  /tmp/cc1JfMAm.s 			page 64


 797 1a4d B1BEE1BE 		.ascii	"\261\276\341\276\342@\221X6\014\262\370^'\021G\251\267"
 797      E2409158 
 797      360CB2F8 
 797      5E271147 
 797      A9B7
 798 1a5f BC9DACF6 		.ascii	"\274\235\254\3662oaA\031xP\373\220!dNL\251\367u\261"
 798      326F6141 
 798      197850FB 
 798      9021644E 
 798      4CA9F775 
 799 1a74 2050503C 		.ascii	" PP<\264\275\312\376S\271\257\034\244\212\247r\"\253"
 799      B4BDCAFE 
 799      53B9AF1C 
 799      A48AA772 
 799      22AB
 800 1a86 4DA917AA 		.ascii	"M\251\027\252\305\250\013\243\300\360\225\372\212\301"
 800      C5A80BA3 
 800      C0F095FA 
 800      8AC1
 801 1a94 A587BA8A 		.ascii	"\245\207\272\212\312\301\024\335m\331\266(\360\006\361"
 801      CAC114DD 
 801      6DD9B628 
 801      F006F1
 802 1aa3 BB22191D 		.ascii	"\273\"\031\035\256%\257\027\203.\021\011\232P\204&\007"
 802      AE25AF17 
 802      832E1109 
 802      9A508426 
 802      07
 803 1ab4 F9201F91 		.ascii	"\371 \037\221\264\015\321\212X\210\226\007fiIIa\242"
 803      B40DD18A 
 803      58889607 
 803      66694949 
 803      61A2
 804 1ac6 85FACAFC 		.ascii	"\205\372\312\374\271\262O>\235\313\305y\013\362\012"
 804      B9B24F3E 
 804      9DCBC579 
 804      0BF20A
 805 1ad5 7D4AABF8 		.ascii	"}J\253\370\322\030\305q\012\002)\266\004\037Nzpln\376"
 805      D218C571 
 805      0A0229B6 
 805      041F4E7A 
 805      706C6EFE 
 806 1ae9 C09CB492 		.ascii	"\300\234\264\222\234\202\334a\351\321\000_\026\000\313"
 806      9C82DC61 
 806      E9D1005F 
 806      1600CB
 807 1af8 FD24373F 		.ascii	"\375$7?{DY\037_ \033\354[^\226Z\234\327\257$w\330\240"
 807      7B44591F 
 807      5F201BEC 
 807      5B5E965A 
 807      9CD7AF24 
 808 1b0f A74B457F 		.ascii	"\247KE\177\340\351\244\30715\313W\026\000\227\223s("
 808      E0E9A4C7 
 808      3135CB57 
 808      16009793 
 808      7328
 809 1b21 49C93198 		.ascii	"I\3111\230\224\016\242\310\261\276b!\330\331'\226\225"
ARM GAS  /tmp/cc1JfMAm.s 			page 65


 809      940EA2C8 
 809      B1BE6221 
 809      D8D92796 
 809      95
 810 1b32 143F8C8C 		.ascii	"\024?\214\214\234\202\"\237\277\257X\014\362\373\323"
 810      9C82229F 
 810      BFAF580C 
 810      F2FBD3
 811 1b41 3B1A57D3 		.ascii	";\032W\323\301\000\337\001r\271\274/\201\262\242\374"
 811      C100DF01 
 811      72B9BC2F 
 811      81B2A2FC 
 812 1b51 81DC62F0 		.ascii	"\201\334b\360\200G\345\252\312<%\345\320}\374\257\024"
 812      8047E5AA 
 812      CA3C25E5 
 812      D07DFCAF 
 812      14
 813 1b62 04609019 		.ascii	"\004`\220\031\344\2004\027x\245?\340\000\213>\204y2"
 813      E4803417 
 813      78A53FE0 
 813      008B3E84 
 813      7932
 814 1b74 4B0A0B7D 		.ascii	"K\012\013}yi\276Bq\304 w\356\210\334B_YrK\212\312\027"
 814      7969BE42 
 814      71C42077 
 814      EE88DC42 
 814      5F59724B 
 815 1b8b 0BA9D10E 		.ascii	"\013\251\321\016\364\024C\206\003\020^\031Y\222\237"
 815      F4144386 
 815      03105E19 
 815      59929F
 816 1b9a 0B8D2C18 		.ascii	"\013\215,\030-\013d\373\002\251\205\320\353b!\032()"
 816      2D0B64FB 
 816      02A985D0 
 816      EB62211A 
 816      2829
 817 1bac C538F85E 		.ascii	"\3058\370^vn>\264$7\337\227W^\350\313~\336\226\201\024"
 817      766E3EB4 
 817      2437DF97 
 817      575EE8CB 
 817      7EDE9681 
 818 1bc1 B785DA53 		.ascii	"\267\205\332Spx-,\030\234847W7\314>\363t\217\247\237"
 818      70782D2C 
 818      189C3834 
 818      375737CC 
 818      3EF3748F 
 819 1bd7 A1876618 		.ascii	"\241\207f\030f\311XSV\360\237\244S\006\206\224\027\347"
 819      66C95853 
 819      56F09FA4 
 819      53068694 
 819      17E7
 820 1be9 7A03A08A 		.ascii	"z\003\240\212\234\374<\017\000\006P\247\005\271q\212"
 820      9CFC3C0F 
 820      000650A7 
 820      05B9718A 
 821 1bf9 03A1E7D8 		.ascii	"\003\241\347\330\033\316\362}b)\216\337$\202\345\355"
 821      1BCEF27D 
ARM GAS  /tmp/cc1JfMAm.s 			page 66


 821      62298EDF 
 821      2482E5ED 
 822 1c09 35ACC857 		.ascii	"5\254\310W\244\316;^\034\267\354;o\000\007:o\240\010"
 822      A4CE3B5E 
 822      1CB7EC3B 
 822      6F00073A 
 822      6FA008
 823 1c1c CB467B87 		.ascii	"\313F{\207\313=\240\275W\325\265_\271\247\272\012\014"
 823      CB3DA0BD 
 823      57D5B55F 
 823      B9A7BA0A 
 823      0C
 824 1c2d 116D8A44 		.ascii	"\021m\212D0\031\336\265\327\242O?\227\374l\017\350\011"
 824      3019DEB5 
 824      D7A24F3F 
 824      97FC6C0F 
 824      E809
 825 1c3f 5E62645F 		.ascii	"^bd_\221<\316\313\3618\222>B\031u\332\002[\273\217\362"
 825      913CCECB 
 825      F138923E 
 825      421975DA 
 825      025BBB8F 
 826 1c54 CB5DDEED 		.ascii	"\313]\336\355\307q\334\345\307\261\324\257\214\245~"
 826      C771DCE5 
 826      C7B1D4AF 
 826      8CA57E
 827 1c63 792C8D01 		.ascii	"y,\215\001n\271\337\017C\232\313O\012=:\274\300\037"
 827      6EB9DF0F 
 827      439ACB4F 
 827      0A3D3ABC 
 827      C01F
 828 1c75 28170BBD 		.ascii	"(\027\013\275\304\231\374\352p\006=\301k\220\320\236"
 828      C499FCEA 
 828      70063DC1 
 828      6B90D09E 
 829 1c85 E1C96319 		.ascii	"\341\311c\031\303\212\202f\223\341\205\\\311\224\022"
 829      C38A8266 
 829      93E1855C 
 829      C99412
 830 1c94 0DD73C5F 		.ascii	"\015\327<_a@\204\210lw\222Bbn\222C\364\307\302\245P"
 830      61408488 
 830      6C779242 
 830      626E9243 
 830      F4C7C2A5 
 831 1ca9 2C0B90D2 		.ascii	",\013\220\322\300\"\225\264S\032\235\347\033\\>T\036"
 831      C02295B4 
 831      531A9DE7 
 831      1B5C3E54 
 831      1E
 832 1cba 59694E4C 		.ascii	"YiNL\251X\\\220K\306IG\336\340\241\361\240\360\\X(\014"
 832      A9585C90 
 832      4BC64947 
 832      DEE0A1F1 
 832      A0F05C58 
 833 1cd0 F6830B95 		.ascii	"\366\203\013\225\220\325B\311\220!e\276\200\020(\022"
 833      90D542C9 
 833      902165BE 
ARM GAS  /tmp/cc1JfMAm.s 			page 67


 833      80102812 
 834 1ce0 72F3ED4D 		.ascii	"r\363\355M\2600KA\365\376\021`H\242\330\202<PR\301\220"
 834      B0304B41 
 834      F5FE1160 
 834      48A2D882 
 834      3C5052C1 
 835 1cf5 026815DC 		.ascii	"\002h\025\334\375\247\317_B\256\304\213\333\220f\203"
 835      FDA7CF5F 
 835      42AEC48B 
 835      DB906683 
 836 1d05 4EA04212 		.ascii	"N\240B\022-\015\370\011\227\330\2134\203\304\333j\203"
 836      2D0DF809 
 836      97D88B34 
 836      83C4DB6A 
 836      83
 837 1d16 3CA60CF1 		.ascii	"<\246\014\361\202Xh\2256J\034L\023\247D\321>\352\015"
 837      82586895 
 837      364A1C4C 
 837      13A744D1 
 837      3EEA0D
 838 1d29 1A492D40 		.ascii	"\032I-@&\274\366J\034\026D\205\005E\005\201\270\320"
 838      26BCF64A 
 838      1C164485 
 838      05450581 
 838      B8D0
 839 1d3b 3DF41CF5 		.ascii	"=\364\034\365\006\3479\265\024\231\344\332\205\252\364"
 839      06E739B5 
 839      1499E4DA 
 839      85AAF4
 840 1d4a F98A4A03 		.ascii	"\371\212J\003j\022\221\017|IQm4H\211\321\026\247w0i"
 840      6A12910F 
 840      7C49516D 
 840      344889D1 
 840      16A77730 
 841 1d5f A227233B 		.ascii	"\242'#;=[S\027\351&\271E\335\211\327g{^\362\346\300"
 841      3D5B5317 
 841      E926B945 
 841      DD89D767 
 841      7B5EF2E6 
 842 1d74 D2C4E5C9 		.ascii	"\322\304\345\311\034\220\236\346L\367dg9\007\346\274"
 842      1C909EE6 
 842      4CF76467 
 842      3907E6BC 
 843 1d84 9CE54A4D 		.ascii	"\234\345JM\317\362d9\262!x\310\265o\246+\273/I\364\364"
 843      CFF26439 
 843      B22178C8 
 843      B56FA62B 
 843      BB2F49F4 
 844 1d99 06D29790 		.ascii	"\006\322\227\2204 \256\214\214\336\251Y\316\227\010"
 844      3420AE8C 
 844      8CDEA959 
 844      CE9708
 845 1da8 49857B47 		.ascii	"I\205{Gf\357,G\032\204\324\264,'\244e9\323\263S\263"
 845      66EF2C47 
 845      1A84D4B4 
 845      2C27A465 
 845      39D3B353 
ARM GAS  /tmp/cc1JfMAm.s 			page 68


 846 1dbd 62B27A65 		.ascii	"b\262ze\367\312\032\330+-\011\252I\365d\265\363\200"
 846      F7CA1AD8 
 846      2B2D09AA 
 846      49F564B5 
 846      F380
 847 1dcf 0469D810 		.ascii	"\004i\330\020\254;\215 \273\322<Y2M\003\332+\303\223"
 847      AC3B8D20 
 847      BBD23C59 
 847      324D03DA 
 847      2BC393
 848 1de2 159DF64A 		.ascii	"\025\235\366J\016fpzr\262\372\271=\377\346\361\364\317"
 848      0E66707A 
 848      72B2FAB9 
 848      3DFFE6F1 
 848      F4CF
 849 1df4 717B32D3 		.ascii	"q{2\323\311\245\327 r\027\235\335\257W\257Lr\337/{\000"
 849      C9A5D720 
 849      72179DDD 
 849      AF57AF4C 
 849      72DF2F7B 
 850 1e09 5CA27ABF 		.ascii	"\\\242z\277\334/\015\256\316L\202\350y9#3\311\225\221"
 850      DC2F0DAE 
 850      CE4C82E8 
 850      79392333 
 850      C99591
 851 1e1c 9AFDFBA4 		.ascii	"\232\375\373\244\230\336\003\372{r\322_\356\237\204"
 851      98DE03FA 
 851      7B72D25F 
 851      EE9F84
 852 1e2b DC64E426 		.ascii	"\334d\344&\207\270\311!\021\2231=\005\323SB\351)\241"
 852      87B8C921 
 852      1193313D 
 852      05D35342 
 852      E929A1
 853 1e3e F4144CEF 		.ascii	"\364\024L\357\216\351\335C\351\335;\365\037\230\356"
 853      8EE9DD43 
 853      E9DD3BF5 
 853      1F98EE
 854 1e4d F1C2C09D 		.ascii	"\361\302\300\235\011\216\342/\010\214\350\343/)/\205"
 854      098EE22F 
 854      088CE8E3 
 854      2F292F85 
 855 1e5d 65405B86 		.ascii	"e@[\206\321\342\252Z\263Vv\016\014\300E\335S\206$'\221"
 855      D1E2AA5A 
 855      B356760E 
 855      0CC045DD 
 855      53862427 
 856 1e72 45414C7A 		.ascii	"EALz\326\277\026\313\332 \261\016\375K\2123`=#\016."
 856      D6BF16CB 
 856      DA20B10E 
 856      FD4B8A33 
 856      603D230E 
 857 1e87 F4A5C31C 		.ascii	"\364\245\303\034Fx\217f\370\212J\374#2\304bq\250\257"
 857      46788F66 
 857      F88A4AFC 
 857      2332C462 
 857      71A8AF
ARM GAS  /tmp/cc1JfMAm.s 			page 69


 858 1e9a C8A770DB 		.ascii	"\310\247p\333\276T^\326\033\327\312\344\256\375\200"
 858      BE545ED6 
 858      1BD7CAE4 
 858      AEFD80
 859 1ea9 3248D4EE 		.ascii	"2H\324\356c\263\007z\304\302B\214?\204&\311(\201\261"
 859      63B3077A 
 859      C4C2428C 
 859      3F8426C9 
 859      2881B1
 860 1ebc AEC42FA7 		.ascii	"\256\304/\247f\302\314\227=\020\343q8\345\346\016\303"
 860      66C2CC97 
 860      3D10E371 
 860      38E5E60E 
 860      C3
 861 1ecd 9B98575E 		.ascii	"\233\230W^I\353\203\261\350\314\201ir\336\234\324\214"
 861      49EB83B1 
 861      E8CC8169 
 861      72DE9CD4 
 861      8C
 862 1ede CC5E5932 		.ascii	"\314^Y23+\307\203\2216\275\373\245f\367Ux\036\205\327"
 862      332BC783 
 862      9136BDFB 
 862      A566F755 
 862      781E85D7 
 863 1ef2 6B504E7A 		.ascii	"kPNz\222\026M\326\242)Z\264\273\026}\006\243\017\247"
 863      92164DD6 
 863      A2295AB4 
 863      BB167D06 
 863      A30FA7
 864 1f05 65A4267B 		.ascii	"e\244&{=\371bq\261\25709\234\225\022\316\352\036\316"
 864      3DF96271 
 864      B1AF3039 
 864      9C9512CE 
 864      EA1ECE
 865 1f18 32C07A36 		.ascii	"2\300z6\234\365\\8\353y\271\221\251i\236d\257\\U\207"
 865      9CF55C38 
 865      EB79B991 
 865      A9699E64 
 865      AF5C5587 
 866 1f2c 01D92F79 		.ascii	"\001\331/y\373fz=\251\375\223\2759\203\220\367\010\341"
 866      FB667A3D 
 866      A9FD93BD 
 866      398390F7 
 866      08E1
 867 1f3e F5537859 		.ascii	"\365SxY\203\344V\266U\356\222\251\273lO/Y\253\244\201"
 867      83E456B6 
 867      55EE92A9 
 867      BB6C4F2F 
 867      59ABA481 
 868 1f52 2F786519 		.ascii	"/xe\031\332\346\244g${_\312\372\275\234\204w\0032e\333"
 868      DAE6A467 
 868      247B5FCA 
 868      FABD9C84 
 868      77033265 
 869 1f67 E04D4E56 		.ascii	"\340MNV\037/\270\037\225\254\3504\006nRB\261\356\241"
 869      1F2FB81F 
 869      95ACE834 
ARM GAS  /tmp/cc1JfMAm.s 			page 70


 869      066E5242 
 869      B1EEA1
 870 1f7a 98DCDCB8 		.ascii	"\230\334\334\270\364\024\220\272\327@\372&+t\223B\247"
 870      F41490BA 
 870      D740FA26 
 870      2B749342 
 870      A7
 871 1f8b A4A82931 		.ascii	"\244\250)1\331\231\212eHL\306\216\035\000\2359'\231"
 871      D9998A65 
 871      484CC68E 
 871      1D009D39 
 871      2799
 872 1f9d 8AD37C   		.ascii	"\212\323|"
 873 1fa0 B9D67668 		.ascii	"\271\326vh\322g\275\311J\333\301\023p\375\"'\202z^\021"
 873      D267BDC9 
 873      4ADBC113 
 873      70FD2227 
 873      827A5E11 
 874 1fb4 87F90694 		.ascii	"\207\371\006\224\342m\274\276\323D\227*\221\336V\026"
 874      E26DBCBE 
 874      D344972A 
 874      91DE5616 
 875 1fc4 55F2AE25 		.ascii	"U\362\256%;'\243{Jb\277~i\211\320\336\341\311r\247!"
 875      3B27A37B 
 875      4A62BF7E 
 875      6989D0DE 
 875      E1C972A7 
 876 1fd9 A3255991 		.ascii	"\243%Y\221\206n\274\001\207'+\031B\2123\033\206\026"
 876      866EBC01 
 876      87272B19 
 876      428A331B 
 876      8616
 877 1feb 675A7AAF 		.ascii	"gZz\257,\001\306\253^}`\230\360dd%#Mqz<"
 877      2C01C6AB 
 877      5E7D6098 
 877      F0646425 
 877      234D717A 
 878 2000 BD60C4EB 		.ascii	"\275`\304\353\237\343\310\314\3668R\263\262\0340\012"
 878      9FE3C8CC 
 878      F63852B3 
 878      B21C300A 
 879 2010 3A5F4ACB 		.ascii	":_J\313\201Q\215\224\312H\315\022^\226Kt\207\274\203"
 879      81518D94 
 879      CA48CD12 
 879      5E964B74 
 879      87BC83
 880 2023 B23C3F44 		.ascii	"\262<?DPoa!\331\312=,\307\274C}\001X\302\340\022\364"
 880      506F6121 
 880      D9CA3D2C 
 880      C7BC437D 
 880      0158C2E0 
 881 2039 C5566EDA 		.ascii	"\305Vn\332p&\007\310Gq\035/O\365\260\366-\365\212\304"
 881      702607C8 
 881      47711D2F 
 881      4FF5B0F6 
 881      2DF58AC4 
 882 204d 068FD05C 		.ascii	"\006\217\320\\\250\014\231Nr\337\031S\340\217\222\301"
ARM GAS  /tmp/cc1JfMAm.s 			page 71


 882      A80C994E 
 882      72DF1953 
 882      E08F92C1 
 883 205d 3B5C2C2C 		.ascii	";\\,,\367\375/\327\011\200\252"
 883      F7FD2FD7 
 883      0980AA
 884              		.text
 885              		.section	.gnu.lto_.symtab.45429554284da2fa,"",%progbits
 886 0000 63685379 		.ascii	"chSysInit\000\000\000\000\000\000\000\000\000\000\000"
 886      73496E69 
 886      74000000 
 886      00000000 
 886      00000000 
 887 0014 00610100 		.ascii	"\000a\001\000\000chSysHalt\000\000\000\000\000\000\000"
 887      00636853 
 887      79734861 
 887      6C740000 
 887      00000000 
 888 0029 00000000 		.ascii	"\000\000\000\000\000d\001\000\000chSysTimerHandlerI"
 888      00640100 
 888      00636853 
 888      79735469 
 888      6D657248 
 889 0044 00000000 		.ascii	"\000\000\000\000\000\000\000\000\000\000\000\000k\001"
 889      00000000 
 889      00000000 
 889      6B01
 890 0052 00006368 		.ascii	"\000\000chSysGetStatusAndLockX\000\000\000\000\000\000"
 890      53797347 
 890      65745374 
 890      61747573 
 890      416E644C 
 891 0070 00000000 		.ascii	"\000\000\000\000\000\000n\001\000\000chSysRestoreSt"
 891      00006E01 
 891      00006368 
 891      53797352 
 891      6573746F 
 892 0088 61747573 		.ascii	"atusX\000\000\000\000\000\000\000\000\000\000\000\000"
 892      58000000 
 892      00000000 
 892      00000000 
 892      00
 893 0099 72010000 		.ascii	"r\001\000\000chSysIsCounterWithinX\000\000\000\000\000"
 893      63685379 
 893      73497343 
 893      6F756E74 
 893      65725769 
 894 00b7 00000000 		.ascii	"\000\000\000\000\000\000\000y\001\000\000chSysPolle"
 894      00000079 
 894      01000063 
 894      68537973 
 894      506F6C6C 
 895 00cc 6444656C 		.ascii	"dDelayX\000\000\000\000\000\000\000\000\000\000\000"
 895      61795800 
 895      00000000 
 895      00000000 
 895      0000
ARM GAS  /tmp/cc1JfMAm.s 			page 72


 896 00de 008C0100 		.ascii	"\000\214\001\000\000ch\000\000\002\000\000\000\000\000"
 896      00636800 
 896      00020000 
 896      000000
 897 00ed 00000000 		.ascii	"\000\000\000\000\311\001\000\000ch_debug\000\000\002"
 897      C9010000 
 897      63685F64 
 897      65627567 
 897      000002
 898 0100 00000000 		.ascii	"\000\000\000\000\000\000\000\000\000\032\002\000\000"
 898      00000000 
 898      001A0200 
 898      00
 899 010d 73745365 		.ascii	"stSetAlarm\000\000\002\000\000\000\000\000\000\000\000"
 899      74416C61 
 899      726D0000 
 899      02000000 
 899      00000000 
 900 0122 00930100 		.ascii	"\000\223\001\000\000stStopAlarm\000\000\002\000\000"
 900      00737453 
 900      746F7041 
 900      6C61726D 
 900      00000200 
 901 0137 00000000 		.ascii	"\000\000\000\000\000\000\000\240\001\000\000chSchRe"
 901      000000A0 
 901      01000063 
 901      68536368 
 901      5265
 902 0149 73636865 		.ascii	"scheduleS\000\000\002\000\000\000\000\000\000\000\000"
 902      64756C65 
 902      53000002 
 902      00000000 
 902      00000000 
 903 015d 00A20100 		.ascii	"\000\242\001\000\000chThdCreateStatic\000\000\002\000"
 903      00636854 
 903      68644372 
 903      65617465 
 903      53746174 
 904 0177 00000000 		.ascii	"\000\000\000\000\000\000\000\000\244\001\000\000_th"
 904      00000000 
 904      A4010000 
 904      5F7468
 905 0186 72656164 		.ascii	"read_init\000\000\002\000\000\000\000\000\000\000\000"
 905      5F696E69 
 905      74000002 
 905      00000000 
 905      00000000 
 906 019a 00B50100 		.ascii	"\000\265\001\000\000_heap_init\000\000\002\000\000\000"
 906      005F6865 
 906      61705F69 
 906      6E697400 
 906      00020000 
 907 01af 00000000 		.ascii	"\000\000\000\000\000\000\272\001\000\000_core_init\000"
 907      0000BA01 
 907      00005F63 
 907      6F72655F 
 907      696E6974 
ARM GAS  /tmp/cc1JfMAm.s 			page 73


 908 01c4 00020000 		.ascii	"\000\002\000\000\000\000\000\000\000\000\000\274\001"
 908      00000000 
 908      000000BC 
 908      01
 909 01d1 00005F74 		.ascii	"\000\000_tm_init\000\000\002\000\000\000\000\000\000"
 909      6D5F696E 
 909      69740000 
 909      02000000 
 909      000000
 910 01e4 000000BE 		.ascii	"\000\000\000\276\001\000\000_vt_init\000\000\002\000"
 910      0100005F 
 910      76745F69 
 910      6E697400 
 910      000200
 911 01f7 00000000 		.ascii	"\000\000\000\000\000\000\000\000\300\001\000\000_sc"
 911      00000000 
 911      C0010000 
 911      5F7363
 912 0206 68656475 		.ascii	"heduler_init\000\000\002\000\000\000\000\000\000\000"
 912      6C65725F 
 912      696E6974 
 912      00000200 
 912      00000000 
 913 021c 0000C201 		.ascii	"\000\000\302\001\000\000"
 913      0000
 914              		.text
 915              		.section	.gnu.lto_.opts,"",%progbits
 916 0000 272D6D63 		.ascii	"'-mcpu=cortex-m3' '-mno-thumb-interwork' '-mthumb' "
 916      70753D63 
 916      6F727465 
 916      782D6D33 
 916      2720272D 
 917 0033 272D4F32 		.ascii	"'-O2' '-fomit-frame-pointer' '-falign-functions=16'"
 917      2720272D 
 917      666F6D69 
 917      742D6672 
 917      616D652D 
 918 0066 20272D66 		.ascii	" '-ffunction-sections' '-fdata-sections' '-fno-comm"
 918      66756E63 
 918      74696F6E 
 918      2D736563 
 918      74696F6E 
 919 0099 6F6E2720 		.ascii	"on' '-flto'\000"
 919      272D666C 
 919      746F2700 
 920              		.text
 921              		.section	.text._idle_thread,"ax",%progbits
 922              		.align	2
 923              		.p2align 4,,15
 924              		.thumb
 925              		.thumb_func
 926              		.type	_idle_thread, %function
 927              	_idle_thread:
 928              		@ Volatile: function does not return.
 929              		@ args = 0, pretend = 0, frame = 0
 930              		@ frame_needed = 0, uses_anonymous_args = 0
 931              		@ link register save eliminated.
ARM GAS  /tmp/cc1JfMAm.s 			page 74


 932 0000 024B     		ldr	r3, .L4
 933 0002 034A     		ldr	r2, .L4+4
 934 0004 9B69     		ldr	r3, [r3, #24]
 935 0006 9A61     		str	r2, [r3, #24]
 936              	.L2:
 937 0008 FEE7     		b	.L2
 938              	.L5:
 939 000a 00BF     		.align	2
 940              	.L4:
 941 000c 00000000 		.word	ch
 942 0010 00000000 		.word	.LC0
 943              		.size	_idle_thread, .-_idle_thread
 944 0014 AFF30080 		.section	.text.chSysInit,"ax",%progbits
 944      AFF30080 
 944      AFF30080 
 945              		.align	2
 946              		.p2align 4,,15
 947              		.global	chSysInit
 948              		.thumb
 949              		.thumb_func
 950              		.type	chSysInit, %function
 951              	chSysInit:
 952              		@ args = 0, pretend = 0, frame = 0
 953              		@ frame_needed = 0, uses_anonymous_args = 0
 954 0000 1D4B     		ldr	r3, .L7
 955 0002 30B5     		push	{r4, r5, lr}
 956 0004 0024     		movs	r4, #0
 957 0006 9C60     		str	r4, [r3, #8]
 958 0008 D868     		ldr	r0, [r3, #12]
 959 000a 4FF6FF01 		movw	r1, #63743
 960 000e 1B4A     		ldr	r2, .L7+4
 961 0010 0140     		ands	r1, r1, r0
 962 0012 0A43     		orrs	r2, r2, r1
 963 0014 1A49     		ldr	r1, .L7+8
 964 0016 DA60     		str	r2, [r3, #12]
 965 0018 C868     		ldr	r0, [r1, #12]
 966 001a 1A4A     		ldr	r2, .L7+12
 967 001c 40F08070 		orr	r0, r0, #16777216
 968 0020 C860     		str	r0, [r1, #12]
 969 0022 1568     		ldr	r5, [r2]
 970 0024 1020     		movs	r0, #16
 971 0026 2021     		movs	r1, #32
 972 0028 45F00105 		orr	r5, r5, #1
 973 002c 1560     		str	r5, [r2]
 974 002e 83B0     		sub	sp, sp, #12
 975 0030 D877     		strb	r0, [r3, #31]
 976 0032 83F82210 		strb	r1, [r3, #34]
 977 0036 FFF7FEFF 		bl	_scheduler_init
 978 003a FFF7FEFF 		bl	_vt_init
 979 003e FFF7FEFF 		bl	_tm_init
 980 0042 FFF7FEFF 		bl	_core_init
 981 0046 FFF7FEFF 		bl	_heap_init
 982 004a 4021     		movs	r1, #64
 983 004c 0E48     		ldr	r0, .L7+16
 984 004e FFF7FEFF 		bl	_thread_init
 985 0052 0E4B     		ldr	r3, .L7+20
 986 0054 0122     		movs	r2, #1
ARM GAS  /tmp/cc1JfMAm.s 			page 75


 987 0056 9861     		str	r0, [r3, #24]
 988 0058 0277     		strb	r2, [r0, #28]
 989              	@ 546 "/home/cody/dev/chibios/trunk/os/ext/CMSIS/include/core_cmFunc.h" 1
 990 005a 84F31188 		MSR basepri, r4
 991              	@ 0 "" 2
 992              	@ 331 "/home/cody/dev/chibios/trunk/os/ext/CMSIS/include/core_cmFunc.h" 1
 993 005e 62B6     		cpsie i
 994              	@ 0 "" 2
 995              		.thumb
 996 0060 0B49     		ldr	r1, .L7+24
 997 0062 9B69     		ldr	r3, [r3, #24]
 998 0064 0B48     		ldr	r0, .L7+28
 999 0066 9961     		str	r1, [r3, #24]
 1000 0068 0094     		str	r4, [sp]
 1001 006a D821     		movs	r1, #216
 1002 006c 0A4B     		ldr	r3, .L7+32
 1003 006e FFF7FEFF 		bl	chThdCreateStatic
 1004 0072 03B0     		add	sp, sp, #12
 1005              		@ sp needed
 1006 0074 30BD     		pop	{r4, r5, pc}
 1007              	.L8:
 1008 0076 00BF     		.align	2
 1009              	.L7:
 1010 0078 00ED00E0 		.word	-536810240
 1011 007c 0003FA05 		.word	100270848
 1012 0080 F0ED00E0 		.word	-536810000
 1013 0084 001000E0 		.word	-536866816
 1014 0088 00000000 		.word	.LANCHOR0
 1015 008c 00000000 		.word	ch
 1016 0090 00000000 		.word	ch_debug
 1017 0094 00000000 		.word	.LANCHOR1
 1018 0098 00000000 		.word	_idle_thread
 1019              		.size	chSysInit, .-chSysInit
 1020 009c AFF30080 		.section	.text.chSysHalt,"ax",%progbits
 1021              		.align	2
 1022              		.p2align 4,,15
 1023              		.global	chSysHalt
 1024              		.thumb
 1025              		.thumb_func
 1026              		.type	chSysHalt, %function
 1027              	chSysHalt:
 1028              		@ Volatile: function does not return.
 1029              		@ args = 0, pretend = 0, frame = 0
 1030              		@ frame_needed = 0, uses_anonymous_args = 0
 1031              		@ link register save eliminated.
 1032              	@ 342 "/home/cody/dev/chibios/trunk/os/ext/CMSIS/include/core_cmFunc.h" 1
 1033 0000 72B6     		cpsid i
 1034              	@ 0 "" 2
 1035              		.thumb
 1036 0002 014B     		ldr	r3, .L11
 1037 0004 9862     		str	r0, [r3, #40]
 1038              	.L10:
 1039 0006 FEE7     		b	.L10
 1040              	.L12:
 1041              		.align	2
 1042              	.L11:
 1043 0008 00000000 		.word	ch
ARM GAS  /tmp/cc1JfMAm.s 			page 76


 1044              		.size	chSysHalt, .-chSysHalt
 1045 000c AFF30080 		.section	.text.chSysTimerHandlerI,"ax",%progbits
 1046              		.align	2
 1047              		.p2align 4,,15
 1048              		.global	chSysTimerHandlerI
 1049              		.thumb
 1050              		.thumb_func
 1051              		.type	chSysTimerHandlerI, %function
 1052              	chSysTimerHandlerI:
 1053              		@ args = 0, pretend = 0, frame = 0
 1054              		@ frame_needed = 0, uses_anonymous_args = 0
 1055 0000 2DE9F047 		push	{r4, r5, r6, r7, r8, r9, r10, lr}
 1056 0004 4FF08043 		mov	r3, #1073741824
 1057 0008 1A4C     		ldr	r4, .L21
 1058 000a 5A6A     		ldr	r2, [r3, #36]
 1059 000c E08C     		ldrh	r0, [r4, #38]
 1060 000e E369     		ldr	r3, [r4, #28]
 1061 0010 1FFA82F9 		uxth	r9, r2
 1062 0014 C0EB0905 		rsb	r5, r0, r9
 1063 0018 1A89     		ldrh	r2, [r3, #8]
 1064 001a ADB2     		uxth	r5, r5
 1065 001c 9542     		cmp	r5, r2
 1066 001e 04F11C06 		add	r6, r4, #28
 1067 0022 1AD3     		bcc	.L14
 1068 0024 A046     		mov	r8, r4
 1069 0026 4FF0000A 		mov	r10, #0
 1070 002a 2027     		movs	r7, #32
 1071 002c 01E0     		b	.L15
 1072              	.L19:
 1073 002e B8F82600 		ldrh	r0, [r8, #38]
 1074              	.L15:
 1075 0032 1968     		ldr	r1, [r3]
 1076 0034 1044     		add	r0, r0, r2
 1077 0036 AD1A     		subs	r5, r5, r2
 1078 0038 E084     		strh	r0, [r4, #38]	@ movhi
 1079 003a DA68     		ldr	r2, [r3, #12]
 1080 003c ADB2     		uxth	r5, r5
 1081 003e C3F80CA0 		str	r10, [r3, #12]
 1082 0042 4E60     		str	r6, [r1, #4]
 1083 0044 E161     		str	r1, [r4, #28]
 1084              	@ 546 "/home/cody/dev/chibios/trunk/os/ext/CMSIS/include/core_cmFunc.h" 1
 1085 0046 8AF31188 		MSR basepri, r10
 1086              	@ 0 "" 2
 1087              		.thumb
 1088 004a 1869     		ldr	r0, [r3, #16]
 1089 004c 9047     		blx	r2
 1090              	@ 546 "/home/cody/dev/chibios/trunk/os/ext/CMSIS/include/core_cmFunc.h" 1
 1091 004e 87F31188 		MSR basepri, r7
 1092              	@ 0 "" 2
 1093              		.thumb
 1094 0052 E369     		ldr	r3, [r4, #28]
 1095 0054 1A89     		ldrh	r2, [r3, #8]
 1096 0056 AA42     		cmp	r2, r5
 1097 0058 E9D9     		bls	.L19
 1098              	.L14:
 1099 005a B342     		cmp	r3, r6
 1100 005c 06D0     		beq	.L20
ARM GAS  /tmp/cc1JfMAm.s 			page 77


 1101 005e 02EB0900 		add	r0, r2, r9
 1102 0062 80B2     		uxth	r0, r0
 1103 0064 BDE8F047 		pop	{r4, r5, r6, r7, r8, r9, r10, lr}
 1104 0068 FFF7FEBF 		b	stSetAlarm
 1105              	.L20:
 1106 006c BDE8F047 		pop	{r4, r5, r6, r7, r8, r9, r10, lr}
 1107 0070 FFF7FEBF 		b	stStopAlarm
 1108              	.L22:
 1109              		.align	2
 1110              	.L21:
 1111 0074 00000000 		.word	ch
 1112              		.size	chSysTimerHandlerI, .-chSysTimerHandlerI
 1113 0078 AFF30080 		.section	.text.chSysGetStatusAndLockX,"ax",%progbits
 1113      AFF30080 
 1114              		.align	2
 1115              		.p2align 4,,15
 1116              		.global	chSysGetStatusAndLockX
 1117              		.thumb
 1118              		.thumb_func
 1119              		.type	chSysGetStatusAndLockX, %function
 1120              	chSysGetStatusAndLockX:
 1121              		@ args = 0, pretend = 0, frame = 0
 1122              		@ frame_needed = 0, uses_anonymous_args = 0
 1123              		@ link register save eliminated.
 1124              	@ 533 "/home/cody/dev/chibios/trunk/os/ext/CMSIS/include/core_cmFunc.h" 1
 1125 0000 EFF31280 		MRS r0, basepri_max
 1126              	@ 0 "" 2
 1127              		.thumb
 1128 0004 20B9     		cbnz	r0, .L24
 1129              	@ 383 "/home/cody/dev/chibios/trunk/os/ext/CMSIS/include/core_cmFunc.h" 1
 1130 0006 EFF30583 		MRS r3, ipsr
 1131              	@ 0 "" 2
 1132              		.thumb
 1133 000a 2023     		movs	r3, #32
 1134              	@ 546 "/home/cody/dev/chibios/trunk/os/ext/CMSIS/include/core_cmFunc.h" 1
 1135 000c 83F31188 		MSR basepri, r3
 1136              	@ 0 "" 2
 1137              		.thumb
 1138              	.L24:
 1139 0010 7047     		bx	lr
 1140              		.size	chSysGetStatusAndLockX, .-chSysGetStatusAndLockX
 1141 0012 00BFAFF3 		.section	.text.chSysRestoreStatusX,"ax",%progbits
 1141      0080AFF3 
 1141      0080AFF3 
 1141      0080
 1142              		.align	2
 1143              		.p2align 4,,15
 1144              		.global	chSysRestoreStatusX
 1145              		.thumb
 1146              		.thumb_func
 1147              		.type	chSysRestoreStatusX, %function
 1148              	chSysRestoreStatusX:
 1149              		@ args = 0, pretend = 0, frame = 0
 1150              		@ frame_needed = 0, uses_anonymous_args = 0
 1151 0000 10B5     		push	{r4, lr}
 1152 0002 58B9     		cbnz	r0, .L26
 1153              	@ 383 "/home/cody/dev/chibios/trunk/os/ext/CMSIS/include/core_cmFunc.h" 1
ARM GAS  /tmp/cc1JfMAm.s 			page 78


 1154 0004 EFF30584 		MRS r4, ipsr
 1155              	@ 0 "" 2
 1156              		.thumb
 1157 0008 C4F30804 		ubfx	r4, r4, #0, #9
 1158 000c 14B1     		cbz	r4, .L28
 1159              	@ 546 "/home/cody/dev/chibios/trunk/os/ext/CMSIS/include/core_cmFunc.h" 1
 1160 000e 80F31188 		MSR basepri, r0
 1161              	@ 0 "" 2
 1162              		.thumb
 1163 0012 10BD     		pop	{r4, pc}
 1164              	.L28:
 1165 0014 FFF7FEFF 		bl	chSchRescheduleS
 1166              	@ 546 "/home/cody/dev/chibios/trunk/os/ext/CMSIS/include/core_cmFunc.h" 1
 1167 0018 84F31188 		MSR basepri, r4
 1168              	@ 0 "" 2
 1169              		.thumb
 1170              	.L26:
 1171 001c 10BD     		pop	{r4, pc}
 1172              		.size	chSysRestoreStatusX, .-chSysRestoreStatusX
 1173 001e 00BF     		.section	.text.chSysIsCounterWithinX,"ax",%progbits
 1174              		.align	2
 1175              		.p2align 4,,15
 1176              		.global	chSysIsCounterWithinX
 1177              		.thumb
 1178              		.thumb_func
 1179              		.type	chSysIsCounterWithinX, %function
 1180              	chSysIsCounterWithinX:
 1181              		@ args = 0, pretend = 0, frame = 0
 1182              		@ frame_needed = 0, uses_anonymous_args = 0
 1183              		@ link register save eliminated.
 1184 0000 8A42     		cmp	r2, r1
 1185 0002 06D9     		bls	.L30
 1186 0004 8142     		cmp	r1, r0
 1187 0006 08D8     		bhi	.L34
 1188              	.L36:
 1189 0008 8242     		cmp	r2, r0
 1190 000a 94BF     		ite	ls
 1191 000c 0020     		movls	r0, #0
 1192 000e 0120     		movhi	r0, #1
 1193 0010 7047     		bx	lr
 1194              	.L30:
 1195 0012 8142     		cmp	r1, r0
 1196 0014 F8D8     		bhi	.L36
 1197 0016 0120     		movs	r0, #1
 1198 0018 7047     		bx	lr
 1199              	.L34:
 1200 001a 0020     		movs	r0, #0
 1201 001c 7047     		bx	lr
 1202              		.size	chSysIsCounterWithinX, .-chSysIsCounterWithinX
 1203 001e 00BF     		.section	.text.chSysPolledDelayX,"ax",%progbits
 1204              		.align	2
 1205              		.p2align 4,,15
 1206              		.global	chSysPolledDelayX
 1207              		.thumb
 1208              		.thumb_func
 1209              		.type	chSysPolledDelayX, %function
 1210              	chSysPolledDelayX:
ARM GAS  /tmp/cc1JfMAm.s 			page 79


 1211              		@ args = 0, pretend = 0, frame = 0
 1212              		@ frame_needed = 0, uses_anonymous_args = 0
 1213              		@ link register save eliminated.
 1214 0000 0C49     		ldr	r1, .L48
 1215 0002 4A68     		ldr	r2, [r1, #4]
 1216 0004 1044     		add	r0, r0, r2
 1217              	.L43:
 1218 0006 9042     		cmp	r0, r2
 1219 0008 4B68     		ldr	r3, [r1, #4]
 1220 000a 0CD9     		bls	.L38
 1221 000c 9A42     		cmp	r2, r3
 1222 000e 03D9     		bls	.L46
 1223 0010 0023     		movs	r3, #0
 1224 0012 002B     		cmp	r3, #0
 1225 0014 F7D1     		bne	.L43
 1226              	.L47:
 1227 0016 7047     		bx	lr
 1228              	.L46:
 1229 0018 9842     		cmp	r0, r3
 1230 001a 94BF     		ite	ls
 1231 001c 0023     		movls	r3, #0
 1232 001e 0123     		movhi	r3, #1
 1233 0020 002B     		cmp	r3, #0
 1234 0022 F0D1     		bne	.L43
 1235 0024 F7E7     		b	.L47
 1236              	.L38:
 1237 0026 9A42     		cmp	r2, r3
 1238 0028 F6D8     		bhi	.L46
 1239 002a 0123     		movs	r3, #1
 1240 002c 002B     		cmp	r3, #0
 1241 002e EAD1     		bne	.L43
 1242 0030 F1E7     		b	.L47
 1243              	.L49:
 1244 0032 00BF     		.align	2
 1245              	.L48:
 1246 0034 001000E0 		.word	-536866816
 1247              		.size	chSysPolledDelayX, .-chSysPolledDelayX
 1248 0038 AFF30080 		.section	.bss.mainthread.6158,"aw",%nobits
 1248      AFF30080 
 1249              		.align	2
 1250              		.set	.LANCHOR0,. + 0
 1251              		.type	mainthread.6158, %object
 1252              		.size	mainthread.6158, 68
 1253              	mainthread.6158:
 1254 0000 00000000 		.space	68
 1254      00000000 
 1254      00000000 
 1254      00000000 
 1254      00000000 
 1255              		.section	.rodata.str1.4,"aMS",%progbits,1
 1256              		.align	2
 1257              	.LC0:
 1258 0000 69646C65 		.ascii	"idle\000"
 1258      00
 1259 0005 000000   		.section	.bss._idle_thread_wa,"aw",%nobits
 1260              		.align	3
 1261              		.set	.LANCHOR1,. + 0
ARM GAS  /tmp/cc1JfMAm.s 			page 80


 1262              		.type	_idle_thread_wa, %object
 1263              		.size	_idle_thread_wa, 216
 1264              	_idle_thread_wa:
 1265 0000 00000000 		.space	216
 1265      00000000 
 1265      00000000 
 1265      00000000 
 1265      00000000 
 1266              		.comm	__gnu_lto_v1,1,1
 1267              		.ident	"GCC: (GNU Tools for ARM Embedded Processors) 4.8.4 20140526 (release) [ARM/embedded-4_8-br
ARM GAS  /tmp/cc1JfMAm.s 			page 81


DEFINED SYMBOLS
                            *ABS*:0000000000000000 chsys.c
     /tmp/cc1JfMAm.s:922    .text._idle_thread:0000000000000000 $t
     /tmp/cc1JfMAm.s:927    .text._idle_thread:0000000000000000 _idle_thread
     /tmp/cc1JfMAm.s:941    .text._idle_thread:000000000000000c $d
     /tmp/cc1JfMAm.s:945    .text.chSysInit:0000000000000000 $t
     /tmp/cc1JfMAm.s:951    .text.chSysInit:0000000000000000 chSysInit
     /tmp/cc1JfMAm.s:1010   .text.chSysInit:0000000000000078 $d
     /tmp/cc1JfMAm.s:1021   .text.chSysHalt:0000000000000000 $t
     /tmp/cc1JfMAm.s:1027   .text.chSysHalt:0000000000000000 chSysHalt
     /tmp/cc1JfMAm.s:1043   .text.chSysHalt:0000000000000008 $d
     /tmp/cc1JfMAm.s:1046   .text.chSysTimerHandlerI:0000000000000000 $t
     /tmp/cc1JfMAm.s:1052   .text.chSysTimerHandlerI:0000000000000000 chSysTimerHandlerI
     /tmp/cc1JfMAm.s:1111   .text.chSysTimerHandlerI:0000000000000074 $d
     /tmp/cc1JfMAm.s:1114   .text.chSysGetStatusAndLockX:0000000000000000 $t
     /tmp/cc1JfMAm.s:1120   .text.chSysGetStatusAndLockX:0000000000000000 chSysGetStatusAndLockX
     /tmp/cc1JfMAm.s:1142   .text.chSysRestoreStatusX:0000000000000000 $t
     /tmp/cc1JfMAm.s:1148   .text.chSysRestoreStatusX:0000000000000000 chSysRestoreStatusX
     /tmp/cc1JfMAm.s:1174   .text.chSysIsCounterWithinX:0000000000000000 $t
     /tmp/cc1JfMAm.s:1180   .text.chSysIsCounterWithinX:0000000000000000 chSysIsCounterWithinX
     /tmp/cc1JfMAm.s:1204   .text.chSysPolledDelayX:0000000000000000 $t
     /tmp/cc1JfMAm.s:1210   .text.chSysPolledDelayX:0000000000000000 chSysPolledDelayX
     /tmp/cc1JfMAm.s:1246   .text.chSysPolledDelayX:0000000000000034 $d
     /tmp/cc1JfMAm.s:1249   .bss.mainthread.6158:0000000000000000 $d
     /tmp/cc1JfMAm.s:1253   .bss.mainthread.6158:0000000000000000 mainthread.6158
     /tmp/cc1JfMAm.s:1256   .rodata.str1.4:0000000000000000 $d
     /tmp/cc1JfMAm.s:1260   .bss._idle_thread_wa:0000000000000000 $d
     /tmp/cc1JfMAm.s:1264   .bss._idle_thread_wa:0000000000000000 _idle_thread_wa
                            *COM*:0000000000000001 __gnu_lto_v1
     /tmp/cc1JfMAm.s:944    .text._idle_thread:0000000000000014 $t
     /tmp/cc1JfMAm.s:1020   .text.chSysInit:000000000000009c $t
     /tmp/cc1JfMAm.s:1045   .text.chSysHalt:000000000000000c $t
     /tmp/cc1JfMAm.s:1113   .text.chSysTimerHandlerI:0000000000000078 $t
     /tmp/cc1JfMAm.s:1248   .text.chSysPolledDelayX:0000000000000038 $t

UNDEFINED SYMBOLS
ch
_scheduler_init
_vt_init
_tm_init
_core_init
_heap_init
_thread_init
chThdCreateStatic
ch_debug
stSetAlarm
stStopAlarm
chSchRescheduleS
