ARM GAS  /tmp/ccv6P3jE.s 			page 1


   1              		.syntax unified
   2              		.cpu cortex-m3
   3              		.fpu softvfp
   4              		.eabi_attribute 20, 1
   5              		.eabi_attribute 21, 1
   6              		.eabi_attribute 23, 3
   7              		.eabi_attribute 24, 1
   8              		.eabi_attribute 25, 1
   9              		.eabi_attribute 26, 1
  10              		.eabi_attribute 30, 2
  11              		.eabi_attribute 34, 1
  12              		.eabi_attribute 18, 4
  13              		.thumb
  14              		.file	"chtm.c"
  15              		.section	.gnu.lto_.jmpfuncs.58a33cc0d9a3d8e2,"",%progbits
  16 0000 789C6362 		.ascii	"x\234cb`b\300\006\034\2404+\003###\023#\013\003#\003"
  16      6062C006 
  16      1CA0342B 
  16      03232323 
  16      13230B03 
  17 0016 10B13232 		.ascii	"\020\26122D0f22\374\007\002~\006\0050\033\250\026J'"
  17      44306632 
  17      32FC0702 
  17      7E060530 
  17      1BA8164A 
  18 002b 40E90646 		.ascii	"@\351\006F\020\003\310bef\000\000:\272\011\200"
  18      1003C862 
  18      65660000 
  18      3ABA0980 
  19              		.text
  20              		.section	.gnu.lto_.inline.58a33cc0d9a3d8e2,"",%progbits
  21 0000 789C6D90 		.ascii	"x\234m\220\261\015\3020\020E\377]\234\304\220\010\""
  21      B10DC230 
  21      1045FF5D 
  21      9CC49008 
  21      22
  22 0011 2442A830 		.ascii	"$B\2500\025\0353\244\240\246b\000FAT\010QPQ\323\260"
  22      151D33A4 
  22      A0A66200 
  22      46415408 
  22      515051D3 
  23 0026 03628A88 		.ascii	"\003b\212\210\021\250(\031\001\373\247!\022.\376\331"
  23      11A82819 
  23      01FBA721 
  23      122EFED9 
  24 0036 DF777E5F 		.ascii	"\337w~_V(\376\255L\332\032\003=+\320\344\263D~^\263"
  24      5628FEAD 
  24      4CDA1A03 
  24      3D2BD0E4 
  24      B3447E5E 
  25 004b 59101B40 		.ascii	"Y\020\033@\243\373\004\351aAK1-}\257\037\212\266\324"
  25      A3FB04E9 
  25      61414B31 
  25      2D7DAF1F 
  25      8AB6D4
  26 005e 9ABA1316 		.ascii	"\232\272\023\026GE^=o\202\374\261R\310;5\012\377\202"
  26      47455E3D 
ARM GAS  /tmp/ccv6P3jE.s 			page 2


  26      6F82FCB1 
  26      52C83B35 
  26      0AFF82
  27 0071 095B4BC3 		.ascii	"\011[K\303B\233a\241\324pvt\375\354\313\324J\015$S\025"
  27      429B61A1 
  27      D4707674 
  27      FDECCBD4 
  27      4A0D2453 
  28 0086 739F67D4 		.ascii	"s\237g\324\234\004\311u\326\322\263\020\252\325\030"
  28      9C04C975 
  28      D6D2B310 
  28      AAD518
  29 0095 D518E627 		.ascii	"\325\030\346'I7C\277\334_\004\203\343\246\223\301#-"
  29      493743BF 
  29      DC5F0483 
  29      E3A693C1 
  29      232D
  30 00a7 C136B805 		.ascii	"\3016\270\005\357\212\200t\004;~\305\027\270:\037\331"
  30      EF8A8074 
  30      043B7EC5 
  30      17B83A1F 
  30      D9
  31              		.text
  32              		.section	.gnu.lto_.pureconst.58a33cc0d9a3d8e2,"",%progbits
  33 0000 789C6362 		.ascii	"x\234cb`b\340f\200\000V\006)F)&)\026\011V)\000\004)"
  33      6062E066 
  33      80005606 
  33      29462926 
  33      29160956 
  34 0018 00A1     		.ascii	"\000\241"
  35              		.text
  36              		.section	.gnu.lto_chTMObjectInit.58a33cc0d9a3d8e2,"",%progbits
  37 0000 789C6362 		.ascii	"x\234cb`b@\007\222@<\225\221\201\301\000H32302M8\307"
  37      60624007 
  37      92403C95 
  37      9181C100 
  37      48333233 
  38 0019 C0D0C8C1 		.ascii	"\300\320\310\301\304\310\010b002\32431\326G2\202\325"
  38      C4C80862 
  38      303032D4 
  38      3331D647 
  38      3282D5
  39 002c AE673AF0 		.ascii	"\256g:\360\340\377\377u\023\332\327\377a\234\303\004"
  39      E0FFFF75 
  39      13DAD7FF 
  39      619CC304 
  40 003c 54930B16 		.ascii	"T\223\013\026gehih\230\240\300\300\220\014\346\206\000"
  40      67656869 
  40      6898A0C0 
  40      C0900CE6 
  40      8600
  41 004e 4990DE50 		.ascii	"I\220\336PF&\020\315|\226\241i\307\215O7\230\022\031"
  41      462610CD 
  41      7C96A169 
  41      C78D4F37 
  41      981219
  42 0061 1732B232 		.ascii	"\0272\2622h3\254j\000\002\336LF\206\331\014\263\030"
ARM GAS  /tmp/ccv6P3jE.s 			page 3


  42      6833AC6A 
  42      0002DE4C 
  42      4686D90C 
  42      B318
  43 0073 331919D3 		.ascii	"3\031\031\323\031\231\"\2004\304iI\020\233\030@\"\314"
  43      19992280 
  43      34C46949 
  43      109B1840 
  43      22CC
  44 0085 FF81801F 		.ascii	"\377\201\200\037\310\001\231\360\203x\023\030\021&0"
  44      C80199F0 
  44      83781318 
  44      112630
  45 0094 4075CFF8 		.ascii	"@u\317\370L\264n&L\335;\260\350f\301\256\233\031S\367"
  45      4CB46E26 
  45      4CDD3BB0 
  45      E866C1AE 
  45      9B1953F7 
  46 00a8 0D2CBA59 		.ascii	"\015,\272Y\261\353f\201\353f\0031.24>8\257\014\321\013"
  46      B1EB6681 
  46      EB660331 
  46      2E32343E 
  46      38AF0CD1 
  47 00bd 032140EF 		.ascii	"\003!@\357\001C\025\244CO?#?7U?9?\245R?%\265L?9#3)3"
  47      014315A4 
  47      434F3F23 
  47      3F37553F 
  47      393FA552 
  48 00db BF58BFA4 		.ascii	"\277X\277\244\2504/[\037\310(*\321/.J\006\212\227\344"
  48      A8342F5B 
  48      1FC8282A 
  48      D12F2E4A 
  48      068A97E4 
  49 00ef EA253300 		.ascii	"\352%3\000\000\336\003o\342"
  49      00DE036F 
  49      E2
  50              		.text
  51              		.section	.gnu.lto_chTMStartMeasurementX.58a33cc0d9a3d8e2,"",%progbits
  52 0000 789C8D50 		.ascii	"x\234\215P=H\0031\024~/1\305\305\237\325Mp\024.\243"
  52      3D480331 
  52      147E2F31 
  52      C5C59FD5 
  52      4D70142E 
  53 0015 93833877 		.ascii	"\223\2038w\221\012:I\233\036\275C\256'wg\321\2519)\270"
  53      910A3A49 
  53      9B1EBD43 
  53      AE277767 
  53      D1A93929 
  54 002a DE281544 		.ascii	"\336(\025Dq+\242\270\013\026\007Al\205\352\346t\223"
  54      712BA2B8 
  54      0B160741 
  54      6C85EAE6 
  54      7493
  55 003c 938B8373 		.ascii	"\223\213\203s}\311\251\203\223\037$\357{\311\367}\274"
  55      7DC9A983 
  55      931F24EF 
  55      7BC9F77D 
ARM GAS  /tmp/ccv6P3jE.s 			page 4


  55      BC
  56 004d 840183BF 		.ascii	"\204\001\203\277\230\243%\020\240I\0259 \313\236\000"
  56      98A32510 
  56      A0491539 
  56      20CB9E00 
  57 005d D2498668 		.ascii	"\322I\206h\010 \264\031\2667\321j\257X?\037\217/\237"
  57      0820B419 
  57      B637D16A 
  57      AF583F1F 
  57      8F2F9F
  58 0070 0F6F0778 		.ascii	"\017o\007x\302J\034\003\004\001\276\275\024\320\321"
  58      C24A1C03 
  58      0401BEBD 
  58      14D0D1
  59 007f 3A9B0750 		.ascii	":\233\007P\266\255\320n\002\326\221\231\312\207p\367"
  59      B6ADD06E 
  59      02D69199 
  59      CA8770F7 
  60 008f 7AD37D3B 		.ascii	"z\323};*\375\352\012\322\177\374\374\340\000U<CAV\353"
  60      2AFDEA0A 
  60      D27FFCFC 
  60      E000553C 
  60      434156EB 
  61 00a3 6DA05884 		.ascii	"m\240X\204\236\356\244\371\313\365\375\010\321G<\206"
  61      9EEEA4F9 
  61      CBF5FD08 
  61      D1473C86 
  62 00b3 6E9AE959 		.ascii	"n\232\351Y\037\331\006\265\\\237j=\015\226\332\301j"
  62      1FD906B5 
  62      5C9F6A3D 
  62      0D96DAC1 
  62      6A
  63 00c4 C657C573 		.ascii	"\306W\305s\312 \014\341\340ap1Sd\232$\302\024MI!\344"
  63      CA200CE1 
  63      E0617031 
  63      53649A24 
  63      C2144D49 
  64 00da 98682037 		.ascii	"\230h 7N\361\355,\236\3260\375\010\322\374}\241\360"
  64      4EF1ED2C 
  64      9ED630FD 
  64      08D2FC7D 
  64      A1F0
  65 00ec FDA04202 		.ascii	"\375\240B\002z\200\3718Gza\340J\025\326\367e\335mI\345"
  65      7A80F938 
  65      477A61E0 
  65      4A15D6F7 
  65      65DD6D49 
  66 0101 F9353F8C 		.ascii	"\3715?\214e\022\3556\267%\221(\221q\244\350<\011\034"
  66      6512ED36 
  66      B7259128 
  66      9171A4E8 
  66      3C091C
  67 0114 05CBFF90 		.ascii	"\005\313\377\220\357\204Q\022\313\225\265\362jy\217"
  67      EF845112 
  67      CB95B5F2 
  67      6A798F
  68 0123 042A8CDC 		.ascii	"\004*\214\334\255\326R\340x\360\005\036\000kT"
ARM GAS  /tmp/ccv6P3jE.s 			page 5


  68      ADD652E0 
  68      78F0051E 
  68      006B54
  69              		.text
  70              		.section	.gnu.lto_chTMStopMeasurementX.58a33cc0d9a3d8e2,"",%progbits
  71 0000 789C8D94 		.ascii	"x\234\215\224=hSQ\024\307\317y_\371\376\030\224b\261"
  71      3D685351 
  71      14C7CF79 
  71      5FF9FE18 
  71      9462B1
  72 0013 C5C5C542 		.ascii	"\305\305\305B\036N\235\034\304I\244\213\264\240\223"
  72      1E4E9D1C 
  72      C449A48B 
  72      B4A093
  73 0022 A4697C09 		.ascii	"\244i|\011\222F\222X\024\207\2764\035\032\\2t\010U\332"
  73      92469258 
  73      1487BE34 
  73      1D1A5C32 
  73      740855DA 
  74 0036 6A17A950 		.ascii	"j\027\251PuR$J\220\342\307P\241\330\241\024\241A\260"
  74      7552244A 
  74      90E2C750 
  74      A1D8A114 
  74      A141B0
  75 0049 A39B5044 		.ascii	"\243\233PDl\317\271\367\275|ii.\344\334{\317\275\347"
  75      6CCFB9F7 
  75      BD7C6969 
  75      2EE4DC7B 
  75      CFBDE7
  76 005c 77FEE73C 		.ascii	"w\376\347<n\024P\240{\\\241\337+\015`\222f\364\000*"
  76      6E1450A0 
  76      7B5CA1DF 
  76      2B0D6092 
  76      66F4002A 
  77 0070 952F0045 		.ascii	"\225/\000E\257\242\250\265A\260\375\332\226\011vPEC"
  77      AFA2A8B5 
  77      41B0FDDA 
  77      96097650 
  77      4543
  78 0082 BA354567 		.ascii	"\2725Eg\207\337\340\303\240\356\272\015D^\000\302\264"
  78      87DFE0C3 
  78      A0EEBA0D 
  78      445E00C2 
  78      B4
  79 0093 A26ABA81 		.ascii	"\242j\272\201\323\327Q\320\237+\365\306\301\301\332"
  79      D3D751D0 
  79      9F2BF5C6 
  79      C1C1DA
  80 00a2 9F8FEF1E 		.ascii	"\237\217\357\036\341S\245O\2054\202\206\031\004\203"
  80      E153A54F 
  80      85348286 
  80      190483
  81 00b1 56948EB6 		.ascii	"V\224\216\266^6>6~6\0016A2J\210M\230M\204}Q64t\230\265"
  81      5E363E36 
  81      7E360136 
  81      41324A88 
  81      4D984D84 
ARM GAS  /tmp/ccv6P3jE.s 			page 6


  82 00cc EDCA1980 		.ascii	"\355\312\031\200\204\330\216\222\345\334c\250\360\254"
  82      84D88E92 
  82      E5DC63A8 
  82      F0AC
  83 00da 6EC0FB9D 		.ascii	"n\300\373\235\332\302^\325h\336\223\213\372\203\365"
  83      DAC25ED5 
  83      68DE938B 
  83      FA83F5
  84 00e9 272A401C 		.ascii	"'*@\034\037\243N\241\"\326Bc\010V\355\331b\343\353\313"
  84      1FA34EA1 
  84      22D64263 
  84      0856EDD9 
  84      62E3EBCB 
  85 00fd 0F9B8869 		.ascii	"\017\233\210iT\037\302B\261bG\323\250]\243\255n/\333"
  85      541FC242 
  85      B16247D3 
  85      A85DA3AD 
  85      6E2FDB
  86 0110 7618C452 		.ascii	"v\030\304R\3243\316qq\\\221\333\015\230\331\371\266"
  86      D433CE71 
  86      715C91DB 
  86      0D98D9F9 
  86      B6
  87 0121 3CDF2FA1 		.ascii	"<\337/\241\026\252Cp\216\312b&\215\267\024e0\317f\236"
  87      16AA4370 
  87      8ECA6226 
  87      8DB71465 
  87      30CF669E 
  88 0135 E73EFCB6 		.ascii	"\347>\374\266\347x\345\315\210\354\014\365:Ptf\367\363"
  88      E778E5CD 
  88      88EC0CF5 
  88      3A507466 
  88      F7F3
  89 0147 30787B51 		.ascii	"0x{Q\355*\301^\231\357oU\240\310\012<2[\375\327\251"
  89      ED2AC15E 
  89      99EF6F55 
  89      A0C80A3C 
  89      325BFDD7 
  90 015c 34FA9AD9 		.ascii	"4\372\232\331\374\226, \340\200E\345\317\\\325\245\271"
  90      FC962C20 
  90      E08045E5 
  90      CF5CD5A5 
  90      B9
  91 016d D2CD38AE 		.ascii	"\322\3158\256\012\315^B\360M\037\312\274\227\345\201"
  91      0ACD5E42 
  91      F04D1FCA 
  91      BC97E581 
  92 017d 5343A837 		.ascii	"SC\2507\250\305\225\260\350\375\305\323.\330'\233qd"
  92      A8C595B0 
  92      E8FDC5D3 
  92      2ED8279B 
  92      7164
  93 018f B4D629A9 		.ascii	"\264\326)\251\\ZC7\224\256\032\004p\374\177\233\376"
  93      5C5A4337 
  93      94AE1A04 
  93      70FC7F9B 
  93      FE
ARM GAS  /tmp/ccv6P3jE.s 			page 7


  94 01a0 80385245 		.ascii	"\2008RE\252\317/<\335J{\311e\261\217\225VwO\272\330"
  94      AACF2F3C 
  94      DD4A7BC9 
  94      65B18F95 
  94      56774FBA 
  95 01b5 A044505C 		.ascii	"\240DP\\\360H\202\336\241v\346g\351MSU\310aRW[%\204"
  95      F04882DE 
  95      A176E667 
  95      E94D5355 
  95      C8615257 
  96 01cc 094B47FF 		.ascii	"\011KG\377\266\264\307,D\220:_/\365\271\314\3101\035"
  96      B6B4C72C 
  96      44903A5F 
  96      2FF5B9CC 
  96      C8311D
  97 01df 35DA347E 		.ascii	"5\3324~\202\365\275b\250\255q\221\326\223\037\243\026"
  97      82F5BD62 
  97      A8AD7191 
  97      D6931FA3 
  97      16
  98 01f0 D606556E 		.ascii	"\326\006Un\342\366\322\211\216.\236\357\215o9>Bi\260"
  98      E2F6D289 
  98      8E2E9EEF 
  98      8D6F393E 
  98      4269B0
  99 0203 65AAE2D3 		.ascii	"e\252\342\323\357\016\270\351\242\307\010\365t\012\375"
  99      EF0EB8E9 
  99      A2C708F5 
  99      740AFD
 100 0212 511C6E13 		.ascii	"Q\034n\023\032m\027\252Cy@\010\255~\337\307\336\225"
 100      1A6D17AA 
 100      43794008 
 100      AD7EDFC7 
 100      DE95
 101 0224 7AFEA7D4 		.ascii	"z\376\247\324\020\377\017\233Pl\224\317\312G\344\216"
 101      10FF0F9B 
 101      506C94CF 
 101      CA47E48E 
 102 0234 517A8074 		.ascii	"Qz\200t\306/*f\246\262\231\244\231\310N\3343'\222Sf"
 102      C62F2A66 
 102      A6B299A4 
 102      99C84EDC 
 102      33279253 
 103 0249 22951E4F 		.ascii	"\"\225\036Og\363f!wg\362\226I\213\\\301\314\347\022"
 103      67F36621 
 103      7767F296 
 103      498B5CC1 
 103      CCE712
 104 025c E42F6462 		.ascii	"\344/db\011\270\320\303\365\333\331\\!o^\274:ri\344"
 104      09B8D0C3 
 104      F5DBD95C 
 104      216F5EBC 
 104      3A7269E4 
 105 0270 2E5D4864 		.ascii	".]Hds\311\033S\303\231X\012\016\001.\0309|"
 105      73C91B53 
 105      C399580A 
 105      0E012E18 
ARM GAS  /tmp/ccv6P3jE.s 			page 8


 105      397C
 106              		.text
 107              		.section	.gnu.lto__tm_init.58a33cc0d9a3d8e2,"",%progbits
 108 0000 789CAD92 		.ascii	"x\234\255\222\301K\033Q\020\306\277y\233DkL\332\336"
 108      C14B1B51 
 108      10C6BF79 
 108      9B446B4C 
 108      DADE
 109 0012 DA534B7B 		.ascii	"\332SK{\252\202K\320\376'\026\3541YC|\224\030H\242\240"
 109      AA824BD0 
 109      FE2716EC 
 109      3159437C 
 109      941848A2 
 110 0027 39E44503 		.ascii	"9\344E\003z)\344R\020=\211\010*J\016\366\220\343\322"
 110      7A29E452 
 110      103D8908 
 110      2A4A0EF6 
 110      90E3D2
 111 003a 5BA1517A 		.ascii	"[\241Qz\013=m\351\241`.\245\275\224^\266\363\362v\325"
 111      0B3D6DE9 
 111      A1602EA5 
 111      BD945EB6 
 111      F3F276D5 
 112 004e C8929303 		.ascii	"\310\222\223\003\2733\354\316o\276og\237\200\300\335"
 112      BB33ECCE 
 112      6FBE6F67 
 112      9F80C0DD 
 113 005e 78CAD76B 		.ascii	"x\312\327k\013\230\345L\026H\264.\200\306\270 \322\005"
 113      0B98E54C 
 113      1648B42E 
 113      80C6B820 
 113      D205
 114 0070 087541F5 		.ascii	"\010uA\365\267\244[\351\005\366\225\333\362\016\177"
 114      B7A45BE9 
 114      05F695DB 
 114      F20E7F
 115 007f FE120DE5 		.ascii	"\376\022\015\345\356\250\246\353\373\364L\022\217\315"
 115      EEA8A6EB 
 115      FBF44C12 
 115      8FCD
 116 008d 101CC202 		.ascii	"\020\034\302\002I\"\327d\361dX\250-\\\317\367\277\234"
 116      4922D764 
 116      F16458A8 
 116      2D5CCFF7 
 116      BF9C
 117 009f 7FFCDEA6 		.ascii	"\177\374\336\246\307\351\004$\253\001q4\225j=\317\322"
 117      C7E90424 
 117      AB017134 
 117      956A3DCF 
 117      D2
 118 00b0 3E4F879E 		.ascii	">O\207\236\3011\317w\255\376\206\204\316V\027\033\235"
 118      C131CF77 
 118      ADFE8684 
 118      CE56171B 
 118      9D
 119 00c1 DE952BB2 		.ascii	"\336\225+\262t@qL\343Dqd$\305\2022))\276\207\335\206"
 119      7440714C 
ARM GAS  /tmp/ccv6P3jE.s 			page 9


 119      E3447164 
 119      24C58232 
 119      2929BE87 
 120 00d7 528F2425 		.ascii	"R\217$%j\370\247\266u5V\034L\323f\306\006\026r\204 "
 120      6AF8A7B6 
 120      7535561C 
 120      4CD366C6 
 120      06167284 
 121 00ec 9B42BF89 		.ascii	"\233B\277\211\351b \360\273'\0027\241-\325~\377\012"
 121      E96220F0 
 121      BB270237 
 121      A12DD57E 
 121      FF0A
 122 00fe 30AA8E61 		.ascii	"0\252\216a\214\242\373a\313b\324\270\316\261Kn:\346"
 122      8CA2FB61 
 122      CB62D4B8 
 122      CEB14B6E 
 122      3AE6
 123 0110 A6C144CB 		.ascii	"\246\301D\313\347x\030L\375\313S\263ttc;u\213\263\206"
 123      E778184C 
 123      FDCB53B3 
 123      7474633B 
 123      758BB386 
 124 0124 B9D0C9CE 		.ascii	"\271\320\311\316\237\021L,\232\351D0\343!\023\217fz"
 124      9F114C2C 
 124      9AE94430 
 124      E321138F 
 124      667A
 125 0136 11CC8390 		.ascii	"\021\314\203\220I\0141\023\232\271D\323;\335L\233}\000"
 125      490C3113 
 125      9AB944D3 
 125      3BDD4C9B 
 125      7D00
 126 0148 D77B4E3A 		.ascii	"\327{N:d\316U\015\353\222&\315\204\240KR\312\200g?\222"
 126      64CE550D 
 126      EB9226CD 
 126      84A04B52 
 126      CA80673F 
 127 015d 51A03512 		.ascii	"Q\2405\022d\227\337z}/\370\361\005JLcjx\027\010>\346"
 127      6497DF7A 
 127      7D2FF8F1 
 127      054A4C63 
 127      6A781708 
 128 0173 736BE2BE 		.ascii	"sk\342\276OGA\357\240\213O\375@\336\250\316\341\\m3"
 128      4F4741EF 
 128      A08B4FFD 
 128      40DEA8CE 
 128      E15C6D33 
 129 0187 A33BBEA2 		.ascii	"\243;\276\242\341\265_\206\237eb\236i>\263z!3\366R\251"
 129      E1B55F86 
 129      9F65629E 
 129      693EB37A 
 129      2133F652 
 130 019c 98B79DD2 		.ascii	"\230\267\235\322\342\232\275\230_\265\235%\231\223\245"
 130      E29ABD98 
 130      5FB59D25 
 130      9993A5
ARM GAS  /tmp/ccv6P3jE.s 			page 10


 131 01ab 8A5D2DAF 		.ascii	"\212]-\257,\277\263\271(W\355J\331\341\347\325\342\214"
 131      2CBFB3B9 
 131      2857ED4A 
 131      D9E1E7D5 
 131      E28C
 132 01bd 03512DFE 		.ascii	"\003Q-\376\007~]\330_"
 132      077E5DD8 
 132      5F
 133              		.text
 134              		.section	.gnu.lto_chTMChainMeasurementToX.58a33cc0d9a3d8e2,"",%progbits
 135 0000 789C8D93 		.ascii	"x\234\215\223Mh\023A\024\200\337\233\335\331\3744\177"
 135      4D681341 
 135      1480DF9B 
 135      DDD9FC34 
 135      7F
 136 0011 07A52836 		.ascii	"\007\245(6x\351\305B\026O=y\020O\"\275H\013z\222t\033"
 136      78E9C542 
 136      164F3D79 
 136      104F22BD 
 136      480B7A92 
 137 0027 D345D248 		.ascii	"\323E\322H\022K\305Cg\223\036\354-\227B\250\320*^T\244"
 137      124BC543 
 137      67931EEC 
 137      2D9742A8 
 137      D02A5E54 
 138 003c D19B680E 		.ascii	"\321\233h\016Q\212\370C\305b\205R\204\006\301\036\275"
 138      518AF843 
 138      C5628552 
 138      8406C11E 
 138      BD
 139 004d 09BDD537 		.ascii	"\011\275\3257;\331\346\307Jw!o\347\357}\363\315\333"
 139      3BD9E6C7 
 139      4A77216F 
 139      E7EF7DF3 
 139      CDDB
 140 005f 0C0306FD 		.ascii	"\014\003\006\375\317\025\372\335\323\001f\350\215\001"
 140      CF15FADD 
 140      D30166E8 
 140      8D01
 141 006d 4056FD02 		.ascii	"@V\375\002\340\004\031\323\032I\020a}\313\004\021\321"
 141      E00419D3 
 141      1A491061 
 141      7DCB0411 
 141      D1
 142 007e D050C33A 		.ascii	"\320P\303:\343r l\310\311\010\367\206\015D\331\000\204"
 142      E372206C 
 142      C8C908F7 
 142      860D44D9 
 142      0084
 143 0090 79A6E9DC 		.ascii	"y\246\351\334\300\371\353\350\322\353\254\331:8X\373"
 143      C0F9EBE8 
 143      D2EBACD9 
 143      3A3858FB 
 144 00a0 FA69FD2D 		.ascii	"\372i\375-\326\207\0075\314!p\012\264\223\215\020\244"
 144      D6870735 
 144      CC21700A 
 144      B4938D10 
ARM GAS  /tmp/ccv6P3jE.s 			page 11


 144      A4
 145 00b1 802119C2 		.ascii	"\200!\031\3022\014\310\020\241\300\2422\304d\210\313"
 145      320CC810 
 145      A1C0A232 
 145      C46488CB 
 146 00c1 B1840C44 		.ascii	"\261\204\014D\343\260 D\365,\200\345\322\307)\312m'"
 146      E3B02044 
 146      F52C80E5 
 146      D2C729CA 
 146      6D27
 147 00d3 90C9B7B6 		.ascii	"\220\311\267\266\001\357v\032\313{5\343p\235j4?\177"
 147      01EF761A 
 147      CB7B35E3 
 147      709D6A34 
 147      3F7F
 148 00e5 2F738034 		.ascii	"/s\2004>BN\251nn\026\003#\360L,8\255o/\337o\"\332\250"
 148      3E424EA9 
 148      6E6E1603 
 148      23F04C2C 
 148      38AD6F2F 
 149 00fe 3D8065A7 		.ascii	"=\200e\247*\0226\352\327\250\313\305C!b\3406\335\243"
 149      2A1236EA 
 149      D7A8CBC5 
 149      432162E0 
 149      36DDA3
 150 0111 4CCABC34 		.ascii	"L\312\2744>V\335\015(\177\374\361|)\251\240\022EO\234"
 150      3E56DD0D 
 150      287FFCF1 
 150      7C29A9A0 
 150      12454F9C 
 151 0125 CE44144A 		.ascii	"\316D\024J1\262\250\311\324@;UU#+\373\224\271\263\275"
 151      31B2A8C9 
 151      D4403B55 
 151      55232BFB 
 151      94B9B3BD 
 152 0139 A2F5398A 		.ascii	"\242\3659\2127K\247;\212L\255\016*n\363\317)\033\203"
 152      374BA73B 
 152      8A4CAD0E 
 152      2A6EF3CF 
 152      291B83
 153 014c 524F483D 		.ascii	"ROH=b\363n6\223yO=\255\312\375\312\3154>\241n\026C\204"
 153      62F36E36 
 153      93794F3D 
 153      ADCAFDCA 
 153      CD343EA1 
 154 0164 902B83A8 		.ascii	"\220+\203\250\214/\253\211\266m\324\037\2240Jz\177\345"
 154      8C2FAB89 
 154      B66DD41F 
 154      94304A7A 
 154      7FE5
 155 0176 8C070E8F 		.ascii	"\214\007\016\217\3009u\326\243\263\261Wi\261\262\206"
 155      C03975D6 
 155      A3B3B157 
 155      69B1B286 
 156 0186 5EEA0015 		.ascii	"^\352\000\025\201\000\252\202/\002\375F~\230\004QF\265"
 156      8100AA82 
 156      2F02FD46 
ARM GAS  /tmp/ccv6P3jE.s 			page 12


 156      7E980451 
 156      46B5
 157 0198 DD931E36 		.ascii	"\335\223\0366\242\020\224\027\372/A\353\261*\377\256"
 157      A2109417 
 157      FA2F41EB 
 157      B12AFFAE 
 158 01a8 BC3EB48A 		.ascii	"\274>\264\212\266\231T\275\216j\214\2604\365o\351|\356"
 158      B69954BD 
 158      8E6A8CB0 
 158      34F56FE9 
 158      7CEE
 159 01ba 4204E5F9 		.ascii	"B\004\345\371ju\320c\306\217\251\234\336\345\370\001"
 159      6A75D063 
 159      C68FA99C 
 159      DEE5F801 
 160 01ca D6F79C68 		.ascii	"\326\367\234hW\341\342\235k;A\3734\222\232,\342\366"
 160      57E1E29D 
 160      6B3B41FB 
 160      34929A2C 
 160      E2F6
 161 01dc EA899E2A 		.ascii	"\352\211\236*\236\367\307wO\254P:l\231\232\373\211w"
 161      9EF7C777 
 161      4FAC503A 
 161      6C999AFB 
 161      8977
 162 01ee 87BCED12 		.ascii	"\207\274\355\022\307\210\362^\321_\316h\227h\242[\224"
 162      C788F25E 
 162      D15FCE68 
 162      9768A25B 
 162      94
 163 01ff C3E2902B 		.ascii	"\303\342\220+Z\373\271\217\376M\371Q\246\206{\3217\301"
 163      5AFBB98F 
 163      FE4DF951 
 163      A6867BD1 
 163      37C1
 164 0211 69D587D5 		.ascii	"i\325\207\325e\361\236q\372\203\320\234\2749)s:\237"
 164      65F19E71 
 164      FA83D09C 
 164      BC392973 
 164      3A9F
 165 0223 CB98567E 		.ascii	"\313\230V~\352\2569\225\2315\255i{\322\316\027\315R"
 165      EAAE3995 
 165      9935AD69 
 165      7BD2CE17 
 165      CD52
 166 0235 E1CECC2D 		.ascii	"\341\316\314-\223\032\205\222Y,X4^\312\245,\270\340"
 166      931A8592 
 166      592C5834 
 166      5ECAA52C 
 166      B8E0
 167 0247 63F9ED7C 		.ascii	"c\371\355|\241T4/^\035\27346G\013\254|!scv4\227\232"
 167      A154342F 
 167      5E1DBB34 
 167      36470BAC 
 167      7C217363 
 168 025f 86BFF0E1 		.ascii	"\206\277\360\341,@"
 168      2C40
ARM GAS  /tmp/ccv6P3jE.s 			page 13


 169              		.text
 170              		.section	.gnu.lto_.symbol_nodes.58a33cc0d9a3d8e2,"",%progbits
 171 0000 789C4D8A 		.ascii	"x\234M\212\273\015\2000\024\003m'l\312\036nS2\001\013"
 171      BB0D8030 
 171      14036D27 
 171      6CCA1E6E 
 171      5332010B 
 172 0014 F09D8101 		.ascii	"\360\235\201\001\330!\014\202x\005R\342\346|\322\011"
 172      D8210C82 
 172      780552E2 
 172      E67CD209 
 173 0024 C2887F5A 		.ascii	"\302\210\177Zi`\272\001{.\324F\263\323\235V\323\341"
 173      6960BA01 
 173      7B2ED446 
 173      B3D39D56 
 173      D3E1
 174 0036 643C68A1 		.ascii	"d<h\241S\027\035tn\2322q\3257(<A|\365\221\036\227"
 174      53171D74 
 174      6E9A3271 
 174      D537283C 
 174      417CF591 
 175              		.text
 176              		.section	.gnu.lto_.refs.58a33cc0d9a3d8e2,"",%progbits
 177 0000 789C6362 		.ascii	"x\234cb`b\340f\200\000F&\006f&\026FfFf\006\000\001\267"
 177      6062E066 
 177      80004626 
 177      06662616 
 177      46664666 
 178 0018 0024     		.ascii	"\000$"
 179              		.text
 180              		.section	.gnu.lto_.decls.58a33cc0d9a3d8e2,"",%progbits
 181 0000 789CBD5B 		.ascii	"x\234\275[\177p\324\306\275_I\347;\037v\300M\223\324"
 181      7F70D4C6 
 181      BD5F49E7 
 181      3B1F76C0 
 181      4D93D4
 182 0013 79E14D9C 		.ascii	"y\341M\234N\372&\323Nj\003iJ\246})\035C\033\246!a\200"
 182      4EFA26D3 
 182      4E6A0369 
 182      4AA67D29 
 182      1D431BA6 
 183 002a BC47673A 		.ascii	"\274Gg:s\021g\201\257\365\335\271:\035?\376\252\300"
 183      73116781 
 183      AFF5DDB9 
 183      3A1D3FFE 
 183      AAC0
 184 003c FC4C001B 		.ascii	"\374L\000\033CRB\0106\024\022H\351+&\201\000\005\254"
 184      43524208 
 184      36141248 
 184      E92B2681 
 184      0005AC
 185 004f 34011BD3 		.ascii	"4\001\033\323\330`\014\201&\340k))\244\244\206\030p"
 185      D8600C81 
 185      26E06B29 
 185      29A4A486 
 185      1870
 186 0061 C080DFEE 		.ascii	"\300\200\337\356W?N\253\223\316\322\225Ts\372\336J\273"
ARM GAS  /tmp/ccv6P3jE.s 			page 14


 186      573F4EAB 
 186      93CED295 
 186      5473FADE 
 186      4ABB
 187 0073 FBD9EFAF 		.ascii	"\373\331\357\257\335\375\356Jb\021\213\252X\204\006"
 187      DDFDEE4A 
 187      62118BAA 
 187      588406
 188 0082 F071ECFB 		.ascii	"\360q\354\373\010\215\015 \344G\010=\211O|\033\341K"
 188      088D0D20 
 188      E447083D 
 188      894F7C1B 
 188      E14B
 189 0094 1444EA91 		.ascii	"\024D\352\221\207\317\365\370l\307g\027>O\341\3634>"
 189      87CFF5F8 
 189      6CC76717 
 189      3E4FE1F3 
 189      343E
 190 00a6 197C9E47 		.ascii	"\031|\236G\364\261^\253\273\025\237\233\360\271Q\273"
 190      F4B15EAB 
 190      BB159F9B 
 190      F0B951BB 
 191 00b6 FE033E15 		.ascii	"\376\003>\025\015\223\340\375\026\237;\361\271\013\237"
 191      0D93E0FD 
 191      169F3BF1 
 191      B90B9F
 192 00c5 7BF0D9AC 		.ascii	"{\360\331\254\341\255\327\376\017[pI\333~\015\367$."
 192      E1ADD7FE 
 192      0F5B7049 
 192      DB7E0DF7 
 192      242E
 193 00d7 700A9FC3 		.ascii	"p\012\237\303\330t\033\204\347\024\243\342\261Z\371"
 193      D8741B84 
 193      E714A3E2 
 193      B15AF9
 194 00e6 2256C5EA 		.ascii	"\"V\305\352\264`\021\031\3562\361\031\264`v\340\377"
 194      B4601119 
 194      EE32F119 
 194      B46076E0 
 194      FF
 195 00f7 0BF8DE3D 		.ascii	"\013\370\336=\254\312\267\336\006\341?_k\247\035\237"
 195      ACCAB7DE 
 195      06E13F5F 
 195      6BA71D9F 
 196 0107 5D8CCAFB 		.ascii	"]\214\312\373.\215\377\235\232\\\234\326\006i\377^V"
 196      2E8DFF9D 
 196      9A5C9CD6 
 196      0669FF5E 
 196      56
 197 0118 E5E7431B 		.ascii	"\345\347C\033]\021=\016\325\360\311\177\241\211'+\017"
 197      5D113D0E 
 197      D5F0C97F 
 197      A189272B 
 197      0F
 198 0129 BAEE4A58 		.ascii	"\272\356JX\225\227\015ZY\235\017;}\372\2646\314\266"
 198      95970D5A 
 198      599D0F3B 
ARM GAS  /tmp/ccv6P3jE.s 			page 15


 198      7DFAB436 
 198      CCB6
 199 013b B3B319B1 		.ascii	"\263\263\031\261\345\020\255]\335\356v:\326\371\360"
 199      E510AD5D 
 199      DDEE763A 
 199      D6F9F0
 200 014a 9B74ADB7 		.ascii	"\233t\255\267e\226\375\264E\366s\370<ki\363A\264NN]"
 200      6596FDB4 
 200      45F673F8 
 200      3C6B69F3 
 200      41B44E4E 
 201 015f 4A2DF87C 		.ascii	"J-\370|\333\375r\343<e`\240Yf\320}\350%\031\037\215"
 201      DBFD72E3 
 201      3C6560A0 
 201      5966D07D 
 201      E825191F 
 202 0174 0B659991 		.ascii	"\013e\231\221x\346\311{\321T\206g\206\006Q\011$\012"
 202      78E6C97B 
 202      D1548667 
 202      86065109 
 202      240A
 203 0186 83201242 		.ascii	"\203 \022B<\263\201\271\017R\0344\200\012\320\013\262"
 203      3CB381B9 
 203      0F521C34 
 203      800AD00B 
 203      B2
 204 0197 3C8F547C 		.ascii	"<\217T|\252u\350\335h\005A)Y|\026\363\250\001(\214\216"
 204      AA75E8DD 
 204      68054129 
 204      597C16F3 
 204      A801288C 
 205 01ac 508C8B7F 		.ascii	"P\214\213\177\003m\224\345\272\324\261[K9Y\316\347\231"
 205      036D94E5 
 205      BAD4B15B 
 205      4B3959CE 
 205      E799
 206 01be 4DCCDD18 		.ascii	"M\314\335\030\247\202A\337D[p\315:Y\376\353\367\030"
 206      A78241DF 
 206      445B70CD 
 206      3A59FEEB 
 206      F718
 207 01d0 94790C8E 		.ascii	"\224y\014\216Lx\333\202\321xf3\363M\265\035Yy\353`\241"
 207      4C78DB82 
 207      D1786633 
 207      F34DB51D 
 207      5979EB60 
 208 01e5 EC53EF23 		.ascii	"\354S\357#-\307\346x\0105b\031\224\035\007\327b\215"
 208      2DC7E678 
 208      08356219 
 208      941D07D7 
 208      628D
 209 01f7 FC9109A2 		.ascii	"\374\221\011\242\305i\221\220\255\"41n-j9\312\324`\225"
 209      C5699190 
 209      AD223431 
 209      6E2D6A39 
 209      CAD46095 
 210 020b F1CC565C 		.ascii	"\361\314V\\\215E-\014C5\343\036\252y\371\201w\231y\000"
ARM GAS  /tmp/ccv6P3jE.s 			page 16


 210      8D452D0C 
 210      4335E31E 
 210      AA79F981 
 210      77997900 
 211 021f F57B80BA 		.ascii	"\365{\200\272\2223T\177\355\336'@\271\333\001h;K\003"
 211      9233547F 
 211      EDDE2740 
 211      B9DB0168 
 211      3B4B03
 212 0232 F14C2068 		.ascii	"\361L h\226\036\256\365\002\004\015\262\265\004\031"
 212      961EAEF5 
 212      02040DB2 
 212      B50419
 213 0241 A486A12F 		.ascii	"\244\206\241/\2718\213\366\001\217\304LvriI\365\320"
 213      B9388BF6 
 213      018FC44C 
 213      76726949 
 213      F5D0
 214 0253 0A50A64B 		.ascii	"\012P\246Ku~\266\024L\247\333\341\217\236\361J(W\330"
 214      757EB614 
 214      4CA7DBE1 
 214      8F9EF14A 
 214      2857D8
 215 0266 75B0B08E 		.ascii	"u\260\260\216\327\301Z\335\200\345;2\247\354!`\036\234"
 215      D7C15ADD 
 215      80E53B32 
 215      A7EC2160 
 215      1E9C
 216 0278 AAE5B8EE 		.ascii	"\252\345\270\356T\177\200\366?\3100 \361\020\317:\356"
 216      547F80F6 
 216      3FC83020 
 216      F110CF3A 
 216      EE
 217 0289 F22C06A5 		.ascii	"\362,\006\245\223\324\261\353K\237X#+\253\3134Q\224"
 217      93D4B1EB 
 217      4B9F5823 
 217      2BABCB34 
 217      5194
 218 029b 85F26266 		.ascii	"\205\362bfn\323p\243\370\0303\210!\214\321C\024\020"
 218      6ED370A3 
 218      F8183388 
 218      218CD143 
 218      1410
 219 02ad E6046BEB 		.ascii	"\346\004k\353\326\256\300\232\227w\350}\344=\000\353"
 219      D6AEC09A 
 219      9777E87D 
 219      E43D00EB 
 220 02bd CE1DACB1 		.ascii	"\316\035\254\261\277c8\031\032\016\002\320\371\014\025"
 220      BF633819 
 220      1A0E02D0 
 220      F90C15
 221 02cc 072D1A0E 		.ascii	"\007-\032\016\322\032\016\006\323\211\001\375\240\007"
 221      D21A0E06 
 221      D38901FD 
 221      A007
 222 02da AE2FB50E 		.ascii	"\256/\265\016\213z\255\346\244\204\324\222E6^iw\230"
 222      8B7AADE6 
ARM GAS  /tmp/ccv6P3jE.s 			page 17


 222      A484D492 
 222      45365E69 
 222      7798
 223 02ec 874E9E79 		.ascii	"\207N\236y\223\371\006\246\277e\036\302t'\320]@\367"
 223      93F906A6 
 223      BF651EC2 
 223      7427D05D 
 223      40F7
 224 02fe 006DC6D4 		.ascii	"\000m\306\3248\234f\211\215LA\032\3739\316(\317\242"
 224      389C6689 
 224      8D4C411A 
 224      FB39CE28 
 224      CFA2
 225 0310 DB16553F 		.ascii	"\333\026U?\214~#\313\365x:j\315{EV|jU\026-\343H\261"
 225      8C7E23CB 
 225      F5783A6A 
 225      CD7B4556 
 225      7C6A5516 
 226 0328 F5CC83B6 		.ascii	"\365\314\203\266M\030\015\374\027\332D\346\205e\362"
 226      4D180DFC 
 226      17DA44E6 
 226      8565F2
 227 0337 822206A6 		.ascii	"\202\"\006\246-\244\325\242\204kcX\363\015u\006T\216"
 227      2DA4D5A2 
 227      846B6358 
 227      F30D7506 
 227      548E
 228 0349 B5D4EA33 		.ascii	"\265\324\3523\340\030mbc\321\012\316\314\036Lr,z\203"
 228      E0186D62 
 228      63D10ACE 
 228      CC1E4C72 
 228      2C7A83
 229 035c 63CCCCCA 		.ascii	"c\314\314\312\275\302S*\007<\363'\014\3153\355.\371"
 229      BDC2532A 
 229      073CF327 
 229      0CCD33ED 
 229      2EF9
 230 036e 6C962716 		.ascii	"l\226'\026\033l\266[\331\354\260e\363fKa\335\334\324"
 230      1B6CB65B 
 230      D9ECB065 
 230      F3664B61 
 230      DDDCD4
 231 0381 C0404389 		.ascii	"\300@C\211\316\343\266L\036y\346\250^Y\343\361\262\225"
 231      CEE3B64C 
 231      1E79E6A8 
 231      5E59E3F1 
 231      B295
 232 0393 C7AE5C78 		.ascii	"\307\256\\x\354\262\362x<\223\307\306\224\262{\341a"
 232      ECB2F278 
 232      3C93C7C6 
 232      94B27BE1 
 232      61
 233 03a4 06B77973 		.ascii	"\006\267ys`\200\363\020J\374Y\013%\322\036\302\242\003"
 233      6080F310 
 233      4AFC590B 
 233      25D21EC2 
 233      A203
ARM GAS  /tmp/ccv6P3jE.s 			page 18


 234 03b6 1CED1E06 		.ascii	"\034\355\036\006[\362f\2313\330:ee\353#[\266\232\333"
 234      5BF26699 
 234      33D83A65 
 234      65EB235B 
 234      B69ADB
 235 03c9 4C1676CF 		.ascii	"L\026v\317\327\031:\304Q\025D]\240\014\267nwc\223>\335"
 235      D7193AC4 
 235      5115445D 
 235      A00CB76E 
 235      7763933E 
 236 03de 262CFA04 		.ascii	"&,\372\004\312\237\316n\023\265\232r\244\255\260\216"
 236      CA9FCE6E 
 236      13B59A72 
 236      A4ADB08E 
 237 03ee D12BFEC3 		.ascii	"\321+\376\303ME]kX\003\303^x\336P\333i\253\332\376B"
 237      4D455D6B 
 237      5803C35E 
 237      78DE50DB 
 237      69ABDAFE 
 238 0403 ABEDEB68 		.ascii	"\253\355\353h\275\234\252K\035\355\0368\300\324\313"
 238      BD9CAA4B 
 238      1DED1E38 
 238      C0D4CB
 239 0412 8DAD1800 		.ascii	"\215\255\030\000\2176\017\352\301\227i\342\2229\275"
 239      8F360FEA 
 239      C19769E2 
 239      9239BD
 240 0421 D532648C 		.ascii	"\3252d\214\317\257\236M\375\347\036Y.\342\231\013\020"
 240      CFAF9E4D 
 240      FDE71E59 
 240      2EE2990B 
 240      10
 241 0432 D69DF1D1 		.ascii	"\326\235\361\321\266\034\024\207E\237B\225\213\2268"
 241      B61C1487 
 241      459F4295 
 241      8B9638
 242 0441 2E75B4E1 		.ascii	".u\264\341\300\002f.\214\374\027]\304r\262\362\332\211"
 242      C002662E 
 242      8CFC175D 
 242      C472B2F2 
 242      DA89
 243 0453 B50C0908 		.ascii	"\265\014\011\010l\232L\031a\343p3\353'\377c?\260~\011"
 243      6C9A4C19 
 243      61E37033 
 243      EB27FF63 
 243      3FB07E09 
 244 0467 58BF3238 		.ascii	"X\27728\3534\016\213\346\346\221*\275\231\254w\315\327"
 244      EB340E8B 
 244      E6E6912A 
 244      BD99AC77 
 244      CDD7
 245 0479 58EF75C5 		.ascii	"X\357u\305\372\261NG\326\355&E\254\364\373\017\001\347"
 245      FAB14E47 
 245      D6ED2645 
 245      ACF4FB0F 
 245      01E7
 246 048b 7DC0796D 		.ascii	"}\300ym\236-\347\215c\234pX\324\000Undp\336\3355W\343"
ARM GAS  /tmp/ccv6P3jE.s 			page 19


 246      9E2DE78D 
 246      639C7058 
 246      D400556E 
 246      6470DEDD 
 247 04a2 FC86AB00 		.ascii	"\374\206\253\000\372\370\302\327 \012\263]\023\230\232"
 247      FAF8C2D7 
 247      200AB35D 
 247      13989A
 248 04b1 6FF4E9ED 		.ascii	"o\364\351\355\217M\313\261\346\254R\014Q\353\000\210"
 248      8F4DCBB1 
 248      E6AC520C 
 248      51EB0088 
 249 04c1 B1CD5E0C 		.ascii	"\261\315^\014g\030\026\355\206*\363\330\014\003\234"
 249      671816ED 
 249      862AF3D8 
 249      0C039C
 250 04d0 D1C52079 		.ascii	"\321\305 y\203\213\321\257\211\3013\267\241\307\275"
 250      838BD1AF 
 250      89C133B7 
 250      A1C7BD
 251 04df 67E0E614 		.ascii	"g\340\346\024\234*\267\325`R\005k\363\014VB\201\255"
 251      9C2AB7D5 
 251      6052056B 
 251      F30C5642 
 251      81AD
 252 04f1 6CF1BC48 		.ascii	"l\361\274Hii\327C\260\027X\022\354\034\315\273#\361"
 252      6969D743 
 252      B0175812 
 252      EC1CCDBB 
 252      23F1
 253 0503 E4293792 		.ascii	"\344)7\2228\206\305\304.\347V0+k\344\3262\335E\375N"
 253      3886C5C4 
 253      2EE75630 
 253      2B6BE4D6 
 253      32DD45FD 
 254 0518 92B02805 		.ascii	"\222\260(\005\215\325Zm\333\324s\344\321\325\340\374"
 254      8DD55A6D 
 254      DBD473E4 
 254      D1D5E0FC 
 255 0528 B5AE4CFB 		.ascii	"\265\256L\373\316\341_\273\363PVo\376ah~\203\2374\277"
 255      CEE15FBB 
 255      F350566F 
 255      FE61687E 
 255      839F34BF 
 256 053c CADAFCBE 		.ascii	"\312\332\374\276\336\363O\252\315\257r\325|S\347\252"
 256      DEF34FAA 
 256      CDAF72D5 
 256      7C53E7AA 
 257 054c CCE61DA7 		.ascii	"\314\346\035\247\"\315~M=\227\036i\200FV\263\304\203"
 257      22CD7E4D 
 257      3D971E69 
 257      804656B3 
 257      C483
 258 055e 2EFAADE6 		.ascii	".\372\255\346\373A\201\271-\2706\025`\321U\203\373\334"
 258      FB4181B9 
 258      2DB83615 
 258      60D15583 
ARM GAS  /tmp/ccv6P3jE.s 			page 20


 258      FBDC
 259 0570 5657FB7A 		.ascii	"VW\373z[\307o\331.\313K\374:\017_xF\244\275\370\355"
 259      5BC76FD9 
 259      2ECB4BFC 
 259      3A0F5F78 
 259      46A4BDF8 
 260 0585 4EE8122A 		.ascii	"N\350\022*X\277\033\260,\353\253\235f\260\333\236\301"
 260      58BF1BB0 
 260      2CEBAB9D 
 260      66B0DB9E 
 260      C1
 261 0596 68CE7699 		.ascii	"h\316v\231\301\346\006\\\200\331\305\330\372\312\317"
 261      C1E6065C 
 261      80D9C5D8 
 261      FACACF
 262 05a5 0C36DF33 		.ascii	"\0146\3373\030\315\331^3\330\"7`\305\316\234\3557\203"
 262      18CDD95E 
 262      33D82237 
 262      60C5CE9C 
 262      ED3783
 263 05b8 BDE8198C 		.ascii	"\275\350\031\214\346\354\210\031\254\326\015X\211\015"
 263      E6EC8819 
 263      ACD60D58 
 263      890D
 264 05c6 67C6E114 		.ascii	"g\306\341\024\226\255d\015?gQ}@\037\020<\3724Jc\274"
 264      96AD640D 
 264      3F67517D 
 264      401F103C 
 264      FA344A63 
 265 05db 1CF03A82 		.ascii	"\034\360:\202Qr\343\021\354\223\365\352\010\246\217"
 265      5172E311 
 265      EC93F5EA 
 265      08A68F
 266 05ea EE6BDD20 		.ascii	"\356k\335 fq\2305-\246\251b\243g0\213+\0230j\250\321"
 266      66719835 
 266      2DA6A962 
 266      A367308B 
 266      2B13306A 
 267 0600 268DD426 		.ascii	"&\215\324&\245xuz\260\313\327\261\310\"G\035\331\352"
 267      A578757A 
 267      B0CBD7B1 
 267      C822471D 
 267      D9EA
 268 0612 6499350A 		.ascii	"d\2315\012\313\305\305\366eyf\007KV\212;\331\240\301"
 268      CBC5C5F6 
 268      65796607 
 268      4B568A3B 
 268      D9A0C1
 269 0625 859AD653 		.ascii	"\205\232\326S\352Ruk\300nK\017\000\262Wu\362\204\267"
 269      EA52756B 
 269      C06E4B0F 
 269      00B25775 
 269      F284B7
 270 0638 CC9ED0E4 		.ascii	"\314\236\320\344FMY\272Bw\313\332\257\311)\2051\311"
 270      464D59BA 
 270      4277CBDA 
 270      AFC92985 
ARM GAS  /tmp/ccv6P3jE.s 			page 21


 270      31C9
 271 064a 9B553964 		.ascii	"\233U9d\333\357\003}F\335\0033\352\256\200\355>\204"
 271      DBEF037D 
 271      46DD0333 
 271      EAAE80ED 
 271      3E84
 272 065c 0BA8E6E5 		.ascii	"\013\250\346\345\277\373\026D=\373\000\350\335\234\201"
 272      BFFB1644 
 272      3DFB00E8 
 272      DD9C81
 273 066b FA6BD78D 		.ascii	"\372k\327\215\006 \005\200\016\005\254\223\204u\212"
 273      06200580 
 273      0E05AC93 
 273      84758A
 274 067a 67E8299E 		.ascii	"g\350)\236\011\246\023\031\233\022w\260,\213\216Y\355"
 274      09A61319 
 274      9B1277B0 
 274      2C8B8E59 
 274      ED
 275 068b 458933E8 		.ascii	"E\2113\350h\203\303\322[+\230\336y\262\261\021\345\306"
 275      6883C3D2 
 275      5B2B98DE 
 275      79B2B111 
 275      E5C6
 276 069d 622D7FD2 		.ascii	"b-\177\322-v\000\364\363Q\206~\366\261\336\024\304\242"
 276      2D7600F4 
 276      F351867E 
 276      F6B1DE14 
 276      C4A2
 277 06af B39E0579 		.ascii	"\263\236\005y\204\026\244\341\375z\357\202\030\256\327"
 277      8416A4E1 
 277      FD7AEF82 
 277      18AED7
 278 06be 0682FCE3 		.ascii	"\006\202\374\343\016\010\322\353Y\2202\223 $\222\273"
 278      0E08D2EB 
 278      59903293 
 278      202492BB 
 279 06ce 5AAF8E83 		.ascii	"Z\257\216\203_E\365\331#9\330\346`\277J\205Q\312\251"
 279      5F45F5D9 
 279      2339D8E6 
 279      60BF4A85 
 279      51CAA9
 280 06e1 36A644BD 		.ascii	"6\246D\275=\370\352\250\257\315\024\377\312\3566\351"
 280      3DF8EAA8 
 280      AFCD14FF 
 280      CAEE36E9 
 281 06f1 3B749575 		.ascii	";t\225u\202\312n\330u2WP\315\355\3577i\033\220\307\001"
 281      82CA6ED8 
 281      75325750 
 281      CDEDEF37 
 281      691B90C7 
 282 0706 4ACECF15 		.ascii	"J\316\317\025\252\277\343\035\265\277\236\004\240\305"
 282      AABFE31D 
 282      B5BF9E04 
 282      A0C5
 283 0714 F95633FA 		.ascii	"\371V3\372-V\364\323V\304\227\244\245/`?\360W\332\035"
 283      2D56F4D3 
ARM GAS  /tmp/ccv6P3jE.s 			page 22


 283      56C497A4 
 283      A52F603F 
 283      F057DA1D 
 284 0728 721140FF 		.ascii	"r\021@\377\366zx6\006\366\211\005s\2110a-P\257\317\244"
 284      F67A7836 
 284      06F68905 
 284      73893061 
 284      2D50AFCF 
 285 073d AA915EF9 		.ascii	"\252\221^\371\227\020\347)o\275\250/\342~@\346\322\015"
 285      9710E729 
 285      6FBDA82F 
 285      E27E40E6 
 285      D20D
 286 074f FF22DCD1 		.ascii	"\377\"\334\321\303\336\237\015u\351n\367\027\220hK\206"
 286      C3DE9F0D 
 286      75E96EF7 
 286      1790684B 
 286      86
 287 0760 89735A76 		.ascii	"\211sZv\355\310U\022\343`\321\336|\027SfI\026su\367"
 287      EDC85512 
 287      E360D1DE 
 287      7C175366 
 287      49167375 
 288 0775 D5BB5CBA 		.ascii	"\325\273\\\272\031\273\024\347\213[a\021\363w\226,\357"
 288      19BB14E7 
 288      8B5B6111 
 288      F377962C 
 288      EF
 289 0786 158B325C 		.ascii	"\025\2132\\,\001;\240\312\247\231\313\373\017\364\345"
 289      2C013BA0 
 289      CAA799CB 
 289      FB0FF4E5 
 290 0796 FDA7EED6 		.ascii	"\375\247\356\326\200\324\362\236g\026\262\254\206\233"
 290      80D4F29E 
 290      6716B2AC 
 290      869B
 291 07a4 AB42291B 		.ascii	"\253B)\033\246\031\344\231\213\020\036}\306\2326\314"
 291      A619E499 
 291      8B101E7D 
 291      C69A36CC 
 292 07b4 59D4ED59 		.ascii	"Y\324\355Y\371%f\345+\375\207\325\375!}\303\347\202"
 292      F92566E5 
 292      2BFD87D5 
 292      FD217DC3 
 292      E782
 293 07c6 156F8C39 		.ascii	"\025o\2149t\325\222\2178\032"
 293      74D5928F 
 293      381A
 294 07d0 53A96F87 		.ascii	"S\251o\207\230S\355vW\3340W\346\0046OY\247\202\251\036"
 294      9853ED76 
 294      57DC3057 
 294      E604364F 
 294      59A782A9 
 295 07e5 7FC33358 		.ascii	"\177\3033X\011\005\266o\271\273\375$\331\330\211+\002"
 295      0905B66F 
 295      B9BBFD24 
 295      D9D8892B 
ARM GAS  /tmp/ccv6P3jE.s 			page 23


 295      02
 296 07f6 0D2F0892 		.ascii	"\015/\010\222v\373\254\236\362\316\233G\027i\236\322"
 296      76FBAC9E 
 296      F2CE9B47 
 296      17699ED2 
 297 0806 E7C253F0 		.ascii	"\347\302S\360\\s.(\327\027\352zn6P\263\350\331\316O"
 297      5C732E28 
 297      D717EA7A 
 297      6E3650B3 
 297      E8D9CE4F 
 298 081a F46DA50B 		.ascii	"\364m\245\013\207\030\200S\243\373\026+\234\307U\357"
 298      87188053 
 298      A3FB162B 
 298      9CC755EF 
 299 082a 6DA1B5CC 		.ascii	"m\241\265\314\233b\324\256\250|\264\233\314\2662Gd\352"
 299      9B62D4AE 
 299      A87CB49B 
 299      CCB63247 
 299      64EA
 300 083c 085AC724 		.ascii	"\010Z\307$U3&\177\3563\371\363u\360\347\033,y\014t\023"
 300      5533267F 
 300      EE33F9F3 
 300      75F0E71B 
 300      2C790C74 
 301 0851 E86DB36F 		.ascii	"\350m\263o;M\370\003\346p\375C\317r\227X\254\343\324"
 301      3B4DF803 
 301      E670FD43 
 301      CF729758 
 301      ACE3D4
 302 0864 CC357333 		.ascii	"\3145s3g\202.|o\264\243z\361\260r|\245>#\251\333f\347"
 302      67822E7C 
 302      6FB4A37A 
 302      F1B0727C 
 302      A53E23A9 
 303 087b 3D23D2DE 		.ascii	"=#\322\336|y95#\365\272\201\033c\303\240\335a\336\366"
 303      7C793935 
 303      23F5BA81 
 303      1B63C3A0 
 303      DD61DEF6 
 304 088f E499F960 		.ascii	"\344\231\371`\246\005`\240E@\227\000]\016\364\377\200"
 304      A60560A0 
 304      45409700 
 304      5D0EF4FF 
 304      80
 305 08a0 6E03BA1D 		.ascii	"n\003\272\035\350n\240\357\003=\004\264\035\350'@{\200"
 305      E86EA0EF 
 305      033D04B4 
 305      1DE82740 
 305      7B80
 306 08b2 5E06DA0B 		.ascii	"^\006\332\013\364*\320\005\034\340s.\034@\035h\0157"
 306      F42AD005 
 306      1CE0732E 
 306      1C401D68 
 306      0D37
 307 08c4 D3C7DC1B 		.ascii	"\323\307\334\033\271>\357WN\244\267Tyf\261g0\253GQ\232"
 307      B93EEF57 
 307      4EA4B754 
ARM GAS  /tmp/ccv6P3jE.s 			page 24


 307      7966B167 
 307      30AB4751 
 308 08d9 BC617A12 		.ascii	"\274az\022z\023\236\204\336\202\347\236K8j\030\357\017"
 308      7A139E84 
 308      DE82E79E 
 308      4B386A18 
 308      EF0F
 309 08eb EADBFDB9 		.ascii	"\352\333\375\271\015\007\307;\327j\356\240\272W\315"
 309      0D07C73B 
 309      D76AEEA0 
 309      BA57CD
 310 08fa 100B9EA7 		.ascii	"\020\013\236\247\361@VN\252\2330\2650\275\276\340\031"
 310      F140564E 
 310      AA9B30B5 
 310      30BDBEE0 
 310      19
 311 090b 8CF6D5EE 		.ascii	"\214\366\325\356zz\013\274\316\015^\226}\215K\235\246"
 311      7A7A0BBC 
 311      CE0D5E96 
 311      7D8D4B9D 
 311      A6
 312 091c 7D8DD59E 		.ascii	"}\215\325\236\301h\346\256\231\301\032\335\200\331\255"
 312      C168E6AE 
 312      99C11ADD 
 312      80D9AD
 313 092b FEED8DDF 		.ascii	"\376\355\215\337k2\376U0\37650\376\213\340\354\313\200"
 313      6B32FE55 
 313      30FE3530 
 313      FE8BE0EC 
 313      CB80
 314 093d D6025D01 		.ascii	"\326\002]\001t%\355\024o\016\321\037_i\215\321\017\211"
 314      7425ED14 
 314      6F0ED11F 
 314      5F698DD1 
 314      0F89
 315 094f 060D8495 		.ascii	"\006\015\204\225\035\316\317\255\236\327\253\223\227"
 315      1DCECFAD 
 315      9ED7AB93 
 315      97
 316 095c D58CB0EA 		.ascii	"\325\214\260\352\310\360\223\020V\375\032\306\363mC"
 316      C8F09310 
 316      56FD1AC6 
 316      F36D43
 317 096b 067D6A42 		.ascii	"\006}jB\301\260\350 \324X\303e<\373\271U\243\315\225"
 317      C1B0E820 
 317      D458C365 
 317      3CFBB955 
 317      A3CD95
 318 097e 246FF0A8 		.ascii	"$o\360\250\352z\255\313g?\206B\3561\213q\376\001\365"
 318      EA7AADCB 
 318      673F8642 
 318      EE318B71 
 318      FE01F5
 319 0991 19560388 		.ascii	"\031V\003\210qzp1h\034\026}\006U6d\312\361\231.\307"
 319      717A7031 
 319      681C167D 
 319      06553664 
ARM GAS  /tmp/ccv6P3jE.s 			page 25


 319      CAF1992E 
 320 09a6 065772EC 		.ascii	"\006Wr\354\256\325=\177\035\007\373\311\006nn#\325\236"
 320      AED53D7F 
 320      1D07FBC9 
 320      066E6E23 
 320      D59E
 321 09b8 0E705615 		.ascii	"\016pV\025la\201W0\332\363\367u\254-\226\033\337\325"
 321      6C618157 
 321      30DAF3F7 
 321      75AC2D96 
 321      1BDFD5
 322 09cb 5721F242 		.ascii	"W!\362B\371\221\315i\225\024\351\010\254Y\263\227^\327"
 322      F991CD69 
 322      9514E908 
 322      AC59B397 
 322      5ED7
 323 09dd 56AC6F72 		.ascii	"V\254or$gy\201\355\016\323\340P\215\315\313\357#/\314"
 323      24677981 
 323      ED0ED3E0 
 323      508DCDCB 
 323      EF232FCC 
 324 09f1 FC0E6056 		.ascii	"\374\016`V\347\012\223\352\257}C};m\033\000\255\267"
 324      E70A93EA 
 324      AF7D437D 
 324      3B6D1B00 
 324      ADB7
 325 0a03 00F10C67 		.ascii	"\000\361\014gY\024q\364\242\210\013\246\023\344u\203"
 325      591471F4 
 325      A2880BA6 
 325      13E47583 
 326 0a13 2FB1308B 		.ascii	"/\2610\213\266Z\015FI4h\220\226:\322\335\303\275\"+"
 326      B65A0D46 
 326      49346890 
 326      963AD2DD 
 326      C3BD222B 
 327 0a27 F339AA5B 		.ascii	"\3639\252[\270\177\023a'gy\023\001\036\355\230^<\310"
 327      B87F1361 
 327      27677913 
 327      011EED98 
 327      5E3CC8
 328 0a3a BAE4521E 		.ascii	"\272\344R\036\330\014\235j\0078\337\016\213\246-\017"
 328      D80C9D6A 
 328      0738DF0E 
 328      8BA62D0F 
 329 0a4a A148534E 		.ascii	"\241HSNl\354\341\012\034:NF\036\213\366\273q\362l\273"
 329      6CECE10A 
 329      1C3A4E46 
 329      1E8BF6BB 
 329      71F26CBB 
 330 0a5e EADD577E 		.ascii	"\352\335W~\243G^\020)\035t\003\350\376M\247\364\030"
 330      A3475E10 
 330      291D7403 
 330      E8FE4DA7 
 330      F418
 331 0a70 C1331B39 		.ascii	"\3013\03392\304o\202\241\374\015\240[\200\276\015t\257"
 331      32C46F82 
 331      A1FC0DA0 
ARM GAS  /tmp/ccv6P3jE.s 			page 26


 331      5B80BE0D 
 331      74AF
 332 0a82 9BD886F4 		.ascii	"\233\330\206\364l\003\373u\216\325F\323\334F\213\233"
 332      6C03FB75 
 332      8ED546D3 
 332      DC468B9B 
 333 0a92 E9D102B3 		.ascii	"\351\321\002\263\350\031\214R\244\262\242S\035-\324"
 333      E8198C52 
 333      A4B2A253 
 333      1D2DD4
 334 0aa1 AECF336F 		.ascii	"\256\3173oY\361\2749\263\262\255\276\360\310\363\372"
 334      59F1BC39 
 334      B3B2ADBE 
 334      F0C8F3FA 
 335 0ab1 38F24101 		.ascii	"8\362A\001\343\021\254(\233Q\326\230\214\262\026\214"
 335      E311AC28 
 335      9B51D698 
 335      8CB2168C 
 336 0ac1 F21A9860 		.ascii	"\362\032\230`?\320f\240\012=\327\236*\260\314\265\324"
 336      3FD066A0 
 336      0A3DD79E 
 336      2AB0CCB5 
 336      D4
 337 0ad2 CC6637F3 		.ascii	"\314f7\363\233\325#+{O`]\273\337\277\370b\270\272\177"
 337      9BD5232B 
 337      7B4F605D 
 337      BBDFBFF8 
 337      62B8BA7F 
 338 0ae6 F13ECC50 		.ascii	"\361>\314P\251\002\333\031*\333\376E\017Ti\311\230\241"
 338      A902DB19 
 338      2ADBFE45 
 338      0F5469C9 
 338      98A1
 339 0af8 1ACEE9EF 		.ascii	"\032\316\351\357\207\264\014>C\315\257Qv\254|==\323"
 339      87B40C3E 
 339      43CDAF51 
 339      76AC7C3D 
 339      3DD3
 340 0b0a D618FDF7 		.ascii	"\326\030\375\367m\034E:\371(\365\274d\300\340\303\243"
 340      6D1C453A 
 340      F928F5BC 
 340      64C0E0C3 
 340      A3
 341 0b1b 8FDA5BAE 		.ascii	"\217\332[\256\305d\271C`\2716\332NK\012-v\262k/\313"
 341      C564B943 
 341      60B936DA 
 341      4E4B0A2D 
 341      76B26B2F 
 342 0b30 FEC48727 		.ascii	"\376\304\207'\324@\331\255\251\216]\177\200\314S\035"
 342      D440D9AD 
 342      A98E5D7F 
 342      80CC531D 
 343 0b40 60A76585 		.ascii	"`\247e\205\036\355DD\352\264\330H\351\025J\324\273."
 343      1EED4444 
 343      EAB4D848 
 343      E9154AD4 
 343      BB2E
ARM GAS  /tmp/ccv6P3jE.s 			page 27


 344 0b52 5E1E39A7 		.ascii	"^\0369\247\255\362\325w\207\327A\373\235wJ\331\235&"
 344      ADF2D577 
 344      87D741FB 
 344      9D774AD9 
 344      9D26
 345 0b64 651F0365 		.ascii	"e\037\003ew\321\312\336\344Y\331%\331\332\273h\012\207"
 345      77D1CADE 
 345      E459D925 
 345      D9DABB68 
 345      0A87
 346 0b76 FF09E170 		.ascii	"\377\011\341p\017\204\303/C\207|\017h;\315\301fC\343"
 346      0F84C32F 
 346      43877C0F 
 346      683BCDC1 
 346      6643E3
 347 0b89 5A03F42B 		.ascii	"Z\003\364+^\004\365C\316x\353\014\342\206\232\254\373"
 347      5E04F543 
 347      CE78EB0C 
 347      E2869AAC 
 347      FB
 348 0b9a A9385280 		.ascii	"\2518R\200\226\007\337\034\265{I+O\207\372Y\332C\336"
 348      9607DF1C 
 348      B57B492B 
 348      4F87FA59 
 348      DA43DE
 349 0bad 397BB999 		.ascii	"9{\271\231i\202\336|\012\274\344\202\275\2278\003\021"
 349      6982DE7C 
 349      0ABCE482 
 349      BD973803 
 349      11
 350 0bbe AE3EB67A 		.ascii	"\256>\266z\311\253=\255\014D6\037\273\352\307\015=\255"
 350      C9AB3DAD 
 350      0C44361F 
 350      BBEAC70D 
 350      3DAD
 351 0bd0 2CC4063C 		.ascii	",\304\006<s\022\206\324\317\201\213\217s\233<0\3406"
 351      731286D4 
 351      CF818B8F 
 351      739B3C30 
 351      E036
 352 0be2 D23E713D 		.ascii	"\322>q=\025\256\3173\\\011\005\267\235\206\273\355\006"
 352      15AECF33 
 352      5C0905B7 
 352      9D86BBED 
 352      06
 353 0bf3 CE69F6C0 		.ascii	"\316i\366\300po\323p\013\356\362\012Gs\267\223\206["
 353      706FD370 
 353      0BEEF20A 
 353      4773B793 
 353      865B
 354 0c05 EA06CE69 		.ascii	"\352\006\316i\201\212\341v\321p/y\206\243\271\333C\303"
 354      818AE176 
 354      D1702F79 
 354      86A3B9DB 
 354      43C3
 355 0c17 AD7503E7 		.ascii	"\255u\003\347\364\210zU\215\262W\2053:\213r\007:\013"
 355      F4887A55 
ARM GAS  /tmp/ccv6P3jE.s 			page 28


 355      8DB25785 
 355      333A8B72 
 355      073A0B
 356 0c2a 8B367AE6 		.ascii	"\2136z\346\212\026r?-\344\0267p%\316&8B\303\375\336"
 356      8A16723F 
 356      2DE41637 
 356      7025CE26 
 356      3842C3FD 
 357 0c3f 331CCD5D 		.ascii	"3\034\315]'\015\267\303\015\\\226Y\250K\205\373\012"
 357      270DB7C3 
 357      0D5C9659 
 357      A84B85FB 
 357      0A
 358 0c50 AAD3E70F 		.ascii	"\252\323\347\017\365\371\215\323\034r\215\373\012\244"
 358      F5F98DD3 
 358      1C728DFB 
 358      0AA4
 359 0c5e A8278250 		.ascii	"\250'\202P\302\251F\037\227~\025\2420hN\250\007\213"
 359      C2A9461F 
 359      977E15A2 
 359      30684EA8 
 359      078B
 360 0c70 9A3DCB40 		.ascii	"\232=\313@\253\344\004\255\222Cn\340\234\366\3721\334"
 360      ABE404AD 
 360      92436EE0 
 360      9CF6FA31 
 360      DC
 361 0c81 491AAEC3 		.ascii	"I\032\256\3033\034\315\335\237i\270\343n\340\0347pe"
 361      331CCDDD 
 361      9F69B8E3 
 361      6EE01C37 
 361      7065
 362 0c93 E5631D8E 		.ascii	"\345c\035\216X\202E\335\236\341h\356\316\320\334]p\003"
 362      588245DD 
 362      9EE168EE 
 362      CED0DC5D 
 362      7003
 363 0ca5 37C65977 		.ascii	"7\306Yw\227h\270\036\317p4w\237\323pW\335\300=\345\254"
 363      9768B81E 
 363      CF703477 
 363      9FD37057 
 363      DDC03DE5 
 364 0cba BB2BB4EE 		.ascii	"\273+\264\356\006<\303\321\334]\243\271[2\324\005\334"
 364      063CC3D1 
 364      DC5DA3B9 
 364      5B32D405 
 364      DC
 365 0ccb 4467DD7D 		.ascii	"Dg\335}A\303\325z\206\243\271\273a\031\372\335\300M"
 365      41C3D57A 
 365      86A3B9BB 
 365      6119FADD 
 365      C04D
 366 0cdd B5E1CEEE 		.ascii	"\265\341\316\3560G\011<s\032\"\2663\0205\245\200\376"
 366      3047093C 
 366      731A22B6 
 366      331035A5 
 366      80FE
ARM GAS  /tmp/ccv6P3jE.s 			page 29


 367 0cef 15E8DF80 		.ascii	"\025\350\337\200~\002\364<\320O\201^\004\332\003\364"
 367      7E02F43C 
 367      D04F815E 
 367      04DA03F4 
 368 0cff 32D05EA0 		.ascii	"2\320^\240W\201^\007\332\017\364\026\320\001\240s}\204"
 368      57815E07 
 368      DA0FF416 
 368      D001A073 
 368      7D84
 369 0d11 D6005D00 		.ascii	"\326\000]\000t\021\320%@_\004\272\314g\212\331,\033"
 369      7411D025 
 369      405F04BA 
 369      CC678AD9 
 369      2C1B
 370 0d23 01A71C44 		.ascii	"\001\247\034D'\322\324\372\214\205\004\371\304B\271"
 370      27D2D4FA 
 370      8C8504F9 
 370      C442B9
 371 0d32 94DAD77B 		.ascii	"\224\332\327{d)sy\323B\231|\243\362\253\006\245\310"
 371      64297379 
 371      D342997C 
 371      A3F2AB06 
 371      A5C8
 372 0d44 B2B9B135 		.ascii	"\262\271\2615\313\030\271\302\227\371\375G\303P:\024"
 372      CB18B9C2 
 372      97F9FD47 
 372      C3503A14 
 373 0d54 D3BE6498 		.ascii	"\323\276d\230'o\337,\007U8R\241\316g\377\375\203\206"
 373      276FDF2C 
 373      07553852 
 373      A1CE67FF 
 373      FD8386
 374 0d67 57EFA3BE 		.ascii	"W\357\243\276k\260Hx\301!<&5WeHx\340\325\227\215\017"
 374      6BB04878 
 374      C1213C26 
 374      35576548 
 374      78E0D597 
 375 0d7d 651FF2F0 		.ascii	"e\037\362\360\025\311\313\276l_\221\250\202d\\[\276"
 375      15C9CBBE 
 375      6C5F91A8 
 375      82645C5B 
 375      BE
 376 0d8e 2AD96DD1 		.ascii	"*\331m\321\206\366\035\311Q\353\267=/9\250\203\376\216"
 376      86F61DC9 
 376      51EBB73D 
 376      2F39A883 
 376      FE8E
 377 0da0 A4BBA98D 		.ascii	"\244\273\251\215\221\357\326\227&\357\002\266sM\340"
 377      91EFD697 
 377      26EF02B6 
 377      734DE0
 378 0daf 48AB7989 		.ascii	"H\253y\2114\270\025^$:\316eoP\023D\373\376\344t\323"
 378      34B8155E 
 378      243ACE65 
 378      6F501344 
 378      FBFEE474 
 379 0dc4 DC4646F6 		.ascii	"\334FF\366\033_\240\220zT\377X\223\325R\344{''\3756"
ARM GAS  /tmp/ccv6P3jE.s 			page 30


 379      1B5FA090 
 379      7A54FF58 
 379      93D552E4 
 379      7B2727FD 
 380 0dd9 A62D85BE 		.ascii	"\246-\205\276]Z\031\217\012\245\341x\305\234\322\012"
 380      5D5A198F 
 380      0AA5E178 
 380      C59CD20A 
 381 0de9 616669B8 		.ascii	"afi\27022-\022O\224Jb2\366\213R\234\020\245\322\204"
 381      32322D12 
 381      4F944A62 
 381      32F68B52 
 381      9C10A5D2 
 382 0dfe 18C6F7A5 		.ascii	"\030\306\367\245\350\267\303h\244\213\342\221X\270*"
 382      E8B7C368 
 382      A48BE291 
 382      58B82A
 383 0e0d 5921A855 		.ascii	"Y!\250U*\321\335R$*\204\242\002\237H\212BT\210I!\311"
 383      2AD1DD52 
 383      242A84A2 
 383      029F488A 
 383      42548849 
 384 0e23 FFE3679E 		.ascii	"\377\343g\236+)GO\271\000\253\216\213R\242\364\207\223"
 384      2B29474F 
 384      B900AB8E 
 384      8B52A2F4 
 384      8793
 385 0e35 26944F98 		.ascii	"&\224O\230\215KF\253#U\202\230(\375qy9\301\237S-$p\023"
 385      8D4B46AB 
 385      23558298 
 385      28FD7179 
 385      39C19F53 
 386 0e4d 01510A13 		.ascii	"\001Q\012\023\334\207K\223\011\261\224\027\243\217\306"
 386      DC874B93 
 386      09B19417 
 386      A38FC6
 387 0e5c E231E151 		.ascii	"\3421\341Q\201\237\0261\270IH\025\221\230\204\013\347"
 387      819F1631 
 387      B8494815 
 387      9198840B 
 387      E7
 388 0e6d 27F1FFA8 		.ascii	"'\361\377\250\221!\351\261,\245\243<f&&\224\206*\204"
 388      9121E9B1 
 388      2CA5A33C 
 388      66262694 
 388      862A84
 389 0e80 E97CB20A 		.ascii	"\351|\262\012ckM\015\011\205\364\372\276iBB\312\233"
 389      636B4D0D 
 389      0985F4FA 
 389      BE694242 
 389      CA9B
 390 0e92 15171392 		.ascii	"\025\027\023\222\257\212OH\376$0\301\304\362E\011d\226"
 390      AF8A4F48 
 390      FE2430C1 
 390      C4F24509 
 390      6496
 391 0ea4 A0A9C71F 		.ascii	"\240\251\307\037\013IZ-H\206\223\321d\025/Ef\012C\303"
ARM GAS  /tmp/ccv6P3jE.s 			page 31


 391      0B495A2D 
 391      488693D1 
 391      64152F45 
 391      660A43C3 
 392 0eb8 9553263C 		.ascii	"\225S&<;\355\347BX\032\037\213H\234\024\255\276\227"
 392      3BEDE742 
 392      581A1F8B 
 392      489C14AD 
 392      BE97
 393 0eca DC9A2CF1 		.ascii	"\334\232,\361\2424!\255\260\251\371\261x$V\205\371\271"
 393      A23421AD 
 393      B0A9F9B1 
 393      78245685 
 393      F9B9
 394 0edc 47CD8E57 		.ascii	"G\315\216WS\271!)\032\212`\200\257\221\334\362J>\022"
 394      53B92129 
 394      1A8A6080 
 394      AF91DCF2 
 394      4A3E12
 395 0eef 33654F89 		.ascii	"3eO\211O\365a\340\021\204\214|\314\223\371\022\341\312"
 395      4FF561E0 
 395      11848C7C 
 395      CC93F912 
 395      E1CA
 396 0f01 0A2CF268 		.ascii	"\012,\362ho\225\346$t]\025\204+C\344R\210\206\244\240"
 396      6F95E624 
 396      745D1584 
 396      2B43E452 
 396      8886A4A0 
 397 0f15 912E1405 		.ascii	"\221.\024\005\276bN\250*\222\300\312\272\013\337N_\017"
 397      BE624EA8 
 397      2A92C0CA 
 397      BA0BDF4E 
 397      5F0F
 398 0f27 932AC945 		.ascii	"\223*\311E\"\364\313\244\220\304\372+\302\271\324\255"
 398      22F4CBA4 
 398      90C4FA2B 
 398      C2B9D4AD 
 399 0f37 7CF54A85 		.ascii	"|\365J\205S\323\376\352PL\230-\341\277jQ\230\031\220"
 399      53D3FEEA 
 399      504C982D 
 399      E1BF6A51 
 399      981990
 400 0f4a AAC5483C 		.ascii	"\252\305H<\244^F\342\201p<&\341\334'<{Ze8.\012D\006"
 400      A45E46E2 
 400      81703C26 
 400      E1DC273C 
 400      7B5A6538 
 401 0f62 721B6B57 		.ascii	"r\033kW\012K\263\377;7\224\320\314\357\222~\220/\012"
 401      0A4BB3FF 
 401      3B3794D0 
 401      CCEF927E 
 401      902F0A
 402 0f75 33B0B385 		.ascii	"3\260\263\205$V|\214\025\277\303\212\217\263\342wYq"
 402      24567C8C 
 402      15BFC38A 
 402      8FB3E277 
ARM GAS  /tmp/ccv6P3jE.s 			page 32


 402      5971
 403 0f87 342B3EC1 		.ascii	"4+>\301\211#\312\3609\202\255\022\361\337\250\274\352"
 403      8923CAF0 
 403      3982AD12 
 403      F1DFA8BC 
 403      EA
 404 0f98 106E2D40 		.ascii	"\020n-@\004\233%\210"
 404      049B2588 
 405 0fa0 F83F5E55 		.ascii	"\370?^U!\210\276p%/\022i\371(\326CB\342%\254\241\000"
 405      2188BE70 
 405      252F1269 
 405      F928D643 
 405      42E225AC 
 406 0fb6 71ABD158 		.ascii	"q\253\321X\037\252\203\341\024.\016y\001)\032\257\020"
 406      1FAA83E1 
 406      142E0E79 
 406      01291AAF 
 406      10
 407 0fc7 E07A7A15 		.ascii	"\340zz\025?#\021\220Daz\0024C\022y\321\304\014\234\251"
 407      3F231190 
 407      44617A02 
 407      34431279 
 407      D1C40C9C 
 408 0fdc B932AEAE 		.ascii	"\2712\256\256\245\374b\305\034\234\225/\314\216HXP\301"
 408      A5FC62C5 
 408      1C9C952F 
 408      CC8E4858 
 408      50C1
 409 0fee 3F4B8A4F 		.ascii	"?K\212O\373yu\2010\023\373R\224O\374\002\027\021"
 409      FB797581 
 409      3013FB52 
 409      944FFC02 
 409      1711
 410 1000 66910457 		.ascii	"f\221\004W\035J\016\325\255\243Zs\230\311^\344N\260"
 410      1D4A0ED5 
 410      ADA35A73 
 410      98C95EE4 
 410      4EB0
 411 1012 3A348B8F 		.ascii	":4\213\217H\221\330\214!\325!\214\0126\314\203$\276"
 411      4891D88C 
 411      21D5218C 
 411      0A36CC83 
 411      24BE
 412 1024 21540B31 		.ascii	"!T\0131\334'g\344E\223\330F\243<yYT\232M\372}Tu\013"
 412      DC2767E4 
 412      4593D846 
 412      A33C7959 
 412      549A4DFA 
 413 103c FC1F9F15 		.ascii	"\374\037\237\025\303\252\002$\314a\024|\0027\217\313"
 413      C3AA0224 
 413      CC61147C 
 413      02378FCB 
 414 104c 11468610 		.ascii	"\021F\206\020\241\371*p\011|\263:\036\257\012\210j]"
 414      A1F92A70 
 414      097CB33A 
 414      1EAF0A88 
 414      6A5D
ARM GAS  /tmp/ccv6P3jE.s 			page 33


 415 105e BF089E92 		.ascii	"\277\010\236\222'\202\316EM\347\242\252\363 \276\233"
 415      2782CE45 
 415      4DE7A2AA 
 415      F320BE9B 
 416 106e 14452C7A 		.ascii	"\024E,z\236Hp\356\235\031\021\245$_\025\"\375[\324\305"
 416      9E4870EE 
 416      9D1911A5 
 416      245F1522 
 416      FD5BD4C5 
 417 1082 BE0F8B6D 		.ascii	"\276\017\213m\2231\214\272\247z3u+0S\002>\311?q\336"
 417      93318CBA 
 417      A77A3375 
 417      2B305302 
 417      3EC93F71 
 418 1097 20E920E9 		.ascii	" \351 \351\201c\304\343\306\300A\222\371\270T\205P%"
 418      8163C4E3 
 418      C6C04192 
 418      F9B85485 
 418      5025
 419 10a9 F138313D 		.ascii	"\36181=\031\013\207\240\036I\371I}^,\300\177d\034\""
 419      190B87A0 
 419      1E49F949 
 419      7D5E2CC0 
 419      7F641C22 
 420 10bd 10F81661 		.ascii	"\020\370\026aa\250\326\375*\204i\311\031\252}\314w\202"
 420      61A8D6FD 
 420      2A8469C9 
 420      19AA7DCC 
 420      7782
 421 10cf D57C2C12 		.ascii	"\325|,\022&\346\340*\246\315(\302\303H\230\257\212L"
 421      26E6E02A 
 421      A6CD28C2 
 421      C34898AF 
 421      8A4C
 422 10e1 13F1E814 		.ascii	"\023\361\350\024\217a5\306\247OO\010\022+E\331p\345"
 422      8F6135C6 
 422      A74F4F08 
 422      122B45D9 
 422      70E5
 423 10f3 A0CE8F05 		.ascii	"\240\316\217\005)-\2370y\374\344\264\231\210\363\207"
 423      292D9F30 
 423      79FCE4B4 
 423      9988F387 
 424 1103 A3A388F3 		.ascii	"\243\243\210\363\217\375\337)\241)x\\\360\225O\231\364"
 424      8FFDDF29 
 424      A129785C 
 424      F0954F99 
 424      F4
 425 1114 B4BFFCA7 		.ascii	"\264\277\374\247\345\345\317L\361\227O\034O\376\306"
 425      E5E5CF4C 
 425      F1974F1C 
 425      4FFEC6
 426 1123 4D2557F9 		.ascii	"M%W\371\223\237\0367n\"\271~z\362s\370/\360\243g\237"
 426      939F1E37 
 426      6E22B97E 
 426      7AF273F8 
 426      2FF0A367 
ARM GAS  /tmp/ccv6P3jE.s 			page 34


 427 1138 1E8BFF7D 		.ascii	"\036\213\377}\023\313'O\312+\177v\302\304\262\274\011"
 427      13CB274F 
 427      CA2B7F76 
 427      C2C4B2BC 
 427      09
 428 1149 3F9CFC93 		.ascii	"?\234\374\223\262\340\217\236{\246|\312\370g\237)\013"
 428      B2E08F9E 
 428      7BA67CCA 
 428      F8679F29 
 428      0B
 429 115a 4E1A3779 		.ascii	"N\0327y\334\244\377\0317\266\014\362G@\376\010#\177"
 429      DCA4FF19 
 429      37B60CF2 
 429      4740FE08 
 429      237F
 430 116c 84913F02 		.ascii	"\204\221?\002\362GB\376H#\177\244\221?\022\362GA\376"
 430      F24742FE 
 430      48237FA4 
 430      913F12F2 
 430      4741FE
 431 117f 28237FD4 		.ascii	"(#\177\324\375\320\371\361o\206 \205\302\361$\036K\304"
 431      FDD0F9F1 
 431      6F862085 
 431      C2F1241E 
 431      4BC4
 432 1191 D04CBE2A 		.ascii	"\320L\276*Iz\027\356f\361j.\026\237\365\377\2234\373"
 432      497A17EE 
 432      66F16A2E 
 432      169FF5FF 
 432      9334FB
 433 11a4 77       		.ascii	"w"
 434              		.text
 435              		.section	.gnu.lto_.symtab.58a33cc0d9a3d8e2,"",%progbits
 436 0000 6368544D 		.ascii	"chTMObjectInit\000\000\000\000\000\000\000\000\000\000"
 436      4F626A65 
 436      6374496E 
 436      69740000 
 436      00000000 
 437 0018 0000A100 		.ascii	"\000\000\241\000\000\000chTMStartMeasurementX\000\000"
 437      00006368 
 437      544D5374 
 437      6172744D 
 437      65617375 
 438 0035 00000000 		.ascii	"\000\000\000\000\000\000\000\000\000\000\316\000\000"
 438      00000000 
 438      0000CE00 
 438      00
 439 0042 00636854 		.ascii	"\000chTMStopMeasurementX\000\000\000\000\000\000\000"
 439      4D53746F 
 439      704D6561 
 439      73757265 
 439      6D656E74 
 440 005e 00000000 		.ascii	"\000\000\000\000\000\324\000\000\000_tm_init\000\000"
 440      00D40000 
 440      005F746D 
 440      5F696E69 
 440      740000
ARM GAS  /tmp/ccv6P3jE.s 			page 35


 441 0071 00000000 		.ascii	"\000\000\000\000\000\000\000\000\000\000\331\000\000"
 441      00000000 
 441      0000D900 
 441      00
 442 007e 00636854 		.ascii	"\000chTMChainMeasurementToX\000\000\000\000\000\000"
 442      4D436861 
 442      696E4D65 
 442      61737572 
 442      656D656E 
 443 009c 00000000 		.ascii	"\000\000\000\000\000\000\335\000\000\000ch\000\000\002"
 443      0000DD00 
 443      00006368 
 443      000002
 444 00ab 00000000 		.ascii	"\000\000\000\000\000\000\000\000\000\350\000\000\000"
 444      00000000 
 444      00E80000 
 444      00
 445              		.text
 446              		.section	.gnu.lto_.opts,"",%progbits
 447 0000 272D6D63 		.ascii	"'-mcpu=cortex-m3' '-mno-thumb-interwork' '-mthumb' "
 447      70753D63 
 447      6F727465 
 447      782D6D33 
 447      2720272D 
 448 0033 272D4F32 		.ascii	"'-O2' '-fomit-frame-pointer' '-falign-functions=16'"
 448      2720272D 
 448      666F6D69 
 448      742D6672 
 448      616D652D 
 449 0066 20272D66 		.ascii	" '-ffunction-sections' '-fdata-sections' '-fno-comm"
 449      66756E63 
 449      74696F6E 
 449      2D736563 
 449      74696F6E 
 450 0099 6F6E2720 		.ascii	"on' '-flto'\000"
 450      272D666C 
 450      746F2700 
 451              		.text
 452              		.section	.text.chTMObjectInit,"ax",%progbits
 453              		.align	2
 454              		.p2align 4,,15
 455              		.global	chTMObjectInit
 456              		.thumb
 457              		.thumb_func
 458              		.type	chTMObjectInit, %function
 459              	chTMObjectInit:
 460              		@ args = 0, pretend = 0, frame = 0
 461              		@ frame_needed = 0, uses_anonymous_args = 0
 462              		@ link register save eliminated.
 463 0000 0022     		movs	r2, #0
 464 0002 0023     		movs	r3, #0
 465 0004 C0E90423 		strd	r2, [r0, #16]
 466 0008 0023     		movs	r3, #0
 467 000a 4FF0FF32 		mov	r2, #-1
 468 000e 80E80C00 		stmia	r0, {r2, r3}
 469 0012 8360     		str	r3, [r0, #8]
 470 0014 C360     		str	r3, [r0, #12]
ARM GAS  /tmp/ccv6P3jE.s 			page 36


 471 0016 7047     		bx	lr
 472              		.size	chTMObjectInit, .-chTMObjectInit
 473 0018 AFF30080 		.section	.text.chTMStartMeasurementX,"ax",%progbits
 473      AFF30080 
 474              		.align	2
 475              		.p2align 4,,15
 476              		.global	chTMStartMeasurementX
 477              		.thumb
 478              		.thumb_func
 479              		.type	chTMStartMeasurementX, %function
 480              	chTMStartMeasurementX:
 481              		@ args = 0, pretend = 0, frame = 0
 482              		@ frame_needed = 0, uses_anonymous_args = 0
 483              		@ link register save eliminated.
 484 0000 014B     		ldr	r3, .L3
 485 0002 5B68     		ldr	r3, [r3, #4]
 486 0004 8360     		str	r3, [r0, #8]
 487 0006 7047     		bx	lr
 488              	.L4:
 489              		.align	2
 490              	.L3:
 491 0008 001000E0 		.word	-536866816
 492              		.size	chTMStartMeasurementX, .-chTMStartMeasurementX
 493 000c AFF30080 		.section	.text.chTMStopMeasurementX,"ax",%progbits
 494              		.align	2
 495              		.p2align 4,,15
 496              		.global	chTMStopMeasurementX
 497              		.thumb
 498              		.thumb_func
 499              		.type	chTMStopMeasurementX, %function
 500              	chTMStopMeasurementX:
 501              		@ args = 0, pretend = 0, frame = 0
 502              		@ frame_needed = 0, uses_anonymous_args = 0
 503              		@ link register save eliminated.
 504 0000 0F4B     		ldr	r3, .L10
 505 0002 30B4     		push	{r4, r5}
 506 0004 0F4C     		ldr	r4, .L10+4
 507 0006 5968     		ldr	r1, [r3, #4]
 508 0008 8268     		ldr	r2, [r0, #8]
 509 000a E46A     		ldr	r4, [r4, #44]
 510 000c C368     		ldr	r3, [r0, #12]
 511 000e 891A     		subs	r1, r1, r2
 512 0010 091B     		subs	r1, r1, r4
 513 0012 4468     		ldr	r4, [r0, #4]
 514 0014 5D1C     		adds	r5, r3, #1
 515 0016 D0E90423 		ldrd	r2, [r0, #16]
 516 001a 5218     		adds	r2, r2, r1
 517 001c 43F10003 		adc	r3, r3, #0
 518 0020 A142     		cmp	r1, r4
 519 0022 C560     		str	r5, [r0, #12]
 520 0024 8160     		str	r1, [r0, #8]
 521 0026 C0E90423 		strd	r2, [r0, #16]
 522 002a 05D8     		bhi	.L9
 523 002c 30BC     		pop	{r4, r5}
 524 002e 0368     		ldr	r3, [r0]
 525 0030 9942     		cmp	r1, r3
 526 0032 38BF     		it	cc
ARM GAS  /tmp/ccv6P3jE.s 			page 37


 527 0034 0160     		strcc	r1, [r0]
 528 0036 7047     		bx	lr
 529              	.L9:
 530 0038 4160     		str	r1, [r0, #4]
 531 003a 30BC     		pop	{r4, r5}
 532 003c 7047     		bx	lr
 533              	.L11:
 534 003e 00BF     		.align	2
 535              	.L10:
 536 0040 001000E0 		.word	-536866816
 537 0044 00000000 		.word	ch
 538              		.size	chTMStopMeasurementX, .-chTMStopMeasurementX
 539 0048 AFF30080 		.section	.text._tm_init,"ax",%progbits
 539      AFF30080 
 540              		.align	2
 541              		.p2align 4,,15
 542              		.global	_tm_init
 543              		.thumb
 544              		.thumb_func
 545              		.type	_tm_init, %function
 546              	_tm_init:
 547              		@ args = 0, pretend = 0, frame = 24
 548              		@ frame_needed = 0, uses_anonymous_args = 0
 549 0000 30B5     		push	{r4, r5, lr}
 550 0002 0C4C     		ldr	r4, .L13
 551 0004 87B0     		sub	sp, sp, #28
 552 0006 0021     		movs	r1, #0
 553 0008 0022     		movs	r2, #0
 554 000a 0023     		movs	r3, #0
 555 000c 6846     		mov	r0, sp
 556 000e 4FF0FF35 		mov	r5, #-1
 557 0012 CDE90423 		strd	r2, [sp, #16]
 558 0016 E162     		str	r1, [r4, #44]
 559 0018 0191     		str	r1, [sp, #4]
 560 001a 0291     		str	r1, [sp, #8]
 561 001c 0391     		str	r1, [sp, #12]
 562 001e 0095     		str	r5, [sp]
 563 0020 FFF7FEFF 		bl	chTMStartMeasurementX
 564 0024 6846     		mov	r0, sp
 565 0026 FFF7FEFF 		bl	chTMStopMeasurementX
 566 002a 029B     		ldr	r3, [sp, #8]
 567 002c E362     		str	r3, [r4, #44]
 568 002e 07B0     		add	sp, sp, #28
 569              		@ sp needed
 570 0030 30BD     		pop	{r4, r5, pc}
 571              	.L14:
 572 0032 00BF     		.align	2
 573              	.L13:
 574 0034 00000000 		.word	ch
 575              		.size	_tm_init, .-_tm_init
 576 0038 AFF30080 		.section	.text.chTMChainMeasurementToX,"ax",%progbits
 576      AFF30080 
 577              		.align	2
 578              		.p2align 4,,15
 579              		.global	chTMChainMeasurementToX
 580              		.thumb
 581              		.thumb_func
ARM GAS  /tmp/ccv6P3jE.s 			page 38


 582              		.type	chTMChainMeasurementToX, %function
 583              	chTMChainMeasurementToX:
 584              		@ args = 0, pretend = 0, frame = 0
 585              		@ frame_needed = 0, uses_anonymous_args = 0
 586              		@ link register save eliminated.
 587 0000 0E4B     		ldr	r3, .L19
 588 0002 C268     		ldr	r2, [r0, #12]
 589 0004 5B68     		ldr	r3, [r3, #4]
 590 0006 30B4     		push	{r4, r5}
 591 0008 8B60     		str	r3, [r1, #8]
 592 000a 8168     		ldr	r1, [r0, #8]
 593 000c 4468     		ldr	r4, [r0, #4]
 594 000e 591A     		subs	r1, r3, r1
 595 0010 551C     		adds	r5, r2, #1
 596 0012 D0E90423 		ldrd	r2, [r0, #16]
 597 0016 5218     		adds	r2, r2, r1
 598 0018 43F10003 		adc	r3, r3, #0
 599 001c A142     		cmp	r1, r4
 600 001e C560     		str	r5, [r0, #12]
 601 0020 8160     		str	r1, [r0, #8]
 602 0022 C0E90423 		strd	r2, [r0, #16]
 603 0026 05D8     		bhi	.L18
 604 0028 30BC     		pop	{r4, r5}
 605 002a 0368     		ldr	r3, [r0]
 606 002c 9942     		cmp	r1, r3
 607 002e 38BF     		it	cc
 608 0030 0160     		strcc	r1, [r0]
 609 0032 7047     		bx	lr
 610              	.L18:
 611 0034 4160     		str	r1, [r0, #4]
 612 0036 30BC     		pop	{r4, r5}
 613 0038 7047     		bx	lr
 614              	.L20:
 615 003a 00BF     		.align	2
 616              	.L19:
 617 003c 001000E0 		.word	-536866816
 618              		.size	chTMChainMeasurementToX, .-chTMChainMeasurementToX
 619              		.comm	__gnu_lto_v1,1,1
 620              		.ident	"GCC: (GNU Tools for ARM Embedded Processors) 4.8.4 20140526 (release) [ARM/embedded-4_8-br
ARM GAS  /tmp/ccv6P3jE.s 			page 39

