ARM GAS  /tmp/ccjJTx0P.s 			page 1


   1              		.syntax unified
   2              		.cpu cortex-m3
   3              		.fpu softvfp
   4              		.eabi_attribute 20, 1
   5              		.eabi_attribute 21, 1
   6              		.eabi_attribute 23, 3
   7              		.eabi_attribute 24, 1
   8              		.eabi_attribute 25, 1
   9              		.eabi_attribute 26, 1
  10              		.eabi_attribute 30, 2
  11              		.eabi_attribute 34, 1
  12              		.eabi_attribute 18, 4
  13              		.thumb
  14              		.file	"chvt.c"
  15              		.section	.gnu.lto_.jmpfuncs.7bca6c5de0c42b25,"",%progbits
  16 0000 789C6362 		.ascii	"x\234cb`b\300\006\204\24043\003\003\023?#\003\003\020"
  16      6062C006 
  16      84A03433 
  16      0303133F 
  16      23030310 
  17 0014 31333282 		.ascii	"132\202D\000\004'\0002"
  17      44000427 
  17      0032
  18              		.text
  19              		.section	.gnu.lto_.inline.7bca6c5de0c42b25,"",%progbits
  20 0000 789C6362 		.ascii	"x\234cb`b\300\006VBif\006\006v6F\006&\216\003v\014l"
  20      6062C006 
  20      56426966 
  20      06067636 
  20      4606268E 
  21 0018 0BE4C18A 		.ascii	"\013\344\301\212\231\030\324/3023\246D0f220200\246\302"
  21      9918D42F 
  21      33303233 
  21      A6443066 
  21      32323032 
  22 0030 598C203D 		.ascii	"Y\214 =\346\373\276r0p\257pcb`Y /\000\326\302\015\224"
  22      E6FBBE72 
  22      3070AF70 
  22      63626059 
  22      202F00D6 
  23 0047 9BE007A5 		.ascii	"\233\340\007\245\230\031\304\345\030\231A\352\201\306"
  23      9819C4E5 
  23      189941EA 
  23      81C6
  24 0055 83480730 		.ascii	"\203H\0070\251\300!\265\346\030#\003\307\007=&\006\306"
  24      A9C021B5 
  24      E6182303 
  24      C7073D26 
  24      06C6
  25 0067 17EC2C10 		.ascii	"\027\354,\020\022Dp\200\231\034 B\000\314D6\224\221"
  25      12447080 
  25      991C2042 
  25      00CC4436 
  25      9491
  26 0079 0BC40100 		.ascii	"\013\304\001\000Il\025\270"
  26      496C15B8 
  27              		.text
ARM GAS  /tmp/ccjJTx0P.s 			page 2


  28              		.section	.gnu.lto_.pureconst.7bca6c5de0c42b25,"",%progbits
  29 0000 789C6362 		.ascii	"x\234cb`b`g\200\000f\006\011&)f)\000\001\307\000`"
  29      60626067 
  29      80006606 
  29      09262966 
  29      290001C7 
  30              		.text
  31              		.section	.gnu.lto__vt_init.7bca6c5de0c42b25,"",%progbits
  32 0000 789C6362 		.ascii	"x\234cb`b@\007\222@,\001\0246\000\322\214\314\014\214"
  32      60624007 
  32      92402C01 
  32      143600D2 
  32      8CCC0C8C 
  33 0014 4C13CE31 		.ascii	"L\023\316104r012\202\030\014\214\014\365L\214\365\221"
  33      30347230 
  33      31328218 
  33      0C8C0CF5 
  33      4C8CF591 
  34 0028 8C60B5EB 		.ascii	"\214`\265\353\231\016<\370\377\177\335\237\255\017\373"
  34      990E3CF8 
  34      FF7FDD9F 
  34      AD0FFB
  35 0037 1905D980 		.ascii	"\031\005\331\200\002\254\014-\015\015\023\024\030\030"
  35      02AC0C2D 
  35      0D0D1314 
  35      1818
  36 0045 92C10A42 		.ascii	"\222\301\012B\200$HW(#\023\210f>\313\320\364\253yqO"
  36      80244857 
  36      28231388 
  36      663ECBD0 
  36      F4AB7971 
  37 005a 6422E342 		.ascii	"d\"\343BFV\006m\206U\015@0\2211\223\021\306.\316dd\234"
  37      4656066D 
  37      86550D40 
  37      30913193 
  37      11C62ECE 
  38 0071 CD30ABB1 		.ascii	"\3150\253\261\241A \223\221\251\232\341WC\007\210\305"
  38      A1412093 
  38      91A99AE1 
  38      57430788 
  38      C5
  39 0082 9C0B362E 		.ascii	"\234\0136.\002\250\222\031lq\022\304~ \015a@T6\\\007"
  39      02A89219 
  39      6C7112C4 
  39      7E200D61 
  39      4054365C 
  40 0097 2A60811A 		.ascii	"*`\201\032u\027\310f\004\352\203)\005\003\240\003Nn"
  40      7517C866 
  40      04EA8329 
  40      0503A003 
  40      4E6E
  41 00a9 E046B1DE 		.ascii	"\340F\261\336\022a;7\311\2663\221j\373\216\035\217>"
  41      12613B37 
  41      C9B63391 
  41      6AFB8E1D 
  41      8F3E
  42 00bb 30A1DBCF 		.ascii	"0\241\333\317J\266\375\020>H\206\355\377\177f\230\025"
ARM GAS  /tmp/ccjJTx0P.s 			page 3


  42      4AB6FD10 
  42      3E4886ED 
  42      FF7F6698 
  42      15
  43 00cc 8F4F3053 		.ascii	"\217O0S\317\012\026\270\025\254 \306E\206\306\007\375"
  43      CF0A16B8 
  43      15AC20C6 
  43      4586C607 
  43      FD
  44 00dd CA10E361 		.ascii	"\312\020\343a \004\030\013\300\350\005\005\206\236~"
  44      2004180B 
  44      C0E80505 
  44      869E7E
  45 00ec 467E6EAA 		.ascii	"F~n\252~r~J\245~Jj\231~rFfRf~\261~IQi^\266>\220QT\242"
  45      7E727E4A 
  45      A57E4A6A 
  45      997E7246 
  45      6652667E 
  46 010c 5F5C940C 		.ascii	"_\\\224\014\024/+\321Kf\000\000\364\247\223\207"
  46      142F2BD1 
  46      4B660000 
  46      F4A79387 
  47              		.text
  48              		.section	.gnu.lto_chVTDoSetI.7bca6c5de0c42b25,"",%progbits
  49 0000 789C9D55 		.ascii	"x\234\235U]h\034U\024>g\356\316\337N\376\323\230\204"
  49      5D681C55 
  49      143E67EE 
  49      CEDF4EFE 
  49      D39884
  50 0013 84506CA5 		.ascii	"\204Pl\245\301@\206\032\212\004\224\"\365%\320<\250"
  50      C140861A 
  50      8A049422 
  50      F525D03C 
  50      A8
  51 0024 09E88394 		.ascii	"\011\350\203\224t\0236\213\211\251\2335X|\350l\263B"
  51      7413368B 
  51      89A99B35 
  51      587CE86C 
  51      B342
  52 0036 844043C9 		.ascii	"\204@C\311C\255}h\024\033hk\364I\"*I4`B\254\245\255"
  52      43AD7D68 
  52      141B686B 
  52      F449222A 
  52      49346042 
  53 004d 68B6F890 		.ascii	"h\266\370\220\012\246}\322\266\021\215\265\260\236s"
  53      0AA67DD2 
  53      B6118DB5 
  53      B09E73
  54 005c E7CE64F3 		.ascii	"\347\316d\363G\264\003{\356\314\231\373\235\357\234"
  54      47B4037B 
  54      EECC99FB 
  54      9DEF9C
  55 006b EF9CB9AB 		.ascii	"\357\234\271\253\201\006\033\257!\372\265[\000\237\321"
  55      81061BAF 
  55      21FAB55B 
  55      009FD1
  56 007a 8A0580DA 		.ascii	"\212\005\200\332\310\367\000iK\323\304p\005x\321H\246"
ARM GAS  /tmp/ccjJTx0P.s 			page 4


  56      C8F70069 
  56      4BD3C470 
  56      0578D148 
  56      A6
  57 008b 19BC0281 		.ascii	"\031\274\002\201\021\337\035\321\364\363:\271\215\273"
  57      11DF1DD1 
  57      F4F33AB9 
  57      8DBB
  58 0099 73407E1D 		.ascii	"s@~\035-\337oh\346\017\217\221\337\372\362ir\233\201"
  58      2DDF6F68 
  58      E60F8F91 
  58      DFFAF269 
  58      729B81
  59 00ac DBC228DF 		.ascii	"\333\302(\337\240\355\2573VT\263\207\277%d\324\311\230"
  59      A0EDAF33 
  59      5654B387 
  59      BF2564D4 
  59      C998
  60 00be B4D14164 		.ascii	"\264\321Ad? \234\320DD7L\313\216:x\342\025\344\314\360"
  60      3F209CD0 
  60      4444374C 
  60      CB8E3A78 
  60      E215E4CC 
  61 00d3 7118F3BC 		.ascii	"q\030\363\274\323K\037\335_\322\336\363\2463\347\275"
  61      D34B1FDD 
  61      5FD2DEF3 
  61      A633E7BD 
  62 00e3 87B91C62 		.ascii	"\207\271\034b\002\251\212\375\0101\204\227\351\001w"
  62      02A98AFD 
  62      08318497 
  62      E90177
  63 00f2 CB458BAC 		.ascii	"\313E\213\254/\353\023mz)\227\033\376\374\217_&\260"
  63      2FEB136D 
  63      7A29971B 
  63      FEFC8F5F 
  63      26B0
  64 0104 AC01A197 		.ascii	"\254\001\241\227Qd\004t\340\030E6\260\027\321$\243\331"
  64      51640474 
  64      E0184536 
  64      B017D124 
  64      A3D9
  65 0116 6484A3DC 		.ascii	"d\204\243\334\205\364\000\305\220@Q\312\246\214M9\343"
  65      85F400C5 
  65      904051CA 
  65      A68C4D39 
  65      E3
  66 0127 76F15D05 		.ascii	"v\361]\005\233J6U\354\253V\240\032~\250%7\324)\317\036"
  66      9B4A3655 
  66      ECAB56A0 
  66      1A7EA825 
  66      37D429CF 
  67 013c DEB397CD 		.ascii	"\336\263\227\315>2\221z2:%\245C\306\363Fv\373{\200+"
  67      3E32917A 
  67      323A25A5 
  67      43C6F346 
  67      76FB7B80 
  68 0151 A0AB8D2C 		.ascii	"\240\253\215,\211\321\216\032-\342\012\234\\X\\Y\305"
ARM GAS  /tmp/ccjJTx0P.s 			page 5


  68      89D18E1A 
  68      2DE20A9C 
  68      5C585C59 
  68      C5
  69 0162 0EFC9020 		.ascii	"\016\374\220 \015p\321\243\2530\201\306\373p\226\312"
  69      0D70D1A3 
  69      AB3081C6 
  69      FB7096CA 
  70 0172 34E36870 		.ascii	"4\343hp\271~\221G\325\032G\023\200\221\253+\323\332"
  70      B97E9147 
  70      D51A4713 
  70      8091AB2B 
  70      D3DA
  71 0184 46A4B535 		.ascii	"F\244\2655\022\025\322\226\310\233g\376\254\367\201"
  71      1215D296 
  71      C89B67FE 
  71      ACF781
  72 0193 717414F6 		.ascii	"qt\024\366\005\332\254n\233\022hS\230\264\347\225$0"
  72      05DAAC6E 
  72      9B126853 
  72      98B4E795 
  72      2430
  73 01a5 FA363CF0 		.ascii	"\3726<\360\206\370\316\351E\226\235\303:*\254\246V\241"
  73      86F8CEE9 
  73      45969DC3 
  73      3A2AACA6 
  73      56A1
  74 01b7 FA7005BE 		.ascii	"\372p\005\276\276\371\360\354\354i[\325\036\2100=u\352"
  74      BEF9F0EC 
  74      EC695BD5 
  74      1E88303D 
  74      75EA
  75 01c9 67214249 		.ascii	"g!BI\000|v\251\012\372\231\355c\362Lz\351\247\261\321"
  75      007C76A9 
  75      0AFA99ED 
  75      63F24C7A 
  75      E9A7B1D1 
  76 01dd 96041630 		.ascii	"\226\004\0260\377\010\263\0262_\021\247\025\221\324"
  76      FF08B316 
  76      325F11A7 
  76      1591D4
  77 01ec 458A32C2 		.ascii	"E\2122\302A>\366\203PI\277\015\026u\340eYQ=\005\003"
  77      413EF683 
  77      5049BF0D 
  77      1675E065 
  77      59513D05 
  78 0201 9883CCF2 		.ascii	"\230\203\314\362\255w\036L\223\266\023\322-\003\351"
  78      AD771E4C 
  78      93B613D2 
  78      2D03E9
  79 0210 9837356D 		.ascii	"\23075m\224\367\012\212v\212E\275\230\203\331\3333?"
  79      94F70A8A 
  79      768A45BD 
  79      9883D9DB 
  79      333F
  80 0222 9AC176C7 		.ascii	"\232\301v\307\257\233\305(V\2724\223.\244APv\336\225"
  80      AF9BC528 
ARM GAS  /tmp/ccjJTx0P.s 			page 6


  80      56BA3493 
  80      2EA44150 
  80      76DE95
  81 0235 0524020D 		.ascii	"\005$\002\015%\205\006\342\334W)\372\316(\3163\334\342"
  81      258506E2 
  81      DC5729FA 
  81      CE28CE33 
  81      DCE2
  82 0247 F9C57FEE 		.ascii	"\371\305\177\356\010?\356\232\330\372#\213\255\253^"
  82      083FEE9A 
  82      D8FA238B 
  82      ADAB5E
  83 0256 D673E183 		.ascii	"\326s\341\203C\203S\247\236\015\222.\216#\312\027W!"
  83      438353A7 
  83      9E0D922E 
  83      8E23CA17 
  83      5721
  84 0268 73F7F76F 		.ascii	"s\367\367o\226Wqc#\026\376\272f\262r\274?\026\024\022"
  84      96577163 
  84      2316FEBA 
  84      66B272BC 
  84      3F161412 
  85 027c B296C490 		.ascii	"\262\226\304\220\022\235\364)(\\\002K\375\035\355h\300"
  85      129DF429 
  85      285C024B 
  85      FD1DED68 
  85      C0
  86 028d 9C21E4EC 		.ascii	"\234!\344\354\344VE\300W\332\000O\256\225\362\306#\226"
  86      E45645C0 
  86      57DA004F 
  86      AE95F2C6 
  86      2396
  87 029f 22EB7877 		.ascii	"\"\353xwp \210Z&{X\352\227\027r\225\313\027\250\006"
  87      7020885A 
  87      267B58EA 
  87      97177295 
  87      CB17A806 
  88 02b3 F8835B5A 		.ascii	"\370\203[Z\360b\227\237D8\370N\376\340\033\212\201\272"
  88      F062979F 
  88      4438F84E 
  88      FEE01B8A 
  88      81BA
  89 02c5 BB9C3E10 		.ascii	"\273\234>\020B(\334Z\367\332\351\203\2429\220b\216\217"
  89      4228DC5A 
  89      F7DAE983 
  89      A2399062 
  89      8E8F
  90 02d7 86625650 		.ascii	"\206bVP\016r\237\024s\360\376\235\315b\316^\317\023"
  90      0E729F14 
  90      73F0FE9D 
  90      CD62CE5E 
  90      CF13
  91 02e9 33B2594C 		.ascii	"3\262YL\275\003g\0021+\362\304\264x\340xlj\210\300\370"
  91      BD036702 
  91      312BF2C4 
  91      B478E078 
  91      6C6A88C0 
ARM GAS  /tmp/ccjJTx0P.s 			page 7


  92 02fe 6E2A458B 		.ascii	"n*E\213I{h>\263PG%\030\303_P\216\016\373\034]Bl\240"
  92      497B683E 
  92      B3504725 
  92      18C35F50 
  92      8E0EFB1C 
  93 0316 A35448A1 		.ascii	"\243TH\241n\217\326\004_oU\034\2658V\372\242,^h\016"
  93      6E8FD604 
  93      5F6F551C 
  93      B53856FA 
  93      A22C5E68 
  94 032b FCD5AA25 		.ascii	"\374\325\252%\007H\211P\030\221/\214\011\371\002D\201"
  94      07488950 
  94      18912F8C 
  94      09F90244 
  94      81
  95 033c 4E6694CA 		.ascii	"Nf\224\312^\310b\020\245r\203\262b\033e\177M7\205\220"
  95      5EC86210 
  95      A57283B2 
  95      621B657F 
  95      4D378590 
  96 0350 F8DAD791 		.ascii	"\370\332\327\221\005\312\255\306\242\211\254\262\317"
  96      05CAADC6 
  96      A289ACB2 
  96      CF
  97 035d DDE8C982 		.ascii	"\335\350\311\202\210c\035?V\333\227o\3242\255\243\016"
  97      88631D3F 
  97      56DB976F 
  97      D432ADA3 
  97      0E
  98 036e C1F9C5F1 		.ascii	"\301\371\305\361\231\310\272\243\354\325\374\304\215"
  98      99C8BAA3 
  98      ECD5FCC4 
  98      8D
  99 037b CD89C7F9 		.ascii	"\315\211\307\371\314\341|G\312\003\352Z\231\3556\345"
  99      CCE17C47 
  99      CA03EA5A 
  99      99ED36E5 
 100 038b 5AE1A49D 		.ascii	"Z\341\244\235\234\037\211n<5\267\241\262\024U\255:o"
 100      9C1F896E 
 100      3C35B7A1 
 100      B21455AD 
 100      3A6F
 101 039d C7EFAD4F 		.ascii	"\307\357\255O\362\370\016tq\026\211\031?-Z\207;\230"
 101      F2F80E74 
 101      71168919 
 101      3F2D5A87 
 101      3B98
 102 03af 8FABDDAA 		.ascii	"\217\253\335\2528\037\267p\346\342\374\246\023^\337"
 102      381FB770 
 102      E6E2FCA6 
 102      135EDF
 103 03be 3A574321 		.ascii	":WC!5\365\201\\\372;l\343\036\037\\\262c+y\272D\200"
 103      35F5815C 
 103      FA3B6CE3 
 103      1E1F5CB2 
 103      632B79BA 
 104 03d4 DA4BC020 		.ascii	"\332K\300 \\K~\022;\305!\250\004MN^\272\267>\373\346"
ARM GAS  /tmp/ccjJTx0P.s 			page 8


 104      5C4B7E12 
 104      3BC521A8 
 104      044D4E5E 
 104      BAB73EFB 
 105 03e9 B5B3C2F9 		.ascii	"\265\263\302\371\337g\205-W~#r9\376\303\271\006\351"
 105      DF67852D 
 105      577E2372 
 105      39FEC3B9 
 105      06E9
 106 03fb A58927C2 		.ascii	"\245\211'\302\177\022y\265\321\001\2211\031\322\350"
 106      7F1279B5 
 106      D1019131 
 106      19D2E8
 107 040a 76F7F576 		.ascii	"v\367\365v\271\261\276\316\343ng\327\200\033\353N\034"
 107      B9B1BECE 
 107      E36E67D7 
 107      801BEB4E 
 107      1C
 108 041b 4DF4F5BB 		.ascii	"M\364\365\273\251\344\233\257\277\346\322M2\345\366"
 108      A9E49BAF 
 108      BFE6D24D 
 108      32E5F6
 109 042a 2763E41F 		.ascii	"'c\344\037H5\306\000\217\035\332\011\320\335\321\343"
 109      4835C600 
 109      8F1DDA09 
 109      D0DDD1E3 
 110 043a 1EEB4BA6 		.ascii	"\036\353K\246\372\335\227\332Z\233\236r\017\037~\336"
 110      FADD97DA 
 110      5A9B9E72 
 110      0F1F7EDE 
 111 044a 6D6B691D 		.ascii	"mki\035\330\357\366\247\216\364\364t6v\303\301\377@"
 111      D8EFF6A7 
 111      8EF4F474 
 111      3676C3C1 
 111      FF40
 112 045c EA8778EE 		.ascii	"\352\207x\356\305\326C\255o\321\206X_\262\353H*\321"
 112      C5D643AD 
 112      6FD18658 
 112      5FB2EB48 
 112      2AD1
 113 046e DB9524FC 		.ascii	"\333\225$\374\277}\320$'"
 113      BF7DD024 
 113      27
 114              		.text
 115              		.section	.gnu.lto_chVTDoResetI.7bca6c5de0c42b25,"",%progbits
 116 0000 789C9554 		.ascii	"x\234\225TAh\023A\024\375\177f7\2334m\326\246\007\257"
 116      41681341 
 116      14FD7F66 
 116      379B346D 
 116      D6A607AF 
 117 0014 5EBC58C8 		.ascii	"^\274X\310\"\236D\244\210'\017\275H\013z\022\273\015"
 117      229E44A4 
 117      88270FBD 
 117      480B7A12 
 117      BB0D
 118 0026 CD223165 		.ascii	"\315\"1e\023\213\"\322\215)R\360\222\233\245\236\274"
 118      138B22D2 
ARM GAS  /tmp/ccjJTx0P.s 			page 9


 118      8D2952F0 
 118      929BA59E 
 118      BC
 119 0037 8A5851A8 		.ascii	"\212XQ\250\301C\255\"\332\"Z=\010A\004\013\036$\236"
 119      C143AD22 
 119      DA225A3D 
 119      0841040B 
 119      1E249E
 120 004a EA258828 		.ascii	"\352%\210(\361\317\316\316f\223\324\222\016\344\317"
 120      F1CFCECE 
 120      6693D492 
 120      0EE4CF
 121 0059 E767DF7B 		.ascii	"\347g\337{\377\375\235Y\006\014\272\327I\372}\325\000"
 121      FFFD9D59 
 121      060CBAD7 
 121      49FA7DD5 
 121      00
 122 006a 6669C718 		.ascii	"fi\307\030 \253\276\007(\307\031\343M\003\274\001m\371"
 122      20ABBE07 
 122      28C719E3 
 122      4D03BC01 
 122      6DF9
 123 007c 358037C8 		.ascii	"5\2007\310Q\227uM%:\242H\000a\236qM\307\371\363\350"
 123      5197754D 
 123      253AA248 
 123      00619E71 
 123      4DC7F9F3 
 124 0091 F3ADB0F5 		.ascii	"\363\255\260\365\355V\353a\365\355\203/\270\302\016"
 124      ED56EB61 
 124      F5ED832F 
 124      B8C20E
 125 00a0 72CC2368 		.ascii	"r\314#h\340 \350\024H\200\202!BB\324\222\"\230\"\014"
 125      E020E814 
 125      48808221 
 125      4242D492 
 125      2298220C 
 126 00b4 8B5A5A84 		.ascii	"\213ZZ\204\021\021\210H\207\005\317\253\036\002\260"
 126      11118848 
 126      8705CFAB 
 126      1E02B0
 127 00c3 7DE2098A 		.ascii	"}\342\011\212Bp\022\231\330\371;\270\371\371\327\223"
 127      42701299 
 127      D8F93BB8 
 127      F9F9D793 
 128 00d3 A317F11E 		.ascii	"\243\027\361\036\3520\203\332(\034!\232\273\260\214"
 128      EA3083DA 
 128      281C219A 
 128      BBB08C
 129 00e2 0EB219E4 		.ascii	"\016\262\031\344\347h\227\016\247Py\025\230\017)\005"
 129      E768970E 
 129      A7507915 
 129      980F2905 
 130 00f2 D147E1BE 		.ascii	"\321G\341\276\347y\007\034\344!L\213\3020\002\253\246"
 130      E779071C 
 130      E4214C8B 
 130      C23002AB 
 130      A6
ARM GAS  /tmp/ccjJTx0P.s 			page 10


 131 0103 152CE62B 		.ascii	"\025,\346+\361\335\225\332\220\312b\345\007*\214Aj\204"
 131      F1DD95DA 
 131      90CA62E5 
 131      072A8C41 
 131      6A84
 132 0115 F4A9CEC8 		.ascii	"\364\251\316\310b\177\342\004\225\372K\253\241\325\304"
 132      627FE204 
 132      95FA4BAB 
 132      A1D5C4
 133 0124 5E5659BB 		.ascii	"^VY\273\347\315G\251\250\2247\026\005%z\347C\015H\255"
 133      E7CD47A9 
 133      A8943716 
 133      05257AE7 
 133      430D48AD 
 134 0138 5A5B2BD9 		.ascii	"Z[+\331\347X\367\324J\3666H\015\370\270Z}\365\005\353"
 134      E758F7D4 
 134      4AF63648 
 134      0DF8B85A 
 134      7DF505EB 
 135 014c 400E39A8 		.ascii	"@\0169\250\355.\307\375]T\364@\265V\177\372\263\023"
 135      ED2EC7FD 
 135      5D54F440 
 135      B5567FFA 
 135      B313
 136 015e 7D9CE619 		.ascii	"}\234\346\031\244I\007cDT\366\207l\\\207\337\336\242"
 136      A4490763 
 136      4454F687 
 136      6C5C87DF 
 136      DEA2
 137 0170 C8E2797F 		.ascii	"\310\342y\177\264\202&\036\020k\301\256\207\002\330"
 137      B482261E 
 137      106BC1AE 
 137      8702D8
 138 017f 6AF1E0C5 		.ascii	"j\361\340\305\327\237m\032j\032\246\234F \360\011\367"
 138      D79F6D1A 
 138      6A1AA69C 
 138      4620F009 
 138      F7
 139 0190 AD100B26 		.ascii	"\255\020\013&\266\001\257\276\227\303!\233\022\352\035"
 139      B601AFBE 
 139      97C3219B 
 139      12EA1D
 140 019f 73C4BB55 		.ascii	"s\304\273U>bD\243\220\035k\222&\3214\370\026Tv\032\365"
 140      3E6244A3 
 140      901D6B92 
 140      26D134F8 
 140      1654761A 
 141 01b4 5B66784F 		.ascii	"[fxOd\262~\273\371\222\316\214\344\266\325\201\014\233"
 141      64B27EBB 
 141      F992CE8C 
 141      E4B6D581 
 141      0C9B
 142 01c6 1BB09126 		.ascii	"\033\260\221&\366\\zu0\251(5\240\213\356_\252\245\265"
 142      F65C7A75 
 142      30A92835 
 142      A08BEE5F 
 142      AAA5B5
ARM GAS  /tmp/ccjJTx0P.s 			page 11


 143 01d9 86A63A1B 		.ascii	"\206\246:\033\226g=h\352\306\276\375\032\221\033T[k"
 143      96673D68 
 143      EAC6BEFD 
 143      1A911B54 
 143      5B6B
 144 01eb E88A37DD 		.ascii	"\350\2127\335u\207\314\377\336\241owN(\320\010\365C"
 144      7587CCFF 
 144      DEA16F77 
 144      4E28D008 
 144      F543
 145 01fd 50802D58 		.ascii	"P\200-X\330iT\337\244z\234\377y\034q\316\273\234\017"
 145      D86954DF 
 145      A47A9CFF 
 145      791C71CE 
 145      BB9C0F
 146 0210 DA48BE36 		.ascii	"\332H\2766\244sbspH\231\327\375/\312G(o\377=,\341jM"
 146      A4736273 
 146      704899D7 
 146      FD2FCA47 
 146      286FFF3D 
 147 0228 5037F49F 		.ascii	"P7\364\2378\264\031+W\310g-\2730}\315\232\316\316Yv"
 147      38B4192B 
 147      57C8672D 
 147      BB307DCD 
 147      9ACECE59 
 148 023d CE99720A 		.ascii	"\316\231r\012E\253\344^\271|\311\242\304-YE\327\246"
 148      45ABE45E 
 148      B97CC9A2 
 148      C42D5945 
 148      D7A6
 149 024f FA5C2963 		.ascii	"\372\\)c\303X\037\217\317\026\334R\321:uv\374\364\370"
 149      C3581F8F 
 149      CF16DC52 
 149      D13A7576 
 149      FCF4F8
 150 0262 557AC02E 		.ascii	"Uz\300.\270\331\013%'\237u39\370\007WY7\000"
 150      B8D90B25 
 150      279F7533 
 150      39F80757 
 150      593700
 151              		.text
 152              		.section	.gnu.lto_.symbol_nodes.7bca6c5de0c42b25,"",%progbits
 153 0000 789C45C8 		.ascii	"x\234E\310\315\011\2000\024\003\340\344\275\3261\\\365"
 153      CD098030 
 153      1403E0E4 
 153      BDD6315C 
 153      F5
 154 0011 1504114F 		.ascii	"\025\004\021ON\340\2457\177P\334\241x\323-\234CA\261"
 154      4EE0A537 
 154      7F50DCA1 
 154      78D32D9C 
 154      4341B1
 155 0024 B9245F04 		.ascii	"\271$_\004\202\200/2\320\200\356\000\314\372\206~\346"
 155      82802F32 
 155      D080EE00 
 155      CCFA867E 
 155      E6
ARM GAS  /tmp/ccjJTx0P.s 			page 12


 156 0035 B320238D 		.ascii	"\263 #\215\371\225\211&\231\\i\3722\004r\241\271\254"
 156      F9958926 
 156      995C69FA 
 156      320472A1 
 156      B9AC
 157 0047 8DE67FA9 		.ascii	"\215\346\177\251x\304:=\355P\265\247S-\020\367\213\252"
 157      78C43A3D 
 157      ED50B5A7 
 157      532D10F7 
 157      8BAA
 158 0059 0EB14D25 		.ascii	"\016\261M%n\\e$]"
 158      6E5C6524 
 158      5D
 159              		.text
 160              		.section	.gnu.lto_.refs.7bca6c5de0c42b25,"",%progbits
 161 0000 789C6362 		.ascii	"x\234cb`bPe\200\0006\006FF&F\010fddeb\000\263\200\202"
 161      60625065 
 161      80003606 
 161      46462646 
 161      08666464 
 162 001a 8C2CCC20 		.ascii	"\214,\314 \232\011\210\031\000\013\224\000\\"
 162      9A098819 
 162      000B9400 
 162      5C
 163              		.text
 164              		.section	.gnu.lto_.decls.7bca6c5de0c42b25,"",%progbits
 165 0000 789CBD5B 		.ascii	"x\234\275[\177p\024E\276\237\236I\262Y\022!\347\235"
 165      7F701445 
 165      BE9F9E49 
 165      B2591221 
 165      E79D
 166 0012 3C7CF5AA 		.ascii	"<|\365\252\210w\336+\352\2564\374\360\235X\257\236\342"
 166      8877DE2B 
 166      EAAE34FC 
 166      F09D58AF 
 166      9EE2
 167 0024 0B3EB1EA 		.ascii	"\013>\261\352\270g\005\356\312\252\373c\0356\003\331"
 167      B86705EE 
 167      CAAAFB63 
 167      1D3603D9 
 168 0034 77C96E6E 		.ascii	"w\311nnv\022\240\336\037N~\020\0169\275\020P\301\343"
 168      7612A0DE 
 168      1F4E7E10 
 168      0E39BD10 
 168      50C1E3
 169 0047 47F0E44E 		.ascii	"G\360\344N\016,\221\337 !\203\202\211\342\017\010\230"
 169      0E2C91DF 
 169      20218382 
 169      89E20F08 
 169      98
 170 0058 081C1285 		.ascii	"\010\034\022\205(\"\217\004c\202\001\314\276\356o\317"
 170      28228F04 
 170      638201CC 
 170      BEEE6FCF 
 171 0068 EC764F66 		.ascii	"\354vOfvg\242wS\325\275=3\335\237\376\364\367\373\355"
 171      7667A277 
 171      53D5BD3D 
ARM GAS  /tmp/ccjJTx0P.s 			page 13


 171      33DD9FFE 
 171      F4F7FBED 
 172 007c EE6FF7F4 		.ascii	"\356o\367\364\212\202(\\F\202\220\300W\311tA\370\337"
 172      8A82285C 
 172      468290C0 
 172      57C97441 
 172      F8DF
 173 008e 80206409 		.ascii	"\200 d\011\202p?\016\370\261\260Q\240W\016\016[px\005"
 173      82703F0E 
 173      F8B1B051 
 173      A0570E0E 
 173      5B707805 
 174 00a2 874E1CFE 		.ascii	"\207N\034\376\206C7\016\237\230\371.\010\374E\362b("
 174      8643370E 
 174      9F98F92E 
 174      08FC45F2 
 174      6228
 175 00b4 613B0E6B 		.ascii	"a;\016kp\206\036\374\333\202\177\017\"\212)\341\220"
 175      70861EFC 
 175      DB827F0F 
 175      228A29E1 
 175      90
 176 00c5 8DC36A7C 		.ascii	"\215\303j|\337\214\303\006\362\034\207\027\020\305\333"
 176      DF8CC306 
 176      F21C8717 
 176      10C5DB
 177 00d4 E2824BEA 		.ascii	"\342\202K\352\277\325\304\035\213C\276\211\0250\271"
 177      BFD5C41D 
 177      8B43BE89 
 177      1530B9
 178 00e3 3E80C30E 		.ascii	">\200\303\016\034\014[\275\2558\0308\364\233\034\276"
 178      1C0C5BBD 
 178      AD381838 
 178      F49B1CBE 
 179 00f3 C2E12C7E 		.ascii	"\302\341,~7\006\2076\034ZM.\204G\227\311\243\005?\333"
 179      37068736 
 179      1C5A4D2E 
 179      844797C9 
 179      A3053FDB 
 180 0107 87C36B02 		.ascii	"\207\303k\002\345\226c\326?\200\323C\210\266\177\030"
 180      E59663D6 
 180      3F80D343 
 180      88B67F18 
 181 0117 515990B6 		.ascii	"QY\220\266\274\217\303\2738\234\300\341\270\003\367"
 181      BC8FC3BB 
 181      389CC0E1 
 181      B803F7
 182 0126 4E93F376 		.ascii	"N\223\363v\223\363\016\2233\341z\304AN\242(\010[\205"
 182      93F30E93 
 182      33E17AC4 
 182      414EA228 
 182      085B85
 183 0139 14D75C93 		.ascii	"\024\327\\\223O\213\311\311\342\274\321\344M8g\233\365"
 183      4F8BC9C9 
 183      E2BCD1E4 
 183      4D38679B 
 183      F5
ARM GAS  /tmp/ccjJTx0P.s 			page 14


 184 014a 4822D58D 		.ascii	"H\"\325\215\305\017\337\012\247\0358\005\205\337\351"
 184      C50FDF0A 
 184      A71D3805 
 184      85DFE9
 185 0159 7AADAE37 		.ascii	"z\255\2567\350\223^\302\334\036C2\032\033\024\012 \221"
 185      E8935EC2 
 185      DC1E4332 
 185      1A1B140A 
 185      2091
 186 016b 1F84623F 		.ascii	"\037\204b?\026^\324\365\306\356#\177\274M\317\222\321"
 186      165ED4F5 
 186      C6EE237F 
 186      BC4DCF92 
 186      D1
 187 017c 46449EFE 		.ascii	"FD\236\376;\022~\"l\326\361s]\177\341GH\030yy\006n\336"
 187      3B127E22 
 187      6CD6F173 
 187      5D7FE147 
 187      48187979 
 188 0193 D7309E00 		.ascii	"\3270\236\000o\002\340\337\"AF/\242\237\370\2467\260"
 188      6F02E0DF 
 188      2241462F 
 188      A29FF8A6 
 188      37B0
 189 01a5 F42FF7E9 		.ascii	"\364/\367\351z\256\214^\002\234W\020\017$#)\310\322"
 189      7AAE8C5E 
 189      029C5710 
 189      0F242329 
 189      C8D2
 190 01b7 837B2B03 		.ascii	"\203{+\003A\203\327f\"\221\220\204\277c\346\211\302"
 190      4183D766 
 190      22919084 
 190      BF63E689 
 190      C2
 191 01c8 7ABDB9BB 		.ascii	"z\275\271\273{`yk\316\032\335\250\327\023\211'\204\361"
 191      7B60796B 
 191      CE1ADDA8 
 191      D7138927 
 191      84F1
 192 01da C233589A 		.ascii	"\3023X\232zs\203\256#MF\367\337f\265\265\320jk\226\211"
 192      7A7383AE 
 192      234D46F7 
 192      DF66B5B5 
 192      D06A6B96 
 193 01ef BE158D37 		.ascii	"\276\025\2157S\2774+\026\205\317m\255\025\204\177\025"
 193      53BF342B 
 193      1685CF6D 
 193      AD15847F 
 193      15
 194 0200 36113CFD 		.ascii	"6\021<\375%]\0024\222\177\013\232\310\023}\031\211\354"
 194      255D0234 
 194      927F0B9A 
 194      C8137D19 
 194      89EC
 195 0212 03C2ABBB 		.ascii	"\003\302\253\273\317\030~3\277\261\246;\221\230\350"
 195      CF187E33 
 195      BFB1A63B 
ARM GAS  /tmp/ccjJTx0P.s 			page 15


 195      9198E8
 196 0221 9DD33693 		.ascii	"\235\3236\223\223\004\032\021\362\204'\211\326p\301"
 196      93041A11 
 196      F2842789 
 196      D670C1
 197 0230 59ED636F 		.ascii	"Y\355co\025V\020\224\302\366\224\376p\2077\001~\220"
 197      15561094 
 197      C2F694FE 
 197      70873701 
 197      7E90
 198 0242 52E0A6DE 		.ascii	"R\340\246\336\366,P\340\016t+\206\371\322\326\244\214"
 198      F62C50E0 
 198      0E742B86 
 198      F9D2D6A4 
 198      8C
 199 0253 30A2502B 		.ascii	"0\242P+\222\"\273qqZ\020\200\365\356\256\216\377\253"
 199      9222BB71 
 199      715A1080 
 199      F5EEAE8E 
 199      FFAB
 200 0265 4335B80D 		.ascii	"C5\270\015\364\235`\223\024s\335!4c\336\306\276?\254"
 200      F49D6093 
 200      1473DD21 
 200      3463DEC6 
 200      BE3FAC
 201 0278 BB5D6F7E 		.ascii	"\273]o~\035\347\337\216\3620n{\022\327\251\375f\222"
 201      1DE7DF8E 
 201      F2306E7B 
 201      12D7A9FD 
 201      6692
 202 028a 5E66061E 		.ascii	"^f\006\036o\377\373\371\215\262\005v\3147X!\007\326"
 202      6FFFFBF9 
 202      8DB20576 
 202      CC375821 
 202      07D6
 203 029c F2FEDA09 		.ascii	"\362\376\332\011z\363!d\365\304\017\355x\\\3470\223"
 203      7AF32164 
 203      F5C40FED 
 203      785CE730 
 203      93
 204 02ad B9EEE40E 		.ascii	"\271\356\344\016\022r\234\302\274\253\375\020\257v\031"
 204      12729CC2 
 204      BCABFD10 
 204      AF7619
 205 02bc 3D90C798 		.ascii	"=\220\307\230%\333\002\246\240\251\356%W\014\021\324"
 205      25DB02A6 
 205      A0A9EE25 
 205      570C11D4 
 206 02cc 6D80583E 		.ascii	"m\200X>\026yus\214hMn,\216\240<\027\225\216x'\012\227"
 206      16797573 
 206      8C684D6E 
 206      2C8EA03C 
 206      17958E78 
 207 02e3 BC883F97 		.ascii	"\274\210?\227'\317\210\013\033\323W\177B+\353\364\366"
 207      27CF880B 
 207      1BD3577F 
 207      422BEBF4 
ARM GAS  /tmp/ccjJTx0P.s 			page 16


 207      F6
 208 02f4 C9D05A6C 		.ascii	"\311\320Zl\247^\000\013\034\344\357t\261\326+\243\275"
 208      A75E000B 
 208      1CE4EF74 
 208      B1D62BA3 
 208      BD
 209 0305 E8C738DE 		.ascii	"\350\3078\336\207\356\300\361k\020\267@\334\012q\033"
 209      87EEC0F1 
 209      6B10B740 
 209      DC0A711B 
 210 0315 8ED30A9A 		.ascii	"\216\323\012\232\300\021\2333\257\244\222\210\335\260"
 210      C0119B33 
 210      AFA49288 
 210      DDB0
 211 0323 F706CDC3 		.ascii	"\367\006\315\303*Q\020x=\212\302\220M?w\012\177\322"
 211      2A511078 
 211      3D8AC290 
 211      4D3F770A 
 211      7FD2
 212 0335 F5A6EE81 		.ascii	"\365\246\356\201\243\3476\242Uu\372,\313\274\353%\222"
 212      A3E736A2 
 212      5575FA2C 
 212      CBBCEB25 
 212      92
 213 0346 EF153CD2 		.ascii	"\357\025<\3228Q2\011\321\302\372\011y\222e\305\277\263"
 213      38513209 
 213      D1C2FA09 
 213      799265C5 
 213      BFB3
 214 0358 17E3ACD8 		.ascii	"\027\343\254\330\344L\213\031+\226\222\356)Z\226\363"
 214      E44C8B19 
 214      2B9692EE 
 214      295A96F3 
 215 0368 74861A0D 		.ascii	"t\206\032\015\246\306W\225Y\246\332\236\311P\212\012"
 215      A6C65795 
 215      59A6DA9E 
 215      C9508A0A 
 216 0378 818EA246 		.ascii	"\201\216\242F\242\241\256\031\3519\311\201\364\025\373"
 216      A2A1AE19 
 216      E939C981 
 216      F415FB
 217 0387 40FA8EE3 		.ascii	"@\372\216\343@\332x\324\367@\332e\357Q\333Q\236]\025"
 217      40DA78D4 
 217      F740DA65 
 217      EF51DB51 
 217      9E5D15
 218 039a 6B242755 		.ascii	"k$'U\350k\224YV\366\3670\035\031u\246WBr\216xJ_R\200"
 218      E86B9459 
 218      56F6F730 
 218      1D1975A6 
 218      5742728E 
 219 03b3 926DEBB4 		.ascii	"\222m\353\264\267\355\224C\333\032\273\327\235\371\250"
 219      B7ED9443 
 219      DB1ABBD7 
 219      9DF9A8
 220 03c2 06ADA86B 		.ascii	"\006\255\250kn\327\373\022\211q>\246\257\263\366\026"
 220      6ED7FB12 
ARM GAS  /tmp/ccjJTx0P.s 			page 17


 220      89713EA6 
 220      AFB3F616 
 221 03d2 12D5DA5A 		.ascii	"\022\325\332Z\370\241d\237\316h\326sNT\214\3017\177"
 221      F8A1649F 
 221      CE68D673 
 221      4E548CC1 
 221      377F
 222 03e4 AF232A68 		.ascii	"\257#*h\012/\012\347]\000>v\004\370\232\005\330\012"
 222      0A2F0AE7 
 222      5D003E76 
 222      04F89A05 
 222      D80A
 223 03f6 007D2E00 		.ascii	"\000}.\000\347y\200\037\012\033\2110\272:\022GP\223"
 223      E779801F 
 223      0A1B8930 
 223      BA3A1247 
 223      5093
 224 0408 8E85816D 		.ascii	"\216\205\201m%\201&:\314U\272d\011b\262\220\032\003"
 224      2581263A 
 224      CC55BA64 
 224      0962B290 
 224      1A03
 225 041a AF1D9360 		.ascii	"\257\035\223`\014\354\201)\357\246\224q\312\343ap\277"
 225      0CEC8129 
 225      EFA69471 
 225      CAE36170 
 225      BF
 226 042b C922452E 		.ascii	"\311\"E.\216\230\362\232\216,1\247\274\213\036\246<"
 226      8E98F29A 
 226      8E2C31A7 
 226      BC8B1EA6 
 226      3C
 227 043c DD58D7B9 		.ascii	"\335X\327\271\026\221)\317\241\312\356\344,\373/)\346"
 227      169129CF 
 227      A1CAEEE4 
 227      2CFB2F29 
 227      E6
 228 044d 3D97FA28 		.ascii	"=\227\372(\363\313\300\274)+#s\036F\0246@\221\336\221"
 228      F3CBC0BC 
 228      292B2373 
 228      1E461436 
 228      4091DE91 
 229 0461 CC4FD69B 		.ascii	"\314O\326\233\314{=1?\321\341\312|\006;\236[\"\377\314"
 229      CC7B3D31 
 229      3FD1E1CA 
 229      7C063B9E 
 229      5B22FFCC 
 230 0475 F432FA81 		.ascii	"\3642\372\201\370\313\316\304\233g\270\301\210B\013"
 230      F8CBCEC4 
 230      9B67B8C1 
 230      88420B
 231 0484 14191CE9 		.ascii	"\024\031\034\351e\234\2541\211\017z\3622>h\240^FFg)"
 231      659CAC31 
 231      890F7AF2 
 231      323E68A0 
 231      5E464667 
 232 0499 CBAA7F66 		.ascii	"\313\252\177f\252\031\365\363\012et\003\232\360^f\331"
ARM GAS  /tmp/ccjJTx0P.s 			page 18


 232      AA19F5F3 
 232      0A657403 
 232      9AF05E66 
 232      D9
 233 04aa F310A2D0 		.ascii	"\363\020\242\320\005E\206G\312\376#\253\011\303\236"
 233      05458647 
 233      CAFE23AB 
 233      09C39E
 234 04b9 9A70A3C1 		.ascii	"\232p\243\301r\224\256\323I<\211;:G\211x\236\262\005"
 234      7294AED3 
 234      493C893B 
 234      3A478978 
 234      9EB205
 235 04cc 76D13758 		.ascii	"v\3217X!\007\266\262m-\2203\227\020T\276i]\222\326\317"
 235      2107B6B2 
 235      6D2D9033 
 235      971054BE 
 235      695D92D6 
 236 04e1 2EDEDEA2 		.ascii	".\336\336\242\353\0052j\020\311\304\2637\333q1\342\001"
 236      EB05326A 
 236      10C9C4B3 
 236      37DB7131 
 236      E201
 237 04f3 695FC391 		.ascii	"i_\303\221C\250\026$\271\014\240\214QC\015,=@\3275\277"
 237      43A81624 
 237      B90CA08C 
 237      51430D2C 
 237      3D40D735 
 238 0508 07A0B76C 		.ascii	"\007\240\267l@2\012\330\3265\001~\365\021\010\246\022"
 238      40320AD8 
 238      D635017E 
 238      F51108A6 
 238      12
 239 0519 64913F4E 		.ascii	"d\221?N\370;g\027\205\223\331\0364\347\352\222\352\335"
 239      F83B6717 
 239      8593D91E 
 239      34E7EA92 
 239      EADD
 240 052b 9D4D3D88 		.ascii	"\235M=\210,\214$\2537\346\270\311H\024\316@]+D\233)"
 240      2C8C24AB 
 240      37E6B8C9 
 240      4814CE40 
 240      5D2B449B 
 241 0540 3FD77BEC 		.ascii	"?\327{\354\256\325\240J\362*\263%\3579\372\234\267\316"
 241      AED5A04A 
 241      F22AB325 
 241      EF39FA9C 
 241      B7CE
 242 0552 285AD5DF 		.ascii	"(Z\325\337\011\325\257\313!\325?k\257~G\377\305\373"
 242      09D5AFCB 
 242      21D53F6B 
 242      AF7E47FF 
 242      C5FB
 243 0564 69F5CF7A 		.ascii	"i\365\317z\252\376\325\216U#\253w\235FM\313x\256\267"
 243      AAFED58E 
 243      5523AB77 
 243      9D464DCB 
ARM GAS  /tmp/ccjJTx0P.s 			page 19


 243      78AEB7
 244 0577 6FD206A8 		.ascii	"o\322\006\250\344y\221t\230\317r\354\246\361@\036[\227"
 244      E4799174 
 244      98CF72EC 
 244      A6F1401E 
 244      5B97
 245 0589 E99E33CE 		.ascii	"\351\2363\316p_\222\375\250\372+nf\373#\233\267\353"
 245      705F92FD 
 245      A8FA2B6E 
 245      66FB239B 
 245      B7EB
 246 059b FAB21C8B 		.ascii	"\372\262\034\213C\277o\304BN\020;;`\004\240`\203^\300"
 246      43BF6FC4 
 246      424E103B 
 246      3B6004A0 
 246      60835EC0 
 247 05af D22C6D76 		.ascii	"\322,mv\263`C\276\301xf{Y\260\233^\300\234\234~kE\310"
 247      B36043BE 
 247      C178667B 
 247      59B09B5E 
 247      C09C9C7E 
 248 05c6 82257C83 		.ascii	"\202%|\203\361\314\016\260`\265\001\017`\023\334\231"
 248      F1CC0EB0 
 248      60B5010F 
 248      6013DC99 
 249 05d6 1D64C11A 		.ascii	"\035d\301\032|\203\361\314\216\261`Oz\001+t`\226\274"
 249      7C83F1CC 
 249      8EB1604F 
 249      7A012B74 
 249      6096BC
 250 05e9 DC5CCA67 		.ascii	"\334\\\312g\304\244\235\213\302S\001k@\360i\323B\012"
 250      C4A49D8B 
 250      C253016B 
 250      40F069D3 
 250      420A
 251 05fb 6345C0EF 		.ascii	"cE\300\357\000\306\265\033O\244\237n\264\026\211t2{"
 251      00C6B51B 
 251      4FA49F6E 
 251      B4168974 
 251      327B
 252 060d CE0B621A 		.ascii	"\316\013b\032\203y\276\215\231\0317\370\006\263\231"
 252      8379BE8D 
 252      991937F8 
 252      06B399
 253 061c 729B7DC9 		.ascii	"r\233}\311oNG\335\233\214\011\253S\203]\256\205E\366"
 253      6F4E47DD 
 253      9B8C09AB 
 253      53835DAE 
 253      8545F6
 254 062f F7E8C8D6 		.ascii	"\367\350\310\326\250\353b2\263>a\202s^\031\355\021\311"
 254      A8EB6232 
 254      B33E6182 
 254      735E19ED 
 254      11C9
 255 0641 D275AF18 		.ascii	"\322u\257\030L\262\240i+\225 \333\233\302_\002N;\207"
 255      4CB2A069 
 255      2B9520DB 
ARM GAS  /tmp/ccjJTx0P.s 			page 20


 255      9BC25F02 
 255      4E3B87
 256 0654 0090BEA8 		.ascii	"\000\220\276\250\233%\354b-a\253\0271\245\351\012\347"
 256      9B25EC62 
 256      2D61AB17 
 256      31A5E90A 
 256      E7
 257 0665 DAD6FE93 		.ascii	"\332\326\376\223\336m \246\275i\205C\034\210c\246\003"
 257      DE6D20A6 
 257      BD698543 
 257      1C8863A6 
 257      03
 258 0676 710026EB 		.ascii	"q\000&\353\035\001\307Y\337\003\322\276\206\227\177"
 258      1D01C759 
 258      DF03D2BE 
 258      86977F
 259 0685 0AB37E2B 		.ascii	"\012\263~+\000\035\0305\320\300\322\365\323\001\350"
 259      001D1835 
 259      D0C0D2F5 
 259      D301E8
 260 0694 75003A1C 		.ascii	"u\000:\034\260\317\021\310\346> ~\202G\301T\"\301k\353"
 260      B0CF11C8 
 260      E63E207E 
 260      8247C154 
 260      22C16BEB 
 261 06a8 3BCD8BFD 		.ascii	";\315\213\375X\273\272\270\346d\034l\260\003\376\315"
 261      58BBBAB8 
 261      E6641C6C 
 261      B003FECD 
 262 06b8 0AD45FAB 		.ascii	"\012\324_\253\257\236\354Ga\355\246\302\332@<\235#\304"
 262      AF9EEC47 
 262      61EDA6C2 
 262      DA403C9D 
 262      23C4
 263 06ca D32AFA93 		.ascii	"\323*\372\223\217(|\344\273\035\223\370v4\035n\362\337"
 263      8F287CE4 
 263      BB1D93F8 
 263      76341D6E 
 263      F2DF
 264 06dc 8E0FCD76 		.ascii	"\216\017\315v\274\003\355\370\364;h\307\025\337\355"
 264      BC03EDF8 
 264      F43B68C7 
 264      15DFED
 265 06eb 98CCB483 		.ascii	"\230\314\264\203\254&\006\232\350 \370}\241)\275\033"
 265      AC26069A 
 265      E820F87D 
 265      A129BD1B 
 266 06fb 47F81C17 		.ascii	"G\370\034\027\277\317\371P\306\251\267Q!}\234y\021x"
 266      BFCFF950 
 266      C6A9B751 
 266      217D9C79 
 266      1178
 267 070d ED6DC6D7 		.ascii	"\355m\306\327\327\275\371\372}\246\304N\202\304\006"
 267      D7BDF9FA 
 267      7DA6C44E 
 267      82C406
 268 071c 9C7A9827 		.ascii	"\234z\230'\244}o\036~\325\364\365\273\000\352\306\250"
ARM GAS  /tmp/ccjJTx0P.s 			page 21


 268      A47D6F1E 
 268      7ED5F4F5 
 268      BB00EAC6 
 268      A8
 269 072d A106DAF6 		.ascii	"\241\006\332\366\320\316z\032\200\352r\355Z\314\261"
 269      D0CE7A1A 
 269      80EA72ED 
 269      5ACCB1
 270 073c 29318757 		.ascii	")1\207W\"\276%5}M<q\364\204\371\204\334\004\204\177"
 270      22BE2535 
 270      7D4D3C71 
 270      F484F984 
 270      DC04847F 
 271 0750 78393C13 		.ascii	"x9<\023\003}\242\300\321x\227\304\200z\232\254Y\224"
 271      037DA2C0 
 271      D17897C4 
 271      807A9AAC 
 271      5994
 272 0762 2A69D5B7 		.ascii	"*i\325\267B\2545v,\267\326\253\260\007\270\356[\302"
 272      42AC3576 
 272      2CB7D6AB 
 272      B007B8EE 
 272      5BC2
 273 0774 1D3FEA7F 		.ascii	"\035?\352\177\205i\3743\265\272\363\320\240\027Ghx\231"
 273      8569FC33 
 273      B5BAF3D0 
 273      A0174768 
 273      7899
 274 0786 BD9F7A59 		.ascii	"\275\237zYpm\033mC\222\227(\354\311\3650[\026\246\321"
 274      706D1B6D 
 274      43929728 
 274      ECC9F530 
 274      5B16A6D1 
 275 079a 56C73553 		.ascii	"V\3075S[\031Wm\326\007\237\363\006\335\212\371\\$\373"
 275      5B19576D 
 275      D6079FF3 
 275      06DD8AF9 
 275      5C24FB
 276 07ad 18AFD964 		.ascii	"\030\257\331d\341a\361\3676\024\271l_}u5\275k\355c\\"
 276      E161F1F7 
 276      3614B96C 
 276      5F7D7535 
 276      BD6BED63 
 277 07c2 F6B6FAE3 		.ascii	"\366\266\372\343\3661dT+\212&\356h\345"
 277      F6316454 
 277      2B8A26EE 
 277      68E5
 278 07d0 C9A93045 		.ascii	"\311\2510EPFW\3001\352\025\231\275{Q8\355[\366\205\254"
 278      504657C0 
 278      31EA1599 
 278      BD7B5138 
 278      ED5BF685 
 279 07e5 EC8D1B47 		.ascii	"\354\215\033G\351\036\230\265\253u\301\2167\203uZ\315"
 279      E91E98B5 
 279      AB75C18E 
 279      3783755A 
 279      CD
ARM GAS  /tmp/ccjJTx0P.s 			page 22


 280 07f6 E424575D 		.ascii	"\344$W]\032M\357\201\267I;]\257\027r\223\335\300j\215"
 280      1A4DEF81 
 280      B7493B5D 
 280      AF177293 
 280      DDC06A8D 
 281 080a F5148C1A 		.ascii	"\365\024\214\032\374\200o\260B\016\254\345io\233fzr"
 281      FC806FB0 
 281      420EACE5 
 281      696F9B66 
 281      7A72
 282 081c B7B10024 		.ascii	"\267\261\000$\254\007I\275CvKY\367\327\343KMK\031\362"
 282      AC0749BD 
 282      43764B59 
 282      F7D7E34B 
 282      4D4B19F2 
 283 0830 602978A2 		.ascii	"`)x\242\351\011\352M\371\226\234\367'Q\323\310\331\311"
 283      E909EA4D 
 283      F9969CF7 
 283      2751D3C8 
 283      D9C9
 284 0842 4EACFDB3 		.ascii	"N\254\375\263\317\337B\000G\375\372\327\355p>\327\273"
 284      CFDF4200 
 284      47FDFAD7 
 284      ED703ED7 
 284      BB
 285 0853 C34AFB64 		.ascii	"\303J\373d\177\202\241=\3218\263\217L\265\265\022i\323"
 285      7F82A13D 
 285      D138B38F 
 285      4CB5B512 
 285      69D3
 286 0865 DB41FB90 		.ascii	"\333A\373\220D%\303\330\363\020c\3177\300\236o\212\344"
 286      4425C3D8 
 286      F31063CF 
 286      37C09E6F 
 286      8AE4
 287 0877 8BD430C4 		.ascii	"\213\3240\304\272\344\341\273T\215\3048\352\035\276"
 287      BAE4E1BB 
 287      548DC438 
 287      EA1DBE
 288 0886 DB5D68D3 		.ascii	"\333]h\323\216[5_\263\353\201SA\017\2667\335U\274xX"
 288      8E5B355F 
 288      B3EB8153 
 288      410FB637 
 288      DD55BC78 
 289 089b F960A535 		.ascii	"\371`\2455\037\321\015\302\363\276\021yk\276\37247\037"
 289      1FD10DC2 
 289      F3BE1179 
 289      6BBEFA34 
 289      371F
 290 08ad 5DF10237 		.ascii	"]\361\0027\303\201\240\323\305\356\357b\245\200\232"
 290      C381A0D3 
 290      C5EEEF62 
 290      A5809A
 291 08bc 6A404175 		.ascii	"j@Au\020/\201\270\021\342m\020o\207x'\304\257A\374&"
 291      102F81B8 
 291      11E26D10 
 291      6F877827 
ARM GAS  /tmp/ccjJTx0P.s 			page 23


 291      C4AF41FC 
 292 08d1 C447213E 		.ascii	"\304G!>\006\361E\210\257B\334\017\361\000\304\327 ^"
 292      06F14588 
 292      AF42DC0F 
 292      F100C4D7 
 292      205E
 293 08e3 2A917899 		.ascii	"*\221x\231\027\003\270\316\177\230\265\306\334\301Q"
 293      1703B8CE 
 293      7F98B5C6 
 293      DCC151
 294 08f2 EF1D77A6 		.ascii	"\357\035w\246\366\216eT\357\033\314nQ\234$\007\031I"
 294      F68E6554 
 294      EF1BCC6E 
 294      519C2407 
 294      1949
 295 0904 7E0D1F65 		.ascii	"~\015\037e\207\340\023\354r\211\033\306\007\203\326"
 295      87E013EC 
 295      72891BC6 
 295      0783D6
 296 0913 278DD10D 		.ascii	"'\215\321\015\007\037t\2545\315\201\232\327\260\035"
 296      071F74AC 
 296      35CD819A 
 296      D7B01D
 297 0922 CFD778A0 		.ascii	"\317\327x\240\033\037\322\355\227\0250\275.\031\343"
 297      1B1FD2ED 
 297      971530BD 
 297      2E19E3
 298 0931 178CB7D5 		.ascii	"\027\214\267\325sM\374^\377r/xiv4\372:\230\035\215\225"
 298      734DFC5E 
 298      FF722F78 
 298      697634FA 
 298      3A981D8D 
 299 0946 BEC17872 		.ascii	"\276\301xr\203,\330\037\275\2009\255\373\235\225\337"
 299      832CD81F 
 299      BD8039AD 
 299      FB9D95DF 
 300 0956 CB28FF2A 		.ascii	"\313(\377*(\377KP\376S`\354\177\200x\005\304+!~\206"
 300      28FF4B50 
 300      FE5360EC 
 300      7F807805 
 300      C42B217E 
 301 096b 378A4D63 		.ascii	"7\212Mc\254/tfe\374\207\260\214n\260\261\313\375\323"
 301      AC2F7466 
 301      65FC87B0 
 301      8C6EB0B1 
 301      CBFDD3
 302 097e DCE35671 		.ascii	"\334\343Vqr\012\316:\246\365\245\221\015^\325\032\030"
 302      720ACE3A 
 302      A6F5A591 
 302      0D5ED51A 
 302      18
 303 098f CEB78CC9 		.ascii	"\316\267\214\311\370u\210C\021\205CPb\2554\342\373\326"
 303      F8758843 
 303      11854350 
 303      62AD34E2 
 303      FBD6
 304 09a1 37D6291A 		.ascii	"7\326)\032\362.\263S5\304\235\242\221\321~\370(M\312"
ARM GAS  /tmp/ccjJTx0P.s 			page 24


 304      F22EB353 
 304      35C49DA2 
 304      91D17EF8 
 304      284DCA
 305 09b4 8EAE83DF 		.ascii	"\216\256\203\337L\235\242\221\321\001\337`\274\301\254"
 305      4C9DA291 
 305      D101DF60 
 305      BCC1AC
 306 09c3 E8604FD1 		.ascii	"\350`O\321\310\350\240\035\317\347)\232mM\371\307\036"
 306      C8E8A01D 
 306      CFE7299A 
 306      6D4DF9C7 
 306      1E
 307 09d4 4F1EC949 		.ascii	"O\036\311IJ\320+XA:\003L\251BF\353%b\200\033\300\320"
 307      4AD02B58 
 307      413A034C 
 307      A94246EB 
 307      2562801B 
 308 09ea 9A21DE08 		.ascii	"\232!\336\010\361\013\274\321]\260\033\035\247c\247"
 308      F10BBCD1 
 308      5DB01B1D 
 308      A763A7
 309 09f9 2EC08A47 		.ascii	".\300\212G7\016tbY{\365\343{\372\015\352\307\377\031"
 309      370E7462 
 309      597BF5E3 
 309      7BFA0DEA 
 309      C7FF19
 310 0a0c 2CEE0B67 		.ascii	",\356\013g\213K\347\307_\207\"\233G\230\\S\217\365-"
 310      8B4BE7C7 
 310      5F87229B 
 310      47985C53 
 310      8FF52D
 311 0a1f 78736693 		.ascii	"xsf\223\253\2573v\255\374s\312;\254K~F\331\215GS\267"
 311      ABAF3376 
 311      ADFC73CA 
 311      3BAC4B7E 
 311      46D98D47 
 312 0a35 7988DB31 		.ascii	"y\210\3331|2\317\342\361\235\370\375\233\031\305m\001"
 312      7C32CFE2 
 312      F19DF8FD 
 312      9B19C56D 
 312      01
 313 0a46 C56DE5D5 		.ascii	"\305m\345\325\264*\317\246&\247\372\322\370\351]\235"
 313      B42ACFA6 
 313      26A7FAD2 
 313      F8E95D9D 
 314 0a56 74C2F0AA 		.ascii	"t\302\360\252\251\253\373\257\336\013\232z\0254u4\317"
 314      A9ABFBAF 
 314      DE0B9A7A 
 314      15347534 
 314      CF
 315 0a67 A7A648A3 		.ascii	"\247\246H\243v\332\264d\364+\205\364\251\207\357\305"
 315      76DAB464 
 315      F42B85F4 
 315      A987EFC5 
 316 0a77 3DE0EFFA 		.ascii	"=\340\357\372Y/\367M\240\353\345=\022\351=\177\2631"
 316      592FF74D 
ARM GAS  /tmp/ccjJTx0P.s 			page 25


 316      A0EBE53D 
 316      12E93D7F 
 316      B331
 317 0a89 1EE57AF9 		.ascii	"\036\345z\371\002\300\354\374\256\364\274\223\321\363"
 317      02C0ECFC 
 317      AEF4BC93 
 317      D1F3
 318 0a97 2ED0F36E 		.ascii	".\320\363n^\317_\370\326sa\272\372.23\322%\230\221\276"
 318      5ECF5FF8 
 318      D67361BA 
 318      FA2E3233 
 318      D2259891 
 319 0aac 80196935 		.ascii	"\200\031i5\014\005\233 \336\3063\270\222\024\234\265"
 319      0C059B20 
 319      DEC633B8 
 319      92149CB5 
 320 0abc 0EE00E92 		.ascii	"\016\340\016\222\020\324\003R\362h\213\3553d\217\013"
 320      10D40352 
 320      F2688BED 
 320      33648F0B 
 321 0acc 7152AA25 		.ascii	"qR\252%\345\310\333J\255q\021/)u0U\012\214\241.\255"
 321      E5C8DB4A 
 321      AD71112F 
 321      29753055 
 321      0A8CA12E 
 322 0ae1 31C8E849 		.ascii	"1\310\350Ip_3\253\326i\301\223cA=\236\262\253\023\255"
 322      705F33AB 
 322      D669C193 
 322      63413D9E 
 322      B2AB13AD 
 323 0af5 A7A27530 		.ascii	"\247\242u0\260\030\320\023\366\346g>y\303\341\020Ro"
 323      B018D013 
 323      F6E6673E 
 323      79C3E110 
 323      526F
 324 0b07 D87BC237 		.ascii	"\330{\3027\247\363\311A\3467<\215U\211\323\226\263\327"
 324      A7F3C941 
 324      E6373C8D 
 324      5589D396 
 324      B3D7
 325 0b19 0AA67D18 		.ascii	"\012\246}\030(\2741\272\351\021\3435\236\201\351\221"
 325      28BC31BA 
 325      E911E335 
 325      9E81E991 
 326 0b29 82B5FB06 		.ascii	"\202\265\373\006+\344\300\232X\260w\274\200\271\315"
 326      2BE4C09A 
 326      58B077BC 
 326      80B9CD
 327 0b38 8D186C15 		.ascii	"\215\030l\025\013v\3347\030\317\354Y\026\254\323\013"
 327      0B76DC37 
 327      18CFEC59 
 327      16ACD30B 
 328 0b48 989B0F8A 		.ascii	"\230\233\017\212\301V\263`\247|\203\361\314\236g\301"
 328      C156B360 
 328      A77C83F1 
 328      CC9E67C1 
 329 0b58 CE7A0173 		.ascii	"\316z\001s\373\366\204\301\326\262`\347}\203\361\314"
ARM GAS  /tmp/ccjJTx0P.s 			page 26


 329      FBF684C1 
 329      D6B260E7 
 329      7D83F1CC 
 330 0b68 D6B3609F 		.ascii	"\326\263`\237{\001+tg\266\215\005\273\342\033\214g\266"
 330      7B012B74 
 330      67B68D05 
 330      BBE21B8C 
 330      67B6
 331 0b7a 9D05FBD2 		.ascii	"\235\005\373\322\013\230\333l\210\301v\262`\203\276"
 331      0B98DB6C 
 331      88C176B2 
 331      6083BE
 332 0b89 C17866BB 		.ascii	"\301xf\273Y\260\353^\300\334\266\300\352k\214\275\277"
 332      59B0EB5E 
 332      C0DCB6C0 
 332      EA6B8CBD 
 332      BF
 333 0b9a 6E94BF27 		.ascii	"n\224\277'4\232C\012E\265\206\025\304\233\026\233m\231"
 333      349A430A 
 333      45B58615 
 333      C49B169B 
 333      6D99
 334 0bac E89A4D46 		.ascii	"\350\232MF\037K\337\203\024\367u\001r\270\015\272\237"
 334      1F4BDF83 
 334      14F77501 
 334      72B80DBA 
 334      9F
 335 0bbd 48A94FAA 		.ascii	"H\251O\252\371\301T\202\375\373B*\027Y\177\332\233\315"
 335      F9C15482 
 335      FDFB422A 
 335      17597FDA 
 335      9BCD
 336 0bcf B3706A37 		.ascii	"\263pj7/\304\375\254\020ko\361 \304\031\356`\007X\260"
 336      2FC4FDAC 
 336      106B6FF1 
 336      20C419EE 
 336      600758B0 
 337 0be3 A55EC066 		.ascii	"\245^\300f\271\333\312A\026l\271o0\236\3311\026\254"
 337      B9DBCA41 
 337      166CB96F 
 337      309ED931 
 337      16AC
 338 0bf5 D10BD8A3 		.ascii	"\321\013\330\243\356\314:X\260\225\276\301Xf5\306\311"
 338      EECC3A58 
 338      B095BEC1 
 338      586635C6 
 338      C9
 339 0c06 94E19123 		.ascii	"\224\341\221#\215\234\345\315\340G[.\033cy\266l2\352"
 339      8D9CE5CD 
 339      E0475B2E 
 339      1B6379B6 
 339      6C32EA
 340 0c19 F36D7857 		.ascii	"\363mxW]\014\217\375D\234\312EN8\333\233\315\2210\223"
 340      5D0C8FFD 
 340      449CCA45 
 340      4E38DB9B 
 340      CD913093 
ARM GAS  /tmp/ccjJTx0P.s 			page 27


 341 0c2d 8F39C8D0 		.ascii	"\2179\310\320\351b'j\031\035\006\377\354\010\370Hm\020"
 341      E962276A 
 341      191D06FF 
 341      EC08F848 
 341      6D10
 342 0c3f BF05F151 		.ascii	"\277\005\361Q\210\337\205\370}\210\217C|\002\342\017"
 342      88DF85F8 
 342      7D888F43 
 342      7C02E20F 
 343 0c4f 20EE82F8 		.ascii	" \356\202\370\024\304g >\013\3619\210/@\374)\304\027"
 343      14C46720 
 343      3E0BF139 
 343      882F40FC 
 343      29C417
 344 0c62 21BE04F1 		.ascii	"!\276\004\361e\210\257\260\376\230\315S2\322xJ\375\256"
 344      6588AFB0 
 344      FE98CD53 
 344      32D2784A 
 344      FDAE
 345 0c74 FED5D934 		.ascii	"\376\325\3314\177\211\370*U\212\234q6\372\272o^\272"
 345      7F89F82A 
 345      558A9C71 
 345      36FABA6F 
 345      5EBA
 346 0c86 3AD1FAB3 		.ascii	":\321\372\263\321\035\266\323\332d\325\352\2064(\215"
 346      D11DB6D3 
 346      DA64D5EA 
 346      8634288D 
 347 0c96 FCB7D127 		.ascii	"\374\267\321'\267\360\336\222y\222\274V\337\366\222"
 347      B7F0DE92 
 347      7992BC56 
 347      DFF692
 348 0ca5 9E6DFDBF 		.ascii	"\236m\375\277@F\003\222\363i~\023\357\2324\342,6\346"
 348      40460392 
 348      F3697E13 
 348      EF9A34E2 
 348      2C36E6
 349 0cb8 79A6F7D0 		.ascii	"y\246\367\320\355[\311\2212}8\361DM=\262Nt\357\032\313"
 349      ED5BC991 
 349      327D38F1 
 349      444D3DB2 
 349      4E74EF1A 
 350 0ccd D7691E7A 		.ascii	"\327i\036z?\223\372\013\301;\220c\310\245\322\344\337"
 350      3F93FA0B 
 350      C13B9063 
 350      C8A5D2E4 
 350      DF
 351 0cde 1ECC43EF 		.ascii	"\036\314C\357\247\364G'$\317\274\223B\234\305\\w\342"
 351      A7F44727 
 351      24CFBC93 
 351      429CC55C 
 351      77E2
 352 0cf0 66DC34FF 		.ascii	"f\3344\377\030\265\301(\260h\035w\246\325e\321\222\321"
 352      18B5C128 
 352      B0681D77 
 352      A6D565D1 
 352      92D1
ARM GAS  /tmp/ccjJTx0P.s 			page 28


 353 0d02 4D89EC2C 		.ascii	"M\211\354,\014\217\206\326\260\235V\202\247e3\210\255"
 353      0C8F86D6 
 353      B09D5682 
 353      A7653388 
 353      AD
 354 0d13 690CA236 		.ascii	"i\014\2426\313f\020\306I\2661\364\320\373\247c\035\365"
 354      CB6610C6 
 354      49B631F4 
 354      D0FBA763 
 354      1DF5
 355 0d25 AAF3FF22 		.ascii	"\252\363\377\"\253\313\262\261\252\317\342X\011\323"
 355      ABCBB2B1 
 355      AACFE258 
 355      09D3
 356 0d33 8BCA6215 		.ascii	"\213\312b\025JQ8V\272\270\250T\251.\012\227E\346Eb\361"
 356      4A513856 
 356      BAB8A854 
 356      A92E0A97 
 356      45E64562 
 357 0d48 224DAD8A 		.ascii	"\"M\255\212\376\246\010'T\255(\022\015\227W\225\342"
 357      FEA60827 
 357      54AD2812 
 357      0D975795 
 357      E2
 358 0d59 4C65F1C5 		.ascii	"Le\361\305qmq\245\022\277\273L\010\222t\244B\011i9\017"
 358      716D71A5 
 358      12BFBB4C 
 358      089274A4 
 358      42096939 
 359 0d6e FFE29785 		.ascii	"\377\342\227\205\305\302\235EUq\265HV+\356\212\306\242"
 359      C5C29D45 
 359      5571B548 
 359      562BEE8A 
 359      C6A2
 360 0d80 CA5D8A3C 		.ascii	"\312]\212</\222,\031\327J#Q\015\227\312\255\302\277"
 360      2F922C19 
 360      D74A2351 
 360      0D97CAAD 
 360      C2BF
 361 0d92 537E16D2 		.ascii	"S~\026\322\356I\223\273B\306,\242JQ\250T\231/W\225k"
 361      EE4993BB 
 361      42C62CA2 
 361      4A51A854 
 361      992F5795 
 362 0da7 21ABCE31 		.ascii	"!\253\3161\241\220U\376n\017\274\343j\030?\257\326\356"
 362      A19055FE 
 362      6E0FBCE3 
 362      6A183FAF 
 362      D6EE
 363 0db9 0E0BB9A1 		.ascii	"\016\013\271\241j-\024\211F\264q\325\021U\253\222\313"
 363      6A2D1489 
 363      46B471D5 
 363      1155AB92 
 363      CB
 364 0dca 4384BB1A 		.ascii	"C\204\273\032\322\012\302e!\356\321=\376\004\022.+\305"
 364      D20AC265 
 364      21EED13D 
ARM GAS  /tmp/ccjJTx0P.s 			page 29


 364      FE04122E 
 364      2BC5
 365 0ddc C402183D 		.ascii	"\304\002\030=\252,\322\310o\245\252T\347\342\337R\245"
 365      AA2CD2C8 
 365      6FA5AA54 
 365      E7E2DF52 
 365      A5
 366 0ded 5C937162 		.ascii	"\\\223qb~U4\034\2027$\225Cr\310\352\230p\331\257\346"
 366      7E55341C 
 366      82372495 
 366      4372C8EA 
 366      9870D9AF 
 367 0e02 CE8CCD51 		.ascii	"\316\214\315Q\264G\244j\2552\033g\226\027\347\320\314"
 367      B447A46A 
 367      AD321B67 
 367      9617E7D0 
 367      CC
 368 0e13 127E9F4F 		.ascii	"\022~\237O\337\227(q\234cJ&Jer9#j\"\250\270\206\241"
 368      DF972871 
 368      9C634A26 
 368      4A657239 
 368      236A22A8 
 369 0e2a 1F2CC7F2 		.ascii	"\037,\307\362\315\307IMV\351M\036\271\211U\3224n9\321"
 369      CDC7494D 
 369      56E94D1E 
 369      B98955D2 
 369      346E39D1 
 370 0e3e A15211D2 		.ascii	"\241R\021\322\202\311t\276\252\310\245\213C\345\221"
 370      82C974BE 
 370      AAC8A58B 
 370      43E591
 371 0e4d 3816FB2D 		.ascii	"8\026\373-\370q\352~\234VFn\342\241\337V)U\012\025\035"
 371      F871EA7E 
 371      9C56466E 
 371      E2A1DF56 
 371      29550A15 
 372 0e62 F72897DE 		.ascii	"\367(\227\336Q8\232\316\251\004\271\340\037\"\226Y\036"
 372      51389ACE 
 372      A904B9E0 
 372      1F229659 
 372      1E
 373 0e73 645B1953 		.ascii	"d[\031S\265x\321\203%\263\213g/\3029+*#\345\212\032"
 373      B578D183 
 373      25B38B67 
 373      2FC2392B 
 373      2A23E58A 
 374 0e88 2F7AB8B8 		.ascii	"/z\270\270\030g\267\014!\240U\252\221XH\003s\23265\244"
 374      1867B70C 
 374      21A055AA 
 374      91584803 
 374      739A3635 
 375 0e9d 99964192 		.ascii	"\231\226A\222PW$\026\010\307\242\032\256\372>\337u\226"
 375      50572416 
 375      08C7A21A 
 375      AEFA3EDF 
 375      7596
 376 0eaf 8563AA82 		.ascii	"\205c\252\202+\311#\217\261\321ham\321\177\214\016%"
ARM GAS  /tmp/ccjJTx0P.s 			page 30


 376      2BC9238F 
 376      B1D16861 
 376      6DD17F8C 
 376      0E25
 377 0ec1 547D6F05 		.ascii	"T}o\005\261zUY\200%\036\322D\365\036Q\3757Q\375\231"
 377      B17A5559 
 377      80251ED2 
 377      44F51E51 
 377      FD3751FD 
 378 0ed6 A8DE2BAA 		.ascii	"\250\336+\252\323E\365>I\2352\031\207)b\271\212\177"
 378      D345F53E 
 378      499D3219 
 378      872962B9 
 378      8A7F
 379 0ee8 A6655786 		.ascii	"\246eW\206pm\001\"\265\205\212\212\177c\345\245\212"
 379      706D0122 
 379      B5858A8A 
 379      7F63E5A5 
 379      8A
 380 0ef9 9A152E93 		.ascii	"\232\025.\223U\"J\271\002\0139\256\311\032\026\177\200"
 380      55224AB9 
 380      020B39AE 
 380      C91A167F 
 380      80
 381 0f0a 34783A16 		.ascii	"4x:\0266m:N\341\354\360.\240U\304J\025\270\237_./\210"
 381      366D3A4E 
 381      E1ECF02E 
 381      A055C44A 
 381      15B89F5F 
 382 0f21 07345599 		.ascii	"\0074U\231\037\007\311\220DvE|\001~i\212\013\027\267"
 382      1F07C990 
 382      4476457C 
 382      017E698A 
 382      0B17B7
 383 0f34 04A7962E 		.ascii	"\004\247\226.\306\257r\225E\021\0157T\311Y\250\305\346"
 383      C6AF7295 
 383      45110D37 
 383      54C959A8 
 383      C5E6
 384 0f46 FD4F659E 		.ascii	"\375Oe\236R\255D\265\0129\376\033\234EYH\022Re\250j"
 384      52AD44B5 
 384      0A39FE1B 
 384      9C455948 
 384      125265A8 
 385 0f5b ACA57A6A 		.ascii	"\254\245zj*\343\030c O\202\225\241\205rD\213D\027\214"
 385      2AE31863 
 385      204F8295 
 385      A1857244 
 385      8B44178C 
 386 0f6f A90C6154 		.ascii	"\251\014aT0\220lH\342\007J\245\022\305#\302\202\354"
 386      30906C48 
 386      E2074AA5 
 386      12C523C2 
 386      82EC
 387 0f81 8A2AACA3 		.ascii	"\212*\254\243i\276\272\\\205\266\210X@\005\2659\374"
 387      69BEBA5C 
 387      85B68858 
ARM GAS  /tmp/ccjJTx0P.s 			page 31


 387      4005B539 
 387      FC
 388 0f92 1B5B18C5 		.ascii	"\033[\030\305\242\002$\314\260\002\014\016W\217"
 388      A20224CC 
 388      B0020C0E 
 388      578F
 389 0fa0 F3112263 		.ascii	"\363\021\"cH\243\345r0\011\374\2602\026+\017\250\264"
 389      48A3E572 
 389      3009FCB0 
 389      32162B0F 
 389      A8B4
 390 0fb2 6C8E0A96 		.ascii	"l\216\012\226\222\255\202\314US\346*\225y\020?\255R"
 390      92AD82CC 
 390      5553E62A 
 390      9579103F 
 390      AD52
 391 0fc4 55DCF46C 		.ascii	"U\334\364l\225\340\334\306\215\022V\263\307\333\207"
 391      95E0DCC6 
 391      8D1256B3 
 391      C7DB87
 392 0fd3 0FFA220F 		.ascii	"\017\372\"\017\367\362r9\256\221G\270W\223Gc\315\276"
 392      F7F27239 
 392      AE9147B8 
 392      57934763 
 392      CDBE
 393 0fe5 56AACCAB 		.ascii	"V\252\314\253Z@\345\305>\011V\312\321H\230\210G*\235"
 393      5A40E5C5 
 393      3E0956CA 
 393      D1489888 
 393      472A9D
 394 0ff8 B760AA2F 		.ascii	"\267`\252/\211h\304\306"
 394      8968C4C6 
 395 1000 0AB48A50 		.ascii	"\012\264\212PX.\217\314Se-\022\213b\005\253Z8\212)\346"
 395      582E8FCC 
 395      53652D12 
 395      8B6205AB 
 395      5A388A29 
 396 1015 C4E6CFC7 		.ascii	"\304\346\317\307\243\210\250U\210\341\262\377\3622\224"
 396      A388A855 
 396      88E1B2FF 
 396      F23294
 397 1024 50439E33 		.ascii	"PC\2363w\366\264\251E?\377\371\314\242\271\217\314\256"
 397      77F6B4A9 
 397      453FFFF9 
 397      CCA2B98F 
 397      CCAE
 398 1036 9E820796 		.ascii	"\236\202\007\226\012b%\021RY^\362&\244I\305%Sp\230\232"
 398      0A622511 
 398      52595EF2 
 398      26A449C5 
 398      25537098 
 399 104b 35677671 		.ascii	"5gvqI\326\314G\036*\021\347\224H\017=\\\222]\\<\273"
 399      49D6CC47 
 399      1E2A11E7 
 399      94480F3D 
 399      5C925D5C 
 400 1061 640AC453 		.ascii	"d\012\304S\263\212\213\037*\221\212\1771WztN\261\364"
ARM GAS  /tmp/ccjJTx0P.s 			page 32


 400      B38A8B1F 
 400      2A918A7F 
 400      31577A74 
 400      4EB1F4
 401 1074 60498954 		.ascii	"`I\211TR\214\357q\201\377\2349\267D\232IJ\316~\260D"
 401      528CEF71 
 401      81FF9C39 
 401      B7449A49 
 401      4ACE7EB0 
 402 1089 FC6F5A6A 		.ascii	"\374oZj\032\316\377XI\361\267!\033*/'#\363\2554\025"
 402      1ACEFF58 
 402      49F1B721 
 402      1B2A2F27 
 402      23F3AD34 
 403 109e 5AA068A1 		.ascii	"Z\240h\241p\254\012\017\011\352\003\243\354\313\240"
 403      70AC0A0F 
 403      09EA03A3 
 403      ECCBA0
 404 10ad 5F0C391E 		.ascii	"_\0149\036\306\005:\177\304\311\320\032\222\311x\232"
 404      C6053A7F 
 404      C4C9D01A 
 404      92C9789A 
 405 10bd 459EFC80 		.ascii	"E\236\374\200}\247\230on\343\012\304*\351\323\377\007"
 405      7DA7986F 
 405      6EE30AC4 
 405      2AE9D3FF 
 405      07
 406 10ce 34E41875 		.ascii	"4\344\030u"
 407              		.text
 408              		.section	.gnu.lto_.symtab.7bca6c5de0c42b25,"",%progbits
 409 0000 5F76745F 		.ascii	"_vt_init\000\000\000\000\000\000\000\000\000\000\000"
 409      696E6974 
 409      00000000 
 409      00000000 
 409      000000
 410 0013 00AB0000 		.ascii	"\000\253\000\000\000chVTDoSetI\000\000\000\000\000\000"
 410      00636856 
 410      54446F53 
 410      65744900 
 410      00000000 
 411 0028 00000000 		.ascii	"\000\000\000\000\000\000\257\000\000\000chVTDoReset"
 411      0000AF00 
 411      00006368 
 411      5654446F 
 411      52657365 
 412 003d 49000000 		.ascii	"I\000\000\000\000\000\000\000\000\000\000\000\000\326"
 412      00000000 
 412      00000000 
 412      00D6
 413 004b 00000063 		.ascii	"\000\000\000ch\000\000\002\000\000\000\000\000\000\000"
 413      68000002 
 413      00000000 
 413      000000
 414 005a 0000E400 		.ascii	"\000\000\344\000\000\000stSetAlarm\000\000\002\000\000"
 414      00007374 
 414      53657441 
 414      6C61726D 
ARM GAS  /tmp/ccjJTx0P.s 			page 33


 414      00000200 
 415 006f 00000000 		.ascii	"\000\000\000\000\000\000\000\334\000\000\000stStart"
 415      000000DC 
 415      00000073 
 415      74537461 
 415      7274
 416 0081 416C6172 		.ascii	"Alarm\000\000\002\000\000\000\000\000\000\000\000\000"
 416      6D000002 
 416      00000000 
 416      00000000 
 416      00
 417 0092 E0000000 		.ascii	"\340\000\000\000stStopAlarm\000\000\002\000\000\000"
 417      73745374 
 417      6F70416C 
 417      61726D00 
 417      00020000 
 418 00a7 00000000 		.ascii	"\000\000\000\000\000\000\342\000\000\000"
 418      0000E200 
 418      0000
 419              		.text
 420              		.section	.gnu.lto_.opts,"",%progbits
 421 0000 272D6D63 		.ascii	"'-mcpu=cortex-m3' '-mno-thumb-interwork' '-mthumb' "
 421      70753D63 
 421      6F727465 
 421      782D6D33 
 421      2720272D 
 422 0033 272D4F32 		.ascii	"'-O2' '-fomit-frame-pointer' '-falign-functions=16'"
 422      2720272D 
 422      666F6D69 
 422      742D6672 
 422      616D652D 
 423 0066 20272D66 		.ascii	" '-ffunction-sections' '-fdata-sections' '-fno-comm"
 423      66756E63 
 423      74696F6E 
 423      2D736563 
 423      74696F6E 
 424 0099 6F6E2720 		.ascii	"on' '-flto'\000"
 424      272D666C 
 424      746F2700 
 425              		.text
 426              		.section	.text._vt_init,"ax",%progbits
 427              		.align	2
 428              		.p2align 4,,15
 429              		.global	_vt_init
 430              		.thumb
 431              		.thumb_func
 432              		.type	_vt_init, %function
 433              	_vt_init:
 434              		@ args = 0, pretend = 0, frame = 0
 435              		@ frame_needed = 0, uses_anonymous_args = 0
 436              		@ link register save eliminated.
 437 0000 054B     		ldr	r3, .L2
 438 0002 4FF6FF70 		movw	r0, #65535
 439 0006 03F11C02 		add	r2, r3, #28
 440 000a 0021     		movs	r1, #0
 441 000c 9884     		strh	r0, [r3, #36]	@ movhi
 442 000e D984     		strh	r1, [r3, #38]	@ movhi
ARM GAS  /tmp/ccjJTx0P.s 			page 34


 443 0010 1A62     		str	r2, [r3, #32]
 444 0012 DA61     		str	r2, [r3, #28]
 445 0014 7047     		bx	lr
 446              	.L3:
 447 0016 00BF     		.align	2
 448              	.L2:
 449 0018 00000000 		.word	ch
 450              		.size	_vt_init, .-_vt_init
 451 001c AFF30080 		.section	.text.chVTDoSetI,"ax",%progbits
 452              		.align	2
 453              		.p2align 4,,15
 454              		.global	chVTDoSetI
 455              		.thumb
 456              		.thumb_func
 457              		.type	chVTDoSetI, %function
 458              	chVTDoSetI:
 459              		@ args = 0, pretend = 0, frame = 0
 460              		@ frame_needed = 0, uses_anonymous_args = 0
 461 0000 2DE9F041 		push	{r4, r5, r6, r7, r8, lr}
 462 0004 1D4F     		ldr	r7, .L17
 463 0006 4FF08045 		mov	r5, #1073741824
 464 000a BC46     		mov	ip, r7
 465 000c 5CF81C4F 		ldr	r4, [ip, #28]!
 466 0010 D5F82480 		ldr	r8, [r5, #36]
 467 0014 0129     		cmp	r1, #1
 468 0016 8CBF     		ite	hi
 469 0018 0D46     		movhi	r5, r1
 470 001a 0225     		movls	r5, #2
 471 001c 6445     		cmp	r4, ip
 472 001e 0646     		mov	r6, r0
 473 0020 0361     		str	r3, [r0, #16]
 474 0022 C260     		str	r2, [r0, #12]
 475 0024 1FFA88F1 		uxth	r1, r8
 476 0028 21D0     		beq	.L14
 477 002a FA8C     		ldrh	r2, [r7, #38]
 478 002c 2389     		ldrh	r3, [r4, #8]
 479 002e 891A     		subs	r1, r1, r2
 480 0030 0D44     		add	r5, r5, r1
 481 0032 ADB2     		uxth	r5, r5
 482 0034 9D42     		cmp	r5, r3
 483 0036 04D2     		bcs	.L12
 484 0038 13E0     		b	.L16
 485              	.L10:
 486 003a 2468     		ldr	r4, [r4]
 487 003c ED1A     		subs	r5, r5, r3
 488 003e 2389     		ldrh	r3, [r4, #8]
 489 0040 ADB2     		uxth	r5, r5
 490              	.L12:
 491 0042 AB42     		cmp	r3, r5
 492 0044 F9D3     		bcc	.L10
 493 0046 6368     		ldr	r3, [r4, #4]
 494 0048 3460     		str	r4, [r6]
 495 004a 7360     		str	r3, [r6, #4]
 496 004c 6660     		str	r6, [r4, #4]
 497 004e 1E60     		str	r6, [r3]
 498 0050 3581     		strh	r5, [r6, #8]	@ movhi
 499 0052 2289     		ldrh	r2, [r4, #8]
ARM GAS  /tmp/ccjJTx0P.s 			page 35


 500 0054 4FF6FF73 		movw	r3, #65535
 501 0058 551B     		subs	r5, r2, r5
 502 005a 2581     		strh	r5, [r4, #8]	@ movhi
 503 005c BB84     		strh	r3, [r7, #36]	@ movhi
 504 005e BDE8F081 		pop	{r4, r5, r6, r7, r8, pc}
 505              	.L16:
 506 0062 A818     		adds	r0, r5, r2
 507 0064 80B2     		uxth	r0, r0
 508 0066 FFF7FEFF 		bl	stSetAlarm
 509 006a 2389     		ldrh	r3, [r4, #8]
 510 006c E9E7     		b	.L12
 511              	.L14:
 512 006e 6818     		adds	r0, r5, r1
 513 0070 80B2     		uxth	r0, r0
 514 0072 F984     		strh	r1, [r7, #38]	@ movhi
 515 0074 FFF7FEFF 		bl	stStartAlarm
 516 0078 BB8C     		ldrh	r3, [r7, #36]
 517 007a E2E7     		b	.L12
 518              	.L18:
 519              		.align	2
 520              	.L17:
 521 007c 00000000 		.word	ch
 522              		.size	chVTDoSetI, .-chVTDoSetI
 523              		.section	.text.chVTDoResetI,"ax",%progbits
 524              		.align	2
 525              		.p2align 4,,15
 526              		.global	chVTDoResetI
 527              		.thumb
 528              		.thumb_func
 529              		.type	chVTDoResetI, %function
 530              	chVTDoResetI:
 531              		@ args = 0, pretend = 0, frame = 0
 532              		@ frame_needed = 0, uses_anonymous_args = 0
 533              		@ link register save eliminated.
 534 0000 0268     		ldr	r2, [r0]
 535 0002 F0B4     		push	{r4, r5, r6, r7}
 536 0004 1389     		ldrh	r3, [r2, #8]
 537 0006 0589     		ldrh	r5, [r0, #8]
 538 0008 0D49     		ldr	r1, .L22
 539 000a 4468     		ldr	r4, [r0, #4]
 540 000c 2B44     		add	r3, r3, r5
 541 000e 1381     		strh	r3, [r2, #8]	@ movhi
 542 0010 0B46     		mov	r3, r1
 543 0012 2260     		str	r2, [r4]
 544 0014 53F81C2F 		ldr	r2, [r3, #28]!
 545 0018 0568     		ldr	r5, [r0]
 546 001a 0027     		movs	r7, #0
 547 001c 4FF6FF76 		movw	r6, #65535
 548 0020 9A42     		cmp	r2, r3
 549 0022 6C60     		str	r4, [r5, #4]
 550 0024 C760     		str	r7, [r0, #12]
 551 0026 8E84     		strh	r6, [r1, #36]	@ movhi
 552 0028 06D0     		beq	.L21
 553 002a F0BC     		pop	{r4, r5, r6, r7}
 554 002c 1089     		ldrh	r0, [r2, #8]
 555 002e CB8C     		ldrh	r3, [r1, #38]
 556 0030 1844     		add	r0, r0, r3
ARM GAS  /tmp/ccjJTx0P.s 			page 36


 557 0032 80B2     		uxth	r0, r0
 558 0034 FFF7FEBF 		b	stSetAlarm
 559              	.L21:
 560 0038 F0BC     		pop	{r4, r5, r6, r7}
 561 003a FFF7FEBF 		b	stStopAlarm
 562              	.L23:
 563 003e 00BF     		.align	2
 564              	.L22:
 565 0040 00000000 		.word	ch
 566              		.size	chVTDoResetI, .-chVTDoResetI
 567              		.comm	__gnu_lto_v1,1,1
 568 0044 AFF30080 		.ident	"GCC: (GNU Tools for ARM Embedded Processors) 4.8.4 20140526 (release) [ARM/embedded-4_8-br
 568      AFF30080 
 568      AFF30080 
ARM GAS  /tmp/ccjJTx0P.s 			page 37

