ARM GAS  /tmp/ccpZtEg2.s 			page 1


   1              		.syntax unified
   2              		.cpu cortex-m3
   3              		.fpu softvfp
   4              		.eabi_attribute 20, 1
   5              		.eabi_attribute 21, 1
   6              		.eabi_attribute 23, 3
   7              		.eabi_attribute 24, 1
   8              		.eabi_attribute 25, 1
   9              		.eabi_attribute 26, 1
  10              		.eabi_attribute 30, 2
  11              		.eabi_attribute 34, 1
  12              		.eabi_attribute 18, 4
  13              		.thumb
  14              		.file	"crt0.c"
  15              		.section	.gnu.lto_.jmpfuncs.8fc7d283705085ff,"",%progbits
  16 0000 789C6362 		.ascii	"x\234cb`b\300\006\304\2404\013\003\003#P\0113\204W\017"
  16      6062C006 
  16      C4A0340B 
  16      03032350 
  16      09338457 
  17 0015 C5000A4C 		.ascii	"\305\000\012L\001#"
  17      0123
  18              		.text
  19              		.section	.gnu.lto_.inline.8fc7d283705085ff,"",%progbits
  20 0000 789C6362 		.ascii	"x\234cb`b\300\0062\2414\013\003\0033\023#X\021\333\002"
  20      6062C006 
  20      32A1340B 
  20      03033313 
  20      235811DB 
  21 0015 79B05A46 		.ascii	"y\260ZF\014\021& \204\210\260@\214cf\320z\007\324\311"
  21      0C112620 
  21      8488B040 
  21      8C6366D0 
  21      7A07D4C9 
  22 0029 6473A655 		.ascii	"ds\246U\011&\306\310\205I0\3633B\011\006\000@\244\005"
  22      0926C6C8 
  22      854930F3 
  22      33420906 
  22      0040A405 
  23 003d 46       		.ascii	"F"
  24              		.text
  25              		.section	.gnu.lto_.pureconst.8fc7d283705085ff,"",%progbits
  26 0000 789C6362 		.ascii	"x\234cb`b\340d\200\000\026\006\011F\011&\023f3\000\003"
  26      6062E064 
  26      80001606 
  26      09460926 
  26      13663300 
  27 0015 2800B2   		.ascii	"(\000\262"
  28              		.text
  29              		.section	.gnu.lto___early_init.8fc7d283705085ff,"",%progbits
  30 0000 789C6362 		.ascii	"x\234cb`b@\007\222@\034\000\304\336@\314\310\314\300"
  30      60624007 
  30      92401C00 
  30      C4DE40CC 
  30      C8CCC0
  31 0013 C834E11C 		.ascii	"\3104\341\034\003C#\007\023##\210\301\300\310P\317\304"
  31      03432307 
ARM GAS  /tmp/ccpZtEg2.s 			page 2


  31      13232388 
  31      C1C0C850 
  31      CFC4
  32 0025 581FC908 		.ascii	"X\037\311\010V\273\236\351\300\203\377\377\327M;?G\002"
  32      56BB9EE9 
  32      C083FFFF 
  32      D74D3B3F 
  32      4702
  33 0037 64102B43 		.ascii	"d\020+CKC\303\004\005\006\206d\260t\010\220\004\351"
  33      4B43C304 
  33      05068664 
  33      B0740890 
  33      04E9
  34 0049 09656402 		.ascii	"\011ed\002\321\314\027\031\030\023\031\0272\262\302"
  34      D1CC1719 
  34      18131917 
  34      32B2C2
  35 0058 AD0A6164 		.ascii	"\255\012ad\004I\200\264z\352g\344\347\246\352'\347\247"
  35      044980B4 
  35      7AEA67E4 
  35      E7A6EA27 
  35      E7A7
  36 006a 54EAA7A4 		.ascii	"T\352\247\244\226\351'gd&e\346\027\353\227\024\225\346"
  36      96E92767 
  36      642665E6 
  36      17EB9714 
  36      95E6
  37 007c 65EB0319 		.ascii	"e\353\003\031\311\371\271\271\371y\372\005\371E%\305"
  37      C9F9B9B9 
  37      F979FA05 
  37      F94525C5 
  38 008c FA8E41BE 		.ascii	"\372\216A\276\316\276\025 \261\202\314\234\324\242b"
  38      CEBE1520 
  38      B182CC9C 
  38      D4A262
  39 009b 7D776767 		.ascii	"}wgg\375\344\242\022\003\275d\006\000\220}0p"
  39      FDE4A212 
  39      03BD6406 
  39      00907D30 
  39      70
  40              		.text
  41              		.section	.gnu.lto___late_init.8fc7d283705085ff,"",%progbits
  42 0000 789C6362 		.ascii	"x\234cb`b@\007\222@\034\000\304\336@\314\310\314\300"
  42      60624007 
  42      92401C00 
  42      C4DE40CC 
  42      C8CCC0
  43 0013 C834E11C 		.ascii	"\3104\341\034\003C#\007\023##\210\301\300\310P\317\304"
  43      03432307 
  43      13232388 
  43      C1C0C850 
  43      CFC4
  44 0025 581FC908 		.ascii	"X\037\311\010V\273\236\351\300\203\377\377\327\355\353"
  44      56BB9EE9 
  44      C083FFFF 
  44      D7EDEB
  45 0034 9F230132 		.ascii	"\237#\0012\210\225\241\245\241a\202\002\003C2X:\004"
ARM GAS  /tmp/ccpZtEg2.s 			page 3


  45      8895A1A5 
  45      A1618202 
  45      03433258 
  45      3A04
  46 0046 4882F484 		.ascii	"H\202\364\20422\201h\346\213\014\214\211\214\013\031"
  46      32328168 
  46      E68B0C8C 
  46      898C0B19 
  47 0056 59E15685 		.ascii	"Y\341V\20502\202$@Z=\3653\362sS\365\223\363S*\365SR"
  47      30328224 
  47      405A3DF5 
  47      33F27353 
  47      F593F353 
  48 006e CBF49333 		.ascii	"\313\364\22332\2232\363\213\365K\212J\363\262\365\201"
  48      329332F3 
  48      8BF54B8A 
  48      4AF3B2F5 
  48      81
  49 007f 8CE4FCDC 		.ascii	"\214\344\374\334\334\374<\375\202\374\242\222b}\307"
  49      DCFC3CFD 
  49      82FCA292 
  49      627DC7
  50 008e 205F67DF 		.ascii	" _g\337\012\220XAfNjQ\261\276\273\263\263~rQ\211\201"
  50      0A905841 
  50      664E6A51 
  50      B1BEBBB3 
  50      B37E7251 
  51 00a4 5E320300 		.ascii	"^2\003\000\203\2050X"
  51      83853058 
  52              		.text
  53              		.section	.gnu.lto__default_exit.8fc7d283705085ff,"",%progbits
  54 0000 789C6362 		.ascii	"x\234cb`b@\007:@\354\003\304\336@\314\310\312\300\310"
  54      60624007 
  54      3A40EC03 
  54      C4DE40CC 
  54      C8CAC0C8 
  55 0014 34E11C03 		.ascii	"4\341\034\003C#\007\023#3\210\301\310\314\310\002\021"
  55      43230713 
  55      233388C1 
  55      C8CCC802 
  55      11
  56 0025 60810838 		.ascii	"`\201\010822\32431\2630\326G2\202\265\257g:\360\340"
  56      3232D433 
  56      31B330D6 
  56      473282B5 
  56      AF673AF0 
  57 003a FFFF755F 		.ascii	"\377\377u_\372\347\336a\334\317\004\022cehih\230\240"
  57      FAE7DE61 
  57      DCCF0412 
  57      63656869 
  57      6898A0
  58 004d C0C0900C 		.ascii	"\300\300\220\014V\021\002$\031\201$\023\320\254\020"
  58      56110224 
  58      19812413 
  58      D0AC10
  59 005c 466606A0 		.ascii	"Ff\006\240!\214!\214,P\032b\010\203\247~F~n\252~r~J"
  59      218C218C 
ARM GAS  /tmp/ccpZtEg2.s 			page 4


  59      2C501A62 
  59      0883A77E 
  59      467E6EAA 
  60 0074 A57E4A6A 		.ascii	"\245~Jj\231~rFfRf~\261~IQi^\266>\220\221\234\237\233"
  60      997E7246 
  60      6652667E 
  60      B17E4951 
  60      695EB63E 
  61 008d 9B9FA75F 		.ascii	"\233\237\247_\220_TR\254\357\030\344\353\354[\001\022"
  61      905F5452 
  61      ACEF18E4 
  61      EBEC5B01 
  61      12
  62 009e 2BC8CC49 		.ascii	"+\310\314I-*\326wwv\326O.*1\320Kf\000\000\304|3>"
  62      2D2AD677 
  62      7776D64F 
  62      2E2A31D0 
  62      4B660000 
  63              		.text
  64              		.section	.gnu.lto_Reset_Handler.8fc7d283705085ff,"",%progbits
  65 0000 789C9595 		.ascii	"x\234\225\225[h\034e\024\307\277\363\315\314\316\354"
  65      5B681C65 
  65      14C7BFF3 
  65      CDCCCEEC 
  66 0010 7D379B9B 		.ascii	"}7\233\233\233h7\027\203\017\342V|\361M%\017\"\2646"
  66      9B683717 
  66      830FE256 
  66      7CF14D25 
  66      0F22B436 
  67 0024 3489B40F 		.ascii	"4\211\264\017>l7q2\3506\313n\024\213b&M\204@\004\323"
  67      3E6C3771 
  67      32E836CB 
  67      6E148B62 
  67      264D8440 
  68 003a 8AA2B6C5 		.ascii	"\212\242\266\305\206\264\265M\223\252\344\241E\002\356"
  68      86B4B54D 
  68      93AAE4A1 
  68      4502EE
  69 0049 82D6A492 		.ascii	"\202\326\244\222\364!\264\020\2504Q\244-\005/\370&\342"
  69      F421B410 
  69      A83451A4 
  69      2D052FF8 
  69      26E2
  70 005b 78BECBEC 		.ascii	"x\276\313\354\215\250q 93\3379\377\357;\277s\346\314"
  70      8DA87120 
  70      3933DF39 
  70      FFEF3BBF 
  70      73E6CC
  71 006e 524249ED 		.ascii	"RBI\355u\027\377\332\275\204\274\217\026\032\010\320"
  71      7517FFDA 
  71      BD84BC8F 
  71      161A08D0 
  72 007e E93542C6 		.ascii	"\3515B\306\014\012\252\270Q\304M\321P\251\362\316\267"
  72      0C0AAAB8 
  72      51C44DD1 
  72      50A9F2CE 
  72      B7
ARM GAS  /tmp/ccpZtEg2.s 			page 5


  73 008f 84D83E6D 		.ascii	"\204\330>mB'v@\003\235\255\203G\330\242\241S\217\360"
  73      42277640 
  73      039DAD83 
  73      47D8A2A1 
  73      538FF0
  74 00a2 1BDC6F80 		.ascii	"\033\334o\200\217\373\275\302\026\015\037\365\012\277"
  74      8FFBBDC2 
  74      160D1FF5 
  74      0ABF
  75 00b0 9FFBFD10 		.ascii	"\237\373\375\020\344\376\200\260E#H\003\302\037\342"
  75      E4FE80B0 
  75      45234803 
  75      C21FE2
  76 00bf FE104444 		.ascii	"\376\020DD\002aqS4\"4,\002\242< \0121\021P'n\212F\214"
  76      02617153 
  76      3422342C 
  76      02A23C20 
  76      0A311150 
  77 00d8 D689807A 		.ascii	"\326\211\200z\036PO\200\214RE\325<\272\341\365\371\003"
  77      1E504F80 
  77      8C5245D5 
  77      3CBAE1F5 
  77      F903
  78 00ea C1503812 		.ascii	"\301P8\022\255\213\325\303\350A`\344F;\231\261\355\343"
  78      AD8BD5C3 
  78      E84160E4 
  78      463B99B1 
  78      EDE3
  79 00fc 9BDFCCFE 		.ascii	"\233\337\314\376\000\037\331\205\211\323\366\237\216"
  79      001FD985 
  79      89D3F69F 
  79      8E
  80 0109 03600156 		.ascii	"\003`\001Vi\017\2204\220\003\370\000\011n\250Z]6\241"
  80      690F9034 
  80      9003F800 
  80      096EA85A 
  80      5D36A1
  81 011c 2D2CAEAF 		.ascii	"-,\256\257\200}\334\036\373\325q\302\026(\224\364\354"
  81      807DDC1E 
  81      FBD571C2 
  81      162894F4 
  81      EC
  82 012d 5078653D 		.ascii	"Pxe=0=6i;\316(\312Rp\006\350\316t\033\353\357>`\237"
  82      303D3669 
  82      3BCE28CA 
  82      527006E8 
  82      CE741BEB 
  83 0145 3E3A6DFF 		.ascii	">:m\377\205\271\362\023{wv\242\2751\260lO\024\034\347"
  83      85B9F213 
  83      7B7776A2 
  83      BD31B06C 
  83      4F141CE7 
  84 0159 29AE7A61 		.ascii	")\256za\207y:\325\200\377#\323/>\250\312T\245\344\340"
  84      87793AD5 
  84      80FF23D3 
  84      2F3EA8CA 
  84      54A5E4E0 
ARM GAS  /tmp/ccpZtEg2.s 			page 6


  85 016d 0ECFBC75 		.ascii	"\016\317\274u\263\\\0335\005\363\377y\342g\264\260\351"
  85      B35C1B35 
  85      05F3FF79 
  85      E267B4B0 
  85      E9
  86 017e 38B78EDD 		.ascii	"8\267\216\335\333Z\206\206G\200\244`\026\332\261\213"
  86      DB5A8686 
  86      4780A460 
  86      16DAB18B 
  87 018e 29388B56 		.ascii	")8\213VA{\016\255\212\366<Z\015\355\034Z\017\332\213"
  87      417B0EAD 
  87      8AF63C5A 
  87      0DED1C5A 
  87      0FDA8B
  88 01a1 6875B40B 		.ascii	"hu\264\013hChg\320F\245>&\365\015\3226J}\223\334\257"
  88      68436867 
  88      D046A53E 
  88      26F50DD2 
  88      364A7D93 
  89 01b7 9958A0C5 		.ascii	"\231X\240\305\345b\213\\l\225\233\357B\247\247M\236"
  89      E5628B5C 
  89      6C959BEF 
  89      42A7A74D 
  89      9E
  90 01c8 D021173B 		.ascii	"\320!\027;\331b\227<\016/\215L\330\366tB\034K\030$^"
  90      D962973C 
  90      0E2F8D4C 
  90      D8F67442 
  90      1C4B1824 
  91 01dd 7DF81FDF 		.ascii	"}\370\037\337\337~\244\236\320\2255R\330:a\245\340\022"
  91      DF7EA49E 
  91      D0953552 
  91      D83A61A5 
  91      E012
  92 01ef 681CF545 		.ascii	"h\034\365EBV\311\321\237\307\177?\243\213E\023Bo\220"
  92      4256C9D1 
  92      9FC77F3F 
  92      A38B4513 
  92      426F90
  93 0202 3FEC49DB 		.ascii	"?\354I\333~\002\373\223\001Q\22152\266uJ\312\330\322"
  93      7E02FB93 
  93      01519135 
  93      32B6754A 
  93      CAD8D2
  94 0215 90C2465F 		.ascii	"\220\302F_\021\363\377\0209r\312\376\360i\013t\366\204"
  94      11F3FF10 
  94      3972CAFE 
  94      F0690B74 
  94      F684
  95 0227 1BB89299 		.ascii	"\033\270\222\231\025oY\362\346?K\016\210!\221\262\302"
  95      156F59F2 
  95      E63F4B0E 
  95      882191B2 
  95      C2
  96 0238 CC356F39 		.ascii	"\3145o9\301c\250\275N\3067W\357\351\356\242\310/\202"
  96      C163A8BD 
  96      4EC63757 
ARM GAS  /tmp/ccpZtEg2.s 			page 7


  96      EFE9EEA2 
  96      C82F82
  97 024b EC6910F9 		.ascii	"\354i\020\371Y`\010u?(\004gVY%\343S\343w\316)\245\212"
  97      59600875 
  97      3F280467 
  97      565925E3 
  97      53E377CE 
  98 0262 CCF28A94 		.ascii	"\314\362\212\224\2665!j\002\224z\217%x2\005\227\321"
  98      B635216A 
  98      02947A8F 
  98      25783205 
  98      97D1
  99 0274 77827CCC 		.ascii	"w\202|\314\222\221N\205\224\322\2731wcN#\356)*\301O"
  99      92914E85 
  99      94D2BB31 
  99      77634E23 
  99      EE292AC1 
 100 0289 84B24CBE 		.ascii	"\204\262L\276\376\011\204\016\005,-\203\327\014*\336"
 100      FE09840E 
 100      052C2D83 
 100      D70C2ADE 
 101 0299 A50D52E1 		.ascii	"\245\015R\341`\214\224\035\256\360]4\326\021\026\322"
 101      608C941D 
 101      AEF05D34 
 101      D61116D2 
 102 02a9 20900A57 		.ascii	" \220\012Wb<\214yU\036\341)\321\224Q\316\326\242\304"
 102      623C8C79 
 102      551EE129 
 102      D19451CE 
 102      D6A2C4
 103 02bc 4CA03528 		.ascii	"L\2405(K\225(\364_Qt\206\002\022e\211\243\320r\306\244"
 103      4B9528F4 
 103      5F517486 
 103      02126589 
 103      A3D072C6 
 104 02d1 0A859AD0 		.ascii	"\012\205\232\320\240\001\236\350\341R\303\315\277E\346"
 104      A0019EE8 
 104      E152C3CD 
 104      BF45E6
 105 02e0 FFFD7B41 		.ascii	"\377\375{A\256b\211\350\223\312\006\211K\307m\351\320"
 105      AE6289E8 
 105      93CA0689 
 105      4BC76DE9 
 105      D0
 106 02f1 848389BD 		.ascii	"\204\203\211\275\025\215\3724^\242c/\275\030\201*\306"
 106      158DFA34 
 106      5EA2632F 
 106      BD18812A 
 106      C6
 107 0302 4613D40A 		.ascii	"F\023\324\012F\024\315a\272E\236n\223\011J%\377\227"
 107      4614CD61 
 107      BA459E6E 
 107      93094A25 
 107      FF97
 108 0314 6FBFE5BA 		.ascii	"o\277\345\272\232KEP\312E\340A+\237\353\"\010#\306l"
 108      9A4B4550 
 108      CA45E041 
ARM GAS  /tmp/ccpZtEg2.s 			page 8


 108      2B9FEB22 
 108      0823C66C 
 109 0328 DB0EF328 		.ascii	"\333\016\363(\265\034\205b\267D\276R\211\212\277\255"
 109      B51C8562 
 109      B744BE52 
 109      898ABFAD 
 110 0338 07DDBD55 		.ascii	"\007\335\275U9'\275\234\314SU(\305\204\026\003\013\325"
 110      3927BD9C 
 110      CC535528 
 110      C5841603 
 110      0BD5
 111 034a E43DF9C9 		.ascii	"\344=\371\311\005\330 \252\011q\366\334\350=\317\341"
 111      05D820AA 
 111      0971F6DC 
 111      E83DCFE1 
 112 035a FD6EE53A 		.ascii	"\375n\345:d\201\234u\340\333\260y\360\361C\003\333\264"
 112      64819C75 
 112      E0DBB079 
 112      F0F14303 
 112      DBB4
 113 036c 7EAEB62C 		.ascii	"~\256\266,\255&h5\255\277Z\331z\255\246\365\356\325"
 113      AD266835 
 113      ADBF5AD9 
 113      7AADA6F5 
 113      EED5
 114 037e 0FC1CAB6 		.ascii	"\017\301\312\266_\345@Z\271\355F\025\215fB\207\037\263"
 114      5FE5405A 
 114      B9ED4615 
 114      8D664287 
 114      1FB3
 115 0390 6F0D7069 		.ascii	"o\015pi\210%\317fr\352\273mg\222\326\316dX\242`g\356"
 115      8825CF66 
 115      72EABB6D 
 115      6792D6CE 
 115      6458A260 
 116 03a6 CF379768 		.ascii	"\3177\227h.\326\322\354\022y{M\360\260l\335\2572\036"
 116      2ED6D2EC 
 116      12797B4D 
 116      F0B06CDD 
 116      AF321E
 117 03b9 55783005 		.ascii	"Ux0\005\327x\030F\311\275\371[\360\313|\\xLh\223\262"
 117      D7781846 
 117      C9BDF95B 
 117      F0CB7C5C 
 117      784C6893 
 118 03ce D2D7BC1F 		.ascii	"\322\327\274\037\"\2451-.\336\014\272\201\036\331\270"
 118      22A5312D 
 118      2EDE0CBA 
 118      811ED9B8 
 119 03de 7E0B7C19 		.ascii	"~\013|\031|\017+Q\245\017\177m\032\271\227\365\"t\027"
 119      7C0F2B51 
 119      A50F7F6D 
 119      1AB997F5 
 119      227417
 120 03f1 DBD9165E 		.ascii	"\333\331\026^Z\264\330\236Q\227\376\302}\330\216^\251"
 120      5AB4D89E 
 120      5197FEC2 
ARM GAS  /tmp/ccpZtEg2.s 			page 9


 120      7DD88E5E 
 120      A9
 121 0402 A5AF2BD3 		.ascii	"\245\257+\323\377\270P\246_\250\245\357,\321\353\333"
 121      FFB850A6 
 121      5FA8A5EF 
 121      2CD1EBDB 
 122 0412 D05F97F4 		.ascii	"\320_\227\364\235\225\364w\026\342\302cB\227\224U\320"
 122      9D95F477 
 122      16E2C263 
 122      42979455 
 122      D0
 123 0423 C7CAF4B7 		.ascii	"\307\312\364\267\031\275\010\324\253\350\375U\364\272"
 123      19BD08D4 
 123      ABE8FD55 
 123      F4BA
 124 0431 3BC7929E 		.ascii	";\307\222\236\365;\312\350\273\352N^\346\364\365.\375"
 124      F53BCAE8 
 124      BBEA4E5E 
 124      E6F4F52E 
 124      FD
 125 0442 5753BEED 		.ascii	"WS\276\355\350UI/\367\355s\277\205\317%\207\2063\203"
 125      E855492F 
 125      F7ED73BF 
 125      85CF2587 
 125      863383
 126 0455 C9F4F0C0 		.ascii	"\311\364\360\300\221\344\300\340k\311\364\220u\310\032"
 126      91E4C0E0 
 126      6BC9F490 
 126      75C81A
 127 0464 CE274772 		.ascii	"\316'Gr\257\036~9\2117\351\341Lf\370p2;\234\033\311"
 127      AF1E7E39 
 127      8937E9E1 
 127      4C66F870 
 127      323B9C1B 
 128 0479 279FD9BF 		.ascii	"'\237\331\277\267{\357\353l-k\2752\230\313'\237\355"
 128      B77BEFEB 
 128      6C2D6BBD 
 128      3298CB27 
 128      9FED
 129 048b EE4EA673 		.ascii	"\356N\246s#\273\037K\023%\233\317\322\354\343t$K\007"
 129      23BB1F4B 
 129      13259BCF 
 129      D2ECE374 
 129      244B07
 130 049e B2CA4BD9 		.ascii	"\262\312K\331\254/\235\315[\003\211D\302\"\221L>\227"
 130      AC2F9DCD 
 130      5B038944 
 130      C222914C 
 130      3E97
 131 04b0 60574F6F 		.ascii	"`WOo\317\243\211\207w\023\232#\365\356Z\367\276\347"
 131      CFA38987 
 131      77139A23 
 131      F5EE5AF7 
 131      BEE7
 132 04c2 FBF6EFDB 		.ascii	"\373\366\357\333\303\327U+\177\210\374\015\377#M\306"
 132      C3D7552B 
 132      7F88FC0D 
ARM GAS  /tmp/ccpZtEg2.s 			page 10


 132      FF234DC6 
 133              		.text
 134              		.section	.gnu.lto_.symbol_nodes.8fc7d283705085ff,"",%progbits
 135 0000 789C4DCC 		.ascii	"x\234M\314\273\015\302P\014\205\341c\373:o\036\231 "
 135      BB0DC250 
 135      0C85E163 
 135      FB3A6F1E 
 135      9920
 136 0012 EB642B47 		.ascii	"\353d+GTHH@EIA\346\240\201\022)\015\023\320\247\243"
 136      54484840 
 136      454941E6 
 136      A0811229 
 136      0D13D0A7 
 137 0027 07AE4590 		.ascii	"\007\256E\220p\361\375:\215\031\214+\246c\030\260\037"
 137      70F1FD3A 
 137      8D198C2B 
 137      A66318B0 
 137      1F
 138 0038 00B3E39A 		.ascii	"\000\263\343\232\230\214\376\026\033\377V\313b2\215"
 138      988CFE16 
 138      1BFF56CB 
 138      62328D
 139 0047 43AB2116 		.ascii	"C\253!\026\232\220\253\376CSq\263\340\346\352\026\211"
 139      9A90ABFE 
 139      435371B3 
 139      E0E6EA16 
 139      89
 140 0058 5BA66E95 		.ascii	"[\246n\225\271\363\334\235\025n]\272\313*J\013\013\337"
 140      B9F3DC9D 
 140      156E5DBA 
 140      CB2A4A0B 
 140      0BDF
 141 006a D75D4722 		.ascii	"\327]G\"\300\351\361\212%\2546c#R\243\337z\031\227\335"
 141      C0E9F18A 
 141      25AC3663 
 141      2352A3DF 
 141      7A1997DD 
 142 007e D804C1FD 		.ascii	"\330\004\301\375\366>k\354s\210\305\007\307\356+\236"
 142      F63E6BEC 
 142      7388C507 
 142      C7EE2B9E 
 143              		.text
 144              		.section	.gnu.lto_.refs.8fc7d283705085ff,"",%progbits
 145 0000 789C25C5 		.ascii	"x\234%\305\311\015\000 \014\004\261\325p\205+\320\001"
 145      C90D0020 
 145      0C04B1D5 
 145      70852BD0 
 145      01
 146 0011 FD770912 		.ascii	"\375w\011\022\376\030\241\243\317\003\221D\246\274\215"
 146      FE18A1A3 
 146      CF039144 
 146      A6BC8D
 147 0020 4AA33398 		.ascii	"J\2433\2308\213\255\013\017\204\000\327"
 147      388BAD0B 
 147      0F8400D7 
 148              		.text
 149              		.section	.gnu.lto_.decls.8fc7d283705085ff,"",%progbits
ARM GAS  /tmp/ccpZtEg2.s 			page 11


 150 0000 789CAD96 		.ascii	"x\234\255\226]l\024U\024\307\357\235m\351.l+`h\340\251"
 150      5D6C1455 
 150      14C7EF9D 
 150      6DE92E6C 
 150      2B6068E0 
 151 0015 8D511F48 		.ascii	"\215Q\037H\350\030\365\305\027\324\364\001L\304\007"
 151      E818F5C5 
 151      17D4F401 
 151      4CC407
 152 0024 12886FD7 		.ascii	"\022\210o\327\333\331\333t\322\335\231ufV\333'n\033"
 152      DBD9DB74 
 152      D2DD9975 
 152      6656DB27 
 152      6E1B
 153 0036 25444DB3 		.ascii	"%DM\263~\006\220h\267R]\222\362\000\370`,5[\004\204"
 153      7E069068 
 153      B7525D92 
 153      F200F860 
 153      2C355B04 
 154 004b A2A554D0 		.ascii	"\242\245T\320\372\3116\241&\362\242\361#\304\2048\236"
 154      FAC936A1 
 154      26F2A2F1 
 154      23C48438 
 154      9E
 155 005c 3BBBB3BB 		.ascii	";\273\263\273\363\261\0354N\372o\317\334{\316\357\234"
 155      F3B11D34 
 155      4EFA6FCF 
 155      DC7BCEEF 
 155      9C
 156 006d 7BE6DEE9 		.ascii	"{\346\336\351HHBY\214\220\015\327\353\011\204n\201\335"
 156      48484259 
 156      8C900DD7 
 156      EB09846E 
 156      81DD
 157 007f 8A10DA8E 		.ascii	"\212\020\332\216\352\227\270/\200\212\240)\320I\320"
 157      EA97B82F 
 157      808AA029 
 157      D049D0
 158 008e 34A81D74 		.ascii	"4\250\035t\032t\026t\036t\0014\007\372\0344\017Z\000"
 158      1A741674 
 158      1E740134 
 158      07FA1C34 
 158      0F5A00
 159 00a1 2D82AE82 		.ascii	"-\202\256\202\276\005}\017\372\021y\257B\203\215}\367"
 159      BE057D0F 
 159      FA1179AF 
 159      42838D7D 
 159      F7
 160 00b2 EE55F4F9 		.ascii	"\356U\364\371\024C|\246|>S!>\242\356$h\006\324Q\265"
 160      14437CA6 
 160      7C3E5321 
 160      3EA2EE24 
 160      6806D451 
 161 00c7 CBA06550 		.ascii	"\313\240eP\033h\011\264\002\232\000]\003\335\000\335"
 161      1B6809B4 
 161      029A005D 
 161      03DD00DD 
ARM GAS  /tmp/ccpZtEg2.s 			page 12


 162 00d7 ACC6B656 		.ascii	"\254\306\266V\343\335>LWs\374\037=\350B\357\360\362"
 162      E3DD3E4C 
 162      5773FC1F 
 162      3DE842EF 
 162      F0F2
 163 00e9 4279E5B7 		.ascii	"By\345\267\023[\370\370\350\254m?\212:\321\233\034\256"
 163      135BF8F8 
 163      E8AC6D3F 
 163      8A3AD19B 
 163      1CAE
 164 00fb F1FD9C63 		.ascii	"\361\375\234c\213\342\355\233\320\323\230\342\216\004"
 164      8BE2ED9B 
 164      D0D398E2 
 164      8E04
 165 0109 EA768C64 		.ascii	"\352v\214d\002\2658\241\024O\340\316\252\265'V\301I"
 165      02B538A1 
 165      144FE0CE 
 165      AAB52756 
 165      C149
 166 011b E8498CB6 		.ascii	"\350I\214\266\242c\020\237\347|\242\007\007\032\021"
 166      A263109F 
 166      E77CA207 
 166      071A11
 167 012a 031FF879 		.ascii	"\003\037\370y\2466s?\232\024\351x\221\307\234d\002W"
 167      A636733F 
 167      9A14E978 
 167      91C79C64 
 167      0257
 168 013c C05D8D31 		.ascii	"\300]\2151\024\277\207\245`\325\245O.'\363\263e\333"
 168      14BF87A5 
 168      60D5A54F 
 168      2E27F3B3 
 168      65DB
 169 014e EEAA9422 		.ascii	"\356\252\224\"!\206\301\367(\336Z\317D\361\373\365\320"
 169      2186C1F7 
 169      28DE5ACF 
 169      44F1FBF5 
 169      D0
 170 015f B054457F 		.ascii	"\260TE\177\252c!\251\256\224\376\360\247z\266i\252\352"
 170      AA6321A9 
 170      AE94FEF0 
 170      A77AB669 
 170      AAEA
 171 0171 0AF735AE 		.ascii	"\012\3675\256=,\363\224?\363\361`\346\361\345\322\341"
 171      3D2CF394 
 171      3FF3F160 
 171      E6F1E5D2 
 171      E1
 172 0182 C5647E04 		.ascii	"\305d~\0042\277\333\355\246>\200\003\271%\364\026\306"
 172      32BFDBED 
 172      A63E8003 
 172      B925F416 
 172      C6
 173 0193 F59B2318 		.ascii	"\365\233#\030{\272=\211\243\2129\351/\346TH\033\362"
 173      7BBA3D89 
 173      A38A39E9 
 173      2FE65448 
ARM GAS  /tmp/ccpZtEg2.s 			page 13


 173      1BF2
 174 01a5 A5EBF363 		.ascii	"\245\353\363c[xa\264$\366I\245\034\212\367J\015\325"
 174      5B7861B4 
 174      24F649A5 
 174      1C8AF74A 
 174      0DD5
 175 01b7 D4017B3D 		.ascii	"\324\001{=\361\367\240\002/\277V\372s\356\015\021\317"
 175      F1F7A002 
 175      2FBF56FA 
 175      73EE0D11 
 175      CF
 176 01c8 F9DFB68D 		.ascii	"\371\337\266\215\023\350\000\347\243b\243\355\274\000"
 176      13E800E7 
 176      A362A3ED 
 176      BC00
 177 01d6 67226C97 		.ascii	"g\"l\227\335\207\216\302N*O\277|n\026C\024L\314@\230"
 177      DD878EC2 
 177      4E2A4FBF 
 177      7C6E1643 
 177      144CCC40 
 178 01eb 84163D2D 		.ascii	"\204\026=-@\350\316Q\267\306N?\302y\234\342\222\003"
 178      40E8CE51 
 178      B7C64E3F 
 178      C2799CE2 
 178      9203
 179 01fd CA4B5E10 		.ascii	"\312K^\020\305m\011\357:\340\336u\0204g\272j\210\027"
 179      C56D09EF 
 179      3AE0DE75 
 179      103467BA 
 179      6A8817
 180 0210 D75DE8DF 		.ascii	"\327]\350\337\272K\350\355Z\322f'\353\323z\367+\235"
 180      BA4BE8ED 
 180      5AD26627 
 180      EBD37AF7 
 180      2B9D
 181 0222 2BBFF8C1 		.ascii	"+\277\370\301E\351\020?\363\002\347\267\241u\265F\234"
 181      45E9103F 
 181      F302E7B7 
 181      A175B546 
 181      9C
 182 0233 88449DF3 		.ascii	"\210D\235\363\243J\007\347^\3418?\302\271m\357s9g#9"
 182      A34A07E7 
 182      5EE1383F 
 182      C2B96DEF 
 182      73396723 
 183 0248 9F05385F 		.ascii	"\237\0058_\205p\226\"9\027\003\234\374\245 \347\227"
 183      85709622 
 183      3917039C 
 183      FCA520E7 
 183      97
 184 0259 48CEA500 		.ascii	"H\316\245\000\347H\010\347\257H\316\027\001\316G!\034"
 184      E74808E7 
 184      AF48CE17 
 184      01CE4721 
 184      1C
 185 026a 3B927339 		.ascii	";\222s9\300\271\032\302\331\037\213\342\\\011p~\015"
 185      C0B91AC2 
ARM GAS  /tmp/ccpZtEg2.s 			page 14


 185      D91F8BE2 
 185      5C09707E 
 185      0D
 186 027b E1BC1AC9 		.ascii	"\341\274\032\311\3712\30094\326p\370\326\241\227\352"
 186      F932C039 
 186      34D670F8 
 186      D6A197EA 
 187 028b 27A67294 		.ascii	"'\246r\224\233\237\232\322\307b\307]\203 \011\035\216"
 187      9B9F9AD2 
 187      C762C75D 
 187      8320091D 
 187      8E
 188 029c 794FCC1D 		.ascii	"yO\314\035\202DIK\000\010\276*B\347$4\021\271\302o\002"
 188      8244494B 
 188      0008BE2A 
 188      42E72434 
 188      11B9C26F 
 189 02b1 2BBCEDE9 		.ascii	"+\274\355\351T\245\336S\221\234\357\002\234\205\371"
 189      54A5DE53 
 189      919CEF02 
 189      9C85F9
 190 02c0 20E77C24 		.ascii	" \347|$\347\207\000\347\303\020\316\327\221\234\353"
 190      E78700E7 
 190      C310CED7 
 190      919CEB
 191 02cf 758EAFB9 		.ascii	"u\216\257\271\342\3317\213*\003=<J\344]\345\331\316"
 191      E2D9378B 
 191      2A033D3C 
 191      4AE45DE5 
 191      D9CE
 192 02e1 1CC7F0AF 		.ascii	"\034\307\360\257e\331)\356\346\352\017\267\031I\344"
 192      65D929EE 
 192      E6EA0FB7 
 192      1949E4
 193 02f0 BFB1CAC3 		.ascii	"\277\261\312\303\365\315m@y\347\013\343\261\203\035"
 193      F5CD6D40 
 193      79E70BE3 
 193      B1831D
 194 02ff D5177779 		.ascii	"\325\027wy\222o\336\\{o\307]6v\253\024_\023\022\305"
 194      926FDE5C 
 194      7B6FC75D 
 194      3676AB14 
 194      5F1312C5 
 195 0313 3F397BFF 		.ascii	"?9{\377\367X\360\263\242\232H8\210K\304Wl\327\262q\015"
 195      F758F0B3 
 195      A29A4838 
 195      884BC457 
 195      6CD7B271 
 196 0328 BFDEC54B 		.ascii	"\277\336\305K\325\250\025\274\301\261\234bxm\265\311"
 196      D5A815BC 
 196      C1B19C62 
 196      786DB5C9 
 197 0338 E6CDFEB9 		.ascii	"\346\315\376\271!O2Q7\334\302\234o\250\221\377\366\015"
 197      214F3251 
 197      37DCC29C 
 197      6FA891FF 
 197      F60D
ARM GAS  /tmp/ccpZtEg2.s 			page 15


 198 034a 859E9007 		.ascii	"\205\236\220\007\364\014\223\025=5,\247\330s\2622\240"
 198      F40C9315 
 198      3D352CA7 
 198      D873B232 
 198      A0
 199 035b F6A9BA29 		.ascii	"\366\251\272)[FN\033\224\301P\364LF\327\344\254nX\246"
 199      5B464E1B 
 199      94C150F4 
 199      4C46D7E4 
 199      AC6E58A6 
 200 036f FCF8EE5D 		.ascii	"\374\370\356]\275\273\206\304XVM3\303\224w\364\366\312"
 200      BDBB86C4 
 200      58564D33 
 200      C39477F4 
 200      F6CA
 201 0381 8A613DD0 		.ascii	"\212a=\320\243\240$!\214\032\351a\242j\252\265f\307"
 201      A3A02421 
 201      8C1AE961 
 201      A26AAAB5 
 201      66C7
 202 0393 537BBA7B 		.ascii	"S{\272{Q\313\363\214\016\256#$M-\346\214\267\223\024"
 202      51CBF38C 
 202      0EAE2324 
 202      4D2DE68C 
 202      B79314
 203 03a6 EBA7B9B4 		.ascii	"\353\247\271\264E\330\220j\3055\335`V\316\320\332w3"
 203      45D8906A 
 203      C535DD60 
 203      56CED0DA 
 203      7733
 204 03b8 93596427 		.ascii	"\223Yd'\325R\200m\325\350 K\301\244\252\245U\215\265"
 204      D552806D 
 204      D5E8204B 
 204      C1A4AAA5 
 204      558DB5
 205 03cb 69BA92D6 		.ascii	"i\272\222\3265v\257\2343\015\231\032\231m\032\334mc"
 205      3576AF9C 
 205      330D991A 
 205      996D1ADC 
 205      6D63
 206 03dd B44F9555 		.ascii	"\264O\225UMI\347RL6\255\224\252Y=\003(\236\203\277\017"
 206      4D49E752 
 206      4C36AD94 
 206      AA593D03 
 206      289E83BF 
 207 03f2 3D48AC87 		.ascii	"=H\254\207W\361\316PX\246\306\344Z1\326p\226\231\020"
 207      57F1CE50 
 207      58A6C6E4 
 207      5A31D670 
 207      969910
 208 0405 BD961037 		.ascii	"\275\226\0207~\023!YCW\230i\022\323\242\312 aZ\212\220"
 208      7E132159 
 208      43579869 
 208      12D3A2CA 
 208      20615A8A 
 209 041a 8D8464A8 		.ascii	"\215\204d\250\2525\016\335\355\031\352\243&#\244\323"
 209      AA350EDD 
ARM GAS  /tmp/ccpZtEg2.s 			page 16


 209      ED19EAA3 
 209      2623A4D3 
 210 042a 1F5C194E 		.ascii	"\037\\\031N\020\213\015Y)j\321V\"~\257!L\374YK\372*"
 210      108B0D59 
 210      296AD156 
 210      227EAF21 
 210      4CFC594B 
 211 0440 8E861577 		.ascii	"\216\206\025wL\340\266\365\3474%K\254\365\304\351\033"
 211      4CE0B6F5 
 211      E734254B 
 211      ACF5C4E9 
 211      1B
 212 0451 A1864187 		.ascii	"\241\206A\207\305\304F\317\200\023\004>\3750\346\361"
 212      C5C446CF 
 212      8013043E 
 212      FD30E6F1 
 213 0461 6918A880 		.ascii	"i\030\250\200\035\036\000[\224\001j\374\003g@\324+"
 213      1D1E005B 
 213      94016AFC 
 213      036740D4 
 213      2B
 214              		.text
 215              		.section	.gnu.lto_.symtab.8fc7d283705085ff,"",%progbits
 216 0000 5F5F6561 		.ascii	"__early_init\000\000\001\000\000\000\000\000\000\000"
 216      726C795F 
 216      696E6974 
 216      00000100 
 216      00000000 
 217 0016 0000A100 		.ascii	"\000\000\241\000\000\000__late_init\000\000\001\000"
 217      00005F5F 
 217      6C617465 
 217      5F696E69 
 217      74000001 
 218 002b 00000000 		.ascii	"\000\000\000\000\000\000\000\000\250\000\000\000_de"
 218      00000000 
 218      A8000000 
 218      5F6465
 219 003a 6661756C 		.ascii	"fault_exit\000\000\001\000\000\000\000\000\000\000\000"
 219      745F6578 
 219      69740000 
 219      01000000 
 219      00000000 
 220 004f 00AC0000 		.ascii	"\000\254\000\000\000Reset_Handler\000\000\000\000\000"
 220      00526573 
 220      65745F48 
 220      616E646C 
 220      65720000 
 221 0066 00000000 		.ascii	"\000\000\000\000\000\000\000\262\000\000\000__proce"
 221      000000B2 
 221      0000005F 
 221      5F70726F 
 221      6365
 222 0078 73735F73 		.ascii	"ss_stack_end__\000\000\002\000\000\000\000\000\000\000"
 222      7461636B 
 222      5F656E64 
 222      5F5F0000 
 222      02000000 
ARM GAS  /tmp/ccpZtEg2.s 			page 17


 223 0090 0000BC00 		.ascii	"\000\000\274\000\000\000__main_stack_end__\000\000\002"
 223      00005F5F 
 223      6D61696E 
 223      5F737461 
 223      636B5F65 
 224 00ab 00000000 		.ascii	"\000\000\000\000\000\000\000\000\000\304\000\000\000"
 224      00000000 
 224      00C40000 
 224      00
 225 00b8 5F5F6D61 		.ascii	"__main_stack_base__\000\000\002\000\000\000\000\000"
 225      696E5F73 
 225      7461636B 
 225      5F626173 
 225      655F5F00 
 226 00d3 00000000 		.ascii	"\000\000\000\000\306\000\000\000__process_stack_bas"
 226      C6000000 
 226      5F5F7072 
 226      6F636573 
 226      735F7374 
 227 00ee 655F5F00 		.ascii	"e__\000\000\002\000\000\000\000\000\000\000\000\000"
 227      00020000 
 227      00000000 
 227      000000
 228 00fd C8000000 		.ascii	"\310\000\000\000_textdata\000\000\002\000\000\000\000"
 228      5F746578 
 228      74646174 
 228      61000002 
 228      00000000 
 229 0111 00000000 		.ascii	"\000\000\000\000\000\312\000\000\000_data\000\000\002"
 229      00CA0000 
 229      005F6461 
 229      74610000 
 229      02
 230 0122 00000000 		.ascii	"\000\000\000\000\000\000\000\000\000\314\000\000\000"
 230      00000000 
 230      00CC0000 
 230      00
 231 012f 5F656461 		.ascii	"_edata\000\000\002\000\000\000\000\000\000\000\000\000"
 231      74610000 
 231      02000000 
 231      00000000 
 231      0000
 232 0141 CE000000 		.ascii	"\316\000\000\000_bss_start\000\000\002\000\000\000\000"
 232      5F627373 
 232      5F737461 
 232      72740000 
 232      02000000 
 233 0156 00000000 		.ascii	"\000\000\000\000\000\320\000\000\000_bss_end\000\000"
 233      00D00000 
 233      005F6273 
 233      735F656E 
 233      640000
 234 0169 02000000 		.ascii	"\002\000\000\000\000\000\000\000\000\000\322\000\000"
 234      00000000 
 234      0000D200 
 234      00
 235 0176 005F5F69 		.ascii	"\000__init_array_end\000\000\002\000\000\000\000\000"
ARM GAS  /tmp/ccpZtEg2.s 			page 18


 235      6E69745F 
 235      61727261 
 235      795F656E 
 235      64000002 
 236 018f 00000000 		.ascii	"\000\000\000\000\324\000\000\000__init_array_start\000"
 236      D4000000 
 236      5F5F696E 
 236      69745F61 
 236      72726179 
 237 01aa 00020000 		.ascii	"\000\002\000\000\000\000\000\000\000\000\000\332\000"
 237      00000000 
 237      000000DA 
 237      00
 238 01b7 00005F5F 		.ascii	"\000\000__fini_array_end\000\000\002\000\000\000\000"
 238      66696E69 
 238      5F617272 
 238      61795F65 
 238      6E640000 
 239 01d0 00000000 		.ascii	"\000\000\000\000\000\334\000\000\000__fini_array_st"
 239      00DC0000 
 239      005F5F66 
 239      696E695F 
 239      61727261 
 240 01e8 61727400 		.ascii	"art\000\000\002\000\000\000\000\000\000\000\000\000"
 240      00020000 
 240      00000000 
 240      000000
 241 01f7 DE000000 		.ascii	"\336\000\000\000main\000\000\002\000\000\000\000\000"
 241      6D61696E 
 241      00000200 
 241      00000000 
 242 0207 00000000 		.ascii	"\000\000\000\000\273\000\000\000"
 242      BB000000 
 243              		.text
 244              		.section	.gnu.lto_.opts,"",%progbits
 245 0000 272D6D63 		.ascii	"'-mcpu=cortex-m3' '-mno-thumb-interwork' '-mthumb' "
 245      70753D63 
 245      6F727465 
 245      782D6D33 
 245      2720272D 
 246 0033 272D4F32 		.ascii	"'-O2' '-fomit-frame-pointer' '-falign-functions=16'"
 246      2720272D 
 246      666F6D69 
 246      742D6672 
 246      616D652D 
 247 0066 20272D66 		.ascii	" '-ffunction-sections' '-fdata-sections' '-fno-comm"
 247      66756E63 
 247      74696F6E 
 247      2D736563 
 247      74696F6E 
 248 0099 6F6E2720 		.ascii	"on' '-flto'\000"
 248      272D666C 
 248      746F2700 
 249              		.text
 250              		.section	.text.__early_init,"ax",%progbits
 251              		.align	2
 252              		.p2align 4,,15
ARM GAS  /tmp/ccpZtEg2.s 			page 19


 253              		.weak	__early_init
 254              		.thumb
 255              		.thumb_func
 256              		.type	__early_init, %function
 257              	__early_init:
 258              		@ args = 0, pretend = 0, frame = 0
 259              		@ frame_needed = 0, uses_anonymous_args = 0
 260              		@ link register save eliminated.
 261 0000 7047     		bx	lr
 262              		.size	__early_init, .-__early_init
 263 0002 00BFAFF3 		.section	.text.__late_init,"ax",%progbits
 263      0080AFF3 
 263      0080AFF3 
 263      0080
 264              		.align	2
 265              		.p2align 4,,15
 266              		.weak	__late_init
 267              		.thumb
 268              		.thumb_func
 269              		.type	__late_init, %function
 270              	__late_init:
 271              		@ args = 0, pretend = 0, frame = 0
 272              		@ frame_needed = 0, uses_anonymous_args = 0
 273              		@ link register save eliminated.
 274 0000 7047     		bx	lr
 275              		.size	__late_init, .-__late_init
 276 0002 00BFAFF3 		.section	.text._default_exit,"ax",%progbits
 276      0080AFF3 
 276      0080AFF3 
 276      0080
 277              		.align	2
 278              		.p2align 4,,15
 279              		.weak	_default_exit
 280              		.thumb
 281              		.thumb_func
 282              		.type	_default_exit, %function
 283              	_default_exit:
 284              		@ Volatile: function does not return.
 285              		@ args = 0, pretend = 0, frame = 0
 286              		@ frame_needed = 0, uses_anonymous_args = 0
 287              		@ link register save eliminated.
 288              	.L4:
 289 0000 FEE7     		b	.L4
 290              		.size	_default_exit, .-_default_exit
 291 0002 00BFAFF3 		.section	.text.Reset_Handler,"ax",%progbits
 291      0080AFF3 
 291      0080AFF3 
 291      0080
 292              		.align	2
 293              		.p2align 4,,15
 294              		.global	Reset_Handler
 295              		.thumb
 296              		.thumb_func
 297              		.type	Reset_Handler, %function
 298              	Reset_Handler:
 299              		@ Naked Function: prologue and epilogue provided by programmer.
 300              		@ args = 0, pretend = 0, frame = 0
ARM GAS  /tmp/ccpZtEg2.s 			page 20


 301              		@ frame_needed = 0, uses_anonymous_args = 0
 302              	@ 267 "/home/cody/dev/chibios/trunk/os/common/ports/ARMCMx/compilers/GCC/crt0.c" 1
 303 0000 72B6     		cpsid   i
 304              	@ 0 "" 2
 305              		.thumb
 306 0002 304C     		ldr	r4, .L26
 307              	@ 269 "/home/cody/dev/chibios/trunk/os/common/ports/ARMCMx/compilers/GCC/crt0.c" 1
 308 0004 84F30988 		msr     PSP, r4
 309              	@ 0 "" 2
 310              		.thumb
 311 0008 0223     		movs	r3, #2
 312              	@ 289 "/home/cody/dev/chibios/trunk/os/common/ports/ARMCMx/compilers/GCC/crt0.c" 1
 313 000a 83F31488 		msr     CONTROL, r3
 314              	@ 0 "" 2
 315              	@ 290 "/home/cody/dev/chibios/trunk/os/common/ports/ARMCMx/compilers/GCC/crt0.c" 1
 316 000e BFF36F8F 		isb
 317              	@ 0 "" 2
 318              		.thumb
 319 0012 FFF7FEFF 		bl	__early_init
 320 0016 2C4B     		ldr	r3, .L26+4
 321 0018 2C4A     		ldr	r2, .L26+8
 322 001a 9342     		cmp	r3, r2
 323 001c 0BD2     		bcs	.L9
 324 001e D943     		mvns	r1, r3
 325 0020 1144     		add	r1, r1, r2
 326 0022 21F00301 		bic	r1, r1, #3
 327 0026 1944     		add	r1, r1, r3
 328 0028 4FF05532 		mov	r2, #1431655765
 329 002c 043B     		subs	r3, r3, #4
 330              	.L10:
 331 002e 43F8042F 		str	r2, [r3, #4]!
 332 0032 8B42     		cmp	r3, r1
 333 0034 FBD1     		bne	.L10
 334              	.L9:
 335 0036 264B     		ldr	r3, .L26+12
 336 0038 A342     		cmp	r3, r4
 337 003a 0CD2     		bcs	.L8
 338 003c 2549     		ldr	r1, .L26+16
 339 003e 1A1D     		adds	r2, r3, #4
 340 0040 891A     		subs	r1, r1, r2
 341 0042 21F00301 		bic	r1, r1, #3
 342 0046 1944     		add	r1, r1, r3
 343 0048 4FF05532 		mov	r2, #1431655765
 344 004c 043B     		subs	r3, r3, #4
 345              	.L13:
 346 004e 43F8042F 		str	r2, [r3, #4]!
 347 0052 8B42     		cmp	r3, r1
 348 0054 FBD1     		bne	.L13
 349              	.L8:
 350 0056 2049     		ldr	r1, .L26+20
 351 0058 204B     		ldr	r3, .L26+24
 352 005a 9942     		cmp	r1, r3
 353 005c 0BD2     		bcs	.L12
 354 005e C843     		mvns	r0, r1
 355 0060 1844     		add	r0, r0, r3
 356 0062 20F00300 		bic	r0, r0, #3
 357 0066 1E4C     		ldr	r4, .L26+28
ARM GAS  /tmp/ccpZtEg2.s 			page 21


 358 0068 0430     		adds	r0, r0, #4
 359 006a 0023     		movs	r3, #0
 360              	.L16:
 361 006c E258     		ldr	r2, [r4, r3]
 362 006e CA50     		str	r2, [r1, r3]
 363 0070 0433     		adds	r3, r3, #4
 364 0072 8342     		cmp	r3, r0
 365 0074 FAD1     		bne	.L16
 366              	.L12:
 367 0076 1B4B     		ldr	r3, .L26+32
 368 0078 1B4A     		ldr	r2, .L26+36
 369 007a 9342     		cmp	r3, r2
 370 007c 0AD2     		bcs	.L15
 371 007e D943     		mvns	r1, r3
 372 0080 1144     		add	r1, r1, r2
 373 0082 21F00301 		bic	r1, r1, #3
 374 0086 1944     		add	r1, r1, r3
 375 0088 0022     		movs	r2, #0
 376 008a 043B     		subs	r3, r3, #4
 377              	.L19:
 378 008c 43F8042F 		str	r2, [r3, #4]!
 379 0090 8B42     		cmp	r3, r1
 380 0092 FBD1     		bne	.L19
 381              	.L15:
 382 0094 154D     		ldr	r5, .L26+40
 383 0096 164C     		ldr	r4, .L26+44
 384 0098 FFF7FEFF 		bl	__late_init
 385 009c AC42     		cmp	r4, r5
 386 009e 04D2     		bcs	.L18
 387              	.L22:
 388 00a0 54F8043B 		ldr	r3, [r4], #4
 389 00a4 9847     		blx	r3
 390 00a6 AC42     		cmp	r4, r5
 391 00a8 FAD3     		bcc	.L22
 392              	.L18:
 393 00aa 124D     		ldr	r5, .L26+48
 394 00ac 124C     		ldr	r4, .L26+52
 395 00ae FFF7FEFF 		bl	main
 396 00b2 AC42     		cmp	r4, r5
 397 00b4 04D2     		bcs	.L21
 398              	.L23:
 399 00b6 54F8043B 		ldr	r3, [r4], #4
 400 00ba 9847     		blx	r3
 401 00bc AC42     		cmp	r4, r5
 402 00be FAD3     		bcc	.L23
 403              	.L21:
 404 00c0 FFF7FEFF 		bl	_default_exit
 405              	.L27:
 406              		.align	2
 407              	.L26:
 408 00c4 00000000 		.word	__process_stack_end__
 409 00c8 00000000 		.word	__main_stack_base__
 410 00cc 00000000 		.word	__main_stack_end__
 411 00d0 00000000 		.word	__process_stack_base__
 412 00d4 03000000 		.word	__process_stack_end__+3
 413 00d8 00000000 		.word	_data
 414 00dc 00000000 		.word	_edata
ARM GAS  /tmp/ccpZtEg2.s 			page 22


 415 00e0 00000000 		.word	_textdata
 416 00e4 00000000 		.word	_bss_start
 417 00e8 00000000 		.word	_bss_end
 418 00ec 00000000 		.word	__init_array_end
 419 00f0 00000000 		.word	__init_array_start
 420 00f4 00000000 		.word	__fini_array_end
 421 00f8 00000000 		.word	__fini_array_start
 422              		.size	Reset_Handler, .-Reset_Handler
 423              		.comm	__gnu_lto_v1,1,1
 424 00fc AFF30080 		.ident	"GCC: (GNU Tools for ARM Embedded Processors) 4.8.4 20140526 (release) [ARM/embedded-4_8-br
ARM GAS  /tmp/ccpZtEg2.s 			page 23

