ARM GAS  /tmp/ccO2ITyH.s 			page 1


   1              		.syntax unified
   2              		.cpu cortex-m4
   3              		.eabi_attribute 27, 3
   4              		.eabi_attribute 28, 1
   5              		.fpu fpv4-sp-d16
   6              		.eabi_attribute 20, 1
   7              		.eabi_attribute 21, 1
   8              		.eabi_attribute 23, 3
   9              		.eabi_attribute 24, 1
  10              		.eabi_attribute 25, 1
  11              		.eabi_attribute 26, 1
  12              		.eabi_attribute 30, 2
  13              		.eabi_attribute 34, 1
  14              		.eabi_attribute 18, 4
  15              		.thumb
  16              		.file	"datalogger.c"
  17              		.section	.gnu.lto_.jmpfuncs.cd6d3f8cf7092fe4,"",%progbits
  18 0000 789C7D50 		.ascii	"x\234}P=O\3030\020\275\263\323\246u\221\212\370\001"
  18      3D4FC330 
  18      10BDB3D3 
  18      A675918A 
  18      F801
  19 0012 9185C456 		.ascii	"\221\205\304V\324\252#\023\025M\273\224\017\005\006"
  19      D4AA2313 
  19      154DBB94 
  19      0F0506
  20 0021 24A6084C 		.ascii	"$\246\010Ld\2514\225\033\202\020K~F\027\006~\013\377"
  20      64A93495 
  20      1B82104B 
  20      7E461706 
  20      7E0BFF
  21 0034 8A09DB71 		.ascii	"\212\011\333q\220U\020\036r\027\277w\357=\037\001\002"
  21      9055101E 
  21      7217BF77 
  21      EF3D1F01 
  21      02
  22 0045 7F9D3B04 		.ascii	"\177\235;\004\370\324u\017\250\356(\325m\251+\000\226"
  22      F8D4750F 
  22      A8EE28D5 
  22      6DA92B00 
  22      96
  23 0056 06D643E4 		.ascii	"\006\326C\344\026%\232\036C\352\356u!\245C\220\325\377"
  23      16259A1E 
  23      43EAEE75 
  23      21A54390 
  23      D5FF
  24 0068 6FF0556D 		.ascii	"o\360Um\253}\211$\002|\257\266\247\022\251\363\240}"
  24      AB7D8924 
  24      027CAFB6 
  24      A712A9F3 
  24      A07D
  25 007a E2138208 		.ascii	"\342\023\202\010\2065\241U\303>\330\216\340\252\006"
  25      8635A155 
  25      C33ED88E 
  25      E0AA06
  26 0089 C366DAE6 		.ascii	"\303f\332\346\260V:\006:\357\000\251\275\3534`\367\207"
  26      B0563A06 
ARM GAS  /tmp/ccO2ITyH.s 			page 2


  26      3AEF00A9 
  26      BDEB3460 
  26      F787
  27 009b E562FB7E 		.ascii	"\345b\373~\025\372\206\255\276\367NR\027Z\356L\261\010"
  27      15FA86AD 
  27      BEF74E52 
  27      175AEE4C 
  27      B108
  28 00ad 3EDC54CF 		.ascii	">\334T\317N\265!\014\003\267\032\273\017\350@\027\231"
  28      4EB5210C 
  28      03B71ABB 
  28      0FE84017 
  28      99
  29 00be F1EB990F 		.ascii	"\361\353\231\017\331\011{\240\227j\303\034O'7\223\305"
  29      D9097BA0 
  29      976AC31C 
  29      4F273793 
  29      C5
  30 00cf E57C1E27 		.ascii	"\345|\036''<V*W\374^\211\264\220\253\214/\362\354Q."
  30      273C562A 
  30      57FC5E89 
  30      B490AB8C 
  30      2FF2EC51 
  31 00e4 C580C749 		.ascii	"\305\200\307Ir4\032?0\340>{\232\026\3512\3172\241\370"
  31      72341A3F 
  31      30E03E7B 
  31      9A16E932 
  31      CF32A1F8 
  32 00f8 7591AA42 		.ascii	"u\221\252Bh\302\360\267\334y\376\274\262r3\255\265y"
  32      68C2F0B7 
  32      DC79FEBC 
  32      B27233AD 
  32      B579
  33 010a DD14E269 		.ascii	"\335\024\342i`\004\307\243\177\005\363\365\332\010\036"
  33      6004C7A3 
  33      7F05F3F5 
  33      DA081E
  34 0119 FA84B326 		.ascii	"\372\204\263&\331\205xi\3221\370\006yLh("
  34      D9857869 
  34      D231F806 
  34      794C6828 
  35              		.text
  36              		.section	.gnu.lto_.inline.cd6d3f8cf7092fe4,"",%progbits
  37 0000 789C6D91 		.ascii	"x\234m\221=N\303@\020\205\337\254\327\366:\376\211\344"
  37      3D4EC340 
  37      1085DFAC 
  37      D7F63AFE 
  37      89E4
  38 0012 260405C5 		.ascii	"&\004\005\305\210HT\320\221\212\033 \245F\320\244#\334"
  38      884854D0 
  38      918A1B20 
  38      A546D0A4 
  38      23DC
  39 0024 C24A8152 		.ascii	"\302J\201RP\344\000\0249\004\005\005m\356\020QRQR\""
  39      50E40014 
  39      39040505 
  39      6DEE1051 
ARM GAS  /tmp/ccO2ITyH.s 			page 3


  39      52515222 
  40 0038 44C1CC6C 		.ascii	"D\301\314l\034H\300\226\307og\277\031\277Y\033\030\374"
  40      1C48C096 
  40      C76F67BF 
  40      19BF591B 
  40      18FC
  41 004a 775DADD3 		.ascii	"w]\255\323\031l\332\203B\321\242\277a\011a\001\004\363"
  41      196CDA83 
  41      42D1A2BF 
  41      61096101 
  41      04F3
  42 005c 91DC41A6 		.ascii	"\221\334A\246\000\241\334'\230\344\365\034\311j\250"
  42      00A1DC27 
  42      98E4F51C 
  42      C96AA8
  43 006b E80682CD 		.ascii	"\350\006\202\315U\201i\034\236Pbn.\351\226\270\020f"
  43      5581691C 
  43      9E50626E 
  43      2EE996B8 
  43      1066
  44 007d D228682E 		.ascii	"\322(h.\0275i\024i\256\0205i\224!o\201\037\011q\343"
  44      17356914 
  44      69AE1035 
  44      6994216F 
  44      811F0971 
  45 0092 CD2EFA35 		.ascii	"\315.\3725\307Y\257\266\016\305\343E\345`\037\272\265"
  45      C759AFB6 
  45      0EC5E345 
  45      E5601FBA 
  45      B5
  46 00a3 93F7D75E 		.ascii	"\223\367\327^\345\324\022\233\345\265\361\226XySl\324"
  46      E5D4129B 
  46      E5B5F196 
  46      5879536C 
  46      D4
  47 00b4 6B5E7982 		.ascii	"k^y\202\346#\213\354\200\007\012\236:\210g\307Z\255"
  47      E6238BEC 
  47      80070A9E 
  47      3A8867C7 
  47      5AAD
  48 00c6 63F82EDA 		.ascii	"c\370.\332#D\273\303H\274\032n\220\335\203a*B\300\236"
  48      2344BBC3 
  48      48BC1A6E 
  48      90DD8361 
  48      2A42C09E 
  49 00da 7F9F616C 		.ascii	"\177\237al\313.\031\231!\030\3538\266\270\277\206{?"
  49      CB2E1999 
  49      2118EB38 
  49      B6B8BF86 
  49      7B3F
  50 00ec E5DC5B6C 		.ascii	"\345\334[l}\0240j\363\236\357\006\367\247M\002\033\360"
  50      7D14306A 
  50      F39EEF06 
  50      F7A74D02 
  50      1BF0
  51 00fe 19489B9A 		.ascii	"\031H\233\232l\263\261\335\241\205V\271f\3066\234\016"
  51      6CB3B1DD 
ARM GAS  /tmp/ccO2ITyH.s 			page 4


  51      A18556B9 
  51      66C6369C 
  51      0E
  52 010f 104F07BB 		.ascii	"\020O\007\273\214\030\345\201Stz\215+\215U\224\275\234"
  52      8C18E581 
  52      53747A8D 
  52      2B8D5594 
  52      BD9C
  53 0121 C13D1F6D 		.ascii	"\301=\037m\025pp*\235\324\232Tk\345d\214\330\374\371"
  53      1570702A 
  53      9DD49A54 
  53      6BE5648C 
  53      D8FCF9
  54 0134 E719F225 		.ascii	"\347\031\362%\177\331\024\237\037\016\356nI\306\363"
  54      7FD9149F 
  54      1F0EEE6E 
  54      49C6F3
  55 0143 243CBE01 		.ascii	"$<\276\001\362 I\007"
  55      F2204907 
  56              		.text
  57              		.section	.gnu.lto_.pureconst.cd6d3f8cf7092fe4,"",%progbits
  58 0000 789C6362 		.ascii	"x\234cb`b\220d\200\000\036\006\011F)f)\026)VI6\006v"
  58      60629064 
  58      80001E06 
  58      09462966 
  58      29162956 
  59 0018 290E064E 		.ascii	")\016\006NV.)nI\036K\000\023t\001\200"
  59      562E296E 
  59      491E4B00 
  59      13740180 
  60              		.text
  61              		.section	.gnu.lto_chprintf.cd6d3f8cf7092fe4,"",%progbits
  62 0000 789C8550 		.ascii	"x\234\205P\315J\002Q\024>\337\0355uc\333v\342\0034\213"
  62      CD4A0251 
  62      143EDF1D 
  62      357563DB 
  62      76E20334 
  63 0015 22E80D7A 		.ascii	"\"\350\015z\000\203Z\3058\216z\011\035\321Q\260\026"
  63      00835AC5 
  63      388E7A09 
  63      1DD151B0 
  63      16
  64 0026 5EC1C245 		.ascii	"^\301\302E\013ig\021)\321:\244\027\030\202\332DI\273"
  64      0B696711 
  64      29D13AA4 
  64      171882DA 
  64      4449BB
  65 0039 162D2497 		.ascii	"\026-$\227\265h\321*\202\351\336\031\024\372\201\016"
  65      B568D12A 
  65      82E9DE19 
  65      14FA810E 
  66 0049 DC7B7EBE 		.ascii	"\334{~\276s\276\363\303\210\321OY\220o\010\2425\251"
  66      73BEF3C3 
  66      88D14F59 
  66      906F08A2 
  66      35A9
  67 005b A11158F7 		.ascii	"\241\021X\367\236\250\025e\2002\010\324dhnB\245\262"
ARM GAS  /tmp/ccO2ITyH.s 			page 5


  67      9EA81565 
  67      803208D4 
  67      64686E42 
  67      A5B2
  68 006d 140D84DB 		.ascii	"\024\015\204\333\035_O\036\321\023n\273/>=\017\340\220"
  68      1D5F4F1E 
  68      D1136EBB 
  68      2F3E3D0F 
  68      E090
  69 007f B42B2013 		.ascii	"\264+ \023\264!\035$}\305B\337\373\250Z\321uOon!\016"
  69      B4211D24 
  69      7DC542DF 
  69      FBA85AD1 
  69      754F6F6E 
  70 0095 45EBCDF3 		.ascii	"E\353\315\363\022\034\032\243\325\377\012/\230\373\354"
  70      121C1AA3 
  70      D5FF0A2F 
  70      98FBEC
  71 00a4 794FC3F7 		.ascii	"yO\303\367\203W\364XLC\021\024\222\037\"d\340\014)\225"
  71      8357F458 
  71      4C431114 
  71      921F2264 
  71      E00C2995 
  72 00b8 13A6B624 		.ascii	"\023\246\266$O\032\030H\177\0325\375\241\323\362W\233"
  72      4F1A1848 
  72      7F1A35FD 
  72      A1D3F257 
  72      9B
  73 00c9 AC8329AD 		.ascii	"\254\203)\255\215ho\3343\015\234#,\321]\372\020\035"
  73      8D686FDC 
  73      330D9C23 
  73      2CD15DFA 
  73      101D
  74 00db 31CF1132 		.ascii	"1\317\0212\341\247\313\310\016Gx\312\344g\251\2514\""
  74      E1A7CBC8 
  74      0E4778CA 
  74      E467A9A9 
  74      3422
  75 00ed 2E3BD288 		.ascii	".;\322\210\366\307G\223x\200\344\021\231\021\314\231"
  75      F6C74793 
  75      7880E411 
  75      9911CC99 
  76 00fd 088E9B87 		.ascii	"\010\216\233\207\226G( \340\210\252\222\366\370\370"
  76      96472820 
  76      E088AA92 
  76      F6F8F8
  77 010c 77C798A9 		.ascii	"w\307\230\251H\377\356\310\021'\272\243\253\027\026"
  77      48FFEEC8 
  77      1127BAA3 
  77      AB1716
  78 011b 04027099 		.ascii	"\004\002p\231.EG\235[\312\003\265\372'\332l\214\340"
  78      2E45479D 
  78      5BCA03B5 
  78      FA27DA6C 
  78      8CE0
  79 012d 5469B983 		.ascii	"Ti\271\203\334Q\315\261\244\027\354\242\245\233v\266"
  79      DC51CDB1 
ARM GAS  /tmp/ccO2ITyH.s 			page 6


  79      A417ECA2 
  79      A59B76B6 
  80 013d A167ADBA 		.ascii	"\241g\255\272n\026x\206\333U\335\251\324J\333\2724\352"
  80      6E167886 
  80      DB55DDA9 
  80      D44ADBBA 
  80      34EA
  81 014f 4685DBB5 		.ascii	"F\205\333\265\252\004\312\025^rr\213\005bF9\221\263"
  81      AA04CA15 
  81      5E72728B 
  81      05624639 
  81      91B3
  82 0161 2B45C371 		.ascii	"+E\303q\254\354V\246\341X\325/\251H\201#"
  82      ACEC56A6 
  82      E158D52F 
  82      A9488123 
  83              		.text
  84              		.section	.gnu.lto_logfileNew.part.0.cd6d3f8cf7092fe4,"",%progbits
  85 0000 789C8593 		.ascii	"x\234\205\223\317k\324P\020\307g\336K\2621\266v\375"
  85      CF6BD450 
  85      10C767DE 
  85      4BB231B6 
  85      76FD
  86 0012 013D1496 		.ascii	"\001=\024\226P\361\244\326\332cOV\272\354\245\240,\273"
  86      50F1A4D6 
  86      DA634F56 
  86      BAECA5A0 
  86      2CBB
  87 0024 A0C7B85D 		.ascii	"\240\307\270]C\240u!\366\346a\337\352\"=H\011zY\025"
  87      43A07521 
  87      F6E661DF 
  87      EA223D48 
  87      097A5915 
  88 0038 C15244F0 		.ascii	"\301RD\360\"\236,\255\207\365 \253\210\266^\244\005"
  88      229E2CAD 
  88      87F520AB 
  88      88B65EA4 
  88      05
  89 0049 0FFB0788 		.ascii	"\017\373\007\210=\024TD\2143I\232ji\351\203\235\231"
  89      3D145444 
  89      8C33499A 
  89      6A69E983 
  89      9D99
  90 005b BCCCE73B 		.ascii	"\274\314\347;\337\274d\005\010\330\271F\3517 \001.R"
  90      DFBC6405 
  90      08D8B946 
  90      E9372001 
  90      2E52
  91 006d 4603500F 		.ascii	"F\003P\017>R\241\243\210\262\020r)\007\312\322>\237"
  91      3E52A1A3 
  91      88B21072 
  91      2907CAD2 
  91      3E9F
  92 007f 01D52351 		.ascii	"\001\325#Q\343\335\206\251!r\001\010u]H\015\353\227"
  92      E3DD86A9 
  92      21720108 
  92      755D480D 
ARM GAS  /tmp/ccO2ITyH.s 			page 7


  92      EB97
  93 0091 91B5E420 		.ascii	"\221\265\344 \314+u\267\373f\243\215\367U\273\371X\375"
  93      CC2B75B7 
  93      FB66A38D 
  93      F755BBF9 
  93      58FD
  94 00a3 0E43440F 		.ascii	"\016CD\017in\026\241\202p\211.\320\216\222\320\3767"
  94      696E16A1 
  94      8270892E 
  94      D08E92D0 
  94      FE37
  95 00b5 12B3ED7B 		.ascii	"\022\263\355{\235\271~\325U\201\372C\250\207R@\3776"
  95      9DB97ED5 
  95      5581FA43 
  95      A8875240 
  95      FF36
  96 00c7 69C624EE 		.ascii	"i\306$\356J\006\235;V\320\230UaX\367P\0230\260\337\304"
  96      4A069D3B 
  96      56D09855 
  96      6158F750 
  96      1330B0DF 
  97 00dc E74275C3 		.ascii	"\347Bu\303p\375\207\231E\234&\217\024PR\240>\007\027"
  97      70FD8799 
  97      459C268F 
  97      145052A0 
  97      3E0717
  98 00ef 701074CA 		.ascii	"p\020t\312O(\033\340\241\236\241`\230\034\010\325\241"
  98      4F281BE0 
  98      A19EA160 
  98      981C08D5 
  98      A1
  99 0100 A95460C7 		.ascii	"\251T`\307m\016\316S\004\236F\253D\221\017\247\204:"
  99      6D0ECE53 
  99      049E46AB 
  99      44910FA7 
  99      843A
 100 0112 67594611 		.ascii	"gYF\021\345\017p\363}k\363':\370\224\356\234\204g\212"
 100      E50F70F3 
 100      7D6BF327 
 100      3AF894EE 
 100      9C84678A 
 101 0126 D6590F33 		.ascii	"\326Y\0173\017\341AC\251\254\207\246\213\202}\036\210"
 101      0FE14143 
 101      A9AC87A6 
 101      8B827D1E 
 101      88
 102 0137 DC5D499E 		.ascii	"\334]I\236\322E*\010^\\\334\\\025;akO8\246y\307\342"
 102      D2452A08 
 102      5E5CDC5C 
 102      153B616B 
 102      4F38A679 
 103 014d 82A7AFED 		.ascii	"\202\247\257\3552\375\340\236\002\"\231N\337\306\012"
 103      32FDE09E 
 103      0222994E 
 103      DFC60A
 104 015c DCEEAE2C 		.ascii	"\334\356\256,\0301\353\242v\003~\251Yfz*\311\0342I\235"
 104      1831EBA2 
ARM GAS  /tmp/ccO2ITyH.s 			page 8


 104      76037EA9 
 104      59667A2A 
 104      C91C3249 
 105 0171 8CF75A74 		.ascii	"\214\367ZtD\207\000\336B\363\353\353\027\035\231B|S"
 105      448700DE 
 105      42F3EBEB 
 105      171D9942 
 105      7C53
 106 0183 FE7BFC65 		.ascii	"\376{\374e\272\\\312\361\271\274[\373\276\212[\215z"
 106      BA5CCAF1 
 106      B9BC5BFB 
 106      BE8A5B8D 
 106      7A
 107 0194 EA687B4E 		.ascii	"\352h{N\337t\204\262D_B\023\366-\0257H\237m&\026\001"
 107      DF7484B2 
 107      445F4213 
 107      F62D1537 
 107      489F6D26 
 108 01aa 52325B49 		.ascii	"R2[I\037D\347\315\226R/I\345p\016\216?R\255s\036\036"
 108      1F44E7CD 
 108      96522F49 
 108      E5700E8E 
 108      3F52AD73 
 109 01c0 81842115 		.ascii	"\201\204!\025\017\217\306\302\2676\346\304\226v&\322"
 109      0F8FC6C2 
 109      B736E6C4 
 109      967626D2 
 110 01d0 8E0D6BD1 		.ascii	"\216\015k\321\233\374D\377\000\3567ys\035L\266E\037"
 110      9BFC44FF 
 110      00EE3779 
 110      731D4CB6 
 110      451F
 111 01e2 85F8B27C 		.ascii	"\205\370\262|\214\332\345\253e\223\337>r/\317\356\235"
 111      8CDAE5AB 
 111      6593DF3E 
 111      722FCFEE 
 111      9D
 112 01f3 74669CA9 		.ascii	"tf\234\251\232\353V\375\241\012\030q%\375\352\365\314"
 112      9AEB56FD 
 112      A10A1871 
 112      25FDEAF5 
 112      CC
 113 0204 78FE7CB9 		.ascii	"x\376|\27104rz|\25446q\241P\310\027G\355\274\357\327"
 113      3034727A 
 113      7CAC3436 
 113      71A150C8 
 113      1747EDBC 
 114 021a 7CBBE257 		.ascii	"|\273\342W\235\031\357\232kO\324\334\253\336T\365\224"
 114      9D19EF9A 
 114      6B4FD4DC 
 114      ABDE54F5 
 114      94
 115 022b 9D2F164F 		.ascii	"\235/\026O\014\217LZ\360\027\224\346\322y"
 115      0C8F4C5A 
 115      F01794E6 
 115      D279
 116              		.text
ARM GAS  /tmp/ccO2ITyH.s 			page 9


 117              		.section	.gnu.lto_dataLoggerInitialize.cd6d3f8cf7092fe4,"",%progbits
 118 0000 789C8D54 		.ascii	"x\234\215T_H\223Q\024?\347\336\357\333\267o\316\232"
 118      5F489351 
 118      143FE7DE 
 118      EFDBB76F 
 118      CE9A
 119 0012 4B9B418D 		.ascii	"K\233A\215!\364T\230\324C\020A\031._*\301\034\325\343"
 119      21F45498 
 119      D4431041 
 119      192E5F2A 
 119      C11CD5E3 
 120 0026 9A637CE0 		.ascii	"\232c|\340\224\346\"\242\007\2571\"*bE\017\246\004\211"
 120      94E622A2 
 120      07AF3122 
 120      2A62450F 
 120      A60489
 121 0039 04158141 		.ascii	"\004\025\201AAB\004\263B\024M\355\255 h\030\231\017"
 121      414204B3 
 121      42144DED 
 121      AD206818 
 121      990F
 122 004b D1634954 		.ascii	"\321cIT\353\334\357\237\233Ixa\367\336s\356\371\235"
 122      EBDCEF9F 
 122      9B497861 
 122      F7DE73EE 
 122      F99D
 123 005d DFEF9C7B 		.ascii	"\337\357\234{\2771`\260z\234\243\337\003\005\240\233"
 123      BF3160B0 
 123      7A9CA3DF 
 123      0305A09B 
 124 006d 56F401B2 		.ascii	"V\364\001\262\374,@\277\2271\375\273\006\302\307\007"
 124      FC2C40BF 
 124      9731FDBB 
 124      06C2C707 
 125 007d 2700849F 		.ascii	"'\000\204\237\333\246b\231\012S?T\221\351y\372R\232"
 125      DBA66299 
 125      0A533F54 
 125      91E979FA 
 125      529A
 126 008f 2A7A2C94 		.ascii	"*z,\224\207iyN~\257\230\226~\015u\313\357u6:\242\334"
 126      8769794E 
 126      7EAF9896 
 126      7E0D75CB 
 126      EF75363A 
 127 00a5 00421FE3 		.ascii	"\000B\037\343\212\352\321\310\323w\012\245\020\326\000"
 127      8AEAD1C8 
 127      D3770AA5 
 127      10D600
 128 00b4 C342DC2C 		.ascii	"\303B\334,~\3764\217\267o\025rw\305\257R\011\321@\022"
 128      7EFE348F 
 128      B76F1572 
 128      77C5AF52 
 128      09D14012 
 129 00c8 1D404820 		.ascii	"\035@H \234$\003#\346\302\224\312*,l\341\306\304\365"
 129      9C240323 
 129      E6C294CA 
 129      2A2C6CE1 
ARM GAS  /tmp/ccO2ITyH.s 			page 10


 129      C6C4F5
 130 00db 90288ABC 		.ascii	"\220(\212\274\370CP\0039\203\372\025\244\327Bb%r\224"
 130      F8435003 
 130      3983FA15 
 130      A4D74262 
 130      257294
 131 00ee 158AA5D2 		.ascii	"\025\212\245\322\243\321\371Y\014!\244%\233\201\212"
 131      A3D1F959 
 131      0C21A425 
 131      9B818A
 132 00fd 82694495 		.ascii	"\202iD\225&\246\321\304u\232\300O\007j\000\3428\202"
 132      26A6D1C4 
 132      759AC04F 
 132      076A00E2 
 132      3882
 133 010f 0D5043EB 		.ascii	"\015PC\3530\255Arz\352l\203\206\0129!\362\021+\010$"
 133      30AD4172 
 133      7AEA6C83 
 133      860A3921 
 133      F2112B08 
 134 0124 378D0E9A 		.ascii	"7\215\016\232e\3311dr\345\223\360\372\313\370\217mq"
 134      65D93164 
 134      72E593F0 
 134      FACBF88F 
 134      6D71
 135 0136 BC872AA4 		.ascii	"\274\207*\244P\221\272\264rQ1\344@\2356\003\373O8q\252"
 135      5091BAB4 
 135      725131E4 
 135      409D3603 
 135      FB4F3871 
 136 014b 8CF356C6 		.ascii	"\214\363V\306)p\365\000\177\003\027\247\307>V[qC0\330"
 136      2970F500 
 136      7F0317A7 
 136      C73E565B 
 136      714330D8 
 137 015f 2F4480FA 		.ascii	"/D\200\372v\001~\212\313r\247\247Q\366K\302u\023\227"
 137      76017E8A 
 137      CB72A7A7 
 137      51F64BC2 
 137      751397
 138 0172 9274A68A 		.ascii	"\222t\246\212\337\256\012]\036\373\312\263w\220\377"
 138      DFAE0A5D 
 138      1EFBCAB3 
 138      7790FF
 139 0181 B9CE63E8 		.ascii	"\271\316c\350qI\026&\231\025\277\003\036\012\032{I8"
 139      71491626 
 139      9915BF03 
 139      1E0A1A7B 
 139      4938
 140 0193 1112B2AA 		.ascii	"\021\022\262\252B\337i\273\313)I<\007\271\342\225\221"
 140      42DF69BB 
 140      CB29493C 
 140      07B9E295 
 140      91
 141 01a4 A043E477 		.ascii	"\240C\344wu\371\023\210N\230\201\325\000\3041\365\270"
 141      75F91388 
 141      4E9881D5 
ARM GAS  /tmp/ccO2ITyH.s 			page 11


 141      00C431F5 
 141      B8
 142 01b5 6A3583BA 		.ascii	"j5\203\2726\203\003\365\233\270\351\345\205\245\177"
 142      368303F5 
 142      9BB8E9E5 
 142      85A57F
 143 01c4 B4F9D646 		.ascii	"\264\371\326F2\033\211R\333\245\342\265\021\217\243"
 143      321B8952 
 143      DBA5E2B5 
 143      118FA3
 144 01d3 2DE06ADB 		.ascii	"-\340j\333\220p\303\374\024)\341\033\221.; \033\227"
 144      9070C3FC 
 144      1429E11B 
 144      912E3B20 
 144      1B97
 145 01e5 FB3A3E34 		.ascii	"\373:>4\301]\220<\344+}{\017H\355TP\346\032\020\205"
 145      C15D903C 
 145      E42B7D7B 
 145      0F48ED54 
 145      50E61A10 
 146 01fa D219036B 		.ascii	"\322\031\003k\302\260\365\216\0308h`\320|%\367\271\274"
 146      C2B0F58E 
 146      18386860 
 146      D07C25F7 
 146      B9BC
 147 020c 3C0D5E31 		.ascii	"<\015^1\331\327\251\245\204\223\253f=\327g\026\374\315"
 147      D9D7A9A5 
 147      8493AB66 
 147      3DD76716 
 147      FCCD
 148 021e E50FA6A4 		.ascii	"\345\017\246\244\2529\260\253\200\025\344\246\204\255"
 148      AA39B0AB 
 148      8015E4A6 
 148      84AD
 149 022c 8B125B6A 		.ascii	"\213\022[j\3043\312R\033\206\260\245F\276\\\023CY\014"
 149      C433CA52 
 149      1B86B0A5 
 149      46BE5C13 
 149      43590C
 150 023f DCECBC2A 		.ascii	"\334\354\274*/L\356\227\302\306\336-\316\363\325M\015"
 150      2F4CEE97 
 150      C2C6DE2D 
 150      CEF3D54D 
 150      0D
 151 0250 ADDD548B 		.ascii	"\255\335T\213HzBh)\234Z^\\BGd\335\372\012\233\003\365"
 151      487A4268 
 151      299C5A5E 
 151      5C424764 
 151      DDFA0A9B 
 152 0266 7F55D4D9 		.ascii	"\177U\324\331U\274 H}\030\216YUlq\252(+A7\277\264\267"
 152      55BC2048 
 152      7D188E59 
 152      556C71AA 
 152      282B4137 
 153 027d F49F2371 		.ascii	"\364\237#q\314\272\027&\251\210\222\317\264\231\273"
 153      CCBA1726 
 153      A98892CF 
ARM GAS  /tmp/ccO2ITyH.s 			page 12


 153      B499BB
 154 028c 9233B04F 		.ascii	"\2223\260O\313\355\261\017\2753Oj\355-\233i\223\237"
 154      CBEDB10F 
 154      BD334F6A 
 154      ED2D9B69 
 154      939F
 155 029e 01CA5C32 		.ascii	"\001\312\\2Eug<\033\357\352I\245\222\231\306\004h-\321"
 155      4575673C 
 155      1BEFEA49 
 155      A59299C6 
 155      04682DD1 
 156 02b2 43B1D6C6 		.ascii	"C\261\326\306&\236\314d\020v\2654w4\037ikm\215\266\357"
 156      269ECC64 
 156      1076B534 
 156      77341F69 
 156      6B6D8DB6 
 157 02c7 8B443399 		.ascii	"\213D3\231\236L\344h\317\331\356\254\321\235\212\034"
 157      9E4CE468 
 157      CFD9EEAC 
 157      D19D8A1C 
 158 02d7 36BA92BD 		.ascii	"6\272\222\275\347{\263\311\364\316h{\373\366\335M\235"
 158      E77BB3C9 
 158      F4CE687B 
 158      FBF6DD4D 
 158      9D
 159 02e8 3E8894C7 		.ascii	">\210\224\307\267\270y#\307\263\361L6I\001\177\001\014"
 159      B7B87923 
 159      C7B3F14C 
 159      3649017F 
 159      010C
 160 02fa 4E4349   		.ascii	"NCI"
 161              		.text
 162              		.section	.gnu.lto_dataLoggerStop.cd6d3f8cf7092fe4,"",%progbits
 163 0000 789C6550 		.ascii	"x\234ePMK\002Q\024=\367\215\323\230e\271,\202\030\332"
 163      4D4B0251 
 163      143DF78D 
 163      D39865B9 
 163      2C8218DA 
 164 0014 0642ABA2 		.ascii	"\006B\253\242U\205\342&\010J\241\226\223\3120\220(\341"
 164      5585E226 
 164      084AA196 
 164      93CA3090 
 164      28E1
 165 0026 AE85CF92 		.ascii	"\256\205\317\222h)Q`E\220H\233\026\265\012\\\024\270"
 165      68295160 
 165      4590489B 
 165      16B50A5C 
 165      14B8
 166 0038 2DE8EB1F 		.ascii	"-\350\353\037\3142\360\017D\004\323\2733bT\027\346\235"
 166      CC32F00F 
 166      4404D3BB 
 166      33625417 
 166      E69D
 167 004a FB1EE7E3 		.ascii	"\373\036\347\343\316\025\020\370[\343\352;&`N!i Q\177"
 167      CE1510F8 
 167      5BE3EA3B 
 167      26604E21 
ARM GAS  /tmp/ccO2ITyH.s 			page 13


 167      6920517F 
 168 005e 06AA6141 		.ascii	"\006\252aA\304\015\010\025A\225\015b*M\241)\345\241"
 168      C40D0815 
 168      41950D62 
 168      2A4DA129 
 168      E5A1
 169 0070 7BD97DA7 		.ascii	"{\331}\247\223\243N\355B~y\036\221C\3126F\310\022\326"
 169      93A34EED 
 169      427E791E 
 169      9143CA36 
 169      46C812D6 
 170 0084 D5854C1F 		.ascii	"\325\205L\037D\350w\316\215\350\270\236ww[{\2340\004"
 170      44E877CE 
 170      8DE8B89E 
 170      77775B7B 
 170      9C3004
 171 0097 2C6A2A37 		.ascii	",j*7\235\012\276\261\216\232\224u\023l\241*\255N\016"
 171      9D0ABEB1 
 171      8E9A9475 
 171      136CA12A 
 171      AD4E0E
 172 00aa CF9060D4 		.ascii	"\317\220`\324\236\260\373\320V\231\026\265H\207M\342"
 172      9EB0FBD0 
 172      569916B5 
 172      48874DE2 
 173 00ba 0CA75529 		.ascii	"\014\247U)c*x\007\237\362\200;\255@\254\345d\255\227"
 173      632A7807 
 173      9FF2803B 
 173      AD40ACE5 
 173      64AD97
 174 00cd F8023D50 		.ascii	"\370\002=P\340\207\026\312\3724\260\013?6\244\274W\022"
 174      E08716CA 
 174      FA34B00B 
 174      3F36A4BC 
 174      5712
 175 00df 7D1263E7 		.ascii	"}\022c\347\262\261\340\320\000z\032\207\014\266\330"
 175      B2B1E0D0 
 175      007A1A87 
 175      0CB6D8
 176 00ee 77AFF78C 		.ascii	"w\257\367\214\1776\341,\005\233\344\274\301\000\"\001"
 176      7F36E12C 
 176      059BE4BC 
 176      C1002201 
 177 00fe 0CB17418 		.ascii	"\014\261t\030PC\267?\272\257Z\240\235\306\225T5\353"
 177      5043B73F 
 177      BAAF5AA0 
 177      9DC69554 
 177      35EB
 178 0110 50540DAF 		.ascii	"PT\015\257h#6\351L\037\365m6\203\241|\203(7o\250\272"
 178      682336E9 
 178      4C1FF56D 
 178      3683A17C 
 178      8328376F 
 179 0126 ED56EF8F 		.ascii	"\355V\357\217\373\257\301r\210\227\302\361\321\234U"
 179      FBAFC172 
 179      8897C2F1 
 179      D19C55
ARM GAS  /tmp/ccO2ITyH.s 			page 14


 180 0135 B6B68AB6 		.ascii	"\266\266\212\266\235\337\216ga$\222K\231T|\306L,\246"
 180      9DDF8E67 
 180      6124924B 
 180      99547CC6 
 180      4C2CA6
 181 0148 17975752 		.ascii	"\027\227WR\251\344\352\274\231\3503\314\265r\261T\312"
 181      A9E4EABC 
 181      99E833CC 
 181      B572B154 
 181      CA
 182 0159 E722F806 		.ascii	"\347\"\370\006\357\271p\311"
 182      EFB970C9 
 183              		.text
 184              		.section	.gnu.lto_logfileNew.cd6d3f8cf7092fe4,"",%progbits
 185 0000 789C5D51 		.ascii	"x\234]Q\275K[Q\024\377\375\356\273/y\211\011u\354bx"
 185      BD4B5B51 
 185      14FFFDEE 
 185      BB2F7989 
 185      0975EC62 
 186 0015 385A5074 		.ascii	"8ZPtt\252U\311\"\026\212\201v|\246\351\343\201\037 "
 186      74AA55C9 
 186      22168A81 
 186      767CA6E9 
 186      E3811F20 
 187 0029 42870EDE 		.ascii	"B\207\016\336\224(\216\"\035\322\212P\361\017p,\225"
 187      94288E22 
 187      1DD28A50 
 187      F10F702C 
 187      95
 188 003a 1632EAD0 		.ascii	"\0262\352\320J\027\277&G\207N\031E\210\347<\023\213"
 188      4A17BF26 
 188      47874E19 
 188      4588E73C 
 188      138B
 189 004c BD70CFB9 		.ascii	"\275p\317\271\367\274\363\373\270\347\031\030\374\277"
 189      F7BCF3FB 
 189      B8E71918 
 189      FCBF
 190 005a 46659F11 		.ascii	"Fe\237\021\030\227L\0374[\277\201z`\214=\035\201+x\207"
 190      18974C1F 
 190      345BBF81 
 190      7A608C3D 
 190      1D812B78 
 191 006f 25B8BC47 		.ascii	"%\270\274G\253eZR3\2105\343Y\256\275\241Rp\020{\316"
 191      AB655A52 
 191      338835E3 
 191      59AEBDA1 
 191      5270107B 
 192 0084 6D5FADB7 		.ascii	"m_\255\267\257\371\371S\253\361\325\335v:dB\221\353"
 192      AFF9F953 
 192      ABF1D5DD 
 192      763A6442 
 192      91EB
 193 0096 27AAC46B 		.ascii	"'\252\304k\2710L\223\261\217\365\017L\353\252\323\271"
 193      B9304C93 
 193      B18FF50F 
 193      4CEBAAD3 
ARM GAS  /tmp/ccO2ITyH.s 			page 15


 193      B9
 194 00a7 FDD6680F 		.ascii	"\375\326h\017\024\211\204\236\321`\021qOx3\\$\262R\261"
 194      1489849E 
 194      D1601171 
 194      4F78335C 
 194      24B252B1 
 195 00bb 819C9893 		.ascii	"\201\234\230\223`\012\022<A\372h8\267\025B\005d\315"
 195      600A123C 
 195      41FA6838 
 195      B7154205 
 195      64CD
 196 00cd 49547315 		.ascii	"ITs\025\032\315\336/|<n\212\243\210\373\362\256\230"
 196      1ACDDE2F 
 196      7C3C6E8A 
 196      A388FBF2 
 196      AE98
 197 00df 76075FEA 		.ascii	"v\007_\352\316\365\213\255\017\270q\233z\362\027\251"
 197      CEF58BAD 
 197      0FB8719B 
 197      7AF217A9 
 198 00ef 76D497DF 		.ascii	"v\324\227\337\365s\002\377\036\201\177m\231*S\011e\321"
 198      F57302FF 
 198      1E817F6D 
 198      992A5309 
 198      65D1
 199 0101 62D3B99F 		.ascii	"b\323\271\237\002\311\226\360t\3275\237'\014\320\305"
 199      02C996F0 
 199      74D7359F 
 199      270CD0C5 
 200 0111 24CC01A2 		.ascii	"$\314\001\242|y\336n\231\236r\366\031\206\222T_@\371"
 200      7C79DE6E 
 200      999E72F6 
 200      19869254 
 200      5F40F9
 201 0124 9819D5EB 		.ascii	"\230\031\325\353K\011\347\331\233\303\021\032\177\353"
 201      4B09E7D9 
 201      9BC3111A 
 201      7FEB
 202 0132 4F1E20DA 		.ascii	"O\036 \332\362hR\025y\363a\311;\301F\320k2\017\006\013"
 202      F2685215 
 202      79F361C9 
 202      3BC146D0 
 202      6B320F06 
 203 0147 559AAEC1 		.ascii	"U\232\256\301 f.f!a\261\207\263\3518\376\310O\325\357"
 203      20662E66 
 203      2161B187 
 203      B3E938FE 
 203      C84FD5EF 
 204 015b A9E005A8 		.ascii	"\251\340\005\250\0022E\363\343\273 \214G\035 \265S\211"
 204      023245F3 
 204      E3BB208C 
 204      471D20B5 
 204      5389
 205 016d 8A6FA3D5 		.ascii	"\212o\243\325ha9\216k+\303Ud\247\246_T\312\303c\203"
 205      6861398E 
 205      6B2BC355 
 205      64A7A65F 
ARM GAS  /tmp/ccO2ITyH.s 			page 16


 205      54CAC363 
 206 0182 53137313 		.ascii	"S\023s\0233/\313\345\351W\343\341\344J-ZM\226\342p\266"
 206      332FCBE5 
 206      E957E3E1 
 206      E44A2D5A 
 206      4D96E270 
 207 0197 F63E9C59 		.ascii	"\366>\234Y\216\337%\013\265<\356\000\262O{\014"
 207      8EDF250B 
 207      B53CEE00 
 207      B24F7B0C 
 208              		.text
 209              		.section	.gnu.lto_logfileSize.cd6d3f8cf7092fe4,"",%progbits
 210 0000 789C6362 		.ascii	"x\234cb`b@\007\222@\034\015\304\374@\314\310\314\300"
 210      60624007 
 210      92401C0D 
 210      C4FC40CC 
 210      C8CCC0
 211 0013 C834E11C 		.ascii	"\3104\341\034\003C#\007\023##\210\301\300\310P\317\304"
 211      03432307 
 211      13232388 
 211      C1C0C850 
 211      CFC4
 212 0025 581FC908 		.ascii	"X\037\311\010V\273\236\351\300\203\377\377\327\3358"
 212      56BB9EE9 
 212      C083FFFF 
 212      D7DD38
 213 0034 BEE03D23 		.ascii	"\276\340=##\310(V\206\226\206\206\011\012\014\014\311"
 213      23C82856 
 213      86968686 
 213      090A0C0C 
 213      C9
 214 0045 60052140 		.ascii	"`\005!@\022\244+\024(\011\244\231/24>x\267\2301\221"
 214      12A42B14 
 214      2809A499 
 214      2F32343E 
 214      78B79831 
 215 005a 7121232B 		.ascii	"q!#+C\004c&#\334\326\020FF\220\012\220\031\274)\211"
 215      43046326 
 215      23DCD610 
 215      4646900A 
 215      9019BC29 
 216 006f 258939F9 		.ascii	"%\2119\371\351\351\251Ez\311\014\000H\361\037j"
 216      E9E9A945 
 216      7AC90C00 
 216      48F11F6A 
 217              		.text
 218              		.section	.gnu.lto_logfileWrite.cd6d3f8cf7092fe4,"",%progbits
 219 0000 789C8553 		.ascii	"x\234\205S=hSQ\024>\337\275\367\345\267\011E\004\251"
 219      3D685351 
 219      143EDFBD 
 219      F7E5B709 
 219      4504A9
 220 0013 60290141 		.ascii	"`)\001A,\264\212.\216\216\356\015\350\340\360\214\341"
 220      2CB48A2E 
 220      8E8EEE0D 
 220      E8E0F08C 
 220      E1
ARM GAS  /tmp/ccO2ITyH.s 			page 17


 221 0024 F1C01F88 		.ascii	"\361\300\037\210\001\007\207\3364\0013\210\004\021\374"
 221      010787DE 
 221      34013388 
 221      0411FC
 222 0033 5BDA880A 		.ascii	"[\332\210\012]\034\034\\\004_\034\254\024\177\010t\320"
 222      5D1C1C5C 
 222      045F1CAC 
 222      147F0874 
 222      D0
 223 0044 D221084E 		.ascii	"\322!\010N\212\203\243\250\317s\357M^\252\035z\340\335"
 223      8A83A3A8 
 223      CF73EF4D 
 223      5EAA1D7A 
 223      E0DD
 224 0056 7BCEB9E7 		.ascii	"{\316\271\347\373\316w\177\236 A\377\333I\376J\222\350"
 224      FBCE777F 
 224      9E2041FF 
 224      DB49FE4A 
 224      92E8
 225 0068 20CF4811 		.ascii	" \317H\021D\347=Q##\204\367b\232tNn\314\223\236\220"
 225      44E73D51 
 225      232384F7 
 225      629A744E 
 225      6ECC939E 
 226 007d C25B3FC2 		.ascii	"\302[?\302\221z}\200#\005\317\025y\200q\010\264(\244"
 226      917A7D80 
 226      2305CF15 
 226      79807108 
 226      B428A4
 227 0090 F2B07806 		.ascii	"\362\260x\006\206R\226hE\353\316\340K\267'\357\335\216"
 227      86529668 
 227      45EBCEE0 
 227      4BB727EF 
 227      DD8E
 228 00a2 5ACBFA57 		.ascii	"Z\313\372W\034\003!\270\375$\250\002:\315\001f\354$"
 228      1C0321B8 
 228      FD24A802 
 228      3ACD0166 
 228      EC24
 229 00b4 D4BF7A2C 		.ascii	"\324\277z,\366V\364{\355\346>=\320\035\375\207\241!"
 229      F656F47B 
 229      EDE63E3D 
 229      D01DFD87 
 229      A121
 230 00c6 A4A0FD63 		.ascii	"\244\240\375cd\306!\261\023\031u\242x\355\306\224^^"
 230      64C621B1 
 230      131975A2 
 230      78EDC694 
 230      5E5E
 231 00d8 1A21B9E7 		.ascii	"\032!\271\347\364n=\237\212h\020\307[/[?\016\261\276"
 231      F46E3D9F 
 231      8A6810C7 
 231      5B2F5B3F 
 231      0EB1BE
 232 00eb 104AE222 		.ascii	"\020J\342\"H\261\347y\354\361\261\204H\245\331\023Y"
 232      48B1E779 
 232      ECF1B184 
ARM GAS  /tmp/ccO2ITyH.s 			page 18


 232      48A5D913 
 232      59
 233 00fc F2F11025 		.ascii	"\362\361\020%\312q&\2357C\201\007*rz\205\323l\036\265"
 233      CA71269D 
 233      37438107 
 233      2A727A85 
 233      D36C1EB5 
 234 0110 78EF33AE 		.ascii	"x\3573\256\314\307#\233\255X\251\013<\232\363*C\230"
 234      CCC7239B 
 234      AD58A90B 
 234      3C9AF32A 
 234      4398
 235 0122 59BEA3A5 		.ascii	"Y\276\243\245\315\273\335\276\360\361\004\036\005P\263"
 235      CDBBDDBE 
 235      F0F1041E 
 235      0550B3
 236 0131 74985B3E 		.ascii	"t\230[>\240\373\015\255\365\331\020\231\000\322\350"
 236      A0FB0DAD 
 236      F5D91099 
 236      00D2E8
 237 0140 CD5A95E7 		.ascii	"\315Z\225\347\222\3752\360{s\025#\\*\340\211>\320\365"
 237      92FD32F0 
 237      7B731523 
 237      5C2AE089 
 237      3ED0F5
 238 0153 686A94CA 		.ascii	"hj\224\312^\243\237\272\255'C\344*p8\346\017\220\346"
 238      5EA39FBA 
 238      AD2743E4 
 238      2A7038E6 
 238      0F90E6
 239 0166 6AB3C4F6 		.ascii	"j\263\304\366\234\211\363N\240C\361F&,\367\346\307n"
 239      9C89F34E 
 239      A043F146 
 239      262CF7E6 
 239      C76E
 240 0178 2F21CF59 		.ascii	"/!\317YQ\005\026\205\235\202\220\010j\266\233\217\023"
 240      51051685 
 240      9D829008 
 240      6AB69B8F 
 240      13
 241 0189 4C9E61A6 		.ascii	"L\236a\246\254\000'\366\224[\230\245U\323\370\350.t"
 241      AC0027F6 
 241      945B98A5 
 241      55D3F8E8 
 241      2E74
 242 019b 8C277A43 		.ascii	"\214'zC\255o\275;\3532\331\220\251\223\333/\255\314"
 242      AD6FBD3B 
 242      EB32D990 
 242      A993DB2F 
 242      ADCC
 243 01ad E1C6BCB4 		.ascii	"\341\306\274\264g\3619i]\260g1\356\031\2408\272\004"
 243      67F13969 
 243      5DB06731 
 243      EE19A038 
 243      BA04
 244 01bf 43D938B1 		.ascii	"C\3318\261\255\2608&[\200\242\346\036Y\346%w3\257\276"
 244      ADB03826 
ARM GAS  /tmp/ccO2ITyH.s 			page 19


 244      5B80A2E6 
 244      1E59E625 
 244      7733AFBE 
 245 01d3 0EAFC5A1 		.ascii	"\016\257\305\241\217\3233\3356\257\211\255\317/\337"
 245      8FD333DD 
 245      36AF89AD 
 245      CF2FDF
 246 01e2 A8B4C127 		.ascii	"\250\264\301'\202Q\246@\362m?c]\"\265\325\337;\314\012"
 246      8251A640 
 246      F26D3F63 
 246      5D22B5D5 
 246      DF3BCC0A 
 247 01f6 CE1A7A18 		.ascii	"\316\032z\030^\363\367\025\316\373u\377\302\345 \250"
 247      5EF3F715 
 247      CEFB75FF 
 247      C2E520A8 
 248 0206 D6E62A94 		.ascii	"\326\346*\224\275Z\013\353\365\352\245\271c\262V\275"
 248      BD5A0BEB 
 248      F5EAA5B9 
 248      63B256BD 
 249 0216 921E467F 		.ascii	"\222\036F\177\001\024D\302M"
 249      011444C2 
 249      4D
 250              		.text
 251              		.section	.gnu.lto_logfileWriteCsv.cd6d3f8cf7092fe4,"",%progbits
 252 0000 789C6362 		.ascii	"x\234cb`b@\007\222@\234\005\304\374@\314\310\314\300"
 252      60624007 
 252      92409C05 
 252      C4FC40CC 
 252      C8CCC0
 253 0013 C834E11C 		.ascii	"\3104\341\034\003C#\007\023##\210\301\300\310P\317\304"
 253      03432307 
 253      13232388 
 253      C1C0C850 
 253      CFC4
 254 0025 581FC908 		.ascii	"X\037\311\010V\273\236\351\300\203\377\377\327]8\265"
 254      56BB9EE9 
 254      C083FFFF 
 254      D75D38B5 
 255 0035 E02C2313 		.ascii	"\340,#\023+\023c.#\0033\220`d\001\022 \223Y\031Z\032"
 255      2B13632E 
 255      23033390 
 255      60640112 
 255      20935919 
 256 004b 1A262830 		.ascii	"\032&(00$\203\325\207\000I\220!\241@I \315|\221\241"
 256      302483D5 
 256      87004990 
 256      21A14049 
 256      20CD7C91 
 257 0060 F1C199A5 		.ascii	"\361\301\231\245\214\211\214\013\031Y\031\"\0303\031"
 257      8C898C0B 
 257      19591922 
 257      183319
 258 006f E18E0861 		.ascii	"\341\216\010ad\004\251\000\231\301\233\222X\222\230"
 258      6404A900 
 258      99C19B92 
 258      589298
ARM GAS  /tmp/ccO2ITyH.s 			page 20


 259 007e 939F9E9E 		.ascii	"\223\237\236\236Z\244\227\314\000\000\203\351 \217"
 259      5AA497CC 
 259      000083E9 
 259      208F
 260              		.text
 261              		.section	.gnu.lto_logfileGetWrCount.cd6d3f8cf7092fe4,"",%progbits
 262 0000 789C6362 		.ascii	"x\234cb`b@\007\222@<\003\210\371\201\230\221\231\201"
 262      60624007 
 262      92403C03 
 262      88F98198 
 262      919981
 263 0013 9169C239 		.ascii	"\221i\3029\006\206F\016&FF\020\203\201\221\241\236\211"
 263      0686460E 
 263      26464610 
 263      838191A1 
 263      9E89
 264 0025 B13E9211 		.ascii	"\261>\222\021\254v=\323\201\007\377\377\257\333vz\301"
 264      AC763DD3 
 264      8107FFFF 
 264      AFDB767A 
 264      C1
 265 0036 5D462616 		.ascii	"]F&\026&\306\\F\006f\206L\260\034+CKC\303\004\005\006"
 265      26C65C46 
 265      0666864C 
 265      B01C2B43 
 265      4B43C304 
 266 004c 86643037 		.ascii	"\206d07\004H\202\364\20722\201h\346\263\014M\267fl\327"
 266      044882F4 
 266      87323281 
 266      68E6B30C 
 266      4DB7666C 
 267 0061 4C645CC8 		.ascii	"Ld\\\310\310\312\220\316\310\254\315\260\252\001\010"
 267      C8CA90CE 
 267      C8ACCDB0 
 267      AA0108
 268 0070 EC819A67 		.ascii	"\354\201\232g3\314b\314ddLgd\212\000\322\020\007&1\302"
 268      33CC62CC 
 268      64644C67 
 268      648A00D2 
 268      10072631 
 269 0085 9C7791A1 		.ascii	"\234w\221\241\361\000+\\\033D,\204\221\021d(H)oJbIb"
 269      F1002B5C 
 269      1B442C84 
 269      91116428 
 269      48296F4A 
 270 009c 4E7E7A7A 		.ascii	"N~zzj\221^2\003\000\265;*\031"
 270      6A915E32 
 270      0300B53B 
 270      2A19
 271              		.text
 272              		.section	.gnu.lto_logfileClose.cd6d3f8cf7092fe4,"",%progbits
 273 0000 789C6550 		.ascii	"x\234eP=K\003A\024\234\331\335\363\316/ba\255\326\006"
 273      3D4B0341 
 273      149CD9DD 
 273      F3CE2F62 
 273      61ADD606 
 274 0014 0CF8476C 		.ascii	"\014\370Gl\014jy\236r,(\202\330YdO\256\260L\255\215"
ARM GAS  /tmp/ccO2ITyH.s 			page 21


 274      0C6A799E 
 274      722C2882 
 274      D859644F 
 274      AEB04CAD 
 275 0029 B622DA06 		.ascii	"\266\"\332\006\024I\031\360\013!\215i\342\017\360\007"
 275      144919F0 
 275      0B218D69 
 275      E20FF007 
 276 0039 A820F1ED 		.ascii	"\250 \361\355\035Q\321\205\335\367\330\23573;\012\012"
 276      1D51D185 
 276      DDF7D89D 
 276      37333B0A 
 276      0A
 277 004a 7FD7A2EC 		.ascii	"\177\327\242\354%\002\025\251\014@\325|\000\262H)\335"
 277      250215A9 
 277      0C40D57C 
 277      00B24829 
 277      DD
 278 005b ADC18D99 		.ascii	"\255\301\215\231\353\031\270\011MS^\033\3227 \032J\033"
 278      EB19B809 
 278      4D535E1B 
 278      D237201A 
 278      4A1B
 279 006d 36D65890 		.ascii	"6\326X\220\\\252\366\313`p\321\273=\371\244\032%,a\270"
 279      5CAAF6CB 
 279      6070D1BB 
 279      3DF9A41A 
 279      252C61B8 
 280 0081 4D04D231 		.ascii	"M\004\3221\224\303\353\006\310\235k\316\001I1\264,\247"
 280      94C3EB06 
 280      C89D6BCE 
 280      014931B4 
 280      2CA7
 281 0093 E7AACBA3 		.ascii	"\347\252\313\243T}\217\203\336\333\325;c\236\212\217"
 281      547D8F83 
 281      DEDBD53B 
 281      639E8A8F 
 282 00a3 944115F3 		.ascii	"\224A\025\3632}\214\243\3149\267b\251S\232UZ\232Br\235"
 282      327D8CA3 
 282      CC39B762 
 282      A9539A55 
 282      5A9A4272 
 283 00b8 C31F3C22 		.ascii	"\303\037<\"o\317\016\247\302}|\270C7e\031$,!Be9\002"
 283      6FCF0EA7 
 283      C27D7CB8 
 283      43376519 
 283      242C2142 
 284 00cf 7490BF66 		.ascii	"t\220\277f\225o\240\247\012\177'Q\247F\267\346}\264"
 284      956FA0A7 
 284      0A7F2751 
 284      A746B7E6 
 284      7DB4
 285 00e1 5A37431F 		.ascii	"Z7C\037U\234\211\272\033\267\214\304\011\377\273(5\374"
 285      559C89BA 
 285      1BB78CC4 
 285      09FFBB28 
 285      35FC
ARM GAS  /tmp/ccO2ITyH.s 			page 22


 286 00f3 4DF44364 		.ascii	"M\364Cd\212\037=I`^\276\200<\203\036$\311\351\363~T"
 286      8A1F3D49 
 286      605EBE80 
 286      3C831E24 
 286      C9E9F37E 
 287 0108 B480BAEB 		.ascii	"\264\200\272\353O\373$\350\361>\243\311\215x/\336\332"
 287      4FFB24E8 
 287      F13EA3C9 
 287      8D782FDE 
 287      DA
 288 0119 49D3CDDD 		.ascii	"I\323\315\335\205\004_\277KR7"
 288      85045FBF 
 288      4B5237
 289              		.text
 290              		.section	.gnu.lto_logfileOpenAppend.cd6d3f8cf7092fe4,"",%progbits
 291 0000 789C7552 		.ascii	"x\234uR=k\024Q\024\275\347}Lf7\263\356\032\033-\014"
 291      3D6B1451 
 291      14BDE77D 
 291      4C6637B3 
 291      EE1A1B2D 
 292 0015 62A9A0B5 		.ascii	"b\251\240\265\245\277A\003\021\253u\022\206\001E\210"
 292      A5BF4103 
 292      11AB7512 
 292      86014588 
 293 0025 828545DE 		.ascii	"\202\205E\336\352*V\262\330(jaH\033\010VB\252\011(h"
 293      EA2A56B2 
 293      D8286A61 
 293      481B0856 
 293      42AA0928 
 294 003a 61828D18 		.ascii	"a\202\215\030\261\010\004\014\001\277\202\215\304\300"
 294      B108040C 
 294      01BF828D 
 294      C4C0
 295 0048 7AEFECBC 		.ascii	"z\357\354\274GV\343\203\271o\346\276{\316=\347\276Q"
 295      4756E383 
 295      B96FE6BE 
 295      7BCE3DE7 
 295      BE51
 296 005a A4E8EF75 		.ascii	"\244\350\357u\226\237\257\234>\304;\"\202\352\255\020"
 296      969FAF9C 
 296      3EC43B22 
 296      82EAAD10 
 297 006a 7562A5F4 		.ascii	"ub\245\364\3228\271\272}\177\232\\\242\225\331\363e"
 297      D238B9BA 
 297      7D7F9A5C 
 297      A295D9F3 
 297      65
 298 007b 60074516 		.ascii	"`\007E\026\220\027\002\315*m,f/@(q\234\346\234{\260"
 298      901702CD 
 298      2A6D2C66 
 298      2F402871 
 298      9CE69C7B 
 299 0090 FE6A630B 		.ascii	"\376jc\013\017]\321y\346v\373} \007\267o\201R\320$\177"
 299      0F5DD179 
 299      E676FB7D 
 299      2007B76F 
 299      8152D024 
ARM GAS  /tmp/ccO2ITyH.s 			page 23


 300 00a5 202E3785 		.ascii	" .7\205a=\213\252X\357\367?mww\316pm\033s\314fp\005"
 300      613D8BAA 
 300      58EFF73F 
 300      6D7777CE 
 300      706D1B73 
 301 00bd 6429878E 		.ascii	"d)\207\2168\230\270J\327$S\347`\223*\323\220L\223C\304"
 301      3898B84A 
 301      D72453E7 
 301      60932AD3 
 301      904C9343 
 302 00d2 4C96BACE 		.ascii	"L\226\272\316\365\216\015NH\332\362:\317Q4O@\311\256"
 302      F58E0D4E 
 302      48DAF23A 
 302      CF51344F 
 302      40C9AE
 303 00e5 DFD2AD8F 		.ascii	"\337\322\255\217\2776\336\2506\346a)\203=I'\230\343"
 303      BF36DEA8 
 303      36E66129 
 303      833D4927 
 303      98E3
 304 00f7 093DEE38 		.ascii	"\011=\3568\347.\346\030\311`Dg\\\252\273\024\324\012"
 304      E72EE618 
 304      C9604467 
 304      5CAABB14 
 304      D40A
 305 0109 B037E661 		.ascii	"\2607\346aQ\0113\014\303\277\020\217Y\245\273\305\021"
 305      5109330C 
 305      C3BF108F 
 305      59A5BBC5 
 305      11
 306 011a 8F886FD2 		.ascii	"\217\210o\322\216\273\347Z9jiU\301\335\231I\220\365"
 306      8EBBE75A 
 306      396A6955 
 306      C1DD9949 
 306      90F5
 307 012c 31F6304A 		.ascii	"1\3660J\364\232^n.?_\321\001$\207C\343\232\200\246\245"
 307      F49A5E6E 
 307      2E3F5FD1 
 307      01248743 
 307      E39A80A6 
 308 0141 F1D2C687 		.ascii	"\361\322\306\207\317k\241\260\026l\354\243g\257\205"
 308      CF6BA1B0 
 308      166CECA3 
 308      67AF85
 309 0150 1F231E52 		.ascii	"\037#\036R/!I\345\374F\216\006\323\010LW0\025l\334)"
 309      2F2149E5 
 309      FC468E06 
 309      D3084C57 
 309      30156CDC 
 310 0165 228F4A82 		.ascii	"\"\217J\202\215\003iU\3010f\313\321\024\375\335/\313"
 310      8D036955 
 310      C13066CB 
 310      D114FDDD 
 310      2FCB
 311 0177 2FEE87E9 		.ascii	"/\356\207\351&\373\3507\364}\264\324\377hs\013\276\260"
 311      26FBE837 
 311      F47DB4D4 
ARM GAS  /tmp/ccO2ITyH.s 			page 24


 311      FF68730B 
 311      BEB0
 312 0189 31740DE7 		.ascii	"1t\015\347\376\357a\225\272\305\321\001\212(hi\245\225"
 312      FEEF6195 
 312      BAC5D101 
 312      8A286869 
 312      A595
 313 019b 6A66CA71 		.ascii	"jf\312q\320\267\262\376\312\277\335\376\375\324\372"
 313      D0B7B2FE 
 313      CABFDDFE 
 313      FDD4FA
 314 01aa 5ECD4CE6 		.ascii	"^\315L\346\377\216B\363\246T\257\021x\336jw{\212e\353"
 314      FF8E42F3 
 314      A654AF11 
 314      78DE6A77 
 314      7B8A65EB 
 315 01be 859F8779 		.ascii	"\205\237\207y3\345\017\004a\021\253\215\251\366\365"
 315      33E50F04 
 315      6111AB8D 
 315      A9F6F5
 316 01cd F6E5AB59 		.ascii	"\366\345\253Y6=s*%=3}\355\017\363\004\254L"
 316      363D732A 
 316      253D337D 
 316      ED0FF304 
 316      AC4C
 317              		.text
 318              		.section	.gnu.lto_dataloggerThread.cd6d3f8cf7092fe4,"",%progbits
 319 0000 789C6D52 		.ascii	"x\234mR\273J\003A\024=g\036\331\215\017\242\177`'(\330"
 319      BB4A0341 
 319      143D671E 
 319      D98D0FA2 
 319      7F602728 
 320 0015 59FA0B56 		.ascii	"Y\372\013V\011h\031\243,\013\212 v\026\331\350\026A"
 320      096819A3 
 320      2C0B8A20 
 320      7616D9E8 
 320      1641
 321 0027 14528A36 		.ascii	"\024R\2126\332\213~A@+\265H\304V,RZHj\261\211wf\330"
 321      DA8B7E41 
 321      402BB548 
 321      C4562C52 
 321      5A486AB1 
 322 003f 80C10B7B 		.ascii	"\200\301\013{\356p\317}\235\331QP\230\2645\371n\011"
 322      EE70CF7D 
 322      9DD95150 
 322      98B435F9 
 322      6E09
 323 0051 54C4B304 		.ascii	"T\304\263\004\252N\037h\305\212&\034t8<\306F\351\263"
 323      AA4E1F68 
 323      C58A261C 
 323      74383CC6 
 323      46E9B3
 324 0064 27209BB2 		.ascii	"' \233\262y\204l\306\222.\016\242\251\264\261ln\322"
 324      79846CC6 
 324      922E0EA2 
 324      A9B4B16C 
 324      6ED2
ARM GAS  /tmp/ccO2ITyH.s 			page 25


 325 0076 F7BB570F 		.ascii	"\367\273W\017\203\321\350\356\243\177\335\245\236V\334"
 325      83D1E8EE 
 325      A37FDDA5 
 325      9E56DC
 326 0085 230C52C2 		.ascii	"#\014R\302\012H\177\201\310A\354\240\354@j,\362,\353"
 326      0A487F81 
 326      C841ECA0 
 326      EC406A2C 
 326      F22CEB
 327 0098 2C000DDF 		.ascii	",\000\015\337\243*(3\252T\342t\215\0322X\367p\374\376"
 327      A32A2833 
 327      AA54E274 
 327      8D1A3258 
 327      F770FCFE 
 328 00ac 3D9CAFF3 		.ascii	"=\234\257\363\206\026\011\3552\226R\252+\\2\245N\250"
 328      861609ED 
 328      329652AA 
 328      2B5C32A5 
 328      4EA8
 329 00be 36C41BBF 		.ascii	"6\304\033\277\302\026\013q=\234\234\352\242\242$E.\211"
 329      C2160B71 
 329      3D9C9CEA 
 329      A2A22445 
 329      2E89
 330 00d0 9DF540B5 		.ascii	"\235\365@\265\307T$\254\247Fb\225\300\236\217\331X\022"
 330      C75424AC 
 330      A7466295 
 330      C09E8FD9 
 330      5812
 331 00e2 3CFB194D 		.ascii	"<\373\031M\026\226\205\365\224\033\371\012\023\342\300"
 331      169685F5 
 331      941BF90A 
 331      13E2C0
 332 00f1 117EB276 		.ascii	"\021~\262v6\227\3226\030\266\221\334T\364{\253\311\242"
 332      3697D236 
 332      18B691DC 
 332      54F47BAB 
 332      C9A2
 333 0103 72795ED2 		.ascii	"ry^\322\305\360E\025\335\214\327\204\3775\025\242\236"
 333      C5F04515 
 333      DD8CD784 
 333      FF3515A2 
 333      9E
 334 0114 917FB556 		.ascii	"\221\177\265V\307%.\345\317\017\255I\\\256\355\015\255"
 334      C7252EE5 
 334      CF0FAD49 
 334      5CAEED0D 
 334      AD
 335 0125 4177B1D8 		.ascii	"Aw\261\330'XU\232\344\221{\003\263\333\365\303\372\356"
 335      2758559A 
 335      E4917B03 
 335      B3DBF5C3 
 335      FAEE
 336 0137 7E92EC1C 		.ascii	"~\222\354\034\2544\360\0136za\246"
 336      AC34F00B 
 336      367A61A6 
 337              		.text
ARM GAS  /tmp/ccO2ITyH.s 			page 26


 338              		.section	.gnu.lto_.symbol_nodes.cd6d3f8cf7092fe4,"",%progbits
 339 0000 789C4DD0 		.ascii	"x\234M\320\273N\3030\030\005\340\337\307\011\205\246"
 339      BB4EC330 
 339      1805E0DF 
 339      C70985A6 
 340 0010 97A417A6 		.ascii	"\227\244\027\246\216l\254\274\020OrBBi\270\024\312m"
 340      8E6CACBC 
 340      104F7242 
 340      4269B814 
 340      CA6D
 341 0022 84813C03 		.ascii	"\204\201<\003#S\245vceBBE\202\221'\000\352\340\010\333"
 341      2353A576 
 341      63654242 
 341      45829127 
 341      00EAE008 
 342 0037 CBD1776C 		.ascii	"\313\321wl\377\226\014\201\274*\261\013\277\212\"\263"
 342      FF960C81 
 342      BC2AB10B 
 342      BF8A22B3 
 343 0047 6711725A 		.ascii	"g\021rZ\354\343\026T5\357\012\025\246\220\200\032\007"
 343      ECE31654 
 343      35EF0A15 
 343      A690801A 
 343      07
 344 0058 20EAF6BE 		.ascii	" \352\366\276P\310@\3551\007\003\217\207`\350q\014n"
 344      50C840ED 
 344      3107038F 
 344      8760E871 
 344      0C6E
 345 006a 783C021B 		.ascii	"x<\002\033\036'\340\246\307\002\334\362x\0146=\236\200"
 345      1E27E0A6 
 345      C702DCF2 
 345      780C363D 
 345      9E80
 346 007c 91A3BA00 		.ascii	"\221\243\272\000[\226i\252\3249\330v\232\202\035\247"
 346      5B9669AA 
 346      D439D876 
 346      9A821DA7 
 347 008c 19D8753A 		.ascii	"\031\330u:\003c\247S0q\272\004{NW`\337\351\032\0348"
 347      0363A753 
 347      3071BA04 
 347      7B4E5760 
 347      DFE91A1C 
 348 00a1 DD80C37F 		.ascii	"\335\200\303\177i\351J\376\366c\262#\345_\266e^\245"
 348      69E94AFE 
 348      F663B223 
 348      E55FB665 
 348      5EA5
 349 00b3 F9E7D5E3 		.ascii	"\371\347\325\343\236V\261\274W\324=)\237>L&\222/>GZ"
 349      9E56B1BC 
 349      57D43D29 
 349      9F3E4C26 
 349      922F3E47 
 350 00c8 8B64939D 		.ascii	"\213d\223\235*V\313\345H\007\"\017\325\261 \261\267"
 350      2A56CBE5 
 350      4807220F 
 350      D5B120B1 
ARM GAS  /tmp/ccO2ITyH.s 			page 27


 350      B7
 351 00d9 C3DAA192 		.ascii	"\303\332\241\222\314Li\364m\335\034\330G\242\330:\032"
 351      CC4C69F4 
 351      6DDD1CD8 
 351      47A2D83A 
 351      1A
 352 00ea CADC6C47 		.ascii	"\312\334lG\246^\274@\267\266\245\374\376\332\2255\204"
 352      A65EBC40 
 352      B7B6A5FC 
 352      FEDA9535 
 352      84
 353 00fb 858EEA   		.ascii	"\205\216\352"
 354              		.text
 355              		.section	.gnu.lto_.refs.cd6d3f8cf7092fe4,"",%progbits
 356 0000 789C6362 		.ascii	"x\234cb`b\020e\200\000FF\006&ffF&\240\020\023#\013\020"
 356      60621065 
 356      80004646 
 356      06266666 
 356      4626A010 
 357 0018 B3025900 		.ascii	"\263\002Y\000\004[\000:"
 357      045B003A 
 358              		.text
 359              		.section	.gnu.lto_.decls.cd6d3f8cf7092fe4,"",%progbits
 360 0000 789CBD7D 		.ascii	"x\234\275}y\224\024E\326of\326N7\253\216\"\343\323r"
 360      79941445 
 360      D66F66D6 
 360      4E37AB8E 
 360      22E3D372 
 361 0014 BE711E67 		.ascii	"\276q\036g>\245\001\231\031g\371T\350n\226'\320\234"
 361      3EA50199 
 361      1967F954 
 361      E86E9627 
 361      D09C
 362 0026 EE661CFF 		.ascii	"\356f\034\377\370NYtWC\177\366fU\261\370\275w\316$["
 362      F84E5974 
 362      57437FF6 
 362      6655B1F8 
 362      BD77CE24 
 363 003b 338822AB 		.ascii	"3\210\"\253\3544(\010\002\2625[\263\026\2124\313\310"
 363      EC342808 
 363      02B2355B 
 363      B3168A34 
 363      CBC8
 364 004d 2A3B42B3 		.ascii	"*;B\263\015 2 \010\315\336\357\306\215\314\252\310\254"
 364      0D203220 
 364      08CDDEEF 
 364      C68DCCAA 
 364      C8AC
 365 005f CCACC876 		.ascii	"\314\254\310v\336\253s\"2+*\343\027\367\336\270q\343"
 365      DEAB7322 
 365      322B2AE3 
 365      17F7DEB8 
 365      71E3
 366 0071 C6925192 		.ascii	"\306\222Q\222 \011s\\\202\320\000\237\214O\004\241e"
 366      2009735C 
 366      82D0009F 
 366      8C4F04A1 
ARM GAS  /tmp/ccO2ITyH.s 			page 28


 366      65
 367 0082 4B41682A 		.ascii	"KAh*\010\302+\020\232CpB\230\013a>\204O!,\206\260\004"
 367      08C22B10 
 367      9A437042 
 367      980B613E 
 367      844F212C 
 368 0099 C25208CB 		.ascii	"\302R\010\313 \254\200p\016\302%\010\227!\\\201\260"
 368      20AC8070 
 368      0EC22508 
 368      97215C81 
 368      B0
 369 00aa 571284E3 		.ascii	"W\022\204\343\020\310\347\011\010up\337\302!\0109\020"
 369      10C8E709 
 369      087570DF 
 369      C2210839 
 369      10
 370 00bb 6E41B80F 		.ascii	"nA\270\017\301\003\300M!\264\206\320\026B;\010\235 "
 370      C103C04D 
 370      21B486D0 
 370      16423B08 
 370      9D20
 371 00cd BC0CE13F 		.ascii	"\274\014\341? \274\002\241'\204^\020d\010\225\020\336"
 371      20BC02A1 
 371      27845E10 
 371      64089510 
 371      DE
 372 00de 833019C2 		.ascii	"\2030\031\3024\010\263!\210\200\375\261S\320|HYip\315"
 372      3408B321 
 372      8880FDB1 
 372      53D07C48 
 372      596970CD 
 373 00f2 84F46670 		.ascii	"\204\364fpMWx\230\007\321B\010\363!|\006\341U\010\213"
 373      4D577898 
 373      07D14208 
 373      F3217C06 
 373      E155088B 
 374 0106 202C56F2 		.ascii	" ,V\362;\225\274=\225\262\011\015\204\2054\240\265\251"
 374      3B95BC3D 
 374      95B2090D 
 374      848534A0 
 374      B5A9
 375 0118 435B06E1 		.ascii	"C[\006\341\345q\205O\265\214\034x\276\257\203\342\264"
 375      E571854F 
 375      B58C1C78 
 375      BEAF83E2 
 375      B4
 376 0129 82EBAF20 		.ascii	"\202\353\257 \264\201\360\024\204V\"\225\307\347N*\313"
 376      B481F014 
 376      84562295 
 376      C7E74E2A 
 376      CB
 377 013a DE705D0A 		.ascii	"\336p]\012a\2313!\3273\360;)\346y\210\262 <\347\240"
 377      61993321 
 377      D733F03B 
 377      29E67988 
 377      B2203CE7 
 378 014f DF495944 		.ascii	"\337IYD\006\2046\202\375:|\357\001\241\247#\231w\"\337"
ARM GAS  /tmp/ccO2ITyH.s 			page 29


 378      06843682 
 378      FD3A7CEF 
 378      01A1A723 
 378      997722DF 
 379 0163 3602A583 		.ascii	"6\002\245\203\245\213\320\263B\341Q\255\037R>\241i\037"
 379      A58BD0B3 
 379      42E151AD 
 379      1F523EA1 
 379      691F
 380 0175 84E5703F 		.ascii	"\204\345p?\012\302\012\205\276\241p]\011\241Z\241Q\255"
 380      0AC20A85 
 380      BEA1705D 
 380      09A15AA1 
 380      51AD
 381 0187 6B42A324 		.ascii	"kB\243$&t\200\340\035\206\264\243\020\216A8\251\320"
 381      267480E0 
 381      1D86B4A3 
 381      108E4138 
 381      A9D0
 382 0199 48E8A854 		.ascii	"H\350\250T\352\215\320\015\352%\\\203\264\353\020\376"
 382      EA8DD00D 
 382      EA255C83 
 382      B4EB10FE 
 383 01a9 09E18601 		.ascii	"\011\341\206\001\355D/Z\350hWe\244\226G\312'4\252:\247"
 383      ED442F5A 
 383      E8685765 
 383      A49647CA 
 383      2734AA3A 
 384 01be D24A6822 		.ascii	"\322Jh\"|\020\276\210N\234TdI0I\371\262R\227w\015\312"
 384      7C10BE88 
 384      4E9C5464 
 384      493049F9 
 384      B2529777 
 385 01d4 BDAF94C7 		.ascii	"\275\257\224\307\226K\344E0\325\362U\335>#%\312Y\015"
 385      964BE445 
 385      30D5F255 
 385      DD3E2325 
 385      CA590D
 386 01e7 E92D1DDA 		.ascii	"\351-\035\332\362\356;\022\272Nxv\220r!8!\270\234\311"
 386      F2EE3B12 
 386      BA4E7876 
 386      90722138 
 386      21B89CC9 
 387 01fb 657B141D 		.ascii	"e{\024\035\276\241\264\025QI\323\177\232*\272L~\322"
 387      BEA1B415 
 387      5149D37F 
 387      9A2ABA4C 
 387      7ED2
 388 020d D7EBAF94 		.ascii	"\327\353\257\224\262<BB\337\326\300o\177\202\357c\234"
 388      B23C4242 
 388      DFD6C06F 
 388      7F82EF63 
 388      9C
 389 021e 54F72446 		.ascii	"T\367$F\257$\005\217\264%B\363cp\375\031\204\307u\345"
 389      AF24058F 
 389      B42542F3 
 389      6370FD19 
ARM GAS  /tmp/ccO2ITyH.s 			page 30


 389      84C775E5 
 390 0232 B656686B 		.ascii	"\266Vhk\345H\320\326Z\311\363<\\\237\203\360o\272<m"
 390      E548D0D6 
 390      5AC9F33C 
 390      5C9F83F0 
 390      6FBA3C6D 
 391 0246 95DF4999 		.ascii	"\225\337I\231*-$_\226rm\253`\276\240\313G\332\276OH"
 391      2A2D245F 
 391      96726DAB 
 391      60BEA0CB 
 391      47DABE4F 
 392 025b F093EB4C 		.ascii	"\360\223\353L\344_\013\367\0379\025~\015xi\247\330\004"
 392      E45F0BF7 
 392      1F39157E 
 392      0D7869A7 
 392      D804
 393 026d 82DB5187 		.ascii	"\202\333Q\207K\354I+EV\252\334\010>\321{\217R\236Z\016"
 393      4BEC492B 
 393      4556AADC 
 393      083ED17B 
 393      8F529E5A 
 394 0282 DB3677C3 		.ascii	"\3336w\303\365\177B\332:\270\237\356L\320\240\266O\322"
 394      F57F42DA 
 394      3AB89FEE 
 394      4CD0A0B6 
 394      4FD2
 395 0294 367FA3B4 		.ascii	"6\177\243\264\365N\212\215\232\306\320\361[\035\035"
 395      F54E8A8D 
 395      9AC6D0F1 
 395      5B1D1D
 396 02a3 C4A691F2 		.ascii	"\304\246\221\362\210Ny\024\371\324\220r \374\035B\225"
 396      884E7914 
 396      F9D49072 
 396      20FC1D42 
 396      95
 397 02b4 A29F3BE1 		.ascii	"\242\237;\341Z\253\334\277\314\330\270?\350\360|\302"
 397      5AABDCBF 
 397      CCD8B83F 
 397      E8F07CC2 
 398 02c4 DF647998 		.ascii	"\337dy\230\\7_n=\025\370\372\213\030\024\233\371\004"
 398      5C375F6E 
 398      3D15F8FA 
 398      8B18149B 
 398      F904
 399 02d6 2FDEA4FB 		.ascii	"/\336\244\3730\313\363\302<Y\036W7r\327\223\2623(\316"
 399      30CBF3C2 
 399      3C591E57 
 399      3772D793 
 399      B23328CE 
 400 02ea 157D00FA 		.ascii	"\025}\000\372GQ\370\265\360\231\014\351\220\373\027"
 400      4751F8B5 
 400      F0990CE9 
 400      90FB17
 401 02f9 62B29E09 		.ascii	"b\262\236\011AQ\364%}\017\212\363\304_\013\264\030\374"
 401      4151F425 
 401      7D0F8AF3 
 401      C45F0BB4 
ARM GAS  /tmp/ccO2ITyH.s 			page 31


 401      18FC
 402 030b 59B96910 		.ascii	"Y\271i\020\211\245}\217P2\247R\356\276\243YK\001\200"
 402      89A57D8F 
 402      5032A752 
 402      EEBEA359 
 402      4B0180
 403 031e 65D93FB5 		.ascii	"e\331?\265\031C`k\013\372\010!RP\\\200\324u3\"\010i"
 403      1943606B 
 403      0BFA0821 
 403      52505C80 
 403      D4753322 
 404 0334 58A02362 		.ascii	"X\240#bA\234\212\005\012\031J\011\227$\265\210\027\225"
 404      419C8A05 
 404      0A194A09 
 404      9724B588 
 404      1795
 405 0346 AC9F8A2D 		.ascii	"\254\237\212-\023\022\223\025:\361\011%\213_\315\341"
 405      13129315 
 405      3AF10925 
 405      8B5FCDE1 
 406 0356 54722C52 		.ascii	"Tr,R$\240$\307o^P\3101\3137_LS)6\021\012%W\311/\307"
 406      24A024C7 
 406      6F5E50C8 
 406      31CB375F 
 406      4C532936 
 407 0371 49F52B00 		.ascii	"I\365+\000Kl\223\372\271\011\251\317\246 u\261=R\357"
 407      4B6C93FA 
 407      B909A9CF 
 407      A62075B1 
 407      3D52EF
 408 0384 C449CD50 		.ascii	"\304I\315P\000\226\331&u\271\011\251\355R\220\272\324"
 408      0096D926 
 408      75B909A9 
 408      ED5290BA 
 408      D4
 409 0395 84D456C2 		.ascii	"\204\324V\302x$uGB\375\345\177S3\223\356Lm\0005\333"
 409      78247547 
 409      42FDE57F 
 409      533393EE 
 409      4C6D0035 
 410 03aa AF769065 		.ascii	"\257v\220eoP\\)\266\002%\223E1\256J\344\223\032\207"
 410      6F505C29 
 410      B6022593 
 410      4531AE4A 
 410      E4931A87 
 411 03be 50B11AF2 		.ascii	"P\261\032\362\322\\Tmc\033\266\247\223fE\322\005\015"
 411      D25C546D 
 411      631BB6A7 
 411      936645D2 
 411      050D
 412 03d0 9EE6F39C 		.ascii	"\236\346\363\2340\007(\216m\332\276A\224+\323\325VX"
 412      3007288E 
 412      6DDABE41 
 412      942BD3D5 
 412      5658
 413 03e2 892490AC 		.ascii	"\211$\220\254F\355\". F*Z\270\315\333\323\226\277\245"
 413      46ED222E 
ARM GAS  /tmp/ccO2ITyH.s 			page 32


 413      20462A5A 
 413      B8CDDBD3 
 413      96BFA5
 414 03f5 828DB50D 		.ascii	"\202\215\265\015\346\325\200\355c\301&\330\006k\241"
 414      E6D580ED 
 414      63C126D8 
 414      066BA1
 415 0404 013BC082 		.ascii	"\001;\300\202M\265\015\326Z\003\366\015\013Ve\033\314"
 415      4DB50DD6 
 415      5A03F60D 
 415      0B56651B 
 415      CC
 416 0415 AF013BCC 		.ascii	"\257\001;\314\202\315\267\015\326V\003v\2642}\337[\212"
 416      82CDB70D 
 416      D6560376 
 416      B4327DDF 
 416      5B8A
 417 0427 85932BE5 		.ascii	"\205\223+\345\266\013\2331\362P\262K\011\015\0349\346"
 417      B60B9B31 
 417      F250B24B 
 417      090D1C39 
 417      E6
 418 0438 69A22BDB 		.ascii	"i\242+\333\260\354\245:\375\013\212\016\235\301uhm\235"
 418      B0ECA53A 
 418      FD0B8A0E 
 418      9DC17568 
 418      6D9D
 419 044a C397B869 		.ascii	"\303\227\270ih\300>\257ZO\277\246T#\372\333\263\364"
 419      68C03EAF 
 419      5A4FBFA6 
 419      5423FADB 
 419      B3F4
 420 045c 439338FC 		.ascii	"C\2238\374\316T96\314\241\022\265\206\007\320k\256\221"
 420      CE543936 
 420      CCA112B5 
 420      8607D06B 
 420      AE91
 421 046e F72BDF7F 		.ascii	"\367+\337\177J\236\363\205\250\310\204\266P\3436\255"
 421      4A9EF385 
 421      A8C884B6 
 421      50E336AD 
 422 047e C864FE5E 		.ascii	"\310d\376^\354\226vc\361\261$\231xt2\361he\342\361%"
 422      EC967663 
 422      F1B12499 
 422      787432F1 
 422      6865E2F1 
 423 0493 6EC8B0A5 		.ascii	"n\310\260\2459\221\312v=\023\232r\215\230\320\250H]"
 423      3991CA76 
 423      3D139A72 
 423      8D98D0A8 
 423      485D
 424 04a5 4DE5E9A1 		.ascii	"M\345\351\241\342\370\341\362\216\366*]\373y\020[\230"
 424      E2F8E1F2 
 424      8EF62A5D 
 424      FB79105B 
 424      98
 425 04b6 8BE5A3DA 		.ascii	"\213\345\243\332\364qA\025\354\244m0\255\006Oe\301."
ARM GAS  /tmp/ccO2ITyH.s 			page 33


 425      F4714115 
 425      ECA46D30 
 425      AD064F65 
 425      C12E
 426 04c8 F080B536 		.ascii	"\360\200\2656\247l:\013v\3056\230\226\262\231,\330M"
 426      A76C3A0B 
 426      76C53698 
 426      96B2992C 
 426      D84D
 427 04da 1E30BF39 		.ascii	"\0360\2779e\263Y\260\373\266\301\264\224-g\301\206K"
 427      65B359B0 
 427      FBB6C1B4 
 427      942D67C1 
 427      864B
 428 04ec 1C606DCD 		.ascii	"\034`m\315)[\311\202\275o\033\214\245L\216\255\256M"
 428      295BC982 
 428      BD6F1B8C 
 428      A54C8EAD 
 428      AE4D
 429 04fe 831E81ED 		.ascii	"\203\036\201\355o\3472\256A\034LV;\240:\333\035\356"
 429      6FE732AE 
 429      411C4C56 
 429      3BA03ADB 
 429      1DEE
 430 0510 19930EB7 		.ascii	"\031\223\016\267A\035\312J\302$=\023\272\202\225\373"
 430      411DCA4A 
 430      C2243D13 
 430      BA8295FB 
 431 0520 F6063231 		.ascii	"\366\00621\372\260\335dP\\#>\017\361Z\3619\210k0\336"
 431      FAB0DD64 
 431      505C233E 
 431      0FF15AF1 
 431      39886B30 
 432 0535 80F1268C 		.ascii	"\200\361&\214\267`\274\025\343/1\336\201\361.\214\367"
 432      B760BC15 
 432      E32F31DE 
 432      81F12E8C 
 432      F7
 433 0546 62BC1FE3 		.ascii	"b\274\037\343\203\030\037\302\370\010\306\3070>\201"
 433      83181FC2 
 433      F808C6C7 
 433      303E81
 434 0555 F1B7189F 		.ascii	"\361\267\030\237\2068\3761\023\310\012\023O\"\356\252"
 434      8638FE31 
 434      13C80A13 
 434      4F22EEAA 
 435 0565 C652F8D2 		.ascii	"\306R\370\322\261\311\225\315e'\207\353\035\024/ \363"
 435      B1C995CD 
 435      652787EB 
 435      1D142F20 
 435      F3
 436 0576 A9DD56E8 		.ascii	"\251\335V\350%%\275\355[\240\367\300\271\275\337$\226"
 436      2525BDED 
 436      5BA0F7C0 
 436      B9BDDF24 
 436      96
 437 0587 CFD9F3F3 		.ascii	"\317\331\363\363\306\305\375\274_(\000\227m\253\335"
ARM GAS  /tmp/ccO2ITyH.s 			page 34


 437      C6C5FDBC 
 437      5F280097 
 437      6DABDD
 438 0596 77266AA7 		.ascii	"w&j\247V\220Y\276K6\374<\2215\227J\207\362\360\300\222"
 438      569059BE 
 438      4B36FC3C 
 438      9135974A 
 438      87F2F0C0 
 439 05ab 76E8E67D 		.ascii	"v\350\346}\217n\336\347:\261\246\204\221\204\325\230"
 439      8F6EDEE7 
 439      3AB1A684 
 439      9184D598 
 440 05bb E59ADED3 		.ascii	"\345\232\336\323\033\037\364\323\324\324~\336\344\271"
 440      1B1FF4D3 
 440      D4D47EDE 
 440      E4B9
 441 05c9 3B457942 		.ascii	";EyBz*\372\3478\324\202;%\350\257\237\270\255#\322\377"
 441      7A2AFAE7 
 441      38D4823B 
 441      25E8AF9F 
 441      B8AD23D2 
 442 05de 23D27F23 		.ascii	"#\322\177#5\375Z\030B]\275\236\366C\265\350\245\326"
 442      35FD5A18 
 442      425DBD9E 
 442      F643B5E8 
 442      A5D6
 443 05f0 7351FFED 		.ascii	"sQ\377\355\250*\354\304\215\310\207\007DVt\232\261\213"
 443      A82AECC4 
 443      8DC88707 
 443      4456749A 
 443      B18B
 444 0602 243C006A 		.ascii	"$<\000j\215$\254y,(>\020%\210\037\352\251\254\036\205"
 444      8D24AC79 
 444      2C283E10 
 444      25881FEA 
 444      A9AC1E85 
 445 0616 543EE4A2 		.ascii	"T>\344\242rum\262\214\237\020&+\332)\213Q\2570\012\333"
 445      72756DB2 
 445      8C9F1026 
 445      2BDA298B 
 445      51AF300A 
 446 062b E74879A8 		.ascii	"\347Hy\250\370N\352\241\3470\311\013\014\214v\230\216"
 446      F84EEAA1 
 446      E730C90B 
 446      0C8C7698 
 446      8E
 447 063c 3DC903AA 		.ascii	"=\311\003\252\342\322{\365\316\242\341\015\225\236\300"
 447      E2D27BF5 
 447      CEA2E10D 
 447      959EC0
 448 064b 3B073A50 		.ascii	";\007:P\220\360j\032D}\023\263\210f\031e)\336\014$\341"
 448      90F06A1A 
 448      447D13B3 
 448      88661965 
 448      29DE0C24 
 449 0660 4387A8C8 		.ascii	"C\207\250\310\313\242\223\321\340id%\257\224e\237\233"
 449      CBA293D1 
ARM GAS  /tmp/ccO2ITyH.s 			page 35


 449      E0696425 
 449      AF94659F 
 449      9B
 450 0671 624AC20C 		.ascii	"bJ\302\014\333`~s\260\205<`\346\016\243\026l\271m0\003"
 450      DB607E73 
 450      B0853C60 
 450      E60EA316 
 450      6CB96D30 
 451 0686 CACC1582 		.ascii	"\312\314\025\202V\226\231\300?4\250)\345\236\337\233"
 451      569699C0 
 451      3F34A829 
 451      E59EDF9B 
 452 0696 AD9FF1D5 		.ascii	"\255\237\361\325V\021\306\002\360\303\004\211\270\007"
 452      5611C602 
 452      F0C30489 
 452      B807
 453 06a4 750E6DF3 		.ascii	"u\016m\363\345\207\252\256\332\370{\264\003\223\021"
 453      E587AAAE 
 453      DAF87BB4 
 453      039311
 454 06b3 68B6F3A7 		.ascii	"h\266\363\247\273\306\366\037W\004`\334M\246\234r\252"
 454      BBC6F61F 
 454      570460DC 
 454      4DA69C72 
 454      AA
 455 06c4 9FF1F9BF 		.ascii	"\237\361\371\277#\013\323\221\205\317\234\206\262\340"
 455      230BD391 
 455      85CF9C86 
 455      B2E0
 456 06d2 00AAAE9A 		.ascii	"\000\252\256\232\3752\002\315B\240\025I\262\2609We\347"
 456      FD3202CD 
 456      42A01549 
 456      B2B03957 
 456      65E7
 457 06e4 59337D99 		.ascii	"Y3}\231\226h\240\254\326\220j\307\033\2166>\226m\343"
 457      9668A0AC 
 457      D6906AC7 
 457      1B8E363E 
 457      966DE3
 458 06f7 1B9C1CCA 		.ascii	"\033\234\034\312o>\306\200~\343j\207irl\204\243\261"
 458      6F3EC680 
 458      7EE36A87 
 458      69726C84 
 458      A3B1
 459 0709 0D609E79 		.ascii	"\015`\236y\003\210\263e\251\017\346nSP\234!=\337xQ/"
 459      0388B365 
 459      A90FE66E 
 459      53509C21 
 459      3DDF7851 
 460 071e FCE9A2FE 		.ascii	"\374\351\242\376\204\025u\314\266\250\375\254\250\265"
 460      841575CC 
 460      B6A8FDAC 
 460      A8B5
 461 072c 466B3B0F 		.ascii	"Fk;\017\230\371\010\354\247\031\255\345\346uf\330{\277"
 461      98F908EC 
 461      A719ADE5 
 461      E67566D8 
ARM GAS  /tmp/ccO2ITyH.s 			page 36


 461      7BBF
 462 073e C6189DD7 		.ascii	"\306\030\235\327X\213\2524\2645\377\270\356\301\206"
 462      588BAA34 
 462      B435FFB8 
 462      EEC186
 463 074d B64A22CE 		.ascii	"\266J\"\316G\245\313\320\3710\207!$\254\225t\335z}\310"
 463      47A5CBD0 
 463      F9308721 
 463      24AC9574 
 463      DD7A7DC8 
 464 0761 4F535377 		.ascii	"OSSw\352w\347c\247\256Z\317\217\260|\222\265Q\375^\354"
 464      EA77E763 
 464      A7AE5ACF 
 464      8FB07C92 
 464      B551FD5E 
 465 0776 5E888CE1 		.ascii	"^\210\214\341)V\225m,\277\021\241B\022\227Aq\035*w\215"
 465      2956956D 
 465      2CBF11A1 
 465      42129741 
 465      711D2A77 
 466 078b 84631B89 		.ascii	"\204c\033\211c\004R\255Qh.\005^\306*\360\002\227]\235"
 466      630452AD 
 466      51682E05 
 466      5EC62AF0 
 466      02975D9D 
 467 079f D3F3A256 		.ascii	"\323\363\242VDPl\300\201\323($~4\306c0\376\000\343\217"
 467      44506CC0 
 467      81D32824 
 467      7E34C663 
 467      30FE00E3 
 468 07b4 315E82F1 		.ascii	"1^\202\361R\036\326\356\211\014\235\313\221\316\372"
 468      521ED6EE 
 468      890C9DCB 
 468      91CEFA
 469 07c3 C6FA2D75 		.ascii	"\306\372-u\365\007\353;L\221cC\035"
 469      F507EB3B 
 469      4C916343 
 469      1D
 470 07d0 1EA192FA 		.ascii	"\036\241\222\372r\303Ru\025\240\301n\324\340\230\344"
 470      72C35275 
 470      15A0C16E 
 470      D4E098E4 
 471 07e0 010A56E9 		.ascii	"\001\012V\3514\230\003\210p\361%d\326\350p\315\273~"
 471      34980388 
 471      70F12564 
 471      D6E870CD 
 471      BB7E
 472 07f2 9A6AA1C3 		.ascii	"\232j\241\303\330\360$a\213\213\216'\234\276D\332\256"
 472      D8F02461 
 472      8B8B8E27 
 472      9CBE44DA 
 472      AE
 473 0803 449AC83C 		.ascii	"D\232\310<z0\221,1\311\247\022\311\016&\371j\"\331\311"
 473      7A30912C 
 473      31C9A712 
 473      C90E26F9 
 473      6A22D9C9 
ARM GAS  /tmp/ccO2ITyH.s 			page 37


 474 0817 24372492 		.ascii	"$7$\222]L\362hw<\331\315$ON${\230\344\271\211d/S#\226"
 474      5D4CF268 
 474      773CD9CD 
 474      244F4E24 
 474      7B98E4B9 
 475 0831 1D674248 		.ascii	"\035gBHAq\0336\201\257$\207a6\030\206\271u\232`k\332"
 475      41711B36 
 475      81AF2487 
 475      61361886 
 475      B9759A60 
 476 0847 56464D18 		.ascii	"VFM\030Jz7u\304JF\237\244a\033\216\341\010u\307$\273"
 476      4A7A3775 
 476      C44A469F 
 476      A4611B8E 
 476      E10875C7 
 477 085d 23D6E392 		.ascii	"#\326\343\222\361\21051OR\255\347B[l*w\027\247\211I"
 477      F1883531 
 477      4F52ADE7 
 477      425B6C2A 
 477      7717A789 
 478 0872 CF416893 		.ascii	"\317Ah\223\204\265\\h\251\272\016\325\276m\320\243\331"
 478      84B55C68 
 478      A9BA0ED5 
 478      BE6DD0A3 
 478      D9
 479 0883 9CD5AA1F 		.ascii	"\234\325\252\0375\213w\324\367\226\012\227\036ow\261"
 479      358B77D4 
 479      F7960A97 
 479      1E6F77B1 
 480 0893 BBDB45BF 		.ascii	"\273\333E\277\301\310O\363hP<\007j\222\352)\2346\321"
 480      C1C84FF3 
 480      68503C07 
 480      6A92EA29 
 480      9C36D1
 481 08a6 F7215BE8 		.ascii	"\367![\3502\313\005\256^\344H\2459+\232ai|\340\334>"
 481      32CB05AE 
 481      5EE448A5 
 481      392B9A61 
 481      697CE0DC 
 482 08bb CE48DDD4 		.ascii	"\316H\335\324\333\327\377\013\015\310e\354\002G{R\317"
 482      DBD7FF0B 
 482      0DC865EC 
 482      02477B52 
 482      CF
 483 08cc 1F686082 		.ascii	"\037h`\202\342\025\211\214n\277\327\263pk\006\262\360"
 483      E215898C 
 483      6EBFD7B3 
 483      706B06B2 
 483      F0
 484 08dd 3D170B0F 		.ascii	"=\027\013\017O\314~R\256\213\211\374\206\357\310\275"
 484      4FCC7E52 
 484      AE8B89FC 
 484      86EFC8BD 
 485 08ed 589BE138 		.ascii	"X\233\3418\362\270\206\226o\273\247Q\226\357\206\336"
 485      F2B88696 
 485      6FBBA751 
 485      96EF86DE 
ARM GAS  /tmp/ccO2ITyH.s 			page 38


 486 08fd F2AD2673 		.ascii	"\362\255&s]4=\265\355\333\357I\266}'=\206\266\357\202"
 486      5D343DB5 
 486      EDDBEF49 
 486      B67D273D 
 486      86B6EF82 
 487 0911 C7D0F65D 		.ascii	"\307\320\366]\363\030\332\276{\036\255\355\0238\354"
 487      F318DABE 
 487      7B1EADED 
 487      1338EC
 488 0920 D30DC63E 		.ascii	"\323\015\306>\335D\373\364\243\211}\012\212G\342u\306"
 488      DD44FBF4 
 488      A3897D0A 
 488      8A47E275 
 488      C6
 489 0931 6B9F34F5 		.ascii	"k\2374\365U7\355\366\276!\233\241=\216v7\262\375\234"
 489      5537EDF6 
 489      BE219BA1 
 489      3D8E7637 
 489      B2FD9C
 490 0944 38C1D37E 		.ascii	"8\301\323~\206:\370\332\317p\207N\371\246\234@\345#"
 490      863AF8DA 
 490      CF70874E 
 490      F9A69C40 
 490      E523
 491 0956 E9A995AF 		.ascii	"\351\251\225\257\352\304\354\344\366\243\363J_\371\231"
 491      EAC4ECE4 
 491      F6A3F34A 
 491      5FF999
 492 0965 A91D1DE5 		.ascii	"\251\035\035\345\3209\245\227$\216I\017E\016\017\247"
 492      D039A597 
 492      248E490F 
 492      450E0FA7 
 493 0975 3F4E08AD 		.ascii	"?N\010\255t\020\337z\224W\253\303\032\202hAfD\214q\244"
 493      7410DF7A 
 493      9457ABC3 
 493      1A826841 
 493      66448C71 
 494 098a 99F099F4 		.ascii	"\231\360\231\364\033t\212X\016\021N\343\374\314\032"
 494      1B748A58 
 494      0E114EE3 
 494      FCCC1A
 495 0999 238119D4 		.ascii	"#\201\031\324S]|\036\354\2058\307uw?>\223A\033\356\207"
 495      535D7C1E 
 495      EC8538C7 
 495      75773F3E 
 495      93411BEE 
 496 09ae 0E6271CE 		.ascii	"\016bq\316zSZ\034-\016\216\205\364\025^\275\033+|B\352"
 496      7A535A1C 
 496      2D0E8E85 
 496      F4155EBD 
 496      1B2B7C42 
 497 09c3 0A1F313C 		.ascii	"\012\0371<\266v\367\314\304\262\335p\313\331\211\240"
 497      B676F7CC 
 497      C4B2DD70 
 497      CBD989A0 
 498 09d3 38119B12 		.ascii	"8\021\233\022\317B\3345\344dB\343\304\012d\255\333\215"
 498      CF42DC35 
ARM GAS  /tmp/ccO2ITyH.s 			page 39


 498      E46442E3 
 498      C40A64AD 
 498      DB8D
 499 09e5 0B2D931D 		.ascii	"\013-\223\035\304D\334\262\015\346\327\200\255g\301"
 499      C444DCB2 
 499      0DE6D780 
 499      AD67C1
 500 09f4 1EF08099 		.ascii	"\036\360\200\231\365\343\000\266\221\005\033\341\263"
 500      F5E300B6 
 500      91051BE1 
 500      B3
 501 0a01 0BA6A56C 		.ascii	"\013\246\245l3\013\366\036\017\230\3314\000\200\355"
 501      330BF61E 
 501      0F98D934 
 501      0080ED
 502 0a10 63C1C6DA 		.ascii	"c\301\306\332\006c)\033\032;\275{\027\031\216=&L\220"
 502      0663291B 
 502      1A3BBD7B 
 502      17198E3D 
 502      264C90
 503 0a23 E5A1F21C 		.ascii	"\345\241\362\034\267\231R\010\002>\"[>\002\203p\307"
 503      B7995208 
 503      023E225B 
 503      3E028370 
 503      C7
 504 0a34 635A253D 		.ascii	"cZ%=8\246\031QR\222\236\332*\035R\224Tux& s$oc\032\255"
 504      38A61951 
 504      52929EDA 
 504      2A1D5294 
 504      54757826 
 505 0a4f 1CFB7677 		.ascii	"\034\373vw\232\374^z|H\273\320\202\360\205\372\326u"
 505      9AFC5E7A 
 505      7C48BBD0 
 505      82F085FA 
 505      D675
 506 0a61 64B7E4A7 		.ascii	"d\267\344\247\311\251\351>\266{fky\316V\221\177\237"
 506      C9A9E93E 
 506      B67B666B 
 506      79CE5691 
 506      7F9F
 507 0a73 40FD8CB5 		.ascii	"@\375\214\265/\240\013\262\030kq\222\317p\336\214\003"
 507      2FA00BB2 
 507      186B7192 
 507      CF70DE8C 
 507      03
 508 0a84 A8BA6A01 		.ascii	"\250\272j\001\235C\\\212@\263t@\366\267\034\330zX\022"
 508      9D435C8A 
 508      40B37440 
 508      F6B71CD8 
 508      7A5812
 509 0a97 1662810B 		.ascii	"\026b\201\013\023\372\227r\177\202Ftuw>\276\334N\331"
 509      13FA9772 
 509      7F824674 
 509      75773EBE 
 509      DC4ED9
 510 0aaa 9F4045B1 		.ascii	"\237@E\261\3046`\013]\245H\302\312\306\352\015\303\272"
 510      C436600B 
ARM GAS  /tmp/ccO2ITyH.s 			page 40


 510      5DA548C2 
 510      CAC6EA0D 
 510      C3BA
 511 0abc 3A789EEF 		.ascii	":x\236\357 \003\343\005\216\347\330\002V\361\264:3\267"
 511      2003E305 
 511      8EE7D802 
 511      56F1B43A 
 511      33B7
 512 0ace 1E9AF075 		.ascii	"\036\232\360u\266\011\327\330\006\363k\300n\260`\233"
 512      B609D7D8 
 512      06F36BC0 
 512      6EB0609B 
 513 0ade 79C0FCE6 		.ascii	"y\300\374\346\224\375\310\202}i\033LK\331m\026l\007"
 513      94FDC882 
 513      7D691B4C 
 513      4BD96D16 
 513      6C07
 514 0af0 0F98D1E8 		.ascii	"\017\230\321\350\305\350\303v\207\320_9H\1775\011kj"
 514      C5E8C376 
 514      87D05F39 
 514      487F3509 
 514      6B6A
 515 0b02 0AC6D330 		.ascii	"\012\306\3230\236\201\361,\214\2530\236\213\361\032"
 515      9E81F12C 
 515      8CAB309E 
 515      8BF11A
 516 0b11 8CD761BC 		.ascii	"\214\327a\274\036\343\215l\375Z\370.\365\023p\177\317"
 516      1EE38D6C 
 516      FD5AF82E 
 516      F513707F 
 516      CF
 517 0b22 58F45DFE 		.ascii	"X\364]\376\356\263\364]>4a\225P\037\263\360]bz\337\345"
 517      EEB3F45D 
 517      3E346195 
 517      501FB3F0 
 517      5D627ADF 
 518 0b37 88CFAEEF 		.ascii	"\210\317\256\357\302T\003z\256\261\262M\313ey\244[m"
 518      C254037A 
 518      AEB1B24D 
 518      CB6579A4 
 518      5B6D
 519 0b49 64A7F488 		.ascii	"d\247\364\21067\001\035\235\221\276\357-\025\354\274"
 519      3637011D 
 519      9D91BEEF 
 519      2D15ECBC 
 520 0b59 6D307D8B 		.ascii	"m0}\213U\353q\004\326\343H\254\221\0170\376\002\343"
 520      55EB7104 
 520      D6E348AC 
 520      910F30FE 
 520      02E3
 521 0b6b 6DDAD677 		.ascii	"m\332\326w)\311\310Q\247\227\301Kx\307BjD\263Jj`'\344"
 521      29C9C851 
 521      A797C14B 
 521      78C7426A 
 521      44B34A6A 
 522 0b82 6E60A1DF 		.ascii	"n`\241\337\333\237\\T7\273\234\202\266\220r\271\330"
 522      DB9F5C54 
ARM GAS  /tmp/ccO2ITyH.s 			page 41


 522      37BB9C82 
 522      B69072B9 
 522      D8
 523 0b93 A92265C5 		.ascii	"\251\"e\305u\256\356\346\262\255\255\327\313r\213\240"
 523      75AEEEE6 
 523      B2ADADD7 
 523      CB728BA0 
 524 0ba3 B80BBDC7 		.ascii	"\270\013\275\307\225MR\257\027kp$a\003f\371Z\327\307"
 524      954D52AF 
 524      176B7024 
 524      610366F9 
 524      5AD7C7
 525 0bb6 D5CD5873 		.ascii	"\325\315Xs\346\347S\021\371k\256~\356\276\321\250\233"
 525      E6E75311 
 525      F96BAE7E 
 525      EEBED1A8 
 525      9B
 526 0bc7 926526C3 		.ascii	"\222e&\303\375ze\276\027'\245q\216\370\243\355hS\366"
 526      FD7A65BE 
 526      1727A571 
 526      8EF8A3ED 
 526      6853F6
 527 0bda 630B1C9A 		.ascii	"c\013\034\232f\027L[)\023kg\332\334\314\266b\375\345"
 527      66174C5B 
 527      29136B67 
 527      DADCCCB6 
 527      62FDE5
 528 0bed A736A1C8 		.ascii	"\2476\241\310\016\243\362\357O\323\353\242\262f\221"
 528      0EA3F2EF 
 528      4FD3EBA2 
 528      B26691
 529 0bfc D0451E3F 		.ascii	"\320E\036?\372\030\017#\346\263NP\223\373\237\256\301"
 529      FA180F23 
 529      E6B34E50 
 529      93FB9FAE 
 529      C1
 530 0c0d C1A9EAED 		.ascii	"\301\251\352\355\230\272i\222P\207\205\235\320k\303"
 530      98BA6992 
 530      5087859D 
 530      D06BC3
 531 0c1c 8A2DFB5F 		.ascii	"\212-\373_\244\332p\202K\033\326\356\236\3025$\232\343"
 531      A4DA7082 
 531      4B1BD6EE 
 531      9EC23524 
 531      9AE3
 532 0c2e 568B2FC4 		.ascii	"V\213/\304\342?N'\305\327\351\213\337t\356\362+\264"
 532      E23F4E27 
 532      C5D7E98B 
 532      DF74EEF2 
 532      2BB4
 533 0c40 F83AAEE2 		.ascii	"\370:\256\342O\357\235d\244\214&\243V\265\372\266\374"
 533      4FEF9D64 
 533      A48C26A3 
 533      56B5FAB6 
 533      FC
 534 0c51 D0B60A0B 		.ascii	"\320\266\012\0139\217\012\364}\272\276\372^e\347\355"
 534      398F0AF4 
ARM GAS  /tmp/ccO2ITyH.s 			page 42


 534      7DBABEFA 
 534      5E65E7ED 
 535 0c61 0565359F 		.ascii	"\005e5\237\321\337[q\352\033\245\277\300\346\326W?\303"
 535      D1DF5B71 
 535      EA1BA5BF 
 535      C0E6D657 
 535      3FC3
 536 0c73 9A5269B8 		.ascii	"\232Ri\270k\033Q\253\3047\366b\213\240`\017y\300,,\373"
 536      6B1B51AB 
 536      C437F662 
 536      8BA0600F 
 536      79C02C2C 
 537 0c88 8F2CD8D0 		.ascii	"\217,\330\320\246v\301\264\224\335f\301F\362\200Y\354"
 537      A676C1B4 
 537      94DD66C1 
 537      46F28059 
 537      EC
 538 0c99 B0BCC382 		.ascii	"\260\274\303\202\215\266\015\246\245\354\036\013\366"
 538      8DB60DA6 
 538      A5EC1E0B 
 538      F6
 539 0ca6 010F98C5 		.ascii	"\001\017\230\305\016\313\007,\330x\333`Z\312\036\261"
 539      0ECB072C 
 539      D878DB60 
 539      5ACA1EB1 
 540 0cb6 609379C0 		.ascii	"`\223y\300\374\346\224\215;\300\200M\263\015\246\245"
 540      FCE6948D 
 540      3BC0804D 
 540      B30DA6A5 
 541 0cc6 6C020B36 		.ascii	"l\002\0136\213\007\314b.z\022\0136\3276\230\226\262"
 541      8B07CC62 
 541      2E7A120B 
 541      36D73698 
 541      96B2
 542 0cd8 8F58B0F9 		.ascii	"\217X\260\371<`F\373\034\325\315\267,\330g\266\301\264"
 542      3C6046FB 
 542      1CD5CDB7 
 542      2CD867B6 
 542      C1B4
 543 0cea 944D67C1 		.ascii	"\224Mg\301>\347\001{\331\234\262\231,\330\012\333`Z"
 543      3EE7017B 
 543      D99CB299 
 543      2CD80ADB 
 543      605A
 544 0cfc CA96B360 		.ascii	"\312\226\263`\253y\300^3\247l%\013\266\3166\230\226"
 544      AB79C05E 
 544      33A76C25 
 544      0BB6CE36 
 544      9896
 545 0d0e B2552CD8 		.ascii	"\262U,\330\006\036\260\356\346\224\255a\3016\333\006"
 545      061EB0EE 
 545      E694AD61 
 545      C136DB06 
 546 0d1e D352B68E 		.ascii	"\323R\266\216\005\333\312\003\326\307\234\262\365,\330"
 546      05DBCA03 
 546      D6C79CB2 
 546      F52CD8
ARM GAS  /tmp/ccO2ITyH.s 			page 43


 547 0d2d 36DB605A 		.ascii	"6\333`Z\3126\262`\265<`\1771\247l3\013\266\3336\230"
 547      CA36B260 
 547      B53C607F 
 547      31A76C33 
 547      0BB6DB36 
 548 0d42 96B27D2C 		.ascii	"\226\262},\330^\036\260\267\014(\213\177\314\374\314"
 548      D85E1EB0 
 548      B70C288B 
 548      7FCCFCCC 
 549 0d52 D30EC657 		.ascii	"\323\016\306W?\320Tupl\366\321B\002\343pS\273\036\231"
 549      3FD05475 
 549      706CF6D1 
 549      4202E370 
 549      53BB1E99 
 550 0d66 866FE25B 		.ascii	"\206o\342[?\275^\351\347\251\263z\222\007\321\242\003"
 550      3FBD5EE9 
 550      E7A9B37A 
 550      9207D1A2 
 550      03
 551 0d77 5436F253 		.ascii	"T6\362S\260\363\266\301t\252\\\253\037\216pm\362Y\310"
 551      B0F3B6C1 
 551      74AA5CAB 
 551      1F8E706D 
 551      F259C8
 552 0d8a B9D9D9AC 		.ascii	"\271\331\331\254\232\252\234L5}\317\303\203E\277{\272"
 552      9AAA9C4C 
 552      357DCFC3 
 552      8345BF7B 
 552      BA
 553 0d9b 7626AEA0 		.ascii	"v&\256\240\361\3572[\261~\277\342\275\177\202\213R7"
 553      F1EF325B 
 553      B17EBFE2 
 553      BD7F828B 
 553      5237
 554 0dad 9BEADDBF 		.ascii	"\233\352\335\277\351z\357=\305\206&Ix\240\347\302h]"
 554      E97AEF3D 
 554      C5862649 
 554      78A0E7C2 
 554      685D
 555 0dbf C9BCC307 		.ascii	"\311\274\303\007E9\366l\315RY\036\356\266\303\307N\205"
 555      4539F66C 
 555      CD52591E 
 555      EEB6C3C7 
 555      4E85
 556 0dd1 8F85C8C7 		.ascii	"\217\205\310\307\210f?\235\217\367\233\331\345\243\255"
 556      88663F9D 
 556      8FF79BD9 
 556      E5A3AD
 557 0de0 8E8FAD6D 		.ascii	"\216\217\255m\355\363qL\341\343s\344c\322\277\200\217"
 557      EDF3714C 
 557      E1E373E4 
 557      63D2BF80 
 557      8F
 558 0df1 99B6F960 		.ascii	"\231\266\371`\337\230\302\241T;:\224\342\232\361^\351"
 558      DF98C2A1 
 558      543B3A94 
 558      E29AF15E 
ARM GAS  /tmp/ccO2ITyH.s 			page 44


 558      E9
 559 0e02 D4CD781F 		.ascii	"\324\315x\037\333%\372ir\2521\214\034\253\337\305\214"
 559      DB25FA69 
 559      72AA318C 
 559      1CABDFC5 
 559      8C
 560 0e13 3F65BEF1 		.ascii	"?e\276\361\347\017\212\304V\243\304>\321I\214\037\251"
 560      E70F8AC4 
 560      56A3C43E 
 560      D1498C1F 
 560      A9
 561 0e24 FEC4B615 		.ascii	"\376\304\266\025\312F\326u\010\365Y\243\241\252O\257"
 561      CA46D675 
 561      08F559A3 
 561      A1AA4FAF 
 562 0e34 A59B3737 		.ascii	"\245\23377 \320\212\244Zt\353*\321\255\255D\370JJ\272"
 562      20D08AA4 
 562      5A74EB2A 
 562      D1ADAD44 
 562      F84A4ABA 
 563 0e48 4386C3E2 		.ascii	"C\206\303\342_\225\024\362\305#\374\177\317\007.\007"
 563      5F9514F2 
 563      C523FC7F 
 563      CF072E07 
 564 0e58 924F2AD0 		.ascii	"\222O*\320f\357\221P\240\027j\024\313O+\351\213\237"
 564      66EF9150 
 564      A0176A14 
 564      CB4F2BE9 
 564      8B9F
 565 0e6a 84382C56 		.ascii	"\2048,V=f\226\262.\362*v\311?\021n\377n\373\263\036"
 565      3D6696B2 
 565      2EF22A76 
 565      C93F116E 
 565      FF6EFBB3 
 566 0e7f 5BDB50AD 		.ascii	"[\333P\255\333\206\014\035H\252\341F\315z\234j,#\361"
 566      DB860C1D 
 566      48AAE146 
 566      CD7A9C6A 
 566      2C23F1
 567 0e92 8F245CD0 		.ascii	"\217$\\\3207w[C$R[w\333q\316\234\304\347\343.\267\336"
 567      37775B43 
 567      24525B77 
 567      DB71CE9C 
 567      C4E7E32E 
 568 0ea8 41E7E39C 		.ascii	"A\347\343\234d>\356\262N\030\03430w(\321\316\244\371"
 568      643EEEB2 
 568      4E181C33 
 568      307728D1 
 568      CEA4F9
 569 0ebb B8FD4F29 		.ascii	"\270\375O)\363qN\256\031\230JU/\3504\333\001\207\244"
 569      F3714EAE 
 569      19984A55 
 569      2FE834DB 
 569      0187A4
 570 0ece C036569E 		.ascii	"\3006V\236\232*L\320\027\024\367:I\307\277\317\251\231"
 570      9A2A4CD0 
 570      1714F73A 
ARM GAS  /tmp/ccO2ITyH.s 			page 45


 570      49C7BFCF 
 570      A999
 571 0ee0 88FD5B73 		.ascii	"\210\375[s\273\262\367\263\262\217\335\337=S$\364\033"
 571      BBB2F7B3 
 571      B28FDDDF 
 571      3D5324F4 
 571      1B
 572 0ef1 4C1ABDC6 		.ascii	"L\032\275\306\272Xq\301\237yj'\212\347 \012~Bs\233{"
 572      BA5871C1 
 572      9F796A27 
 572      8AE7200A 
 572      7E42739B 
 573 0f06 5725E163 		.ascii	"W%\341c\314r8Y\360;\333P\301\037\346\022\374!C\301\037"
 573      CC723859 
 573      F03BDB50 
 573      C11FE612 
 573      FC2143C1 
 574 0f1b B62FF8E7 		.ascii	"\266/\370\347\324W\226\343\256]P\374\3066\230\337\252"
 574      D45796E3 
 574      AE5D50FC 
 574      C63698DF 
 574      AA
 575 0f2c 160F33B5 		.ascii	"\026\0173\265x\024k\361\230\223L\201\037\327\326e\265"
 575      78146BF1 
 575      98934C81 
 575      1FD7D665 
 575      B5
 576 0f3d BE2E3592 		.ascii	"\276.5\222SnM\007\364rl\342\036u\355\226\332\274\315"
 576      536E4D07 
 576      F4726CE2 
 576      1E75ED96 
 576      DABCCD
 577 0f50 3CBA6131 		.ascii	"<\272a1\014\237\275\007EB\355\3156\333`~\015\330\246"
 577      0C9FBD07 
 577      4542EDCD 
 577      36DB607E 
 577      0DD8A6
 578 0f63 B19CDBC5 		.ascii	"\261\234\333\305t\357\211\355\305r\317\352\325\345\304"
 578      74EF89ED 
 578      C572CFEA 
 578      D5E5C4
 579 0f72 A3FDA3C4 		.ascii	"\243\375\243\304\241\330u\236\345\320\027\350\347/\370"
 579      A1D8759E 
 579      E5D017E8 
 579      E72FF8
 580 0f81 70CF33D5 		.ascii	"p\3173\325\333\321-TT\013Q[h\313\375\313\312\026j:\024"
 580      DBD12D54 
 580      540B515B 
 580      68CBFDCB 
 580      CA166A3A 
 581 0f96 18AF874B 		.ascii	"\030\257\207K9R\321\302=\012"
 581      3952D1C2 
 581      3D0A
 582 0fa0 ED68DF98 		.ascii	"\355h\337\230\367\360b'j\210\247s\005y\232\326B\337"
 582      F7F06227 
 582      6A88A773 
 582      05799AD6 
ARM GAS  /tmp/ccO2ITyH.s 			page 46


 582      42DF
 583 0fb2 2350C930 		.ascii	"#P\3110\212x\226Q\304\363\250\210\027P\021/b|\231UG"
 583      8A789651 
 583      C4F3A888 
 583      1750112F 
 583      627C9955 
 584 0fc7 3367EB3B 		.ascii	"3g\353;v\3700\3276\337~]\355\230\025s\206-fa\013\016"
 584      76F830D7 
 584      36DF7E5D 
 584      ED981573 
 584      862D6661 
 585 0fdd DD339FB5 		.ascii	"\3353\237\265!F\375\017\252;@\327\014V\332F\324j\363"
 585      2146FD0F 
 585      AA3B40D7 
 585      0C56DA46 
 585      D46AF3
 586 0ff0 0F6335EE 		.ascii	"\017c5\356\300&\036\270\327\014\0104\372\260\253D"
 586      C0261EB8 
 586      D70C0834 
 586      FAB0AB44 
 587 1000 60F57141 		.ascii	"`\365qAn\037.\231\035\304\370\020\306\3071\236\216\025"
 587      6E1F2E99 
 587      1DC4F810 
 587      C6C7319E 
 587      8E15
 588 1012 3713E3D9 		.ascii	"7\023\343\331\030\177\214\361\002\214\227`\274\002\343"
 588      187F8CF1 
 588      028C9760 
 588      BC02E3
 589 1021 9D181FC0 		.ascii	"\235\030\037\300\370$\306\2470\256\303\370:\3067R)\200"
 589      F824C6A7 
 589      30AEC3F8 
 589      3AC63752 
 589      2980
 590 1033 D20BCCF8 		.ascii	"\322\013\314\370\364\370\323K\320V\357\2443\336I\232"
 590      F4F8D34B 
 590      D056EFA4 
 590      33DE499A 
 591 1043 B7DFA19B 		.ascii	"\267\337\241\233\303OZ\204\032\327\222c1\317b\271e\332"
 591      C34F5A84 
 591      1AD79263 
 591      31CF62B9 
 591      65DA
 592 1055 ED4BEF6E 		.ascii	"\355K\357n\032F\353\364\012\252\3659\247nwa\352}\303"
 592      1A46EBF4 
 592      0AAAF539 
 592      A76E7761 
 592      EA7DC3
 593 1068 DA4AFD76 		.ascii	"\332J\375v\266\371+\231\232\325\224\370\306\260_&dr"
 593      B6F92B99 
 593      9AD594F8 
 593      C6B05F26 
 593      6472
 594 107a 7AD1F1FF 		.ascii	"z\321\361\377C7\230\335\303\326x\260e\352%B\015\016"
 594      433798DD 
 594      C3D678B0 
 594      65EA2542 
ARM GAS  /tmp/ccO2ITyH.s 			page 47


 594      0D0E
 595 108c 91D2439D 		.ascii	"\221\322C\235\231\213\375p\212\276\254\231\332\304\215"
 595      998BFD70 
 595      8ABEAC99 
 595      DAC48D
 596 109b 181EBB75 		.ascii	"\030\036\273uj\222\242\224t\271\3774\222\360\260q]\""
 596      6A92A294 
 596      74B9FF34 
 596      92F0B071 
 596      5D22
 597 10ad D93B708A 		.ascii	"\331;p\212\331;p\3166\230_\003v\207\005\273\310\003"
 597      D93B70CE 
 597      36985F03 
 597      768705BB 
 597      C803
 598 10bf 66B133EC 		.ascii	"f\2613\354\036\013\366\235m0-e\017X\260\253<`\026;\303"
 598      1E0BF69D 
 598      6D302D65 
 598      0F58B0AB 
 598      3C60163B 
 599 10d4 1EB16037 		.ascii	"\036\261`7m\203i)\033w\232\001\273\307\003f\261\341"
 599      6D836929 
 599      1B779A01 
 599      BBC70366 
 599      B1E1
 600 10e6 65020B36 		.ascii	"e\002\0136\264\225]0-e\223X\260\321<`~\003\312\214>"
 600      B4955D30 
 600      2D659358 
 600      B0D13C60 
 600      7E03CA8C 
 601 10fb 6C23088A 		.ascii	"l#\010\212\217\260\223j@\3534\324E\342\341\030\217\304"
 601      8FB0936A 
 601      40EB34D4 
 601      45E2E118 
 601      8FC4
 602 110d 7814C6A3 		.ascii	"x\024\306\2431\036\203\361\007\030\177\350\342\350\310"
 602      311E83F1 
 602      07187FE8 
 602      E2E8C8
 603 111c EEB23DCC 		.ascii	"\356\262=\314\207\2558\254\221\305\014\322\264\333\373"
 603      87AD38AC 
 603      91C50CD2 
 603      B4DBFB
 604 112b FEF74FD9 		.ascii	"\376\367O\331\231\\wd\345\256?\021\363\221zw\362d\027"
 604      995C7764 
 604      E5AE3F11 
 604      F3917A77 
 604      F26417
 605 113e DFEEE429 		.ascii	"\337\356\344).\375\326\370=hKHzj\367\272\236\323]\213"
 605      2EFDD6F8 
 605      3D684B48 
 605      7A6AF7BA 
 605      9ED35D8B 
 606 1152 89AC74E2 		.ascii	"\211\254t\342\266p\327+\324\026\316p\021[x\274UJ[\250"
 606      B670D72B 
 606      D416CE70 
 606      115B78BC 
ARM GAS  /tmp/ccO2ITyH.s 			page 48


 606      554A5BA8 
 607 1166 C521F4CD 		.ascii	"\305!\364\315\326\323_\275\027\351\237\235\232~\262"
 607      D6D35FBD 
 607      17E99F9D 
 607      9A7EB2
 608 1175 D976AFD6 		.ascii	"\331v\257\326\026^E\022H\336\306\331\302u{\031\205\277"
 608      165E4512 
 608      48DEC6D9 
 608      C2757B19 
 608      85BF
 609 1187 6E1BCCAF 		.ascii	"n\033\314\257\001[\317\202\335\342\001\263\332%\313"
 609      015BCF82 
 609      DDE201B3 
 609      DA25CB
 610 1196 82DDB50D 		.ascii	"\202\335\265\015\246\245l3\013\366\210\007\314j\227"
 610      A6A56C33 
 610      0BF68807 
 610      CC6A97
 611 11a5 2C0B36FC 		.ascii	",\0136\3741\273`~\243\352\025\222\264#(V\271\210\221"
 611      31BB607E 
 611      A3EA1592 
 611      B4232856 
 611      B98891
 612 11b8 98834DFF 		.ascii	"\230\203M\377c\214\347a\374)\306\0131^\304c\022\246"
 612      638CE761 
 612      FC29C60B 
 612      315EC463 
 612      12A6
 613 11ca BB189330 		.ascii	"\273\030\2230\012\011\236\3228\215\001\223pd\345\331"
 613      0A099ED2 
 613      388D0193 
 613      7064E5D9 
 614 11da 3FAE4F36 		.ascii	"?\256O6\011T\036f\024,e)\030k\233\002?KA\354\376\036"
 614      09541E66 
 614      142C6529 
 614      186B9B02 
 614      3F4B41EC 
 615 11f0 3A39AFBE 		.ascii	":9\257\276\032>Q\217g4-k5J\331\203\247zQ\260\351\266"
 615      1A3E518F 
 615      67342D6B 
 615      354AD983 
 615      A77A51B0 
 616 1206 C1B427A1 		.ascii	"\301\264'\241\215\333\313\200\315\263\015f\266\177m"
 616      8DDBCB80 
 616      CDB30D66 
 616      B67F6D
 617 1215 2AEAC234 		.ascii	"*\352\3024\254\363\3171^\216\361J\214W\261Z \011\213"
 617      ACF3CF31 
 617      5E8EF14A 
 617      8C57B15A 
 617      20098B
 618 1228 1FD3FBAD 		.ascii	"\037\323\373\255\32482\250\011+*\360\342\232\325\355"
 618      D43832A8 
 618      092B2AF0 
 618      E29AD5ED 
 619 1238 44B66E37 		.ascii	"D\266n7?\306\321\341\370\315\265k\332\355\353J\207C"
 619      3FC6D1E1 
ARM GAS  /tmp/ccO2ITyH.s 			page 49


 619      F8CDB56B 
 619      DAEDEB4A 
 619      8743
 620 124a 8161806E 		.ascii	"\201a\200n\033Q\253-\223O\317\326\354\374\336\305\203"
 620      1B51AB2D 
 620      934FCFD6 
 620      ECFCDEC5 
 620      83
 621 125b 67B1BD60 		.ascii	"g\261\275`&u\021(\3307\266\301\374\202\351\207}\355"
 621      26751128 
 621      D837B6C1 
 621      FC82E987 
 621      7DED
 622 126d 2B285EC5 		.ascii	"+(^\3057%\376\211/\317>\302x\007\016\215\352\321i\270"
 622      3725FE89 
 622      2FCF3EC2 
 622      78070E8D 
 622      EAD169B8 
 623 1281 83F104AC 		.ascii	"\203\361\004\254\245u\030\257\307x#O\215]bw\037\236"
 623      A57518AF 
 623      C778234F 
 623      8D5D6277 
 623      1F9E
 624 1293 42162E34 		.ascii	"B\026.4\3665\351\272\372\203G\346\212\023\351\201g\015"
 624      F635E9BA 
 624      FA8347E6 
 624      8A13E981 
 624      670D
 625 12a5 F852FB39 		.ascii	"\370R\3739\333\210\332\032\273M\247\254(\330e\0360\243"
 625      DB88DA1A 
 625      BB4DA7AC 
 625      28D8651E 
 625      30A3
 626 12b7 C6CD8895 		.ascii	"\306\315\210\225\012\364\037(\320\213(\312-(\254\255"
 626      0AF41F28 
 626      D08B28CA 
 626      2D28ACAD 
 627 12c7 DA66732D 		.ascii	"\332fs-\251\331\3207\006\031\244\304\253\205\202\025"
 627      A9D9D037 
 627      0619A4C4 
 627      AB858215 
 628 12d7 9699E0CF 		.ascii	"\226\231\340\317$\004\037\024kq2\316\316;\227Z15\324"
 628      24041F14 
 628      6B7132CE 
 628      CE3B975A 
 628      3135D4
 629 12ea AA66909E 		.ascii	"\252f\220\236>s\027\311O\361\226,\377)\\\365\314)\\"
 629      3E7317C9 
 629      4FF1962C 
 629      FF295CF5 
 629      CC295C
 630 12fd 77706DF6 		.ascii	"wpm\366.=s\013\231>\212\361I\214Oa\\\207\3616\0361\334"
 630      2E3D730B 
 630      993E8AF1 
 630      498C4F61 
 630      5C87F136 
 631 1314 645FF31E 		.ascii	"d_\363\036\3758!\373Z\243_\363~x`~[<\272\202\3525t/"
ARM GAS  /tmp/ccO2ITyH.s 			page 50


 631      FD3821FB 
 631      5AA35FF3 
 631      7E78607E 
 631      5B3CBA82 
 632 132c B601B572 		.ascii	"\266\001\265r\235\366\303\016:\007F\216\372\202\336"
 632      9DF6C30E 
 632      3A07468E 
 632      FA82DE
 633 133b 8507CEA2 		.ascii	"\205\007\316\242w\231qy\035=\266\223\326\322\014=\\"
 633      77997179 
 633      1D3DB693 
 633      D6D20C3D 
 633      5C
 634 134c CA2E414B 		.ascii	"\312.AK\335\314\377\234\332^\305\232g\033\253\255U\215"
 634      DDCCFF9C 
 634      DA5EC59A 
 634      671BABAD 
 634      558D
 635 135e 5F636AFC 		.ascii	"_cj\374\007\254\361\033X\343\265\250\340;1\336\215\361"
 635      07ACF11B 
 635      58E3B5A8 
 635      E03B31DE 
 635      8DF1
 636 1370 D73CB57C 		.ascii	"\327<\265|\345'\236\305Us\356\300*\221\272\333\373\320"
 636      E5279EC5 
 636      5573EEC0 
 636      2A91BADB 
 636      FBD0
 637 1382 DD5EFF78 		.ascii	"\335^\377xJw[?\313Z\213Y\016\352]\356\233o\371i*\307"
 637      4A775B3F 
 637      CB5A8B59 
 637      0EEA5DEE 
 637      9B6FF969 
 638 1398 80E14745 		.ascii	"\200\341GE\033\256\2406\034\210\0036J[cw\277g\224+("
 638      1BAEA036 
 638      1C880336 
 638      4A5B6377 
 638      BF67942B 
 639 13ad EE724936 		.ascii	"\356rI6\341\264\332p\377\322\216\244s\2544\207\261%"
 639      E1B4DA70 
 639      FFD28EA4 
 639      73AC3487 
 639      B125
 640 13bf D5CA71B6 		.ascii	"\325\312q\266\267>\314\303\215\205n?<\257\321\355Sz"
 640      B73ECCC3 
 640      8D856E3F 
 640      3CAFD1ED 
 640      537A
 641 13d1 389BBA3D 		.ascii	"8\233\272=\376VL\224\337KWw\377_\321\303\245\334\375"
 641      FE564C94 
 641      DF4B5777 
 641      FF5FD1C3 
 641      A5DCFD
 642 13e4 DFDE4ABD 		.ascii	"\337\336J\275\0172\256\365!t\247\016\2432\037\305\370"
 642      0F32AEF5 
 642      2174A70E 
 642      A3321FC5 
ARM GAS  /tmp/ccO2ITyH.s 			page 51


 642      F8
 643 13f5 18C62731 		.ascii	"\030\306'1>\305\243\336{\023\202|V\230-\307\256\327"
 643      3EC5A3DE 
 643      7B13827C 
 643      56982DC7 
 643      AED7
 644 1407 1DBAF85D 		.ascii	"\035\272\370]\353\305\304w\221\0375\374u\3500Q\367\322"
 644      EBC5C477 
 644      911F35FC 
 644      75E83051 
 644      F7D2
 645 1419 ABD3E294 		.ascii	"\253\323\342\224E\227\346\245W\303\261v\252\265\303"
 645      4597E6A5 
 645      57C3B176 
 645      AAB5C3
 646 1428 59576E3C 		.ascii	"YWn<E[\313yl-\247~f\274\204e\271\345\340\242\276\245"
 646      455BCB79 
 646      6C2DA77E 
 646      66BC8465 
 646      B9E5E0A2 
 647 143e ACA6AFCE 		.ascii	"\254\246\257\316_\344j+5\333\227p\237\375\246k\2507"
 647      5FE46A2B 
 647      35DB9770 
 647      9FFDA66B 
 647      A837
 648 1450 7F667CF6 		.ascii	"\177f|\366\233\3461p\220\260\275\\\325S9\261\022\251"
 648      9BE63170 
 648      90B0BD5C 
 648      D55339B1 
 648      12A9
 649 1462 BCCA45E5 		.ascii	"\274\312E\345\344\355)\316~\343_\274^{\343\354\037\226"
 649      E4ED29CE 
 649      7EE35FBC 
 649      5E7BE3EC 
 649      1F96
 650 1474 E184F10D 		.ascii	"\341\204\361\015\027\256L=\241\367 \\\272\265k\227v"
 650      17AE4C3D 
 650      A1F7205C 
 650      BAB56B97 
 650      76
 651 1485 EDDAE54B 		.ascii	"\355\332\345K\334(k\327fU\363\203\313\342\204%\345\220"
 651      DC286BD7 
 651      6655F383 
 651      CBE28425 
 651      E590
 652 1497 A3F8F71B 		.ascii	"\243\370\367\033\264\\\256\303a\256\273\030\247d\261"
 652      B45CAEC3 
 652      61AEBB18 
 652      A764B1
 653 14a6 A40AB871 		.ascii	"\244\012\270q\275\361\254+\007Z\2433h\365\3727\241\316"
 653      BDF1AC2B 
 653      075AA333 
 653      68F5FA37 
 653      A1CE
 654 14b8 8C9A7B56 		.ascii	"\214\232{VlN\373\011l\336e\331\234k\233M?\313f\352s"
 654      6C4EFB09 
 654      6CDE65D9 
ARM GAS  /tmp/ccO2ITyH.s 			page 52


 654      9C6B9B4D 
 654      3FCB66EA 
 655 14cd 97565BB4 		.ascii	"\227V[\264v\331m\301\342t\033\347R5\260\266\374+\324"
 655      76D96DC1 
 655      E2741BE7 
 655      5235B0B6 
 655      FC2BD4
 656 14e0 BD142CA5 		.ascii	"\275\024,\245:L\257\261,U\032\260\304\305\302H\267n"
 656      3A4CAFB1 
 656      2C551AB0 
 656      C4C5C248 
 656      B76E
 657 14f2 FD64A76D 		.ascii	"\375d\247m6\374\202\366\223\360\317\257\2415\277\203"
 657      36FC82F6 
 657      93F0CFAF 
 657      A135BF83 
 658 1502 F1238C47 		.ascii	"\361#\214G\270y\226\002YM\331\214\232r\321~\2030\372"
 658      B8799602 
 658      594DD98C 
 658      9A72D17E 
 658      8330FA
 659 1515 B00616DC 		.ascii	"\260\006\026\334U\354\204.\363t6\347\022$\305E\314l"
 659      55EC842E 
 659      F37436E7 
 659      1224C545 
 659      CC6C
 660 1527 78A4A2FB 		.ascii	"x\244\242\373Zg}~)|\"\313\023\260[\372\216\324.\205"
 660      5A677D7E 
 660      297C22CB 
 660      13B05BFA 
 660      8ED42E85 
 661 153b 815E1F9F 		.ascii	"\201^\037\237\253s=kX\234R\030\315,O\201\261\230H\313"
 661      AB733D6B 
 661      589C5218 
 661      CD2C4F81 
 661      B19848CB 
 662 154f 9284E329 		.ascii	"\222\204\343)2*\024\375J\230O\364\346\310\371>\335\225"
 662      322A14FD 
 662      4A984FF4 
 662      E6C8F93E 
 662      DD95
 663 1561 C33CCC33 		.ascii	"\303<\3143)\374\275\347\226X^\260C\255\253{x\373\306"
 663      29FCBDE7 
 663      96585EB0 
 663      43ADAB7B 
 663      78FBC6
 664 1574 CFA7AE9C 		.ascii	"\317\247\256\234C;T1\331F\313\\\347\010\236X\362k\334"
 664      433B5431 
 664      D946CB5C 
 664      E7089E58 
 664      F26BDC
 665 1587 4136C14D 		.ascii	"A6\301ML\364\367:!\361\003U\237\236\225A\317TD\240\233"
 665      4CF4F73A 
 665      21F10355 
 665      9F9E9541 
 665      CF5444A0 
 666 159c 49B65ED0 		.ascii	"I\266^\320\331zAk\353\341\253\334\240|\350\3260H\371"
ARM GAS  /tmp/ccO2ITyH.s 			page 53


 666      D97A416B 
 666      EBE1ABDC 
 666      A07CE8D6 
 666      3048F9
 667 15af ABD0A83C 		.ascii	"\253\320\250<fz2\336\235\322\221\320\254\324\305\273"
 667      667A32DE 
 667      9DD291D0 
 667      ACD4C5BB 
 668 15bf D7C705C6 		.ascii	"\327\307\005\306\357\2767R\361\273\247\273\211'\361"
 668      EFBE3752 
 668      F1BBA7BB 
 668      8927F1
 669 15ce E089947E 		.ascii	"\340\211\224~\267\026H\022*\237$Yf\271u\375tU\320OS"
 669      B7164812 
 669      2A9F2459 
 669      66B975FD 
 669      7455D04F 
 670 15e3 53F7D2D5 		.ascii	"S\367\322\325w\031_\020\306 x\350+\311j\341\013j\332"
 670      77195F10 
 670      C62078E8 
 670      2BC96AE1 
 670      0B6ADA
 671 15f6 90166EF5 		.ascii	"\220\026n\365U\305\357>\216M`l\234\276\306\371\335k"
 671      55C5EF3E 
 671      8E4D606C 
 671      9CBEC6F9 
 671      DD6B
 672 1608 3F57F649 		.ascii	"?W\366I\354E\270\211<p\026~t\315\345d7\336H\312\277"
 672      EC45B889 
 672      3C70167E 
 672      74CDE564 
 672      37DE48CA 
 673 161d 50B1E631 		.ascii	"P\261\3461NHM\345\337\351\231\277\013\260\266\246?\231"
 673      4E484DE5 
 673      DFE999BF 
 673      0BB0B6A6 
 673      3F99
 674 162f BAB6B438 		.ascii	"\272\266\2648\2442\026\351\253\352 =\364w\021We}C\367"
 674      A43216E9 
 674      ABEA203D 
 674      F4771157 
 674      657D43F7 
 675 1643 8FD301F3 		.ascii	"\217\323\001\363l$`\221\015\331j\301\216\324~Ik~\233"
 675      6C246091 
 675      0DD96AC1 
 675      8ED47E49 
 675      6B7E9B
 676 1656 98A8F945 		.ascii	"\230\250\371E6j^[UGk\231\377l\230\253\247-\345I=\232"
 676      366A5E5B 
 676      55476B99 
 676      FF6C98AB 
 676      A72DE549 
 677 166c FF3C881D 		.ascii	"\377<\210\035g\301>\265\015\366\262\006\354\333Q\357"
 677      67C13EB5 
 677      0DF6B206 
 677      ECDB51EF 
 678 167c 2B3393F4 		.ascii	"+3\223\3644\370E<\202\263\320\242S\211\243\345\203\342"
ARM GAS  /tmp/ccO2ITyH.s 			page 54


 678      34F8453C 
 678      82B3D0A2 
 678      5389A3E5 
 678      83E2
 679 168e 377AB1F1 		.ascii	"7z\261\361\366\243\012\330u\366\234\372e<\224Y\274_"
 679      F6A30AD8 
 679      75F69CFA 
 679      653C9459 
 679      BC5F
 680 16a0 7083055B 		.ascii	"p\203\005[c\033LK\331\217,\330F\0360\213\215\376wX\260"
 680      631B4C4B 
 680      D98F2CD8 
 680      461E308B 
 680      8DFE7758 
 681 16b5 2F6C8369 		.ascii	"/l\203i)\273\227\364\346\203\346@\376$k\275\305\315"
 681      29BB97F4 
 681      E683E640 
 681      FE246BBD 
 681      C5CD
 682 16c7 F86FBB79 		.ascii	"\370o\273y\012\367\233q\"\307f\355J\303\24189\343_\022"
 682      0AF79B71 
 682      22C766ED 
 682      4AC3A138 
 682      39E35F12 
 683 16db 0EEAD1E4 		.ascii	"\016\352\321\3448\234\234b\336\334\350\303\032\0100"
 683      389C9C62 
 683      DEDCE8C3 
 683      1A0830
 684 16ea C96EE2B8 		.ascii	"\311n\342\270,q\023\217j)\306\3130^\201q5\306\2531^"
 684      2C71138F 
 684      6A29C6CB 
 684      305E8171 
 684      35C6AB31 
 685 16ff 83F13A8C 		.ascii	"\203\361:\214\327c\274\021\343\315\030o\345\361\306"
 685      D763BC11 
 685      E3CD186F 
 685      E5F1C6
 686 170e 3E658574 		.ascii	">e\205t\304\266\241\325\324\020\364m\337]P\377\235\203"
 686      C4B6A1D5 
 686      D410F46D 
 686      DF5D50FF 
 686      9D83
 687 1720 CEE09FE4 		.ascii	"\316\340\237\344A4Rmc1\315b\304T\205b\232\203\254\316"
 687      4134526D 
 687      6331CD62 
 687      C4548562 
 687      9A83ACCE 
 688 1734 C5F8138C 		.ascii	"\305\370\023\214\347c\274\215\207\371i\356d\277O\021"
 688      E763BC8D 
 688      87F969EE 
 688      64BF4F11 
 689 1744 48FCBB32 		.ascii	"H\374\2732\243\243q\267%\341\274\256\033P\234A\342R"
 689      A3A371B7 
 689      25E1BCAE 
 689      1B509C41 
 689      E252
 690 1756 6DA6CE20 		.ascii	"m\246\316 \301\226\204\333\370\3348\267\231O\207\024"
ARM GAS  /tmp/ccO2ITyH.s 			page 55


 690      C19684DB 
 690      F8DC38B7 
 690      994F8714 
 691 1766 28CEE0C3 		.ascii	"(\316\340\303PwZ|P\374\322-Yf\373\224\311\266\232\372"
 691      50775A7C 
 691      50FCD22D 
 691      5966FB94 
 691      C9B69AFA 
 692 177a 90B4E7BD 		.ascii	"\220\264\347\275\227\242<\205\033\364!\307\311+N\366"
 692      97A23C85 
 692      1BF421C7 
 692      C92B4EF6 
 693 178a 694D3D37 		.ascii	"iM=7A\233Kw\364\034\376\274#\331\211\234S\027\273\021"
 693      419B4B77 
 693      F41CFEBC 
 693      23D9899C 
 693      5317BB11 
 694 179e DA215F87 		.ascii	"\332!_\207\221\265n4C0\315\244\276O?\232!\275\274^\336"
 694      91B56E34 
 694      4330CDA4 
 694      BE4F3F9A 
 694      21BDBC5E 
 695 17b3 F1EFCA3C 		.ascii	"\361\357\312<'\247\313\025\363\250\245\015\021\342]"
 695      27A7CB15 
 695      F3A8A50D 
 695      11E25D
 696 17c2 F8F88F0F 		.ascii	"\370\370\217\017>\255\274\372\217}\370\232\326\251"
 696      3EADBCFA 
 696      8F7DF89A 
 696      D6A9
 697 17d0 37166870 		.ascii	"7\026hp\202\342Q\254\220c\372n\374.=\025\377\030W7\376"
 697      82E251AC 
 697      9063FA6E 
 697      FC2E3D15 
 697      FF185737 
 698 17e5 B0765E63 		.ascii	"\260v^c\317\356\377\2625\327\331\375\247\220\312\323"
 698      CFEEFFB2 
 698      35D7D9FD 
 698      A790CAD3 
 699 17f5 49CE06A5 		.ascii	"I\316\006\245\3624\027\225\207j\025\337\213L\\\2503"
 699      F2341795 
 699      876A15DF 
 699      8B4C5CA8 
 699      33
 700 1806 16A71BEB 		.ascii	"\026\247\033\353n\250\347`\336E\260\271\266\301\374"
 700      6EA8E760 
 700      DE45B0B9 
 700      B6C1FC
 701 1815 46600D08 		.ascii	"F`\015\0106\334\315\001\226\372x{:D\376\233m0\003\312"
 701      36DCCD01 
 701      96FA787B 
 701      3A44FE9B 
 701      6D3003CA 
 702 1829 1A3BBCBF 		.ascii	"\032;\274\277\3101ca\373\270\373\233\313\316|\252\274"
 702      C8316361 
 702      FBB8FB9B 
 702      CBCE7CAA 
ARM GAS  /tmp/ccO2ITyH.s 			page 56


 702      BC
 703 183a 25740547 		.ascii	"%t\005GT\007uZ\337\250W?\004\316\271\223\177\260\335"
 703      5407755A 
 703      DFA8573F 
 703      04CEB993 
 703      7FB0DD
 704 184d CAB75872 		.ascii	"\312\267Xr\012\341Z\034\237\016\355\367\231\224\263"
 704      0AE15A1C 
 704      9F0EEDF7 
 704      9994B3
 705 185c 5E5602FE 		.ascii	"^V\002\376\301J\300W\3346&\363X\266\316\332f\313\246"
 705      C14AC057 
 705      DC3626F3 
 705      58B6CEDA 
 705      66CBA6
 706 186f CE584DE4 		.ascii	"\316XM\344\325[\261d2_\331(\226o\263,_\344a\371\247"
 706      D55BB164 
 706      325FD928 
 706      966FB32C 
 706      5FE461F9 
 707 1884 1CA86EC5 		.ascii	"\034\250n\305r\203\025\313&s\227\215b\371\021\313\362"
 707      728315CB 
 707      2673978D 
 707      62F911CB 
 707      F2
 708 1895 3F6DB3EC 		.ascii	"?m\263\354\027\264\237\304\214\331\031tM\316b|\016\343"
 708      17B49FC4 
 708      8CD91974 
 708      4DCE627C 
 708      0EE3
 709 18a7 F3185FC0 		.ascii	"\363\030_\300\370\032\306\2670~\310\343\276\234t'\315"
 709      F81AC6B7 
 709      307EC8E3 
 709      BE9C7427 
 709      CD
 710 18b8 A41D6BA4 		.ascii	"\244\035k\244\241\226c\217\210w\315\273\032rt\301\375"
 710      A196638F 
 710      8877CDBB 
 710      1A7274C1 
 710      FD
 711 18c9 A770505C 		.ascii	"\247pP\\\351!\035\352\342\247l.\206H\302z\3142\332\243"
 711      E9211DEA 
 711      E2A76C2E 
 711      8648C27A 
 711      CC32DAA3 
 712 18dd EBAAD656 		.ascii	"\353\252\326V\342\021\243$\235cA\204\363,a\243y\230"
 712      E211A324 
 712      9D634184 
 712      F32C61A3 
 712      7998
 713 18ef D88987A2 		.ascii	"\330\211\207\242?(\216E\372k\215\351\267\232\2029\212"
 713      3F288E45 
 713      FA6B8DE9 
 713      B79A8239 
 713      8A
 714 1900 59C6EBE9 		.ascii	"Y\306\353\351\277E\246`\306sQ_\257\276\014\362\201\207"
 714      BF45A660 
ARM GAS  /tmp/ccO2ITyH.s 			page 57


 714      C673515F 
 714      AFBE0CF2 
 714      8187
 715 1912 786E17E3 		.ascii	"xn\027\343\200\215\352hc\017\360<}\372b\3115\333X~\015"
 715      808DEA68 
 715      630FF03C 
 715      7DFA62C9 
 715      35DB587E 
 716 1927 D6F8EDEA 		.ascii	"\326\370\355\352+A\364-\236\373<x\026C\347Id\313\211"
 716      2B41F42D 
 716      9EFB3C78 
 716      1643E749 
 716      64CB89
 717 193a 9D971677 		.ascii	"\235\227\026w*/-\316\360\220\342G\266\371\027\364\\"
 717      2A2F2DCE 
 717      F090E247 
 717      B6F917F4 
 717      5C
 718 194b 9230A18D 		.ascii	"\2220\241\215].4R\251;\266\340\\k\365}\020J\330\014"
 718      5D2E3452 
 718      A93BB6E0 
 718      5C6BF57D 
 718      104AD80C 
 719 195f 1E44FED1 		.ascii	"\036D\376\321MB\233\202\342D\017\236\214\347!\306\340"
 719      4D429B82 
 719      E2440F9E 
 719      8CE721C6 
 719      E0
 720 1970 238CA762 		.ascii	"#\214\247b<\035\343*\017\207y z\245|$a~\033\265\275"
 720      3C1DE32A 
 720      0F877920 
 720      7AA57C24 
 720      617E1BB5 
 721 1985 D9542F63 		.ascii	"\331T/cRG3\244\216AR\337gI\222\204\317\261<;\346H+\354"
 721      524733A4 
 721      8E4152DF 
 721      67499284 
 721      CFB13C3B 
 722 199d F11FDF7F 		.ascii	"\361\037\337\177\366\3460yj{\356S\266c\367\334\022\220"
 722      F6E63079 
 722      6A7BEE53 
 722      B663F7DC 
 722      1290
 723 19af E421076C 		.ascii	"\344!\007lW\3534\206\363\200\355\005\036\335\001\333"
 723      57EB3486 
 723      F380ED05 
 723      1EDD01DB 
 724 19bf 37E901DB 		.ascii	"7\351\001\333$\335\242A+\347`oj\223|\300vm\033\303\003"
 724      24DDA241 
 724      2BE7606F 
 724      6A937CC0 
 724      766D1BC3 
 725 19d4 B6F7B6D1 		.ascii	"\266\367\266\321\036\260\255H\301\362\310\354\004q\320"
 725      1EB0AD48 
 725      C1F2C8EC 
 725      0471D0
 726 19e3 C1A3C83F 		.ascii	"\301\243\310?\363X\037\231}\314z\356\314\3745\231XC"
ARM GAS  /tmp/ccO2ITyH.s 			page 58


 726      F3581F99 
 726      7DCC7AEE 
 726      CCFC3599 
 726      5843
 727 19f5 2D79ED8D 		.ascii	"-y\355\215\367%\226\037\326\\Q^\354Y\216\346\364\303"
 727      F725961F 
 727      D65C515E 
 727      EC598EE6 
 727      F4C3
 728 1a07 9FA736A7 		.ascii	"\237\2476\247\0068`v\360\214\306j\004\231e\027D\022"
 728      06386076 
 728      F08CC66A 
 728      04996517 
 728      4412
 729 1a19 16629635 		.ascii	"\026b\2265z\233\274\211._\257\341\260\312\3440{\372"
 729      7A9BBC89 
 729      2E5FAFE1 
 729      B0CAE430 
 729      7BFA
 730 1a2b 66ABFACA 		.ascii	"f\253\372\312\337\2128\246R\350k\254\370R\233\345}t"
 730      DF8A38A6 
 730      52E86BAC 
 730      F8529BE5 
 730      7D74
 731 1a3d B71D5DC0 		.ascii	"\267\035]\300\336\240\007\263iG\017\306\337^\235\206"
 731      DEA007B3 
 731      69470FC6 
 731      DF5E9D86 
 732 1a4d 7BB1BEB2 		.ascii	"{\261\276\262\215\247id\261o(q\024l\017\017\230\305"
 732      8DA76964 
 732      B16F2871 
 732      146C0F0F 
 732      98C5
 733 1a5f 2CE45116 		.ascii	",\344Q\026\354\033\333`Z\312\216\263`'y\300,f!\277U"
 733      EC1BDB60 
 733      5ACA8EB3 
 733      602779C0 
 733      2C6621BF 
 734 1a74 BAB3469E 		.ascii	"\272\263F\236\231^\3531_\365\241\332j\226s\247\207q"
 734      995EEB31 
 734      5FF5A1DA 
 734      6A9673A7 
 734      8771
 735 1a86 D0F8CE58 		.ascii	"\320\370\316X\237B\035\240\355\350\023\234\327\265\001"
 735      9F421DA0 
 735      EDE8139C 
 735      D7B501
 736 1a95 5DD18430 		.ascii	"]\321\2040\263\242\377\3561?\247T\367\033\370\270\266"
 736      B3A2FFEE 
 736      313FA754 
 736      F71BF8B8 
 736      B6
 737 1aa6 05ACADAD 		.ascii	"\005\254\255\255\323\225\232\367\032\353y\340\374\006"
 737      D3959AF7 
 737      1AEB79E0 
 737      FC06
 738 1ab4 F565F461 		.ascii	"\365e\364a\033tP\\\207\206\257\006;\301\015\030o\302"
ARM GAS  /tmp/ccO2ITyH.s 			page 59


 738      1B74505C 
 738      8786AF06 
 738      3BC10D18 
 738      6FC2
 739 1ac6 780BC65B 		.ascii	"x\013\306[1\376\022\343\2570\336\303\366J\377oP%\341"
 739      31FE12E3 
 739      AF30DEC3 
 739      F64AFF6F 
 739      5025E1
 740 1ad9 D1CF757D 		.ascii	"\321\317u}\235\3260\245j\2072vv\023e\030\340\362[\334"
 740      9DD630A5 
 740      6A873276 
 740      76136518 
 740      E0F25BDC 
 741 1aed 83CF508B 		.ascii	"\203\317P\213{\000\215\345\310\247\365\036R\265G\267"
 741      7B008DE5 
 741      C8A7F51E 
 741      52B547B7 
 742 1afd B7F65FC8 		.ascii	"\267\366_\310\357\244\247y\3705}E<\316\357\324\366\354"
 742      EFA4A779 
 742      F8357D45 
 742      3CCEEFD4 
 742      F6EC
 743 1b0f 7F9C4EB7 		.ascii	"\177\234N\267\372\307\230#\036\273\377\030sT\371\017"
 743      FAC79823 
 743      1EBBFF18 
 743      7354F90F 
 744 1b1f BEB88956 		.ascii	"\276\270\211Vn\232\307\331\230\241g\303\360\315O\323"
 744      6E9AC7D9 
 744      98A167C3 
 744      F0CD4FD3 
 745 1b2f B3BB484B 		.ascii	"\263\273HK\224\035nJ\233$\314\346B{\313\014\315hll\364"
 745      941D6E4A 
 745      9B24CCE6 
 745      427BCB0C 
 745      CD686C6C 
 746 1b44 EF0271D0 		.ascii	"\357\002q\320\247\023\332pj\321\275\321\312[\355\247"
 746      A713DA70 
 746      6AD1BDD1 
 746      CA5BEDA7 
 747 1b54 501DE6EA 		.ascii	"P\035\346\352\324!%\020\016N\365\375\346\254\263;D\034"
 747      D4212510 
 747      0E4EF5FD 
 747      E6ACB33B 
 747      441C
 748 1b66 E49D49DD 		.ascii	"\344\235I\335s\216\030\036[qv\207\244\354\024\236\214"
 748      738E181E 
 748      5B717687 
 748      A4EC149E 
 748      8C
 749 1b77 8BCA2370 		.ascii	"\213\312#p7\331\231\306\215h\000p\345YeQ\231\302U\332"
 749      37D999C6 
 749      8D680070 
 749      E5596551 
 749      99C255DA 
 750 1b8b 86F36BE0 		.ascii	"\206\363k\340Vi\341698\340,^\240Z\243\205\223y\250\263"
 750      5669E136 
ARM GAS  /tmp/ccO2ITyH.s 			page 60


 750      3938E02C 
 750      5EA05AA3 
 750      859379A8 
 751 1ba0 78856A9D 		.ascii	"x\205j\235\026n\030\017\234\305KT\353Y8IX\206\012a\007"
 751      166E180F 
 751      9CC54B54 
 751      EB593849 
 751      58860A61 
 752 1bb5 4E4BDD46 		.ascii	"NK\335F-\\5\017\234Q\207l\364a5/(\236E\323t\016\315"
 752      2D5C350F 
 752      9C51876C 
 752      F461352F 
 752      289E45D3 
 753 1bcc CE798C2F 		.ascii	"\316y\214/`\374\017\214/b|\011\343\357x\306@\337\262"
 753      60FC0F8C 
 753      2F627C09 
 753      E3EF78C6 
 753      40DFB2
 754 1bdf 63A075FA 		.ascii	"c\240u\372&jDv\205\201\024\214\311>\306,F\035\307\305"
 754      266A4476 
 754      8581148C 
 754      C93EC62C 
 754      461DC7C5 
 755 1bf3 A8133877 		.ascii	"\250\0238w3\022\311\373\004\343e\030\357\307\3700\306"
 755      3312C9FB 
 755      04E36518 
 755      EFC7F830 
 755      C6
 756 1c04 C7313EC9 		.ascii	"\3071>\311C\374!w\232\246@\315\012\324f]\033\217\257"
 756      43FC2177 
 756      9AA640CD 
 756      0AD4665D 
 756      1B8FAF
 757 1c17 40ED5A2B 		.ascii	"@\355Z+N\036.w\247\313*\360\004\316l\3575]\021\332\313"
 757      4E1E2E77 
 757      A7CB2AF0 
 757      04CE6CEF 
 757      355D11DA 
 758 1c2c 6C47BA49 		.ascii	"lG\272IV\240\216c\266\023.\353l\307\231lk\351\012\024"
 758      56A08E63 
 758      B6132EEB 
 758      6CC7996C 
 758      6BE90A14 
 759 1c40 DDC27D10 		.ascii	"\335\302}\020\3512\317\210\3539J\306\3734\343!\\*;\234"
 759      E932CF88 
 759      EB394AC6 
 759      FB34E321 
 759      5C2A3B9C 
 760 1c54 22A3220D 		.ascii	"\"\243\"\015e\373\223v\351j\257\365\322\325U\217\321"
 760      65FB9376 
 760      E96AAFF5 
 760      D2D5558F 
 760      D1
 761 1c65 D2D5A1CA 		.ascii	"\322\325\241\312\335\240\324\362\003\362\207\0106\376"
 761      DDA0D4F2 
 761      03F28708 
 761      36FE
ARM GAS  /tmp/ccO2ITyH.s 			page 61


 762 1c73 D7F1B6C7 		.ascii	"\327\361\266\307`\371JW9\307\015+G\236\022\322U\313"
 762      60F94A57 
 762      39C70D2B 
 762      479E12D2 
 762      55CB
 763 1c85 2D8F65B5 		.ascii	"-\217e\265(\334\016\223\257\216\034\331BT\377\332X\223"
 763      28DC0E93 
 763      AF8E1CD9 
 763      4254FFDA 
 763      5893
 764 1c97 CD88DD3B 		.ascii	"\315\210\335;\206\354>\254$\373!\206\305\032\032\266"
 764      86EC3EAC 
 764      24FB2186 
 764      C51A1AB6 
 765 1ca7 40D76463 		.ascii	"@\327dc\275\356\201\236a\262h\251\341^\260\275~z\331"
 765      BDEE819E 
 765      61B268A9 
 765      E15EB0BD 
 765      7E7AD9
 766 1cba 58400F0B 		.ascii	"X@\017\013\273S\370\240\270\013\005t\337T@\354\312\351"
 766      BB53F8A0 
 766      B80B0574 
 766      DF5440EC 
 766      CAE9
 767 1ccc 41BD5CCD 		.ascii	"A\275\\\315\263\261\352\236\264\340j\236\315d\3015("
 767      B3B1EA9E 
 767      B4E06A9E 
 767      CD64C135 
 767      28
 768 1cdd 7E9D2223 		.ascii	"~\235\"#\273\340\252\327\332\373\326\3258\324\233T\215"
 768      BBE0AAD7 
 768      DAFBD6D5 
 768      38D49B54 
 768      8D
 769 1cee CBEB6287 		.ascii	"\313\353b\207k\323\307\015\255khx\326\306\314\371\337"
 769      6BD3C70D 
 769      AD6B6878 
 769      D6C6CCF9 
 769      DF
 770 1cff BC0635A8 		.ascii	"\274\0065\250\253\221\037\215jd\230\334\240\257\221"
 770      AB911F8D 
 770      6A6498DC 
 770      A0AF91
 771 1d0e 515ECB1A 		.ascii	"Q^\313\032\211\253\354\012\334\237H\247\341\315s)\004"
 771      89ABEC0A 
 771      DC9F48A7 
 771      E1CD7329 
 771      04
 772 1d1f BE97CC2A 		.ascii	"\276\227\314*h\354\035\023V\255\224u\254\021\253\246"
 772      68EC1D13 
 772      56AD9475 
 772      AC11ABA6 
 773 1d2f 8BCB8B1D 		.ascii	"\213\313\213\035\311\253\002\222 \377\017C\345\034\037"
 773      C9AB0292 
 773      20FF0F43 
 773      E51C1F
 774 1d3e D289E203 		.ascii	"\322\211\342\003kQ\250\3261aT\277H\221\2155\2527\203"
ARM GAS  /tmp/ccO2ITyH.s 			page 62


 774      6B51A8D6 
 774      316154BF 
 774      48918D35 
 774      AA3783
 775 1d51 6DD53735 		.ascii	"m\32575>@z\230l\232=Zq.\014u\214\311e\244c\023\014u"
 775      3E407A98 
 775      6C9A3D5A 
 775      712E0C75 
 775      8CC965A4 
 776 1d69 6CF32EFB 		.ascii	"l\363.\373\202\237f!x\335\270\225\260i\0063\323k\370"
 776      829F6621 
 776      78DDB895 
 776      B0690633 
 776      D36BF8
 777 1d7c 7FC2F4A0 		.ascii	"\177\302\364\240\322T\0257\311\250\342\206Q\263\313"
 777      D2541537 
 777      C9A8E286 
 777      51B3CB
 778 1d8b 56DC54AE 		.ascii	"V\334T\256\212\333B\262\021z$a\036\002\233gC\252\225"
 778      8ADB42B2 
 778      117A2461 
 778      1E029B67 
 778      43AA95
 779 1d9e 6CF5FFD9 		.ascii	"l\365\377\331\232\322+\011\213\364\331t\207\262\"Wj"
 779      9AD22B09 
 779      8BF4D974 
 779      87B22257 
 779      6A
 780 1daf 6995E97D 		.ascii	"i\225\351}\324\012_\245\317g\243\302\315JS\344[e\330"
 780      D40A5FA5 
 780      CF67A3C2 
 780      CD4A53E4 
 780      5B65D8
 781 1dc2 D2568FF9 		.ascii	"\322V\217\371@\351\033^\365\352\353\\2\257\363\3178"
 781      40E91B5E 
 781      F5EAEB5C 
 781      32AFF3CF 
 781      38
 782 1dd3 ECCA06E3 		.ascii	"\354\312\006\343\306T\245\257\223\205\234ve5\332\025"
 782      C654A5AF 
 782      93859C76 
 782      6535DA15 
 783 1de3 BA00609E 		.ascii	"\272\000`\236K!p\261!\267\307\306\250=\341\253v\372"
 783      4B2170B1 
 783      21B7C7C6 
 783      A83DE1AB 
 783      76FA
 784 1df5 C1651CDC 		.ascii	"\301e\034\334~\315i:\226rq\253\257\333\245\326u\273"
 784      7ECD693A 
 784      967271AB 
 784      AFDBA5D6 
 784      75BB
 785 1e07 C290DBA9 		.ascii	"\302\220\333\251{\224\306L9\000\347\304\230\306\031"
 785      7B94C64C 
 785      3900E7C4 
 785      98C619
 786 1e16 7A1A5735 		.ascii	"z\032W5\212\306U\3264\2566\240\361R\354\304\236\204"
ARM GAS  /tmp/ccO2ITyH.s 			page 63


 786      8AC655D6 
 786      34AE36A0 
 786      F152ECC4 
 786      9E84
 787 1e28 2B465F77 		.ascii	"+F_w\220\204\357\215\311D\027\001\247\231\036\342\003"
 787      9084EF8D 
 787      C9441701 
 787      A7991EE2 
 787      03
 788 1e39 EB4CA97C 		.ascii	"\353L\251|\225%rY\345\310\026N\272K@\260\310\245PY\243"
 788      95257259 
 788      E5C8164E 
 788      BA4B40B0 
 788      C8A55059 
 789 1e4e A5F20DD1 		.ascii	"\245\362\015\3211\305\211\264\326\215\253\373\346\342"
 789      31C589B4 
 789      D68DABFB 
 789      E6E2
 790 1e5c 17AE69F2 		.ascii	"\027\256i\362\027#\344\206\206\277\352\325\307b\017"
 790      1723E486 
 790      86BFEAD5 
 790      C7620F
 791 1e6b C216BDF6 		.ascii	"\302\026\275\366\234cw=){\373\225\357\274\313\260\023"
 791      9C63773D 
 791      297BFB95 
 791      EFBCCBB0 
 791      13
 792 1e7c 6F1C7C7A 		.ascii	"o\034|z\035N\003}\351%\343\376U\317\330\\\207U&\035"
 792      1D4E037D 
 792      E925E3FE 
 792      55CFD85C 
 792      8755261D 
 793 1e90 575C256B 		.ascii	"W\\%k\241\333\021c\243\016#(v\325\315$u\325\035\252"
 793      A1DB1163 
 793      A30E2328 
 793      76D5CD24 
 793      75D51DAA 
 794 1ea4 B7F6B643 		.ascii	"\267\366\266C\036\347\305tI8\362\214v\335\202\311\327"
 794      1EE7C574 
 794      4938F28C 
 794      76DD82C9 
 794      D7
 795 1eb5 CD6C2AAE 		.ascii	"\315l*\256kb\034\265\323\373|\362\223\2726vFG\241\372"
 795      6B621CB5 
 795      D3FB7CF2 
 795      93BA3676 
 795      4647A1FA 
 796 1ec9 D0EEA44A 		.ascii	"\320\356\244J\233\032\257\264\232\312o&\212\343\207"
 796      9B1AAFB4 
 796      9ACA6F26 
 796      8AE387
 797 1ed8 CFA19BD5 		.ascii	"\317\241\233\325\264\325\306\277\302T\275\207\310i\257"
 797      B4D5C6BF 
 797      C254BD87 
 797      C869AF
 798 1ee7 972C315D 		.ascii	"\227,1]\321Q\301\271\304t\300\253[b:6\006\227\230Hz"
 798      D151C1B9 
ARM GAS  /tmp/ccO2ITyH.s 			page 64


 798      C474C0AB 
 798      5B623A36 
 798      06979848 
 799 1efc EA25A69B 		.ascii	"\352%\246\233\317$/1\335}\306p\211i\344\263\206\377"
 799      CF242F31 
 799      DD7DC670 
 799      8969E4B3 
 799      86FF
 800 1f0e E13AEE59 		.ascii	"\341:\356Y\303\377p\235\365\254\366?\\\225\344\205\211"
 800      C3FF709D 
 800      F5ACF63F 
 800      5C95E485 
 800      89
 801 1f1f 64F6FFAB 		.ascii	"d\366\377\253\253\023\311\354\377W\177\231Hf\377\277"
 801      AB13C9EC 
 801      FF577F99 
 801      4866FFBF 
 802 1f2f FAEB44B2 		.ascii	"\372\353D\262\227I>\234H\3661\311\227\022\311M\230\344"
 802      97493E9C 
 802      48F631C9 
 802      9712C94D 
 802      98E4
 803 1f41 FB89E434 		.ascii	"\373\211\3444&\371}\177<9\235I\236\221Hn\312$/I$7c\222"
 803      26F97D7F 
 803      3C399D49 
 803      9E91486E 
 803      CA242F49 
 804 1f59 3726929B 		.ascii	"7&\222\2333\311\265\211\344\026L\362\376DrK&\371|\""
 804      33C9B589 
 804      E4164CF2 
 804      FE44724B 
 804      26F97C22 
 805 1f6d B9154B77 		.ascii	"\271\025Kw\"\3711\245.\311W\313\225\276\204\216\004"
 805      22F931A5 
 805      2EC957CB 
 805      95BE848E 
 805      04
 806 1f7e C583D820 		.ascii	"\305\203\330 \276\361\032\257\364\231\031\233=zc\363"
 806      BEF11AAF 
 806      F499199B 
 806      3D7A63F3 
 807 1f8e 29EB059F 		.ascii	")\353\005\237\023\265^\360\\\321\310\231\032\367\234"
 807      13B55EF0 
 807      5CD1C899 
 807      1AF79C
 808 1f9d 71336B   		.ascii	"q3k"
 809 1fa0 48B6E075 		.ascii	"H\266\340u\343bU{\241O\235k\330\247\222\366bF\350P\237"
 809      E362557B 
 809      A14F9D6B 
 809      D8A792F6 
 809      6246E850 
 810 1fb5 8E50F292 		.ascii	"\216P\362\222\203MB\247\230\020:\322g@h\335\203\003"
 810      834D42A7 
 810      98103AD2 
 810      674068DD 
 810      8303
 811 1fc7 CBCC0825 		.ascii	"\313\314\010%e\233\021:JO\350\0251\251\363\2572!d\264"
ARM GAS  /tmp/ccO2ITyH.s 			page 65


 811      659B113A 
 811      4A4FE815 
 811      31A9F3AF 
 811      322164B4 
 812 1fdb 2121EBB6 		.ascii	"!!\353\266\037r\230\365#V\"\033\243\247DS\267\235Y\211"
 812      1F7298F5 
 812      2356221B 
 812      A3A74453 
 812      B79D5989 
 813 1fef F16FB998 		.ascii	"\361o\271\230?\366Ib\205>\364\241\333\372\234\276\013"
 813      3FF64962 
 813      853EF4A1 
 813      DBFA9CBE 
 813      0B
 814 2000 B0FF9E6D 		.ascii	"\260\377\236m\202\010\375\237\353\371\314\373\310\211"
 814      8208FD9F 
 814      EBF9CCFB 
 814      C889
 815 200e 3E8B09AF 		.ascii	">\213\011\257e&\322\235d(\335\232\355\346\006\337Z\276"
 815      6526D29D 
 815      6428DD9A 
 815      EDE606DF 
 815      5ABE
 816 2020 1F19C957 		.ascii	"\037\031\311WG\313Z\023Z\246\032\321\022;\276\347}Y"
 816      47CB5A13 
 816      5AA61AD1 
 816      123BBEE7 
 816      7D59
 817 2032 341C5059 		.ascii	"4\034PY\3211\335\262\236w\0336\205-&t\3152\224\321\214"
 817      D131DDB2 
 817      9E771B36 
 817      852D2674 
 817      CD3294D1 
 818 2047 4FBF7B75 		.ascii	"O\277{u\352Jy\204\301\013\200\226\013\242UIm\001\217"
 818      EA4A7984 
 818      C10B8096 
 818      0BA25549 
 818      6D018F
 819 205a 69D75052 		.ascii	"i\327PRkB\311\\-%\277\020\346\312\362\201\272\207\267"
 819      6B42C95C 
 819      2D25BF10 
 819      E6CAF281 
 819      BA87B7
 820 206d 17B5236B 		.ascii	"\027\265#k\0072q\001EQ\235\022<\020\0071#\345\223\004"
 820      07327101 
 820      45519D12 
 820      3C100731 
 820      23E59304 
 821 2081 5C235777 		.ascii	"\\#Ww\347k\231I\027\306\260\332\332\325|qw\201/]\320"
 821      E76B9949 
 821      17C6B0DA 
 821      DAD57C71 
 821      77812F5D 
 822 2096 7DCC1E9D 		.ascii	"}\314\036\235\227\320k]k ~\233Y\256\205\246\271\210"
 822      97D06B5D 
 822      6B207E9B 
 822      59AE85A6 
ARM GAS  /tmp/ccO2ITyH.s 			page 66


 822      B988
 823 20a8 2F693A26 		.ascii	"/i:&3\311\305/\221\305\372\352%\234rm\234\\dJ\361\036"
 823      33C9C52F 
 823      91C5FAEA 
 823      259C726D 
 823      9C5C644A 
 824 20be 0B8A3F37 		.ascii	"\013\212?7\315E\264\300,\327R\323\\\344\270\007\323"
 824      CD45B4C0 
 824      2CD752D3 
 824      5CE4B807 
 824      D3
 825 20cf 319C692E 		.ascii	"1\234i.b\340\315r-7\3155\324\"\327\012\223\\\312\242"
 825      62E0CD72 
 825      2D37CD35 
 825      D422D70A 
 825      935CCAA2 
 826 20e3 679D6BAA 		.ascii	"g\235k\252\3660\221$_\261\332gw\321s\225\317x\3213U"
 826      F6309124 
 826      5FB1DA67 
 826      77D17395 
 826      CF78D133 
 827 20f8 C5AD3465 		.ascii	"\305\2554e\220\274\362j\226k\265i\2561\026bYc\232\353"
 827      90BCF26A 
 827      966BB569 
 827      AE311662 
 827      59639AEB 
 828 210c 238B5C6B 		.ascii	"#\213\\kMsM\267\310\265.\221\313hi=M}~U\302\311\257"
 828      4D734DB7 
 828      C8B52E91 
 828      CB68693D 
 828      4D7D7E55 
 829 2123 AB39F7C5 		.ascii	"\2539\367\305S\033pPU\343##\232\243\317\031\016\252"
 829      531B7050 
 829      55E32323 
 829      9AA3CF19 
 829      0EAA
 830 2135 2C8024E1 		.ascii	",\200$\341\002\346\331\350\323\255\250\216\247;\221"
 830      02E6D9E8 
 830      D3ADA88E 
 830      A73B91
 831 2144 48BA85AF 		.ascii	"H\272\205\257\037?Hc\262\262\251\202\235\331&y\215\270"
 831      1F3F4863 
 831      B2B2A982 
 831      9DD92679 
 831      8DB8
 832 2156 D554B4F2 		.ascii	"\325T\264\362\000\213'\307\246l\377\020w6\251k\356("
 832      008B27C7 
 832      A66CFF10 
 832      7736A96B 
 832      EE28
 833 2168 3B66B9BA 		.ascii	";f\271\272\211\2121G\325\277\255\266\365\357\013\023"
 833      898A3147 
 833      D5BFADB6 
 833      F5EF0B13 
 834 2178 FD53FFD6 		.ascii	"\375S\377\326C\022\256\307%c\\\256\021\037~\015\037"
 834      4312AEC7 
 834      25635CAE 
ARM GAS  /tmp/ccO2ITyH.s 			page 67


 834      111F7E0D 
 834      1F
 835 2189 D32A3F10 		.ascii	"\323*?\020\311\301\\\012\037s^#\315\210Y\260yM\305\360"
 835      C9C15C0A 
 835      1F735E23 
 835      CD8859B0 
 835      794DC5F0 
 836 219d 2A447DA5 		.ascii	"*D}\245\260\221 \017\350\270\245\247C\223M+\011\003"
 836      B091200F 
 836      E8B8A5A7 
 836      43934D2B 
 836      0903
 837 21af 3286C5A6 		.ascii	"2\206\305\246o\307wU\351\321<\362/thF\373\355\026Z\240"
 837      6FC77755 
 837      E9D13CF2 
 837      2F746846 
 837      FBED165A 
 838 21c4 CDAAFC50 		.ascii	"\315\252\374Ps\214\336\337\364\200F\225\275\\\003h\361"
 838      738CDEDF 
 838      F4804695 
 838      BD5C0368 
 838      F1
 839 21d5 61553128 		.ascii	"aU1(n\366\221!\305\026\037Y\207\214a\274\015\343Z\214"
 839      6EF69121 
 839      C5161F59 
 839      878C61BC 
 839      0DE35A8C 
 840 21e9 77FA98C1 		.ascii	"w\372\230\301\267\256\251\325\230\320\203\016\211i\003"
 840      B7AEA9D5 
 840      98D0830E 
 840      896903
 841 21f8 ADB268A0 		.ascii	"\255\262h\240\177g<\276\2273\006\224\227\2062\012\312"
 841      7F673CBE 
 841      97330694 
 841      9786320A 
 841      CA
 842 2209 0BDFCD28 		.ascii	"\013\337\315(\014\015\312(\030P\334\257\270<\222\021"
 842      0C0DCA28 
 842      1850DCAF 
 842      B83C9211 
 843 2219 0D0F2C7B 		.ascii	"\015\017,{;\003nBC\242\031E\301hQ$#\022.\310(.\213\206"
 843      3B036E42 
 843      43A21945 
 843      C1685124 
 843      23122EC8 
 844 2231 FA87C2ED 		.ascii	"\372\207\302\355\006\010\316.o\346g\273\273\365\356"
 844      0608CE2E 
 844      6FE667BB 
 844      BBF5EE
 845 2240 EBCF149C 		.ascii	"\353\317\024\234\005\003\202\341\227\354!\025\025\001"
 845      050382E1 
 845      97EC2115 
 845      1501
 846 224e 88AB6BE7 		.ascii	"\210\253k\347\374\256y\236\242H \372nE\310Q\030\036"
 846      FCAE799E 
 846      A24820FA 
 846      6E45C851 
ARM GAS  /tmp/ccO2ITyH.s 			page 68


 846      181E
 847 2260 E42A8814 		.ascii	"\344*\210\024\377w\310]\026\200'#\256\301E%\301\376"
 847      FF77C85D 
 847      16802723 
 847      AEC14525 
 847      C1FE
 848 2272 DEA24871 		.ascii	"\336\242Hq\200\3348\337\310\311\315\222\212\013}e\201"
 848      80DC38DF 
 848      C8C9CD92 
 848      8A0B7D65 
 848      81
 849 2283 707979B4 		.ascii	"pyy\264\2608\354\312\"IMJ\202\221h\240\240d`$\332\244"
 849      B038ECCA 
 849      22494D4A 
 849      829168A0 
 849      A0646024 
 850 2299 281C0AD1 		.ascii	"(\034\012\321[/b\204\312\242\256\"\002\351\031T^\322"
 850      5B2F6284 
 850      CAA2AE22 
 850      02E91954 
 850      5ED2
 851 22ab 2F180979 		.ascii	"/\030\011y \021\257\220\235\\\275\205\301h\020\023\006"
 851      2011AF90 
 851      9D5CBD85 
 851      C1681013 
 851      06
 852 22bc 17974542 		.ascii	"\027\227EB\005Q\007\\]\371\231\335;\3476\213\024\226"
 852      0551075C 
 852      5DF999DD 
 852      3BE7368B 
 852      1496
 853 22ce 96023DA5 		.ascii	"\226\002=\245\025%! \326\203_\003Q\027^\177\233\212"
 853      15252120 
 853      D6835F03 
 853      51175E7F 
 853      9B8A
 854 22e0 DD01C112 		.ascii	"\335\001\301\022\020\027\220R\030\312 \371\"\025\305"
 854      10179052 
 854      18CA20F9 
 854      2215C5
 855 22ef 00E2EBD5 		.ascii	"\000\342\353\325+3+\\<(\024N\217\337\375\271W\276+\320"
 855      2B332B5C 
 855      3C28144E 
 855      8FDFFDB9 
 855      57BE2BD0 
 856 2303 A5BCBC24 		.ascii	"\245\274\274$\2558\022 D\204\243\241\302t\270\257\010"
 856      AD381220 
 856      4484A3A1 
 856      C274B8AF 
 856      08
 857 2314 974781A2 		.ascii	"\227G\201\242P\241\247\240\274\254\014\356\232\024\026"
 857      50A1A7A0 
 857      BCAC0CEE 
 857      9A1416
 858 2323 4794DB5F 		.ascii	"G\224\333_f\014\214\2043\202\341\322\027\313\312\313"
 858      660C8C84 
 858      3382E1D2 
ARM GAS  /tmp/ccO2ITyH.s 			page 69


 858      17CBCACB 
 859 2333 422F8682 		.ascii	"B/\206\202\375\212\343\305E@6eQ(\315;\020\256/u\014"
 859      FD8AE3C5 
 859      45403665 
 859      5128CD3B 
 859      10AE2F75 
 860 2348 443B593C 		.ascii	"D;Y<]\032\004\332\313B\031\201\302PQp`I\024\353\"\002"
 860      5D1A04DA 
 860      CB421981 
 860      C2505170 
 860      604914EB 
 861 235e B99B0402 		.ascii	"\271\233\004\002j~\017\271y9\020\365\321$\270s\206C"
 861      6A7E0FB9 
 861      793910F5 
 861      D124B873 
 861      8643
 862 2370 C142D7E0 		.ascii	"\301B\327\340pq4\344\214\274[V\360\007;\362\200\373"
 862      707134E4 
 862      8CBC5B56 
 862      F0073BF2 
 862      80FB
 863 2382 407179BF 		.ascii	"@qy\277\222\362\202\267\241\234\346]\310MVhPqA\250G"
 863      92F282B7 
 863      A19CE65D 
 863      C84D5668 
 863      507141A8 
 864 2397 5951B9B7 		.ascii	"YQ\271\267_\311\333\001\2543rS6\260\324\333?\024\005"
 864      5FC9DB01 
 864      AC337253 
 864      36B0D4DB 
 864      3F1405
 865 23aa C114953B 		.ascii	"\301\024\225;\006\225F\233@b$\0125\033\2106\351\322"
 865      0695469B 
 865      4062240A 
 865      351B8836 
 865      E9D2
 866 23bc F3F540DF 		.ascii	"\363\365@\337\336=z\367\310\367\222\333\274\374\234"
 866      DE3D7AF7 
 866      C8F792DB 
 866      BCFC9C
 867 23cb 3E98D639 		.ascii	">\230\32693\277\307\237\263\233\221\333\314\234\336"
 867      33BFC79F 
 867      B39B91DB 
 867      CC9CDE
 868 23da BDB3E16B 		.ascii	"\275\263\341k\357n-\311\327\254\036y\211\024\037I\311"
 868      EF6E2DC9 
 868      D7AC1E79 
 868      89141F49 
 868      C9
 869 23eb CDEE9CF5 		.ascii	"\315\356\234\365f\232z\007\251x\377Fn\217|\365>\357"
 869      669A7A07 
 869      A978FF46 
 869      6E8F7CF5 
 869      3EEF
 870 23fd CDDE9970 		.ascii	"\315\336\231p\357\302R\035\005\305\205\216\202H\241"
 870      EFC2521D 
 870      05C5858E 
ARM GAS  /tmp/ccO2ITyH.s 			page 70


 870      8248A1
 871 240c B7205811 		.ascii	"\267 X\021,(\216\276\233\305\303xEy8\032\311\310\313"
 871      2C288EBE 
 871      9BC5C378 
 871      4579381A 
 871      C9C8CB
 872 241f EFF552C7 		.ascii	"\357\365R\307\214\236=\2632\362\372\364\030\324!\003"
 872      8C9E3DB3 
 872      32F2FAF4 
 872      18D42103 
 873 242f 54225052 		.ascii	"T\"PRRH\324\002\022\2502t\264#G\252SM\340\242J\004p"
 873      5248D402 
 873      12A83274 
 873      B42347AA 
 873      534DE0A2 
 874 2446 5489905B 		.ascii	"T\211\220[\"\021\202M\271\304_\251l\322\311mfN\257>"
 874      2211824D 
 874      B9C45FA9 
 874      6CD2C96D 
 874      664EAF3E 
 875 245a 3DB3F3B3 		.ascii	"=\263\363\263\233\002@A\260\004\332G\301\333\201\250"
 875      9B024041 
 875      B004DA47 
 875      C1DB81A8 
 876 246a 3B545618 		.ascii	";TV\030(\350\227\335\030\276\272\365\351\2213\250cF"
 876      28E897DD 
 876      18BEBAF5 
 876      E99133A8 
 876      6346
 877 247c 05D42F65 		.ascii	"\005\324/e,=\022-\005\005\352_Q\\\016-\247WNVv\256;"
 877      2C3D122D 
 877      0505EA5F 
 877      515C0E2D 
 877      A7574E56 
 878 2493 27FFCD3E 		.ascii	"'\377\315>\331\271\236\234\274>\331\331Y\271\256>}\373"
 878      D9B99E9C 
 878      BC3ED9D9 
 878      59B9AE3E 
 878      7DFB
 879 24a5 64E53A7A 		.ascii	"d\345:z@\310\311\312\025\337@\235\355\360[\340\205\352"
 879      40C8C9CA 
 879      15DF409D 
 879      EDF05BE0 
 879      85EA
 880 24b7 1AB97544 		.ascii	"\032\271uDBQWAI(\030\026\273;\273\344\345\346:{f\276"
 880      42515741 
 880      49281816 
 880      BB3BBBE4 
 880      E5E63A7B 
 881 24cd 9EEBECDC 		.ascii	"\236\353\354\3345\267'\211\272;\272\344\3466).'\324"
 881      35B72789 
 881      BA3BBAE4 
 881      E636292E 
 881      27D4
 882 24df 14170207 		.ascii	"\024\027\002\007\221\010\271u\301%\010\225\025\356@"
 882      9108B975 
 882      C1250895 
ARM GAS  /tmp/ccO2ITyH.s 			page 71


 882      15EE40
 883 24ee 4490595E 		.ascii	"D\220Y^VT\334\337]\200\227\224f/\034\215\013\271`@\344"
 883      5654DCDF 
 883      5D809794 
 883      662F1C8D 
 883      0BB96040 
 884 2503 DD88DA26 		.ascii	"\335\210\332&\274\321\001D\361\241%\024\014\010\320"
 884      BCD10144 
 884      F1A12514 
 884      0C08D0
 885 2512 FB4EF6B0 		.ascii	"\373N\366\260\012\006\020\271\270+\002e`\020\341R\021"
 885      0A0610B9 
 885      B82B0265 
 885      6010E152 
 885      11
 886 2523 0E0DEACE 		.ascii	"\016\015\352\316\001AE\3359\267Wf\257!\360diEqI(\034"
 886      014145DD 
 886      39B75766 
 886      AF21F064 
 886      69457149 
 887 2539 C9E89699 		.ascii	"\311\350\226\231\011\217\253\344y\242\025a\"i\304-."
 887      098FABE4 
 887      79A21561 
 887      2269C42D 
 887      2E
 888 254a 2776230A 		.ascii	"'v#\012\305\374\3366\376\200\202\36201zi$\031\332^\264"
 888      C5FCDE36 
 888      FE8082F2 
 888      30317A69 
 888      2419DA5E 
 889 255f 203AE43F 		.ascii	" :\344?\032\207\022\030\364\273R\"\271p\250?\030 R\231"
 889      1A871218 
 889      F4BB5222 
 889      B970A83F 
 889      18205299 
 890 2573 1D7E0BE1 		.ascii	"\035~\013\341w\020^\206\360{G\244c{\010\035 t\204\360"
 890      77105E86 
 890      F07B47A4 
 890      637B081D 
 890      207484F0 
 891 2587 12844E10 		.ascii	"\022\204N\020~\003\001\236\353\010\317u\204\347:\302"
 891      7E03019E 
 891      EB08CF75 
 891      84E73AC2 
 892 2597 732FC173 		.ascii	"s/\301s/u\220\302\235\244\360o\244\360o\245\360\357"
 892      2F7590C2 
 892      9DA4F06F 
 892      A4F06FA5 
 892      F0EF
 893 25a9 A4F0CB52 		.ascii	"\244\360\313R\370\367\216p\207\366\020:H%a\270\274\344"
 893      F8F78E70 
 893      87F6103A 
 893      482561B8 
 893      BCE4
 894 25bb AA0800B5 		.ascii	"\252\010\000\265\036\"\341\301\2410\\\313K\012Ca\"\361"
 894      1E22E1C1 
 894      A1305CCB 
ARM GAS  /tmp/ccO2ITyH.s 			page 72


 894      4B0A4361 
 894      22F1
 895 25cd 6069C81B 		.ascii	"`i\310\033U\232\012\244\343\235'ZZ^H\277\223N&\342\211"
 895      559A0AA4 
 895      E39D275A 
 895      5A5E48BF 
 895      934E26E2 
 896 25e2 8643A443 		.ascii	"\206C\244C\202\347\311\215\2534\322\037~T\354 \330?"
 896      82E7C98D 
 896      AB34D21F 
 896      7E54EC20 
 896      D83F
 897 25f4 E5CE1D2E 		.ascii	"\345\316\035.|\027~\362\206\206\024GA\"!\367\340hy\277"
 897      7C177EF2 
 897      86861447 
 897      412221F7 
 897      E06879BF 
 898 2608 FFAA480B 		.ascii	"\377\252H\013\015\202.\2474\030\301\2064\230\3348*\002"
 898      0D822EA7 
 898      3418C186 
 898      3498DC38 
 898      2A02
 899 261a 039B5155 		.ascii	"\003\233QU\211\004J\240\245\006\242\315\343\312CS|\025"
 899      89044AA0 
 899      A506A2CD 
 899      E3CA4353 
 899      7C15
 900 262c 81C1C1E2 		.ascii	"\201\301\301\342hqY\377\346j\362;\003C\003\201\252\026"
 900      687159FF 
 900      E66AF23B 
 900      03430381 
 900      AA16
 901 263e CC9398D4 		.ascii	"\314\223\230\324\244\"\000\305\342\255\013o!!T\001M"
 901      A42200C5 
 901      E2AD0B6F 
 901      21215401 
 901      4D
 902 264f 1632BB4A 		.ascii	"\0262\273J\007Bm\247\354\2105\372X\032\035B\364\246"
 902      07426DA7 
 902      EC8835FA 
 902      581A1D42 
 902      F4A6
 903 2661 94A2C3B5 		.ascii	"\224\242\303\265|p\031\010\015\221\200\205RTS\240\017"
 903      7C701908 
 903      0D918085 
 903      525453A0 
 903      0F
 904 2672 9E239436 		.ascii	"\236#\2246!R\011\226\240rAb\005\364Z\277\263U\236\302"
 904      21520996 
 904      A0724162 
 904      05F45ABF 
 904      B3559EC2 
 905 2686 0C94D94A 		.ascii	"\014\224\331JiJ \345P8TV\000\334\272i\322\037y\\\211"
 905      694A20E5 
 905      50385456 
 905      00DCBA69 
 905      D21F795C 
ARM GAS  /tmp/ccO2ITyH.s 			page 73


 906 269b CC5E793D 		.ascii	"\314^y=\362\300\364d\240\205)\352\324\276\303\020TX"
 906      F2C0F464 
 906      A08529EA 
 906      D4BEC310 
 906      5458
 907 26ad 62D8F2A1 		.ascii	"b\330\362\2419d\205\212\034\231\271\035 t\224\362r%"
 907      3964858A 
 907      1C99B91D 
 907      207494F2 
 907      7225
 908 26bf 303499B9 		.ascii	"04\231\271\231}r\335\271\177\201k\256;\037/\236\036"
 908      997D72DD 
 908      B97F816B 
 908      AE3B1F2F 
 908      9E1E
 909 26d1 1DF332BB 		.ascii	"\035\3632\273v\313u\301\265O\256\003\354`W\273f\017"
 909      76CB75C1 
 909      B54FAE03 
 909      EC6057BB 
 909      660F
 910 26e3 E3AE9D86 		.ascii	"\343\256\235\206\014\241\204\004\012K\203\204\271\254"
 910      0CA18404 
 910      0A4B8384 
 910      B9AC
 911 26f1 5E9D0379 		.ascii	"^\235\003y\240J\301R\225\032)3\327\331;+?\327\321\247"
 911      A04AC152 
 911      951A2933 
 911      D7D93B2B 
 911      3FD7D1A7 
 912 2705 73AEB357 		.ascii	"s\256\263W{\022u\350\234\353\350\012\304D\360AgqQA\330"
 912      7B1275E8 
 912      9CEBE80A 
 912      C444F041 
 912      67715141 
 913 271a 5D1C1950 		.ascii	"]\034\031P\\\024\365EB%E\305e\205\241!\356A\320\333"
 913      5C14F545 
 913      422545C5 
 913      6585A121 
 913      EE41D0DB 
 914 272e 97875BC5 		.ascii	"\227\207[\305\321\003\364i0\247\360%<\204\304\321!\276"
 914      D103F469 
 914      30A7F025 
 914      3C84C4D1 
 914      21BE
 915 2740 F010B812 		.ascii	"\360\020\270\022M\366E\325;'\260S\341*\211\024\024\365"
 915      4DF645D5 
 915      3B27B053 
 915      E12A8914 
 915      14F5
 916 2752 770D2031 		.ascii	"w\015 1q>\250\031l\216}o XX\030\016E\"\241\210\023<"
 916      713EA819 
 916      6C8E7D6F 
 916      20585818 
 916      0E4522A1 
 917 2769 9442F27C 		.ascii	"\224B\362|\241\247\010\354\012\030</\244\344B]\274\013"
 917      A1A708EC 
 917      0A183C2F 
ARM GAS  /tmp/ccO2ITyH.s 			page 74


 917      A4E4425D 
 917      BC0B
 918 277b DE195E9B 		.ascii	"\336\031^\233\022G\251\244\274?u\377\322\023\337\300"
 918      1247A9A4 
 918      BC3F75FF 
 918      D213DFC0 
 919 278b 5227BE38 		.ascii	"R'\2768\"\205\005\036\270\355\023\214\016H/$=Z\257\362"
 919      2285051E 
 919      B8ED138C 
 919      0E482F24 
 919      3D5AAFF2 
 920 279f 8160830A 		.ascii	"\201`\203\012\335e\010\234R9\007\005A\265\006F\340\007"
 920      DD65089C 
 920      52390705 
 920      41B50646 
 920      E007
 921 27b1 D0B1B228 		.ascii	"\320\261\262(\361\022\355)\030\225\016Q\260\307\273"
 921      F112ED29 
 921      18950E51 
 921      B0C7BB
 922 27c0 805B9717 		.ascii	"\200[\227\027\002\305.\213\026\007Khm<i\224"
 922      02C52E8B 
 922      16074B68 
 922      6D3C6994 
 923 27d0 081E5847 		.ascii	"\010\036XG\364\220J\212\373e\364/(\320yJ\235\332\275"
 923      F4904A8A 
 923      FB65F42F 
 923      28D0794A 
 923      9DDABD
 924 27e3 DCAE13EB 		.ascii	"\334\256\023\353]\201\247Dl8\361Q\300\236U\014\214:"
 924      5D81A744 
 924      6C38F151 
 924      C09E550C 
 924      8C3A
 925 27f5 C043F1AA 		.ascii	"\300C\361\252$;\340\306QT\032e%V \270\251\337\344E\013"
 925      243BE0C6 
 925      51541A65 
 925      255620B8 
 925      A9DFE445 
 926 280a 425C29F8 		.ascii	"B\\)\370\205\210\004\214\213r\347$\366\311\255\310\261"
 926      8588048C 
 926      8B72E724 
 926      F6C9ADC8 
 926      B1
 927 281b 6B8F9E52 		.ascii	"k\217\236RQ\304IL\222#\024\016;\213*\242aw\004=[\027"
 927      51C4494C 
 927      9223140E 
 927      3B8B2AA2 
 927      6177043D 
 928 2831 8D0B89B7 		.ascii	"\215\013\211\267\352\00576@n\210?\033\200g\034\375\006"
 928      EA053736 
 928      406E883F 
 928      1B80671C 
 928      FD06
 929 2843 1639099A 		.ascii	"\0269\011\232gp8\223\210\276\245\202\336;4\270]E0\034"
 929      67703893 
 929      88BEA582 
ARM GAS  /tmp/ccO2ITyH.s 			page 75


 929      DE3B34B8 
 929      5D45301C 
 930 2857 6DD7DE01 		.ascii	"m\327\336\001)\256\"R\330ol9\033\2410\010\214\324}\036"
 930      29AE2252 
 930      D86F6C39 
 930      1BA13008 
 930      8CD47D1E 
 931 286b DE517FA5 		.ascii	"\336Q\177\2459\373\005\344\350#\235eq)\260\345\004\271"
 931      39FB05E4 
 931      E8239D65 
 931      7129B0E5 
 931      04B9
 932 287d 449D2098 		.ascii	"D\235 \230\250\033\335\304\250\213\264\355hJ\307YS\233"
 932      A81BDDC4 
 932      A88BB4ED 
 932      684AC759 
 932      539B
 933 288f 684E4965 		.ascii	"hNIe6\303\273@\244|`\230X\212t\366k\013\372\205\330"
 933      36C3BB40 
 933      A47C6098 
 933      588A74F6 
 933      6B0BFA85 
 934 28a4 A7501951 		.ascii	"\247P\031Q\310f\332\004O\250\004\315X\032\\\3254\037"
 934      C866DA04 
 934      4FA804CD 
 934      581A5CD5 
 934      341F
 935 28b6 DC53700A 		.ascii	"\334Sp\012\205\266\037\252\007\222\361\226\374>\230"
 935      85B61FAA 
 935      0792F196 
 935      FC3E98
 936 28c5 7608A108 		.ascii	"v\010\241\010\346v\341s\276H\241\322\201\370\362\262"
 936      E676E173 
 936      BE48A1D2 
 936      81F8F2B2 
 937 28d5 1457CB03 		.ascii	"\024W\313\003w\304\323\362\302\025\035-{<\242\345%<"
 937      77C4D3F2 
 937      C2151D2D 
 937      7B3CA2E5 
 937      253C
 938 28e7 362D2E03 		.ascii	"6-.\003\231\251\246\037\034\032\365\326\253\336\372"
 938      99A9A61F 
 938      1C1AF5D6 
 938      ABDEFA
 939 28f6 DE513B0A 		.ascii	"\336Q;\012\270+\300\226\025\366\276\023\200:\007\033"
 939      B82BC096 
 939      15F6BE13 
 939      803A071B 
 940 2906 EA7A2710 		.ascii	"\352z'\020-\257\360\300#aP\004\270\206\013\341\352{"
 940      2DAFF0C0 
 940      23615004 
 940      B8860BE1 
 940      EA7B
 941 2918 A7AC3C5A 		.ascii	"\247\254<Z\\\364.\240\274\023\240\267\356w@\014eo\273"
 941      5CF42EA0 
 941      BC13A0B7 
 941      EE77400C 
ARM GAS  /tmp/ccO2ITyH.s 			page 76


 941      656FBB
 942 292b 8B11B359 		.ascii	"\213\021\263Y\371\300(S\254\273\034o\244\342~Ry\277"
 942      F9C02853 
 942      ACBB1C6F 
 942      A4E27E52 
 942      79BF
 943 293d A67DF33A 		.ascii	"\246}\363:\347\3463\366\364%g\267\374>\271\256\201\021"
 943      E7E633F6 
 943      F42567B7 
 943      FC3EB9AE 
 943      8111
 944 294f D0A4C789 		.ascii	"\320\244\307\211~\367Du\355QVLZ\023\264\007)R\350(\354"
 944      7EF74475 
 944      ED51564C 
 944      5A13B407 
 944      2952E828 
 945 2964 D7BF59E2 		.ascii	"\327\277Y\342\267< \252IB\011\323\224\333<x8]\271\177"
 945      B73C20AA 
 945      494209D3 
 945      94DB3C78 
 945      385DB97F 
 946 2978 83E887BB 		.ascii	"\203\350\207\273$T\326?:\2409\233\226\031\031\344\202"
 946      2454D63F 
 946      3AA0399B 
 946      961919E4 
 946      82
 947 2989 4B6904EC 		.ascii	"Ki\004\354!(o\020\014\241\273\014\023T\265\356\026\212"
 947      21286F10 
 947      0CA1BB0C 
 947      1354B5EE 
 947      168A
 948 299b BE41155D 		.ascii	"\276A\025]\005\313,)\217\204\324\237s\240k\354\\A\372"
 948      05CB2C29 
 948      8F84D49F 
 948      73A06BEC 
 948      5C41FA
 949 29ae C71689D6 		.ascii	"\307\026\211\326\230\217\275\214#\030\356o\253\325\303"
 949      988FBD8C 
 949      2318EE6F 
 949      ABD5C3
 950 29bd F3A4AB1C 		.ascii	"\363\244\253\034\024D%j\026\010\364/\033X\020P\276\246"
 950      1444256A 
 950      1608F42F 
 950      1B581050 
 950      BEA6
 951 29cf FDA9DFC0 		.ascii	"\375\251\337\300\342\222\350\213\305e\257\010\340%("
 951      E292E88B 
 951      C565AF08 
 951      E02528
 952 29de A9E0250E 		.ascii	"\251\340%\016\242F\301\32357;\257o\317|W\327\334@\316"
 952      A246C1D3 
 952      35373BAF 
 952      6FCF7C57 
 952      D7DC40CE 
 953 29f2 EB6910C3 		.ascii	"\353i\020\303P\344\365@68\256p\337\243w>\271M\207\333"
 953      50E4F540 
 953      3638AE70 
ARM GAS  /tmp/ccO2ITyH.s 			page 77


 953      DFA3773E 
 953      B94D87DB 
 954 2a06 DE39F98A 		.ascii	"\3369\371\212\267\216_\002`\010\262\225\333>\235\363"
 954      B78E5F02 
 954      6008B295 
 954      DB3E9DF3 
 955 2a16 BB37C7A7 		.ascii	"\2737\307\247\377\334\271g\217\254@\357\316\275\262"
 955      FFDCB967 
 955      8FAC40EF 
 955      CEBDB2
 956 2a25 7D0429BB 		.ascii	"}\004)\273w\217\354,/\334e\377\245G^~K\346\221\234."
 956      778FEC2C 
 956      2FDC65FF 
 956      A5475E7E 
 956      4BE6919C 
 957 2a3a FF0BC63A 		.ascii	"\377\013\306:\255 \205\214h\262\003}rs\362!!;\253\005"
 957      AD20858C 
 957      68B2037D 
 957      7273F221 
 957      213BAB05 
 958 2a4e F350562E 		.ascii	"\363PV.\031-)eg\367\356\334\245'\375])=\357\315\274"
 958      192D2965 
 958      67F7EEDC 
 958      A527FD5D 
 958      293DEFCD 
 959 2a63 FCEC5EA4 		.ascii	"\374\354^\244\340^\257w\315\013t\356\222\223\013\000"
 959      E05EAF77 
 959      CD0B74EE 
 959      92930B00 
 960 2a73 84A6FC1E 		.ascii	"\204\246\374\036\275\262s\372\346\023\032z\346d\276"
 960      BDB273FA 
 960      E6131A7A 
 960      E664BE
 961 2a82 9E9DD52A 		.ascii	"\236\235\325*\016\222\323\267[w\030`\344f?A\236\313"
 961      0E92D3B7 
 961      5B771860 
 961      E4663F41 
 961      9ECB
 962 2a94 C909F4EA 		.ascii	"\311\011\364\352\334\373\315@N\237\354\336\024\363q"
 962      DCFBCD40 
 962      4E9FECDE 
 962      14F371
 963 2aa3 A67CE810 		.ascii	"\246|\350\020\201\223|\030\032\024\005\312\241\256<"
 963      81937C18 
 963      1A1405CA 
 963      A1AE3C
 964 2ab2 45815252 		.ascii	"E\201RR\243Mp\244\0155\3345\317\331\027D\004\351hI\340"
 964      A34D70A4 
 964      0D35DC35 
 964      CFD91744 
 964      04E96849 
 965 2ac7 5A402A19 		.ascii	"Z@*\031\256%\221P\350\355&\005\003\362\007\024\346\225"
 965      AE259150 
 965      E8ED2605 
 965      03F20714 
 965      E695
 966 2ad9 844215AE 		.ascii	"\204B\025\256\254\354.}\273a\357\224\257x\352M\022_"
ARM GAS  /tmp/ccO2ITyH.s 			page 78


 966      ACEC2E7D 
 966      BB61EF94 
 966      AF78EA4D 
 966      125F
 967 2aeb 9C50FF11 		.ascii	"\234P\377\021\242\213\221\316\005Q0X\036h\217e\2441"
 967      A28B91CE 
 967      05513058 
 967      1E688F65 
 967      A431
 968 2afd 4548DE7C 		.ascii	"EH\336|0[\377\027\203?9\\"
 968      305BFF17 
 968      833F395C 
 969              		.text
 970              		.section	.gnu.lto_.symtab.cd6d3f8cf7092fe4,"",%progbits
 971 0000 64617461 		.ascii	"dataLoggerInitialize\000\000\000\000\000\000\000\000"
 971      4C6F6767 
 971      6572496E 
 971      69746961 
 971      6C697A65 
 972 001c 00000000 		.ascii	"\000\000\000\000O\003\000\000dataLoggerStop\000\000"
 972      4F030000 
 972      64617461 
 972      4C6F6767 
 972      65725374 
 973 0034 00000000 		.ascii	"\000\000\000\000\000\000\000\000\000\000\365\003\000"
 973      00000000 
 973      0000F503 
 973      00
 974 0041 006C6F67 		.ascii	"\000logfileNew\000\000\000\000\000\000\000\000\000\000"
 974      66696C65 
 974      4E657700 
 974      00000000 
 974      00000000 
 975 0056 0000FB03 		.ascii	"\000\000\373\003\000\000logfileSize\000\000\000\000"
 975      00006C6F 
 975      6766696C 
 975      6553697A 
 975      65000000 
 976 006b 00000000 		.ascii	"\000\000\000\000\000\000\000\000\007\004\000\000log"
 976      00000000 
 976      07040000 
 976      6C6F67
 977 007a 66696C65 		.ascii	"fileWrite\000\000\000\000\000\000\000\000\000\000\000"
 977      57726974 
 977      65000000 
 977      00000000 
 977      00000000 
 978 008e 000D0400 		.ascii	"\000\015\004\000\000logfileWriteCsv\000\000\000\000"
 978      006C6F67 
 978      66696C65 
 978      57726974 
 978      65437376 
 979 00a6 00000000 		.ascii	"\000\000\000\000\000\000\000\000\030\004\000\000log"
 979      00000000 
 979      18040000 
 979      6C6F67
 980 00b5 66696C65 		.ascii	"fileGetWrCount\000\000\000\000\000\000\000\000\000\000"
ARM GAS  /tmp/ccO2ITyH.s 			page 79


 980      47657457 
 980      72436F75 
 980      6E740000 
 980      00000000 
 981 00cd 00002804 		.ascii	"\000\000(\004\000\000logfileClose\000\000\000\000\000"
 981      00006C6F 
 981      6766696C 
 981      65436C6F 
 981      73650000 
 982 00e4 00000000 		.ascii	"\000\000\000\000\000\000\000.\004\000\000logfileOpe"
 982      0000002E 
 982      0400006C 
 982      6F676669 
 982      6C654F70 
 983 00f9 6E417070 		.ascii	"nAppend\000\000\000\000\000\000\000\000\000\000\000"
 983      656E6400 
 983      00000000 
 983      00000000 
 983      0000
 984 010b 00340400 		.ascii	"\0004\004\000\000dataloggerThread\000\000\000\000\000"
 984      00646174 
 984      616C6F67 
 984      67657254 
 984      68726561 
 985 0125 00000000 		.ascii	"\000\000\000\000\000\000\0008\004\000\000chvprintf\000"
 985      00000038 
 985      04000063 
 985      68767072 
 985      696E7466 
 986 013a 00020000 		.ascii	"\000\002\000\000\000\000\000\000\000\000\000>\004\000"
 986      00000000 
 986      0000003E 
 986      0400
 987 0148 00665F6F 		.ascii	"\000f_open\000\000\002\000\000\000\000\000\000\000\000"
 987      70656E00 
 987      00020000 
 987      00000000 
 987      0000
 988 015a 004D0400 		.ascii	"\000M\004\000\000f_mount\000\000\002\000\000\000\000"
 988      00665F6D 
 988      6F756E74 
 988      00000200 
 988      000000
 989 016d 00000000 		.ascii	"\000\000\000\000\000\200\004\000\000sdmmcGetFS\000\000"
 989      00800400 
 989      0073646D 
 989      6D634765 
 989      74465300 
 990 0182 02000000 		.ascii	"\002\000\000\000\000\000\000\000\000\000\206\004\000"
 990      00000000 
 990      00008604 
 990      00
 991 018f 00665F77 		.ascii	"\000f_write\000\000\002\000\000\000\000\000\000\000"
 991      72697465 
 991      00000200 
 991      00000000 
 991      0000
ARM GAS  /tmp/ccO2ITyH.s 			page 80


 992 01a1 00008A04 		.ascii	"\000\000\212\004\000\000f_close\000\000\002\000\000"
 992      0000665F 
 992      636C6F73 
 992      65000002 
 992      0000
 993 01b3 00000000 		.ascii	"\000\000\000\000\000\000\000\225\004\000\000f_lseek"
 993      00000095 
 993      04000066 
 993      5F6C7365 
 993      656B
 994 01c5 00000200 		.ascii	"\000\000\002\000\000\000\000\000\000\000\000\000\231"
 994      00000000 
 994      00000000 
 994      99
 995 01d2 04000063 		.ascii	"\004\000\000chThdSleep\000\000\002\000\000\000\000\000"
 995      68546864 
 995      536C6565 
 995      70000002 
 995      00000000 
 996 01e7 00000000 		.ascii	"\000\000\000\000\236\004\000\000"
 996      9E040000 
 997              		.text
 998              		.section	.gnu.lto_.opts,"",%progbits
 999 0000 272D6D63 		.ascii	"'-mcpu=cortex-m4' '-mfloat-abi=hard' '-mfpu=fpv4-sp"
 999      70753D63 
 999      6F727465 
 999      782D6D34 
 999      2720272D 
 1000 0033 2D643136 		.ascii	"-d16' '-mno-thumb-interwork' '-mthumb' '-O2' '-fomi"
 1000      2720272D 
 1000      6D6E6F2D 
 1000      7468756D 
 1000      622D696E 
 1001 0066 742D6672 		.ascii	"t-frame-pointer' '-falign-functions=16' '-ffunction"
 1001      616D652D 
 1001      706F696E 
 1001      74657227 
 1001      20272D66 
 1002 0099 2D736563 		.ascii	"-sections' '-fdata-sections' '-fno-common' '-flto' "
 1002      74696F6E 
 1002      73272027 
 1002      2D666461 
 1002      74612D73 
 1003 00cc 272D6673 		.ascii	"'-fsingle-precision-constant'\000"
 1003      696E676C 
 1003      652D7072 
 1003      65636973 
 1003      696F6E2D 
 1004              		.text
 1005              		.section	.text.chprintf,"ax",%progbits
 1006              		.align	2
 1007              		.p2align 4,,15
 1008              		.thumb
 1009              		.thumb_func
 1010              		.type	chprintf, %function
 1011              	chprintf:
 1012              		@ args = 4, pretend = 12, frame = 8
ARM GAS  /tmp/ccO2ITyH.s 			page 81


 1013              		@ frame_needed = 0, uses_anonymous_args = 1
 1014 0000 0EB4     		push	{r1, r2, r3}
 1015 0002 00B5     		push	{lr}
 1016 0004 82B0     		sub	sp, sp, #8
 1017 0006 03AA     		add	r2, sp, #12
 1018 0008 52F8041B 		ldr	r1, [r2], #4
 1019 000c 0192     		str	r2, [sp, #4]
 1020 000e FFF7FEFF 		bl	chvprintf
 1021 0012 02B0     		add	sp, sp, #8
 1022              		@ sp needed
 1023 0014 5DF804EB 		ldr	lr, [sp], #4
 1024 0018 03B0     		add	sp, sp, #12
 1025 001a 7047     		bx	lr
 1026              		.size	chprintf, .-chprintf
 1027 001c AFF30080 		.section	.text.dataLoggerInitialize,"ax",%progbits
 1028              		.align	2
 1029              		.p2align 4,,15
 1030              		.global	dataLoggerInitialize
 1031              		.thumb
 1032              		.thumb_func
 1033              		.type	dataLoggerInitialize, %function
 1034              	dataLoggerInitialize:
 1035              		@ args = 0, pretend = 0, frame = 0
 1036              		@ frame_needed = 0, uses_anonymous_args = 0
 1037 0000 70B5     		push	{r4, r5, r6, lr}
 1038 0002 0446     		mov	r4, r0
 1039 0004 0D46     		mov	r5, r1
 1040 0006 DAB1     		cbz	r2, .L6
 1041 0008 C0B1     		cbz	r0, .L3
 1042 000a 1249     		ldr	r1, .L11
 1043 000c 124E     		ldr	r6, .L11+4
 1044 000e 0260     		str	r2, [r0]
 1045 0010 1046     		mov	r0, r2
 1046 0012 002D     		cmp	r5, #0
 1047 0014 08BF     		it	eq
 1048 0016 0D46     		moveq	r5, r1
 1049 0018 3360     		str	r3, [r6]
 1050 001a FFF7FEFF 		bl	sdmmcGetFS
 1051 001e A560     		str	r5, [r4, #8]
 1052 0020 2946     		mov	r1, r5
 1053 0022 6060     		str	r0, [r4, #4]
 1054 0024 0122     		movs	r2, #1
 1055 0026 FFF7FEFF 		bl	f_mount
 1056 002a 0546     		mov	r5, r0
 1057 002c 58B9     		cbnz	r0, .L10
 1058 002e 0123     		movs	r3, #1
 1059 0030 3068     		ldr	r0, [r6]
 1060 0032 2373     		strb	r3, [r4, #12]
 1061 0034 0949     		ldr	r1, .L11+8
 1062 0036 FFF7FEFF 		bl	chprintf
 1063 003a 2846     		mov	r0, r5
 1064              	.L3:
 1065 003c 40B2     		sxtb	r0, r0
 1066 003e 70BD     		pop	{r4, r5, r6, pc}
 1067              	.L6:
 1068 0040 1046     		mov	r0, r2
 1069 0042 40B2     		sxtb	r0, r0
ARM GAS  /tmp/ccO2ITyH.s 			page 82


 1070 0044 70BD     		pop	{r4, r5, r6, pc}
 1071              	.L10:
 1072 0046 3068     		ldr	r0, [r6]
 1073 0048 0549     		ldr	r1, .L11+12
 1074 004a 2A46     		mov	r2, r5
 1075 004c FFF7FEFF 		bl	chprintf
 1076 0050 FF20     		movs	r0, #255
 1077 0052 F3E7     		b	.L3
 1078              	.L12:
 1079              		.align	2
 1080              	.L11:
 1081 0054 00000000 		.word	.LC0
 1082 0058 00000000 		.word	.LANCHOR0
 1083 005c 34000000 		.word	.LC2
 1084 0060 04000000 		.word	.LC1
 1085              		.size	dataLoggerInitialize, .-dataLoggerInitialize
 1086 0064 AFF30080 		.section	.text.dataLoggerStop,"ax",%progbits
 1086      AFF30080 
 1086      AFF30080 
 1087              		.align	2
 1088              		.p2align 4,,15
 1089              		.global	dataLoggerStop
 1090              		.thumb
 1091              		.thumb_func
 1092              		.type	dataLoggerStop, %function
 1093              	dataLoggerStop:
 1094              		@ args = 0, pretend = 0, frame = 0
 1095              		@ frame_needed = 0, uses_anonymous_args = 0
 1096 0000 074B     		ldr	r3, .L14
 1097 0002 0849     		ldr	r1, .L14+4
 1098 0004 10B5     		push	{r4, lr}
 1099 0006 0446     		mov	r4, r0
 1100 0008 1868     		ldr	r0, [r3]
 1101 000a FFF7FEFF 		bl	chprintf
 1102 000e 0020     		movs	r0, #0
 1103 0010 0146     		mov	r1, r0
 1104 0012 0246     		mov	r2, r0
 1105 0014 FFF7FEFF 		bl	f_mount
 1106 0018 0020     		movs	r0, #0
 1107 001a 2073     		strb	r0, [r4, #12]
 1108 001c 10BD     		pop	{r4, pc}
 1109              	.L15:
 1110 001e 00BF     		.align	2
 1111              	.L14:
 1112 0020 00000000 		.word	.LANCHOR0
 1113 0024 54000000 		.word	.LC3
 1114              		.size	dataLoggerStop, .-dataLoggerStop
 1115 0028 AFF30080 		.section	.text.logfileNew,"ax",%progbits
 1115      AFF30080 
 1116              		.align	2
 1117              		.p2align 4,,15
 1118              		.global	logfileNew
 1119              		.thumb
 1120              		.thumb_func
 1121              		.type	logfileNew, %function
 1122              	logfileNew:
 1123              		@ args = 0, pretend = 0, frame = 0
ARM GAS  /tmp/ccO2ITyH.s 			page 83


 1124              		@ frame_needed = 0, uses_anonymous_args = 0
 1125 0000 2DE9F041 		push	{r4, r5, r6, r7, r8, lr}
 1126 0004 124E     		ldr	r6, .L22
 1127 0006 0C46     		mov	r4, r1
 1128 0008 0546     		mov	r5, r0
 1129 000a 1249     		ldr	r1, .L22+4
 1130 000c 3068     		ldr	r0, [r6]
 1131 000e 9046     		mov	r8, r2
 1132 0010 1F46     		mov	r7, r3
 1133 0012 FFF7FEFF 		bl	chprintf
 1134 0016 247B     		ldrb	r4, [r4, #12]	@ zero_extendqisi2
 1135 0018 1CB9     		cbnz	r4, .L21
 1136              	.L19:
 1137 001a 2046     		mov	r0, r4
 1138 001c 40B2     		sxtb	r0, r0
 1139 001e BDE8F081 		pop	{r4, r5, r6, r7, r8, pc}
 1140              	.L21:
 1141 0022 0023     		movs	r3, #0
 1142 0024 C5F80C80 		str	r8, [r5, #12]
 1143 0028 6F60     		str	r7, [r5, #4]
 1144 002a 4046     		mov	r0, r8
 1145 002c 3946     		mov	r1, r7
 1146 002e 2B61     		str	r3, [r5, #16]
 1147 0030 0A22     		movs	r2, #10
 1148 0032 FFF7FEFF 		bl	f_open
 1149 0036 0446     		mov	r4, r0
 1150 0038 0028     		cmp	r0, #0
 1151 003a EED0     		beq	.L19
 1152 003c 3068     		ldr	r0, [r6]
 1153 003e 0649     		ldr	r1, .L22+8
 1154 0040 2246     		mov	r2, r4
 1155 0042 FFF7FEFF 		bl	chprintf
 1156 0046 E0B2     		uxtb	r0, r4
 1157 0048 40B2     		sxtb	r0, r0
 1158 004a BDE8F081 		pop	{r4, r5, r6, r7, r8, pc}
 1159              	.L23:
 1160 004e 00BF     		.align	2
 1161              	.L22:
 1162 0050 00000000 		.word	.LANCHOR0
 1163 0054 74000000 		.word	.LC4
 1164 0058 98000000 		.word	.LC5
 1165              		.size	logfileNew, .-logfileNew
 1166 005c AFF30080 		.section	.text.logfileSize,"ax",%progbits
 1167              		.align	2
 1168              		.p2align 4,,15
 1169              		.global	logfileSize
 1170              		.thumb
 1171              		.thumb_func
 1172              		.type	logfileSize, %function
 1173              	logfileSize:
 1174              		@ args = 0, pretend = 0, frame = 0
 1175              		@ frame_needed = 0, uses_anonymous_args = 0
 1176              		@ link register save eliminated.
 1177 0000 0020     		movs	r0, #0
 1178 0002 7047     		bx	lr
 1179              		.size	logfileSize, .-logfileSize
 1180 0004 AFF30080 		.section	.text.logfileWrite,"ax",%progbits
ARM GAS  /tmp/ccO2ITyH.s 			page 84


 1180      AFF30080 
 1180      AFF30080 
 1181              		.align	2
 1182              		.p2align 4,,15
 1183              		.global	logfileWrite
 1184              		.thumb
 1185              		.thumb_func
 1186              		.type	logfileWrite, %function
 1187              	logfileWrite:
 1188              		@ args = 0, pretend = 0, frame = 8
 1189              		@ frame_needed = 0, uses_anonymous_args = 0
 1190 0000 30B5     		push	{r4, r5, lr}
 1191 0002 0446     		mov	r4, r0
 1192 0004 83B0     		sub	sp, sp, #12
 1193 0006 01AB     		add	r3, sp, #4
 1194 0008 C068     		ldr	r0, [r0, #12]
 1195 000a 1546     		mov	r5, r2
 1196 000c FFF7FEFF 		bl	f_write
 1197 0010 2369     		ldr	r3, [r4, #16]
 1198 0012 0133     		adds	r3, r3, #1
 1199 0014 2361     		str	r3, [r4, #16]
 1200 0016 28B9     		cbnz	r0, .L27
 1201 0018 0198     		ldr	r0, [sp, #4]
 1202 001a 281A     		subs	r0, r5, r0
 1203 001c 18BF     		it	ne
 1204 001e 0120     		movne	r0, #1
 1205 0020 03B0     		add	sp, sp, #12
 1206              		@ sp needed
 1207 0022 30BD     		pop	{r4, r5, pc}
 1208              	.L27:
 1209 0024 0120     		movs	r0, #1
 1210 0026 03B0     		add	sp, sp, #12
 1211              		@ sp needed
 1212 0028 30BD     		pop	{r4, r5, pc}
 1213              		.size	logfileWrite, .-logfileWrite
 1214 002a 00BFAFF3 		.section	.text.logfileWriteCsv,"ax",%progbits
 1214      0080
 1215              		.align	2
 1216              		.p2align 4,,15
 1217              		.global	logfileWriteCsv
 1218              		.thumb
 1219              		.thumb_func
 1220              		.type	logfileWriteCsv, %function
 1221              	logfileWriteCsv:
 1222              		@ args = 0, pretend = 0, frame = 0
 1223              		@ frame_needed = 0, uses_anonymous_args = 0
 1224              		@ link register save eliminated.
 1225 0000 0020     		movs	r0, #0
 1226 0002 7047     		bx	lr
 1227              		.size	logfileWriteCsv, .-logfileWriteCsv
 1228 0004 AFF30080 		.section	.text.logfileGetWrCount,"ax",%progbits
 1228      AFF30080 
 1228      AFF30080 
 1229              		.align	2
 1230              		.p2align 4,,15
 1231              		.global	logfileGetWrCount
 1232              		.thumb
ARM GAS  /tmp/ccO2ITyH.s 			page 85


 1233              		.thumb_func
 1234              		.type	logfileGetWrCount, %function
 1235              	logfileGetWrCount:
 1236              		@ args = 0, pretend = 0, frame = 0
 1237              		@ frame_needed = 0, uses_anonymous_args = 0
 1238              		@ link register save eliminated.
 1239 0000 0069     		ldr	r0, [r0, #16]
 1240 0002 7047     		bx	lr
 1241              		.size	logfileGetWrCount, .-logfileGetWrCount
 1242 0004 AFF30080 		.section	.text.logfileClose,"ax",%progbits
 1242      AFF30080 
 1242      AFF30080 
 1243              		.align	2
 1244              		.p2align 4,,15
 1245              		.global	logfileClose
 1246              		.thumb
 1247              		.thumb_func
 1248              		.type	logfileClose, %function
 1249              	logfileClose:
 1250              		@ args = 0, pretend = 0, frame = 0
 1251              		@ frame_needed = 0, uses_anonymous_args = 0
 1252 0000 10B5     		push	{r4, lr}
 1253 0002 0446     		mov	r4, r0
 1254 0004 C068     		ldr	r0, [r0, #12]
 1255 0006 FFF7FEFF 		bl	f_close
 1256 000a 10B1     		cbz	r0, .L31
 1257 000c 0023     		movs	r3, #0
 1258 000e 2361     		str	r3, [r4, #16]
 1259 0010 0120     		movs	r0, #1
 1260              	.L31:
 1261 0012 40B2     		sxtb	r0, r0
 1262 0014 10BD     		pop	{r4, pc}
 1263              		.size	logfileClose, .-logfileClose
 1264 0016 00BFAFF3 		.section	.text.logfileOpenAppend,"ax",%progbits
 1264      0080AFF3 
 1264      0080
 1265              		.align	2
 1266              		.p2align 4,,15
 1267              		.global	logfileOpenAppend
 1268              		.thumb
 1269              		.thumb_func
 1270              		.type	logfileOpenAppend, %function
 1271              	logfileOpenAppend:
 1272              		@ args = 0, pretend = 0, frame = 0
 1273              		@ frame_needed = 0, uses_anonymous_args = 0
 1274 0000 38B5     		push	{r3, r4, r5, lr}
 1275 0002 0546     		mov	r5, r0
 1276 0004 1222     		movs	r2, #18
 1277 0006 C068     		ldr	r0, [r0, #12]
 1278 0008 6968     		ldr	r1, [r5, #4]
 1279 000a FFF7FEFF 		bl	f_open
 1280 000e 0446     		mov	r4, r0
 1281 0010 08B1     		cbz	r0, .L38
 1282              	.L34:
 1283 0012 60B2     		sxtb	r0, r4
 1284 0014 38BD     		pop	{r3, r4, r5, pc}
 1285              	.L38:
ARM GAS  /tmp/ccO2ITyH.s 			page 86


 1286 0016 E868     		ldr	r0, [r5, #12]
 1287 0018 C168     		ldr	r1, [r0, #12]
 1288 001a FFF7FEFF 		bl	f_lseek
 1289 001e 0446     		mov	r4, r0
 1290 0020 0028     		cmp	r0, #0
 1291 0022 F6D0     		beq	.L34
 1292 0024 E868     		ldr	r0, [r5, #12]
 1293 0026 FFF7FEFF 		bl	f_close
 1294 002a 60B2     		sxtb	r0, r4
 1295 002c 38BD     		pop	{r3, r4, r5, pc}
 1296              		.size	logfileOpenAppend, .-logfileOpenAppend
 1297 002e 00BF     		.section	.text.dataloggerThread,"ax",%progbits
 1298              		.align	2
 1299              		.p2align 4,,15
 1300              		.global	dataloggerThread
 1301              		.thumb
 1302              		.thumb_func
 1303              		.type	dataloggerThread, %function
 1304              	dataloggerThread:
 1305              		@ args = 0, pretend = 0, frame = 0
 1306              		@ frame_needed = 0, uses_anonymous_args = 0
 1307 0000 90F8AC30 		ldrb	r3, [r0, #172]	@ zero_extendqisi2
 1308 0004 70B5     		push	{r4, r5, r6, lr}
 1309 0006 0446     		mov	r4, r0
 1310 0008 8BB1     		cbz	r3, .L41
 1311 000a 0A4E     		ldr	r6, .L47
 1312 000c 42F21075 		movw	r5, #10000
 1313              	.L42:
 1314 0010 D4F8B030 		ldr	r3, [r4, #176]
 1315 0014 05FB03F0 		mul	r0, r5, r3
 1316 0018 0138     		subs	r0, r0, #1
 1317 001a A6FB0030 		umull	r3, r0, r6, r0
 1318 001e 8009     		lsrs	r0, r0, #6
 1319 0020 0130     		adds	r0, r0, #1
 1320 0022 FFF7FEFF 		bl	chThdSleep
 1321 0026 94F8AC30 		ldrb	r3, [r4, #172]	@ zero_extendqisi2
 1322 002a 002B     		cmp	r3, #0
 1323 002c F0D1     		bne	.L42
 1324              	.L41:
 1325 002e 0020     		movs	r0, #0
 1326 0030 70BD     		pop	{r4, r5, r6, pc}
 1327              	.L48:
 1328 0032 00BF     		.align	2
 1329              	.L47:
 1330 0034 D34D6210 		.word	274877907
 1331              		.size	dataloggerThread, .-dataloggerThread
 1332 0038 AFF30080 		.section	.bss.DEBUG,"aw",%nobits
 1332      AFF30080 
 1333              		.align	2
 1334              		.set	.LANCHOR0,. + 0
 1335              		.type	DEBUG, %object
 1336              		.size	DEBUG, 4
 1337              	DEBUG:
 1338 0000 00000000 		.space	4
 1339              		.section	.rodata.str1.4,"aMS",%progbits,1
 1340              		.align	2
 1341              	.LC0:
ARM GAS  /tmp/ccO2ITyH.s 			page 87


 1342 0000 00       		.ascii	"\000"
 1343 0001 000000   		.space	3
 1344              	.LC1:
 1345 0004 44415441 		.ascii	"DATALOGGER: Error Mounting Filesystem,ERR%20d\012\000"
 1345      4C4F4747 
 1345      45523A20 
 1345      4572726F 
 1345      72204D6F 
 1346 0033 00       		.space	1
 1347              	.LC2:
 1348 0034 44415441 		.ascii	"DATALOGGER: Datalogger Started\012\000"
 1348      4C4F4747 
 1348      45523A20 
 1348      44617461 
 1348      6C6F6767 
 1349              	.LC3:
 1350 0054 44415441 		.ascii	"DATALOGGER: Datalogger Stopped\012\000"
 1350      4C4F4747 
 1350      45523A20 
 1350      44617461 
 1350      6C6F6767 
 1351              	.LC4:
 1352 0074 44415441 		.ascii	"DATALOGGER: Creating New Logfile\012\000"
 1352      4C4F4747 
 1352      45523A20 
 1352      43726561 
 1352      74696E67 
 1353 0096 0000     		.space	2
 1354              	.LC5:
 1355 0098 44415441 		.ascii	"DATALOGGER: Error creating Logfile, ERR%02d\012\000"
 1355      4C4F4747 
 1355      45523A20 
 1355      4572726F 
 1355      72206372 
 1356              		.comm	__gnu_lto_v1,1,1
 1357 00c5 000000   		.ident	"GCC: (GNU Tools for ARM Embedded Processors) 4.8.4 20140526 (release) [ARM/embedded-4_8-br
ARM GAS  /tmp/ccO2ITyH.s 			page 88


DEFINED SYMBOLS
                            *ABS*:0000000000000000 datalogger.c
     /tmp/ccO2ITyH.s:1006   .text.chprintf:0000000000000000 $t
     /tmp/ccO2ITyH.s:1011   .text.chprintf:0000000000000000 chprintf
     /tmp/ccO2ITyH.s:1028   .text.dataLoggerInitialize:0000000000000000 $t
     /tmp/ccO2ITyH.s:1034   .text.dataLoggerInitialize:0000000000000000 dataLoggerInitialize
     /tmp/ccO2ITyH.s:1081   .text.dataLoggerInitialize:0000000000000054 $d
     /tmp/ccO2ITyH.s:1087   .text.dataLoggerStop:0000000000000000 $t
     /tmp/ccO2ITyH.s:1093   .text.dataLoggerStop:0000000000000000 dataLoggerStop
     /tmp/ccO2ITyH.s:1112   .text.dataLoggerStop:0000000000000020 $d
     /tmp/ccO2ITyH.s:1116   .text.logfileNew:0000000000000000 $t
     /tmp/ccO2ITyH.s:1122   .text.logfileNew:0000000000000000 logfileNew
     /tmp/ccO2ITyH.s:1162   .text.logfileNew:0000000000000050 $d
     /tmp/ccO2ITyH.s:1167   .text.logfileSize:0000000000000000 $t
     /tmp/ccO2ITyH.s:1173   .text.logfileSize:0000000000000000 logfileSize
     /tmp/ccO2ITyH.s:1181   .text.logfileWrite:0000000000000000 $t
     /tmp/ccO2ITyH.s:1187   .text.logfileWrite:0000000000000000 logfileWrite
     /tmp/ccO2ITyH.s:1215   .text.logfileWriteCsv:0000000000000000 $t
     /tmp/ccO2ITyH.s:1221   .text.logfileWriteCsv:0000000000000000 logfileWriteCsv
     /tmp/ccO2ITyH.s:1229   .text.logfileGetWrCount:0000000000000000 $t
     /tmp/ccO2ITyH.s:1235   .text.logfileGetWrCount:0000000000000000 logfileGetWrCount
     /tmp/ccO2ITyH.s:1243   .text.logfileClose:0000000000000000 $t
     /tmp/ccO2ITyH.s:1249   .text.logfileClose:0000000000000000 logfileClose
     /tmp/ccO2ITyH.s:1265   .text.logfileOpenAppend:0000000000000000 $t
     /tmp/ccO2ITyH.s:1271   .text.logfileOpenAppend:0000000000000000 logfileOpenAppend
     /tmp/ccO2ITyH.s:1298   .text.dataloggerThread:0000000000000000 $t
     /tmp/ccO2ITyH.s:1304   .text.dataloggerThread:0000000000000000 dataloggerThread
     /tmp/ccO2ITyH.s:1330   .text.dataloggerThread:0000000000000034 $d
     /tmp/ccO2ITyH.s:1333   .bss.DEBUG:0000000000000000 $d
     /tmp/ccO2ITyH.s:1337   .bss.DEBUG:0000000000000000 DEBUG
     /tmp/ccO2ITyH.s:1340   .rodata.str1.4:0000000000000000 $d
                            *COM*:0000000000000001 __gnu_lto_v1
     /tmp/ccO2ITyH.s:1086   .text.dataLoggerInitialize:0000000000000064 $t
     /tmp/ccO2ITyH.s:1115   .text.dataLoggerStop:0000000000000028 $t
     /tmp/ccO2ITyH.s:1166   .text.logfileNew:000000000000005c $t
     /tmp/ccO2ITyH.s:1332   .text.dataloggerThread:0000000000000038 $t

UNDEFINED SYMBOLS
chvprintf
sdmmcGetFS
f_mount
f_open
f_write
f_close
f_lseek
chThdSleep
