ARM GAS  /tmp/ccnGnAVN.s 			page 1


   1              		.syntax unified
   2              		.cpu cortex-m3
   3              		.fpu softvfp
   4              		.eabi_attribute 20, 1
   5              		.eabi_attribute 21, 1
   6              		.eabi_attribute 23, 3
   7              		.eabi_attribute 24, 1
   8              		.eabi_attribute 25, 1
   9              		.eabi_attribute 26, 1
  10              		.eabi_attribute 30, 2
  11              		.eabi_attribute 34, 1
  12              		.eabi_attribute 18, 4
  13              		.thumb
  14              		.file	"datalogger.c"
  15              		.section	.gnu.lto_.jmpfuncs.aeb0d74beb31fa14,"",%progbits
  16 0000 789C6362 		.ascii	"x\234cb`b\300\006~\002q=\020s2032003\003\231e@\232\201"
  16      6062C006 
  16      7E02713D 
  16      10733230 
  16      33323030 
  17 001b 81B10C24 		.ascii	"\201\261\014$\015\324\304\024\301\230\311\010b32\002"
  17      0DD4C414 
  17      C198C908 
  17      62333202 
  18 002b 8599AA19 		.ascii	"\205\231\252\031~5\314h\020\310dd\224c`\234\3330\303"
  18      7E35CC68 
  18      10C86464 
  18      9463609C 
  18      DB30C3
  19 003e 21931162 		.ascii	"!\223\021b2X\0353\027\220\301\317\204\254\216E\216\201"
  19      32581D33 
  19      1790C1CF 
  19      84AC8E45 
  19      8E81
  20 0050 0FA28E15 		.ascii	"\017\242\216\025\254\016\305\02069\006}\210$;\324A\314"
  20      AC0EC510 
  20      3639067D 
  20      88243BD4 
  20      41CC
  21 0062 08B34076 		.ascii	"\010\263@v\202T\003]\302\302\310\014\026\343\200Ir\""
  21      8254035D 
  21      C2C2C80C 
  21      16E38049 
  21      7222
  22 0074 AB42B72F 		.ascii	"\253B\267/\036\331>Vf\260\2322F\0066\006vv\026\230\307"
  22      1ED93E56 
  22      66B09A32 
  22      46063606 
  22      76761698 
  23 0089 39183819 		.ascii	"9\0308\031A\336\342)I-.\361\311O\327+\251(aPpq\014q"
  23      41DEE229 
  23      492D2EF1 
  23      C94FD72B 
  23      A9286150 
  24 00a1 F4F17777 		.ascii	"\364\361www\015\262RpI,I\314\311OOO-R\010.I,*IM\341"
  24      770DB252 
  24      70492C49 
ARM GAS  /tmp/ccnGnAVN.s 			page 2


  24      CCC94F4F 
  24      4F2D5208 
  25 00bc 62D04756 		.ascii	"b\320GV\340ZT\224_\244\340\233_\232W\222\231\227\256"
  25      E05A5494 
  25      5FA4E09B 
  25      5F9A5792 
  25      9997AE
  26 00cf E0969993 		.ascii	"\340\226\231\223Z\\Y\\\222\232\253\343\032\024\244j"
  26      5A5C595C 
  26      929AABE3 
  26      1A14A46A 
  27 00df 6400548F 		.ascii	"d\000T\217\333\300\374\202\002\220\201\000\257\232I"
  27      DBC0FC82 
  27      02908100 
  27      AF9A49
  28 00ee BC       		.ascii	"\274"
  29              		.text
  30              		.section	.gnu.lto_.inline.aeb0d74beb31fa14,"",%progbits
  31 0000 789C8551 		.ascii	"x\234\205Q;N\303@\020}\263;\376\254m\362\021\022\037"
  31      3B4EC340 
  31      107DB33B 
  31      FEAC6DF2 
  31      11121F
  32 0013 2928A14A 		.ascii	")(\241J\305\0118B$\327\224\351pn\341\322\245\017@\221"
  32      C5093842 
  32      24D794E9 
  32      706EE1D2 
  32      A50F4091 
  33 0027 43507024 		.ascii	"CPp$\012\012\016@\301|b\204P$\274\362\314\333\235\317"
  33      0A0A0E40 
  33      C17C6284 
  33      5024BCF2 
  33      CCDB9DCF 
  34 003b BE371B10 		.ascii	"\2767\033\020p\356\373$\367\011\\\257`I\371q\375\223"
  34      70EEFB24 
  34      F7095CAF 
  34      6049F971 
  34      FD93
  35 004d 4BC86640 		.ascii	"K\310f@\034[]\261\261\004B}I$\016q\317|\\{\001\275\027"
  35      1C5B5DB1 
  35      B104427D 
  35      49240E71 
  35      CF7C5C7B 
  36 0064 EC56EB4E 		.ascii	"\354V\353NU\232\177\377@)<?\321\201*\011\204nB\260\263"
  36      559A7FFF 
  36      40293C3F 
  36      D1812A09 
  36      846E42B0 
  37 0079 5A513721 		.ascii	"ZQ7!\262\263FQ7\241@ND~5\305\304Pn\356\305\016\253\236"
  37      B2B34651 
  37      37A1404E 
  37      447E35C5 
  37      C4506EEE 
  38 0091 4BCC5E77 		.ascii	"K\314^w\233\022\374r\333\227\352\277n6\245i\020\312"
  38      9B12FC72 
  38      DB97EABF 
  38      6E36A569 
ARM GAS  /tmp/ccnGnAVN.s 			page 3


  38      10CA
  39 00a3 B20FC284 		.ascii	"\262\017\302\204/\024)\247\261\025v\216e\347\0314\266"
  39      2F1429A7 
  39      B115768E 
  39      65E71934 
  39      B6
  40 00b4 8CE68E10 		.ascii	"\214\346\216\020\342\3335\212ak\325R\203\350]\254G\206"
  40      E2DB358A 
  40      616BD552 
  40      83E85DAC 
  40      4786
  41 00c6 54517492 		.ascii	"TQt\222\032\332;K\207>\217\211\235\014b\021\220\015"
  41      1ADA3B4B 
  41      873E8F89 
  41      9D0C6211 
  41      900D
  42 00d8 DBC58986 		.ascii	"\333\305\211\206\335\221#\212\234\337C.x~E\321\207i"
  42      DD91238A 
  42      9CDF432E 
  42      787E45D1 
  42      8769
  43 00ea FA4C2E57 		.ascii	"\372L.W\037\217\347\306\232\317%\346\217!\015\377\366"
  43      1F8FE7C6 
  43      9ACF25E6 
  43      8F210DFF 
  43      F6
  44 00fb 4A48CBFF 		.ascii	"JH\313\377\036F\245\010\021|\003q\3656`"
  44      1E46A508 
  44      117C0371 
  44      F53660
  45              		.text
  46              		.section	.gnu.lto_.pureconst.aeb0d74beb31fa14,"",%progbits
  47 0000 789C6362 		.ascii	"x\234cb`b\020f\200\000N\006\011FI&)\026)VI6\006vI\016"
  47      60621066 
  47      80004E06 
  47      09464926 
  47      29162956 
  48 001a 064E4900 		.ascii	"\006NI\000\013S\000\373"
  48      0B5300FB 
  49              		.text
  50              		.section	.gnu.lto_chprintf.aeb0d74beb31fa14,"",%progbits
  51 0000 789C8550 		.ascii	"x\234\205P\315J\002Q\024>\337\0355uc\333v\342\0034\213"
  51      CD4A0251 
  51      143EDF1D 
  51      357563DB 
  51      76E20334 
  52 0015 22E80D7A 		.ascii	"\"\350\015z\000\203Z\3058\216z\011\035\321Q\260\026"
  52      00835AC5 
  52      388E7A09 
  52      1DD151B0 
  52      16
  53 0026 5EC1C245 		.ascii	"^\301\302E\013ig\021)\321:\244\027\030\202\332DI\273"
  53      0B696711 
  53      29D13AA4 
  53      171882DA 
  53      4449BB
  54 0039 162D2497 		.ascii	"\026-$\227\265h\321*\202\351\336\031\024\372\201\016"
ARM GAS  /tmp/ccnGnAVN.s 			page 4


  54      B568D12A 
  54      82E9DE19 
  54      14FA810E 
  55 0049 DC7B7EBE 		.ascii	"\334{~\276s\276\363\303\210\321OY\220o\010\2425\251"
  55      73BEF3C3 
  55      88D14F59 
  55      906F08A2 
  55      35A9
  56 005b A11158F7 		.ascii	"\241\021X\367\236\250\025e\2002\010\324dhnB\245\262"
  56      9EA81565 
  56      803208D4 
  56      64686E42 
  56      A5B2
  57 006d 140D84DB 		.ascii	"\024\015\204\333\035_O\036\321\023n\273/>=\017\340\220"
  57      1D5F4F1E 
  57      D1136EBB 
  57      2F3E3D0F 
  57      E090
  58 007f B42B2013 		.ascii	"\264+ \023\264!\035$}\305B\337\373\250Z\321uOon!\016"
  58      B4211D24 
  58      7DC542DF 
  58      FBA85AD1 
  58      754F6F6E 
  59 0095 45EBCDF3 		.ascii	"E\353\315\363\022\034\032\243\325\377\012/\230\373\354"
  59      121C1AA3 
  59      D5FF0A2F 
  59      98FBEC
  60 00a4 794FC3F7 		.ascii	"yO\303\367\203W\364XLC\021\024\222\037\"d\340\014)\225"
  60      8357F458 
  60      4C431114 
  60      921F2264 
  60      E00C2995 
  61 00b8 13A6B624 		.ascii	"\023\246\266$O\032\030H\177\0325\375\241\323\362W\233"
  61      4F1A1848 
  61      7F1A35FD 
  61      A1D3F257 
  61      9B
  62 00c9 AC8329AD 		.ascii	"\254\203)\255\215ho\3343\015\234#,\321]\372\020\035"
  62      8D686FDC 
  62      330D9C23 
  62      2CD15DFA 
  62      101D
  63 00db 31CF1132 		.ascii	"1\317\0212\341\247\313\310\016Gx\312\344g\251\2514\""
  63      E1A7CBC8 
  63      0E4778CA 
  63      E467A9A9 
  63      3422
  64 00ed 2E3BD288 		.ascii	".;\322\210\366\307G\223x\200\344\021\231\021\314\231"
  64      F6C74793 
  64      7880E411 
  64      9911CC99 
  65 00fd 088E9B87 		.ascii	"\010\216\233\207\226G( \340\210\252\222\366\370\370"
  65      96472820 
  65      E088AA92 
  65      F6F8F8
  66 010c 77C798A9 		.ascii	"w\307\230\251H\377\356\310\021'\272\243\253\027\026"
  66      48FFEEC8 
ARM GAS  /tmp/ccnGnAVN.s 			page 5


  66      1127BAA3 
  66      AB1716
  67 011b 04027099 		.ascii	"\004\002p\231.EG\235[\312\003\265\372'\332l\214\340"
  67      2E45479D 
  67      5BCA03B5 
  67      FA27DA6C 
  67      8CE0
  68 012d 5469B983 		.ascii	"Ti\271\203\334Q\315\261\244\027\354\242\245\233v\266"
  68      DC51CDB1 
  68      A417ECA2 
  68      A59B76B6 
  69 013d A167ADBA 		.ascii	"\241g\255\272n\026x\206\333U\335\251\324J\333\2724\352"
  69      6E167886 
  69      DB55DDA9 
  69      D44ADBBA 
  69      34EA
  70 014f 4685DBB5 		.ascii	"F\205\333\265\252\004\312\025^rr\213\005bF9\221\263"
  70      AA04CA15 
  70      5E72728B 
  70      05624639 
  70      91B3
  71 0161 2B45C371 		.ascii	"+E\303q\254\354V\246\341X\325/\251H\201#"
  71      ACEC56A6 
  71      E158D52F 
  71      A9488123 
  72              		.text
  73              		.section	.gnu.lto_logfileNew.part.0.aeb0d74beb31fa14,"",%progbits
  74 0000 789C5D52 		.ascii	"x\234]R\277K\034A\024~\337\314\354\271\271\234`!\210"
  74      BF4B1C41 
  74      147EDFCC 
  74      ECB9B99C 
  74      602188
  75 0013 04446C84 		.ascii	"\004Dl\204\004\274\336\312?\300\362\016L\2719\217e!"
  75      04BCDECA 
  75      3FC0F20E 
  75      4CB9398F 
  75      6521
  76 0025 41D02D02 		.ascii	"A\320-\002\026>\223S\254\216C\010\230\204@D\254-\322"
  76      163E9353 
  76      AC8E4308 
  76      98844044 
  76      AC2DD2
  77 0038 2858AC8D 		.ascii	"(X\254\215\261\360\007\001\021\264\272?@\024\264\212"
  77      B1F00701 
  77      11B4BA3F 
  77      4014B48A 
  78 0048 18D7F776 		.ascii	"\030\327\367v\361\222\313\300\316{o\346\373\276\371"
  78      F192CBC0 
  78      CE7B6FE6 
  78      FBBEF9
  79 0057 DECC1A32 		.ascii	"\336\314\0322\364\377\030\227\357\014D\243\022Q x\255"
  79      F4FF1897 
  79      EF0C44A3 
  79      12512078 
  79      AD
  80 0068 63493C98 		.ascii	"cI<\230,\032cO\313\304E\267;D\\\262p\272\272\350;@\023"
  80      2C1A634F 
ARM GAS  /tmp/ccnGnAVN.s 			page 6


  80      CBC445B7 
  80      3B445CB2 
  80      70BABAE8 
  81 007f 022D78C6 		.ascii	"\002-x\306:,\274\206j\231\021Zg^m/]'\370\314I\343;\337"
  81      3A2CBC86 
  81      6A99115A 
  81      675E6D2F 
  81      5D27F8CC 
  82 0097 A7291041 		.ascii	"\247)\020A\316\355\003\325@SR`8\013\306u\033\311\271"
  82      CEED03D5 
  82      40535260 
  82      380BC675 
  82      1BC9B9
  83 00aa C99FFDE6 		.ascii	"\311\237\375\346\000\267\271\305\017B\215`\015\015\374"
  83      00B7B9C5 
  83      0F428D60 
  83      0D0DFC
  84 00b9 65FA3913 		.ascii	"e\3729\023\335\314-\303\3554\375}\353\373\300;=+\202"
  84      DDCC2DC3 
  84      ED34FD7D 
  84      EBFBC03B 
  84      3D2B82
  85 00cc B3146003 		.ascii	"\263\024`\003#\344\244\360<\235\004\350Q\203\2715\234"
  85      23E4A4F0 
  85      3C9D04E8 
  85      5183B935 
  85      9C
  86 00dd EF045897 		.ascii	"\357\004X\227\231T[FEfm\251\"@\211\266\012\223\305#"
  86      99545B46 
  86      45666DA9 
  86      224089B6 
  86      0A93C523 
  87 00f1 FA70B17D 		.ascii	"\372p\261}s`\002l\312N\010\363\212^\212\374W\372\262"
  87      7360026C 
  87      CA4E08F3 
  87      8A5E8AFC 
  87      57FAB2
  88 0104 C8DC17A1 		.ascii	"\310\334\027\241\020\002\352\251's\362\246\343\354\204"
  88      1002EAA9 
  88      2773F2A6 
  88      E3EC84
  89 0113 9693C127 		.ascii	"\226\223\301'\222\235\247;^Q\270_C\016\021%]\\c\236"
  89      929DA73B 
  89      5E51B85F 
  89      430E1125 
  89      5D5C639E 
  90 0127 8FF06C88 		.ascii	"\217\360l\210^|\343\265\211\010E\3129Y\237\317\213\342"
  90      5E7CE3B5 
  90      890845CA 
  90      39599FCF 
  90      8BE2
  91 0139 BB447440 		.ascii	"\273Dt@\215\313\275O?mGN7\355\2777P\225\362\264\254"
  91      8DCBBD4F 
  91      3F6D474E 
  91      37EDBF37 
  91      5095F2B4 
  92 014e 66AF3EFE 		.ascii	"f\257>\376hv\314\272\360\011V\205\313\332\371%\217\247"
ARM GAS  /tmp/ccnGnAVN.s 			page 7


  92      6876CCBA 
  92      F0095685 
  92      CBDAF925 
  92      8FA7
  93 0160 87EB6DD0 		.ascii	"\207\353m\3209y\252$\271\271\334\351\027\270=\334\361"
  93      3979AA24 
  93      B9B9DCE9 
  93      17B83DDC 
  93      F1
  94 0171 F50AA058 		.ascii	"\365\012\240X\375Uz\247\2038x;\023\206\365\331\261\032"
  94      FD557AA7 
  94      8338783B 
  94      1386F5D9 
  94      B11A
  95 0183 15F2CCCE 		.ascii	"\025\362\314\316\326\347Jq}.\236\234\011\307\342\367"
  95      D6E74A71 
  95      7D2E9E9C 
  95      09C7E2F7 
  96 0193 313D02B4 		.ascii	"1=\002\264T}\271"
  96      547DB9
  97              		.text
  98              		.section	.gnu.lto_dataLoggerInitialize.aeb0d74beb31fa14,"",%progbits
  99 0000 789C8D54 		.ascii	"x\234\215T_H\223Q\024?\347\336\357\333\267o\316\234"
  99      5F489351 
  99      143FE7DE 
  99      EFDBB76F 
  99      CE9C
 100 0012 4BD3A064 		.ascii	"K\323\240d\010=\025f\275\004\022\224\341\362\2450\314"
 100      083D1566 
 100      BD041294 
 100      E1F2A530 
 100      CC
 101 0023 513DAE39 		.ascii	"Q=\2569\306\007Nk.\"z\360.\206H\365 \021dF\220\210$"
 101      C6074E6B 
 101      2E227AF0 
 101      2E8648F5 
 101      20116446 
 102 003a 21181434 		.ascii	"!\030\0244\210`V\210\"\246=\006Q\243\302|\210\010\242"
 102      88605688 
 102      22A63D06 
 102      51A3C27C 
 102      8808A2
 103 004d E82FEBDC 		.ascii	"\350/\353\334\357\317\334\206\204\027v\357=\347\236"
 103      EFCFDC86 
 103      841776EF 
 103      3DE79E
 104 005c DFF9FDCE 		.ascii	"\337\371\375\316\271\367\033\003\006\345\343<\375\356"
 104      B9F71B03 
 104      06E5E33C 
 104      FDEE
 105 006a 2A006768 		.ascii	"*\000ghE\017 \033~\001\220r3\246\177\327@x\370\350,"
 105      450F201B 
 105      7E019072 
 105      33A67FD7 
 105      4078F8E8 
 106 007f 80F072DB 		.ascii	"\200\360r\333T,Sa\352\353\0122]\017\237JSE\227\205r"
 106      542C5361 
ARM GAS  /tmp/ccnGnAVN.s 			page 8


 106      EAEB0A32 
 106      5D0F9F4A 
 106      53459785 
 107 0094 316D9893 		.ascii	"1m\230\223\337-\026\244_C\335\362\273\235\215\216(7"
 107      DF2D16A4 
 107      5F43DDF2 
 107      BB9D8D8E 
 107      2837
 108 00a6 8030C0B8 		.ascii	"\2000\300\270\242\2724\362\014\234B)\2045\302\230\020"
 108      A2BA34F2 
 108      0C9C4229 
 108      8435C298 
 108      10
 109 00b7 D77213EF 		.ascii	"\327r\023\357\227\361\346\365l\372\216\370\223\317#"
 109      97F1E6F5 
 109      6CFA8EF8 
 109      93CF23
 110 00c6 1A48A27D 		.ascii	"\032H\242}\010\021\204\223d`\300\\\230RZ\205\205\315"
 110      08118493 
 110      6460C05C 
 110      98525A85 
 110      85CD
 111 00d8 FEFD9641 		.ascii	"\376\375\226A1(R_\362\371*\0039\203\3725\240\333\002"
 111      3128525F 
 111      F2F92A03 
 111      3983FA35 
 111      A0DB02
 112 00eb 6229709A 		.ascii	"b)p\232es\371\374\325\351\345E\254C\210K2\003\025\005"
 112      6573F9FC 
 112      D5E9E545 
 112      AC43884B 
 112      32031505 
 113 00ff E3882A4D 		.ascii	"\343\210*ML\243\211\3534\201\227\016T\037\204q\034\033"
 113      4CA389EB 
 113      3481970E 
 113      541F8471 
 113      1C1B
 114 0111 A19AD631 		.ascii	"\241\232\3261Z\375\344t\325\332\006\015\025\322B\014"
 114      5AFDE474 
 114      D5DA060D 
 114      15D2420C 
 115 0121 07AC2090 		.ascii	"\007\254 \220\3344\272h\226U\207\220\311\225\317\301"
 115      DC34BA68 
 115      96558790 
 115      C995CFC1 
 116 0131 F38F335F 		.ascii	"\363\2173_\267\207q\002U\210\241\"ui\305\242B\310\201"
 116      B7877102 
 116      5588A122 
 116      7569C5A2 
 116      42C881
 117 0144 1A6D06A6 		.ascii	"\032m\006\246N8q\252\214s\227\306)p\345\000_\204K\013"
 117      4E3871AA 
 117      8C7397C6 
 117      2970E500 
 117      5F844B0B 
 118 0158 3FDE545A 		.ascii	"?\336TZq\267`4%\204\217\332v\021~\211!\271\323\343("
 118      71B76034 
ARM GAS  /tmp/ccnGnAVN.s 			page 9


 118      25848FDA 
 118      76117E89 
 118      21B9D3E3 
 119 016d DB25E1BA 		.ascii	"\333%\341\272\211\213I:S\305\317\202\012]\036{\212\263"
 119      898B493A 
 119      53C5CF82 
 119      0A5D1E7B 
 119      8AB3
 120 017f 7791FFB1 		.ascii	"w\221\377\261\316C\350*\220\274\255\261\302w\302=Ac"
 120      CE43E82A 
 120      90BCADB1 
 120      C277C23D 
 120      4163
 121 0191 1FE9263E 		.ascii	"\037\351&>\002V\224\310;m79&y\227 \235\033\032\367;"
 121      025694C8 
 121      3B6D3739 
 121      26799720 
 121      9D1B1AF7 
 122 01a6 3CDE822C 		.ascii	"<\336\202,o\004\321\0113\260\022\200(\346\357W\2243"
 122      6F04D109 
 122      33B01280 
 122      28E6EF57 
 122      9433
 123 01b8 A8EB3338 		.ascii	"\250\35338P\257\211[\310\274[e\345H\317\372Hf#Qj\033"
 123      50AF895B 
 123      C8BC5B65 
 123      E548CFFA 
 123      48662351 
 124 01ce CC5D1E77 		.ascii	"\314]\036w9\332|\005m\233\"\2050/EJx\025\320]\373d\337"
 124      39DA7C05 
 124      6D9B2285 
 124      302F454A 
 124      7815D05D 
 125 01e5 D29F666E 		.ascii	"\322\237fn\314\362\002H\036\362\265\266\275\002\244"
 125      CCF20248 
 125      1EF2B5B6 
 125      BD02A4
 126 01f4 6E2A2873 		.ascii	"n*(s\215\210\354\357\263\006V7\300\266\333b\344\240"
 126      8D88ECEF 
 126      B3065637 
 126      C0B6DB62 
 126      E4A0
 127 0206 817EF391 		.ascii	"\201~\363\221Lryw\032<c\262\255\363\223\021'W\365Fn"
 127      4C727977 
 127      1A3C63B2 
 127      ADF39311 
 127      2757F546 
 128 021b CF2CF873 		.ascii	"\317,\370s\201\337\037\223\252\226\300\256\002\326\220"
 128      81DF1F93 
 128      AA96C0AE 
 128      02D690
 129 022a 9B23B62E 		.ascii	"\233#\266.Jl\251\021\217(KM\003\004,5\362\341\232\030"
 129      4A6CA911 
 129      8F284B4D 
 129      03042C35 
 129      F2E19A18 
 130 023e CA62E016 		.ascii	"\312b\340\026\347Q\271an\277\024\226\031YY\346\345M"
ARM GAS  /tmp/ccnGnAVN.s 			page 10


 130      E751B961 
 130      6EBF1496 
 130      195959E6 
 130      E54D
 131 0250 AD5BBFA9 		.ascii	"\255[\277\251\026\221\364\324\241\245p>\263\262\212"
 131      1691F4D4 
 131      A1A5703E 
 131      B3B28A
 132 025f 8EC8DA8D 		.ascii	"\216\310\332\215\025\266\004\352\377\252\250\265\253"
 132      15B604EA 
 132      FFAAA8B5 
 132      AB
 133 026c 784290FA 		.ascii	"xB\220\372\0068fU\261\325\251\242\250\004\335\374\320"
 133      06386655 
 133      B1D5A9A2 
 133      A804DDFC 
 133      D0
 134 027d 5ED23F8E 		.ascii	"^\322?\216\3041\353^\230\244\"J>\325a\356\362\316\300"
 134      C431EB5E 
 134      98A4224A 
 134      3ED561EE 
 134      F2CEC0
 135 0290 01EDC31E 		.ascii	"\001\355\303\036\373\320=\365\240\306\336\262\251\016"
 135      FBD03DF5 
 135      A0C6DEB2 
 135      A90E
 136 029e F915A0CC 		.ascii	"\371\025\240\314%STv\207\223\341\236\276X,\232h\212"
 136      25535476 
 136      8793E19E 
 136      BE582C9A 
 136      688A
 137 02b0 80D6163C 		.ascii	"\200\326\026<\024joj\346\321D\2027\267\300\356\266\326"
 137      146A6F6A 
 137      E6D14482 
 137      37B7C0EE 
 137      B6D6
 138 02c2 AED6231D 		.ascii	"\256\326#\035\355\355\301\316\226@0\221\350K\004\216"
 138      EDEDC1CE 
 138      96403091 
 138      E84B048E 
 139 02d2 F69DEB4D 		.ascii	"\366\235\353M\032\275\261\300a\243'\332\177\241?\031"
 139      1ABDB1C0 
 139      61A327DA 
 139      7FA13F19 
 140 02e2 8DEF0A76 		.ascii	"\215\357\012vv\356\330\333\334\355\201@q|[!s\340x2\234"
 140      76EED8DB 
 140      DCED8140 
 140      717C5B21 
 140      73E07832 
 141 02f7 484629E0 		.ascii	"HF)\340\037!+A\315"
 141      1F212B41 
 141      CD
 142              		.text
 143              		.section	.gnu.lto_dataLoggerStop.aeb0d74beb31fa14,"",%progbits
 144 0000 789C6550 		.ascii	"x\234ePKK\002Q\024\376\316\035'\315\262\\V\213\030\332"
 144      4B4B0251 
 144      14FECE1D 
ARM GAS  /tmp/ccnGnAVN.s 			page 11


 144      27CDB25C 
 144      568B18DA 
 145 0014 0642ABA2 		.ascii	"\006B\253\242U\206\342&\010J\241\226\323(\303@\242\204"
 145      5586E226 
 145      084AA196 
 145      D328C340 
 145      A284
 146 0026 BB165E4B 		.ascii	"\273\026^K\242\245D\201\275 q\027Q\253\300M\340\266"
 146      A2A54481 
 146      BD207117 
 146      51ABC04D 
 146      E0B6
 147 0038 45AF7F30 		.ascii	"E\257\1770\233 \352\017\204\004v\317\214\030\325\201"
 147      9B20EA0F 
 147      840476CF 
 147      8C18D581 
 148 0048 B9DFB997 		.ascii	"\271\337\271\227\357q\346\010\010\374\255q\365\035\021"
 148      EF71E608 
 148      08FCAD71 
 148      F51D11
 149 0057 30A79034 		.ascii	"0\247\2204\220\250=\002\225\220 \342\006\204\262\240"
 149      90A83D02 
 149      959020E2 
 149      0684B2A0 
 150 0067 F23A3195 		.ascii	"\362:1\225\246\320\220\362\300}}\177\243\343\303v\365"
 150      A6D090F2 
 150      C07D7D7F 
 150      A3E3C376 
 150      F5
 151 0078 427E75BB 		.ascii	"B~u\273D\016)\333(\301\"\254\251\013\031\036\210\300"
 151      440E29DB 
 151      28C122AC 
 151      A90B191E 
 151      88C0
 152 008a EF9C1BD1 		.ascii	"\357\234\033\321v\273\335\263\333jg\"(`RC\271\351\224"
 152      76BBDDB3 
 152      DB6A6722 
 152      28605243 
 152      B9E994
 153 009d F78C7554 		.ascii	"\367\214uT\245\254\031`\013Uiurx\206\004\243\366\200"
 153      A5AC1960 
 153      0B556975 
 153      72788604 
 153      A3F680
 154 00b0 9DFB4F95 		.ascii	"\235\373O\225iR\223t\330$NqR\2212\252\202\267\321\221"
 154      69529374 
 154      D8244E71 
 154      529132AA 
 154      82B7D191 
 155 00c4 FBDC6979 		.ascii	"\373\334iyb-'k\275\304'\350\276\002?\264\200\345\321"
 155      622D276B 
 155      BDC427E8 
 155      BE023FB4 
 155      80E5D1
 156 00d7 C02EFC58 		.ascii	"\300.\374X\227\362NI\364I\214\235\313\372\202C\003\350"
 156      97F24E49 
 156      F4498C9D 
ARM GAS  /tmp/ccnGnAVN.s 			page 12


 156      CBFA8243 
 156      03E8
 157 00e9 691C0AB2 		.ascii	"i\034\012\262\305\236{\265\033\374g\023\262\310\337"
 157      C59E7BB5 
 157      1BFC6713 
 157      B2C8DF
 158 00f8 24E70DFA 		.ascii	"$\347\015\372\020\366a\210\245\303\200\032\272\325\372"
 158      10F66188 
 158      A5C3801A 
 158      BAD5FA
 159 0107 78D67CED 		.ascii	"x\326|\3554.\245\252Y\207\"jxE\033\261Ig\372\250g\263"
 159      342EA5AA 
 159      5987226A 
 159      78451BB1 
 159      4967FAA8 
 160 011d E10FE519 		.ascii	"\341\017\345\031D\270yA\305\275n\366\376\270\377\352"
 160      44B87941 
 160      C5BD6EF6 
 160      FEB8FFEA 
 161 012d 2F877829 		.ascii	"/\207x)\034\037\311\232%s\263`\333\271\255\230\205`"
 161      1C1FC99A 
 161      2573B360 
 161      DBB9AD98 
 161      8560
 162 013f 22B99849 		.ascii	"\"\271\230I\305f\214D<\035_ZN\245\222+\363F\242\317"
 162      C5668C44 
 162      3C1D5F5A 
 162      4EA5922B 
 162      F346A2CF 
 163 0153 30564B85 		.ascii	"0VK\205b1\227\015\343\033\232\336q\012"
 163      6231970D 
 163      E31B9ADE 
 163      710A
 164              		.text
 165              		.section	.gnu.lto_logfileNew.aeb0d74beb31fa14,"",%progbits
 166 0000 789C5D50 		.ascii	"x\234]P=KCA\020\234\331\273\027\236_\304_\020\254\025"
 166      3D4B4341 
 166      109CD9BB 
 166      179E5FC4 
 166      5F10AC15 
 167 0014 14FF8B01 		.ascii	"\024\377\213\001-\237O9\036(\202\330Y\344\"\257\260"
 167      2D9F4F39 
 167      1E2882D8 
 167      59E422AF 
 167      B0
 168 0025 B048AD8D 		.ascii	"\260H\255\215\376\001\255M\225Jl4\244\011h\345\017\020"
 168      FE01AD4D 
 168      954A6C34 
 168      A40968E5 
 168      0F10
 169 0037 6C254DDC 		.ascii	"l%M\334=\022\021\017ng\271\235\231\335=\201\340\377"
 169      3D12110F 
 169      6E67B99D 
 169      99DD3D81 
 169      E0FF
 170 0049 D9D6BB44 		.ascii	"\331\326\273D\240\251\310\014\224\336+\320\315E\374"
 170      A0A9C80C 
ARM GAS  /tmp/ccnGnAVN.s 			page 13


 170      94DE2BD0 
 170      CD45FC
 171 0058 780B71D9 		.ascii	"x\013q\331\365[\210\213\216\336\236\351IC\020\035q\236"
 171      F55B888B 
 171      8EDE9EE9 
 171      4943101D 
 171      719E
 172 006a 9D3D268F 		.ascii	"\235=&\217\007\031|L\247\367\223\247\333!\271@T\324"
 172      07197C4C 
 172      A7F793A7 
 172      DB21B940 
 172      54D4
 173 007c 461A3C8F 		.ascii	"F\032<\217\211L3643n\206:\306\336\032P&\345\216F3lS"
 173      894C3336 
 173      34336E86 
 173      3AC6DE1A 
 173      5026E58E 
 174 0094 0CDD0B2E 		.ascii	"\014\335\013.\336\277\277\006R\360Ng\011\3146\260\256"
 174      DEBFBF06 
 174      52F04E67 
 174      09CC36B0 
 174      AE
 175 00a5 EA1B5CB3 		.ascii	"\352\033\\\263\242\004\372]E\227z\356s\276\3013\352"
 175      A204FA5D 
 175      45977AEE 
 175      73BEC133 
 175      EA
 176 00b6 CF6EF357 		.ascii	"\317n\363Wb\024\376\335\260\255\212~\313\015Q\347s\222"
 176      6214FEDD 
 176      B0AD8A7E 
 176      CB0D51E7 
 176      7392
 177 00c8 9C63122F 		.ascii	"\234c\022/\343jE_\316\310\201\215Jk3\205O\343\214\364"
 177      E36A455F 
 177      CEC8818D 
 177      4A6B3385 
 177      4FE38CF4 
 178 00dc 23AC9218 		.ascii	"#\254\222\030o\240Yk&W\217\271z8\332\0024\246}\353\312"
 178      6FA0596B 
 178      26578FB9 
 178      7A38DA02 
 178      34A67DEB 
 179 00f1 4171561C 		.ascii	"AqV\034\235\204px\272Y\342\007\220\354?#"
 179      9D847078 
 179      BA59E207 
 179      90EC3F23 
 180              		.text
 181              		.section	.gnu.lto_logfileSize.aeb0d74beb31fa14,"",%progbits
 182 0000 789C6362 		.ascii	"x\234cb`b@\007\222@\034\015\304\374@\314\310\314\300"
 182      60624007 
 182      92401C0D 
 182      C4FC40CC 
 182      C8CCC0
 183 0013 C834E11C 		.ascii	"\3104\341\034\003C#\007\023##\210\301\300\310P\317\304"
 183      03432307 
 183      13232388 
 183      C1C0C850 
ARM GAS  /tmp/ccnGnAVN.s 			page 14


 183      CFC4
 184 0025 581FC908 		.ascii	"X\037\311\010V\273\236\351\300\203\377\377\327\355:"
 184      56BB9EE9 
 184      C083FFFF 
 184      D7ED3A
 185 0034 BEE00523 		.ascii	"\276\340\005##\310(V\206\226\206\206\011\012\014\014"
 185      23C82856 
 185      86968686 
 185      090A0C0C 
 186 0044 C9600521 		.ascii	"\311`\005!@\022\244+\024(\011\244\231/24>\270\277\230"
 186      4012A42B 
 186      142809A4 
 186      992F3234 
 186      3EB8BF98 
 187 0058 31917121 		.ascii	"1\221q!#+C\004c&#\334\326\020FF\220\012\220\031\274"
 187      232B4304 
 187      632623DC 
 187      D6104646 
 187      900A9019 
 188 006d 29892589 		.ascii	")\211%\2119\371\351\351\251Ez\311\014\0008\371\0376"
 188      39F9E9E9 
 188      A9457AC9 
 188      0C0038F9 
 188      1F36
 189              		.text
 190              		.section	.gnu.lto_logfileWrite.aeb0d74beb31fa14,"",%progbits
 191 0000 789C8D52 		.ascii	"x\234\215R;hTA\024\275g\346\315\276\227\375`\020QR\250"
 191      3B685441 
 191      14BD67E6 
 191      CDBE97FD 
 191      60105152 
 192 0015 4BB032B0 		.ascii	"K\2602\260\021ccii\237E-7\353\346\361\300\017\254+\202"
 192      11636369 
 192      699F452D 
 192      37EBE6F1 
 192      C00FAC2B 
 193 002a 29324916 		.ascii	")2I\026\022Dd\0116~\212\004\211beac\021\311\323\302"
 193      12446409 
 193      367E8A04 
 193      89626561 
 193      6311C9D3 
 194 003f 0DE20721 		.ascii	"\015\342\007!\2156.V\242A\260H\341\207]\357\314\354"
 194      8D362E56 
 194      A241B048 
 194      E1875DEF 
 194      CCEC
 195 0051 DBB85AE8 		.ascii	"\333\270Z\350\20373\367\314\234s\317\2753\202\004\375"
 195      833733F7 
 195      CC9C73CF 
 195      BD338204 
 195      FD
 196 0062 F91DE3FF 		.ascii	"\371\035\343\377\033\303#<#E\020\215WD3\201\020ju\037"
 196      1BC3233C 
 196      2345108D 
 196      57443381 
 196      106A751F 
 197 0076 E9B4DC18 		.ascii	"\351\264\334\030%\235\225B=?\304\221\367l/G\036\224"
ARM GAS  /tmp/ccnGnAVN.s 			page 15


 197      259D9542 
 197      3D3FC491 
 197      F76C2F47 
 197      1E94
 198 0088 3BA400B3 		.ascii	";\244\000\263 \320\264\220\236\302\364)\030Io\230\226"
 198      20D0B490 
 198      9EC2F429 
 198      18496F98 
 198      96
 199 0099 B55E6CAD 		.ascii	"\265^l\255\264\327\305\215\353q}I\377\354t\200\010\234"
 199      B4D7C58D 
 199      EB717D49 
 199      FFEC7480 
 199      089C
 200 00ab 7E105406 		.ascii	"~\020T\006\235\344\000y;\011\257\337\217\3456\342\255"
 200      9DE40079 
 200      3B09AFDF 
 200      8FE536E2 
 200      AD
 201 00bc F9DB4357 		.ascii	"\371\333CW\226f\033\272\315\324\010R\320\356\377b.\306"
 201      96661BBA 
 201      CDD40852 
 201      D0EEFF62 
 201      2EC6
 202 00ce EF9BD7F6 		.ascii	"\357\233\327\366\350\226N\230\236\240\37463pL\374\315"
 202      E8964E98 
 202      9EA0FC36 
 202      33704CFC 
 202      CD
 203 00df 8C1BF1D7 		.ascii	"\214\033\361\327\346\325!\335\227\363\300\277r>\020"
 203      E6D521DD 
 203      97F3C0BF 
 203      723E10
 204 00ee 71ABD3D9 		.ascii	"q\253\323\331|\\\377\264\177\007(\202\2228\013\362x"
 204      7C5CFFB4 
 204      7F072882 
 204      92380BF2 
 204      78
 205 00ff 9552BCE2 		.ascii	"\225R\274\342\206\226\260\214a\3629\020\001\303\224"
 205      8696B08C 
 205      61F23910 
 205      01C394
 206 010e 364386E1 		.ascii	"6C\206\341\025\206\263\034\310\034\007w8\340OQ\235\213"
 206      1586B31C 
 206      C81C0777 
 206      38E04F51 
 206      9D8B
 207 0120 CFBBCD12 		.ascii	"\317\273\315\022\356\361x\002\362\207\271\265\262\365"
 207      EEF17802 
 207      F287B9B5 
 207      B2F5
 208 012e 3CCEA369 		.ascii	"<\316\243iy\021\302\314\362%\315\276{\324\376(J\270"
 208      7911C2CC 
 208      F225CDBE 
 208      7BD4FE28 
 208      4AB8
 209 0140 0F4521BC 		.ascii	"\017E!\274\021:\310\271o\321M6\353\207\220\306t`\255"
ARM GAS  /tmp/ccnGnAVN.s 			page 16


 209      113AC8B9 
 209      6FD14D36 
 209      EB8790C6 
 209      7460AD
 210 0153 4EF48A66 		.ascii	"N\364\212f\322\227\271\273H8\251\220'\013\312\004\012"
 210      D297B9BB 
 210      4838A990 
 210      270BCA04 
 210      0A
 211 0164 42F844AF 		.ascii	"B\370D\257\311O\200\364\024}\327\013z0\302@\031N\210"
 211      C94F80F4 
 211      147DD70B 
 211      7A30C240 
 211      194E88
 212 0177 93596E30 		.ascii	"\223Yn0E\227#\244\235[w\236\253\312t\323L&\012\031\026"
 212      459723A4 
 212      9D5B779E 
 212      ABCA74D3 
 212      4C260A19 
 213 018c 215AA7FA 		.ascii	"!Z\247\372\346\223\255f/Q\306\370\353\353i\021\2226"
 213      E693AD66 
 213      2F51C6F8 
 213      EBEB6911 
 213      9236
 214 019e 46A5257F 		.ascii	"F\245%\177\350y\314ZC\014\036O\220\234K\350$g\216\376"
 214      E879CC5A 
 214      430C1E4F 
 214      909C4BE8 
 214      24678EFE 
 215 01b2 7630B72D 		.ascii	"v0\267-6\316\332s;e\221\267\\\267\236~\356\266\312\261"
 215      36CEDA73 
 215      3B6591B7 
 215      5CB79E7E 
 215      EEB6CAB1 
 216 01c6 8FD043BD 		.ascii	"\217\320C\275`\256\232\317\276\341\007m\252\262\325"
 216      60AE9ACF 
 216      BEE1076D 
 216      AAB2D5
 217 01d5 BD251867 		.ascii	"\275%\030g\012$W\327\002\273\344w\375bmW\027\025\214"
 217      0A2457D7 
 217      02BBE477 
 217      FD626D57 
 217      17158C
 218 01e8 1A79185D 		.ascii	"\032y\030]s=\271\323\245Z\351\314\3710\254T\013eR\023"
 218      733DB9D3 
 218      A55AE9CC 
 218      F930AC54 
 218      0B655213 
 219 01fc 17270B87 		.ascii	"\027'\013\207\007.U\243Z\255r\2560&\253\225\013~7\372"
 219      072E55A3 
 219      5AAD72AE 
 219      3026AB95 
 219      0B7E37FA 
 220 0210 056C26BD 		.ascii	"\005l&\275\327"
 220      D7
 221              		.text
 222              		.section	.gnu.lto_logfileWriteCsv.aeb0d74beb31fa14,"",%progbits
ARM GAS  /tmp/ccnGnAVN.s 			page 17


 223 0000 789C6362 		.ascii	"x\234cb`b@\007\222@\234\005\304\374@\314\310\314\300"
 223      60624007 
 223      92409C05 
 223      C4FC40CC 
 223      C8CCC0
 224 0013 C834E11C 		.ascii	"\3104\341\034\003C#\007\023##\210\301\300\310P\317\304"
 224      03432307 
 224      13232388 
 224      C1C0C850 
 224      CFC4
 225 0025 581FC908 		.ascii	"X\037\311\010V\273\236\351\300\203\377\377\327\315;"
 225      56BB9EE9 
 225      C083FFFF 
 225      D7CD3B
 226 0034 B5600F23 		.ascii	"\265`\017#\023+\023c.#\0033\220`d\001\022 \223Y\031"
 226      132B1363 
 226      2E230333 
 226      90606401 
 226      12209359 
 227 0049 5A1A1A26 		.ascii	"Z\032\032&(00$\203\325\207\000I\220!\241@I \315|\221"
 227      28303024 
 227      83D58700 
 227      499021A1 
 227      404920CD 
 228 005f A1F1C1EE 		.ascii	"\241\361\301\356\245\214\211\214\013\031Y\031\"\030"
 228      A58C898C 
 228      0B195919 
 228      2218
 229 006d 3319E18E 		.ascii	"3\031\341\216\010ad\004\251\000\231\301\233\222X\222"
 229      08616404 
 229      A90099C1 
 229      9B925892 
 230 007d 98939F9E 		.ascii	"\230\223\237\236\236Z\244\227\314\000\000d\374 ;"
 230      9E5AA497 
 230      CC000064 
 230      FC203B
 231              		.text
 232              		.section	.gnu.lto_logfileClose.aeb0d74beb31fa14,"",%progbits
 233 0000 789C5D50 		.ascii	"x\234]P=K\003A\024\234\331\267\227\0041\304\302Z\255"
 233      3D4B0341 
 233      149CD9B7 
 233      970431C4 
 233      C25AAD
 234 0013 150CF85B 		.ascii	"\025\014\370[\022\324\362\274\310\261\240\010bg\221"
 234      12D4F2BC 
 234      C8B1A008 
 234      626791
 235 0022 3DB9C2C2 		.ascii	"=\271\302\302\"\245h\243\177@\013[\213\224\202\250\010"
 235      22A568A3 
 235      7F400B5B 
 235      8B9482A8 
 235      08
 236 0033 293C6DFC 		.ascii	")<m\374\001\376\001E\210o7D\304\205\367\301\356\314"
 236      01FE0145 
 236      886F3744 
 236      C485F7C1 
 236      EECC
ARM GAS  /tmp/ccnGnAVN.s 			page 18


 237 0045 BC376B60 		.ascii	"\2747k`\360\377\254i4\011\264\2642\001\315\340\021("
 237      F0FFAC69 
 237      3409B4B4 
 237      3201CDE0 
 237      1128
 238 0057 1AC6D8DB 		.ascii	"\032\306\330\333\005\370\031\031\265\341g\205vrm\311"
 238      05F81919 
 238      B5E16785 
 238      76726DC9 
 239 0067 D080E81B 		.ascii	"\320\200\350\033\261\354o2\212\\\233\341\373x|uz\177"
 239      B1EC6F32 
 239      8A5C9BE1 
 239      FB787C75 
 239      7A7F
 240 0079 51D1D409 		.ascii	"Q\321\324\011G\010w\011\253\035k\232\302\334\004\245"
 240      47087709 
 240      AB1D6B9A 
 240      C2DC04A5 
 241 0089 F7832520 		.ascii	"\367\203% \213\244\216\346\240\325\325G\255\362\200"
 241      8BA48EE6 
 241      A0D5D547 
 241      ADF280
 242 0098 A3D7979B 		.ascii	"\243\327\227\233O\246\274\324=r\332\025,+\373\034g\205"
 242      4FA6BCD4 
 242      3D72DA15 
 242      2C2BFB1C 
 242      6785
 243 00aa F77EDD51 		.ascii	"\367~\335Qr\312\006\035m\034\271\305\251\203'\224\303"
 243      72CA061D 
 243      6D1CB9C5 
 243      A9832794 
 243      C3
 244 00bb C529AB76 		.ascii	"\305)\253v\210/\177\354\347\034\223\214\023\210J9]\002"
 244      882F7FEC 
 244      E71C938C 
 244      13884A39 
 244      5D02
 245 00cd 77283F8A 		.ascii	"w(?\212\326/0H\325\377\376D\207\202Q[\272: \354\363"
 245      D62F3048 
 245      D5FFFE44 
 245      8782515B 
 245      BA3A20EC 
 246 00e2 AC760339 		.ascii	"\254v\0039\212T`\300\253o\363]5b\013\310\311\333|\240"
 246      8A5460C0 
 246      AB6FF35D 
 246      35620BC8 
 246      C9DB7CA0 
 247 00f6 31E083C3 		.ascii	"1\340\203\303f/=Hw\366\362|{\1775\303\017\352dD\213"
 247      662F3D48 
 247      77F6F27C 
 247      7B7F35C3 
 247      0FEA6444 
 248              		.text
 249              		.section	.gnu.lto_.symbol_nodes.aeb0d74beb31fa14,"",%progbits
 250 0000 789C4DCC 		.ascii	"x\234M\3149n\302P\024\205\341s\356\263c\006c;=%K\310"
 250      396EC250 
 250      1485E173 
ARM GAS  /tmp/ccnGnAVN.s 			page 19


 250      EEB36306 
 250      633B3D25 
 251 0016 86D2641B 		.ascii	"\206\322d\033\007\205\"n\"e\003\244\010[\240M\223H\230"
 251      0785226E 
 251      226503A4 
 251      085BA04D 
 251      934898
 252 0029 4C641E4A 		.ascii	"Ld\036JD$\330E\024l#\236_\363\353\273\272\367\031\014"
 252      4424D845 
 252      146C239E 
 252      5FF3EBBB 
 252      BAF7190C 
 253 003d 2744FDAC 		.ascii	"'D\375\254\240\200\213\005 \235\347\307\366Cq\307qN"
 253      A0808B05 
 253      209DE7C7 
 253      F64371C7 
 253      714E
 254 004f BBA36CC7 		.ascii	"\273\243l\307\313\234\341\234\010\344\354\236r~j\017"
 254      CB9CE19C 
 254      08E4EC9E 
 254      727E6A0F 
 255 005f 54D0E023 		.ascii	"T\320\340#\0256\370D\0354\270\240\242\006\237\251\226"
 255      1536F844 
 255      1D34B8A0 
 255      A2069FA9 
 255      96
 256 0070 273FA876 		.ascii	"'?\250v\315\341\220|\247:^oT\327\353\223\212\275^\251"
 256      CDE1907C 
 256      A73A5E6F 
 256      54D7EB93 
 256      8ABD5EA9 
 257 0084 9ED70B95 		.ascii	"\236\327\013\225x}Q\251\3277\225\355\345\020c\264\374"
 257      787D51A9 
 257      D73795ED 
 257      E51063B4 
 257      FC
 258 0095 DBB68B49 		.ascii	"\333\266\213I\325\016n\313\262W\333RL\256\327\333&\030"
 258      D50E6ECB 
 258      B257DB52 
 258      4CAED7DB 
 258      2618
 259 00a7 CD367D67 		.ascii	"\3156}g\300\351\331\240\314\252(\372.\000\256\312\265"
 259      C0E9D9A0 
 259      CCAA28FA 
 259      2E00AECA 
 259      B5
 260 00b8 20A9CF42 		.ascii	" \251\317B\342fz\344\242\014\277%\333\207\325/\370\007"
 260      E2667AE4 
 260      A20CBF25 
 260      DB87D52F 
 260      F807
 261 00ca 5BEE6EB7 		.ascii	"[\356n\267"
 262              		.text
 263              		.section	.gnu.lto_.refs.aeb0d74beb31fa14,"",%progbits
 264 0000 789C6362 		.ascii	"x\234cb`b\340e\200\000f&Ff\006 dd\001\222\000\0027\000"
 264      6062E065 
 264      80006626 
ARM GAS  /tmp/ccnGnAVN.s 			page 20


 264      46660620 
 264      64640192 
 265 0018 29       		.ascii	")"
 266              		.text
 267              		.section	.gnu.lto_.decls.aeb0d74beb31fa14,"",%progbits
 268 0000 789CBD7D 		.ascii	"x\234\275}{xTE\266\357\336\273\237!\341\245\216\203"
 268      7B785445 
 268      B6EFDEBB 
 268      9F21E1A5 
 268      8E83
 269 0012 C868CFB9 		.ascii	"\310h\317\271\343\375\370\346\236!\240\316\2143\337"
 269      E3FDF8E6 
 269      9E21A0CE 
 269      8C33DF
 270 0021 B9334212 		.ascii	"\2713B\022 #\257/\211\316x\357=\267m\222\016\3641I\307"
 270      2023AF2F 
 270      89CE78EF 
 270      3DB76D92 
 270      0EF43149 
 271 0036 EE0E8F7B 		.ascii	"\356\016\217{\377\230\346aPDy\011\004\301\360P\2207"
 271      FF98E661 
 271      50447909 
 271      04C1F050 
 271      9037
 272 0048 84C82320 		.ascii	"\204\310# \320\240\022\020G!\274\204\010\004\020\004"
 272      D0A01210 
 272      4721BC84 
 272      08041004 
 273 0058 D1C35302 		.ascii	"\321\303S\002\004\310]\265\366\336\335\265\253\367\336"
 273      04C85DB5 
 273      F6DEDDB5 
 273      ABF7DE
 274 0067 5DBB3DE7 		.ascii	"]\273=\347\366\367\355\325\325\225]\277Zk\325\252U\253"
 274      F6F7EDD5 
 274      D5955DBF 
 274      5A6BD5AA 
 274      55AB
 275 0079 AAF6AE48 		.ascii	"\252\366\256H\202$\010vAh\207\217s\266 \370\272\010"
 275      82240876 
 275      4168878F 
 275      73B620F8 
 275      BA08
 276 008b 42074110 		.ascii	"B\007A\020\376\004W'\001\377$,\202k1\\\313\340Z\011"
 276      FE045727 
 276      01FF242C 
 276      826B315C 
 276      CBE05A09 
 277 009f D72AB8D6 		.ascii	"\327*\270\326\300\265\026\256:\270\316\302u\001\256"
 277      C0B516AE 
 277      3AB8CEC2 
 277      7501AE
 278 00ae A5005507 		.ascii	"\245\000U\007W\273 \177\272\302\265\011~\177\013\327"
 278      57BB207F 
 278      BAC2B509 
 278      7E7F0BD7 
 279 00be E33641F8 		.ascii	"\3436A\370\034\256&\270\216\303\325\002\327%\270\332"
 279      1CAE26B8 
ARM GAS  /tmp/ccnGnAVN.s 			page 21


 279      8EC3D502 
 279      D725B8DA 
 280 00ce E012A112 		.ascii	"\340\022\241\022\011\256.pu\205+\027\256\277\3005\004"
 280      09AE2E70 
 280      75852B17 
 280      AEBFC035 
 280      04
 281 00df AEA17089 		.ascii	"\256\241p\211\200Sh\0274\037\202\233\011\337.\273\314"
 281      80536817 
 281      341F829B 
 281      09DF2EBB 
 281      CC
 282 00f0 6796C2EB 		.ascii	"g\226\302\353\363@^\204\353\005\270\376\007\\6\270\376"
 282      F3405E84 
 282      EB05B8FE 
 282      075C36B8 
 282      FE
 283 0101 275CFF4B 		.ascii	"'\\\377K)oW\312vQ\352\304\272!\357\014\220o$m\035\204"
 283      296F57CA 
 283      7651EAC4 
 283      BA21EF0C 
 283      906F246D 
 284 0117 EF8E8A5C 		.ascii	"\357\216\212\\j\035\017\302\375\367\340\367E\270\256"
 284      6A1D0FC2 
 284      FDF7E0F7 
 284      45B8AE
 285 0126 C27505AE 		.ascii	"\302u\005\256\377m\327\352\350\001\205\347\273\222\214"
 285      FF6DD7EA 
 285      E80185E7 
 285      BB928C
 286 0135 4D70BA2A 		.ascii	"Mp\272*y=l\332:\210^\272\303\367\0236m\035\004\277N"
 286      793D6CDA 
 286      3A885EBA 
 286      C3F71336 
 286      6D1D04BF 
 287 014a E157D5AD 		.ascii	"\341W\325\255\327.\353\367\003\270^\202\364sp\371\354"
 287      D72EEBF7 
 287      03B85E82 
 287      F47370F9 
 287      EC
 288 015b 729D79F0 		.ascii	"r\235y\360=\034\256b\270\374\366D\373lV\332Cm7\202\267"
 288      3D1CAE62 
 288      B8FCF644 
 288      FB6C56DA 
 288      436D3782 
 289 0170 1AF2D6C2 		.ascii	"\032\362\326\302\265\016\256z\271\371\221\217\277(\272"
 289      B50EAE7A 
 289      B9F9918F 
 289      BF28BA
 290 017f 27FA7140 		.ascii	"'\372q@\336n\310k\204\353S\270\366\332\222\333\200\264"
 290      DE6EC86B 
 290      84EB53B8 
 290      F6DA92DB 
 290      80B4
 291 0191 67178677 		.ascii	"g\027\206w\257R\277Z\037\251\237\360\250\332\211\312"
 291      AF52BF5A 
 291      1FA99FF0 
ARM GAS  /tmp/ccnGnAVN.s 			page 22


 291      A8DA89CA 
 292 01a1 2BE189C8 		.ascii	"+\341\211\310A\344\"z!|\330\024LR\177\256\322.\373u"
 292      41E4227A 
 292      217CD814 
 292      4C527FAE 
 292      D22EFB75 
 293 01b5 EA2536E4 		.ascii	"\352%6\344\024d\035\3218\245p\337\005\012OR\356\375"
 293      14641DD1 
 293      38A570DF 
 293      050A4F52 
 293      EEFD
 294 01c7 56497F05 		.ascii	"VI\177\005\351\243\214\376\211-\222\373\367*m/*y\354"
 294      E9A38CFE 
 294      892D92FB 
 294      F72A6D2F 
 294      2A79EC
 295 01da 87D82B91 		.ascii	"\207\330+\221\217\350\205\2667\265\255\356Q\3660\002"
 295      8FE885B6 
 295      37B5ADEE 
 295      51F63002 
 296 01ea F2FE05FE 		.ascii	"\362\376\005\3766\222\261\003\202Al\232\300\237'|\301"
 296      3692B103 
 296      82416C9A 
 296      C09F277C 
 296      C1
 297 01fb 7581A9EB 		.ascii	"u\201\251\353\222\302\317E\212\037\222Gn\273\005\344"
 297      92C2CF45 
 297      8A1F9247 
 297      6EBB05E4 
 298 020b 065C3799 		.ascii	"\006\\7\2312\244\017\271\205\004\037\017\333\023\274"
 298      32A40FB9 
 298      85041F0F 
 298      DB13BC
 299 021a 04213DCC 		.ascii	"\004!=\314.\363I\363B\312\250}\253\235\301\313\024&"
 299      2EF349F3 
 299      42CAA87D 
 299      AB9DC1CB 
 299      1426
 300 022c 47A3E3A3 		.ascii	"G\243\343\243\013\253\243\003\367t\352*L\213\302\307"
 300      0BABA303 
 300      F774EA2A 
 300      4C8BC2C7 
 301 023c 53D32943 		.ascii	"S\323)Cx\215d\267,\211v\353&\010\177\023}\"d\2711\221"
 301      788D64B7 
 301      2C8976EB 
 301      26087F13 
 301      7D2264B9 
 302 0252 9581404F 		.ascii	"\225\201@O\010\357\303\255p\277\344\023\337\0233\240"
 302      08EFC3AD 
 302      70BFE413 
 302      DF1333A0 
 303 0262 22494C56 		.ascii	"\"ILV%\371\310\177\377\265\260\\\276\377\014{\033\001"
 303      25F9C87F 
 303      FFB5B05C 
 303      BEFF0C7B 
 303      1B01
 304 0274 25772452 		.ascii	"%w$R\355b\274\316\227\324:\263\024\254\305bWL!\207Q"
ARM GAS  /tmp/ccnGnAVN.s 			page 23


 304      ED62BCCE 
 304      97D43AB3 
 304      14ACC562 
 304      574C2187 
 305 0289 8571BC43 		.ascii	"\205q\274C)\341QK\330\225\022\037 \266\240f\307\023"
 305      29E1514B 
 305      D895121F 
 305      20B6A066 
 305      C713
 306 029b 9954FD7A 		.ascii	"\231T\375z\345\026\211\352\035\002\245\216\232N&\372"
 306      E51689EA 
 306      1D02A58E 
 306      9A4E26FA 
 307 02ab 98D6B26D 		.ascii	"\230\326\262m\341m)\032u\373\304e\250\223\001\"\000"
 307      E16D291A 
 307      75FBC465 
 307      A8930122 
 307      00
 308 02bc 2D157F1D 		.ascii	"-\025\177\035W\205\302\013\375[\275\201\200\305\325"
 308      5785C20B 
 308      FD5BBD81 
 308      80C5D5
 309 02cb A068C1A0 		.ascii	"\240h\301\240yd5)lD%\225\017\217\002\272\312\262\216"
 309      79643529 
 309      6C442595 
 309      0F8F02BA 
 309      CAB28E
 310 02de 561BE8E8 		.ascii	"V\033\350\350\361\024:Z\231\320\021\017\253\267\342"
 310      F1143A5A 
 310      99D0110F 
 310      ABB7E2
 311 02ed AC662B00 		.ascii	"\254f+\000k-\263\272\316\200\325^)X]c\300\352\003\302"
 311      6B2DB3BA 
 311      CE80D55E 
 311      29585D63 
 311      C0EA03C2 
 312 0301 7464754F 		.ascii	"tduO\242a\243\377E-\274\316\236h\332\206\335?\364\301"
 312      A261A3FF 
 312      452DBCCE 
 312      9E68DA86 
 312      DD3FF4C1 
 313 0315 A65D2F3E 		.ascii	"\246]/>\000M\033\025\265m\233\032\207p\261\001\312\312"
 313      004D1B15 
 313      B56D9B1A 
 313      8770B101 
 313      CACA
 314 0327 A5E40E14 		.ascii	"\245\344\016\024\333\272;+j\227\363\005\015\236\346"
 314      DBBA3B2B 
 314      6A97F305 
 314      0D9EE6
 315 0336 F34B6121 		.ascii	"\363Ka!p\034\333\266{\253\030\255\316R\255\253\032Y"
 315      701CDBB6 
 315      7BAB18AD 
 315      CE52ADAB 
 315      1A59
 316 0348 2045F52C 		.ascii	" E\365,2\256 J+Z\270\355\2733\327\275\244\202\275e\031"
 316      32AE204A 
ARM GAS  /tmp/ccnGnAVN.s 			page 24


 316      2B5AB8ED 
 316      BB33D7BD 
 316      A482BD65 
 317 035d CCAD01DB 		.ascii	"\314\255\001\333O\203\315\260\014\326E\003\326D\203"
 317      4F83CDB0 
 317      0CD64503 
 317      D64483
 318 036c D55806EB 		.ascii	"\325X\006\353\246\001;D\203-\260\014\346\321\200\035"
 318      A6013B44 
 318      832DB00C 
 318      E6D1801D 
 319 037c A1C19658 		.ascii	"\241\301\226X\006\353\251\001\373\252:k\377K\212s\211"
 319      06EBA901 
 319      FBAA3A6B 
 319      FF4B8A73 
 319      89
 320 038d 56477B2E 		.ascii	"VG{.\353D\351C).%,p\333\272\2356\264\300O\260\3665\""
 320      EB44E943 
 320      292E252C 
 320      70DBBA9D 
 320      36B4C04F 
 321 03a5 EB5D6C8C 		.ascii	"\353]l\214w\261i\275\213-#\221h'#\201$\324\263\022h"
 321      77B169BD 
 321      8B2D2391 
 321      68272381 
 321      24D4B312 
 322 03ba EAD593A0 		.ascii	"\352\325\223\2407-\001t\212#\257\324Dc\343m*S\033y\000"
 322      372D0174 
 322      8A23AFD4 
 322      4463E36D 
 322      2A531B79 
 323 03cf DDC636D9 		.ascii	"\335\3066\331V=\345\221\350\302]\242\242\025\271\217"
 323      563DE591 
 323      E8C25DA2 
 323      A215B98F 
 324 03df EAF76A55 		.ascii	"\352\367jU+7\024\227\273\017\031\210%i\305\305h\305"
 324      2B371497 
 324      BB0F1988 
 324      2569C5C5 
 324      68C5
 325 03f1 A5D58A2B 		.ascii	"\245\325\212+#\221 \241qg\242\227\335\254\030\232\232"
 325      239120A1 
 325      7167A297 
 325      DDAC189A 
 325      9A
 326 0402 F5C4D098 		.ascii	"\365\304\320\230IKC\365\251q\342\364\011\321=\275U\276"
 326      494B43F5 
 326      A971E2F4 
 326      09D13DBD 
 326      55BE
 327 0414 0EF02076 		.ascii	"\016\360 v1V\314\354\306\254i>\025\354k\313`Z+\256\241"
 327      3156CCEC 
 327      C6AC693E 
 327      15EC6BCB 
 327      605A2BAE 
 328 0429 C1CEF180 		.ascii	"\301\316\361\200u3\346\354\035\032\354\222e0-g\363i"
 328      7533E6EC 
ARM GAS  /tmp/ccnGnAVN.s 			page 25


 328      1D1AEC92 
 328      65302D67 
 328      F369
 329 043b B0EB3C60 		.ascii	"\260\353<`\036c\316ji\2606\313`Z\316\326\321`\023$\016"
 329      1E63CE6A 
 329      69B036CB 
 329      605ACED6 
 329      D1601324 
 330 0450 B09EC69C 		.ascii	"\260\236\306\234\255\247\301\246X\006\2439\213\3066"
 330      ADA7C1A6 
 330      5806A339 
 330      8BC636
 331 045f 3466C2A8 		.ascii	"4f\302\250@\217\271\313\250\360 \016\026U\007\241\026"
 331      408FB9CB 
 331      A8F0200E 
 331      165507A1 
 331      16
 332 0470 CB83EE69 		.ascii	"\313\203\356i\203A7\036NJ\302\333\254\020L\305J\272"
 332      8341371E 
 332      4E4AC2DB 
 332      AC104CC5 
 332      4ABA
 333 0482 B78E4EF4 		.ascii	"\267\216N\364>\364P\351\0237\212O\000\335$\376\022h"
 333      3EF450E9 
 333      13378A4F 
 333      00DD24FE 
 333      1268
 334 0494 03D2AD48 		.ascii	"\003\322\255H\267!\335\201t'\322\217\221\356A\372\031"
 334      B721DD81 
 334      7427D28F 
 334      91EE41FA 
 334      19
 335 04a5 D22F911E 		.ascii	"\322/\221\036@z\020\351a\244G\221\036C\332\214\364\004"
 335      407A10E9 
 335      61A44791 
 335      1E43DA8C 
 335      F404
 336 04b7 D25340E3 		.ascii	"\322S@\343\037#\205\324\031D\023\361H1\226\"R\214\315"
 336      1F2385D4 
 336      194413F1 
 336      48319622 
 336      528CCD
 337 04ca AAEE1CB5 		.ascii	"\252\356\034\265s\004\226>\361\034\012\377\036\023*"
 337      7304963E 
 337      F11C0AFF 
 337      1E132A
 338 04d9 2687CC30 		.ascii	"&\207\3140RJ\254\357{\217\0158S\303\030\211|\326B\000"
 338      524AACEF 
 338      7B8F0D38 
 338      53C31889 
 338      7CD64200 
 339 04ed 25D23E48 		.ascii	"%\322>H\361\323\367\232V\365B?}\021\343\247\325\014"
 339      F1D3F79A 
 339      56F5423F 
 339      7D11E3A7 
 339      D50C
 340 04ff AF296124 		.ascii	"\257)a$a\003\026\371\236\015\241\246\373<rn\352\000"
ARM GAS  /tmp/ccnGnAVN.s 			page 26


 340      610316F9 
 340      9E0DA1A6 
 340      FB3C726E 
 340      EA00
 341 0511 6AD6A2BD 		.ascii	"j\326\242\275btFV*\376\027\332\324\212\237N\360\337"
 341      62744656 
 341      2AFE17DA 
 341      D48A9F4E 
 341      F0DF
 342 0523 3AF39327 		.ascii	":\363\223'\221\377\253\310\377\265\324\374ka\010w7X"
 342      91FFABC8 
 342      FFB5D4FC 
 342      6B610877 
 342      3758
 343 0535 DE0F3762 		.ascii	"\336\0177b\370w\203\213\373\023\223\026\340\330\250"
 343      F877838B 
 343      FB139316 
 343      E0D8A8
 344 0544 C73EDC20 		.ascii	"\307>\334 \322\252\323L\012$\230\013\212\272\032\326"
 344      D2AAD34C 
 344      0A24980B 
 344      8ABA1AD6 
 345 0554 DCE6136F 		.ascii	"\334\346\023o\213\022\320;,\227\365\223\220\313;\\\\"
 345      8B12D03B 
 345      2C97F593 
 345      90CB3B5C 
 345      5C
 346 0565 6E684CD6 		.ascii	"nhL\326\361\303\302,\305\323D\305\210[\230\204F\377"
 346      F1C3C22C 
 346      C5D344C5 
 346      885B9884 
 346      46FF
 347 0577 6A749CF8 		.ascii	"jt\234\370J\352\331e\273\350\006\001^\267\031N/\311"
 347      4AEAD965 
 347      BBE80601 
 347      5EB7194E 
 347      2FC9
 348 0589 0D8262C4 		.ascii	"\015\202b\304rZM\231X\363}\361aL\3310.\201\214?g\002"
 348      725A4D99 
 348      58F37DF1 
 348      614CD930 
 348      2E818C3F 
 349 059f 793E313D 		.ascii	"y>1=6*x/\321\015$a\252MT\364e\342\2715x\032]E\327G\243"
 349      362A782F 
 349      D10D2461 
 349      AA4D54F4 
 349      65E2B935 
 350 05ba 194E1953 		.ascii	"\031N\031S\022\346Y\006\363\030\203-\343\0013\216\303"
 350      12E65906 
 350      F318832D 
 350      E301338E 
 350      C3
 351 05cb B460EB2C 		.ascii	"\264`\353,\203\351pfl\020rc\031)|\212\224\334RJ\232"
 351      83E97066 
 351      6C107263 
 351      19297C8A 
 351      94DC524A 
ARM GAS  /tmp/ccnGnAVN.s 			page 27


 352 05e0 3F486C9D 		.ascii	"?Hl\235\367\351N\021\202l\370\303T\211\214\271-6m\367"
 352      F7E94E11 
 352      826CF8C3 
 352      54898CB9 
 352      2D366DF7 
 353 05f4 E587AA5F 		.ascii	"\345\207\252_\360\321\037\320\017\314@\240Z\373O\217"
 353      F0D11FD0 
 353      0FCC40A0 
 353      5AFB4F8F 
 354 0604 37ADDFAE 		.ascii	"7\255\337\256(@\177\354I\271J\321:o\365\177C\021\346"
 354      28407FEC 
 354      49B94AD1 
 354      3A6FF57F 
 354      4311E6
 355 0617 A008CBED 		.ascii	"\240\010\313\355\272\272\340\000\252_P\373\014\002\275"
 355      BABAE000 
 355      AA5F50FB 
 355      0C02BD
 356 0626 83407549 		.ascii	"\203@uI\272\260\270\336a\345^#{\231-eR0q\253!\315\216"
 356      BAB0B8DE 
 356      61E55E23 
 356      7B992D65 
 356      523071AB 
 357 063d 098E3EFE 		.ascii	"\011\216>\376\206D\365\361\255v\016\3437\016\334a\334"
 357      8644F5F1 
 357      AD760EE3 
 357      370EDC61 
 357      DC
 358 064e F8A1CFDC 		.ascii	"\370\241\317\334hl\242-\335\016\260\310\270\003\304"
 358      686CA22D 
 358      DD0EB0C8 
 358      B803C4
 359 065d C532B507 		.ascii	"\3052\265\007\343X\304'\326HO\244\257\352%?]\325\013"
 359      E358C427 
 359      D6484FA4 
 359      AFEA253F 
 359      5DD50B
 360 0670 6955C72C 		.ascii	"iU\307,\253\332C\253Z\353\264v\363\200\031Ok~\232\323"
 360      ABDA43AB 
 360      5AEBB476 
 360      F380194F 
 360      6B7E9AD3 
 361 0684 5A6DDC66 		.ascii	"Zm\334f\272\243\367\263\224\323y\226\366\250JG\333x"
 361      BAA3F7B3 
 361      94D37996 
 361      F6A84A47 
 361      DB78
 362 0696 FE8A0B3B 		.ascii	"\376\212\013;Z\235D\202\217j\207n\360a\014CX\370Pb\206"
 362      5A9D4482 
 362      8F6A876E 
 362      F0610C43 
 362      58F85062 
 363 06ab F556BF47 		.ascii	"\365V\277G\316M=\250\337^\202\203\272\352=gc\375\244"
 363      CE4D3DA8 
 363      DF5E8283 
 363      BAEA3D67 
 363      63FDA4
ARM GAS  /tmp/ccnGnAVN.s 			page 28


 364 06be 685AE35E 		.ascii	"hZ\343^\354\216\237L\214e\254\005\226\261<z\214\012"
 364      EC8E9F4C 
 364      8C65AC05 
 364      96B13C7A 
 364      8C0A
 365 06d0 4952C214 		.ascii	"IR\302\024\002\215{\243D\302\372\315\022GX\277Nc\320"
 365      028D7BA3 
 365      44C2FACD 
 365      124758BF 
 365      4E63D0
 366 06e3 5C06BC8A 		.ascii	"\\\006\274\2126\340\017\034Vm\216\225Em\010\237x\027"
 366      36E00F1C 
 366      566D8E95 
 366      456D089F 
 366      7817
 367 06f5 67231391 		.ascii	"g#\023\221\371j\244\257!\235\214t\001\322\345HW\362"
 367      F96AA4AF 
 367      219D8C74 
 367      01D2E548 
 367      57F2
 368 0707 88D64AC7 		.ascii	"\210\326J\307-\353\220\317\033\351\306--\255\007[\373"
 368      2DEB90CF 
 368      1BE9C62D 
 368      2DAD075B 
 368      FB
 369 0718 CC89C6C6 		.ascii	"\314\211\306\306\331\\B\265\034\313\215O5T\200\005;"
 369      D95C42B5 
 369      1CCB8D4F 
 369      35548005 
 369      3B
 370 0729 D182B749 		.ascii	"\321\202\267I.\340\340C\306\2029\200\210\0241(\254\261"
 370      2EE0E043 
 370      C6823980 
 370      88143128 
 370      ACB1
 371 073b E186B11E 		.ascii	"\341\206\261\0369\327\304\206\261\343I\302\016\207<"
 371      39D7C486 
 371      B1E349C2 
 371      0E873C
 372 074a 9FB06724 		.ascii	"\237\260g$\362>K\344\211\324\255\007\023\331\022\225"
 372      F23E4BE4 
 372      89D4AD07 
 372      13D91295 
 373 075a 7D32916D 		.ascii	"}2\221m\243\262\177Hd\333\251\354\366D\266\203\312~"
 373      A3B27F48 
 373      64DBA9EC 
 373      F644B683 
 373      CA7E
 374 076c DD19CF76 		.ascii	"\335\031\317vR\331\263\022\331.*{Q\"\333M\265\210\351"
 374      52D9B312 
 374      D92E2A7B 
 374      5122DB4D 
 374      B588E9
 375 077f C0995012 		.ascii	"\300\231P\022\314\212\261\013\354\222l\272\305`\032"
 375      CC8AB10B 
 375      EC926CBA 
 375      C5601A
ARM GAS  /tmp/ccnGnAVN.s 			page 29


 376 078e E6642CC1 		.ascii	"\346d,\301\322zh\024-a\034\031\335\324\345\007\262\222"
 376      D27A6814 
 376      2D611C19 
 376      DDD4E507 
 376      B292
 377 07a0 403AB6EE 		.ascii	"@:\266\356\034\216pwD\262\272\372pT\322_}H,>\324\263"
 377      1C8E7077 
 377      44B2BAFA 
 377      7054D25F 
 377      7D482C3E 
 378 07b6 5268AB4D 		.ascii	"Rh\253M\025\356\342\372+\0319\010o\222\260\211\013-"
 378      15EEE2FA 
 378      2B193908 
 378      6F92B089 
 378      0B2D
 379 07c8 D5D0A1FA 		.ascii	"\325\320\241\372\267\255,\232"
 379      B7AD2C9A 
 380 07d0 C5A5A2D6 		.ascii	"\305\245\242\326I\357\362\316\372^R\341\262\342\375"
 380      49EFF2CE 
 380      FA5E52E1 
 380      B2E2FD
 381 07df 2E767BB7 		.ascii	".v{\267\350\321\231\371in\365\211-`&\251\356\"\367\235"
 381      E8D199F9 
 381      696EF589 
 381      2D6026A9 
 381      EE22F79D 
 382 07f3 61C7901D 		.ascii	"a\307\220\035\362\376\305\031\256Q\344h\265\261(\232"
 382      F2FEC519 
 382      AE51E468 
 382      B5B1289A 
 383 0803 69697CE2 		.ascii	"ii|\342\334;.HK\315\315+\377\206\016\344<\016\201\257"
 383      DC3B2E48 
 383      4BCDCD2B 
 383      FF860EE4 
 383      3C0E81AF 
 384 0817 BB52AF1F 		.ascii	"\273R\257\037h`|\342\005\211\314n/\262\"\3748\017E\270"
 384      68607CE2 
 384      0589CC6E 
 384      2FB222FC 
 384      380F45B8 
 385 082b C825C2BD 		.ascii	"\310%\302\275\346\332\237G[b\"\277\343;z'\326}\002\316"
 385      E6DA9F47 
 385      5B6222BF 
 385      E33B7A27 
 385      D67D02CE 
 386 083f 3CBE47CF 		.ascii	"<\276G\317\267\333\225\226\347\273\314z\276\015d\001"
 386      B7DB9596 
 386      E7BBCC7A 
 386      BE0D6401 
 387 084f 49CE4FED 		.ascii	"I\316O\355\373\016\270\222}\337\327.]\337w\316\245\353"
 387      FB0EB892 
 387      7DDFD72E 
 387      5DDF77CE 
 387      A5EB
 388 0861 FB2EBB74 		.ascii	"\373.\273t}\337\035\227\326\367\011\034\376\3512\345"
 388      7DDF1D97 
 388      D6F7091C 
ARM GAS  /tmp/ccnGnAVN.s 			page 30


 388      FEE932E5 
 389 0871 9FAEA07F 		.ascii	"\237\256\240\177\272j\340\237|\342\241x\233\361\372"
 389      BA6AE09F 
 389      7CE2A178 
 389      9BF1FA
 390 0880 274D7BB5 		.ascii	"'M{\265\314\275\271\177\314v\350\217\257;\323\354?\315"
 390      CCBDB97F 
 390      CC76E88F 
 390      AF3BD3EC 
 390      3FCD
 391 0892 CD3CFDE7 		.ascii	"\315<\375\347>g\377\211\332\030\343\233\323\214\306"
 391      3E67FF89 
 391      DA18E39B 
 391      D38CC6
 392 08a1 47F2531B 		.ascii	"G\362S\033\337\202\346\332\344\376\303D\245\177\372"
 392      DF82E6DA 
 392      E4FEC344 
 392      A57FFA
 393 08b0 99A11F9D 		.ascii	"\231\241\037\235hc\202\322s\022\307\242\207\242\207"
 393      686382D2 
 393      7312C7A2 
 393      87A287
 394 08bf 7BEF3C44 		.ascii	"{\357<D\030\235`#\261\365$\267\326\2065\014\311\025"
 394      189D6023 
 394      B1F524B7 
 394      D686350C 
 394      C915
 395 08d1 1931F19A 		.ascii	"\0311\361\232-\323@\316\244\277\301\240\210\365\020"
 395      2DD340CE 
 395      A4BFC1A0 
 395      88F510
 396 08e0 E5A41767 		.ascii	"\345\244\027g6\350)L\247\235Z\342\016\276G\\\342\226"
 396      36E8294C 
 396      A79D5AE2 
 396      0EBE475C 
 396      E296
 397 08f2 DB8B0FDC 		.ascii	"\333\213\017\334\027\353\242\321.>q\212\215\270\234"
 397      17EBA2D1 
 397      2E3E718A 
 397      8DB89C
 398 0901 23EE942E 		.ascii	"#\356\224.G\013\204\223!\266\305\353\333\367\210\350"
 398      470B8493 
 398      21B6C5EB 
 398      DBF788E8 
 399 0911 C7A6A66E 		.ascii	"\307\246\246n\363\211\023b\233\332\367H8}\304\361r\202"
 399      F3891362 
 399      9BDAF748 
 399      387DC4F1 
 399      7282
 400 0923 E90A854F 		.ascii	"\351\012\205O\234\206\335\211g\207\353,\01235=\325\002"
 400      9C86DD89 
 400      6787EB2C 
 400      0A33353D 
 400      D502
 401 0935 5F9B8918 		.ascii	"_\233\211\030dF0\303F\034\305\267\226\341<\032\270-"
 401      644630C3 
 401      461CC5B7 
ARM GAS  /tmp/ccnGnAVN.s 			page 31


 401      96E13C1A 
 401      B82D
 402 0947 5AB84B3C 		.ascii	"Z\270K<pF\3439\300}\244\205\273l\031N\313\335v-\334"
 402      7046E339 
 402      C07DA485 
 402      BB6C194E 
 402      CBDD762D 
 403 095c 751E38A3 		.ascii	"u\0368\243%\001\200\333\257\205\273e\031N\313]\223\026"
 403      250180DB 
 403      AF85BB65 
 403      194ECB5D 
 403      9316
 404 096e EE2E0F9C 		.ascii	"\356.\017\234^\364\242\367\241\015\030\314\313F\314"
 404      5EF4A2F7 
 404      A10D18CC 
 404      CB46CC
 405 097d 6BBA8DCC 		.ascii	"k\272\215\314:\336F:\033i\015\322w\220\316GZkK1'Q:\331"
 405      3ADE463A 
 405      1B690DD2 
 405      7790CE47 
 405      5A6B4B31 
 406 0995 CC15071E 		.ascii	"\314\025\007\036\337\214}\354\015\364,\215\031\246\236"
 406      DF8C7DEC 
 406      0DF42C8D 
 406      19A69E
 407 09a4 658A8154 		.ascii	"e\212\201T\370h\220\211gY\314z\226\246\014\253\236\205"
 407      F8689089 
 407      6759CC7A 
 407      96A60CAB 
 407      9E85
 408 09b6 D2398E2B 		.ascii	"\3229\216+\261\212m\353\242\321W\235\374\373\367\255"
 408      B18A6DEB 
 408      A2D1579D 
 408      FCFBF7AD 
 409 09c6 F336FD33 		.ascii	"\3636\3753\366\374%\330N\307\030Q\371\201\352\027| "
 409      F6FC25D8 
 409      4EC71851 
 409      F981EA17 
 409      7C20
 410 09d8 2F412E43 		.ascii	"/A.C\2403\014\220\365\007\001,\335\014\023\036Vy\326"
 410      A0330C90 
 410      F507012C 
 410      DD0C131E 
 410      5679D6
 411 09eb 36F94179 		.ascii	"6\371Ay-\212\362T]\\\267\214\330%\251\215e\023\035\207"
 411      2D8AF254 
 411      5D5CB78C 
 411      D825A98D 
 411      65131D87 
 412 09ff 263A1E8D 		.ascii	"&:\036\215p2\322\367\221\256\242\015R\022Z\223t&\017"
 412      7032D2F7 
 412      91AEA20D 
 412      52125A93 
 412      74260F
 413 0a12 C1145E62 		.ascii	"\301\024^b\254\026R#\032\031\345]zy`\\\007Q\033\314"
 413      AC165223 
 413      1A19E55D 
ARM GAS  /tmp/ccnGnAVN.s 			page 32


 413      7A79605C 
 413      07511BCC 
 414 0a26 5833BA58 		.ascii	"X3\272X\355\311\254i\276\224\233Wv\025)7a1u\353wv\333"
 414      EDC9AC69 
 414      BE949B57 
 414      76152937 
 414      613175EB 
 415 0a3d 82DD6C3D 		.ascii	"\202\335l=\016e;;\244\336\275\322\340\300T\031\213l"
 415      0E653B3B 
 415      A4DEBDD2 
 415      E0C05419 
 415      8B6C
 416 0a4f 6086B396 		.ascii	"`\206\263\226c\033O?Z\203\310\033\270b\2306\2759\200"
 416      631B4F3F 
 416      5A83C81B 
 416      B8629836 
 416      BD3980
 417 0a62 CC96910E 		.ascii	"\314\226\221\016\033\330\316\373z\246\312Jza\301\375"
 417      1BD8CEFB 
 417      7AA6CA4A 
 417      7A61C1FD 
 418 0a72 DDB8FBDE 		.ascii	"\335\270\373\336\200\036g\232e0m\243\314l\234o\361\211"
 418      801E679A 
 418      65306DA3 
 418      CC6C9C6F 
 418      F189
 419 0a84 95535B2E 		.ascii	"\225S[.>\262\015U\266\035\215\277%\223\265Ee\0055a\213"
 419      3EB20D55 
 419      B61D8DBF 
 419      2593B545 
 419      65053561 
 420 0a99 3C23FA05 		.ascii	"<#\372\005\036A\214\347\300\320\222\007z4`\250\254F"
 420      1E418CE7 
 420      C0D09207 
 420      7A3460A8 
 420      AC46
 421 0aab C74E2341 		.ascii	"\307N#A`D\305\312>f\255\341\324\216\003\277\221\255"
 421      6044C5CA 
 421      3E66ADE1 
 421      D48E03BF 
 421      91AD
 422 0abd E1632E6B 		.ascii	"\341c.k\330\264o\016W\200\2660\276Q\371+\254\276.\213"
 422      D8B46F0E 
 422      5780B630 
 422      BE51F92B 
 422      ACBE2E8B 
 423 0ad1 54BF87AD 		.ascii	"T\277\207\255\276\355\354\305?\311\325\357\341\252\276"
 423      BEEDECC5 
 423      3FC9D5EF 
 423      E1AABE
 424 0ae0 AEE96D3D 		.ascii	"\256\351m=c4\210\241\325\346\333q\265\347\002\254\344"
 424      633488A1 
 424      D5E6DB71 
 424      B5E702AC 
 424      E4
 425 0af1 7334A0B6 		.ascii	"s4\240\266,\266\371\376L\257\"\012\312\336\"e\277\023"
 425      2CB6F9FE 
ARM GAS  /tmp/ccnGnAVN.s 			page 33


 425      4CAF220A 
 425      CADE2265 
 425      BF13
 426 0b03 3BAADCA7 		.ascii	";\252\334\247e\277 \346\336\374\345\330R*\017\223,#"
 426      65BF20E6 
 426      DEFCE5D8 
 426      522A0F93 
 426      2C23
 427 0b15 6A8DF8C3 		.ascii	"j\215\370\303&\354\0212\330d\0360\223g\2706\322`oZ\006"
 427      26EC1132 
 427      D8641E30 
 427      9367B836 
 427      D2606F5A 
 428 0b2a D372B699 		.ascii	"\323r\266\231\006\233\306\003f\362\020\325\026\032l"
 428      069BC603 
 428      66F210D5 
 428      161A6C
 429 0b39 A665302D 		.ascii	"\246e0-g\037\321`\263y\300L\036\242\332N\203\275c\031"
 429      671FD160 
 429      B379C04C 
 429      1EA2DA4E 
 429      83BD6319 
 430 0b4d 4CCBD97E 		.ascii	"L\313\331~\032\254\226\007\314\243\303Y\374c\344\227"
 430      1AAC9607 
 430      CCA3C359 
 430      FC63E497 
 431 0b5d 1B6DD4D8 		.ascii	"\033m\324\330\266\250\243\352\020,\332\264\220\300X"
 431      B6A8A3EA 
 431      102CDAB4 
 431      90C058
 432 0b6c D2D1AA07 		.ascii	"\322\321\252\007\323\310M\306\242\036[\224~!;\367\225"
 432      D3C84DC6 
 432      A21E5B94 
 432      7E213BF7 
 432      95
 433 0b7d 3C882606 		.ascii	"<\210&\006\243<\333&\203\325[\006cL\271\221\035\276"
 433      A33CDB26 
 433      83D55B06 
 433      634CB991 
 433      1DBE
 434 0b8f B9B6E8DE 		.ascii	"\271\266\350\336\347|\376\307\250\231\276\245\233i+"
 434      E77CFEC7 
 434      A899BEA5 
 434      9B692B
 435 0b9e 8F0C2676 		.ascii	"\217\014&vz\252q>\256\177\361\357\021\237\332r@\031"
 435      7AAA713E 
 435      AE7FF1EF 
 435      119FDA72 
 435      4019
 436 0bb0 ED2EE168 		.ascii	"\355.\341h\267\253#\353.\347\260\243]\212\355HI\330"
 436      B7AB23EB 
 436      2EE7B0A3 
 436      5D8AED48 
 436      49D8
 437 0bc2 C74AA1B7 		.ascii	"\307J\241\267*d\334A\300P\216=\336\260\006\246\323N"
 437      2A64DC41 
 437      C0508E3D 
ARM GAS  /tmp/ccnGnAVN.s 			page 34


 437      DEB006A6 
 437      D34E
 438 0bd4 2B72EC55 		.ascii	"+r\354U\344\270\202r\034\374\017\220\243\331\262\034"
 438      E4B88272 
 438      1CFC0F90 
 438      A3D9B21C 
 439 0be4 3D193976 		.ascii	"=\0319v\366\264.\3071E\216\037Q\216\263\377\001r\\\262"
 439      F6B42EC7 
 439      31458E1F 
 439      518EB3FF 
 439      01725CB2 
 440 0bf8 2C07FD18 		.ascii	",\007\375\0301\206\036\275\344\320\343Aa\206y\350A\370"
 440      31861EBD 
 440      E4D0E341 
 440      618679E8 
 440      41F8
 441 0c0a B9637B50 		.ascii	"\271c{P\273\246r\3543\321#g\247\032\363\243\261\326"
 441      BBA672EC 
 441      33D12367 
 441      A71AF3A3 
 441      B1D6
 442 0c1c CFA8782D 		.ascii	"\317\250x-\312\027\257]U4v\0175v\215\321\030?Rk\363"
 442      CA17AF5D 
 442      5534760F 
 442      35768DD1 
 442      183F526B 
 443 0c31 2775CA63 		.ascii	"'u\312c(Q\\_\275\2256T\375\251M\362\243\027\023\020"
 443      28515C5F 
 443      BD953654 
 443      FDA94DF2 
 443      A3171310 
 444 0c45 28DA896D 		.ascii	"(\332\211mE'\323\210Nm#\302OR\323-\022>\212\177Wr\310"
 444      4527D388 
 444      4E6D23C2 
 444      4F52D32D 
 444      123E8A7F 
 445 0c5c 0F97F0FF 		.ascii	"\017\227\360\377\275\034\204\034\310>i\300t\"\"4\240"
 445      BD1C841C 
 445      C83E69C0 
 445      74222234 
 445      A0
 446 0c6d 7F6E503C 		.ascii	"\177nP<\277\334H\323\177\022\342\370X\375\033\362<\005"
 446      BFDC48D3 
 446      7F12E2F8 
 446      58FD1BF2 
 446      3C05
 447 0c7f A3371892 		.ascii	"\2437\030\222\177\"\334\201}\326g\011;\273\313V7\005"
 447      7F22DC81 
 447      7DD66709 
 447      3BBBCB56 
 447      3705
 448 0c91 5B785152 		.ascii	"[xQR\013\2475KX\235\256 \361\217$|\330\211c\020\361"
 448      0BA7354B 
 448      589DAE20 
 448      F18F247C 
 448      D8896310 
 449 0ca6 98B5D6ED 		.ascii	"\230\265\326\355^\2343\215\370\374\365b\267=\250\214"
ARM GAS  /tmp/ccnGnAVN.s 			page 35


 449      5E9C338D 
 449      F8FCF562 
 449      B73DA88C 
 450 0cb6 1976327F 		.ascii	"\031v2\177\335\314(\203c\306\322\210Ef\331\223\346\257"
 450      DDCC2883 
 450      63C6D288 
 450      4566D993 
 450      E6AF
 451 0cc8 071E91A7 		.ascii	"\007\036\221\247\014\344O\0343\226j\325.\344i\351\026"
 451      0CE44F1C 
 451      33966AD5 
 451      2EE469E9 
 451      16
 452 0cd9 9BA4C0A6 		.ascii	"\233\244\300\246\253OM\023&\370\003?l'\003\177\215]"
 452      AB4F4D13 
 452      26F8033F 
 452      6C27037F 
 452      8D5D
 453 0ceb B37071D4 		.ascii	"\263pq\324\262\356=\264\356cm\373\346\213\204\177\235"
 453      B2EE3DB4 
 453      EE636DFB 
 453      E68B847F 
 453      9D
 454 0cfc 49D6B374 		.ascii	"I\326\263t\210\025W\374\351G\366\242z\346\241\342O\033"
 454      881557FC 
 454      E947F6A2 
 454      7AE6A1E2 
 454      4F1B
 455 0d0e 28DEF0C9 		.ascii	"(\336\360\311\023I\270\212Ej\223\025\277\267\273\254"
 455      1349B88A 
 455      456A9315 
 455      BFB7BBAC 
 456 0d1e F85A2EC5 		.ascii	"\370Z.\305\037\326U|\255u\305\377R}\223'\036\332\371"
 456      1FD6557C 
 456      AD75C5FF 
 456      527D9327 
 456      1EDAF9
 457 0d31 C48F2C83 		.ascii	"\304\217,\203y\314Z\261\226j\305\205\330\212\213\354"
 457      79CC5AB1 
 457      966AC585 
 457      D88A8BEC 
 458 0d41 64C968B1 		.ascii	"d\311h\261\266-\307wf\332R\2439%i\2705\034\215\315\374"
 458      B62DC777 
 458      66DA52A3 
 458      392569B8 
 458      351C8DCD 
 459 0d56 62BEA212 		.ascii	"b\276\242\022\331\347\275\311\342\351I\241\367\004\276"
 459      D9E7BDC9 
 459      E2E949A1 
 459      F704BE
 460 0d65 BABEF405 		.ascii	"\272\276\364\005\252D\36673-\203y4`\333\336\342\334"
 460      AA44F637 
 460      332D8379 
 460      3460DBDE 
 460      E2DC
 461 0d77 EC659EF2 		.ascii	"\354e\236\362\256\305zW\260\3462\267\355\300$q\034\016"
 461      AEC57A57 
ARM GAS  /tmp/ccnGnAVN.s 			page 36


 461      B0E632B7 
 461      EDC02471 
 461      1C0E
 462 0d89 9D2B38EC 		.ascii	"\235+8\354\005\306\371s\031\270(.\333\355WqT\023U\233"
 462      05C6F973 
 462      19B8282E 
 462      DBED5771 
 462      5413559B 
 463 0d9d 584BDB45 		.ascii	"XK\333E\345\001(y*\320\302\302Y\234\"\337\367\357\351"
 463      E5012879 
 463      2AD0C2C2 
 463      599C22DF 
 463      F7EFE9
 464 0db0 9DCE53F4 		.ascii	"\235\316S\364\261\346\006\022\351\324\243L\027:\263"
 464      B1E60612 
 464      E9D4A34C 
 464      173AB3
 465 0dbf 2382AC19 		.ascii	"#\202\254\031\312\020WP\206\270\012\015q5\032\342Z\244"
 465      CA105750 
 465      86B80A0D 
 465      71351AE2 
 465      5AA4
 466 0dd1 75B4391A 		.ascii	"u\2649\032\005[\353\355\324\364\341\212e\271=L\353\030"
 466      055BEBED 
 466      D4F4E18A 
 466      65B93D4C 
 466      EB18
 467 0de3 55B39CAE 		.ascii	"U\263\234\256\246\225\307\366\2361T/q\352\177T\303\001"
 467      A695C7F6 
 467      9E31542F 
 467      71EA7F54 
 467      C301
 468 0df5 798D6D5C 		.ascii	"y\215m\\\027\253\210Zk\276\372\226&\034\230\302\003"
 468      17AB885A 
 468      6BBEFA96 
 468      261C98C2 
 468      03
 469 0e06 F7AC0E83 		.ascii	"\367\254\016\203z\037zU\325'n\302\005\354\315\270\304"
 469      7A1F7A55 
 469      D5276EC2 
 469      05ECCDB8 
 469      C4
 470 0e17 BC15E936 		.ascii	"\274\025\3516\244\273\220\236A\372\015\322\363H\277"
 470      A4BB909E 
 470      41FA0DD2 
 470      F348BF
 471 0e26 437A19E9 		.ascii	"Cz\031\351\015\244\267\221N\307&~\007\351\373H\227\""
 471      0DA4B791 
 471      4EC7267E 
 471      07E9FB48 
 471      9722
 472 0e38 5D867433 		.ascii	"]\206t3\322-\251\014@\031\005\216->\336c\025\372\352"
 472      D22DA90C 
 472      4019058E 
 472      2D3EDE63 
 472      15FAEA
 473 0e4b 3A34FFCF 		.ascii	":4\377\317\273\260\226\327`c\326\274\222\026mOu\341"
ARM GAS  /tmp/ccnGnAVN.s 			page 37


 473      BBB096D7 
 473      6063D6BC 
 473      92166D4F 
 473      75E1
 474 0e5d 58FC3659 		.ascii	"X\3746Y\236\234{\363\302\330m\343\3456\255G\263^ig\236"
 474      9E9C7BF3 
 474      C2D86DE3 
 474      E536AD47 
 474      B35E6967 
 475 0e72 0D48FDD4 		.ascii	"\015H\375\324\217\266QO\324\032\277P\341Yf\264\372\030"
 475      8FB6514F 
 475      D41ABF50 
 475      E15966B4 
 475      FA18
 476 0e84 DF1E3EBD 		.ascii	"\337\036>\275R\\\217J\331\205\335\361<\243\224\224@"
 476      525C8F4A 
 476      D985DDF1 
 476      3CA39494 
 476      40
 477 0e95 444D9F32 		.ascii	"DM\2372~.V\267b\257\274=\374ij/7qBl\303\212\275\022"
 477      7E2E56B7 
 477      62AFBC3D 
 477      FC696A2F 
 477      3771426C 
 478 0ead BE80A96C 		.ascii	"\276\200\251l\017\233\355\036\001\026\332V\352\015\236"
 478      0F9BED1E 
 478      0116DA56 
 478      EA0D9E
 479 0ebc 6B28CAA7 		.ascii	"k(\312\247\211n\236\362\265P\272\255 HZqQT^\013\225"
 479      896E9EF2 
 479      B550BAAD 
 479      20485A71 
 479      51545E0B 
 480 0ed1 F7776E5A 		.ascii	"\367wnZ\006\354\242\021\263A\025\323'\356\221\347;]"
 480      06ECA211 
 480      B34115D3 
 480      27EE91E7 
 480      3B5D
 481 0ee3 AD026A9B 		.ascii	"\255\002j\233~+\313\341D\313\200\2755\034nc9|\213\007"
 481      7E2BCBE1 
 481      44CB80BD 
 481      351C6E63 
 481      397C8B07 
 482 0ef7 D06488D8 		.ascii	"\320d\210\330\301r8\3352\240V\207\007X\016\347Y\006"
 482      C17238DD 
 482      32A05687 
 482      07580EE7 
 482      5906
 483 0f09 D4EAF020 		.ascii	"\324\352\360 \313a\255e@\255\016\017\263\034.\343\001"
 483      CB61AD65 
 483      40AD0E0F 
 483      B31C2EE3 
 483      01
 484 0f1a 3459BE3B 		.ascii	"4Y\276;\312r\270\3062\240V\207\307X\0167[\006\324\352"
 484      CA72B8C6 
 484      32A05687 
 484      C7580E37 
ARM GAS  /tmp/ccnGnAVN.s 			page 38


 484      5B06D4EA 
 485 0f2e B099E570 		.ascii	"\260\231\345p\207e@\255\016O\260\034\356\345\0014[\361"
 485      876540AD 
 485      0E4FB01C 
 485      EEE50134 
 485      5BF1
 486 0f40 6339DC6F 		.ascii	"c9\334o\031P\253\303\253,\207\307-\003jux\235\345\360"
 486      1950ABC3 
 486      AB2C87C7 
 486      2D036A75 
 486      789DE5F0 
 487 0f54 8C6540AD 		.ascii	"\214e@\255\016\177d9\374\236\007\320c\254\303V\226\303"
 487      0E7F6439 
 487      FC9E07D0 
 487      63ACC356 
 487      96C3
 488 0f66 6B9601D9 		.ascii	"k\226\001\331\375n\352C\217\">q7\206y\2158\276\177\206"
 488      FD6EEA43 
 488      8F223E71 
 488      3786798D 
 488      38BE7F86 
 489 0f7a F473A45F 		.ascii	"\364s\244_ \335\217\264\011\351!\244G\220~\205\3648"
 489      20DD8FB4 
 489      09E921A4 
 489      47907E85 
 489      F438
 490 0f8c D2AF919E 		.ascii	"\322\257\221\236D\332\202\364\014\322o\220\236Gz\001"
 490      44DA82F4 
 490      0CD26F90 
 490      9E477A01 
 491 0f9c E9773C01 		.ascii	"\351w<\001"
 492 0fa0 E44E3AB2 		.ascii	"\344N:\262\273\333\225#\0120Y\271\235{s\377\377\375"
 492      BBDB9523 
 492      0A3059B9 
 492      9D7B73FF 
 492      FFFD
 493 0fb2 29CFF3B5 		.ascii	")\317\363\265L_\277\353\017\344q\314\324\317\364]\261"
 493      4C5FBFEB 
 493      0FE471CC 
 493      D4CFF45D 
 493      B1
 494 0fc3 F33DD377 		.ascii	"\363=\323w\215\035\302g~\201\317\364]\343\232\326\316"
 494      8D1DC267 
 494      7E81CFF4 
 494      5DE39AD6 
 494      CE
 495 0fd4 4A6B9A94 		.ascii	"Jk\232\224\210A>W\036Q\273\2111H\343\003)\367\365\223"
 495      88413E57 
 495      1E51BB89 
 495      3148E303 
 495      29F7F593 
 496 0fe8 9FC8BECD 		.ascii	"\237\310\276\315\012p\357\232\362\210\332m\256\030d"
 496      0A70EF9A 
 496      F288DA6D 
 496      AE1864
 497 0ff7 FA75E511 		.ascii	"\372u\345\0215\365\011\244f"
 497      35F509A4 
ARM GAS  /tmp/ccnGnAVN.s 			page 39


 497      66
 498 1000 E4E2767A 		.ascii	"\344\342vzSs\000\234q]\363@\323)\313p\036\015\334\333"
 498      5373009C 
 498      715DF340 
 498      D329CB70 
 498      1E0DDCDB 
 499 1014 5AB8733C 		.ascii	"Z\270s<p&\317\226\315\326\302}g\031\316\243\247K!\251"
 499      7026CF96 
 499      CDD6C27D 
 499      6719CEA3 
 499      A74B21A9 
 500 1028 317CE21D 		.ascii	"1|\342\035\354\312m\330\325\356!mG:\316\301\321\355"
 500      ECCA6DD8 
 500      D5EE216D 
 500      473ACEC1 
 500      D1ED
 501 103a 7EA4BBDD 		.ascii	"~\244\273\335ed\362Z\272\213%\320k\216?\263%\271\333"
 501      6564F25A 
 501      BA8B25D0 
 501      6B8E3FB3 
 501      25B9DB
 502 104d C93A30E2 		.ascii	"\311:0\342\340U\007=\245\263\314\201\207\346 6\367\013"
 502      E055073D 
 502      A5B3CC81 
 502      87E62036 
 502      F70B
 503 105f 79E3497D 		.ascii	"y\343I}i\361.\213\247\267\345`\022^\315\377\002\017"
 503      69F12E8B 
 503      A7B7E560 
 503      125ECDFF 
 503      020F
 504 1071 7291C126 		.ascii	"r\221\301&<h\025L{\370M-\015\366\246e0\243g\231\256"
 504      3C68154C 
 504      7BF84D2D 
 504      0DF6A665 
 504      30A36799 
 505 1086 63FBDFC0 		.ascii	"c\373\337\3006\237\350 t\022\322\327\221\276A[\201$"
 505      369FE820 
 505      7412D2D7 
 505      91BE415B 
 505      8124
 506 1098 BCFD203B 		.ascii	"\274\375 ;'\273\306\256\006$<\225\300\213k\324\266\377"
 506      27BBC6AE 
 506      06243C95 
 506      C08B6BD4 
 506      B6FF
 507 10aa 4E5BD707 		.ascii	"N[\327\007\017r8u\217\261u\315\275yEq\3522\260$\254"
 507      0F723875 
 507      8FB175CD 
 507      BD794571 
 507      EA32B024 
 508 10bf B68CA8B5 		.ascii	"\266\214\250\265\226Y\247j\225\351\272\374\022F=\017"
 508      9659A76A 
 508      95E9BAFC 
 508      12463D0F 
 509 10cf 9EC94B18 		.ascii	"\236\311K\030\363O\341\312\230\014\266\3152\230G0\374"
 509      F34FE1CA 
ARM GAS  /tmp/ccnGnAVN.s 			page 40


 509      980CB6CD 
 509      32984730 
 509      FC
 510 10e0 D02F24C0 		.ascii	"\320/$\300\200\212\317\357^\302\327\272\332\220\256"
 510      808ACFEF 
 510      5EC2D7BA 
 510      DA90AE
 511 10ef C3C9FC0E 		.ascii	"\303\311\374\016l\253\030\322\037\220N\305\266\232\216"
 511      6CAB18D2 
 511      1F904EC5 
 511      B69A8E
 512 10fe 74264F8B 		.ascii	"t&O\213\235\243\237DkD\021\316\244\373\002_K\353\301"
 512      9DA39F44 
 512      6B4411CE 
 512      A4FB025F 
 512      4BEBC1
 513 1111 A38BC499 		.ascii	"\243\213\304\231\362\3716\344\0217I\370\3342\242\266"
 513      F2F936E4 
 513      113749F8 
 513      DC32A2B6 
 514 1121 C56ECACB 		.ascii	"\305n\312\313\2612X\023\017\230^\347\246\324*+\364,"
 514      B1325813 
 514      0F985EE7 
 514      A6D42A2B 
 514      F42C
 515 1133 2AF41B54 		.ascii	"*\364\033T\345lTV\215\266\333|\225\324m\344wY(\244\304"
 515      E56C5456 
 515      8DB6DB7C 
 515      95D46DE4 
 515      775928A4 
 516 1148 4B2F8219 		.ascii	"K/\202\031\226\221\342O&\024\357\023\327\342B\263\225"
 516      9691E24F 
 516      2614EF13 
 516      D7E242B3 
 516      95
 517 1159 B781B46A 		.ascii	"\267\201\264jjoT\335\240|.\302\031d?\305\373[\374\207"
 517      6A6F54DD 
 517      A07C2EC2 
 517      19643FC5 
 517      FB5BFC87 
 518 116d AEDCA00E 		.ascii	"\256\334\240\016]\371\021\237;\270\211\257!~\204B\037"
 518      5DF9119F 
 518      3BB889AF 
 518      217E8442 
 518      1F
 519 117e 467A0C69 		.ascii	"Fz\014i3\322\023H\347\361\250\341\012\375\002\3425d"
 519      33D21348 
 519      E7F1A8E1 
 519      0AFD02E2 
 519      3564
 520 1190 FBFBB45F 		.ascii	"\373\373\264_@\274\327\264\244\247\022r\234C\213i\265"
 520      40BCD7B4 
 520      A4A71272 
 520      9C438B69 
 520      B5
 521 11a1 0CA8D5EB 		.ascii	"\014\250\325\353\334\253\312\240^\207/\017\337\345\201"
 521      DCABCAA0 
ARM GAS  /tmp/ccnGnAVN.s 			page 41


 521      5E872F0F 
 521      DFE581
 522 11b0 33195DE6 		.ascii	"3\031]\346]\334,\237\324&\267\322\304\207\030\270\224"
 522      5DDC2C9F 
 522      D426B7D2 
 522      C48718B8 
 522      94
 523 11c1 438296BB 		.ascii	"C\202\226\273\371\377Z\323[\305z\3232VO\263\026\377"
 523      F9FF5AD3 
 523      5BC57AD3 
 523      32564FB3 
 523      16FF
 524 11d3 9E6AF17F 		.ascii	"\236j\361\177\307\026\277\214-^\213\006\276\020\351"
 524      C716BF8C 
 524      2D5E8B06 
 524      BE10E9
 525 11e2 62A4EFF3 		.ascii	"b\244\357\363\264\362\205\237xJL\363\231\246\017E\371"
 525      B4F2859F 
 525      784A4CF3 
 525      99A60F45 
 525      F9
 526 11f3 75A90F1C 		.ascii	"u\251\017\034$\242}\357!\213\021\255$\254\303\"+\034"
 526      24A27DEF 
 526      218B11AD 
 526      24ACC322 
 526      2B1C
 527 1205 4C547BFD 		.ascii	"LT{\375%\217\234\233:(o\275\241X\303\005\264\206\255"
 527      258F9C9B 
 527      3A286FBD 
 527      A158C305 
 527      B486AD
 528 1218 71C0B4AC 		.ascii	"q\300\264\2545v\373{\312\270|\342\"\207d\021Nk\015m"
 528      3576FB7B 
 528      CAB87CE2 
 528      22876411 
 528      4E6B0D6D 
 529 122c 17F6249D 		.ascii	"\027\366$\235\260\2429g1\251U\352\350Hl\007\2174&\266"
 529      B0A23967 
 529      31A955EA 
 529      E8486C07 
 529      8F3426B6 
 530 1240 7DEF1B8D 		.ascii	"}\357\033\215m7\262p\026m{\372\21711:9K\235\031\037"
 530      6D37B270 
 530      166D7BFA 
 530      8F31313A 
 530      394B9D19 
 531 1255 62E178D7 		.ascii	"b\341x\327\220\364\315;a\005>q\225\0037@\320\230\327"
 531      90F4CD3B 
 531      61053E71 
 531      95033740 
 531      D098D7
 532 1268 225D87B4 		.ascii	"\"]\207\264\036\351\006\036\363^\232P\344\343Bm4v\245"
 532      1EE9061E 
 532      F35E9A50 
 532      E4E3426D 
 532      3476A5
 533 127b A5F5FC77 		.ascii	"\245\365\374w\335V\222\330%z\277\375\357\343\306\213"
ARM GAS  /tmp/ccnGnAVN.s 			page 42


 533      DD5692D8 
 533      257ABFFD 
 533      EFE3C68B 
 534 128b CCEB5876 		.ascii	"\314\353Xv\343F\331\354\320\274\216\245;\237M\265/\276"
 534      E346D9EC 
 534      D0BC8EA5 
 534      3B9F4DB5 
 534      2FBE
 535 129d E3BB6B8F 		.ascii	"\343\273k\217\310\275e+\366\226\306\237\351\366\026"
 535      C8BD652B 
 535      F696C69F 
 535      E9F616
 536 12ac F3C769B6 		.ascii	"\363\307i\266\263=e\203\374R\347v\256\276\322\260{\025"
 536      B33D6583 
 536      FC52E776 
 536      AEBED2B0 
 536      7B15
 537 12be F7A9444C 		.ascii	"\367\251DLG\375\372g\372\247\022in\363\211\037c\177"
 537      47FDFA67 
 537      FAA71269 
 537      6EF3891F 
 537      637F
 538 12d0 F984E572 		.ascii	"\371\204\345rf5r\371\011\027\227\263v\2478\225\210\377"
 538      663572F9 
 538      091797B3 
 538      76A73895 
 538      88FF
 539 12e2 C18C6397 		.ascii	"\301\214c\227\317\374q-\316\271\367:\210U~\3600\033"
 539      CFFC712D 
 539      CEB9F73A 
 539      88557EF0 
 539      301B
 540 12f4 413898E7 		.ascii	"A8\230\3472\034\332\005wGF\"\241<\227a\3244{\034&g\177"
 540      321CDA05 
 540      77474622 
 540      A13C9761 
 540      D4347B1C 
 541 130b 28C76FC4 		.ascii	"(\307o\304\177\357u\360\237\273\321\350\240\202\222"
 541      7FEF75F0 
 541      9FBBD1E8 
 541      A08292
 542 131a 6592AAE0 		.ascii	"e\222\252\340\364F\343\035\3375u\303`\320\354\305D\302"
 542      F446E31D 
 542      DF3575C3 
 542      60D0ECC5 
 542      44C2
 543 132c 9D113707 		.ascii	"\235\0217\007\314\304\234\375\023\304\334O\213YkYL\017"
 543      CCC49CFD 
 543      13C4DC4F 
 543      8B596B59 
 543      4C0F
 544 133e 2D66EA13 		.ascii	"-f\352\023A\356\231L\206\217\232\2118\307\302\211)G"
 544      41EE994C 
 544      868F9A89 
 544      38C7C289 
 544      2947
 545 1350 685FBE06 		.ascii	"h_\276\006m/\205H\251\216yJW\244\023:\"q\211\360\265"
ARM GAS  /tmp/ccnGnAVN.s 			page 43


 545      6D2F8548 
 545      A98E794A 
 545      57A4133A 
 545      227189F0 
 546 1365 83D91B5C 		.ascii	"\203\331\033\\oY\014\217\240\375$\342\363\335\350\315"
 546      6F590C8F 
 546      A0FD24E2 
 546      F3DDE8CD 
 547 1375 BF447A18 		.ascii	"\277Dz\030i3\217g\337I[\312V\264\224\355\326;\204\336"
 547      69338F67 
 547      DF495BCA 
 547      56B494ED 
 547      D63B84DE 
 548 1389 8776B030 		.ascii	"\207v\2600\223\303A(\306\303\322\226\004Kq\025\177\253"
 548      93C34128 
 548      C6C3D296 
 548      044B7115 
 548      7FAB
 549 139b DD679584 		.ascii	"\335g\225\204\215\214\367\371\225\360^4:\003\207\245"
 549      8D8CF7F9 
 549      95F05E34 
 549      3A0387A5 
 550 13ab EF48EBCA 		.ascii	"\357H\353\31200\352\343}\233\034\217\353V\247T&\027"
 550      3030EAE3 
 550      7D9B1C8F 
 550      EB56A754 
 550      2617
 551 13bd 8ECE81B9 		.ascii	"\216\316\201\271\230(\327%\011\037\247(\250p\364_\205"
 551      9828D725 
 551      091FA728 
 551      A870F45F 
 551      85
 552 13ce 25C46E8E 		.ascii	"%\304n\216~3l\240\362\232\271q!E\276\323\016\315)\374"
 552      7E336CA0 
 552      F29AB971 
 552      2145BED3 
 552      0ECD29FC 
 553 13e2 38A0B6B4 		.ascii	"8\240\266\264,\270y\346\321\232\365\013\345\001UL\366"
 553      2CB879E6 
 553      D19AF50B 
 553      E501554C 
 553      F6
 554 13f3 D151AE13 		.ascii	"\321Q\256\023\256\232W\375Z>l\020]\364aFI\374@\365\247"
 554      AE9A57FD 
 554      5A3E6C10 
 554      5DF46146 
 554      49FC40F5 
 555 1408 DECD46A0 		.ascii	"\336\315F\240\357\021\350\353$_/0\276^\320\372z\370"
 555      EF11E8EB 
 555      245F2F30 
 555      BE5ED0FA 
 555      7AF8
 556 141a 196D573E 		.ascii	"\031mW>\362c\217\220\363w!\2552\2061w\352@\202#\356"
 556      F2638F90 
 556      F37721AD 
 556      32863177 
 556      EA408223 
ARM GAS  /tmp/ccnGnAVN.s 			page 44


 557 142f BEF6AA12 		.ascii	"\276\366\252\022w_\305H\342\334\303\226\343\356\313"
 557      775FC548 
 557      E2DCC396 
 557      E3EECB
 558 143e 58E4063B 		.ascii	"X\344\006;N/\360y\344\334\324\243t\375m*\026\204A\012"
 558      4E2FF079 
 558      E4DCD4A3 
 558      74FD6D2A 
 558      1684410A 
 559 1452 8F23BC61 		.ascii	"\217#\274a\036\013j\372\220\026n\303\017j\334\215]\240"
 559      1E0B6AFA 
 559      90166EC3 
 559      0F6ADC8D 
 559      5DA0
 560 1464 35CE5F7A 		.ascii	"5\316_zq\367\246\325\3123@K\021\356.\017\234I\034\335"
 560      71F7A6D5 
 560      CA33404B 
 560      11EE2E0F 
 560      9C491CDD 
 561 1478 7031398C 		.ascii	"p19\214\327{\365\351\237T\254\367\251 \244\241\372s"
 561      D77BF5E9 
 561      9F54ACF7 
 561      A920A4A1 
 561      FA73
 562 148a F934CAFB 		.ascii	"\3714\312\373\330Z\023~\236\262\265\030\034\322\030"
 562      D85A137E 
 562      9EB2B518 
 562      1CD218
 563 1499 E39C4C53 		.ascii	"\343\234LS\035\224\217\243$\371\251\033\353\220\374"
 563      1D948FA3 
 563      24F9A91B 
 563      EB90FC
 564 14a8 6E843C61 		.ascii	"n\204<a\236\204\014\220\202\351M\221\2166~,\267\374"
 564      9E840C90 
 564      82E94D91 
 564      8E367E2C 
 564      B7FC
 565 14ba 2762A2E5 		.ascii	"'b\242\345)8\213\333\373_5R\307tOfyKy\206\204\346\220"
 565      29388BDB 
 565      FB5F3552 
 565      C7744F66 
 565      794B7986 
 566 14d1 EBD8711A 		.ascii	"\353\330q\032l\252e\260g4`'&MQV&\345\303\177g\362(\316"
 566      6CAA65B0 
 566      67346027 
 566      264D5156 
 566      26E5C37F 
 567 14e9 C48A4E26 		.ascii	"\304\212N&N\022\366\211\207X\265\361\216\243\012\330"
 567      4E12F689 
 567      8758B5F1 
 567      8EA30AD8 
 568 14f9 15FA58E2 		.ascii	"\025\372X\342\032\036\316L6\337\257\321`\013,\203i9"
 568      1A1ECE4C 
 568      36DFAFD1 
 568      600B2C83 
 568      6939
 569 150b BB41832D 		.ascii	"\273A\203-\341\0013\331\322\276E\203\255\264\014\246"
ARM GAS  /tmp/ccnGnAVN.s 			page 45


 569      E10133D9 
 569      D2BE4583 
 569      ADB40CA6 
 570 151b E5EC4ED2 		.ascii	"\345\354N\322[=\232\363\227\223\274\365l'\025\277}\310"
 570      5B3D9AF3 
 570      9793BCF5 
 570      6C2715BF 
 570      7DC8
 571 152d 53B9C748 		.ascii	"S\271\307H\222h\354\335\3172q*N\216t\226\204\217X\264"
 571      9268ECDD 
 571      CF32712A 
 571      4E8E7496 
 571      848F58B4 
 572 1541 681C2E9A 		.ascii	"h\034.\232b\335\\\357C;\010\2378\336I\002\227\011N\022"
 572      62DD5CEF 
 572      433B089F 
 572      38DE4902 
 572      97094E12 
 573 1555 51BD8AB4 		.ascii	"Q\275\212\264\032\351kH'#\235\202\364M\244S\221NG:\023"
 573      1AE96B48 
 573      27239D82 
 573      F44DA453 
 573      914E473A 
 574 156a E92CA435 		.ascii	"\351,\2445N\216\320\347\036\035\344\306~n\325\321\232"
 574      4E8ED0E7 
 574      1E1DE4C6 
 574      7E6ED5D1 
 574      9A
 575 157b 0A75838A 		.ascii	"\012u\203\212\306nb4\326\212a\342-\244w\220\336\345"
 575      C66E6234 
 575      D68A61E2 
 575      2DA47790 
 575      DEE5
 576 158d 5AD1A443 		.ascii	"Z\321\244CF*\354\225\204O\031w\254\004e$\264\331.\007"
 576      462AEC95 
 576      844F1977 
 576      AC046524 
 576      B4D92E07 
 577 15a1 65577008 		.ascii	"eWp\0109\212\367}k\030[)5`l5-Z\367\365\260nrD#hK1\207"
 577      398AF77D 
 577      6B185B29 
 577      35606C35 
 577      2D5AF7F5 
 578 15be 05E19FE7 		.ascii	"\005\341\237\3479\223\202\253\205-\261\223\376=\321"
 578      399382AB 
 578      852DB193 
 578      FE3DD1
 579 15cd 2B30E364 		.ascii	"+0\343d\242\374\213&s\263\205N&\312'\243_\374\207\262"
 579      A2FC8B26 
 579      73B3854E 
 579      26CA27A3 
 579      5FFC87B2 
 580 15e1 B214FFAD 		.ascii	"\262\024\377\255\254\377q\206\"1\227Z\333\030!\021\273"
 580      ACFF7186 
 580      2231975A 
 580      DB182111 
 580      BB
ARM GAS  /tmp/ccnGnAVN.s 			page 46


 581 15f2 DD6FEA21 		.ascii	"\335o\352!\277\370\260\324I\306\266\351\335R\216mZ\034"
 581      BFF8B0D4 
 581      49C6B6E9 
 581      DD528E6D 
 581      5A1C
 582 1604 E87F4EE2 		.ascii	"\350\177N\342\007\227\263\303\333m\371\034\343\345\\"
 582      0797B3C3 
 582      DB6DF91C 
 582      E3E55C
 583 1613 C3DBBDC6 		.ascii	"\303\333\275\306\367\323=m\271\266\033\327i\313k\220"
 583      F7D33D6D 
 583      B9B61BD7 
 583      69CB6B90 
 584 1623 CBB54983 		.ascii	"\313\265I\203\260\314\345Z..\0177*1I#\316\251\344\231"
 584      B0CCE55A 
 584      2E2E0F37 
 584      2A314923 
 584      CEA9E499 
 585 1637 FCDA7487 		.ascii	"\374\332t\207a\365\344\262\375\010Vk\031\314\243\007"
 585      61F5E4B2 
 585      FD08566B 
 585      19CCA307 
 586 1647 7604C18E 		.ascii	"v\004\301\216;8\300R\037H,O\035OY\006\323\341,\335i"
 586      3B38C052 
 586      1F482C4F 
 586      1D4F5906 
 586      D3E12CDD 
 587 165c EF26B643 		.ascii	"\357&\266C\350\314\344\265\007\024s\034\351Q\267\376"
 587      E8CCE4B5 
 587      0714731C 
 587      E951B7FE 
 588 166c EA52E5CD 		.ascii	"\352R\345\315\260\255N|R\215\261z9&\246>\\\247zpM\307"
 588      B0AD4E7C 
 588      528DB17A 
 588      3926A63E 
 588      5CA77A70 
 589 1682 37D223D2 		.ascii	"7\322#\322f\2547\205j\315\216\273\275\337\364X\312\265"
 589      66AC3785 
 589      6ACD8EBB 
 589      BDDFF458 
 589      CAB5
 590 1694 2033F5EE 		.ascii	" 3\365\3564S\357V'\377BI\214\026k\233e\261,Z\214\331"
 590      3453EF56 
 590      27FF4249 
 590      8C166B9B 
 590      65B12C5A 
 591 16aa F256A399 		.ascii	"\362V\243\231H\006\253xi\211\274\233\026y\027\217\310"
 591      4806AB78 
 591      6989BC9B 
 591      1679178F 
 591      C8
 592 16bb 3FE5005C 		.ascii	"?\345\000\\3\221\2774\023\331`E/-\221\277\240E\336k"
 592      3391BF34 
 592      13D96045 
 592      2F2D91BF 
 592      A045DE6B 
 593 16cf 59648FA0 		.ascii	"Yd\217\240\375$\326\221\3520ZY\217\264\036\351\207H"
ARM GAS  /tmp/ccnGnAVN.s 			page 47


 593      FD24D691 
 593      EA305A59 
 593      8FB41EE9 
 593      8748
 594 16e1 3720DD81 		.ascii	"7 \335\201\364S\244\377\340\211hV9\223\326\227\226\247"
 594      F453A4FF 
 594      E0896856 
 594      3993D697 
 594      96A7
 595 16f3 E9A6A3B1 		.ascii	"\351\246\243\261\373$\346\344\335#\330\276\264\355\021"
 595      FB24E6E4 
 595      DD23D8BE 
 595      B4ED11
 596 1702 9C2A1EC1 		.ascii	"\234*\036\301\341\264\372\021\213[\004\2220\013\213"
 596      E1B4FA11 
 596      8B5B0492 
 596      300B8B
 597 1711 1C6307AA 		.ascii	"\034c\007\252M\325x$\3341\256\201\252\201\363\354\307"
 597      4DD57824 
 597      DC31AE81 
 597      AA81F3EC 
 597      C7
 598 1722 85F14585 		.ascii	"\205\361E\205\207\204\304[/\367D\217O<\211\374/\326"
 598      8784C45B 
 598      2FF7448F 
 598      4F3C89FC 
 598      2FD6
 599 1734 E7DF1843 		.ascii	"\347\337\030C\022\352\261\310i\226\377\037\311\302\304"
 599      12EAB1C8 
 599      6996FF1F 
 599      C9C2C4
 600 1743 692EEE5B 		.ascii	"i.\356[\325\327\177N8I\334\266+\016\230\3260\033\273"
 600      D5D77F4E 
 600      3849DCB6 
 600      2B0E98D6 
 600      301BBB
 601 1756 8BE71FCB 		.ascii	"\213\347\037\313\257\022}f\031\313\243\301\232\276["
 601      AF127D66 
 601      19CBA3C1 
 601      9ABE5B
 602 1765 7D094C7E 		.ascii	"}\011L~o\353\010\017\236\311\204\362m\362 \206\225\327"
 602      6FEB080F 
 602      9EC984F2 
 602      6DF22086 
 602      95D7
 603 1777 54F72AAF 		.ascii	"T\367*\257\251^\302q\253\345\021v\334J\3535\325\037"
 603      A95EC271 
 603      ABE51176 
 603      DC4AEB35 
 603      D51F
 604 1789 2C4BA1D1 		.ascii	",K\241\321J\313\216\245g\273\251o\000\311\214\335\344"
 604      4ACB8EA5 
 604      67BBA96F 
 604      00C98CDD 
 604      E4
 605 179a 41D41BD8 		.ascii	"A\324\033\330\364>\2645\371\304\26385\372\006\235\301"
 605      F43EB435 
ARM GAS  /tmp/ccnGnAVN.s 			page 48


 605      F9C4B338 
 605      35FA069D 
 605      C1
 606 17ab 79A41790 		.ascii	"y\244\027\220~\207\3642\217{8A\273\261hw\265\277Y4/"
 606      7E87F432 
 606      8F7B3841 
 606      BBB16877 
 606      B5BF5934 
 607 17c0 7D568F51 		.ascii	"}V\217Q\2546#\253_\323,I\302kX\237"
 607      AC3623AB 
 607      5FD32C49 
 607      C26B589F 
 608 17d0 1577A455 		.ascii	"\025w\244Uv\353\375;\217_\037\037\255\351\315}*j\354"
 608      76EBFD3B 
 608      8F5F1F1F 
 608      ADE9CD7D 
 608      2A6AEC
 609 17e3 8E538299 		.ascii	"\216S\202\231\230\223\034\210\372Vw\255\305p\036\210"
 609      98931C88 
 609      FA5677AD 
 609      C5701E88 
 610 17f3 DAEA640E 		.ascii	"\332\352d\016D\275.\037\210J\362M:\264rniM\367\344\003"
 610      44BD2E1F 
 610      884AF24D 
 610      3AB4726E 
 610      694DF7E4 
 611 1808 511777D7 		.ascii	"Q\027w\327=\020uEw\355\201\250\212\026L\2178M0\007\363"
 611      3D107545 
 611      77ED81A8 
 611      8A164C8F 
 611      384D3007 
 612 181d 4A54F96D 		.ascii	"JT\371m\247\371\021\247\224\366-=\311\030\215\2657\222"
 612      A7F911A7 
 612      94F62D3D 
 612      C9188DB5 
 612      3792
 613 182f 171D531E 		.ascii	"\027\035S\036\232\244\036G[\177Iy\225+\352\"\356\364"
 613      9AA41E47 
 613      5B7F4979 
 613      952BEA22 
 613      EEF4
 614 1841 BBEEA9DD 		.ascii	"\273\356\251\335\251\016\016\270\235\036x\036(\202\334"
 614      A90E0EB8 
 614      9D1E781E 
 614      2882DC
 615 1850 B20A2209 		.ascii	"\262\012\"\011\023\036%E\252]\214O\336&o\352\222\374"
 615      131E2545 
 615      AA5D8C4F 
 615      DE266FEA 
 615      92FC
 616 1862 545E991C 		.ascii	"T^\231\034>,\277\313\254\276\3449%\216\251T\372,\255"
 616      3E2CBFCB 
 616      ACBEE439 
 616      258EA954 
 616      FA2CAD
 617 1875 BED46E79 		.ascii	"\276\324ny\277\374\014\232\274\255;\233\005\263\350"
 617      BFFC0C9A 
ARM GAS  /tmp/ccnGnAVN.s 			page 49


 617      BCAD3B9B 
 617      05B3E8
 618 1884 470FC6DF 		.ascii	"G\017\306\337W\236\215O(-\264\214\247\351d\261C2s2\330"
 618      579E8D4F 
 618      282DB48C 
 618      A7E964B1 
 618      43327332 
 619 1899 721E3093 		.ascii	"r\0360\223\265\271\257h\260\265\226\301\264\234\035"
 619      B5B9AF68 
 619      B0B596C1 
 619      B49C1D
 620 18a8 A7C136F1 		.ascii	"\247\3016\361\200\231\254\315\235P\206\2634\317\270"
 620      8099ACCD 
 620      9D5086B3 
 620      34CFB8
 621 18b7 9DE332DE 		.ascii	"\235\3432\336\013\221\255\325\250\344\\\227\376j\216"
 621      0B91ADD5 
 621      A8E45C97 
 621      FE6A8E
 622 18c6 F1D8179B 		.ascii	"\361\330\027\233#\007@\263]\270\301\366\250\266\017"
 622      230740B3 
 622      5DB8C1F6 
 622      A8B60F
 623 18d5 305513C6 		.ascii	"0U\023\306\214\252\236\3572>\271\222\371\033\304\270"
 623      8CAA9EEF 
 623      323EB992 
 623      F91BC4B8 
 624 18e5 9615AC6D 		.ascii	"\226\025\254m\255S\325\2327Y\233x\340<:\355\245\367"
 624      AD53D59A 
 624      37599B78 
 624      E03C3AED 
 624      A5F7
 625 18f7 A13BB44F 		.ascii	"\241;\264O|\315E\034\337\353.2\010\276\201\364M\244"
 625      7CCD451C 
 625      DFEB2E32 
 625      08BE81F4 
 625      4DA4
 626 1909 53914E47 		.ascii	"S\221NG:\023\351,\244\265\256_\376g\243J\302\261G\231"
 626      3A13E92C 
 626      A4B5AE5F 
 626      FE67A34A 
 626      C2B14799 
 627 191d B14EEB98 		.ascii	"\261N\353\230R\365\303(\016v3\2430\301\345\367\270\007"
 627      52F5C328 
 627      0E7633A3 
 627      30C1E5F7 
 627      B807
 628 192f 1F933DEE 		.ascii	"\037\223=\356bt\226-\214\241\310f\371\237%\357e.y\015"
 628      6274962D 
 628      8CA1C866 
 628      F99F25EF 
 628      652E790D 
 629 1943 0F0588CB 		.ascii	"\017\005\210\313[\323\233\376\007\203s\314N\370\377"
 629      5BD39BFE 
 629      078373CC 
 629      4EF8FF
 630 1952 C065F584 		.ascii	"\300e\365\204\377e\312\377L\212\273h%\3219.\306MV\014"
ARM GAS  /tmp/ccnGnAVN.s 			page 50


 630      FF65CAFF 
 630      4C8ABB68 
 630      25D1392E 
 630      C64D560C 
 631 1966 DD777D87 		.ascii	"\335w}\207\0316\033Y\205\2619e\336$\3416\027\332KFh"
 631      19361B59 
 631      85B13965 
 631      DE24E136 
 631      17DA4B46 
 632 197b 7A73639D 		.ascii	"zsc\235\267}uO\225\276\265\370\300G\312B\317\0324\207"
 632      B77D754F 
 632      95BEB5F8 
 632      C047CA42 
 632      CF1A3487 
 633 198f BB8C39A4 		.ascii	"\273\2149\244\004\302\311);n\036^\243\2746\\\227z\344"
 633      04C2C929 
 633      3B6E1E5E 
 633      A3BC365C 
 633      977AE4
 634 19a2 24EF31AE 		.ascii	"$\3571\256\321\274\341\346\023\017\340\273\324u\011"
 634      D1BCE1E6 
 634      130FE0BB 
 634      D47509
 635 19b1 376071AB 		.ascii	"7`q\253\265y\215\346\0157\237\270\3172\240\366-\301"
 635      B5798DE6 
 635      0D379FB8 
 635      CF32A0F6 
 635      2DC1
 636 19c3 132C8787 		.ascii	"\023,\207\207-\003j\232,v\212\345\360K\313\200\332\267"
 636      2D036A9A 
 636      2C768AE5 
 636      F04BCB80 
 636      DAB7
 637 19d5 04AFB21C 		.ascii	"\004\257\262\034\276k\343\0004\211\030\256\263\034\036"
 637      BE6BE300 
 637      348918AE 
 637      B31C1E
 638 19e4 E4E1D0E4 		.ascii	"\344\341\320\344\215\337\037Y\016\367Z\006\324\352\260"
 638      8DDF1F59 
 638      0EF75A06 
 638      D4EAB0
 639 19f3 95E5F0A8 		.ascii	"\225\345\360\250e@\255\016o\263\034\376\203\007\320"
 639      6540AD0E 
 639      6FB31CFE 
 639      8307D0
 640 1a02 24B06963 		.ascii	"$\260ic9l\266\014\250\325\341\2755\314\273\240\223{"
 640      396CB60C 
 640      A8D5E1BD 
 640      35CCBBA0 
 640      937B
 641 1a14 881601B5 		.ascii	"\210\026\001\265:lg9<e\231C\255\016\247\257e\337<\347"
 641      3A6C6739 
 641      3C659943 
 641      AD0EA7AF 
 641      65DF3CE7 
 642 1a28 E1D02404 		.ascii	"\341\320$\004\233\271\226\341\360,\017\207zo\374\352"
 642      9BB996E1 
ARM GAS  /tmp/ccnGnAVN.s 			page 51


 642      F02C0F87 
 642      7A6FFCEA 
 643 1a38 7D68E7E5 		.ascii	"}h\347\345\023\327\343\350V\217#\327\207H7 \335\210"
 643      13D7E3E8 
 643      568F23D7 
 643      87483720 
 643      DD88
 644 1a4a 7413D2CD 		.ascii	"t\023\322\315H\033\220nA\272\025\351GH\267!\335\201"
 644      481B906E 
 644      41BA15E9 
 644      4748B721 
 644      DD81
 645 1a5c 34867417 		.ascii	"4\206t\027=\002\032\0159\253]\324\204{f\017\216\011"
 645      3D021A0D 
 645      39AB5DD4 
 645      847B660F 
 645      8E09
 646 1a6e 70A54E9B 		.ascii	"p\245N\233\352\013\270\234\232p\257\300\331\337J\\\011"
 646      EA0BB89C 
 646      9A70AFC0 
 646      D9DF4A5C 
 646      09
 647 1a7f 388CF43A 		.ascii	"8\214\364:\322v\244\213\220\341\245HW ]\305\303\374"
 647      D276A48B 
 647      90E1A548 
 647      57205DC5 
 647      C3FC
 648 1a91 1267A6A6 		.ascii	"\022g\246\246B\315\346\343\334\036\006\233\217w6\212"
 648      42CDE6E3 
 648      DC1E069B 
 648      8F77368A 
 649 1aa1 B3264407 		.ascii	"\263&D\007\312;x>\261\0157Q\0268\2156\037\227RO\204"
 649      CA3B783E 
 649      B10D3751 
 649      16388D36 
 649      1F97524F 
 650 1ab6 5DF70F94 		.ascii	"]\367\017\224\367\372\240\305R\024\253\243\212m\222"
 650      F7FAA0C5 
 650      5214ABA3 
 650      8A6D92
 651 1ac5 1F24939F 		.ascii	"\037$\223\237\242_\203|\031\027\304\255C\245`\233\\"
 651      A25F837C 
 651      1917C4AD 
 651      43A5609B 
 651      5C
 652 1ad6 7009AEB6 		.ascii	"p\011\256\266\325\245(\250hCy\002M\273KJ\225\322\333"
 652      D5A528A8 
 652      68437902 
 652      4DBB4B4A 
 652      95D2DB
 653 1ae9 25FDC4A5 		.ascii	"%\375\304\245\267Kz\240z\237\010L\334%\273(\026\376"
 653      B74B7AA0 
 653      7A9F084C 
 653      DC25BB28 
 653      16FE
 654 1afb E9DB3F5C 		.ascii	"\351\333?\\:;\245L\343l\320m\234\350\034?\323,\237\273"
 654      3A3BA54C 
ARM GAS  /tmp/ccnGnAVN.s 			page 52


 654      E36CD06D 
 654      9CE81C3F 
 654      D32C9FBB 
 655 1b0f 4C9B4591 		.ascii	"L\233E\221v|\364\207W_\355\"\252\377\367TSLO\334/u\305"
 655      767CF487 
 655      575FED22 
 655      AAFFF754 
 655      534C4FDC 
 656 1b26 BD8DFF73 		.ascii	"\275\215\377s\035<S\373\016\210\203,l\015\037d\005\276"
 656      1D3C53FB 
 656      0E88832C 
 656      6C0D1F64 
 656      05BE
 657 1b38 426F0D2B 		.ascii	"Bo\015+\2142\012\370D_\001\367J\006\312\305a\030\305"
 657      8C320AF8 
 657      445F01F7 
 657      4A06CAC5 
 657      6118C5
 658 1b4b 6DD12643 		.ascii	"m\321&C\005\\\241\014\354 \2537\343b\264\336X+i2W\333"
 658      055CA10C 
 658      EC20AB37 
 658      E362B4DE 
 658      582B6932 
 659 1b61 9164B5AD 		.ascii	"\221d\265\255k\301\343\\\307\265\264\267?na[\244YOc"
 659      6BC1E35C 
 659      C7B5B4B7 
 659      3F6E615B 
 659      A4594F63 
 660 1b75 8C86BED4 		.ascii	"\214\206\276\324\323\320\370h;\253\241\343\346\032\212"
 660      D3D0F868 
 660      3BABA1E3 
 660      E61A8A
 661 1b84 9B481D3E 		.ascii	"\233H\035>\222\271W\021\325\250\224\302\340\011]\013"
 661      92B95711 
 661      D5A894C2 
 661      E0095D0B 
 662 1b94 396E20AA 		.ascii	"9n \252\231q\23465\016\366\271\001es\223QE\263\276\261"
 662      99719C36 
 662      350EF6B9 
 662      01657393 
 662      5145B3BE 
 663 1ba9 4CF733AA 		.ascii	"L\3673\252h\3412\226M\011'67E1\332\211]\367\365T_N\271"
 663      68E13296 
 663      4D092736 
 663      374531DA 
 663      895DF7F5 
 664 1bc1 80FC50C5 		.ascii	"\200\374P\305\230\363u\024)tm\254\305\334\306\316\351"
 664      98F37514 
 664      29746DAC 
 664      C5DCC6CE 
 664      E9
 665 1bd2 DAD8FCCF 		.ascii	"\332\330\374\317\254+\376{\023\3053\213\022DL#\230\313"
 665      AC2BFE7B 
 665      13C5338B 
 665      12444C23 
 665      98CB
 666 1be4 2E7A8C89 		.ascii	".z\214\211\203)\377Q<E\303]\326\267\3419l\303]\342j"
ARM GAS  /tmp/ccnGnAVN.s 			page 53


 666      8329FF51 
 666      3C45C35D 
 666      D6B7E139 
 666      6CC35DE2 
 667 1bf9 B81DA4D8 		.ascii	"\270\035\244\330e\\eiG`\343b\310\265R\254\365_\273\311"
 667      655C6569 
 667      4760E362 
 667      C8B552AC 
 667      F55FBBC9 
 668 1c0d FC4AC2AB 		.ascii	"\374J\302\253\277`\2121g,\243Tjm\325Y\303\324\006\237"
 668      BF608A31 
 668      672CA354 
 668      6A6DD559 
 668      C3D4069F 
 669 1c21 CA96B3D0 		.ascii	"\312\226\263\320\340F\265)\372\275\246\333\323f\357"
 669      E046B529 
 669      FABDA6DB 
 669      D366EF
 670 1c30 B3DEE077 		.ascii	"\263\336\340w9\234\312\354_\360\365\2446.\247\302\212"
 670      399CCAEC 
 670      5FF0F5A4 
 670      362EA7C2 
 670      8A
 671 1c41 DA662EEA 		.ascii	"\332f.\352}\255\250\177\025ms\354(p\313\264\226\326"
 671      7DADA87F 
 671      156D73EC 
 671      2870CBB4 
 671      96D6
 672 1c53 F3BBAAE6 		.ascii	"\363\273\252\346FwM\214\266\267\377\235\035{L^\236\232"
 672      46774D8C 
 672      B6B7FF9D 
 672      1D7B4C5E 
 672      9E9A
 673 1c65 E06664DE 		.ascii	"\340fd\336B{\027\345\231t\3457\357F\351\234K\007{\310"
 673      427B17E5 
 673      9974E537 
 673      EF46E99C 
 673      4B077BC8 
 674 1c79 FF8B6692 		.ascii	"\377\213f\222\033\377\337\023\2433N\234X\335\017d\267"
 674      1BFFDF13 
 674      A3334E9C 
 674      58DD0F64 
 674      B7
 675 1c8a 7232629C 		.ascii	"r2b\234d0|b\177f\255\247?s\320\341\326\313\266\3504"
 675      64307C62 
 675      7F66ADA7 
 675      3F73D0E1 
 675      D6CBB6E8 
 676 1c9f 37E64BC2 		.ascii	"7\346K\302\355_hw\026\250r\003\214\026\313\372'\202"
 676      ED5F6877 
 676      16A87203 
 676      8C16CBFA 
 676      2782
 677 1cb1 CF37DD4F 		.ascii	"\3177\335O$\337\311X\306\204\307\264\034\2527Mu\263"
 677      24DFC958 
 677      C684C7B4 
 677      1CAA374D 
ARM GAS  /tmp/ccnGnAVN.s 			page 54


 677      75B3
 678 1cc3 8D56136F 		.ascii	"\215V\023o\264\206\352C3\305\351\023\026\312\017\223"
 678      B486EA43 
 678      33C5E913 
 678      16CA0F93 
 679 1cd3 699B8D7F 		.ascii	"i\233\215\177\017\250\376\013\242\247\231n\262\011\364"
 679      0FA8FE0B 
 679      A2A7996E 
 679      B209F4
 680 1ce2 26C305E7 		.ascii	"&\303\005\347&\320l7\263\011t\354\015\334\004\"\371"
 680      26D06C37 
 680      B30974EC 
 680      0DDC0422 
 680      F9
 681 1cf3 A9378166 		.ascii	"\2517\201f=\226\274\0114\3571\335M\240\017\036\323\375"
 681      3D96BC09 
 681      34EF31DD 
 681      4DA00F1E 
 681      D3FD
 682 1d05 AF78EB1F 		.ascii	"\257x\353\037\323\375\257x;\036\323\376W<\365\277\215"
 682      D3FDAF78 
 682      3B1ED3FE 
 682      573CF5BF 
 682      8D
 683 1d16 26B2E9FF 		.ascii	"&\262\351\377\010z8\221M\377G\320s\211l\372?\202^Nd"
 683      087A3891 
 683      4DFF47D0 
 683      73896CFA 
 683      3F825E4E 
 684 1d2b BBA9EC5B 		.ascii	"\273\251\354[\211\354\014*{\362\343\361\354\016T\366"
 684      89EC0C2A 
 684      7BF2E3F1 
 684      EC0E54F6 
 685 1d3b BB89EC4C 		.ascii	"\273\211\354L*{M\";\213\312\336\226\310\356He\177\221"
 685      2A7B4D22 
 685      3B8BCADE 
 685      96C8EE48 
 685      657F91
 686 1d4e C8EE4465 		.ascii	"\310\356De\237Ldw\246\262/&\262\273P\331\327\023\331"
 686      9F4C6477 
 686      A6B22F26 
 686      B2BB50D9 
 686      D713D9
 687 1d61 5DA9EC6A 		.ascii	"]\251\354jO<\373\001\232\357D\366\203J[\222\237\246"
 687      4F3CFB01 
 687      9AEF44F6 
 687      834A5B92 
 687      9FA6
 688 1d73 7B71091B 		.ascii	"{q\011\033\361\211s\260C\324\270\365\367\342\214\234"
 688      F18973B0 
 688      43D4B8F5 
 688      F7E28C9C 
 689 1d83 CD0CD6D9 		.ascii	"\315\014\326\331\334\243\235\315YQ\033\312,\023\365"
 689      DCA39DCD 
 689      59511BCA 
 689      2C13F5
 690 1d92 46C4F51E 		.ascii	"F\304\365\036\375n\366\261;i\030h\231\026[\360%\204"
ARM GAS  /tmp/ccnGnAVN.s 			page 55


 690      FD6EF6B1 
 690      3B691868 
 690      99165BF0 
 690      2584
 691 1da4 E48B4848 		.ascii	"\344\213HH\376g\326)\222\376b\304\350\247,\243\344\341"
 691      FE67D629 
 691      92FE62C4 
 691      E8A72CA3 
 691      E4E1
 692 1db6 7C8B8C36 		.ascii	"|\213\2146\0300\272W\217\321\226\273Mk\215\030%u\033"
 692      1830BA57 
 692      8FD196BB 
 692      4D6B8D18 
 692      25751B
 693 1dc9 31BA8F65 		.ascii	"1\272\217e\364\202\2304d\3554`\344\037I\216\251MR\331"
 693      F4829834 
 693      64ED3460 
 693      E41F498E 
 693      A94D52D9 
 694 1ddd D9BCFB90 		.ascii	"\331\274\373\220\315h41S\334~\275\026f\370\371\334\200"
 694      CD683431 
 694      53DC7EBD 
 694      1666F8F9 
 694      DC80
 695 1def 9F262D3F 		.ascii	"\237&-?\377$,\212F\233`\272\275\242\0279\241 J\246\221"
 695      FF242C8A 
 695      469B60BA 
 695      BDA21739 
 695      A1204AA6 
 696 1e04 627C2E7B 		.ascii	"b|.{(\016b\304\312\241\004\\\232{`G\264\302d\011o\320"
 696      280E62C4 
 696      CAA1045C 
 696      9A7B6047 
 696      B4C26409 
 697 1e1a 315F7FE3 		.ascii	"1_\177\343-\260\257\334Y\002\3631\272\365\260[\377="
 697      2DB0AFDC 
 697      5902F331 
 697      BAF5B05B 
 697      FF3D
 698 1e2c 7F79EC34 		.ascii	"\177y\3544*u\314\260\024\031\317\215J\0357(\305\257"
 698      2A75CCB0 
 698      1419CF8D 
 698      4A1D3728 
 698      C5AF
 699 1e3e 91AFD9E6 		.ascii	"\221\257\331\346%\222r=^\326l\310\361\014\023\216O\032"
 699      2592723D 
 699      5ED66CC8 
 699      F10C138E 
 699      4F1A
 700 1e50 96225660 		.ascii	"\226\"V`T\352\224a\251}&u\265\030\226\372\324\244\324"
 700      54EA9461 
 700      A97D2675 
 700      B51896FA 
 700      D4A4D4
 701 1e63 698352F4 		.ascii	"i\203R\364&\017u\242@7\265\274\372X\351Y\267\325=\236"
 701      260F75A2 
 701      4037B5BC 
ARM GAS  /tmp/ccnGnAVN.s 			page 56


 701      FA58E959 
 701      B7D53D9E 
 702 1e77 6FDCFA7B 		.ascii	"o\334\372{<\3643\025z\345\316\030\312G^\2407*u\316\260"
 702      3CF43315 
 702      7AE5CE18 
 702      CA475EA0 
 702      372A75CE 
 703 1e8c D4059352 		.ascii	"\324\005\223R\347\371,M7\026WF\250\343\036*\360\275"
 703      E7F92C4D 
 703      37165746 
 703      A8E31E2A 
 703      F0BD
 704 1e9e C0DA5D5F 		.ascii	"\300\332]_\312\0353\017=2?\377\234\274xb\304\365\267"
 704      CA1D330F 
 704      3D323FFF 
 704      9CBC7862 
 704      C4F5B7
 705 1eb1 86B2EE37 		.ascii	"\206\262\3567\261\200\313\211R\202\275x\244/\344\034"
 705      B180CB89 
 705      5282BD78 
 705      A42FE41C 
 706 1ec1 30E4794F 		.ascii	"0\344yO\216\360L\366\310`\271?\2738X26\273\304?*\273"
 706      8EF04CF6 
 706      C860B93F 
 706      BB385832 
 706      36BBC43F 
 707 1ed7 78646078 		.ascii	"xd`x \030\316\216\204\252*^\316\206\204\177L$\273\324"
 707      2018CE8E 
 707      84AA2A5E 
 707      CE86847F 
 707      4C24BBD4 
 708 1eeb 17290D67 		.ascii	"\027)\015g\207C\305\331\201\212\210\177\204?\324k\244"
 708      8743C5D9 
 708      818A887F 
 708      843FD46B 
 708      A4
 709 1efc 60EFF762 		.ascii	"`\357\367bQ\336S\326J\227\226BAG\377\276E\375\013]\245"
 709      51DE53D6 
 709      4A979642 
 709      4147FFBE 
 709      45FD0B5D 
 710 1f11 616F646C 		.ascii	"aodl\245\337V\022\032\345(\016\007\376\217\337Y\341"
 710      A5DF5612 
 710      1AE5280E 
 710      07FE8FDF 
 710      59E1
 711 1f23 853BC38E 		.ascii	"\205;\303\216\321\245e\276\021\356\322p\300K\022\366"
 711      D1A565BE 
 711      11EED270 
 711      C04B12F6 
 712 1f33 BF0E2DC8 		.ascii	"\277\016-\310\225\002%\031\025\336P0\030)\011\204\034"
 712      95022519 
 712      15DE5030 
 712      18290984 
 712      1C
 713 1f44 B924AB43 		.ascii	"\271$\253C\231/\034\361\026\227U\205#\035JC~\277\234"
 713      992F1CF1 
ARM GAS  /tmp/ccnGnAVN.s 			page 57


 713      16975585 
 713      231D4A43 
 713      7EBF9C
 714 1f57 742386BF 		.ascii	"t#\206\277\"\342(%\220\256Q\301\262\341\276\260\337"
 714      22E22825 
 714      90AE51C1 
 714      B2E1BEB0 
 714      DF
 715 1f68 0599F80D 		.ascii	"\005\231\370\015\305\311\267\273\304\027\361a\306\350"
 715      C5C9B7BB 
 715      C417F161 
 715      C6E8
 716 1f76 4045D85F 		.ascii	"@E\330_\034\261\301\267\243(g`\337\202N\341\222\362"
 716      1CB1C1B7 
 716      A3286760 
 716      DF824EE1 
 716      92F2
 717 1f88 72E0A7BC 		.ascii	"r\340\247\274\262\314\017\314\272\360\2477\342\300\357"
 717      B2CC0FCC 
 717      BAF0A737 
 717      E2C0EF
 718 1f97 DFA51277 		.ascii	"\337\245\022w\244\257\014T\004"
 718      A4AF0C54 
 718      04
 719 1fa0 AC94F8B3 		.ascii	"\254\224\370\263I\271pe\000@2\006\017\316\311\015\005"
 719      49B97065 
 719      00403206 
 719      0FCEC90D 
 719      05
 720 1fb1 46F94359 		.ascii	"F\371CY\361\324\013\203\213\034\336~\301`Yf \354%L\204"
 720      F1D40B83 
 720      8B1CDE7E 
 720      C1605966 
 720      20EC254C 
 721 1fc6 22FE922C 		.ascii	"\"\376\222,HW\206\202\021\340\310_\342*\016VT@\252C"
 721      48578682 
 721      11E0C85F 
 721      E22A0E56 
 721      5440AA43 
 722 1fda 4920AC24 		.ascii	"I \254$\177\225]\025\016e\373B\345\277\251\010V\370"
 722      7F955D15 
 722      0E65FB42 
 722      E5BFA908 
 722      56F8
 723 1fec 7FE3F70D 		.ascii	"\177\343\367\015\017\304\253\013\203n*\"P\233\273\012"
 723      0FC4AB0B 
 723      836E2A22 
 723      509BBB0A 
 724 1ffc BE9F7AD2 		.ascii	"\276\237z\322"
 725 2000 1B79DAE4 		.ascii	"\033y\332\344\356r\037\360^\341\317\366\226\370K}Ue"
 725      EE721FF0 
 725      5EE1CFF6 
 725      96F84B7D 
 725      5565
 726 2012 116C8B30 		.ascii	"\021l\2130\224\356\340\365\252\345]$\361\2147\222!g"
 726      94EEE0F5 
 726      AAE55D24 
ARM GAS  /tmp/ccnGnAVN.s 			page 58


 726      F18C3792 
 726      2167
 727 2024 41CA1EF2 		.ascii	"A\312\036\362\373J\034\243C\201\210\337\036\036[Q\374"
 727      FB4A1CA3 
 727      438188DF 
 727      1E1E5B51 
 727      FC
 728 2035 472BFA80 		.ascii	"G+\372\200\2647\020\034^\026,~\031\352\351\334\217$"
 728      B437101C 
 728      5E162C7E 
 728      19EAE9DC 
 728      8F24
 729 2047 72FDA302 		.ascii	"r\375\243\002\305\376\374\212\322\240{x\331\313^l3\222"
 729      C5FEFC8A 
 729      D2A07B78 
 729      D9CB5E6C 
 729      3392
 730 2059 A8A82A77 		.ascii	"\250\250*w\217\360G@1\245A\333\250\362H\007\310\014"
 730      8FF04740 
 730      31A541DB 
 730      A8F24807 
 730      C80C
 731 206b 47A065BD 		.ascii	"G\240e\275\221\016\375\006=\347}~H\376\220\374\"7I\026"
 731      910EFD06 
 731      3DE77D7E 
 731      48FE90FC 
 731      22374916 
 732 207f 160D1D86 		.ascii	"\026\015\035\206y}s\212\362_\310\353D\2229C\207\014"
 732      797D738A 
 732      F25FC8EB 
 732      44923943 
 732      870C
 733 2091 C9839F43 		.ascii	"\311\203\237C\006t%?s\363\013\0239\031$\247 \257o\356"
 733      0674253F 
 733      73F30B13 
 733      391924A7 
 733      20AF6FEE 
 734 20a5 8B996A0A 		.ascii	"\213\231j\012r1\375\327\202\374\"5]\370\342\220\034"
 734      7231FDD7 
 734      82FC2235 
 734      5DF8E290 
 734      1C
 735 20b6 483BB056 		.ascii	"H;\260V[q\240\304V\034.q\027\373*}\305\201\310\330\\"
 735      5B71A0C4 
 735      561C2E71 
 735      17FB2A7D 
 735      C581C8D8 
 736 20cb 1EC12B83 		.ascii	"\036\301+\203\241H8\273\260h\360SOf\017\032\224\233"
 736      A14838BB 
 736      B068F053 
 736      4F660F1A 
 736      949B
 737 20dd 5D382C7F 		.ascii	"]8,\177T\237l0\011oYY\0111\013\310\220\215\341I+z\224"
 737      549F6C30 
 737      096F5959 
 737      09310BC8 
 737      908DE149 
ARM GAS  /tmp/ccnGnAVN.s 			page 59


 738 20f4 6DAA037C 		.ascii	"m\252\003|\251\032\001\034U#$I4B\260e)\361\257\262n"
 738      A91A011C 
 738      55232449 
 738      3442B065 
 738      29F1AFB2 
 739 2109 B2483267 		.ascii	"\262H2g\350\340a\203\362\212\362:\002@\261\257\014\372"
 739      E8E06183 
 739      F28AF23A 
 739      0240B1AF 
 739      0CFA
 740 211b 47F1CBDE 		.ascii	"G\361\313\336\210\323_Q\342-\036\376\007\236\376\234"
 740      88D35F51 
 740      E22D1EFE 
 740      079EFE9C 
 741 212b 33B830BF 		.ascii	"3\2700\277\020\344\002\223+\177\352\311\322>\275\307"
 741      10E40293 
 741      2B7FEAC9 
 741      D23EBDC7 
 742 213b 003F5903 		.ascii	"\000?Y\003\206\345\017\365\026\201\025\345\372Km9\005"
 742      86E50FF5 
 742      168115E5 
 742      FA4B6D39 
 742      05
 743 214c 83E01A68 		.ascii	"\203\340\032h\313\317-\260\015\315-\260\367+,(\260\365"
 743      CBCF2DB0 
 743      0DCD2DB0 
 743      F72B2C28 
 743      B0F5
 744 215e 2B28B00F 		.ascii	"+(\260\017\312y\256 /\035\345\021x\320^%\030\221\254"
 744      CA79AE20 
 744      2F1DE511 
 744      78D05E25 
 744      1891AC
 745 2171 BD0E8120 		.ascii	"\275\016\201 \271'P\002\314\207\303$\211\206\337\347"
 745      B9275002 
 745      CC87C324 
 745      8986DFE7 
 746 2181 77A010D9 		.ascii	"w\240\020\331`I\322\001\177\362A\333\205\372\020\215"
 746      6049D201 
 746      7FF241DB 
 746      85FA108D 
 747 2191 E4042B4A 		.ascii	"\344\004+J\003#\234\305\370\225\322\363\205\"q\235\027"
 747      03239CC5 
 747      F895D2F3 
 747      8522719D 
 747      17
 748 21a2 8F0C8F0D 		.ascii	"\217\014\217\015\253]\304\035\031I\372\001t\214\342"
 748      AB5DC41D 
 748      1949FA01 
 748      748CE2
 749 21b1 915E39FD 		.ascii	"\221^9\375\2645\254\342\221D\002g\245\267\002\364\011"
 749      B435ACE2 
 749      91440267 
 749      A5B702F4 
 749      09
 750 21c2 5F9521FF 		.ascii	"_\225!\377\250\201\034\020\262R\372\026\014\316\031"
 750      A8811C10 
ARM GAS  /tmp/ccnGnAVN.s 			page 60


 750      B252FA16 
 750      0CCE19
 751 21d1 3C06EE2C 		.ascii	"<\006\356,\257\014\224\371C\341\354\00199p\273\312\236"
 751      AF0C94F9 
 751      43E1EC01 
 751      393970BB 
 751      CA9E
 752 21e3 2B52190A 		.ascii	"+R\031\012\004\2752n H\334H\004\252I\331\264I\370#\213"
 752      04BD326E 
 752      2048DC48 
 752      04AA49D9 
 752      B449F823 
 753 21f8 8321E203 		.ascii	"\203!\342\0033I6t\305Hqd\314\177O\017\305;\352\367\345"
 753      33493674 
 753      C5487164 
 753      CC7F4F0F 
 753      C53BEAF7 
 754 220d 447321FF 		.ascii	"Ds!\377\010\360G\336\210\024zZ\012\375V\012\375N\012"
 754      08F047DE 
 754      88147A5A 
 754      0AFD560A 
 754      FD4E0A
 755 2220 FD5E0A3D 		.ascii	"\375^\012=#\205\376`\013\365\351\015W\037\251,\004_"
 755      2385FE60 
 755      0BF5E90D 
 755      571FA92C 
 755      045F
 756 2232 4F392ABD 		.ascii	"O9*\275P\233\213hh\264?\004\337\301\262\022\177\210"
 756      509B8B68 
 756      68B43F04 
 756      DFC1B212 
 756      7F88
 757 2244 68CC57EE 		.ascii	"h\314W\356wG\024\313\207|L\271\"\345\301\022\3717\031"
 757      774714CB 
 757      877C4CB9 
 757      22E5C112 
 757      F93719
 758 2257 33C2AE48 		.ascii	"3\302\256H\310O\306\027\270\237$\034\345\341\021\360"
 758      C84FC617 
 758      B89F241C 
 758      E5E111F0 
 759 2267 47C5AD81 		.ascii	"G\305\255\201;SR\316P\311X\370\223\333?&\020\001\211"
 759      3B5352CE 
 759      50C958F8 
 759      93DB3F26 
 759      100189
 760 227a FCCED191 		.ascii	"\374\316\321\221\340\360\177\253\314\364\217\202\021"
 760      E0F07FAB 
 760      CCF48F82 
 760      11
 761 2287 A4DC17C6 		.ascii	"\244\334\027\306~1\232$l\225\336\252NrS\207\275e\320"
 761      7E319A24 
 761      6C95DEAA 
 761      4E725387 
 761      BD65D0
 762 229a F1BC91CE 		.ascii	"\361\274\221\316\361\306\227s2*\275\243}\201H\240bD"
 762      F1C69773 
ARM GAS  /tmp/ccnGnAVN.s 			page 61


 762      322ABDA3 
 762      7D8148A0 
 762      6244
 763 22ac 6735FB95 		.ascii	"g5\373\225*\177\025p\325\205\272\023\263:Tz\241ZL:0"
 763      2A7F1570 
 763      D585BA13 
 763      B33A547A 
 763      A15A4C3A 
 764 22c1 0919FE4A 		.ascii	"\011\031\376J\350\201P\330Q^\005\255\225r\\\325\330"
 764      E88150D8 
 764      515E05AD 
 764      95725CD5 
 764      D8
 765 22d2 537984F4 		.ascii	"Sy\204\364@W\271\214\016\337\301\321\025\2404D\002\021"
 765      4057B98C 
 765      0EDFC1D1 
 765      15A03444 
 765      0211
 766 22e4 CAD1CC80 		.ascii	"\312\321\314\200?\270\217p\332\201h\305W\206\306\001"
 766      3FB88F70 
 766      DA8168C5 
 766      5786C601 
 767 22f4 99953008 		.ascii	"\231\2250\010\375\336R}\2120P\347\003JW\000-\373C\376"
 767      FDDE527D 
 767      8A3050E7 
 767      034A5700 
 767      2DFB43FE 
 768 2308 8A6290D6 		.ascii	"\212b\220\326)ge\022_\223p\007}2\012\362\012\363\012"
 768      29676512 
 768      5F937007 
 768      7D320AF2 
 768      0AF30A
 769 231b 5EC8CBED 		.ascii	"^\310\313\355\015\277\236\214\377\352#\025\026\304\177"
 769      0DBF9E8C 
 769      FFEA2315 
 769      16C47F
 770 232a 3C29E526 		.ascii	"<)\345&~<\345\310)\310\031\226\370\375\264\263\340o"
 770      7E3CE5C8 
 770      29C81996 
 770      F8FDB4B3 
 770      E06F
 771 233c 9093C8F8 		.ascii	"\220\223\310\370\255\263H\233\361;W\376\223\2059\375"
 771      ADB3489B 
 771      F13B57FE 
 771      938539FD 
 772 234c 0724727E 		.ascii	"\007$r~\357\200\034\012\343\031\0338\275\376V\335\017"
 772      EF801C0A 
 772      E3191B38 
 772      BDFE56DD 
 772      0F
 773 235d D2FE7DC6 		.ascii	"\322\376}\306\214\221\035\236\267\244\334\007\242?\230"
 773      8C911D9E 
 773      B7A4DC07 
 773      A23F98
 774 236c 3BB8AF37 		.ascii	";\270\2577g\244\017\006\346\262\204\2409\005\216\234"
 774      67A40F06 
 774      E6B284A0 
ARM GAS  /tmp/ccnGnAVN.s 			page 62


 774      39058E9C 
 775 237c 21B94505 		.ascii	"!\271E\005\366\234a}\201\014\356[\340*\226\357\261\007"
 775      F69C617D 
 775      810CEE5B 
 775      E02A96EF 
 775      B107
 776 238e 4A8B43CE 		.ascii	"J\213C\316@xd\2404\222\021\366\227\225\006*J\374c\234"
 776      407864A0 
 776      349211F6 
 776      9795062A 
 776      4AFC639C 
 777 23a2 A360580F 		.ascii	"\243`X\017\206\036\210#\203A\203\372\240\2138\340Gh"
 777      861E8823 
 777      834183FA 
 777      A08B38E0 
 777      4768
 778 23b4 0CA19131 		.ascii	"\014\241\2211\031\2411\360Ml<#\242\246\354 J\245\243"
 778      19A131F0 
 778      4D6C3C23 
 778      A2A6EC20 
 778      4AA5A3
 779 23c7 2C5C5C3A 		.ascii	",\\\\:\3021\222P\022e\310\016\2563\016\262^_II\310\037"
 779      C2319250 
 779      1265C80E 
 779      AE330EB2 
 779      5E5F4949 
 780 23dd 0EFBC376 		.ascii	"\016\373\303v\010EJ\310\375%\256R\360\030\340\312\334"
 780      08454AC8 
 780      FD25AE52 
 780      F018E0CA 
 780      DC
 781 23ee 905300AD 		.ascii	"\220S\000\2554\026\3020\374\356H\"\242\262\340\0109"
 781      3416C230 
 781      FCEE4822 
 781      A2B2E008 
 781      39
 782 23ff B6CB4AFC 		.ascii	"\266\313J\374\002o\232\370a\013\227\024\273 9\314\027"
 782      026F9AF8 
 782      610B9714 
 782      BB2039CC 
 782      17
 783 2410 19995542 		.ascii	"\031\231UB\206\256\301\301*\360.%\316\012\004Ni\266"
 783      86AEC1C1 
 783      2AF02E25 
 783      CE0A044E 
 783      69B6
 784 2422 A37C6074 		.ascii	"\243|`tUa\370\003X_E\204\204\203\326LO\326\0161\275"
 784      5561F803 
 784      585F4584 
 784      8483D64C 
 784      4FD60E31 
 785 2437 87FA41FC 		.ascii	"\207\372A\374V\350\007\223\257\210\004|e\205\370\207"
 785      56E80793 
 785      AF88047C 
 785      6585F887 
 786 2447 9FEB6542 		.ascii	"\237\353eB\250\365$\206Be\201\341\331#\212\213\231\220"
 786      A8F52486 
ARM GAS  /tmp/ccnGnAVN.s 			page 63


 786      426581E1 
 786      D9238A8B 
 786      9990
 787 2459 E8E95ECF 		.ascii	"\350\351^\317\364z\232\016\243 $\"\336\231\004#\336"
 787      F47A9A0E 
 787      A3202422 
 787      DE990423 
 787      DE
 788 246a 88ADB22A 		.ascii	"\210\255\262*b\203P\304\255\262l\203\204\255\264<Bk"
 788      628350C4 
 788      ADB26C83 
 788      84ADB43C 
 788      426B
 789 247c AC5870CA 		.ascii	"\254Xp\312\001\222\033}\013\211\231\340/D%\340v\224"
 789      01921B7D 
 789      0B8999E0 
 789      2F4425E0 
 789      7694
 790 248e 949D782E 		.ascii	"\224\235x.\247\242\307\376\371\203\244\322\260\2358"
 790      A7A2C7FE 
 790      F983A4D2 
 790      B09D38
 791 249d 2B9B3F14 		.ascii	"+\233?\024\262\227VFB\3160\206\260\016\231\226\220\260"
 791      B2975646 
 791      42CE3086 
 791      B00E9996 
 791      90B0
 792 24af D40DF1AA 		.ascii	"\324\015\361\252\227$H\340\352\205{l\303\253J\355\004"
 792      972448E0 
 792      EA857B6C 
 792      C3AB4AED 
 792      04
 793 24c0 ADAB823A 		.ascii	"\255\253\202:\304?\272W\245/\024\351\325\333\0069\277"
 793      C43FBA57 
 793      A52F14E9 
 793      D5DB0639 
 793      BF
 794 24d1 B51447F8 		.ascii	"\265\024G\370C\240\"\322\332\205\230\222C\221\316\364"
 794      43A022D2 
 794      DA859892 
 794      4391CEF4 
 795 24e1 0FD05C06 		.ascii	"\017\320\\\006\031\370\002\345 \210\0354\021\261\203"
 795      19F802E5 
 795      20881D34 
 795      11B183
 796 24f0 2A224E8C 		.ascii	"*\"N\214\000#\016\322\317#)cbM\373\241k%\315\327\011"
 796      00230ED2 
 796      CF232963 
 796      624DFBA1 
 796      6B25CDD7 
 797 2505 53DE70B0 		.ascii	"S\336p\260*D\274F\026\375\263\213\374\203\370*\177\005"
 797      2A44BC46 
 797      16FDB38B 
 797      FC83F82A 
 797      7F05
 798 2517 31C14EDA 		.ascii	"1\301N\332\014\027\3648\342\3222\341[\315\313\200\264"
 798      0C17F438 
ARM GAS  /tmp/ccnGnAVN.s 			page 64


 798      E2D232E1 
 798      5BCDCB80 
 798      B4
 799 2528 0C2E43E1 		.ascii	"\014.C\3418\000\015\002\331\230$\177\037-\017\016\376"
 799      38000D02 
 799      D998247F 
 799      1F2D0F0E 
 799      FE
 800 2539 309676E0 		.ascii	"0\226v\340}\031\341\022e0\311(\314U\242(\027\244H\020"
 800      7D19E112 
 800      6530C928 
 800      CC55A228 
 800      17A44810 
 801 254d E5866F8C 		.ascii	"\345\206o\214\241\254\311\210^\230\310\3301P\001:S\207"
 801      A1ACC988 
 801      5E98C8D8 
 801      3150013A 
 801      5387
 802 255f 010858D4 		.ascii	"\001\010X\324\244[Mf\274\242\016\032\220*\306\276\024"
 802      A45B4D66 
 802      BCA20E1A 
 802      902AC6BE 
 802      14
 803 2570 72BFE285 		.ascii	"r\277\342\205V\006\177\352x\305\033\011V\272\340\226"
 803      56067FEA 
 803      78C51B09 
 803      56BAE096 
 804 2580 10343D7C 		.ascii	"\0204=|\207J\340;\343\225\212`$P:\026P^\361\312I\347"
 804      874AE03B 
 804      E3958A60 
 804      24503A16 
 804      505EF1CA 
 805 2596 2BA0868A 		.ascii	"+\240\206\212\227\235\001\304\354\024\254\212P\325:"
 805      979D01C4 
 805      EC14AC8A 
 805      50D53A
 806 25a5 83989002 		.ascii	"\203\230\220\002\303\245\340\360\216\317\027\366-(\242"
 806      C3A5E0F0 
 806      8ECF17F6 
 806      2D28A2
 807 25b4 FCF253F6 		.ascii	"\374\362S\366\001E\303\012\034Ua\260\241\207\210E\017"
 807      0145C30A 
 807      1C5561B0 
 807      A1878845 
 807      0F
 808 25c5 4203CDAF 		.ascii	"B\003\315\257\010\220\376\003=@\012\227\330J\206\217"
 808      0890FE03 
 808      3D400A97 
 808      D84A868F 
 809 25d5 E894F85B 		.ascii	"\350\224\370[!0\325!a~\231J\262\020n\316R\322\177%\366"
 809      2130D521 
 809      617E994A 
 809      B2106ECE 
 809      52D27F25 
 810 25ea E12CF357 		.ascii	"\341,\363W\214\210\214\354L\347\345\204G9\340\253<\014"
 810      8C888CEC 
 810      4CE7E584 
ARM GAS  /tmp/ccnGnAVN.s 			page 65


 810      4739E0AB 
 810      3C0C
 811 25fc 1E10CCD6 		.ascii	"\036\020\314\326\007\256\317Y\201\031j\321\234\262`"
 811      07AECF59 
 811      81196AD1 
 811      9CB260
 812 260b D86FA9BB 		.ascii	"\330o\251\273\372B#\310\3507\312\207\266\320\311\353"
 812      FA4223C8 
 812      E837CA87 
 812      B6D0C9EB 
 813 261b 1D515155 		.ascii	"\035QQU\354U~f\376\313\360\252@Y\3447\201\212?\0110"
 813      EC557E66 
 813      FECBF0AA 
 813      4059E437 
 813      818A3F09 
 814 2630 F02BB910 		.ascii	"\360+\271\020\270\215\222{\263\253?\214\015\317\017"
 814      B88D927B 
 814      B3AB3F8C 
 814      0DCF0F
 815 263f 2A72F42F 		.ascii	"*r\364/\360\016}.\023(L\026\236\363\346\025\024t\200"
 815      F00E7D2E 
 815      13284C16 
 815      9EF3E615 
 815      147480
 816 2652 74FE9022 		.ascii	"t\376\220\"\222\314\202\344\220\241EJ<\215?\274\320"
 816      92CC82E4 
 816      90A1454A 
 816      3C8D3FBC 
 816      D0
 817 2663 83F394E4 		.ascii	"\203\363\224\344\260\276E\003;\343\335/\364\035\224"
 817      B0BE4503 
 817      3BE3DD2F 
 817      F41D94
 818 2672 9FEB1DD2 		.ascii	"\237\353\035\322wp^\006A\312\033\222\237\227\353\206"
 818      77705E06 
 818      41CA1B92 
 818      9F97EB86 
 819 2682 54DEDFF2 		.ascii	"T\336\337\362\013\213\272R\267\014\355\367\027\230\215"
 819      0B8BBA52 
 819      B70CEDF7 
 819      17988D
 820 2691 3C003964 		.ascii	"<\0009d\316\221\347\035V0\264\0102\362r\273P7\345\026"
 820      CE91E71D 
 820      5630B408 
 820      32F272BB 
 820      5037E516 
 821 26a5 90F98C52 		.ascii	"\220\371\214Rw\336\220\276\375\006\311\177Wj/|\261\260"
 821      77DE90BE 
 821      FD06C97F 
 821      576A2F7C 
 821      B1B0
 822 26b7 286F30A9 		.ascii	"(o0\251x\360s\375\013\275}\373\015-\000\000\302SQ\376"
 822      78F073FD 
 822      0BBD7DFB 
 822      0D2D0000 
 822      C25351FE 
 823 26cb E0BCA1CF 		.ascii	"\340\274\241\317\027\021\036\006\015\315y./\367\201"
ARM GAS  /tmp/ccnGnAVN.s 			page 66


 823      17111E06 
 823      0DCD792E 
 823      2FF781
 824 26da 38C8D0E7 		.ascii	"8\310\320\347\007\014\204)@A\336\303\344\276\241C\275"
 824      070C8429 
 824      4041DEC3 
 824      E4BEA143 
 824      BD
 825 26eb 83FB0E79 		.ascii	"\203\373\016y\321;tX\336\020\031\363!\252~\030\301@"
 825      D13B7458 
 825      DE1019F3 
 825      21AA7E18 
 825      C140
 826 26fd 92A2BC02 		.ascii	"\222\242\274\002g\2517\010\341\211\253\324[NL\264\003"
 826      67A93708 
 826      E189ABD4 
 826      5B4E4CB4 
 826      03
 827 270e CE8507F8 		.ascii	"\316\205\007\370#d\026\017\363nh0Gn^\277\347\007\270"
 827      2364160F 
 827      F36E6830 
 827      476E5EBF 
 827      E707B8
 828 2721 A0952AAA 		.ascii	"\240\225*\252\312\312\376\037\324\245\334\266"
 828      CACAFE1F 
 828      D4A5DCB6 
 829              		.text
 830              		.section	.gnu.lto_.symtab.aeb0d74beb31fa14,"",%progbits
 831 0000 64617461 		.ascii	"dataLoggerInitialize\000\000\000\000\000\000\000\000"
 831      4C6F6767 
 831      6572496E 
 831      69746961 
 831      6C697A65 
 832 001c 00000000 		.ascii	"\000\000\000\000\037\003\000\000dataLoggerStop\000\000"
 832      1F030000 
 832      64617461 
 832      4C6F6767 
 832      65725374 
 833 0034 00000000 		.ascii	"\000\000\000\000\000\000\000\000\000\000\314\003\000"
 833      00000000 
 833      0000CC03 
 833      00
 834 0041 006C6F67 		.ascii	"\000logfileNew\000\000\000\000\000\000\000\000\000\000"
 834      66696C65 
 834      4E657700 
 834      00000000 
 834      00000000 
 835 0056 0000D203 		.ascii	"\000\000\322\003\000\000logfileSize\000\000\000\000"
 835      00006C6F 
 835      6766696C 
 835      6553697A 
 835      65000000 
 836 006b 00000000 		.ascii	"\000\000\000\000\000\000\000\000\332\003\000\000log"
 836      00000000 
 836      DA030000 
 836      6C6F67
 837 007a 66696C65 		.ascii	"fileWrite\000\000\000\000\000\000\000\000\000\000\000"
ARM GAS  /tmp/ccnGnAVN.s 			page 67


 837      57726974 
 837      65000000 
 837      00000000 
 837      00000000 
 838 008e 00E00300 		.ascii	"\000\340\003\000\000logfileWriteCsv\000\000\000\000"
 838      006C6F67 
 838      66696C65 
 838      57726974 
 838      65437376 
 839 00a6 00000000 		.ascii	"\000\000\000\000\000\000\000\000\353\003\000\000log"
 839      00000000 
 839      EB030000 
 839      6C6F67
 840 00b5 66696C65 		.ascii	"fileClose\000\000\000\000\000\000\000\000\000\000\000"
 840      436C6F73 
 840      65000000 
 840      00000000 
 840      00000000 
 841 00c9 00FB0300 		.ascii	"\000\373\003\000\000chvprintf\000\000\002\000\000\000"
 841      00636876 
 841      7072696E 
 841      74660000 
 841      02000000 
 842 00dd 00000000 		.ascii	"\000\000\000\000\000\000\002\004\000\000f_open\000\000"
 842      00000204 
 842      0000665F 
 842      6F70656E 
 842      0000
 843 00ef 02000000 		.ascii	"\002\000\000\000\000\000\000\000\000\000\021\004\000"
 843      00000000 
 843      00001104 
 843      00
 844 00fc 00665F6D 		.ascii	"\000f_mount\000\000\002\000\000\000\000\000\000\000"
 844      6F756E74 
 844      00000200 
 844      00000000 
 844      0000
 845 010e 00004404 		.ascii	"\000\000D\004\000\000sdmmcGetFS\000\000\002\000\000"
 845      00007364 
 845      6D6D6347 
 845      65744653 
 845      00000200 
 846 0123 00000000 		.ascii	"\000\000\000\000\000\000\000J\004\000\000f_close\000"
 846      0000004A 
 846      04000066 
 846      5F636C6F 
 846      736500
 847 0136 00020000 		.ascii	"\000\002\000\000\000\000\000\000\000\000\000O\004\000"
 847      00000000 
 847      0000004F 
 847      0400
 848 0144 00       		.ascii	"\000"
 849              		.text
 850              		.section	.gnu.lto_.opts,"",%progbits
 851 0000 272D6D63 		.ascii	"'-mcpu=cortex-m3' '-mno-thumb-interwork' '-mthumb' "
 851      70753D63 
 851      6F727465 
ARM GAS  /tmp/ccnGnAVN.s 			page 68


 851      782D6D33 
 851      2720272D 
 852 0033 272D4F32 		.ascii	"'-O2' '-fomit-frame-pointer' '-falign-functions=16'"
 852      2720272D 
 852      666F6D69 
 852      742D6672 
 852      616D652D 
 853 0066 20272D66 		.ascii	" '-ffunction-sections' '-fdata-sections' '-fno-comm"
 853      66756E63 
 853      74696F6E 
 853      2D736563 
 853      74696F6E 
 854 0099 6F6E2720 		.ascii	"on' '-flto'\000"
 854      272D666C 
 854      746F2700 
 855              		.text
 856              		.section	.text.chprintf,"ax",%progbits
 857              		.align	2
 858              		.p2align 4,,15
 859              		.thumb
 860              		.thumb_func
 861              		.type	chprintf, %function
 862              	chprintf:
 863              		@ args = 4, pretend = 12, frame = 8
 864              		@ frame_needed = 0, uses_anonymous_args = 1
 865 0000 0EB4     		push	{r1, r2, r3}
 866 0002 00B5     		push	{lr}
 867 0004 82B0     		sub	sp, sp, #8
 868 0006 03AB     		add	r3, sp, #12
 869 0008 53F8041B 		ldr	r1, [r3], #4
 870 000c 1A46     		mov	r2, r3
 871 000e 0193     		str	r3, [sp, #4]
 872 0010 FFF7FEFF 		bl	chvprintf
 873 0014 02B0     		add	sp, sp, #8
 874              		@ sp needed
 875 0016 5DF804EB 		ldr	lr, [sp], #4
 876 001a 03B0     		add	sp, sp, #12
 877 001c 7047     		bx	lr
 878              		.size	chprintf, .-chprintf
 879 001e 00BF     		.section	.text.dataLoggerInitialize,"ax",%progbits
 880              		.align	2
 881              		.p2align 4,,15
 882              		.global	dataLoggerInitialize
 883              		.thumb
 884              		.thumb_func
 885              		.type	dataLoggerInitialize, %function
 886              	dataLoggerInitialize:
 887              		@ args = 0, pretend = 0, frame = 0
 888              		@ frame_needed = 0, uses_anonymous_args = 0
 889 0000 70B5     		push	{r4, r5, r6, lr}
 890 0002 0446     		mov	r4, r0
 891 0004 0D46     		mov	r5, r1
 892 0006 DAB1     		cbz	r2, .L6
 893 0008 C0B1     		cbz	r0, .L3
 894 000a 1249     		ldr	r1, .L11
 895 000c 124E     		ldr	r6, .L11+4
 896 000e 0260     		str	r2, [r0]
ARM GAS  /tmp/ccnGnAVN.s 			page 69


 897 0010 1046     		mov	r0, r2
 898 0012 002D     		cmp	r5, #0
 899 0014 08BF     		it	eq
 900 0016 0D46     		moveq	r5, r1
 901 0018 3360     		str	r3, [r6]
 902 001a FFF7FEFF 		bl	sdmmcGetFS
 903 001e A560     		str	r5, [r4, #8]
 904 0020 2946     		mov	r1, r5
 905 0022 6060     		str	r0, [r4, #4]
 906 0024 0022     		movs	r2, #0
 907 0026 FFF7FEFF 		bl	f_mount
 908 002a 0546     		mov	r5, r0
 909 002c 58B9     		cbnz	r0, .L10
 910 002e 0123     		movs	r3, #1
 911 0030 3068     		ldr	r0, [r6]
 912 0032 2373     		strb	r3, [r4, #12]
 913 0034 0949     		ldr	r1, .L11+8
 914 0036 FFF7FEFF 		bl	chprintf
 915 003a 2846     		mov	r0, r5
 916              	.L3:
 917 003c 40B2     		sxtb	r0, r0
 918 003e 70BD     		pop	{r4, r5, r6, pc}
 919              	.L6:
 920 0040 1046     		mov	r0, r2
 921 0042 40B2     		sxtb	r0, r0
 922 0044 70BD     		pop	{r4, r5, r6, pc}
 923              	.L10:
 924 0046 3068     		ldr	r0, [r6]
 925 0048 2A46     		mov	r2, r5
 926 004a 0549     		ldr	r1, .L11+12
 927 004c FFF7FEFF 		bl	chprintf
 928 0050 FF20     		movs	r0, #255
 929 0052 F3E7     		b	.L3
 930              	.L12:
 931              		.align	2
 932              	.L11:
 933 0054 00000000 		.word	.LC0
 934 0058 00000000 		.word	.LANCHOR0
 935 005c 34000000 		.word	.LC2
 936 0060 04000000 		.word	.LC1
 937              		.size	dataLoggerInitialize, .-dataLoggerInitialize
 938 0064 AFF30080 		.section	.text.dataLoggerStop,"ax",%progbits
 938      AFF30080 
 938      AFF30080 
 939              		.align	2
 940              		.p2align 4,,15
 941              		.global	dataLoggerStop
 942              		.thumb
 943              		.thumb_func
 944              		.type	dataLoggerStop, %function
 945              	dataLoggerStop:
 946              		@ args = 0, pretend = 0, frame = 0
 947              		@ frame_needed = 0, uses_anonymous_args = 0
 948 0000 074B     		ldr	r3, .L14
 949 0002 10B5     		push	{r4, lr}
 950 0004 0749     		ldr	r1, .L14+4
 951 0006 0446     		mov	r4, r0
ARM GAS  /tmp/ccnGnAVN.s 			page 70


 952 0008 1868     		ldr	r0, [r3]
 953 000a FFF7FEFF 		bl	chprintf
 954 000e 0020     		movs	r0, #0
 955 0010 0146     		mov	r1, r0
 956 0012 0246     		mov	r2, r0
 957 0014 FFF7FEFF 		bl	f_mount
 958 0018 0020     		movs	r0, #0
 959 001a 2073     		strb	r0, [r4, #12]
 960 001c 10BD     		pop	{r4, pc}
 961              	.L15:
 962 001e 00BF     		.align	2
 963              	.L14:
 964 0020 00000000 		.word	.LANCHOR0
 965 0024 54000000 		.word	.LC3
 966              		.size	dataLoggerStop, .-dataLoggerStop
 967 0028 AFF30080 		.section	.text.logfileNew,"ax",%progbits
 967      AFF30080 
 968              		.align	2
 969              		.p2align 4,,15
 970              		.global	logfileNew
 971              		.thumb
 972              		.thumb_func
 973              		.type	logfileNew, %function
 974              	logfileNew:
 975              		@ args = 0, pretend = 0, frame = 0
 976              		@ frame_needed = 0, uses_anonymous_args = 0
 977 0000 08B5     		push	{r3, lr}
 978 0002 0B7B     		ldrb	r3, [r1, #12]	@ zero_extendqisi2
 979 0004 13B9     		cbnz	r3, .L21
 980 0006 1846     		mov	r0, r3
 981              	.L17:
 982 0008 40B2     		sxtb	r0, r0
 983 000a 08BD     		pop	{r3, pc}
 984              	.L21:
 985 000c C068     		ldr	r0, [r0, #12]
 986 000e 0449     		ldr	r1, .L22
 987 0010 0A22     		movs	r2, #10
 988 0012 FFF7FEFF 		bl	f_open
 989 0016 0028     		cmp	r0, #0
 990 0018 F6D0     		beq	.L17
 991 001a C0B2     		uxtb	r0, r0
 992 001c 40B2     		sxtb	r0, r0
 993 001e 08BD     		pop	{r3, pc}
 994              	.L23:
 995              		.align	2
 996              	.L22:
 997 0020 74000000 		.word	.LC4
 998              		.size	logfileNew, .-logfileNew
 999 0024 AFF30080 		.section	.text.logfileSize,"ax",%progbits
 999      AFF30080 
 999      AFF30080 
 1000              		.align	2
 1001              		.p2align 4,,15
 1002              		.global	logfileSize
 1003              		.thumb
 1004              		.thumb_func
 1005              		.type	logfileSize, %function
ARM GAS  /tmp/ccnGnAVN.s 			page 71


 1006              	logfileSize:
 1007              		@ args = 0, pretend = 0, frame = 0
 1008              		@ frame_needed = 0, uses_anonymous_args = 0
 1009              		@ link register save eliminated.
 1010 0000 0020     		movs	r0, #0
 1011 0002 7047     		bx	lr
 1012              		.size	logfileSize, .-logfileSize
 1013 0004 AFF30080 		.section	.text.logfileWrite,"ax",%progbits
 1013      AFF30080 
 1013      AFF30080 
 1014              		.align	2
 1015              		.p2align 4,,15
 1016              		.global	logfileWrite
 1017              		.thumb
 1018              		.thumb_func
 1019              		.type	logfileWrite, %function
 1020              	logfileWrite:
 1021              		@ args = 0, pretend = 0, frame = 8
 1022              		@ frame_needed = 0, uses_anonymous_args = 0
 1023 0000 10B5     		push	{r4, lr}
 1024 0002 82B0     		sub	sp, sp, #8
 1025 0004 C068     		ldr	r0, [r0, #12]
 1026 0006 01AB     		add	r3, sp, #4
 1027 0008 1446     		mov	r4, r2
 1028 000a FFF7FEFF 		bl	fwrite
 1029 000e 10F0FF0F 		tst	r0, #255
 1030 0012 05D1     		bne	.L27
 1031 0014 0198     		ldr	r0, [sp, #4]
 1032 0016 201A     		subs	r0, r4, r0
 1033 0018 18BF     		it	ne
 1034 001a 0120     		movne	r0, #1
 1035 001c 02B0     		add	sp, sp, #8
 1036              		@ sp needed
 1037 001e 10BD     		pop	{r4, pc}
 1038              	.L27:
 1039 0020 0120     		movs	r0, #1
 1040 0022 02B0     		add	sp, sp, #8
 1041              		@ sp needed
 1042 0024 10BD     		pop	{r4, pc}
 1043              		.size	logfileWrite, .-logfileWrite
 1044 0026 00BFAFF3 		.section	.text.logfileWriteCsv,"ax",%progbits
 1044      0080AFF3 
 1044      0080
 1045              		.align	2
 1046              		.p2align 4,,15
 1047              		.global	logfileWriteCsv
 1048              		.thumb
 1049              		.thumb_func
 1050              		.type	logfileWriteCsv, %function
 1051              	logfileWriteCsv:
 1052              		@ args = 0, pretend = 0, frame = 0
 1053              		@ frame_needed = 0, uses_anonymous_args = 0
 1054              		@ link register save eliminated.
 1055 0000 0020     		movs	r0, #0
 1056 0002 7047     		bx	lr
 1057              		.size	logfileWriteCsv, .-logfileWriteCsv
 1058 0004 AFF30080 		.section	.text.logfileClose,"ax",%progbits
ARM GAS  /tmp/ccnGnAVN.s 			page 72


 1058      AFF30080 
 1058      AFF30080 
 1059              		.align	2
 1060              		.p2align 4,,15
 1061              		.global	logfileClose
 1062              		.thumb
 1063              		.thumb_func
 1064              		.type	logfileClose, %function
 1065              	logfileClose:
 1066              		@ args = 0, pretend = 0, frame = 0
 1067              		@ frame_needed = 0, uses_anonymous_args = 0
 1068 0000 08B5     		push	{r3, lr}
 1069 0002 C068     		ldr	r0, [r0, #12]
 1070 0004 FFF7FEFF 		bl	f_close
 1071 0008 0030     		adds	r0, r0, #0
 1072 000a 18BF     		it	ne
 1073 000c 0120     		movne	r0, #1
 1074 000e 08BD     		pop	{r3, pc}
 1075              		.size	logfileClose, .-logfileClose
 1076              		.section	.bss.DEBUG,"aw",%nobits
 1077              		.align	2
 1078              		.set	.LANCHOR0,. + 0
 1079              		.type	DEBUG, %object
 1080              		.size	DEBUG, 4
 1081              	DEBUG:
 1082 0000 00000000 		.space	4
 1083              		.section	.rodata.str1.4,"aMS",%progbits,1
 1084              		.align	2
 1085              	.LC0:
 1086 0000 303A00   		.ascii	"0:\000"
 1087 0003 00       		.space	1
 1088              	.LC1:
 1089 0004 44415441 		.ascii	"DATALOGGER: Error Mounting Filesystem,ERR%20d\012\000"
 1089      4C4F4747 
 1089      45523A20 
 1089      4572726F 
 1089      72204D6F 
 1090 0033 00       		.space	1
 1091              	.LC2:
 1092 0034 44415441 		.ascii	"DATALOGGER: Datalogger Started\012\000"
 1092      4C4F4747 
 1092      45523A20 
 1092      44617461 
 1092      6C6F6767 
 1093              	.LC3:
 1094 0054 44415441 		.ascii	"DATALOGGER: Datalogger Stopped\012\000"
 1094      4C4F4747 
 1094      45523A20 
 1094      44617461 
 1094      6C6F6767 
 1095              	.LC4:
 1096 0074 74657374 		.ascii	"testLog.txt\000"
 1096      4C6F672E 
 1096      74787400 
 1097              		.comm	__gnu_lto_v1,1,1
 1098              		.ident	"GCC: (GNU Tools for ARM Embedded Processors) 4.8.4 20140526 (release) [ARM/embedded-4_8-br
ARM GAS  /tmp/ccnGnAVN.s 			page 73


DEFINED SYMBOLS
                            *ABS*:0000000000000000 datalogger.c
     /tmp/ccnGnAVN.s:857    .text.chprintf:0000000000000000 $t
     /tmp/ccnGnAVN.s:862    .text.chprintf:0000000000000000 chprintf
     /tmp/ccnGnAVN.s:880    .text.dataLoggerInitialize:0000000000000000 $t
     /tmp/ccnGnAVN.s:886    .text.dataLoggerInitialize:0000000000000000 dataLoggerInitialize
     /tmp/ccnGnAVN.s:933    .text.dataLoggerInitialize:0000000000000054 $d
     /tmp/ccnGnAVN.s:939    .text.dataLoggerStop:0000000000000000 $t
     /tmp/ccnGnAVN.s:945    .text.dataLoggerStop:0000000000000000 dataLoggerStop
     /tmp/ccnGnAVN.s:964    .text.dataLoggerStop:0000000000000020 $d
     /tmp/ccnGnAVN.s:968    .text.logfileNew:0000000000000000 $t
     /tmp/ccnGnAVN.s:974    .text.logfileNew:0000000000000000 logfileNew
     /tmp/ccnGnAVN.s:997    .text.logfileNew:0000000000000020 $d
     /tmp/ccnGnAVN.s:1000   .text.logfileSize:0000000000000000 $t
     /tmp/ccnGnAVN.s:1006   .text.logfileSize:0000000000000000 logfileSize
     /tmp/ccnGnAVN.s:1014   .text.logfileWrite:0000000000000000 $t
     /tmp/ccnGnAVN.s:1020   .text.logfileWrite:0000000000000000 logfileWrite
     /tmp/ccnGnAVN.s:1045   .text.logfileWriteCsv:0000000000000000 $t
     /tmp/ccnGnAVN.s:1051   .text.logfileWriteCsv:0000000000000000 logfileWriteCsv
     /tmp/ccnGnAVN.s:1059   .text.logfileClose:0000000000000000 $t
     /tmp/ccnGnAVN.s:1065   .text.logfileClose:0000000000000000 logfileClose
     /tmp/ccnGnAVN.s:1077   .bss.DEBUG:0000000000000000 $d
     /tmp/ccnGnAVN.s:1081   .bss.DEBUG:0000000000000000 DEBUG
     /tmp/ccnGnAVN.s:1084   .rodata.str1.4:0000000000000000 $d
                            *COM*:0000000000000001 __gnu_lto_v1
     /tmp/ccnGnAVN.s:938    .text.dataLoggerInitialize:0000000000000064 $t
     /tmp/ccnGnAVN.s:967    .text.dataLoggerStop:0000000000000028 $t
     /tmp/ccnGnAVN.s:999    .text.logfileNew:0000000000000024 $t

UNDEFINED SYMBOLS
chvprintf
sdmmcGetFS
f_mount
f_open
fwrite
f_close
