ARM GAS  /tmp/ccihbNGH.s 			page 1


   1              		.syntax unified
   2              		.cpu cortex-m3
   3              		.fpu softvfp
   4              		.eabi_attribute 20, 1
   5              		.eabi_attribute 21, 1
   6              		.eabi_attribute 23, 3
   7              		.eabi_attribute 24, 1
   8              		.eabi_attribute 25, 1
   9              		.eabi_attribute 26, 1
  10              		.eabi_attribute 30, 2
  11              		.eabi_attribute 34, 1
  12              		.eabi_attribute 18, 4
  13              		.thumb
  14              		.file	"datalogger.c"
  15              		.section	.gnu.lto_.jmpfuncs.cdde7149a33b07dd,"",%progbits
  16 0000 789C7D90 		.ascii	"x\234}\220\277N\3030\020\207\357\354\264i\002Uy\202"
  16      BF4EC330 
  16      1087EFEC 
  16      B4690255 
  16      7982
  17 0012 C842622B 		.ascii	"\310Bb+\264\352\210\204D\325\206.\005\244\300\300\204"
  17      B4EA8884 
  17      44D5862E 
  17      05A4C0C0 
  17      84
  18 0023 1481892C 		.ascii	"\024\201\211,\225\246rL\001\261\344\011\230\273\360"
  18      95A6724C 
  18      01B1E409 
  18      98BBF0
  19 0032 0C3C0BAF 		.ascii	"\014<\013\257\303\204\235?\304\010D\026_\374\373\374"
  19      C3849D3F 
  19      C4084416 
  19      5FFCFBFC 
  20 0042 DDD90408 		.ascii	"\335\331\004\010\374\365M\020\340C\257\036P]Q\252\313"
  20      FCF54D10 
  20      E043AF1E 
  20      505D51AA 
  20      CB
  21 0053 B55E0170 		.ascii	"\265^\001pmb}\210\\\241@S#\245\325>y\201\317|\223\357"
  21      6D627D88 
  21      5CA14053 
  21      23A5D53E 
  21      7981CF7C 
  22 0069 08C400F0 		.ascii	"\010\304\000\360-\337\034\013,\365\005L\375\302\320"
  22      2DDF1C0B 
  22      2CF5054C 
  22      FDC2D0
  23 0078 504E00BD 		.ascii	"PN\000\275\222jUmi\217\330@;\200\243\022p\313\330\016"
  23      926A556D 
  23      698FD840 
  23      3B80A312 
  23      70CBD80E 
  24 008c 3B015C97 		.ascii	";\001\\\227\241W\237nZ\241\231K\377\350\251\034\244"
  24      A1579F6E 
  24      5AA1994B 
  24      FFE8A91C 
  24      A4
ARM GAS  /tmp/ccihbNGH.s 			page 2


  25 009d C59E5F87 		.ascii	"\305\236_\207[\337Tu\023\273\337+\332\015[.i\256nd?"
  25      5BDF5475 
  25      13BBDF2B 
  25      DA0D5B2E 
  25      69AE6E64 
  26 00b2 F0ED00DE 		.ascii	"\360\355\000\336+\274[\340mp]\247~\302\016xh\036\250"
  26      2BBC5BE0 
  26      6D705DA7 
  26      7EC20E78 
  26      681EA8
  27 00c5 3B503C53 		.ascii	";P<S\36349PO\012\366\247\343\313\361\374|6\013\243C"
  27      F3343950 
  27      4F0AF6A7 
  27      E3CBF1FC 
  27      7C360BA3 
  28 00da 164A994A 		.ascii	"\026J\231Jv#y\254\3042a\232\271\023\013\336ga\024\355"
  28      762379AC 
  28      C432619A 
  28      B9130BDE 
  28      676114ED 
  29 00ee 0D47B73E 		.ascii	"\015G\267>0\233\236\306*^\244I\302%\273P\261T\\\003"
  29      309B9EC6 
  29      2A5EA449 
  29      C225BB50 
  29      B1545C03 
  30 0102 83DFBAD3 		.ascii	"\203\337\272\323\364aY\350N\264+{\316\024\277\357\033"
  30      F46159E8 
  30      4EB42B7B 
  30      CE14BFEF 
  30      1B
  31 0113 E168F8AF 		.ascii	"\341h\370\2570]\255\214p\327\006&\365dg\374\261\236"
  31      305DAD8C 
  31      70D70626 
  31      F56467FC 
  31      B19E
  32 0125 CE872FD5 		.ascii	"\316\207/\325\024p\263"
  32      1470B3
  33              		.text
  34              		.section	.gnu.lto_.inline.cdde7149a33b07dd,"",%progbits
  35 0000 789C6D90 		.ascii	"x\234m\2201N\303@\024D\347\357\376x\327\020\234\320"
  35      314EC340 
  35      1444E7EF 
  35      FE78D710 
  35      9CD0
  36 0012 90200525 		.ascii	"\220 \005%TTii8\002RjJ:\314-\\\246\214\250)r\010\012"
  36      54546969 
  36      3802526A 
  36      4A3ACC2D 
  36      5CA68CA8 
  37 002a 0EC10138 		.ascii	"\016\301\0018\002\005G\240`\366\177l\201\210-\357\316"
  37      020547A0 
  37      60F67F6C 
  37      81882DEF 
  37      CE
  38 003b AE9F4633 		.ascii	"\256\237F3? \340\320\363&\276\327\320\343\005\014\252"
  38      3F20E0D0 
  38      F326BED7 
ARM GAS  /tmp/ccihbNGH.s 			page 3


  38      D0E3050C 
  38      AA
  39 004c F6CB8115 		.ascii	"\366\313\201\025\214\032 \3566\345\215c\003\004\323"
  39      8C1A20EE 
  39      36E58D63 
  39      0304D3
  40 005b B920A4A7 		.ascii	"\271 \244\2475\322\366\312\320\037\010\320\023\027\204"
  40      35D2F6CA 
  40      D01F08D0 
  40      131784
  41 006a 71B9963A 		.ascii	"q\271\226:<\334\311\243\360/B\333+\330\335\244\250\266"
  41      3CDCC9A3 
  41      F02F42DB 
  41      2BD8DDA4 
  41      A8B6
  42 007c 576277D3 		.ascii	"Wbw\323\242\332^\005\361\004\374\312\222\372h\272_v"
  42      A2DA5E05 
  42      F104FCCA 
  42      92FA68BA 
  42      5F76
  43 008e 5CB78B4E 		.ascii	"\\\267\213N3\232\227\333U\206>\237w\271\354_\363U\266"
  43      339A97DB 
  43      55863E9F 
  43      77B9EC5F 
  43      F355B6
  44 00a1 44CCCA73 		.ascii	"D\314\312s`\024F\242\362P\314\351\232''d\267Q\214/\330"
  44      601446A2 
  44      F250CCE9 
  44      9A272764 
  44      B7518C2F 
  45 00b6 27BECE86 		.ascii	"'\276\316\206>V\303]\314c\204fV*\277_\377A\3020\025"
  45      3E56C35D 
  45      CC638466 
  45      562ABF5F 
  45      FF41C230 
  46 00cb 32152213 		.ascii	"2\025\"\023\377\036`\322\311\231\304\322 \336[\005k"
  46      FF1E60D2 
  46      C999C4D2 
  46      20DE5B05 
  46      6B
  47 00dc A4479F37 		.ascii	"\244G\2377\216\310GR_\013]q\016\352\203F\376\347U\243"
  47      8EC84752 
  47      5F0B5D71 
  47      0EEA8346 
  47      FEE755A3 
  48 00f0 3EA58779 		.ascii	">\245\207y)'p\310\241$a\037|\003\212\0033K"
  48      292770C8 
  48      A124611F 
  48      7C038A03 
  48      334B
  49              		.text
  50              		.section	.gnu.lto_.pureconst.cdde7149a33b07dd,"",%progbits
  51 0000 789C6362 		.ascii	"x\234cb`b\020f\200\000N\006\011F)f)\026)VI6\006vI\016"
  51      60621066 
  51      80004E06 
  51      09462966 
  51      29162956 
ARM GAS  /tmp/ccihbNGH.s 			page 4


  52 001a 064E4900 		.ascii	"\006NI\000\013p\000\375"
  52      0B7000FD 
  53              		.text
  54              		.section	.gnu.lto_chprintf.cdde7149a33b07dd,"",%progbits
  55 0000 789C8550 		.ascii	"x\234\205P\315J\002Q\024>\337\0355uc\333v\342\0034\213"
  55      CD4A0251 
  55      143EDF1D 
  55      357563DB 
  55      76E20334 
  56 0015 22E80D7A 		.ascii	"\"\350\015z\000\203Z\3058\216z\011\035\321Q\260\026"
  56      00835AC5 
  56      388E7A09 
  56      1DD151B0 
  56      16
  57 0026 5EC1C245 		.ascii	"^\301\302E\013ig\021)\321:\244\027\030\202\332DI\273"
  57      0B696711 
  57      29D13AA4 
  57      171882DA 
  57      4449BB
  58 0039 162D2497 		.ascii	"\026-$\227\265h\321*\202\351\336\031\024\372\201\016"
  58      B568D12A 
  58      82E9DE19 
  58      14FA810E 
  59 0049 DC7B7EBE 		.ascii	"\334{~\276s\276\363\303\210\321OY\220o\010\2425\251"
  59      73BEF3C3 
  59      88D14F59 
  59      906F08A2 
  59      35A9
  60 005b A11158F7 		.ascii	"\241\021X\367\236\250\025e\2002\010\324dhnB\245\262"
  60      9EA81565 
  60      803208D4 
  60      64686E42 
  60      A5B2
  61 006d 140D84DB 		.ascii	"\024\015\204\333\035_O\036\321\023n\273/>=\017\340\220"
  61      1D5F4F1E 
  61      D1136EBB 
  61      2F3E3D0F 
  61      E090
  62 007f B42B2013 		.ascii	"\264+ \023\264!\035$}\305B\337\373\250Z\321uOon!\016"
  62      B4211D24 
  62      7DC542DF 
  62      FBA85AD1 
  62      754F6F6E 
  63 0095 45EBCDF3 		.ascii	"E\353\315\363\022\034\032\243\325\377\012/\230\373\354"
  63      121C1AA3 
  63      D5FF0A2F 
  63      98FBEC
  64 00a4 794FC3F7 		.ascii	"yO\303\367\203W\364XLC\021\024\222\037\"d\340\014)\225"
  64      8357F458 
  64      4C431114 
  64      921F2264 
  64      E00C2995 
  65 00b8 13A6B624 		.ascii	"\023\246\266$O\032\030H\177\0325\375\241\323\362W\233"
  65      4F1A1848 
  65      7F1A35FD 
  65      A1D3F257 
  65      9B
ARM GAS  /tmp/ccihbNGH.s 			page 5


  66 00c9 AC8329AD 		.ascii	"\254\203)\255\215ho\3343\015\234#,\321]\372\020\035"
  66      8D686FDC 
  66      330D9C23 
  66      2CD15DFA 
  66      101D
  67 00db 31CF1132 		.ascii	"1\317\0212\341\247\313\310\016Gx\312\344g\251\2514\""
  67      E1A7CBC8 
  67      0E4778CA 
  67      E467A9A9 
  67      3422
  68 00ed 2E3BD288 		.ascii	".;\322\210\366\307G\223x\200\344\021\231\021\314\231"
  68      F6C74793 
  68      7880E411 
  68      9911CC99 
  69 00fd 088E9B87 		.ascii	"\010\216\233\207\226G( \340\210\252\222\366\370\370"
  69      96472820 
  69      E088AA92 
  69      F6F8F8
  70 010c 77C798A9 		.ascii	"w\307\230\251H\377\356\310\021'\272\243\253\027\026"
  70      48FFEEC8 
  70      1127BAA3 
  70      AB1716
  71 011b 04027099 		.ascii	"\004\002p\231.EG\235[\312\003\265\372'\332l\214\340"
  71      2E45479D 
  71      5BCA03B5 
  71      FA27DA6C 
  71      8CE0
  72 012d 5469B983 		.ascii	"Ti\271\203\334Q\315\261\244\027\354\242\245\233v\266"
  72      DC51CDB1 
  72      A417ECA2 
  72      A59B76B6 
  73 013d A167ADBA 		.ascii	"\241g\255\272n\026x\206\333U\335\251\324J\333\2724\352"
  73      6E167886 
  73      DB55DDA9 
  73      D44ADBBA 
  73      34EA
  74 014f 4685DBB5 		.ascii	"F\205\333\265\252\004\312\025^rr\213\005bF9\221\263"
  74      AA04CA15 
  74      5E72728B 
  74      05624639 
  74      91B3
  75 0161 2B45C371 		.ascii	"+E\303q\254\354V\246\341X\325/\251H\201#"
  75      ACEC56A6 
  75      E158D52F 
  75      A9488123 
  76              		.text
  77              		.section	.gnu.lto_logfileNew.part.0.cdde7149a33b07dd,"",%progbits
  78 0000 789C8552 		.ascii	"x\234\205RKk\023Q\024>\337\2753\223\030\033\033\037"
  78      4B6B1351 
  78      143EDFBD 
  78      3393181B 
  78      1B1F
  79 0012 D0851086 		.ascii	"\320\205\020\206\212+5\265]ve\245!\233\202\020\022\320"
  79      8A2B35B5 
  79      5D7665A5 
  79      219B8210 
  79      12D0
ARM GAS  /tmp/ccihbNGH.s 			page 6


  80 0024 8D30A671 		.ascii	"\2150\246q\030h\015Lg!t\321\033\215\322\205\224\340"
  80      18680D4C 
  80      672174D1 
  80      1B8DD285 
  80      94E0
  81 0036 AAF50196 		.ascii	"\252\365\001\226\"\202\033\301\215X\027\306MU\212V7"
  81      22821BC1 
  81      8D5817C6 
  81      4D558A56 
  81      37
  82 0047 D2EEF203 		.ascii	"\322\356\362\003DAAD\202\323sg\222\370@\360\302=\347"
  82      44414144 
  82      82D37367 
  82      92F840F0 
  82      C23DE7
  83 005a DC73CFF7 		.ascii	"\334s\317\367\235\357>\004\011\372{\214\363|\314\351"
  83      9DEF3E04 
  83      09FA7B8C 
  83      F37CCCE9 
  84 006a F3EC6111 		.ascii	"\363\354a\021\314\346[\016L\210\310\013!\327\263\244"
  84      CCE65B0E 
  84      4C88C80B 
  84      21D7B3A4 
  85 007a 52C68711 		.ascii	"R\306\207\021R\003\022\206\316\326\223\006\240\003\002"
  85      52031286 
  85      CED69306 
  85      A00302
  86 0089 2D98421A 		.ascii	"-\230B\032X8\007\315%\207iU\251\233\355k\237[XQ\255"
  86      583807CD 
  86      25876955 
  86      A99BED6B 
  86      9F5B5851 
  87 009e C63DD509 		.ascii	"\306=\325\011C\300\003\367\315\200*\240\263\274\200"
  87      43C003F7 
  87      CD802AA0 
  87      B3BC80
  88 00ad 1D3961FC 		.ascii	"\0359a\374)$\306\266\302\215\245!\325VM\365\223\241"
  88      2924C6B6 
  88      C28DA521 
  88      D5564DF5 
  88      93A1
  89 00bf 1EA4A0A1 		.ascii	"\036\244\240\241_\310d\214\304?\221\235\215\033\251"
  89      5FC8648C 
  89      C43F919D 
  89      8D1BA9
  90 00ce 667D5185 		.ascii	"f}Q\205\341\202\007C\320\341\377u|$T;\014w\276%\323"
  90      E1820743 
  90      D0E1FF75 
  90      7C24543B 
  90      0C77BE25 
  91 00e3 C02C6B64 		.ascii	"\300,kd\003I\016\3260L\006\373\373\354M\362`Zl\254\204"
  91      03490ED6 
  91      304C06FB 
  91      FBEC4DF2 
  91      605A6CAC 
  92 00f8 368C32A9 		.ascii	"6\2142\251\241T\323\216\313\034\254\262%\335\210G\211"
  92      A154D38E 
ARM GAS  /tmp/ccihbNGH.s 			page 7


  92      CB1CACB2 
  92      25DD8847 
  92      89
  93 0109 ADBE9712 		.ascii	"\255\276\227\022L\355e\031\"\362o\350\312\346\366\227"
  93      4CED6519 
  93      22F26FE8 
  93      CAE6F697 
  94 0119 EF70F080 		.ascii	"\357p\360\200w\216\321C\305c\324C\3426\335\252+\225"
  94      778ED143 
  94      C563D443 
  94      E236DDAA 
  94      2B95
  95 012b F1907421 		.ascii	"\361\220t!\264\304=\221\260\013\335\003\272\340`\213"
  95      B4C43D91 
  95      B00BDD03 
  95      BAE0608B 
  96 013b AEB737D7 		.ascii	"\256\2677\327\254\030\353B\316\323\017\265\2501\251"
  96      AC18EB42 
  96      CED30FB5 
  96      A831A9
  97 014a 0AD02BD3 		.ascii	"\012\320+\323\311e\245\346=\354\315\322\221\273j\371"
  97      C965A5E6 
  97      3DECCDD2 
  97      91BB6AF9 
  98 015a 9487018A 		.ascii	"\224\207\001\2121\321\331\323)\226\277\217\350\0255"
  98      31D1D9D3 
  98      2996BF8F 
  98      E81535
  99 0169 3EBE5879 		.ascii	">\276Xy)\373tzS\376~+e^\256g\265\346\327\333_\337\241"
  99      29FB747A 
  99      53FE7E2B 
  99      655EAE67 
  99      B5E6D7DB 
 100 0180 5768F4B5 		.ascii	"Wh\364\265\032}\005\203\263\320\037JS\014v\321\014\373"
 100      1A7D0583 
 100      B3D01F4A 
 100      530C76D1 
 100      0CFB
 101 0192 D427375D 		.ascii	"\324'7]M\275E]\361D}d\246\002\321\325nt\265?a\226\375"
 101      4DBD455D 
 101      F1447D64 
 101      A602D1D5 
 101      6E74B53F 
 102 01a9 591A8DC5 		.ascii	"Y\032\215\305\037\350\211g\026\017\007c\342\253\317"
 102      1FE88967 
 102      160F0763 
 102      E2ABCF
 103 01b8 97448FDB 		.ascii	"\227D\217\333r{\262\3130\242[~\317\037S\327'tr\207\022"
 103      727BB2CB 
 103      30A25B7E 
 103      CF1F53D7 
 103      27747287 
 104 01cd 5A163F98 		.ascii	"Z\026?\230\270\363\354\020\227\313\316\323\244~\031"
 104      B8F3EC10 
 104      97CBCED3 
 104      A47E19
 105 01dc E85ADD3B 		.ascii	"\350Z\335;=\355\004\316L\315u\253~\256BV\034I\277:\227"
ARM GAS  /tmp/ccihbNGH.s 			page 8


 105      3DED04CE 
 105      4CCD75AB 
 105      7EAE4256 
 105      1C49BF3A 
 106 01f1 98CC9F2E 		.ascii	"\230\314\237.\027rc\351\221\240:\027L\325\334\\p9\240"
 106      177263E9 
 106      91A03A17 
 106      4CD5DC5C 
 106      7039A0
 107 0204 139313A5 		.ascii	"\023\223\023\245\211\2513\205B\2768n\347}\277\346\333"
 107      89A93385 
 107      42BE386E 
 107      E77DBFE6 
 107      DB
 108 0215 15BFEA04 		.ascii	"\025\277\352\004\336%\327\346\232\213\336L\365\270\235"
 108      DE25D7E6 
 108      9A8BDE4C 
 108      F5B89D
 109 0224 2F168F9E 		.ascii	"/\026\217\236\034\233N\321.\010\207\302J"
 109      1C9B4ED1 
 109      2E0887C2 
 109      4A
 110              		.text
 111              		.section	.gnu.lto_dataLoggerInitialize.cdde7149a33b07dd,"",%progbits
 112 0000 789C8D54 		.ascii	"x\234\215T_H\223Q\024?\347\336\357\333\267o\316\234"
 112      5F489351 
 112      143FE7DE 
 112      EFDBB76F 
 112      CE9C
 113 0012 4BD3A0C6 		.ascii	"K\323\240\306\020z*\314z\011\"(\303\345K%\230\243z\\"
 113      107A2ACC 
 113      7A092228 
 113      C3E54B25 
 113      98A37A5C 
 114 0026 738C0F9C 		.ascii	"s\214\017\234\322\\D\364\340]\014\221\352A\"\310\214"
 114      D25C44F4 
 114      E05D0C91 
 114      EA4122C8 
 114      8C
 115 0037 20114942 		.ascii	" \021IB0(h\020\301\254\020EL{\014\242F\205\371\020\021"
 115      30286810 
 115      C1AC1045 
 115      4C7B0CA2 
 115      4685F910 
 116 004c 44D15FD6 		.ascii	"D\321_\326\271\337\237\271\015\011/\354\336{\316=\277"
 116      B9DF9FB9 
 116      0D092FEC 
 116      DE7BCE3D 
 116      BF
 117 005d F3FB9D73 		.ascii	"\363\373\235s\3577\006\014*\307y\372\335U\000ziE\017"
 117      EF37060C 
 117      2AC779FA 
 117      DD55007A 
 117      69450F
 118 0070 201B7E01 		.ascii	" \033~\001\220v3\246\177\327@x\370\350,\200\360r\333"
 118      907633A6 
 118      7FD74078 
ARM GAS  /tmp/ccihbNGH.s 			page 9


 118      F8E82C80 
 118      F072DB
 119 0083 542C5361 		.ascii	"T,Sa\352\353*2]\017\237JSE\227\205r1m\230\223\337-\026"
 119      EAEB2A32 
 119      5D0F9F4A 
 119      53459785 
 119      72316D98 
 120 009b A45F43DD 		.ascii	"\244_C\335\362\273\235\215\216(7\2000\300\270\242\272"
 120      F2BB9D8D 
 120      8E283780 
 120      30C0B8A2 
 120      BA
 121 00ac 34F20C9C 		.ascii	"4\362\014\234F)\2045\301\230\020\327\362\023\357\227"
 121      46298435 
 121      C19810D7 
 121      F213EF97 
 122 00bc F1E6F55C 		.ascii	"\361\346\365\\\346\216\370S( \032H\242}\010Q\204Sd`"
 122      E68EF853 
 122      28201A48 
 122      A27D0851 
 122      84536460 
 123 00d0 D05C9852 		.ascii	"\320\\\230R^\205\205\315\375\375\226E1(\322_\012\205"
 123      5E8585CD 
 123      FDFD9645 
 123      3128D25F 
 123      0A85
 124 00e2 1A033983 		.ascii	"\032\0039\203\3065\240\333\002b9p\232\345\362\205\302"
 124      C635A0DB 
 124      02623970 
 124      9AE5F285 
 124      C2
 125 00f3 D5E9E545 		.ascii	"\325\351\345El@HH2\003\025\005\023\210*ML\243\211\353"
 125      6C404848 
 125      32031505 
 125      13882A4D 
 125      4CA389EB 
 126 0107 3481970E 		.ascii	"4\201\227\016T\037Dp\034\233\240\226\3261Z\375\344t"
 126      541F4470 
 126      1C9BA096 
 126      D6315AFD 
 126      E474
 127 0119 D5DB060D 		.ascii	"\325\333\006\015\0252B\014\007\255 \220\3344\272h\226"
 127      1532420C 
 127      07AD2090 
 127      DC34BA68 
 127      96
 128 012a 558791C9 		.ascii	"U\207\221\311\225\317\301\363\2173_\267Gp\002U\210\243"
 128      95CFC1F3 
 128      8F335FB7 
 128      47700255 
 128      88A3
 129 013c 227569A5 		.ascii	"\"ui\245\242\302\310\201\032m\006\246O:q\252\214s\227"
 129      A2C2C881 
 129      1A6D06A6 
 129      4F3A71AA 
 129      8C7397
 130 014f C72970E5 		.ascii	"\307)p\345 _\204K\013?\336T[q\267`4-\204\217\332v\021"
ARM GAS  /tmp/ccihbNGH.s 			page 10


 130      205F844B 
 130      0B3FDE54 
 130      5B71B760 
 130      342D848F 
 131 0166 7E8921B9 		.ascii	"~\211!\271\323\023(\333%\341\272\211\213K:S\305\317"
 131      D31328DB 
 131      25E1BA89 
 131      8B4B3A53 
 131      C5CF
 132 0178 A20A5D1E 		.ascii	"\242\012]\036{J\263w\221\377\261\316\303\350*\222\274"
 132      7B4AB377 
 132      91FFB1CE 
 132      C3E82A92 
 132      BC
 133 0189 ADB3C277 		.ascii	"\255\263\302w\302=Ac\037\351&>\002V\225\311;c79.y\227"
 133      C23D4163 
 133      1FE9263E 
 133      025695C9 
 133      3B633739 
 134 01a0 20931F1A 		.ascii	" \223\037\032\367;<\336\242,o\024\321\0113\260\032\200"
 134      F73B3CDE 
 134      A22C6F14 
 134      D10933B0 
 134      1A80
 135 01b2 28E6EF57 		.ascii	"(\346\357WU2\250\35338P\257\211[\310\276[e\225H\317"
 135      5532A8EB 
 135      333850AF 
 135      895BC8BE 
 135      5B659548 
 136 01c7 FA486623 		.ascii	"\372Hf#Qj\033\314_\036w9\332|Em\233\242\3050/EJx\015"
 136      516A1BCC 
 136      5F1E7739 
 136      DA7C456D 
 136      9BA2C530 
 137 01e0 D25DFB64 		.ascii	"\322]\373d\3372\237fn\314\362\"H\036\362\265\266\275"
 137      DF329F66 
 137      6ECCF222 
 137      481EF2B5 
 137      B6BD
 138 01f2 02A46E2A 		.ascii	"\002\244n*(s\215\210\334\357\263\006\326\006`\333m1"
 138      28738D88 
 138      DCEFB306 
 138      D60660DB 
 138      6D31
 139 0204 72C840BF 		.ascii	"r\310@\277\371H&\271\274;\015\2361\331\326\371\311\250"
 139      F94826B9 
 139      BC3B0D9E 
 139      31D9D6F9 
 139      C9A8
 140 0216 93AB7623 		.ascii	"\223\253v#\267g\026\374\271\310\357\217KUK`W\001k\310"
 140      B76716FC 
 140      B9C8EF8F 
 140      4B554B60 
 140      57016BC8 
 141 022a CD515B17 		.ascii	"\315Q[\027%\266\324\210G\224\245.\000\001K\215|\270"
 141      25B6D488 
 141      4794A52E 
ARM GAS  /tmp/ccihbNGH.s 			page 11


 141      00014B8D 
 141      7CB8
 142 023c 2686B218 		.ascii	"&\206\262\030\270\305yTn\230; \205eGV\226yeS\033\326"
 142      B8C57954 
 142      6E983B20 
 142      85654756 
 142      96796553 
 143 0252 6FAA4524 		.ascii	"o\252E$=\015h)\234\317\256\254\242#\262~c\205-\201\372"
 143      3D0D6829 
 143      9CCFAEAC 
 143      A223B27E 
 143      63852D81 
 144 0267 BF2AEAED 		.ascii	"\277*\352\355*\236\020\2441\000\307\255*\266:U\224\224"
 144      2A9E10A4 
 144      3100C7AD 
 144      2AB63A55 
 144      9494
 145 0279 A09B1FDA 		.ascii	"\240\233\037\332K\372\307\2218f\335\013\223TD\311\247"
 145      4BFAC791 
 145      3866DD0B 
 145      935444C9 
 145      A7
 146 028a 3ACC5DC1 		.ascii	":\314]\301\0318\240}\330c\037\272\247\036\324\331[6"
 146      1938A07D 
 146      D8631FBA 
 146      A71ED4D9 
 146      5B36
 147 029c D521BF02 		.ascii	"\325!\277\002\224\271d\212\352\356H*\322\323\027\217"
 147      94B9648A 
 147      EAEE482A 
 147      D2D3178F 
 148 02ac C792CD51 		.ascii	"\307\222\315Q\320\332B\207\303\355\315-<\226L\"\354"
 148      D0DA4287 
 148      C3EDCD2D 
 148      3C964C22 
 148      EC
 149 02bd 6E6BED6A 		.ascii	"nk\355j=\332\321\336\036\352\334\037\014%\223}\311\340"
 149      3DDAD1DE 
 149      1EEADC1F 
 149      0C25937D 
 149      C9E0
 150 02cf B1BE73BD 		.ascii	"\261\276s\275)\2437\036<b\364\304\372/\364\247b\211"
 150      29A3371E 
 150      3C62F4C4 
 150      FA2FF4A7 
 150      6289
 151 02e1 5DA1CECE 		.ascii	"]\241\316\316\035{[\272=\020,\215o+\346\015\236HE\222"
 151      1D7B5BBA 
 151      3D102C8D 
 151      6F2BE60D 
 151      9E484592 
 152 02f5 A91805FC 		.ascii	"\251\030\005\374\003\240hA\\"
 152      03A06841 
 152      5C
 153              		.text
 154              		.section	.gnu.lto_dataLoggerStop.cdde7149a33b07dd,"",%progbits
 155 0000 789C6550 		.ascii	"x\234ePKK\002Q\024\376\316\035'\315\262\\V\213\030\332"
ARM GAS  /tmp/ccihbNGH.s 			page 12


 155      4B4B0251 
 155      14FECE1D 
 155      27CDB25C 
 155      568B18DA 
 156 0014 0642ABA2 		.ascii	"\006B\253\242U\206\342&\010J\241\226\323(\303@\242\204"
 156      5586E226 
 156      084AA196 
 156      D328C340 
 156      A284
 157 0026 BB165E4B 		.ascii	"\273\026^K\242\245D\201\275 q\027Q\253\300M\340\266"
 157      A2A54481 
 157      BD207117 
 157      51ABC04D 
 157      E0B6
 158 0038 45AF7F30 		.ascii	"E\257\1770\233 \352\017\204\004v\317\214\030\325\201"
 158      9B20EA0F 
 158      840476CF 
 158      8C18D581 
 159 0048 B9DFB997 		.ascii	"\271\337\271\227\357q\346\010\010\374\255q\365\035\021"
 159      EF71E608 
 159      08FCAD71 
 159      F51D11
 160 0057 30A79034 		.ascii	"0\247\2204\220\250=\002\225\220 \342\006\204\262\240"
 160      90A83D02 
 160      959020E2 
 160      0684B2A0 
 161 0067 F23A3195 		.ascii	"\362:1\225\246\320\220\362\300}}\177\243\343\303v\365"
 161      A6D090F2 
 161      C07D7D7F 
 161      A3E3C376 
 161      F5
 162 0078 427E75BB 		.ascii	"B~u\273D\016)\333(\301\"\254\251\013\031\036\210\300"
 162      440E29DB 
 162      28C122AC 
 162      A90B191E 
 162      88C0
 163 008a EF9C1BD1 		.ascii	"\357\234\033\321v\273\335\263\333jg\"(`RC\271\351\224"
 163      76BBDDB3 
 163      DB6A6722 
 163      28605243 
 163      B9E994
 164 009d F78C7554 		.ascii	"\367\214uT\245\254\031`\013Uiurx\206\004\243\366\200"
 164      A5AC1960 
 164      0B556975 
 164      72788604 
 164      A3F680
 165 00b0 9DFB4F95 		.ascii	"\235\373O\225iR\223t\330$NqR\2212\252\202\267\321\221"
 165      69529374 
 165      D8244E71 
 165      529132AA 
 165      82B7D191 
 166 00c4 FBDC6979 		.ascii	"\373\334iyb-'k\275\304'\350\276\002?\264\200\345\321"
 166      622D276B 
 166      BDC427E8 
 166      BE023FB4 
 166      80E5D1
 167 00d7 C02EFC58 		.ascii	"\300.\374X\227\362NI\364I\214\235\313\372\202C\003\350"
ARM GAS  /tmp/ccihbNGH.s 			page 13


 167      97F24E49 
 167      F4498C9D 
 167      CBFA8243 
 167      03E8
 168 00e9 691C0AB2 		.ascii	"i\034\012\262\305\236{\265\033\374g\023\262\310\337"
 168      C59E7BB5 
 168      1BFC6713 
 168      B2C8DF
 169 00f8 24E70DFA 		.ascii	"$\347\015\372\020\366a\210\245\303\200\032\272\325\372"
 169      10F66188 
 169      A5C3801A 
 169      BAD5FA
 170 0107 78D67CED 		.ascii	"x\326|\3554.\245\252Y\207\"jxE\033\261Ig\372\250g\263"
 170      342EA5AA 
 170      5987226A 
 170      78451BB1 
 170      4967FAA8 
 171 011d E10FE519 		.ascii	"\341\017\345\031D\270yA\305\275n\366\376\270\377\352"
 171      44B87941 
 171      C5BD6EF6 
 171      FEB8FFEA 
 172 012d 2F877829 		.ascii	"/\207x)\034\037\311\232%s\263`\333\271\255\230\205`"
 172      1C1FC99A 
 172      2573B360 
 172      DBB9AD98 
 172      8560
 173 013f 22B99849 		.ascii	"\"\271\230I\305f\214D<\035_ZN\245\222+\363F\242\317"
 173      C5668C44 
 173      3C1D5F5A 
 173      4EA5922B 
 173      F346A2CF 
 174 0153 30564B85 		.ascii	"0VK\205b1\227\015\343\033\232\336q\012"
 174      6231970D 
 174      E31B9ADE 
 174      710A
 175              		.text
 176              		.section	.gnu.lto_logfileNew.cdde7149a33b07dd,"",%progbits
 177 0000 789C5D51 		.ascii	"x\234]Q\277K[Q\024\376\276\373\356K^\322H\035]\032\036"
 177      BF4B5B51 
 177      14FEBEFB 
 177      EE4B5ED2 
 177      481D5D1A 
 178 0015 8E162CED 		.ascii	"\216\026,\355\350T\333H\026iA\014\264\3433M\037\017"
 178      E854DB48 
 178      1669410C 
 178      B4E3334D 
 178      1F0F
 179 0027 B482080E 		.ascii	"\264\202\010\016\035\274)\021:J\351\020\177A\305?\300"
 179      1DBC2911 
 179      3A4AE910 
 179      7F41C53F 
 179      C0
 180 0038 5114842C 		.ascii	"Q\024\204,\005\035\332P\007\321\322\301\261\203 8\212"
 180      051DDA50 
 180      07D1D2C1 
 180      B1832038 
 180      8A
ARM GAS  /tmp/ccihbNGH.s 			page 14


 181 0049 10CF794D 		.ascii	"\020\317yM\024{\341\235s\337\275\347\373q\31650\370"
 181      147BE19D 
 181      73DFBDE7 
 181      FB71CE35 
 181      30F8
 182 005b 7F3D95AF 		.ascii	"\177=\225\257M`D2}\320,\377\004\352\2011\366\370\011"
 182      4D604432 
 182      7DD02CFF 
 182      04EA8131 
 182      F6F809
 183 006e 5CC1DB2B 		.ascii	"\\\301\333+\302\345=Z=\246%5\203X4\236\345\342[*\005"
 183      C2E53D5A 
 183      3DA62535 
 183      8358349E 
 183      E5E25B2A 
 184 0083 07B1E9DC 		.ascii	"\007\261\351\334\227\263\357\027\177\271\362\265\325"
 184      97B3EF17 
 184      7FB9F2B5 
 184      D5
 185 0090 F8E6AE3B 		.ascii	"\370\346\256;\0352\241\310\365\023U\342\215\3740L\223"
 185      1D32A1C8 
 185      F51355E2 
 185      8DFC304C 
 185      93
 186 00a1 B1F7F5B7 		.ascii	"\261\367\365\267M\353\254\323\371\263\3238zT \022zF"
 186      4DEBACD3 
 186      F9B3D338 
 186      7A542012 
 186      7A46
 187 00b3 8345C44D 		.ascii	"\203E\304M\341\315p\206\310\312\211\015d\307\234\004"
 187      E1CD7086 
 187      C8CA890D 
 187      64C79C04 
 188 00c3 6DC147C3 		.ascii	"m\301G\303\271\345\020\312-kR\242\372\252\310\245d\357"
 188      B9E510CA 
 188      2D6B52A2 
 188      FAAAC8A5 
 188      64EF
 189 00d5 073E1D9E 		.ascii	"\007>\035\236\210\231\210[\322RL\273\206\325\272s\375"
 189      8899885B 
 189      D2524CBB 
 189      86D5BA73 
 189      FD
 190 00e6 E2E823AE 		.ascii	"\342\350#\256\334g\335\3713\364\004\252\226\374\256"
 190      DC67DDF9 
 190      33F404AA 
 190      96FCAE
 191 00f5 9536FC7F 		.ascii	"\2256\374\177\010\334\225e\252L%\224E\017\233\316\355"
 191      08DC9565 
 191      AA4C2594 
 191      450F9BCE 
 191      ED
 192 0106 0B245BC4 		.ascii	"\013$[\304\300\206k>O\030\240\213I\230\003D\371w\363"
 192      C0866B3E 
 192      4F18A08B 
 192      49980344 
 192      F977F3
ARM GAS  /tmp/ccihbNGH.s 			page 15


 193 0119 B2657ACA 		.ascii	"\262ez\312\331\307\030JR}\001\345cfT\357AJ8\305\336"
 193      D9C7184A 
 193      527D01E5 
 193      636654EF 
 193      414A38C5 
 194 012e 080ED038 		.ascii	"\010\016\3208\257?\274\205h\311\275!U\304\351^\321k"
 194      AF3FBC85 
 194      68C9BD21 
 194      55C4E95E 
 194      D16B
 195 0140 6329E815 		.ascii	"c)\350\025\231[\203\205*M\327`\0203\227\260\257\007"
 195      995B8385 
 195      2A4DD760 
 195      103397B0 
 195      AF07
 196 0152 B2E92C7E 		.ascii	"\262\351,~\311c\352e\252v\012*\2734n\326w\245\334x\324"
 196      C963EA65 
 196      AA760A2A 
 196      BB346ED6 
 196      77A5DC78 
 197 0167 E9512B95 		.ascii	"\351Q+\225\245\357]4\037M\317\306qmn\270\212li\354E"
 197      A5EF5D34 
 197      1F4DCFC6 
 197      716D6EB8 
 197      8A6C69EC 
 198 017c A53CFC6C 		.ascii	"\245<\374l\2604:9:\376\272\\\036\233\030\011_\316\325"
 198      B0343A39 
 198      3AFEBA5C 
 198      1E9B1809 
 198      5FCED5
 199 018f A2F9E443 		.ascii	"\242\371\344C\034\276\252-\204\343\263\361\373d\272"
 199      1CBEAA2D 
 199      84E3B3F1 
 199      FB64BA
 200 019e 96C70DDF 		.ascii	"\226\307\015\337%y\351"
 200      2579E9
 201              		.text
 202              		.section	.gnu.lto_logfileSize.cdde7149a33b07dd,"",%progbits
 203 0000 789C6362 		.ascii	"x\234cb`b@\007\222@\034\015\304\374@\314\310\314\300"
 203      60624007 
 203      92401C0D 
 203      C4FC40CC 
 203      C8CCC0
 204 0013 C834E11C 		.ascii	"\3104\341\034\003C#\007\023##\210\301\300\310P\317\304"
 204      03432307 
 204      13232388 
 204      C1C0C850 
 204      CFC4
 205 0025 581FC908 		.ascii	"X\037\311\010V\273\236\351\300\203\377\377\327]8\276"
 205      56BB9EE9 
 205      C083FFFF 
 205      D75D38BE 
 206 0035 E0352323 		.ascii	"\3405##\310(V\206\226\206\206\011\012\014\014\311`\005"
 206      C8285686 
 206      96868609 
 206      0A0C0CC9 
 206      6005
ARM GAS  /tmp/ccihbNGH.s 			page 16


 207 0047 214012A4 		.ascii	"!@\022\244+\024(\011\244\231/24>x\265\2301\221q!#+C"
 207      2B142809 
 207      A4992F32 
 207      343E78B5 
 207      98319171 
 208 005f 04632623 		.ascii	"\004c&#\334\326\020FF\220\012\220\031\274)\211%\211"
 208      DCD61046 
 208      46900A90 
 208      19BC2989 
 208      2589
 209 0071 39F9E9E9 		.ascii	"9\371\351\351\251Ez\311\014\000C\361\037Z"
 209      A9457AC9 
 209      0C0043F1 
 209      1F5A
 210              		.text
 211              		.section	.gnu.lto_logfileWrite.cdde7149a33b07dd,"",%progbits
 212 0000 789C8D52 		.ascii	"x\234\215R=h\024A\024~\337\314\316\355\346~0\210()\224"
 212      3D681441 
 212      147EDFCC 
 212      CEEDE67E 
 212      30882829 
 213 0015 23588881 		.ascii	"#X\210\201\213\2204\226\226\3669\324rs^\226\005\177"
 213      8B903496 
 213      96F639D4 
 213      72735E96 
 213      057F
 214 0027 E03C114C 		.ascii	"\340<\021L\221Ir\301 \"G\260\360'E\202\250XY\330\012"
 214      914972C1 
 214      202247B0 
 214      F0274582 
 214      A85859D8 
 215 003c B7A6F082 		.ascii	"\267\246\360\202\240\"\244\321\352\260\022\014v\"z\301"
 215      A022A4D1 
 215      EAB0120C 
 215      76227AC1 
 216 004c F5CDCEED 		.ascii	"\365\315\316\355%\247\205.\354\314\274o\346\373\336"
 216      25A7852E 
 216      ECCCBC6F 
 216      E6FBDE
 217 005b F7DE8C20 		.ascii	"\367\336\214 A\177~\247\370\377\301\360\030\317\310"
 217      417F7EA7 
 217      F8FFC1F0 
 217      18CFC8
 218 006a 1044F32D 		.ascii	"\020D\363-\321\274'\204zq\204tVn\215\223\316K\241^\237"
 218      D1BC2784 
 218      7A718474 
 218      566E8D93 
 218      CE4BA15E 
 219 007f E0C87975 		.ascii	"\340\310yu\230#\007\312\036R\200Y\020hNHGa\356\034\214"
 219      982307CA 
 219      1E528059 
 219      10684E48 
 219      4761EE1C 
 220 0094 A4334AEB 		.ascii	"\2443J\353Z\257t\226\342Mq\357N\324X\323;q\014\204\340"
 220      5AAF7496 
 220      E24D71EF 
 220      4ED458D3 
ARM GAS  /tmp/ccihbNGH.s 			page 17


 220      3B710C84 
 221 00a9 F4C3A00A 		.ascii	"\364\303\240\012\350,\007(&\223p\006\375$\334f\324\275"
 221      E82C0728 
 221      26937006 
 221      FD24DC66 
 221      D4BD
 222 00bb B13A7273 		.ascii	"\261:rsm\241\251\17715\204\024t\360\277\230+\321\267"
 222      6DA1A97F 
 222      31358414 
 222      74F0BF98 
 222      2BD1B7
 223 00ce F6ED43BA 		.ascii	"\366\355C\272\243S\246#\250\270\313\364,\023\1773\243"
 223      A353A623 
 223      A8B8CBF4 
 223      2C137F33 
 223      A3
 224 00df 66F4BD7D 		.ascii	"f\364\275}kD\017\344<\372\257\234\317D\324\211\343\325"
 224      6B440FE4 
 224      3CFAAF9C 
 224      CF44D489 
 224      E3D5
 225 00f1 5663E3D8 		.ascii	"Vc\343\330>P\010%q\021\344\360*\243x\305\015\365\261"
 225      3E500825 
 225      7111E4F0 
 225      2AA378C5 
 225      0DF5B1
 226 0104 8E517239 		.ascii	"\216Qr9\020\036\303\2245C\216\341G\014\3479\220\005"
 226      101EC394 
 226      35438EE1 
 226      470CE739 
 226      9005
 227 0116 0E1E72C0 		.ascii	"\016\036r\300\237\242\006\027_\264\233>\236\360x\006"
 227      9FA20617 
 227      5FB49B3E 
 227      9EF07806 
 228 0126 B26B6EAD 		.ascii	"\262kn\255\222x\236\342\321\264\274\014af\371\206\026"
 228      92789EE2 
 228      D1B4BC0C 
 228      6166F986 
 228      16
 229 0137 3EDE8D3F 		.ascii	">\336\215?\013\037O\241(\2003F\3079\367\003\272\317"
 229      0B1F4FA1 
 229      28803346 
 229      C739F703 
 229      BACF
 230 0149 66DD00D2 		.ascii	"f\335\000\322\230\366\022\253\323\375\242\231\364u\361"
 230      98F612AB 
 230      D3FDA299 
 230      F475F1
 231 0158 31524E26 		.ascii	"1RN&\340)\001e\012y\001\\\242w\344\246@v\226~\352e="
 231      E0290165 
 231      0A79015C 
 231      A277E4A6 
 231      4076967E 
 232 016f 1C62A802 		.ascii	"\034b\250\002+\304\311\022\2567K\327Cd\255[{\236\253"
 232      2BC4C912 
 232      AE374BD7 
ARM GAS  /tmp/ccihbNGH.s 			page 18


 232      4364AD5B 
 232      7B9EAB
 233 0182 CAF5D2CC 		.ascii	"\312\365\322\314\244\0129\026!\332\244\306\366\313n"
 233      A40A3916 
 233      21DAA4C6 
 233      F6CB6E
 234 0191 BB9F2867 		.ascii	"\273\237(g\374\015\364\264\014I[\3432!\177\352{\314"
 234      FC0DF4B4 
 234      0C495BE3 
 234      32217FEA 
 234      7BCC
 235 01a3 2786183C 		.ascii	"'\206\030<\235\"\005\233\320J\316\237\334s\260\260+"
 235      9D22059B 
 235      D04ACE9F 
 235      DC73B0B0 
 235      2B
 236 01b4 36C5DA8B 		.ascii	"6\305\332\213\373e\231\267l\2676\276\364Ze\331\223\364"
 236      FB6599B7 
 236      6CB736BE 
 236      F45A65D9 
 236      93F4
 237 01c6 5C2F9BAB 		.ascii	"\\/\233\253\346\263\357\371A\233\252\222\352>\020\214"
 237      E6B3EFF9 
 237      419BAA92 
 237      EA3E108C 
 238 01d6 330592DB 		.ascii	"3\005\222\333-/Y\362\273\336i\035\350\241\202Q#\017"
 238      2D2F59F2 
 238      BBDE691D 
 238      E8A18251 
 238      230F
 239 01e8 A36BAEA7 		.ascii	"\243k\256\247p\336\257\373\027.\007A\265V\252\220\232"
 239      70DEAFFB 
 239      172E0741 
 239      B556AA90 
 239      9A
 240 01f9 BE3A539A 		.ascii	"\276:S\232\030\272V\013\353\365\352\245\322\244\254"
 240      18BA560B 
 240      EBF5EAA5 
 240      D2A4AC
 241 0208 55AFB8BD 		.ascii	"U\257\270\275\3507q\213\275\346"
 241      E837718B 
 241      BDE6
 242              		.text
 243              		.section	.gnu.lto_logfileWriteCsv.cdde7149a33b07dd,"",%progbits
 244 0000 789C6362 		.ascii	"x\234cb`b@\007\222@\234\005\304\374@\314\310\314\300"
 244      60624007 
 244      92409C05 
 244      C4FC40CC 
 244      C8CCC0
 245 0013 C834E11C 		.ascii	"\3104\341\034\003C#\007\023##\210\301\300\310P\317\304"
 245      03432307 
 245      13232388 
 245      C1C0C850 
 245      CFC4
 246 0025 581FC908 		.ascii	"X\037\311\010V\273\236\351\300\203\377\377\327m9\265"
 246      56BB9EE9 
 246      C083FFFF 
ARM GAS  /tmp/ccihbNGH.s 			page 19


 246      D76D39B5 
 247 0035 603F2313 		.ascii	"`?#\023+\023c.#\0033\220`d\001\022 \223Y\031Z\032\032"
 247      2B13632E 
 247      23033390 
 247      60640112 
 247      20935919 
 248 004c 26283030 		.ascii	"&(00$\203\325\207\000I\220!\241@I \315|\221\241\361"
 248      2483D587 
 248      00499021 
 248      A1404920 
 248      CD7C91A1 
 249 0061 C1BEA58C 		.ascii	"\301\276\245\214\211\214\013\031Y\031\"\0303\031\341"
 249      898C0B19 
 249      59192218 
 249      3319E1
 250 0070 8E086164 		.ascii	"\216\010ad\004\251\000\231\301\233\222X\222\230\223"
 250      04A90099 
 250      C19B9258 
 250      929893
 251 007f 9F9E9E5A 		.ascii	"\237\236\236Z\244\227\314\000\000o\363 W"
 251      A497CC00 
 251      006FF320 
 251      57
 252              		.text
 253              		.section	.gnu.lto_logfileClose.cdde7149a33b07dd,"",%progbits
 254 0000 789C5D50 		.ascii	"x\234]P=K\003A\024\234\331\335K\202\030ba\255\326\012"
 254      3D4B0341 
 254      149CD9DD 
 254      4B821862 
 254      61ADD60A 
 255 0014 06FC2D09 		.ascii	"\006\374-\011jy\236r,$\010bg\221=\271\3022\265\202h"
 255      6A799E72 
 255      2C240862 
 255      67913DB9 
 255      C232B582 
 256 0029 2FDA8945 		.ascii	"/\332\211E\212\224\202\250\010i4\026\376\000\377\200"
 256      8A9482A8 
 256      08693416 
 256      FE00FF80 
 257 0039 36F1BD0D 		.ascii	"6\361\275\015\021q\341}\260;3\357\315\032\030\374?\033"
 257      1171E17D 
 257      B03B33EF 
 257      CD1A18FC 
 257      3F1B
 258 004b 1275020D 		.ascii	"\022u\002\015\251L@\323\177\002\212\2321n\260\2040g"
 258      A94C40D3 
 258      7F028A9A 
 258      316EB084 
 258      3067
 259 005d 474D8479 		.ascii	"GM\204yK7\275v\2446 z\306:\366\266\031En\314\360c2\271"
 259      4B37BD76 
 259      A436207A 
 259      C63AF6B6 
 259      19456ECC 
 260 0075 3E7FB878 		.ascii	">\177\270x\247\251\022\236\260\354\022N:V$\351\334\004"
 260      A7A9129E 
 260      B0EC124E 
ARM GAS  /tmp/ccihbNGH.s 			page 20


 260      3A5624E9 
 260      DC04
 261 0087 6508FD15 		.ascii	"e\010\375\025 \213\244\226d\325j\313\243T\373\210\343"
 261      208BA496 
 261      64D56ACB 
 261      A354FB88 
 261      E3
 262 0098 B7BBDB2F 		.ascii	"\267\273\333/\246\274\224=r\2725\254\012\373\014\247"
 262      A6BC943D 
 262      72BA35AC 
 262      0AFB0CA7 
 263 00a8 450861D3 		.ascii	"E\010a\323\323\346\264[\364tq\344\016g\016\236Q\016"
 263      D3E6B45B 
 263      F47471E4 
 263      0E670E9E 
 263      510E
 264 00ba 9767ACCA 		.ascii	"\227g\254\312\021\276\303IX\360L2N!\"\345e\011\334\243"
 264      11BEC349 
 264      58F04C32 
 264      4E2122E5 
 264      6509DCA3 
 265 00ce FC2C1ABF 		.ascii	"\374,\032\277@\225\252\376\375\211\026-FM\333\226\001"
 265      4095AAFE 
 265      FD89162D 
 265      464DDB96 
 265      01
 266 00df BACF8BD8 		.ascii	"\272\317\213\330Ur\024y\005\025/\276\315\325\270\026"
 266      55721479 
 266      05152FBE 
 266      CDD5B816 
 267 00ef 5BC00EC6 		.ascii	"[\300\016\306\213J\243\342\325a}7=L;\373y\276w\260\236"
 267      8B4AA3E2 
 267      D5617D37 
 267      3D4C3BFB 
 267      79BE77B0 
 268 0104 E107D5BD 		.ascii	"\341\007\325\275DY"
 268      4459
 269              		.text
 270              		.section	.gnu.lto_.symbol_nodes.cdde7149a33b07dd,"",%progbits
 271 0000 789C4DD0 		.ascii	"x\234M\320;n\002A\020\004\320\252\231]\363_pN\350#p"
 271      3B6E0241 
 271      1004D0AA 
 271      995DF35F 
 271      704EE823 
 272 0015 210E415C 		.ascii	"!\016A\\\010\002o\202\344\013@\000gp\350\310\222\027"
 272      08026F82 
 272      E40B4000 
 272      6770E8C8 
 272      9217
 273 0027 F3F51F42 		.ascii	"\363\365\037B\313\226\360-,\317\262+\317tRz\255\356"
 273      CB96F02D 
 273      2CCFB22B 
 273      CF74527A 
 273      ADEE
 274 0039 0EDAC060 		.ascii	"\016\332\300`@\024e2\012\270\331\001\322$\355\233#\305"
 274      40146532 
 274      0AB8D901 
ARM GAS  /tmp/ccihbNGH.s 			page 21


 274      D224ED9B 
 274      23C5
 275 004b 92D394F1 		.ascii	"\222\323\224\361\222\210d\315#e\312\356,\245YQ6\340"
 275      928864CD 
 275      2365CAEE 
 275      2CA55951 
 275      36E0
 276 005d 9A8A026E 		.ascii	"\232\212\002n\2508\340\226\272\010\270\243*\001\367"
 276      A838E096 
 276      BA08B8A3 
 276      2A01F7
 277 006c 54D5936F 		.ascii	"T\325\223oT\255\340pH\276Ru\257\027\252\341\365N5\275"
 277      54ADE070 
 277      48BE5275 
 277      AF17AAE1 
 277      F54E35BD 
 278 0080 9EA996D7 		.ascii	"\236\251\226\327\023\225x}Pm\257\003\325\371\227E\023"
 278      1395787D 
 278      506DAF03 
 278      D5F99745 
 278      13
 279 0091 E3CF5F97 		.ascii	"\343\317_\227\015,\316Y\307}\236\356=\363\333\236e\253"
 279      0D2CCE59 
 279      C77D9EEE 
 279      3DF3DB9E 
 279      65AB
 280 00a3 68DB3616 		.ascii	"h\3336\026w'\227\011\306\017?]k\201\321\365U\036_Y\326"
 280      77279709 
 280      C60F3F5D 
 280      6B81D1F5 
 280      551E5F59 
 281 00b8 B5919BCE 		.ascii	"\265\221\233\316\307\242\244\330\216K\307\304\310]\251"
 281      C7A2A4D8 
 281      8E4BC7C4 
 281      C85DA9
 282 00c7 74F09DB3 		.ascii	"t\360\235\263vy\276\206?\317Ar\243"
 282      7679BE86 
 282      3FCF4172 
 282      A3
 283              		.text
 284              		.section	.gnu.lto_.refs.cdde7149a33b07dd,"",%progbits
 285 0000 789C6362 		.ascii	"x\234cb`b\020e\200\000FF\006&ffF&\240\020\023#\013\020"
 285      60621065 
 285      80004646 
 285      06266666 
 285      4626A010 
 286 0018 B3025900 		.ascii	"\263\002Y\000\004[\000:"
 286      045B003A 
 287              		.text
 288              		.section	.gnu.lto_.decls.cdde7149a33b07dd,"",%progbits
 289 0000 789CBD7D 		.ascii	"x\234\275}yt\024\307\325ow\317*$\026/q0&\366$_\374\236"
 289      797414C7 
 289      D56F77CF 
 289      2A24162F 
 289      713026F6 
 290 0018 4FBE1881 		.ascii	"O\276\030\201\355$N\316\367\022\203$@\317lG\222\223"
 290      ED244ECE 
ARM GAS  /tmp/ccihbNGH.s 			page 22


 290      F7128324 
 290      40CF6C47 
 290      9293
 291 002a F83B2767 		.ascii	"\370;'g<H#\230X\0333#\226\367\376\310\260Xx\017\213"
 291      3C482398 
 291      581B3323 
 291      96F7FEC8 
 291      B058780F 
 292 003f 3110402C 		.ascii	"1\020@,\306\006c6I\200\020\030\030\260\203\300\330`"
 292      C6066336 
 292      49801018 
 292      18B083C0 
 292      D860
 293 0051 36637681 		.ascii	"6cv\201\015a1\273\221\330\365n\335\356\236\256\256\351"
 293      0D6131BB 
 293      91D8F56E 
 293      DDEE9EAE 
 293      AEE9
 294 0063 EEA91E7F 		.ascii	"\356\251\036\177\337\233s\372NM\251\353W\367\336\272"
 294      DF9B73FA 
 294      4E4DA9EB 
 294      57F7DEBA 
 295 0073 75EB5655 		.ascii	"u\353VUwI\022$\341%\247 \264\303\347\374tA\010t\021"
 295      77491224 
 295      E125A720 
 295      B4C3E7FC 
 295      74410874 
 296 0088 840E8220 		.ascii	"\204\016\202 \374\036\256\373\340\202?\011\363\341Z"
 296      FC1EAEFB 
 296      E0823F09 
 296      F3E15A
 297 0097 00D762B8 		.ascii	"\000\327b\270>\202k)\\\313\341Z\001W\035\\\365p\255"
 297      3E826B29 
 297      5CCBE15A 
 297      01571D5C 
 297      F570AD
 298 00aa 82EB345C 		.ascii	"\202\3534\\\347\341\372\016\256\213\344>I\020\032\341"
 298      E7E1FA0E 
 298      AE8BE43E 
 298      49101AE1 
 299 00ba 1214AC0D 		.ascii	"\022\024\254\015\220\276\000\327\377t\010\302>\270\016"
 299      90BE00D7 
 299      FF7408C2 
 299      3EB80E
 300 00c9 C1F52D5C 		.ascii	"\301\365-\\\347\340\272\016\227\013*\313\204+\013\256"
 300      E7E0BA0E 
 300      970B2ACB 
 300      842B0BAE 
 301 00d9 6E703D02 		.ascii	"np=\002\327 \270\212\340\3723\\/\302%\002\316_\234\202"
 301      D720B88A 
 301      E0FA335C 
 301      2FC22502 
 301      CE5F9C82 
 302 00ed EE437033 		.ascii	"\356Cp3I\035\220\337\011\276\263\024\276\375@\212\341"
 302      491D90DF 
 302      09BEB314 
 302      BEFD408A 
ARM GAS  /tmp/ccihbNGH.s 			page 23


 302      E1
 303 00fe 22F295C0 		.ascii	"\"\362\225\300\325\021\256 \\\245Jy\247R\266\233R'\251"
 303      D511AE20 
 303      5CA54A79 
 303      A752B69B 
 303      5227A9
 304 0111 9BB07B06 		.ascii	"\233\260{\006\3109I_\007\341\373AE&\265\216\237\300"
 304      C839495F 
 304      07E1FB41 
 304      4526B58E 
 304      9FC0
 305 0123 FD4F3A64 		.ascii	"\375O:d\234K\220\357\200t\033|\267\3025\334\251\327"
 305      9C4B90EF 
 305      80741B7C 
 305      B7C235DC 
 305      A9D7
 306 0135 5B77F81D 		.ascii	"[w\370\035\202\353\257NM\207\033%Y\036\011\3129\224"
 306      82EBAF4E 
 306      4D871B25 
 306      591E09CA 
 306      3994
 307 0147 3A88CC84 		.ascii	":\210\314\204'\362\373q \377\346H\226\227\350\257\233"
 307      27F2FB71 
 307      20FFE648 
 307      9697E8AF 
 307      9B
 308 0158 20D74DF3 		.ascii	" \327M\363BxX\245\310\245\352\237\324I\332`\031\\/C"
 308      427858A5 
 308      C8A5EA9F 
 308      D449DA60 
 308      195C2F43 
 309 016c FA05B8CA 		.ascii	"\372\005\270\312\2342O\203\341\273\034\256\012\205/"
 309      9C324F83 
 309      E1BB1CAE 
 309      0A852F
 310 017b B52D095F 		.ascii	"\265-\011_.Qkc\202\327\000y\253\341Z\003W\223$\347\021"
 310      2E516B63 
 310      82D70079 
 310      ABE15A03 
 310      579324E7 
 311 0190 3E8A9436 		.ascii	">\212\2246\"<\273 o'\344\355\202\353\013\270v\033\360"
 311      223CBB20 
 311      6F27E4ED 
 311      82EB0BB8 
 311      761BF0
 312 01a3 4EDABD0B 		.ascii	"N\332\275\013\303\273\252\027\265>R?\341Q\265)\225W"
 312      C3BBAA17 
 312      B53E523F 
 312      E151B529 
 312      9557
 313 01b5 C2139163 		.ascii	"\302\023\221c\251\242\267&EO\004\223\324?Hi\277\257"
 313      A9A2B726 
 313      454F0493 
 313      D43F4869 
 313      BFAF
 314 01c7 0DEA3DA4 		.ascii	"\015\352=\244\324G\327{I\221S\255_\265\335\215\222V"
 314      D447D77B 
ARM GAS  /tmp/ccihbNGH.s 			page 24


 314      499153AD 
 314      5FB5DD8D 
 314      9256
 315 01d9 4F15E45F 		.ascii	"O\025\344_d\352;\344\320l\231Ts\002~\267\300u\322\240"
 315      64EA3BE4 
 315      D06C9954 
 315      73027EB7 
 315      C075D2A0 
 316 01ed 5E62DFA4 		.ascii	"^b\337\244\354.\305\236D%\217\375\220>@x\":\244mXmW"
 316      EC2EC59E 
 316      44258FFD 
 316      903E4078 
 316      223AA46D 
 317 0204 DAB64640 		.ascii	"\332\266F@\336\177\300\337\302N\315~$\005\203\364\023"
 317      DE7FC0DF 
 317      C24ECD7E 
 317      240583F4 
 317      13
 318 0215 027F19C8 		.ascii	"\002\177\031\310\025\270\2562u]W\370\271D\361s]\261"
 318      15B8AE32 
 318      755D57F8 
 318      B944F173 
 318      5DB1
 319 0227 3F09CADE 		.ascii	"?\011\312\336s(\025S\037\322/\275\202\306\207\317\251"
 319      73281553 
 319      1FD22FBD 
 319      82C687CF 
 319      A9
 320 0238 F13206D2 		.ascii	"\3612\006\322\377\351\224\371\244yqQ\3755\203\301\313"
 320      FFE994F9 
 320      A4797151 
 320      FD3583C1 
 320      CB
 321 0249 145E8FC5 		.ascii	"\024^\217\305\306\305\346\325\304\372o\353t\2370)\006"
 321      C6C5E6D5 
 321      C4FA6FEB 
 321      749F3029 
 321      06
 322 025a 1FDF8C4E 		.ascii	"\037\337\214N\031\302\253$\273\345\375X\327\256 \210"
 322      19C2AB24 
 322      BBE5FD58 
 322      D7AE2088 
 323 026a 181021CB 		.ascii	"\030\020!\313\213\211\254\014\004z\\X\010\267\302\375"
 323      8B89AC0C 
 323      047A5C58 
 323      08B7C2FD 
 324 027a 52407C4F 		.ascii	"R@|O\314\200\212$1Y\225\344#\377\375\027\302\207\362"
 324      CC808A24 
 324      315995E4 
 324      23FFFD17 
 324      C287F2
 325 028d FD27D9DB 		.ascii	"\375'\331\333\010(\271CK\265\213\211:\207\253uvT\260"
 325      0828B943 
 325      4BB58B89 
 325      3A87AB75 
 325      7654B0
 326 02a0 1688F761 		.ascii	"\026\210\367a\0129\214)\214\343\035J\011\237Z\302\251"
ARM GAS  /tmp/ccihbNGH.s 			page 25


 326      0A398C29 
 326      8CE31D4A 
 326      099F5AC2 
 326      A9
 327 02b1 945884D8 		.ascii	"\224X\204\330\202\232\235HdQ\365\033\225\233/f\252,"
 327      829A9D48 
 327      6451F51B 
 327      959B2F66 
 327      AA2C
 328 02c3 52EA98D1 		.ascii	"R\352\230\321\311B\037\223Z6\314\273)\305b\336\200\270"
 328      C9421F93 
 328      5A36CCBB 
 328      29C562DE 
 328      80B8
 329 02d5 1875D24F 		.ascii	"\030u\322O\004\240\017\304_$T\241\360B\377Vo `\0115"
 329      04A00FC4 
 329      5F2454A1 
 329      F042FF56 
 329      6F206009 
 330 02ea 285A3069 		.ascii	"(Z0i\036YM\012\033\340\"\025>\236T@\227\332\326\321"
 330      1E594D0A 
 330      1BE02215 
 330      3E9E5440 
 330      97DAD6D1 
 331 02fe 32131DFD 		.ascii	"2\023\035\3752\205\216>\322t\304\303j,\301\252O\001"
 331      32858E3E 
 331      D274C4C3 
 331      6A2CC1AA 
 331      4F01
 332 0310 58619BD5 		.ascii	"Xa\233\325\225&\254>\226\202\325\345\366X\275\221`5"
 332      9526AC3E 
 332      9682D5E5 
 332      F658BD91 
 332      6035
 333 0322 5B01A8B7 		.ascii	"[\001\250\267\315j\203\011\253=R\260Zg\302\352\375\302"
 333      CD6A8309 
 333      AB3D52B0 
 333      5A67C2EA 
 333      FDC2
 334 0334 6464759B 		.ascii	"ddu\233f\203\261\177S\013\257tjV\330\264\365B/\264\302"
 334      6683B17F 
 334      530BAF74 
 334      6A56D8B4 
 334      F5422FB4 
 335 0349 D5E2FD60 		.ascii	"\325\342\375`\2051Qo\206\251q\010\027k\241\254\\J\356"
 335      8531516F 
 335      86A97108 
 335      176BA1AC 
 335      5C4AEE
 336 035c EBF1F55B 		.ascii	"\353\361\365[\263bN9_\320\341\351>?\025\346\001\307"
 336      B3624E39 
 336      5FD0E1E9 
 336      3E3F15E6 
 336      01C7
 337 036e F10D5BD7 		.ascii	"\361\015[\327\213\261\232,\265#\324 \013\244\250Q\347"
 337      8BB19A2C 
 337      B523D420 
ARM GAS  /tmp/ccihbNGH.s 			page 26


 337      0BA4A851 
 337      E7
 338 037f 492888D2 		.ascii	"I(\210\322\212\036n\343\326\314\225/\251`o\333\006\363"
 338      8A1E6EE3 
 338      D6CC952F 
 338      A9606FDB 
 338      06F3
 339 0391 EAC0BEA4 		.ascii	"\352\300\276\244\301\246\330\006\353\242\003\333C\203"
 339      C1A6D806 
 339      EBA203DB 
 339      4383
 340 039f CDB00DD6 		.ascii	"\315\260\015\326U\007\266\217\006\233k\033\314\247\003"
 340      5507B68F 
 340      069B6B1B 
 340      CCA703
 341 03ae FB8A067B 		.ascii	"\373\212\006{\3376\330\023:\260\257k\262\276|I\361\203"
 341      DF36D813 
 341      3AB0AF6B 
 341      B2BE7C49 
 341      F183
 342 03c0 B19AD813 		.ascii	"\261\232\330\023\213;Q\372P\212K\232\005nX\271\331\201"
 342      8B3B51FA 
 342      508A4B9A 
 342      056E58B9 
 342      D981
 343 03d2 16D88CB5 		.ascii	"\026\330\214\265/\027YG\350`\034\241C\357\010\035\031"
 343      2F175947 
 343      E8601CA1 
 343      43EF081D 
 343      19
 344 03e3 5AA2BD1D 		.ascii	"Z\242\275\035\007\262\006V\002]\275F\022\364\244%\200"
 344      07B20656 
 344      025DBD46 
 344      12F4A425 
 344      80
 345 03f4 4EF1D588 		.ascii	"N\361\325\210\031\261\3708\207\312\324\032\036@\257"
 345      19B1F838 
 345      87CAD41A 
 345      1E40AF
 346 0403 B94DDEAE 		.ascii	"\271M\336\256y\363\341\330\274-\242\242\025\271\217"
 346      79F3E1D8 
 346      BC2DA2A2 
 346      15B98F
 347 0412 1AF76A55 		.ascii	"\032\367jU+\337+\243\303Nd \236\244\025\017\243\025"
 347      2BDF2BA3 
 347      C34E6420 
 347      9EA4150F 
 347      A315
 348 0424 8F5E2B9E 		.ascii	"\217^+\236\014-Af\011\235\211^\266\262b\350j6\022Cg"
 348      0C2D4166 
 348      099D895E 
 348      B6B262E8 
 348      6A361243 
 349 0439 262D4D35 		.ascii	"&-M5\307\307\212\223\307\307\266\365T\371\332\315\203"
 349      C7C78A93 
 349      C7C7B6F5 
 349      54F9DACD 
ARM GAS  /tmp/ccihbNGH.s 			page 27


 349      83
 350 044a D8C55C31 		.ascii	"\330\305\\1\3576gM\012\250`Gl\203\351\255x\006\015v"
 350      EF36674D 
 350      0AA86047 
 350      6C83E9AD 
 350      78060D76 
 351 045e 8A07ACAB 		.ascii	"\212\007\254\2539g\377\240\301\316\333\006\323s6\233"
 351      3967FFA0 
 351      C1CEDB06 
 351      D373369B 
 352 046e 06BBC603 		.ascii	"\006\273\306\003\3463\347\254\226\006\273m\033L\317"
 352      E633E7AC 
 352      9606BB6D 
 352      1B4CCF
 353 047d D94A1A6C 		.ascii	"\331J\032l\274\304\001\366\2049g\3654\330\233\266\301"
 353      BCC401F6 
 353      843967F5 
 353      34D89BB6 
 353      C1
 354 048e 68CE62F1 		.ascii	"h\316b\361\325\315\2310*\320c\356b*<H\200\305\324A\350"
 354      D5CD9930 
 354      2AD063EE 
 354      622A3C48 
 354      80C5D441 
 355 04a3 1BDB83EE 		.ascii	"\033\333\203\356\267&\203n\273\032}K\302;\254\020L\305"
 355      B726836E 
 355      BB1A7D4B 
 355      C23BAC10 
 355      4CC5
 356 04b5 4ABAA781 		.ascii	"J\272\247\201N\214>\364P\031\020\233\304\307\201\256"
 356      4E8C3EF4 
 356      5019109B 
 356      C4C781AE 
 357 04c5 137F0AF4 		.ascii	"\023\177\012\364c\244\033\221\306\221nA\372)\322\255"
 357      63A41B91 
 357      C6916E41 
 357      FA29D2AD 
 358 04d5 487720FD 		.ascii	"Hw \375\002\351\036\244\373\220~\205\364k\244\207\220"
 358      02E91EA4 
 358      FB907E85 
 358      F46BA487 
 358      90
 359 04e6 1E417A0C 		.ascii	"\036Az\014i\013\322\223@\023\0373\205\2542\211&\022"
 359      690BD293 
 359      40131F33 
 359      85AC3289 
 359      2612
 360 04f8 416D3C45 		.ascii	"Am<EP\033\237V\3239\346\344\210\201\003\342\031\024"
 360      501B9F56 
 360      D339E6E4 
 360      888103E2 
 360      1914
 361 050a FE3D26AA 		.ascii	"\376=&\252M\216\356a\244\224X\337\367\036\033\033\247"
 361      4D8EEE61 
 361      A49458DF 
 361      F71E1B1B 
 361      A7
ARM GAS  /tmp/ccihbNGH.s 			page 28


 362 051b 863113F9 		.ascii	"\2061\023\371\264\275XoR\"\326\373\231\002\360\235m"
 362      B4BD586F 
 362      5222D6FB 
 362      9902F09D 
 362      6D
 363 052c B3BB6062 		.ascii	"\263\273`bvj\003\231\225;o#\326\023iw\251\014)w\367"
 363      766A0399 
 363      953B6F23 
 363      D6136977 
 363      A90C2977 
 364 0541 2CED8143 		.ascii	",\355\201C\312%\014\365\2261jM\011#\011\253\261\310"
 364      CA250CF5 
 364      96316A4D 
 364      092309AB 
 364      B1C8
 365 0553 5536DA9B 		.ascii	"U6\332\233\034\360\311\271\251c\275i\363\267\213\261"
 365      1CF0C9B9 
 365      A963BD69 
 365      F3B78BB1 
 366 0563 2959A9F8 		.ascii	")Y\251\370\237\347P+~F\343\277m\352\247O!\377m\310\377"
 366      9FE7502B 
 366      7E46E3BF 
 366      6DEAA74F 
 366      21FF6DC8 
 367 0578 D5D4FCEB 		.ascii	"\325\324\374\353a\010w\267X\336\3677c\244z\213\213\373"
 367      610877B7 
 367      58DEF737 
 367      63A47A8B 
 367      8BFB
 368 058a A313E7E2 		.ascii	"\243\023\347\3420n\304>\334 \322\252\323\315_$\341\016"
 368      306EC43E 
 368      DC20D2AA 
 368      D3CD5F24 
 368      E10E
 369 059c 706BA461 		.ascii	"pk\244a\335m\001\261]\224\200\306$\206\313\206\211\310"
 369      DD6D01B1 
 369      5D9480C6 
 369      2486CB86 
 369      89C8
 370 05ae 25C94FCD 		.ascii	"%\311O\315\345\352\346d\035?$LS\2543&F\275\302D\354"
 370      E5EAE664 
 370      1D3F244C 
 370      53AC3326 
 370      46BDC244 
 371 05c3 9FAFC4C6 		.ascii	"\237\257\304\306\212#R\317\331_\221\274 \300k\016\323"
 371      8A2352CF 
 371      D95F91BC 
 371      20C06B0E 
 371      D3
 372 05d4 493BB941 		.ascii	"I;\271A5\\9\255\246,:\336\004\351!L90\204\202\214?d"
 372      355C39AD 
 372      A62C3ADE 
 372      04E9214C 
 372      39308482 
 373 05eb 0279415B 		.ascii	"\002yA[\3700+8^Jt\003I\370\273CT\364e1\310\350\360t"
 373      F8302B38 
 373      5E4A7403 
ARM GAS  /tmp/ccihbNGH.s 			page 29


 373      49F8BB43 
 373      54F46531 
 374 0603 BA8AD5C7 		.ascii	"\272\212\325\307b\031n\031S\022f\331\006\363\231\203"
 374      62196E19 
 374      531266D9 
 374      06F39983 
 375 0613 2DE60133 		.ascii	"-\346\0013\017\031\365`+m\203\031pfn\020rc\231)|\212"
 375      0F19F560 
 375      2B6D8319 
 375      70666E10 
 375      72639929 
 376 0629 414B2969 		.ascii	"AK)i\376x\266m\326?7\2130\037\200?L\223Hx\320\342\320"
 376      FE78B66D 
 376      D63F378B 
 376      301F803F 
 376      4C934878 
 377 0640 775F7EA8 		.ascii	"w_~\250\206\271\037\377\026\375\300\014\004\252u\376"
 377      86B91FFF 
 377      16FDC00C 
 377      04AA75FE 
 378 0650 F0D0D8FE 		.ascii	"\360\320\330\376\355\212\002\214\207\311\224k?m\263"
 378      ED8A028C 
 378      87C9946B 
 378      3F6DB3
 379 065f 96FD3B8A 		.ascii	"\226\375;\2120\007E\370\320i\250\013\016\240\206\271"
 379      300745F8 
 379      D069A80B 
 379      0EA086B9 
 380 066f B5CF22D0 		.ascii	"\265\317\"\320<\004\252K\322\205\315U$;\367\232\331"
 380      3C04AA4B 
 380      D285CD55 
 380      243BF79A 
 380      D9
 381 0680 CB6CAD83 		.ascii	"\313l\255\203\322VC\232\035\023\034}|2\335\307\327;"
 381      D256439A 
 381      1D131C7D 
 381      7C32DDC7 
 381      D73B
 382 0692 398CDF7C 		.ascii	"9\214\337|\216\001\343\306\205^3c\361\011\216t;\300"
 382      8E01E3C6 
 382      855E3363 
 382      F1098E74 
 382      3BC0
 383 06a4 22F30E90 		.ascii	"\"\363\016\220\020\313\322\036\314\303\246\200X+=\236"
 383      10CBD21E 
 383      CCC3A680 
 383      582B3D9E 
 384 06b4 BEAA3FFA 		.ascii	"\276\252?\372\341\252\376\200Vu\334\266\252}\264\252"
 384      E1AAFE80 
 384      5675DCB6 
 384      AA7DB4AA 
 385 06c4 F54E6B2B 		.ascii	"\365Nk+\017\230\371\014\354\2079\255\006\36363\034\275"
 385      0F98F90C 
 385      EC8739AD 
 385      06F33633 
 385      1CBD
 386 06d6 9FA39CCE 		.ascii	"\237\243\234\316s\264GU:\332\232\323\227=\330\321\032"
ARM GAS  /tmp/ccihbNGH.s 			page 30


 386      73B44755 
 386      3ADA9AD3 
 386      973DD8D1 
 386      1A
 387 06e7 25127CD4 		.ascii	"%\022|\324\270\014\203\017s\030\302\302:vXo\013\372"
 387      B80C830F 
 387      7318C2C2 
 387      3A76586F 
 387      0BFA
 388 06f9 E4DCD483 		.ascii	"\344\334\324\203\372\315\367qPW\275\347\273X\377\272"
 388      FACDF771 
 388      5057BDE7 
 388      BB58FFBA 
 389 0709 74C7BDF8 		.ascii	"t\307\275\370\255 \231\303\313Xsmc\371\214\030\025\222"
 389      AD2099C3 
 389      CB58736D 
 389      63F98C18 
 389      1592
 390 071b A40C88EB 		.ascii	"\244\014\210\353\321\270?\226pn#q\314@\326\350\014\232"
 390      D1B83F96 
 390      706E2371 
 390      CC40D6E8 
 390      0C9A
 391 072d CB80EB69 		.ascii	"\313\200\353i\003^\344\262ks\254,jC\004\304q\310\366"
 391      035EE4B2 
 391      6B73AC2C 
 391      6A4304C4 
 391      71C8F6
 392 0740 EB48DF44 		.ascii	"\353H\337D\3726\322IH\337G\272\002i\035\217hwE\212\317"
 392      FA36D249 
 392      48DF47BA 
 392      02691D8F 
 392      6877458A 
 393 0755 95C8E72D 		.ascii	"\225\310\347-\353\311\261y\373\265\264\355m\3535=\026"
 393      EBC9B179 
 393      FBB5B4ED 
 393      6DEB353D 
 393      16
 394 0766 1FEBF008 		.ascii	"\037\353\360\0105r,7.\325P\001\026\354F\013\376D\362"
 394      35722C37 
 394      2ED55001 
 394      16EC460B 
 394      FE44F2
 395 0779 0007AB18 		.ascii	"\000\007\253\030\013\346\000\"Rl\205\302:\033n\032\343"
 395      0BE60022 
 395      526C85C2 
 395      3A1B6E1A 
 395      E3
 396 078a 93732D6C 		.ascii	"\223s-l\030;\236$lr\311\363\011g\206\226\367\231\226"
 396      183B9E24 
 396      6C72C9F3 
 396      09678696 
 396      F79996
 397 079d 2752B7EE 		.ascii	"'R\267\356\325\262%*\373\230\226\355\240\262/h\331N"
 397      D5B2252A 
 397      FB9896ED 
 397      A0B22F68 
ARM GAS  /tmp/ccihbNGH.s 			page 31


 397      D94E
 398 07af 2ABB5DCB 		.ascii	"*\273]\313vQ\331\257\271\023\331n*{\232\226\355\241"
 398      7651D9AF 
 398      B913D96E 
 398      2A7B9A96 
 398      EDA1
 399 07c1 B2E76BD9 		.ascii	"\262\347k\331^\252E,\007NMI\001\261\031"
 399      5EAA452C 
 399      074E4D49 
 399      01B119
 400 07d0 BBC036C9 		.ascii	"\273\3006\311aX\014\246an\306\022l-\335\306\320\022"
 400      61580CA6 
 400      616EC612 
 400      6C2DDDC6 
 400      D012
 401 07e2 C692D14D 		.ascii	"\306\222\321M\235\261\222\331'\351\330\206s8\302\335"
 401      9DB192D9 
 401      27E9D886 
 401      7338C2DD 
 402 07f2 11C9EE8C 		.ascii	"\021\311\356\214\365\250d<c\325\326I\032X)\364\325\246"
 402      F5A8643C 
 402      63D5D649 
 402      1A5829F4 
 402      D5A6
 403 0804 0A7771A9 		.ascii	"\012wq\251\230\214\034\2047Ih\344BK5t\250\376m=\213"
 403      988C1C84 
 403      374968E4 
 403      424B3574 
 403      A8FE6D3D 
 404 0819 667355AB 		.ascii	"fsU\253m\342\034\336Y\337K*\\V\242\337\305on\025}\006"
 404      6DE21CDE 
 404      59DF4B2A 
 404      5C56A2DF 
 404      C56F6E15 
 405 082f 333FDDAD 		.ascii	"3?\335\255\001\3614\230I\252\273p\331\204\035C6\311"
 405      01F13498 
 405      49AABB70 
 405      D9841D43 
 405      36C9
 406 0841 5B2D67B8 		.ascii	"[-g\270F\221\0035\346\242\350\246\245\211\211s\317\204"
 406      46910335 
 406      E6A2E8A6 
 406      A5898973 
 406      CF84
 407 0853 202D335A 		.ascii	" -3Z/\377\025\035\310w8\004\276\346I\275~\240\203\011"
 407      2FFF151D 
 407      C8773804 
 407      BEE649BD 
 407      7EA08309 
 408 0867 88172532 		.ascii	"\210\027%2\273\275\304\212p}\026\212p\211K\204\273\207"
 408      BBBDC48A 
 408      707D168A 
 408      70894B84 
 408      BB87
 409 0879 6B7F1C6B 		.ascii	"k\177\034k\211\213\374\216\357\300\255x\267\3618\363"
 409      898BFC8E 
 409      EFC0AD78 
ARM GAS  /tmp/ccihbNGH.s 			page 32


 409      B7F138F3 
 410 0889 B88A9E6F 		.ascii	"\270\212\236o\253'-\317w\235\365|\253\311Z\227\234\237"
 410      AB272DCF 
 410      779DF57C 
 410      ABC95A97 
 410      9C9F
 411 089b DAF7EDF6 		.ascii	"\332\367\355\366$\373\276#\036C\337w\312c\350\373.y"
 411      24FBBE23 
 411      1E43DF77 
 411      CA63E8FB 
 411      2E79
 412 08ad 0C7DDF2D 		.ascii	"\014}\337-\217\336\367\011\034\376\351:\345\237Z\321"
 412      8FDEF709 
 412      1CFEE93A 
 412      E59F5AD1 
 413 08bd 3FB599F8 		.ascii	"?\265\231\370\247\200x(\321f\274\376I\327^-3[\277\034"
 413      A7807828 
 413      D166BCFE 
 413      49D75E2D 
 413      335BBF1C 
 414 08d1 BD11FAE3 		.ascii	"\275\021\372\343k\3564\373\317\341\303<\375g\202\203"
 414      6BEE34FB 
 414      CFE1C33C 
 414      FD678283 
 415 08e1 AFFFD438 		.ascii	"\257\377\3248\030\343\233~\030\215\217\344\2476\276"
 415      18E39B7E 
 415      188D8FE4 
 415      A736BE
 416 08f0 B9876B93 		.ascii	"\271\207k\223\373\017\023\225\376\376G\246~\364u\007"
 416      FB0F1395 
 416      FEFE47A6 
 416      7EF47507 
 417 0900 13949E97 		.ascii	"\023\224\236\2278\026=\024=\334\375\307\203\204\321"
 417      38163D14 
 417      3DDCFDC7 
 417      8384D1
 418 090f D71C24B6 		.ascii	"\327\034$\266\236\350\325\333\260\216!\271\"3&\336v"
 418      9EE8D5DB 
 418      B08E21B9 
 418      223326DE 
 418      76
 419 0920 649AC899 		.ascii	"d\232\310\231\3647\030\024\261\036\242\234\364\342\314"
 419      F4371814 
 419      B11EA29C 
 419      F4E2CC
 420 092f 26238519 		.ascii	"&#\205\031\264SK\302\301wOH\334rs\301\356{b],\326% "
 420      B4534BC2 
 420      C1774F48 
 420      DC7273C1 
 420      EE7B625D 
 421 0947 4E711097 		.ascii	"Nq\020\227\363\2257\245\313\321\003\341d\210m\361\206"
 421      F39537A5 
 421      CBD103E1 
 421      64886DF1 
 421      86
 422 0958 F66D22FA 		.ascii	"\366m\"\372\261i\251\333|\302\370xc\3736\011\247\217"
 422      B169A9DB 
ARM GAS  /tmp/ccihbNGH.s 			page 33


 422      7CC2F878 
 422      63FB3609 
 422      A78F
 423 096a 385E8EB7 		.ascii	"8^\216\267\\\241\010\210\357bw\342\331\214\373\006\205"
 423      5CA10888 
 423      EF6277E2 
 423      D98CFB06 
 423      85
 424 097b 99969E6A 		.ascii	"\231\226\236j\201\257\265D\0142#\230\341 \216\342_\266"
 424      81AFB544 
 424      0C322398 
 424      E1208EE2 
 424      5FB6
 425 098d E17C3AB8 		.ascii	"\341|:\270uz\270\363<pf\3439\300}\254\207\273d\033N"
 425      757AB8F3 
 425      3C7066E3 
 425      39C07DAC 
 425      87BB641B 
 426 09a2 CFDD463D 		.ascii	"\317\335F=\3345\0368\263%\001\200\373R\017w\3036\234"
 426      DC351E38 
 426      B3250180 
 426      FB520F77 
 426      C3369C
 427 09b5 9EBB3D7A 		.ascii	"\236\273=z\270;<pF\321\213\321\2076`0/\0071\257\351"
 427      B83B3C70 
 427      46D18BD1 
 427      87366030 
 427      2F0731AF 
 428 09ca 0E32EBF8 		.ascii	"\0162\353\370\007\322\331Hk\221\316C\272\000\351BG\212"
 428      07D2D948 
 428      6B91CE43 
 428      BA00E942 
 428      478A
 429 09dc 3989D2C9 		.ascii	"9\211\322\311\246.\331\375\330Z\354c\223\321\2634gX"
 429      A62ED9FD 
 429      D85AEC63 
 429      93D1B334 
 429      6758
 430 09ee 7A962926 		.ascii	"z\226)&R\021F\027[x\226\305\254g\331\223a\327\263P:"
 430      52114617 
 430      5B7896C5 
 430      AC67D993 
 430      61D7B350 
 431 0a03 C771255E 		.ascii	"\307q%^\261ae,\366\212\233\377Q\203\266Y\215\277\304"
 431      B161652C 
 431      F68A9BFF 
 431      5183B659 
 431      8DBFC4
 432 0a16 9EFF11B6 		.ascii	"\236\377\021\266\323AFT~\240\206\271\213\344%\310\345"
 432      D3414654 
 432      7EA086B9 
 432      8BE425C8 
 432      E5
 433 0a27 08749201 		.ascii	"\010t\222\001\262\377\314\202\255\233a\302\303*\317"
 433      B2FFCC82 
 433      AD9B61C2 
 433      C32ACF
ARM GAS  /tmp/ccihbNGH.s 			page 34


 434 0a36 DEF308A0 		.ascii	"\336\363\010\240\274\026Ey\252.\256\331F\354\222\324"
 434      BC164579 
 434      AA2EAED9 
 434      46EC92D4 
 435 0a46 C6B2894E 		.ascii	"\306\262\211ND\023}\025\215p\022\322%H\353i\203\224"
 435      44137D15 
 435      8D7012D2 
 435      2548EB69 
 435      8394
 436 0a58 84B6249D 		.ascii	"\204\266$\235\311C0\205\247\215\325BjD3\243\034\347"
 436      C9433085 
 436      A78DD542 
 436      6A4433A3 
 436      1CE7
 437 0a6a A0A6DD63 		.ascii	"\240\246\335c;\210\372`\306\236\321\305k\217eM\012\244"
 437      3B88FA60 
 437      C69ED1C5 
 437      6B8F654D 
 437      0AA4
 438 0a7c DCBC72AA 		.ascii	"\334\274r\252H\271\232\305\324\325o\356\272\016\273"
 438      48B99AC5 
 438      D4D56FEE 
 438      BA0EBB
 439 0a8b D95A1CCA 		.ascii	"\331Z\034\3126wH\275{\245\303\201\2512\026Y\317\014"
 439      367748BD 
 439      7BA5C381 
 439      A9321659 
 439      CF0C
 440 0a9d 672D07D7 		.ascii	"g-\007\327\234xd\006\"\257\347\212an\033\315\001d\266"
 440      9C786406 
 440      22AFE78A 
 440      616E1BCD 
 440      0164B6
 441 0ab0 CC74B889 		.ascii	"\314t\270\211\355\274\257e\252\254\244\027\026\334\333"
 441      EDBCAF65 
 441      AAACA417 
 441      16DCDB
 442 0abf 8A0F0A6C 		.ascii	"\212\017\012lB\2173\3116\230\276Q\2466\317\266\371p"
 442      428F33C9 
 442      3698BE51 
 442      A636CFB6 
 442      F970
 443 0ad1 CDF17567 		.ascii	"\315\361ug\037\336\200*\373\024\215\277%\223\265Ee\005"
 443      1FDE802A 
 443      FB148DBF 
 443      2593B545 
 443      6505
 444 0ae3 55B3459E 		.ascii	"U\263E\236\021\375\014\217 \346s`h\311\335\335\2330"
 444      11FD0C8F 
 444      20E67360 
 444      68C9DDDD 
 444      9B30
 445 0af5 5456A363 		.ascii	"TV\243c\267\231 0\242be\333Yk8\276i\367\223\2625l\347"
 445      B7992030 
 445      A26265DB 
 445      596B38BE 
 445      69F793B2 
ARM GAS  /tmp/ccihbNGH.s 			page 35


 446 0b0c B286C61D 		.ascii	"\262\206\306\035\323\271\002\264y\211\215\312\237c\365"
 446      D3B902B4 
 446      79898DCA 
 446      9F63F5
 447 0b1b 7559A4FA 		.ascii	"uY\244\372\235l\365\267\2779\373{\271\372\235\\\325"
 447      9D6CF5B7 
 447      BF39FB7B 
 447      B9FA9D5C 
 447      D5
 448 0b2c D7ED79C7 		.ascii	"\327\355y\307\310\030Mbh\265\3716]yb.V\262\007\015\350"
 448      C8184D62 
 448      68B5F936 
 448      5D79622E 
 448      56B2070D 
 449 0b41 7616DB7C 		.ascii	"v\026\333|\177\240W\021\005eo\221\262\337\011\035U\356"
 449      7FA05711 
 449      05656F91 
 449      B2DF091D 
 449      55EE
 450 0b53 D3B25F10 		.ascii	"\323\262_\020s{\376\207\330R*\017\023m#\352\215x\325"
 450      737BFE87 
 450      D8522A0F 
 450      136D23EA 
 450      8D78D5
 451 0b66 1EEC1132 		.ascii	"\036\354\0212\330\353<`\026\217\233\255\241\301\336"
 451      D8EB3C60 
 451      168F9BAD 
 451      A1C1DE
 452 0b75 B20DA6E7 		.ascii	"\262\015\246\347l-\0156\211\007\314\342y\257u4\330T"
 452      6C2D0D36 
 452      8907CCE2 
 452      79AF7534 
 452      D854
 453 0b87 DB607ACE 		.ascii	"\333`z\316>\246\301\336\345\001\263x\336k#\015\366\017"
 453      3EA6C1DE 
 453      E501B378 
 453      DE6B230D 
 453      F60F
 454 0b99 DB607ACE 		.ascii	"\333`z\316\276\244\301jy\300|\006\234%>f~\371\013zl"
 454      BEA4C16A 
 454      79C07C06 
 454      9C253E66 
 454      7EF90B7A 
 455 0bae 9BDF5175 		.ascii	"\233\337Qu\0106mZ\3200\336\357h\327\203\351\344&cQ\367"
 455      08366D5A 
 455      D030DEEF 
 455      68D783E9 
 455      E4266351 
 456 0bc3 754ABF90 		.ascii	"uJ\277\220\235\373G<\210\026\006\243<\206'\2035\330"
 456      9DFB473C 
 456      881606A3 
 456      3C862783 
 456      35D8
 457 0bd5 06634CB9 		.ascii	"\006cL\271\231\035\276\271\266\350\026r>\252d\326L\027"
 457      991DBEB9 
 457      B6E81672 
 457      3EAA64D6 
ARM GAS  /tmp/ccihbNGH.s 			page 36


 457      4C17
 458 0be7 E8665ACF 		.ascii	"\350fZ\317#\203\205\235\036o\236\215\353_\374{\304\307"
 458      2383859D 
 458      1E6F9E8D 
 458      EB5FFC7B 
 458      C4C7
 459 0bf9 D7ED5646 		.ascii	"\327\355VF\273+8\332m\351\310\272\3139\354h\227b;R\022"
 459      BB2B38DA 
 459      6DE9C8BA 
 459      CB39EC68 
 459      97623B52 
 460 0c0e 76B05218 		.ascii	"v\260R\030\255\012\231w\0200\224\203\2175-\207\351\264"
 460      AD0A9977 
 460      10309483 
 460      8F352D87 
 460      E9B4
 461 0c20 DB8E1CDB 		.ascii	"\333\216\034\333\0259ZQ\216\275\377\005r\034\266-\307"
 461      15395A51 
 461      8EBDFF05 
 461      721CB62D 
 461      C7
 462 0c31 138C1C9B 		.ascii	"\023\214\034\233\237\260/\307AE\216\333(\3077\377\005"
 462      9FB02FC7 
 462      41458EDB 
 462      28C737FF 
 462      05
 463 0c42 729CB72D 		.ascii	"r\234\267-\007\375\3043\206\036=\344\320\343\001a\212"
 463      07FDC433 
 463      861E3DE4 
 463      D0E30161 
 463      8A
 464 0c53 75E841F8 		.ascii	"u\350A\370\2119\037\320\257\251\034\374L\364\311\331"
 464      89391FD0 
 464      AFA91CFC 
 464      4CF4C9D9 
 465 0c63 A9C6FC58 		.ascii	"\251\306\374X\274\3553*^\213\361\305kW\024\215\215\307"
 465      BCED332A 
 465      5E8BF1C5 
 465      6B57148D 
 465      8DC7
 466 0c75 45D1AB8C 		.ascii	"E\321\253\214\306\370\221\332\016\177Z\247<\206R\203"
 466      C6F891DA 
 466      0E7F5AA7 
 466      3C865283 
 467 0c85 5037D286 		.ascii	"P7\322\206j8\336(?z\361\032\002\305:\261\255\350f\032"
 467      6A38DE28 
 467      3F7AF11A 
 467      02C53AB1 
 467      ADE8661A 
 468 0c99 D1AD6F44 		.ascii	"\321\255oD\370Ij\272A\302G\361oJ\016\371\341\021\376"
 468      F8496ABA 
 468      41C247F1 
 468      6F4A0EF9 
 468      E111FE
 469 0cac BF978390 		.ascii	"\277\227\203\220\003\331'\015\230ND\204\006\364\313"
 469      03D9270D 
 469      984E4484 
ARM GAS  /tmp/ccihbNGH.s 			page 37


 469      06F4CB
 470 0cbb 26C5F3CB 		.ascii	"&\305\363\313\2154\371\007!\216\2137\274!\317S0z\203"
 470      8D34F907 
 470      218E8B37 
 470      BC21CF53 
 470      307A83
 471 0cce 21F907C2 		.ascii	"!\371\007\302\355\336a\177\226\260\271\233luSP\240\371"
 471      EDDE617F 
 471      96B0B99B 
 471      6C755350 
 471      A0F9
 472 0ce0 492D9CD6 		.ascii	"I-\234\326,aY\272\202$>\222\260\252\023\307 \342\263"
 472      2C6159BA 
 472      82243E92 
 472      B0AA13C7 
 472      20E2B3
 473 0cf3 6AAD9B3D 		.ascii	"j\255\233=8g\032\211\371\353\331\256\333P\0313\234d"
 473      38671A89 
 473      F9EBD9AE 
 473      DB501933 
 473      9C64
 474 0d05 FEBA9651 		.ascii	"\376\272\226Q\006\307\214\245\031\213\314r&\315_w?,"
 474      06C78CA5 
 474      198BCC72 
 474      26CD5F77 
 474      3F2C
 475 0d17 4F19C89F 		.ascii	"O\031\310\2378f,5\252]\310\323\322\270CR`\323\325\247"
 475      38662C35 
 475      AA5DC8D3 
 475      D2B84352 
 475      60D3D5A7 
 476 0d2b AE0935FE 		.ascii	"\256\0115\376\300\017;\311\300_\353\324-\\\034\260\255"
 476      C00F3BC9 
 476      C05FEBD4 
 476      2D5C1CB0 
 476      AD
 477 0d3c 7B1FADFB 		.ascii	"{\037\255\373\370\355\035\263E\302\277\301$\3539:\304"
 477      F8ED1DB3 
 477      45C2BFC1 
 477      24EB393A 
 477      C4
 478 0d4d 4A28FEC4 		.ascii	"J(\376\304\303\333Q=\363Q\361'L\024o\372\344\211$\\"
 478      C3DB513D 
 478      F351F127 
 478      4C146FFA 
 478      E489245C 
 479 0d61 C1220B93 		.ascii	"\301\"\013\223\025\277\275\233\254\370\205\\\212\337"
 479      15BFBD9B 
 479      ACF8855C 
 479      8ADF
 480 0d6f 6FA8F885 		.ascii	"o\250\370\205\366\025\377S\365\245\243Dh\027\020\267"
 480      F615FF53 
 480      F5A5A344 
 480      681710B7 
 481 0d7f D806F359 		.ascii	"\330\006\363Y\265\342B\252\025?\300V\\\344$KF\213\365"
 481      B5E242AA 
 481      153FC056 
ARM GAS  /tmp/ccihbNGH.s 			page 38


 481      5CE4244B 
 481      468BF5
 482 0d92 6D39AE33 		.ascii	"m9\2563\323\226:\315)I\323\255\341X|\352\316\331\212"
 482      D3963ACD 
 482      2949D3AD 
 482      E1587CEA 
 482      CED98A
 483 0da5 4A649FF7 		.ascii	"Jd\237\367\026\213g$\205\321\313\002\352\372\322NT\211"
 483      168B6724 
 483      85D1CB02 
 483      EAFAD24E 
 483      5489
 484 0db7 EC6FA6DA 		.ascii	"\354o\246\332\006\363\351\3006\274\315\271\331\313<"
 484      06F3E9C0 
 484      36BCCDB9 
 484      D9CB3C
 485 0dc6 E55D8BF5 		.ascii	"\345]\213\365\256d\315e\346\355\335\023\305\2618t\256"
 485      AE64CD65 
 485      E6EDDD13 
 485      C5B13874 
 485      AE
 486 0dd7 E4B01718 		.ascii	"\344\260\027\030\347Oe\340\242\270l\267_'P-Tma-\267"
 486      E74F65E0 
 486      A2B86CB7 
 486      5F27502D 
 486      546D612D 
 487 0dec CF2A0F40 		.ascii	"\317*\017@\311S\201\026\026\316\346\024\371^p[\317t"
 487      C9538116 
 487      16CEE614 
 487      F95E705B 
 487      CF74
 488 0dfe 9EA28F1F 		.ascii	"\236\242\217\037n\"\221N\023\312t\2463;\"\310\232\241"
 488      6E22914E 
 488      13CA74A6 
 488      333B22C8 
 488      9AA1
 489 0e10 0C712565 		.ascii	"\014q%e\210\365h\210\015h\210\253\2216\322\346h\026"
 489      88F56888 
 489      0D6888AB 
 489      9136D2E6 
 489      6816
 490 0e22 6CAD7552 		.ascii	"l\255uR\323\207\313\266\345\3661\255cV\315\012\272\232"
 490      D387CBB6 
 490      E5F631AD 
 490      6356CD0A 
 490      BA9A
 491 0e34 361EDB7B 		.ascii	"6\036\333{\326T\275\304\251\377N\015\007\3445\266\261"
 491      D654BDC4 
 491      A9FF4E0D 
 491      07E435B6 
 491      B1
 492 0e45 5DEC22EA 		.ascii	"]\354\"\352\255\371\312\333\272p\340M\036\270\347\014"
 492      ADF9CADB 
 492      BA70E04D 
 492      1EB8E70C 
 493 0e55 1834FAD0 		.ascii	"\0304\372\320\253\252\001q\003.`o\304%\346\315H?A\272"
 493      ABAA0171 
ARM GAS  /tmp/ccihbNGH.s 			page 39


 493      032E606F 
 493      C425E6CD 
 493      483F41BA 
 494 0e69 0DE919A4 		.ascii	"\015\351\031\244\347\220~\207\3642\322\353Ho!mG:\035"
 494      E7907E87 
 494      F432D2EB 
 494      486F216D 
 494      473A1D
 495 0e7c 9B781ED2 		.ascii	"\233x\036\322%H\227\"]\216t#\322x*\003PF\201\203\013"
 495      25489722 
 495      5D8E7423 
 495      D2782A03 
 495      50468183 
 496 0e91 0E755F8A 		.ascii	"\016u_\212\276\272\021\315\377\363.\254\345mr0k^I\213"
 496      BEBA11CD 
 496      FFF32EAC 
 496      E56D7230 
 496      6B5E498B 
 497 0ea5 B6C7BB70 		.ascii	"\266\307\273p,~[,O\316l=3f\3038\271M\233\320\254\353"
 497      2C7E5B2C 
 497      4FCE6C3D 
 497      3366C338 
 497      B94D9BD0 
 498 0ebb 9CCCB301 		.ascii	"\234\314\263\001\251\237\372\3217\352\321Z\363\027*"
 498      A99FFAD1 
 498      37EAD15A 
 498      F3172A
 499 0eca 7C8BCD56 		.ascii	"|\213\315V\037\023\333\303'>\022\353Q)\333\260;\236"
 499      1F13DBC3 
 499      273E12EB 
 499      5129DBB0 
 499      3B9E
 500 0edc 66949212 		.ascii	"f\224\222\022\210\250i\007\343\347\342uK\266\313\333"
 500      88A86907 
 500      E3E7E275 
 500      4BB6CBDB 
 501 0eec C33B527B 		.ascii	"\303;R{\271\011\343\343\253\227l\227\360]Qe{\330j\367"
 501      B909E3E3 
 501      AB976C97 
 501      F05D5165 
 501      7BD86AF7 
 502 0f00 082C006D 		.ascii	"\010,\000m+\365\006\317U\024e\207\326\315S\276\301J"
 502      2BF506CF 
 502      55146587 
 502      D6CD53BE 
 502      C14A
 503 0f12 B7150449 		.ascii	"\267\025\004IK\316\212\312\033\254\362\376N\253m\300"
 503      4BCE8ACA 
 503      1BACF2FE 
 503      4EAB6DC0 
 504 0f22 2E3A319B 		.ascii	".:1\233T1\003\342Ny\276s\237]@}\323\257g9\234`\033\260"
 504      543103E2 
 504      4E79BE73 
 504      9F5D407D 
 504      D3AF6739 
 505 0f3a A78EC30D 		.ascii	"\247\216\303\015,\207o\363\000Z\014\021\233X\016'\333"
 505      2C876FF3 
ARM GAS  /tmp/ccihbNGH.s 			page 40


 505      005A0C11 
 505      9B580E27 
 505      DB
 506 0f4b 06D4EB70 		.ascii	"\006\324\353p7\313\341,\333\200z\035\356e9\254\265\015"
 506      37CBE12C 
 506      DB807A1D 
 506      EE6539AC 
 506      B50D
 507 0f5d A8D7E17E 		.ascii	"\250\327\341~\226\303\305<\200\026\313w\007X\016\227"
 507      96C3C53C 
 507      8016CB77 
 507      07580E97 
 508 0f6d DB06D4EB 		.ascii	"\333\006\324\353\360 \313\341Z\333\200z\035\036f9\334"
 508      F020CBE1 
 508      5ADB807A 
 508      1D1E6639 
 508      DC
 509 0f7e 641B50AF 		.ascii	"d\033P\257\303\243,\207\333y\000\255V\374X\016\277\264"
 509      C3A32C87 
 509      DB7900AD 
 509      56FC580E 
 509      BFB4
 510 0f90 0DA8D7E1 		.ascii	"\015\250\327\341\025\226\303C\266\001\365:\274\306r"
 510      1596C343 
 510      B601F53A 
 510      BCC672
 511 0f9f 78       		.ascii	"x"
 512 0fa0 D236A05E 		.ascii	"\3226\240^\207\327Y\016\277\343\001\364\231\353\260"
 512      87D7590E 
 512      BFE301F4 
 512      99EBB0
 513 0faf 8DE5F0AA 		.ascii	"\215\345\360\252m@v\277\233\372\320\243H@\374\034\303"
 513      6D4076BF 
 513      9BFAD0A3 
 513      4840FC1C 
 513      C3
 514 0fc0 BC2F707C 		.ascii	"\274/p|\377\022\351\036\244\373\220~\205\364k\244\207"
 514      FF12E91E 
 514      A4FB907E 
 514      85F46BA4 
 514      87
 515 0fd1 901E417A 		.ascii	"\220\036Az\014i\013\322\223H\277Ez\032\351\031\244\347"
 515      0C690BD2 
 515      9348BF45 
 515      7A1AE919 
 515      A4E7
 516 0fe3 907E87F4 		.ascii	"\220~\207\364\"\322\313<\001d3\035\331\335\271\217#"
 516      22D2CB3C 
 516      0164331D 
 516      D9DDB98F 
 516      23
 517 0ff4 0AB058B9 		.ascii	"\012\260X\271\235\331\372\345\377\375!\317"
 517      9DD9FAE5 
 517      FFFD21CF 
 518 1000 F3B54CAE 		.ascii	"\363\265L\256\337\362[\3628f\352g\372Z\235|\317\364"
 518      DFF25BF2 
 518      3866EA67 
ARM GAS  /tmp/ccihbNGH.s 			page 41


 518      FA5A9D7C 
 518      CFF4
 519 1012 DD6087F0 		.ascii	"\335`\207\360\251;\361\231\276\033\\\323\332iiM\223"
 519      A93BF199 
 519      BE1B5CD3 
 519      DA69694D 
 519      93
 520 1023 B418E473 		.ascii	"\264\030\344s\345\021\265;\030\2034\337\237r_?\371\211"
 520      E511B53B 
 520      188334DF 
 520      9F725F3F 
 520      F989
 521 1035 EC765680 		.ascii	"\354vV\200\273W\225G\324\332\271b\220\311\327\224G\324"
 521      BB579547 
 521      D4DAB962 
 521      90C9D794 
 521      47D4
 522 1047 D427900E 		.ascii	"\324'\220\016#\027\355\351M\315\001p\3125\335\003M\307"
 522      2317EDE9 
 522      4DCD0170 
 522      CA35DD03 
 522      4DC7
 523 1059 6DC3F974 		.ascii	"m\303\371tp\357\350\341N\361\300Y<[\366\256\036\356"
 523      70EFE8E1 
 523      4EF1C059 
 523      3C5BF6AE 
 523      1EEE
 524 106b 9C6D389F 		.ascii	"\234m8\237\221.\205\244\306\010\2101\027\351\312c]\244"
 524      912E85A4 
 524      C6088831 
 524      17E9CA63 
 524      5DA4
 525 107d AB8D47FA 		.ascii	"\253\215G\372\012\322\211.\216nw\233\356v\227\220\311"
 525      0AD2892E 
 525      8E6E779B 
 525      EE769790 
 525      C9
 526 108e 1BE92E96 		.ascii	"\033\351.\226@\2579\364\354\272\344n'\353\300\214\203"
 526      40AF39F4 
 526      ECBAE46E 
 526      27EBC08C 
 526      83
 527 109f 375CF494 		.ascii	"7\\\364\224\3166\007>\232\203\370\314\235\362\306\223"
 527      CE36073E 
 527      9A83F8CC 
 527      9DF2C693 
 528 10af FAD2E21D 		.ascii	"\372\322\342\035\026\317h\313\301\"\274\232\275\023"
 528      16CF68CB 
 528      C122BC9A 
 528      BD13
 529 10bd CF9C91C1 		.ascii	"\317\234\221\301\306?`\027L\177NO-\015\366\226m0\263"
 529      C63F6017 
 529      4C7F4E4F 
 529      2D0DF696 
 529      6D30B3
 530 10d0 67996EA2 		.ascii	"g\231n\242+\277\205\256\366ul\371\267\220\376\035\351"
 530      2BBF85AE 
ARM GAS  /tmp/ccihbNGH.s 			page 42


 530      F6756CF9 
 530      B790FE1D 
 530      E9
 531 10e1 64DA0A24 		.ascii	"d\332\012$\341\235\007\3309\331\015v5@\363T\002/\256"
 531      E19D07D8 
 531      39D90D76 
 531      3540F354 
 531      022FAE
 532 10f4 59DB7E4F 		.ascii	"Y\333~O[\327\242\0078\234\272\317\334\272f\266^V\234"
 532      5BD7A207 
 532      389CBACF 
 532      DCBA66B6 
 532      5E569C
 533 1107 BA0C2C09 		.ascii	"\272\014,\011\313l#\352\255e\332\361Ze\272.\277\204"
 533      CB6C23EA 
 533      AD65DAF1 
 533      5A65BA2E 
 533      BF84
 534 1119 D1C08367 		.ascii	"\321\300\203g\361\022\306\354\343\2702&\203m\260\015"
 534      F112C6EC 
 534      E3B83226 
 534      836DB00D 
 535 1129 E6134C3F 		.ascii	"\346\023L?\364\013\0110\240\342\363\273W\360\265\256"
 535      F40B0930 
 535      A0E2F3BB 
 535      57F0B5AE 
 536 1139 B1388D5F 		.ascii	"\2618\215_\203\364\237\330V[\221^C:\015\333j:\322\231"
 536      83F49FD8 
 536      565B915E 
 536      433A0DDB 
 536      6A3AD299 
 537 114d 3C2D769E 		.ascii	"<-v\236~Q\255\031E8\223\356\013|-m{\017\314\027\247"
 537      7E51AD19 
 537      453893EE 
 537      0B7C2D6D 
 537      7B0FCC17 
 538 1162 CA47F18C 		.ascii	"\312G\361\214\223\227\004l#\352[\254U^\216\225\301\366"
 538      9397046C 
 538      23EA5BAC 
 538      555E8E95 
 538      C1F6
 539 1174 F0801975 		.ascii	"\360\200\031unJ\255\262B\317\242B\317\241Bg\243\262"
 539      6E4AADB2 
 539      42CFA242 
 539      CFA14267 
 539      A3B2
 540 1186 6AF5DDE6 		.ascii	"j\365\335\346\353\244n#\277\313B!i/\275\010VXf\212\377"
 540      EBA46E23 
 540      BFCB4221 
 540      692FBD08 
 540      5658668A 
 541 119b 56537C40 		.ascii	"VS|@\\\215\013\315v\336\006\322\253\251\275Yu\203\362"
 541      5C8D0BCD 
 541      76DE06D2 
 541      ABA9BD59 
 541      7583F2
 542 11ae B9082791 		.ascii	"\271\010'\221\375\024\357o\361\237\017s\213:\037\346"
ARM GAS  /tmp/ccihbNGH.s 			page 43


 542      FD14EF6F 
 542      F19F0F73 
 542      8B3A1FE6 
 543 11be 363E7770 		.ascii	"6>wpG>\015\006\205>\214\3648\322\023H\277A:\237G\015"
 543      473E0D06 
 543      853E8CF4 
 543      38D21348 
 543      BF413A9F 
 544 11d4 ADF40B88 		.ascii	"\255\364\013\210W\221\355\253i\277\200xw\317\373O(!"
 544      5791EDAB 
 544      69BF8078 
 544      77CFFB4F 
 544      2821
 545 11e6 C7797CDB 		.ascii	"\307y|\333\267\3156\240^\2573\257(\203:9\204\006F\027"
 545      B7CD36A0 
 545      5EAF33AF 
 545      28833A39 
 545      84064617 
 546 11fa 1E388BD1 		.ascii	"\0368\213\321e\326\331\265\362\241rr+Mx\220\201K9$\350"
 546      65D6D9B5 
 546      F2A17272 
 546      2B4D7890 
 546      814B3924 
 547 120f B99BFD97 		.ascii	"\271\233\375\227\031=U\254\267lc=a\325\342W\251\026"
 547      193D55AC 
 547      B76C633D 
 547      61D5E257 
 547      A916
 548 1221 FF1E5BFC 		.ascii	"\377\036[\374:\266\370B4\360\017\220.F\272\204\247\225"
 548      3AB6F842 
 548      34F00F90 
 548      2E46BA84 
 548      A795
 549 1233 2FFEC053 		.ascii	"/\376\300Sb\016\237\334\263J\224_\227Z\346\"\021\355"
 549      620E9FDC 
 549      B34A945F 
 549      975AE622 
 549      11ED
 550 1245 7B0FDA8C 		.ascii	"{\017\332\214h%a%\026Y\351b\242\332k/\371\344\334\324"
 550      68256125 
 550      1659E962 
 550      A2DA6B2F 
 550      F9E4DCD4 
 551 1259 4179DBF7 		.ascii	"Ay\333\367\2125\\DkX\237\000L\313Z\3437\277\243\214"
 551      8A355C44 
 551      6B589F00 
 551      4CCB5AE3 
 551      37BFA38C 
 552 126d 2B202E72 		.ascii	"+ .rI6\341\364\326p\373\314\266\244\023Vt\307\004%\265"
 552      4936E1F4 
 552      D670FBCC 
 552      B6A41356 
 552      74C70425 
 553 1282 4A231D89 		.ascii	"J#\035\211m\342\221\306\302\266\357~\253\263\355f\026"
 553      6DE291C6 
 553      C2B6EF7E 
 553      ABB3ED66 
ARM GAS  /tmp/ccihbNGH.s 			page 44


 553      16
 554 1293 CEA66D4F 		.ascii	"\316\246mO\276\036\027c\257g\2513\343},\034\357\032"
 554      BE1E1763 
 554      AF67A933 
 554      E37D2C1C 
 554      EF1A
 555 12a5 92B1796B 		.ascii	"\222\261ykV\020\020\3531\234n@c^\215t\015\322&\244\353"
 555      561010EB 
 555      319C6E40 
 555      635E8D74 
 555      0DD226A4 
 556 12ba 79CC7BA9 		.ascii	"y\314{\251\246\310\307\204\332X\374rK\333\351s]?\"\261"
 556      A6C8C784 
 556      DA58FC72 
 556      4BDBE973 
 556      5D3F22B1 
 557 12ce 4BEC5EFB 		.ascii	"K\354^\373\337\306\216\023\231\327\261\234\346\215\262"
 557      DFC68E13 
 557      99D7B19C 
 557      E68DB2
 558 12dd D1A57B1D 		.ascii	"\321\245{\035\313p>\233j_|\323\271\253\017\313\275e"
 558      CB703E9B 
 558      6A5F7CD3 
 558      B9AB0FCB 
 558      BD65
 559 12ef 33F696E6 		.ascii	"3\366\226\346\037\031\366\026\353\307i>e{\312j\371\245"
 559      1F19F616 
 559      EBC7693E 
 559      657BCA6A 
 559      F9A5
 560 1301 CE4FB9FA 		.ascii	"\316O\271\372J\323\326\245\334\247\0221\035\365\310"
 560      4AD3D6A5 
 560      DCA71231 
 560      1DF5C8
 561 1310 8F8C4F25 		.ascii	"\217\214O%\322\335\026\020\267c\177\371\214\345rj\015"
 561      D2DD1610 
 561      B7637FF9 
 561      8CE5726A 
 561      0D
 562 1321 72F91917 		.ascii	"r\371\031\027\227\323\266\2468\225\210\377\301\214\203"
 562      97D3B6A6 
 562      389588FF 
 562      C18C83
 563 1330 974EFE6E 		.ascii	"\227N\376n\005\316\271w\271\210U.z\210\215 \\\314s\031"
 563      05CEB977 
 563      B988552E 
 563      7A888D20 
 563      5CCC7319 
 564 1344 2EFD82BB 		.ascii	".\375\202\273+CK(\317e\2305\315N\227\305\331\037\312"
 564      2B434B28 
 564      CF659835 
 564      CD4E97C5 
 564      D91FCA
 565 1357 F11B89DF 		.ascii	"\361\033\211\337\273\\\374\347n|\341\242\202\222\345"
 565      BB5CFCE7 
 565      6E7CE1A2 
 565      8292E5
ARM GAS  /tmp/ccihbNGH.s 			page 45


 566 1366 92AAE0F4 		.ascii	"\222\252\340\364F\343M\347\366t\305`\320\352\305D\302"
 566      46E34DE7 
 566      F674C560 
 566      D0EAC544 
 566      C2
 567 1377 9D193707 		.ascii	"\235\0317\007\254\304\234\375\003\304\374\212\026s\241"
 567      ACC49CFD 
 567      03C4FC8A 
 567      1673A1
 568 1386 6D317DB4 		.ascii	"m1}\264\230\251O\004\031o\321\333\217Z\2118\307\306"
 568      98A94F04 
 568      196FD1DB 
 568      8F5A8938 
 568      C7C6
 569 1398 89294768 		.ascii	"\211)Gh_\276\034m/\205H\251\216yJW\244o\014D\342\022"
 569      5FBE1C6D 
 569      2F8548A9 
 569      8E794A57 
 569      A46F0C44 
 570 13ae E1A48BD9 		.ascii	"\341\244\213\331\033\254\267-\206O\320\177\264\370\374"
 570      1BACB72D 
 570      864FD07F 
 570      B4F8FC
 571 13bd 73F4E6FB 		.ascii	"s\364\346\373\221\036Fz\202\307\2637\323\226\262\031"
 571      911E467A 
 571      82C7B337 
 571      D396B219 
 572 13cd 2DE553FB 		.ascii	"-\345S\373\035\302\350C;X\230\311\341 \264\225\207\245"
 572      1DC2E843 
 572      3B5898C9 
 572      E120B495 
 572      87A5
 573 13df B8C65242 		.ascii	"\270\306RB\305\027\364\373\254\222\260\206\361>?\027"
 573      C517F4FB 
 573      AC92B086 
 573      F13E3F17 
 574 13ef DE8BC5A6 		.ascii	"\336\213\305\246\340\260t\216\264\256\014\003\243>\336"
 574      E0B0748E 
 574      B4AE0C03 
 574      A33EDE
 575 13fe B7C1F598 		.ascii	"\267\301\365\230auJer\341\330t\230\213\211r]\222\360"
 575      61754A65 
 575      72E1D874 
 575      988B8972 
 575      5D92F0
 576 1411 498A820A 		.ascii	"I\212\202\012G\377Cx\237\330\315\201o\207\364W^37/\244"
 576      47FF4378 
 576      9FD8CD81 
 576      6F87F457 
 576      5E33372F 
 577 1426 C8F72F97 		.ascii	"\310\367/\227\356\377%\340\200\332\3222\267\365\344"
 577      EEFF25E0 
 577      80DAD232 
 577      B7F5E4
 578 1435 2333EAE7 		.ascii	"#3\352\347\311\003\252\230\354\243c\\'\\\035^\372\013"
 578      C903AA98 
 578      ECA3635C 
ARM GAS  /tmp/ccihbNGH.s 			page 46


 578      275C1D5E 
 578      FA0B
 579 1447 F9B04174 		.ascii	"\371\260At\321\373\031%\361\0035\034\237\223\215@W\021"
 579      D1FB1925 
 579      F103351C 
 579      9F938D40 
 579      5711
 580 1459 E84892AF 		.ascii	"\350H\222\257\027\030_/\350}=\374\214\265+\037\371\261"
 580      17185F2F 
 580      E87D3DFC 
 580      8CB52B1F 
 580      F9B1
 581 146b 47C8F99B 		.ascii	"G\310\371\233\220V\031\323\230;u \301\021w_}E\211\273"
 581      905619D3 
 581      983B7520 
 581      C111775F 
 581      7D4589BB 
 582 147f DB309238 		.ascii	"\3330\2228\365\220\355\270\373\022\026\271\305\216\323"
 582      F590EDB8 
 582      FB1216B9 
 582      C58ED3
 583 148e 73033E39 		.ascii	"s\003>97\365(\335p\223\212\005\301!\340q\204\267\254"
 583      37F528DD 
 583      70938A05 
 583      C121E071 
 583      84B7AC
 584 14a1 63415D1F 		.ascii	"cA]\037\322\303\255\276\240\304\335\215\330\005\332"
 584      D2C3ADBE 
 584      A0C4DD8D 
 584      D805DA
 585 14b0 12FCA517 		.ascii	"\022\374\245\027w7.S\236\001Z\212pwx\340,\342\350\246"
 585      77372E53 
 585      9E015A8A 
 585      707778E0 
 585      2CE2E8A6 
 586 14c4 B3C961BC 		.ascii	"\263\311a\274\321\253O?S\261\026RAHS\315\347\362i\224"
 586      D1AB4F3F 
 586      53B11652 
 586      414853CD 
 586      E7F26994 
 587 14d8 13DCA4B5 		.ascii	"\023\334\244\265\306\3778ek18\2441&\272\231\246\332"
 587      C6FF3865 
 587      6B3138A4 
 587      3126BA99 
 587      A6DA
 588 14ea 2B1F4749 		.ascii	"+\037GI\362S7\326>\371\335\010y\302<\021\031 \005\323"
 588      F25337D6 
 588      3EF9DD08 
 588      79C23C11 
 588      192005D3 
 589 14fe 9B221D68 		.ascii	"\233\"\035h\376Dn\371fQky\012\316\346\366\376\327\315"
 589      FE446EF9 
 589      66516B79 
 589      0ACEE6F6 
 589      FED7CD
 590 1511 D489E2AF 		.ascii	"\324\211\342\257\263\274\245<CBw\036w\374\020\015\366"
 590      B3BCA53C 
ARM GAS  /tmp/ccihbNGH.s 			page 47


 590      4342771E 
 590      77FC100D 
 590      F6
 591 1522 77DB60CF 		.ascii	"w\333`\317\352\300\216N|SY\231\224\317)\236\312\243"
 591      EAC08E4E 
 591      7C535999 
 591      94CF299E 
 591      CAA3
 592 1534 380B2B3A 		.ascii	"8\013+:\246\035z\014q\024\2536\336qT\001\273L\237\240"
 592      A61D7A0C 
 592      7114AB36 
 592      DE715401 
 592      BB4C9FA0 
 593 1548 3C838733 		.ascii	"<\203\2073\213\315\367\2534\330\\\333`z\316\276\247"
 593      8BCDF7AB 
 593      34D85CDB 
 593      607ACEBE 
 593      A7
 594 1559 C1DEE701 		.ascii	"\301\336\347\001\263\330\322\276A\203}d\033L\317\331"
 594      B3D8D2BE 
 594      41837D64 
 594      1B4CCFD9 
 595 1569 ADA4B77A 		.ascii	"\255\244\267ztGE'y\353\331n*~[\305S\271\317L\222X|\316"
 595      74474527 
 595      79EBD96E 
 595      2A7E5BC5 
 595      53B9CF4C 
 596 1581 67993815 		.ascii	"g\2318\025'\247OK\302\307,Z,\001\027K\261nn\364\241"
 596      27A74F4B 
 596      C2C72C5A 
 596      2C01174B 
 596      B16E6EF4 
 597 1596 1D44407C 		.ascii	"\035D@|\325M\002\227\327\334$\242z\003\351\233H\337"
 597      D54D0297 
 597      D7DC24A2 
 597      7A03E99B 
 597      48DF
 598 15a8 463A09E9 		.ascii	"F:\011\351\024\244S\221NC:\035\351L\244\263\220\326"
 598      14A45391 
 598      4E433A1D 
 598      E94CA4B3 
 598      90D6
 599 15ba BA39429F 		.ascii	"\2729B\237\361\264\222\342?\266\353h-\205\272EEcw0\032"
 599      F1B492E2 
 599      3FB6EB68 
 599      2D85BA45 
 599      45637730 
 600 15cf BB8B61E2 		.ascii	"\273\213a\342=\2441dr\034\017\223\255\006\361\231\302"
 600      3DA43164 
 600      721C0F93 
 600      AD06F199 
 600      C2
 601 15e0 B82E0C96 		.ascii	"\270.\014\226\204\1772\356Y\011\322H\250\263Q\016\322"
 601      847F32EE 
 601      5909D248 
 601      A8B3510E 
 601      D2
ARM GAS  /tmp/ccihbNGH.s 			page 48


 602 15f1 5A714839 		.ascii	"ZqH9\200\367]0\215\265Z\251 \355n\260\277\\]@\234\347"
 602      80F75D30 
 602      8DB55AA9 
 602      20ED6EB0 
 602      BF5C5D40 
 603 1607 962C8B29 		.ascii	"\226,\213)La\2106)VwdHW90\022\364\245\2303\207\360\317"
 603      4C618836 
 603      29567764 
 603      48573930 
 603      12F4A598 
 604 161f 0BDC4931 		.ascii	"\013\334I1\332\274\226\370\261\340\266\330e\230\270"
 604      DABC96F8 
 604      B1E0B6D8 
 604      6598B8
 605 162e 3293854B 		.ascii	"2\223\205K\026S\274\305nf\262@\006\321\304\017e\201"
 605      1653BCC5 
 605      6E66B240 
 605      06D1C40F 
 605      6581
 606 1640 2AF15B59 		.ascii	"*\361[YF\344\214h\342\036\265\266\321\202\026\002\336"
 606      46E48C68 
 606      E21EB5B6 
 606      D1821602 
 606      DE
 607 1651 DBD35D7E 		.ascii	"\333\323]~\177b9\016\221\223\273\246\034\"\3658\001"
 607      7F62390E 
 607      9193BBA6 
 607      1C22F538 
 607      01
 608 1662 7125EAB5 		.ascii	"q%\352\265\216\035%o\312\307!\327q\215\222w\233\027"
 608      8E1D256F 
 608      CAC721D7 
 608      718D9277 
 608      9B17
 609 1674 A67B6873 		.ascii	"\246{hsmW\256C\233\327 \227\215Ic\271\314e#\027\227"
 609      6D57AE43 
 609      9BD72097 
 609      8D4963B9 
 609      CC652317 
 610 1689 FB9B95D0 		.ascii	"\373\233\225\320\346\013\234\232\311\013\002\215\351"
 610      E60B9C9A 
 610      C90B028D 
 610      E9
 611 1696 8EE6EA01 		.ascii	"\216\346\352\001h_!\330B\333`>#\260#\010\326\342\342"
 611      685F21D8 
 611      42DB603E 
 611      23B02308 
 611      D6E2E2
 612 16a9 004B7DAE 		.ascii	"\000K}\256\261<\003=e\033\314\200\263tg\317\233\330"
 612      B13C033D 
 612      651BCC80 
 612      B37467CF 
 612      9BD8
 613 16bb 0E61B020 		.ascii	"\016a\260 \240?\347\230\343d\220\272\372+\037(/\230"
 613      A03FE798 
 613      E36490BA 
 613      FA2B1F28 
ARM GAS  /tmp/ccihbNGH.s 			page 49


 613      2F98
 614 16cd 7DE2C607 		.ascii	"}\342\306\007\336\030\253\227Ck\352\303u8\010\327\254"
 614      DE18AB97 
 614      436BEAC3 
 614      753808D7 
 614      AC
 615 16de 7E23EDB3 		.ascii	"~#\355\263\327b\275)Tkuj\356\275=\217\246\\R\262R\357"
 615      D762BD29 
 615      546B756A 
 615      EEBD3D8F 
 615      A65C52B2 
 616 16f4 762BF57E 		.ascii	"v+\365~\342\346_o\331F\213\265\301\266X6-\306j\225l"
 616      E2E65F6F 
 616      D9468BB5 
 616      C1B65836 
 616      2DC66A95 
 617 1709 97954826 		.ascii	"\227\225H&\213\201i\211\274\223\026y\013\217\310?\344"
 617      8B816989 
 617      BC931679 
 617      0B8FC83F 
 617      E4
 618 171a 1C5DCB85 		.ascii	"\034]\313\205A+\221M\026\006\323\022\371+Z\344\355\266"
 618      412B914D 
 618      1606D312 
 618      F92B5AE4 
 618      EDB6
 619 172c 45F609FA 		.ascii	"E\366\011\372\217\266\034\325\204\361\304:\244\353\221"
 619      8FB61CD5 
 619      84F1C43A 
 619      A4EB91
 620 173b 7E8C7403 		.ascii	"~\214t\003\322f\244_ \335\317\023s\254r'-S\325\245\351"
 620      D266A45F 
 620      20DDCF13 
 620      73AC7227 
 620      2D53D5A5 
 621 1750 A663F17B 		.ascii	"\246c\361{$t\345\335j\330\370\301\355\207q\306y\014"
 621      2474E5DD 
 621      6AD8F8C1 
 621      ED8771C6 
 621      790C
 622 1762 87D39A87 		.ascii	"\207\323\232\207m\3564H\3024,r\202\035\250\032k\360"
 622      6DEE3448 
 622      C2342C72 
 622      821DA81A 
 622      6BF0
 623 1774 64B9135C 		.ascii	"d\271\023\\\003U\023\347\021\222\363\022k\023\017\012"
 623      035513E7 
 623      1192F312 
 623      6B130F0A 
 624 1784 DACB3377 		.ascii	"\332\3133wE_@<\215\374/0\346\337\034C\022\032\260\310"
 624      455F403C 
 624      8DFC2F30 
 624      E6DF1C43 
 624      121AB0C8 
 625 1798 5996FFEB 		.ascii	"Y\226\377\353d}\343,\027\367m\352[D\247\334$\334\333"
 625      647DE32C 
 625      17F76DEA 
ARM GAS  /tmp/ccihbNGH.s 			page 50


 625      5B44A7DC 
 625      24DCDB
 626 17ab 92004C6B 		.ascii	"\222\000Lk\230\215\337\301c\224\3457\222>\263\215\345"
 626      988DDFC1 
 626      6394E537 
 626      923EB38D 
 626      E5
 627 17bc D3614DDE 		.ascii	"\323aM\336\252\276K&\277\376\365\025\017\236\305\274"
 627      AABE4B26 
 627      BFFEF515 
 627      0F9EC5BC 
 628 17cc F41DF23C 		.ascii	"\364\035\362<"
 629 17d0 879DB75D 		.ascii	"\207\235\267]\267+o\273^\303q\253\345av\334J\353m\327"
 629      B72B6FBB 
 629      5EC371AB 
 629      E56176DC 
 629      4AEB6DD7 
 630 17e4 0BB6A5D0 		.ascii	"\013\266\245\320i\245e\323\007\337tU_$\222\031k\345"
 630      69A565D3 
 630      07DF7455 
 630      5F249219 
 630      6BE5
 631 17f6 41341AD8 		.ascii	"A4\032\330\214>\2645\005\304\3638\303\372\016\235\301"
 631      8C3EB435 
 631      05C4F338 
 631      C3FA0E9D 
 631      C1
 632 1807 45A49791 		.ascii	"E\244\227\221^E\332\306\343\036N\321n,\326M\355o6\315"
 632      5E45DAC6 
 632      E31E4ED1 
 632      6E2CD64D 
 632      ED6F36CD 
 633 181b CB98D513 		.ascii	"\313\230\325\023\024\253\337 \253\337\322,I\302\253"
 633      14ABDF20 
 633      ABDFD22C 
 633      49C2AB
 634 182a 589F1D77 		.ascii	"X\237\035w\244Wv\333\275[\217]\033\027\233\321\223\373"
 634      A45776DB 
 634      BD5B8F5D 
 634      1B179BD1 
 634      93FB
 635 183c 70D5F82D 		.ascii	"p\325\370-\267\004\223879W\365\355nz\213\341<W\265\335"
 635      B7049338 
 635      373957F5 
 635      ED6E7A8B 
 635      E13C57B5 
 636 1851 CD9CAB7A 		.ascii	"\315\234\253zM>W\225\344[th\345\370\323\031\335\222"
 636      4D3E5795 
 636      E45B7468 
 636      E5F8D319 
 636      DD92
 637 1863 CF555DD0 		.ascii	"\317U]\320\315\360\\\325%\335\364\347\252*Z\260<)Uc"
 637      CDF05CD5 
 637      25DDF4E7 
 637      AA2A5AB0 
 637      3C295563 
 638 1877 0E26A61E 		.ascii	"\016&\246\036|\030\324c}R*\245}[\017D\306\342\355\315"
ARM GAS  /tmp/ccihbNGH.s 			page 51


 638      7C18D463 
 638      7D522AA5 
 638      7D5B0F44 
 638      C6E2EDCD 
 639 188b E47DC994 		.ascii	"\344}\311\224g/\251\247\3326\234W\336\010{\325C\334"
 639      672FA9A7 
 639      DA369C57 
 639      DE087BD5 
 639      43DC
 640 189d E9B96EA9 		.ascii	"\351\271n\251\335\251\001\016\270\235\356D\333o \310"
 640      DDA9010E 
 640      B89DEE44 
 640      DB6F20C8 
 641 18ad 0DBB2092 		.ascii	"\015\273 \2220\376\021R\344m\017\343\2237\310{\303$"
 641      30FE1152 
 641      E46D0FE3 
 641      9337C87B 
 641      C324
 642 18bf 3F955726 		.ascii	"?\225W&g\030\313\257D\253\357\212\276\231\300T*}\216"
 642      6718CBAF 
 642      44ABEF8A 
 642      BE99C054 
 642      2A7D8E
 643 18d2 565F6AB7 		.ascii	"V_j\267\374\245\374(\233\274;\374.\013f\323\217\356"
 643      FCA5FC28 
 643      9BBC3BFC 
 643      2E0B66D3 
 643      8FEE
 644 18e4 4DBCF63C 		.ascii	"M\274\366<\033\037t\232g\033O\327\311\342\373d\346d"
 644      1B1F749A 
 644      671B4FD7 
 644      C9E2FB64 
 644      E664
 645 18f6 B00F79C0 		.ascii	"\260\017y\300,\226\370\276\246\301V\330\006\323sv\210"
 645      2C96F8BE 
 645      A6C156D8 
 645      06D37376 
 645      88
 646 1907 066BE401 		.ascii	"\006k\344\001\263X\342;\252\014gi\036\225;\327c\276"
 646      B358E23B 
 646      AA0C6769 
 646      1E953BD7 
 646      63BE
 647 1919 A5225BAB 		.ascii	"\245\"[\253Y\311\371\036*@\343;Zw\272\034\000\325zp"
 647      59C9F91E 
 647      2A40E33B 
 647      5A77BA1C 
 647      00D57A70 
 648 192d 9FEE117D 		.ascii	"\237\356\021}\037`\252&\214\231U\275\320c~\000&\363"
 648      1F60AA26 
 648      8C9955BD 
 648      D0637E00 
 648      26F3
 649 193f 3788716D 		.ascii	"7\210qm+X\337Z\307kt/\304\356\341\201\363\031\264\227"
 649      2B58DF5A 
 649      C76B742F 
 649      C4EEE181 
ARM GAS  /tmp/ccihbNGH.s 			page 52


 649      F319B497 
 650 1953 D187EED0 		.ascii	"\321\207\356\320\001q\022:\276\311\036\\ZD:\015\351"
 650      0171123A 
 650      BEC91E5C 
 650      5A443A0D 
 650      E9
 651 1964 74A43391 		.ascii	"t\2443\221\316B:\007\351\007\236\237\376w\243J\302\301"
 651      CE423A07 
 651      E9079E9F 
 651      FE77A34A 
 651      C2C1
 652 1976 4798B14E 		.ascii	"G\230\261N\357\230R\365\303\030\016vSc0\301\345\367"
 652      EF9852F5 
 652      C3180E76 
 652      536330C1 
 652      E5F7
 653 1988 B87B1F95 		.ascii	"\270{\037\225=\356\022t\226-\214\241\310f\371\337%\357"
 653      3DEE1274 
 653      962D8CA1 
 653      C866F9DF 
 653      25EF
 654 199a 252E794D 		.ascii	"%.yM\317\026H\310;\243'\375\257\355\346X\375\243\200"
 654      CF1648C8 
 654      3BA327FD 
 654      AFEDE658 
 654      FDA380
 655 19ad 151EDBFF 		.ascii	"\025\036\333\377qY\371\327K\011\027\255$:'\304he\305"
 655      7159F9D7 
 655      4B0917AD 
 655      243A27C4 
 655      6865C5
 656 19c0 307C6578 		.ascii	"0|ex\210i\263\221U\030\207[\346M\022nr\241\275d\206"
 656      8869B391 
 656      5518875B 
 656      E64D126E 
 656      72A1BD64 
 657 19d5 66343736 		.ascii	"f476xi\330\360p\352\033\013v\177\254,\364\254As\270"
 657      7869D8F0 
 657      70EA1B0B 
 657      767FAC2C 
 657      F4AC4173 
 658 19ea C398434A 		.ascii	"\303\230CJ \234\234\262\343\346\376\345\312\333\307"
 658      209C9CB2 
 658      E3E6FEE5 
 658      CADBC7
 659 19f9 4DA9474E 		.ascii	"M\251GN\362:\344r\335\213r0_\307W\262\23347`s\307\366"
 659      F23AE472 
 659      DD8B7230 
 659      5FC757B2 
 659      9B343760 
 660 1a10 F072DD8B 		.ascii	"\360r\335\213r\001q\267m@\375\313\206GY\016\017\333"
 660      720171B7 
 660      6D40FDCB 
 660      8647590E 
 660      0FDB
 661 1a22 06D43559 		.ascii	"\006\3245Y\3748\313\341~\333\200\372\227\015\257\260"
 661      FC38CBE1 
ARM GAS  /tmp/ccihbNGH.s 			page 53


 661      7EDB80FA 
 661      970DAFB0 
 662 1a32 1CBEE7E0 		.ascii	"\034\276\347\340\000\264\210\030\256\261\034\036\344"
 662      00B48818 
 662      AEB11C1E 
 662      E4
 663 1a3f E1D0E2C5 		.ascii	"\341\320\342\305\341\353,\207\273l\003\352u\330\306"
 663      E1EB2C87 
 663      BB6C03EA 
 663      75D8C6
 664 1a4e 7278D436 		.ascii	"rx\3246\240^\2077Y\016\367\362\000Z\0046\267Y\016O\330"
 664      A05E8737 
 664      590EF7F2 
 664      005A0436 
 664      B7590E4F 
 665 1a63 06D4EBF0 		.ascii	"\006\324\353\360\356r\346\225\322\327\273\2136\001\365"
 665      EE72E695 
 665      D2D7BB8B 
 665      3601F5
 666 1a72 3A6C6739 		.ascii	":lg9<e\233C\275\016'\257`_`\347\341\320\"\004\233\272"
 666      3C659B43 
 666      BD0E27AF 
 666      605F60E7 
 666      E1D02204 
 667 1a88 82E1F02C 		.ascii	"\202\341\360,\017\207F/\016\033}h\347\025\020\327\341"
 667      0F87462F 
 667      0E1B7D68 
 667      E71510D7 
 667      E1
 668 1a99 E8B61E47 		.ascii	"\350\266\036G\256\217\221n@\272\021\351&\244q\244\233"
 668      AE8F916E 
 668      40BA11E9 
 668      26A471A4 
 668      9B
 669 1aaa 916E41FA 		.ascii	"\221nA\372\011\322O\221\376\023i3\322mH?\243G@\263!"
 669      09D24F91 
 669      FE136933 
 669      D26D483F 
 669      A34740B3 
 670 1abf 67B5879A 		.ascii	"g\265\207\232pO\355\3161\001\2562hSc\001\353\250\011"
 670      704FEDCE 
 670      3101AE32 
 670      68536301 
 670      EBA809
 671 1ad2 773D4EB8 		.ascii	"w=N\270\033p%\340(\322\333H'\"\253\037\"]\216\264\036"
 671      1B7025E0 
 671      28D2DB48 
 671      2722AB1F 
 671      225D8EB4 
 672 1ae7 E92A1EE6 		.ascii	"\351*\036\346\227\2713u\025\352\366,gv7\331\263\274"
 672      97B93375 
 672      15EAF62C 
 672      677637D9 
 672      B3BC
 673 1af9 B5469C36 		.ascii	"\265F\2346>\326_\336\301\203\031)n?-r\233m>.\245\366"
 673      3ED65FDE 
 673      C1831929 
ARM GAS  /tmp/ccihbNGH.s 			page 54


 673      6E3F2D72 
 673      9B6D3E2E 
 674 1b0f 2CAF913D 		.ascii	",\257\221=\313F,\266\326e]\254\221*\326(?\217&?\214"
 674      CB462CB6 
 674      D6655DAC 
 674      912AD628 
 674      3F8F263F 
 675 1b24 BF1CF932 		.ascii	"\277\034\3712/\210[\207J\301\333r\301e\270\332V\227"
 675      2F885B87 
 675      4AC1DB72 
 675      C165B8DA 
 675      5697
 676 1b36 A2E03237 		.ascii	"\242\34027\375 \233~\227\224*e\264K\372\271\307h\227"
 676      FD209B7E 
 676      97942A65 
 676      B44BFAB9 
 676      C76897
 677 1b49 7477CD0E 		.ascii	"tw\315\016\021\230\270CvQl\374\357\270\375\036\203\235"
 677      1198B843 
 677      76516CFC 
 677      EFB8FD1E 
 677      839D
 678 1b5b 52A67156 		.ascii	"R\246qV\0336Nlz\220i\226}\036\313fQ\244\035\027\273"
 678      1B364E6C 
 678      7A906996 
 678      7D1ECB66 
 678      51A41D17 
 679 1b70 F0CA2B5D 		.ascii	"\360\312+]D\365\337\247\352\212\031\211{\300P\334\233"
 679      44F5DFA7 
 679      EA8A1989 
 679      7BC050DC 
 679      9B
 680 1b81 F85FE6C1 		.ascii	"\370_\346\3013\265o\2028\310\306\326\360aV\340Vzkx)"
 680      33B56F82 
 680      38C8C6D6 
 680      F06156E0 
 680      567A6B78 
 681 1b96 B3356CBC 		.ascii	"\2635l\274\303\376\251\261B\356\226\364\227\341`\006"
 681      C3FEA9B1 
 681      42EE96F4 
 681      97E16006 
 682 1ba6 840A3964 		.ascii	"\204\0129d\252\020zo}/\253G\363bK\255\266\344\315\213"
 682      AA107A6F 
 682      7D2FAB47 
 682      F3624BAD 
 682      B6E4CD8B 
 683 1bba 8DB730B6 		.ascii	"\215\2670\266C\326\332?\236\254\375\225-\361\215\315"
 683      43D6DA3F 
 683      9EACFD95 
 683      2DF18DCD 
 684 1bca 5993C6B6 		.ascii	"Y\223\306\266\264\267?fcw\345\224\221\342\031\305\356"
 684      B4B73F66 
 684      6377E594 
 684      91E219C5 
 684      EE
 685 1bdb 3252ECB8 		.ascii	"2R\354\270X;\253\330o\255\025\233\260\264:|@t\227\""
 685      583BABD8 
ARM GAS  /tmp/ccihbNGH.s 			page 55


 685      6FAD159B 
 685      B0B43A7C 
 685      40749722 
 686 1bef AA592985 		.ascii	"\252Y)\205\301\177\031\032\332e\023Q\255l\354\274\245"
 686      C17F191A 
 686      DA651351 
 686      AD6CECBC 
 686      A5
 687 1c00 8DB18F1F 		.ascii	"\215\261\217\037({\244\214*\016\033\333\330\344 \243"
 687      287BA48C 
 687      2A0E1BDB 
 687      D8E420A3 
 688 1c10 8A735C36 		.ascii	"\212s\\6\326\250\371\302\271)\212\321\276\360Z\340\011"
 688      D6A8F9C2 
 688      B9298AD1 
 688      BEF05AE0 
 688      09
 689 1c21 F5559933 		.ascii	"\365U\2313\310\017U\2149\355G\221\302\320\306\316Y\333"
 689      C80F558C 
 689      39ED4791 
 689      C2D0C6CE 
 689      59DB
 690 1c33 D825431B 		.ascii	"\330%C\033\253\377\314\276\342[-\024\317\254m\0201\315"
 690      ABFFCCBE 
 690      E25B2D14 
 690      CFAC6D10 
 690      31CD
 691 1c45 606E7AE8 		.ascii	"`nz\350\241*\001\246\374+\366\024\015w\311\330\206\247"
 691      A12A01A6 
 691      FC2BF614 
 691      0D77C9D8 
 691      86A7
 692 1c57 B30D779D 		.ascii	"\263\015w\235\253\3416\221b7q\261\246\035\201\315\213"
 692      ABE13691 
 692      623771B1 
 692      A61D81CD 
 692      8B
 693 1c68 21D74AB1 		.ascii	"!\327J\261\266\277t\225\371\225\204W~\302\024cN|F\251"
 693      B6BF7495 
 693      F9958457 
 693      7EC21463 
 693      4E7C46A9 
 694 1c7c D4DA6AB2 		.ascii	"\324\332j\262\206\250\015\376w\266\234\215\0067\253"
 694      86A80DFE 
 694      77B69C8D 
 694      0637AB
 695 1c8b 4DD1EF1D 		.ascii	"M\321\357\035\303\2366{\207\375\006\257\361\246v*\357"
 695      C39E367B 
 695      87FD06AF 
 695      F1A6762A 
 695      EF
 696 1c9c FE84AF27 		.ascii	"\376\204\257'\275\342\345q*\254\250T)#Q_\365\352D\375"
 696      BDE2E571 
 696      2AACA854 
 696      2923515F 
 696      F5EA44FD 
 697 1cb0 93E898EE 		.ascii	"\223\350\230\356D\201[&\265\264\235\336R=3\266eB\254"
ARM GAS  /tmp/ccihbNGH.s 			page 56


 697      44815B26 
 697      B5B49DDE 
 697      523D33B6 
 697      6542AC
 698 1cc3 BDFD6FEC 		.ascii	"\275\375o\354\020f\361\260\301[\254\314q\332\273(O\310"
 698      1066F1B0 
 698      C15BACCC 
 698      71DABB28 
 698      4FC8
 699 1cd5 2BBF79F7 		.ascii	"+\277y\367[\247\237\337\333]\371\3178^\374\357S\214"
 699      5BA79FDF 
 699      DB5DF9CF 
 699      385EFCEF 
 699      538C
 700 1ce7 CE3871E2 		.ascii	"\3168q\342u\027\310\246\347;\210q\214\301\010\210}\231"
 700      7517C8A6 
 700      E73B8871 
 700      8CC10888 
 700      7D99
 701 1cf9 25A3BECC 		.ascii	"%\243\276\314\261\213\353/9b\223\274\230/\0117\177\242"
 701      B18BEB2F 
 701      396293BC 
 701      982F0937 
 701      7FA2
 702 1d0b DFA0A0CA 		.ascii	"\337\240\240\312\3653[s\353\253\305\260\323\275\217"
 702      F5335B73 
 702      EBABC5B0 
 702      D3BD8F
 703 1d1a 27DFC958 		.ascii	"'\337\311X\306\370G\365\034\2527\315Lj\264\031\211F"
 703      C6F847F5 
 703      1CAA37CD 
 703      4C6AB419 
 703      8946
 704 1d2c 6BAAD937 		.ascii	"k\252\3317U\234<~\236\374L\232\276\331\370\267\222\032"
 704      559C3C7E 
 704      9EFC4C9A 
 704      BED9F8B7 
 704      921A
 705 1d3e 76123DCD 		.ascii	"v\022=\315\361\222\275\244\267\030.8\367\222\346y\231"
 705      F192BDA4 
 705      B7182E38 
 705      F792E679 
 705      99
 706 1d4f BDA4836F 		.ascii	"\275\244\203o\340^\022\311O\275\2274\355\321\344\275"
 706      E05E12C9 
 706      4FBD9734 
 706      EDD1E4BD 
 707 1d5f A4598F1A 		.ascii	"\244Y\217\032\356%-z\324\360\177\364\325?j\370?\372"
 707      EE252D7A 
 707      D4F07FF4 
 707      D53F6AF8 
 707      3FFA
 708 1d71 363DAAFF 		.ascii	"6=\252\377\037}\352\377>\325\262\351\377O\272_\313\246"
 708      1F7DEAFF 
 708      3ED5B2E9 
 708      FF4FBA5F 
 708      CBA6
ARM GAS  /tmp/ccihbNGH.s 			page 57


 709 1d83 FF3FE929 		.ascii	"\377?\351)-\233\376\377\244\227\264l/\225}C\313\316"
 709      2D9BFEFF 
 709      A497B46C 
 709      2F957D43 
 709      CBCE
 710 1d95 A0B25F7F 		.ascii	"\240\262_\177,\221\335\201\312\236\243egR\331\313\265"
 710      2C91DD81 
 710      CA9EA365 
 710      6752D9CB 
 710      B5
 711 1da6 EC2C2A7B 		.ascii	"\354,*{\203\226\335\221\312\336\251ew\242\262\217i\331"
 711      8396DD91 
 711      CADEA965 
 711      77A2B28F 
 711      69D9
 712 1db8 9DA9ECB3 		.ascii	"\235\251\354\263Zv\027*\373\232\226}\037\225]\343Kd"
 712      5A76172A 
 712      FB9A967D 
 712      1F955DE3 
 712      4B64
 713 1dca DF4FF3AD 		.ascii	"\337O\363\255e?\240\264%\371i\271\245\247\331H@\234"
 713      653FA0B4 
 713      25F969B9 
 713      A5A7D948 
 713      409C
 714 1ddc 8F1D6281 		.ascii	"\217\035b\201\327xK\317\314\331\314f\235\015\211%\023"
 714      D7784BCF 
 714      CCD9CC66 
 714      9D0D8925 
 714      13
 715 1ded 3F4E8BFA 		.ascii	"?N\213\372Pf\261h4\"\326\373\214\273\331\027\336\244"
 715      5066B168 
 715      3422D6FB 
 715      8CBBD917 
 715      DEA4
 716 1dff 61A06552 		.ascii	"a\240eR|\356.\210\354\347\223\310\376\017\254S$\375"
 716      7CEE2E88 
 716      ECE793C8 
 716      FE0FAC53 
 716      24FD
 717 1e11 C58CD15D 		.ascii	"\305\214\321],\243\344U\001\233\2146\2310\272\327\210"
 717      2CA3E455 
 717      019B8C36 
 717      9930BAD7 
 717      88
 718 1e22 D1963B7B 		.ascii	"\321\226;{V\2301J\3526\235q\261\214^\024\223\206\254"
 718      5698314A 
 718      EA369D71 
 718      B18C5E14 
 718      9386AC
 719 1e35 CD268C1C 		.ascii	"\315&\214\034HrL\267%\225\235\265[\3679\314F\023+\305"
 719      48724CB7 
 719      25959DB5 
 719      5BF739CC 
 719      46132BC5 
 720 1e49 1D326A61 		.ascii	"\0352ja\206\237\317M\3709\242\347\347g\302\374Xl\017"
 720      869FCF4D 
ARM GAS  /tmp/ccihbNGH.s 			page 58


 720      F839A2E7 
 720      E767C2FC 
 720      586C0F
 721 1e5c CCDA97F4 		.ascii	"\314\332\227\364 \347%\304\310lTLL\211\367%@\314X9\246"
 721      20E725C4 
 721      C86C544C 
 721      4C89F725 
 721      40CC5839 
 722 1e71 C1A5B995 		.ascii	"\301\245\271\225\326\242\027&Kx\203\216\371\372\232"
 722      D6A21726 
 722      4B78838E 
 722      F9FA9A
 723 1e80 EFA49DF4 		.ascii	"\357\244\235\364f\011\314\307\354\326\343^\343S\007"
 723      6609CCC7 
 723      ECD6E35E 
 723      E35307
 724 1e8f E4B1D3AC 		.ascii	"\344\261\323\254\3247\246\245\310xnV\352[\223R\374\032"
 724      D437A6A5 
 724      C8786E56 
 724      EA5B9352 
 724      FC1A
 725 1ea1 39CD362F 		.ascii	"9\3156/\221\224\353)\265S\246\034\317\266\340\370\214"
 725      9194EB29 
 725      B553A61C 
 725      CFB6E0F8 
 725      8C
 726 1eb2 69296205 		.ascii	"i)b\005f\245\316\232\226\"/\256\233\225:gZj\277\005"
 726      66A5CE9A 
 726      96222FAE 
 726      9B953A67 
 726      5A6ABF05 
 727 1ec6 87E74D4B 		.ascii	"\207\347MK\355\262(\365\235I)e\207\251\3055C\177,B\322"
 727      EDB228F5 
 727      9D492965 
 727      87A9C535 
 727      437F2C42 
 728 1edb 787DD16B 		.ascii	"x}\321kw\207\351\222\327x\207)U\303]0\025\360\242\205"
 728      7787E992 
 728      D7788729 
 728      55C35D30 
 728      15F0A285 
 729 1eef 322FF399 		.ascii	"2/\363\231\232a0\256\014Q\207|T\344{\2255\274\336\224"
 729      9A6130AE 
 729      0C51877C 
 729      54E47B95 
 729      35BCDE94 
 730 1f03 3F661E9E 		.ascii	"?f\036\236d~\376!y\321\305\214\353+\246\262\036\262"
 730      647EFE21 
 730      79D1C58C 
 730      EB2BA6B2 
 730      1EB2
 731 1f15 68CC9B5A 		.ascii	"h\314\233Z)\301Y<<\020v\367\033\364\202/Gx6{xey0\273"
 731      29C1593C 
 731      3C1076F7 
 731      1BF4822F 
 731      4778367B 
 732 1f2e B8B2644C 		.ascii	"\270\262dLvIpdv\361\360\320\320Pe$;\032\256\256x9\033"
ARM GAS  /tmp/ccihbNGH.s 			page 59


 732      76497064 
 732      76F1F0D0 
 732      D0506524 
 732      3B1AAEAE 
 733 1f45 12C1D1D1 		.ascii	"\022\301\321\321\354\322@\2644\222\035\011\027g\207"
 733      ECD240B4 
 733      34921D09 
 733      176787
 734 1f54 2AA2C161 		.ascii	"*\242\301a\301p\217\341\202\263\317\213EyO\333+]Z\012"
 734      C1708FE1 
 734      82B3CF8B 
 734      45794FDB 
 734      2B5D5A0A 
 735 1f68 055D7D7B 		.ascii	"\005]}{\027\365-\364\224F\374\3211UAGIx\244\2538\022"
 735      17F52DF4 
 735      9446FCD1 
 735      31554147 
 735      4978A4AB 
 736 1f7e FA3F4177 		.ascii	"\372?Aw\205\037\356\214\270F\225\226\005\206yK#!?I8"
 736      851FEE8C 
 736      B8469596 
 736      0586794B 
 736      23213F49 
 737 1f93 FF34B820 		.ascii	"\3774\270 W\012\225dT\370\303\225\225"
 737      570A9564 
 737      54F8C395 
 737      95
 738 1fa0 D19250D8 		.ascii	"\321\222P\330\225K\262:\224\005\"Q\177qYu$\332\2414"
 738      954BB23A 
 738      94052251 
 738      7F715975 
 738      24DAA134 
 739 1fb4 1C0CCA49 		.ascii	"\034\014\312I/b\004+\242\256R\002\351\031YY64\020\011"
 739      2F62042B 
 739      A2AE5202 
 739      E9195959 
 739      36341009 
 740 1fc8 7A2013BF 		.ascii	"z \023\277\2418\371\366\226\004\242\001\314\030\025"
 740      A138F9F6 
 740      9604A201 
 740      CC1815
 741 1fd7 AA88048B 		.ascii	"\252\210\004\213\243\016\370v\025\345\364\357]\320)"
 741      A30EF876 
 741      15E5F4EF 
 741      5DD029
 742 1fe6 52525E0E 		.ascii	"RR^\016\374\224W\225\005\201Y\017\376\364G]\370\375"
 742      FC945795 
 742      0581590F 
 742      FEF4475D 
 742      F8FD
 743 1ff8 EB54E20E 		.ascii	"\353T\342\016\017\224\201\212"
 743      0F94818A 
 744 2000 80959260 		.ascii	"\200\225\222`6)\027\251\012\001H\306\300\2019\271\341"
 744      362917A9 
 744      0A0148C6 
 744      C08139B9 
 744      E1
ARM GAS  /tmp/ccihbNGH.s 			page 60


 745 2011 D0C86038 		.ascii	"\320\310`8+\221\372\343\300\"\227\277OeeYf(\342'L\204"
 745      2B91FAE3 
 745      C02297BF 
 745      4F656559 
 745      6628E227 
 746 2027 A3C1922C 		.ascii	"\243\301\222,HW\205+\243\300Q\260\304S\\YQ\001\251\016"
 746      4857852B 
 746      A3C051B0 
 746      C4535C59 
 746      5101A90E 
 747 203b 25A18892 		.ascii	"%\241\210\222\374yvu$\234\035\010\227?YQY\021|2\030"
 747      FC797675 
 747      249C1D08 
 747      973F5951 
 747      59117C32 
 748 2050 181A4A54 		.ascii	"\030\032JT\027\001\335TD\2416o5|?\375\224?\372\214\305"
 748      1701DD54 
 748      44A1366F 
 748      357C3FFD 
 748      943FFA8C 
 749 2065 DDE501E0 		.ascii	"\335\345\001\340\275\"\230\355/\011\226\006\252\313"
 749      BD2298ED 
 749      2F099606 
 749      AACB
 750 2073 A2D81611 		.ascii	"\242\330\026\021(\335\301\357W\313{H\342Y\1774C\316"
 750      28DDC1EF 
 750      57CB7B48 
 750      E2597F34 
 750      43CE
 751 2085 8294331C 		.ascii	"\202\2243\034\014\224\270F\205C\321\24032\246\242\370"
 751      0C94B846 
 751      8543D1A0 
 751      3332A6A2 
 751      F8
 752 2096 7776F401 		.ascii	"wv\364\001i\177\250rhYe\361\313PO\347>$\221\033\034"
 752      697FA872 
 752      685965F1 
 752      CB504FE7 
 752      3E24911B 
 753 20ab 192A0EE6 		.ascii	"\031*\016\346W\224Vz\207\226\275\354\3076#\211\212\352"
 753      5794567A 
 753      8796BDEC 
 753      C7362389 
 753      8AEA
 754 20bd 72EFB060 		.ascii	"r\357\260`\024\024SZ\351\030Y\036\355\000\231\221(\264"
 754      1414535A 
 754      E918591E 
 754      ED009991 
 754      28B4
 755 20cf AC3FDAA1 		.ascii	"\254?\332\241\317\200\347\375/\014\312\037\224_\344"
 755      CF80E7FD 
 755      2F0CCA1F 
 755      945FE4
 756 20de 25C9C2A2 		.ascii	"%\311\302\242\301C0\257wNQ\376\037\363:\221d\316\340"
 756      C14330AF 
 756      774E51FE 
 756      1FF33A91 
ARM GAS  /tmp/ccihbNGH.s 			page 61


 756      64CEE0
 757 20f1 4183F2E0 		.ascii	"A\203\362\340\347\240~\367\221\237\271\371\205ZN\006"
 757      E7A07EF7 
 757      919FB9F9 
 757      855A4E06 
 758 2101 C929C8EB 		.ascii	"\311)\310\353\235\373b\246\232\202\\L\377\251 \277H"
 758      9DFB62A6 
 758      9A825C4C 
 758      FFA920BF 
 758      48
 759 2112 4D17BE38 		.ascii	"M\027\2768(\007\322.\254\325Q\034*q\024GJ\274\305\201"
 759      2807D22E 
 759      ACD5511C 
 759      2A711447 
 759      4ABCC581 
 760 2126 AA407128 		.ascii	"\252@q(:&\227G\360\252\312p4\222]X4\360\351\247\262"
 760      3A269747 
 760      F0AACA70 
 760      34925D58 
 760      34F0E9A7 
 761 213b 070CC8CD 		.ascii	"\007\014\310\315.\034\222?\262W6\230\204\277\254\254"
 761      2E1C923F 
 761      B2573698 
 761      84BFACAC 
 762 214b 84980564 		.ascii	"\204\230\005d\310\306\360\224\035=\3126\325\001\276"
 762      C8C6F094 
 762      1D3DCA36 
 762      D501BE
 763 215a 548D008E 		.ascii	"T\215\000\216\252\021\222$\032!\330\262\224\370WY7Y"
 763      AA119224 
 763      1A21D8B2 
 763      94F85759 
 763      3759
 764 216c 24993378 		.ascii	"$\2313x\340\220\001yEy\035\001\2408P\006\375\243\370"
 764      E0900179 
 764      45791D01 
 764      A0385006 
 764      FDA3F8
 765 217f 657FD41D 		.ascii	"e\177\324\035\254(\361\027\017\375-O\177\316\031X\230"
 765      AC28F117 
 765      0FFD2D4F 
 765      7FCE1958 
 765      98
 766 2190 5F087281 		.ascii	"_\010r\201\311\225?\375Ti\257\236\243\201\237\254~C"
 766      C9953FFD 
 766      5469AF9E 
 766      A3819FAC 
 766      7E43
 767 21a2 F207FB8B 		.ascii	"\362\007\373\213\300\212r\203\245\216\234\202\001p\365"
 767      C08A7283 
 767      A58E9C82 
 767      0170F5
 768 21b1 77E4E716 		.ascii	"w\344\347\0268\006\347\0268\373\024\026\0248\372\024"
 768      3806E716 
 768      38FB1416 
 768      1438FA14 
 769 21c1 143807E4 		.ascii	"\0248\007\344<_\220\227\216\362\010<h\257\012\214H\326"
ARM GAS  /tmp/ccihbNGH.s 			page 62


 769      3C5F9097 
 769      8EF2083C 
 769      68AF0A8C 
 769      48D6
 770 21d3 5E875025 		.ascii	"^\207P%\271'T\002\314G\"$\211\206\337\353\327\240\020"
 770      B9275402 
 770      CC472224 
 770      8986DFEB 
 770      D7A010
 771 21e6 D96049D2 		.ascii	"\331`I\322\005\177\012@\333\205{\021\215\344TV\224\206"
 771      057F0A40 
 771      DB857B11 
 771      8DE45456 
 771      9486
 772 21f8 86B98BF1 		.ascii	"\206\271\213\361+\245\347\013G\023:/\036\036\031\023"
 772      2BA5E70B 
 772      47133A2F 
 772      1E1E1913 
 773 2208 51BB8837 		.ascii	"Q\273\2107:\234\364\003\350\030\305\303\375r\372\031"
 773      3A9CF403 
 773      E818C5C3 
 773      FD72FA19 
 774 2218 7B58C5C3 		.ascii	"{X\305\303\211\004\356*\177\005\350\023\276\252\302"
 774      8904EE2A 
 774      7F05E813 
 774      BEAAC2
 775 2227 C191FD39 		.ascii	"\301\221\3759 d\245\364.\030\2303p4\334Y^\025*\013\206"
 775      2064A5F4 
 775      2E189833 
 775      7034DC59 
 775      5E152A0B 
 776 223c 23D9FD72 		.ascii	"#\331\375rr\340v\225=O\264*\034\252\364\313\270\241"
 776      72E07695 
 776      3D4FB42A 
 776      1CAAF4CB 
 776      B8A1
 777 224e 4AE246A2 		.ascii	"J\342F\242PM\312\246M\302\037^\\\031&>0\223dCW\214\026"
 777      504DCAA6 
 777      4DC21F5E 
 777      5C19263E 
 777      30936443 
 778 2265 4747FFAF 		.ascii	"GG\377\257\364P\374#\177SN4\027\016\016\003\177\344"
 778      F450FC23 
 778      7F534E34 
 778      170E0E03 
 778      7FE4
 779 2277 8F4AE167 		.ascii	"\217J\341g\244\360\257\244\360\257\245\360o\244\360"
 779      A4F0AFA4 
 779      F0AFA5F0 
 779      6FA4F0
 780 2286 B352F8B7 		.ascii	"\263R\370\267\216p\257\236p\365\222\312\302\360\365"
 780      8E70AF9E 
 780      70F592CA 
 780      C2F0F5
 781 2295 B4ABCA0F 		.ascii	"\264\253\312\017\265y\210\206F\005\303\360]YV\022\014"
 781      B5798886 
 781      4605C3F0 
ARM GAS  /tmp/ccihbNGH.s 			page 63


 781      5D595612 
 781      0C
 782 22a6 138D05CA 		.ascii	"\023\215\005\312\203\336\250b\371\220\217)O\264\274"
 782      83DEA862 
 782      F9908F29 
 782      4FB4BC
 783 22b5 B244FE4D 		.ascii	"\262D\376M\306\214\210'\032\016\222\361\005\356'\011"
 783      C68C8827 
 783      1A0E92F1 
 783      05EE2709 
 784 22c5 57796418 		.ascii	"Wyd\030\374Qqk\340\316\224\224;\\2\006\376\344\015\216"
 784      FC51716B 
 784      E0CE9494 
 784      3B5C3206 
 784      FEE40D8E 
 785 22d9 0E4541A2 		.ascii	"\016EA\242\240{T\264r\350_\2532\203#a\004)\017D\260"
 785      A07B54B4 
 785      72E85FAB 
 785      32832361 
 785      04290F44 
 786 22ee 5F8C2209 		.ascii	"_\214\"\011G\225\277\272\223\334\324\021\177\031t<\177"
 786      4795BFBA 
 786      93DCD411 
 786      7F19743C 
 786      7F
 787 22ff B473A2F1 		.ascii	"\264s\242\361\345\234\214*\377\250@(\032\252\030\326"
 787      E59C8C2A 
 787      FFA84028 
 787      1AAA18D6 
 788 230f 59CD1E51 		.ascii	"Y\315\036Q\035\254\006\256\272PwbV\207*?T\213I\027&"
 788      1DAC06AE 
 788      BA507762 
 788      56872A3F 
 788      548B4917 
 789 2324 21235805 		.ascii	"!#X\005=\020\012\273\312\253\241\265R\216\253:{*\217"
 789      3D100ABB 
 789      CAABA1B5 
 789      528EAB3A 
 789      7B2A8F
 790 2337 921EE829 		.ascii	"\222\036\350)\227\321\341\273rT\005(\015\221@\204r4"
 790      97D1E1BB 
 790      72540528 
 790      0D914084 
 790      7234
 791 2349 33E00FEE 		.ascii	"3\340\017\356#\234v Z\011\224\241q@f\025\014B\277\261"
 791      239C7620 
 791      5A0994A1 
 791      71406615 
 791      0C42BFB1 
 792 235d 559F220C 		.ascii	"U\237\"\014\324y\277\322\025@\313\301p\260\242\030\244"
 792      D479BFD2 
 792      1540CBC1 
 792      70B0A218 
 792      A4
 793 236e 75CB5999 		.ascii	"u\313Y\231\304\327h\356\240WFA^a^\301\037\363r{\302"
 793      C4D768EE 
 793      A0574641 
ARM GAS  /tmp/ccihbNGH.s 			page 64


 793      5E615EC1 
 793      1FF3727B 
 794 2383 AFA712BF 		.ascii	"\257\247\022\277zI\205\005\211\037OI\271\332\217\247"
 794      7A498505 
 794      891F4F49 
 794      B9DA8FA7 
 795 2393 5D390539 		.ascii	"]9\0059C\264\337\317\270\013\376\0149Z\306\257\334E"
 795      43B4DFCF 
 795      B80BFE0C 
 795      395AC6AF 
 795      DC45
 796 23a5 FA8C5F7B 		.ascii	"\372\214_{\362\237*\314\351\333O\313\371\215\013r(\214"
 796      F29F2ACC 
 796      E9DB4FCB 
 796      F98D0B72 
 796      288C
 797 23b7 671DE0F4 		.ascii	"g\035\340\364\372\332u?H\373\366\032=Zvx\376\222\362"
 797      FADA753F 
 797      48FBF61A 
 797      3D5A7678 
 797      FE92F2
 798 23ca 0088FE40 		.ascii	"\000\210\376@\356\300\336\376\234\341\001\030\230\313"
 798      EEC0DEFE 
 798      9CE10118 
 798      98CB
 799 23d8 3441730A 		.ascii	"4As\012\\9\203r\213\012\2349Cz\003\031\330\273\300S"
 799      5C398372 
 799      8B0A9C39 
 799      437A0319 
 799      D8BBC053 
 800 23ec 2CDFE30C 		.ascii	",\337\343\014\225\026\207\335\241\310\360Pi4#\022,+"
 800      951687DD 
 800      A1C8F050 
 800      69342312 
 800      2C2B
 801 23fe 0D559404 		.ascii	"\015U\224\004G\273G\302\260^\031\276?\201\014\006\015"
 801      47BB47C2 
 801      B05E19BE 
 801      3F810C06 
 801      0D
 802 240f EA832EE2 		.ascii	"\352\203.\342\202\037\341\321\204FGg\204G\3037\261\361"
 802      821FE1D1 
 802      84464767 
 802      8447C337 
 802      B1F1
 803 2421 8CA89A72 		.ascii	"\214\250\232r\202(U\256\262Hq\3510\327pBI\224!;\270"
 803      822855AE 
 803      B24871E9 
 803      30D77042 
 803      4994213B 
 804 2436 CE38C8FA 		.ascii	"\3168\310\372\003%%\341`$\022\2148!\024)!\367\227xJ"
 804      032525E1 
 804      6024128C 
 804      38211429 
 804      21F79778 
 805 244b C163802B 		.ascii	"\301c\200+\363BN\001\264\322\030\010\303\360\273#\211"
 805      F3424E01 
ARM GAS  /tmp/ccihbNGH.s 			page 65


 805      B4D21808 
 805      C3F0BB23 
 805      89
 806 245c 88CA2A87 		.ascii	"\210\312*\207\311\261]\226\366\013\274\251\366\303\021"
 806      C9B15D96 
 806      F60BBCA9 
 806      F6C311
 807 246b 2929F640 		.ascii	"))\366@rH :<\253\204\014]\003+\253\301\273\224\270+"
 807      7248203A 
 807      3CAB840C 
 807      5D032BAB 
 807      C1BB94B8 
 808 2480 1038A5D9 		.ascii	"\0208\245\331\216\014\200\321UG\340\017`}\025Q\022\016"
 808      8E0C80D1 
 808      5547E00F 
 808      607D1551 
 808      120E
 809 2492 DA333D59 		.ascii	"\3323=Y;\304\364\036\354\003\361[a\020L\276\"\032\012"
 809      3BC4F41E 
 809      EC03F15B 
 809      61104CBE 
 809      221A0A
 810 24a5 9415E21F 		.ascii	"\224\025\342\037~l\224\011\241\326S\030\012\225\205"
 810      7E6C9409 
 810      A1D65318 
 810      0A9585
 811 24b4 86660F2B 		.ascii	"\206f\017+.fB\242gz<\333\343\031:\214\202\220\210xg"
 811      2E6642A2 
 811      677A3CDB 
 811      E3193A8C 
 811      82908878 
 812 24c9 128CF8A3 		.ascii	"\022\214\370\243\216\252\352\250\003B\021\257\312\262"
 812      8EAAEAA8 
 812      034211AF 
 812      CAB2
 813 24d7 03128ED2 		.ascii	"\003\022\216\322\362(\255\261b\301-\007H^\364-$f\202"
 813      F228ADB1 
 813      62C12D07 
 813      485EF42D 
 813      246682
 814 24ea BF109580 		.ascii	"\277\020\225\200\333QRN\342\271\334\212\036\373\346"
 814      DB51524E 
 814      E2B9DC8A 
 814      1EFBE6
 815 24f9 0F904A23 		.ascii	"\017\220J#N\342\254\034\301p\330YZ\025\015\273#\030"
 815      4EE2AC1C 
 815      C170D859 
 815      5A150DBB 
 815      2318
 816 250b C2BA645A 		.ascii	"\302\272dZB\302R/\304\253~\222 \201\253\037\356q\014"
 816      42C2522F 
 816      C4AB7E92 
 816      2081AB1F 
 816      EE710C
 817 251e AD2E7512 		.ascii	"\255.u\022\264\373\024\324A\301Q=\252\002\341h\217\236"
 817      B4FB14D4 
 817      41C1513D 
ARM GAS  /tmp/ccihbNGH.s 			page 66


 817      AA02E168 
 817      8F9E
 818 2530 0EC8F995 		.ascii	"\016\310\371\225\2558\"\030\006\025\221\326.\304\224"
 818      AD382218 
 818      061591D6 
 818      2EC494
 819 253f 1C8A74A6 		.ascii	"\034\212t\246\177\200\3462\310\300\027*\007A\234\240"
 819      7F80E632 
 819      C8C0172A 
 819      07419CA0 
 820 254f 89A81354 		.ascii	"\211\250\023T\021uc\004\030u\221~\036M\031\023\353\332"
 820      11756304 
 820      1875917E 
 820      1E4D1913 
 820      EBDA
 821 2561 0F5D2B69 		.ascii	"\017]+i\276N\230\362G*\253\303\304kd\321?\273\310?\210"
 821      BE4E98F2 
 821      472AABC3 
 821      C46B64D1 
 821      3FBBC83F 
 822 2576 AF0A5610 		.ascii	"\257\012V\020\023\354\244\317\360@\217#.-\023\276\325"
 822      13ECA4CF 
 822      F0408F23 
 822      2E2D13BE 
 822      D5
 823 2587 BC0C48CB 		.ascii	"\274\014H\313\3402\024\216\003\320 \220\215I\362\367"
 823      E032148E 
 823      03D02090 
 823      8D49F2F7 
 824 2597 51F2E010 		.ascii	"Q\362\340\020\214`i\027\336\227\021)Q\006\223\214\302"
 824      8C606917 
 824      DE971129 
 824      5106938C 
 824      C2
 825 25a8 5C258AF2 		.ascii	"\\%\212\362@\212\004Q^\370\306\030\312\236\214\350\205"
 825      408A0451 
 825      5EF8C618 
 825      CA9E8CE8 
 825      85
 826 25b9 898C1D43 		.ascii	"\211\214\035C\025\2403u\030\200\200EMz\325d\306\010"
 826      15A03375 
 826      18808045 
 826      4D7AD564 
 826      C608
 827 25cb 75D08054 		.ascii	"u\320\200T1\366\245\260w\204\037Z\031\374\251k\204?"
 827      31F6A5B0 
 827      77841F5A 
 827      19FCA96B 
 827      843F
 828 25dd 5A59E581 		.ascii	"ZY\345\201[\302\320\364\360\035.\201\357\214\021\025"
 828      5BC2D0F4 
 828      F01D2E81 
 828      EF8C1115 
 829 25ed 95D150E9 		.ascii	"\225\321P\351\030@\031\341\227\223\356\021\240\206\212"
 829      184019E1 
 829      9793EE11 
 829      A0868A
ARM GAS  /tmp/ccihbNGH.s 			page 67


 830 25fc 97DD21C4 		.ascii	"\227\335!\304\354TY\035\245\252uWbB\012\015\225*\207"
 830      EC54591D 
 830      A5AA7557 
 830      62420A0D 
 830      952A87
 831 260f 767CA1B0 		.ascii	"v|\241\260wA\021\345\227\237v\366+\032R\340\252\216"
 831      774111E5 
 831      979F76F6 
 831      2B1A52E0 
 831      AA8E
 832 2621 800D3D48 		.ascii	"\200\015=H,z\000\032h~E\210\364\037\350\001R\244\304"
 832      2C7A001A 
 832      687E4588 
 832      F41FE801 
 832      52A4C4
 833 2634 51327458 		.ascii	"Q2tX'\355o\205\300T\007\315\3742\225d!\334\234\245\244"
 833      27ED6F85 
 833      C05407CD 
 833      FC329564 
 833      21DC9CA5 
 834 2649 FF44ECC3 		.ascii	"\377D\354\303]\026\254\030\026\035\336\231\316\313\211"
 834      5D16AC18 
 834      161DDE99 
 834      CECB89
 835 2658 8C74C157 		.ascii	"\214t\301Wy\004< \230m\000\\\237\273\0023\324\2429e"
 835      79043C20 
 835      986D005C 
 835      9FBB0233 
 835      D4A23965 
 836 266c 9591A0AD 		.ascii	"\225\221\240\255\356\032\010\017#\243\337\310\000\332"
 836      EE1A080F 
 836      23A3DFC8 
 836      00DA
 837 267a 4227BF7F 		.ascii	"B'\277\177XEu\261_\371\231\371\037C\253Ce\321'C\025"
 837      584575B1 
 837      5FF999F9 
 837      1F43AB43 
 837      65D12743 
 838 268f BF1760E0 		.ascii	"\277\027`\340Wr!p\033)\367fO_\030\033^\030P\344\352"
 838      57722170 
 838      1B29F766 
 838      4F5F181B 
 838      5E1850E4 
 839 26a4 5BE01FFC 		.ascii	"[\340\037\374|&P\230,<\357\317+(\350\000\351\374AE$"
 839      7C265098 
 839      2C3CEFCF 
 839      2B28E800 
 839      E9FC4145 
 840 26b9 9905C941 		.ascii	"\231\005\311A\203\213\224x\032\177\370\241\007\347)"
 840      838B9478 
 840      1A7FF8A1 
 840      07E729
 841 26c8 C921BD8B 		.ascii	"\311!\275\213\372w\306\273\377\330{@~\256\177P\357\201"
 841      FA77C6BB 
 841      FFD87B40 
 841      7EAE7F50 
 841      EF81
ARM GAS  /tmp/ccihbNGH.s 			page 68


 842 26da 79190429 		.ascii	"y\031\004)oP~^\256\027Ry\177\316/,\272\217\272ep\237"
 842      6F507E5E 
 842      AE175279 
 842      7FCE2F2C 
 842      BA8FBA65 
 843 26f0 FF0DB391 		.ascii	"\377\015\263\221\373!\207\3149\362\374C\012\006\027"
 843      FB2187CC 
 843      39F2FC43 
 843      0A0617
 844 26ff 41465E6E 		.ascii	"AF^n\027\352\246\334\0022\237Q\352\316\033\324\273\317"
 844      17EAA6DC 
 844      02329F51 
 844      EACE1BD4 
 844      BBCF
 845 2711 00F9EF4A 		.ascii	"\000\371\357J\355\205/\026\026\345\015$\025\017|\276"
 845      ED852F16 
 845      16E50D24 
 845      150F7CBE 
 846 2721 6FA1BF77 		.ascii	"o\241\277w\237\301\005\000@x*\312\037\2307\370\205\""
 846      9FC10500 
 846      40782ACA 
 846      1F9837F8 
 846      8522
 847 2733 C2C380C1 		.ascii	"\302\303\200\3019\317\347\345\336\237\000\031\374B\277"
 847      39CFE7E5 
 847      DE9F0019 
 847      FC42BF
 848 2742 FE300528 		.ascii	"\3760\005(\310{\210\3347x\260\177`\357A/\372\007\017"
 848      C87B88DC 
 848      3778B07F 
 848      60EF412F 
 848      FA070F
 849 2755 C91B2463 		.ascii	"\311\033$c>H\325\017#\030HR\224W\340.\365WBx\342)\365"
 849      3E48D50F 
 849      23184852 
 849      9457E02E 
 849      F5574278 
 850 276c 971313ED 		.ascii	"\227\023\023\355\200s\341~\301(\231\305\303\274\033"
 850      8073E17E 
 850      C12899C5 
 850      C3BC1B
 851 277b 1ACC959B 		.ascii	"\032\314\225\233\327\347\205~\036h\245\212\352\262\262"
 851      D7E7857E 
 851      1E68A58A 
 851      EAB2B2
 852 278a FF078D94 		.ascii	"\377\007\215\224'\365"
 852      27F5
 853              		.text
 854              		.section	.gnu.lto_.symtab.cdde7149a33b07dd,"",%progbits
 855 0000 64617461 		.ascii	"dataLoggerInitialize\000\000\000\000\000\000\000\000"
 855      4C6F6767 
 855      6572496E 
 855      69746961 
 855      6C697A65 
 856 001c 00000000 		.ascii	"\000\000\000\000'\003\000\000dataLoggerStop\000\000"
 856      27030000 
 856      64617461 
ARM GAS  /tmp/ccihbNGH.s 			page 69


 856      4C6F6767 
 856      65725374 
 857 0034 00000000 		.ascii	"\000\000\000\000\000\000\000\000\000\000\324\003\000"
 857      00000000 
 857      0000D403 
 857      00
 858 0041 006C6F67 		.ascii	"\000logfileNew\000\000\000\000\000\000\000\000\000\000"
 858      66696C65 
 858      4E657700 
 858      00000000 
 858      00000000 
 859 0056 0000DA03 		.ascii	"\000\000\332\003\000\000logfileSize\000\000\000\000"
 859      00006C6F 
 859      6766696C 
 859      6553697A 
 859      65000000 
 860 006b 00000000 		.ascii	"\000\000\000\000\000\000\000\000\344\003\000\000log"
 860      00000000 
 860      E4030000 
 860      6C6F67
 861 007a 66696C65 		.ascii	"fileWrite\000\000\000\000\000\000\000\000\000\000\000"
 861      57726974 
 861      65000000 
 861      00000000 
 861      00000000 
 862 008e 00EA0300 		.ascii	"\000\352\003\000\000logfileWriteCsv\000\000\000\000"
 862      006C6F67 
 862      66696C65 
 862      57726974 
 862      65437376 
 863 00a6 00000000 		.ascii	"\000\000\000\000\000\000\000\000\365\003\000\000log"
 863      00000000 
 863      F5030000 
 863      6C6F67
 864 00b5 66696C65 		.ascii	"fileClose\000\000\000\000\000\000\000\000\000\000\000"
 864      436C6F73 
 864      65000000 
 864      00000000 
 864      00000000 
 865 00c9 00050400 		.ascii	"\000\005\004\000\000chvprintf\000\000\002\000\000\000"
 865      00636876 
 865      7072696E 
 865      74660000 
 865      02000000 
 866 00dd 00000000 		.ascii	"\000\000\000\000\000\000\014\004\000\000f_open\000\000"
 866      00000C04 
 866      0000665F 
 866      6F70656E 
 866      0000
 867 00ef 02000000 		.ascii	"\002\000\000\000\000\000\000\000\000\000\033\004\000"
 867      00000000 
 867      00001B04 
 867      00
 868 00fc 00665F6D 		.ascii	"\000f_mount\000\000\002\000\000\000\000\000\000\000"
 868      6F756E74 
 868      00000200 
 868      00000000 
ARM GAS  /tmp/ccihbNGH.s 			page 70


 868      0000
 869 010e 00004E04 		.ascii	"\000\000N\004\000\000sdmmcGetFS\000\000\002\000\000"
 869      00007364 
 869      6D6D6347 
 869      65744653 
 869      00000200 
 870 0123 00000000 		.ascii	"\000\000\000\000\000\000\000T\004\000\000f_close\000"
 870      00000054 
 870      04000066 
 870      5F636C6F 
 870      736500
 871 0136 00020000 		.ascii	"\000\002\000\000\000\000\000\000\000\000\000Y\004\000"
 871      00000000 
 871      00000059 
 871      0400
 872 0144 00       		.ascii	"\000"
 873              		.text
 874              		.section	.gnu.lto_.opts,"",%progbits
 875 0000 272D6D63 		.ascii	"'-mcpu=cortex-m3' '-mno-thumb-interwork' '-mthumb' "
 875      70753D63 
 875      6F727465 
 875      782D6D33 
 875      2720272D 
 876 0033 272D4F32 		.ascii	"'-O2' '-fomit-frame-pointer' '-falign-functions=16'"
 876      2720272D 
 876      666F6D69 
 876      742D6672 
 876      616D652D 
 877 0066 20272D66 		.ascii	" '-ffunction-sections' '-fdata-sections' '-fno-comm"
 877      66756E63 
 877      74696F6E 
 877      2D736563 
 877      74696F6E 
 878 0099 6F6E2720 		.ascii	"on' '-flto'\000"
 878      272D666C 
 878      746F2700 
 879              		.text
 880              		.section	.text.chprintf,"ax",%progbits
 881              		.align	2
 882              		.p2align 4,,15
 883              		.thumb
 884              		.thumb_func
 885              		.type	chprintf, %function
 886              	chprintf:
 887              		@ args = 4, pretend = 12, frame = 8
 888              		@ frame_needed = 0, uses_anonymous_args = 1
 889 0000 0EB4     		push	{r1, r2, r3}
 890 0002 00B5     		push	{lr}
 891 0004 82B0     		sub	sp, sp, #8
 892 0006 03AB     		add	r3, sp, #12
 893 0008 53F8041B 		ldr	r1, [r3], #4
 894 000c 1A46     		mov	r2, r3
 895 000e 0193     		str	r3, [sp, #4]
 896 0010 FFF7FEFF 		bl	chvprintf
 897 0014 02B0     		add	sp, sp, #8
 898              		@ sp needed
 899 0016 5DF804EB 		ldr	lr, [sp], #4
ARM GAS  /tmp/ccihbNGH.s 			page 71


 900 001a 03B0     		add	sp, sp, #12
 901 001c 7047     		bx	lr
 902              		.size	chprintf, .-chprintf
 903 001e 00BF     		.section	.text.dataLoggerInitialize,"ax",%progbits
 904              		.align	2
 905              		.p2align 4,,15
 906              		.global	dataLoggerInitialize
 907              		.thumb
 908              		.thumb_func
 909              		.type	dataLoggerInitialize, %function
 910              	dataLoggerInitialize:
 911              		@ args = 0, pretend = 0, frame = 0
 912              		@ frame_needed = 0, uses_anonymous_args = 0
 913 0000 70B5     		push	{r4, r5, r6, lr}
 914 0002 0446     		mov	r4, r0
 915 0004 0D46     		mov	r5, r1
 916 0006 DAB1     		cbz	r2, .L6
 917 0008 C0B1     		cbz	r0, .L3
 918 000a 1249     		ldr	r1, .L11
 919 000c 124E     		ldr	r6, .L11+4
 920 000e 0260     		str	r2, [r0]
 921 0010 1046     		mov	r0, r2
 922 0012 002D     		cmp	r5, #0
 923 0014 08BF     		it	eq
 924 0016 0D46     		moveq	r5, r1
 925 0018 3360     		str	r3, [r6]
 926 001a FFF7FEFF 		bl	sdmmcGetFS
 927 001e A560     		str	r5, [r4, #8]
 928 0020 2946     		mov	r1, r5
 929 0022 6060     		str	r0, [r4, #4]
 930 0024 0122     		movs	r2, #1
 931 0026 FFF7FEFF 		bl	f_mount
 932 002a 0546     		mov	r5, r0
 933 002c 58B9     		cbnz	r0, .L10
 934 002e 0123     		movs	r3, #1
 935 0030 3068     		ldr	r0, [r6]
 936 0032 2373     		strb	r3, [r4, #12]
 937 0034 0949     		ldr	r1, .L11+8
 938 0036 FFF7FEFF 		bl	chprintf
 939 003a 2846     		mov	r0, r5
 940              	.L3:
 941 003c 40B2     		sxtb	r0, r0
 942 003e 70BD     		pop	{r4, r5, r6, pc}
 943              	.L6:
 944 0040 1046     		mov	r0, r2
 945 0042 40B2     		sxtb	r0, r0
 946 0044 70BD     		pop	{r4, r5, r6, pc}
 947              	.L10:
 948 0046 3068     		ldr	r0, [r6]
 949 0048 2A46     		mov	r2, r5
 950 004a 0549     		ldr	r1, .L11+12
 951 004c FFF7FEFF 		bl	chprintf
 952 0050 FF20     		movs	r0, #255
 953 0052 F3E7     		b	.L3
 954              	.L12:
 955              		.align	2
 956              	.L11:
ARM GAS  /tmp/ccihbNGH.s 			page 72


 957 0054 00000000 		.word	.LC0
 958 0058 00000000 		.word	.LANCHOR0
 959 005c 34000000 		.word	.LC2
 960 0060 04000000 		.word	.LC1
 961              		.size	dataLoggerInitialize, .-dataLoggerInitialize
 962 0064 AFF30080 		.section	.text.dataLoggerStop,"ax",%progbits
 962      AFF30080 
 962      AFF30080 
 963              		.align	2
 964              		.p2align 4,,15
 965              		.global	dataLoggerStop
 966              		.thumb
 967              		.thumb_func
 968              		.type	dataLoggerStop, %function
 969              	dataLoggerStop:
 970              		@ args = 0, pretend = 0, frame = 0
 971              		@ frame_needed = 0, uses_anonymous_args = 0
 972 0000 074B     		ldr	r3, .L14
 973 0002 10B5     		push	{r4, lr}
 974 0004 0749     		ldr	r1, .L14+4
 975 0006 0446     		mov	r4, r0
 976 0008 1868     		ldr	r0, [r3]
 977 000a FFF7FEFF 		bl	chprintf
 978 000e 0020     		movs	r0, #0
 979 0010 0146     		mov	r1, r0
 980 0012 0246     		mov	r2, r0
 981 0014 FFF7FEFF 		bl	f_mount
 982 0018 0020     		movs	r0, #0
 983 001a 2073     		strb	r0, [r4, #12]
 984 001c 10BD     		pop	{r4, pc}
 985              	.L15:
 986 001e 00BF     		.align	2
 987              	.L14:
 988 0020 00000000 		.word	.LANCHOR0
 989 0024 54000000 		.word	.LC3
 990              		.size	dataLoggerStop, .-dataLoggerStop
 991 0028 AFF30080 		.section	.text.logfileNew,"ax",%progbits
 991      AFF30080 
 992              		.align	2
 993              		.p2align 4,,15
 994              		.global	logfileNew
 995              		.thumb
 996              		.thumb_func
 997              		.type	logfileNew, %function
 998              	logfileNew:
 999              		@ args = 0, pretend = 0, frame = 0
 1000              		@ frame_needed = 0, uses_anonymous_args = 0
 1001 0000 F8B5     		push	{r3, r4, r5, r6, r7, lr}
 1002 0002 0F4C     		ldr	r4, .L23
 1003 0004 0D46     		mov	r5, r1
 1004 0006 0746     		mov	r7, r0
 1005 0008 0E49     		ldr	r1, .L23+4
 1006 000a 2068     		ldr	r0, [r4]
 1007 000c 1646     		mov	r6, r2
 1008 000e FFF7FEFF 		bl	chprintf
 1009 0012 2B7B     		ldrb	r3, [r5, #12]	@ zero_extendqisi2
 1010 0014 13B9     		cbnz	r3, .L21
ARM GAS  /tmp/ccihbNGH.s 			page 73


 1011 0016 1846     		mov	r0, r3
 1012 0018 40B2     		sxtb	r0, r0
 1013 001a F8BD     		pop	{r3, r4, r5, r6, r7, pc}
 1014              	.L21:
 1015 001c FE60     		str	r6, [r7, #12]
 1016 001e 3046     		mov	r0, r6
 1017 0020 0949     		ldr	r1, .L23+8
 1018 0022 0A22     		movs	r2, #10
 1019 0024 FFF7FEFF 		bl	f_open
 1020 0028 0546     		mov	r5, r0
 1021 002a 08B9     		cbnz	r0, .L22
 1022 002c 40B2     		sxtb	r0, r0
 1023 002e F8BD     		pop	{r3, r4, r5, r6, r7, pc}
 1024              	.L22:
 1025 0030 2068     		ldr	r0, [r4]
 1026 0032 0649     		ldr	r1, .L23+12
 1027 0034 2A46     		mov	r2, r5
 1028 0036 FFF7FEFF 		bl	chprintf
 1029 003a E8B2     		uxtb	r0, r5
 1030 003c 40B2     		sxtb	r0, r0
 1031 003e F8BD     		pop	{r3, r4, r5, r6, r7, pc}
 1032              	.L24:
 1033              		.align	2
 1034              	.L23:
 1035 0040 00000000 		.word	.LANCHOR0
 1036 0044 74000000 		.word	.LC4
 1037 0048 98000000 		.word	.LC5
 1038 004c A8000000 		.word	.LC6
 1039              		.size	logfileNew, .-logfileNew
 1040              		.section	.text.logfileSize,"ax",%progbits
 1041              		.align	2
 1042              		.p2align 4,,15
 1043              		.global	logfileSize
 1044              		.thumb
 1045              		.thumb_func
 1046              		.type	logfileSize, %function
 1047              	logfileSize:
 1048              		@ args = 0, pretend = 0, frame = 0
 1049              		@ frame_needed = 0, uses_anonymous_args = 0
 1050              		@ link register save eliminated.
 1051 0000 0020     		movs	r0, #0
 1052 0002 7047     		bx	lr
 1053              		.size	logfileSize, .-logfileSize
 1054 0004 AFF30080 		.section	.text.logfileWrite,"ax",%progbits
 1054      AFF30080 
 1054      AFF30080 
 1055              		.align	2
 1056              		.p2align 4,,15
 1057              		.global	logfileWrite
 1058              		.thumb
 1059              		.thumb_func
 1060              		.type	logfileWrite, %function
 1061              	logfileWrite:
 1062              		@ args = 0, pretend = 0, frame = 8
 1063              		@ frame_needed = 0, uses_anonymous_args = 0
 1064 0000 10B5     		push	{r4, lr}
 1065 0002 82B0     		sub	sp, sp, #8
ARM GAS  /tmp/ccihbNGH.s 			page 74


 1066 0004 C068     		ldr	r0, [r0, #12]
 1067 0006 01AB     		add	r3, sp, #4
 1068 0008 1446     		mov	r4, r2
 1069 000a FFF7FEFF 		bl	fwrite
 1070 000e 10F0FF0F 		tst	r0, #255
 1071 0012 05D1     		bne	.L28
 1072 0014 0198     		ldr	r0, [sp, #4]
 1073 0016 201A     		subs	r0, r4, r0
 1074 0018 18BF     		it	ne
 1075 001a 0120     		movne	r0, #1
 1076 001c 02B0     		add	sp, sp, #8
 1077              		@ sp needed
 1078 001e 10BD     		pop	{r4, pc}
 1079              	.L28:
 1080 0020 0120     		movs	r0, #1
 1081 0022 02B0     		add	sp, sp, #8
 1082              		@ sp needed
 1083 0024 10BD     		pop	{r4, pc}
 1084              		.size	logfileWrite, .-logfileWrite
 1085 0026 00BFAFF3 		.section	.text.logfileWriteCsv,"ax",%progbits
 1085      0080AFF3 
 1085      0080
 1086              		.align	2
 1087              		.p2align 4,,15
 1088              		.global	logfileWriteCsv
 1089              		.thumb
 1090              		.thumb_func
 1091              		.type	logfileWriteCsv, %function
 1092              	logfileWriteCsv:
 1093              		@ args = 0, pretend = 0, frame = 0
 1094              		@ frame_needed = 0, uses_anonymous_args = 0
 1095              		@ link register save eliminated.
 1096 0000 0020     		movs	r0, #0
 1097 0002 7047     		bx	lr
 1098              		.size	logfileWriteCsv, .-logfileWriteCsv
 1099 0004 AFF30080 		.section	.text.logfileClose,"ax",%progbits
 1099      AFF30080 
 1099      AFF30080 
 1100              		.align	2
 1101              		.p2align 4,,15
 1102              		.global	logfileClose
 1103              		.thumb
 1104              		.thumb_func
 1105              		.type	logfileClose, %function
 1106              	logfileClose:
 1107              		@ args = 0, pretend = 0, frame = 0
 1108              		@ frame_needed = 0, uses_anonymous_args = 0
 1109 0000 08B5     		push	{r3, lr}
 1110 0002 C068     		ldr	r0, [r0, #12]
 1111 0004 FFF7FEFF 		bl	f_close
 1112 0008 0030     		adds	r0, r0, #0
 1113 000a 18BF     		it	ne
 1114 000c 0120     		movne	r0, #1
 1115 000e 08BD     		pop	{r3, pc}
 1116              		.size	logfileClose, .-logfileClose
 1117              		.section	.bss.DEBUG,"aw",%nobits
 1118              		.align	2
ARM GAS  /tmp/ccihbNGH.s 			page 75


 1119              		.set	.LANCHOR0,. + 0
 1120              		.type	DEBUG, %object
 1121              		.size	DEBUG, 4
 1122              	DEBUG:
 1123 0000 00000000 		.space	4
 1124              		.section	.rodata.str1.4,"aMS",%progbits,1
 1125              		.align	2
 1126              	.LC0:
 1127 0000 00       		.ascii	"\000"
 1128 0001 000000   		.space	3
 1129              	.LC1:
 1130 0004 44415441 		.ascii	"DATALOGGER: Error Mounting Filesystem,ERR%20d\012\000"
 1130      4C4F4747 
 1130      45523A20 
 1130      4572726F 
 1130      72204D6F 
 1131 0033 00       		.space	1
 1132              	.LC2:
 1133 0034 44415441 		.ascii	"DATALOGGER: Datalogger Started\012\000"
 1133      4C4F4747 
 1133      45523A20 
 1133      44617461 
 1133      6C6F6767 
 1134              	.LC3:
 1135 0054 44415441 		.ascii	"DATALOGGER: Datalogger Stopped\012\000"
 1135      4C4F4747 
 1135      45523A20 
 1135      44617461 
 1135      6C6F6767 
 1136              	.LC4:
 1137 0074 44415441 		.ascii	"DATALOGGER: Creating New Logfile\012\000"
 1137      4C4F4747 
 1137      45523A20 
 1137      43726561 
 1137      74696E67 
 1138 0096 0000     		.space	2
 1139              	.LC5:
 1140 0098 2F746573 		.ascii	"/testLog.txt\000"
 1140      744C6F67 
 1140      2E747874 
 1140      00
 1141 00a5 000000   		.space	3
 1142              	.LC6:
 1143 00a8 44415441 		.ascii	"DATALOGGER: Error creating Logfile, ERR%02d\012\000"
 1143      4C4F4747 
 1143      45523A20 
 1143      4572726F 
 1143      72206372 
 1144              		.comm	__gnu_lto_v1,1,1
 1145 00d5 000000   		.ident	"GCC: (GNU Tools for ARM Embedded Processors) 4.8.4 20140526 (release) [ARM/embedded-4_8-br
ARM GAS  /tmp/ccihbNGH.s 			page 76


DEFINED SYMBOLS
                            *ABS*:0000000000000000 datalogger.c
     /tmp/ccihbNGH.s:881    .text.chprintf:0000000000000000 $t
     /tmp/ccihbNGH.s:886    .text.chprintf:0000000000000000 chprintf
     /tmp/ccihbNGH.s:904    .text.dataLoggerInitialize:0000000000000000 $t
     /tmp/ccihbNGH.s:910    .text.dataLoggerInitialize:0000000000000000 dataLoggerInitialize
     /tmp/ccihbNGH.s:957    .text.dataLoggerInitialize:0000000000000054 $d
     /tmp/ccihbNGH.s:963    .text.dataLoggerStop:0000000000000000 $t
     /tmp/ccihbNGH.s:969    .text.dataLoggerStop:0000000000000000 dataLoggerStop
     /tmp/ccihbNGH.s:988    .text.dataLoggerStop:0000000000000020 $d
     /tmp/ccihbNGH.s:992    .text.logfileNew:0000000000000000 $t
     /tmp/ccihbNGH.s:998    .text.logfileNew:0000000000000000 logfileNew
     /tmp/ccihbNGH.s:1035   .text.logfileNew:0000000000000040 $d
     /tmp/ccihbNGH.s:1041   .text.logfileSize:0000000000000000 $t
     /tmp/ccihbNGH.s:1047   .text.logfileSize:0000000000000000 logfileSize
     /tmp/ccihbNGH.s:1055   .text.logfileWrite:0000000000000000 $t
     /tmp/ccihbNGH.s:1061   .text.logfileWrite:0000000000000000 logfileWrite
     /tmp/ccihbNGH.s:1086   .text.logfileWriteCsv:0000000000000000 $t
     /tmp/ccihbNGH.s:1092   .text.logfileWriteCsv:0000000000000000 logfileWriteCsv
     /tmp/ccihbNGH.s:1100   .text.logfileClose:0000000000000000 $t
     /tmp/ccihbNGH.s:1106   .text.logfileClose:0000000000000000 logfileClose
     /tmp/ccihbNGH.s:1118   .bss.DEBUG:0000000000000000 $d
     /tmp/ccihbNGH.s:1122   .bss.DEBUG:0000000000000000 DEBUG
     /tmp/ccihbNGH.s:1125   .rodata.str1.4:0000000000000000 $d
                            *COM*:0000000000000001 __gnu_lto_v1
     /tmp/ccihbNGH.s:962    .text.dataLoggerInitialize:0000000000000064 $t
     /tmp/ccihbNGH.s:991    .text.dataLoggerStop:0000000000000028 $t

UNDEFINED SYMBOLS
chvprintf
sdmmcGetFS
f_mount
f_open
fwrite
f_close
