ARM GAS  /tmp/ccikvM4W.s 			page 1


   1              		.syntax unified
   2              		.cpu cortex-m4
   3              		.eabi_attribute 27, 3
   4              		.eabi_attribute 28, 1
   5              		.fpu fpv4-sp-d16
   6              		.eabi_attribute 20, 1
   7              		.eabi_attribute 21, 1
   8              		.eabi_attribute 23, 3
   9              		.eabi_attribute 24, 1
  10              		.eabi_attribute 25, 1
  11              		.eabi_attribute 26, 1
  12              		.eabi_attribute 30, 2
  13              		.eabi_attribute 34, 1
  14              		.eabi_attribute 18, 4
  15              		.thumb
  16              		.file	"datalogger.c"
  17              		.section	.gnu.lto_.jmpfuncs.8efacb7ade7f2632,"",%progbits
  18 0000 789C7D50 		.ascii	"x\234}P\273N\3030\024\275\327N\2336\005\005\361\001"
  18      BB4EC330 
  18      14BDD74E 
  18      9B360505 
  18      F101
  19 0012 9185C456 		.ascii	"\221\205\304V\324\252#\023\025\015]\312C\205\2015\002"
  19      D4AA2313 
  19      150D5DCA 
  19      43858135 
  19      02
  20 0023 134594A6 		.ascii	"\023E\224\246rC\020b\311gta\340[\370+&\256\035\007Y"
  20      72431062 
  20      C9677461 
  20      E05BF82B 
  20      26AE1D07 
  21 0038 059121E7 		.ascii	"\005\221!\347\306\347qO\314\200\301_\317#\002|\022\356"
  21      C6E7714F 
  21      CC80C15F 
  21      CF23027C 
  21      12EE
  22 004a 02A78973 		.ascii	"\002\247\211s\032KB\000,5M&v\213\031\352\031}n\317\011"
  22      1A4B4200 
  22      2C354D26 
  22      768B19EA 
  22      197D6ECF 
  23 005f 5869190C 		.ascii	"Xi\031\014\352\3577\370\2526\325^\206,\002|\2576'\031"
  23      EAEF37F8 
  23      AA36D55E 
  23      862C027C 
  23      AF362719 
  24 0073 72BB8323 		.ascii	"r\273\203#\371\275\220\271*/\202A\255j\325\032\227l"
  24      F9BD90B9 
  24      2A2F8241 
  24      AD6AD51A 
  24      976C
  25 0085 47705593 		.ascii	"GpU\223~\023a\312\230}\224\205\266@\013\2719\3534d\367"
  25      7E1361CA 
  25      987D9485 
  25      B6400BB9 
  25      39EB3464 
ARM GAS  /tmp/ccikvM4W.s 			page 2


  26 009a 4765BBBB 		.ascii	"Ge\273\273\373*t\027\266C\347gY\015\274\334r\005\021"
  26      FB2A7417 
  26      B643E767 
  26      590DBCDC 
  26      720511
  27 00ad 7C5857CF 		.ascii	"|XW\317\270|\350@\027\003\235\337\323/\266Un\037`'D"
  27      B87CE840 
  27      17039DDF 
  27      D32FB655 
  27      6E1F6027 
  28 00c2 1BEC3917 		.ascii	"\033\3549\027IH\227lz\035M\3067\343\331\345t\032\317"
  28      4948976C 
  28      7A1D4DC6 
  28      37E3D9E5 
  28      741ACF
  29 00d5 8F45AC54 		.ascii	"\217E\254T\256\304\235\222I\221-S1\313\323\207l!\373"
  29      AEC49D92 
  29      49912D53 
  29      31CBD387 
  29      6C21FB
  30 00e8 229ECF0F 		.ascii	"\"\236\317\017\207\243\373\000\204\253\236$E\262\310"
  30      87A3FB00 
  30      84AB9E24 
  30      45B2C8
  31 00f7 D3542A71 		.ascii	"\323T*q]$\252\220$\030\374\216;\317\237\227&\356\214"
  31      5D24AA90 
  31      2418FC8E 
  31      3BCF9F97 
  31      26EE8C
  32 010a B2D6AFEB 		.ascii	"\262\326\257\353B>\365u\340h\370o`\276Z\351\300\003"
  32      423EF575 
  32      E068F86F 
  32      60BE5AE9 
  32      C003
  33 011c 5770DA34 		.ascii	"Wp\3324\273\220/M\273\000\276\0014\023h\312"
  33      BB902F4D 
  33      BB00BE01 
  33      341368CA 
  34              		.text
  35              		.section	.gnu.lto_.inline.8efacb7ade7f2632,"",%progbits
  36 0000 789C7552 		.ascii	"x\234uR=O\3030\020}g_\022\247M\032\350R@\255\032D\021"
  36      3D4FC330 
  36      107D675F 
  36      12A74D1A 
  36      E85240AD 
  37 0017 2C8C74E2 		.ascii	",\214t\342\037 uf\354\326\362/\242\012\241\216\375\001"
  37      1F207566 
  37      ECD6F22F 
  37      A20AA18E 
  37      FD01
  38 0029 48F44720 		.ascii	"H\364G \201\020kw\306\212\221\211\037\300\200\020\003"
  38      81106B77 
  38      C68A9189 
  38      1FC08010 
  38      03
  39 003a 673B89F8 		.ascii	"g;\211\370L\224\363\363\371\331~\367.\012\012\177=\367"
  39      4C94F3F3 
ARM GAS  /tmp/ccikvM4W.s 			page 3


  39      F9D97EF7 
  39      2E0A0A7F 
  39      3DF7
  40 004c 653A0537 		.ascii	"e:\0057\273p\244p\331\257\271\204\240\005\350\305\310"
  40      BB70A470 
  40      D9AFB984 
  40      A005E8C5 
  40      C8
  41 005d BE3A7104 		.ascii	"\276:q\004B{\207\240\342\347\023\304\353\241\243\326"
  41      427B87A0 
  41      E2E713C4 
  41      EBA1A3D6 
  42 006d 2470EA10 		.ascii	"$p\352\020\204\315\361&\221\260\241\307\314\313\276"
  42      84CDF126 
  42      91B0A1C7 
  42      CCCBBE
  43 007c 3F975E22 		.ascii	"?\227^\"\366\321\356\263'\322b\304\330=\242XM\316\350"
  43      F6D1EEB3 
  43      27D262C4 
  43      D83DA258 
  43      4DCEE8
  44 008f 9C240335 		.ascii	"\234$\0035\255\020\\.\265hZ!r\271\226E\323\012)\362"
  44      AD105C2E 
  44      B5685A21 
  44      72B99645 
  44      D30A29F2 
  45 00a3 6AE5B321 		.ascii	"j\345\263!\252\312\220{\013\211\363n\301\006\255\233"
  45      AACA907B 
  45      0B89F36E 
  45      C106AD9B 
  46 00b3 D3DC80AF 		.ascii	"\323\334\200\257\266\013c\307\217\255\334\250R\205\314"
  46      B60B63C7 
  46      8FADDCA8 
  46      5285CC
  47 00c2 95572FC8 		.ascii	"\225W/\310\353\227\232<\226\231g\210\322\000IOj\327"
  47      EB979A3C 
  47      96996788 
  47      D200494F 
  47      6AD7
  48 00d4 771D44F3 		.ascii	"w\035D\363\003\267\333U\\\326b\317\010\221u\204\022"
  48      03B7DB55 
  48      5CD662CF 
  48      08917584 
  48      12
  49 00e5 AD8735E5 		.ascii	"\255\2075\345\247\207\302\212\240E\363W\273\315\257"
  49      A787C28A 
  49      A045F357 
  49      BBCDAF
  50 00f4 4C0CD6A5 		.ascii	"L\014\326\245\203\005q\265\360\335\301\006\032\355\332"
  50      830571B5 
  50      F0DDC106 
  50      1AEDDA
  51 0103 E5603640 		.ascii	"\345`6@4\033\374\343r\023\235.)Ou1\017\223\247c\230"
  51      341BFCE3 
  51      72139D2E 
  51      294F7531 
  51      0F93A763 
ARM GAS  /tmp/ccikvM4W.s 			page 4


  52 0118 87BD6F1B 		.ascii	"\207\275o\033$\030\007\215\335\253\232\276C\251\223"
  52      2418078D 
  52      DDAB9ABE 
  52      43A993
  53 0127 ED5C293D 		.ascii	"\355\\)=I\270\337\243@\273\026d\366\226I\215\252f\350"
  53      49B8DFA3 
  53      40BB1664 
  53      F696498D 
  53      AA66E8
  54 013a B1EB4B98 		.ascii	"\261\353K\230]\313\257r{\250`.\3667@\257:\267\227\331"
  54      5DCBAF72 
  54      7BA8602E 
  54      F63740AF 
  54      3AB797D9 
  55 014e 01FC9855 		.ascii	"\001\374\230U\032\331^\024\312\001\354\255\252s)\322"
  55      1AD95E14 
  55      CA01ECAD 
  55      AA7329D2 
  56 015e 95D4A85A 		.ascii	"\225\324\250Z\357o\006\346rE\312+#\273\210OY#T\205"
  56      EF6F06E6 
  56      7245CA2B 
  56      23BB884F 
  56      59235485 
  57              		.text
  58              		.section	.gnu.lto_.pureconst.8efacb7ade7f2632,"",%progbits
  59 0000 789C6362 		.ascii	"x\234cb`b\220f\200\000^\006\011F)fI\026)V)6Iv\006\016"
  59      60629066 
  59      80005E06 
  59      09462966 
  59      49162956 
  60 001a 064E562E 		.ascii	"\006NV.)nI\036)^K\000\026\354\001\251"
  60      296E491E 
  60      295E4B00 
  60      16EC01A9 
  61              		.text
  62              		.section	.gnu.lto_chprintf.8efacb7ade7f2632,"",%progbits
  63 0000 789C8550 		.ascii	"x\234\205P\315J\002Q\024>\337\0355uc\333v\342\0034\213"
  63      CD4A0251 
  63      143EDF1D 
  63      357563DB 
  63      76E20334 
  64 0015 22E80D7A 		.ascii	"\"\350\015z\000\203Z\3058\216z\011\035\321Q\260\026"
  64      00835AC5 
  64      388E7A09 
  64      1DD151B0 
  64      16
  65 0026 5EC1C245 		.ascii	"^\301\302E\013ig\021)\321:\244\027\030\202\332DI\273"
  65      0B696711 
  65      29D13AA4 
  65      171882DA 
  65      4449BB
  66 0039 162D2497 		.ascii	"\026-$\227\265h\321*\202\351\336\031\024\372\201\016"
  66      B568D12A 
  66      82E9DE19 
  66      14FA810E 
  67 0049 DC7B7EBE 		.ascii	"\334{~\276s\276\363\303\210\321OY\220o\010\2425\251"
  67      73BEF3C3 
ARM GAS  /tmp/ccikvM4W.s 			page 5


  67      88D14F59 
  67      906F08A2 
  67      35A9
  68 005b A11158F7 		.ascii	"\241\021X\367\236\250\025e\2002\010\324dhnB\245\262"
  68      9EA81565 
  68      803208D4 
  68      64686E42 
  68      A5B2
  69 006d 140D84DB 		.ascii	"\024\015\204\333\035_O\036\321\023n\273/>=\017\340\220"
  69      1D5F4F1E 
  69      D1136EBB 
  69      2F3E3D0F 
  69      E090
  70 007f B42B2013 		.ascii	"\264+ \023\264!\035$}\305B\337\373\250Z\321uOon!\016"
  70      B4211D24 
  70      7DC542DF 
  70      FBA85AD1 
  70      754F6F6E 
  71 0095 45EBCDF3 		.ascii	"E\353\315\363\022\034\032\243\325\377\012/\230\373\354"
  71      121C1AA3 
  71      D5FF0A2F 
  71      98FBEC
  72 00a4 794FC3F7 		.ascii	"yO\303\367\203W\364XLC\021\024\222\037\"d\340\014)\225"
  72      8357F458 
  72      4C431114 
  72      921F2264 
  72      E00C2995 
  73 00b8 13A6B624 		.ascii	"\023\246\266$O\032\030H\177\0325\375\241\323\362W\233"
  73      4F1A1848 
  73      7F1A35FD 
  73      A1D3F257 
  73      9B
  74 00c9 AC8329AD 		.ascii	"\254\203)\255\215ho\3343\015\234#,\321]\372\020\035"
  74      8D686FDC 
  74      330D9C23 
  74      2CD15DFA 
  74      101D
  75 00db 31CF1132 		.ascii	"1\317\0212\341\247\313\310\016Gx\312\344g\251\2514\""
  75      E1A7CBC8 
  75      0E4778CA 
  75      E467A9A9 
  75      3422
  76 00ed 2E3BD288 		.ascii	".;\322\210\366\307G\223x\200\344\021\231\021\314\231"
  76      F6C74793 
  76      7880E411 
  76      9911CC99 
  77 00fd 088E9B87 		.ascii	"\010\216\233\207\226G( \340\210\252\222\366\370\370"
  77      96472820 
  77      E088AA92 
  77      F6F8F8
  78 010c 77C798A9 		.ascii	"w\307\230\251H\377\356\310\021'\272\243\253\027\026"
  78      48FFEEC8 
  78      1127BAA3 
  78      AB1716
  79 011b 04027099 		.ascii	"\004\002p\231.EG\235[\312\003\265\372'\332l\214\340"
  79      2E45479D 
  79      5BCA03B5 
ARM GAS  /tmp/ccikvM4W.s 			page 6


  79      FA27DA6C 
  79      8CE0
  80 012d 5469B983 		.ascii	"Ti\271\203\334Q\315\261\244\027\354\242\245\233v\266"
  80      DC51CDB1 
  80      A417ECA2 
  80      A59B76B6 
  81 013d A167ADBA 		.ascii	"\241g\255\272n\026x\206\333U\335\251\324J\333\2724\352"
  81      6E167886 
  81      DB55DDA9 
  81      D44ADBBA 
  81      34EA
  82 014f 4685DBB5 		.ascii	"F\205\333\265\252\004\312\025^rr\213\005bF9\221\263"
  82      AA04CA15 
  82      5E72728B 
  82      05624639 
  82      91B3
  83 0161 2B45C371 		.ascii	"+E\303q\254\354V\246\341X\325/\251H\201#"
  83      ACEC56A6 
  83      E158D52F 
  83      A9488123 
  84              		.text
  85              		.section	.gnu.lto_logfileNew.part.0.8efacb7ade7f2632,"",%progbits
  86 0000 789C8592 		.ascii	"x\234\205\222Mh\324P\020\307g\336K\2621\266\356Z\025"
  86      4D68D450 
  86      10C767DE 
  86      4BB231B6 
  86      EE5A15
  87 0013 11710915 		.ascii	"\021q\011\025O\332\252{\354E+]\366R\260,\273\240\307"
  87      4FDAAA7B 
  87      EC452B5D 
  87      F652B02C 
  87      BBA0C7
  88 0026 98AE21D0 		.ascii	"\230\256!\320\272\020{\363\320\267u-\036zX<\255V\305"
  88      BA107BF3 
  88      D0B7752D 
  88      1E7A583C 
  88      AD56C5
  89 0039 2252F022 		.ascii	"\"R\360\"=Y\212\207z\253\210_\027Q\020\273(\336D\274"
  89      3D598A87 
  89      7AAB885F 
  89      175110BB 
  89      28DE44BC 
  90 004d 0852A871 		.ascii	"\010R\250q&\311nk\265\370 3\223\311\374\346?y\357\011"
  90      26C96E6B 
  90      B5F82033 
  90      93C9FCE6 
  90      3F79EF09 
  91 0061 10B0750D 		.ascii	"\020\260u\015\320\323#\001F\310\243\001\2507^R\240\243"
  91      D0D32301 
  91      46C8A301 
  91      A8375E52 
  91      A0A3
  92 0073 88BC1072 		.ascii	"\210\274\020r)\013\312\322\336\036\007\325%Q\343l\315"
  92      290BCAD2 
  92      DE1E07D5 
  92      2551E36C 
  92      CD
ARM GAS  /tmp/ccikvM4W.s 			page 7


  93 0084 D4103900 		.ascii	"\324\0209\000\204I]H\015'\317#\367\222\2750\247\324"
  93      84495D48 
  93      0D27CF23 
  93      F792BD30 
  93      A7D4
  94 0096 8DD6B5D9 		.ascii	"\215\326\265\331\231\003\352\336TC\375\012C\364\221"
  94      9903EADE 
  94      5443FD0A 
  94      43F491
  95 00a5 5433082E 		.ascii	"T3\010.\3029zA;rB\373s\214\230\\^\375\261\210jZ\325"
  95      C2397A41 
  95      3B7242FB 
  95      738C985C 
  95      5EFDB188 
  96 00bc BE8761DA 		.ascii	"\276\207a\332G)`\377\006h\306 \376\023\374\360edE\325"
  96      472960FF 
  96      0668C620 
  96      FE13FCF0 
  96      656445D5 
  97 00d0 97C3F094 		.ascii	"\227\303\360\224\217\232\200\203\377\323{$T+\014o~6"
  97      8F9A8083 
  97      FFD37B24 
  97      542B0C6F 
  97      7E36
  98 00e2 3388E334 		.ascii	"3\210\3434!\031\224d\250\316\301\373\330\013:\371\007"
  98      21199464 
  98      A8CEC1FB 
  98      D80B3AF9 
  98      07
  99 00f3 E40DF051 		.ascii	"\344\015\360QO\2211L6\204\352PW\252a\307e\016\316\221"
  99      4F91314C 
  99      3684EA50 
  99      57AA61C7 
  99      650ECE91 
 100 0107 0556A355 		.ascii	"\005V\243U\"\313\033SB\235\275,\243\210\374\013\230"
 100      22CB1B53 
 100      429DBD2C 
 100      A388FC0B 
 100      98
 101 0118 7AFEEE63 		.ascii	"z\376\356c\332\301y\372p\024\036*Z'}L\315\302\255\232"
 101      DAC179FA 
 101      70141E2A 
 101      5A277D4C 
 101      CDC2AD9A 
 102 012c 52191F4D 		.ascii	"R\031\037M\017\005\217\271#\032\356B\362\217\036R@\354"
 102      0F058FB9 
 102      231AEE42 
 102      F28F1E52 
 102      40EC
 103 013e E2CFBBFB 		.ascii	"\342\317\273\373\266\262\326\266l\014s\306\342\200\265"
 103      B6B2D6B6 
 103      6C0C73C6 
 103      E280B5
 104 014d 9BAB7F69 		.ascii	"\233\253\177i\357\334\226\027\2116]\212W0\335Z\317\305"
 104      EFDC9617 
 104      89365D8A 
 104      5730DD5A 
ARM GAS  /tmp/ccikvM4W.s 			page 8


 104      CFC5
 105 015f A887DA15 		.ascii	"\250\207\332\025XS\327\031\351r\023\025\232\220\012"
 105      5853D719 
 105      E9721315 
 105      9A900A
 106 016e 99EEB668 		.ascii	"\231\356\266h{v\001\254@\375\353\323\365C\035\206\277"
 106      7B7601AC 
 106      40FDEBD3 
 106      F5431D86 
 106      BF
 107 017f C9CD3B5F 		.ascii	"\311\315;_\246\327\245,o\311\263\346\247\327\330.\324"
 107      A6D7A52C 
 107      6FC9B3E6 
 107      A7D7D82E 
 107      D4
 108 0190 3BF36CC8 		.ascii	";\363l\310\244\307#\224[\244\023\232\260o\262\315\030"
 108      A4C72394 
 108      5BA4139A 
 108      B06FB2CD 
 108      18
 109 01a1 D49F8734 		.ascii	"\324\237\2074\342\004@\207\314\270\235\337\3209\331"
 109      E2044087 
 109      CCB89DDF 
 109      D039D9
 110 01b0 54EA3175 		.ascii	"T\3521u\331\235\205\303wT\363\264\217=\2200\324\305"
 110      D99D85C3 
 110      7754F3B4 
 110      8F3D9030 
 110      D4C5
 111 01c2 C73D71E3 		.ascii	"\307=q\343\253\3633\242\335;\025\365\216\007\326\242"
 111      ABF333A2 
 111      DD3B15F5 
 111      8E07D6A2 
 112 01d2 437C4317 		.ascii	"C|C\027\237\353MN\276\007\223\307\242\373 \236,\354"
 112      9FEB4D4E 
 112      BE0793C7 
 112      A2FB209E 
 112      2CEC
 113 01e4 A572797B 		.ascii	"\245ry{\301\344\203G\256e\355\356Qg\302\031\253z^%\350"
 113      C1E48347 
 113      AE65EDEE 
 113      5167C219 
 113      AB7A5E25 
 114 01f9 77C18823 		.ascii	"w\301\210#\031T.\247\206\362g\312\205\376\\\337\320"
 114      19542EA7 
 114      86F267CA 
 114      85FE5CDF 
 114      D0
 115 020a 606970F8 		.ascii	"`ip\370l\241\220/\016\330\371 \250\006\266\033T\234"
 115      6CA1902F 
 115      0ED8F920 
 115      A806B61B 
 115      549C
 116 021c 09FF9267 		.ascii	"\011\377\222g\017W\275\213\376X\345\230\235/\026\217"
 116      0F57BD8B 
 116      FE58E598 
 116      9D2F168F 
ARM GAS  /tmp/ccikvM4W.s 			page 9


 117 022c 9CC88D5A 		.ascii	"\234\310\215Z\360\033\360j\3143"
 117      F01BF06A 
 117      CC33
 118              		.text
 119              		.section	.gnu.lto_logfileWrite.part.1.8efacb7ade7f2632,"",%progbits
 120 0000 789C8D52 		.ascii	"x\234\215R\275k\024Q\020\237\337{\273\233\333\030\341"
 120      BD6B1451 
 120      109FDF7B 
 120      BB9BDB18 
 120      E1
 121 0011 0A218985 		.ascii	"\012!\211\205\304\200\215b\202he\353\277\220\200\226"
 121      C4808D62 
 121      826865EB 
 121      BF908096 
 122 0021 9B735D17 		.ascii	"\233s]\027\316;\271\234XXd.\036\032D\302\221&\220X$"
 122      CE3BB99C 
 122      5858642E 
 122      1E1A44C2 
 122      91269058 
 123 0036 88888528 		.ascii	"\210\210\205(\246\012X\254\212\301\302\017\204\024F"
 123      A60A58AC 
 123      8AC1C20F 
 123      841446
 124 0045 9BAB3558 		.ascii	"\233\2535Xh\343\027\2363\273w\027\243\202y\2603\357"
 124      68E3179E 
 124      33BB7717 
 124      A38279B0 
 124      33EF
 125 0057 E3F731F3 		.ascii	"\343\3671\363\366\0312\364\3478.\337\023\223ex\004\267"
 125      F61932F4 
 125      E7382EDF 
 125      13936578 
 125      04B7
 126 0069 F152262E 		.ascii	"\361R&.L\232\215\261\353\243\304\275\316\303}\304}\026"
 126      4C9A8DB1 
 126      EBA3C4BD 
 126      CEC37DC4 
 126      7D16
 127 007b 8EEED672 		.ascii	"\216\356\326r\016\240\023\002M\271\306:\230:\005\325"
 127      0EA01302 
 127      4DB9C63A 
 127      983A05D5 
 128 008b F2866999 		.ascii	"\362\206i\231y\256\371\364}\202yNjK\374\243\325\002"
 128      79AEF9F4 
 128      7D82794E 
 128      6A4BFCA3 
 128      D502
 129 009d 62886F1E 		.ascii	"b\210o\036T\000\235\224\005ri2\330^H\306\345\373\314"
 129      54009D94 
 129      05726932 
 129      D85E48C6 
 129      E5FBCC
 130 00b0 6ECAB331 		.ascii	"n\312\2631\254\241\275[\264|F3\377\244=`\366;4\307\320"
 130      ACA1BD5B 
 130      B47C4633 
 130      FFA43D60 
 130      F63B34C7 
ARM GAS  /tmp/ccikvM4W.s 			page 10


 131 00c5 FE2DDA50 		.ascii	"\376-\332PFs\376\246%\215\344\335\332\365A^\232n\360"
 131      4673FEA6 
 131      258DE4DD 
 131      DAF5415E 
 131      9A6EF0
 132 00d8 4F293486 		.ascii	"O)4\206k\350\300N\230<\227l\254\315\366s\223;L\317\320"
 132      6BE8C04E 
 132      983C976C 
 132      ACCDF673 
 132      933B4CCF 
 133 00ed E11D75D8 		.ascii	"\341\035u\330H\276_\2711xm\233\347\221\377y\3363\334"
 133      48BE5FB9 
 133      31786D9B 
 133      E791FF79 
 133      DE33DC
 134 0100 6CB5BE7E 		.ascii	"l\265\276~\316\371\3009\275\315\030=\226\002\334\301"
 134      CEF9C039 
 134      BDCD183D 
 134      9602DCC1 
 135 0110 3039B2C8 		.ascii	"09\262\310\271\032\004\350R],\206\262\223\000\267\323"
 135      B91A04E8 
 135      525D2C86 
 135      B29300B7 
 135      D3
 136 0121 B89CC69B 		.ascii	"\270\234\306\233i\274%\221\324M\306\230D\375\215cp5"
 136      69BC2591 
 136      D44DC698 
 136      44FD8D63 
 136      7035
 137 0133 DB719834 		.ascii	"\333q\2304\277\240\351\267o>}A\200\273r\022\301\034"
 137      BFA0E9B7 
 137      6F3E7D41 
 137      80BB7212 
 137      C11C
 138 0145 A28362B8 		.ascii	"\242\203b\270H\0135\346|\014?\002\264\312\336\264\266"
 138      480B35E6 
 138      7C0C3F02 
 138      B4CADEB4 
 138      B6
 139 0156 896E97AF 		.ascii	"\211n\227\257\250\236x\035\222\275D\337xF\341\273\012"
 139      A89E781D 
 139      92BD44DF 
 139      7846E1BB 
 139      0A
 140 0167 C820A214 		.ascii	"\310 \242\024\243\217\350\031\3257\037\315_5]\250\212"
 140      A38FE819 
 140      D5371FCD 
 140      5F355DA8 
 140      8A
 141 0178 79BFF73B 		.ascii	"y\277\367;\016K\353\243Z\310\307\313+\263]MG\260\035"
 141      0E4BEBA3 
 141      5AC8C7CB 
 141      2BB35D4D 
 141      47B01D
 142 018b 80D32EF5 		.ascii	"\200\323.\365\361\207\266N\326\3551Z\341\031\275U\001"
 142      F187B64E 
 142      D6ED315A 
ARM GAS  /tmp/ccikvM4W.s 			page 11


 142      E119BD55 
 142      01
 143 019c BD9697AA 		.ascii	"\275\226\227\252\256:\247\015r\325F6\314\346\352\036"
 143      AE3AA70D 
 143      72D54636 
 143      CCE6EA1E 
 144 01ac D1B2CF57 		.ascii	"\321\262\317W\007\264w\250\220>\252\335\247\203jP,G"
 144      07B477A8 
 144      903EAADD 
 144      A7836A50 
 144      2C47
 145 01be 51581929 		.ascii	"QX\031)\220_>\037\226N\024\313\223\241W\014KQ\365\254"
 145      905F3E1F 
 145      964E14CB 
 145      93A1570C 
 145      4B51F5AC 
 146 01d2 9DB870A6 		.ascii	"\235\270p\246\347b%\256V\303\222\255\204\223~{>r\364"
 146      E76225AE 
 146      56C392AD 
 146      84937E7B 
 146      3E72F4
 147 01e5 1713DFB8 		.ascii	"\027\023\337\270\345"
 147      E5
 148              		.text
 149              		.section	.gnu.lto_dataLoggerInitialize.8efacb7ade7f2632,"",%progbits
 150 0000 789C8D54 		.ascii	"x\234\215TMhSA\020\236\331\367^^^\232\266i\355/\324"
 150      4D685341 
 150      109ED9F7 
 150      5E5E5E9A 
 150      B669ED2F 
 151 0015 100A3D29 		.ascii	"\020\012=)\265\364\"\210\240\225\306^\374\201\332\240"
 151      B5F42288 
 151      A095C65E 
 151      FC81DAA0 
 152 0025 1E631AC2 		.ascii	"\036c\032\302\203\246\2254\"\342\241\233R\212\370\203"
 152      83A69534 
 152      22E2A19B 
 152      528AF883 
 153 0035 A1A75211 		.ascii	"\241\247R\021-R\250R\320\203`P\204VEZ\213\255?\247\242"
 153      2D52A852 
 153      D0836050 
 153      8456455A 
 153      8BAD3FA7 
 154 004a 420E8217 		.ascii	"B\016\202\027\021\017\242\342\3018\363~\322$\024\351"
 154      110FA2E2 
 154      C138F37E 
 154      D22414E9 
 155 005a 42767766 		.ascii	"Bvwf\347\233\357\233\331}\021 \240r\234\247\337-\025"
 155      E79BEF9B 
 155      D97D1120 
 155      A0729CA7 
 155      DF2D15
 156 006d 609856F4 		.ascii	"`\230V\364\001\212\354\032@\306+\204\361S\007\351Sf"
 156      018AEC1A 
 156      40C62B84 
 156      F15307E9 
 156      5366
ARM GAS  /tmp/ccikvM4W.s 			page 12


 157 007f 5E0248BF 		.ascii	"^\002H\277\342\230\252m\252B\373XE\246\347\341365\364"
 157      E298AA6D 
 157      AA42FB58 
 157      45A6E7E1 
 157      333635F4 
 158 0093 D8288FD0 		.ascii	"\330(\217\320\263\012\371\275r\225\375:\032\266\337"
 158      B30AF9BD 
 158      7295FD3A 
 158      1AB6DF
 159 00a2 EB6E0C44 		.ascii	"\353n\014D\336\000\302\230PT\315\243\223g\3544\262\020"
 159      DE00C298 
 159      5054CDA3 
 159      9367EC34 
 159      B210
 160 00b4 D10EB352 		.ascii	"\321\016\263RN\345\347\256_k\275|{<+\377\026\012h\""
 160      4EE5E7AE 
 160      5F6BBD7C 
 160      7B3C2BFF 
 160      160A6822 
 161 00c8 490E20C4 		.ascii	"I\016 \304\020N\221\201!k\021jy\0156r\361\323\217\034"
 161      104E9181 
 161      216B116A 
 161      790D3672 
 161      F1D38F1C 
 162 00dc CA4999F9 		.ascii	"\312I\231\371^(\324\232\250\010h\331\004zm \226\003"
 162      5E28D49A 
 162      A80868D9 
 162      047A6D20 
 162      9603
 163 00ee EF8BC57C 		.ascii	"\357\213\305|\241pu\356MG3B\222\271LTUL\"j4\011\235"
 163      A17075EE 
 163      4D473342 
 163      92B94C54 
 163      554C226A 
 164 0105 26C5A009 		.ascii	"&\305\240\011\374t\240\005 \212w\260\035\352h\235\245"
 164      FC74A005 
 164      208A77B0 
 164      1DEA689D 
 164      A5
 165 0116 B59E9C9E 		.ascii	"\265\236\234\236F\307\240\241\301\204\224\331\220\035"
 165      46C7A0A1 
 165      C18494D9 
 165      901D
 166 0124 044C4D63 		.ascii	"\004LMc\200f.9\202\202We\031^|Yz\337\026\3059\324 \201"
 166      80662E39 
 166      82825765 
 166      195E7C59 
 166      7ADF16C5 
 167 013c 2ACBD24B 		.ascii	"*\313\322K5EP\001\352\262\025\2309\351\306i\034\347"
 167      35455001 
 167      EAB21598 
 167      39E9C669 
 167      1CE7
 168 014e 2D8F53E1 		.ascii	"-\217S\341\312\001\3455\214\257\376~Um\307\335\200\231"
 168      CA01E535 
 168      8CAFFE7E 
 168      556DC7DD 
ARM GAS  /tmp/ccikvM4W.s 			page 13


 168      8099
 169 0160 8C9401EA 		.ascii	"\214\224\001\352\332E\370#/\361\316H\"w\213\341\206"
 169      DA45F823 
 169      2FF1CE48 
 169      22778BE1 
 169      86
 170 0171 854B309D 		.ascii	"\205K0\235\245b\243\250\302\340c_i\366\001\362?1\224"
 170      A562A3A8 
 170      C2E0635F 
 170      69F601F2 
 170      3F3194
 171 0184 087A8A24 		.ascii	"\010z\212$\253\015v\370.\270'i\354%\335\304G\300\252"
 171      AB0D76F8 
 171      2EB82769 
 171      EC25DDC4 
 171      47C0AA
 172 0197 3279679C 		.ascii	"2yg\234\036'\230w\035&\362\271)ty\374EY\376\030\242"
 172      1E279877 
 172      1D26F2B9 
 172      297479FC 
 172      4559FE18 
 173 01ac 1B666235 		.ascii	"\033fb5\000Q\254<\250\252d\320\266fp\241~\013\267\232"
 173      0051AC3C 
 173      A8AA64D0 
 173      B66670A1 
 173      7E0BB79A 
 174 01c0 5B6BAA04 		.ascii	"[k\252\004\372\266\006\012\007\210,m2\377\270\333U\026"
 174      FAB6060A 
 174      07882C6D 
 174      32FFB8DB 
 174      5516
 175 01d2 282AAB89 		.ascii	"(*\253\211\025\243\374\024\310\350Z\244\233\016p\327"
 175      15A3FC14 
 175      C8E85AA4 
 175      9B0E70D7 
 176 01e2 26BE2EFD 		.ascii	"&\276.\375*v-\300g\312f\3176\000\251\225*r\252i\271"
 176      2A762DC0 
 176      67CA66CF 
 176      3600A995 
 176      2A72AA69 
 177 01f7 F8E1AC89 		.ascii	"\370\341\254\211uAh\273)\247\017\232Xo\275\220y\205"
 177      754168BB 
 177      29A70F9A 
 177      586FBD90 
 177      7985
 178 0209 2F4E87E7 		.ascii	"/N\207\347\202{\2722_\353\346\252\333\316\325Y\325~"
 178      827BBA32 
 178      5FEBE6AA 
 178      DBCED559 
 178      D57E
 179 021b 535C4C7D 		.ascii	"S\\L}\202E\255\203\307v\300&rG\314\321E\211m5\362\021"
 179      8245AD83 
 179      C776C026 
 179      7247CCD1 
 179      45896D35 
 180 0231 65690842 		.ascii	"ei\010B\320V\303\257\326\302P\026\023\233\334\027\345"
 180      D056C3AF 
ARM GAS  /tmp/ccikvM4W.s 			page 14


 180      D6C25016 
 180      139BDC17 
 180      E5
 181 0242 85E5FD2C 		.ascii	"\205\345\375,,7=\265\263\262\243\315[w\324\346aO3\332"
 181      2C373DB5 
 181      B3B2A3CD 
 181      5B77D4E6 
 181      614F33DA 
 182 0256 025772EF 		.ascii	"\002Wr\357j\\\211\215\333+k\035\264\377\325\320\350"
 182      6A5C898D 
 182      DB2B6B1D 
 182      B4FFD5D0 
 182      E8
 183 0267 D4F09420 		.ascii	"\324\360\224 -A8f\327\320\352\326PR\200a}co\351\237"
 183      2D413866 
 183      D7D0EAD6 
 183      50528061 
 183      7D636FE9 
 184 027c 8671C2BE 		.ascii	"\206q\302\276\025\301TD\251,\204\255]\301\0358\246\177"
 184      15C15444 
 184      A92C84AD 
 184      5DC11D38 
 184      A67F
 185 028e D69D43EF 		.ascii	"\326\235C\357\302]t\266b!\314\037\000r.NQ=\030MG\207"
 185      C25D74B6 
 185      6221CC1F 
 185      00722E4E 
 185      513D184D 
 186 02a4 46128978 		.ascii	"F\022\211x\2523\006zo\370P\244\257\263K\211\247R\010"
 186      AA33067A 
 186      6FF850A4 
 186      AFB34B89 
 186      A75208
 187 02b7 7B7A7B06 		.ascii	"{z{\006z\216\034\357\353\013\367\357\013\205S\251\221"
 187      7A8E1CEF 
 187      EB0BF7EF 
 187      0B8553A9 
 187      91
 188 02c8 54E8E8C8 		.ascii	"T\350\350\310\271\341\2649\234\010\0356\207\342\243"
 188      B9E1B439 
 188      9C081D36 
 188      87E2A3
 189 02d7 1746D3F1 		.ascii	"\027F\323\361\344\356p\177\177Gw\327\240\017B\245\361"
 189      E4EE707F 
 189      7F4777D7 
 189      A00F42A5 
 189      F1
 190 02e8 BDC5BCA1 		.ascii	"\275\305\274\241\023\351h*\035\247\200\177\250\252:"
 190      13E9682A 
 190      1DA7807F 
 190      A8AA3A
 191 02f7 8C       		.ascii	"\214"
 192              		.text
 193              		.section	.gnu.lto_dataLoggerStop.8efacb7ade7f2632,"",%progbits
 194 0000 789C6550 		.ascii	"x\234eP\275KBQ\024\377\235\253/\315\322\034s(\036\255"
 194      BD4B4251 
 194      14FF9DAB 
ARM GAS  /tmp/ccikvM4W.s 			page 15


 194      2FCDD21C 
 194      73281EAD 
 195 0014 81D19434 		.ascii	"\201\321\2244e(.AP\0125\276\236\362x\220(\341\326\340"
 195      65282E41 
 195      500A35BE 
 195      9EF27890 
 195      28E1D6E0 
 196 0028 5522A241 		.ascii	"U\"\242A\244%\351\003\222\266\032Z]\202\326\206\276"
 196      A425E903 
 196      92B61A5A 
 196      5D82D686 
 196      BE
 197 0039 16A788B7 		.ascii	"\026\247\210\267\364?DC\257{\336\023\243:p\357\357\334"
 197      F43F4443 
 197      AF7BDE13 
 197      A33A70EF 
 197      EFDC
 198 004b CBEFE370 		.ascii	"\313\357\343p\004\004\376VB\235\026\001)\205\024\000"
 198      0404FE56 
 198      429D1601 
 198      29851400 
 199 005b 89F623D0 		.ascii	"\211\366#\320\010\013\"n@\250\013\252o\022Si\006])\217"
 199      080B226E 
 199      40A80BAA 
 199      6F125369 
 199      065D298F 
 200 006f 9CF77E2B 		.ascii	"\234\367~+qx\321l\313/\327%\233\224i\234`\0226\324\203"
 200      7178D16C 
 200      CB2FD725 
 200      9B94699C 
 200      601236D4 
 201 0084 740F44F0 		.ascii	"t\017D\360w\312\215\270s\\\367\354\372y.$`PWYiT\366"
 201      77CA8DB8 
 201      735CF7EC 
 201      FA792E24 
 201      60505759 
 202 009b 5C35EC49 		.ascii	"\\5\354I\331\326\301\016\252\362\352\346\344\002\011"
 202      D9D6C10E 
 202      AAF2EAE6 
 202      E40209
 203 00aa C6C0039A 		.ascii	"\306\300\003\232\367\037\375\230A\227\244\301\"q\212"
 203      F71FFD98 
 203      4197A4C1 
 203      22718A
 204 00b9 93869471 		.ascii	"\223\206\224q\025\273\213Oy\300]\240L,\345\334\300 "
 204      15BB8B4F 
 204      79C05DA0 
 204      4C2CE5DC 
 204      C020
 205 00cb EF099AAF 		.ascii	"\357\011\232\257\300\017-hz4\260\013\177v\244\274U\022"
 205      C00F2D68 
 205      7A34B00B 
 205      7F76A4BC 
 205      5512
 206 00dd 6D1A93E7 		.ascii	"m\032\223\347\262\263d\323\010\006\032\233Bl\261\357"
 206      B2B364D3 
 206      08061A9B 
ARM GAS  /tmp/ccikvM4W.s 			page 16


 206      426CB1EF 
 207 00ed BCA6FEB9 		.ascii	"\274\246\376\271\204M\362\227\310q\243>D|\030c\3458"
 207      844DF297 
 207      C871A33E 
 207      447C1863 
 207      E538
 208 00ff A046EEF5 		.ascii	"\240F\356\365\216\247|\351,\256\244\252\005\233\242"
 208      8EA77CE9 
 208      2CAEA4AA 
 208      059BA2
 209 010e 6A74C58A 		.ascii	"jt\305\212Y\2441{\302s\331\362G\362\364Qn^\320p\336"
 209      59A4317B 
 209      C273D9F2 
 209      47F2F451 
 209      6E5ED070 
 210 0123 22BE76F8 		.ascii	"\"\276v\370\351/\206x!\034\036-\0325c\273bY\245\235"
 210      E92F8678 
 210      211C1E2D 
 210      1A3563BB 
 210      6259A59D 
 211 0137 A4895026 		.ascii	"\244\211P&\273\\\310%\347\365L:\237^Y\315\345\262k\213"
 211      BB5CC825 
 211      E7F54C3A 
 211      9F5E59CD 
 211      E5B26B8B 
 212 014b 7A66C8D0 		.ascii	"zf\310\320\327k\225j\265T\214\340\033E\367l\261"
 212      D76B956A 
 212      B5548CE0 
 212      1B45F76C 
 212      B1
 213              		.text
 214              		.section	.gnu.lto_logfileNew.8efacb7ade7f2632,"",%progbits
 215 0000 789C5D51 		.ascii	"x\234]Q\277K\034A\024\376\276\331\331\273\275\363N-"
 215      BF4B1C41 
 215      14FEBED9 
 215      D9BBBDF3 
 215      4E2D
 216 0012 2CB43916 		.ascii	",\2649\026\313\010\206XZi\242\\#\012\342ARn.\347\262"
 216      CB088658 
 216      5A69A25C 
 216      230AE241 
 216      526E2EE7 
 217 0027 A0114448 		.ascii	"\240\021DH\221\3029\221 )\344\260:\022\025\305Z\354"
 217      91C23991 
 217      2029E4B0 
 217      3A1215C5 
 217      5AEC
 218 0039 05C12621 		.ascii	"\005\301&!)\022\321\"$1\205\177\200\177\201\205\227"
 218      2912D122 
 218      2431857F 
 218      807F8185 
 218      97
 219 004a F7367706 		.ascii	"\3676w\006\035\230\367f\336\276\357\307\27450x\270\236"
 219      1D98F766 
 219      DEBEEFC7 
 219      BC353078 
 219      B89E
ARM GAS  /tmp/ccikvM4W.s 			page 17


 220 005c C8BE2030 		.ascii	"\310\276 0*\231>h\032\337\201z`\214\375\361\030\256"
 220      2A993E68 
 220      1ADF817A 
 220      608CFDF1 
 220      18AE
 221 006e E01D97E0 		.ascii	"\340\035\227\340\362\036\255\226iI\315 V\215g\271\372"
 221      F21EAD96 
 221      6949CD20 
 221      568D67B9 
 221      FA
 222 007f 824AC141 		.ascii	"\202J\301A\354;\267u\365\351rs\340\375\336Z\303\335"
 222      EC3BB775 
 222      F5E97273 
 222      E0FDDE5A 
 222      C3DD
 223 0091 B65A4C28 		.ascii	"\266ZL(b\275D\225x.\027\206i2\366\276\372\2219\275j"
 223      62BD4495 
 223      782E1786 
 223      6932F6BE 
 223      FA9139BD 
 224 00a6 B5FE1C36 		.ascii	"\265\376\0346>\263H$\364\214\006\213\210\373\302\232"
 224      3EB34824 
 224      F48C068B 
 224      88FBC29A 
 225 00b6 E1229195 		.ascii	"\341\"\221\225\212\015\344\304\234\004S\220\340\011"
 225      8A0DE4C4 
 225      9C045390 
 225      E009
 226 00c4 D2C7BA73 		.ascii	"\322\307\272s\215\020* kN\242Z\253\320h\366\276a\355"
 226      8D102A20 
 226      6B4EA25A 
 226      ABD068F6 
 226      BE61ED
 227 00d7 EBCFCBEE 		.ascii	"\353\317\313\356\210\007\362\250\230\366#>\324\235\353"
 227      8807F2A8 
 227      98F6233E 
 227      D49DEB
 228 00e6 15576F71 		.ascii	"\025Woq\3436\364\344/R\335\250-\277m\347\014\376?\004"
 228      E336F4E4 
 228      2F52DDA8 
 228      2DBF6DE7 
 228      0CFE3F04 
 229 00fa FEB765AA 		.ascii	"\376\267e\252L\025\224E\213M\347N\004\222-\241\177\307"
 229      4C159445 
 229      8B4DE74E 
 229      04922DA1 
 229      7FC7
 230 010c 35C71206 		.ascii	"5\307\022\006hc\022\346\000\021\376\335\334\355\353"
 230      686312E6 
 230      0011FEDD 
 230      DCEDEB
 231 011b 086787F0 		.ascii	"\010g\207\360(I\345\005\223\217\231Q\271\256\224\357"
 231      2849E505 
 231      938F9951 
 231      B9AE94EF 
 232 012b 253B53F8 		.ascii	"%;S\370\202\365\353z\317\035D[\356\315\251\"/>.ygx\027"
 232      82F5EB7A 
ARM GAS  /tmp/ccikvM4W.s 			page 18


 232      CF1D445B 
 232      EECDA922 
 232      2F3E2E79 
 233 0142 749ACC9D 		.ascii	"t\232\314\235\277B\225\246\355/\210\231\213YHX\354\340"
 233      BF4295A6 
 233      ED2F8899 
 233      8B594858 
 233      ECE0
 234 0154 6C3A8C73 		.ascii	"l:\214s\371\241\372=\025\374\005\252\200\314\320l\317"
 234      F9A1FA3D 
 234      15FC05AA 
 234      80CCD06C 
 234      CF
 235 0165 0891479D 		.ascii	"\010\221G\235\036\265Qy\212\257\242\225ha)\216k\313"
 235      1EB55179 
 235      8AAFA295 
 235      6861298E 
 235      6BCB
 236 0177 C3556427 		.ascii	"\303Ud'&\237V\312\303#\203\023\343s\343S3\345\362\344"
 236      269F56CA 
 236      C3238313 
 236      E373E353 
 236      33E5F2E4 
 237 018b EC68F86C 		.ascii	"\354h\370l\271\026\255$\257\343p\272\366&\234Z\212\347"
 237      B916AD24 
 237      AFE370BA 
 237      F6269C5A 
 237      8AE7
 238 019d 93855A1E 		.ascii	"\223\205Z\036\177\001\271=w."
 238      7F01B93D 
 238      772E
 239              		.text
 240              		.section	.gnu.lto_logfileSize.8efacb7ade7f2632,"",%progbits
 241 0000 789C6362 		.ascii	"x\234cb`b@\007\222@\034\015\304\374@\314\310\314\300"
 241      60624007 
 241      92401C0D 
 241      C4FC40CC 
 241      C8CCC0
 242 0013 C834E11C 		.ascii	"\3104\341\034\003C#\007\023##\210\301\300\310P\317\304"
 242      03432307 
 242      13232388 
 242      C1C0C850 
 242      CFC4
 243 0025 581FC908 		.ascii	"X\037\311\010V\273\236\351\300\203\377\377\327m9\266"
 243      56BB9EE9 
 243      C083FFFF 
 243      D76D39B6 
 244 0035 602E2323 		.ascii	"`.##\310(V\206\226\206\206\011\012\014\014\311`\005"
 244      C8285686 
 244      96868609 
 244      0A0C0CC9 
 244      6005
 245 0047 214012A4 		.ascii	"!@\022\244+\024(\011\244\231/24>\230\263\2301\221q!"
 245      2B142809 
 245      A4992F32 
 245      343E98B3 
 245      98319171 
ARM GAS  /tmp/ccikvM4W.s 			page 19


 246 005c 232B4304 		.ascii	"#+C\004c&#\334\326\020FF\220\012\220\031\274)\211%\211"
 246      632623DC 
 246      D6104646 
 246      900A9019 
 246      BC298925 
 247 0071 39F9E9E9 		.ascii	"9\371\351\351\251Ez\311\014\000\020\026\036\241"
 247      A9457AC9 
 247      0C001016 
 247      1EA1
 248              		.text
 249              		.section	.gnu.lto_logfileWriteCsv.8efacb7ade7f2632,"",%progbits
 250 0000 789C6362 		.ascii	"x\234cb`b@\007\222@\234\005\304\374@\314\310\314\300"
 250      60624007 
 250      92409C05 
 250      C4FC40CC 
 250      C8CCC0
 251 0013 C834E11C 		.ascii	"\3104\341\034\003C#\007\023##\210\301\300\310P\317\304"
 251      03432307 
 251      13232388 
 251      C1C0C850 
 251      CFC4
 252 0025 581FC908 		.ascii	"X\037\311\010V\273\236\351\300\203\377\377\327]:\276"
 252      56BB9EE9 
 252      C083FFFF 
 252      D75D3ABE 
 253 0035 A08F9189 		.ascii	"\240\217\221\211\225\2111\227\221\201\031H0\262\000"
 253      95893197 
 253      91811948 
 253      30B200
 254 0044 0990C9AC 		.ascii	"\011\220\311\254\014-\015\015\023\024\030\030\222\301"
 254      0C2D0D0D 
 254      13141818 
 254      92C1
 255 0052 EA438024 		.ascii	"\352C\200$\310\220P\240$\220f\276\310\320\370\240w)"
 255      C89050A0 
 255      249066BE 
 255      C8D0F8A0 
 255      7729
 256 0064 6322E342 		.ascii	"c\"\343BFV\206\010\306LF\270#B\030\031A*@f\360\246$"
 256      46568608 
 256      C64C46B8 
 256      23421819 
 256      412A4066 
 257 007b 9624E6E4 		.ascii	"\226$\346\344\247\247\247\026\351%3\000\000^X \020"
 257      A7A7A716 
 257      E9253300 
 257      005E5820 
 257      10
 258              		.text
 259              		.section	.gnu.lto_logfileGetWrCount.8efacb7ade7f2632,"",%progbits
 260 0000 789C6362 		.ascii	"x\234cb`b@\007\222@<\003\210\371\201\230\221\231\201"
 260      60624007 
 260      92403C03 
 260      88F98198 
 260      919981
 261 0013 9169C239 		.ascii	"\221i\3029\006\206F\016&FF\020\203\201\221\241\236\211"
 261      0686460E 
ARM GAS  /tmp/ccikvM4W.s 			page 20


 261      26464610 
 261      838191A1 
 261      9E89
 262 0025 B13E9211 		.ascii	"\261>\222\021\254v=\323\201\007\377\377\257\333qj\301"
 262      AC763DD3 
 262      8107FFFF 
 262      AFDB716A 
 262      C1
 263 0036 3C462616 		.ascii	"<F&\026&\306\\F\006f\206L\260\034+CKC\303\004\005\006"
 263      26C65C46 
 263      0666864C 
 263      B01C2B43 
 263      4B43C304 
 264 004c 86643037 		.ascii	"\206d07\004H\202\364\20722\201h\346\263\014M\267v,\327"
 264      044882F4 
 264      87323281 
 264      68E6B30C 
 264      4DB7762C 
 265 0061 4C645CC8 		.ascii	"Ld\\\310\310\312\220\316\310\254\315\260\252\001\010"
 265      C8CA90CE 
 265      C8ACCDB0 
 265      AA0108
 266 0070 EC819A67 		.ascii	"\354\201\232g3\314b\314ddLgd\212\000\322\020\007&1\302"
 266      33CC62CC 
 266      64644C67 
 266      648A00D2 
 266      10072631 
 267 0085 9C7791A1 		.ascii	"\234w\221\241\361\000+\\\033D,\204\221\021d(H)oJbIb"
 267      F1002B5C 
 267      1B442C84 
 267      91116428 
 267      48296F4A 
 268 009c 4E7E7A7A 		.ascii	"N~zzj\221^2\003\000\227\033)\353"
 268      6A915E32 
 268      0300971B 
 268      29EB
 269              		.text
 270              		.section	.gnu.lto_logfileClose.8efacb7ade7f2632,"",%progbits
 271 0000 789C6550 		.ascii	"x\234eP=K\003A\024\234\331\335\363\316/ba\255\326\006"
 271      3D4B0341 
 271      149CD9DD 
 271      F3CE2F62 
 271      61ADD606 
 272 0014 0CF8476C 		.ascii	"\014\370Gl\014jy\236r,(\202\330YdO\256\260L\255\215"
 272      0C6A799E 
 272      722C2882 
 272      D859644F 
 272      AEB04CAD 
 273 0029 B62AB14D 		.ascii	"\266*\261M\241\2202\210\037\010\201\240X\370\003\374"
 273      A1903288 
 273      1F0881A0 
 273      58F803FC 
 274 0039 016A13DF 		.ascii	"\001j\023\337\336\021\025]\330}\217\335y3\263\243\240"
 274      DE11155D 
 274      D87D8FDD 
 274      7933B3A3 
 274      A0
ARM GAS  /tmp/ccikvM4W.s 			page 21


 275 004a F0772DCA 		.ascii	"\360w-\312^\"P\221\312\000T\315{ \213\224\322\275\032"
 275      5E225091 
 275      CA0054CD 
 275      7B208B94 
 275      D2BD1A
 276 005d DC98B99A 		.ascii	"\334\230\271\232\201\233\3204\345\265!}\003\242\241"
 276      819BD034 
 276      E5B5217D 
 276      03A2A1
 277 006c B461638D 		.ascii	"\264ac\215\005\311\245\352\274\016\006\255\227\233\223"
 277      05C9A5EA 
 277      BC0E06AD 
 277      979B93
 278 007b 6BAA51C2 		.ascii	"k\252Q\302\022\206\333D \035C9\274n\200\334\271\346"
 278      1286DB44 
 278      201D4339 
 278      BC6E80DC 
 278      B9E6
 279 008d 1C901443 		.ascii	"\034\220\024C\313rz\256\272<J\325w8x~?\377`\314S\361"
 279      CB727AAE 
 279      BA3C4AD5 
 279      7738787E 
 279      3FFF60CC 
 280 00a3 9132A862 		.ascii	"\2212\250b^\246\217q\2249\347V,uJ\263JKSH\256s\370\203"
 280      5EA68F71 
 280      9439E756 
 280      2C754AB3 
 280      4A4B5348 
 281 00bb 07E49DD9 		.ascii	"\007\344\235\331\341T\270\217Ow\350\246,\203\204%D\250"
 281      E154B88F 
 281      4F77E8A6 
 281      2C838425 
 281      44A8
 282 00cd 2C47802E 		.ascii	",G\200.\362\267\254\362\015\364T\341\357$\352\324\350"
 282      F2B7ACF2 
 282      0DF454E1 
 282      EF24EAD4 
 282      E8
 283 00de D5BC8F76 		.ascii	"\325\274\217v\2735\364Q\305\231\250\273q\313H\234\360"
 283      BB35F451 
 283      C599A8BB 
 283      71CB489C 
 283      F0
 284 00ef BF8B52C3 		.ascii	"\277\213R\303\337D?D\246\370\321\243\004\346\345\013"
 284      DF443F44 
 284      A6F8D1A3 
 284      04E6E50B 
 285 00ff C813E841 		.ascii	"\310\023\350A\222\234\276\350GE\013\250\333\376\264"
 285      929CBEE8 
 285      47450BA8 
 285      DBFEB4
 286 010e 4F821EEF 		.ascii	"O\202\036\3573\232\334\210\367\342\255\2354\335\334"
 286      339ADC88 
 286      F7E2AD9D 
 286      34DDDC
 287 011d 5D48F005 		.ascii	"]H\360\005Q\364Q\310"
 287      51F451C8 
ARM GAS  /tmp/ccikvM4W.s 			page 22


 288              		.text
 289              		.section	.gnu.lto_logfileOpenAppend.8efacb7ade7f2632,"",%progbits
 290 0000 789C7552 		.ascii	"x\234uRMk\024A\020\255\327\037\223\331\315\254\273\306"
 290      4D6B1441 
 290      10ADD71F 
 290      93D9CDAC 
 290      BBC6
 291 0012 8B1E0CE2 		.ascii	"\213\036\014\342QQ\177\203\277A\003\221\234\326I\030"
 291      51517F83 
 291      BF410391 
 291      9CD64918 
 292 0022 0614210A 		.ascii	"\006\024!\012\036<\244WW\021\274,\036T\364b\310U\220"
 292      1E3CA457 
 292      5711BC2C 
 292      1E54F462 
 292      C85590
 293 0035 103090D3 		.ascii	"\0200\220\323\004\024\024\321\340E\\\365\220\233\004"
 293      041414D1 
 293      E0455CF5 
 293      909B04
 294 0044 FC3A4A0C 		.ascii	"\374:J\014\254U\263\323MVc\303T\317T\327{\365^\365("
 294      AC55B3D3 
 294      4D5663C3 
 294      54CF54D7 
 294      7BF55EF5 
 295 0059 52F4F73A 		.ascii	"R\364\367:\315\3177N\037\340\035\021A\365\336\022ub"
 295      CDCF374E 
 295      1FE01D11 
 295      41F5DE12 
 295      7562
 296 006b A5F4DA24 		.ascii	"\245\364\332$\271\272}\177\212\\\242\225\331\365e`\207"
 296      B9BA7D7F 
 296      8A5CA295 
 296      D9F56560 
 296      87
 297 007c 45169017 		.ascii	"E\026\220\027\002-(m,\026\316A(q\224\026\235\273\273"
 297      022D286D 
 297      2C16CE41 
 297      28719416 
 297      9DBBBB
 298 008f F962650B 		.ascii	"\371be\013\367]\321y\354v\006\003 \007\267o\201R\320"
 298      F75DD179 
 298      EC760603 
 298      2007B76F 
 298      8152D0
 299 00a2 347F202E 		.ascii	"4\177 .7\205Q=OU\2619\030|\356w\267Opm\033\213\314f"
 299      3785513D 
 299      4F55B139 
 299      187CEE77 
 299      B74F706D 
 300 00ba 70116429 		.ascii	"p\021d)\207\2168\230\270J\327$S\347`\223*\323\220L\223"
 300      878E3898 
 300      B84AD724 
 300      53E76093 
 300      2AD3904C 
 301 00cf 43C44C96 		.ascii	"C\304L\226\272\316\365\216\014OH\332\362:\313Q4OA\311"
 301      BACEF58E 
ARM GAS  /tmp/ccikvM4W.s 			page 23


 301      0C4F48DA 
 301      F23ACB51 
 301      344F41C9 
 302 00e3 AEDFD0F5 		.ascii	"\256\337\320\365\217\277V^\2516\226`)\203=N\307\230"
 302      8FBF565E 
 302      A9369660 
 302      29833D4E 
 302      C798
 303 00f5 E3113DEC 		.ascii	"\343\021=\3548\347fr\214e0\2423.\325\235\017j\005\330"
 303      38E76672 
 303      8C6530A2 
 303      332ED59D 
 303      0F6A05D8 
 304 0109 9BF0B0A8 		.ascii	"\233\360\260\250\204\031\206\341_\210\307l\320\255\342"
 304      841986E1 
 304      5F88C76C 
 304      D0ADE2
 305 0118 9047C4D7 		.ascii	"\220G\304\327h\333\335v\255\034\265\264\252\340\356"
 305      68DBDD76 
 305      AD1CB5B4 
 305      AAE0EE
 306 0127 CC24C8FA 		.ascii	"\314$\310\372\004{\030'zI\317\277\254/\277\326\001$"
 306      047B1827 
 306      7A49CFBF 
 306      AC2FBFD6 
 306      0124
 307 0139 8723E39A 		.ascii	"\207#\343\232\202\246\265\311\322\306\207g\375PX\013"
 307      82A6B5C9 
 307      D2C68767 
 307      FD50580B 
 308 0149 36F6D0B3 		.ascii	"6\366\320\263\333\302\3171\017\251\227\220\244r~5G\203"
 308      DBC2CF31 
 308      0FA99790 
 308      A4727E35 
 308      4783
 309 015b 6904A62B 		.ascii	"i\004\246+\230\0126n\026\221G%\301\306\276\264\252`"
 309      980A366E 
 309      16914725 
 309      C1C6BEB4 
 309      AA60
 310 016d 18B3E568 		.ascii	"\030\263\345h\212\376\356\327\365\325;a\272\311\036"
 310      8AFEEED7 
 310      F5D53B61 
 310      BAC91E
 311 017c FA0DFD18 		.ascii	"\372\015\375\030/\365?X\335\202/l\214\\\303\231\377"
 311      2FF53F58 
 311      DD822F6C 
 311      8C5CC399 
 311      FF
 312 018d 7BD8A06E 		.ascii	"{\330\240nqx\210\"\012ZZi\245\232\231r\354\367\255\254"
 312      71788822 
 312      0A5A5A69 
 312      A59A9972 
 312      ECF7ADAC 
 313 01a1 BFF2EF37 		.ascii	"\277\362\3577~\337\263\276W3\223\371\277\243\320\274"
 313      7EDFB3BE 
 313      573393F9 
ARM GAS  /tmp/ccikvM4W.s 			page 24


 313      BFA3D0BC 
 314 01b1 29D57D02 		.ascii	")\325}\002\317[\355\364gY\266~\362\351 o\246\374\201"
 314      CF5BEDF4 
 314      6759B67E 
 314      F2E9206F 
 314      A6FC81
 315 01c4 202C62B5 		.ascii	" ,b\2651\333\276\322\276p)\313\346\346O\246\244\347"
 315      31DBBED2 
 315      BE7029CB 
 315      E6E64FA6 
 315      A4E7
 316 01d6 E72EFF01 		.ascii	"\347.\377\001\030_\253,"
 316      185FAB2C 
 317              		.text
 318              		.section	.gnu.lto_logfileWrite.8efacb7ade7f2632,"",%progbits
 319 0000 789C8554 		.ascii	"x\234\205TKhSQ\020\235\271\367\375\322|L\322\202\266"
 319      4B685351 
 319      109DB9F7 
 319      FDD27C4C 
 319      D282B6
 320 0013 6829052D 		.ascii	"h)\005-X\250\212n\272q\357\336\202.\\\304\030\302\003"
 320      58A88A6E 
 320      BA71EFDE 
 320      822E5CC4 
 320      18C203
 321 0026 AB50032E 		.ascii	"\253P\003.\\\364\246\015\232\205H\024\027~6-R\205\""
 321      5CF4A60D 
 321      9A854814 
 321      177E362D 
 321      528522
 322 0039 BA10294A 		.ascii	"\272\020)J\027\257.\242\010\365\003E\250\"\024W\202"
 322      17AF2EA2 
 322      08F50345 
 322      A8221457 
 322      82
 323 004a A101DD48 		.ascii	"\241\001\335H\025\343\314}\237\246Z\355\205\314}gf\316"
 323      15E3CC7D 
 323      9FA65AED 
 323      85CC7D67 
 323      66CE
 324 005c CC7973EF 		.ascii	"\314ys\357\213\000\001\177\256Q\372\345\014\200\335"
 324      8B00017F 
 324      AE51FAE5 
 324      0C80DD
 325 006b B4630C50 		.ascii	"\264c\014P\324^\001\224\035!du\000T\207\3016!\2053\337"
 325      D45E0194 
 325      1D216475 
 325      005487C1 
 325      36218533 
 326 0080 CB68691F 		.ascii	"\313hi\037!#@\246F\246p^\356'd\325w\021\262\204\375"
 326      212340A6 
 326      46A6705E 
 326      EE2764D5 
 326      7711B284 
 327 0095 9463CE3B 		.ascii	"\224c\316;\216\331\350p9t\020y\007\204q!\015\323\262"
 327      8ED9E870 
 327      39741079 
ARM GAS  /tmp/ccikvM4W.s 			page 25


 327      07847121 
 327      0DD3B2
 328 00a8 1D1C3F8E 		.ascii	"\035\034?\216\334^\366\303\264R\265\225\231\246'o^\367"
 328      DC5EF6C3 
 328      B452B595 
 328      99A6276F 
 328      5EF7
 329 00ba 2A53EA67 		.ascii	"*S\352g\253\205\350\"IM#\344\021\216\021\300>\275\011"
 329      AB85E822 
 329      494D23E4 
 329      118E11C0 
 329      3EBD09
 330 00cd 63A376CD 		.ascii	"c\243v\315\275\346-\327\257lW+\252\246~\021\325E)\240"
 330      BDE62DD7 
 330      AF6C572B 
 330      AAA67E11 
 330      D54529A0 
 331 00e1 679DE9F8 		.ascii	"g\235\351\370L\374\233\351\325\274\017\365\313\335j"
 331      4CFC9BE9 
 331      D5BC0FF5 
 331      CBDD6A
 332 00f0 6A226452 		.ascii	"j\"dR\317\336\255z>\024\336J\2535\377\270\262\266\263"
 332      CFDEAD7A 
 332      3E14DE4A 
 332      AB35FFB8 
 332      B2B6B3
 333 0103 1BC14543 		.ascii	"\033\301EC\2621p\024\301\"\2036A3F\306\352\200\034\336"
 333      B2317014 
 333      C1228336 
 333      413346C6 
 333      EA801CDE 
 334 0117 C17E88B3 		.ascii	"\301~\210\263'A1\221\244';EO2\035\3042\344\201,\201"
 334      27413191 
 334      A4273B45 
 334      4F321DC4 
 334      32E4812C 
 335 012c 69029D04 		.ascii	"i\002\235\004\234.6\324\307\204\012\315\245\317O\313"
 335      9C2E36D4 
 335      C7840ACD 
 335      A5CF4FCB 
 336 013c E10C5960 		.ascii	"\341\014Y`i\264\216\222\345q\216\240\340]\276\200Jc"
 336      69B48E92 
 336      E5718EA0 
 336      E05DBE80 
 336      4A63
 337 014e E1635DE6 		.ascii	"\341c]\346\360\036\232PD\203u\307\332E\217\240\204\352"
 337      F01E9A50 
 337      448375C7 
 337      DA458FA0 
 337      84EA
 338 0160 805C8489 		.ascii	"\200\\\204\211\3677V?G\211\366 \354%m\267\341\026\021"
 338      F737563F 
 338      4789F620 
 338      EC256DB7 
 338      E11611
 339 0173 3A8A6831 		.ascii	":\212h11\256\031'\243\201\275\206\2127\0342b\027`MU"
 339      31AE1927 
ARM GAS  /tmp/ccikvM4W.s 			page 26


 339      A381BD86 
 339      8A371C32 
 339      6217604D 
 340 0188 55DAC544 		.ascii	"U\332\305D\036\375\024*\343b\022\200\212\257N\366\204"
 340      1EFD142A 
 340      E3621280 
 340      8AAF4EF6 
 340      84
 341 0199 89548D14 		.ascii	"\211T\215\024he\337.\212\310\313\015\344Fe\006|=\354"
 341      6865DF2E 
 341      8AC8CB0D 
 341      E4466506 
 341      7C3DEC
 342 01ac 2B6BBE89 		.ascii	"+k\276\211\022\343\221\262\262R\352\304\277\325\351"
 342      12E391B2 
 342      B252EAC4 
 342      BFD5E9
 343 01bb AEB318F2 		.ascii	"\256\263\030\362\222EL\260\344K^w\350JG\222Sy\024\201"
 343      92454CB0 
 343      E44B5E77 
 343      E84A4792 
 343      53791481 
 344 01cf E4781153 		.ascii	"\344x\021S\224\315!ZsTx\233?c\237Eg\220\016\324\377"
 344      94CD215A 
 344      7354789B 
 344      3F639F45 
 344      67900ED4 
 345 01e4 589F6B7A 		.ascii	"X\237kz\023\365&<\330#\265\210O\221\210\214\026A\316"
 345      13F5263C 
 345      D823B588 
 345      4F91888C 
 345      1641CE
 346 01f7 23A1271B 		.ascii	"#\241'\033\036 \227,\017\267%f\333\213Y\260\220\322"
 346      1E20972C 
 346      0FB72566 
 346      DB8B59B0 
 346      90D2
 347 0209 A3F8DEF4 		.ascii	"\243\370\336\364\242j\235z\024\231\315\017\011\2431"
 347      A26A9D7A 
 347      1499CD0F 
 347      09A331
 348 0218 4C5627EF 		.ascii	"LV'\357F\234.\242qZ\006\241]\310 \314\362\353\036\330"
 348      469C2EA2 
 348      715A06A1 
 348      5DC820CC 
 348      F2EB1ED8 
 349 022c A21CF183 		.ascii	"\242\034\361\203\227\277\372\374\277\227\312\206%S\322"
 349      97BFFAFC 
 349      BF97CA86 
 349      2553D2
 350 023b FD70C224 		.ascii	"\375p\302$\031\315:\233\017&E\035\\\354\014\031\216"
 350      19CD3A9B 
 350      0F26451D 
 350      5CEC0C19 
 350      8E
 351 024c BEB08BF0 		.ascii	"\276\260\213\360\354Kp\324\376`\016\301#U\345\017\220"
 351      EC4B70D4 
ARM GAS  /tmp/ccikvM4W.s 			page 27


 351      FE600EC1 
 351      2355E50F 
 351      90
 352 025d D65BFAF7 		.ascii	"\326[\372\367a\232\006\313\200t\221\344\375\271\035"
 352      619A06CB 
 352      807491E4 
 352      FDB91D
 353 026c DCDE4030 		.ascii	"\334\336@0\033s\016\365\261Qc\000\253\361\244+\010\031"
 353      1B730EF5 
 353      B1516300 
 353      ABF1A42B 
 353      0819
 354 027e 14E28F03 		.ascii	"\024\342\217\003\271\007\037t\362T\256\224;}\266X,\214"
 354      B9071F74 
 354      F254AE94 
 354      3B7DB658 
 354      2C8C
 355 0290 0DE52176 		.ascii	"\015\345!v~\314-\225\012g\206\016\312\261\3029;@\277"
 355      7ECC2D95 
 355      0A67860E 
 355      CAB1C239 
 355      3B40BF
 356 02a3 01BDE909 		.ascii	"\001\275\351\011d"
 356      64
 357              		.text
 358              		.section	.gnu.lto_dataloggerThread.8efacb7ade7f2632,"",%progbits
 359 0000 789C6D52 		.ascii	"x\234mR\273J\003A\024=g\036\331\215\017\242\177`c\243"
 359      BB4A0341 
 359      143D671E 
 359      D98D0FA2 
 359      7F6063A3 
 360 0014 6067E92F 		.ascii	"`g\351/X%\240e\214\262,(\202\330Yd\243[\004QH)\332h"
 360      5825A065 
 360      8CB22C28 
 360      82D85964 
 360      A35B0451 
 361 002c 2FFA0741 		.ascii	"/\372\007A+\025\211b+\026)-\374\000\021B\2743\303\006"
 361      2B158962 
 361      2B16292D 
 361      FC001142 
 361      BC33C306 
 362 0040 0C5ED873 		.ascii	"\014^\330s\207{\356\353\314\216\202\302\270\255\310"
 362      877BEEEB 
 362      CC8E82C2 
 362      B8ADC8
 363 004f 774DA022 		.ascii	"wM\240\"\236%Pu^\200V\254h\302A\207\303}l\224>y\000"
 363      9E255075 
 363      5E8056AC 
 363      68C24187 
 363      C37D6C94 
 364 0066 B2099B47 		.ascii	"\262\011\233G\310\246,\351\342 \232J\033\313\346:}\277"
 364      C8A62CE9 
 364      E2209A4A 
 364      1BCBE63A 
 364      7DBF
 365 0078 5B75D71F 		.ascii	"[u\327\037\016o>\236/\007T\223\212;\204AJX\001\351/"
 365      0E6F3E9E 
ARM GAS  /tmp/ccikvM4W.s 			page 28


 365      2F075493 
 365      8A3B8441 
 365      4A5801E9 
 366 008d 1039881D 		.ascii	"\0209\210\035\224\035H\215E\236e\2359\240\341{T\005"
 366      941D488D 
 366      459E659D 
 366      39A0E17B 
 366      5405
 367 009f 6546954A 		.ascii	"eF\225J\234\256QC\006\353\036\016\337\277\273\263u^"
 367      9CAE5143 
 367      06EB1E0E 
 367      DFBFBBB3 
 367      755E
 368 00b1 D122A15D 		.ascii	"\321\"\241]\304BJu\201s\246\324\011\325\232x\343W\330"
 368      C4424A75 
 368      8173A6D4 
 368      09D59A78 
 368      E357D8
 369 00c4 6021AE87 		.ascii	"`!\256\207\243c]T\224\244\310%\261\263\032\250\366\210"
 369      A3635D54 
 369      94A4C825 
 369      B1B31AA8 
 369      F688
 370 00d6 8A84F5D4 		.ascii	"\212\204\365\324P\254\022\330\323\021\033K\202g?\243"
 370      50AC12D8 
 370      D3111B4B 
 370      82673FA3 
 371 00e6 F1C2B2B0 		.ascii	"\361\302\262\260\236r#_aB\0348\300O\326\316fR\332\006"
 371      9E72235F 
 371      61421C38 
 371      C04FD6CE 
 371      6652DA06 
 372 00fa C336929B 		.ascii	"\3036\222\233\212~o5YT.\317K:\353>\251\242\233\361\232"
 372      8A7E6F35 
 372      59542ECF 
 372      4B3AEB3E 
 372      A9A29BF1 
 373 010f F0BFA642 		.ascii	"\360\277\246B\324#\362\257\326\362\250\304\245\374\371"
 373      D423F2AF 
 373      D6F2A8C4 
 373      A5FCF9
 374 011e A13589CB 		.ascii	"\2415\211\313\265\275\241\325\037\314\027\373\004\253"
 374      B5BDA1D5 
 374      1FCC17FB 
 374      04AB
 375 012c 4A933C72 		.ascii	"J\223<ro`z\263\276_\337\336M\222\255\275\245\006~\001"
 375      6F607AB3 
 375      BE5FDFDE 
 375      4D92ADBD 
 375      A5067E01 
 376 0140 4B5061C0 		.ascii	"KPa\300"
 377              		.text
 378              		.section	.gnu.lto_.symbol_nodes.8efacb7ade7f2632,"",%progbits
 379 0000 789C4DCD 		.ascii	"x\234M\315\271N\303@\024\005\320;w\354\000\261\263/"
 379      B94EC340 
 379      1405D03B 
 379      77EC00B1 
ARM GAS  /tmp/ccikvM4W.s 			page 29


 379      B32F
 380 0012 3429E968 		.ascii	"4)\351h\351\371\026\276\344\005\033\210\011\004\302"
 380      E9F916BE 
 380      E4051B88 
 380      0904C2
 381 0021 DA41817F 		.ascii	"\332A\201\177\200&%\015\221\222&\242\245E\211\004%_"
 381      8026250D 
 381      919226A2 
 381      A5458904 
 381      255F
 382 0033 C032C616 		.ascii	"\3002\306\0263\323\\\235\373F\357\021\204&\362\307\037"
 382      33D35C9D 
 382      FB46EF11 
 382      8426F2C7 
 382      1F
 383 0044 25C0F805 		.ascii	"%\300\370\005\020\031%{\274\241\250\202w\211\362\373"
 383      1019257B 
 383      BCA1A882 
 383      7789F2FB 
 384 0054 84279AB7 		.ascii	"\204'\232\267\024\332\226\373\024]\360\3360\242x\016"
 384      14DA96FB 
 384      145DF0DE 
 384      30A2780E 
 385 0064 638AEFF0 		.ascii	"c\212\357\360\200RrxDYs8\240\254;L(\033\016\217)e\207"
 385      80527278 
 385      44597338 
 385      A0AC3B4C 
 385      281B0E8F 
 386 007b 8794C0E1 		.ascii	"\207\224\300\341\220\022Z\252sJ%g\277\257\324\031\245"
 386      90125AAA 
 386      734A2567 
 386      BFAFD419 
 386      A5
 387 008c 6A35A2D4 		.ascii	"j5\242\324\254\306\224\272\325%\245auJiZ\235PZVW\224"
 387      ACC694BA 
 387      D525A561 
 387      754A695A 
 387      9D505A56 
 388 00a2 B6D505A5 		.ascii	"\266\325\005\245cuM\351\376K\243\216\370\355\333d\015"
 388      63754DE9 
 388      FE4BA38E 
 388      F8EDDB64 
 388      0D
 389 00b3 E95F5631 		.ascii	"\351_V1\315R\001\313\311\216V\015\2542\352f>\366\332"
 389      CD5201CB 
 389      C98E560D 
 389      AC32EA66 
 389      3EF6DA
 390 00c6 489FDE4D 		.ascii	"H\237\336M\266\020\317>z\332\003\242\301V\026\313\371"
 390      B610CF3E 
 390      7ADA03A2 
 390      C15616CB 
 390      F9
 391 00d7 BCA77DE0 		.ascii	"\274\247}\340!\373\346\267\362-\245\302%\205\310l+\027"
 391      21FBE6B7 
 391      F22DA5C2 
 391      2585C86C 
ARM GAS  /tmp/ccikvM4W.s 			page 30


 391      2B17
 392 00e9 5B82463E 		.ascii	"[\202F>\016:\230\232:0\365\354\225:\014\360\374\270"
 392      0E3A989A 
 392      3A30F5EC 
 392      953A0CF0 
 392      FCB8
 393 00fb ABC32E56 		.ascii	"\253\303.V\023s#\324\210\206\013\245+\233H\277>\267"
 393      137323D4 
 393      88860BA5 
 393      2B9B48BF 
 393      3EB7
 394 010d F10B2ECE 		.ascii	"\361\013.\316\231\010"
 394      9908
 395              		.text
 396              		.section	.gnu.lto_.refs.8efacb7ade7f2632,"",%progbits
 397 0000 789C6362 		.ascii	"x\234cb`b\020e\200\000FF\006&f\026F&\240\020\023#+\020"
 397      60621065 
 397      80004646 
 397      06266616 
 397      4626A010 
 398 0018 B3015900 		.ascii	"\263\001Y\000\004w\000="
 398      0477003D 
 399              		.text
 400              		.section	.gnu.lto_.decls.8efacb7ade7f2632,"",%progbits
 401 0000 789CBD7D 		.ascii	"x\234\275}\011t\024G\322fU\365\215\304i\317\0303\376"
 401      09741447 
 401      D26655F5 
 401      8DC469CF 
 401      1833FE
 402 0013 87B67766 		.ascii	"\207\266wf\326;\353A\200=3\236\343\037\003\2228\326"
 402      D63BEB41 
 402      803D339E 
 402      E31F0392 
 402      38D6
 403 0025 80789218 		.ascii	"\200x\222\030\217w\337\377\332\215\324\002\375\326\345"
 403      8F77DFFF 
 403      DA8DD402 
 403      FDD6E5
 404 0034 EEE6F0EE 		.ascii	"\356\346\360\356\2767\305%\214\301\3466\367es\031c@"
 404      BE37C525 
 404      8CC1E636 
 404      F7657319 
 404      6340
 405 0046 600E7136 		.ascii	"`\016q66F\200\306\210\3736\0100\006\014\374\346\260"
 405      364680C6 
 405      88FB3608 
 405      30060CFC 
 405      E6B0
 406 0058 1187411B 		.ascii	"\021\207A\033\031Y\325\235U]U\235%\317\277\375^fWeW"
 406      1959D59D 
 406      555D559D 
 406      25CFBFFD 
 406      5E665765 
 407 006d 7E191911 		.ascii	"~\031\031\021\031\031yT\266$HBG\267 4\302g\322\"A\310"
 407      19197954 
 407      B6244842 
 407      47B72034 
ARM GAS  /tmp/ccikvM4W.s 			page 31


 407      C267D222 
 408 0083 682D082D 		.ascii	"h-\010-\004A\370\013\204V\020\234\020\026BX\014a\011"
 408      0441F80B 
 408      8456109C 
 408      10164258 
 408      0C6109
 409 0096 848F20AC 		.ascii	"\204\217 \254\200\260\022\302*\010U\020.@\270\014\341"
 409      80B012C2 
 409      2A085510 
 409      2E40B80C 
 409      E1
 410 00a7 0A84AB10 		.ascii	"\012\204\253\020\352$A8\011A\022\005\374<\001\241\036"
 410      EA244138 
 410      09411205 
 410      FC3C01A1 
 410      1E
 411 00b8 EE5B3904 		.ascii	"\356[9\004!\007B\177\010\367\035\024<\035B\033\010\317"
 411      2107427F 
 411      08F71D14 
 411      3C1D421B 
 411      08CF
 412 00ca 40781642 		.ascii	"@x\026B\007\010\235!t\201\220\015\241;\204|\010\375"
 412      07089D21 
 412      7481900D 
 412      A13B847C 
 412      08FD
 413 00dc 21BC0561 		.ascii	"!\274\005a<\204\311\020\336\2030\033\302\022\010\244"
 413      3C84C910 
 413      DE83301B 
 413      C21208A4 
 414 00ec 98E54E41 		.ascii	"\230\345NA\363!\345\245\301\367\313NZ\237t\245.+ Z\015"
 414      F321E5A5 
 414      C1F7CB4E 
 414      5A9F74A5 
 414      2E2B205A 
 415 0101 E1630855 		.ascii	"\341c\010U\020z@X\003a\255\222\337\251\344\315W\312"
 415      107A4058 
 415      0361AD92 
 415      DFA9E4CD 
 415      57CA
 416 0113 2634C0AD 		.ascii	"&4\300\255\220\006\3646wh\313 \365y\\\251\257Z\306+"
 416      9006F436 
 416      7768CB20 
 416      F5795CA9 
 416      AF5AC62B 
 417 0127 F0FCFF72 		.ascii	"\360\374\377rP\2346\360\375+\010\355 <\011\241\215H"
 417      509C36F0 
 417      FD2B08ED 
 417      203C09A1 
 417      8D48
 418 0139 F9B2CE49 		.ascii	"\371\262\316Iy\372W\370^\017a\2033\301\337s\360;)\346"
 418      79FA57F8 
 418      5E0F6183 
 418      33C1DF73 
 418      F03B29E6 
 419 014d 97106541 		.ascii	"\227\020eAx\332A\357IY\204\007\2046\202\3752\334\367"
 419      78DA41EF 
ARM GAS  /tmp/ccikvM4W.s 			page 32


 419      49598407 
 419      843682FD 
 419      32DCF7
 420 0160 82D0DB91 		.ascii	"\202\320\333\221\\w\302\343\346\002\345\277J\327GJ\331"
 420      5C77C2E3 
 420      E602E5BF 
 420      4AD7474A 
 420      D9
 421 0171 4E854642 		.ascii	"N\205FBW\033\206\266\215\2206V\341%)[Rp\336R\322\362"
 421      571B86B6 
 421      8D903656 
 421      E125295B 
 421      5270DE52 
 422 0187 74752732 		.ascii	"tu'2l'\320\272\262u'\230U\012\037U] u$e\357\207P\015"
 422      6C27D0BA 
 422      B2752798 
 422      550A1F55 
 422      5D207524 
 423 01a0 D753206C 		.ascii	"\327S lRx\360\016|o\206\260E\341\203\252W\347\024\375"
 423      5278F00E 
 423      7C6F86B0 
 423      45E183AA 
 423      57E714FD 
 424 01b4 51F58DE0 		.ascii	"Q\365\215\340\035\205\264\343\020N@8\255\324\205\320"
 424      1D85B4E3 
 424      104E4038 
 424      ADD485D0 
 425 01c4 3159D10B 		.ascii	"1Y\321\013\302\033\027\244}\007i\337C\270\015\241\301"
 425      C21B17A4 
 425      7D0769DF 
 425      43B80DA1 
 425      C1
 426 01d5 803F44F7 		.ascii	"\200?D\367Z\351hW\345\240\226G\312'4\252\372\255\322"
 426      5AE96857 
 426      E5A09647 
 426      CA2734AA 
 426      FAADD2
 427 01e8 4A6822F5 		.ascii	"Jh\"\365 \365\"|9\255\310\213`\222\362\307+\372\362"
 427      20F5227C 
 427      39ADC88B 
 427      6092F2C7 
 427      2BFAF2
 428 01fb C8A05C41 		.ascii	"\310\240\\A\321E\266\\\302/\202\251\226\257\266\243"
 428      D145B65C 
 428      C22F82A9 
 428      96AFB6A3 
 429 020b 7352A29C 		.ascii	"sR\242\234m\220\336\332\241-Op&\332\024\251\263\027"
 429      6D90DEDA 
 429      A12D4F70 
 429      26DA14A9 
 429      B317
 430 021d EE3D107C 		.ascii	"\356=\020|\020\2329\223\313NW\344xK\242\367\242\222"
 430      109A3993 
 430      CB4E57E4 
 430      784BA2F7 
 430      A292
 431 022f A6FFB451 		.ascii	"\246\377\264Q\236k\343H<G\322\310m{\370\376\031\204"
ARM GAS  /tmp/ccikvM4W.s 			page 33


 431      9E6BE348 
 431      3C47D2C8 
 431      6D7BF8FE 
 431      1984
 432 0241 7FD1E57B 		.ascii	"\177\321\345{F\371\235\350\267\252O$_\226\362\375\214"
 432      46F99DE8 
 432      B7AA4F24 
 432      5F96F2FD 
 432      8C
 433 0252 82F92B5D 		.ascii	"\202\371+]>\322\336}B\242\235\374Og\262>\242N\211\224"
 433      3ED2DE7D 
 433      42A29DFC 
 433      4F67B23E 
 433      A24E8994 
 434 0266 A76A9B90 		.ascii	"\247j\233\220\224\274\252n>\247\303%6\244\215@\363\252"
 434      94BCAA6E 
 434      3EA7C325 
 434      36A48D40 
 434      F3AA
 435 0278 7C26F844 		.ascii	"|&\370D\007=\202V\357\331\266X\013\337\377\025\322\266"
 435      073D8256 
 435      EFD9B658 
 435      0BDFFF15 
 435      D2B6
 436 028a C3F57467 		.ascii	"\303\365tg\202\006\265=\222\266\370[\245mwPl\322{\014"
 436      8206B53D 
 436      92B6F85B 
 436      A56D7750 
 436      6CD27B0C 
 437 029e 1D1D7574 		.ascii	"\035\035ut\020;\3668\025UR\033\371\225\302_\";B\223"
 437      103BF638 
 437      1555521B 
 437      F995C25F 
 437      223B4293 
 438 02b2 C4F02E06 		.ascii	"\304\360.\006\317\3747\010; \374\031~\233\243\360\340"
 438      CFFC3708 
 438      3B20FC19 
 438      7E9BA3F0 
 438      E0
 439 02c3 53F8EEE7 		.ascii	"S\370\356\347\320\362\302\251\224\323A\261\2079J\332"
 439      D0F2C2A9 
 439      94D341B1 
 439      87394ADA 
 440 02d3 BF42F407 		.ascii	"\277B\364\007\010\177\202\360G\035]\304\266\252ez\024"
 440      087F82F0 
 440      471D5DC4 
 440      B6AA657A 
 440      14
 441 02e4 B97D0669 		.ascii	"\271}\006iG \034\205\260T\321\341C\360}@\271\356\302"
 441      47201C85 
 441      B054D1E1 
 441      43F07D40 
 441      B9EEC2
 442 02f7 D8DA6E3A 		.ascii	"\330\332n:<\237\360\226,\217\220\353\027\313mg@=\377"
 442      3C9FF096 
 442      2C8F90EB 
 442      17CB6D67 
ARM GAS  /tmp/ccikvM4W.s 			page 34


 442      403DFF
 443 030a 2606C516 		.ascii	"&\006\305\026>\301\213\027\351>jR\204E\262<\261~\364"
 443      3EC18B17 
 443      E93E6A52 
 443      8445B23C 
 443      B17EF4
 444 031d DE276467 		.ascii	"\336'dgP\\(\372\000\364O\242\360k\341C\031\322!\367"
 444      505C28FA 
 444      00F44FA2 
 444      F06BE143 
 444      19D221F7 
 445 0331 33A290FC 		.ascii	"3\242\220\374\011\212\242/\351>(.\022\177-\320b\360"
 445      098AA22F 
 445      E93E282E 
 445      127F2DD0 
 445      62F0
 446 0343 67E5A251 		.ascii	"g\345\242Q$\026\377mB\311\202J\271\347\356\026\255\005"
 446      2416FF6D 
 446      42C9824A 
 446      B9E7EE16 
 446      AD05
 447 0355 009665FF 		.ascii	"\000\226e\377\214\026\014\201m-\350#\204HAq)R\327\303"
 447      8C160C81 
 447      6D2DE823 
 447      84484171 
 447      2952D7C3 
 448 0369 8820A461 		.ascii	"\210 \244a\251\216\210\245q*\226*d(%\\\226\324\"~\243"
 448      A98E88A5 
 448      712A962A 
 448      6428255C 
 448      96D4227E 
 449 037e 645D22B6 		.ascii	"d]\"\266NpLV\350\304'\224,~5\207S\311\261\\\341\200"
 449      4E704C56 
 449      E8C42794 
 449      2C7E3587 
 449      53C9B15C 
 450 0394 921CBF78 		.ascii	"\222\034\277xN!\307,\337b1M\245\330\204)\224\\%\277"
 450      4E21C72C 
 450      DF62314D 
 450      A5D88429 
 450      945C25BF 
 451 03a8 1C27D5AF 		.ascii	"\034'\325\257\000\254\260M\352\307&\244\266OA\352G\366"
 451      00ACB04D 
 451      EAC726A4 
 451      B64F41EA 
 451      47F6
 452 03ba 48BD1B27 		.ascii	"H\275\033'5C\001Xe\233\324\325&\244vHA\352J\023R\333"
 452      35430158 
 452      659BD4D5 
 452      26A47648 
 452      41EA4A13 
 453 03d0 089390D4 		.ascii	"\010\223\220\324\335\011\365\227\377\213\232\231\270"
 453      DD09F597 
 453      FF8B9A99 
 453      B8
 454 03dd 1B6A03A8 		.ascii	"\033j\003\250\336u\275\223,{\203\342\032\261\015(\231"
 454      DE75BD93 
ARM GAS  /tmp/ccikvM4W.s 			page 35


 454      2C7B83E2 
 454      1AB10D28 
 454      99
 455 03ee 2C8A7155 		.ascii	",\212qU\"\237\3248\204\212u\220\227\346\242j\033\333"
 455      229FD438 
 455      848A7590 
 455      97E6A26A 
 455      1BDB
 456 0400 BC2B9D34 		.ascii	"\274+\2354+\222.h\3604\237\247\205\005@ql\353\256\315"
 456      2B922E68 
 456      F0349FA7 
 456      85054071 
 456      6CEBAECD 
 457 0414 A25C99AE 		.ascii	"\242\\\231\256\266\302J$\201d5j\027q\0061\\\321\302"
 457      B6C24A24 
 457      8164356A 
 457      17710631 
 457      5CD1C2
 458 0427 6DDB95B6 		.ascii	"m\333\225\266\3725\025\354]\333`^\015\330~\026l\262"
 458      FA3515EC 
 458      5DDB605E 
 458      0DD87E16 
 458      6CB2
 459 0439 6DB0561A 		.ascii	"m\260V\032\260\203,\330\014\333`m5`\207Y\260\371\266"
 459      B0832CD8 
 459      0CDB606D 
 459      35608759 
 459      B0F9B6
 460 044c C1FC1AB0 		.ascii	"\301\374\032\260\243,\330b\333`\317j\300\216W\246\357"
 460      A32CD862 
 460      DB60CF6A 
 460      C08E57A6 
 460      EF
 461 045d 7F4DB170 		.ascii	"\177M\261pr\245\374\354\262\026\014?\224\354RB\003G"
 461      72A5FCEC 
 461      B2160C3F 
 461      94EC5242 
 461      0347
 462 046f 8F7B8AE8 		.ascii	"\217{\212\350\312N,{\245N\377\202\242Cgp\035Z[\347\360"
 462      CA4E2C7B 
 462      A54EFF82 
 462      A2436770 
 462      1D5A5BE7 
 463 0484 252E1A1B 		.ascii	"%.\032\033\261/Z\253\247_S\252\021\375\035Y\372\241"
 463      B12F5AAB 
 463      A75F53AA 
 463      11FD1D59 
 463      FAA1
 464 0496 491C7D63 		.ascii	"I\034}c\206\034\033\341P\211Z\317\003\3505\327\310\007"
 464      861C1BE1 
 464      50895ACF 
 464      03E835D7 
 464      C807
 465 04a8 95E39F94 		.ascii	"\225\343\237\224\027|**<\241-\324\270M+<Y\\\207\335"
 465      177C2A2A 
 465      3CA12DD4 
 465      B84D2B3C 
ARM GAS  /tmp/ccikvM4W.s 			page 36


 465      595C87DD 
 466 04bc 522D161F 		.ascii	"R-\026\037K\342\211G\307\023\217\226'\036_\342\202\014"
 466      4BE28947 
 466      C7138F96 
 466      271E5FE2 
 466      820C
 467 04ce A35A12AE 		.ascii	"\243Z\022\256\354\322WBS\256Q%4*R_]yv\2708i\244\274"
 467      ECD25742 
 467      53AE5125 
 467      342A525F 
 467      5D7976B8 
 468 04e6 BBA34AD7 		.ascii	"\273\243J\327\001\036\304V\346ly\257&}bP\005;m\033L"
 468      011EC456 
 468      E66C79AF 
 468      267D6250 
 468      053B6D1B 
 469 04fb ABC13358 		.ascii	"\253\3013X\260\213<`m\315)\233\305\202]\265\015\246"
 469      B08B3C60 
 469      6DCD299B 
 469      C5825DB5 
 469      0DA6
 470 050d A56C0E0B 		.ascii	"\245l\016\013v\233\007\314oN\331<\026\354\201m0-e\253"
 470      769B07CC 
 470      6F4ED93C 
 470      16EC816D 
 470      302D65AB 
 471 0521 59B09112 		.ascii	"Y\260\221\022\007\330\263\346\224\255a\301\306\333\006"
 471      07D8B3E6 
 471      94AD61C1 
 471      C6DB06
 472 0530 63299363 		.ascii	"c)\223c\353j\322\240G`\373\333\205\214k\020\007\223"
 472      EB6AD2A0 
 472      4760FBDB 
 472      858C6B10 
 472      0793
 473 0542 D50EA8DE 		.ascii	"\325\016\250\336v\207{\316\244\303mT\207\225\2220U_"
 473      76877BCE 
 473      A4C36D54 
 473      87959230 
 473      555F
 474 0554 095DC1CA 		.ascii	"\011]\301\312uG\003\236\030}\330n2(\256\027\177\011"
 474      7547039E 
 474      187DD86E 
 474      3228AE17 
 474      7F09
 475 0566 F106F169 		.ascii	"\361\006\361i\210\2531\336\214\361V\214\267c\274\003"
 475      88AB31DE 
 475      8CF1568C 
 475      B763BC03 
 476 0576 E3CF30DE 		.ascii	"\343\3170\336\215\361^\214\3530>\200\361!\214\217`|"
 476      8DF15E8C 
 476      EB303E80 
 476      F1218C8F 
 476      607C
 477 0588 0CE31318 		.ascii	"\014\343\023\030\237\302\370K\214\317B\034\377\2301"
 477      9FC2F84B 
 477      8CCF421C 
ARM GAS  /tmp/ccikvM4W.s 			page 37


 477      FF9831
 478 0597 A4CAC493 		.ascii	"\244\312\304\223\210\273\252\261\024\276tlZeK\331\311"
 478      88BBAAB1 
 478      14BE746C 
 478      5A654BD9 
 478      C9
 479 05a8 E17A07C5 		.ascii	"\341z\007\305\213X\371\324n+\364\222\222\336\366-\325"
 479      8B58F9D4 
 479      6E2BF492 
 479      92DEF62D 
 479      D5
 480 05b9 7BE0DCDE 		.ascii	"{\340\334\336oR\225/\330\363\363&\306\375\274g\024\200"
 480      6F52952F 
 480      D8F3F326 
 480      C6FDBC67 
 480      1480
 481 05cb 2BB6D5EE 		.ascii	"+\266\325\356\033\023\265S\005d\226\357\262\015?Od\315"
 481      1B13B553 
 481      056496EF 
 481      B20D3F4F 
 481      64CD
 482 05dd A5D2A13C 		.ascii	"\245\322\241<<\270\242\003\272y\327\320\315\373X\307"
 482      3CB8A203 
 482      BA79D7D0 
 482      CDFB58C7 
 483 05ed D6943092 		.ascii	"\326\2240\222\260\016\263|\253\367\364&\005\37545\265"
 483      B00EB37C 
 483      ABF7F426 
 483      05FD3435 
 483      B5
 484 05fe 9F376DE1 		.ascii	"\2377m\341\036Q\236\234\236\212\376\005\016\265\340"
 484      1E519E9C 
 484      9E8AFE05 
 484      0EB5E0
 485 060d 1712F437 		.ascii	"\027\022\3647L\331\331\031\351\377\016\351\277\225\232"
 485      4CD9D919 
 485      E9FF0EE9 
 485      BF959A
 486 061c 7E2D0CA1 		.ascii	"~-\014\241\256AO\373\221\032\364R\033\270\250\377r\314"
 486      AE414FFB 
 486      911AF452 
 486      1BB8A8FF 
 486      72CC
 487 062e 7CECC48D 		.ascii	"|\354\304\215\310\207\007D\226u\232\261\213$\374\000"
 487      C8870744 
 487      96759AB1 
 487      8B24FC00 
 488 063e D41A7158 		.ascii	"\324\032qX\363XP\374A\224 ~\250\247r\355\030\244\362"
 488      F35850FC 
 488      4194207E 
 488      A8A772ED 
 488      18A4F2
 489 0651 211795EB 		.ascii	"!\027\225\353j\222y\374Sa\232\242\235\262\030\365\012"
 489      6A9279FC 
 489      53619AA2 
 489      9DB218F5 
 489      0A
ARM GAS  /tmp/ccikvM4W.s 			page 38


 490 0662 63B07D8E 		.ascii	"c\260}\216\226\207\213o\244\036z\216\220\274P\201\261"
 490      96878B6F 
 490      A41E7A8E 
 490      90BC5081 
 490      B1
 491 0673 0ED3B127 		.ascii	"\016\323\261'y@U\\z\255^Y4\274\341\322O\361\312\201"
 491      7940555C 
 491      7AAD5E59 
 491      34BCE1D2 
 491      4FF1CA81 
 492 0687 0E1424BC 		.ascii	"\016\024$\274\224\006Q\377\304\214\236YFY\2127\003I"
 492      940651FF 
 492      C48C9E59 
 492      46598A37 
 492      0349
 493 0699 98E01015 		.ascii	"\230\340\020\025~Yt2\032<\015\257\3445\262\354sSLI\230"
 493      7E597432 
 493      1A3C0DAF 
 493      E435B2EC 
 493      73534C49 
 494 06ae 6D1BCC6F 		.ascii	"m\033\314o\016\266\214\007\314\334a\324\202\255\266"
 494      0EB68C07 
 494      CCDC61D4 
 494      82ADB6
 495 06bd 0D664099 		.ascii	"\015f@\231\271BPa\2311|\202\201\244\224k~o\266a\366"
 495      B9425061 
 495      99317C82 
 495      81A4946B 
 495      7E6FB661 
 496 06d2 E73B4418 		.ascii	"\347;D\030\013\300\017\223%\342\036\324;\264\315\227"
 496      0BC00F93 
 496      25E21ED4 
 496      3BB4CD97 
 497 06e2 1F6AEDFC 		.ascii	"\037j\355\374-\177@;0\015\201\3469\177\274kl\377q\205"
 497      2D7F403B 
 497      300D81E6 
 497      397FBC6B 
 497      6CFF7185 
 498 06f6 01C6DD64 		.ascii	"\001\306\335d\312)\247\206\331\037\377w\254\302,\254"
 498      CA29A786 
 498      D91FFF77 
 498      ACC22CAC 
 499 0706 C2874E43 		.ascii	"\302\207NC^p\000\255\235?\357E\004\232\213@UI\274\260"
 499      5E7000AD 
 499      9D3FEF45 
 499      049A8B40 
 499      5549BCB0 
 500 071a 395765E7 		.ascii	"9We\347Y3}\231\231h\240\254\326\020\261\343\005G\033"
 500      59337D99 
 500      9968A0AC 
 500      D610B1E3 
 500      05471B
 501 072d 7F976DE3 		.ascii	"\177\227m\343\233\235\034\312o>\306\200~\343z\247\231"
 501      9B9D1CCA 
 501      6F3EC680 
 501      7EE37AA7 
 501      99
ARM GAS  /tmp/ccikvM4W.s 			page 39


 502 073e 726C94A3 		.ascii	"rl\224\243\251\015`\221y\003\210W\313R\037\314\335\246"
 502      A90D6091 
 502      79038857 
 502      CB521FCC 
 502      DDA6
 503 0750 A0385BFA 		.ascii	"\2408[\372e\323Y\275\354\307\263\372\003\226\3251\333"
 503      65D359BD 
 503      ECC7B3FA 
 503      0396D531 
 503      DB
 504 0761 ACF6B3AC 		.ascii	"\254\366\263\254\326\032\255]<`\346#\260\037g\264V\233"
 504      D61AAD5D 
 504      3C60E623 
 504      B01F67B4 
 504      569B
 505 0773 CBCCB0F7 		.ascii	"\313\314\260\367\356\302\030\235.\254EU\032\332\372"
 505      EEC2189D 
 505      2EAC4555 
 505      1ADAFA
 506 0782 AF6F78B0 		.ascii	"\257ox\260\241}\"\021\347\243\322e\350|\230\303\020"
 506      A17D2211 
 506      E7A3D265 
 506      E87C98C3 
 506      10
 507 0793 123648BA 		.ascii	"\0226H\272n\275!\344\247\251\251;\365{\213\261SW\255"
 507      6EBD21E4 
 507      A7A9A93B 
 507      F57B8BB1 
 507      5357AD
 508 07a6 E77B583E 		.ascii	"\347{X>\311\332\244~/v?D\306\360\024k\276m,\277\021"
 508      C9DAA47E 
 508      2F763F44 
 508      C6F0146B 
 508      BE6D2CBF 
 509 07bb A142522D 		.ascii	"\241BR-\203\342FT\356j\011\3076\022\307\010d\255F\241"
 509      83E24654 
 509      EE6A09C7 
 509      3612C708 
 509      64AD46A1 
 510 07cf B9       		.ascii	"\271"
 511 07d0 147815AB 		.ascii	"\024x\025\253\300K]vuN_\027U\020A\261\021\007Nc\220"
 511      C04B5D76 
 511      754E5F17 
 511      551041B1 
 511      11074E63 
 512 07e5 F8B1188F 		.ascii	"\370\261\030\217\303\370\035\214\337\307x\005\306+y"
 512      C3F81D8C 
 512      DFC77805 
 512      C62B79
 513 07f4 AA765F64 		.ascii	"\252v_d\350\\\215t64\325o\251o8\324\320i\272\034\033"
 513      E85C8D74 
 513      3634D56F 
 513      A96F38D4 
 513      D069BA1C 
 514 0809 EEF00895 		.ascii	"\356\360\010\225\324\227\033\221\252\253\000\015v\243"
 514      D4971B91 
 514      AAAB000D 
ARM GAS  /tmp/ccikvM4W.s 			page 40


 514      76A3
 515 0817 06C7240F 		.ascii	"\006\307$\017P\360\211N\2039\200H->\203\314\032\035"
 515      50F0894E 
 515      83398048 
 515      2D3E83CC 
 515      1A1D
 516 0829 AE7ED34F 		.ascii	"\256~\323OS-t\030\033\236$lw\321\361\204\323\227H\333"
 516      532D7418 
 516      1B9E246C 
 516      77D1F184 
 516      D39748DB 
 517 083d 9B481399 		.ascii	"\233H\023\231G\017%\222%&\371L\"\331\301$_O$;\231\344"
 517      470F2592 
 517      2526F94C 
 517      22D9C124 
 517      5F4F243B 
 518 0853 C644B28B 		.ascii	"\306D\262\213I\036\353\216'\273\231\344i\211d\017\223"
 518      491EEB8E 
 518      27BB99E4 
 518      6989640F 
 518      93
 519 0864 BC3091EC 		.ascii	"\2740\221\354e$b\331q&\230\024\024wb\023\370\\r\030"
 519      652462D9 
 519      71269814 
 519      14776213 
 519      F85C7218 
 520 0878 66836198 		.ascii	"f\203a\230[\247\011\266\246me\324\204\341\244wSG\254"
 520      5BA709B6 
 520      A66D65D4 
 520      84E1A477 
 520      5347AC
 521 088b 64F4491A 		.ascii	"d\364I\032\266\341\030\216PwB\262;b=)\031\217X\023\363"
 521      B6E1188E 
 521      507742B2 
 521      3B623D29 
 521      198F5813 
 522 08a0 246BF5B5 		.ascii	"$k\365\265\320\026\233\312\335\305ib\322s\020\332$a"
 522      D0169BCA 
 522      DDC56962 
 522      D27310DA 
 522      2461
 523 08b2 03175AAA 		.ascii	"\003\027Z\252\256C\265o\233\365h6g\265\032\306\314\345"
 523      AE43B56F 
 523      9BF56836 
 523      67B51AC6 
 523      CCE5
 524 08c4 1DF5BDA6 		.ascii	"\035\365\275\246\302\245\307\333]\354\336.\321o0\362"
 524      C2A5C7DB 
 524      5DECDE2E 
 524      D16F30F2 
 525 08d4 D33C1A14 		.ascii	"\323<\032\024/\200\232\244z\012\247M\364}\310v\272\314"
 525      2F809AA4 
 525      7A0AA74D 
 525      F47DC876 
 525      BACC
 526 08e6 7291AB17 		.ascii	"r\221\253\0279Vi^\025\315\2604>p\356\030\257H\375\214"
 526      3956695E 
ARM GAS  /tmp/ccikvM4W.s 			page 41


 526      15CDB034 
 526      3E70EE18 
 526      AF48FD8C 
 527 08fa 3B37FE1D 		.ascii	";7\376\035\015\310\025\354\002\307zR\317\037h`\202\342"
 527      0DC815EC 
 527      02C77A52 
 527      CF1F6860 
 527      82E2
 528 090c 55898C6E 		.ascii	"U\211\214n\257\351\253\360\375l\254\3025\256*<<5\357"
 528      AFE9ABF0 
 528      FD6CACC2 
 528      35AE2A3C 
 528      3C35EF
 529 091f 09B93E26 		.ascii	"\011\271>&\362\033\276c\367c\355F\342\310\343[\264|"
 529      F21BBE63 
 529      F763ED46 
 529      E2C8E35B 
 529      B47C
 530 0931 BB3C4DB2 		.ascii	"\273<M\262|\267\364\226o\035\231\353\242\351\251m\337"
 530      7CB7F496 
 530      6F1D99EB 
 530      A2E9A96D 
 530      DF
 531 0942 014FB2ED 		.ascii	"\001O\262\355;\3551\264}\027=\206\266\357[\217\241\355"
 531      3BED31B4 
 531      7D173D86 
 531      B6EF5B8F 
 531      A1ED
 532 0954 BBEFD1DA 		.ascii	"\273\357\321\332>\201\303>\335b\354\323m\264O\337\231"
 532      3E81C33E 
 532      DD62ECD3 
 532      6DB44FDF 
 532      99
 533 0965 D8A7A078 		.ascii	"\330\247\240x,.3^\373\244\221W\375\314;\373\207m\203"
 533      2C2E335E 
 533      FBA49157 
 533      FDCC3BFB 
 533      876D83
 534 0978 F638D6DD 		.ascii	"\3668\326\335\304\366s\352\024O\373\031\356\340k?#\035"
 534      C4F673EA 
 534      144FFB19 
 534      EEE06B3F 
 534      231D
 535 098a 3AE59B7E 		.ascii	":\345\233~\012\225\217\244\247V\276\371\247\346%\267"
 535      0A958FA4 
 535      A756BEF9 
 535      A7E625B7 
 536 099a 1F9D57FA 		.ascii	"\037\235W\372\227\237\230\332\3211\016\235SzY\342\230"
 536      979F98DA 
 536      D1310E9D 
 536      537A59E2 
 536      98
 537 09ab F450F8F0 		.ascii	"\364P\370\360p\326\343\204\320J\007\361\255\307x\265"
 537      70D6E384 
 537      D04A07F1 
 537      ADC778B5 
 538 09bb 3AAC2188 		.ascii	":\254!\210\026dF\3048G\232I=\223~\203N\021\313!\314"
ARM GAS  /tmp/ccikvM4W.s 			page 42


 538      166446C4 
 538      38479A49 
 538      3D937E83 
 538      4E11CB21 
 539 09d0 699A9F59 		.ascii	"i\232\237Ym\3040\0039\325\307\347\301\236\213\327\270"
 539      6DC43003 
 539      39D5C7E7 
 539      C19E8BD7 
 539      B8
 540 09e1 FEDEFBE7 		.ascii	"\376\336\373\3472h\303\235\340 \026\347\2747\245\305"
 540      3268C39D 
 540      E02016E7 
 540      BC37A5C5 
 541 09f1 D1E2E058 		.ascii	"\321\342\340XH/\360\265\265(\360\311\251\005>jdlC\355"
 541      482FF0B5 
 541      B528F0C9 
 541      A9053E6A 
 541      646C43ED 
 542 0a05 9CC4B2DD 		.ascii	"\234\304\262\335H\313\331\211\2408\005\233\022\317B"
 542      48CBD989 
 542      A038059B 
 542      12CF42
 543 0a14 DCB75893 		.ascii	"\334\267X\223\311Mc+\220\265\261\026\027Z\2469\210\211"
 543      C94D632B 
 543      90B5B116 
 543      175AA639 
 543      8889
 544 0a26 F8DE3698 		.ascii	"\370\3366\230_\003\266\211\005\373\201\007\314\254\037"
 544      5F03B689 
 544      05FB8107 
 544      CCAC1F
 545 0a35 07B02D2C 		.ascii	"\007\260-,\330(\237]0-e\333X\260\267y\300\314\246\001"
 545      D8289F5D 
 545      302D65DB 
 545      58B0B779 
 545      C0CCA601 
 546 0a49 006C3F0B 		.ascii	"\000l?\013\366\256m0\226\262\341\261\263\265{\311p\354"
 546      F6AE6D30 
 546      96B2E1B1 
 546      B3B57BC9 
 546      70EC
 547 0a5b 3161B22C 		.ascii	"1a\262,\017\227\027\270\315\224B\020\360\021\331\362"
 547      0F9717B8 
 547      CD944210 
 547      F011D9F2 
 548 0a6b 1118843B 		.ascii	"\021\030\204;\036\323*\351\241q-\210\222\222\364\324"
 548      1ED32AE9 
 548      A1712D88 
 548      9292F4D4 
 549 0a7b 56E988A2 		.ascii	"V\351\210\242\244\252\3033\031+G\3626\245\321\312\261"
 549      A4AAC333 
 549      192B47F2 
 549      36A5D1CA 
 549      B1
 550 0a8c 2F6BD3E4 		.ascii	"/k\323\344\267\323\343C\332e\026\204/\323\267\256c\265"
 550      B7D3E343 
 550      DA651684 
ARM GAS  /tmp/ccikvM4W.s 			page 43


 550      2FD3B7AE 
 550      63B5
 551 0a9e 929F26A7 		.ascii	"\222\237&\247\246\373D\355\234\266\362\202\035\"\377"
 551      A6FB44ED 
 551      9CB6F282 
 551      1D22FF
 552 0aad 3E8186D9 		.ascii	">\201\206\331\033\236C\027\344#\224\342T\237\341\274"
 552      1B9E4317 
 552      E42394E2 
 552      549FE1BC 
 553 0abd 1907D0DA 		.ascii	"\031\007\320\332\371K\351\034\342J\004\232\253\003\262"
 553      F94BE91C 
 553      E24A049A 
 553      AB03B2
 554 0acc BFE5C0D6 		.ascii	"\277\345\300\326\303\222\260\014\013\\\226\320\277\224"
 554      C392B00C 
 554      0B5C96D0 
 554      BF94
 555 0ada FB1334AC 		.ascii	"\373\0234\254\253\277\373\376\225\016\312\376\004\312"
 555      ABBFFBFE 
 555      950ECAFE 
 555      04CA
 556 0ae8 8A15B601 		.ascii	"\212\025\266\001[\351\204\"\011k\232\2527L\325\325\301"
 556      5BE98422 
 556      096B9AAA 
 556      374CD5D5 
 556      C1
 557 0af9 F3620719 		.ascii	"\363b\007\031\030/u<\315\026\360\011O\2533s\353\241"
 557      182F753C 
 557      CD16F009 
 557      4FAB3373 
 557      EBA1
 558 0b0b 09DF609B 		.ascii	"\011\337`\233p\265m0\277\006\354\026\013\266\215\007"
 558      70B56D30 
 558      BF06EC16 
 558      0BB68D07 
 559 0b1b CC6F4ED9 		.ascii	"\314oN\331w,\330g\266\301\264\224\335a\301v\363\200"
 559      772CD867 
 559      B6C1B494 
 559      DD61C176 
 559      F380
 560 0b2d 198D5E8C 		.ascii	"\031\215^\214>lw\010\375\225\203\364WSQR\3231\236\211"
 560      3E6C7708 
 560      FD9583F4 
 560      57535152 
 560      D3319E89 
 561 0b41 F16C8CE7 		.ascii	"\361l\214\347b<\037\343\205\030\257\307x#\306\2330\336"
 561      623C1FE3 
 561      8518AFC7 
 561      7823C69B 
 561      30DE
 562 0b53 C2CAD7C2 		.ascii	"\302\312\327\302wi\230\214\373{\336E\337\345\037>K\337"
 562      7769988C 
 562      FB7BDE45 
 562      DFE51F3E 
 562      4BDF
 563 0b65 65824955 		.ascii	"e\202IU\011\3651\013\337%\246\367]\216\371\354\372."
ARM GAS  /tmp/ccikvM4W.s 			page 44


 563      09F5310B 
 563      DF25A6F7 
 563      5D8EF9EC 
 563      FA2E
 564 0b77 8C18D073 		.ascii	"\214\030\320s\215\225m]-\313\243\335j#;\243G\264\271"
 564      8D956D5D 
 564      2DCBA3DD 
 564      6A233BA3 
 564      47B4B9
 565 0b8a 09E8F8EC 		.ascii	"\011\350\370\354\364\375\257\251`_\331\006\323\267X"
 565      F4FDAFA9 
 565      605FD906 
 565      D3B758
 566 0b99 558EA350 		.ascii	"U\216\243P\216\243Q\"\357`\374)\306;\265\255\357r\222"
 566      8EA35122 
 566      EF60FC29 
 566      C63BB5AD 
 566      EF7292
 567 0bac 91A34E2F 		.ascii	"\221\243N/\203\227\360\216\205\324\210fBjd'\344na\241"
 567      8397F08E 
 567      85D48866 
 567      426A6427 
 567      E46E61A1 
 568 0bc0 D7EC4F2E 		.ascii	"\327\354O.\252\233]\316@[H\271\\\354T\221\262\342:W"
 568      AA9B5DCE 
 568      405B48B9 
 568      5CEC5491 
 568      B2E23A57 
 569 0bd4 7F7BD58E 		.ascii	"\177{\325\216\266\233d\271UP\334\213\336\343\232f\251"
 569      B69B64B9 
 569      5550DC8B 
 569      DEE39A66 
 569      A9
 570 0be5 D78B3538 		.ascii	"\327\21358\222\260\031\263|\241\353\343\352g\257?\367"
 570      92B019B3 
 570      7CA1EBE3 
 570      EA67AF3F 
 570      F7
 571 0bf6 B31988FC 		.ascii	"\263\031\210\374\005W?\367\300h\324M\3112\343\341\001"
 571      05573FF7 
 571      C068D44D 
 571      C932E3E1 
 571      01
 572 0c07 BD32DF8F 		.ascii	"\2752\337\217\223\3224G\374\321.\264)\007\260\005\016"
 572      93D23447 
 572      FCD12EB4 
 572      2907B005 
 572      0E
 573 0c18 4FB30BA6 		.ascii	"O\263\013\246\025\312\224\232967\263Um\272\362\344V"
 573      15CA949A 
 573      393637B3 
 573      556DBAF2 
 573      E456
 574 0c2a 64D95154 		.ascii	"d\331QT\376\003iz]T\326,\022\272\310\343G\237\340\251"
 574      FE03697A 
 574      5D54D62C 
 574      12BAC8E3 
ARM GAS  /tmp/ccikvM4W.s 			page 45


 574      479FE0A9 
 575 0c3e 88F9AC13 		.ascii	"\210\371\254\023H\362\300S\32588U\275\035S7M\022\352"
 575      48F2C053 
 575      D5383855 
 575      BD1D5337 
 575      4D12EA
 576 0c51 B1B0537A 		.ascii	"\261\260Szm\250\332~\3407T\033Nqi\303\206\332\351\\"
 576      6DA8DA7E 
 576      E037541B 
 576      4E7169C3 
 576      86DAE95C 
 577 0c65 43A2056E 		.ascii	"C\242\005n\265\370B,\376\375tR|\275\276\370\255\027"
 577      B5F8422C 
 577      FEFD7452 
 577      7CBDBEF8 
 577      AD17
 578 0c77 AEFC8516 		.ascii	"\256\374\205\026_\317U\374\331\272\251F\312h2jU\305"
 578      5FCF55FC 
 578      D9BAA946 
 578      CA68326A 
 578      55C5
 579 0c89 B7FDE6B3 		.ascii	"\267\375\346\263\363\261\220\257P\201\256\245\353\305"
 579      F3B190AF 
 579      5081AEA5 
 579      EBC5
 580 0c97 F7123B6F 		.ascii	"\367\022;o/(\253\371\214\376~\037\247\276I\372\013\325"
 580      2F28ABF9 
 580      8CFE7E1F 
 580      A7BE49FA 
 580      0BD5
 581 0ca9 DCF1D287 		.ascii	"\334\361\322\207()\225\206{\266\021\265J|\253\016[\004"
 581      28299586 
 581      7BB611B5 
 581      4A7CAB0E 
 581      5B04
 582 0cbb 057BC803 		.ascii	"\005{\310\003fa\331\277c\301\2067\267\013\246\245\354"
 582      6661D9BF 
 582      63C18637 
 582      B70BA6A5 
 582      EC
 583 0ccc 0E0B369A 		.ascii	"\016\0136\232\007\314b\207\345]\026l\254m0-e\367Y\260"
 583      07CC6287 
 583      E55D166C 
 583      AC6D302D 
 583      65F759B0 
 584 0ce0 7778C02C 		.ascii	"wx\300,vX\376\300\202M\262\015\246\245\354\021\0136"
 584      7658FEC0 
 584      824DB20D 
 584      A6A5EC11 
 584      0B36
 585 0cf2 8D07CC6F 		.ascii	"\215\007\314oN\331\304\203\014\330L\333`Z\312&\263`"
 585      4ED9C483 
 585      0CD84CDB 
 585      605ACA26 
 585      B360
 586 0d04 7379C02C 		.ascii	"sy\300,\346\242\247\262`\013m\203i){\217\005[\314\003"
 586      E6A2A7B2 
ARM GAS  /tmp/ccikvM4W.s 			page 46


 586      600B6D83 
 586      69297B8F 
 586      055BCC03 
 587 0d18 66B4CF51 		.ascii	"f\264\317Q\335|\313\202}h\033LK\331,\026\354c\036\260"
 587      DD7CCB82 
 587      7D681B4C 
 587      4BD92C16 
 587      EC631EB0 
 588 0d2c 17CD299B 		.ascii	"\027\315)\233\303\202U\331\006\323R\266\232\005[\307"
 588      C38255D9 
 588      06D352B6 
 588      9A055BC7 
 589 0d3c 03D6C59C 		.ascii	"\003\326\305\234\2625,\330F\333`Z\312>a\3016\363\200"
 589      B2352CD8 
 589      46DB605A 
 589      CA3E61C1 
 589      36F380
 590 0d4f F534A76C 		.ascii	"\3654\247l=\013\266\3156\230\226\262\215,\330\016\036"
 590      3D0BB6CD 
 590      369896B2 
 590      8D2CD80E 
 590      1E
 591 0d60 B07EE694 		.ascii	"\260~\346\224mb\301v\332\006\323R\266\205\005\253\341"
 591      6D62C176 
 591      DA06D352 
 591      B68505AB 
 591      E1
 592 0d71 01FB9B39 		.ascii	"\001\373\2339e\333X\260Z\333`Z\312\366\263`u<`\257\031"
 592      65DB58B0 
 592      5ADB605A 
 592      CAF6B360 
 592      753C60AF 
 593 0d86 5016FF98 		.ascii	"P\026\377\230\371\231g\035\214\257~\260\271\352\340"
 593      F999671D 
 593      8CAF7EB0 
 593      B9EAE0
 594 0d95 D8ECA385 		.ascii	"\330\354\243\205\004\306\321\346v=2M\275\211o\375\324"
 594      04C6D1E6 
 594      763D324D 
 594      BD896FFD 
 594      D4
 595 0da6 26A59FA7 		.ascii	"&\245\237\247\316\352i\036D\213\016P\331\310O\301\276"
 595      CEEA691E 
 595      448B0E50 
 595      D9C84FC1 
 595      BE
 596 0db7 B20DA653 		.ascii	"\262\015\246S\345\032\375p\204k\223\3172\316\315\316"
 596      E51AFD70 
 596      846B93CF 
 596      32CECDCE 
 597 0dc7 66629AEF 		.ascii	"fb\232\357d\304t\215\247\016\026\375\356\331\2329\270"
 597      64C4748D 
 597      A70E16FD 
 597      EED99A39 
 597      B8
 598 0dd8 82C6BFCB 		.ascii	"\202\306\277\313\254j\323\001\305{\377\000\027\245n"
 598      AC6AD301 
ARM GAS  /tmp/ccikvM4W.s 			page 47


 598      C57BFF00 
 598      17A56E
 599 0de7 37D7BB7F 		.ascii	"7\327\273\177\263\364\336{\212\015M\222\360\203\276"
 599      B3F4DE7B 
 599      8A0D4D92 
 599      F083BE
 600 0df6 1646EB4A 		.ascii	"\026F\353J\346\035>(\312\211\366\325+ey\244\333N=\366"
 600      E61D3E28 
 600      CA89F6D5 
 600      2B6579A4 
 600      DB4E3DF6 
 601 0e0a 28F55886 		.ascii	"(\365X\206\365\030\325\342\307\327c|\013\273\365xVW"
 601      F518D5E2 
 601      C7D7637C 
 601      0BBBF578 
 601      5657
 602 0e1c 8F1DCFDA 		.ascii	"\217\035\317\332\257\307\011\245\036\037c=\246\376\023"
 602      AFC709A5 
 602      1E1F633D 
 602      A6FE13
 603 0e2b EA31C776 		.ascii	"\3521\307v=\3307\246p(\325\201\016\245\270f\274\327"
 603      3DD837A6 
 603      7028D581 
 603      0EA5B866 
 603      BCD7
 604 0e3d 387533DE 		.ascii	"8u3\336'\366\212~\232\234j\014#\307\032\3662\343O\231"
 604      27F68A7E 
 604      9A9C6A0C 
 604      23C71AF6 
 604      32E34F99 
 605 0e51 6FFC7953 		.ascii	"o\374yS\341\330:\344\330\007:\216\361#5\234\332Y\245"
 605      E1D83AE4 
 605      D8073A8E 
 605      F123359C 
 605      DA59A5
 606 0e64 6C64DD88 		.ascii	"ld\335\210P\0376\031j\355\331\015t\363\346f\004\252"
 606      501F3619 
 606      6AEDD90D 
 606      74F3E666 
 606      04AA
 607 0e76 4A92A25B 		.ascii	"J\222\242['D\267V\210pKJ\272K\206\303\342\337\225\024"
 607      2744B756 
 607      88704B4A 
 607      BA4B86C3 
 607      E2DF9514 
 608 0e8a 72E311FE 		.ascii	"r\343\021\376\277\347\003\227\003\311'\002\264\331{"
 608      BFE70397 
 608      03C92702 
 608      B4D97B
 609 0e99 2414E8B9 		.ascii	"$\024\350\271j\305\362S!}\372\243\020G\304\326\216\233"
 609      6AC5F253 
 609      217DFAA3 
 609      1047C4D6 
 609      8E9B
 610 0eab ABAC8BBC 		.ascii	"\253\254\213\274\204]\362\217\204;Pk\177\326cG;\252"
 610      845DF28F 
 610      843B506B 
ARM GAS  /tmp/ccikvM4W.s 			page 48


 610      7FD66347 
 610      3BAA
 611 0ebd 753BB142 		.ascii	"u;\261B\007\223$\334\244Y\2173M\255H\374#\011\027\365"
 611      079324DC 
 611      A4598F33 
 611      4DAD48FC 
 611      230917F5 
 612 0ed1 CDDDD610 		.ascii	"\315\335\326\020\211H\353^\007\316\231\223\370|\334"
 612      8948EB5E 
 612      07CE9993 
 612      F87CDC
 613 0ee0 95B6BBE9 		.ascii	"\225\266\273\351|\234\223\314\307]\3211\203c\006\346"
 613      7C9C93CC 
 613      C75DD131 
 613      836306E6 
 614 0ef0 2E25DA99 		.ascii	".%\332\2314\037w\340Ie>\316\3115\003S\251\352\005\235"
 614      341F77E0 
 614      49653ECE 
 614      C9350353 
 614      A9EA059D 
 615 0f04 663BE890 		.ascii	"f;\350\220\024\330\246\362S#\302\004}A\261\316I:\376"
 615      14D8A6F2 
 615      5323C204 
 615      7D41B1CE 
 615      493AFE
 616 0f17 FD4ECD44 		.ascii	"\375N\315D\354[-\355\362\336\317\362>\366\240v\216H"
 616      EC5B2DED 
 616      F2DECFF2 
 616      3EF6A076 
 616      8E48
 617 0f29 E8379834 		.ascii	"\3507\2304\352\302\272Xq\306\237{r\017\262\347\0202"
 617      EAC2BA58 
 617      71C69F7B 
 617      720FB2E7 
 617      1032
 618 0f3b 7E724B9B 		.ascii	"~rK\233{W%\341}\314r4\231\361{\332Q\306\037\345b\374"
 618      7B5725E1 
 618      7DCC7234 
 618      99F17BDA 
 618      51C61FE5 
 619 0f51 1143C61F 		.ascii	"\021C\306\037\265\317\370\247\325W\226\343\256]P<l\033"
 619      B5CFF8A7 
 619      D55796E3 
 619      AE5D503C 
 619      6C1B
 620 0f63 CC6F25C5 		.ascii	"\314o%\305\243\214\024\217\243\024O8\311\024\370I\255"
 620      A38C148F 
 620      A3144F38 
 620      C914F849 
 620      AD
 621 0f74 2CD7EA65 		.ascii	",\327\352e\251\341\234ri:\240\227cS\366\251k\267\324"
 621      A9E19C72 
 621      693AA097 
 621      6353F6A9 
 621      6BB7D4
 622 0f87 E66DE3D1 		.ascii	"\346m\343\321\015\213a\370\274}\310\022jov\332\006\363"
 622      0D8B61F8 
ARM GAS  /tmp/ccikvM4W.s 			page 49


 622      BC7DC812 
 622      6A6F76DA 
 622      06F3
 623 0f99 6BC0B6BE 		.ascii	"k\300\266\276\313\271]"
 623      CBB95D
 624 0fa0 4CF79E58 		.ascii	"L\367\236X\035\226{^\257.\247\036\035\030#\016\307\256"
 624      1D967B5E 
 624      AF2EA71E 
 624      1D18230E 
 624      C7AE
 625 0fb2 F33C87BE 		.ascii	"\363<\207\276@?\177\321\207{\236\251\336\216m\245\242"
 625      403F7FD1 
 625      877B9EA9 
 625      DE8E6DA5 
 625      A2
 626 0fc3 5AB0DA42 		.ascii	"Z\260\332B[\036\\Q\266P\323\241\300$=\\\312\221\212"
 626      5B1E5C51 
 626      B650D3A1 
 626      C0243D5C 
 626      CA918A
 627 0fd6 16EE5168 		.ascii	"\026\356Qhw\307\246\274\207\027;UM<\235\253X\247\231"
 627      77C7A6BC 
 627      87173B55 
 627      4D3C9DAB 
 627      58A799
 628 0fe9 ADF43D02 		.ascii	"\255\364=\002\345\014\243\210\347\031E\374\012\025\361"
 628      E50CA388 
 628      E71945FC 
 628      0A15F1
 629 0ff8 222AE225 		.ascii	"\"*\342%\214\257\260\352"
 629      8CAFB0EA 
 630 1000 68E66C7D 		.ascii	"h\346l}\303\016\037\026\332\256\267_'\035\263b\316\261"
 630      C30E1F16 
 630      DAAEB75F 
 630      271DB362 
 630      CEB1
 631 1012 C52C6BC5 		.ascii	"\305,k\305\241{\346\2636\304\250\377Qu\007\350\232\301"
 631      A17BE6B3 
 631      36C4A8FF 
 631      517507E8 
 631      9AC1
 632 1024 1ADB885A 		.ascii	"\032\333\210Zm\276\371\256\306\035\330\312\003\327\305"
 632      6DBEF9AE 
 632      C61DD8CA 
 632      03D7C5
 633 1033 8040A30F 		.ascii	"\200@\243\017\273J\004V\037\027\344\366\343\222\331"
 633      BB4A0456 
 633      1F17E4F6 
 633      E392D9
 634 1042 218C8F60 		.ascii	"!\214\217`|\022\343Y(\2709\030\317\303\370}\214\227"
 634      7C12E359 
 634      28B83918 
 634      CFC3F87D 
 634      8C97
 635 1054 62BC02E3 		.ascii	"b\274\002\343*\214\367`|\020\343\323\030\237\301\270"
 635      2A8CF760 
 635      7C10E3D3 
ARM GAS  /tmp/ccikvM4W.s 			page 50


 635      189FC1B8 
 636 1064 1EE31B18 		.ascii	"\036\343\033\030\337J\245\000J/0{\311\311\247V\240\255"
 636      DF4AA500 
 636      4A2F307B 
 636      C9C9A756 
 636      A0AD
 637 1076 DE4367BC 		.ascii	"\336Cg\274\2234\357\200C7\207\237\264\0105\2615\307"
 637      9334EF80 
 637      4337879F 
 637      B40835B1 
 637      35C7
 638 1088 629EC572 		.ascii	"b\236\305r\313\314;\227\337\334:\202\312\364*\252\365"
 638      CBCC3B97 
 638      DFDC3A82 
 638      CAF42AAA 
 638      F5
 639 1099 05A76E77 		.ascii	"\005\247nwa\352}\303Z\241~9\317\374\225L\315jJ|c\330"
 639      61EA7DC3 
 639      5AA17E39 
 639      CFFC954C 
 639      CD6A4A7C 
 640 10af 2F123C39 		.ascii	"/\022<9\273\374\344\377\245\033\314\356ck<\324:\365"
 640      BBFCE4FF 
 640      A51BCCEE 
 640      636B3CD4 
 640      3AF5
 641 10c1 12A10687 		.ascii	"\022\241\006\207p\351\241\316\314\305n\236\241/k\246"
 641      70E9A1CE 
 641      CCC56E9E 
 641      A12F6BA6 
 642 10d1 3671A346 		.ascii	"6q\243F\306\276?3UQJ\272\334\177\026Ix\330\264.\221"
 642      C6BE3F33 
 642      55514ABA 
 642      DC7F1649 
 642      78D8B42E 
 643 10e6 EC1D38C3 		.ascii	"\354\0358\303\354\035\270`\033\314\257\001\273\313\202"
 643      EC1DB860 
 643      1BCCAF01 
 643      BBCB82
 644 10f5 5DE201B3 		.ascii	"]\342\001\263\330\031v\237\005\373\3066\230\226\262"
 644      D819769F 
 644      05FBC636 
 644      9896B2
 645 1104 1F58B0EB 		.ascii	"\037X\260\353<`\026;\303\036\261`\267m\203i)\233x\226"
 645      3C60163B 
 645      C31EB160 
 645      B76D8369 
 645      299B7896 
 646 1118 01BBCF03 		.ascii	"\001\273\317\003f\261\341e2\0136\274\215]0-eSY\260\261"
 646      66B1E165 
 646      320B36BC 
 646      8D5D302D 
 646      655359B0 
 647 112d 3C607E03 		.ascii	"<`~\003\312\214>l#\010\212\217\260\223jD\3534\334E\342"
 647      CA8C3E6C 
 647      23088A8F 
 647      B0936A44 
ARM GAS  /tmp/ccikvM4W.s 			page 51


 647      EB34DC45 
 648 1142 91188FC6 		.ascii	"\221\030\217\306x\014\306c1\036\207\361;\030Opqtd\367"
 648      780CC663 
 648      311E87F1 
 648      3B184F70 
 648      717464F7 
 649 1156 D81E6642 		.ascii	"\330\036fB\033\016kd1\2034\363\316\376\377\363cv&\327"
 649      1B0E6B64 
 649      318334F3 
 649      CEFEFFF3 
 649      637626D7 
 650 116a 1F5BB3F7 		.ascii	"\037[\263\367\317\304|\244\336\235<\315\305\267;y\272"
 650      CFC47CA4 
 650      DE9D3CCD 
 650      C5B73B79 
 650      BA
 651 117b 4BBF357E 		.ascii	"K\2775~\037\332\022\222\236\332\275n\340t\327b\"\313"
 651      1FDA1292 
 651      9EDABD6E 
 651      E074D762 
 651      22CB
 652 118d 9DB82DDC 		.ascii	"\235\270-\334\373\027j\013g\273\210-<\331&\245-\324"
 652      FB176A0B 
 652      67BB882D 
 652      3CD926A5 
 652      2DD4
 653 119f E210FAE6 		.ascii	"\342\020\372\346\351\351_[\207\364\317KM?\331l[\247"
 653      E9E95F5B 
 653      87F4CF4B 
 653      4D3FD96C 
 653      5BA7
 654 11b1 B585D791 		.ascii	"\265\205\327\221\004\222\267i\266pc\035\243\3607l\203"
 654      0492B769 
 654      B670631D 
 654      A3F0376C 
 654      83
 655 11c2 F935609B 		.ascii	"\3715`\233X\260\357y\300\254v\311\262`\367l\203i)\333"
 655      58B0EF79 
 655      C0AC76C9 
 655      B260F76C 
 655      836929DB 
 656 11d6 C6823DE2 		.ascii	"\306\202=\342\001\263\332%\313\202\215|\314.\230\337"
 656      01B3DA25 
 656      CB828D7C 
 656      CC2E98DF 
 657 11e6 48BC4292 		.ascii	"H\274B\222v\004\305\371.b$\026`\323\177\037\343E\030"
 657      7604C5F9 
 657      2E622416 
 657      60D37F1F 
 657      E34518
 658 11f9 2FC17819 		.ascii	"/\301x\031\306\313yL\302,\027c\022\306 \301\323\233"
 658      C6CB794C 
 658      C22C1763 
 658      12C620C1 
 658      D39B
 659 120b A6316012 		.ascii	"\2461`\022\216\2559\377\247M\311&\201\362\303\214\202"
 659      8EAD39FF 
ARM GAS  /tmp/ccikvM4W.s 			page 52


 659      A74DC926 
 659      81F2C38C 
 659      82
 660 121c 952C05EF 		.ascii	"\225,\005\357\332\246\300\317R\020{\260\217N\316\253"
 660      DAA6C0CF 
 660      52107BB0 
 660      8F4ECEAB 
 661 122c AF864FD1 		.ascii	"\257\206O\321\343\031M\313Z\215R\366\341\251^\024l\226"
 661      E3194DCB 
 661      5A8D52F6 
 661      E1A95E14 
 661      6C96
 662 123e 6D30ED49 		.ascii	"m0\355Ih\023\353\030\260E\266\301\314\366\257\315@]"
 662      6813EB18 
 662      B045B6C1 
 662      CCF6AFCD 
 662      405D
 663 1250 988932FF 		.ascii	"\230\2112\377\030\343\325\030\257\301\370\023V\013$"
 663      18E3D518 
 663      AFC1F813 
 663      560B24
 664 125f E1A3C7F4 		.ascii	"\341\243\307\364~+5\216\014j\302\212\012\274\270f\262"
 664      7E2B358E 
 664      0C6AC28A 
 664      0ABCB866 
 664      B2
 665 1270 9DC2CA76 		.ascii	"\235\302\312v\333c\034\035\216\337\\\273f\336\271\241"
 665      DB631C1D 
 665      8EDF5CBB 
 665      66DEB9A1 
 666 1280 74381418 		.ascii	"t8\024\030\006\350\266\021\265\3322\355\354<\315\316"
 666      06E8B611 
 666      B5DA32ED 
 666      EC3CCDCE 
 667 1290 EFBD3C78 		.ascii	"\357\275<x\026\333\013\346P\027\201\202\035\266\015"
 667      16DB0BE6 
 667      50178182 
 667      1DB60D
 668 129f E6174C3F 		.ascii	"\346\027L?\354k_A\361:\276)\361\037\370\362\354#\214"
 668      EC6B5F41 
 668      F13ABE29 
 668      F11FF8F2 
 668      EC238C
 669 12b2 77E3D0A8 		.ascii	"w\343\320\250\001\235\206\273\030OF)m\304x\023\306["
 669      019D86BB 
 669      184F4629 
 669      6DC47813 
 669      C65B
 670 12c4 78247699 		.ascii	"x$v\231\335}x\006\253p\261\251\257I\3277\034:\266P\234"
 670      DD7D7806 
 670      AB70B1A9 
 670      AF49D737 
 670      1C3AB650 
 671 12d9 420F3C6B 		.ascii	"B\017<k\304\227\332/\330F\324J\354\016\235\262\242`"
 671      C497DA2F 
 671      D846D44A 
 671      EC0E9DB2 
ARM GAS  /tmp/ccikvM4W.s 			page 53


 671      A260
 672 12eb 5778C08C 		.ascii	"Wx\300\214\0327\303V\312\320\257\221\241\227\220\225"
 672      1A37C356 
 672      CAD0AF91 
 672      A1979095 
 673 12fb DB91593B 		.ascii	"\333\221Y;\264\315\346\333\244fC\337\030d\220\022\257"
 673      B4CDE6DB 
 673      A46643DF 
 673      18649012 
 673      AF
 674 130c 160A5658 		.ascii	"\026\012VXf\214?\227`|P\254\301\3118;\357\\j\331\324"
 674      668C3F97 
 674      607C50AC 
 674      C1C9383B 
 674      EF5C6AD9 
 675 1321 58A39A41 		.ascii	"X\243\232Az\372\314=$?\305[\262\374\247p50\247p\335"
 675      7AFACC3D 
 675      243FC55B 
 675      B2FCA770 
 675      3530A770 
 676 1336 C5B5D97B 		.ascii	"\305\265\331{\364\314-\254\364q\214Oc|\006\343z\214"
 676      F4CC2DAC 
 676      F4718C4F 
 676      637C06E3 
 676      7A8C
 677 1348 77F2B0E1 		.ascii	"w\362\260\3416\373\232\367\330\307\011\331\3376\371"
 677      36FB9AF7 
 677      D8C709D9 
 677      DF36F9
 678 1357 35EF8707 		.ascii	"5\357\207\007\027?\213GWP\275\206\356\3056\240\226\257"
 678      173F8B47 
 678      5750BD86 
 678      EEC536A0 
 678      96AF
 679 1369 336FEEA6 		.ascii	"3o\356\246s`\344\250/\350]x\340,z\227\331W6\322c;\251"
 679      7360E4A8 
 679      2FE85D78 
 679      E02C7A97 
 679      D95736D2 
 680 1380 9466EBE1 		.ascii	"\224f\353\341Rv\011Z\352\346\374\333\214\216*\326\""
 680      5276095A 
 680      EAE6FCDB 
 680      8C8E2AD6 
 680      22
 681 1391 DB58CF5A 		.ascii	"\333X\317ZI\374[F\3427Q\342\267P\3425\250\340{0\256"
 681      49FC5B46 
 681      E23751E2 
 681      B750E235 
 681      A8E07B30 
 682 13a6 C5F80B1E 		.ascii	"\305\370\013\036)_\375\221gqU_8\370\211H\335\355\375"
 682      295FFD91 
 682      6771555F 
 682      38F88948 
 682      DDEDFD
 683 13b9 E86E6F7A 		.ascii	"\350noz<\245\273\255\237e\255\301,\207\364.\367\355"
 683      3CA5BBAD 
 683      9F65ADC1 
ARM GAS  /tmp/ccikvM4W.s 			page 54


 683      2C87F42E 
 683      F7ED
 684 13cb D7FC3495 		.ascii	"\327\3744\225c\300\360\235\242\015WQ\033\016\306\001"
 684      63C0F09D 
 684      A20D5751 
 684      1B0EC601 
 685 13db 9BA4ADB1 		.ascii	"\233\244\255\261{\327\030\345\012\212{]\222M8\2556<"
 685      7BD718E5 
 685      0A8A7B5D 
 685      924D38AD 
 685      363C
 686 13ed B8BC3BE9 		.ascii	"\270\274;\351\034+\315alIR9\311\366\326Gyjc\241\333"
 686      1C2BCD61 
 686      6C495239 
 686      C9F6D647 
 686      796A63A1 
 687 1402 0FBFD2E8 		.ascii	"\017\277\322\350\366\031=\234M\335\236\364}L\224\337"
 687      F6193D9C 
 687      4DDD9EF4 
 687      7D4C94DF 
 688 1412 4E5777FF 		.ascii	"NWw\377_\325\303\245\334\375\337\321J\275\0171\256\365"
 688      5FD5C3A5 
 688      DCFDDFD1 
 688      4ABD0F31 
 688      AEF5
 689 1424 1174A78E 		.ascii	"\021t\247\216\2422\037\307\370\004\306\2471>\303\243"
 689      A2321FC7 
 689      F804C6A7 
 689      313EC3A3 
 690 1434 DE750946 		.ascii	"\336u\011F\266\027\346\311\261\033\365G.}\323\366#\342"
 690      B617E6C9 
 690      B11BF547 
 690      2E7DD3F6 
 690      23E2
 691 1446 BBC88F1A 		.ascii	"\273\310\217\032\377>|\204\250{\351\325iq\312\242K\363"
 691      FF3E7C84 
 691      A87BE9D5 
 691      6971CAA2 
 691      4BF3
 692 1458 D2ABE158 		.ascii	"\322\253\341X;\325\332\341\334\253\267\236\244\255\345"
 692      3BD5DAE1 
 692      DCABB79E 
 692      A4ADE5
 693 1467 2B6C2D67 		.ascii	"+l-g~b\274\204e\271\345\340\222\276\245\254\243\257"
 693      7E62BC84 
 693      65B9E5E0 
 693      92BEA5AC 
 693      A3AF
 694 1479 CE5FE26A 		.ascii	"\316_\342j+\325\273Vp\237\375\246k\250\267\177b|\366"
 694      2BD5BB56 
 694      709FFDA6 
 694      6BA8B77F 
 694      627CF6
 695 148c 9BE63170 		.ascii	"\233\3461p\220\260\275\\\327S9\245\022\251\274\316E"
 695      90B0BD5C 
 695      D75339A5 
 695      12A9BCCE 
ARM GAS  /tmp/ccikvM4W.s 			page 55


 695      45
 696 149d E5B45D29 		.ascii	"\345\264])\316~\343_\274\336p\353\374\037W\341\204\361"
 696      CE7EE35F 
 696      BCDE70EB 
 696      FC1F57E1 
 696      84F1
 697 14af 2D17AE4C 		.ascii	"-\027\256L\375T\357A\270tk\327.\355\332\265\313\227"
 697      FD54EF41 
 697      B8746BD7 
 697      2EEDDAB5 
 697      CB97
 698 14c1 B850D6AE 		.ascii	"\270P\326\256\315Ds\323eq\302\222r\310Q\374\376\026"
 698      CD4473D3 
 698      6571C292 
 698      72C851FC 
 698      FE16
 699 14d3 2D97EB70 		.ascii	"-\227\353p\230\033.\306)\371HR\031\334\264\336x\356"
 699      981B2EC6 
 699      29F94852 
 699      19DCB4DE 
 699      78EE
 700 14e5 D5836DD1 		.ascii	"\325\203m\321\031\264z\375\233PgF\315}\253j\316\374"
 700      19B47AFD 
 700      9B506746 
 700      CD7DAB6A 
 700      CEFC
 701 14f7 11D5BCC7 		.ascii	"\021\325\274\307Vs\241\355j\372\331j\246>wi\235Ek\227"
 701      5673A1ED 
 701      6AFAD96A 
 701      A63E7769 
 701      9D456B97 
 702 150b DD16559C 		.ascii	"\335\026U\234e\343\\\252F\326\226\177\216\272\227\242"
 702      65E35CAA 
 702      46D6967F 
 702      8EBA97A2 
 703 151b 4AA90ED3 		.ascii	"J\251\016\323kj\225*\015\252\304U\205\321n\335\372\311"
 703      6B6A952A 
 703      0DAAC455 
 703      85D16EDD 
 703      FAC9
 704 152d 1EDBD5F0 		.ascii	"\036\333\325\360\013\332O\302?\377\026\255\371]\214"
 704      0BDA4FC2 
 704      3FFF16AD 
 704      F95D8C
 705 153c 1F613CCA 		.ascii	"\037a<\312\315\263\024\310j\3126\324\224K\366\033\204"
 705      CDB314C8 
 705      6ACA36D4 
 705      944BF61B 
 705      84
 706 154d D18735B0 		.ascii	"\321\2075\260\340\256b't\205\247\263\271\220 )\316b"
 706      E0AE6227 
 706      7485A7B3 
 706      B9902029 
 706      CE62
 707 155f 66C32365 		.ascii	"f\303#e\335\027:\353\363\013\341\003Y\236\214\335\322"
 707      DD173AEB 
 707      F30BE103 
ARM GAS  /tmp/ccikvM4W.s 			page 56


 707      599E8CDD 
 707      D2
 708 1570 3744BA14 		.ascii	"7D\272\024\006z}|\256\336\325\336\2608\2450\232Y\236"
 708      067A7D7C 
 708      AEDED5DE 
 708      B038A530 
 708      9A599E
 709 1583 0E633191 		.ascii	"\016c1\221\226%\011'SdT(\372\225\260\230\350\315\261"
 709      96250927 
 709      53645428 
 709      FA95B098 
 709      E8CDB1
 710 1596 AFFAF554 		.ascii	"\257\372\365T\016\3630\317\244\324\357m\267\304\326"
 710      0EF330CF 
 710      A4D4EF6D 
 710      B7C4D6
 711 15a5 053BD4FA 		.ascii	"\005;\324\372\372\207w\316W\212\223F\216\330-\337 \246"
 711      FA8777CE 
 711      578A9346 
 711      8ED82DDF 
 711      20A6
 712 15b7 31D948CB 		.ascii	"1\331H\313\\\007\011\236Z\361k\334B6\331Ml\3645\035"
 712      5C07099E 
 712      5AF16BDC 
 712      4236D94D 
 712      6CF4351D 
 713 15cb 97F881D6 		.ascii	"\227\370\201\326\236\235\233A\017UD\240\333I\306^\320"
 713      9E9D9B41 
 713      0F5544A0 
 713      DB49C65E 
 713      D0
 714 15dc 197B416B 		.ascii	"\031{Ak\354\341VnT>to\030\244\374]hR\0363E\231\344N"
 714      ECE1566E 
 714      543E746F 
 714      18A4FC5D 
 714      68521E33 
 715 15f4 E9496896 		.ascii	"\351Ih\226\352\342\375\353\343\002\343x\337\037\255"
 715      EAE2FDEB 
 715      E302E378 
 715      DF1FAD
 716 1603 38DEB3DC 		.ascii	"8\336\263\334\304\225\370\341\247)\035o-\220$T>A\262"
 716      C495F8E1 
 716      A7291D6F 
 716      2D902454 
 716      3E41B2
 717 1616 CC75EB3A 		.ascii	"\314u\353:\352\371A?MM\335M\257\275\3078\2030\010\301"
 717      EAF9413F 
 717      4D4DDD4D 
 717      AFBDC738 
 717      833008C1 
 718 162a 535F4956 		.ascii	"S_IV\013gP\323\210\264p\353\256+\216\367Il\003\357\306"
 718      0B6750D3 
 718      88B470EB 
 718      AE2B8EF7 
 718      496C03EF 
 719 163f E96B9AE3 		.ascii	"\351k\232\343\275\341ce\243D\035\302M\341\201\263p\244"
 719      BDE16365 
ARM GAS  /tmp/ccikvM4W.s 			page 57


 719      A3441DC2 
 719      4DE181B3 
 719      70A4
 720 1651 ABAF24FB 		.ascii	"\253\257$\373\361F\\~F\305Z\304x!\325\225\377\240\207"
 720      F1465C7E 
 720      46C55AC4 
 720      7821D595 
 720      FFA087
 721 1664 FE2E4569 		.ascii	"\376.Ei\315z\"\265\264\2648D\030\313\365\242:DO\375"
 721      CD7A22B5 
 721      B4B43844 
 721      18CBF5A2 
 721      3A444FFD 
 722 1678 5DCE25AC 		.ascii	"]\316%\254\303t\0039\0351\317C\002\226\333\340\255\026"
 722      C3740339 
 722      1D31CF43 
 722      0296DBE0 
 722      AD16
 723 168a EC58CD67 		.ascii	"\354X\315gT\362;\305\204\344\227\333\220\274VT\307k"
 723      54F23BC5 
 723      84E497DB 
 723      90BC5654 
 723      C76B
 724 169c 983F6D58 		.ascii	"\230?mX\250\247-\345Q=\232?=\210\235d\301\226\330\006"
 724      A8A72DE5 
 724      513D9A3F 
 724      3D889D64 
 724      C196D806 
 725 16b0 7B5103F6 		.ascii	"{Q\003\366\345\230\361\312\324$=\016~9\017\343,\264"
 725      E598F1CA 
 725      D4243D0E 
 725      7E390FE3 
 725      2CB4
 726 16c2 E84CE26C 		.ascii	"\350L\342l\371\240xX\3176\336\216T\001\273\301\036T"
 726      F9A07858 
 726      CF36DE8E 
 726      5401BBC1 
 726      1E54
 727 16d4 BF8A8732 		.ascii	"\277\212\2072\213\027\014n\261`\353m\203i)\373\216\005"
 727      8B170C6E 
 727      B160EB6D 
 727      836929FB 
 727      8E05
 728 16e6 DBC20366 		.ascii	"\333\302\003f\261\323\377.\013\366\251m0-e\367\223^"
 728      B1D3FF2E 
 728      0BF6A96D 
 728      302D65F7 
 728      935E
 729 16f8 7DD09CC8 		.ascii	"}\320\234\310\237d\255\267\273\031\007\256\226\247p"
 729      9F64ADB7 
 729      BB1907AE 
 729      96A770
 730 1707 BF594DE4 		.ascii	"\277YM\344\330\334\275i8\026'\207\374K\302!=\232\034"
 730      D8DCBD69 
 730      38162787 
 730      FC4BC221 
 730      3D9A1C
ARM GAS  /tmp/ccikvM4W.s 			page 58


 731 171a 8793534C 		.ascii	"\207\223SL\234\033}X\003\001&\331M<\227\025n\342R\255"
 731      9C1B7D58 
 731      030126D9 
 731      4D3C9715 
 731      6EE252AD 
 732 172e C47815C6 		.ascii	"\304x\025\306U\030\257\305x\035\306\3531\336\210\361"
 732      5518AFC5 
 732      781DC6EB 
 732      31DE88F1 
 733 173e 268CB760 		.ascii	"&\214\267`\274\015\343\035<\356\330\022\226I\307l\033"
 733      BC0DE31D 
 733      3CEED812 
 733      9649C76C 
 733      1B
 734 174f 5A8D84A0 		.ascii	"Z\215\204\240o\373\346\242\372\367\034t\012\3774\017"
 734      6FFBE6A2 
 734      FAF71C74 
 734      0AFF340F 
 735 175f A2916A1B 		.ascii	"\242\221j\033\263i.\303\246\371\310\246\005X\325\205"
 735      B3692EC3 
 735      A6F9C8A6 
 735      0558D585 
 736 176f 187F80F1 		.ascii	"\030\177\200\361b\214w\362T~\246;\331\361S\030\022\277"
 736      628C77F2 
 736      547EA63B 
 736      D9F15318 
 736      12BF
 737 1781 57A67434 		.ascii	"W\246t4\376\266$|\245\353\006\024o\020|\252\257\311"
 737      FEB6247C 
 737      A5EB0614 
 737      6F107CAA 
 737      AFC9
 738 1793 747D4F8A 		.ascii	"t}O\212-\011w\360\271\211n3\247\016)P\274\301\207\241"
 738      2D0977F0 
 738      B9896E33 
 738      A70E2950 
 738      BCC187A1 
 739 17a7 9EB4F8A0 		.ascii	"\236\264\370\240\370\231[\262\314\266\204\311\266\216"
 739      F8995BB2 
 739      CCB684C9 
 739      B68E
 740 17b5 3A91B4E7 		.ascii	":\221\264\347\275\237\242<\2456\350DN\224\253N\367k"
 740      BD9FA23C 
 740      A536E844 
 740      4E94AB4E 
 740      F76B
 741 17c7 4B3D3741 		.ascii	"K=7A\233Kw\366\034"
 741      9B4B77F6 
 741      1C
 742 17d0 FEBCDBC8 		.ascii	"\376\274\333\310\213\214\035\3365\336;qx}cc{\335\200"
 742      8B8C1DDE 
 742      35DE3B71 
 742      787D6363 
 742      7BDD80
 743 17e3 86A09AF1 		.ascii	"\206\240\232\361}\277~@3\323\235\246\347\260\334\326"
 743      7DBF7E40 
 743      33D39DA6 
ARM GAS  /tmp/ccikvM4W.s 			page 59


 743      E7B0DCD6 
 744 17f3 88C3F2A4 		.ascii	"\210\303\362\244PO\365\361\275\310\244:k\336\232\324"
 744      504FF5F1 
 744      BDC8A43A 
 744      6BDE9AD4 
 745 1803 B5CEBAAE 		.ascii	"\265\316\272\256\007\223\353\272\240>\266\255\220\372"
 745      0793EBBA 
 745      A03EB6AD 
 745      90FA
 746 1811 CA366A7A 		.ascii	"\3126jzT_S\342\321\350u+~\257L\352r\272\227\261l\265"
 746      545F53E2 
 746      D1E8752B 
 746      7EAF4CEA 
 746      72BA97B1 
 747 1827 B4E3CC66 		.ascii	"\264\343\314f\353\023\357\037z\212n\371?\215\016\313"
 747      EB13EF1F 
 747      7A8A6EF9 
 747      3F8D0ECB 
 748 1837 5E1D1F53 		.ascii	"^\035\037S\003\005\3053\310\331\263z\247\345\036\375"
 748      0305C533 
 748      C8D9B37A 
 748      A7E51EFD 
 749 1847 1380B35C 		.ascii	"\023\200\263\\N\313\303\232EM\375\253\202cm\271\376"
 749      4ECBC39A 
 749      454DFDAB 
 749      82636DB9 
 749      FE
 750 1858 AAE02BA4 		.ascii	"\252\340+\244\362b\222kE\251\274\310E\345\221\032\305"
 750      F262926B 
 750      45A9BCC8 
 750      45E5911A 
 750      C5
 751 1869 D324F334 		.ascii	"\323$\3634\352\004\315\305\246:W\352\261\237\367\020"
 751      EA04CDC5 
 751      A63A57EA 
 751      B19FF710 
 752 1879 6CA16D30 		.ascii	"l\241m0\277\021X#\202\215ts\200\245>\315\237\316\010"
 752      BF115823 
 752      828D7473 
 752      80A53ECD 
 752      9FCE08
 753 188c BC651BCC 		.ascii	"\274e\033\314\200\262\246\316f\\\347\230\240\261}\272"
 753      80B2A6CE 
 753      665CE798 
 753      A0B17DBA 
 754 189c FFED55E7 		.ascii	"\377\355U\347\226(/E\335\304\361\343%\235\3327\351M"
 754      96282F45 
 754      DDC4F1E3 
 754      259DDA37 
 754      E94D
 755 18ae 178173AA 		.ascii	"\027\201s\252\350\032\333\211\336\304\222S0\327\342"
 755      E81ADB89 
 755      DEC49253 
 755      30D7E2
 756 18bd B47868C0 		.ascii	"\264xh\300?O9\311g\305\340\006+\006\337t\363\317\200"
 756      3F4F39C9 
 756      67C5E006 
ARM GAS  /tmp/ccikvM4W.s 			page 60


 756      2B06DF74 
 756      F3CF80
 757 18d0 DD61AB75 		.ascii	"\335a\253u\307v\265l\352\214\325\274\345C\253*\231L"
 757      C776B56C 
 757      EA8CD5BC 
 757      E543AB2A 
 757      994C
 758 18e2 CF36A9CA 		.ascii	"\3176\251\312?\260U~\300S\345\037s~\274U\225G{\354O"
 758      3FB0557E 
 758      C053E51F 
 758      737EBC55 
 758      95477BEC 
 759 18f7 D536A9CA 		.ascii	"\3256\251\312\243<L\225G<i\267\312~A\373a\026\360\321"
 759      A33C4C95 
 759      473C69B7 
 759      CA7E41FB 
 759      6116F0D1 
 760 190b 11BB8CF1 		.ascii	"\021\273\214\361\025\214\277\301\370*\306\337c\374\000"
 760      158CBFC1 
 760      F82AC6DF 
 760      63FC00
 761 191a E3911E0E 		.ascii	"\343\221\036\016g\355\274;i\342\360l\023\015\265\034"
 761      67EDBC3B 
 761      69E2F06C 
 761      130DB51C 
 762 192a 7B44C612 		.ascii	"{D\306\022\274\213?\253\227?x\022\247\000\306{H\217"
 762      BC8B3FAB 
 762      973F7812 
 762      A700C67B 
 762      488F
 763 193c BAFD499B 		.ascii	"\272\375I\233k?\222\260\017\263L\360\350\272\252\015"
 763      6B3F92B0 
 763      0FB34CF0 
 763      E8BAAA0D 
 764 194c 9578A22A 		.ascii	"\225x\242*I\347X\377\341<:\331h\326)v\352\241\350\017"
 764      49E758FF 
 764      E13C3AD9 
 764      68D62976 
 764      EAA1E80F 
 765 1960 8A5391FE 		.ascii	"\212S\221\376S\306\364[M8]\303,\323\365\364\177O&\234"
 765      53C6F45B 
 765      4D385DC3 
 765      2CD3F5F4 
 765      7F4F269C 
 766 1974 A67351DF 		.ascii	"\246sQ\337\240\276\3732\305C\374\324\007q\300&u\264"
 766      A0BEFB32 
 766      C543FCD4 
 766      0771C026 
 766      75B4
 767 1986 B11FF0EF 		.ascii	"\261\037\360\357\003\350{4#\333\331\305\362k\260&\355"
 767      03E87B34 
 767      23DBD9C5 
 767      F26BB026 
 767      ED
 768 1997 52DF80A2 		.ascii	"R\337\200\242/-M\340\301\263\230(\230Jv\330\330yGs\217"
 768      2F2D4DE0 
 768      C1B39828 
ARM GAS  /tmp/ccikvM4W.s 			page 61


 768      984A76D8 
 768      D8794773 
 769 19ac F28EE642 		.ascii	"\362\216\346B\017)~f\273\177B\317%\011Kl\327B\303\225"
 769      0F297E66 
 769      BB7F42CF 
 769      25094B6C 
 769      D742C395 
 770 19c0 FAAAE517 		.ascii	"\372\252\345\027\332\252\257\277P\302V\361 \362\217"
 770      DAAAAFBF 
 770      50C256F1 
 770      20F28F
 771 19cf E512DA04 		.ascii	"\345\022\332\004\366\314C\306r\263<\304\030\314\301"
 771      F6CC43C6 
 771      72B33CC4 
 771      18CCC1
 772 19de 781EC60B 		.ascii	"x\036\306\0130^\314c\036\246\260f\254\272\235\332\336"
 772      305ECC63 
 772      1EA6B066 
 772      ACBA9DDA 
 772      DE
 773 19ef 6CAA9731 		.ascii	"l\252\2271\251\023\030R'!\251\223Y\222$a\007\226g\307"
 773      A9131852 
 773      2721A993 
 773      59922461 
 773      079667C7 
 774 1a03 1C69997D 		.ascii	"\034i\231}\342\375\007\355o\217\220gt\344>T<v\337-\005"
 774      E2FD07ED 
 774      6F8F9067 
 774      74E43E54 
 774      3C76DF2D 
 775 1a18 C5E51E72 		.ascii	"\305\345\036r\236x\215Nc8\317\023\377\330\243;O\374"
 775      9E788D4E 
 775      6338CF13 
 775      FFD8A33B 
 775      4FFC
 776 1a2a 363D4F9C 		.ascii	"6=O\234\244[4h\365<\361v\311\347\211\237jgx\236\370"
 776      A45B3468 
 776      F53CF176 
 776      C9E7899F 
 776      6A67789E 
 777 1a3f 8576DAF3 		.ascii	"\205v\332\363\304\025.X\236\020\236 .(\256D\226\257"
 777      C4152E58 
 777      9E109E20 
 777      2E28AE44 
 777      96AF
 778 1a51 F2589F10 		.ascii	"\362X\237\020~\326z\246\320\374\255\240Xc\015y\313\217"
 778      7ED67AA6 
 778      D0FCADA0 
 778      58630D79 
 778      CB8F
 779 1a63 F79D9DEA 		.ascii	"\367\235\235\352\015W\225\367\230\326\2439\375\340g"
 779      0D5795F7 
 779      98D6A339 
 779      FDE067
 780 1a72 A9CDA901 		.ascii	"\251\315\251\001\016\230\035<\222\262\032A\252\354\202"
 780      0E981D3C 
 780      92B21A41 
ARM GAS  /tmp/ccikvM4W.s 			page 62


 780      AAEC82
 781 1a81 48C216CC 		.ascii	"H\302\026\314\262Eo\223\267\322\325\372-\034V\231\234"
 781      B2456F93 
 781      B7D2D5FA 
 781      2D1C5699 
 781      9C
 782 1a92 DD4F5FE4 		.ascii	"\335O_\344U\337p\374<\216\251\024\332\205e_j\263\274"
 782      55DF70FC 
 782      3C8EA914 
 782      DA85655F 
 782      6AB3BC
 783 1aa5 9F6E2EA4 		.ascii	"\237n.\244\353\365uz0\233v\364P\374e\335\231\270\365"
 783      EBF5757A 
 783      309B76F4 
 783      50FC65DD 
 783      99B8F5
 784 1ab8 EC846D3C 		.ascii	"\354\204m<M#\213\035\246\304Q\260\363<`\026s\256\307"
 784      4D238B1D 
 784      A6C451B0 
 784      F33C6016 
 784      73AEC7
 785 1acb 59B0CBB6 		.ascii	"Y\260\313\266\301\264\224\235d\301n\360\200Y\314\271"
 785      C1B4949D 
 785      64C16EF0 
 785      8059CCB9 
 786 1adb 7EA97467 		.ascii	"~\251tgM<\"\376\013\217\371\032\027\325V\263\234u\036"
 786      4D3C22FE 
 786      0B8FF91A 
 786      17D556B3 
 786      9C751E
 787 1aee C641E33B 		.ascii	"\306A\343;R~:u\200\376\201>\301]]\033\320\025M\0103"
 787      527E3A75 
 787      80FE813E 
 787      C15D5D1B 
 787      D0154D08 
 788 1b03 2BFAA0C7 		.ascii	"+\372\240\307\374XV\335o\340\343>e\227\301Zi\235\255"
 788      FC5856DD 
 788      6FE0E33E 
 788      6597C15A 
 788      699DAD
 789 1b16 D4BCC639 		.ascii	"\324\274\3069\216\007\316o /\243\017\333\240\301\313"
 789      8E07CE6F 
 789      202FA30F 
 789      DBA0C1CB 
 790 1b26 45C3B71D 		.ascii	"E\303\267\035;\301\035\030\177\206\361\347\030\327`"
 790      3BC11D18 
 790      7F86F1E7 
 790      18D760
 791 1b35 BC07E35A 		.ascii	"\274\007\343Z\214\017\263\275\322\177\016\252$L~J\327"
 791      8C0FB3BD 
 791      D27F0EAA 
 791      244C7E4A 
 791      D7
 792 1b46 D7690D53 		.ascii	"\327i\015S\252v(cg7E\206\001.\277\305=\364sjq\217\243"
 792      AA762863 
 792      67374586 
 792      012EBFC5 
ARM GAS  /tmp/ccikvM4W.s 			page 63


 792      3DF4736A 
 793 1b5d B19CF994 		.ascii	"\261\234\371\224\336C\252\366\350\266\022\377\023\353"
 793      DE43AAF6 
 793      E8B612FF 
 793      13EB
 794 1b6b BB8CABBE 		.ascii	"\273\214\253\276\246o\304\307\353;\243#\373\227\256"
 794      A66FC4C7 
 794      EB3BA323 
 794      FB97AE
 795 1b7a B324ABBF 		.ascii	"\263$\253\277\022\376\322\323Z\271R\377\"\230\370_z"
 795      12FED2D3 
 795      5AB952FF 
 795      2298F85F 
 795      7A
 796 1b8b 428C171D 		.ascii	"B\214\027\035LO\033#\215Iv\270)\272$\254\341\203\333"
 796      4C4F1B23 
 796      8D4976B8 
 796      29BA24AC 
 796      E183DB
 797 1b9e EF34C333 		.ascii	"\3574\3033\032\340\032\375#B|,\361TB\244g\226\337\037"
 797      1AE01AFD 
 797      23427C2C 
 797      F15442A4 
 797      6796DF1F 
 798 1bb2 ABBC897F 		.ascii	"\253\274\211\177\001e\272N'\323\224@\2049_\353;\277"
 798      0165BA4E 
 798      27D39440 
 798      84395FEB 
 798      3BBF
 799 1bc4 B9E7778B 		.ascii	"\271\347w\2138R\373:u\3677jd\254\352\374nI\331\335<"
 799      3852FB3A 
 799      75F7376A 
 799      64ACEAFC 
 799      6E49D9DD 
 800 1bd9 0DD7C147 		.ascii	"\015\327\301G\341\016\270\257\2336,\001\3005\347\225"
 800      E10EB8AF 
 800      9B362C01 
 800      C035E795 
 801 1be9 75700A57 		.ascii	"up\012Wi\033\316\257\201\373D\013\267\325\301\001g\361"
 801      691BCEAF 
 801      81FB440B 
 801      B7D5C101 
 801      67F1
 802 1bfb D2D77A2D 		.ascii	"\322\327z-\234\314C\235\305k_\033\265p#x\340,^\374\332"
 802      9CCC439D 
 802      C56B5F1B 
 802      B5702378 
 802      E02C5EFC 
 803 1c10 C4C249C2 		.ascii	"\304\302I\302g\250\020v\340\264\324m\321\302\325\360"
 803      67A81076 
 803      E0B4D46D 
 803      D1C2D5F0 
 804 1c20 C019F5AA 		.ascii	"\300\031\365\252F\037V\363\202\342%\264/\227\321v\\"
 804      461F56F3 
 804      82E225B4 
 804      2F97D176 
 804      5C
ARM GAS  /tmp/ccikvM4W.s 			page 64


 805 1c31 C1F81B8C 		.ascii	"\301\370\033\214\257b|\015\343\353\030\177\3135\317"
 805      AF627C0D 
 805      E3EB187F 
 805      CB35CF
 806 1c40 C10E64FE 		.ascii	"\301\016d\376\241o\244Fd\357\267\334\261\245\241\373"
 806      A16FA446 
 806      64EFB7DC 
 806      B1A5A1FB 
 807 1c50 2CB38056 		.ascii	",\263\200V\217\013h\347p\006f\034\322\367!\306\3530"
 807      8F0B68E7 
 807      7006661C 
 807      D2F721C6 
 807      EB30
 808 1c62 3E86F169 		.ascii	">\206\361i\214\317b|\216\207\372S\3564M\201\2325\235"
 808      8CCF627C 
 808      8E87FA53 
 808      EE344D81 
 808      9A359D
 809 1c75 83BA461E 		.ascii	"\203\272F\036_5\273_%N\303U\263:\234\354^\204\363\323"
 809      5F35BB5F 
 809      254EC355 
 809      B33A9CEC 
 809      5E84F3D3 
 810 1c89 474C5776 		.ascii	"GLWv\352\230=T\267\311\202\320I\314v\312e\235\355$\223"
 810      EA983D54 
 810      B7C982D0 
 810      49CC76CA 
 810      659DED24 
 811 1c9e 6D035D35 		.ascii	"m\003]5\243\373\316/!]\346\031q]F\311\370\200f<\205"
 811      A3FBCE2F 
 811      215DE619 
 811      715D46C9 
 811      F880663C 
 812 1cb3 CB7BDFA4 		.ascii	"\313{\337\244\310x\312\315\356\331\322.A\035\261^\202"
 812      C878CACD 
 812      EED9D22E 
 812      411DB15E 
 812      82
 813 1cc4 BAE5315A 		.ascii	"\272\3451Z\202\252:\221n\270\332f\365O\224\017\3643"
 813      82AA3A91 
 813      6EB8DA66 
 813      F54F940F 
 813      F433
 814 1cd6 8994C91A 		.ascii	"\211\224\311\032\311\374\207\241d\344\351!\235L\356"
 814      C9FC87A1 
 814      64E4E921 
 814      9D4CEE
 815 1ce5 7B2C65A2 		.ascii	"{,e\242Tu\204|}\364\350V\242\372g\314\232lFu}hX\327"
 815      5475847C 
 815      7DF4E856 
 815      A2FA67CC 
 815      9A6C4675 
 816 1cfd 13E7480B 		.ascii	"\023\347H\013\226\177hl\034\351\025l\254\271\015\367"
 816      967F686C 
 816      1CE9156C 
 816      ACB90DF7 
 817 1d0d 1AAC2E6A 		.ascii	"\032\254.j*/\330^\357}h\314\237\207\205\272\325H\331"
ARM GAS  /tmp/ccikvM4W.s 			page 65


 817      2A2FD85E 
 817      EF7D68CC 
 817      9F8785BA 
 817      D548D9
 818 1d20 CBB3D27B 		.ascii	"\313\263\322{H\317V\363l\254\252'-\020\233g3Y \006/"
 818      48CF56F3 
 818      6CACAA27 
 818      2D109B67 
 818      33592006 
 819 1d35 3A454676 		.ascii	":EFv\201X\257\261L.#)Vz\223\244\270\272>\266f\227\261"
 819      8158AFB1 
 819      4C2E2329 
 819      567A93A4 
 819      B8BA3EB6 
 820 1d4c C65ACD7D 		.ascii	"\306Z\315}\277c$A\235D\336\372\027\003\211\214\220\033"
 820      BF632441 
 820      9D44DEFA 
 820      1703898C 
 820      901B
 821 1d5e F512196F 		.ascii	"\365\022\031o-\221\270\306V\341\206J:\221n\236K!p\202"
 821      2D91B8C6 
 821      56E1864A 
 821      3A916E9E 
 821      4B217082 
 822 1d72 6155F7D7 		.ascii	"aU\367\327\030W\325JY\247X(\253n\000DDc\006\363\236"
 822      1857D54A 
 822      59A75828 
 822      AB6E0044 
 822      446306F3 
 823 1d87 D7F07F78 		.ascii	"\327\360\177x\351\001\237\211\373\217\034\311\353\002"
 823      E9019F89 
 823      FB8F1CC9 
 823      EB02
 824 1d95 9230D598 		.ascii	"\2220\325\230\225\323\365K\355\223\271\224{;\311F\350"
 824      95D3F54B 
 824      ED93B994 
 824      7B3BC946 
 824      E8
 825 1da6 91844508 		.ascii	"\221\204E\010l\236\015\251V\2625\374[[J\257$,\327g\323"
 825      6C9E0DA9 
 825      56B235FC 
 825      5B5B4AAF 
 825      242CD767 
 826 1dbb 1D668AB5 		.ascii	"\035f\212\265RK\253L\357\247\276\322\362\211>\237f/"
 826      524BAB4C 
 826      EFA7BED2 
 826      F2893E9F 
 826      662F
 827 1dcd 5BBCF686 		.ascii	"[\274\366\206\272mV\232\302\337\231\311\002\007\013"
 827      BA6D569A 
 827      C2DF99C9 
 827      02070B
 828 1ddc B5E1ED77 		.ascii	"\265\341\355w`$8\"\326\330\370\222W/s\311\\\346\037"
 828      60243822 
 828      D6D8F892 
 828      572F73C9 
 828      5CE61F
ARM GAS  /tmp/ccikvM4W.s 			page 66


 829 1def 70A8F766 		.ascii	"p\250\367f#\231L\226\347\353e\362>\247z\257C\365\246"
 829      23994C96 
 829      E7EB65F2 
 829      3EA77AAF 
 829      43F5A6
 830 1e02 33C9E6B9 		.ascii	"3\311\346\271\024\002\027\033\326\366\324\333\343\325"
 830      1402171B 
 830      D6F6D4DB 
 830      E3D5
 831 1e10 DADA31C7 		.ascii	"\332\3321\307\037r\324\366\013\343\332&m\366X\306U["
 831      1F72D4F6 
 831      0BE3DA26 
 831      6DF658C6 
 831      555B
 832 1e22 BD6C9759 		.ascii	"\275l\227Y\313\366\243\344\332\326\337\210\315\250U"
 832      CBF6A3E4 
 832      DAD6DF88 
 832      CDA855
 833 1e31 1A33AD81 		.ascii	"\0323\255\201$\2344\246q\266\236\306\225M\242q\2455"
 833      249C34A6 
 833      71B69EC6 
 833      954DA271 
 833      A535
 834 1e43 8DAB0C25 		.ascii	"\215\253\014%rX\261\255\363\273\330\220\307Z\313\356"
 834      7258B1AD 
 834      F3BBD890 
 834      C75ACBEE 
 835 1e53 51BF2545 		.ascii	"Q\277%Ei3\361{\332\243\353\345w\215S~k\270,\310\206"
 835      6933F17B 
 835      DAA3EBE5 
 835      778D537E 
 835      6BB82CC8 
 836 1e68 844BF769 		.ascii	"\204K\367i\212l\254Kw;\370\254j\011\356!=k\254-\201"
 836      8A6CAC4B 
 836      773BF8AC 
 836      6A09EE21 
 836      3D6BAC2D 
 837 1e7d 926DEEAE 		.ascii	"\222m\356\256\264\370;\237\362\317u\371t\226G\251\275"
 837      B4F83B9F 
 837      F2CF75F9 
 837      749647A9 
 837      BD
 838 1e8e A104CD72 		.ascii	"\241\004\315r)l\337h \301\313\261S\265\265\212\217\343"
 838      296CDF68 
 838      20C1CBB1 
 838      53B5B58A 
 838      8FE3
 839 1ea0 10E88B1E 		.ascii	"\020\350\213\036\222\360\366\317\315}\015\234q\232\215"
 839      92F0F6CF 
 839      CD7D0D9C 
 839      719A8D
 840 1eaf 0FC44C99 		.ascii	"\017\304L\231\362\022\253f\253*G\267r\322\015\003\202"
 840      F212AB66 
 840      AB2A47B7 
 840      72D20D03 
 840      82
 841 1ec0 452E85CA 		.ascii	"E.\205\312\035Z*_\021\035\323\235\264EL\254?|\351S\327"
ARM GAS  /tmp/ccikvM4W.s 			page 67


 841      1D5A2A5F 
 841      111DD39D 
 841      B4454CAC 
 841      3F7CE953 
 842 1ed5 4CF9D351 		.ascii	"L\371\323Qrc\343\337\365\006\300b;B\215^\337.\260[\240"
 842      7263E3DF 
 842      F506C062 
 842      3B428D5E 
 842      DF2EB05B 
 843 1eea 94B71A94 		.ascii	"\224\267\032\224{\336\025\331\306[\207\236\332\2103"
 843      7BDE15D9 
 843      C65B879E 
 843      DA8833
 844 1ef9 42B55E32 		.ascii	"B\265^2{pP\3072N\234X\325u\262,\272\0171N\3520\202b"
 844      7B7050C7 
 844      324E9C58 
 844      D575B22C 
 844      BA0F314E 
 845 1f11 77DDA452 		.ascii	"w\335\244Rw\335q\202k\033\034\362D/\246K\302\367?\327"
 845      77DD7182 
 845      6B1B1CF2 
 845      442FA64B 
 845      C2F73FD7 
 846 1f25 2E6130F9 		.ascii	".a0\371z\230\315\312uO\014\306\016x\177\231\374\244"
 846      7A98CDCA 
 846      754F0CC6 
 846      0E787F99 
 846      FCA4
 847 1f37 AE9535EA 		.ascii	"\256\2255\352(T\037:\224$\264\031q\241UW\036\236\"N"
 847      28541F3A 
 847      9424B419 
 847      71A15557 
 847      1E9E224E 
 848 1f4b 1AB9C0E8 		.ascii	"\032\271\300\350-\017\376\305\246\265\373\010\237\216"
 848      2D0FFEC5 
 848      A6B5FB08 
 848      9F8E
 849 1f59 79C96AD3 		.ascii	"y\311j\323\330\366MZm:\351\325\2556\235\030\207\253"
 849      D8F64D5A 
 849      6D3AE9D5 
 849      AD369D18 
 849      87AB
 850 1f6b 4D243DF5 		.ascii	"M$=\365j\323\244\366\311\253M\323\333\033\2566}\320"
 850      6AD3A4F6 
 850      C9AB4DD3 
 850      DB1BAE36 
 850      7DD0
 851 1f7d DEF0DF6B 		.ascii	"\336\360\337kW\2667\374\367\332\315\355\265\377^\253"
 851      57B637FC 
 851      F7DACDED 
 851      B5FF5EAB 
 852 1f8d 24EF4A24 		.ascii	"$\357J$\263\377\334} \221\314\376s\367\271D2\373\317"
 852      B3FFDC7D 
 852      2091CCFE 
 852      73F7B944 
 852      32FBCF
 853 1fa0 DD5713C9 		.ascii	"\335W\023\311^&\371\273D\262\217I\256\364\307\223\233"
ARM GAS  /tmp/ccikvM4W.s 			page 68


 853      5E26F9BB 
 853      44B28F49 
 853      AEF4C793 
 853      9B
 854 1fb1 31C93313 		.ascii	"1\3113\023\311iL\362\362Dr:\223\\\235Hn\316$\357M$\267"
 854      C9694CF2 
 854      F244723A 
 854      935C9D48 
 854      6ECE24EF 
 855 1fc8 60924F26 		.ascii	"`\222O&\222[2\311\027\023\311\255\230\344o\023\311\255"
 855      925B32C9 
 855      1713C9AD 
 855      98E46F13 
 855      C9AD
 856 1fda 99E4114F 		.ascii	"\231\344\021O\307\223\333\260t'\222\037SdIn-\027\375"
 856      C793DBB0 
 856      7427921F 
 856      5364496E 
 856      2D17FD
 857 1fed 123A0243 		.ascii	"\022:\002Cgl\020\247\275\306\213~f\306\346\250\336\330"
 857      676C10A7 
 857      BDC68B7E 
 857      66C6E6A8 
 857      DED8
 858 1fff 2C       		.ascii	","
 859 2000 613BB70B 		.ascii	"a;\267\013\242\266s[(\032\271\303+\2376nfc|\311~\302"
 859      A2B6735B 
 859      281AB9C3 
 859      2B9F366E 
 859      66637CC9 
 860 2016 C4D8A17D 		.ascii	"\304\330\241}\340\025-4\364\212H{1#t\254\317\200P\035"
 860      E0152D34 
 860      F48A487B 
 860      312374AC 
 860      CF80501D 
 861 202a 21EB4C08 		.ascii	"!\353L\010\031gH\310\274\272\361\262h8\376\260\242\343"
 861      196748C8 
 861      BCBAF1B2 
 861      6838FEB0 
 861      A2E3
 862 203c 1D3D1DE4 		.ascii	"\035=\035\344-\023\233\014\333jB\347$#:\353\1778\270"
 862      2D139B0C 
 862      DB6A42E7 
 862      24233AEB 
 862      7F38B8
 863 204f CA8C61A4 		.ascii	"\312\214a\244l\323\201\222\236\320\253b\022\303>7!d"
 863      6CD38192 
 863      9ED0AB62 
 863      12C33E37 
 863      2164
 864 2061 9A21211B 		.ascii	"\232!!\033w\035u\230\365gV,\233n$\272\370M\255!\213"
 864      771D7598 
 864      F567562C 
 864      9B6E24BA 
 864      F84DAD21 
 865 2076 F69B5036 		.ascii	"\366\233P6\313P\224G\3675E\224s,\351\352\312J\222\177"
 865      CB509447 
ARM GAS  /tmp/ccikvM4W.s 			page 69


 865      F7354594 
 865      732CE9EA 
 865      CA4A927F 
 866 208a 77CAE277 		.ascii	"w\312\342w\237 Vz\201\217X\323\343O\353\273H\373o`'"
 866      9F20567A 
 866      818F58D3 
 866      E34FEBBB 
 866      48FB6F60 
 867 209f 88D00D6F 		.ascii	"\210\320\015oI\021fU[\344\263\230U\374\322\204\267\213"
 867      49116655 
 867      5BE4B398 
 867      55FCD284 
 867      B78B
 868 20b1 0DA53E7B 		.ascii	"\015\245>{\3117/\315X#\217\302s\004\364\247\010X\254"
 868      C9372FCD 
 868      58238FC2 
 868      7304F4A7 
 868      0858AC
 869 20c4 8B2ED573 		.ascii	"\213.\325s\367&\036N\257\241\344\242\011%\037j)yFX("
 869      F7261E4E 
 869      AFA1E4A2 
 869      09251F6A 
 869      29794658 
 870 20d9 CB07EB1F 		.ascii	"\313\007\353\037\336Y\336\201\254>\310\304\375\023E"
 870      DE59DE81 
 870      AC3EC8C4 
 870      FD1345
 871 20e8 754EF146 		.ascii	"uN\361F\034\304\214\224\217\022pM\\\344\375X[\231ta"
 871      1CC48C94 
 871      8F12704D 
 871      5CE4FD58 
 871      5B997461 
 872 20fc 1C2B89EE 		.ascii	"\034+\211\356\346k\274\253|\351\202\356c\366\350\212"
 872      E66BBCAB 
 872      7CE982EE 
 872      63F6E88A 
 873 210c 84CC7492 		.ascii	"\204\314t\222&>\233Y\256\325\246\271\210\037i\226\253"
 873      263E9B59 
 873      AED5A6B9 
 873      881F6996 
 873      AB
 874 211d CA24173F 		.ascii	"\312$\027?G\326\352\305Kj\312\265\177r\215)\305G-(^"
 874      47D6EAC5 
 874      4B6ACAB5 
 874      7F728D29 
 874      C5472D28 
 875 2132 679A8B68 		.ascii	"g\232\213h\201Y\256\365\246\271\310!\027f\2716\230\346"
 875      8159AEF5 
 875      A6B9C821 
 875      1766B936 
 875      98E6
 876 2144 22BD9059 		.ascii	"\"\275\220Y\256\215\246\271\246X\344\2526\315\365\216"
 876      AE8DA6B9 
 876      A658E4AA 
 876      36CDF58E 
 877 2154 45AE4D26 		.ascii	"E\256M&\271\224\025\323z\327\014\355\301+I\336\345\026"
 877      B99415D3 
ARM GAS  /tmp/ccikvM4W.s 			page 70


 877      7AD70CED 
 877      C12B49DE 
 877      E516
 878 2166 1F5D30D5 		.ascii	"\037]0\325\374\367\005>aV\344V\237/.\326t\037{a-\356"
 878      FCF7053E 
 878      6156E456 
 878      9F2F2ED6 
 878      741F7B61 
 879 217c CDA61524 		.ascii	"\315\246\025$o\007\233\345\332f\232k\272\005[\266\233"
 879      6F079BE5 
 879      DA669A6B 
 879      BA055BB6 
 879      9B
 880 218d E6FAD042 		.ascii	"\346\372\320B\265b\246\271\346X\224\265\3034\327~\213"
 880      B562A6B9 
 880      E65894B5 
 880      C334D77E 
 880      8B
 881 219e 7A7D9AC8 		.ascii	"z}\232\310e\264\232\237\246>\377Ib0Q_}\341\323'7\343"
 881      65B49A9F 
 881      A63EFF49 
 881      6230515F 
 881      7DE1D327 
 882 21b4 E0ED331F 		.ascii	"\340\3553\037\0319\335y\332p\360f\001$\011#\237!yv\371"
 882      1939DD79 
 882      DA70F066 
 882      01240923 
 882      9F217976 
 883 21c9 74EBBF93 		.ascii	"t\353\277\223\350\346'\222n1\246\210\037U2M\331\307"
 883      E8E62792 
 883      6E31A688 
 883      1F55324D 
 883      D9C7
 884 21db C14EC593 		.ascii	"\301N\305\223\274F\265\325\250\207\362\000\213'\307"
 884      BC46B5D5 
 884      A887F200 
 884      8B27C7
 885 21ea A6EF9A80 		.ascii	"\246\357\232\200\233\251\324e~\302\273Y\314\362z3\025"
 885      9BA9D465 
 885      7EC2BB59 
 885      CCF27A33 
 885      15
 886 21fb 6381AAB5 		.ascii	"c\201\252\265\265\266\265\366\037&Z\253\376q\212$\274"
 886      B5B6B5F6 
 886      1F265AAB 
 886      FE718A24 
 886      BC
 887 220c 1BE78C71 		.ascii	"\033\347\214q\271F\365\360k\3521\263\362\035\221\034"
 887      B946F5F0 
 887      6BEA31B3 
 887      F21D911C 
 888 221c 7DA6D463 		.ascii	"}\246\324cA\027\322\370\230\005\246.*\206W!\252\316"
 888      4117D2F8 
 888      9805A62E 
 888      2A865721 
 888      AACE
 889 222e D75A471E 		.ascii	"\327ZG\036\3201EO\207&\233\226\023\006d\214\210\315"
ARM GAS  /tmp/ccikvM4W.s 			page 71


 889      D031454F 
 889      87269B96 
 889      1306648C 
 889      88CD
 890 2240 DA852F03 		.ascii	"\332\205/\003\323\211\231yz4\243-~\313,\320\346VN\320"
 890      D3899979 
 890      7A34A32D 
 890      7ECB2CD0 
 890      E6564ED0 
 891 2254 1C54B844 		.ascii	"\034T\270D\017h$\354\325\032@\213\017\253\212Aq\267"
 891      0F6824EC 
 891      D51A408B 
 891      0FAB8A41 
 891      71B7
 892 2266 8F0C5DF6 		.ascii	"\217\014]\366\370\310\242\351^\214\367a|\000\343C>f"
 892      F8C8A2E9 
 892      5E8CF761 
 892      7C00E343 
 892      3E66
 893 2278 90AF6B6A 		.ascii	"\220\257kj\237\231\320CJ8b\332@\227Z4\353\243\214\347"
 893      9F99D043 
 893      4A3862DA 
 893      40975A34 
 893      EBA38CE7 
 894 228c F462C6A0 		.ascii	"\364b\306\240\362\322PFAy\341\233\031\205\241!\031\005"
 894      F2D25046 
 894      4179E19B 
 894      1985A121 
 894      1905
 895 229e 838A0714 		.ascii	"\203\212\007\024\227G2\242\341\301e\257g\300EhX4\243"
 895      974732A2 
 895      E1C165AF 
 895      67C04568 
 895      5834A3
 896 22b1 28182D8A 		.ascii	"(\030-\212dD\302\005\031\305e\321\320\300P\270\303 "
 896      6444C205 
 896      19C565D1 
 896      D0C050B8 
 896      C320
 897 22c3 C1D9EDD5 		.ascii	"\301\331\355\325\374lw\217\276\375\375\231\202\263`"
 897      FC6C778F 
 897      BEFDFD99 
 897      82B360
 898 22d2 5030FCBC 		.ascii	"P0\374\274=\244\242\"\000qu\357\232\337=\317S\024\011"
 898      3DA4A222 
 898      007175EF 
 898      9ADF3DCF 
 898      531409
 899 22e5 44DFAC08 		.ascii	"D\337\254\0109\012\303C\\\005\221\342\377\035r\227\005"
 899      390AC343 
 899      5C0591E2 
 899      FF1D7297 
 899      05
 900 22f6 E0C9886B 		.ascii	"\340\311\210khQIp\240\267(R\034 \027\316Wrr\263\244"
 900      68514970 
 900      A0B72852 
 900      1C2017CE 
ARM GAS  /tmp/ccikvM4W.s 			page 72


 900      577272B3 
 901 230b E2425F59 		.ascii	"\342B_Y \\^\036-,\016\273\262HR\263\222`$\032((\031"
 901      205C5E1E 
 901      2D2C0EBB 
 901      B24852B3 
 901      9260241A 
 902 2322 1C89362B 		.ascii	"\034\2116+\012\207B\364\322\213\030\241\262\250\253"
 902      0A8742F4 
 902      D28B18A1 
 902      B2A8AB
 903 2331 88407A86 		.ascii	"\210@z\206\224\227\014\010FB\036H\304o\310N\276\275"
 903      94970C08 
 903      46421E48 
 903      C46FC84E 
 903      BEBD
 904 2343 85C16810 		.ascii	"\205\301h\020\023\206\026\227EB\005Q\007|\273\3623{"
 904      13861697 
 904      45420551 
 904      077CBBF2 
 904      337B
 905 2355 76CD6D11 		.ascii	"v\315m\021),-\005zJ+JB@\254\007o\003Q\027~\377.Uu\007"
 905      292C2D05 
 905      7A4A2B4A 
 905      4240AC07 
 905      6F035117 
 906 236f 054B805D 		.ascii	"\005K\200]@Ja(\203\344\213T\024\003\210\257O\237\314"
 906      404A6128 
 906      83E48B54 
 906      140388AF 
 906      4F9FCC
 907 2382 AC70F190 		.ascii	"\254p\361\220P8=~\365\327>\371\256@\267\362\362\222"
 907      50383D7E 
 907      F5D73EF9 
 907      AE40B7F2 
 907      F292
 908 2394 B4E24880 		.ascii	"\264\342H\200\020\021\216\206\012\323\341\272\"\\\036"
 908      10118E86 
 908      0AD3E1BA 
 908      225C1E
 909 23a3 058A4285 		.ascii	"\005\212B\205\236\202\362\2622\270jVX\034Q.\177\221"
 909      9E82F2B2 
 909      32B86A56 
 909      581C512E 
 909      7F91
 910 23b5 313812CE 		.ascii	"18\022\316\010\206K\177SV^\026\372M(8\2408^\\\004xS"
 910      08864B7F 
 910      53565E16 
 910      FA4D2838 
 910      A0385E5C 
 911 23cc 1685D2BC 		.ascii	"\026\205\322\274\203\341\373\371\316\201\350\013\026"
 911      83E1FBF9 
 911      CE81E80B 
 911      16
 912 23d9 4F970681 		.ascii	"O\227\006\201\366\262PF\2400T\024\034\\\022EYD w\263"
 912      F6B25046 
 912      A0305414 
 912      1C5C1245 
ARM GAS  /tmp/ccikvM4W.s 			page 73


 912      59442077 
 913 23ee 4040CDEF 		.ascii	"@@\315\357!\027/\006\242>\232\004W\316p(X\350\032\032"
 913      21172F06 
 913      A23E9A04 
 913      57CE7028 
 913      58E81A1A 
 914 2402 2E8E869C 		.ascii	".\216\206\234\2217\313\012\376h\207\037p\035(.\037P"
 914      9137CB0A 
 914      FE68871F 
 914      701D282E 
 914      1F50
 915 2414 525EF03A 		.ascii	"R^\360:\224\323\262\033\271\310\012\015).\010\365*+"
 915      94D3B21B 
 915      B9C80A0D 
 915      292E08F5 
 915      2A2B
 916 2426 2AF70E28 		.ascii	"*\367\016(y=\2002#\027e\203K\275\003CQ`LQ\271cHi\264"
 916      793D8032 
 916      23176583 
 916      4BBD0343 
 916      51604C51 
 917 243f 192446A2 		.ascii	"\031$F\242 \331@\264Y\267\336/\007\372\367\355\325\267"
 917      20D940B4 
 917      59B7DE2F 
 917      07FAF7ED 
 917      D5B7
 918 2451 57BE975C 		.ascii	"W\276\227\\\346\345\347\364\303\264\256\231\371\275"
 918      E6E5E7F4 
 918      C3B4AE99 
 918      F9BD
 919 245f FE9ADD82 		.ascii	"\376\232\335\202\\f\346\364\355\233\015\267}{\264&\267"
 919      5C66E6F4 
 919      ED9B0DB7 
 919      7D7BB426 
 919      B7
 920 2470 59BDF212 		.ascii	"Y\275\362\022)>\222\222\233\3355\353\3254\365\012R\361"
 920      293E9292 
 920      9BDD35EB 
 920      D534F50A 
 920      52F1
 921 2482 FA95DC5E 		.ascii	"\372\225\334^\371\352u\336\253}3\341\332\205\245:\012"
 921      F9EA75DE 
 921      AB7D33E1 
 921      DA85A53A 
 921      0A
 922 2493 8A0B1D05 		.ascii	"\212\013\035\005\221BoA\260\"XP\034}3\213\247\342\025"
 922      91426F41 
 922      B0225850 
 922      1C7D338B 
 922      A7E215
 923 24a6 E5E16824 		.ascii	"\345\341h$#/\277\317\363\2353z\367\316\312\310\353\327"
 923      232FBFCF 
 923      F39D337A 
 923      F7CECAC8 
 923      EBD7
 924 24b8 6B48A70C 		.ascii	"kH\247\014P\211@II!Q\013H\240\312\320\331\016\037\251"
 924      50894049 
ARM GAS  /tmp/ccikvM4W.s 			page 74


 924      4921510B 
 924      48A0CAD0 
 924      D90E1FA9 
 925 24cc 4E35832F 		.ascii	"N5\203/\225#\200\243r\204\\\022\216\020lZK\374\225\362"
 925      952380A3 
 925      72845C12 
 925      8E106C5A 
 925      4BFC95F2 
 926 24e0 269D5C66 		.ascii	"&\235\\f\346\364\351\327;;?\2739\000\024\004K\240}\024"
 926      E6F4E9D7 
 926      3B3B3FBB 
 926      39001404 
 926      4BA07D14 
 927 24f4 BC1E88BA 		.ascii	"\274\036\210\272Ce\205\201\202\001\331M\251W\217~\275"
 927      43658581 
 927      8201D94D 
 927      A9578F7E 
 927      BD
 928 2505 728674CE 		.ascii	"r\206t\316\250\000\371\322\212\245G\242\245\240@\003"
 928      A800F9D2 
 928      8AA547A2 
 928      A5A04003 
 929 2515 2B8ACBA1 		.ascii	"+\212\313\241\345\364\311\311\312\316u\347\344\277\332"
 929      E5F4C9C9 
 929      CACE75E7 
 929      E4BFDA
 930 2524 2F3BD793 		.ascii	"/;\327\223\223\327/;;+\327\325\257\177\277\254\\G/\010"
 930      93D72F3B 
 930      3B2BD7D5 
 930      AF7FBFAC 
 930      5C472F08 
 931 2538 3959B9E2 		.ascii	"9Y\271\342+\250\263\235~\007u\241\272F.\035\221P\324"
 931      2BA8B39D 
 931      7E0775A1 
 931      BA462E1D 
 931      9150D4
 932 254b 5550120A 		.ascii	"UP\022\012\206\305\236\316ny\271\271\316\336\231/\347"
 932      86C59ECE 
 932      6E79B9B9 
 932      CEDE992F 
 932      E7
 933 255c 3ABB76CF 		.ascii	":\273v\317\355M\242\236\216n\271\271\315\212\313\011"
 933      ED4DA29E 
 933      8E6EB9B9 
 933      CD8ACB09 
 934 256c 35C58550 		.ascii	"5\305\205P\203H\204\\\272\340+\010\302\012w\",\310,"
 934      8348845C 
 934      BAE02B08 
 934      C20A7722 
 934      2CC82C
 935 257f 2F2B2A1E 		.ascii	"/+*\036\350.\300\257\224f/\034\2153\271`P\344\315\210"
 935      E82EC0AF 
 935      94662F1C 
 935      8D33B960 
 935      50E4CD88 
 936 2593 DA26BCD1 		.ascii	"\332&\274\321AD\361\241%\024\014\012\320\353\027\354"
 936      4144F1A1 
ARM GAS  /tmp/ccikvM4W.s 			page 75


 936      25140C0A 
 936      D0EB17EC 
 937 25a3 61150C22 		.ascii	"a\025\014\"|qW\004\312\300 \302WE84\244'\007\004eu\327"
 937      7C715704 
 937      CAC020C2 
 937      57453834 
 937      A4270704 
 938 25ba DC3E997D 		.ascii	"\334>\231}\206\301\223\245\025\305%\241p$\243Gf&<\256"
 938      86C193A5 
 938      15C525A1 
 938      7024A347 
 938      66263CAE 
 939 25ce 92E78956 		.ascii	"\222\347\211V\204\011\247\021\267\270\234\330\215(\024"
 939      8409A711 
 939      B7B89CD8 
 939      8D2814
 940 25dd F307DBF8 		.ascii	"\363\007\333\370\203\012\312\303\304\350\245\221dh{"
 940      830ACAC3 
 940      C4E8A591 
 940      64687B
 941 25ec D182E8B0 		.ascii	"\321\202\350\260\177m\032J`\310\357K\011\347\302\241"
 941      7F6D1A4A 
 941      60C8EF4B 
 941      09E7C2A1 
 942 25fc 81608088 		.ascii	"\201`\200\2100;\375\016\302\357!\274\010\341\017\216"
 942      303BFD0E 
 942      C2EF21BC 
 942      08E10F8E 
 943 260c 48E78E10 		.ascii	"H\347\216\020:A\350\014\341y\010/@\370-\004x\2563<\327"
 943      3A41E80C 
 943      E179082F 
 943      40F82D04 
 943      78AE333C 
 944 2621 199EEB0C 		.ascii	"\031\236\353\014\317=\017\317=\337I\012\277 \205\177"
 944      CF3D0FCF 
 944      3DDF490A 
 944      BF20857F 
 945 2631 2B857F27 		.ascii	"+\205\177'\205\177/\205_\224\302\177p\204;u\204\320"
 945      857F2F85 
 945      5F94C27F 
 945      70843B75 
 945      84D0
 946 2643 492A09C3 		.ascii	"I*\011\303\327\363\256\212\000P\353!\034\036\032\012"
 946      D7F3AE8A 
 946      0050EB21 
 946      1C1E1A0A 
 947 2653 C3777949 		.ascii	"\303wyIa(L8\036,\015y\243JS\201t\274\362DK\313\013\351"
 947      61284C38 
 947      1E2C0D79 
 947      A34A5381 
 947      74BCF244 
 948 266b 3DE96422 		.ascii	"=\351d\"\236h8D:$x\236\\\270J#\003\341G\305\016\202"
 948      9E683844 
 948      3A24789E 
 948      5CB84A23 
 948      03E147C5 
 949 2681 FD53AEDC 		.ascii	"\375S\256\334\341\3027\341'ohXq\0248\022r\017\215\226"
ARM GAS  /tmp/ccikvM4W.s 			page 76


 949      E1C237E1 
 949      276F6858 
 949      71143812 
 949      720F8D96 
 950 2695 0FF8F78A 		.ascii	"\017\370\367\212\264\320\020\350rJ\203\021lHC\311\205"
 950      B4D010E8 
 950      724A8311 
 950      6C4843C9 
 950      85
 951 26a6 A32230B8 		.ascii	"\243\"0\270\005U\225H\240\004Zj \3322\256<4\305W\021"
 951      05559548 
 951      A0045A6A 
 951      20DA32AE 
 951      3C34C557 
 952 26bb 181A2C8E 		.ascii	"\030\032,\216\026\227\015l\251&\277184\030\250j\305"
 952      16970D6C 
 952      A926BF31 
 952      383418A8 
 952      6AC5
 953 26cd 3C8949CD 		.ascii	"<\211I\315*\002P,^\272\360\022\022B\025\320d!\263\253"
 953      2A02502C 
 953      5EBAF012 
 953      124215D0 
 953      6421B3AB 
 954 26e1 7430483B 		.ascii	"t0H;eG\254\321\307\322\3500\2427\245\024\035\276\313"
 954      6547ACD1 
 954      C7D2E830 
 954      A237A514 
 954      1DBECB
 955 26f4 879601D3 		.ascii	"\207\226\001\323\020\011\252P\212j\012\364\301s\204"
 955      1009AA50 
 955      8A6A0AF4 
 955      C17384
 956 2703 D266842B 		.ascii	"\322f\204+\301\022T.H\254\200^\353\367\266\312S*\003"
 956      C112542E 
 956      48AC805E 
 956      EBF7B6CA 
 956      532A03
 957 2716 65B6519A 		.ascii	"e\266Q\232\022p9\024\016\225\025@m\3354\351O<\256Df"
 957      12703914 
 957      0E951540 
 957      6DDD34E9 
 957      4F3CAE44 
 958 272b 9FBC5E79 		.ascii	"\237\274^y`z2\320\302\024\275\320\261\3230TXb\330\362"
 958      607A32D0 
 958      C214BDD0 
 958      B1D33054 
 958      5862D8F2 
 959 273f A1396485 		.ascii	"\2419d\205\212\034\231\271\235 t\226\362r%04\231\271"
 959      8A1C99B9 
 959      9D207496 
 959      F2722530 
 959      3499B9
 960 2752 99FD72DD 		.ascii	"\231\375r\335\271\177\203\357\\w>~yzu\316\313\354\336"
 960      B97F83EF 
 960      5C773E7E 
 960      797A75CE 
ARM GAS  /tmp/ccikvM4W.s 			page 77


 960      CBECDE
 961 2765 23D705DF 		.ascii	"#\327\005\337\375r\035`\007\273\3335{\030w\177a\330"
 961      FD721D60 
 961      07BBDB35 
 961      7B18777F 
 961      61D8
 962 2777 304A48A0 		.ascii	"0JH\240\2604H*\227\325\247k \017T)X\252R#e\346:\373"
 962      B034482A 
 962      97D5A76B 
 962      200F5429 
 962      58AA5223 
 963 278f 66E5E73A 		.ascii	"f\345\347:\372u\315u\366\351H\242N]s\035\335\201\230"
 963      FA75CD75 
 963      F6E948A2 
 963      4E5D731D 
 963      DD8198
 964 27a2 083EE82C 		.ascii	"\010>\350,.*\010\273\213#\203\212\213\242\276H\250\244"
 964      2E2A08BB 
 964      8B23838A 
 964      8BA2BE48 
 964      A8A4
 965 27b4 A8B8AC30 		.ascii	"\250\270\25404\314=\004z\373\362p\2338z\200>\015\346"
 965      34CC3D04 
 965      7AFBF270 
 965      9B387A80 
 965      3E0DE6
 966 27c7 146EC2C3 		.ascii	"\024n\302\303H\034\035\346\013"
 966      481C1DE6 
 966      0B
 967 27d0 0F836FA2 		.ascii	"\017\203o\242\311\276\250z\345\204\352T\270J\"\005E"
 967      C9BEA87A 
 967      E584EA54 
 967      B84A2205 
 967      45
 968 27e1 035D8348 		.ascii	"\003]\203HL\234\017j\006[b\337\033\010\026\026\206C"
 968      4C9C0F6A 
 968      065B62DF 
 968      1B081616 
 968      8643
 969 27f3 914828E2 		.ascii	"\221H(\342\004\017\245\220<_\350)\002\273\002\006\317"
 969      040FA590 
 969      3C5FE829 
 969      02BB0206 
 969      CF
 970 2804 0B29B920 		.ascii	"\013)\271 \2137\301;\303\357\346\304Q*)\037H\335\277"
 970      8B37C13B 
 970      C3EFE6C4 
 970      512A291F 
 970      48DDBF
 971 2817 F4C41D58 		.ascii	"\364\304\035X\352\304\215#RX\340\201\313~\301\350\240"
 971      EAC48D23 
 971      5258E081 
 971      CB7EC1E8 
 971      A0
 972 2828 F442D2A3 		.ascii	"\364B\322\243\365)\037\0146\250\320]\206\300)\225sH"
 972      F5291F0C 
 972      36A8D05D 
ARM GAS  /tmp/ccikvM4W.s 			page 78


 972      86C02995 
 972      7348
 973 283a 10546B70 		.ascii	"\020Tkp\004~\000\035+\213\022/\321\236\202Q\356\020"
 973      047E001D 
 973      2B8B122F 
 973      D19E8251 
 973      EE10
 974 284c 057BBC1B 		.ascii	"\005{\274\033\270uy!P\354\262hq\260\204J\343\011\243"
 974      B8757921 
 974      50ECB268 
 974      71B0844A 
 974      E309A3
 975 285f 44F0C03A 		.ascii	"D\360\300:\243\207TR< c`A\201\316Sz\241\303\213\035"
 975      A3875452 
 975      3C206360 
 975      4181CE53 
 975      7AA1C38B 
 976 2874 5E60BD2B 		.ascii	"^`\275+\360\224\210\015'>\012\330\263\212\301Q\007x"
 976      F094880D 
 976      273E0AD8 
 976      B38AC151 
 976      0778
 977 2886 285E9564 		.ascii	"(^\225d\007\\8\212J\243,\307\012\0047\365\233\274hA"
 977      075C388A 
 977      4AA32CC7 
 977      0A0437F5 
 977      9BBC6841 
 978 289a 882B05BF 		.ascii	"\210+\005\277\020\226\200qQ\256\234\304>\271\025>v\357"
 978      10968071 
 978      51AE9CC4 
 978      3EB9153E 
 978      76EF
 979 28ac D55B2A8A 		.ascii	"\325[*\2128\211Ir\204\302agQE4\354\216\240g\353\242"
 979      38894972 
 979      84C26167 
 979      514534EC 
 979      8EA067EB 
 980 28c1 7121F156 		.ascii	"q!\361V\275\340\306\006\310\005\361g\003\360\214c\300"
 980      BDE0C606 
 980      C805F167 
 980      03F08C63 
 980      C0
 981 28d2 E0222741 		.ascii	"\340\"'A\363\014\015g\022\326\267V\320\373\206\206v"
 981      F30C0D67 
 981      12D6B756 
 981      D0FB8686 
 981      76
 982 28e3 A80886A3 		.ascii	"\250\010\206\243\035:: \305UD\012{L\371\355\025\342"
 982      1D3A3A20 
 982      C555440A 
 982      7B4CF9ED 
 982      15E2
 983 28f5 C6D15F3B 		.ascii	"\306\321_;\375\326\226\003\022\012\003\023\211>\344"
 983      FDD69603 
 983      120A0313 
 983      893EE4
 984 2904 E115F561 		.ascii	"\341\025\365aZ\2627\300[\037\351@\213K\241\252N\340"
ARM GAS  /tmp/ccikvM4W.s 			page 79


 984      5AB237C0 
 984      5B1FE940 
 984      8B4BA1AA 
 984      4EE0
 985 2916 55D409CC 		.ascii	"U\324\011\314\212\272\321u\214\272H{\217\246t\2465\022"
 985      8ABAD175 
 985      8CBA487B 
 985      8FA674A6 
 985      3512
 986 2928 46134B04 		.ascii	"F\023K\004\334\002\257\002\221\362\301ab=\322\331\333"
 986      DC02AF02 
 986      91F2C161 
 986      623DD2D9 
 986      DB
 987 2939 56F486D8 		.ascii	"V\364\206\330\254P\031Q\322\026\332\004O\250\004M[\032"
 987      AC501951 
 987      D216DA04 
 987      4FA8044D 
 987      5B1A
 988 294b 7CAB693E 		.ascii	"|\253i>\270\246\340\024\012\373\003\020\031$\343%\371"
 988      B8A6E014 
 988      0AFB0310 
 988      1924E325 
 988      F9
 989 295c 7D28ED24 		.ascii	"}(\355$B\021\314\355\302\347|\221B\245S\361\345e)\356"
 989      4211CCED 
 989      C2E77C91 
 989      42A553F1 
 989      E56529EE 
 990 2970 9707AE88 		.ascii	"\227\007\256\210\367\345\205ot\276\354\325\021\2551"
 990      F7E5856F 
 990      74BEECD5 
 990      11AD31
 991 297f A963F3E2 		.ascii	"\251c\363\3422\340\231\332\035\200\223\243^z\325K\337"
 991      32E099DA 
 991      1D8093A3 
 991      5E7AD54B 
 991      DF
 992 2990 1B6AE701 		.ascii	"\033j\347\001W\005\330\332\302\3367\002\240\007`W]o"
 992      5705D8DA 
 992      C2DE3702 
 992      A0076057 
 992      5D6F
 993 29a2 04A2E515 		.ascii	"\004\242\345\025\036x$\014\312\001\337\341B\370\366"
 993      1E78240C 
 993      CA01DFE1 
 993      42F8F6
 994 29b1 BD51561E 		.ascii	"\275QV\036-.z\023P\336\010\320K\367\033\300\206\262"
 994      2D2E7A13 
 994      50DE08D0 
 994      4BF71BC0 
 994      86B2
 995 29c3 D7DDC588 		.ascii	"\327\335\305\210\331\242|p\224)\326]\216\027R\361\000"
 995      D9A27C70 
 995      9429D65D 
 995      8E1752F1 
 995      00
ARM GAS  /tmp/ccikvM4W.s 			page 80


 996 29d4 A97C40F3 		.ascii	"\251|@\363\376y]s\363\031\033\373\274\263G~\277\\\327"
 996      FE795D73 
 996      F3191BFB 
 996      BCB3477E 
 996      BF5CD7
 997 29e7 E008E8CF 		.ascii	"\340\010\350\317\343D\347{\243\012\367*+&-\014\332\210"
 997      E344E77B 
 997      A30AF72A 
 997      2B262D0C 
 997      DA88
 998 29f9 14297414 		.ascii	"\024)t\024\016\030\330\"\361[\036\020\325,\241\230i"
 998      0E18D822 
 998      F15B1E10 
 998      D52CA198 
 998      69
 999 2a0a CA651E3C 		.ascii	"\312e\036<\334\222\325\311\314\310\020\027|\225F\300"
 999      DC92D5C9 
 999      CCC81017 
 999      7C9546C0 
 1000 2a1a 1E827A06 		.ascii	"\036\202z\006\301\020\272\3130AU\353\036\241\350+T\321"
 1000      C110BACB 
 1000      304155EB 
 1000      1EA1E82B 
 1000      54D1
 1001 2a2c D39594CC 		.ascii	"\323\225\224\314\222\362HH\3759\007\272\306\256\025"
 1001      92F24848 
 1001      FD3907BA 
 1001      C6AE15
 1002 2a3b A47F4C67 		.ascii	"\244\177Lgq\335%\241\262\201\321A\276r\370\005\237o"
 1002      71DD25A1 
 1002      B281D141 
 1002      BE72F805 
 1002      9F6F
 1003 2a4d 9568ABF9 		.ascii	"\225h\253\371\330\0079\202\341\201\266l\002<O:\322!"
 1003      D8073982 
 1003      E181B66C 
 1003      023C4F3A 
 1003      D221
 1004 2a5f 4154A716 		.ascii	"AT\247\026\201\300\300\262\301\005\001\3456\355\317"
 1004      81C0C0B2 
 1004      C10501E5 
 1004      36EDCF
 1005 2a6e 03061797 		.ascii	"\003\006\027\227D\177S\\\366\027\001|\010%\025|\310"
 1005      447F535C 
 1005      F617017C 
 1005      0825157C 
 1005      C8
 1006 2a7f 21D46478 		.ascii	"!\324dx\272\347f\347\365\357\235\357\352\236\033\310"
 1006      BAE766E7 
 1006      F5EF9DEF 
 1006      EA9E1BC8 
 1007 2a8f 79390D62 		.ascii	"y9\015b\030\250\274\034\310\006\267\026\256{\365\315"
 1007      18A8BC1C 
 1007      C806B716 
 1007      AE7BF5CD 
 1008 2a9f 2797E970 		.ascii	"'\227\351p\3317'_\361\345\361&\000f\"[\271\354\3275"
 1008      D937275F 
ARM GAS  /tmp/ccikvM4W.s 			page 81


 1008      F1E5F126 
 1008      0066225B 
 1008      B9ECD735 
 1009 2ab3 BF674B7C 		.ascii	"\277gK|\372\257]{\367\312\012\364\355\332'\333G\220"
 1009      FAAF5D7B 
 1009      F7CA0AF4 
 1009      EDDA27DB 
 1009      4790
 1010 2ac5 B2FBF6CA 		.ascii	"\262\373\366\312\316\362\302U\366\337z\345\345\267f"
 1010      CEF2C255 
 1010      F6DF7AE5 
 1010      E5B766
 1011 2ad4 1EC9E9F6 		.ascii	"\036\311\351\366?`$\324\006R\310x';\320/7'\037\022\262"
 1011      3F6024D4 
 1011      0652C878 
 1011      273BD02F 
 1011      37271F12 
 1012 2ae9 B35A310F 		.ascii	"\263Z1\017e\345\222\261\224Rvv\337\256\335z\323\337"
 1012      65E592B1 
 1012      94527676 
 1012      DFAEDD7A 
 1012      D3DF
 1013 2afb 95D2F35E 		.ascii	"\225\322\363^\315\313\317\356C\012\356\363r\367\274"
 1013      CDCBCFEE 
 1013      430AEEF3 
 1013      72F7BC
 1014 2b0a 40D76E39 		.ascii	"@\327n9\271\000@h\312\357\325';\247\177>\241\241wN\346"
 1014      B9004068 
 1014      CAEFD527 
 1014      3BA77F3E 
 1014      A1A1774E 
 1015 2b1f CBD9596D 		.ascii	"\313\331Ym\342 9\375{\364\204\341Gn\366O\311s99\201"
 1015      E22039FD 
 1015      7BF484E1 
 1015      476EF64F 
 1015      C9733939 
 1016 2b34 3E5DFBBE 		.ascii	">]\373\276\032\310\351\227\335\227b>\316\224\017\335"
 1016      1AC8E997 
 1016      DD97623E 
 1016      CE940FDD 
 1017 2b44 25D4241F 		.ascii	"%\324$\037\006\016E\001\"/O\021\014\360\313\311H>PJ"
 1017      060E4501 
 1017      222F4F11 
 1017      0CF0CBC9 
 1017      483E504A 
 1018 2b58 E4DE0CC7 		.ascii	"\344\336\014\307\343\240\007d&!P\022\011\205^w\366\007"
 1018      E3A00764 
 1018      26215012 
 1018      09855E77 
 1018      F607
 1019 2b6a 96C10DDA 		.ascii	"\226\301\015\332\230f\005\203\362\007\025\346\225\204"
 1019      98660583 
 1019      F20715E6 
 1019      9584
 1020 2b78 4215AEAC 		.ascii	"B\025\256\254\354n\375{`\337\225\257\370\361\315\022"
 1020      EC6EFD7B 
 1020      60DF95AF 
ARM GAS  /tmp/ccikvM4W.s 			page 82


 1020      F8F1CD12 
 1021 2b88 374E907F 		.ascii	"7N\220\177\204he\244kA\024L\227\007Zf\031iV\021\222"
 1021      846865A4 
 1021      6B41144C 
 1021      97075A66 
 1021      19695611 
 1022 2b9d 371F0CD8 		.ascii	"7\037\014\330\377\003\303\222\222\272"
 1022      FF03C392 
 1022      92BA
 1023              		.text
 1024              		.section	.gnu.lto_.symtab.8efacb7ade7f2632,"",%progbits
 1025 0000 64617461 		.ascii	"dataLoggerInitialize\000\000\000\000\000\000\000\000"
 1025      4C6F6767 
 1025      6572496E 
 1025      69746961 
 1025      6C697A65 
 1026 001c 00000000 		.ascii	"\000\000\000\000U\003\000\000dataLoggerStop\000\000"
 1026      55030000 
 1026      64617461 
 1026      4C6F6767 
 1026      65725374 
 1027 0034 00000000 		.ascii	"\000\000\000\000\000\000\000\000\000\000\372\003\000"
 1027      00000000 
 1027      0000FA03 
 1027      00
 1028 0041 006C6F67 		.ascii	"\000logfileNew\000\000\000\000\000\000\000\000\000\000"
 1028      66696C65 
 1028      4E657700 
 1028      00000000 
 1028      00000000 
 1029 0056 00000004 		.ascii	"\000\000\000\004\000\000logfileSize\000\000\000\000"
 1029      00006C6F 
 1029      6766696C 
 1029      6553697A 
 1029      65000000 
 1030 006b 00000000 		.ascii	"\000\000\000\000\000\000\000\000\014\004\000\000log"
 1030      00000000 
 1030      0C040000 
 1030      6C6F67
 1031 007a 66696C65 		.ascii	"fileWriteCsv\000\000\000\000\000\000\000\000\000\000"
 1031      57726974 
 1031      65437376 
 1031      00000000 
 1031      00000000 
 1032 0090 00001204 		.ascii	"\000\000\022\004\000\000logfileGetWrCount\000\000\000"
 1032      00006C6F 
 1032      6766696C 
 1032      65476574 
 1032      5772436F 
 1033 00aa 00000000 		.ascii	"\000\000\000\000\000\000\000\000\000\"\004\000\000l"
 1033      00000000 
 1033      00220400 
 1033      006C
 1034 00b8 6F676669 		.ascii	"ogfileClose\000\000\000\000\000\000\000\000\000\000"
 1034      6C65436C 
 1034      6F736500 
 1034      00000000 
ARM GAS  /tmp/ccikvM4W.s 			page 83


 1034      00000000 
 1035 00cd 00002804 		.ascii	"\000\000(\004\000\000logfileOpenAppend\000\000\000\000"
 1035      00006C6F 
 1035      6766696C 
 1035      654F7065 
 1035      6E417070 
 1036 00e8 00000000 		.ascii	"\000\000\000\000\000\000\000\000.\004\000\000logfil"
 1036      00000000 
 1036      2E040000 
 1036      6C6F6766 
 1036      696C
 1037 00fa 65577269 		.ascii	"eWrite\000\000\000\000\000\000\000\000\000\000\000\000"
 1037      74650000 
 1037      00000000 
 1037      00000000 
 1037      0000
 1038 010c 32040000 		.ascii	"2\004\000\000dataloggerThread\000\000\000\000\000\000"
 1038      64617461 
 1038      6C6F6767 
 1038      65725468 
 1038      72656164 
 1039 0126 00000000 		.ascii	"\000\000\000\000\000\000@\004\000\000chvprintf\000\000"
 1039      00004004 
 1039      00006368 
 1039      76707269 
 1039      6E746600 
 1040 013b 02000000 		.ascii	"\002\000\000\000\000\000\000\000\000\000F\004\000\000"
 1040      00000000 
 1040      00004604 
 1040      0000
 1041 0149 665F6F70 		.ascii	"f_open\000\000\002\000\000\000\000\000\000\000\000\000"
 1041      656E0000 
 1041      02000000 
 1041      00000000 
 1041      0000
 1042 015b 55040000 		.ascii	"U\004\000\000f_close\000\000\002\000\000\000\000\000"
 1042      665F636C 
 1042      6F736500 
 1042      00020000 
 1042      000000
 1043 016e 00000000 		.ascii	"\000\000\000\000\210\004\000\000f_mount\000\000\002"
 1043      88040000 
 1043      665F6D6F 
 1043      756E7400 
 1043      0002
 1044 0180 00000000 		.ascii	"\000\000\000\000\000\000\000\000\000\214\004\000\000"
 1044      00000000 
 1044      008C0400 
 1044      00
 1045 018d 73646D6D 		.ascii	"sdmmcGetFS\000\000\002\000\000\000\000\000\000\000\000"
 1045      63476574 
 1045      46530000 
 1045      02000000 
 1045      00000000 
 1046 01a2 00920400 		.ascii	"\000\222\004\000\000f_lseek\000\000\002\000\000\000"
 1046      00665F6C 
 1046      7365656B 
ARM GAS  /tmp/ccikvM4W.s 			page 84


 1046      00000200 
 1046      0000
 1047 01b4 00000000 		.ascii	"\000\000\000\000\000\000\226\004\000\000f_write\000"
 1047      00009604 
 1047      0000665F 
 1047      77726974 
 1047      6500
 1048 01c6 00020000 		.ascii	"\000\002\000\000\000\000\000\000\000\000\000\233\004"
 1048      00000000 
 1048      0000009B 
 1048      04
 1049 01d3 00006368 		.ascii	"\000\000chThdSleep\000\000\002\000\000\000\000\000\000"
 1049      54686453 
 1049      6C656570 
 1049      00000200 
 1049      00000000 
 1050 01e8 000000A6 		.ascii	"\000\000\000\246\004\000\000"
 1050      040000
 1051              		.text
 1052              		.section	.gnu.lto_.opts,"",%progbits
 1053 0000 272D6D63 		.ascii	"'-mcpu=cortex-m4' '-mfloat-abi=hard' '-mfpu=fpv4-sp"
 1053      70753D63 
 1053      6F727465 
 1053      782D6D34 
 1053      2720272D 
 1054 0033 2D643136 		.ascii	"-d16' '-mno-thumb-interwork' '-mthumb' '-O2' '-fomi"
 1054      2720272D 
 1054      6D6E6F2D 
 1054      7468756D 
 1054      622D696E 
 1055 0066 742D6672 		.ascii	"t-frame-pointer' '-falign-functions=16' '-ffunction"
 1055      616D652D 
 1055      706F696E 
 1055      74657227 
 1055      20272D66 
 1056 0099 2D736563 		.ascii	"-sections' '-fdata-sections' '-fno-common' '-flto' "
 1056      74696F6E 
 1056      73272027 
 1056      2D666461 
 1056      74612D73 
 1057 00cc 272D6673 		.ascii	"'-fsingle-precision-constant'\000"
 1057      696E676C 
 1057      652D7072 
 1057      65636973 
 1057      696F6E2D 
 1058              		.text
 1059              		.section	.text.chprintf,"ax",%progbits
 1060              		.align	2
 1061              		.p2align 4,,15
 1062              		.thumb
 1063              		.thumb_func
 1064              		.type	chprintf, %function
 1065              	chprintf:
 1066              		@ args = 4, pretend = 12, frame = 8
 1067              		@ frame_needed = 0, uses_anonymous_args = 1
 1068 0000 0EB4     		push	{r1, r2, r3}
 1069 0002 00B5     		push	{lr}
ARM GAS  /tmp/ccikvM4W.s 			page 85


 1070 0004 82B0     		sub	sp, sp, #8
 1071 0006 03AA     		add	r2, sp, #12
 1072 0008 52F8041B 		ldr	r1, [r2], #4
 1073 000c 0192     		str	r2, [sp, #4]
 1074 000e FFF7FEFF 		bl	chvprintf
 1075 0012 02B0     		add	sp, sp, #8
 1076              		@ sp needed
 1077 0014 5DF804EB 		ldr	lr, [sp], #4
 1078 0018 03B0     		add	sp, sp, #12
 1079 001a 7047     		bx	lr
 1080              		.size	chprintf, .-chprintf
 1081 001c AFF30080 		.section	.text.dataLoggerInitialize,"ax",%progbits
 1082              		.align	2
 1083              		.p2align 4,,15
 1084              		.global	dataLoggerInitialize
 1085              		.thumb
 1086              		.thumb_func
 1087              		.type	dataLoggerInitialize, %function
 1088              	dataLoggerInitialize:
 1089              		@ args = 0, pretend = 0, frame = 0
 1090              		@ frame_needed = 0, uses_anonymous_args = 0
 1091 0000 70B5     		push	{r4, r5, r6, lr}
 1092 0002 0446     		mov	r4, r0
 1093 0004 0D46     		mov	r5, r1
 1094 0006 DAB1     		cbz	r2, .L6
 1095 0008 C0B1     		cbz	r0, .L3
 1096 000a 1249     		ldr	r1, .L11
 1097 000c 124E     		ldr	r6, .L11+4
 1098 000e 0260     		str	r2, [r0]
 1099 0010 1046     		mov	r0, r2
 1100 0012 002D     		cmp	r5, #0
 1101 0014 08BF     		it	eq
 1102 0016 0D46     		moveq	r5, r1
 1103 0018 3360     		str	r3, [r6]
 1104 001a FFF7FEFF 		bl	sdmmcGetFS
 1105 001e A560     		str	r5, [r4, #8]
 1106 0020 2946     		mov	r1, r5
 1107 0022 6060     		str	r0, [r4, #4]
 1108 0024 0122     		movs	r2, #1
 1109 0026 FFF7FEFF 		bl	f_mount
 1110 002a 0546     		mov	r5, r0
 1111 002c 58B9     		cbnz	r0, .L10
 1112 002e 0123     		movs	r3, #1
 1113 0030 3068     		ldr	r0, [r6]
 1114 0032 2373     		strb	r3, [r4, #12]
 1115 0034 0949     		ldr	r1, .L11+8
 1116 0036 FFF7FEFF 		bl	chprintf
 1117 003a 2846     		mov	r0, r5
 1118              	.L3:
 1119 003c 40B2     		sxtb	r0, r0
 1120 003e 70BD     		pop	{r4, r5, r6, pc}
 1121              	.L6:
 1122 0040 1046     		mov	r0, r2
 1123 0042 40B2     		sxtb	r0, r0
 1124 0044 70BD     		pop	{r4, r5, r6, pc}
 1125              	.L10:
 1126 0046 3068     		ldr	r0, [r6]
ARM GAS  /tmp/ccikvM4W.s 			page 86


 1127 0048 0549     		ldr	r1, .L11+12
 1128 004a 2A46     		mov	r2, r5
 1129 004c FFF7FEFF 		bl	chprintf
 1130 0050 FF20     		movs	r0, #255
 1131 0052 F3E7     		b	.L3
 1132              	.L12:
 1133              		.align	2
 1134              	.L11:
 1135 0054 00000000 		.word	.LC0
 1136 0058 00000000 		.word	.LANCHOR0
 1137 005c 34000000 		.word	.LC2
 1138 0060 04000000 		.word	.LC1
 1139              		.size	dataLoggerInitialize, .-dataLoggerInitialize
 1140 0064 AFF30080 		.section	.text.dataLoggerStop,"ax",%progbits
 1140      AFF30080 
 1140      AFF30080 
 1141              		.align	2
 1142              		.p2align 4,,15
 1143              		.global	dataLoggerStop
 1144              		.thumb
 1145              		.thumb_func
 1146              		.type	dataLoggerStop, %function
 1147              	dataLoggerStop:
 1148              		@ args = 0, pretend = 0, frame = 0
 1149              		@ frame_needed = 0, uses_anonymous_args = 0
 1150 0000 074B     		ldr	r3, .L14
 1151 0002 0849     		ldr	r1, .L14+4
 1152 0004 10B5     		push	{r4, lr}
 1153 0006 0446     		mov	r4, r0
 1154 0008 1868     		ldr	r0, [r3]
 1155 000a FFF7FEFF 		bl	chprintf
 1156 000e 0020     		movs	r0, #0
 1157 0010 0146     		mov	r1, r0
 1158 0012 0246     		mov	r2, r0
 1159 0014 FFF7FEFF 		bl	f_mount
 1160 0018 0020     		movs	r0, #0
 1161 001a 2073     		strb	r0, [r4, #12]
 1162 001c 10BD     		pop	{r4, pc}
 1163              	.L15:
 1164 001e 00BF     		.align	2
 1165              	.L14:
 1166 0020 00000000 		.word	.LANCHOR0
 1167 0024 54000000 		.word	.LC3
 1168              		.size	dataLoggerStop, .-dataLoggerStop
 1169 0028 AFF30080 		.section	.text.logfileNew,"ax",%progbits
 1169      AFF30080 
 1170              		.align	2
 1171              		.p2align 4,,15
 1172              		.global	logfileNew
 1173              		.thumb
 1174              		.thumb_func
 1175              		.type	logfileNew, %function
 1176              	logfileNew:
 1177              		@ args = 0, pretend = 0, frame = 0
 1178              		@ frame_needed = 0, uses_anonymous_args = 0
 1179 0000 2DE9F041 		push	{r4, r5, r6, r7, r8, lr}
 1180 0004 124E     		ldr	r6, .L22
ARM GAS  /tmp/ccikvM4W.s 			page 87


 1181 0006 0C46     		mov	r4, r1
 1182 0008 0546     		mov	r5, r0
 1183 000a 1249     		ldr	r1, .L22+4
 1184 000c 3068     		ldr	r0, [r6]
 1185 000e 9046     		mov	r8, r2
 1186 0010 1F46     		mov	r7, r3
 1187 0012 FFF7FEFF 		bl	chprintf
 1188 0016 247B     		ldrb	r4, [r4, #12]	@ zero_extendqisi2
 1189 0018 1CB9     		cbnz	r4, .L21
 1190              	.L19:
 1191 001a 2046     		mov	r0, r4
 1192 001c 40B2     		sxtb	r0, r0
 1193 001e BDE8F081 		pop	{r4, r5, r6, r7, r8, pc}
 1194              	.L21:
 1195 0022 0023     		movs	r3, #0
 1196 0024 C5F80C80 		str	r8, [r5, #12]
 1197 0028 6F60     		str	r7, [r5, #4]
 1198 002a 4046     		mov	r0, r8
 1199 002c 3946     		mov	r1, r7
 1200 002e 2B61     		str	r3, [r5, #16]
 1201 0030 0A22     		movs	r2, #10
 1202 0032 FFF7FEFF 		bl	f_open
 1203 0036 0446     		mov	r4, r0
 1204 0038 0028     		cmp	r0, #0
 1205 003a EED0     		beq	.L19
 1206 003c 3068     		ldr	r0, [r6]
 1207 003e 0649     		ldr	r1, .L22+8
 1208 0040 2246     		mov	r2, r4
 1209 0042 FFF7FEFF 		bl	chprintf
 1210 0046 E0B2     		uxtb	r0, r4
 1211 0048 40B2     		sxtb	r0, r0
 1212 004a BDE8F081 		pop	{r4, r5, r6, r7, r8, pc}
 1213              	.L23:
 1214 004e 00BF     		.align	2
 1215              	.L22:
 1216 0050 00000000 		.word	.LANCHOR0
 1217 0054 74000000 		.word	.LC4
 1218 0058 98000000 		.word	.LC5
 1219              		.size	logfileNew, .-logfileNew
 1220 005c AFF30080 		.section	.text.logfileSize,"ax",%progbits
 1221              		.align	2
 1222              		.p2align 4,,15
 1223              		.global	logfileSize
 1224              		.thumb
 1225              		.thumb_func
 1226              		.type	logfileSize, %function
 1227              	logfileSize:
 1228              		@ args = 0, pretend = 0, frame = 0
 1229              		@ frame_needed = 0, uses_anonymous_args = 0
 1230              		@ link register save eliminated.
 1231 0000 0020     		movs	r0, #0
 1232 0002 7047     		bx	lr
 1233              		.size	logfileSize, .-logfileSize
 1234 0004 AFF30080 		.section	.text.logfileWriteCsv,"ax",%progbits
 1234      AFF30080 
 1234      AFF30080 
 1235              		.align	2
ARM GAS  /tmp/ccikvM4W.s 			page 88


 1236              		.p2align 4,,15
 1237              		.global	logfileWriteCsv
 1238              		.thumb
 1239              		.thumb_func
 1240              		.type	logfileWriteCsv, %function
 1241              	logfileWriteCsv:
 1242              		@ args = 0, pretend = 0, frame = 0
 1243              		@ frame_needed = 0, uses_anonymous_args = 0
 1244              		@ link register save eliminated.
 1245 0000 0020     		movs	r0, #0
 1246 0002 7047     		bx	lr
 1247              		.size	logfileWriteCsv, .-logfileWriteCsv
 1248 0004 AFF30080 		.section	.text.logfileGetWrCount,"ax",%progbits
 1248      AFF30080 
 1248      AFF30080 
 1249              		.align	2
 1250              		.p2align 4,,15
 1251              		.global	logfileGetWrCount
 1252              		.thumb
 1253              		.thumb_func
 1254              		.type	logfileGetWrCount, %function
 1255              	logfileGetWrCount:
 1256              		@ args = 0, pretend = 0, frame = 0
 1257              		@ frame_needed = 0, uses_anonymous_args = 0
 1258              		@ link register save eliminated.
 1259 0000 0069     		ldr	r0, [r0, #16]
 1260 0002 7047     		bx	lr
 1261              		.size	logfileGetWrCount, .-logfileGetWrCount
 1262 0004 AFF30080 		.section	.text.logfileClose,"ax",%progbits
 1262      AFF30080 
 1262      AFF30080 
 1263              		.align	2
 1264              		.p2align 4,,15
 1265              		.global	logfileClose
 1266              		.thumb
 1267              		.thumb_func
 1268              		.type	logfileClose, %function
 1269              	logfileClose:
 1270              		@ args = 0, pretend = 0, frame = 0
 1271              		@ frame_needed = 0, uses_anonymous_args = 0
 1272 0000 10B5     		push	{r4, lr}
 1273 0002 0446     		mov	r4, r0
 1274 0004 C068     		ldr	r0, [r0, #12]
 1275 0006 FFF7FEFF 		bl	f_close
 1276 000a 10B1     		cbz	r0, .L28
 1277 000c 0023     		movs	r3, #0
 1278 000e 2361     		str	r3, [r4, #16]
 1279 0010 0120     		movs	r0, #1
 1280              	.L28:
 1281 0012 40B2     		sxtb	r0, r0
 1282 0014 10BD     		pop	{r4, pc}
 1283              		.size	logfileClose, .-logfileClose
 1284 0016 00BFAFF3 		.section	.text.logfileOpenAppend,"ax",%progbits
 1284      0080AFF3 
 1284      0080
 1285              		.align	2
 1286              		.p2align 4,,15
ARM GAS  /tmp/ccikvM4W.s 			page 89


 1287              		.global	logfileOpenAppend
 1288              		.thumb
 1289              		.thumb_func
 1290              		.type	logfileOpenAppend, %function
 1291              	logfileOpenAppend:
 1292              		@ args = 0, pretend = 0, frame = 0
 1293              		@ frame_needed = 0, uses_anonymous_args = 0
 1294 0000 38B5     		push	{r3, r4, r5, lr}
 1295 0002 0546     		mov	r5, r0
 1296 0004 1222     		movs	r2, #18
 1297 0006 C068     		ldr	r0, [r0, #12]
 1298 0008 6968     		ldr	r1, [r5, #4]
 1299 000a FFF7FEFF 		bl	f_open
 1300 000e 0446     		mov	r4, r0
 1301 0010 08B1     		cbz	r0, .L35
 1302              	.L31:
 1303 0012 60B2     		sxtb	r0, r4
 1304 0014 38BD     		pop	{r3, r4, r5, pc}
 1305              	.L35:
 1306 0016 E868     		ldr	r0, [r5, #12]
 1307 0018 C168     		ldr	r1, [r0, #12]
 1308 001a FFF7FEFF 		bl	f_lseek
 1309 001e 0446     		mov	r4, r0
 1310 0020 0028     		cmp	r0, #0
 1311 0022 F6D0     		beq	.L31
 1312 0024 E868     		ldr	r0, [r5, #12]
 1313 0026 FFF7FEFF 		bl	f_close
 1314 002a 60B2     		sxtb	r0, r4
 1315 002c 38BD     		pop	{r3, r4, r5, pc}
 1316              		.size	logfileOpenAppend, .-logfileOpenAppend
 1317 002e 00BF     		.section	.text.logfileWrite,"ax",%progbits
 1318              		.align	2
 1319              		.p2align 4,,15
 1320              		.global	logfileWrite
 1321              		.thumb
 1322              		.thumb_func
 1323              		.type	logfileWrite, %function
 1324              	logfileWrite:
 1325              		@ args = 0, pretend = 0, frame = 8
 1326              		@ frame_needed = 0, uses_anonymous_args = 0
 1327 0000 2DE9E041 		push	{r5, r6, r7, r8, lr}
 1328 0004 1E46     		mov	r6, r3
 1329 0006 83B0     		sub	sp, sp, #12
 1330 0008 0546     		mov	r5, r0
 1331 000a 8846     		mov	r8, r1
 1332 000c 1746     		mov	r7, r2
 1333 000e 2BB1     		cbz	r3, .L40
 1334 0010 C068     		ldr	r0, [r0, #12]
 1335 0012 FFF7FEFF 		bl	logfileOpenAppend
 1336 0016 10F0FF0F 		tst	r0, #255
 1337 001a 0AD1     		bne	.L38
 1338              	.L40:
 1339 001c 4146     		mov	r1, r8
 1340 001e E868     		ldr	r0, [r5, #12]
 1341 0020 3A46     		mov	r2, r7
 1342 0022 01AB     		add	r3, sp, #4
 1343 0024 FFF7FEFF 		bl	f_write
ARM GAS  /tmp/ccikvM4W.s 			page 90


 1344 0028 10B9     		cbnz	r0, .L43
 1345 002a 019B     		ldr	r3, [sp, #4]
 1346 002c 9F42     		cmp	r7, r3
 1347 002e 04D0     		beq	.L47
 1348              	.L43:
 1349 0030 0120     		movs	r0, #1
 1350              	.L38:
 1351 0032 40B2     		sxtb	r0, r0
 1352 0034 03B0     		add	sp, sp, #12
 1353              		@ sp needed
 1354 0036 BDE8E081 		pop	{r5, r6, r7, r8, pc}
 1355              	.L47:
 1356 003a 2B69     		ldr	r3, [r5, #16]
 1357 003c 0133     		adds	r3, r3, #1
 1358 003e 2B61     		str	r3, [r5, #16]
 1359 0040 26B9     		cbnz	r6, .L48
 1360 0042 3046     		mov	r0, r6
 1361 0044 40B2     		sxtb	r0, r0
 1362 0046 03B0     		add	sp, sp, #12
 1363              		@ sp needed
 1364 0048 BDE8E081 		pop	{r5, r6, r7, r8, pc}
 1365              	.L48:
 1366 004c E868     		ldr	r0, [r5, #12]
 1367 004e FFF7FEFF 		bl	f_close
 1368 0052 0028     		cmp	r0, #0
 1369 0054 EDD0     		beq	.L38
 1370 0056 C0B2     		uxtb	r0, r0
 1371 0058 EBE7     		b	.L38
 1372              		.size	logfileWrite, .-logfileWrite
 1373 005a 00BFAFF3 		.section	.text.dataloggerThread,"ax",%progbits
 1373      0080
 1374              		.align	2
 1375              		.p2align 4,,15
 1376              		.global	dataloggerThread
 1377              		.thumb
 1378              		.thumb_func
 1379              		.type	dataloggerThread, %function
 1380              	dataloggerThread:
 1381              		@ args = 0, pretend = 0, frame = 0
 1382              		@ frame_needed = 0, uses_anonymous_args = 0
 1383 0000 90F8AC30 		ldrb	r3, [r0, #172]	@ zero_extendqisi2
 1384 0004 70B5     		push	{r4, r5, r6, lr}
 1385 0006 0446     		mov	r4, r0
 1386 0008 8BB1     		cbz	r3, .L51
 1387 000a 0A4E     		ldr	r6, .L57
 1388 000c 42F21075 		movw	r5, #10000
 1389              	.L52:
 1390 0010 D4F8B030 		ldr	r3, [r4, #176]
 1391 0014 05FB03F0 		mul	r0, r5, r3
 1392 0018 0138     		subs	r0, r0, #1
 1393 001a A6FB0030 		umull	r3, r0, r6, r0
 1394 001e 8009     		lsrs	r0, r0, #6
 1395 0020 0130     		adds	r0, r0, #1
 1396 0022 FFF7FEFF 		bl	chThdSleep
 1397 0026 94F8AC30 		ldrb	r3, [r4, #172]	@ zero_extendqisi2
 1398 002a 002B     		cmp	r3, #0
 1399 002c F0D1     		bne	.L52
ARM GAS  /tmp/ccikvM4W.s 			page 91


 1400              	.L51:
 1401 002e 0020     		movs	r0, #0
 1402 0030 70BD     		pop	{r4, r5, r6, pc}
 1403              	.L58:
 1404 0032 00BF     		.align	2
 1405              	.L57:
 1406 0034 D34D6210 		.word	274877907
 1407              		.size	dataloggerThread, .-dataloggerThread
 1408 0038 AFF30080 		.section	.bss.DEBUG,"aw",%nobits
 1408      AFF30080 
 1409              		.align	2
 1410              		.set	.LANCHOR0,. + 0
 1411              		.type	DEBUG, %object
 1412              		.size	DEBUG, 4
 1413              	DEBUG:
 1414 0000 00000000 		.space	4
 1415              		.section	.rodata.str1.4,"aMS",%progbits,1
 1416              		.align	2
 1417              	.LC0:
 1418 0000 00       		.ascii	"\000"
 1419 0001 000000   		.space	3
 1420              	.LC1:
 1421 0004 44415441 		.ascii	"DATALOGGER: Error Mounting Filesystem,ERR%20d\012\000"
 1421      4C4F4747 
 1421      45523A20 
 1421      4572726F 
 1421      72204D6F 
 1422 0033 00       		.space	1
 1423              	.LC2:
 1424 0034 44415441 		.ascii	"DATALOGGER: Datalogger Started\012\000"
 1424      4C4F4747 
 1424      45523A20 
 1424      44617461 
 1424      6C6F6767 
 1425              	.LC3:
 1426 0054 44415441 		.ascii	"DATALOGGER: Datalogger Stopped\012\000"
 1426      4C4F4747 
 1426      45523A20 
 1426      44617461 
 1426      6C6F6767 
 1427              	.LC4:
 1428 0074 44415441 		.ascii	"DATALOGGER: Creating New Logfile\012\000"
 1428      4C4F4747 
 1428      45523A20 
 1428      43726561 
 1428      74696E67 
 1429 0096 0000     		.space	2
 1430              	.LC5:
 1431 0098 44415441 		.ascii	"DATALOGGER: Error creating Logfile, ERR%02d\012\000"
 1431      4C4F4747 
 1431      45523A20 
 1431      4572726F 
 1431      72206372 
 1432              		.comm	__gnu_lto_v1,1,1
 1433 00c5 000000   		.ident	"GCC: (GNU Tools for ARM Embedded Processors) 4.8.4 20140526 (release) [ARM/embedded-4_8-br
ARM GAS  /tmp/ccikvM4W.s 			page 92


DEFINED SYMBOLS
                            *ABS*:0000000000000000 datalogger.c
     /tmp/ccikvM4W.s:1060   .text.chprintf:0000000000000000 $t
     /tmp/ccikvM4W.s:1065   .text.chprintf:0000000000000000 chprintf
     /tmp/ccikvM4W.s:1082   .text.dataLoggerInitialize:0000000000000000 $t
     /tmp/ccikvM4W.s:1088   .text.dataLoggerInitialize:0000000000000000 dataLoggerInitialize
     /tmp/ccikvM4W.s:1135   .text.dataLoggerInitialize:0000000000000054 $d
     /tmp/ccikvM4W.s:1141   .text.dataLoggerStop:0000000000000000 $t
     /tmp/ccikvM4W.s:1147   .text.dataLoggerStop:0000000000000000 dataLoggerStop
     /tmp/ccikvM4W.s:1166   .text.dataLoggerStop:0000000000000020 $d
     /tmp/ccikvM4W.s:1170   .text.logfileNew:0000000000000000 $t
     /tmp/ccikvM4W.s:1176   .text.logfileNew:0000000000000000 logfileNew
     /tmp/ccikvM4W.s:1216   .text.logfileNew:0000000000000050 $d
     /tmp/ccikvM4W.s:1221   .text.logfileSize:0000000000000000 $t
     /tmp/ccikvM4W.s:1227   .text.logfileSize:0000000000000000 logfileSize
     /tmp/ccikvM4W.s:1235   .text.logfileWriteCsv:0000000000000000 $t
     /tmp/ccikvM4W.s:1241   .text.logfileWriteCsv:0000000000000000 logfileWriteCsv
     /tmp/ccikvM4W.s:1249   .text.logfileGetWrCount:0000000000000000 $t
     /tmp/ccikvM4W.s:1255   .text.logfileGetWrCount:0000000000000000 logfileGetWrCount
     /tmp/ccikvM4W.s:1263   .text.logfileClose:0000000000000000 $t
     /tmp/ccikvM4W.s:1269   .text.logfileClose:0000000000000000 logfileClose
     /tmp/ccikvM4W.s:1285   .text.logfileOpenAppend:0000000000000000 $t
     /tmp/ccikvM4W.s:1291   .text.logfileOpenAppend:0000000000000000 logfileOpenAppend
     /tmp/ccikvM4W.s:1318   .text.logfileWrite:0000000000000000 $t
     /tmp/ccikvM4W.s:1324   .text.logfileWrite:0000000000000000 logfileWrite
     /tmp/ccikvM4W.s:1374   .text.dataloggerThread:0000000000000000 $t
     /tmp/ccikvM4W.s:1380   .text.dataloggerThread:0000000000000000 dataloggerThread
     /tmp/ccikvM4W.s:1406   .text.dataloggerThread:0000000000000034 $d
     /tmp/ccikvM4W.s:1409   .bss.DEBUG:0000000000000000 $d
     /tmp/ccikvM4W.s:1413   .bss.DEBUG:0000000000000000 DEBUG
     /tmp/ccikvM4W.s:1416   .rodata.str1.4:0000000000000000 $d
                            *COM*:0000000000000001 __gnu_lto_v1
     /tmp/ccikvM4W.s:1140   .text.dataLoggerInitialize:0000000000000064 $t
     /tmp/ccikvM4W.s:1169   .text.dataLoggerStop:0000000000000028 $t
     /tmp/ccikvM4W.s:1220   .text.logfileNew:000000000000005c $t
     /tmp/ccikvM4W.s:1408   .text.dataloggerThread:0000000000000038 $t

UNDEFINED SYMBOLS
chvprintf
sdmmcGetFS
f_mount
f_open
f_close
f_lseek
f_write
chThdSleep
