ARM GAS  /tmp/ccLgmrsb.s 			page 1


   1              		.syntax unified
   2              		.cpu cortex-m3
   3              		.fpu softvfp
   4              		.eabi_attribute 20, 1
   5              		.eabi_attribute 21, 1
   6              		.eabi_attribute 23, 3
   7              		.eabi_attribute 24, 1
   8              		.eabi_attribute 25, 1
   9              		.eabi_attribute 26, 1
  10              		.eabi_attribute 30, 2
  11              		.eabi_attribute 34, 1
  12              		.eabi_attribute 18, 4
  13              		.thumb
  14              		.file	"datalogger.c"
  15              		.section	.gnu.lto_.jmpfuncs.6c9cd2ad4a75eda6,"",%progbits
  16 0000 789C6362 		.ascii	"x\234cb`b\300\006\352\200X\000\2109\030\030\231\031"
  16      6062C006 
  16      EA805800 
  16      88391818 
  16      9919
  17 0012 1898AA19 		.ascii	"\030\230\252\031~5\314h\020\310dd\220c`\234\3330\303"
  17      7E35CC68 
  17      10C86464 
  17      9063609C 
  17      DB30C3
  18 0025 21939111 		.ascii	"!\223\221\021\254\216)\2021\223\221\211\213\201\201"
  18      AC8E2982 
  18      31939189 
  18      8B8181
  19 0034 919D19C1 		.ascii	"\221\235\031\301\0072\300\332\312\200\230\221\031,\306"
  19      0732C0DA 
  19      CA809891 
  19      192CC6
  20 0043 0C936441 		.ascii	"\014\223dAV\305\314\014\226(cd`a`eg\201\331\316\306"
  20      56C5CC0C 
  20      96286364 
  20      60616065 
  20      6781D9CE 
  21 0058 C00E369F 		.ascii	"\300\0166\237\337\300\252$\265\270$-3'U\257\244\242"
  21      DFC0AA24 
  21      B5B8242D 
  21      332755AF 
  21      A4A2
  22 006a 840100FF 		.ascii	"\204\001\000\377\344\021/"
  22      E4112F
  23              		.text
  24              		.section	.gnu.lto_.inline.6c9cd2ad4a75eda6,"",%progbits
  25 0000 789C8590 		.ascii	"x\234\205\2201n\3030\014E?)\332\222\223\266q\021 E\201"
  25      316EC330 
  25      0C453F29 
  25      DA9293B6 
  25      71112045 
  26 0015 0049A78C 		.ascii	"\000I\247\214=@\357\220\271c\267\272\267\360\3501\007"
  26      3D40EF90 
  26      B963B7BA 
  26      B7F0E831 
  26      07
ARM GAS  /tmp/ccLgmrsb.s 			page 2


  27 0026 C890B1D7 		.ascii	"\310\220\261\327\352\226\241W(\220O\011\232\022\240"
  27      EA96A157 
  27      28904F09 
  27      9A12A0
  28 0035 064C7D91 		.ascii	"\006L}\221\024\371H\205\342\326\367-\345L\300|)\002"
  28      14F94885 
  28      E2D6F72D 
  28      E54CC07C 
  28      2902
  29 0047 5EC387D9 		.ascii	"^\303\207\331i\203\366\264Q\3109Z\261\236\324<0z\330"
  29      6983F6B4 
  29      51C8395A 
  29      B19ED43C 
  29      307AD8
  30 005a 83594F2F 		.ascii	"\203YO/\322\351\347\273|I\303\200\016U!\373ZWCU\222"
  30      D2E9E7BB 
  30      7C49C380 
  30      0E5521FB 
  30      5A574355 
  31 006f 7DD1D550 		.ascii	"}\321\325P\225\346\276n\304\215\273rCv\036i\247\365"
  31      95E6BE6E 
  31      C48DBB72 
  31      43761E69 
  31      A7F5
  32 0081 6809767C 		.ascii	"h\011v|\036\323\226\347\317j\233\024\351\357\225\227"
  32      1ED396E7 
  32      CF6A9B14 
  32      E9EF9597 
  33 0091 C2414112 		.ascii	"\302AA\022\262\204;\327r\3303\336\013\353\236#\342\264"
  33      B2843BD7 
  33      72D833DE 
  33      0BEB9E23 
  33      E2B4
  34 00a3 CBD3DA3D 		.ascii	"\313\323\332=y\341\1777\223P0\222\017X8\212,\023\327"
  34      79E17F37 
  34      93503092 
  34      0F58388A 
  34      2C13D7
  35 00b6 FE7CDE2B 		.ascii	"\376|\336+\232i\327{\001\026\317\265\015\201\300Z\223"
  35      9A69D77B 
  35      0116CFB5 
  35      0D81C05A 
  35      93
  36 00c7 1CC1162B 		.ascii	"\034\301\026+\011e]y\202<\220\315~\337n-\256]0\346\270"
  36      09655D79 
  36      823C90CD 
  36      7EDF6E2D 
  36      AE5D30E6 
  37 00dc 046EAF6A 		.ascii	"\004n\257jEt\217\377\255\236$\016\202\0131\300.."
  37      45748FFF 
  37      AD9E240E 
  37      820B31C0 
  37      2E2E
  38              		.text
  39              		.section	.gnu.lto_.pureconst.6c9cd2ad4a75eda6,"",%progbits
  40 0000 789C6362 		.ascii	"x\234cb`b\020d\200\000\016\006IF)&)fI\026\006VI6\006"
  40      60621064 
ARM GAS  /tmp/ccLgmrsb.s 			page 3


  40      80000E06 
  40      49462926 
  40      29664916 
  41 0019 76490008 		.ascii	"vI\000\010\304\000\322"
  41      C400D2
  42              		.text
  43              		.section	.gnu.lto_logfileNew.part.0.6c9cd2ad4a75eda6,"",%progbits
  44 0000 789C5D52 		.ascii	"x\234]R\317K\033A\024~\337\314l\272\246\212\036\012"
  44      CF4B1B41 
  44      147EDFCC 
  44      6CBAA68A 
  44      1E0A
  45 0012 5204118F 		.ascii	"R\004\021\217)\250gO\375#\014\350q\033\323e!R\210{("
  45      29A8674F 
  45      FD230CE8 
  45      711BD365 
  45      2152887B 
  46 0027 E4E0B346 		.ascii	"\344\340\263F\361b\011\236\374\201`(=\367\250\007\017"
  46      F162099E 
  46      FC816028 
  46      3DF7A807 
  46      0F
  47 0038 F1127268 		.ascii	"\361\022rh\025!\010\012B\356\025{(\036,b\372\336.\246"
  47      1521080A 
  47      42EE157B 
  47      281E2C62 
  47      FADE2EA6 
  48 004c D5819DF7 		.ascii	"\325\201\235\367\336\314\367}\363\275\2315d\350\371"
  48      DECCF77D 
  48      F3BD9935 
  48      64E8F9
  49 005b 9896EF1C 		.ascii	"\230\226\357\034D9\211\310\020\274\332\211$\036L\022"
  49      443989C8 
  49      10BCDA89 
  49      241E4C12 
  50 006b 8DB1ED49 		.ascii	"\215\261\355I\342\254;\032%\356\267p\272\272\354;@\023"
  50      E2AC3B1A 
  50      25EEB770 
  50      BABAEC3B 
  50      4013
  51 007d 022D79C6 		.ascii	"\002-y\306:,\315A\265\3148\325\2317;\253?\033\330\346"
  51      3A2CCD41 
  51      B5CC38D5 
  51      99373BAB 
  51      3F1BD8E6 
  52 0091 46759FEF 		.ascii	"Fu\237\357\273] \202\234;\004*\200f\245\300X\022\214"
  52      BB5D2082 
  52      9C3B042A 
  52      8066A5C0 
  52      58128C
  53 00a4 7B6A24E5 		.ascii	"{j$\3456\256\232\237\207\271\3035~\020j\004kh\370\037"
  53      36AE9A9F 
  53      87B9C335 
  53      7E106A04 
  53      6B68F81F 
  54 00b8 D34F9978 		.ascii	"\323O\231x\312\374f\270\323\355\336\375\362}`A\317\212"
  54      CAFC66B8 
ARM GAS  /tmp/ccLgmrsb.s 			page 4


  54      D3EDDEFD 
  54      F27D6041 
  54      CF8A
  55 00ca E02C05F8 		.ascii	"\340,\005\370\202qrRx\236N\002\364\250\312\\\033Kw\002"
  55      82717252 
  55      789E4E02 
  55      F4A8CA5C 
  55      1B4B7702 
  56 00de D46526D5 		.ascii	"\324e&\325\2261#\263\2664#@\2116\017\223\304\037\364"
  56      963123B3 
  56      B6342340 
  56      89360F93 
  56      C41FF4
  57 00f1 E9F2F0A6 		.ascii	"\351\362\360\246e\002|\225\235\020\346\015\345D~\227"
  57      65027C95 
  57      9D10E60D 
  57      E5447E97 
  58 0101 76969987 		.ascii	"v\226\231\207\"dB@=\275H\234\274\3539;\245\265\306\353"
  58      22644240 
  58      3DBD489C 
  58      BCEB393B 
  58      A5B5C6EB 
  59 0115 4792ADD0 		.ascii	"G\222\255\320\037^W\270_@\012\021%]\334b\256D\350\033"
  59      1F5E57B8 
  59      5F400A11 
  59      255DDC62 
  59      AE44E81B 
  60 0129 A5913DDE 		.ascii	"\245\221=\336z\033!K)'\351\363eV|\367\023\265\250z}"
  60      7A1B214B 
  60      2927E9F3 
  60      65567CF7 
  60      13B5A87A 
  61 013e 7CDBB43D 		.ascii	"|\333\264=9\335\264\377\337@^\312\366\244\232\275Y\371"
  61      39DDB4FF 
  61      DF405ECA 
  61      F6A49ABD 
  61      59F9
  62 0150 BDD133EB 		.ascii	"\275\3213\353\302GX\036.i\347L\036O\017\327\333\240"
  62      C247581E 
  62      2E69E74C 
  62      1E4F0FD7 
  62      DBA0
  63 0162 0BF25449 		.ascii	"\013\362TIrs}\360J\340\366\373\201\257W\000\305\352"
  63      72737DF0 
  63      4AE0F6FB 
  63      81AF5700 
  63      C5EA
  64 0174 AF32301F 		.ascii	"\25720\037\304A\351C\030\026\313\023\005\312\244\231"
  64      C441E943 
  64      1816CB13 
  64      05CAA499 
  65 0184 2D171707 		.ascii	"-\027\027\007\247\246\343\342b\374>*\025'\342\2171\375"
  65      A7A6E3E2 
  65      62FC3E2A 
  65      1527E28F 
  65      31FD
  66 0196 0540D57F 		.ascii	"\005@\325\177\025"
ARM GAS  /tmp/ccLgmrsb.s 			page 5


  66      15
  67              		.text
  68              		.section	.gnu.lto_dataLoggerInitialize.6c9cd2ad4a75eda6,"",%progbits
  69 0000 789C6D52 		.ascii	"x\234mRMkSA\024=wf\336G^\332\330E\260+\213\270p#\370"
  69      4D6B5341 
  69      143D7766 
  69      DE475EDA 
  69      D845B02B 
  70 0019 B511DCE8 		.ascii	"\265\021\334\350\037\350\256A]\306g\011\017Z\304\340"
  70      1FE8AE41 
  70      5DC66709 
  70      0F5AC4E0 
  71 0029 CE45A712 		.ascii	"\316E\247\022E\020$t\025Z\272(nD\020\025\\\010\006i"
  71      45102474 
  71      155ABA28 
  71      6E441015 
  71      5C080669 
  72 003d 454AA5F8 		.ascii	"EJ\245\370\005.Z\210\355\303\215\033\327.\224\030\357"
  72      052E5A88 
  72      EDC38D1B 
  72      D72E9418 
  72      EF
  73 004e 7D1F2109 		.ascii	"}\037!\011\031xs\347\336w\316=\207;\243\2400\272\026"
  73      197873E7 
  73      DE77CE3D 
  73      873BA3A0 
  73      30BA16
  74 0061 F8EB7279 		.ascii	"\370\353ry\232#\025@\252\371\011X\366\225\362\177{\260"
  74      9A231540 
  74      AAF90958 
  74      F695F27F 
  74      7BB0
  75 0073 815EDD06 		.ascii	"\201^\335\006\354\204\316R\223\246F9\235\"\247\356\253"
  75      EC84CE52 
  75      93A64639 
  75      9D22A7EE 
  75      AB
  76 0084 77923AE4 		.ascii	"w\222:\344\246,W\371\355\031\256{\337\316p\331#?-\373"
  76      A62C57F9 
  76      ED19AE7B 
  76      DFCE70D9 
  76      233F2DFB 
  77 0098 44720061 		.ascii	"Dr\000aIi\343\270\236OK\327H\324\351\0046\254]\211\357"
  77      4969E3B8 
  77      9E4F4BD7 
  77      48D4E904 
  77      36AC5D89 
  78 00ad 1D3C9AB6 		.ascii	"\035<\232\266\261m\332\177\275\036E\304>\247\010!\341"
  78      B16DDA7F 
  78      BD1E45C4 
  78      3EA70821 
  78      E1
  79 00be 2A27E427 		.ascii	"*'\344'A\321\260\361\347j3\356\365\332\317\232\333\304"
  79      41D1B0F1 
  79      E76A33EE 
  79      F5DACF9A 
  79      DBC4
ARM GAS  /tmp/ccLgmrsb.s 			page 6


  80 00d0 D845E144 		.ascii	"\330E\341D\244\015-\0229\274)\2277\004\\3%Ti\203\225"
  80      A40D2D12 
  80      39BC2997 
  80      37045C33 
  80      25546983 
  81 00e5 78396858 		.ascii	"x9hX\333<\236\347a\322s\216w\361W!%Q\357\340\375\317"
  81      DB3C9EE7 
  81      61D2738E 
  81      77F15721 
  81      2551EFE0 
  82 00fb ADFD6355 		.ascii	"\255\375cUzL\016jdD\335\031\224\256\220\006\017\"\001"
  82      7A4C0E6A 
  82      6444DD19 
  82      94AE9006 
  82      0F2201
  83 010e 2E5FC971 		.ascii	"._\311q\216\340\334a\234\301\303Ki\277\357\375~\256"
  83      8EE0DC61 
  83      9CC1C34B 
  83      69BFEFFD 
  83      7EAE
  84 0120 E0BC41DC 		.ascii	"\340\274A\334\034\327\337\024t\205\331\014\377\210\273"
  84      1CD7DF14 
  84      7485D90C 
  84      FF88BB
  85 012f BB7B07E5 		.ascii	"\273{\007\345\024~\012O-\257\013\354`\015\253L\364\207"
  85      147E0A4F 
  85      2DAF0BEC 
  85      600DAB4C 
  85      F487
  86 0141 84AE6743 		.ascii	"\204\256gCa\227\300g4\342\277+\224\353\004w\360\307"
  86      6197C067 
  86      34E2BF2B 
  86      94EB0477 
  86      F0C7
  87 0153 3EB05311 		.ascii	">\260S\021\025B\242\034\026Q\000\260\304\207\027\305"
  87      1542A21C 
  87      165100B0 
  87      C48717C5 
  88 0163 5105335E 		.ascii	"Q\0053^!\247\246\274\335\326\341\321Q\2427\236\2502"
  88      21A7A6BC 
  88      DDD6E1D1 
  88      51A2379E 
  88      A832
  89 0175 2289B5FB 		.ascii	"\"\211\265\373q\367|\356\254\324wV\014\373\250\200\201"
  89      71F77CEE 
  89      ACD47756 
  89      0CFBA880 
  89      81
  90 0186 C29E00DF 		.ascii	"\302\236\000\337\331$\260\203\306\257\255n\177j%\371"
  90      D924B083 
  90      C6AFAD6E 
  90      7F6A25F9 
  91 0196 3730B37D 		.ascii	"70\263}\020\217\322\220\264j\331\315\303[\021\225fP"
  91      108FD290 
  91      B46AD9CD 
  91      C35B1195 
  91      6650
ARM GAS  /tmp/ccLgmrsb.s 			page 7


  92 01a8 5EB7ADCB 		.ascii	"^\267\255\313\021\035I\356\372\211\226+\360\360\366"
  92      111D49EE 
  92      FA89962B 
  92      F0F0F6
  93 01b7 A4CCF4F5 		.ascii	"\244\314\364\365\336\217/z\324\271\036\357\\'Q*:\327"
  93      DE8F2F7A 
  93      D4B91EEF 
  93      5C27512A 
  93      3AD7
  94 01c9 ACF03394 		.ascii	"\254\3603\224\307\361\225\337\263\330U\251\011\225\200"
  94      C7F195DF 
  94      B3D855A9 
  94      099580
  95 01d8 00DD99CD 		.ascii	"\000\335\231\315Nn\343\\F\364\332/\313YQuf\345\232I"
  95      4E6EE35C 
  95      46F4DA2F 
  95      CB595175 
  95      66E59A49 
  96 01ec 5A0873F2 		.ascii	"Z\010s\362F\365vu\341f\2556_?\035B\317\327\353\372\354"
  96      46F57675 
  96      E166AD36 
  96      5F3F1D42 
  96      CFD7EBFA 
  97 0201 45FC072A 		.ascii	"E\374\007*\351\272]"
  97      E9BA5D
  98              		.text
  99              		.section	.gnu.lto_dataLoggerStop.6c9cd2ad4a75eda6,"",%progbits
 100 0000 789C6362 		.ascii	"x\234cb`b@\007\222@|\023\210\371\201\230\221\231\201"
 100      60624007 
 100      92407C13 
 100      88F98198 
 100      919981
 101 0013 9169C239 		.ascii	"\221i\3029\006\206F\016&FF\020\203\201\221\241\236\211"
 101      0686460E 
 101      26464610 
 101      838191A1 
 101      9E89
 102 0025 B13E9211 		.ascii	"\261>\222\021\254v=\323\201\007\377\377\257\333rl\301"
 102      AC763DD3 
 102      8107FFFF 
 102      AFDB726C 
 102      C1
 103 0036 7C464656 		.ascii	"|FFVf\306\\\2600+CKC\303\004\005\006\206d07\004H\202"
 103      66C65CB0 
 103      302B434B 
 103      43C30405 
 103      06866430 
 104 004e B4863232 		.ascii	"\264\20622\201h\346\363\014m\017\3464\263'2.dd\005J"
 104      8168E6F3 
 104      0C6D0FE6 
 104      34B32732 
 104      2E646405 
 105 0063 5733FC6A 		.ascii	"W3\374j\350h\020\310d\004*\207\230\032\301\230\011b"
 105      E86810C8 
 105      64042A87 
 105      981AC198 
 105      0962
ARM GAS  /tmp/ccLgmrsb.s 			page 8


 106 0075 81282608 		.ascii	"\201(&\010\305\314\300\220\311\310\302\300p\226\241"
 106      C5CCC090 
 106      C9C8C2C0 
 106      7096A1
 107 0084 69C78EE7 		.ascii	"i\307\216\347\027\230!z\265\031V5\000\201y&#\353l\206"
 107      1798217A 
 107      B5195635 
 107      00817926 
 107      23EB6C86 
 108 0098 5940656C 		.ascii	"Y@el\351\214\314 \345\354`c\222 \246\201\015\000Y\304"
 108      E98CCC20 
 108      E5EC6063 
 108      9220A681 
 108      0D0059C4 
 109 00ac 7091A1F1 		.ascii	"p\221\241\361\301\274\305\214\020\315pQ\210\023\031"
 109      C1BCC58C 
 109      10CD7051 
 109      881319
 110 00bb 414E0305 		.ascii	"AN\003\005\006oJbIbN~zzj\221^2\003\000\220\2777\235"
 110      066F4A62 
 110      49624E7E 
 110      7A7A6A91 
 110      5E320300 
 111              		.text
 112              		.section	.gnu.lto_logfileNew.6c9cd2ad4a75eda6,"",%progbits
 113 0000 789C5D50 		.ascii	"x\234]P=KCA\020\234\331\273\027\236_\304_\020\254\025"
 113      3D4B4341 
 113      109CD9BB 
 113      179E5FC4 
 113      5F10AC15 
 114 0014 14FF8B01 		.ascii	"\024\377\213\001-\237/r<P\004\261\263\310E^aa\221Z\033"
 114      2D9F2F72 
 114      3C5004B1 
 114      B3C8455E 
 114      6161915A 
 115 0029 FD035A0A 		.ascii	"\375\003Z\012i\264\022\033\0156\202\251\354\365\007"
 115      69B4121B 
 115      0D3682A9 
 115      ECF507
 116 0038 049BB87B 		.ascii	"\004\233\270{$\"\036\334\316r;3\273{\002\301\377\263"
 116      24221EDC 
 116      CE723B33 
 116      BB7B02C1 
 116      FFB3
 117 004a A9778140 		.ascii	"\251w\201@S\221\031(\375\027\240\227\213\370\267\015"
 117      53911928 
 117      FD17A097 
 117      8BF8B70D 
 118 005a C4453768 		.ascii	"\304E7h!\316;z{\246'\015At\305yvw\230<n\345\341c2\271"
 118      21CE3B7A 
 118      7BA6270D 
 118      4174C579 
 118      7677983C 
 119 0074 193D5EDD 		.ascii	"\031=^\335\223sDEm\244\301\363\200\3104cC3\343f\250"
 119      93734445 
 119      6DA4C1F3 
 119      80C83463 
ARM GAS  /tmp/ccLgmrsb.s 			page 9


 119      4333E366 
 120 0089 63ECAF00 		.ascii	"c\354\257\000eRni4\3036\305\320=\343t4\376\034\263\340"
 120      65526E69 
 120      34C336C5 
 120      D03DE374 
 120      34FE1CB3 
 121 009e B5CE1298 		.ascii	"\265\316\022\230\255aU\325\227\270`E\011\364\333\212"
 121      AD6155D5 
 121      97B86045 
 121      09F4DB8A 
 122 00ae 2EF5DCE5 		.ascii	".\365\334\345l\203'\324_\275\346\257\304(\374\273a["
 122      6C8327D4 
 122      5FBDE6AF 
 122      C428FCBB 
 122      615B
 123 00c0 1583961B 		.ascii	"\025\203\226\033\242\316g$9\301w<\213\313\025}9%\007"
 123      A2CE6724 
 123      39C1773C 
 123      8BCB157D 
 123      392507
 124 00d3 362AAD4D 		.ascii	"6*\255M\025>\215\363\252\037a\225\304x\007\315Z39\277"
 124      153E8DF3 
 124      AA1F6195 
 124      C47807CD 
 124      5A3339BF 
 125 00e7 CBD5C3D1 		.ascii	"\313\325\303\321\026\2401\355[\227:\305q\261\177\030"
 125      16A031ED 
 125      5B973AC5 
 125      71B17F18 
 126 00f7 C2DED17A 		.ascii	"\302\336\321z\211\037\205\241?$"
 126      891F85A1 
 126      3F24
 127              		.text
 128              		.section	.gnu.lto_logfileSize.6c9cd2ad4a75eda6,"",%progbits
 129 0000 789C6362 		.ascii	"x\234cb`b@\007\222@\034\015\304\374@\314\310\314\300"
 129      60624007 
 129      92401C0D 
 129      C4FC40CC 
 129      C8CCC0
 130 0013 C834E11C 		.ascii	"\3104\341\034\003C#\007\023##\210\301\300\310P\317\304"
 130      03432307 
 130      13232388 
 130      C1C0C850 
 130      CFC4
 131 0025 581FC908 		.ascii	"X\037\311\010V\273\236\351\300\203\377\377\327\315:"
 131      56BB9EE9 
 131      C083FFFF 
 131      D7CD3A
 132 0034 BEE00623 		.ascii	"\276\340\006##\310(V\206\226\206\206\011\012\014\014"
 132      23C82856 
 132      86968686 
 132      090A0C0C 
 133 0044 C9600521 		.ascii	"\311`\005!@\022\244+\024(\011\244\231/24>8\277\2301"
 133      4012A42B 
 133      142809A4 
 133      992F3234 
 133      3E38BF98 
ARM GAS  /tmp/ccLgmrsb.s 			page 10


 134 0059 91712123 		.ascii	"\221q!#+C\004c&#\334\326\020FF\220\012\220\031\274)"
 134      2B430463 
 134      2623DCD6 
 134      10464690 
 134      0A9019BC 
 135 006e 89258939 		.ascii	"\211%\2119\371\351\351\251Ez\311\014\000$\371\036\366"
 135      F9E9E9A9 
 135      457AC90C 
 135      0024F91E 
 135      F6
 136              		.text
 137              		.section	.gnu.lto_logfileWrite.6c9cd2ad4a75eda6,"",%progbits
 138 0000 789C8D52 		.ascii	"x\234\215R;hTA\024\275g\346\315\276\227\375`\020QR\030"
 138      3B685441 
 138      14BD67E6 
 138      CDBE97FD 
 138      60105152 
 139 0015 96606560 		.ascii	"\226`e`\023\301\306\322\322>\213Zn\326\315\343\201\037"
 139      13C1C6D2 
 139      D23E8B5A 
 139      6ED6CDE3 
 139      811F
 140 0027 58570453 		.ascii	"XW\004Sd\222,\030\202\310\022l\374\024\011\022\305\312"
 140      64922C18 
 140      82C8126C 
 140      FC140912 
 140      C5CA
 141 0039 C24630C1 		.ascii	"\302F0\301\247\205\033\304\017\201\244\320j\261\022"
 141      A7851BC4 
 141      0F81A4D0 
 141      6AB112
 142 0048 0DF6AEE2 		.ascii	"\015\366\256\342zgf\337\306\325\302<x3s\317\3149\367"
 142      7A6766DF 
 142      C6D5C23C 
 142      783373CF 
 142      CC39F7
 143 005b DC3B2348 		.ascii	"\334;#H\320\337\337I\376\2773<\3123R\004\321xG4\033"
 143      D0DFDF49 
 143      FEBF333C 
 143      CA335204 
 143      D1784734 
 144 0070 08A1D686 		.ascii	"\010\241\326\206I\247\345\326\030\351\254\024\352\365"
 144      49A7E5D6 
 144      18E9AC14 
 144      EAF5
 145 007e 3847DEAB 		.ascii	"8G\336\253\303\034yP\356\220\002\314\202@3Bz\0123ga"
 145      C31C7950 
 145      EE9002CC 
 145      82403342 
 145      7A0A3367 
 146 0093 24BD115A 		.ascii	"$\275\021Z\321z\251\265\332\336\020\267o\305\365e\375"
 146      D17AA9B5 
 146      DADE10B7 
 146      6FC5F565 
 146      FD
 147 00a4 B3D30122 		.ascii	"\263\323\001\"p\372AP\031t\206\003\344\355$\274~?\226"
 147      70FA4150 
ARM GAS  /tmp/ccLgmrsb.s 			page 11


 147      19748603 
 147      E4ED24BC 
 147      7E3F96
 148 00b7 DB88B7AF 		.ascii	"\333\210\267\257\337\033Z\\\236k\350_L\215 \005\035"
 148      DF1B5A5C 
 148      9E6BE85F 
 148      4C8D2005 
 148      1D
 149 00c8 DC137329 		.ascii	"\334\023s)~\336\274yH\267t\302\364\004\345w\231\201"
 149      7EDEBC79 
 149      48B774C2 
 149      F404E577 
 149      9981
 150 00da 63E25F66 		.ascii	"c\342_f\334\2107\2337\206t_\316#\377\313\371X\304\255"
 150      DC88379B 
 150      3786745F 
 150      CE23FFCB 
 150      F958C4AD 
 151 00ee 4E67E759 		.ascii	"Ng\347Y\375\313\360>P\004%q\001\344\361*\245x\305\015"
 151      FDCBF03E 
 151      50042571 
 151      01E4F12A 
 151      A578C50D 
 152 0102 2D610523 		.ascii	"-a\005#\344s \002\206)m\206\014\303\253\014g9\2209\016"
 152      E4732002 
 152      86296D86 
 152      0CC3AB0C 
 152      67399039 
 153 0117 EE73C09F 		.ascii	"\356s\300\237\242:\027\237w\233%<\344\3614\344\017s"
 153      A23A179F 
 153      779B253C 
 153      E4F134E4 
 153      0F73
 154 0129 6B65EB79 		.ascii	"ke\353y\202G\323\362\"\204\231\345[\232\373\370\264"
 154      8247D3F2 
 154      228499E5 
 154      5B9AFBF8 
 154      B4
 155 013a FD5994F0 		.ascii	"\375Y\224\360\010\212Bx\243t\224s\337\245;l\326\017"
 155      088A4278 
 155      A3749473 
 155      DFA53B6C 
 155      D60F
 156 014c 218DE9C0 		.ascii	"!\215\351\300Z\235\354\025\315\244o\363\017\220pR!O"
 156      5A9DEC15 
 156      CDA46FF3 
 156      0F907052 
 156      214F
 157 015e 16940914 		.ascii	"\026\224\011\024\204\360\211\336\223\237\000\351ij\353"
 157      84F089DE 
 157      939F00E9 
 157      696AEB
 158 016d 053D1861 		.ascii	"\005=\030a\240\014'\304\311,7\230\246k\021\322\316\255"
 158      A00C27C4 
 158      C92C3798 
 158      A66B11D2 
 158      CEAD
ARM GAS  /tmp/ccLgmrsb.s 			page 12


 159 017f 3BCF5565 		.ascii	";\317Ue\272i\246\022\205\014\213\020mP}\347\305v\263"
 159      BA69A612 
 159      850C8B10 
 159      6D507DE7 
 159      C576B3
 160 0192 972863FC 		.ascii	"\227(c\374\365\365\264\010I[c\322\222?\365<f\255!\006"
 160      F5F5B408 
 160      495B63D2 
 160      923FF53C 
 160      66AD2106 
 161 01a6 4F2548CE 		.ascii	"O%H\316%t\222\263'\3768\230\333\025\233`\355\371\375"
 161      257492B3 
 161      27FE3898 
 161      DB159B60 
 161      EDF9FD
 162 01b9 B2C85BAE 		.ascii	"\262\310[\256[/\277v[\345\330\307\351\211^0W\315g7\371"
 162      5B2FBF76 
 162      5BE5D8C7 
 162      E9895E30 
 162      57CD6737 
 163 01ce 419BAA6C 		.ascii	"A\233\252lu\037\010\306\231\002\311\265\365\300.\371"
 163      751F08C6 
 163      9902C9B5 
 163      F5C02EF9 
 164 01de 5DBF593F 		.ascii	"]\277Y?\320E\005\243F\036F\327\\O\356\\\251V:\177)\014"
 164      D04505A3 
 164      461E46D7 
 164      5C4FEE5C 
 164      A9563A7F 
 165 01f4 2BD54299 		.ascii	"+\325B\231\324\344\225\251\302\370\300\325jT\253U.\026"
 165      D4E495A9 
 165      C2F8C0D5 
 165      6A54AB55 
 165      2E16
 166 0206 8EC96AE5 		.ascii	"\216\311j\345\262\337\215~\0034\352\275B"
 166      B2DF8D7E 
 166      0334EABD 
 166      42
 167              		.text
 168              		.section	.gnu.lto_logfileWriteCsv.6c9cd2ad4a75eda6,"",%progbits
 169 0000 789C6362 		.ascii	"x\234cb`b@\007\222@\234\005\304\374@\314\310\314\300"
 169      60624007 
 169      92409C05 
 169      C4FC40CC 
 169      C8CCC0
 170 0013 C834E11C 		.ascii	"\3104\341\034\003C#\007\023##\210\301\300\310P\317\304"
 170      03432307 
 170      13232388 
 170      C1C0C850 
 170      CFC4
 171 0025 581FC908 		.ascii	"X\037\311\010V\273\236\351\300\203\377\377\327\375;"
 171      56BB9EE9 
 171      C083FFFF 
 171      D7FD3B
 172 0034 BE600D23 		.ascii	"\276`\015#\023+\023c.#\0033\220`d\001\022 \223Y\031"
 172      132B1363 
 172      2E230333 
ARM GAS  /tmp/ccLgmrsb.s 			page 13


 172      90606401 
 172      12209359 
 173 0049 5A1A1A26 		.ascii	"Z\032\032&(00$\203\325\207\000I\220!\241@I \315|\221"
 173      28303024 
 173      83D58700 
 173      499021A1 
 173      404920CD 
 174 005f A1F1C1EA 		.ascii	"\241\361\301\352\245\214\211\214\013\031Y\031\"\030"
 174      A58C898C 
 174      0B195919 
 174      2218
 175 006d 3319E18E 		.ascii	"3\031\341\216\010ad\004\251\000\231\301\233\222X\222"
 175      08616404 
 175      A90099C1 
 175      9B925892 
 176 007d 98939F9E 		.ascii	"\230\223\237\236\236Z\244\227\314\000\000\202n x"
 176      9E5AA497 
 176      CC000082 
 176      6E2078
 177              		.text
 178              		.section	.gnu.lto_logfileClose.6c9cd2ad4a75eda6,"",%progbits
 179 0000 789C5D50 		.ascii	"x\234]P\273JCA\024\234\331\335\233\0041\304\302\332"
 179      BB4A4341 
 179      149CD9DD 
 179      9B0431C4 
 179      C2DA
 180 0012 582B18F0 		.ascii	"X+\030\360[\022\324\362z\225\313BD\020;\213\354\225"
 180      5B12D4F2 
 180      7A95CB42 
 180      44103B8B 
 180      EC95
 181 0024 5B5858A4 		.ascii	"[XX\244\326F\177\300\374\200EJ\025T\204\200\306\312"
 181      D6467FC0 
 181      FC80454A 
 181      15548480 
 181      C6CA
 182 0036 0FF00354 		.ascii	"\017\360\003T\204x\316\206\210\270p\036\354\316\314"
 182      8478CE86 
 182      88B8701E 
 182      ECCECC
 183 0045 39B30606 		.ascii	"9\263\006\006\377\317\272D\235@C*\023\320\364\037\200"
 183      FFCFBA44 
 183      9D40432A 
 183      13D0F41F 
 183      80
 184 0056 A2668CBB 		.ascii	"\242f\214\273^B\230\263\243\026\302\274\245\233^;R\033"
 184      5E4298B3 
 184      A316C2BC 
 184      A59B5E3B 
 184      521B
 185 0068 103D631D 		.ascii	"\020=c\035{[\214\"\0033|\233L\256>\356.ni\252\204',"
 185      7B5B8C22 
 185      03337C9B 
 185      4CAE3EEE 
 185      2E6E69AA 
 186 007f F708271D 		.ascii	"\367\010'\035+\222tn\2022\204\3762\220ER[\262ju\344"
 186      2B92746E 
ARM GAS  /tmp/ccLgmrsb.s 			page 14


 186      823284FE 
 186      32904552 
 186      5BB26A75 
 187 0094 51AABDC7 		.ascii	"Q\252\275\307\361\353\313\340\223)/e\217\234n\025+\302"
 187      F1EBCBE0 
 187      93292F65 
 187      8F9C6E15 
 187      2BC2
 188 00a6 3EC75911 		.ascii	">\307Y\021B\330\360\2649\355&=]\034\271\315\231\203"
 188      42D8F0B4 
 188      39ED263D 
 188      5D1CB9CD 
 188      9983
 189 00b8 4794C3E6 		.ascii	"G\224\303\346\214U9\302W8\011\013\236I\306)D\244\274"
 189      8C5539C2 
 189      5738090B 
 189      9E49C629 
 189      44A4BC
 190 00cb 2C811B94 		.ascii	",\201\033\224\357E\343\027\250R\325\277?\321\246\305"
 190      EF45E317 
 190      A852D5BF 
 190      3FD1A6C5 
 191 00db A8653B32 		.ascii	"\250e;2@\367y\022\273J\216\"cP\361\342\333|?\327b\013"
 191      40F77912 
 191      BB4A8E22 
 191      6350F1E2 
 191      DB7C3FD7 
 192 00f1 D8D3F1A2 		.ascii	"\330\323\361\242\322\250xuX\337I\017\323\356~\236\357"
 192      D2A87875 
 192      58DF490F 
 192      D3EE7E9E 
 192      EF
 193 0102 1EAC65F8 		.ascii	"\036\254e\370\001:<D\322"
 193      013A3C44 
 193      D2
 194              		.text
 195              		.section	.gnu.lto_.symbol_nodes.6c9cd2ad4a75eda6,"",%progbits
 196 0000 789C4DCA 		.ascii	"x\234M\312\273\015\302@\000\003P\373\216\220\\\222q"
 196      BB0DC240 
 196      000350FB 
 196      8E905C92 
 196      71
 197 0011 D8CF91D2 		.ascii	"\330\317\221\322P\262\0004\254@KC\3037\341\267\000R"
 197      50B20034 
 197      AC404B43 
 197      C337E1B7 
 197      0052
 198 0023 2456A043 		.ascii	"$V\240C\344 \342\316\215\365,\033\030\2740\304\334)"
 198      E420E2CE 
 198      8DF52C1B 
 198      18BC30C4 
 198      DC29
 199 0035 60D602D2 		.ascii	"`\326\002\322|J\263\2458p\321sG\231\210{\312F<P\243"
 199      7C4AB3A5 
 199      3870D173 
 199      4799887B 
 199      CA463C50 
ARM GAS  /tmp/ccLgmrsb.s 			page 15


 200 004a 88472A89 		.ascii	"\210G*\211x\242\306\021\033*\015\344\205\312~\254*\362"
 200      78A2C611 
 200      1B2A0DE4 
 200      85CA7EAC 
 200      2AF2
 201 005c 4CB9A096 		.ascii	"L\271\240\226\312\203\256T\021t\243\312\277,2,\037o"
 201      CA83AE54 
 201      1174A3CA 
 201      BF2C322C 
 201      1F6F
 202 006e 5AE6A8D7 		.ascii	"Z\346\250\327\317\276\035:\337\306\241\366\273\0056"
 202      CFBE1D3A 
 202      DFC6A1F6 
 202      BB0536
 203 007d AB894D0A 		.ascii	"\253\211M\012t\236i\371\275\343\003Z\257M\230"
 203      749E69F9 
 203      BDE3035A 
 203      AF4D98
 204              		.text
 205              		.section	.gnu.lto_.refs.6c9cd2ad4a75eda6,"",%progbits
 206 0000 789C6362 		.ascii	"x\234cb`b`d\200\002\000\000F\000\006"
 206      60626064 
 206      80020000 
 206      460006
 207              		.text
 208              		.section	.gnu.lto_.decls.6c9cd2ad4a75eda6,"",%progbits
 209 0000 789CBD5D 		.ascii	"x\234\275]{t\024E\272\357\356y\345\305\333\005\364z"
 209      7B741445 
 209      BAEFEE79 
 209      E5C5DB05 
 209      F47A
 210 0012 8EB3771F 		.ascii	"\216\263w\037\207\343U\002\350*\356\271w\025\222\000"
 210      87E35502 
 210      E82AEEB9 
 210      77159200 
 211 0022 B9928433 		.ascii	"\271\222\2043\211\272\376\261g\034f&d\326d&\316\014"
 211      89BAFEB1 
 211      671C6626 
 211      64D66426 
 211      CE0C
 212 0034 AF7BCF3D 		.ascii	"\257{\317=\016\257\260,\350\362\020\015\017\003\010"
 212      0EAFB02C 
 212      E8F2100D 
 212      0F0308
 213 0043 CA5B0911 		.ascii	"\312[\011\021y\011\031\270n\002\342\"/E\014\230\010"
 213      790919B8 
 213      6E02E222 
 213      2F450C98 
 213      08
 214 0054 8A22CA2B 		.ascii	"\212\"\312+H\344\231\373\325\327\335\323\3255\3353\335"
 214      48E499FB 
 214      D5D7DDD3 
 214      D535DD33 
 214      DD
 215 0065 71CF9D73 		.ascii	"q\317\235s\372\233\352J\327\257\276\357\253\257\276"
 215      FA9BEA4A 
 215      D7AFBEEF 
ARM GAS  /tmp/ccLgmrsb.s 			page 16


 215      ABAFBE
 216 0074 FAAABAA6 		.ascii	"\372\252\272\246\"p\002\327\337\302q\235\360\031\024"
 216      227002D7 
 216      DFC2719D 
 216      F01914
 217 0083 E4B8DB39 		.ascii	"\344\270\3339\034\227\311q\334\0378\361{\005\\o\300"
 217      1C97C971 
 217      DC1F38F1 
 217      7B055C6F 
 217      C0
 218 0094 B506AEF5 		.ascii	"\265\006\256\365p\235\202\3534\\\313\005\270\207\353"
 218      709D82EB 
 218      345CCB05 
 218      B887EB
 219 00a3 3A277EBA 		.ascii	":'~\272\301U\017\367\347\340\272\012\327\015\270\004"
 219      C1550FF7 
 219      E7E0BA0A 
 219      D70DB804 
 220 00b3 C0CD86AB 		.ascii	"\300\315\206\253/\\\277\205\353\001\270\334p\371\341"
 220      2F5CBF85 
 220      EB01B8DC 
 220      70F9E1
 221 00c2 0AC0F567 		.ascii	"\012\300\365g\013\227\364!\030\335$\374\356\360\015"
 221      0B97F421 
 221      18DD24FC 
 221      EEF00D
 222 00d1 EC7003E1 		.ascii	"\354p\003\341\271f\270o\200k'\\;\340\012Z\324\274=\010"
 222      B966B86F 
 222      806B275C 
 222      3BE00A5A 
 222      D4BC3D08 
 223 00e5 F73C7C37 		.ascii	"\367<|7\221z%\234\007\244\274\263\202\272\016\302cO"
 223      917A259C 
 223      07A4BCB3 
 223      82BA0EC2 
 223      634F
 224 00f7 0957AEE3 		.ascii	"\011W\256\343\272$\037-\333\012\270B\360L9\\\325\026"
 224      BA241F2D 
 224      DB0AB842 
 224      F04C395C 
 224      D516
 225 0109 B19EE7E0 		.ascii	"\261\236\347\340\373\005\270\302pY\341~5<\263\026\256"
 225      FB05B8C2 
 225      7059E17E 
 225      353CB316 
 225      AE
 226 011a 75706D84 		.ascii	"upm\204\313\"\341\373%Y\311\375%\270\277\014\327E\206"
 226      CB22E1FB 
 226      2559C9FD 
 226      25B8BF0C 
 226      D74586
 227 012d 0FA2A70C 		.ascii	"\017\242\247\014N\304\226u+\327A\370!\365\023^\210\014"
 227      4EC49675 
 227      2BD741F8 
 227      21F5135E 
 227      880C
 228 013f 1B25B948 		.ascii	"\033%\271H\031\267$\327O\014\036\321\271\235\023\365"
ARM GAS  /tmp/ccLgmrsb.s 			page 17


 228      19B724D7 
 228      4F0C1ED1 
 228      B99D13F5 
 229 014f 44978FC2 		.ascii	"D\227\217\302\363\233\031\034\362l\275\224&Lv2X\202"
 229      F39B191C 
 229      F26CBD94 
 229      264C7632 
 229      5882
 230 0161 5487556A 		.ascii	"T\207Uj#^\312c?\244}\211\376l\234\242K\253\244[\302"
 230      235ECA63 
 230      3FA47D89 
 230      FE6C9CA2 
 230      4BABA45B 
 231 0176 4733D566 		.ascii	"G3\325f\343!\357\337\341o\023\230\266\312\226\354\201"
 231      E321EFDF 
 231      E16F1398 
 231      B6CA96EC 
 231      81
 232 0187 C0F702D2 		.ascii	"\300\367\002\322\033\256>L]}\2452\015\202\302O_\251"
 232      1BAE3E4C 
 232      5D7DA532 
 232      0D82C24F 
 232      5FA9
 233 0199 CCAF80DC 		.ascii	"\314\257\200\334\007\327/\2312\304\34628\205\217\301"
 233      07D72F99 
 233      32C4E632 
 233      38858FC1 
 234 01a9 168597FF 		.ascii	"\026\205\227\377\201\364\363\026\221O\232\227\337Jv"
 234      81F4F316 
 234      914F9A97 
 234      DF4A76
 235 01b8 49F2EE67 		.ascii	"I\362\356g\360\262\271\277\306bSc\313kb\243\366u\357"
 235      F0B2B9BF 
 235      C6625363 
 235      CB6B62A3 
 235      F675EF
 236 01cb C5CD8DC1 		.ascii	"\305\315\215\301\307Y\333=\223\373\013\311n{3\326\277"
 236      C759DB3D 
 236      93FB0BC9 
 236      6E7B33D6 
 236      BF
 237 01dc 3FC7FD91 		.ascii	"?\307\375\221\367\360\220\225\201\211\234L\004\372\015"
 237      F7F09095 
 237      81899C4C 
 237      04FA0D
 238 01eb B70A1E85 		.ascii	"\267\012\036\205\347\005\017\277\222\317\204\212\004"
 238      E7050FBF 
 238      92CF848A 
 238      04
 239 01f8 3E5995E4 		.ascii	">Y\225\344#\376\375~n\255\370\374i\3661\002J\236PR\235"
 239      23FEFD7E 
 239      6EADF8FC 
 239      69F63102 
 239      4A9E5052 
 240 020d 7CA2CE49 		.ascii	"|\242\316Ir\235=$\2547\370^\230B\016c\022\343\370\204"
 240      729D3D24 
 240      AC37F85E 
ARM GAS  /tmp/ccLgmrsb.s 			page 18


 240      98420E63 
 240      12E3F884 
 241 0221 54C22997 		.ascii	"T\302)\227\260J%V#6'g'\022\335\251\372\265\312\255\340"
 241      B04A2556 
 241      23362767 
 241      2712DDA9 
 241      FAB5CAAD 
 242 0236 B3651629 		.ascii	"\263e\026)u\324vO\241\217\271m\273\226_\027b\261\014"
 242      75D4764F 
 242      A18FB96D 
 242      BB965F17 
 242      62B10C
 243 0249 0FBF0675 		.ascii	"\017\277\006u2\222\007\240\267\370\373\023\252\220x"
 243      329207A0 
 243      B7F8FB13 
 243      AA9078
 244 0258 A1EFE507 		.ascii	"\241\357\345\007\010XB\015\222\026T\315\323\233\233"
 244      0858420D 
 244      921654CD 
 244      D39B9B
 245 0267 87CDB34F 		.ascii	"\207\315\263Oa!\366+\231\207MV\205\211\355M?\014F&6"
 245      6121F62B 
 245      99874D56 
 245      8589ED4D 
 245      3F0C4626 
 246 027c F0BD8189 		.ascii	"\360\275\201\211\030\257\346\"=\016\341\354\035(+\226"
 246      18AFE622 
 246      3D0EE1EC 
 246      1D282B96 
 247 028c 129B3ABE 		.ascii	"\022\233:\276\263)'f\025\3639\025\236\352\363Kn9p\034"
 247      B3292766 
 247      15F33915 
 247      9EEAF34B 
 247      6E39701C 
 248 02a0 DFD5B493 		.ascii	"\337\325\264\223\217\325\344\310z\250A\026HQ-\335%Z"
 248      8FD5E4C8 
 248      7AA84116 
 248      48512DDD 
 248      255A
 249 02b2 866A0E35 		.ascii	"\206j\0165\334\356\246\354M\317\311`/\233\006\313P\201"
 249      DCEEA6EC 
 249      4DCFC960 
 249      2F9B06CB 
 249      5081
 250 02c4 1DA2C1E6 		.ascii	"\035\242\301\346\233\006\353\251\002;B\203\325\232\006"
 250      9B06EBA9 
 250      023B4283 
 250      D59A06
 251 02d3 EBAF023B 		.ascii	"\353\257\002;F\203-3\015\346T\201}J\203\275i\032l\200"
 251      46832D33 
 251      0DE65481 
 251      7D4A83BD 
 251      691A6C80 
 252 02e7 0AECB39A 		.ascii	"\012\354\263\232\234C\317I\335 V\023\033\260\246;\245"
 252      9C43CF49 
 252      DD205613 
 252      1BB0A63B 
ARM GAS  /tmp/ccLgmrsb.s 			page 19


 252      A5
 253 02f8 0FA9B840 		.ascii	"\017\251\270@u\203M{,h\201\273\261\366\267y\266\037"
 253      75834D7B 
 253      2C6881BB 
 253      B1F6B779 
 253      B61F
 254 030a 58987E60 		.ascii	"X\230~`Q\367\003K\246\222\350\354\264\020?\326\300J"
 254      51F7034B 
 254      A692E8EC 
 254      B4103FD6 
 254      C04A
 255 031c A0AA574B 		.ascii	"\240\252WK\202A\264\004\320)>}\2416\026\237j\221\231"
 255      8241B404 
 255      D0293E7D 
 255      A136169F 
 255      6A9199
 256 032f 7ACF0860 		.ascii	"z\317\010`\206\276M\336\254\231swl\371^^\322\212\330"
 256      86BE4DDE 
 256      AC997377 
 256      6CF95E5E 
 256      D28AD8
 257 0342 47B5DD89 		.ascii	"G\265\335\211\254\225\253\222s\370;2\020O\322\212\203"
 257      AC95AB92 
 257      73F83B32 
 257      104FD28A 
 257      83
 258 0353 D18A43AD 		.ascii	"\321\212C\255\025G\246\222 \301M\017\242\227&V\014U"
 258      1547A692 
 258      20C14D0F 
 258      A2972656 
 258      0C55
 259 0365 CD5A62A8 		.ascii	"\315Zb\250\314\244m{M\353\024~\336\264\330\276A2_\207"
 259      CCA46D7B 
 259      4DEB147E 
 259      DEB4D8BE 
 259      41325F87 
 260 0379 8D20F6D4 		.ascii	"\215 \366\324W\314\253\3159s=2\330I\323`j+\256\245\301"
 260      57CCABCD 
 260      39733D32 
 260      D849D360 
 260      6A2BAEA5 
 261 038e BE3602D6 		.ascii	"\2766\002\326_\237\263\3054\330y\323`j\316\226\322`"
 261      5F9FB3C5 
 261      34D879D3 
 261      606ACE96 
 261      D260
 262 03a0 ED46C09C 		.ascii	"\355F\300\234\372\234\325\321`7M\203\2519\333D\203M"
 262      FA9CD5D1 
 262      60374D83 
 262      A939DB44 
 262      834D
 263 03b2 130C800D 		.ascii	"\023\014\200\015\320\347l3\0156\3074\030\315Y,\276\245"
 263      D0E76C33 
 263      0D36C734 
 263      18CD592C 
 263      BEA5
 264 03c4 391B4605 		.ascii	"9\033F\005%\316\020\335\223<\010%\300b\362 \364\271"
ARM GAS  /tmp/ccLgmrsb.s 			page 20


 264      25CE10DD 
 264      933C0825 
 264      C062F220 
 264      F4B9
 265 03d6 E9D1BE45 		.ascii	"\351\321\276Eg\264\357\224\003\037\201{\205\025\202"
 265      67B4EF94 
 265      031F817B 
 265      851582
 266 03e5 A9584A0F 		.ascii	"\251XJ\017\322\320\211\326\207\036*=\374&\3767@\353"
 266      D2D089D6 
 266      871E2A3D 
 266      FC26FE37 
 266      40EB
 267 03f7 F95F026D 		.ascii	"\371_\002m@\272\005\351V\244\333\221\356D\272\013\351"
 267      40BA05E9 
 267      56A4DB91 
 267      EE44BA0B 
 267      E9
 268 0408 5EA41F20 		.ascii	"^\244\037 \335\217\364\000\322\177 \375\030\351a\244"
 268      DD8FF400 
 268      D27F20FD 
 268      18E961A4 
 269 0418 47917E82 		.ascii	"G\221~\202\3648\322\023@\023\037=\205\254W\302\030U"
 269      F438D213 
 269      40131F3D 
 269      85AC57C2 
 269      1855
 270 042a 34918869 		.ascii	"4\221\210i\342ib\232\370\302\232\0361\253\201\020\310"
 270      E269629A 
 270      F8C29A1E 
 270      31AB8110 
 270      C8
 271 043b C3B7A2F0 		.ascii	"\303\267\242\360+\231\240&9\270\203\221R`}\337J64J\017"
 271      2B99A026 
 271      39B88391 
 271      52607DDF 
 271      4A36344A 
 272 0450 A327F229 		.ascii	"\243'\362)\035\221\265\002\037\236\366A\222\237\276"
 272      1D91B502 
 272      1F9EF641 
 272      929FBE
 273 045f 7D64F540 		.ascii	"}d\365@\364\323g0~\332\310\360\232\026F\340\266`\221"
 273      F4D36730 
 273      7EDAC8F0 
 273      9A1646E0 
 273      B66091
 274 0472 B36C0875 		.ascii	"\263l\010u\3739\247\230\233>\200\232\267b?\037\233\237"
 274      FB39A798 
 274      9B3E809A 
 274      B7623F1F 
 274      9B9F
 275 0484 938EFFE5 		.ascii	"\223\216\377\345\026\271\342\207\025\376;\026|0\004"
 275      16B9E287 
 275      15FE3B16 
 275      7C3004
 276 0493 F93F8FFC 		.ascii	"\371?\217\374_I\317\277\032\206pw\201\345\375\223f\014"
 276      5F49CFBF 
ARM GAS  /tmp/ccLgmrsb.s 			page 21


 276      1A867077 
 276      81E5FD93 
 276      660C
 277 04a5 FF2E18E2 		.ascii	"\377.\030\342\376\324\314e86j\261\017\017\360\264\352"
 277      FED4CC65 
 277      38366AB1 
 277      0F0FF0B4 
 277      EA
 278 04b6 04DAA309 		.ascii	"\004\332\243\011\334-\340VK\303\252\307<|;/\000\275"
 278      DC2DE056 
 278      4BC3AAC7 
 278      3C7C3B2F 
 278      00BD
 279 04c8 CA72D930 		.ascii	"\312r\3310\023\271\274j\210\313-\315\311:\356\313-\224"
 279      13B9BC6A 
 279      88CB2DCD 
 279      C93AEECB 
 279      2D94
 280 04da 3C4D8C8F 		.ascii	"<M\214\217fp3\321\350g\304\246\360/\244\237\007]\347"
 280      667033D1 
 280      E867C4A6 
 280      F02FA49F 
 280      075DE7
 281 04ed 33408059 		.ascii	"3@\200Y\026\335\211\020y\200\223\214XL\313\251\024\326"
 281      16DD8910 
 281      7980938C 
 281      584CCBA9 
 281      14D6
 282 04ff FC13DF17 		.ascii	"\374\023\337\027S\026qb\353\341\037\317\006\362\224"
 282      53167162 
 282      EBE11FCF 
 282      06F294
 283 050e 3291D32B 		.ascii	"2\221\323+\330\241t\003\201\373\233\205\227\364\225"
 283      D8A17403 
 283      81FB9B85 
 283      97F495
 284 051d C273ABF0 		.ascii	"\302s\253\360T\272\212m\216\3052\355\"\246\300-1\015"
 284      54BA8A6D 
 284      8EC532ED 
 284      22A6C02D 
 284      310D
 285 052f E6D4075B 		.ascii	"\346\324\007[c\004L?\016S\203m2\015\246\301\231\276"
 285      63044C3F 
 285      0E53836D 
 285      320DA6C1 
 285      99BE
 286 0541 41888DA5 		.ascii	"A\210\215\245\247\360\032!\271\245\244\264\361 \261"
 286      A7F01A21 
 286      B9A5A4B4 
 286      F120B1
 287 0550 63C9DFF7 		.ascii	"c\311\337\367\360\020d\303\037f\011d\314m\263\250\273"
 287      F01064C3 
 287      1F660964 
 287      CC6DB3A8 
 287      BB
 288 0561 AF71A886 		.ascii	"\257q\250\206e\357?\206~`\016\002\325Y\177~\274i\376"
 288      65EF3F86 
ARM GAS  /tmp/ccLgmrsb.s 			page 22


 288      7E600E02 
 288      D5597F7E 
 288      BC69FE
 289 0574 714901DA 		.ascii	"qI\001\332cO\332\371t\307\222\215\377\206\"\314C\021"
 289      634FDAF9 
 289      74C7928D 
 289      FF8622CC 
 289      4311
 290 0586 D65A3575 		.ascii	"\326Z5ua\000\250aY\335P\004z\005\201\352\223tarfn\346"
 290      6100A861 
 290      59DD5004 
 290      7A0581EA 
 290      93746172 
 291 059d 593D7B99 		.ascii	"Y={\231+dS0\011\253!\315\216\011\003}|\206@\365\361"
 291      2B645330 
 291      09AB21CD 
 291      8E09037D 
 291      7C8640F5 
 292 05b2 9D5603C6 		.ascii	"\235V\003\306\257\037\270\303\270\361\303\340E\261\370"
 292      AF1FB8C3 
 292      B8F1C3E0 
 292      45B1F8
 293 05c1 744B573B 		.ascii	"tKW;\300\022\375\016\220\020+\245=\350\307\"\036~\276"
 293      C012FD0E 
 293      90102BA5 
 293      3DE8C722 
 293      1E7EBE
 294 05d4 F09BAEAB 		.ascii	"\360\233\256\253z\331\317W\365bZ\325q\323\252v\322\252"
 294      7AD9CF57 
 294      F5625AD5 
 294      71D3AA76 
 294      D2AA
 295 05e6 563BAD26 		.ascii	"V;\255&#`\372\323\232\237\347\264V\353\267\231\346\350"
 295      2360FAD3 
 295      9A9FE7B4 
 295      56EBB799 
 295      E6E8
 296 05f8 FD04E574 		.ascii	"\375\004\345t\236\240=\252\324\321\336;{\311\201\035"
 296      9EA03DAA 
 296      D4D1DE3B 
 296      7BC9811D 
 297 0608 6DBD4082 		.ascii	"m\275@\202\217\032\233f\360\241\017CXx[`\206\365\016"
 297      8F1A9B66 
 297      F0A10F43 
 297      58785B60 
 297      86F50E
 298 061b BF53CC4D 		.ascii	"\277S\314M?\250_\177\023\007u\331{\276\212\365\223\242"
 298      3FA85F7F 
 298      130775D9 
 298      7BBE8AF5 
 298      93A2
 299 062d 5D1AF7E2 		.ascii	"]\032\367\3427\374db,b-3\215\345\324b\224K\222\022\246"
 299      37FC6462 
 299      2C622D33 
 299      8DE5D462 
 299      944B9212 
 300 0642 1068DC9B 		.ascii	"\020h\334\233\004\022\326o\026\014\204\365\353T\006"
ARM GAS  /tmp/ccLgmrsb.s 			page 23


 300      0412D66F 
 300      160C84F5 
 300      EB5406
 301 0651 6DC880DF 		.ascii	"m\310\200\337\242\015x\265\315\254\315\261\262\310\015"
 301      A20D78B5 
 301      CDACCDB1 
 301      B2C80D
 302 0660 E1E1AFE1 		.ascii	"\341\341\257\341l\344\016\322\030\2120\025\351t\244"
 302      6CE40ED2 
 302      188A3015 
 302      E974A4
 303 066f 8B90AE44 		.ascii	"\213\220\256D\372\246\021\321.\323q\313&\344\363BW\343"
 303      FAA611D1 
 303      2ED371CB 
 303      26E4F342 
 303      57E3
 304 0681 96B68EA3 		.ascii	"\226\266\216\243\035\203_\213\305\247X\034\\\215\030"
 304      1D835F8B 
 304      C5A7581C 
 304      5C8D18
 305 0690 CB4D4D37 		.ascii	"\313MM7T\200\005\333\321\202\267\012\016\340\340]\306"
 305      548005DB 
 305      D182B70A 
 305      0EE0E05D 
 305      C6
 306 06a1 820D0011 		.ascii	"\202\015\000\021)v@a\225\015o\237\354\024sS\3300v<\201"
 306      29764061 
 306      950D6F9F 
 306      EC147353 
 306      D830763C 
 307 06b6 6BB489F3 		.ascii	"k\264\211\363\011k\246\222\367\241\222\307S\217\036"
 307      096BA692 
 307      F7A192C7 
 307      538F1E
 308 06c5 55B2052A 		.ascii	"U\262\005*\373\013%\333Be\377\240d[\251\354N%\333Fe"
 308      FB0B25DB 
 308      4265FFA0 
 308      645BA9EC 
 308      4E25DB46 
 309 06da CFB227B2 		.ascii	"\317\262'\262\355T\366B%\333Ae\257P\2623\250\026I9p"
 309      ED54F642 
 309      25DB4165 
 309      AF50B233 
 309      A8164939 
 310 06ef 2A4A8259 		.ascii	"*J\202Y1v\201\367\005\213f1\230\206\331\031K0\265\036"
 310      317681F7 
 310      058B6631 
 310      9886D919 
 310      4B30B51E 
 311 0703 1A434B98 		.ascii	"\032CK\230BF7y\371\201\254$\220\216\2559\207#\334\035"
 311      42463779 
 311      F981AC24 
 311      908EAD39 
 311      8723DC1D 
 312 0717 12CCAE3E 		.ascii	"\022\314\256>\034\026\264W\037\224\305\207\006V\012"
 312      1C16B457 
 312      1F94C587 
ARM GAS  /tmp/ccLgmrsb.s 			page 24


 312      06560A
 313 0726 75B5E9C2 		.ascii	"u\265\351\302]\\\177%#\007\341M\340\266\032BK7t\310"
 313      5D5C7F25 
 313      2307E14D 
 313      E0B61A42 
 313      4B3774C8 
 314 073a FE6D278B 		.ascii	"\376m'\213fr\251\250c\346\353Fg}\317\311p9\211~\027"
 314      6672A9A8 
 314      63E6EB46 
 314      677DCFC9 
 314      7039897E 
 315 074f BFDEC43B 		.ascii	"\277\336\304;5f~\252G=\374\347`&\351\236\"\317\235d"
 315      35667EAA 
 315      473DFCE7 
 315      6026E99E 
 315      22CF9D64 
 316 0763 C79046F1 		.ascii	"\307\220F\361\375\305IC\243\310\361\032}QT\323\322\304"
 316      FDC54943 
 316      A3C8F11A 
 316      7D5154D3 
 316      D2C4
 317 0775 C4795042 		.ascii	"\304yPB\220\266\332k\227\376\214\016\244\015\207\300"
 317      90B6DA6B 
 317      97FE8C0E 
 317      A40D87C0 
 318 0785 598EF4EB 		.ascii	"Y\216\364\353\007*\030\017\177Z \263\3333\254\010?."
 318      072A180F 
 318      7F5A20B3 
 318      DB33AC08 
 318      3F2E
 319 0797 4111CE18 		.ascii	"A\021\316\030\022\341vK]\277X[\2347\356\370\216\337"
 319      12E1764B 
 319      5DBF585B 
 319      9C37EEF8 
 319      8EDF
 320 07a9 88DF330D 		.ascii	"\210\3373\015g\036g\321\36359\272\344\371\316\261\236"
 320      671E67D1 
 320      F33539BA 
 320      E4F9CEB1 
 320      9E
 321 07ba 6F0B5940 		.ascii	"o\013Y@\022\363\323\373\276\303\216d\337w\322\241\351"
 321      12F3D3FB 
 321      BEC38E64 
 321      DF77D2A1 
 321      E9
 322 07cb FBBE7668 		.ascii	"\373\276vh\372"
 322      FA
 323 07d0 BE8B0E4D 		.ascii	"\276\213\016M\337w\303\241\366}\234\001\377t\216\362"
 323      DF77C3A1 
 323      F67D9C01 
 323      FF748EF2 
 324 07e0 4FDFA17F 		.ascii	"O\337\241\177:\257\343\237<\374\301D\233\031\365O\252"
 324      3AAFE39F 
 324      3CFCC144 
 324      9B19F54F 
 324      AA
 325 07f1 F66A5B74 		.ascii	"\366j[t\355\320\244\335\320\037g\331\273\330\177ZZ\214"
ARM GAS  /tmp/ccLgmrsb.s 			page 25


 325      EDD0A4DD 
 325      D01F67D9 
 325      BBD87F5A 
 325      5A8C
 326 0803 F49F9F0C 		.ascii	"\364\237\237\014\366\237\033\254\361\275\326\202\306"
 326      F69F1BAC 
 326      F1BDD682 
 326      C6
 327 0810 77C390F1 		.ascii	"w\303\220\361-k\251K\356?LT\372\207_\350\372\321;lP"
 327      2D6BA94B 
 327      EE3F4C54 
 327      FA875FE8 
 327      FAD13B6C 
 328 0825 DA2A1858 		.ascii	"\332*\030X\364\220\364p{\361]\204\321\333\002\211\255"
 328      F490F470 
 328      7BF15D84 
 328      D1DB0289 
 328      AD
 329 0836 6766A86D 		.ascii	"gf\250mX\305\220X\221\036\023S-\331:r&\375\015\006E"
 329      58C59058 
 329      911E1353 
 329      2DD93A72 
 329      26FD0D06 
 330 084b ACE74697 		.ascii	"\254\347F\227\343\314\355Z\012\323h\247\266\204\203"
 330      E3CCED5A 
 330      0AD368A7 
 330      B68483
 331 085a BF372171 		.ascii	"\2777!q\333\3657\016\337\341\353c\261\236\036\276\306"
 331      DBF5370E 
 331      DFE1EB63 
 331      B19E1EBE 
 331      C6
 332 086b 425CCEA7 		.ascii	"B\\\316\247\031i]\216\032\010'C\026v1\255s\037\217~"
 332      19695D8E 
 332      1A082743 
 332      167631AD 
 332      731F8F7E 
 333 087f 8CFC254D 		.ascii	"\214\374%M\233O\237\026\337\332\271O\300\351#\216\227"
 333      9B4F9F16 
 333      DFDAB94F 
 333      C0E9238E 
 333      97
 334 0890 D352AE50 		.ascii	"\323R\256Px\370\277bw2\362\206\353\014\012Cx\350\202"
 334      78F8BF62 
 334      7732F286 
 334      EB0C0A43 
 334      78E882
 335 08a3 6A81AF6D 		.ascii	"j\201\257mD\0142#\230c!\216\342\033\323pN\025\334\016"
 335      440C3223 
 335      9863218E 
 335      E21BD370 
 335      4E15DC0E 
 336 08b7 35DC7923 		.ascii	"5\334y#pz\3439\300\275\257\206\273h\032N\315\335n5\\"
 336      707AE339 
 336      C0BDAF86 
 336      BB681A4E 
 336      CDDD6E35 
ARM GAS  /tmp/ccLgmrsb.s 			page 26


 337 08cc BB1138BD 		.ascii	"\273\0218\275%\001\200;\244\206\373\3114\234\232\273"
 337      2501803B 
 337      A486FBC9 
 337      349C9ABB 
 338 08dc 236AB85B 		.ascii	"#j\270[F\340\264\242\027\255\017m\300`^\026b^\263-d"
 338      46E0B4A2 
 338      17AD0F6D 
 338      C0605E16 
 338      625EB32D 
 339 08f1 D6F132D2 		.ascii	"\326\3612\322\271H\347#}\005\351\253Hk-i\346$R'[\260"
 339      B948E723 
 339      7D05E9AB 
 339      486B2D69 
 339      E6245227 
 340 0907 EEF07DDB 		.ascii	"\356\360}\333\260\217\315\260\020\317\322\234\231\322"
 340      B08FCDB0 
 340      10CFD29C 
 340      99D2
 341 0915 B3D4E848 		.ascii	"\263\324\350HE\030]\232\302\263,e=\313\221L\263\236"
 341      45185D9A 
 341      C2B32C65 
 341      3DCB914C 
 341      B39E
 342 0927 85D2398E 		.ascii	"\205\3229\216+\361\340\256M\261\330\014\273\361\367"
 342      2BF1E0AE 
 342      4DB1D80C 
 342      BBF1F7
 343 0936 F71D4BB6 		.ascii	"\367\035K\266>\200=\177\031\266\323\011FT\343@\015\313"
 343      3E803D7F 
 343      19B6D309 
 343      4654E340 
 343      0DCB
 344 0948 568B4B90 		.ascii	"V\213K\220o \320i\006\310\374F\000S\017\303\204\207"
 344      6F20D069 
 344      06C8FC46 
 344      00530FC3 
 344      8487
 345 095a 559EB997 		.ascii	"U\236\271\227\374\240\2746Iy\262.\332M#\366Ljc\321D"
 345      FCA0BC36 
 345      4979B22E 
 345      DA4D23F6 
 345      4C6A63D1 
 346 096f 6FA207BC 		.ascii	"o\242\007\274%N\225\321\024\353\220\276E\033\244\300"
 346      254E95D1 
 346      14EB90BE 
 346      451BA4C0 
 347 097f 7524E94C 		.ascii	"u$\351L\034\202)<e\254\346\322#\352\031\3455zy`J\026"
 347      1C82293C 
 347      65ACE6D2 
 347      23EA19E5 
 347      357A7960 
 348 0995 AF0E66CC 		.ascii	"\257\016f\314\031]\274\356\213\234\271\236\264/\257"
 348      195DBCEE 
 348      8B9CB99E 
 348      B42FAF
 349 09a4 AC3252BE 		.ascii	"\2542R\276b1\365\233\367\364\337\201\335l\003\016e{"
 349      6231F59B 
ARM GAS  /tmp/ccLgmrsb.s 			page 27


 349      F7F4DF81 
 349      DD6C030E 
 349      657B
 350 09b6 B2D2BFBD 		.ascii	"\262\322\277\275R\341\300T\031\213\274\303\014gm'\336"
 350      52E1C054 
 350      198BBCC3 
 350      0C676D27 
 350      DE
 351 09c7 FBF25F6A 		.ascii	"\373\362_j\021\371\235\364\343Y\214l\360\320\230\003"
 351      11F99DF4 
 351      E3598C6C 
 351      F0D09803 
 352 09d7 886CE9E9 		.ascii	"\210l\351\351\260\201\355\274\263\262eV\272\026\026"
 352      B081EDBC 
 352      B3B26556 
 352      BA1616
 353 09e6 DC69C2B7 		.ascii	"\334i\302\267\357\015\350q\346\232\006S7\312\202\346"
 353      EF0DE871 
 353      E69A0653 
 353      37CA82E6 
 354 09f6 A52677AC 		.ascii	"\245&w\254\264\3568w\367.T\33164\376\266l\326\026\245"
 354      B4EE3877 
 354      F72E54D9 
 354      3634FEB6 
 354      6CD616A5 
 355 0a0a 1554C516 		.ascii	"\025T\305\026\215\214\350\337\032\021D\177\016\014-"
 355      8D8CE8DF 
 355      1A11447F 
 355      0E0C2D
 356 0a19 79F8DEED 		.ascii	"y\370\336\355\030*\313\321\261]O\020\030Q\261\262]\254"
 356      182ACBD1 
 356      B15D4F10 
 356      1851B1B2 
 356      5DAC
 357 0a2b 35B4361E 		.ascii	"5\2646\036~P\264\206]\206\254a\353\201\327\014\005h"
 357      7E50B486 
 357      5D86AC61 
 357      EB81D70C 
 357      0568
 358 0a3d CB132F2A 		.ascii	"\313\023/*\177\215\325\327\347\220\352\367\262\325\337"
 358      7F8DD5D7 
 358      E790EAF7 
 358      B2D5DF
 359 0a4c 3C73EE0F 		.ascii	"<s\356\017b\365{\015U_\177\344\025-c\324\211\241\345"
 359      62F57B0D 
 359      555F7FE4 
 359      152D63D4 
 359      89A1E5
 360 0a5f E66BBC3C 		.ascii	"\346k\274<`\031V\322\204\006t3\207m\276\307\351UDNz"
 360      601956D2 
 360      84067433 
 360      876DBEC7 
 360      E955444E 
 361 0a74 B748D9EF 		.ascii	"\267H\331\357\364n2\367]\262_\020s\177\341Zl)\231\207"
 361      F46E32F7 
 361      5DB25F10 
 361      737FE15A 
ARM GAS  /tmp/ccLgmrsb.s 			page 28


 361      6C299987 
 362 0a88 99A611D5 		.ascii	"\231\246\021\325F\374\356\021\354\021\"\330_\215\200"
 362      46FCEE11 
 362      EC1122D8 
 362      5F8D80
 363 0a97 A5D8C3F5 		.ascii	"\245\330\303\365\036\015\366\222i05g\333h\260\271F\300"
 363      1E0DF692 
 363      69303567 
 363      DB68B0B9 
 363      46C0
 364 0aa9 526CA2DA 		.ascii	"Rl\242\332A\203-0\015\246\346\354}\032\354U#`)6Q\355"
 364      41832D30 
 364      0DA6E6EC 
 364      7D1AEC55 
 364      23602936 
 365 0abf A6C1169B 		.ascii	"\246\301\026\233\006Ssv\210\006\2533\002\346\324\340"
 365      06537376 
 365      8806AB33 
 365      02E6D4E0 
 366 0acf 2CF1D1F3 		.ascii	",\361\321\363\313{,\324\330\266\242\233\354\020L\332"
 366      CB7B2CD4 
 366      D8B6A29B 
 366      EC104CDA 
 367 0adf 34A760BC 		.ascii	"4\247`\274\331\315\254\007S\311M\306\242{wH\375Bt\356"
 367      D9CDAC07 
 367      53C94DC6 
 367      A27B7748 
 367      FD4274EE 
 368 0af3 EB8D20A6 		.ascii	"\353\215 \2460\030io\233\010\326`\032\2141\345fv\370"
 368      3018696F 
 368      9B08D660 
 368      1A8C31E5 
 368      6676F8
 369 0b06 36F48A6E 		.ascii	"6\364\212n\225\301\375?z\315\364%\335L;\215\310\220"
 369      95C1FD3F 
 369      7ACDF425 
 369      DD4C3B8D 
 369      C890
 370 0b18 C24E5B9B 		.ascii	"\302N[\233\227\342\372\227\361w\304\255;\016K\243\335"
 370      97E2FA97 
 370      F177C4AD 
 370      3B0E4BA3 
 370      DD
 371 0b29 D738DAED 		.ascii	"\3278\332\355\355\306\272\313y\354h\227\346u\244\300"
 371      EDC6BACB 
 371      79EC6897 
 371      E675A4C0 
 372 0b39 1D60A5D0 		.ascii	"\035`\245\320Z\025\322\357 `('\356\333\3766L\247\355"
 372      5A15D2EF 
 372      20602827 
 372      EEDBFE36 
 372      4CA7ED
 373 0b4c 66E4D82F 		.ascii	"f\344\330/\311\361\035\312q\364\237 G\213i9\0060r\354"
 373      C9F11DCA 
 373      71F49F20 
 373      478B6939 
 373      063072EC 
ARM GAS  /tmp/ccLgmrsb.s 			page 29


 374 0b60 19605E8E 		.ascii	"\031`^\216\023\222\034\027Q\2163\377\0049\316\233\226"
 374      13921C17 
 374      518E33FF 
 374      0439CE9B 
 374      96
 375 0b71 83DE468C 		.ascii	"\203\336F\214\241\307@1\364\350\303\315O\035z\020~\256"
 375      A1C74031 
 375      F4E8C3CD 
 375      4F1D7A10 
 375      7EAE
 376 0b83 5AFAA8D7 		.ascii	"Z\372\250\327TN|\310;\305\354tc~,\336\361!\025\257\305"
 376      544E7CC8 
 376      3BC5EC74 
 376      637E2CDE 
 376      F12115AF 
 377 0b98 8CC56B97 		.ascii	"\214\305k\227%\215u\240\306\2560\0323\216\324\321\362"
 377      258D75A0 
 377      C6AE301A 
 377      338ED4D1 
 377      F2
 378 0ba9 41BDB40D 		.ascii	"A\275\264\015\345\2068\365\3572TC\353Vq\353\305m\004"
 378      E58638F5 
 378      EF325443 
 378      EB5671EB 
 378      C56D04
 379 0bbc 8A75675B 		.ascii	"\212ug[\321\3164\242]\335\210pKj\372\211\204\217\374"
 379      D1CE34A2 
 379      5DDD8870 
 379      4B6AFA89 
 379      848FFC
 380 0bcf 8B520EB9 		.ascii	"\213R\016\271qp\377\357\345 \344@\366I\003v%\"B\003"
 380      7170FFEF 
 380      E520E440 
 380      F6490376 
 380      25224203 
 381 0be3 7A60BBE4 		.ascii	"z`\273\344\371\305F\232\367\263\020\247\306\033f\213"
 381      F9C5469A 
 381      F7B310A7 
 381      C61B668B 
 382 0bf3 F3148CDE 		.ascii	"\363\024\214\336`H\376\231p\207\017\230\237%\354\271"
 382      6048FE99 
 382      70870F98 
 382      9F25ECB9 
 383 0c03 47B4BA1A 		.ascii	"G\264\272\032\\\212_\221\324\302]\232%l\354\252 \211"
 383      5C8A5F91 
 383      D4C25D9A 
 383      256CECAA 
 383      2089
 384 0c15 8FC0BDDB 		.ascii	"\217\300\275\333\335\300 \342L\325Z\327\007\032\234"
 384      DDC020E2 
 384      4CD55AD7 
 384      071A9C
 385 0c24 6924E6AF 		.ascii	"i$\346\257\347\372\357Ce\314\261\222\371\3536F\031\006"
 385      E7FAEF43 
 385      65CCB192 
 385      F9EB3646 
 385      1906
ARM GAS  /tmp/ccLgmrsb.s 			page 30


 386 0c36 662CCD58 		.ascii	"f,\315X\344o\326\244\371\353\341\273\305)\003\371\223"
 386      E46FD6A4 
 386      F9EBE1BB 
 386      C52903F9 
 386      93
 387 0c47 81194B8D 		.ascii	"\201\031K\215l\027\342\264\364]\213 \301vU\237\252&"
 387      6C17E2B4 
 387      F45D8B20 
 387      C176559F 
 387      AA26
 388 0c59 54F8033F 		.ascii	"T\370\003?l%\003\377|\253j\341\342\270i\335;i\335\307"
 388      6C2503FF 
 388      7CAB6AE1 
 388      E2B869DD 
 388      3B69DDC7 
 389 0c6d 6F1E58CA 		.ascii	"o\036X\312\023\3765&YO\320!VB\361_\336\275\037\325\263"
 389      13FE3526 
 389      594FD021 
 389      5642F15F 
 389      DEBD1FD5 
 390 0c82 1015FFA5 		.ascii	"\020\025\377\245\216\342uw\236\010\334e,R\233\254\370"
 390      8EE27577 
 390      9E08DC65 
 390      2C529BAC 
 390      F8
 391 0c93 FDF7888A 		.ascii	"\375\367\210\212\2575\244\370O4\025_k^\361\211_\362"
 391      AF35A4F8 
 391      4F34155F 
 391      6B5EF189 
 391      5FF2
 392 0ca5 24423B0F 		.ascii	"$B;\017\377\236i0g\252V\254\245Zq1\266\342\022+Y2Z\252"
 392      FF9E6930 
 392      67AA56AC 
 392      A55A7131 
 392      B6E2122B 
 393 0cbd 6ECBA93D 		.ascii	"n\313\251=\230\266TiNJ\352\276\032\216\305\027\034\\"
 393      98B65469 
 393      4E4AEABE 
 393      1A8EC517 
 393      1C5C
 394 0ccf 2AA944F4 		.ascii	"*\251D\364y/\261xZRh\355\300\227\327\227\016\242JD\177"
 394      792FB178 
 394      5A5268ED 
 394      C097D797 
 394      0EA24A44 
 395 0ce4 B3C03498 		.ascii	"\263\3004\230S\005\266\353e\203/{\231]\336uX\357*\326"
 395      5305B6EB 
 395      65832F7B 
 395      995DDE75 
 395      58EF2AD6 
 396 0cf8 5C16DD3C 		.ascii	"\\\026\335<<\223\237\202C\347*\003\366\002\343\374\327"
 396      3C939F82 
 396      43E72A03 
 396      F602E3FC 
 396      D7
 397 0d09 99B8282E 		.ascii	"\231\270(.\332\355g\011\324\024\252Na-7\317I\033\240"
 397      DAED6709 
ARM GAS  /tmp/ccLgmrsb.s 			page 31


 397      D414AA4E 
 397      612D37CF 
 397      491BA0
 398 0d1c C4A9401B 		.ascii	"\304\251@\033\013gr\212|\307\277oPWv\321\307[\266\223"
 398      0B67728A 
 398      7CC7BF6F 
 398      505776D1 
 398      C75BB693 
 399 0d30 486723CA 		.ascii	"Hg#\312\364m\017vD\0205C\031\342*\312\020\337BC\\\215"
 399      F46D0F76 
 399      44103543 
 399      19E22ACA 
 399      10DF4243 
 400 0d46 86B816E9 		.ascii	"\206\270\026\351z\332\034\365\202\255\015Vj\372p\311"
 400      7ADA1CF5 
 400      82AD0D56 
 400      6AFA70C9 
 401 0d56 B4DC4EA6 		.ascii	"\264\334N\246u\364\252YIW\323a\304\366\206\352\252\227"
 401      75F4AA59 
 401      4957D361 
 401      C4F686EA 
 401      AA97
 402 0d68 38F5DFCB 		.ascii	"8\365\337\313\341\200\270\3066\245\247YD\2655_~Y\025"
 402      E180B8C6 
 402      36A5A759 
 402      44B5355F 
 402      7E5915
 403 0d7b 0ECC3102 		.ascii	"\016\3141\002\367\204\006\203Z\037zU\325\303\327\343"
 403      F7840683 
 403      5A1F7A55 
 403      D5C3D7E3 
 404 0d8b 3B96CDB8 		.ascii	";\226\315\270\304\274\005\351V\244\357#=\211\364\013"
 404      C4BC05E9 
 404      56A4EF23 
 404      3D89F40B 
 405 0d9b A46D48BF 		.ascii	"\244mH\277Bz\016\351\005\244\355Hgc\023\277\202\264"
 405      427A0EE9 
 405      05A4ED48 
 405      676313BF 
 405      82B4
 406 0dad 0EE972A4 		.ascii	"\016\351r\244o \335\214\364\335t\006 \215\002'\336\370"
 406      6F20DD8C 
 406      F4DD7406 
 406      208D0227 
 406      DEF8
 407 0dbf FCDE0DE8 		.ascii	"\374\336\015\350\253\327\243\371\177\324\223\265\274"
 407      ABD7A3F9 
 407      7FD493B5 
 407      BC
 408 0dcc 060BB3E6 		.ascii	"\006\013\263\346\225\264h\333\332\323\300\342w\212\345"
 408      95B468DB 
 408      DAD3C0E2 
 408      778AE5
 409 0ddb C945D7BE 		.ascii	"\311E\327\276\235\274k\252\330\246\033\321\254\337\264"
 409      9DBC6BAA 
 409      D8A61BD1 
 409      ACDFB4
ARM GAS  /tmp/ccLgmrsb.s 			page 32


 410 0dea 327B03D2 		.ascii	"2{\003\322\357\372Q7\352\251:\375\037T8\327\350\255"
 410      EFFA5137 
 410      EAA93AFD 
 410      1F5438D7 
 410      E8AD
 411 0dfc 3E265E0F 		.ascii	">&^\017\177\271\236\337\214Jy\037\273\343YF)i\201\210"
 411      7FB99EDF 
 411      8C4A791F 
 411      BBE35946 
 411      29698188 
 412 0e10 9A1A193F 		.ascii	"\232\032\031?\027\257_\267_|=\334\230\336\313M\237\026"
 412      17AF5FB7 
 412      5F7C3DDC 
 412      98DECB4D 
 412      9F16
 413 0e22 DFB26EBF 		.ascii	"\337\262n\277\200?\300\224^\017\247z{\004\026\200\266"
 413      803FC094 
 413      5E0FA77A 
 413      7B041680 
 413      B6
 414 0e33 95FE05CF 		.ascii	"\225\376\005\317\025\024\245Q\351\346i\177\026J\267"
 414      1514A551 
 414      E9E6697F 
 414      164AB7
 415 0e42 150449EB 		.ascii	"\025\004I\353\316\361\322\317B\305\367;\327L\003\366"
 415      CEF1D2CF 
 415      42C5F73B 
 415      D74C03F6 
 416 0e52 5489B95D 		.ascii	"T\211\271]\026\323\303\357\305\321)\326\313,\240\272"
 416      16D3C3EF 
 416      C5D129D6 
 416      CB2CA0BA 
 417 0e62 E977B21C 		.ascii	"\351w\262\034N7\0158H\305\341.\226\303\227\215\000\246"
 417      4E370D38 
 417      48C5E12E 
 417      96C3978D 
 417      00A6
 418 0e74 18221A59 		.ascii	"\030\"\032Y\016\347\231\006T\353\3600\313\341\022\323"
 418      0EE79906 
 418      54EBF030 
 418      CBE112D3 
 419 0e84 806A1D1E 		.ascii	"\200j\035\036e9\2543\015\250\326\341',\207k\214\000"
 419      6539AC33 
 419      0DA8D6E1 
 419      272C876B 
 419      8C00
 420 0e96 A658BE3B 		.ascii	"\246X\276;\316r\370\266i@\265\016O\260\034n3\015\250"
 420      CE72F8B6 
 420      6940B50E 
 420      4FB01C6E 
 420      330DA8
 421 0ea9 D6610BCB 		.ascii	"\326a\013\313a\243i@\265\016O\261\034\3567\002\230j"
 421      61A36940 
 421      B50E4FB1 
 421      1CEE3702 
 421      986A
 422 0ebb C58FE5F0 		.ascii	"\305\217\345\360\220i@\265\016/\263\034~n\032P\255\303"
ARM GAS  /tmp/ccLgmrsb.s 			page 33


 422      906940B5 
 422      0E2FB31C 
 422      7E6E1A50 
 422      ADC3
 423 0ecd 7696C3D3 		.ascii	"v\226\303\323\246\001\325:\374\221\345\360{#\200N}\035"
 423      A601D53A 
 423      FC91E5F0 
 423      7B23804E 
 423      7D1D
 424 0edf 76B01C5E 		.ascii	"v\260\034^1\015\310\276\357\246>\364(\342\341\343\030"
 424      310DC8BE 
 424      EFA63EF4 
 424      28E2E1E3 
 424      18
 425 0ef0 E6EDC1F1 		.ascii	"\346\355\301\361\375\003\244MH\367!\375\020\351GH\017"
 425      FD03A44D 
 425      48F721FD 
 425      10E94748 
 425      0F
 426 0f01 223D84F4 		.ascii	"\"=\204\364\010\322cH?E\372\031\322\317\221\236D\372"
 426      08D26348 
 426      3F45FA19 
 426      D2CF919E 
 426      44FA
 427 0f13 05D236A4 		.ascii	"\005\3226\244\247\221~e$\200\334IGv\267z\031\210\002"
 427      A7917E65 
 427      2480DC49 
 427      4776B77A 
 427      198802
 428 0f26 52ACDC2E 		.ascii	"R\254\334.\272v\350\277\177\316~\276\266y\233\367>F"
 428      BA76E8BF 
 428      7FCE7EBE 
 428      B6799BF7 
 428      3E46
 429 0f38 B663A6DF 		.ascii	"\266c\246\337\323\367\235\325\330\236\276\357\331!|"
 429      D3F79DD5 
 429      D89EBEEF 
 429      D9217C
 430 0f47 C141DCD3 		.ascii	"\301A\334\323\367\275\241i\355\302.M\223\224\030\344"
 430      F7BDA169 
 430      EDC22E4D 
 430      939418E4 
 431 0f57 23698BDA 		.ascii	"#i\213\332%\214A\232{\247}\257\237\274#\273\235\025"
 431      258C419A 
 431      7BA77DAF 
 431      9FBC23BB 
 431      9D15
 432 0f69 E0F61569 		.ascii	"\340\366\025i\213Z\273\241\030d^\273\264EM\336\201\324"
 432      8B5ABBA1 
 432      18645EBB 
 432      B4454DDE 
 432      81D4
 433 0f7b 825CB477 		.ascii	"\202\\\264wmj\016\200\363\333U\033\232ZM\3039Up\257"
 433      6D6A0E80 
 433      F3DB551B 
 433      9A5A4DC3 
 433      395570AF 
ARM GAS  /tmp/ccLgmrsb.s 			page 34


 434 0f8f A8E1BE36 		.ascii	"\250\341\2766\002\227bo\331\253j\270\357L\3039\265"
 434      0297626F 
 434      D9AB6AB8 
 434      EF4CC339 
 434      B5
 435 0fa0 74C92535 		.ascii	"t\311%5\206\207\277\212]\371G\354j\035H\257#\275i\244"
 435      8687BF8A 
 435      5DF947EC 
 435      6A1D48AF 
 435      23BD69A4 
 436 0fb4 DB5DA4BB 		.ascii	"\333]\244\273\335Ed\362\373\256.\226@\257\371|\350\216"
 436      DD4564F2 
 436      FBAE2E96 
 436      40AFF97C 
 436      E88E
 437 0fc6 E46E27EA 		.ascii	"\344n'\352@\217\203N\325\224\3164\007N\232\203\370\242"
 437      408F834E 
 437      D594CE34 
 437      074E9A83 
 437      F8A2
 438 0fd8 83E28B27 		.ascii	"\203\342\213'\371G\213\267X<\255W\016)\302\253\245\007"
 438      F9478BB7 
 438      583CAD57 
 438      0E29C2AB 
 438      A507
 439 0fea F1201711 		.ascii	"\361 \027\021lZ\037\263`\352\303o\352h\260\227L\203"
 439      6C5A1FB3 
 439      60EAC36F 
 439      EA68B097 
 439      4C83
 440 0ffc E9ED65FA 		.ascii	"\351\355e\372"
 441 1000 01DBFF02 		.ascii	"\001\333\377\002\266\371\035\244Sl\204NC:\303\246ZL"
 441      B6F91DA4 
 441      536C844E 
 441      433AC3A6 
 441      5A4C
 442 1012 7AA50F3B 		.ascii	"z\245\017;'\373\236]\015P<\025g\024W\257m\277\245\333"
 442      27FB9E5D 
 442      0D503C15 
 442      671457AF 
 442      6DBFA5DB 
 443 1026 76751F03 		.ascii	"vu\037\003N\335\251o]\213\256]\222\234\272\010,p\033"
 443      4EDDA96F 
 443      5D8BAE5D 
 443      929CBA08 
 443      2C701B
 444 1039 4D23AAAD 		.ascii	"M#\252\255eak\2354]\027\177\204\321`\004/\305\2170\226"
 444      65616B9D 
 444      345D177F 
 444      84D16004 
 444      2FC58F30 
 445 104e B6E2CA98 		.ascii	"\266\342\312\230\010\266\3134\230\223\323\375\320?H"
 445      08B6CB34 
 445      9893D3FD 
 445      D03F48
 446 105d 80011577 		.ascii	"\200\001\025w\257}\215{\315~D\272\016'\363\333\261\225"
 446      AF7D8D7B 
ARM GAS  /tmp/ccLgmrsb.s 			page 35


 446      CD7E44BA 
 446      0E27F3DB 
 446      B195
 447 106f 7620FD06 		.ascii	"v \375\006\351,l\253\331H_2\322b\255\364N\264f\024\341"
 447      E92C6CAB 
 447      D9485F32 
 447      D262ADF4 
 447      4EB46614 
 448 1084 64573756 		.ascii	"dW7V\267u\034=\276\202_ \236os\015\267\204\177d\032"
 448      B7751C3D 
 448      BE825F20 
 448      9E6F730D 
 448      B7847F64 
 449 1099 51DD62D7 		.ascii	"Q\335b\327\304\345X\021\354\210\0210\255\316M\251UT"
 449      C4E55811 
 449      EC881130 
 449      ADCE4DA9 
 449      5554
 450 10ab E82954E8 		.ascii	"\350)T\350\027\250\312\271\250\254\371\352n\363YR\267"
 450      17A8CAB9 
 450      A8ACF9EA 
 450      6EF35952 
 450      B7
 451 10bc 39C96E04 		.ascii	"9\311n\004<\251\332\010\250\213\245\247\370\317\024"
 451      3CA9DA08 
 451      A88BA5A7 
 451      F8CF14
 452 10cb C57BF8B5 		.ascii	"\305{\370\265\270\320l\346\327@j5u6\313nP<\027\3414"
 452      B8D06CE6 
 452      D7406A35 
 452      7536CB6E 
 452      503C17E1 
 453 10e0 B29FE6F7 		.ascii	"\262\237\346\367[\306\017]\271@\035\272r\021\367\035"
 453      5BC60F5D 
 453      B9401DBA 
 453      7211F71D 
 454 10f0 5CC21F20 		.ascii	"\\\302\037 \276\207B\177\214\364(\322O\220\036G\272"
 454      BE87427F 
 454      8CF428D2 
 454      4F901E47 
 454      BA
 455 1101 D0881ABE 		.ascii	"\320\210\032\276\243\177\200x\005\331>\333\345\037 "
 455      A37F8078 
 455      05D93EDB 
 455      E51F20
 456 1110 DE3EB26A 		.ascii	"\336>\262j\200\024r\264\242\305t\230\006T\353u\341e"
 456      801472B4 
 456      A2C57498 
 456      0654EB75 
 456      E165
 457 1122 69505F8F 		.ascii	"iP_\217?\036\276e\004.\305\350\362\332\271m\342Imb+"
 457      3F1EBE65 
 457      042EC5E8 
 457      F2DAB96D 
 457      E2496D62 
 458 1137 4DBF8B81 		.ascii	"M\277\213\201K;$\250\271\253\375S\355 \031\353%\323"
 458      4B3B24A8 
ARM GAS  /tmp/ccLgmrsb.s 			page 36


 458      B9ABFD53 
 458      ED2019EB 
 458      25D3
 459 1149 580352B5 		.ascii	"X\003R\265\370Y\252\305\277\305\026?\207-^\213\006\276"
 459      F859AAC5 
 459      BFC5163F 
 459      872D5E8B 
 459      06BE
 460 115b 18E952A4 		.ascii	"\030\351R\244uFZ\371\364\317<%\246\345\364\221wy\361"
 460      75465AF9 
 460      F4CF3C25 
 460      A6E5F491 
 460      7779F1
 461 116e E7522B6C 		.ascii	"\347R+l$\242]y\227\311\210V\3406a\221U6&\252m\177\316"
 461      24A25D79 
 461      97C98856 
 461      E0366191 
 461      553626AA 
 462 1185 29E6A60F 		.ascii	")\346\246\017\312;\256J\326p\032\255ag\002\260K\326"
 462      CA3BAE4A 
 462      D6701AAD 
 462      616702B0 
 462      4BD6
 463 1197 1ABFFE3D 		.ascii	"\032\277\376=e\\\036~\211M0\011\247\266\206\233\337"
 463      655C1E7E 
 463      894D3009 
 463      A7B6869B 
 463      DF
 464 11a8 EE4B3A61 		.ascii	"\356K:aE\334\006\244\327*\353mT\337k4\"M\012\333\276"
 464      45DC06A4 
 464      D72AEB6D 
 464      54DF6B34 
 464      224D0ADB 
 465 11bd FD95CAB6 		.ascii	"\375\225\312\266\233Y8\223\266=\357\3078\037\373k\216"
 465      9B593893 
 465      B63DEFC7 
 465      381FFB6B 
 465      8E
 466 11ce 3C333EC6 		.ascii	"<3>\306\302\031]C\3226o\305\012\200\332\360\005\010"
 466      C2195D43 
 466      D2366FC5 
 466      0A80DAF0 
 466      0508
 467 11e0 1AF35AA4 		.ascii	"\032\363Z\244\353\220nD\372\216\021\363^\256(\362>\256"
 467      EB906E44 
 467      FA8E11F3 
 467      5EAE28F2 
 467      3EAE
 468 11f2 2E166F6B 		.ascii	".\026ok\3538{\372\236\332\315\313c\263bw:_\344U?\306"
 468      EB387BFA 
 468      9EDACDCB 
 468      63B36277 
 468      3A5FE455 
 469 1208 92367318 		.ascii	"\2226s\0309\220\243e\303\3758\341j\260\0219\31716o\034"
 469      3990A365 
 469      C3FD38E1 
 469      6AB01139 
ARM GAS  /tmp/ccLgmrsb.s 			page 37


 469      CF31366F 
 470 121d A8A1F5F5 		.ascii	"\250\241\365\365\\\004z\017\201.\335\305\016n\034\263"
 470      5C047A0F 
 470      812EDDC5 
 470      0E6E1CB3 
 471 122d 658053AF 		.ascii	"e\200S\257\005\303m\254S\372\210\2734 \347E\256Ke\364"
 471      05C36DAC 
 471      53FA88BB 
 471      3420E745 
 471      AE4B65F4 
 472 1241 74B8D9A6 		.ascii	"t\270\331\246\372\031Z\027\335\304\225\031\222\233\330"
 472      FA195A17 
 472      DDC49519 
 472      929BD8
 473 1250 896EE2BA 		.ascii	"\211n\342\272y71\355\027\244\310n\326M,\3638\305\334"
 473      793731ED 
 473      17A4C86E 
 473      D64D2CF3 
 473      38C5DC
 474 1263 F46EA2E1 		.ascii	"\364n\242\341:e\272\036~\017\236\236\264;\265\351\252"
 474      3A65BA1E 
 474      7E0F9E9E 
 474      B43BB5E9 
 474      AA
 475 1274 EC4B0DB7 		.ascii	"\354K\015\267\345\007\331M\330\210\327\231\235\340\257"
 475      E507D94D 
 475      D888D799 
 475      9DE0AF
 476 1283 6B6E62EB 		.ascii	"knb\353F\351\225\345r\204\233k\004.E\267\337~.\331\353"
 476      46E995E5 
 476      72849B6B 
 476      042E45B7 
 476      DF7E2ED9 
 477 1298 68EDD4FE 		.ascii	"h\355\324\376W\031k\025\365\002i{\315G\342\341Y\373"
 477      57196B15 
 477      F502697B 
 477      CD47E2E1 
 477      59FB
 478 12aa B0B55EFB 		.ascii	"\260\265^\373E\332\326bpHc\034`\233\352\250xz\326\001"
 478      45DAD662 
 478      7048631C 
 478      609BEAA8 
 478      787AD601 
 479 12be 438D754C 		.ascii	"C\215uL\334\312)\216\357K\220\201\003]\366\350\307\233"
 479      DCCA298E 
 479      EF4B9081 
 479      035DF6E8 
 479      C79B
 480 12d0 FF576CF9 		.ascii	"\377Wl\371\335\274\322\362\007L\264\274\272\251>k\246"
 480      DDBCD2F2 
 480      074CB4BC 
 480      BAA93E6B 
 480      A6
 481 12e1 4E15AD63 		.ascii	"N\025\255cyK\373\223W\325\231\234\361\317i\260\225\246"
 481      794BFB93 
 481      57D5999C 
 481      F1CF69B0 
ARM GAS  /tmp/ccLgmrsb.s 			page 38


 481      95A6
 482 12f3 C186AAC0 		.ascii	"\301\206\252\300N\315\234#M\244\304\263\012W\033Q\\"
 482      4ECD9C23 
 482      4DA4C4B3 
 482      0A571B51 
 482      5C
 483 1304 0A2BFA42 		.ascii	"\012+\372B9\370\320\303\037d\325ft\351D\002\273D\237"
 483      39F8D0C3 
 483      1F64D566 
 483      74E94402 
 483      BB449F
 484 1317 A2B8C108 		.ascii	"\242\270\301\010g)\336\025\\\241\301\032L\203\2519\273"
 484      6729DE15 
 484      5CA1C11A 
 484      4C83A939 
 484      BB
 485 1328 4A836D37 		.ascii	"J\203m7\002\226b\005\376'\032\254\3214\230\232\263\033"
 485      02966205 
 485      FE271AAC 
 485      D134989A 
 485      B31B
 486 133a 499B9055 		.ascii	"I\233\220U\307E&y\3536:t\330g\244r\247\236$\261\370"
 486      C7452679 
 486      EB363A74 
 486      D867A472 
 486      A79E24B1 
 487 134f EB1F6663 		.ascii	"\353\037fc\344@N\240\024\270C,Z,\001\027K3\315\327\372"
 487      E4404EA0 
 487      14B8432C 
 487      5A2C0117 
 487      4B33CDD7 
 488 1364 D00EC2C3 		.ascii	"\320\016\302\303\177\204\203\375?ph\377\030\351!\244"
 488      7F8483FD 
 488      3F7068FF 
 488      18E921A4 
 489 1374 47901E43 		.ascii	"G\220\036C\372)\322\343HO mAz\012i+\322\323F\302\202"
 489      FA29D2E3 
 489      484F206D 
 489      417A0A69 
 489      2BD2D346 
 490 138a 665A49C7 		.ascii	"fZI\307L;\332\224B\355\246\204\212\243P{\220\261\275"
 490      4C3BDA94 
 490      42EDA684 
 490      8AA3507B 
 490      90B1BD
 491 139d 483F40DA 		.ascii	"H?@\332d\204\311\0356j\036J\375\350[\340N0\356\370\327"
 491      6484C91D 
 491      366A1E4A 
 491      FDE85BE0 
 491      4E30EEF8 
 492 13b2 DCCA586C 		.ascii	"\334\312Xl>\2066dY&S,+p\347\361\271z\333}\232u$j\370"
 492      3E863664 
 492      5926532C 
 492      2B70E7F1 
 492      B97ADB7D 
 493 13cb 2DF72639 		.ascii	"-\367&9\274\257\376\344\230\376bD\303\251K1g\033\340"
 493      BCAFFEE4 
ARM GAS  /tmp/ccLgmrsb.s 			page 39


 493      98FE6244 
 493      C3A94B31 
 493      671BE0
 494 13de 9FBFB6A9 		.ascii	"\237\277\266\251\316\225'\301\325\362\266\370''r\346"
 494      CE9527C1 
 494      D5F2B6F8 
 494      272772E6 
 495 13ee 4E69EBEC 		.ascii	"Ni\353\354\274\317\304\321K\337\331\230_\271\223\341"
 495      BCCFC4D1 
 495      4BDFD998 
 495      5FB993E1 
 496 13fe 2F712345 		.ascii	"/q#E\302\211{i\276\302(\344\242\246Bb\015\376Q\"\034"
 496      C2897B69 
 496      BEC228E4 
 496      A2A64262 
 496      0DFE5122 
 497 1413 74468CE1 		.ascii	"tF\214\341\317\351\252\002\003E\251X+)\266\036\213m"
 497      CFE9AA02 
 497      0345A958 
 497      2B29B61E 
 497      8B6D
 498 1425 48536C3D 		.ascii	"HSl=U\254\241)g./OA\246\367\345S\026\224\344@\325O\215"
 498      55ACA129 
 498      672E2F4F 
 498      41A6F7E5 
 498      531694E4 
 499 143d FD306346 		.ascii	"\3750cFO^>\015QULK\367\0274u\277\271\311\274\356\177"
 499      4F5E3E0D 
 499      51554C4B 
 499      F7173475 
 499      BFB9C9BC 
 500 1453 D4D23DA3 		.ascii	"\324\322=\243\333\231}5u\373\032\253\333\253\251u\253"
 500      DB997D35 
 500      75FB1AAB 
 500      DBABA975 
 500      AB
 501 1464 27EBD5D4 		.ascii	"'\353\325\324\262vh\312z\002O\235\236\032\357\354l\204"
 501      B27668CA 
 501      7A024F9D 
 501      9E1AEFEC 
 501      6C84
 502 1476 28911198 		.ascii	"(\221\021\230X\260\236\3007Y\201w\320\306&1\312(\340"
 502      58B09EC0 
 502      37598177 
 502      D0C62631 
 502      CA28E0
 503 1489 556D05DC 		.ascii	"Um\005\334\366\215\022\213{\370oP\0017R\3673\251\330"
 503      F68D128B 
 503      7BF86F50 
 503      013752F7 
 503      33A9D8
 504 149c 51566FFA 		.ascii	"QVo\372\305h\275\305\230\356y#\265\332\356$\253mS\033"
 504      C568BDC5 
 504      98EE7923 
 504      B5DAEE24 
 504      AB6D531B 
 505 14b0 1E239D6C 		.ascii	"\036#\235l\"\306\2678/h?\375\373w\360\355\325t;\316"
ARM GAS  /tmp/ccLgmrsb.s 			page 40


 505      22C6B738 
 505      2F683FFD 
 505      FB77F0ED 
 505      D5743BCE 
 506 14c4 FD18CD78 		.ascii	"\375\030\315xx\0333]\261\251\247\036\266L%!\355p\326"
 506      781B335D 
 506      B1A9A71E 
 506      B64C2521 
 506      ED70D6
 507 14d7 6BA96976 		.ascii	"k\251iv\215\226bZ\246E\253e\246\022?xo\243\342\007\345"
 507      8D96625A 
 507      A645AB65 
 507      A6123F78 
 507      6FA3E207 
 508 14ec F6996A37 		.ascii	"\366\231j7\342\007\247\306\352\277\0323J\224\220KQJ"
 508      E207A7C6 
 508      EABF1A33 
 508      4A94904B 
 508      514A
 509 14fe 62F32F76 		.ascii	"b\363/v-\373\334\241\251\350\324\2469GK`]?\270L\374"
 509      2DFBDCA1 
 509      A9E8D4A6 
 509      39474B60 
 509      5D3FB84C 
 510 1513 C938A390 		.ascii	"\3118\243\220o\264Mu\236\2371\325\331\251U!\025\333"
 510      6FB44D75 
 510      9E9F31D5 
 510      D9A95521 
 510      15DB
 511 1525 AAF8C133 		.ascii	"\252\370\3013i\212\321~\260\3353@^\034\270\212\374P"
 511      698AD17E 
 511      B0DD3340 
 511      5E1CB88A 
 511      FC50
 512 1537 C598FD4D 		.ascii	"\305\230\375M\222\024\232\026N\225\322\262\360\271\311"
 512      92149A16 
 512      4E95D2B2 
 512      F0B9C9
 513 1546 8A070BBF 		.ascii	"\212\007\013\277\325\005\305\277\226B\361L\340E\304"
 513      D505C5BF 
 513      9642F14C 
 513      E045C4
 514 1555 D483596C 		.ascii	"\324\203Yl\327<\\Q:\3219M\303\335\324\264d\321\311\322"
 514      D73C5C51 
 514      3AD1394D 
 514      C3DDD4B4 
 514      64D1C9D2 
 515 1569 0DF7AAA1 		.ascii	"\015\367\252\241\206k$\305\010?0)\355\307\247,\206\\"
 515      866B24C5 
 515      083F3029 
 515      EDC7A72C 
 515      865C
 516 157b 4BC53AFE 		.ascii	"K\305:\376\324_\3767&\363\330b\314o\334P*\271\266\232"
 516      D45FFE37 
 516      26F3D862 
 516      CC6FDC50 
 516      2AB9B69A 
ARM GAS  /tmp/ccLgmrsb.s 			page 41


 517 158f 9C317283 		.ascii	"\2341r\203/a\313\231hp\275\332$\375\276\256\331\323"
 517      2F61CB99 
 517      6870BDDA 
 517      24FDBEAE 
 517      D9D3
 518 15a1 AE7D68BE 		.ascii	"\256}h\276\301W\033p-o\3643\326\223\3362\344TXQ\337"
 518      C1571B70 
 518      2D6FF433 
 518      D693DE32 
 518      E4545851 
 519 15b6 4A2DEADA 		.ascii	"J-\352\332dQ\333\310\234\374\330\002~\336\264\345\373"
 519      6451DBC8 
 519      9CFCD802 
 519      7EDEB4E5 
 519      FB
 520 15c7 629788E7 		.ascii	"b\227\210\347T\011l\370x\253x\303A\262!\371m;9\332\352"
 520      54096CF8 
 520      78AB78C3 
 520      41B221F9 
 520      6D3B39DA 
 521 15dc 1D464883 		.ascii	"\035FH\203G[\325\333\231\243\255N\314\306\243\255H~"
 521      475BD5DB 
 521      99A3AD4E 
 521      CCC6A3AD 
 521      487E
 522 15ee 8A79BD74 		.ascii	"\212y\275t\002\325\326~\311G[\355\352\247y\264\325\376"
 522      02D5D67E 
 522      C9475BED 
 522      EAA779B4 
 522      D5FE
 523 1600 7E9A475B 		.ascii	"~\232G[\035\353\247y\264\325\227\3754\217\365\373\276"
 523      1DEBA779 
 523      B4D597FD 
 523      348FF5FB 
 523      BE
 524 1611 9FE6B17E 		.ascii	"\237\346\261~\035\3754\217\365\233\331_\363X\277y\375"
 524      1DFD348F 
 524      F59BD95F 
 524      F358BF79 
 524      FD
 525 1622 D5C7FA49 		.ascii	"\325\307\372I\331\213\225\354L*{\203\222\235Ee7*\331"
 525      D98B95EC 
 525      4C2A7B83 
 525      929D4565 
 525      372AD9
 526 1635 D954F621 		.ascii	"\331T\366!%;\207\312nU\262\273Q\331\227\224\354\356"
 526      253B87CA 
 526      6E55B2BB 
 526      51D99794 
 526      ECEE
 527 1647 5476ECEE 		.ascii	"Tv\354\356Dv\017*{\266\222\335\223\312^\250d\367\242"
 527      44760F2A 
 527      7BB692DD 
 527      93CA5EA8 
 527      64F7A2
 528 165a B2D728D9 		.ascii	"\262\327(\331\275i\276\225\354>R[\222\333\224g\206)"
 528      BD69BE95 
ARM GAS  /tmp/ccLgmrsb.s 			page 42


 528      EC3E525B 
 528      92DB9467 
 528      8629
 529 166c 36E2E137 		.ascii	"6\342\3417\333\311,\250\301\256}f\230^/\335\310\366"
 529      DBC92CA8 
 529      C1AE7D66 
 529      985E2FDD 
 529      C8F6
 530 167e D2667A3C 		.ascii	"\322fz<\224N\267O\334\257\341\265\334\352\261\273y\015"
 530      944EB74F 
 530      DCAFE1B5 
 530      DCEAB1BB 
 530      790D
 531 1690 7BF4F05F 		.ascii	"{\364\360_hu\260\370\262\217!\252\\A\242\312\307\331"
 531      6875B0F8 
 531      B28F21AA 
 531      5C41A2CA 
 531      C7D9
 532 16a2 9892F417 		.ascii	"\230\222\364\027\335\0317\313(Y\2622\311h\213\016\243"
 532      DD1937CB 
 532      2859B232 
 532      C9688B0E 
 532      A3
 533 16b3 5F697A82 		.ascii	"_iz\202[G\336\326c\224\324\255\307\350Y\226\321\323"
 533      5B47DED6 
 533      6394D4AD 
 533      C7E85996 
 533      D1D3
 534 16c5 7C92DF3B 		.ascii	"|\222\337;\243\303\310\267jF\236\341-7\005\231\235m"
 534      A3C3C8B7 
 534      6A469EE1 
 534      2D370599 
 534      9D6D
 535 16d7 4DC72C8B 		.ascii	"M\307,\213b{\247\307:;_4\243\270\363Z-\314\360sA\207"
 535      627BA7C7 
 535      3A3B5F34 
 535      A3B8F35A 
 535      2DCCF073 
 536 16ed 9F1FD4FC 		.ascii	"\237\037\324\3740\3434\261\035\275Z/\330\265\337x\211"
 536      30E334B1 
 536      1DBD5A2F 
 536      D8B5DF78 
 536      89
 537 16fe FAD12B75 		.ascii	"\372\321+uQ\267T[\212R\227tJ\321\377\373\203z\017\324"
 537      51B7545B 
 537      8A529774 
 537      4AD1FFFB 
 537      837A0FD4 
 538 1712 5F2E6F91 		.ascii	"_.o\221\312_\261\233={\263]\372\031\251\224\235H\310"
 538      CA5FB19B 
 538      3D7BB35D 
 538      FA19A994 
 538      9D48C8
 539 1725 DAD22B77 		.ascii	"\332\322+wYW>\262\374\257W\352\252N)\306\0104\307b\311"
 539      59573EB2 
 539      FCAF57EA 
 539      AA4E29C6 
ARM GAS  /tmp/ccLgmrsb.s 			page 43


 539      0834C762 
 540 173a B95CBB9B 		.ascii	"\271\\\273\233\032\370\256\261\0261\214\352I6u \305"
 540      1AF8AEB1 
 540      16318CEA 
 540      49367520 
 540      C5
 541 174b DC3E9E3C 		.ascii	"\334>\236<u\323\235\365\352\312z>E[\336\246\342;\253"
 541      75D39DF5 
 541      EACA7A3E 
 541      455BDEA6 
 541      E23BAB
 542 175e B7C213B6 		.ascii	"\267\302\023\266\217,~\312\231\307\015\315\255\010U"
 542      8F2C7ECA 
 542      99C70DCD 
 542      AD0855
 543 176d F973BD21 		.ascii	"\371s\275!\337\344\\\237\177B\256\267\"06\020\212\344"
 543      DFE45C9F 
 543      7F42AEB7 
 543      22303610 
 543      8AE4
 544 177f 46C3E383 		.ascii	"F\303\343\203\317\347B\302?)\232[\356\211\226Gr#aon"
 544      CFE742C2 
 544      3F299A5B 
 544      EE899647 
 544      7223616F 
 545 1794 2018F58F 		.ascii	" \030\365\217\363\207\007Vp\326\341\317\226\025<d\256"
 545      F3870756 
 545      70D6E1CF 
 545      96153C64 
 545      AE
 546 17a5 74793914 		.ascii	"ty9\024\264\215\030V6\242\324Q\036qG'W\373-\276\360"
 546      B48D1856 
 546      36A2D451 
 546      1E714727 
 546      57FB2DBE 
 547 17ba 049B3712 		.ascii	"\004\2337\022\370/\277=\350\206'#\266\211\345\225\236"
 547      F82FBF3D 
 547      E8862723 
 547      B689E595 
 547      9E
 548 17cb 7119E591 		.ascii	"q\031\345\221\200"
 548      80
 549 17d0 9B24ACCF 		.ascii	"\233$\254\317\224\270\362\205\200/3\350\016\207BQ_ "
 549      94B8F285 
 549      802F33E8 
 549      0E874251 
 549      5F20
 550 17e2 6CCB2759 		.ascii	"l\313'YY\225\236H\324\355\255\034\037\211f\225\207\375"
 550      59959E48 
 550      D4EDAD1C 
 550      1F896695 
 550      87FD
 551 17f4 7E319981 		.ascii	"~1\231\201\030\376`\324VN \035\023B\225c=\021\277\003"
 551      18FE60D4 
 551      564E201D 
 551      13429563 
 551      3D11BF03 
ARM GAS  /tmp/ccLgmrsb.s 			page 44


 552 1808 32F11B8A 		.ascii	"2\361\033\212\223\357\014\237'\352\301\214\211\201`"
 552      93EF0C9F 
 552      27EAC18C 
 552      898160
 553 1817 C4EF8D5A 		.ascii	"\304\357\215Z\340\333V\2267j\230\253{\304WU\005\374"
 553      E0DB5696 
 553      376A98AB 
 553      7BC45755 
 553      05FC
 554 1829 545557FA 		.ascii	"TUW\372\201Y\007\336\272\2436\374~$\235\270\025\236"
 554      815907DE 
 554      BAA336FC 
 554      7E249DB8 
 554      159E
 555 183b 4A5011B0 		.ascii	"JP\021\260\342\363\347\222r\221\352\000\200d\026\025"
 555      E2F3E792 
 555      7291EA00 
 555      80641615 
 556 184b E5E58703 		.ascii	"\345\345\207\003\023\374\341\234D\352\351\2422\233{"
 556      13FCE19C 
 556      44EAE9A2 
 556      329B7B
 557 185a 78285499 		.ascii	"x(T\231\035\210\270\011\023\341\250\337\227\003\351"
 557      1D88B809 
 557      13E1A8DF 
 557      9703E9
 558 1869 EA70280A 		.ascii	"\352p(\012\034\371}\016o(\030\204T\226/\020\221\222"
 558      1CF97D0E 
 558      6F281884 
 558      54962F10 
 558      9192
 559 187b BFCE1D1F 		.ascii	"\277\316\035\037\011\347z\302U\017\006CA\377\203~\317"
 559      09E77AC2 
 559      550F0643 
 559      41FF837E 
 559      CF
 560 188c D840A2BA 		.ascii	"\330@\242\272\010\350&\030\205\3322\306\303\367CC\334"
 560      08E82618 
 560      85DA32C6 
 560      C3F74343 
 560      DC
 561 189d D187533C 		.ascii	"\321\207S<]\345\001\336\203\376\\\267\317_\356\031_"
 561      5DE501DE 
 561      83FE5CB7 
 561      CF5FEE19 
 561      5F
 562 18ae 19C5B688 		.ascii	"\031\305\266\210@\351,\267[.\357 \211\241\356h\246\230"
 562      40E92CB7 
 562      5B2EEF20 
 562      89A1EE68 
 562      A698
 563 18c0 05296BD8 		.ascii	"\005)k\330\357\361\331&\206\003Q\277529\350\375\275"
 563      EFF1D926 
 563      860351BF 
 563      353239E8 
 563      FDBD
 564 18d2 197D40DA 		.ascii	"\031}@\332\035\010\215\255\014y\237\207zz\014'\211|"
ARM GAS  /tmp/ccLgmrsb.s 			page 45


 564      1D088DAD 
 564      0C799F87 
 564      7A7A0C27 
 564      897C
 565 18e4 FF8480D7 		.ascii	"\377\204\200\327_\030,\017e\214\255|\336\215mF\022\301"
 565      5F182C0F 
 565      658CAD7C 
 565      DE8D6D46 
 565      12C1
 566 18f6 F15519E3 		.ascii	"\361U\031\343\374QPLy\3102\241*\232\005\231\221(\264"
 566      FC51504C 
 566      79C832A1 
 566      2A9A0599 
 566      9128B4
 567 1909 AC3B9A35 		.ascii	"\254;\2325|\364\223\356\247\212\013\213\013\3132H\262"
 567      7CF493EE 
 567      A78A0B8B 
 567      0BCB3248 
 567      B2
 568 191a B4AC640C 		.ascii	"\264\254d\014\346\015\313++|\272\240;I\346\225\024\027"
 568      E60DCB2B 
 568      2B7CBAA0 
 568      3B49E695 
 568      1417
 569 192c 17C06DF1 		.ascii	"\027\300m\361\310^\3446\277\260T\311\311$9\256\202a"
 569      C85EE436 
 569      BFB054C9 
 569      C92439AE 
 569      8261
 570 193e F9CF66CB 		.ascii	"\371\317f\313)\310\305\3643\256\30229]\372lq\036\244"
 570      29C8C5F4 
 570      33AEC232 
 570      395DFA6C 
 570      711EA4
 571 1951 6D58ABC5 		.ascii	"mX\253\305\033\360Y\274\021_\206\327S\355\361\006\242"
 571      1BF059BC 
 571      115F86D7 
 571      53EDF106 
 571      A2
 572 1962 93F38D08 		.ascii	"\223\363\215\010^\035\012G#\271\245eE\017\015\311\035"
 572      5E1D0A47 
 572      23B9A565 
 572      450F0DC9 
 572      1D
 573 1973 3D3A3FB7 		.ascii	"=:?\267tL\341\204\301\271`\022\356\312J\0371\013\310"
 573      744CE184 
 573      C1B96012 
 573      EECA4A1F 
 573      310BC8
 574 1986 108D6188 		.ascii	"\020\215a\210\031=\2126\225\005_\262F\000G\326\010I"
 574      193D8A36 
 574      95055FB2 
 574      460047D6 
 574      0849
 575 1998 128D106C 		.ascii	"\022\215\020lQJ\374\253\250\233\034\222\314+)\0323\272"
 575      514AFCAB 
 575      A89B1C92 
ARM GAS  /tmp/ccLgmrsb.s 			page 46


 575      CC2B291A 
 575      33BA
 576 19aa A0ACA01B 		.ascii	"\240\254\240\033\000x=\225\320?\274\317\273\243v\177"
 576      00783D95 
 576      D03FBCCF 
 576      BBA3767F 
 577 19ba D0E7F68E 		.ascii	"\320\347\366\216}\314H\177\316+*-,\005\271\300\344\252"
 577      7DCC487F 
 577      CE2B2A2D 
 577      2C05B9C0 
 577      E4AA
 578 19cc 1E1A523E 		.ascii	"\036\032R>x\320$\340'g\344\230\302\022w\031XQ\276\277"
 578      78D024E0 
 578      2767E498 
 578      C2127719 
 578      5851BEBF 
 579 19e0 DC92E71A 		.ascii	"\334\222\347\032\015\327(Ka\276\313R\222\357\262\016"
 579      0DD7284B 
 579      61BECB52 
 579      92EFB20E 
 580 19f0 2F75B92C 		.ascii	"/u\271,\303].\353\350\274']\005]Q\036\201\007\355U\203"
 580      C35D2EEB 
 580      E8BC275D 
 580      055D511E 
 580      8107ED55 
 581 1a05 1189DACB 		.ascii	"\021\211\332\313\012\204\3103\001\0370\037\211\220$"
 581      0A84C833 
 581      011F301F 
 581      899024
 582 1a14 1AFEE047 		.ascii	"\032\376\340G@!\242\301\222\244\015\376\344\201\266"
 582      4021A2C1 
 582      92A40DFE 
 582      E481B6
 583 1a23 0B0F261A 		.ascii	"\013\017&\032\311\013\005\313\003\343\354^\374J\353"
 583      C90B05CB 
 583      03E3EC5E 
 583      FC4AEB
 584 1a32 F9C2D184 		.ascii	"\371\302\321\204\316\275\025\221\311\021\271\213dD+"
 584      CEBD1591 
 584      C911B98B 
 584      64442B
 585 1a41 483F808E 		.ascii	"H?\200\216\341\255p\213\351\207\315ay+\210\004\366j"
 585      E1AD708B 
 585      E987CD61 
 585      792B8804 
 585      F66A
 586 1a53 7710F409 		.ascii	"w\020\364\011_\325a\377\204Q\006 D\245\014s\025\345"
 586      5FD561FF 
 586      84510620 
 586      44A50C73 
 586      15E5
 587 1a65 154D8227 		.ascii	"\025M\202'\253\252\003\225\376p$wd^\036<.\263\347\210"
 587      ABAA0395 
 587      FE702477 
 587      645E1E3C 
 587      2EB3E788 
 588 1a79 56870321 		.ascii	"V\207\003!\267\210\033\010\0217\022\205j\3226m\022~"
ARM GAS  /tmp/ccLgmrsb.s 			page 47


 588      B7881B08 
 588      11371285 
 588      6AD2366D 
 588      127E
 589 1a8b 85371426 		.ascii	"\2057\024&>0\233dCW\214z\243\223\376\243k(\356\011\217"
 589      3E309B64 
 589      43578C7A 
 589      A393FEA3 
 589      6B28EE09 
 590 1aa0 5611CD85 		.ascii	"V\021\315\205\375\343\300\037\271\243B\370a!\374;!\374"
 590      FDE3C01F 
 590      B9A342F8 
 590      6121FC3B 
 590      21FC
 591 1ab2 88107E54 		.ascii	"\210\020~T\010\017\025\302\217Y\302\203\007\3015X\250"
 591      080F15C2 
 591      8F59C283 
 591      07C13558 
 591      A8
 592 1ac3 0CC3D743 		.ascii	"\014\303\327C\266j7\324\346 \032\232\350\017\303w\250"
 592      B66A37D4 
 592      E6201A9A 
 592      E80FC377 
 592      A8
 593 1ad4 D2E70F13 		.ascii	"\322\347\017\023\215y\252\374\031Q\311\362!\037S\216"
 593      8D79AAFC 
 593      1951C9F2 
 593      211F538E 
 594 1ae4 6855C827 		.ascii	"hU\310'\336\2231#\342\210\206\375d|\201\347I\302V\025"
 594      DE933123 
 594      E28886FD 
 594      647C81E7 
 594      49C25615 
 595 1af8 19077F94 		.ascii	"\031\007\177\224\334\032\2703)e\017\373&\303\2372\374"
 595      DC1AB833 
 595      29650FFB 
 595      26C39F32 
 595      FC
 596 1b09 93025190 		.ascii	"\223\002Q\220\310o\237\030\015\215\375su\266\177\002"
 596      C86F9F18 
 596      0D8DFD73 
 596      75B67F02 
 597 1b19 8C20559E 		.ascii	"\214 U\236\010\366\213\211$a\251v\217\357.6u\304]\011"
 597      08F68B89 
 597      2461A976 
 597      8FEF2E36 
 597      75C45D09 
 598 1b2d 1DCF1DED 		.ascii	"\035\317\035\355\221h|1'\263\332=\321\023\210\006\202"
 598      91687C31 
 598      27B3DA3D 
 598      D1138806 
 598      82
 599 1b3e E37AC8D9 		.ascii	"\343z\310\331/\214\367\217\007\256zRObVV\265\033\252"
 599      2F8CF78F 
 599      07AE7A52 
 599      4F625656 
 599      B51BAA
ARM GAS  /tmp/ccLgmrsb.s 			page 48


 600 1b51 C5A40D93 		.ascii	"\305\244\015\223\220\341\257\206\036\010\205mU\343\241"
 600      90E1AF86 
 600      1E08856D 
 600      55E3A1
 601 1b60 B5D28EAB 		.ascii	"\265\322\216\253*{\252\212\222\036\350\250\022\321\341"
 601      2A7BAA8A 
 601      921EE8A8 
 601      12D1E1
 602 1b6f 3B343108 		.ascii	";41\010JC$\020\241\012\315\014\370\203\347\010\247Y"
 602      4A432410 
 602      A10ACD0C 
 602      F883E708 
 602      A759
 603 1b81 442B9E4A 		.ascii	"D+\236J4\016\310\254\206A\350QS\365I\302@\235\275\245"
 603      340EC8AC 
 603      8641E851 
 603      53F549C2 
 603      409DBDA5 
 604 1b95 AE005AF6 		.ascii	"\256\000Z\366\207\375A/Hk\027\263\262\211\257Q\334\301"
 604      87FD412F 
 604      486B17B3 
 604      B289AF51 
 604      DCC1
 605 1ba7 E04C5741 		.ascii	"\340LWAi\201\353\351\202\374Ap7$q7X(u%n\206\010\371"
 605      6981EBE9 
 605      82FC4170 
 605      37247137 
 605      58287525 
 606 1bbf CACD43B6 		.ascii	"\312\315C\266<W\336\030\345\376a\273\353\217\220\243"
 606      3C57DE18 
 606      E5FE61BB 
 606      EB8F90A3 
 607 1bcf 64FCCE5E 		.ascii	"d\374\316^\246\316x\304Q8\2444o\304H%\347Q\033\344P"
 607      A6CE78C4 
 607      5138A434 
 607      6FC44825 
 607      E7511BE4 
 608 1be4 18432DE0 		.ascii	"\030C-\340\364F\230u?HG\014\2364Itxn_\225\007D\357\223"
 608      F4469875 
 608      3F48470C 
 608      9E344974 
 608      786E5F95 
 609 1bfc 5F34CC9D 		.ascii	"_4\314\235W\341\201\201\271R\0214\317e\313+\316/sY\363"
 609      57E18181 
 609      B9521134 
 609      CF65CB2B 
 609      CE2F7359 
 610 1c11 C60C0352 		.ascii	"\306\014\003R4\314\345\360\212\317X\003\345\336\260"
 610      34CCE5F0 
 610      8ACF5803 
 610      E5DEB0
 611 1c20 3D10A908 		.ascii	"=\020\251\010\224G3#\376\312\362@\320\347\237d\237\000"
 611      94473323 
 611      FECAF240 
 611      D0E79F64 
 611      9F00
 612 1c32 C37A28DC 		.ascii	"\303z(\334;\201\014\006\015\352\203.b\203\233\360$B"
ARM GAS  /tmp/ccLgmrsb.s 			page 49


 612      3B810C06 
 612      0DEA832E 
 612      62839BF0 
 612      2442
 613 1c44 A39332C3 		.ascii	"\243\2232\303\223\340\233\330xfTNYA\224j[e\304[>\316"
 613      93E09BD8 
 613      7866544E 
 613      5941946A 
 613      5B65C45B 
 614 1c5a 56412889 		.ascii	"VA(\2112D\007\327\003\007Y\267\307\347\013\373#\021"
 614      324407D7 
 614      030759B7 
 614      C7E70BFB 
 614      2311
 615 1c6c 7FC40AA1 		.ascii	"\177\304\012\241\210\217<\357s\224\203\307\000W\226"
 615      888F3CEF 
 615      739483C7 
 615      005796
 616 1c7b 01392E68 		.ascii	"\0019.h\245\311\020\206\341w7\022\021U\206\306\211\261"
 616      A5C91086 
 616      E1773712 
 616      115586C6 
 616      89B1
 617 1c8d 5D8E7207 		.ascii	"]\216r\007\336T\271\261D|^\007$\307x\242\0259>2t\025"
 617      DE54B9B1 
 617      447C5E07 
 617      24C778A2 
 617      15393E32 
 618 1ca3 85C68377 		.ascii	"\205\306\203w\361\331\203\010L\243x9\273\0304d`\177"
 618      F1D98308 
 618      4CA37839 
 618      BB183464 
 618      607F
 619 1cb5 237104FC 		.ascii	"#q\004\374\205<\006]QJYIo\266K\330#\012G\013\345\021"
 619      853C065D 
 619      514A5949 
 619      6FB64BD8 
 619      230A470B 
 620 1ccb 2BE9C016 		.ascii	"+\351\300\026\1778l-\257\216\206\355\021\014\353l\""
 620      7F386C2D 
 620      AF8E86ED 
 620      110CEB6C 
 620      22
 621 1cdc F591502D 		.ascii	"\365\221P-\003b87I\220`\316\015\317X\306\216/\267\022"
 621      03623837 
 621      499060CE 
 621      0DCF58C6 
 621      8E2FB712 
 622 1cf0 B45E126A 		.ascii	"\264^\022j\261\177\342\300jO8:p\220\005r\356\"<\215"
 622      B17FE2C0 
 622      6A4F383A 
 622      70900572 
 622      EE223C8D 
 623 1d04 C62A0A83 		.ascii	"\306*\012\203\320?=\225\020d\010\021_w%\2774\032\252"
 623      D03F3D95 
 623      10640811 
 623      5F7725BF 
ARM GAS  /tmp/ccLgmrsb.s 			page 50


 623      341AAA
 624 1d17 CE520A0F 		.ascii	"\316R\012\017\301\270\251206w\234\327\313\304O\017\017"
 624      C1B8A932 
 624      3036779C 
 624      D7CBC44F 
 624      0F0F
 625 1d29 1C3AF061 		.ascii	"\034:\360a:\346\202\370\211\270r\022\271\270\243\331"
 625      3AE682F8 
 625      89B87212 
 625      B9B8A3D9 
 626 1d39 124829DC 		.ascii	"\022H)\334\345H\351gH\264d\257\364\007\307E+z\320yy"
 626      E548E967 
 626      48B464AF 
 626      F407C745 
 626      2B7AD079 
 627 1d4e 910936F8 		.ascii	"\221\0116\370\252\212\2005\000\273\0360\003{\0203\344"
 627      AA8A8035 
 627      00BB1E30 
 627      037B1033 
 627      E4
 628 1d5f A2799521 		.ascii	"\242y\225!\010QG\200\365>5\272\3146\302\345.y2\033("
 628      08514780 
 628      F53E35BA 
 628      CC36C2E5 
 628      2E79321B 
 629 1d74 84334FBA 		.ascii	"\2043O\272\013\\\256,H\027\026\227\221d\016$\213K\312"
 629      0B5CAE2C 
 629      48171697 
 629      91640E24 
 629      8B4BCA
 630 1d87 A4111F6F 		.ascii	"\244\021\037o\334\240\317\002)9fX\331\250\036\370\364"
 630      DCA0CF02 
 630      29396658 
 630      D9A81EF8 
 630      F4
 631 1d98 D3C34617 		.ascii	"\323\303F\027\346\273\213\207\025\025d\022\244\202\342"
 631      E6BB8B87 
 631      15156412 
 631      A482E2
 632 1da7 C282FC0C 		.ascii	"\302\202\374\014H\025\374\261\260\264\254\027\365H\311"
 632      4815FCB1 
 632      B0B4AC17 
 632      F548C9
 633 1db6 F0FF8478 		.ascii	"\360\377\204x\2517\344\220\250\250\300=\306UR\006\031"
 633      A937E490 
 633      A8A8C03D 
 633      C6555206 
 633      19
 634 1dc7 05F93DA9 		.ascii	"\005\371=\251\207\362]$\342\222\352.(\0366|\264\370"
 634      87F25D24 
 634      E292EA2E 
 634      281E367C 
 634      B4F8
 635 1dd9 77A9F6D2 		.ascii	"w\251\366\322gK\313\012\212H\305EO\216(u\017\033^\342"
 635      674BCB0A 
 635      8A48C545 
 635      4F8E2875 
ARM GAS  /tmp/ccLgmrsb.s 			page 51


 635      0F1B5EE2 
 636 1ded 0200C253 		.ascii	"\002\000\302SYaQA\311Se\204\207\321%yO\026\344\367N"
 636      59615141 
 636      C9536584 
 636      87D12579 
 636      4F16E4F7 
 637 1e02 80943C35 		.ascii	"\200\224<5r\024\004)\256\202\276\344\271\222\022w\321"
 637      72140429 
 637      AE82BEE4 
 637      B9921277 
 637      D1
 638 1e13 B0E267DD 		.ascii	"\260\342g\335%c\012\212E\314\273\250\372\241\217\201"
 638      25630A8A 
 638      45CCBBA8 
 638      FAA18F81 
 639 1e23 2465052E 		.ascii	"$e\005.{\271;\004\016\324Q\356\256\"\006\231\205\321"
 639      7BB93B04 
 639      0ED451EE 
 639      AE220699 
 639      85D1
 640 1e35 FA487F94 		.ascii	"\372H\177\224\3143`f@\324\010m\030\034_Y\371\177-O\277"
 640      CC336066 
 640      40D4086D 
 640      181C5F59 
 640      F97F2D4F 
 641 1e4a A9       		.ascii	"\251"
 642              		.text
 643              		.section	.gnu.lto_.symtab.6c9cd2ad4a75eda6,"",%progbits
 644 0000 64617461 		.ascii	"dataLoggerInitialize\000\000\000\000\000\000\000\000"
 644      4C6F6767 
 644      6572496E 
 644      69746961 
 644      6C697A65 
 645 001c 00000000 		.ascii	"\000\000\000\000\351\002\000\000dataLoggerStop\000\000"
 645      E9020000 
 645      64617461 
 645      4C6F6767 
 645      65725374 
 646 0034 00000000 		.ascii	"\000\000\000\000\000\000\000\000\000\000\364\002\000"
 646      00000000 
 646      0000F402 
 646      00
 647 0041 006C6F67 		.ascii	"\000logfileNew\000\000\000\000\000\000\000\000\000\000"
 647      66696C65 
 647      4E657700 
 647      00000000 
 647      00000000 
 648 0056 0000FA02 		.ascii	"\000\000\372\002\000\000logfileSize\000\000\000\000"
 648      00006C6F 
 648      6766696C 
 648      6553697A 
 648      65000000 
 649 006b 00000000 		.ascii	"\000\000\000\000\000\000\000\000\002\003\000\000log"
 649      00000000 
 649      02030000 
 649      6C6F67
 650 007a 66696C65 		.ascii	"fileWrite\000\000\000\000\000\000\000\000\000\000\000"
ARM GAS  /tmp/ccLgmrsb.s 			page 52


 650      57726974 
 650      65000000 
 650      00000000 
 650      00000000 
 651 008e 000B0300 		.ascii	"\000\013\003\000\000logfileWriteCsv\000\000\000\000"
 651      006C6F67 
 651      66696C65 
 651      57726974 
 651      65437376 
 652 00a6 00000000 		.ascii	"\000\000\000\000\000\000\000\000\026\003\000\000log"
 652      00000000 
 652      16030000 
 652      6C6F67
 653 00b5 66696C65 		.ascii	"fileClose\000\000\000\000\000\000\000\000\000\000\000"
 653      436C6F73 
 653      65000000 
 653      00000000 
 653      00000000 
 654 00c9 00260300 		.ascii	"\000&\003\000\000f_open\000\000\002\000\000\000\000"
 654      00665F6F 
 654      70656E00 
 654      00020000 
 654      0000
 655 00db 00000000 		.ascii	"\000\000\000\000\000,\003\000\000f_mount\000\000\002"
 655      002C0300 
 655      00665F6D 
 655      6F756E74 
 655      000002
 656 00ee 00000000 		.ascii	"\000\000\000\000\000\000\000\000\000_\003\000\000sd"
 656      00000000 
 656      005F0300 
 656      007364
 657 00fd 6D6D6347 		.ascii	"mmcGetFS\000\000\002\000\000\000\000\000\000\000\000"
 657      65744653 
 657      00000200 
 657      00000000 
 657      000000
 658 0110 00650300 		.ascii	"\000e\003\000\000f_close\000\000\002\000\000\000\000"
 658      00665F63 
 658      6C6F7365 
 658      00000200 
 658      000000
 659 0123 00000000 		.ascii	"\000\000\000\000\000j\003\000\000"
 659      006A0300 
 659      00
 660              		.text
 661              		.section	.gnu.lto_.opts,"",%progbits
 662 0000 272D6D63 		.ascii	"'-mcpu=cortex-m3' '-mno-thumb-interwork' '-mthumb' "
 662      70753D63 
 662      6F727465 
 662      782D6D33 
 662      2720272D 
 663 0033 272D4F32 		.ascii	"'-O2' '-fomit-frame-pointer' '-falign-functions=16'"
 663      2720272D 
 663      666F6D69 
 663      742D6672 
 663      616D652D 
ARM GAS  /tmp/ccLgmrsb.s 			page 53


 664 0066 20272D66 		.ascii	" '-ffunction-sections' '-fdata-sections' '-fno-comm"
 664      66756E63 
 664      74696F6E 
 664      2D736563 
 664      74696F6E 
 665 0099 6F6E2720 		.ascii	"on' '-flto'\000"
 665      272D666C 
 665      746F2700 
 666              		.text
 667              		.section	.text.dataLoggerInitialize,"ax",%progbits
 668              		.align	2
 669              		.p2align 4,,15
 670              		.global	dataLoggerInitialize
 671              		.thumb
 672              		.thumb_func
 673              		.type	dataLoggerInitialize, %function
 674              	dataLoggerInitialize:
 675              		@ args = 0, pretend = 0, frame = 0
 676              		@ frame_needed = 0, uses_anonymous_args = 0
 677 0000 38B5     		push	{r3, r4, r5, lr}
 678 0002 0546     		mov	r5, r0
 679 0004 0C46     		mov	r4, r1
 680 0006 92B1     		cbz	r2, .L4
 681 0008 88B1     		cbz	r0, .L4
 682 000a 0A4B     		ldr	r3, .L11
 683 000c 0260     		str	r2, [r0]
 684 000e 1046     		mov	r0, r2
 685 0010 0029     		cmp	r1, #0
 686 0012 08BF     		it	eq
 687 0014 1C46     		moveq	r4, r3
 688 0016 FFF7FEFF 		bl	sdmmcGetFS
 689 001a AC60     		str	r4, [r5, #8]
 690 001c 6860     		str	r0, [r5, #4]
 691 001e 2146     		mov	r1, r4
 692 0020 0022     		movs	r2, #0
 693 0022 FFF7FEFF 		bl	f_mount
 694 0026 10B9     		cbnz	r0, .L4
 695 0028 0120     		movs	r0, #1
 696 002a 2873     		strb	r0, [r5, #12]
 697 002c 38BD     		pop	{r3, r4, r5, pc}
 698              	.L4:
 699 002e 0020     		movs	r0, #0
 700 0030 38BD     		pop	{r3, r4, r5, pc}
 701              	.L12:
 702 0032 00BF     		.align	2
 703              	.L11:
 704 0034 00000000 		.word	.LC0
 705              		.size	dataLoggerInitialize, .-dataLoggerInitialize
 706 0038 AFF30080 		.section	.text.dataLoggerStop,"ax",%progbits
 706      AFF30080 
 707              		.align	2
 708              		.p2align 4,,15
 709              		.global	dataLoggerStop
 710              		.thumb
 711              		.thumb_func
 712              		.type	dataLoggerStop, %function
 713              	dataLoggerStop:
ARM GAS  /tmp/ccLgmrsb.s 			page 54


 714              		@ args = 0, pretend = 0, frame = 0
 715              		@ frame_needed = 0, uses_anonymous_args = 0
 716 0000 10B5     		push	{r4, lr}
 717 0002 0446     		mov	r4, r0
 718 0004 0020     		movs	r0, #0
 719 0006 0146     		mov	r1, r0
 720 0008 0246     		mov	r2, r0
 721 000a FFF7FEFF 		bl	f_mount
 722 000e 0020     		movs	r0, #0
 723 0010 2073     		strb	r0, [r4, #12]
 724 0012 10BD     		pop	{r4, pc}
 725              		.size	dataLoggerStop, .-dataLoggerStop
 726 0014 AFF30080 		.section	.text.logfileNew,"ax",%progbits
 726      AFF30080 
 726      AFF30080 
 727              		.align	2
 728              		.p2align 4,,15
 729              		.global	logfileNew
 730              		.thumb
 731              		.thumb_func
 732              		.type	logfileNew, %function
 733              	logfileNew:
 734              		@ args = 0, pretend = 0, frame = 0
 735              		@ frame_needed = 0, uses_anonymous_args = 0
 736 0000 08B5     		push	{r3, lr}
 737 0002 0B7B     		ldrb	r3, [r1, #12]	@ zero_extendqisi2
 738 0004 13B9     		cbnz	r3, .L19
 739 0006 1846     		mov	r0, r3
 740              	.L15:
 741 0008 40B2     		sxtb	r0, r0
 742 000a 08BD     		pop	{r3, pc}
 743              	.L19:
 744 000c C068     		ldr	r0, [r0, #12]
 745 000e 0449     		ldr	r1, .L20
 746 0010 0A22     		movs	r2, #10
 747 0012 FFF7FEFF 		bl	f_open
 748 0016 0028     		cmp	r0, #0
 749 0018 F6D0     		beq	.L15
 750 001a C0B2     		uxtb	r0, r0
 751 001c 40B2     		sxtb	r0, r0
 752 001e 08BD     		pop	{r3, pc}
 753              	.L21:
 754              		.align	2
 755              	.L20:
 756 0020 04000000 		.word	.LC1
 757              		.size	logfileNew, .-logfileNew
 758 0024 AFF30080 		.section	.text.logfileSize,"ax",%progbits
 758      AFF30080 
 758      AFF30080 
 759              		.align	2
 760              		.p2align 4,,15
 761              		.global	logfileSize
 762              		.thumb
 763              		.thumb_func
 764              		.type	logfileSize, %function
 765              	logfileSize:
 766              		@ args = 0, pretend = 0, frame = 0
ARM GAS  /tmp/ccLgmrsb.s 			page 55


 767              		@ frame_needed = 0, uses_anonymous_args = 0
 768              		@ link register save eliminated.
 769 0000 0020     		movs	r0, #0
 770 0002 7047     		bx	lr
 771              		.size	logfileSize, .-logfileSize
 772 0004 AFF30080 		.section	.text.logfileWrite,"ax",%progbits
 772      AFF30080 
 772      AFF30080 
 773              		.align	2
 774              		.p2align 4,,15
 775              		.global	logfileWrite
 776              		.thumb
 777              		.thumb_func
 778              		.type	logfileWrite, %function
 779              	logfileWrite:
 780              		@ args = 0, pretend = 0, frame = 8
 781              		@ frame_needed = 0, uses_anonymous_args = 0
 782 0000 10B5     		push	{r4, lr}
 783 0002 82B0     		sub	sp, sp, #8
 784 0004 C068     		ldr	r0, [r0, #12]
 785 0006 01AB     		add	r3, sp, #4
 786 0008 1446     		mov	r4, r2
 787 000a FFF7FEFF 		bl	fwrite
 788 000e 10F0FF0F 		tst	r0, #255
 789 0012 05D1     		bne	.L25
 790 0014 0198     		ldr	r0, [sp, #4]
 791 0016 201A     		subs	r0, r4, r0
 792 0018 18BF     		it	ne
 793 001a 0120     		movne	r0, #1
 794 001c 02B0     		add	sp, sp, #8
 795              		@ sp needed
 796 001e 10BD     		pop	{r4, pc}
 797              	.L25:
 798 0020 0120     		movs	r0, #1
 799 0022 02B0     		add	sp, sp, #8
 800              		@ sp needed
 801 0024 10BD     		pop	{r4, pc}
 802              		.size	logfileWrite, .-logfileWrite
 803 0026 00BFAFF3 		.section	.text.logfileWriteCsv,"ax",%progbits
 803      0080AFF3 
 803      0080
 804              		.align	2
 805              		.p2align 4,,15
 806              		.global	logfileWriteCsv
 807              		.thumb
 808              		.thumb_func
 809              		.type	logfileWriteCsv, %function
 810              	logfileWriteCsv:
 811              		@ args = 0, pretend = 0, frame = 0
 812              		@ frame_needed = 0, uses_anonymous_args = 0
 813              		@ link register save eliminated.
 814 0000 0020     		movs	r0, #0
 815 0002 7047     		bx	lr
 816              		.size	logfileWriteCsv, .-logfileWriteCsv
 817 0004 AFF30080 		.section	.text.logfileClose,"ax",%progbits
 817      AFF30080 
 817      AFF30080 
ARM GAS  /tmp/ccLgmrsb.s 			page 56


 818              		.align	2
 819              		.p2align 4,,15
 820              		.global	logfileClose
 821              		.thumb
 822              		.thumb_func
 823              		.type	logfileClose, %function
 824              	logfileClose:
 825              		@ args = 0, pretend = 0, frame = 0
 826              		@ frame_needed = 0, uses_anonymous_args = 0
 827 0000 08B5     		push	{r3, lr}
 828 0002 C068     		ldr	r0, [r0, #12]
 829 0004 FFF7FEFF 		bl	f_close
 830 0008 0030     		adds	r0, r0, #0
 831 000a 18BF     		it	ne
 832 000c 0120     		movne	r0, #1
 833 000e 08BD     		pop	{r3, pc}
 834              		.size	logfileClose, .-logfileClose
 835              		.section	.rodata.str1.4,"aMS",%progbits,1
 836              		.align	2
 837              	.LC0:
 838 0000 303A00   		.ascii	"0:\000"
 839 0003 00       		.space	1
 840              	.LC1:
 841 0004 303A7465 		.ascii	"0:testfile.txt\000"
 841      73746669 
 841      6C652E74 
 841      787400
 842              		.comm	__gnu_lto_v1,1,1
 843 0013 00       		.ident	"GCC: (GNU Tools for ARM Embedded Processors) 4.8.4 20140526 (release) [ARM/embedded-4_8-br
ARM GAS  /tmp/ccLgmrsb.s 			page 57


DEFINED SYMBOLS
                            *ABS*:0000000000000000 datalogger.c
     /tmp/ccLgmrsb.s:668    .text.dataLoggerInitialize:0000000000000000 $t
     /tmp/ccLgmrsb.s:674    .text.dataLoggerInitialize:0000000000000000 dataLoggerInitialize
     /tmp/ccLgmrsb.s:704    .text.dataLoggerInitialize:0000000000000034 $d
     /tmp/ccLgmrsb.s:707    .text.dataLoggerStop:0000000000000000 $t
     /tmp/ccLgmrsb.s:713    .text.dataLoggerStop:0000000000000000 dataLoggerStop
     /tmp/ccLgmrsb.s:727    .text.logfileNew:0000000000000000 $t
     /tmp/ccLgmrsb.s:733    .text.logfileNew:0000000000000000 logfileNew
     /tmp/ccLgmrsb.s:756    .text.logfileNew:0000000000000020 $d
     /tmp/ccLgmrsb.s:759    .text.logfileSize:0000000000000000 $t
     /tmp/ccLgmrsb.s:765    .text.logfileSize:0000000000000000 logfileSize
     /tmp/ccLgmrsb.s:773    .text.logfileWrite:0000000000000000 $t
     /tmp/ccLgmrsb.s:779    .text.logfileWrite:0000000000000000 logfileWrite
     /tmp/ccLgmrsb.s:804    .text.logfileWriteCsv:0000000000000000 $t
     /tmp/ccLgmrsb.s:810    .text.logfileWriteCsv:0000000000000000 logfileWriteCsv
     /tmp/ccLgmrsb.s:818    .text.logfileClose:0000000000000000 $t
     /tmp/ccLgmrsb.s:824    .text.logfileClose:0000000000000000 logfileClose
     /tmp/ccLgmrsb.s:836    .rodata.str1.4:0000000000000000 $d
                            *COM*:0000000000000001 __gnu_lto_v1
     /tmp/ccLgmrsb.s:706    .text.dataLoggerInitialize:0000000000000038 $t
     /tmp/ccLgmrsb.s:758    .text.logfileNew:0000000000000024 $t

UNDEFINED SYMBOLS
sdmmcGetFS
f_mount
f_open
fwrite
f_close
