ARM GAS  /tmp/ccAPbLn4.s 			page 1


   1              		.syntax unified
   2              		.cpu cortex-m3
   3              		.fpu softvfp
   4              		.eabi_attribute 20, 1
   5              		.eabi_attribute 21, 1
   6              		.eabi_attribute 23, 3
   7              		.eabi_attribute 24, 1
   8              		.eabi_attribute 25, 1
   9              		.eabi_attribute 26, 1
  10              		.eabi_attribute 30, 2
  11              		.eabi_attribute 34, 1
  12              		.eabi_attribute 18, 4
  13              		.thumb
  14              		.file	"datalogger.c"
  15              		.section	.gnu.lto_.jmpfuncs.cb37a3282586a0b5,"",%progbits
  16 0000 789C7D90 		.ascii	"x\234}\220\261N\3030\020\206\357\354\264i\002Uy\202"
  16      B14EC330 
  16      1086EFEC 
  16      B4690255 
  16      7982
  17 0012 C842622B 		.ascii	"\310Bb+\264\352\210\204DEC\031\012H\201\201\011)\002"
  17      B4EA8884 
  17      44454319 
  17      0A488181 
  17      092902
  18 0025 13452A4D 		.ascii	"\023E*M\345\230\002b\311\0230w\341\031x\026^\207\011"
  18      E5980262 
  18      C9133077 
  18      E1197816 
  18      5E8709
  19 0038 DB498811 		.ascii	"\333I\210\021\210,\276\370\377\374\335\331\004\010\374"
  19      882CBEF8 
  19      FFFCDDD9 
  19      0408FC
  20 0047 F59D20C0 		.ascii	"\365\235 \300\207Z=\240\252\242T\225+\265\002\340J\307"
  20      875A3DA0 
  20      AAA25495 
  20      2BB502E0 
  20      4AC7
  21 0059 EA10B9C2 		.ascii	"\352\020\271\302\024u\215\224V\373\344\005>\213u\261"
  21      14758D94 
  21      56FBE405 
  21      3E8B75B1 
  22 0069 95220680 		.ascii	"\225\"\006\200o\305\3720\305Ro`\352\033CC9\001\364J"
  22      6FC5FA30 
  22      C5526F60 
  22      EA1B4343 
  22      3901F44A 
  23 007d AA55B5A5 		.ascii	"\252U\265\245=b\003\355\000\016J\300-c;\354\004p]\206"
  23      3D6203ED 
  23      000E4AC0 
  23      2D633BEC 
  23      04705D86 
  24 0091 5E7DBA69 		.ascii	"^}\272i\205z.\365\243\246r\220\232=\277\0167\276\251"
  24      857A2EF5 
  24      A3A67290 
  24      9A3DBF0E 
ARM GAS  /tmp/ccAPbLn4.s 			page 2


  24      37BEA9
  25 00a4 EA2676BF 		.ascii	"\352&v\277W\264\033\266\\\322\\]\313~\340\233\001\274"
  25      57B41BB6 
  25      5CD25C5D 
  25      CB7EE09B 
  25      01BC
  26 00b6 5778D7E0 		.ascii	"Wx\327\340mp]\247z&\3636\320\001\017u\325\035H\236\313"
  26      6D705DA7 
  26      7A26F336 
  26      D0010F75 
  26      D51D489E 
  27 00cb 5996ECC9 		.ascii	"Y\226\354\311'\011\273\223\361\345xv>\235\206\321>\013"
  27      2709BB93 
  27      F1E57876 
  27      3E9D86D1 
  27      3E0B
  28 00dd 85C804BB 		.ascii	"\205\310\004\273\021<\226\351\"a\212\271K\347\274\317"
  28      113C96E9 
  28      22618AB9 
  28      4BE7BCCF 
  29 00ed C228DA19 		.ascii	"\302(\332\031\216n}`6=\211e<\317\222\204\013v!c!\271"
  29      8E6E7D60 
  29      363D8965 
  29      3CCF9284 
  29      0B762163 
  30 0103 0206BF75 		.ascii	"\002\006\277u\247\331\303\302\350\216\225+\177\316%"
  30      A7D9C3C2 
  30      E88E952B 
  30      7FCE25
  31 0112 BFEF6BE1 		.ascii	"\277\357k\341h\370\2570[.\265p\333\006\216\352\311\316"
  31      68F8AF30 
  31      5B2EB570 
  31      DB068EEA 
  31      C9CE
  32 0124 F8633D9D 		.ascii	"\370c=\235\017_9\027q3"
  32      0F5F3917 
  32      7133
  33              		.text
  34              		.section	.gnu.lto_.inline.cb37a3282586a0b5,"",%progbits
  35 0000 789C6D50 		.ascii	"x\234mP;N\303@\024\234\367\366\305\273\206\340\204\206"
  35      3B4EC340 
  35      149CF7F6 
  35      C5BB86E0 
  35      8486
  36 0012 042928A1 		.ascii	"\004)(\241\242JK\303\021\220RS\322an\3412eDM\221CPp"
  36      A24A4BC3 
  36      11905253 
  36      D2616EE1 
  36      3265444D 
  37 002a 03AEC011 		.ascii	"\003\256\300\021(8\002\005\357\203-\020\361\312ogwG"
  37      28380205 
  37      EF832D10 
  37      F1CA6F67 
  37      7747
  38 003c A3996130 		.ascii	"\243\231a0\016}o\024{\0159^\300I\325~9p\011\243\006"
  38      0E7D6F14 
  38      7B0D395E 
ARM GAS  /tmp/ccAPbLn4.s 			page 3


  38      C049D57E 
  38      397009A3 
  39 0051 48BB8DAD 		.ascii	"H\273\215\2554v\002a:'p~Z#o\257\234\372C\002\344$\200"
  39      34760261 
  39      3A27707E 
  39      5A236FAF 
  39      9CFA4302 
  40 0068 9271B9A6 		.ascii	"\222q\271\246\232\037\356\350\221\364\025\334\366\010"
  40      9A1FEEE8 
  40      91F415DC 
  40      F608
  41 0076 7E3731D4 		.ascii	"~71\324\366\210\374nj\250\355\021S8\320\337F\356\255"
  41      F688FC6E 
  41      6AA8ED11 
  41      5338D0DF 
  41      46EEAD
  42 0089 C97ED9E9 		.ascii	"\311~\331\351\334.:)h^nW\005\362|\336\025\333\277\346"
  42      DC2E3A29 
  42      685E6E57 
  42      05F27CDE 
  42      15DBBFE6 
  43 009d ABE28ED4 		.ascii	"\253\342\216\324\253\236Y\255\250%EaJ}\006\326S0h\267"
  43      AB9E59AD 
  43      A8254561 
  43      4A7D06D6 
  43      533068B7 
  44 00b1 118C2F34 		.ascii	"\021\214/4Oz\235\015y<F\250\270\306\010\315\314\"\277"
  44      4F7A9D0D 
  44      793C46A8 
  44      B8C608CD 
  44      CC22BF
  45 00c4 5FFFA1F0 		.ascii	"_\377\241\360\320\212r*$u\374\273\300,\2233bK\220\356"
  45      D08A722A 
  45      2475FCBB 
  45      C02C9333 
  45      624B90EE 
  46 00d8 3D8C1C7D 		.ascii	"=\214\034}\336\304+}d\211i\304J+\220\350\030\345\237"
  46      DEC42B7D 
  46      648969C4 
  46      4A2B90E8 
  46      18E59F
  47 00eb 4C8DFA54 		.ascii	"L\215\372T\033p\031\321\360\207\024\314\204F\3017\275"
  47      1B7019D1 
  47      F08714CC 
  47      8446C137 
  47      BD
  48 00fc 213343   		.ascii	"!3C"
  49              		.text
  50              		.section	.gnu.lto_.pureconst.cb37a3282586a0b5,"",%progbits
  51 0000 789C6362 		.ascii	"x\234cb`b\020f\200\000N\006\011F)f)\026)VI6\006vI\016"
  51      60621066 
  51      80004E06 
  51      09462966 
  51      29162956 
  52 001a 064E4900 		.ascii	"\006NI\000\013p\000\375"
  52      0B7000FD 
  53              		.text
ARM GAS  /tmp/ccAPbLn4.s 			page 4


  54              		.section	.gnu.lto_chprintf.cb37a3282586a0b5,"",%progbits
  55 0000 789C8550 		.ascii	"x\234\205P\315J\002Q\024>\337\0355uc\333v\342\0034\213"
  55      CD4A0251 
  55      143EDF1D 
  55      357563DB 
  55      76E20334 
  56 0015 22E80D7A 		.ascii	"\"\350\015z\000\203Z\3058\216z\011\035\321Q\260\026"
  56      00835AC5 
  56      388E7A09 
  56      1DD151B0 
  56      16
  57 0026 5EC1C245 		.ascii	"^\301\302E\013ig\021)\321:\244\027\030\202\332DI\273"
  57      0B696711 
  57      29D13AA4 
  57      171882DA 
  57      4449BB
  58 0039 162D2497 		.ascii	"\026-$\227\265h\321*\202\351\336\031\024\372\201\016"
  58      B568D12A 
  58      82E9DE19 
  58      14FA810E 
  59 0049 DC7B7EBE 		.ascii	"\334{~\276s\276\363\303\210\321OY\220o\010\2425\251"
  59      73BEF3C3 
  59      88D14F59 
  59      906F08A2 
  59      35A9
  60 005b A11158F7 		.ascii	"\241\021X\367\236\250\025e\2002\010\324dhnB\245\262"
  60      9EA81565 
  60      803208D4 
  60      64686E42 
  60      A5B2
  61 006d 140D84DB 		.ascii	"\024\015\204\333\035_O\036\321\023n\273/>=\017\340\220"
  61      1D5F4F1E 
  61      D1136EBB 
  61      2F3E3D0F 
  61      E090
  62 007f B42B2013 		.ascii	"\264+ \023\264!\035$}\305B\337\373\250Z\321uOon!\016"
  62      B4211D24 
  62      7DC542DF 
  62      FBA85AD1 
  62      754F6F6E 
  63 0095 45EBCDF3 		.ascii	"E\353\315\363\022\034\032\243\325\377\012/\230\373\354"
  63      121C1AA3 
  63      D5FF0A2F 
  63      98FBEC
  64 00a4 794FC3F7 		.ascii	"yO\303\367\203W\364XLC\021\024\222\037\"d\340\014)\225"
  64      8357F458 
  64      4C431114 
  64      921F2264 
  64      E00C2995 
  65 00b8 13A6B624 		.ascii	"\023\246\266$O\032\030H\177\0325\375\241\323\362W\233"
  65      4F1A1848 
  65      7F1A35FD 
  65      A1D3F257 
  65      9B
  66 00c9 AC8329AD 		.ascii	"\254\203)\255\215ho\3343\015\234#,\321]\372\020\035"
  66      8D686FDC 
  66      330D9C23 
ARM GAS  /tmp/ccAPbLn4.s 			page 5


  66      2CD15DFA 
  66      101D
  67 00db 31CF1132 		.ascii	"1\317\0212\341\247\313\310\016Gx\312\344g\251\2514\""
  67      E1A7CBC8 
  67      0E4778CA 
  67      E467A9A9 
  67      3422
  68 00ed 2E3BD288 		.ascii	".;\322\210\366\307G\223x\200\344\021\231\021\314\231"
  68      F6C74793 
  68      7880E411 
  68      9911CC99 
  69 00fd 088E9B87 		.ascii	"\010\216\233\207\226G( \340\210\252\222\366\370\370"
  69      96472820 
  69      E088AA92 
  69      F6F8F8
  70 010c 77C798A9 		.ascii	"w\307\230\251H\377\356\310\021'\272\243\253\027\026"
  70      48FFEEC8 
  70      1127BAA3 
  70      AB1716
  71 011b 04027099 		.ascii	"\004\002p\231.EG\235[\312\003\265\372'\332l\214\340"
  71      2E45479D 
  71      5BCA03B5 
  71      FA27DA6C 
  71      8CE0
  72 012d 5469B983 		.ascii	"Ti\271\203\334Q\315\261\244\027\354\242\245\233v\266"
  72      DC51CDB1 
  72      A417ECA2 
  72      A59B76B6 
  73 013d A167ADBA 		.ascii	"\241g\255\272n\026x\206\333U\335\251\324J\333\2724\352"
  73      6E167886 
  73      DB55DDA9 
  73      D44ADBBA 
  73      34EA
  74 014f 4685DBB5 		.ascii	"F\205\333\265\252\004\312\025^rr\213\005bF9\221\263"
  74      AA04CA15 
  74      5E72728B 
  74      05624639 
  74      91B3
  75 0161 2B45C371 		.ascii	"+E\303q\254\354V\246\341X\325/\251H\201#"
  75      ACEC56A6 
  75      E158D52F 
  75      A9488123 
  76              		.text
  77              		.section	.gnu.lto_logfileNew.part.0.cb37a3282586a0b5,"",%progbits
  78 0000 789C8552 		.ascii	"x\234\205RKk\023Q\024>\337\2753\223\030\033\033\037"
  78      4B6B1351 
  78      143EDFBD 
  78      3393181B 
  78      1B1F
  79 0012 D0851086 		.ascii	"\320\205\020\206\212+5\265]ve\245!\233\202\020\022\320"
  79      8A2B35B5 
  79      5D7665A5 
  79      219B8210 
  79      12D0
  80 0024 8D30A671 		.ascii	"\2150\246q\030h\015Lg!t\321\033\215\322\205\224\340"
  80      18680D4C 
  80      672174D1 
ARM GAS  /tmp/ccAPbLn4.s 			page 6


  80      1B8DD285 
  80      94E0
  81 0036 AAF50196 		.ascii	"\252\365\001\226\"\202\033\301\215X\027\306MU\212V7"
  81      22821BC1 
  81      8D5817C6 
  81      4D558A56 
  81      37
  82 0047 D2EEF203 		.ascii	"\322\356\362\003DAAD\202\323sg\222\370@\360\302=\347"
  82      44414144 
  82      82D37367 
  82      92F840F0 
  82      C23DE7
  83 005a DC73CFF7 		.ascii	"\334s\317\367\235\357>\004\011\372{\214\363|\314\351"
  83      9DEF3E04 
  83      09FA7B8C 
  83      F37CCCE9 
  84 006a F3EC6111 		.ascii	"\363\354a\021\314\346[\016L\210\310\013!\327\263\244"
  84      CCE65B0E 
  84      4C88C80B 
  84      21D7B3A4 
  85 007a 52C68711 		.ascii	"R\306\207\021R\003\022\206\316\326\223\006\240\003\002"
  85      52031286 
  85      CED69306 
  85      A00302
  86 0089 2D98421A 		.ascii	"-\230B\032X8\007\315%\207iU\251\233\355k\237[XQ\255"
  86      583807CD 
  86      25876955 
  86      A99BED6B 
  86      9F5B5851 
  87 009e C63DD509 		.ascii	"\306=\325\011C\300\003\367\315\200*\240\263\274\200"
  87      43C003F7 
  87      CD802AA0 
  87      B3BC80
  88 00ad 1D3961FC 		.ascii	"\0359a\374)$\306\266\302\215\245!\325VM\365\223\241"
  88      2924C6B6 
  88      C28DA521 
  88      D5564DF5 
  88      93A1
  89 00bf 1EA4A0A1 		.ascii	"\036\244\240\241_\310d\214\304?\221\235\215\033\251"
  89      5FC8648C 
  89      C43F919D 
  89      8D1BA9
  90 00ce 667D5185 		.ascii	"f}Q\205\341\202\007C\320\341\377u|$T;\014w\276%\323"
  90      E1820743 
  90      D0E1FF75 
  90      7C24543B 
  90      0C77BE25 
  91 00e3 C02C6B64 		.ascii	"\300,kd\003I\016\3260L\006\373\373\354M\362`Zl\254\204"
  91      03490ED6 
  91      304C06FB 
  91      FBEC4DF2 
  91      605A6CAC 
  92 00f8 368C32A9 		.ascii	"6\2142\251\241T\323\216\313\034\254\262%\335\210G\211"
  92      A154D38E 
  92      CB1CACB2 
  92      25DD8847 
  92      89
ARM GAS  /tmp/ccAPbLn4.s 			page 7


  93 0109 ADBE9712 		.ascii	"\255\276\227\022L\355e\031\"\362o\350\312\346\366\227"
  93      4CED6519 
  93      22F26FE8 
  93      CAE6F697 
  94 0119 EF70F080 		.ascii	"\357p\360\200w\216\321C\305c\324C\3426\335\252+\225"
  94      778ED143 
  94      C563D443 
  94      E236DDAA 
  94      2B95
  95 012b F1907421 		.ascii	"\361\220t!\264\304=\221\260\013\335\003\272\340`\213"
  95      B4C43D91 
  95      B00BDD03 
  95      BAE0608B 
  96 013b AEB737D7 		.ascii	"\256\2677\327\254\030\353B\316\323\017\265\2501\251"
  96      AC18EB42 
  96      CED30FB5 
  96      A831A9
  97 014a 0AD02BD3 		.ascii	"\012\320+\323\311e\245\346=\354\315\322\221\273j\371"
  97      C965A5E6 
  97      3DECCDD2 
  97      91BB6AF9 
  98 015a 9487018A 		.ascii	"\224\207\001\2121\321\331\323)\226\277\217\350\0255"
  98      31D1D9D3 
  98      2996BF8F 
  98      E81535
  99 0169 3EBE5879 		.ascii	">\276Xy)\373tzS\376~+e^\256g\265\346\327\333_\337\241"
  99      29FB747A 
  99      53FE7E2B 
  99      655EAE67 
  99      B5E6D7DB 
 100 0180 5768F4B5 		.ascii	"Wh\364\265\032}\005\203\263\320\037JS\014v\321\014\373"
 100      1A7D0583 
 100      B3D01F4A 
 100      530C76D1 
 100      0CFB
 101 0192 D427375D 		.ascii	"\324'7]M\275E]\361D}d\246\002\321\325nt\265?a\226\375"
 101      4DBD455D 
 101      F1447D64 
 101      A602D1D5 
 101      6E74B53F 
 102 01a9 591A8DC5 		.ascii	"Y\032\215\305\037\350\211g\026\017\007c\342\253\317"
 102      1FE88967 
 102      160F0763 
 102      E2ABCF
 103 01b8 97448FDB 		.ascii	"\227D\217\333r{\262\3130\242[~\317\037S\327'tr\207\022"
 103      727BB2CB 
 103      30A25B7E 
 103      CF1F53D7 
 103      27747287 
 104 01cd 5A163F98 		.ascii	"Z\026?\230\270\363\354\020\227\313\316\323\244~\031"
 104      B8F3EC10 
 104      97CBCED3 
 104      A47E19
 105 01dc E85ADD3B 		.ascii	"\350Z\335;=\355\004\316L\315u\253~\256BV\034I\277:\227"
 105      3DED04CE 
 105      4CCD75AB 
 105      7EAE4256 
ARM GAS  /tmp/ccAPbLn4.s 			page 8


 105      1C49BF3A 
 106 01f1 98CC9F2E 		.ascii	"\230\314\237.\027rc\351\221\240:\027L\325\334\\p9\240"
 106      177263E9 
 106      91A03A17 
 106      4CD5DC5C 
 106      7039A0
 107 0204 139313A5 		.ascii	"\023\223\023\245\211\2513\205B\2768n\347}\277\346\333"
 107      89A93385 
 107      42BE386E 
 107      E77DBFE6 
 107      DB
 108 0215 15BFEA04 		.ascii	"\025\277\352\004\336%\327\346\232\213\336L\365\270\235"
 108      DE25D7E6 
 108      9A8BDE4C 
 108      F5B89D
 109 0224 2F168F9E 		.ascii	"/\026\217\236\034\233N\321.\010\207\302J"
 109      1C9B4ED1 
 109      2E0887C2 
 109      4A
 110              		.text
 111              		.section	.gnu.lto_dataLoggerInitialize.cb37a3282586a0b5,"",%progbits
 112 0000 789C8D54 		.ascii	"x\234\215T_H\223Q\024?\347\336\357\333\267o\316\234"
 112      5F489351 
 112      143FE7DE 
 112      EFDBB76F 
 112      CE9C
 113 0012 4BD3A0C6 		.ascii	"K\323\240\306\020z*\314z\011\"(\303\345K%\230\243z\\"
 113      107A2ACC 
 113      7A092228 
 113      C3E54B25 
 113      98A37A5C 
 114 0026 738C0F9C 		.ascii	"s\214\017\234\322\\D\364\340]\014\221\352A\"\310\214"
 114      D25C44F4 
 114      E05D0C91 
 114      EA4122C8 
 114      8C
 115 0037 20114942 		.ascii	" \021IB0(h\020\301\254\020EL{\014\242F\205\371\020\021"
 115      30286810 
 115      C1AC1045 
 115      4C7B0CA2 
 115      4685F910 
 116 004c 44D15FD6 		.ascii	"D\321_\326\271\337\237\271\015\011/\354\336{\316=\277"
 116      B9DF9FB9 
 116      0D092FEC 
 116      DE7BCE3D 
 116      BF
 117 005d F3FB9D73 		.ascii	"\363\373\235s\3577\006\014*\307y\372\335U\000ziE\017"
 117      EF37060C 
 117      2AC779FA 
 117      DD55007A 
 117      69450F
 118 0070 201B7E01 		.ascii	" \033~\001\220v3\246\177\327@x\370\350,\200\360r\333"
 118      907633A6 
 118      7FD74078 
 118      F8E82C80 
 118      F072DB
 119 0083 542C5361 		.ascii	"T,Sa\352\353*2]\017\237JSE\227\205r1m\230\223\337-\026"
ARM GAS  /tmp/ccAPbLn4.s 			page 9


 119      EAEB2A32 
 119      5D0F9F4A 
 119      53459785 
 119      72316D98 
 120 009b A45F43DD 		.ascii	"\244_C\335\362\273\235\215\216(7\2000\300\270\242\272"
 120      F2BB9D8D 
 120      8E283780 
 120      30C0B8A2 
 120      BA
 121 00ac 34F20C9C 		.ascii	"4\362\014\234F)\2045\301\230\020\327\362\023\357\227"
 121      46298435 
 121      C19810D7 
 121      F213EF97 
 122 00bc F1E6F55C 		.ascii	"\361\346\365\\\346\216\370S( \032H\242}\010Q\204Sd`"
 122      E68EF853 
 122      28201A48 
 122      A27D0851 
 122      84536460 
 123 00d0 D05C9852 		.ascii	"\320\\\230R^\205\205\315\375\375\226E1(\322_\012\205"
 123      5E8585CD 
 123      FDFD9645 
 123      3128D25F 
 123      0A85
 124 00e2 1A033983 		.ascii	"\032\0039\203\3065\240\333\002b9p\232\345\362\205\302"
 124      C635A0DB 
 124      02623970 
 124      9AE5F285 
 124      C2
 125 00f3 D5E9E545 		.ascii	"\325\351\345El@HH2\003\025\005\023\210*ML\243\211\353"
 125      6C404848 
 125      32031505 
 125      13882A4D 
 125      4CA389EB 
 126 0107 3481970E 		.ascii	"4\201\227\016T\037Dp\034\233\240\226\3261Z\375\344t"
 126      541F4470 
 126      1C9BA096 
 126      D6315AFD 
 126      E474
 127 0119 D5DB060D 		.ascii	"\325\333\006\015\0252B\014\007\255 \220\3344\272h\226"
 127      1532420C 
 127      07AD2090 
 127      DC34BA68 
 127      96
 128 012a 558791C9 		.ascii	"U\207\221\311\225\317\301\363\2173_\267Gp\002U\210\243"
 128      95CFC1F3 
 128      8F335FB7 
 128      47700255 
 128      88A3
 129 013c 227569A5 		.ascii	"\"ui\245\242\302\310\201\032m\006\246O:q\252\214s\227"
 129      A2C2C881 
 129      1A6D06A6 
 129      4F3A71AA 
 129      8C7397
 130 014f C72970E5 		.ascii	"\307)p\345 _\204K\013?\336T[q\267`4-\204\217\332v\021"
 130      205F844B 
 130      0B3FDE54 
 130      5B71B760 
ARM GAS  /tmp/ccAPbLn4.s 			page 10


 130      342D848F 
 131 0166 7E8921B9 		.ascii	"~\211!\271\323\023(\333%\341\272\211\213K:S\305\317"
 131      D31328DB 
 131      25E1BA89 
 131      8B4B3A53 
 131      C5CF
 132 0178 A20A5D1E 		.ascii	"\242\012]\036{J\263w\221\377\261\316\303\350*\222\274"
 132      7B4AB377 
 132      91FFB1CE 
 132      C3E82A92 
 132      BC
 133 0189 ADB3C277 		.ascii	"\255\263\302w\302=Ac\037\351&>\002V\225\311;c79.y\227"
 133      C23D4163 
 133      1FE9263E 
 133      025695C9 
 133      3B633739 
 134 01a0 20931F1A 		.ascii	" \223\037\032\367;<\336\242,o\024\321\0113\260\032\200"
 134      F73B3CDE 
 134      A22C6F14 
 134      D10933B0 
 134      1A80
 135 01b2 28E6EF57 		.ascii	"(\346\357WU2\250\35338P\257\211[\310\276[e\225H\317"
 135      5532A8EB 
 135      333850AF 
 135      895BC8BE 
 135      5B659548 
 136 01c7 FA486623 		.ascii	"\372Hf#Qj\033\314_\036w9\332|Em\233\242\3050/EJx\015"
 136      516A1BCC 
 136      5F1E7739 
 136      DA7C456D 
 136      9BA2C530 
 137 01e0 D25DFB64 		.ascii	"\322]\373d\3372\237fn\314\362\"H\036\362\265\266\275"
 137      DF329F66 
 137      6ECCF222 
 137      481EF2B5 
 137      B6BD
 138 01f2 02A46E2A 		.ascii	"\002\244n*(s\215\210\334\357\263\006\326\006`\333m1"
 138      28738D88 
 138      DCEFB306 
 138      D60660DB 
 138      6D31
 139 0204 72C840BF 		.ascii	"r\310@\277\371H&\271\274;\015\2361\331\326\371\311\250"
 139      F94826B9 
 139      BC3B0D9E 
 139      31D9D6F9 
 139      C9A8
 140 0216 93AB7623 		.ascii	"\223\253v#\267g\026\374\271\310\357\217KUK`W\001k\310"
 140      B76716FC 
 140      B9C8EF8F 
 140      4B554B60 
 140      57016BC8 
 141 022a CD515B17 		.ascii	"\315Q[\027%\266\324\210G\224\245.\000\001K\215|\270"
 141      25B6D488 
 141      4794A52E 
 141      00014B8D 
 141      7CB8
 142 023c 2686B218 		.ascii	"&\206\262\030\270\305yTn\230; \205eGV\226yeS\033\326"
ARM GAS  /tmp/ccAPbLn4.s 			page 11


 142      B8C57954 
 142      6E983B20 
 142      85654756 
 142      96796553 
 143 0252 6FAA4524 		.ascii	"o\252E$=\015h)\234\317\256\254\242#\262~c\205-\201\372"
 143      3D0D6829 
 143      9CCFAEAC 
 143      A223B27E 
 143      63852D81 
 144 0267 BF2AEAED 		.ascii	"\277*\352\355*\236\020\2441\000\307\255*\266:U\224\224"
 144      2A9E10A4 
 144      3100C7AD 
 144      2AB63A55 
 144      9494
 145 0279 A09B1FDA 		.ascii	"\240\233\037\332K\372\307\2218f\335\013\223TD\311\247"
 145      4BFAC791 
 145      3866DD0B 
 145      935444C9 
 145      A7
 146 028a 3ACC5DC1 		.ascii	":\314]\301\0318\240}\330c\037\272\247\036\324\331[6"
 146      1938A07D 
 146      D8631FBA 
 146      A71ED4D9 
 146      5B36
 147 029c D521BF02 		.ascii	"\325!\277\002\224\271d\212\352\356H*\322\323\027\217"
 147      94B9648A 
 147      EAEE482A 
 147      D2D3178F 
 148 02ac C792CD51 		.ascii	"\307\222\315Q\320\332B\207\303\355\315-<\226L\"\354"
 148      D0DA4287 
 148      C3EDCD2D 
 148      3C964C22 
 148      EC
 149 02bd 6E6BED6A 		.ascii	"nk\355j=\332\321\336\036\352\334\037\014%\223}\311\340"
 149      3DDAD1DE 
 149      1EEADC1F 
 149      0C25937D 
 149      C9E0
 150 02cf B1BE73BD 		.ascii	"\261\276s\275)\2437\036<b\364\304\372/\364\247b\211"
 150      29A3371E 
 150      3C62F4C4 
 150      FA2FF4A7 
 150      6289
 151 02e1 5DA1CECE 		.ascii	"]\241\316\316\035{[\272=\020,\215o+\346\015\236HE\222"
 151      1D7B5BBA 
 151      3D102C8D 
 151      6F2BE60D 
 151      9E484592 
 152 02f5 A91805FC 		.ascii	"\251\030\005\374\003\240hA\\"
 152      03A06841 
 152      5C
 153              		.text
 154              		.section	.gnu.lto_dataLoggerStop.cb37a3282586a0b5,"",%progbits
 155 0000 789C6550 		.ascii	"x\234ePKK\002Q\024\376\316\035'\315\262\\V\213\030\332"
 155      4B4B0251 
 155      14FECE1D 
 155      27CDB25C 
ARM GAS  /tmp/ccAPbLn4.s 			page 12


 155      568B18DA 
 156 0014 0642ABA2 		.ascii	"\006B\253\242U\206\342&\010J\241\226\323(\303@\242\204"
 156      5586E226 
 156      084AA196 
 156      D328C340 
 156      A284
 157 0026 BB165E4B 		.ascii	"\273\026^K\242\245D\201\275 q\027Q\253\300M\340\266"
 157      A2A54481 
 157      BD207117 
 157      51ABC04D 
 157      E0B6
 158 0038 45AF7F30 		.ascii	"E\257\1770\233 \352\017\204\004v\317\214\030\325\201"
 158      9B20EA0F 
 158      840476CF 
 158      8C18D581 
 159 0048 B9DFB997 		.ascii	"\271\337\271\227\357q\346\010\010\374\255q\365\035\021"
 159      EF71E608 
 159      08FCAD71 
 159      F51D11
 160 0057 30A79034 		.ascii	"0\247\2204\220\250=\002\225\220 \342\006\204\262\240"
 160      90A83D02 
 160      959020E2 
 160      0684B2A0 
 161 0067 F23A3195 		.ascii	"\362:1\225\246\320\220\362\300}}\177\243\343\303v\365"
 161      A6D090F2 
 161      C07D7D7F 
 161      A3E3C376 
 161      F5
 162 0078 427E75BB 		.ascii	"B~u\273D\016)\333(\301\"\254\251\013\031\036\210\300"
 162      440E29DB 
 162      28C122AC 
 162      A90B191E 
 162      88C0
 163 008a EF9C1BD1 		.ascii	"\357\234\033\321v\273\335\263\333jg\"(`RC\271\351\224"
 163      76BBDDB3 
 163      DB6A6722 
 163      28605243 
 163      B9E994
 164 009d F78C7554 		.ascii	"\367\214uT\245\254\031`\013Uiurx\206\004\243\366\200"
 164      A5AC1960 
 164      0B556975 
 164      72788604 
 164      A3F680
 165 00b0 9DFB4F95 		.ascii	"\235\373O\225iR\223t\330$NqR\2212\252\202\267\321\221"
 165      69529374 
 165      D8244E71 
 165      529132AA 
 165      82B7D191 
 166 00c4 FBDC6979 		.ascii	"\373\334iyb-'k\275\304'\350\276\002?\264\200\345\321"
 166      622D276B 
 166      BDC427E8 
 166      BE023FB4 
 166      80E5D1
 167 00d7 C02EFC58 		.ascii	"\300.\374X\227\362NI\364I\214\235\313\372\202C\003\350"
 167      97F24E49 
 167      F4498C9D 
 167      CBFA8243 
ARM GAS  /tmp/ccAPbLn4.s 			page 13


 167      03E8
 168 00e9 691C0AB2 		.ascii	"i\034\012\262\305\236{\265\033\374g\023\262\310\337"
 168      C59E7BB5 
 168      1BFC6713 
 168      B2C8DF
 169 00f8 24E70DFA 		.ascii	"$\347\015\372\020\366a\210\245\303\200\032\272\325\372"
 169      10F66188 
 169      A5C3801A 
 169      BAD5FA
 170 0107 78D67CED 		.ascii	"x\326|\3554.\245\252Y\207\"jxE\033\261Ig\372\250g\263"
 170      342EA5AA 
 170      5987226A 
 170      78451BB1 
 170      4967FAA8 
 171 011d E10FE519 		.ascii	"\341\017\345\031D\270yA\305\275n\366\376\270\377\352"
 171      44B87941 
 171      C5BD6EF6 
 171      FEB8FFEA 
 172 012d 2F877829 		.ascii	"/\207x)\034\037\311\232%s\263`\333\271\255\230\205`"
 172      1C1FC99A 
 172      2573B360 
 172      DBB9AD98 
 172      8560
 173 013f 22B99849 		.ascii	"\"\271\230I\305f\214D<\035_ZN\245\222+\363F\242\317"
 173      C5668C44 
 173      3C1D5F5A 
 173      4EA5922B 
 173      F346A2CF 
 174 0153 30564B85 		.ascii	"0VK\205b1\227\015\343\033\232\336q\012"
 174      6231970D 
 174      E31B9ADE 
 174      710A
 175              		.text
 176              		.section	.gnu.lto_logfileNew.cb37a3282586a0b5,"",%progbits
 177 0000 789C5D51 		.ascii	"x\234]Q\277K[Q\024\376\276\373\356K^\322H\035]\032\036"
 177      BF4B5B51 
 177      14FEBEFB 
 177      EE4B5ED2 
 177      481D5D1A 
 178 0015 8E162CED 		.ascii	"\216\026,\355\350T\333H\026iA\014\264\3433M\037\017"
 178      E854DB48 
 178      1669410C 
 178      B4E3334D 
 178      1F0F
 179 0027 B482080E 		.ascii	"\264\202\010\016\035\274)\021:J\351\020\177A\305?\300"
 179      1DBC2911 
 179      3A4AE910 
 179      7F41C53F 
 179      C0
 180 0038 5114842C 		.ascii	"Q\024\204,\005\035\332P\007\321\322\301\261\203 8\212"
 180      051DDA50 
 180      07D1D2C1 
 180      B1832038 
 180      8A
 181 0049 10CF794D 		.ascii	"\020\317yM\024{\341\235s\337\275\347\373q\31650\370"
 181      147BE19D 
 181      73DFBDE7 
ARM GAS  /tmp/ccAPbLn4.s 			page 14


 181      FB71CE35 
 181      30F8
 182 005b 7F3D95AF 		.ascii	"\177=\225\257M`D2}\320,\377\004\352\2011\366\370\011"
 182      4D604432 
 182      7DD02CFF 
 182      04EA8131 
 182      F6F809
 183 006e 5CC1DB2B 		.ascii	"\\\301\333+\302\345=Z=\246%5\203X4\236\345\342[*\005"
 183      C2E53D5A 
 183      3DA62535 
 183      8358349E 
 183      E5E25B2A 
 184 0083 07B1E9DC 		.ascii	"\007\261\351\334\227\263\357\027\177\271\362\265\325"
 184      97B3EF17 
 184      7FB9F2B5 
 184      D5
 185 0090 F8E6AE3B 		.ascii	"\370\346\256;\0352\241\310\365\023U\342\215\3740L\223"
 185      1D32A1C8 
 185      F51355E2 
 185      8DFC304C 
 185      93
 186 00a1 B1F7F5B7 		.ascii	"\261\367\365\267M\353\254\323\371\263\3238zT \022zF"
 186      4DEBACD3 
 186      F9B3D338 
 186      7A542012 
 186      7A46
 187 00b3 8345C44D 		.ascii	"\203E\304M\341\315p\206\310\312\211\015d\307\234\004"
 187      E1CD7086 
 187      C8CA890D 
 187      64C79C04 
 188 00c3 6DC147C3 		.ascii	"m\301G\303\271\345\020\312-kR\242\372\252\310\245d\357"
 188      B9E510CA 
 188      2D6B52A2 
 188      FAAAC8A5 
 188      64EF
 189 00d5 073E1D9E 		.ascii	"\007>\035\236\210\231\210[\322RL\273\206\325\272s\375"
 189      8899885B 
 189      D2524CBB 
 189      86D5BA73 
 189      FD
 190 00e6 E2E823AE 		.ascii	"\342\350#\256\334g\335\3713\364\004\252\226\374\256"
 190      DC67DDF9 
 190      33F404AA 
 190      96FCAE
 191 00f5 9536FC7F 		.ascii	"\2256\374\177\010\334\225e\252L%\224E\017\233\316\355"
 191      08DC9565 
 191      AA4C2594 
 191      450F9BCE 
 191      ED
 192 0106 0B245BC4 		.ascii	"\013$[\304\300\206k>O\030\240\213I\230\003D\371w\363"
 192      C0866B3E 
 192      4F18A08B 
 192      49980344 
 192      F977F3
 193 0119 B2657ACA 		.ascii	"\262ez\312\331\307\030JR}\001\345cfT\357AJ8\305\336"
 193      D9C7184A 
 193      527D01E5 
ARM GAS  /tmp/ccAPbLn4.s 			page 15


 193      636654EF 
 193      414A38C5 
 194 012e 080ED038 		.ascii	"\010\016\3208\257?\274\205h\311\275!U\304\351^\321k"
 194      AF3FBC85 
 194      68C9BD21 
 194      55C4E95E 
 194      D16B
 195 0140 6329E815 		.ascii	"c)\350\025\231[\203\205*M\327`\0203\227\260\257\007"
 195      995B8385 
 195      2A4DD760 
 195      103397B0 
 195      AF07
 196 0152 B2E92C7E 		.ascii	"\262\351,~\311c\352e\252v\012*\2734n\326w\245\334x\324"
 196      C963EA65 
 196      AA760A2A 
 196      BB346ED6 
 196      77A5DC78 
 197 0167 E9512B95 		.ascii	"\351Q+\225\245\357]4\037M\317\306qmn\270\212li\354E"
 197      A5EF5D34 
 197      1F4DCFC6 
 197      716D6EB8 
 197      8A6C69EC 
 198 017c A53CFC6C 		.ascii	"\245<\374l\2604:9:\376\272\\\036\233\030\011_\316\325"
 198      B0343A39 
 198      3AFEBA5C 
 198      1E9B1809 
 198      5FCED5
 199 018f A2F9E443 		.ascii	"\242\371\344C\034\276\252-\204\343\263\361\373d\272"
 199      1CBEAA2D 
 199      84E3B3F1 
 199      FB64BA
 200 019e 96C70DDF 		.ascii	"\226\307\015\337%y\351"
 200      2579E9
 201              		.text
 202              		.section	.gnu.lto_logfileSize.cb37a3282586a0b5,"",%progbits
 203 0000 789C6362 		.ascii	"x\234cb`b@\007\222@\034\015\304\374@\314\310\314\300"
 203      60624007 
 203      92401C0D 
 203      C4FC40CC 
 203      C8CCC0
 204 0013 C834E11C 		.ascii	"\3104\341\034\003C#\007\023##\210\301\300\310P\317\304"
 204      03432307 
 204      13232388 
 204      C1C0C850 
 204      CFC4
 205 0025 581FC908 		.ascii	"X\037\311\010V\273\236\351\300\203\377\377\327]8\276"
 205      56BB9EE9 
 205      C083FFFF 
 205      D75D38BE 
 206 0035 E0352323 		.ascii	"\3405##\310(V\206\226\206\206\011\012\014\014\311`\005"
 206      C8285686 
 206      96868609 
 206      0A0C0CC9 
 206      6005
 207 0047 214012A4 		.ascii	"!@\022\244+\024(\011\244\231/24>x\265\2301\221q!#+C"
 207      2B142809 
 207      A4992F32 
ARM GAS  /tmp/ccAPbLn4.s 			page 16


 207      343E78B5 
 207      98319171 
 208 005f 04632623 		.ascii	"\004c&#\334\326\020FF\220\012\220\031\274)\211%\211"
 208      DCD61046 
 208      46900A90 
 208      19BC2989 
 208      2589
 209 0071 39F9E9E9 		.ascii	"9\371\351\351\251Ez\311\014\000C\361\037Z"
 209      A9457AC9 
 209      0C0043F1 
 209      1F5A
 210              		.text
 211              		.section	.gnu.lto_logfileWrite.cb37a3282586a0b5,"",%progbits
 212 0000 789C8552 		.ascii	"x\234\205R;h\024Q\024=\347\2757\3735\020D\220\010\206"
 212      3B681451 
 212      143DE7BD 
 212      37FB3510 
 212      44900886 
 213 0014 10104421 		.ascii	"\020\020D!\021\264Iii\237\005-,\306u\031\006\374\300"
 213      11B44969 
 213      699F052D 
 213      2CC67519 
 213      06FCC0
 214 0027 BA606191 		.ascii	"\272`a\221\267\311BR\004\331\210\205\277\"AD\260\261"
 214      B7C94252 
 214      04D98885 
 214      BF224144 
 214      B0B1
 215 0039 B0B01132 		.ascii	"\260\260\0212\012\272\022\360\023H\243\325b\253\330"
 215      0ABA12F0 
 215      1348A3D5 
 215      62ABD8
 216 0048 8920D1F1 		.ascii	"\211 \321\361\2767;\233\250\205\027f\356\347\3159\367"
 216      BE373B9B 
 216      A8851766 
 216      EEE7CD39 
 216      F7
 217 0059 DC3B4F41 		.ascii	"\334;OA\341o;)\317\212\224\017\211g\001T\335\267@\273"
 217      E16F3B29 
 217      CF8A940F 
 217      89670154 
 217      DDB740BB 
 218 006d A454F06C 		.ascii	"\244T\360l\034\266\242\267\246a\367h\025l\034\223\314"
 218      1CB6A2B7 
 218      A661F768 
 218      156C1C93 
 218      CC
 219 007e BC3A2899 		.ascii	"\274:(\231a\220}\024\220.\0001\247\264\0118w\206\216"
 219      61907D14 
 219      902E0031 
 219      A7B40938 
 219      77868E
 220 0091 524F62CD 		.ascii	"ROb\315\332n\377e\232\350\3337\223\316\252\335NS2\246"
 220      DA6EFF65 
 220      9AE8DB37 
 220      93CEAADD 
 220      4E5332A6 
ARM GAS  /tmp/ccAPbLn4.s 			page 17


 221 00a5 B41F25EA 		.ascii	"\264\037%\352\304iI8\341\2352\177\352\361\330\033\311"
 221      C4694938 
 221      E19D327F 
 221      EAF1D81B 
 221      C9
 222 00b6 B7DEF5FD 		.ascii	"\267\336\365\375\266o\273\366\227@cj\205\003;\310R\206"
 222      B66FBBF6 
 222      9740636A 
 222      85033BC8 
 222      5286
 223 00c8 E4BFC8A4 		.ascii	"\344\277\310\244\233|\357-\217\331\325\371\034)=\307"
 223      9B7CEF2D 
 223      8FD9D5F9 
 223      1C293DC7 
 224 00d8 FFD7F3B1 		.ascii	"\377\327\363\261J\372izo\275\263qx\204\210i4/\022F\242"
 224      4AFA697A 
 224      6FBDB371 
 224      78848869 
 224      342F1246 
 225 00ed 209048D6 		.ascii	" \220H\326\022\263P\224H\225\021\362>'Q\221\012\252"
 225      12B35094 
 225      489511F2 
 225      3E275191 
 225      0AAA
 226 00ff 92AC4922 		.ascii	"\222\254I\"\026\240#\023Od\207!\037\370j\335\013\234"
 226      16A02313 
 226      4F648721 
 226      1FF86ADD 
 226      0B9C
 227 0111 95B7DB52 		.ascii	"\225\267\333R\215\312y\375\006\363\037o\245\357U\310"
 227      8DCA79FD 
 227      06F31F6F 
 227      A5EF55C8 
 228 0121 870C10D1 		.ascii	"\207\014\020\321\034\305\021it\027w\332\326\332\263"
 228      1CC51169 
 228      741777DA 
 228      D6DAB3
 229 0130 318B11B5 		.ascii	"1\213\021\265SY\362\332\316\015\247\024\340\327\205"
 229      5359F2DA 
 229      CE0DA714 
 229      E0D785
 230 013f 47CC7185 		.ascii	"G\314q\205H\034\336a1\031\313K\345k\370a\227\354h\314"
 230      481CDE61 
 230      3119CB4B 
 230      E56BF861 
 230      97EC68CC 
 231 0153 729D194E 		.ascii	"r\235\031N\370#\307XpGbO\205\270\222\011\314P2H\025"
 231      F823C758 
 231      7047624F 
 231      85B89209 
 231      CC503248 
 232 0168 788DCE97 		.ascii	"x\215\316\227\347?{z\310\344\004\350\335;\252I\2725"
 232      E73F7B7A 
 232      C8E404E8 
 232      DD3BAA49 
 232      BA35
 233 017a ADBD884F 		.ascii	"\255\275\210OC\021\025/B\212\247\362J5\237\336Q\266"
ARM GAS  /tmp/ccAPbLn4.s 			page 18


 233      4311152F 
 233      428AA7F2 
 233      4A359FDE 
 233      51B6
 234 018c 67767D58 		.ascii	"gv}X\335!\233\245\301\302^]\223\243l%/>\017\366\221"
 234      DD219BA5 
 234      C1C25E5D 
 234      93A36C25 
 234      2F3E0FF6 
 235 01a1 A14FE089 		.ascii	"\241O\340\211]r?OlS.\232\233\303'\037@\247\314\020z"
 235      5D723F4F 
 235      6C532E9A 
 235      9BC3271F 
 235      40A7CC10 
 236 01b6 7BBDE443 		.ascii	"{\275\344C\300,o\356\033T\225T\035=\035\257\273\354"
 236      C02C6FEE 
 236      1B549554 
 236      1D3D1DAF 
 236      BBEC
 237 01c8 23E7C356 		.ascii	"#\347\303Vx\341r\0245\232Su\224\2576\343V\253qi\352"
 237      78E17214 
 237      359A5375 
 237      94AF36E3 
 237      56AB7169 
 238 01dd B86E36AE 		.ascii	"\270n6\256\024\007\331o^\335\250\203"
 238      1407D96F 
 238      5EDDA883 
 239              		.text
 240              		.section	.gnu.lto_logfileWriteCsv.cb37a3282586a0b5,"",%progbits
 241 0000 789C6362 		.ascii	"x\234cb`b@\007\222@\234\005\304\374@\314\310\314\300"
 241      60624007 
 241      92409C05 
 241      C4FC40CC 
 241      C8CCC0
 242 0013 C834E11C 		.ascii	"\3104\341\034\003C#\007\023##\210\301\300\310P\317\304"
 242      03432307 
 242      13232388 
 242      C1C0C850 
 242      CFC4
 243 0025 581FC908 		.ascii	"X\037\311\010V\273\236\351\300\203\377\377\327m;\265"
 243      56BB9EE9 
 243      C083FFFF 
 243      D76D3BB5 
 244 0035 E0042313 		.ascii	"\340\004#\023+\023c.#\0033\220`d\001\022 \223Y\031Z"
 244      2B13632E 
 244      23033390 
 244      60640112 
 244      20935919 
 245 004a 1A1A2628 		.ascii	"\032\032&(00$\203\325\207\000I\220!\241@I \315|\221"
 245      30302483 
 245      D5870049 
 245      9021A140 
 245      4920CD7C 
 246 005f A1F1C1FE 		.ascii	"\241\361\301\376\245\214\211\214\013\031Y\031\"\030"
 246      A58C898C 
 246      0B195919 
 246      2218
ARM GAS  /tmp/ccAPbLn4.s 			page 19


 247 006d 3319E18E 		.ascii	"3\031\341\216\010ad\004\251\000\231\301\233\222X\222"
 247      08616404 
 247      A90099C1 
 247      9B925892 
 248 007d 98939F9E 		.ascii	"\230\223\237\236\236Z\244\227\314\000\000t\240 c"
 248      9E5AA497 
 248      CC000074 
 248      A02063
 249              		.text
 250              		.section	.gnu.lto_logfileClose.cb37a3282586a0b5,"",%progbits
 251 0000 789C5D50 		.ascii	"x\234]P\273JCA\024\234\331\2637\011b\210\205\265Z+\030"
 251      BB4A4341 
 251      149CD9B3 
 251      37096288 
 251      85B55A2B 
 252 0015 F05B12D4 		.ascii	"\360[\022\324\362z\225\313B\202 v\026\331+\267\260L"
 252      F27A95CB 
 252      42822076 
 252      16D92BB7 
 252      B04C
 253 0027 AD8DFE80 		.ascii	"\255\215\376\200ZY\245H)\370BH\241\006\301\017\360\007"
 253      5A59A548 
 253      29F84248 
 253      A106C10F 
 253      F007
 254 0039 B4896737 		.ascii	"\264\211g7D\304\205\363`wf\316\23150\370\17764\352\004"
 254      44C485F3 
 254      607766CE 
 254      993530F8 
 254      7F3634EA 
 255 004e 1A5A9980 		.ascii	"\032Z\231\200\246\377\010\0245c\354`\011~NFM\370y\241"
 255      A6FF0814 
 255      3563EC60 
 255      097E4E46 
 255      4DF879A1 
 256 0062 9D5E5B32 		.ascii	"\235^[24 zF,{\333\214\"Wf\3701\231\\^\337\235\277\323"
 256      34207A46 
 256      2C7BDB8C 
 256      225766F8 
 256      31995C5E 
 257 007a 54094708 		.ascii	"T\011G\010\273\204\325\216\025Man\202\322\373\376\012"
 257      BB84D58E 
 257      154D616E 
 257      82D2FBFE 
 257      0A
 258 008b 9045524B 		.ascii	"\220ERKs\320j\353\243Vy\300\361\333\313\315\027S^\350"
 258      73D06AEB 
 258      A35679C0 
 258      F1DBCBCD 
 258      17535EE8 
 259 009f 1E39ED1A 		.ascii	"\0369\355\032V\225}\206\323\302{\277\351(9e\213\216"
 259      56957D86 
 259      D3C27BBF 
 259      E9283965 
 259      8B8E
 260 00b1 368EDCE1 		.ascii	"6\216\334\341\314\301\023\312\341\362\214U9\302\267"
 260      CCC113CA 
ARM GAS  /tmp/ccAPbLn4.s 			page 20


 260      E1F28C55 
 260      39C2B7
 261 00c0 3FF10B8E 		.ascii	"?\361\013\216I\306)D\245\234.\201[\224\237E\343\027"
 261      49C62944 
 261      A59C2E81 
 261      5B949F45 
 261      E317
 262 00d2 18A4AA7F 		.ascii	"\030\244\252\177\177\242E\301\250)m\035\020\366yV\273"
 262      7FA245C1 
 262      A8296D1D 
 262      10F67956 
 262      BB
 263 00e3 811C455E 		.ascii	"\201\034E^\301\200W\337f0\256\305\026\220\373\361b\240"
 263      C18057DF 
 263      6630AEC5 
 263      1690FBF1 
 263      62A0
 264 00f5 31E083C3 		.ascii	"1\340\203\303\372nz\230v\366\363|\357`=\303\017\007"
 264      FA6E7A98 
 264      76F6F37C 
 264      EF603DC3 
 264      0F07
 265 0107 E344AC   		.ascii	"\343D\254"
 266              		.text
 267              		.section	.gnu.lto_.symbol_nodes.cb37a3282586a0b5,"",%progbits
 268 0000 789C4DD0 		.ascii	"x\234M\320;n\0021\030\004\340\031{7\274\027\322Sr\004"
 268      3B6E0231 
 268      1804E019 
 268      7B37BC17 
 268      D2537204 
 269 0014 2EC42152 		.ascii	".\304!R\017\202\"\333 \345\002I\001g\240\244\212\304"
 269      0F8222DB 
 269      20E50249 
 269      0167A0A4 
 269      8AC4
 270 0026 9240C8FB 		.ascii	"\222@\310\373QF)\302-\242x\361\012\333\315\350\033\375"
 270      514629C2 
 270      2DA278F1 
 270      0ADBCDE8 
 270      1BFD
 271 0038 FE8BDFC0 		.ascii	"\376\213\337\300\340\202\360\317\024\024p\265\007\244"
 271      E082F0CF 
 271      141470B5 
 271      07A4
 272 0046 593E325F 		.ascii	"Y>2_\024+^\347L7D\"k\356(S\26579\315=e#n\251$\342\216"
 272      142B5EE7 
 272      4C374422 
 272      6BEE2853 
 272      B53739CD 
 273 0062 4A233E50 		.ascii	"J#>Pg\021\367T-\342#U\017\344\033\325\360\034\217\311"
 273      6711F754 
 273      2DE22355 
 273      0FE41BD5 
 273      F01C8FC9 
 274 0076 57AA19F4 		.ascii	"W\252\031\364B\265\202\336\251v\3203\325\011z\242\262"
 274      42B582DE 
 274      A976D033 
ARM GAS  /tmp/ccAPbLn4.s 			page 21


 274      D5097AA2 
 274      B2
 275 0087 A00FAA1B 		.ascii	"\240\017\252\033\364I\365N\262hc\372\375\347\262\205"
 275      F449F54E 
 275      B26863FA 
 275      FDE7B285 
 276 0097 C5319BB8 		.ascii	"\3051\233\270-\323\235g\276\034Zv|m\273X\254~]f\230"
 276      2DD39D67 
 276      BE1C5A76 
 276      7C6DBB58 
 276      AC7E5D66 
 277 00ac AE0F7D6B 		.ascii	"\256\017}k\201\311\345\240\214\237\242\350\333\304M"
 277      81C9E5A0 
 277      8C9FA2E8 
 277      DBC44D
 278 00bb 976349E6 		.ascii	"\227cI\346\177\247\225Sb\342\266\324z\276n\234\037\267"
 278      7FA79553 
 278      62E2B6D4 
 278      7ABE6E9C 
 278      1FB7
 279 00cd E11FCDA1 		.ascii	"\341\037\315\241r\203"
 279      7283
 280              		.text
 281              		.section	.gnu.lto_.refs.cb37a3282586a0b5,"",%progbits
 282 0000 789C6362 		.ascii	"x\234cb`b\020e\200\000FF\006&ffF&\240\020\023#\013\020"
 282      60621065 
 282      80004646 
 282      06266666 
 282      4626A010 
 283 0018 B3025900 		.ascii	"\263\002Y\000\004[\000:"
 283      045B003A 
 284              		.text
 285              		.section	.gnu.lto_.decls.cb37a3282586a0b5,"",%progbits
 286 0000 789CBD7D 		.ascii	"x\234\275}yt\024\307\265ww\317*$\026/q0&\366$/\376>"
 286      797414C7 
 286      B57777CF 
 286      2A24162F 
 286      713026F6 
 287 0018 9FBC1881 		.ascii	"\237\274\030\201\355$N\316\373\022\203$@\237\331\216"
 287      ED244ECE 
 287      FB128324 
 287      409FD98E 
 288 0028 2492F88F 		.ascii	"$\222\370\217w\306\2034\202\211\265yf\304\362\336;'"
 288      77C68334 
 288      8289B579 
 288      66C4F2DE 
 288      3B27
 289 003a C36261E3 		.ascii	"\303ba\343%,\306\210\000b16\030\263\011\001B``\300\016"
 289      252CC688 
 289      00623136 
 289      18B30901 
 289      426060C0 
 290 004f 02638301 		.ascii	"\002c\203\001c\314f\004\006\302bv#\261\353\273u\273"
 290      63CC6604 
 290      06C26276 
 290      23B1EBBB 
 290      75BB
ARM GAS  /tmp/ccAPbLn4.s 			page 22


 291 0061 7BBABAA6 		.ascii	"{\272\272\246\273\247z\374\3367\347\364\235\232R\327"
 291      BBA77AFC 
 291      DE37E7F4 
 291      9D9A52D7 
 292 0071 AFEEBD75 		.ascii	"\257\356\275u\353\326\255\252\356\222$H\302\213NAh\207"
 292      EBD6ADAA 
 292      EE922448 
 292      C28B4E41 
 292      6887
 293 0083 4F73AD20 		.ascii	"Os\255 \224v\021\204\016\202 \374\036\256\373\340\202"
 293      94761184 
 293      0E8220FC 
 293      1EAEFBE0 
 293      82
 294 0094 3F09F3E1 		.ascii	"?\011\363\341Z\000\327b\270>\204k)\\\313\341Z\001W="
 294      5A00D762 
 294      B83E846B 
 294      295CCBE1 
 294      5A01573D 
 295 00a8 5CABE05A 		.ascii	"\\\253\340Z\015\327i\270\316\303\365\035\\\027\311}"
 295      0DD769B8 
 295      CEC3F51D 
 295      5C17C97D 
 296 00b8 922034C2 		.ascii	"\222 4\302%(X\033!}\001\256\377\355\020\204/\341:\004"
 296      2528581B 
 296      217D01AE 
 296      FFED1084 
 296      2FE13A04 
 297 00cc D749B8CE 		.ascii	"\327I\270\316\301u\035.\027T\226\011W\026\\\335\340"
 297      C1751D2E 
 297      17549609 
 297      57165CDD 
 297      E0
 298 00dd 7A04AE41 		.ascii	"z\004\256Ap\025\301\365g\270\212\341\022\001g\270S\320"
 298      7015C1F5 
 298      67B88AE1 
 298      120167B8 
 298      53D0
 299 00ef 7D086E26 		.ascii	"}\010n&\251\003\362;\301w\226\302w\010H9\\\177\201\253"
 299      A903F23B 
 299      C17796C2 
 299      77084839 
 299      5C7F81AB 
 300 0103 02AE8E70 		.ascii	"\002\256\216pU\302U\245\224w*e\273)u\222\272\011\273"
 300      55C255A5 
 300      94772A65 
 300      BB297592 
 300      BA09BB
 301 0116 67809C93 		.ascii	"g\200\234\223\364u\020\276\037TdR\353\370\011\334\377"
 301      F47510BE 
 301      1F546452 
 301      EBF809DC 
 301      FF
 302 0127 A443C6B9 		.ascii	"\244C\306\271\004\371\016H\267\301w+\\a\247^o\335\341"
 302      04F90E48 
 302      B7C1772B 
 302      5C61A75E 
ARM GAS  /tmp/ccAPbLn4.s 			page 23


 302      6FDDE1
 303 013a 7704AEA8 		.ascii	"w\004\256\250S\323\341&I\226G\202r\016\245\016\"3\341"
 303      53D3E126 
 303      49964782 
 303      720EA50E 
 303      2233E1
 304 014d 89FC7E1C 		.ascii	"\211\374~\034\310\2778\222\345%\372\353&\310u\323\274"
 304      C8BF3892 
 304      E525FAEB 
 304      26C875D3 
 304      BC
 305 015e 101E562B 		.ascii	"\020\036V+r\251\372'u\2226X\006W5\244\207\3025\322)"
 305      72A9FA27 
 305      75923658 
 305      065735A4 
 305      87C235D2 
 306 0173 F33418BE 		.ascii	"\3634\030\276G\3015Z\341KmK\302\227K\324\332\230\340"
 306      47C1355A 
 306      E14B6D4B 
 306      C2974BD4 
 306      DA98E0
 307 0186 3540DE1A 		.ascii	"5@\336\032\270\326\302\325$\311y\204\217\"\245\215\010"
 307      B8D6C2D5 
 307      24C97984 
 307      8F22A58D 
 307      08
 308 0197 CF2EC8DB 		.ascii	"\317.\310\333\005y\273\341\372\034\256=\006\274\223"
 308      0579BBE1 
 308      FA1CAE3D 
 308      06BC93
 309 01a6 76EFC2F0 		.ascii	"v\357\302\360\256\352E\255\217\324OxTmJ\345\225\360"
 309      AEEA45AD 
 309      8FD44F78 
 309      546D4AE5 
 309      95F0
 310 01b8 44E458AA 		.ascii	"D\344X\252\350\255I\321\023\301$\365\017R\332\357k\203"
 310      E8AD49D1 
 310      13C124F5 
 310      0F52DAEF 
 310      6B83
 311 01ca 7A0F29F5 		.ascii	"z\017)\365\321\365^R\344T\353Wmw\223\244\325\363\037"
 311      D1F55E52 
 311      E454EB57 
 311      6D7793A4 
 311      D5F31F
 312 01dd 907F91A9 		.ascii	"\220\177\221\251\357\220C\263eR\315q\370\335\002\327"
 312      EF9043B3 
 312      6552CD71 
 312      F8DD02D7 
 313 01ed 09837A89 		.ascii	"\011\203z\211}\223\262\273\025{\022\225<\366C\372\200"
 313      7D93B2BB 
 313      157B1295 
 313      3CF643FA 
 313      80
 314 01fe 6AB76C9B 		.ascii	"j\267l\233\022\273\"\272Um\353?!\377\337\340\367\013"
 314      12BB22BA 
 314      556DEB3F 
ARM GAS  /tmp/ccAPbLn4.s 			page 24


 314      21FFDFE0 
 314      F70B
 315 0210 4ECD7E24 		.ascii	"N\315~$\005\203\364\023\002\177\031\310U\270\2560u]"
 315      0583F413 
 315      027F19C8 
 315      55B8AE30 
 315      755D
 316 0222 57F8B944 		.ascii	"W\370\271D\361s]\261?\011\312\336s(LP\037\322/\275\202"
 316      F1735DB1 
 316      3F09CADE 
 316      73284C50 
 316      1FD22FBD 
 317 0237 C68BCFA9 		.ascii	"\306\213\317\251\361\362_\220.q\312\274\322\274\270"
 317      F1F25F90 
 317      2E71CABC 
 317      D2BCB8
 318 0246 A8FE9AC1 		.ascii	"\250\376\232\301\340e\012\223b\261q\261y5\261\376\333"
 318      E0650A93 
 318      62B171B1 
 318      7935B1FE 
 318      DB
 319 0257 3BDD274C 		.ascii	";\335'L\216\301\307W\333)Cx\225d\267\274\027\353\332"
 319      8EC1C757 
 319      DB294378 
 319      9564B7BC 
 319      17EBDA
 320 026a 15041103 		.ascii	"\025\004\021\003\"dy1\221\225\201@\217\013\013\341V"
 320      22647931 
 320      91958140 
 320      8F0B0BE1 
 320      56
 321 027b B85F0A88 		.ascii	"\270_\012\210\357\212\031P\221$&\253\222|\344\277\377"
 321      EF8A1950 
 321      912426AB 
 321      927CE4BF 
 321      FF
 322 028c 42F840BE 		.ascii	"B\370@\276\377\004{\033\001%wh\251v1Q\347\010\265\316"
 322      FF047B1B 
 322      01257768 
 322      A9763151 
 322      E708B5CE 
 323 02a0 8E0AD602 		.ascii	"\216\012\326\002\361>L!\2071\205q\274C)\341SK8\225\022"
 323      F13E4C21 
 323      87318571 
 323      BC4329E1 
 323      534B3895 
 324 02b5 8B105B50 		.ascii	"\213\020[P\263\023\211,\252~\243r\363\305L\225EJ\035"
 324      B313892C 
 324      AA7EA372 
 324      F3C54C95 
 324      454A1D
 325 02c8 B59D2CF4 		.ascii	"\265\235,\3641\271e\343\274\233R,\346\015\210\213Q'"
 325      31B965E3 
 325      BC9B522C 
 325      E60D888B 
 325      5127
 326 02da FD44007A 		.ascii	"\375D\000z_\374EB\025\012/\364o\365\006\002\226P\203"
ARM GAS  /tmp/ccAPbLn4.s 			page 25


 326      5FFC4542 
 326      150A2FF4 
 326      6FF50602 
 326      965083
 327 02ed A20593E6 		.ascii	"\242\005\223\346\221\325\244\260\001.R\341\343I\005"
 327      91D5A4B0 
 327      012E52E1 
 327      E34905
 328 02fc 74A96D1D 		.ascii	"t\251m\035-3\321\321/S\350\350CMG<\254\306\022\254\372"
 328      2D33D1D1 
 328      2F53E8E8 
 328      434D473C 
 328      ACC612AC 
 329 0311 148015B6 		.ascii	"\024\200\025\266Y]i\302\352c)X]n\217\325\033\011V\263"
 329      595D69C2 
 329      EA632958 
 329      5D6E8FD5 
 329      1B0956B3 
 330 0325 158055B6 		.ascii	"\025\200U\266Ym0a\265G\012V\353MX\275_\230\202\254n"
 330      596D3061 
 330      B5470A56 
 330      EB4D58BD 
 330      5F9882AC 
 331 033a D76C30F6 		.ascii	"\327l0\366/j\341\225N\315\012\233\266]\350\205V\270"
 331      2F6AE195 
 331      4ECD0A9B 
 331      B65DE885 
 331      56B8
 332 034c 46BC1FAC 		.ascii	"F\274\037\2540&\352\31505\016\341b\035\224\225K\311"
 332      3026EACD 
 332      30350EE1 
 332      621D9495 
 332      4BC9
 333 035e 7D3DBE61 		.ascii	"}=\276a[V\314)\347\013:<\335\347\247\302<\3408\276q"
 333      5B56CC29 
 333      E70B3A3C 
 333      DDE7A7C2 
 333      3CE038BE 
 334 0373 DB063156 		.ascii	"\333\0061V\223\245v\204\032d\201\0245\352<\011\005Q"
 334      93A57684 
 334      1A648114 
 334      35EA3C09 
 334      0551
 335 0385 5AD1C36D 		.ascii	"Z\321\303m\332\226\271\362E\025\354-\333`^\035\330\027"
 335      DA96B9F2 
 335      4515EC2D 
 335      DB605E1D 
 335      D817
 336 0397 34D854DB 		.ascii	"4\330T\333`]t`{i\260Z\333`]u`_\322`sm\203\371t`_\321"
 336      605D7460 
 336      7B69B05A 
 336      DB605D75 
 336      605FD260 
 337 03b3 60EFD906 		.ascii	"`\357\331\006{B\007\366uM\326\027/*~0V\023{bq'J\037"
 337      7B4207F6 
 337      754DD617 
 337      2F2A7E30 
ARM GAS  /tmp/ccAPbLn4.s 			page 26


 337      56137B62 
 338 03cb 4A7149B3 		.ascii	"JqI\263\300\215+\2678\320\002\233\261\366\345\"\353"
 338      C08D2BB7 
 338      38D0029B 
 338      B1F6E522 
 338      EB
 339 03dc 081D8C23 		.ascii	"\010\035\214#t\350\035\241#CK\264\267\343@\326\300J"
 339      74E81DA1 
 339      23434BB4 
 339      B7E340D6 
 339      C04A
 340 03ee A0ABD748 		.ascii	"\240\253\327H\202\236\264\004\320)\276z\2716\026\037"
 340      829EB404 
 340      D029BE7A 
 340      B936161F 
 341 03fe E750995A 		.ascii	"\347P\231Z\313\003\3505\267\311\3335o<\034\233\267U"
 341      CB03E835 
 341      B7C9DB35 
 341      6F3C1C9B 
 341      B755
 342 0410 54B422F7 		.ascii	"T\264\"\367Q\343^\255j\345{et\330\205\014\304\223\264"
 342      51E35EAD 
 342      6AE57B65 
 342      74D8850C 
 342      C493B4
 343 0423 E261B4E2 		.ascii	"\342a\264\342\321k\305\223\241%\310,\2413\321\3136V"
 343      D16BC593 
 343      A125C82C 
 343      A133D1CB 
 343      3656
 344 0435 0C5DCD46 		.ascii	"\014]\315Fb\350\314\244\245\251\346\330Xq\312\370\330"
 344      62E8CCA4 
 344      A5A9E6D8 
 344      5871CAF8 
 344      D8
 345 0446 F69E2A5F 		.ascii	"\366\236*_{x\020\273\230+\346\235\346\254\311\001\025"
 345      7B7810BB 
 345      982BE69D 
 345      E6ACC901 
 345      15
 346 0457 EC886D30 		.ascii	"\354\210m0\275\025\327\322`\247x\300\272\232s\366w\032"
 346      BD15D7D2 
 346      60A778C0 
 346      BA9A73F6 
 346      771A
 347 0469 ECBC6D30 		.ascii	"\354\274m0=g\263i\260k<`>s\316\352h\260\333\266\301"
 347      3D67B369 
 347      B06B3C60 
 347      3E73CEEA 
 347      68B0DBB6 
 348 047e F49CADA4 		.ascii	"\364\234\255\244\301\306K\034`O\230s\266\212\006{\303"
 348      C1C64B1C 
 348      604F9873 
 348      B68A067B 
 348      C3
 349 048f 3618CD59 		.ascii	"6\030\315Y,\276\2469\023F\005z\314]L\205\007\011\260"
 349      2CBEA639 
ARM GAS  /tmp/ccAPbLn4.s 			page 27


 349      1346057A 
 349      CC5D4C85 
 349      0709B0
 350 04a2 983A087D 		.ascii	"\230:\010}k{\320=i2\350\266\253\321\267$\274\315\012"
 350      6B7BD03D 
 350      6932E8B6 
 350      ABD1B724 
 350      BCCD0A
 351 04b5 C154ACA4 		.ascii	"\301T\254\244{\032\350\304\350C\017\225\001\261I|\034"
 351      7B1AE8C4 
 351      E8430F95 
 351      01B1497C 
 351      1C
 352 04c6 E87AF1A7 		.ascii	"\350z\361\247@?B\272\011i\034\351V\244\237 \335\206"
 352      403F42BA 
 352      09691CE9 
 352      56A49F20 
 352      DD86
 353 04d8 7427D2CF 		.ascii	"t'\322\317\221\356E\372%\322\257\220~\215\364\020\322"
 353      91EE45FA 
 353      25D2AF90 
 353      7E8DF410 
 353      D2
 354 04e9 2348BF41 		.ascii	"#H\277A\332\202\364\004\320\304\307L!\253M\242\211D"
 354      DA82F404 
 354      D0C4C74C 
 354      21AB4DA2 
 354      8944
 355 04fb 501B4F11 		.ascii	"P\033O\021\324\306\247\327t\21699b\340\200x\006\205"
 355      D4C6A7D7 
 355      748E3939 
 355      62E08078 
 355      0685
 356 050d 7F97896A 		.ascii	"\177\227\211j\223\243{\030)%\326\367\275\313\306\306"
 356      93A37B18 
 356      2925D6F7 
 356      BDCBC6C6 
 357 051d A961CC44 		.ascii	"\251a\314D>m/\326\233\234\210\365~\246\000|g\333\354"
 357      3E6D2FD6 
 357      9B9C88F5 
 357      7EA6007C 
 357      67DBEC
 358 0530 2E98989D 		.ascii	".\230\230\235\332@f\345\316\333\210\365D\332]*C\312"
 358      DA4066E5 
 358      CEDB88F5 
 358      44DA5D2A 
 358      43CA
 359 0542 DDBD4B7B 		.ascii	"\335\275K{\340\220r\011C\275e\214ZS\302H\302\032,r\225"
 359      E0907209 
 359      43BD658C 
 359      5A53C248 
 359      C21A2C72 
 360 0557 8DF6A604 		.ascii	"\215\366\246\004|rn\352Xo\372\374\035bljV*\376\3479"
 360      7C726EEA 
 360      586FFAFC 
 360      1D626C6A 
 360      562AFEE7 
ARM GAS  /tmp/ccAPbLn4.s 			page 28


 361 056c D48A9FD1 		.ascii	"\324\212\237\321\370o\233\366\311S\310\177\033\362\177"
 361      F86F9BF6 
 361      C953C87F 
 361      1BF27F
 362 057b 3535FF7A 		.ascii	"55\377z\030\302\335-\226\367\375\315\030\251\336\342"
 362      18C2DD2D 
 362      96F7FDCD 
 362      18A9DEE2 
 363 058b E2FEE8C4 		.ascii	"\342\376\350\304\2718\214\033\261\0177\210\264\352t"
 363      B9388C1B 
 363      B10F3788 
 363      B4EA74
 364 059a F31749B8 		.ascii	"\363\027I\270\003\334\032iXw[@l\027%\2401\211\341\262"
 364      03DC1A69 
 364      58775B40 
 364      6C1725A0 
 364      3189E1B2 
 365 05ae 61227249 		.ascii	"a\"rI\362Ss\271\2469Y\307\017\011\323\025\353\214\211"
 365      F25373B9 
 365      A63959C7 
 365      0F09D315 
 365      EB8C89
 366 05c1 51AF3011 		.ascii	"Q\2570\021\373\347+\261\261\342\313\251\347\354\257"
 366      FBE72BB1 
 366      B1E2CBA9 
 366      E7ECAF
 367 05d0 485E10E0 		.ascii	"H^\020\3405\207\351\244\235\334\240\032\256\234VS\026"
 367      3587E9A4 
 367      9DDCA01A 
 367      AE9C5653 
 367      16
 368 05e1 1D6F82F4 		.ascii	"\035o\202\364\020\246\034\030BA\306\0372\201\014\325"
 368      10A61C18 
 368      4241C61F 
 368      32810CD5 
 369 05f1 163ECC0A 		.ascii	"\026>\314\012\216\227\022\335@\022\376\346\020\025}"
 369      8E9712DD 
 369      4012FEE6 
 369      10157D
 370 0600 590C323A 		.ascii	"Y\0142:<\235\256b\253b\261\014\267\214)\011\263l\203"
 370      3C9DAE62 
 370      AB62B10C 
 370      B78C2909 
 370      B36C83
 371 0613 F9CCC116 		.ascii	"\371\314\301\026\363\200\231\207\214z\260\225\266\301"
 371      F3809987 
 371      8C7AB095 
 371      B6C1
 372 0621 0C383337 		.ascii	"\014837\010\271\261\314\024>\325\240\245\2244\177<\333"
 372      08B9B1CC 
 372      143ED5A0 
 372      A594347F 
 372      3CDB
 373 0633 36EB1F5B 		.ascii	"6\353\037[D\230\017\300\037\246K$<hq\350\273/?T\303"
 373      44980FC0 
 373      1FA64B24 
 373      3C6871E8 
ARM GAS  /tmp/ccAPbLn4.s 			page 29


 373      BB2F3F54 
 374 0648 DC8F7E8B 		.ascii	"\334\217~\213~\240\026\201\352\234?<4\266\177\273\242"
 374      7EA01681 
 374      EA9C3F3C 
 374      34B67FBB 
 374      A2
 375 0659 00E36132 		.ascii	"\000\343a2\345\332O\333\254e\377\212\"\314A\021>p\032"
 375      E5DA4FDB 
 375      AC65FF8A 
 375      22CC4111 
 375      3E701A
 376 066c EA8203A8 		.ascii	"\352\202\003\250an\335\263\0104\017\201\352\223tas\025"
 376      616EDDB3 
 376      08340F81 
 376      EA937461 
 376      7315
 377 067e C9CEBD66 		.ascii	"\311\316\275f\3662[\353\240\264\325\220f\307\004G\037"
 377      F6325BEB 
 377      A0B4D590 
 377      66C70447 
 377      1F
 378 068f 9F42F7F1 		.ascii	"\237B\367\361\015N\016\3437\237c\300\270q\241\327\314"
 378      0D4E0EE3 
 378      379F63C0 
 378      B871A1D7 
 378      CC
 379 06a0 587C8223 		.ascii	"X|\202#\335\016\260\310\274\003$\304\262\264\007\363"
 379      DD0EB0C8 
 379      BC0324C4 
 379      B2B407F3 
 380 06b0 B02920D6 		.ascii	"\260) \326I\217\247\257\352\017\177\270\252\337\247"
 380      498FA7AF 
 380      EA0F7FB8 
 380      AADFA7
 381 06bf 551DB7AD 		.ascii	"U\035\267\255j\037\255j\275\323\332\306\003f>\003\373"
 381      6A1FAD6A 
 381      BDD3DAC6 
 381      03663E03 
 381      FB
 382 06d0 614EABC1 		.ascii	"aN\253\301\274\315\014G\357\347(\247\363\034\355Q\225"
 382      BCCD0C47 
 382      EFE728A7 
 382      F31CED51 
 382      95
 383 06e1 8EB6F6F4 		.ascii	"\216\266\366\364e\017v\264F\211\004\0375.\303\340\303"
 383      650F76B4 
 383      4689041F 
 383      352EC3E0 
 383      C3
 384 06f2 1C86B0B0 		.ascii	"\034\206\260\260\236\035\326\333\202>97\365\240~\363"
 384      9E1DD6DB 
 384      823E3937 
 384      F5A07EF3 
 385 0702 3D1CD455 		.ascii	"=\034\324U\357\371\016\326\277>\335q/~+H\346\3602\326"
 385      EFF90ED6 
 385      BF3EDD71 
 385      2F7E2B48 
ARM GAS  /tmp/ccAPbLn4.s 			page 30


 385      E6F032D6 
 386 0716 5CDB583E 		.ascii	"\\\333X>#F\205$)\003\342\0064\356\217$\234\333H\034"
 386      23468524 
 386      2903E206 
 386      34EE8F24 
 386      9CDB481C 
 387 072a 3390B53A 		.ascii	"3\220\265:\203\3462\340U\264\001/r\331\2659V\026\265"
 387      83E632E0 
 387      55B4012F 
 387      72D9B539 
 387      5616B5
 388 073d 2102E238 		.ascii	"!\002\3428d{\022\3227\220\276\205t2\322\367\220\256"
 388      647B12D2 
 388      3790BE85 
 388      7432D2F7 
 388      90AE
 389 074f 405ACF23 		.ascii	"@Z\317#\332]\221\342s%\362y\313zrl\336~-m\373\332z\315"
 389      DA5D91E2 
 389      7325F279 
 389      CB7A726C 
 389      DE7E2D6D 
 390 0767 88C5C73A 		.ascii	"\210\305\307:<B\215\034\313\215K5T\200\005\273\321\202"
 390      3C428D1C 
 390      CB8D4B35 
 390      548005BB 
 390      D182
 391 0779 3F963CC0 		.ascii	"?\226<\300\301j\306\2029\200\210\024\333\240\260\316"
 391      C16AC682 
 391      39808814 
 391      DBA0B0CE 
 392 0789 869BC6F8 		.ascii	"\206\233\306\370\344\\\013\033\306\216'\011\233]\362"
 392      E45C0B1B 
 392      C68E2709 
 392      9B5DF2
 393 0798 7CC299A1 		.ascii	"|\302\231\241\345}\252\345\211\324\255\373\264l\211"
 393      E57DAAE5 
 393      89D4ADFB 
 393      B46C89
 394 07a7 CAFE46CB 		.ascii	"\312\376F\313vP\331\027\264l'\225\335\256e\273\250\354"
 394      7650D917 
 394      B46C2795 
 394      DDAE65BB 
 394      A8EC
 395 07b9 D7DC896C 		.ascii	"\327\334\211l7\225=]\313\366P\331\363\265l/\325\"\226"
 395      37953D5D 
 395      CBF650D9 
 395      F3B56C2F 
 395      D52296
 396 07cc 03A7A6A4 		.ascii	"\003\247\246\244"
 397 07d0 80D88C5D 		.ascii	"\200\330\214]`\273\3440,\006\32307c\011\266\226nch\011"
 397      60BBE430 
 397      2C06D330 
 397      376309B6 
 397      966E6368 
 398 07e5 63C9E8A6 		.ascii	"c\311\350\246\316X\311\354\223tl\3039\034\341\356\210"
 398      CE58C9EC 
 398      93746CC3 
ARM GAS  /tmp/ccAPbLn4.s 			page 31


 398      391CE1EE 
 398      88
 399 07f6 6477C67A 		.ascii	"dw\306zT2\236\261j\353$\015\254\024\372jS\205\273\270"
 399      54329EB1 
 399      6AEB240D 
 399      AC14FA6A 
 399      5385BBB8 
 400 080a 544C460E 		.ascii	"TLF\016\302\233$4r\241\245\032:T\377\266\201E\263\271"
 400      C29B2434 
 400      72A1A51A 
 400      3A54FFB6 
 400      8145B3B9 
 401 081e AAD53671 		.ascii	"\252\3256q\016\357\254\357E\025.+\321\357\3427\267\211"
 401      0EEFACEF 
 401      45152E2B 
 401      D1EFE237 
 401      B789
 402 0830 3E83999F 		.ascii	">\203\231\237\356\326\200x\032\314$\325]\270l\302\216"
 402      EED68078 
 402      1ACC24D5 
 402      5DB86CC2 
 402      8E
 403 0841 219BE5AD 		.ascii	"!\233\345\255\2263\\\243\310\201\032sQt\323\322\304"
 403      96335CA3 
 403      C8811A73 
 403      5174D3D2 
 403      C4
 404 0852 C4B96742 		.ascii	"\304\271gB\220\226\332\326\313\177A\007\362\035\016"
 404      9096DAD6 
 404      CB7F4107 
 404      F21D0E
 405 0861 81AF7952 		.ascii	"\201\257yR\257\037\350`\002\342E\211\314n/\261\"\\\237"
 405      AF1FE860 
 405      02E24589 
 405      CC6E2FB1 
 405      225C9F
 406 0874 85225CE2 		.ascii	"\205\"\\\342\022\341\356\341\272\037\307Z\342\"\277"
 406      12E1EEE1 
 406      BA1FC75A 
 406      E222BF
 407 0883 E33B702B 		.ascii	"\343;p+\336m<\316<\256\242\347\333\346I\313\363]g=\337"
 407      DE6D3CCE 
 407      3CAEA2E7 
 407      DBE649CB 
 407      F35D673D 
 408 0898 1AB2D625 		.ascii	"\032\262\326%\347\247\366}{<\311\276\357\210\307\320"
 408      E7A7F67D 
 408      7B3CC9BE 
 408      EF88C7D0 
 409 08a8 F79DF218 		.ascii	"\367\235\362\030\372\276K\036C\337w\313\243\367}\002"
 409      FABE4B1E 
 409      43DF77CB 
 409      A3F77D02 
 410 08b8 877FBA4E 		.ascii	"\207\177\272N\371\247V\364Om&\376) \036J\264\031\257"
 410      F9A756F4 
 410      4F6D26FE 
 410      29201E4A 
ARM GAS  /tmp/ccAPbLn4.s 			page 32


 410      B419AF
 411 08cb 7FD2B557 		.ascii	"\177\322\265W\313\314\326/Fo\202\376\370\232;\315\376"
 411      CBCCD62F 
 411      466F82FE 
 411      F89A3BCD 
 411      FE
 412 08dc 73F8304F 		.ascii	"s\3700O\377\231\340\340\353?5\016\306\370f\034F\343"
 412      FF99E0E0 
 412      EB3F350E 
 412      C6F8661C 
 412      46E3
 413 08ee 23F9A98D 		.ascii	"#\371\251\215o\356\341\272\344\376\303D\245\277\377"
 413      6FEEE1BA 
 413      E4FEC344 
 413      A5BFFF
 414 08fd 91A91F9D 		.ascii	"\221\251\037\235\344`\202\322\363\022\307\242\207\242"
 414      E46082D2 
 414      F312C7A2 
 414      87A2
 415 090b 87BB7F7F 		.ascii	"\207\273\177\177\2200\372\232\203\304\326\023\275z\033"
 415      9030FA9A 
 415      83C4D613 
 415      BD7A1B
 416 091a D6312457 		.ascii	"\3261$Wd\306\304[\216L\0239\223\376\006\203\"\326C\224"
 416      64C6C45B 
 416      8E4C1339 
 416      93FE0683 
 416      22D64394 
 417 092e 935E9CD9 		.ascii	"\223^\234\331d\2440\203vjI8\370\356\011\211[n.\330s"
 417      64A43083 
 417      766A4938 
 417      F8EE0989 
 417      5B6E2ED8 
 418 0943 4FAC8FC5 		.ascii	"O\254\217\305\272\004\304\251\016\342r\276\362\246t"
 418      BA04C4A9 
 418      0EE272BE 
 418      F2A674
 419 0952 397A209C 		.ascii	"9z \234\014\261-\336\320\276]D?6=u\233O\030\037ol\337"
 419      0CB12DDE 
 419      D0BE5D44 
 419      3F363D75 
 419      9B4F181F 
 420 0969 2EE1F411 		.ascii	".\341\364\021\307\313\361\226+\024\001\361\035\354N"
 420      C7CBF196 
 420      2B1401F1 
 420      1DEC4E
 421 0978 3C9B71DF 		.ascii	"<\233q\337\2420\323\323S-\360\265\216\210Af\004\265"
 421      A230D3D3 
 421      532DF0B5 
 421      8E884166 
 421      04B5
 422 098a 0EE228FE 		.ascii	"\016\342(\376i\033\316\247\203[\257\207;\317\003g6\236"
 422      691BCEA7 
 422      835BAF87 
 422      3BCF0367 
 422      369E
 423 099c 03DC477A 		.ascii	"\003\334Gz\270K\266\341\364\334m\322\303]\343\2013["
ARM GAS  /tmp/ccAPbLn4.s 			page 33


 423      B84BB6E1 
 423      F4DC6DD2 
 423      C35DE381 
 423      335B
 424 09ae 1200B82F 		.ascii	"\022\000\270/\364p7l\303\351\271\333\253\207\273\303"
 424      F470376C 
 424      C3E9B9DB 
 424      AB87BBC3 
 425 09be 036714BD 		.ascii	"\003g\024\275\030}h\003\006\363r\020\363\232\341 \263"
 425      187D6803 
 425      06F37210 
 425      F39AE120 
 425      B3
 426 09cf 8EBF239D 		.ascii	"\216\277#\235\215\264\016\351<\244\013\220.t\244\230"
 426      8DB40EE9 
 426      3CA40B90 
 426      2E74A498 
 427 09df 93289D6C 		.ascii	"\223(\235l\332\222=\217\255\303>6\005=Ks\206\245g\231"
 427      DA923D8F 
 427      ADC33E36 
 427      053D4B73 
 427      86A56799 
 428 09f3 6A221561 		.ascii	"j\"\025at\261\205gY\314z\226\275\031v=\013\245s\034"
 428      74B18567 
 428      59CC7A96 
 428      BD19763D 
 428      0BA5731C 
 429 0a07 57E2151B 		.ascii	"W\342\025\033W\306b\257\270\371\0375h\233\325\370K\354"
 429      57C662AF 
 429      B8F91F35 
 429      689BD5F8 
 429      4BEC
 430 0a19 F91F623B 		.ascii	"\371\037b;\035dD\345\007j\230\273H^\202\\\216@'\030"
 430      1D6444E5 
 430      076A98BB 
 430      485E825C 
 430      8E402718 
 431 0a2d 20FBCF2C 		.ascii	" \373\317,\330\272\031&<\254\362\354=\217\000\312kQ"
 431      D8BA1926 
 431      3CACF2EC 
 431      3D8F00CA 
 431      6B51
 432 0a3f 94A7EAE2 		.ascii	"\224\247\352\342\232m\304.Im,\233\350D4\321W\321\010"
 432      9A6DC42E 
 432      496D2C9B 
 432      E84434D1 
 432      57D108
 433 0a52 27235D82 		.ascii	"'#]\202t\025m\220\222\320\226\2443y\010\246\360\264"
 433      74156D90 
 433      92D096A4 
 433      337908A6 
 433      F0B4
 434 0a64 B15A488D 		.ascii	"\261ZH\215hf\224\343\034\324\264{l\007Q\037\314\330"
 434      686694E3 
 434      1CD4B47B 
 434      6C07511F 
 434      CCD8
ARM GAS  /tmp/ccAPbLn4.s 			page 34


 435 0a76 33BA78DD 		.ascii	"3\272x\3357Y\223\003)7\257\234*R\256f1\365\253\266t"
 435      37599303 
 435      2937AF9C 
 435      2A52AE66 
 435      31F5ABB6 
 436 0a8b 5D8FDD6C 		.ascii	"]\217\335l\035\016e[:\244\336\275\322\341\300T\031\213"
 436      1D0E655B 
 436      3AA4DEBD 
 436      D2E1C054 
 436      198B
 437 0a9d 6C6086B3 		.ascii	"l`\206\263\226\203k\217?R\213\310\033\270b\230\333F"
 437      96836B8F 
 437      3F528BC8 
 437      1BB86298 
 437      DB46
 438 0aaf 7300992D 		.ascii	"s\000\231-3\035nf;\357k\231*+\351\205\005\367\266\341"
 438      331D6E66 
 438      3BEF6B99 
 438      2A2BE985 
 438      05F7B6E1 
 439 0ac3 83029BD1 		.ascii	"\203\002\233\321\343L\266\015\246o\224i\315\263m>\\"
 439      E34CB60D 
 439      A66F9469 
 439      CDB36D3E 
 439      5C
 440 0ad4 736CFDD9 		.ascii	"sl\375\331\2077\242\312>A\343o\311dmQYA\325l\221gD?"
 440      8737A2CA 
 440      3E41E36F 
 440      C9646D51 
 440      5941D56C 
 441 0aec C32388F9 		.ascii	"\303#\210\371\034\030ZrO\367&\014\225\325\350\330m&"
 441      1C185A72 
 441      4FF7260C 
 441      95D5E8D8 
 441      6D26
 442 0afe 088CA858 		.ascii	"\010\214\250X\331\016\326\032\216m\336\363\244l\015"
 442      D90ED61A 
 442      8E6DDEF3 
 442      A46C0D
 443 0b0d 3BB8ACA1 		.ascii	";\270\254\241q\347\014\256\000m^b\243\362\347X}}\026"
 443      71E70CAE 
 443      006D5E62 
 443      A3F2E758 
 443      7D7D16
 444 0b20 A97E175B 		.ascii	"\251~\027[\375\355o\317\376^\256~\027W\365\365{\337"
 444      FDED6FCF 
 444      FE5EAE7E 
 444      1757F5F5 
 444      7BDF
 445 0b32 36324693 		.ascii	"62F\223\030Zm\276\315W\236\230\213\225\354E\003\272"
 445      185A6DBE 
 445      CD579E98 
 445      8B95EC45 
 445      03BA
 446 0b44 9DC536DF 		.ascii	"\235\3056\337\037\350UDA\331[\244\354wBG\225\373\264"
 446      1FE85544 
 446      41D95BA4 
ARM GAS  /tmp/ccAPbLn4.s 			page 35


 446      EC774247 
 446      95FBB4
 447 0b57 EC17C4DC 		.ascii	"\354\027\304\334\221\377\001\266\224\312\303D\333\210"
 447      91FF01B6 
 447      94CAC344 
 447      DB88
 448 0b65 7A235EBD 		.ascii	"z#^\275\027{\204\0146\211\007\314\342q\263\2654\330"
 448      177B840C 
 448      368907CC 
 448      E271B3B5 
 448      34D8
 449 0b77 9BB6C1F4 		.ascii	"\233\266\301\364\234\255\243\301&\363\200Y<\357\265"
 449      9CADA3C1 
 449      26F38059 
 449      3CEFB5
 450 0b86 9E069B66 		.ascii	"\236\006\233f\033L\317\331G4\330;<`\026\317{m\242\301"
 450      1B4CCFD9 
 450      4734D83B 
 450      3C6016CF 
 450      7B6DA2C1 
 451 0b9a FE6E1B4C 		.ascii	"\376n\033L\317\331\0274X\035\017\230\317\200\263\304"
 451      CFD91734 
 451      581D0F98 
 451      CF80B3C4 
 452 0baa C7CC2F7F 		.ascii	"\307\314/\177N\217m\363;\252\016\301\246M\013\032\306"
 452      4E8F6DF3 
 452      3BAA0EC1 
 452      A64D0B1A 
 452      C6
 453 0bbb 7B1DED7A 		.ascii	"{\035\355z0\235\334d,\352\276^\351\027\262s\377\220"
 453      309DDC64 
 453      2CEABE5E 
 453      E917B273 
 453      FF90
 454 0bcd 07D1C260 		.ascii	"\007\321\302`\224\307\360d\260\006\333`\214)7\263\303"
 454      94C7F064 
 454      B006DB60 
 454      8C2937B3 
 454      C3
 455 0bde 37D716DD 		.ascii	"7\327\026\335B\316G\225\314\232\351\002\335L\033xd\260"
 455      42CE4795 
 455      CC9AE902 
 455      DD4C1B78 
 455      64B0
 456 0bf0 B0D363CD 		.ascii	"\260\323c\315\263q\375\213\177\217\370\330\372=\312"
 456      B371FD8B 
 456      7F8FF8D8 
 456      FA3DCA
 457 0bff 68770547 		.ascii	"hw\005G\273\255\035Yw9\207\035\355RlGJ\302NV\012\243"
 457      BBAD1D59 
 457      7739871D 
 457      ED526C47 
 457      4AC24E56 
 458 0c15 5521F30E 		.ascii	"U!\363\016\002\206r\360\261\246\3450\235v\333\221c\207"
 458      028672F0 
 458      B1A6E530 
 458      9D76DB91 
ARM GAS  /tmp/ccAPbLn4.s 			page 36


 458      6387
 459 0c27 22472BCA 		.ascii	"\"G+\312\261\357\277A\216\303\266\345x\202\221c\313"
 459      B1EFBF41 
 459      8EC3B6E5 
 459      78829163 
 459      CB
 460 0c38 13F6E538 		.ascii	"\023\366\3458\250\310q\033\345\370\366\277A\216\363"
 460      A8C8711B 
 460      E5F8F6BF 
 460      418EF3
 461 0c47 B6E5A09F 		.ascii	"\266\345\240\237x\306\320\243\207\034z< L\265\016=\010"
 461      78C6D0A3 
 461      871C7A3C 
 461      204CB50E 
 461      3D08
 462 0c59 3F31E703 		.ascii	"?1\347\003\3725\225\203\237\212>9;\325\230\037\213\267"
 462      FA359583 
 462      9F8A3E39 
 462      3BD5981F 
 462      8BB7
 463 0c6b 7D4AC56B 		.ascii	"}J\305k1\276x\355\212\242\261\361\270(z\225\321\030"
 463      31BE78ED 
 463      8AA2B1F1 
 463      B8287A95 
 463      D118
 464 0c7d 3F52DBE1 		.ascii	"?R\333\341O\352\225\307Pj\020\352F\332P\015\307\032"
 464      4FEA95C7 
 464      506A10EA 
 464      46DA500D 
 464      C71A
 465 0c8f E5472F5E 		.ascii	"\345G/^C\240X'\266\025\335L#\272\365\215\010?IM7H\370"
 465      43A05827 
 465      B615DD4C 
 465      23BAF58D 
 465      083F494D 
 466 0ca6 28FE55C9 		.ascii	"(\376U\311!?<\302\377\367r\020r \373\244\001\323\211"
 466      213F3CC2 
 466      FFF77210 
 466      7220FBA4 
 466      01D389
 467 0cb9 88D0807E 		.ascii	"\210\320\200~\331\244x~\271\221\246\374 \304q\361\206"
 467      D9A4787E 
 467      B991A6FC 
 467      20C471F1 
 467      86
 468 0cca D7E5790A 		.ascii	"\327\345y\012Fo0$\377@\270=;\355\317\022\266t\223\255"
 468      466F3024 
 468      FF40B83D 
 468      3BEDCF12 
 468      B67493AD 
 469 0cde 6E2A0A34 		.ascii	"n*\0124?\251\205\323\232%,KW\220\304G\022Vw\342\030"
 469      3FA985D3 
 469      9A252C4B 
 469      5790C447 
 469      125677E2 
 470 0cf3 447C56AD 		.ascii	"D|V\255u\263\007\347L#1\177=\333u;*\243\326I\346\257"
 470      75B307E7 
ARM GAS  /tmp/ccAPbLn4.s 			page 37


 470      4C23317F 
 470      3DDB753B 
 470      2AA3D649 
 471 0d09 EB186570 		.ascii	"\353\030ep\314X\232\261\310,g\322\374u\317\303\362\224"
 471      CC589AB1 
 471      C82C67D2 
 471      FC75CFC3 
 471      F294
 472 0d1b 81FC8963 		.ascii	"\201\374\211c\306R\243\332\205<-\215;$\0056]}\352\232"
 472      C652A3DA 
 472      853C2D8D 
 472      3B240536 
 472      5D7DEA9A 
 473 0d2f 50E30FFC 		.ascii	"P\343\017\374\260\223\014\374uN\335\302\305\001\333"
 473      B0930CFC 
 473      754EDDC2 
 473      C501DB
 474 0d3e BAF7D1BA 		.ascii	"\272\367\321\272\217\337\3369[$\374\033L\262\236\243"
 474      8FDFDE39 
 474      5B24FC1B 
 474      4CB29EA3 
 475 0d4e 43AC84E2 		.ascii	"C\254\204\342\217?\274\003\3253\037\025\177\334D\361"
 475      8F3FBC03 
 475      D5331F15 
 475      7FDC44F1 
 476 0d5e A64F9E48 		.ascii	"\246O\236H\302\025,\2620Y\361;\272\311\212_\310\245"
 476      C2152CB2 
 476      3059F13B 
 476      BAC98A5F 
 476      C8A5
 477 0d70 F8FD868A 		.ascii	"\370\375\206\212_h_\361?U_:J\204v\001q\253m0\237U+."
 477      5F685FF1 
 477      3F555F3A 
 477      4A847601 
 477      71AB6D30 
 478 0d88 A45AF17D 		.ascii	"\244Z\361}l\305EN\262d\264X\337\226\343:3m\251\323\234"
 478      6CC5454E 
 478      B264B458 
 478      DF96E33A 
 478      336DA9D3 
 479 0d9d 9234DD1A 		.ascii	"\2224\335\032\216\305\247\355\232\255\250D\366yo\262"
 479      8EC5A7ED 
 479      9AADA844 
 479      F6796FB2 
 480 0dad 78465218 		.ascii	"xFR\030\275,\240\256/\355B\225\310\376f\232m0\237\016"
 480      BD2CA0AE 
 480      2FED4295 
 480      C8FE669A 
 480      6D309F0E 
 481 0dc1 6CE35B9C 		.ascii	"l\343[\234\233\275\314S\336uX\357J\326\\f\336\3363Q"
 481      9BBDCC53 
 481      DE7558EF 
 481      4AD65C66 
 481      DEDE3351 
 482 0dd5 1C8B43E7 		.ascii	"\034\213C\347J\016{\201q\376T\006.\212\313v\373u\002"
 482      4A0E7B81 
 482      71FE5406 
ARM GAS  /tmp/ccAPbLn4.s 			page 38


 482      2E8ACB76 
 482      FB7502
 483 0de8 D542D516 		.ascii	"\325B\325\026\326r\373\254\362\000\224<\025ha\341lN"
 483      D672FBAC 
 483      F200943C 
 483      156861E1 
 483      6C4E
 484 0dfa 91EF05B7 		.ascii	"\221\357\005\267\367L\347)\372\370\341&\022\3514\241"
 484      F74CE729 
 484      FAF8E126 
 484      12E934A1 
 485 0e0a 4C673AB3 		.ascii	"Lg:\263#\202\254\031\312\020WR\206\270\012\015\261\001"
 485      2382AC19 
 485      CA105752 
 485      86B80A0D 
 485      B101
 486 0e1c 0D710DD2 		.ascii	"\015q\015\322F\332\034\315\202\255uNj\372p\331\266\334"
 486      46DA1CCD 
 486      82AD754E 
 486      6AFA70D9 
 486      B6DC
 487 0e2e 3EA675CC 		.ascii	">\246u\314\252YAW\323\306c{\317\232\252\2278\365\337"
 487      AA594157 
 487      D3C6637B 
 487      CF9AAA97 
 487      38F5DF
 488 0e41 A9E180BC 		.ascii	"\251\341\200\274\3066\266\213]D\2755_yK\027\016\274"
 488      C636B68B 
 488      5D44BD35 
 488      5F794B17 
 488      0EBC
 489 0e53 C103F79C 		.ascii	"\301\003\367\234\001\203F\037zU5 n\304\005\354M\270"
 489      0183461F 
 489      7A553520 
 489      6EC405EC 
 489      4DB8
 490 0e65 C4BC05E9 		.ascii	"\304\274\005\351\307H\267#=\203\364\034\322\357\220"
 490      C748B723 
 490      3D83F41C 
 490      D2EF90
 491 0e74 5E467A1D 		.ascii	"^Fz\035\351-\244\355Hg`\023\317C\272\004\351R\244\313"
 491      E92DA4ED 
 491      48676013 
 491      CF43BA04 
 491      E952A4CB 
 492 0e88 916E421A 		.ascii	"\221nB\032Oe\000\312(pp\301\241\356K\321W7\242\371\177"
 492      4F6500CA 
 492      287070C1 
 492      A1EE4BD1 
 492      5737A2F9 
 493 0e9d D685B5BC 		.ascii	"\326\205\265\274\315\016f\315+i\321\366X\027\216\305"
 493      CD0E66CD 
 493      2B69D1F6 
 493      58178EC5 
 494 0ead 6F8BE5C9 		.ascii	"o\213\345\311\231\255g\306l\034'\267i\023\232u\275\223"
 494      99AD67C6 
 494      6C1C27B7 
ARM GAS  /tmp/ccAPbLn4.s 			page 39


 494      69139A75 
 494      BD93
 495 0ebf 793620F5 		.ascii	"y6 \365S?\372F=Zg\376B\205o\261\331\352cb{\370\370\207"
 495      533FFA46 
 495      3D5A67FE 
 495      42856FB1 
 495      D9EA6362 
 496 0ed7 E22A54CA 		.ascii	"\342*T\312v\354\216\247\031\245\244\004\"j\332\311\370"
 496      76EC8EA7 
 496      19A5A404 
 496      226ADAC9 
 496      F8
 497 0ee8 B978FD92 		.ascii	"\271x\375\222\035\362\366\360\316\324^n\302\370\370"
 497      1DF2F6F0 
 497      CED45E6E 
 497      C2F8F8
 498 0ef7 9A253B24 		.ascii	"\232%;$|WT\331\036\266\332=\002\013@\333J\275\301s\025"
 498      7C5754D9 
 498      1EB6DA3D 
 498      020B40DB 
 498      4ABDC173 
 499 0f0c 45D9A975 		.ascii	"E\331\251u\363\224o\260\322m\005A\322\222\263\242\362"
 499      F3946FB0 
 499      D26D0541 
 499      D292B3A2 
 499      F2
 500 0f1d 06ABBCBF 		.ascii	"\006\253\274\277\323j\033\260\213N\314&U\314\200\270"
 500      D36A1BB0 
 500      8B4ECC26 
 500      55CC80B8 
 501 0f2d 4B9EEFDC 		.ascii	"K\236\357\334g\027P\337\364\033X\016'\330\006\354\251"
 501      671750DF 
 501      F41B580E 
 501      27D806EC 
 501      A9
 502 0f3e E37023CB 		.ascii	"\343p#\313\341[<\200\026C\304f\226\303)\266\001\365"
 502      E15B3C80 
 502      1643C466 
 502      96C329B6 
 502      01F5
 503 0f50 3ADCC372 		.ascii	":\334\303r8\3136\240^\207\373X\016\353l\003\352u\270"
 503      38CB36A0 
 503      5E87FB58 
 503      0EEB6C03 
 503      EA75B8
 504 0f63 9FE57031 		.ascii	"\237\345p1\017\240\305\362\335\001\226\303\345\266\001"
 504      0FA0C5F2 
 504      DD0196C3 
 504      E5B601
 505 0f72 F53A3CC8 		.ascii	"\365:<\310r\270\3166\240^\207\207Y\0167\333\006\324"
 505      72B8CE36 
 505      A05E8787 
 505      590E37DB 
 505      06D4
 506 0f84 EBF028CB 		.ascii	"\353\360(\313\341\016\036@\253\025?\226\303/l\003\352"
 506      E10E1E40 
 506      AB153F96 
ARM GAS  /tmp/ccAPbLn4.s 			page 40


 506      C32F6C03 
 506      EA
 507 0f95 757885E5 		.ascii	"ux\205\345\360\220m@\275\016\257"
 507      F0906D40 
 507      BD0EAF
 508 0fa0 B11C9EB0 		.ascii	"\261\034\236\260\015\250\327\341u\226\303\357x\000}"
 508      0DA8D7E1 
 508      7596C3EF 
 508      78007D
 509 0faf E63A6C63 		.ascii	"\346:lc9\274j\033\220\335\357\246>\364(\022\020?\303"
 509      39BC6A1B 
 509      90DDEFA6 
 509      3EF42812 
 509      103FC3
 510 0fc2 30EF731C 		.ascii	"0\357s\034\337\277@\272\027\351\227H\277B\3725\322C"
 510      DFBF40BA 
 510      17E99748 
 510      BF42FA35 
 510      D243
 511 0fd4 488F20FD 		.ascii	"H\217 \375\006i\013\322\023HO\"=\215\364\014\322sH\277"
 511      06690BD2 
 511      13484F22 
 511      3D8DF40C 
 511      D27348BF 
 512 0fe8 437A11E9 		.ascii	"Cz\021\351e\236\000\262\231\216\354\356\334\307\021"
 512      659E00B2 
 512      998EECEE 
 512      DCC711
 513 0ff7 0558ACDC 		.ascii	"\005X\254\334\316l\375\342?"
 513      CE6CFDE2 
 513      3F
 514 1000 7FC8F37C 		.ascii	"\177\310\363|-SVm\375-y\0343\3653}\255N\276g\372n\260"
 514      2D53566D 
 514      FD2D791C 
 514      33F5337D 
 514      AD4EBE67 
 515 1017 43F8B45D 		.ascii	"C\370\264]\370L\337\015\256i\355\364\264\246IZ\014\362"
 515      F84CDF0D 
 515      AE69EDF4 
 515      B4A6495A 
 515      0CF2
 516 1029 99F288DA 		.ascii	"\231\362\210\332\035\214A\232\357O\271\257\237\374D"
 516      1D8C419A 
 516      EF4FB9AF 
 516      9FFC44
 517 1038 763B2BC0 		.ascii	"v;+\300\335\253\312#j\355\\1\310\224k\312#j\352\023"
 517      DDABCA23 
 517      6AED5C31 
 517      C8946BCA 
 517      236AEA13 
 518 104c 4887918B 		.ascii	"H\207\221\213\366\364\246\346\0008\365\232\356\201\246"
 518      F6F4A6E6 
 518      0038F59A 
 518      EE81A6
 519 105b 63B6E17C 		.ascii	"c\266\341|:\270\267\365p\247x\340,\236-{G\017w\3166"
 519      3AB8B7F5 
 519      70A778E0 
ARM GAS  /tmp/ccAPbLn4.s 			page 41


 519      2C9E2D7B 
 519      470F77CE 
 520 1070 9CCF4897 		.ascii	"\234\317H\227BRc\004\304\230\213t\345\261.\322\325\306"
 520      42526304 
 520      C4988B74 
 520      E5B12ED2 
 520      D5C6
 521 1082 237D05E9 		.ascii	"#}\005\351D\027G\267\273Mw\273K\310\344\215t\027K\240"
 521      441747B7 
 521      BB4D77BB 
 521      4BC8E48D 
 521      74174BA0 
 522 1096 D71C7A76 		.ascii	"\327\034zv}r\267\223u`\306\301\353.zJg\233\003\037\315"
 522      7D72B793 
 522      7560C6C1 
 522      EB2E7A4A 
 522      679B031F 
 523 10ab 417CE62E 		.ascii	"A|\346.y\343I}i\361\016\213g\264\345`\021^\315\336\205"
 523      79E3497D 
 523      69F10E8B 
 523      67B4E560 
 523      115ECDDE 
 524 10c0 67CEC860 		.ascii	"g\316\310`\343\037\260\013\246?\247\247\216\006{\323"
 524      E31FB00B 
 524      A63FA7A7 
 524      8E067BD3 
 525 10d0 3698D9B3 		.ascii	"6\230\331\263L7\321\225\337BW;\011[\376M\244\177C:\205"
 525      4C37D195 
 525      DF42573B 
 525      095BFE4D 
 525      A47F433A 
 526 10e5 B6024978 		.ascii	"\266\002Ix\373\001vNv\203]\015\320<\225\300\213k\326"
 526      FB01764E 
 526      76835D0D 
 526      D03C95C0 
 526      8B6BD6
 527 10f8 B6DFD3D6 		.ascii	"\266\337\323\326\265\350\001\016\247\3563\267\256\231"
 527      B5E8010E 
 527      A7EE33B7 
 527      AE99
 528 1106 AD9715A7 		.ascii	"\255\227\025\247.\003K\3022\333\210zk\231~\254N\231"
 528      2E034BC2 
 528      32DB887A 
 528      6B997EAC 
 528      4E99
 529 1118 AECB2F61 		.ascii	"\256\313/a4\360\340Y\274\2041\373\030\256\214\311`\033"
 529      34F0E059 
 529      BC8431FB 
 529      18AE8CC9 
 529      601B
 530 112a 6D83F904 		.ascii	"m\203\371\004\323\017\375B\002\014\250\370\374\356\025"
 530      D30FFD42 
 530      020CA8F8 
 530      FCEE15
 531 1139 7CAD6B2C 		.ascii	"|\255k,N\343\327\"\375\007\266\3256\244\327\220N\307"
 531      4EE3D722 
 531      FD07B6D5 
ARM GAS  /tmp/ccAPbLn4.s 			page 42


 531      36A4D790 
 531      4EC7
 532 114b B69A8174 		.ascii	"\266\232\201t&O\213\235\247_TkF\021\316\244\373\002"
 532      264F8B9D 
 532      A75F546B 
 532      4611CEA4 
 532      FB02
 533 115d 5F4BDBBE 		.ascii	"_K\333\276\003\363\305i\362Q<\343\344%\001\333\210\372"
 533      03F3C569 
 533      F2513CE3 
 533      E42501DB 
 533      88FA
 534 116f 166B9597 		.ascii	"\026k\225\227ce\260\275<`F\235\233R\253\254\320\263"
 534      6365B0BD 
 534      3C60469D 
 534      9B52ABAC 
 534      D0B3
 535 1181 A8D073A8 		.ascii	"\250\320s\250\320\331\250\254:}\267\371:\251\333\310"
 535      D0D9A8AC 
 535      3A7DB7F9 
 535      3AA9DBC8 
 536 1191 EFB25048 		.ascii	"\357\262PH\332K/\202\025\226\231\342Oj\212\017\210k"
 536      DA4B2F82 
 536      159699E2 
 536      4F6A8A0F 
 536      886B
 537 11a3 70A1D9CE 		.ascii	"p\241\331\316\333@z5\2657\253nP>\027\341\004\262\237"
 537      DB407A35 
 537      B537AB6E 
 537      503E17E1 
 537      04B29F
 538 11b6 E2FD2DFE 		.ascii	"\342\375-\376\363anQ\347\303\334\306\347\016\356\310"
 538      F3616E51 
 538      E7C3DCC6 
 538      E70EEEC8 
 539 11c6 A7C1A0D0 		.ascii	"\247\301\240\320\207\221\036Cz\034\351\267H\347\363"
 539      87911E43 
 539      7A1CE9B7 
 539      48E7F3
 540 11d5 A8A1957E 		.ascii	"\250\241\225~\001\361*\262}5\355\027\020\357\356}\357"
 540      01F12AB2 
 540      7D35ED17 
 540      10EFEE7D 
 540      EF
 541 11e6 0925E438 		.ascii	"\011%\3448\217o\373\266\331\006\324\353u\346\025eP'"
 541      8F6FFBB6 
 541      D906D4EB 
 541      75E61565 
 541      5027
 542 11f8 87D0C0E8 		.ascii	"\207\320\300\350\302\003g1\272\314:\273N>TNn\245\011"
 542      C2036731 
 542      BACC3ABB 
 542      4E3E544E 
 542      6EA509
 543 120b 0F327029 		.ascii	"\0172p)\207\004=w\263\377\275\266\247\212\365\246m\254"
 543      87043D77 
 543      B3FFBDB6 
ARM GAS  /tmp/ccAPbLn4.s 			page 43


 543      A78AF5A6 
 543      6DAC
 544 121d 27AC5AFC 		.ascii	"'\254Z\374*\325\342\337c\213_\307\026_\210\006\376>"
 544      2AD5E2DF 
 544      638B5FC7 
 544      165F8806 
 544      FE3E
 545 122f D2C54897 		.ascii	"\322\305H\227\360\264\362\305\037xJ\314\341\023{W\213"
 545      F0B4F2C5 
 545      1F784ACC 
 545      E1137B57 
 545      8B
 546 1240 F2EB52CB 		.ascii	"\362\353R\313\\$\242}\367A\233\021\255$\254\304\"+]"
 546      5C24A27D 
 546      F7419B11 
 546      AD24ACC4 
 546      222B5D
 547 1253 4C547BED 		.ascii	"LT{\355E\237\234\233:(o\373^\261\206\213h\015\033\022"
 547      459F9C9B 
 547      3A286FFB 
 547      5EB1868B 
 547      680D1B12 
 548 1267 8069596B 		.ascii	"\200iYk\374\346w\224q\005\304E.\311&\234\336\032n\237"
 548      FCE67794 
 548      7105C445 
 548      2EC9269C 
 548      DE1A6E9F 
 549 127b D99E74C2 		.ascii	"\331\236t\302\212\356\230\240\244Vi\244#\261\315<\322"
 549      8AEE98A0 
 549      A45669A4 
 549      23B1CD3C 
 549      D2
 550 128c 58D8F6DD 		.ascii	"X\330\366\335\223:\333nf\341l\332\366\224\353q16)K\235"
 550      933ADB6E 
 550      66E16CDA 
 550      F694EB71 
 550      3136294B 
 551 12a1 197FC9C2 		.ascii	"\031\177\311\302\361\256!\031\233\267f\005\001q\025"
 551      F1AE2119 
 551      9BB76605 
 551      017115
 552 12b0 86D30D68 		.ascii	"\206\323\015h\314k\220\256E\332\204t\003\217y/\325\024"
 552      CC6B90AE 
 552      45DA8474 
 552      038F792F 
 552      D514
 553 12c2 F9985017 		.ascii	"\371\230P\027\213_ni;}\256\353\207$v\211\335k\377\353"
 553      8B5F6E69 
 553      3B7DAEEB 
 553      87247689 
 553      DD6BFFEB 
 554 12d6 D87122F3 		.ascii	"\330q\"\363:\226\323\274Q6\271t\257c\031\316gS\355\213"
 554      3A96D3BC 
 554      5136B974 
 554      AF6319CE 
 554      6753ED8B 
 555 12ea 6F3E77F5 		.ascii	"o>w\365a\271\267l\301\336\322\374#\303\336b\3758\315"
ARM GAS  /tmp/ccAPbLn4.s 			page 44


 555      61B9B76C 
 555      C1DED2FC 
 555      23C3DE62 
 555      FD38CD
 556 12fd 276C4F59 		.ascii	"'lOY#\277\324\371\011W_i\332\266\224\373T\"\246\243"
 556      23BFD4F9 
 556      09575F69 
 556      DAB694FB 
 556      5422A6A3 
 557 1311 1EF991F1 		.ascii	"\036\371\221\361\251D\272\333\002\342\016\354/\237\262"
 557      A944BADB 
 557      02E20EEC 
 557      2F9FB2
 558 1320 5C4EAB41 		.ascii	"\\N\253A.?\345\342r\372\266\024\247\022\361?\230q\360"
 558      2E3FE5E2 
 558      72FAB614 
 558      A712F13F 
 558      9871F0
 559 1333 D289DFAD 		.ascii	"\322\211\337\255\3009\367n\027\261\312E\017\261\021"
 559      C039F76E 
 559      17B1CA45 
 559      0FB111
 560 1342 848B792E 		.ascii	"\204\213y.\303\245_pweh\011\345\271\014\263\246\331"
 560      C3A55F70 
 560      77656809 
 560      E5B90CB3 
 560      A6D9
 561 1354 E5B238FB 		.ascii	"\345\2628\373C9~#\361{\267\213\377\334\215\317]TP\262"
 561      43397E23 
 561      F17BB78B 
 561      FFDC8DCF 
 561      5D5450B2 
 562 1368 5C52159C 		.ascii	"\\R\025\234\336h\274\371\334\336\256\030\014Z\275\230"
 562      DE68BCF9 
 562      DCDEAE18 
 562      0C5ABD98 
 563 1378 48B833E3 		.ascii	"H\2703\343\346\200\225\230\263\177\200\230_\321b.\264"
 563      E6809598 
 563      B37F8098 
 563      5FD1622E 
 563      B4
 564 1389 2DA68F16 		.ascii	"-\246\217\0263\365\211 \343-z\373Q+\021\347\33081\345"
 564      33F58920 
 564      E32D7AFB 
 564      512B11E7 
 564      D83831E5 
 565 139d 08EDCB97 		.ascii	"\010\355\313\227\243\355\245\020)\3251O\351\212\364"
 565      A3EDA510 
 565      29D5314F 
 565      E98AF4
 566 13ac AD81485C 		.ascii	"\255\201H\\\"\234p1{\203\253l\213\341\023\364\037->"
 566      229C7031 
 566      7B83AB6C 
 566      8BE113F4 
 566      1F2D3E
 567 13bf FF0CBDF9 		.ascii	"\377\014\275\371~\244\207\221\036\347\361\354\315\264"
 567      7EA48791 
ARM GAS  /tmp/ccAPbLn4.s 			page 45


 567      1EE7F1EC 
 567      CDB4
 568 13cd A56C414B 		.ascii	"\245lAK\371\304~\2070\372\320\016\026fr8\010m\343a)"
 568      F9C47E87 
 568      30FAD00E 
 568      16667238 
 568      086DE361 
 569 13e2 AEB19450 		.ascii	"\256\261\224P\361\005\375>\253$\254e\274\317\317\205"
 569      F105FD3E 
 569      AB24AC65 
 569      BCCFCF85 
 570 13f2 7763B1A9 		.ascii	"wc\261\2518,\235#\255+\303\300\250\217\367mt=fX\235"
 570      382C9D23 
 570      AD2BC3C0 
 570      A88FF76D 
 570      743D6658 
 571 1407 52995C38 		.ascii	"R\231\\86\003\346b\242\\\227$|\234\242\240\302\321\377"
 571      3603E662 
 571      A25C9724 
 571      7C9CA2A0 
 571      C2D1FF
 572 141a 12DE2376 		.ascii	"\022\336#vs\340\344\220\376\312k\346\346\205\024\371"
 572      73E0E490 
 572      FECA6BE6 
 572      E68514F9 
 573 142a FEE9D2FD 		.ascii	"\376\351\322\375\277\004\034P[Z\346\266\236x\244v\325"
 573      BF041C50 
 573      5B5AE6B6 
 573      9E78A476 
 573      D5
 574 143b 3C794015 		.ascii	"<y@\025\223}t\214\353\204\253\303K\177!\0376\210.z?"
 574      937D748C 
 574      EB84ABC3 
 574      4B7F211F 
 574      36882E7A 
 575 1450 A3247EA0 		.ascii	"\243$~\240\206cs\262\021\350*\002\035I\362\365\002\343"
 575      866373B2 
 575      11E82A02 
 575      1D49F2F5 
 575      02E3
 576 1462 EB05BDAF 		.ascii	"\353\005\275\257\207\237\261v\345#?\366\0109\177\025"
 576      879FB176 
 576      E5233FF6 
 576      08397F15 
 577 1472 D22A631A 		.ascii	"\322*c\032s\247\016$8\342\356\253\257(qw\033F\022\247"
 577      73A70E24 
 577      38E2EEAB 
 577      AF287177 
 577      1B4612A7 
 578 1486 1EB21D77 		.ascii	"\036\262\035w_\302\"\267\330qzn\300'\347\246\036\245"
 578      5FC222B7 
 578      D8717A6E 
 578      C027E7A6 
 578      1EA5
 579 1498 1B6E52B1 		.ascii	"\033nR\261 8\004<\216\360\226u,\250\353Cz\2705\027\224"
 579      2038043C 
 579      8EF09675 
ARM GAS  /tmp/ccAPbLn4.s 			page 46


 579      2CA8EB43 
 579      7AB83517 
 580 14ad B8BB11BB 		.ascii	"\270\273\021\273@[\202\277\364\342\356\306e\3123@K\021"
 580      405B82BF 
 580      F4E2EEC6 
 580      65CA3340 
 580      4B11
 581 14bf EE0E0F9C 		.ascii	"\356\016\017\234E\034\335t69\2147z\365\351g*\326B*\010"
 581      451CDD74 
 581      36398C37 
 581      7AF5E967 
 581      2AD6422A 
 582 14d4 69AAF94C 		.ascii	"i\252\371L>\215r\202\233\264\326\370\037\247l-\006\207"
 582      3E8D7282 
 582      9BB4D6F8 
 582      1FA76C2D 
 582      0687
 583 14e6 34C64437 		.ascii	"4\306D7\323T\373\344\343(I~\352\306\372R~7B\2360OD\006"
 583      D354FBE4 
 583      E328497E 
 583      EAC6FA52 
 583      7E37429E 
 584 14fe 48C1F4A6 		.ascii	"H\301\364\246H\007\232?\226[\276Y\324Z\236\202\263\271"
 584      48079A3F 
 584      965BBE59 
 584      D45A9E82 
 584      B3B9
 585 1510 BDFF7533 		.ascii	"\275\377u3u\242\370$\226\267\224gH\350\316\343\216\037"
 585      75A2F824 
 585      96B79467 
 585      48E8CEE3 
 585      8E1F
 586 1522 A2C1FE66 		.ascii	"\242\301\376f\033\354Y\035\330\321\211o(+\223\3629\305"
 586      1BEC591D 
 586      D8D1896F 
 586      282B93F2 
 586      39C5
 587 1534 D3781467 		.ascii	"\323x\024gaE\337h\207\036C\034\305\252\215w\034U\300"
 587      6145DF68 
 587      871E431C 
 587      C5AA8D77 
 587      1C55C0
 588 1547 2ED32728 		.ascii	".\323'(\327\362pf\261\371~\225\006\233k\033L\317\331"
 588      D7F27066 
 588      B1F97E95 
 588      069B6B1B 
 588      4CCFD9
 589 155a F734D87B 		.ascii	"\3674\330{<`\026[\3327h\260\017m\203\3519\273\225\364"
 589      3C60165B 
 589      DA3768B0 
 589      0F6D83E9 
 589      39BB95F4 
 590 156e 568FEEA8 		.ascii	"V\217\356\250\350$o=\333M\305o\253y*\367\231I\022\213"
 590      E8246F3D 
 590      DB4DC56F 
 590      AB792AF7 
 590      9949128B 
ARM GAS  /tmp/ccAPbLn4.s 			page 47


 591 1582 CFF93413 		.ascii	"\317\3714\023\247\342\344\364iI\370\210E\213%\340b)"
 591      A7E2E4F4 
 591      6949F888 
 591      458B25E0 
 591      6229
 592 1594 D6CD8D3E 		.ascii	"\326\315\215>\264\203\010\210\257\272I\340\362\232\233"
 592      B4830888 
 592      AFBA49E0 
 592      F29A9B
 593 15a3 4454AF23 		.ascii	"DT\257#}\003\351[H'#\235\212t\032\322\351Hg \235\211"
 593      7D03E95B 
 593      4827239D 
 593      8A741AD2 
 593      E9486720 
 594 15b9 7416D23A 		.ascii	"t\026\322:7G\3503\236VR\374\307v\035\255\245P\267\250"
 594      3747E833 
 594      9E5652FC 
 594      C7761DAD 
 594      A550B7A8 
 595 15cd 68EC0E46 		.ascii	"h\354\016Fcw1L\274\2074\206L\216\343a\262\325 >S\030"
 595      6377314C 
 595      BC873486 
 595      4C8EE361 
 595      B2D5203E 
 596 15e3 D785C192 		.ascii	"\327\205\301\222\360\017\306=+A\032\011u6\311AZ+\016"
 596      F00FC63D 
 596      2B411A09 
 596      7536C941 
 596      5A2B0E
 597 15f6 2907F0BE 		.ascii	")\007\360\276\013\246\261V+\025\244\335\015\366\227"
 597      0BA6B156 
 597      2B15A4DD 
 597      0DF697
 598 1605 AB0B88F3 		.ascii	"\253\013\210\363\334\222e1\205)\014\321&\307\352\217"
 598      DC926531 
 598      85290CD1 
 598      26C7EA8F 
 599 1615 0CE92A07 		.ascii	"\014\351*\007F\202\276\024s\346\020\376y\201;)F\233"
 599      4682BE14 
 599      73E610FE 
 599      79813B29 
 599      469B
 600 1627 D712FF26 		.ascii	"\327\022\377&\270=v\031&\256\314d\341\222\305\024o\261"
 600      B83D7619 
 600      26AECC64 
 600      E192C514 
 600      6FB1
 601 1639 9B992C90 		.ascii	"\233\231,\220A4\361CY\240J\374V\226\0219#\232\270G\255"
 601      4134F143 
 601      59A04AFC 
 601      56961139 
 601      239AB847 
 602 164e 6DB4A085 		.ascii	"m\264\240\205\200\367\366v\227\337\237X\216C\344\224"
 602      80F7F676 
 602      97DF9F58 
 602      8E43E494 
 603 165e AE298748 		.ascii	"\256)\207H=N@\\\211z\255gG\311\233\362q\310\365\\\243"
ARM GAS  /tmp/ccAPbLn4.s 			page 48


 603      3D4E405C 
 603      897AAD67 
 603      47C99BF2 
 603      71C8F55C 
 604 1673 E4DDE685 		.ascii	"\344\335\346\205\351\036\332\\\327\225\353\320\346\265"
 604      E91EDA5C 
 604      D795EBD0 
 604      E6B5
 605 1681 C86563D2 		.ascii	"\310ec\322X.s\331\310\305\345\376f%\264\371\034\247"
 605      582E73D9 
 605      C8C5E5FE 
 605      6625B4F9 
 605      1CA7
 606 1693 66F28240 		.ascii	"f\362\202@c\272\243\271z\000\332W\010\266\3206\230\317"
 606      63BAA3B9 
 606      7A00DA57 
 606      08B6D036 
 606      98CF
 607 16a5 08EC0882 		.ascii	"\010\354\010\202\265\2708\300R\237k,\317@O\331\0063"
 607      B5B838C0 
 607      529F6B2C 
 607      CF404FD9 
 607      0633
 608 16b7 E02CDDD9 		.ascii	"\340,\335\331\363f\266C\030,\010\350\3179\3468\031\244"
 608      F366B643 
 608      182C08E8 
 608      CF39E638 
 608      19A4
 609 16c9 7ED595F7 		.ascii	"~\325\225\367\225\027\314>v\343\003o\214\325\313\241"
 609      9517CC3E 
 609      76E3036F 
 609      8CD5CBA1 
 610 16d9 35F5E13A 		.ascii	"5\365\341:\034\204kV\277\211\366\331\353\260\336\024"
 610      1C846B56 
 610      BF89F6D9 
 610      EBB0DE14 
 611 16e9 AAB53A35 		.ascii	"\252\265:5\367\336\336GS.)Y\251w\207\225z?v\363\257"
 611      F7DEDE47 
 611      532E2959 
 611      A9778795 
 611      7A3F76F3 
 612 16fe B76CA7C5 		.ascii	"\267l\247\305\332h[,\233\026c\265J\266\333J$\223\305"
 612      DA685B2C 
 612      9B1663B5 
 612      4AB6DB4A 
 612      2493C5
 613 1711 C0B444DE 		.ascii	"\300\264D\336E\213\274\225G\344\037r\216\256\345\302"
 613      458BBC95 
 613      47E41F72 
 613      8EAEE5C2 
 614 1721 A095C826 		.ascii	"\240\225\310&\013\203i\211\374\025-\362\016\333\"\373"
 614      0B836989 
 614      FC152DF2 
 614      0EDB22FB 
 615 1731 04FD475B 		.ascii	"\004\375G[\216j\302xb=\322\015H?B\272\021i3\322\317"
 615      8E6AC278 
 615      623DD20D 
ARM GAS  /tmp/ccAPbLn4.s 			page 49


 615      483F42BA 
 615      116933D2 
 616 1746 91EEE789 		.ascii	"\221\356\347\2119V\273\223\226\251\352\323t\323\261"
 616      3956BB93 
 616      96A9EAD3 
 616      74D3B1
 617 1755 F83D12BA 		.ascii	"\370=\022\272\362n5lz\377\366\3038\343\374\006\207\323"
 617      F26E356C 
 617      7AFFF6C3 
 617      38E3FC06 
 617      87D3
 618 1767 9A876DEE 		.ascii	"\232\207m\3564H\302t,r\234\035\250\032k\360d\271\343"
 618      3448C274 
 618      2C729C1D 
 618      A81A6BF0 
 618      64B9E3
 619 177a 5C035513 		.ascii	"\\\003U\023\347\021\222\363\022k\023\017\012\332\313"
 619      E71192F3 
 619      126B130F 
 619      0ADACB
 620 1789 3377455F 		.ascii	"3wE_@<\215\374/0\346\337\034C\022\032\260\310Y\226\377"
 620      403C8DFC 
 620      2F30E6DF 
 620      1C43121A 
 620      B0C85996 
 621 179e EB647DE3 		.ascii	"\353d}\343,\027\367m\352[D\247\334$\334\333\232\000"
 621      2C17F76D 
 621      EA5B44A7 
 621      DC24DCDB 
 621      9A00
 622 17b0 4C6B988D 		.ascii	"Lk\230\215\337\301c\224\3457\222>\265\215\345\323aM"
 622      DFC16394 
 622      E537923E 
 622      B58DE5D3 
 622      614D
 623 17c2 D9A6BE4B 		.ascii	"\331\246\276K&\277\376\365\025\017\236\305\274\364"
 623      26BFFEF5 
 623      150F9EC5 
 623      BCF4
 624 17d0 6DF23C87 		.ascii	"m\362<\207\235\267]w(o\273^\303q\253\345av\334J\353"
 624      9DB75D77 
 624      286FBB5E 
 624      C371ABE5 
 624      6176DC4A 
 625 17e5 6DD70BB6 		.ascii	"m\327\013\266\245\320i\245e\363\373\337vU_$\222\031"
 625      A5D069A5 
 625      65F3FBDF 
 625      76555F24 
 625      9219
 626 17f7 6BE54134 		.ascii	"k\345A4\032\330\214>\2645\005\304\3638\303\372\016\235"
 626      1AD88C3E 
 626      B43505C4 
 626      F338C3FA 
 626      0E9D
 627 1809 C145A497 		.ascii	"\301E\244\227\221^E\332\306\343\036N\321n,\326M\355"
 627      915E45DA 
 627      C6E31E4E 
ARM GAS  /tmp/ccAPbLn4.s 			page 50


 627      D16E2CD6 
 627      4DED
 628 181b 6F36CDCB 		.ascii	"o6\315\313\230\325\343\024\253\337\"\253'i\226$\341"
 628      98D5E314 
 628      ABDF22AB 
 628      27699624 
 628      E1
 629 182c 55ACCF8E 		.ascii	"U\254\317\216;\322+\273\355\336\255\307\256\215\213"
 629      3BD22BBB 
 629      EDDEADC7 
 629      AE8D8B
 630 183b D5F6E43E 		.ascii	"\325\366\344>\\5~\313-\301$\316M\316U}\253\233\336b"
 630      5C357ECB 
 630      2DC124CE 
 630      4DCE557D 
 630      AB9BDE62 
 631 184f 38CF556D 		.ascii	"8\317Umw3\347\252^\223\317U%\371\026\035Z9\376\264\266"
 631      7733E7AA 
 631      5E93CF55 
 631      25F9161D 
 631      5A39FEB4 
 632 1864 5BF2B9AA 		.ascii	"[\362\271\252\013\272\031\236\253\272\244\233\376\\"
 632      0BBA199E 
 632      ABBAA49B 
 632      FE5C
 633 1872 55450B96 		.ascii	"UE\013\226'\245j\314\301\304\324\203\017\203z\254OJ"
 633      27A56ACC 
 633      C1C4D483 
 633      0F837AAC 
 633      4F4A
 634 1884 A5B46FEB 		.ascii	"\245\264o\353\201\310X\274\275\231\274/\231\362\354"
 634      81C858BC 
 634      BD99BC2F 
 634      99F2EC
 635 1893 25F554DB 		.ascii	"%\365T\333\206\363\312\033a\257z\210;=\327-\265;5\300"
 635      86F3CA1B 
 635      61AF7A88 
 635      3B3DD72D 
 635      B53B35C0 
 636 18a7 01B7D39D 		.ascii	"\001\267\323\235h\373u\004\271a\027D\022\306?B\212\274"
 636      68FB7504 
 636      B9611744 
 636      12C63F42 
 636      8ABC
 637 18b9 E5617CF2 		.ascii	"\345a|\362Fyo\230\344\247\362\312\344\014c\371\225h"
 637      46796F98 
 637      E4A7F2CA 
 637      E40C63F9 
 637      9568
 638 18cb F55DD137 		.ascii	"\365]\3217\022\230J\245\317\321\352K\355\226\277\220"
 638      12984AA5 
 638      CFD1EA4B 
 638      ED96BF90 
 639 18db 1F659377 		.ascii	"\037e\223w\207\337a\301l\372\321}\211\327\236g\343\203"
 639      87DF61C1 
 639      6CFAD17D 
 639      89D79E67 
ARM GAS  /tmp/ccAPbLn4.s 			page 51


 639      E383
 640 18ed 4EF36CE3 		.ascii	"N\363l\343\351:Y\374K\2319\031\354\003\0360\213%\276"
 640      E93A59FC 
 640      4B993919 
 640      EC031E30 
 640      8B25BE
 641 1900 AF69B015 		.ascii	"\257i\260\025\266\301\364\234\035\242\301\032y\300,"
 641      B6C1F49C 
 641      1DA2C11A 
 641      79C02C
 642 190f 96F88E2A 		.ascii	"\226\370\216*\303Y\232G\345\316\365\230o\251\310\326"
 642      C3599A47 
 642      E5CEF598 
 642      6FA9C8D6 
 643 191f 6A5672BE 		.ascii	"jVr\276\207\012\320\370\216\326\235!\007@u\036\334\247"
 643      870AD0F8 
 643      8ED69D21 
 643      0740751E 
 643      DCA7
 644 1931 7B44DF07 		.ascii	"{D\337\007\230\252\011cfU/\364\230\037\200\311\374\015"
 644      98AA0963 
 644      66552FF4 
 644      981F80C9 
 644      FC0D
 645 1943 625CDB0A 		.ascii	"b\\\333\012\326\267\326\261\032\335\013\261{y\340|\006"
 645      D6B7D6B1 
 645      1ADD0BB1 
 645      7B79E07C 
 645      06
 646 1954 ED65F4A1 		.ascii	"\355e\364\241;t@\234\214\216o\212\007\227\026\221NG"
 646      3B74409C 
 646      8C8E6F8A 
 646      07971691 
 646      4E47
 647 1966 3A03E94C 		.ascii	":\003\351L\244\263\220\316A\372\276\347\247\377\323"
 647      A4B390CE 
 647      41FABEE7 
 647      A7FFD3
 648 1975 A89270F0 		.ascii	"\250\222p\360\021f\254\323;\246T\3750\206\203\335\264"
 648      1166ACD3 
 648      3BA654FD 
 648      308683DD 
 648      B4
 649 1986 184C70F9 		.ascii	"\030Lp\371=\356\276Ge\217\273\004\235e\013c(\262Y\376"
 649      3DEEBE47 
 649      658FBB04 
 649      9D650B63 
 649      28B259FE 
 650 199a 4FC97B89 		.ascii	"O\311{\211K^\323\263\005\022\362\326\366\244\377\265"
 650      4B5ED3B3 
 650      0512F2D6 
 650      F6A4FFB5 
 651 19aa DD1CAB7F 		.ascii	"\335\034\253\177\024\260\302c\373?.+\377z)\341\242\225"
 651      14B0C263 
 651      FB3F2E2B 
 651      FF7A29E1 
 651      A295
ARM GAS  /tmp/ccAPbLn4.s 			page 52


 652 19bc 44E78418 		.ascii	"D\347\204\030\255\254\030\206\257\014\0171m6\262\012"
 652      ADAC1886 
 652      AF0C0F31 
 652      6D36B20A 
 653 19cc E370CBBC 		.ascii	"\343p\313\274I\302M.\264\027\315\320\214\346\306\006"
 653      49C24D2E 
 653      B417CDD0 
 653      8CE6C606 
 654 19dc 2F0D1B1E 		.ascii	"/\015\033\036N}c\301\236\217\224\205\236\265h\016w\030"
 654      4E7D63C1 
 654      9E8F9485 
 654      9EB5680E 
 654      7718
 655 19ee 73480984 		.ascii	"sH\011\204\223Sv\334\334\277\\y\373\270)\365\310I^\207"
 655      935376DC 
 655      DCBF5C79 
 655      FBB829F5 
 655      C8495E87 
 656 1a02 5CAE7B51 		.ascii	"\\\256{Q\016\346\353\370Jv\223\346\006l\356\330\036"
 656      0EE6EBF8 
 656      4A7693E6 
 656      066CEED8 
 656      1E
 657 1a13 5EAE7B51 		.ascii	"^\256{Q. \356\261\015\250\177\331\360(\313\341a\333"
 657      2E20EEB1 
 657      0DA87FD9 
 657      F028CBE1 
 657      61DB
 658 1a25 80BA268B 		.ascii	"\200\272&\213\037c9\334o\033P\377\262\341\025\226\303"
 658      1F6339DC 
 658      6F1B50FF 
 658      B2E11596 
 658      C3
 659 1a36 771D1C80 		.ascii	"w\035\034\200\026\021\3035\226\303\203<\034Z\2748|\235"
 659      1611C335 
 659      96C3833C 
 659      1C5ABC38 
 659      7C9D
 660 1a48 E570B76D 		.ascii	"\345p\267m@\275\016\333X\016\217\332\006\324\353\360"
 660      40BD0EDB 
 660      580E8FDA 
 660      06D4EBF0 
 661 1a58 26CBE13E 		.ascii	"&\313\341>\036@\213\300\3466\313\341q\333\200z\035\336"
 661      1E408BC0 
 661      E636CBE1 
 661      71DB807A 
 661      1DDE
 662 1a6a 5DCEBC52 		.ascii	"]\316\274R:\251\273h\023P\257\303v\226\303S\2669\324"
 662      3AA9BB68 
 662      1350AFC3 
 662      7696C353 
 662      B639D4
 663 1a7d EB70CA0A 		.ascii	"\353p\312\012\366\005v\036\016-B\260i+\030\016\317\362"
 663      F605761E 
 663      0E2D42B0 
 663      692B180E 
 663      CFF2
ARM GAS  /tmp/ccAPbLn4.s 			page 53


 664 1a8f 7068F4E2 		.ascii	"ph\364\342\260\321\207v^\001q=\216n\033p\344\372\010"
 664      B0D18776 
 664      5E01713D 
 664      8E6E1B70 
 664      E4FA08
 665 1aa2 E946A49B 		.ascii	"\351F\244\233\220nF\032G\272\005\351V\244\037#\375\004"
 665      906E461A 
 665      47BA05E9 
 665      56A41F23 
 665      FD04
 666 1ab4 E93F9036 		.ascii	"\351?\2206#\335\216\364Sz\0044\033r\326x\250\011\367"
 666      23DD8EF4 
 666      537A0434 
 666      1B72D678 
 666      A809F7
 667 1ac7 B4EE1C13 		.ascii	"\264\356\034\023\340*\20365\026\260\236\232p\257\302"
 667      E02A8336 
 667      3516B09E 
 667      9A70AFC2 
 668 1ad7 097703AE 		.ascii	"\011w\003\256\004\034Ez\033\351Dd\365\003\244\313\221"
 668      041C457A 
 668      1BE94464 
 668      F503A4CB 
 668      91
 669 1ae8 AE42BA9A 		.ascii	"\256B\272\232\207\371e\356L]\205\272=\313\231\335M\366"
 669      87F965EE 
 669      4C5D85BA 
 669      3DCB99DD 
 669      4DF6
 670 1afa 2C6FAD15 		.ascii	",o\255\025\247\217\217\365\227w\360`F\212\333O\213\334"
 670      A78F8FF5 
 670      9777F060 
 670      468ADB4F 
 670      8BDC
 671 1b0c 669B8F4B 		.ascii	"f\233\217K\251=\313kd\317\262\021\213\255sY\027k\244"
 671      A93DCB6B 
 671      64CFB211 
 671      8BAD7359 
 671      176BA4
 672 1b1f 8A35CACF 		.ascii	"\2125\312\317\243\311\017\343/G\276\314\013\342\326"
 672      A3C90FE3 
 672      2F47BECC 
 672      0BE2D6
 673 1b2e A152F0B6 		.ascii	"\241R\360\266\\p\031\256\266\325\247(\270\314M?\310"
 673      5C7019AE 
 673      B6D5A728 
 673      B8CC4D3F 
 673      C8
 674 1b3f A6DF25A5 		.ascii	"\246\337%\245J\031\355\222~\3461\332%\335S\263S\004"
 674      4A19ED92 
 674      7EE631DA 
 674      25DD53B3 
 674      5304
 675 1b51 26EE905D 		.ascii	"&\356\220]\024\033\377;n\277\307`\247\224i\2345\206"
 675      141BFF3B 
 675      6EBFC760 
 675      A794699C 
ARM GAS  /tmp/ccAPbLn4.s 			page 54


 675      3586
 676 1b63 8D139B11 		.ascii	"\215\023\233\021d\232\345K\217e\263(\322\216\213]x\345"
 676      649AE54B 
 676      8F65B328 
 676      D28E8B5D 
 676      78E5
 677 1b75 952EA2FA 		.ascii	"\225.\242\372\357Su\305\214\304=`(\356M\374/\363\340"
 677      EF5375C5 
 677      8CC43D60 
 677      28EE4DFC 
 677      2FF3E0
 678 1b88 99DA3743 		.ascii	"\231\3327C\034dck\3700+p+\2755\274\224\331\0326\336"
 678      1C64636B 
 678      F8302B70 
 678      2BBD35BC 
 678      94D91A36 
 679 1b9d 61FFC458 		.ascii	"a\377\304X!wK\372\313p0\003B\205\0342U\010\275\267\276"
 679      21774BFA 
 679      CB703003 
 679      42851C32 
 679      5508BDB7 
 680 1bb2 8FD5A379 		.ascii	"\217\325\243y\261\245V[\362\346\305\306[\030\333!k\355"
 680      B1A5565B 
 680      F2E6C5C6 
 680      5B18DB21 
 680      6BED
 681 1bc4 1F4BD6FE 		.ascii	"\037K\326\376\312\226\370\246\346\254\311c[\332\333"
 681      CA96F8A6 
 681      E6ACC963 
 681      5BDADB
 682 1bd3 1FB3B1BB 		.ascii	"\037\263\261\273r\312H\361\214bw\033)v\\\254\235U\354"
 682      72CA48F1 
 682      8C62771B 
 682      29765CAC 
 682      9D55EC
 683 1be6 496BC526 		.ascii	"Ik\305&,\255\036\037\020\335\255\210jVJa\360\237\206"
 683      2CAD1E1F 
 683      10DDAD88 
 683      6A564A61 
 683      F09F86
 684 1bf9 8676D944 		.ascii	"\206v\331DT+\033;oic\354\343\007\312\036)\243\212\303"
 684      542B1B3B 
 684      6F6963EC 
 684      E307CA1E 
 684      29A38AC3 
 685 1c0d C6363625 		.ascii	"\30666%\310\250\342\034\227\2155j\276pn\212b\264/\274"
 685      C8A8E21C 
 685      978D356A 
 685      BE706E8A 
 685      62B42FBC 
 686 1c21 1678427D 		.ascii	"\026xB}U\346\014\362C\025cN\373Q\2440\264\261s\3266"
 686      55E60CF2 
 686      4315634E 
 686      FB51A430 
 686      B4B173D6 
 687 1c36 76C9D0C6 		.ascii	"v\311\320\306V\177j_\361\255\026\212g\3266\210\230f"
 687      567F6A5F 
ARM GAS  /tmp/ccAPbLn4.s 			page 55


 687      F1AD168A 
 687      67D63688 
 687      9866
 688 1c48 30373DF4 		.ascii	"07=\364P\225\000S\376\025{\212\206\273dl\3033\330\206"
 688      50950053 
 688      FE157B8A 
 688      86BB646C 
 688      C333D886 
 689 1c5c BBCED570 		.ascii	"\273\316\325p\233I\261\233\270X\323\216\300\346\305"
 689      9B49B19B 
 689      B858D38E 
 689      C0E6C5
 690 1c6b 906BA558 		.ascii	"\220k\245X\333\277w\225\371\225\204W~\302\024cN|F\251"
 690      DBBF7795 
 690      F9958457 
 690      7EC21463 
 690      4E7C46A9 
 691 1c7f D4DA6AB2 		.ascii	"\324\332j\262\206\250\015\3767\266\234\215\0067\253"
 691      86A80DFE 
 691      37B69C8D 
 691      0637AB
 692 1c8e 4DD1EF1D 		.ascii	"M\321\357\035\303\236V\267\323~\203\327xS;\225w~\302"
 692      C39E56B7 
 692      D37E83D7 
 692      78533B95 
 692      777EC2
 693 1ca1 D7935EF1 		.ascii	"\327\223^\361\3628\025VT\252\224\221\250\257zu\242\376"
 693      F2381556 
 693      54AA9491 
 693      A8AF7A75 
 693      A2FE
 694 1cb3 4974CC70 		.ascii	"It\314p\242\300-\223[\332No\255\236\031\333:!\326\336"
 694      A2C02D93 
 694      5BDA4E6F 
 694      AD9E19DB 
 694      3A21D6DE 
 695 1cc7 FE577608 		.ascii	"\376Wv\010\263x\330\340MV\3468\355]\224'\344\225\337"
 695      B378D8E0 
 695      4D56E638 
 695      ED5D9427 
 695      E495DF
 696 1cda BCFBAD33 		.ascii	"\274\373\2553\316\357\353\256\374g\034/\376\367)Fg\234"
 696      CEEFEBAE 
 696      FC671C2F 
 696      FEF72946 
 696      679C
 697 1cec 38F1FA0B 		.ascii	"8\361\372\013d\323\363m\304\370\206\301\010\210}\231"
 697      64D3F36D 
 697      C4F886C1 
 697      08887D99 
 698 1cfc 25A3BECC 		.ascii	"%\243\276\314\261\213\033.9b\223\275\230/\0117\177\242"
 698      B18B1B2E 
 698      396293BD 
 698      982F0937 
 698      7FA2
 699 1d0e DFA0A0CA 		.ascii	"\337\240\240\312\3653[s\353\253\305\2603\274\217'\337"
 699      F5335B73 
ARM GAS  /tmp/ccAPbLn4.s 			page 56


 699      EBABC5B0 
 699      33BC8F27 
 699      DF
 700 1d1f C958C6F8 		.ascii	"\311X\306\370G\365\034\2527\315Lj\264\332D\2435\325"
 700      47F51CAA 
 700      37CD4C6A 
 700      B4DA44A3 
 700      35D5
 701 1d31 7C394D9C 		.ascii	"|9M\2342~\236\374L\232\276\331\370\267\222\032v\021"
 701      327E9EFC 
 701      4C9ABED9 
 701      F8B7921A 
 701      7611
 702 1d43 3DCDF192 		.ascii	"=\315\361\222\275\2447\031.8\367\222\346y\231\275\244"
 702      BDA43719 
 702      2E38F792 
 702      E67999BD 
 702      A4
 703 1d54 83AFE35E 		.ascii	"\203\257\343^\022\311O\275\2274\375\321\344\275\244"
 703      12C94FBD 
 703      9734FDD1 
 703      E4BDA4
 704 1d63 598F1AEE 		.ascii	"Y\217\032\356%-z\324\360\177\364\255z\324\360\177\364"
 704      252D7AD4 
 704      F07FF4AD 
 704      7AD4F07F 
 704      F4
 705 1d74 6D7E54FF 		.ascii	"m~T\377?\372\324\377}\252e\323\377\237t\277\226M\377"
 705      3FFAD4FF 
 705      7DAA65D3 
 705      FF9F74BF 
 705      964DFF
 706 1d87 7FD2535A 		.ascii	"\177\322SZ6\375\377I/i\331^*\373\206\226\235AeOz,\221"
 706      36FDFF49 
 706      2F69D95E 
 706      2AFB8696 
 706      9D41654F 
 707 1d9e DD81CA9E 		.ascii	"\335\201\312\236\243egR\331\313\265\354,*{\243\226\335"
 707      A3656752 
 707      D9CBB5EC 
 707      2C2A7BA3 
 707      96DD
 708 1db0 91CADEA5 		.ascii	"\221\312\336\245ew\242\262\277\321\262;S\331g\265\354"
 708      6577A2B2 
 708      BFD1B23B 
 708      53D967B5 
 708      EC
 709 1dc1 2E54F635 		.ascii	".T\3665-\373>*\273\306\227\310\276\237\346[\313~@iK"
 709      2DFB3E2A 
 709      BBC697C8 
 709      BE9FE65B 
 709      CB7E4069 
 710 1dd6 F2D3724B 		.ascii	"\362\323rKO\263\221\2008\037;\304\002\257\361\226\236"
 710      4FB39180 
 710      381F3BC4 
 710      02AFF196 
 710      9E
ARM GAS  /tmp/ccAPbLn4.s 			page 57


 711 1de7 99B399CD 		.ascii	"\231\263\231\315:\033\022K&~\234\026\365\241\314b\321"
 711      3A1B124B 
 711      267E9C16 
 711      F5A1CC62 
 711      D1
 712 1df8 68445CE5 		.ascii	"hD\\\3453\356f\237{\223\206\201\226\311\361\271\273"
 712      33EE669F 
 712      7B938681 
 712      96C9F1B9 
 712      BB
 713 1e09 21B29F4F 		.ascii	"!\262\237O\"\373?\260N\221\364\0273Fw\263\214\222W\005"
 713      22FB3FB0 
 713      4E91F417 
 713      334677B3 
 713      8C925705 
 714 1e1d 6C32DA64 		.ascii	"l2\332d\302\350>#F[\356\354]a\306(\251\333t\306\305"
 714      C2E83E23 
 714      465BEEEC 
 714      5D61C628 
 714      A9DB74C6 
 715 1e32 327A514C 		.ascii	"2zQL\032\262\266\2300r\300\220\221u\333\366;\314\306"
 715      1AB2B698 
 715      3072C090 
 715      9175DBF6 
 715      3BCCC6
 716 1e45 112B951D 		.ascii	"\021+\225\035\264l\333\336\264\306\370\237\255\330x"
 716      B46CDBDE 
 716      B4C6F89F 
 716      ADD878
 717 1e54 F28A848B 		.ascii	"\362\212\204\213\272G\275\304_|\346c\007\001\373\357"
 717      BA47BDC4 
 717      5F7CE663 
 717      0701FBEF 
 718 1e64 AB6A6C30 		.ascii	"\253jl01\034\251\302L\270\343^\213\345\206=&\372=a\250"
 718      311CA9C2 
 718      4CB8E35E 
 718      8BE5863D 
 718      26FA3D61 
 719 1e79 DFA66DE6 		.ascii	"\337\246m\346.\337Z\303'\2154\314\360r\320\204\227\323"
 719      2EDF5AC3 
 719      278D34CC 
 719      F072D084 
 719      97D3
 720 1e8b 7A5E7E26 		.ascii	"z^~&\314\217\305\366\266\314m]\322\203\234E\021#3}1"
 720      CC8FC5F6 
 720      B6CC6D5D 
 720      D2839C45 
 720      1123337D 
 721 1ea0 B1DC703C 		.ascii	"\261\334p<\001b\306\312\031\015.\315m\312sza\262\204"
 721      0162C6CA 
 721      190D2ECD 
 721      6DCA737A 
 721      61B284
 722 1eb3 D7E9B6E8 		.ascii	"\327\351\266\350k\276K\371\2357K`>f\267\236\325Z\215"
 722      6BBE4BF9 
 722      9D374B60 
 722      3E66B79E 
ARM GAS  /tmp/ccAPbLn4.s 			page 58


 722      D55A8D
 723 1ec6 696B1297 		.ascii	"ik\022\227\230\225\272`Z\212\304Jf\245.\232\224\342"
 723      9895BA60 
 723      5A8AC44A 
 723      66A52E9A 
 723      94E2
 724 1ed8 D7C865B6 		.ascii	"\327\310e\266y\211\244\\O\000^2\345x\266\005\307WMK"
 724      7989A45C 
 724      4F005E32 
 724      E578B605 
 724      C7574D4B 
 725 1eec 112B302B 		.ascii	"\021+0+u\315\264\0249\024\300\254\324\367\246\245\366"
 725      75CDB414 
 725      3914C0AC 
 725      D4F7A6A5 
 725      F6
 726 1efd 5B7078DD 		.ascii	"[px\335\264\324n\213R\255&\245\224\335\273\026W\255"
 726      B4D46E8B 
 726      52AD26A5 
 726      94DDBB16 
 726      57AD
 727 1f0f FEC889A4 		.ascii	"\376\310\211\244X\350\206\327\356\356\335M\257\361\356"
 727      58E886D7 
 727      EEEEDD4D 
 727      AFF1EE
 728 1f1e 5DAA866B 		.ascii	"]\252\206k3\025\360\242\2052o\231\226:h\241\226\333"
 728      3315F0A2 
 728      85326F99 
 728      963A68A1 
 728      96DB
 729 1f30 A6A54E5A 		.ascii	"\246\245NZ\224\272C9>g\361\210@\330\335o\320P_\216\360"
 729      94BA4339 
 729      3E67F188 
 729      40D8DD6F 
 729      D0505F8E 
 730 1f45 6CF688CA 		.ascii	"l\366\210\312\362`vqe\311\230\354\222\340\310\354\342"
 730      F2607671 
 730      65C998EC 
 730      92E0C8EC 
 730      E2
 731 1f56 11A161A1 		.ascii	"\021\241a\241\312Hv4\\]\361R6$\202\243\243\331\245\201"
 731      CA487634 
 731      5C5DF152 
 731      362482A3 
 731      A3D9A581 
 732 1f6a 6869243B 		.ascii	"hi$;\022.\316\016UD\203\303\203\341\036#\004g\237\027"
 732      122ECE0E 
 732      554483C3 
 732      83E11E23 
 732      04679F17 
 733 1f7e 8AF29EB6 		.ascii	"\212\362\236\266W\272\264\024\012\272\372\366.\352["
 733      57BAB414 
 733      0ABAFAF6 
 733      2EEA5B
 734 1f8d E8298DF8 		.ascii	"\350)\215\370\243c\252\202\216\222\360HWq$\364\037A"
 734      A363AA82 
 734      8E92F048 
ARM GAS  /tmp/ccAPbLn4.s 			page 59


 734      577124F4 
 734      1F41
 735 1f9f 77       		.ascii	"w"
 736 1fa0 851FEE8C 		.ascii	"\205\037\356\214\270F\225\226\005\206{K#!?I8\3774\270"
 736      B8469596 
 736      05867B4B 
 736      23213F49 
 736      38FF34B8 
 737 1fb4 20570A95 		.ascii	" W\012\225dT\370\303\225\225\321\222P\330\225K\262:"
 737      6454F8C3 
 737      9595D192 
 737      50D8954B 
 737      B23A
 738 1fc6 94052251 		.ascii	"\224\005\"Q\177qYu$\332\2414\034\014\312I/b\004+\242"
 738      7F715975 
 738      24DAA134 
 738      1C0CCA49 
 738      2F62042B 
 739 1fdb AE5202E9 		.ascii	"\256R\002\351\031YY6,\020\011z \023\277\2418\371\366"
 739      19595936 
 739      2C10097A 
 739      2013BFA1 
 739      38F9F6
 740 1fee 9604A201 		.ascii	"\226\004\242\001\314\030\025\252\210\004\213\243\016"
 740      CC1815AA 
 740      88048BA3 
 740      0E
 741 1ffb F87615E5 		.ascii	"\370v\025\345\364"
 741      F4
 742 2000 EF5DD029 		.ascii	"\357]\320)RR^\016\374\224W\225\005\201Y\017\376\364"
 742      52525E0E 
 742      FC945795 
 742      0581590F 
 742      FEF4
 743 2012 475DF8FD 		.ascii	"G]\370\375\353T\342\216\010\224\201\212\200\225\222"
 743      EB54E28E 
 743      0894818A 
 743      809592
 744 2021 60362917 		.ascii	"`6)\027\251\012\001H\306\300\2019\271\341\320\310`8"
 744      A90A0148 
 744      C6C08139 
 744      B9E1D0C8 
 744      6038
 745 2033 2B91FAE3 		.ascii	"+\221\372\343\300\"\227\277OeeYf(\342'L\204\243\301"
 745      C02297BF 
 745      4F656559 
 745      6628E227 
 745      4C84A3C1 
 746 2047 922C4857 		.ascii	"\222,HW\205+\243\300Q\260\304S\\YQ\001\251\016%\241"
 746      852BA3C0 
 746      51B0C453 
 746      5C595101 
 746      A90E25A1 
 747 205b 8892FC79 		.ascii	"\210\222\374yvu$\234\035\010\227?YQY\021|2\030\030\026"
 747      7675249C 
 747      1D08973F 
 747      59515911 
ARM GAS  /tmp/ccAPbLn4.s 			page 60


 747      7C321818 
 748 2070 4A541701 		.ascii	"JT\027\001\335TD\2416o5|?\375\224?\372\214\305\335\345"
 748      DD5444A1 
 748      366F357C 
 748      3FFD943F 
 748      FA8CC5DD 
 749 2085 01E0BD22 		.ascii	"\001\340\275\"\230\355/\011\226\006\252\313\242\330"
 749      98ED2F09 
 749      9606AACB 
 749      A2D8
 750 2093 161128DD 		.ascii	"\026\021(\335\301\357W\313{H\342Y\1774C\316\202\224"
 750      C1EF57CB 
 750      7B48E259 
 750      7F3443CE 
 750      8294
 751 20a5 331C0C94 		.ascii	"3\034\014\224\270F\205C\321\24032\246\242\370wv\364"
 751      B8468543 
 751      D1A03332 
 751      A6A2F877 
 751      76F4
 752 20b7 01697FA8 		.ascii	"\001i\177\250rXYe\361KPO\347>$\221\033\034\031*\016"
 752      72585965 
 752      F14B504F 
 752      E73E2491 
 752      1B1C192A 
 753 20cc E6579456 		.ascii	"\346W\224Vz\207\225\275\344\3076#\211\212\352r\357\360"
 753      7A8795BD 
 753      E4C73623 
 753      898AEA72 
 753      EFF0
 754 20de 60141453 		.ascii	"`\024\024SZ\351\030Y\036\355\000\231\221(\264\254?\332"
 754      5AE91859 
 754      1EED0099 
 754      9128B4AC 
 754      3FDA
 755 20f0 A1CF80E7 		.ascii	"\241\317\200\347\375C\007\345\017\312/\362\222da\321"
 755      FD4307E5 
 755      0FCA2FF2 
 755      926461D1 
 756 2100 E02198D7 		.ascii	"\340!\230\327;\247(\377\217y\235H2g\360\240Ay\360sP"
 756      3BA728FF 
 756      8F799D48 
 756      3267F0A0 
 756      4179F073 
 757 2115 BFFBC8CF 		.ascii	"\277\373\310\317\334\374B-'\203\344\024\344\365\316"
 757      DCFC422D 
 757      2783E414 
 757      E4F5CE
 758 2124 7D21534D 		.ascii	"}!SMA.\246\377T\220_\244\246\013_\030\224\003i\027\326"
 758      412EA6FF 
 758      54905FA4 
 758      A60B5F18 
 758      94036917 
 759 2139 EA280E95 		.ascii	"\352(\016\2258\212#%\336\342@U\2408\024\035\223\313"
 759      388A2325 
 759      DEE24055 
 759      A038141D 
ARM GAS  /tmp/ccAPbLn4.s 			page 61


 759      93CB
 760 214b 23785565 		.ascii	"#xUe8\032\311.,\032\370\364S\331\003\006\344f\027\016"
 760      381AC92E 
 760      2C1AF8F4 
 760      53D90306 
 760      E466170E 
 761 215f C91FD92B 		.ascii	"\311\037\331+\033L\302_VVB\314\0022dcx\312\216\036e"
 761      1B4CC25F 
 761      565642CC 
 761      02326463 
 761      78CA8E1E 
 762 2174 9BEA005F 		.ascii	"\233\352\000_\252F\000G\325\010I\022\215\020lYJ\374"
 762      AA460047 
 762      D5084912 
 762      8D106C59 
 762      4AFC
 763 2186 ABAC9B2C 		.ascii	"\253\254\233,\222\314\031<p\310\200\274\242\274\216"
 763      92CC193C 
 763      70C880BC 
 763      A2BC8E
 764 2195 00501C28 		.ascii	"\000P\034(\203\376Q\374\222?\352\016V\224\370\213\207"
 764      83FE51FC 
 764      923FEA0E 
 764      5694F88B 
 764      87
 765 21a6 FD96A73F 		.ascii	"\375\226\247?\347\014,\314/\004\271\300\344\312\237"
 765      E70C2CCC 
 765      2F04B9C0 
 765      E4CA9F
 766 21b5 7EAAB457 		.ascii	"~\252\264W\317\321\300OV\277!\371\203\375E`E\271\301"
 766      CFD1C04F 
 766      56BF21F9 
 766      83FD4560 
 766      45B9C1
 767 21c8 52474EC1 		.ascii	"RGN\301\000\270\372;\362s\013\034\203s\013\234}\012"
 767      00B8FA3B 
 767      F2730B1C 
 767      83730B9C 
 767      7D0A
 768 21da 0B0A1C7D 		.ascii	"\013\012\034}\012\012\234\003r\236/\310KGy\004\036\264"
 768      0A0A9C03 
 768      729E2FC8 
 768      4B477904 
 768      1EB4
 769 21ec 57054624 		.ascii	"W\005F$k\257C\250\222\334\023*\001\346#\021\222D\303"
 769      6BAF43A8 
 769      92DC132A 
 769      01E62311 
 769      9244C3
 770 21ff EFF56B50 		.ascii	"\357\365kP\210l\260$\351\202?\005\240\355\302\275\210"
 770      886CB024 
 770      E9823F05 
 770      A0EDC2BD 
 770      88
 771 2210 46722A2B 		.ascii	"Fr*+JC\303\335\305\370\225\322\363\205\243\011\235\027"
 771      4A43C3DD 
 771      C5F895D2 
ARM GAS  /tmp/ccAPbLn4.s 			page 62


 771      F385A309 
 771      9D17
 772 2222 8F888C89 		.ascii	"\217\210\214\211\250]\304\033\035A\372\001t\214\342"
 772      A85DC41B 
 772      1D41FA01 
 772      748CE2
 773 2231 117E39FD 		.ascii	"\021~9\375\214=\254\342\021D\002w\225\277\002\364\011"
 773      8C3DACE2 
 773      11440277 
 773      95BF02F4 
 773      09
 774 2242 5F55E1E0 		.ascii	"_U\341\340\310\376\034\020\262Rz\027\014\314\0318\032"
 774      C8FE1C10 
 774      B2527A17 
 774      0CCC1938 
 774      1A
 775 2253 EE2CAF0A 		.ascii	"\356,\257\012\225\005\303\221\354~99p\273\312\236'Z"
 775      9505C391 
 775      EC7E3939 
 775      70BBCA9E 
 775      275A
 776 2265 150E55FA 		.ascii	"\025\016U\372e\334P%q#Q\250&e\323&\341\217(\256\014"
 776      65DC5025 
 776      712351A8 
 776      2665D326 
 776      E18F28AE 
 777 227a 131F9849 		.ascii	"\023\037\230I\262\241+F\213\243\243\377Oz(\376\221\277"
 777      B2A12B46 
 777      8BA3A3FF 
 777      4F7A28FE 
 777      91BF
 778 228c 29279A0B 		.ascii	")'\232\013\007\207\203?\362G\245\3603R\370WR\370\327"
 778      0787833F 
 778      F247A5F0 
 778      3352F857 
 778      52F8D7
 779 229f 52F83752 		.ascii	"R\3707R\370Y)\374[G\270WO\270zIea\370z\332U\345\207"
 779      F85929FC 
 779      5B47B857 
 779      4FB87A49 
 779      6561F87A 
 780 22b7 DA3C4443 		.ascii	"\332<DC\243\202a\370\256,+\011\206\211\306\002\345A"
 780      A38261F8 
 780      AE2C2B09 
 780      8689C602 
 780      E541
 781 22c9 6F54B17C 		.ascii	"oT\261|\310\307\224'Z^Y\"\377&cF\304\023\015\007\311"
 781      C8C79427 
 781      5A5E5922 
 781      FF266346 
 781      C4130D07 
 782 22de F802F793 		.ascii	"\370\002\367\223\204\253<2\034\376\250\2705pgJ\312\035"
 782      84AB3C32 
 782      1CFEA8B8 
 782      3570674A 
 782      CA1D
 783 22f0 2E19037F 		.ascii	".\031\003\177\362\006G\207\242 Q\320=*Z9\354/U\231\301"
ARM GAS  /tmp/ccAPbLn4.s 			page 63


 783      F2064787 
 783      A22051D0 
 783      3D2A5A39 
 783      EC2F5599 
 784 2305 91308294 		.ascii	"\2210\202\224\007\"\330/F\221\204\243\312_\335In\352"
 784      0722D82F 
 784      469184A3 
 784      CA5FDD49 
 784      6EEA
 785 2317 88BF0C3A 		.ascii	"\210\277\014:\236?\3329\321\370rNF\225\177T \024\015"
 785      9E3FDA39 
 785      D1F8724E 
 785      46957F54 
 785      20140D
 786 232a 550CEFAC 		.ascii	"U\014\357\254f\277\\\035\254\006\256\272PwbV\207*?T"
 786      66BF5C1D 
 786      AC06AEBA 
 786      50776256 
 786      872A3F54 
 787 233e 8B491726 		.ascii	"\213I\027&!#X\005=\020\012\273\312\253\241\265R\216"
 787      21235805 
 787      3D100ABB 
 787      CAABA1B5 
 787      528E
 788 2350 AB3A7B2A 		.ascii	"\253:{*\217\222\036\350)\227\321\341\273rT\005(\015"
 788      8F921EE8 
 788      2997D1E1 
 788      BB725405 
 788      280D
 789 2362 91408472 		.ascii	"\221@\204r43\340\017\356#\234v Z\011\224\241q@f\025"
 789      3433E00F 
 789      EE239C76 
 789      205A0994 
 789      A1714066 
 790 2377 0C42BFB1 		.ascii	"\014B\277\261U\237\"\014\324y\277\322\025@\313\301p"
 790      559F220C 
 790      D479BFD2 
 790      1540CBC1 
 790      70
 791 2388 B0A218A4 		.ascii	"\260\242\030\244u\313Y\231\304\327h\356\240WFA^a^\301"
 791      75CB5999 
 791      C4D768EE 
 791      A0574641 
 791      5E615EC1 
 792 239c 1FF3727B 		.ascii	"\037\363r{\302\257\247\022\277zI\205\005\211\037OI\271"
 792      C2AFA712 
 792      BF7A4985 
 792      05891F4F 
 792      49B9
 793 23ae DA8FA75D 		.ascii	"\332\217\247]9\0059C\264\337\317\270\013\376\0149Z\306"
 793      39053943 
 793      B4DFCFB8 
 793      0BFE0C39 
 793      5AC6
 794 23c0 AFDC45FA 		.ascii	"\257\334E\372\214_{\362\237*\314\351\333O\313\371\215"
 794      8C5F7BF2 
 794      9F2ACCE9 
ARM GAS  /tmp/ccAPbLn4.s 			page 64


 794      DB4FCBF9 
 794      8D
 795 23d1 0B72288C 		.ascii	"\013r(\214g\035\340\364\372\332u?H\373\366\032=Zvx\376"
 795      671DE0F4 
 795      FADA753F 
 795      48FBF61A 
 795      3D5A7678 
 796 23e6 92F20088 		.ascii	"\222\362\000\210\376@\356\300\336\376\234\021\001\030"
 796      FE40EEC0 
 796      DEFE9C11 
 796      0118
 797 23f4 98CB3441 		.ascii	"\230\3134As\012\\9\203r\213\012\2349Cz\003\031\330\273"
 797      730A5C39 
 797      83728B0A 
 797      9C39437A 
 797      0319D8BB 
 798 2408 C0532CDF 		.ascii	"\300S,\337\343\014\225\026\207\335\241\310\210Pi4#\022"
 798      E30C9516 
 798      87DDA1C8 
 798      88506934 
 798      2312
 799 241a 2C2B0D55 		.ascii	",+\015U\224\004G\273G\302\260^\031\276?\201\014\006"
 799      940447BB 
 799      47C2B05E 
 799      19BE3F81 
 799      0C06
 800 242c 0DEA832E 		.ascii	"\015\352\203.\342\202\037\341\321\204FGg\204G\3037\261"
 800      E2821FE1 
 800      D1844647 
 800      678447C3 
 800      37B1
 801 243e F18CA89A 		.ascii	"\361\214\250\232r\202(U\256\262Hq\351p\327\010BI\224"
 801      72822855 
 801      AEB24871 
 801      E970D708 
 801      424994
 802 2451 213BB8CE 		.ascii	"!;\270\3168\310\372\003%%\341`$\022\2148!\024)!\367"
 802      38C8FA03 
 802      2525E160 
 802      24128C38 
 802      21142921 
 803 2466 97784AC1 		.ascii	"\227xJ\301c\200+\363BN\001\264\322\030\010\303\360\273"
 803      63802BF3 
 803      424E01B4 
 803      D21808C3 
 803      F0BB
 804 2478 238988CA 		.ascii	"#\211\210\312*\207\313\261]\226\366\013\274\251\366"
 804      2A87CBB1 
 804      5D96F60B 
 804      BCA9F6
 805 2487 C3112929 		.ascii	"\303\021))\366@rH :\"\253\204\014]\003+\253\301\273"
 805      F6407248 
 805      203A22AB 
 805      840C5D03 
 805      2BABC1BB 
 806 249b 94B82B10 		.ascii	"\224\270+\0208\245\331\216\014\200\321UG\340\017`}\025"
 806      38A5D98E 
ARM GAS  /tmp/ccAPbLn4.s 			page 65


 806      0C80D155 
 806      47E00F60 
 806      7D15
 807 24ad 51120EDA 		.ascii	"Q\022\016\3323=Y;\304\364\036\354\003\361[a\020L\276"
 807      333D593B 
 807      C4F41EEC 
 807      03F15B61 
 807      104CBE
 808 24c0 221A0A94 		.ascii	"\"\032\012\224\025\342\037~l\224\011\241\326S\030\012"
 808      15E21F7E 
 808      6C9409A1 
 808      D653180A 
 809 24d0 95858665 		.ascii	"\225\205\206e\017/.fB\242gz<\333\343\031:\214\202\220"
 809      0F2F2E66 
 809      42A2677A 
 809      3CDBE319 
 809      3A8C8290 
 810 24e4 88786712 		.ascii	"\210xg\022\214\370\243\216\252\352\250\003B\021\257"
 810      8CF8A38E 
 810      AAEAA803 
 810      4211AF
 811 24f3 CAB20312 		.ascii	"\312\262\003\022\216\322\362(\255\261b\301-\007H^\364"
 811      8ED2F228 
 811      ADB162C1 
 811      2D07485E 
 811      F4
 812 2504 2D246682 		.ascii	"-$f\202\277\020\225\200\333QRN\342\271\334\212\036\373"
 812      BF109580 
 812      DB51524E 
 812      E2B9DC8A 
 812      1EFB
 813 2516 E60F904A 		.ascii	"\346\017\220J#N\342\254\034\301p\330YZ\025\015\273#"
 813      234EE2AC 
 813      1CC170D8 
 813      595A150D 
 813      BB23
 814 2528 18C2BA64 		.ascii	"\030\302\272dZB\302R/\304\253~\222 \201\253\037\356"
 814      5A42C252 
 814      2FC4AB7E 
 814      922081AB 
 814      1FEE
 815 253a 710CAB2E 		.ascii	"q\014\253.u\022\264\373\024\324A\301Q=\252\002\341h"
 815      7512B4FB 
 815      14D441C1 
 815      513DAA02 
 815      E168
 816 254c 8F9E0EC8 		.ascii	"\217\236\016\310\371\225\2558\"\030\006\025\221\326"
 816      F995AD38 
 816      22180615 
 816      91D6
 817 255a 2EC4941C 		.ascii	".\304\224\034\212t\246\177\200\3462\310\300\027*\007"
 817      8A74A67F 
 817      80E632C8 
 817      C0172A07 
 818 256a 419CA089 		.ascii	"A\234\240\211\250\023T\021uc\004\030u\221~\036M\031"
 818      A8135411 
 818      75630418 
ARM GAS  /tmp/ccAPbLn4.s 			page 66


 818      75917E1E 
 818      4D19
 819 257c 13EBDA0F 		.ascii	"\023\353\332\017]+i\276N\230\362G*\253\303\304kd\321"
 819      5D2B69BE 
 819      4E98F247 
 819      2AABC3C4 
 819      6B64D1
 820 258f 3FBBC83F 		.ascii	"?\273\310?\210\257\012V\020\023\354\244\317\360@\217"
 820      88AF0A56 
 820      1013ECA4 
 820      CFF0408F 
 821 259f 232E2D13 		.ascii	"#.-\023\276\325\274\014H\313\3402\024\216\003\320 \220"
 821      BED5BC0C 
 821      48CBE032 
 821      148E03D0 
 821      2090
 822 25b1 8D49F2F7 		.ascii	"\215I\362\367Q\362\340\020\214`i\027\336\227\021)Q\006"
 822      51F2E010 
 822      8C606917 
 822      DE971129 
 822      5106
 823 25c3 938CC25C 		.ascii	"\223\214\302\\%\212\362@\212\004Q^\370\306\030\312\236"
 823      258AF240 
 823      8A04515E 
 823      F8C618CA 
 823      9E
 824 25d4 8CE88589 		.ascii	"\214\350\205\211\214\035C\025\2403u\030\200\200EMz\325"
 824      8C1D4315 
 824      A0337518 
 824      8080454D 
 824      7AD5
 825 25e6 64C6CBEA 		.ascii	"d\306\313\352\240\001\251b\354Ka\357\313~he\360\247"
 825      A001A962 
 825      EC4B61EF 
 825      CB7E6865 
 825      F0A7
 826 25f8 AE97FDD1 		.ascii	"\256\227\375\321\312*\017\334\022\206\246\207\357p\011"
 826      CA2A0FDC 
 826      1286A687 
 826      EF7009
 827 2607 7C67BC5C 		.ascii	"|g\274\\Q\031\015\225\216\001\224\227\375r\322\3752"
 827      51190D95 
 827      8E019497 
 827      FD72D2FD 
 827      32
 828 2618 A8A1E225 		.ascii	"\250\241\342%w\0101;UVG\251j\335\225\230\220B\303\244"
 828      7708313B 
 828      555647A9 
 828      6ADD9598 
 828      9042C3A4 
 829 262c CA611D87 		.ascii	"\312a\035\207\026\366.(\242\374\362\323\316~EC\012\\"
 829      16F62E28 
 829      A2FCF2D3 
 829      CE7E4543 
 829      0A5C
 830 263e D511B0A1 		.ascii	"\325\021\260\241\007\211E\017@\003\315\257\010\221\376"
 830      0789450F 
ARM GAS  /tmp/ccAPbLn4.s 			page 67


 830      4003CDAF 
 830      0891FE
 831 264d 033D408A 		.ascii	"\003=@\212\2248J\206\015\357\244\375\255\020\230\352"
 831      94384A86 
 831      0DEFA4FD 
 831      AD1098EA 
 832 265d A0995FA6 		.ascii	"\240\231_\246\222,\204\233\263\224\364\237\210}\270"
 832      922C849B 
 832      B394F49F 
 832      887DB8
 833 266c CB8215C3 		.ascii	"\313\202\025\303\243#:\323y9\221\221.\370*\217\200\007"
 833      A3233AD3 
 833      79399191 
 833      2EF82A8F 
 833      8007
 834 267e 04B30D80 		.ascii	"\004\263\015\200\353sW`\206Z4\247\2542\022\264\325]"
 834      EB735760 
 834      865A34A7 
 834      AC3212B4 
 834      D55D
 835 2690 03E1E164 		.ascii	"\003\341\341d\364\033\031@[\350\344\367\017\257\250"
 835      F41B1940 
 835      5BE8E4F7 
 835      0FAFA8
 836 269f 2EF62B3F 		.ascii	".\366+?3\377mXu\250,\372d\250\342\367\002\014\374J."
 836      33FF6D58 
 836      75A82CFA 
 836      64A8E2F7 
 836      020CFC4A 
 837 26b4 046E23E5 		.ascii	"\004n#\345\336\354\351\013c\303\320\001E\256\276\005"
 837      DEECE90B 
 837      63C3D001 
 837      45AEBE05 
 838 26c4 FEC1CF67 		.ascii	"\376\301\317g\002\205\311\302\363\376\274\202\202\016"
 838      0285C9C2 
 838      F3FEBC82 
 838      820E
 839 26d2 90CE1F54 		.ascii	"\220\316\037TD\222Y\220\0344\270H\211\247\361\207\037"
 839      44925990 
 839      1C34B848 
 839      89A7F187 
 839      1F
 840 26e3 7A709E92 		.ascii	"zp\236\222\034\322\273\250\177g\274\373\217\275\007"
 840      1CD2BBA8 
 840      7F67BCFB 
 840      8FBD07
 841 26f2 E4E7FA07 		.ascii	"\344\347\372\007\365\036\230\227A\220\362\006\345\347"
 841      F51E9897 
 841      4190F206 
 841      E5E7
 842 2700 E57A2195 		.ascii	"\345z!\225\367\347\374\302\242\373\250[\006\367\371"
 842      F7E7FCC2 
 842      A2FBA85B 
 842      06F7F9
 843 270f BF301BB9 		.ascii	"\2770\033\271\037r\310\234#\317?\244`p\021d\344\345"
 843      1F72C89C 
 843      23CF3FA4 
ARM GAS  /tmp/ccAPbLn4.s 			page 68


 843      60701164 
 843      E4E5
 844 2721 76A16ECA 		.ascii	"v\241n\312- \363\031\245\356\274A\275\373\014\220\377"
 844      2D20F319 
 844      A5EEBC41 
 844      BDFB0C90 
 844      FF
 845 2732 AED45EF8 		.ascii	"\256\324^\370BaQ\336@R\361\300\347\373\026\372{\367"
 845      426151DE 
 845      4052F1C0 
 845      E7FB16FA 
 845      7BF7
 846 2744 195C0000 		.ascii	"\031\\\000\000\204\247\242\374\201y\203\207\026\021"
 846      84A7A2FC 
 846      81798387 
 846      1611
 847 2752 1E060CCE 		.ascii	"\036\006\014\316y>/\367\376\004\310\340\241\375\372"
 847      793E2FF7 
 847      FE04C8E0 
 847      A1FDFA
 848 2761 C314A020 		.ascii	"\303\024\240 \357!r\337\340\301\376\201\275\007\275"
 848      EF2172DF 
 848      E0C1FE81 
 848      BD07BD
 849 2770 E01F3C24 		.ascii	"\340\037<$o\220\214\371 U?\214` IQ^\201\273\324_\011"
 849      6F908CF9 
 849      20553F8C 
 849      60204951 
 849      5E81BBD4 
 850 2786 E189A7D4 		.ascii	"\341\211\247\324_NL\264\003\316\205\373\005\243}\013"
 850      5F4E4CB4 
 850      03CE85FB 
 850      05A37D0B 
 851 2796 9D434145 		.ascii	"\235CAE\220\217\016\001\276\213I\353\271r\363\372\014"
 851      908F0E01 
 851      BE8B49EB 
 851      B972F3FA 
 851      0C
 852 27a7 EDF7FF00 		.ascii	"\355\367\377\000\204G\\\304"
 852      84475CC4 
 853              		.text
 854              		.section	.gnu.lto_.symtab.cb37a3282586a0b5,"",%progbits
 855 0000 64617461 		.ascii	"dataLoggerInitialize\000\000\000\000\000\000\000\000"
 855      4C6F6767 
 855      6572496E 
 855      69746961 
 855      6C697A65 
 856 001c 00000000 		.ascii	"\000\000\000\000'\003\000\000dataLoggerStop\000\000"
 856      27030000 
 856      64617461 
 856      4C6F6767 
 856      65725374 
 857 0034 00000000 		.ascii	"\000\000\000\000\000\000\000\000\000\000\324\003\000"
 857      00000000 
 857      0000D403 
 857      00
 858 0041 006C6F67 		.ascii	"\000logfileNew\000\000\000\000\000\000\000\000\000\000"
ARM GAS  /tmp/ccAPbLn4.s 			page 69


 858      66696C65 
 858      4E657700 
 858      00000000 
 858      00000000 
 859 0056 0000DA03 		.ascii	"\000\000\332\003\000\000logfileSize\000\000\000\000"
 859      00006C6F 
 859      6766696C 
 859      6553697A 
 859      65000000 
 860 006b 00000000 		.ascii	"\000\000\000\000\000\000\000\000\344\003\000\000log"
 860      00000000 
 860      E4030000 
 860      6C6F67
 861 007a 66696C65 		.ascii	"fileWrite\000\000\000\000\000\000\000\000\000\000\000"
 861      57726974 
 861      65000000 
 861      00000000 
 861      00000000 
 862 008e 00EA0300 		.ascii	"\000\352\003\000\000logfileWriteCsv\000\000\000\000"
 862      006C6F67 
 862      66696C65 
 862      57726974 
 862      65437376 
 863 00a6 00000000 		.ascii	"\000\000\000\000\000\000\000\000\365\003\000\000log"
 863      00000000 
 863      F5030000 
 863      6C6F67
 864 00b5 66696C65 		.ascii	"fileClose\000\000\000\000\000\000\000\000\000\000\000"
 864      436C6F73 
 864      65000000 
 864      00000000 
 864      00000000 
 865 00c9 00050400 		.ascii	"\000\005\004\000\000chvprintf\000\000\002\000\000\000"
 865      00636876 
 865      7072696E 
 865      74660000 
 865      02000000 
 866 00dd 00000000 		.ascii	"\000\000\000\000\000\000\014\004\000\000f_open\000\000"
 866      00000C04 
 866      0000665F 
 866      6F70656E 
 866      0000
 867 00ef 02000000 		.ascii	"\002\000\000\000\000\000\000\000\000\000\033\004\000"
 867      00000000 
 867      00001B04 
 867      00
 868 00fc 00665F6D 		.ascii	"\000f_mount\000\000\002\000\000\000\000\000\000\000"
 868      6F756E74 
 868      00000200 
 868      00000000 
 868      0000
 869 010e 00004E04 		.ascii	"\000\000N\004\000\000sdmmcGetFS\000\000\002\000\000"
 869      00007364 
 869      6D6D6347 
 869      65744653 
 869      00000200 
 870 0123 00000000 		.ascii	"\000\000\000\000\000\000\000T\004\000\000f_write\000"
ARM GAS  /tmp/ccAPbLn4.s 			page 70


 870      00000054 
 870      04000066 
 870      5F777269 
 870      746500
 871 0136 00020000 		.ascii	"\000\002\000\000\000\000\000\000\000\000\000X\004\000"
 871      00000000 
 871      00000058 
 871      0400
 872 0144 00665F63 		.ascii	"\000f_close\000\000\002\000\000\000\000\000\000\000"
 872      6C6F7365 
 872      00000200 
 872      00000000 
 872      0000
 873 0156 00006304 		.ascii	"\000\000c\004\000\000"
 873      0000
 874              		.text
 875              		.section	.gnu.lto_.opts,"",%progbits
 876 0000 272D6D63 		.ascii	"'-mcpu=cortex-m3' '-mno-thumb-interwork' '-mthumb' "
 876      70753D63 
 876      6F727465 
 876      782D6D33 
 876      2720272D 
 877 0033 272D4F32 		.ascii	"'-O2' '-fomit-frame-pointer' '-falign-functions=16'"
 877      2720272D 
 877      666F6D69 
 877      742D6672 
 877      616D652D 
 878 0066 20272D66 		.ascii	" '-ffunction-sections' '-fdata-sections' '-fno-comm"
 878      66756E63 
 878      74696F6E 
 878      2D736563 
 878      74696F6E 
 879 0099 6F6E2720 		.ascii	"on' '-flto'\000"
 879      272D666C 
 879      746F2700 
 880              		.text
 881              		.section	.text.chprintf,"ax",%progbits
 882              		.align	2
 883              		.p2align 4,,15
 884              		.thumb
 885              		.thumb_func
 886              		.type	chprintf, %function
 887              	chprintf:
 888              		@ args = 4, pretend = 12, frame = 8
 889              		@ frame_needed = 0, uses_anonymous_args = 1
 890 0000 0EB4     		push	{r1, r2, r3}
 891 0002 00B5     		push	{lr}
 892 0004 82B0     		sub	sp, sp, #8
 893 0006 03AB     		add	r3, sp, #12
 894 0008 53F8041B 		ldr	r1, [r3], #4
 895 000c 1A46     		mov	r2, r3
 896 000e 0193     		str	r3, [sp, #4]
 897 0010 FFF7FEFF 		bl	chvprintf
 898 0014 02B0     		add	sp, sp, #8
 899              		@ sp needed
 900 0016 5DF804EB 		ldr	lr, [sp], #4
 901 001a 03B0     		add	sp, sp, #12
ARM GAS  /tmp/ccAPbLn4.s 			page 71


 902 001c 7047     		bx	lr
 903              		.size	chprintf, .-chprintf
 904 001e 00BF     		.section	.text.dataLoggerInitialize,"ax",%progbits
 905              		.align	2
 906              		.p2align 4,,15
 907              		.global	dataLoggerInitialize
 908              		.thumb
 909              		.thumb_func
 910              		.type	dataLoggerInitialize, %function
 911              	dataLoggerInitialize:
 912              		@ args = 0, pretend = 0, frame = 0
 913              		@ frame_needed = 0, uses_anonymous_args = 0
 914 0000 70B5     		push	{r4, r5, r6, lr}
 915 0002 0446     		mov	r4, r0
 916 0004 0D46     		mov	r5, r1
 917 0006 DAB1     		cbz	r2, .L6
 918 0008 C0B1     		cbz	r0, .L3
 919 000a 1249     		ldr	r1, .L11
 920 000c 124E     		ldr	r6, .L11+4
 921 000e 0260     		str	r2, [r0]
 922 0010 1046     		mov	r0, r2
 923 0012 002D     		cmp	r5, #0
 924 0014 08BF     		it	eq
 925 0016 0D46     		moveq	r5, r1
 926 0018 3360     		str	r3, [r6]
 927 001a FFF7FEFF 		bl	sdmmcGetFS
 928 001e A560     		str	r5, [r4, #8]
 929 0020 2946     		mov	r1, r5
 930 0022 6060     		str	r0, [r4, #4]
 931 0024 0122     		movs	r2, #1
 932 0026 FFF7FEFF 		bl	f_mount
 933 002a 0546     		mov	r5, r0
 934 002c 58B9     		cbnz	r0, .L10
 935 002e 0123     		movs	r3, #1
 936 0030 3068     		ldr	r0, [r6]
 937 0032 2373     		strb	r3, [r4, #12]
 938 0034 0949     		ldr	r1, .L11+8
 939 0036 FFF7FEFF 		bl	chprintf
 940 003a 2846     		mov	r0, r5
 941              	.L3:
 942 003c 40B2     		sxtb	r0, r0
 943 003e 70BD     		pop	{r4, r5, r6, pc}
 944              	.L6:
 945 0040 1046     		mov	r0, r2
 946 0042 40B2     		sxtb	r0, r0
 947 0044 70BD     		pop	{r4, r5, r6, pc}
 948              	.L10:
 949 0046 3068     		ldr	r0, [r6]
 950 0048 2A46     		mov	r2, r5
 951 004a 0549     		ldr	r1, .L11+12
 952 004c FFF7FEFF 		bl	chprintf
 953 0050 FF20     		movs	r0, #255
 954 0052 F3E7     		b	.L3
 955              	.L12:
 956              		.align	2
 957              	.L11:
 958 0054 00000000 		.word	.LC0
ARM GAS  /tmp/ccAPbLn4.s 			page 72


 959 0058 00000000 		.word	.LANCHOR0
 960 005c 34000000 		.word	.LC2
 961 0060 04000000 		.word	.LC1
 962              		.size	dataLoggerInitialize, .-dataLoggerInitialize
 963 0064 AFF30080 		.section	.text.dataLoggerStop,"ax",%progbits
 963      AFF30080 
 963      AFF30080 
 964              		.align	2
 965              		.p2align 4,,15
 966              		.global	dataLoggerStop
 967              		.thumb
 968              		.thumb_func
 969              		.type	dataLoggerStop, %function
 970              	dataLoggerStop:
 971              		@ args = 0, pretend = 0, frame = 0
 972              		@ frame_needed = 0, uses_anonymous_args = 0
 973 0000 074B     		ldr	r3, .L14
 974 0002 10B5     		push	{r4, lr}
 975 0004 0749     		ldr	r1, .L14+4
 976 0006 0446     		mov	r4, r0
 977 0008 1868     		ldr	r0, [r3]
 978 000a FFF7FEFF 		bl	chprintf
 979 000e 0020     		movs	r0, #0
 980 0010 0146     		mov	r1, r0
 981 0012 0246     		mov	r2, r0
 982 0014 FFF7FEFF 		bl	f_mount
 983 0018 0020     		movs	r0, #0
 984 001a 2073     		strb	r0, [r4, #12]
 985 001c 10BD     		pop	{r4, pc}
 986              	.L15:
 987 001e 00BF     		.align	2
 988              	.L14:
 989 0020 00000000 		.word	.LANCHOR0
 990 0024 54000000 		.word	.LC3
 991              		.size	dataLoggerStop, .-dataLoggerStop
 992 0028 AFF30080 		.section	.text.logfileNew,"ax",%progbits
 992      AFF30080 
 993              		.align	2
 994              		.p2align 4,,15
 995              		.global	logfileNew
 996              		.thumb
 997              		.thumb_func
 998              		.type	logfileNew, %function
 999              	logfileNew:
 1000              		@ args = 0, pretend = 0, frame = 0
 1001              		@ frame_needed = 0, uses_anonymous_args = 0
 1002 0000 F8B5     		push	{r3, r4, r5, r6, r7, lr}
 1003 0002 0F4C     		ldr	r4, .L23
 1004 0004 0D46     		mov	r5, r1
 1005 0006 0746     		mov	r7, r0
 1006 0008 0E49     		ldr	r1, .L23+4
 1007 000a 2068     		ldr	r0, [r4]
 1008 000c 1646     		mov	r6, r2
 1009 000e FFF7FEFF 		bl	chprintf
 1010 0012 2B7B     		ldrb	r3, [r5, #12]	@ zero_extendqisi2
 1011 0014 13B9     		cbnz	r3, .L21
 1012 0016 1846     		mov	r0, r3
ARM GAS  /tmp/ccAPbLn4.s 			page 73


 1013 0018 40B2     		sxtb	r0, r0
 1014 001a F8BD     		pop	{r3, r4, r5, r6, r7, pc}
 1015              	.L21:
 1016 001c FE60     		str	r6, [r7, #12]
 1017 001e 3046     		mov	r0, r6
 1018 0020 0949     		ldr	r1, .L23+8
 1019 0022 0A22     		movs	r2, #10
 1020 0024 FFF7FEFF 		bl	f_open
 1021 0028 0546     		mov	r5, r0
 1022 002a 08B9     		cbnz	r0, .L22
 1023 002c 40B2     		sxtb	r0, r0
 1024 002e F8BD     		pop	{r3, r4, r5, r6, r7, pc}
 1025              	.L22:
 1026 0030 2068     		ldr	r0, [r4]
 1027 0032 0649     		ldr	r1, .L23+12
 1028 0034 2A46     		mov	r2, r5
 1029 0036 FFF7FEFF 		bl	chprintf
 1030 003a E8B2     		uxtb	r0, r5
 1031 003c 40B2     		sxtb	r0, r0
 1032 003e F8BD     		pop	{r3, r4, r5, r6, r7, pc}
 1033              	.L24:
 1034              		.align	2
 1035              	.L23:
 1036 0040 00000000 		.word	.LANCHOR0
 1037 0044 74000000 		.word	.LC4
 1038 0048 98000000 		.word	.LC5
 1039 004c A8000000 		.word	.LC6
 1040              		.size	logfileNew, .-logfileNew
 1041              		.section	.text.logfileSize,"ax",%progbits
 1042              		.align	2
 1043              		.p2align 4,,15
 1044              		.global	logfileSize
 1045              		.thumb
 1046              		.thumb_func
 1047              		.type	logfileSize, %function
 1048              	logfileSize:
 1049              		@ args = 0, pretend = 0, frame = 0
 1050              		@ frame_needed = 0, uses_anonymous_args = 0
 1051              		@ link register save eliminated.
 1052 0000 0020     		movs	r0, #0
 1053 0002 7047     		bx	lr
 1054              		.size	logfileSize, .-logfileSize
 1055 0004 AFF30080 		.section	.text.logfileWrite,"ax",%progbits
 1055      AFF30080 
 1055      AFF30080 
 1056              		.align	2
 1057              		.p2align 4,,15
 1058              		.global	logfileWrite
 1059              		.thumb
 1060              		.thumb_func
 1061              		.type	logfileWrite, %function
 1062              	logfileWrite:
 1063              		@ args = 0, pretend = 0, frame = 8
 1064              		@ frame_needed = 0, uses_anonymous_args = 0
 1065 0000 10B5     		push	{r4, lr}
 1066 0002 82B0     		sub	sp, sp, #8
 1067 0004 C068     		ldr	r0, [r0, #12]
ARM GAS  /tmp/ccAPbLn4.s 			page 74


 1068 0006 01AB     		add	r3, sp, #4
 1069 0008 1446     		mov	r4, r2
 1070 000a FFF7FEFF 		bl	f_write
 1071 000e 28B9     		cbnz	r0, .L28
 1072 0010 0198     		ldr	r0, [sp, #4]
 1073 0012 201A     		subs	r0, r4, r0
 1074 0014 18BF     		it	ne
 1075 0016 0120     		movne	r0, #1
 1076 0018 02B0     		add	sp, sp, #8
 1077              		@ sp needed
 1078 001a 10BD     		pop	{r4, pc}
 1079              	.L28:
 1080 001c 0120     		movs	r0, #1
 1081 001e 02B0     		add	sp, sp, #8
 1082              		@ sp needed
 1083 0020 10BD     		pop	{r4, pc}
 1084              		.size	logfileWrite, .-logfileWrite
 1085 0022 00BFAFF3 		.section	.text.logfileWriteCsv,"ax",%progbits
 1085      0080AFF3 
 1085      0080AFF3 
 1085      0080
 1086              		.align	2
 1087              		.p2align 4,,15
 1088              		.global	logfileWriteCsv
 1089              		.thumb
 1090              		.thumb_func
 1091              		.type	logfileWriteCsv, %function
 1092              	logfileWriteCsv:
 1093              		@ args = 0, pretend = 0, frame = 0
 1094              		@ frame_needed = 0, uses_anonymous_args = 0
 1095              		@ link register save eliminated.
 1096 0000 0020     		movs	r0, #0
 1097 0002 7047     		bx	lr
 1098              		.size	logfileWriteCsv, .-logfileWriteCsv
 1099 0004 AFF30080 		.section	.text.logfileClose,"ax",%progbits
 1099      AFF30080 
 1099      AFF30080 
 1100              		.align	2
 1101              		.p2align 4,,15
 1102              		.global	logfileClose
 1103              		.thumb
 1104              		.thumb_func
 1105              		.type	logfileClose, %function
 1106              	logfileClose:
 1107              		@ args = 0, pretend = 0, frame = 0
 1108              		@ frame_needed = 0, uses_anonymous_args = 0
 1109 0000 08B5     		push	{r3, lr}
 1110 0002 C068     		ldr	r0, [r0, #12]
 1111 0004 FFF7FEFF 		bl	f_close
 1112 0008 0030     		adds	r0, r0, #0
 1113 000a 18BF     		it	ne
 1114 000c 0120     		movne	r0, #1
 1115 000e 08BD     		pop	{r3, pc}
 1116              		.size	logfileClose, .-logfileClose
 1117              		.section	.bss.DEBUG,"aw",%nobits
 1118              		.align	2
 1119              		.set	.LANCHOR0,. + 0
ARM GAS  /tmp/ccAPbLn4.s 			page 75


 1120              		.type	DEBUG, %object
 1121              		.size	DEBUG, 4
 1122              	DEBUG:
 1123 0000 00000000 		.space	4
 1124              		.section	.rodata.str1.4,"aMS",%progbits,1
 1125              		.align	2
 1126              	.LC0:
 1127 0000 00       		.ascii	"\000"
 1128 0001 000000   		.space	3
 1129              	.LC1:
 1130 0004 44415441 		.ascii	"DATALOGGER: Error Mounting Filesystem,ERR%20d\012\000"
 1130      4C4F4747 
 1130      45523A20 
 1130      4572726F 
 1130      72204D6F 
 1131 0033 00       		.space	1
 1132              	.LC2:
 1133 0034 44415441 		.ascii	"DATALOGGER: Datalogger Started\012\000"
 1133      4C4F4747 
 1133      45523A20 
 1133      44617461 
 1133      6C6F6767 
 1134              	.LC3:
 1135 0054 44415441 		.ascii	"DATALOGGER: Datalogger Stopped\012\000"
 1135      4C4F4747 
 1135      45523A20 
 1135      44617461 
 1135      6C6F6767 
 1136              	.LC4:
 1137 0074 44415441 		.ascii	"DATALOGGER: Creating New Logfile\012\000"
 1137      4C4F4747 
 1137      45523A20 
 1137      43726561 
 1137      74696E67 
 1138 0096 0000     		.space	2
 1139              	.LC5:
 1140 0098 2F746573 		.ascii	"/testLog.txt\000"
 1140      744C6F67 
 1140      2E747874 
 1140      00
 1141 00a5 000000   		.space	3
 1142              	.LC6:
 1143 00a8 44415441 		.ascii	"DATALOGGER: Error creating Logfile, ERR%02d\012\000"
 1143      4C4F4747 
 1143      45523A20 
 1143      4572726F 
 1143      72206372 
 1144              		.comm	__gnu_lto_v1,1,1
 1145 00d5 000000   		.ident	"GCC: (GNU Tools for ARM Embedded Processors) 4.8.4 20140526 (release) [ARM/embedded-4_8-br
ARM GAS  /tmp/ccAPbLn4.s 			page 76


DEFINED SYMBOLS
                            *ABS*:0000000000000000 datalogger.c
     /tmp/ccAPbLn4.s:882    .text.chprintf:0000000000000000 $t
     /tmp/ccAPbLn4.s:887    .text.chprintf:0000000000000000 chprintf
     /tmp/ccAPbLn4.s:905    .text.dataLoggerInitialize:0000000000000000 $t
     /tmp/ccAPbLn4.s:911    .text.dataLoggerInitialize:0000000000000000 dataLoggerInitialize
     /tmp/ccAPbLn4.s:958    .text.dataLoggerInitialize:0000000000000054 $d
     /tmp/ccAPbLn4.s:964    .text.dataLoggerStop:0000000000000000 $t
     /tmp/ccAPbLn4.s:970    .text.dataLoggerStop:0000000000000000 dataLoggerStop
     /tmp/ccAPbLn4.s:989    .text.dataLoggerStop:0000000000000020 $d
     /tmp/ccAPbLn4.s:993    .text.logfileNew:0000000000000000 $t
     /tmp/ccAPbLn4.s:999    .text.logfileNew:0000000000000000 logfileNew
     /tmp/ccAPbLn4.s:1036   .text.logfileNew:0000000000000040 $d
     /tmp/ccAPbLn4.s:1042   .text.logfileSize:0000000000000000 $t
     /tmp/ccAPbLn4.s:1048   .text.logfileSize:0000000000000000 logfileSize
     /tmp/ccAPbLn4.s:1056   .text.logfileWrite:0000000000000000 $t
     /tmp/ccAPbLn4.s:1062   .text.logfileWrite:0000000000000000 logfileWrite
     /tmp/ccAPbLn4.s:1086   .text.logfileWriteCsv:0000000000000000 $t
     /tmp/ccAPbLn4.s:1092   .text.logfileWriteCsv:0000000000000000 logfileWriteCsv
     /tmp/ccAPbLn4.s:1100   .text.logfileClose:0000000000000000 $t
     /tmp/ccAPbLn4.s:1106   .text.logfileClose:0000000000000000 logfileClose
     /tmp/ccAPbLn4.s:1118   .bss.DEBUG:0000000000000000 $d
     /tmp/ccAPbLn4.s:1122   .bss.DEBUG:0000000000000000 DEBUG
     /tmp/ccAPbLn4.s:1125   .rodata.str1.4:0000000000000000 $d
                            *COM*:0000000000000001 __gnu_lto_v1
     /tmp/ccAPbLn4.s:963    .text.dataLoggerInitialize:0000000000000064 $t
     /tmp/ccAPbLn4.s:992    .text.dataLoggerStop:0000000000000028 $t

UNDEFINED SYMBOLS
chvprintf
sdmmcGetFS
f_mount
f_open
f_write
f_close
