ARM GAS  /tmp/cc8rfvLe.s 			page 1


   1              		.syntax unified
   2              		.cpu cortex-m4
   3              		.eabi_attribute 27, 3
   4              		.eabi_attribute 28, 1
   5              		.fpu fpv4-sp-d16
   6              		.eabi_attribute 20, 1
   7              		.eabi_attribute 21, 1
   8              		.eabi_attribute 23, 3
   9              		.eabi_attribute 24, 1
  10              		.eabi_attribute 25, 1
  11              		.eabi_attribute 26, 1
  12              		.eabi_attribute 30, 2
  13              		.eabi_attribute 34, 1
  14              		.eabi_attribute 18, 4
  15              		.thumb
  16              		.file	"datalogger.c"
  17              		.section	.gnu.lto_.jmpfuncs.71ba7478757c25a3,"",%progbits
  18 0000 789C7D50 		.ascii	"x\234}P\273N\3030\024\275\327N\2336\005\005\361\001"
  18      BB4EC330 
  18      14BDD74E 
  18      9B360505 
  18      F101
  19 0012 9185C456 		.ascii	"\221\205\304V\324\252#\023\025\015]\312C\205\2015\002"
  19      D4AA2313 
  19      150D5DCA 
  19      43858135 
  19      02
  20 0023 134594A6 		.ascii	"\023E\224\246rC\020b\311gta\340[\370+&\256\035\007Y"
  20      72431062 
  20      C9677461 
  20      E05BF82B 
  20      26AE1D07 
  21 0038 059121E7 		.ascii	"\005\221!\347\306\347qO\314\200\301_\317#\002|\022\356"
  21      C6E7714F 
  21      CC80C15F 
  21      CF23027C 
  21      12EE
  22 004a 02A78973 		.ascii	"\002\247\211s\032KB\000,5M&v\213\031\352\031}n\317\011"
  22      1A4B4200 
  22      2C354D26 
  22      768B19EA 
  22      197D6ECF 
  23 005f 5869190C 		.ascii	"Xi\031\014\352\3577\370\2526\325^\206,\002|\2576'\031"
  23      EAEF37F8 
  23      AA36D55E 
  23      862C027C 
  23      AF362719 
  24 0073 72BB8323 		.ascii	"r\273\203#\371\275\220\271*/\202A\255j\325\032\227l"
  24      F9BD90B9 
  24      2A2F8241 
  24      AD6AD51A 
  24      976C
  25 0085 47705593 		.ascii	"GpU\223~\023a\312\230}\224\205\266@\013\2719\3534d\367"
  25      7E1361CA 
  25      987D9485 
  25      B6400BB9 
  25      39EB3464 
ARM GAS  /tmp/cc8rfvLe.s 			page 2


  26 009a 4765BBBB 		.ascii	"Ge\273\273\373*t\027\266C\347gY\015\274\334r\005\021"
  26      FB2A7417 
  26      B643E767 
  26      590DBCDC 
  26      720511
  27 00ad 7C5857CF 		.ascii	"|XW\317\270|\350@\027\003\235\337\323/\266Un\037`'D"
  27      B87CE840 
  27      17039DDF 
  27      D32FB655 
  27      6E1F6027 
  28 00c2 1BEC3917 		.ascii	"\033\3549\027IH\227lz\035M\3067\343\331\345t\032\317"
  28      4948976C 
  28      7A1D4DC6 
  28      37E3D9E5 
  28      741ACF
  29 00d5 8F45AC54 		.ascii	"\217E\254T\256\304\235\222I\221-S1\313\323\207l!\373"
  29      AEC49D92 
  29      49912D53 
  29      31CBD387 
  29      6C21FB
  30 00e8 229ECF0F 		.ascii	"\"\236\317\017\207\243\373\000\204\253\236$E\262\310"
  30      87A3FB00 
  30      84AB9E24 
  30      45B2C8
  31 00f7 D3542A71 		.ascii	"\323T*q]$\252\220$\030\374\216;\317\237\227&\356\214"
  31      5D24AA90 
  31      2418FC8E 
  31      3BCF9F97 
  31      26EE8C
  32 010a B2D6AFEB 		.ascii	"\262\326\257\353B>\365u\340h\370o`\276Z\351\300\003"
  32      423EF575 
  32      E068F86F 
  32      60BE5AE9 
  32      C003
  33 011c 5770DA34 		.ascii	"Wp\3324\273\220/M\273\000\276\0014\023h\312"
  33      BB902F4D 
  33      BB00BE01 
  33      341368CA 
  34              		.text
  35              		.section	.gnu.lto_.inline.71ba7478757c25a3,"",%progbits
  36 0000 789C7552 		.ascii	"x\234uR=O\3030\020}g_\022\247M\032\350R@\255\032D\021"
  36      3D4FC330 
  36      107D675F 
  36      12A74D1A 
  36      E85240AD 
  37 0017 2C8C74E2 		.ascii	",\214t\342\037 uf\354\326\362/\242\012\241\216\375\001"
  37      1F207566 
  37      ECD6F22F 
  37      A20AA18E 
  37      FD01
  38 0029 48F44720 		.ascii	"H\364G \201\020kw\306\212\221\211\037\300\200\020\003"
  38      81106B77 
  38      C68A9189 
  38      1FC08010 
  38      03
  39 003a 673B89F8 		.ascii	"g;\211\370L\224\363\363\371\331~\367.\012\012\177=\367"
  39      4C94F3F3 
ARM GAS  /tmp/cc8rfvLe.s 			page 3


  39      F9D97EF7 
  39      2E0A0A7F 
  39      3DF7
  40 004c 653A0537 		.ascii	"e:\0057\273p\244p\331\257\271\204\240\005\350\305\310"
  40      BB70A470 
  40      D9AFB984 
  40      A005E8C5 
  40      C8
  41 005d BE3A7104 		.ascii	"\276:q\004B{\207\240\342\347\023\304\353\241\243\326"
  41      427B87A0 
  41      E2E713C4 
  41      EBA1A3D6 
  42 006d 2470EA10 		.ascii	"$p\352\020\204\315\361&\221\260\241\307\314\313\276"
  42      84CDF126 
  42      91B0A1C7 
  42      CCCBBE
  43 007c 3F975E22 		.ascii	"?\227^\"\366\321\356\263'\322b\304\330=\242XM\316\350"
  43      F6D1EEB3 
  43      27D262C4 
  43      D83DA258 
  43      4DCEE8
  44 008f 9C240335 		.ascii	"\234$\0035\255\020\\.\265hZ!r\271\226E\323\012)\362"
  44      AD105C2E 
  44      B5685A21 
  44      72B99645 
  44      D30A29F2 
  45 00a3 6AE5B321 		.ascii	"j\345\263!\252\312\220{\013\211\363n\301\006\255\233"
  45      AACA907B 
  45      0B89F36E 
  45      C106AD9B 
  46 00b3 D3DC80AF 		.ascii	"\323\334\200\257\266\013c\307\217\255\334\250R\205\314"
  46      B60B63C7 
  46      8FADDCA8 
  46      5285CC
  47 00c2 95572FC8 		.ascii	"\225W/\310\353\227\232<\226\231g\210\322\000IOj\327"
  47      EB979A3C 
  47      96996788 
  47      D200494F 
  47      6AD7
  48 00d4 771D44F3 		.ascii	"w\035D\363\003\267\333U\\\326b\317\010\221u\204\022"
  48      03B7DB55 
  48      5CD662CF 
  48      08917584 
  48      12
  49 00e5 AD8735E5 		.ascii	"\255\2075\345\247\207\302\212\240E\363W\273\315\257"
  49      A787C28A 
  49      A045F357 
  49      BBCDAF
  50 00f4 4C0CD6A5 		.ascii	"L\014\326\245\203\005q\265\360\335\301\006\032\355\332"
  50      830571B5 
  50      F0DDC106 
  50      1AEDDA
  51 0103 E5603640 		.ascii	"\345`6@4\033\374\343r\023\235.)Ou1\017\223\247c\230"
  51      341BFCE3 
  51      72139D2E 
  51      294F7531 
  51      0F93A763 
ARM GAS  /tmp/cc8rfvLe.s 			page 4


  52 0118 87BD6F1B 		.ascii	"\207\275o\033$\030\007\215\335\253\232\276C\251\223"
  52      2418078D 
  52      DDAB9ABE 
  52      43A993
  53 0127 ED5C293D 		.ascii	"\355\\)=I\270\337\243@\273\026d\366\226I\215\252f\350"
  53      49B8DFA3 
  53      40BB1664 
  53      F696498D 
  53      AA66E8
  54 013a B1EB4B98 		.ascii	"\261\353K\230]\313\257r{\250`.\3667@\257:\267\227\331"
  54      5DCBAF72 
  54      7BA8602E 
  54      F63740AF 
  54      3AB797D9 
  55 014e 01FC9855 		.ascii	"\001\374\230U\032\331^\024\312\001\354\255\252s)\322"
  55      1AD95E14 
  55      CA01ECAD 
  55      AA7329D2 
  56 015e 95D4A85A 		.ascii	"\225\324\250Z\357o\006\346rE\312+#\273\210OY#T\205"
  56      EF6F06E6 
  56      7245CA2B 
  56      23BB884F 
  56      59235485 
  57              		.text
  58              		.section	.gnu.lto_.pureconst.71ba7478757c25a3,"",%progbits
  59 0000 789C6362 		.ascii	"x\234cb`b\220f\200\000^\006\011F)fI\026)V)6Iv\006\016"
  59      60629066 
  59      80005E06 
  59      09462966 
  59      49162956 
  60 001a 064E562E 		.ascii	"\006NV.)nI\036)^K\000\026\354\001\251"
  60      296E491E 
  60      295E4B00 
  60      16EC01A9 
  61              		.text
  62              		.section	.gnu.lto_chprintf.71ba7478757c25a3,"",%progbits
  63 0000 789C8550 		.ascii	"x\234\205P\315J\002Q\024>\337\0355uc\333v\342\0034\213"
  63      CD4A0251 
  63      143EDF1D 
  63      357563DB 
  63      76E20334 
  64 0015 22E80D7A 		.ascii	"\"\350\015z\000\203Z\3058\216z\011\035\321Q\260\026"
  64      00835AC5 
  64      388E7A09 
  64      1DD151B0 
  64      16
  65 0026 5EC1C245 		.ascii	"^\301\302E\013ig\021)\321:\244\027\030\202\332DI\273"
  65      0B696711 
  65      29D13AA4 
  65      171882DA 
  65      4449BB
  66 0039 162D2497 		.ascii	"\026-$\227\265h\321*\202\351\336\031\024\372\201\016"
  66      B568D12A 
  66      82E9DE19 
  66      14FA810E 
  67 0049 DC7B7EBE 		.ascii	"\334{~\276s\276\363\303\210\321OY\220o\010\2425\251"
  67      73BEF3C3 
ARM GAS  /tmp/cc8rfvLe.s 			page 5


  67      88D14F59 
  67      906F08A2 
  67      35A9
  68 005b A11158F7 		.ascii	"\241\021X\367\236\250\025e\2002\010\324dhnB\245\262"
  68      9EA81565 
  68      803208D4 
  68      64686E42 
  68      A5B2
  69 006d 140D84DB 		.ascii	"\024\015\204\333\035_O\036\321\023n\273/>=\017\340\220"
  69      1D5F4F1E 
  69      D1136EBB 
  69      2F3E3D0F 
  69      E090
  70 007f B42B2013 		.ascii	"\264+ \023\264!\035$}\305B\337\373\250Z\321uOon!\016"
  70      B4211D24 
  70      7DC542DF 
  70      FBA85AD1 
  70      754F6F6E 
  71 0095 45EBCDF3 		.ascii	"E\353\315\363\022\034\032\243\325\377\012/\230\373\354"
  71      121C1AA3 
  71      D5FF0A2F 
  71      98FBEC
  72 00a4 794FC3F7 		.ascii	"yO\303\367\203W\364XLC\021\024\222\037\"d\340\014)\225"
  72      8357F458 
  72      4C431114 
  72      921F2264 
  72      E00C2995 
  73 00b8 13A6B624 		.ascii	"\023\246\266$O\032\030H\177\0325\375\241\323\362W\233"
  73      4F1A1848 
  73      7F1A35FD 
  73      A1D3F257 
  73      9B
  74 00c9 AC8329AD 		.ascii	"\254\203)\255\215ho\3343\015\234#,\321]\372\020\035"
  74      8D686FDC 
  74      330D9C23 
  74      2CD15DFA 
  74      101D
  75 00db 31CF1132 		.ascii	"1\317\0212\341\247\313\310\016Gx\312\344g\251\2514\""
  75      E1A7CBC8 
  75      0E4778CA 
  75      E467A9A9 
  75      3422
  76 00ed 2E3BD288 		.ascii	".;\322\210\366\307G\223x\200\344\021\231\021\314\231"
  76      F6C74793 
  76      7880E411 
  76      9911CC99 
  77 00fd 088E9B87 		.ascii	"\010\216\233\207\226G( \340\210\252\222\366\370\370"
  77      96472820 
  77      E088AA92 
  77      F6F8F8
  78 010c 77C798A9 		.ascii	"w\307\230\251H\377\356\310\021'\272\243\253\027\026"
  78      48FFEEC8 
  78      1127BAA3 
  78      AB1716
  79 011b 04027099 		.ascii	"\004\002p\231.EG\235[\312\003\265\372'\332l\214\340"
  79      2E45479D 
  79      5BCA03B5 
ARM GAS  /tmp/cc8rfvLe.s 			page 6


  79      FA27DA6C 
  79      8CE0
  80 012d 5469B983 		.ascii	"Ti\271\203\334Q\315\261\244\027\354\242\245\233v\266"
  80      DC51CDB1 
  80      A417ECA2 
  80      A59B76B6 
  81 013d A167ADBA 		.ascii	"\241g\255\272n\026x\206\333U\335\251\324J\333\2724\352"
  81      6E167886 
  81      DB55DDA9 
  81      D44ADBBA 
  81      34EA
  82 014f 4685DBB5 		.ascii	"F\205\333\265\252\004\312\025^rr\213\005bF9\221\263"
  82      AA04CA15 
  82      5E72728B 
  82      05624639 
  82      91B3
  83 0161 2B45C371 		.ascii	"+E\303q\254\354V\246\341X\325/\251H\201#"
  83      ACEC56A6 
  83      E158D52F 
  83      A9488123 
  84              		.text
  85              		.section	.gnu.lto_logfileNew.part.0.71ba7478757c25a3,"",%progbits
  86 0000 789C8592 		.ascii	"x\234\205\222Mh\324P\020\307g\336K\2621\266\356Z\025"
  86      4D68D450 
  86      10C767DE 
  86      4BB231B6 
  86      EE5A15
  87 0013 11710915 		.ascii	"\021q\011\025O\332\252{\354E+]\366R\260,\273\240\307"
  87      4FDAAA7B 
  87      EC452B5D 
  87      F652B02C 
  87      BBA0C7
  88 0026 98AE21D0 		.ascii	"\230\256!\320\272\020{\363\320\267u-\036zX<\255V\305"
  88      BA107BF3 
  88      D0B7752D 
  88      1E7A583C 
  88      AD56C5
  89 0039 2252F022 		.ascii	"\"R\360\"=Y\212\207z\253\210_\027Q\020\273(\336D\274"
  89      3D598A87 
  89      7AAB885F 
  89      175110BB 
  89      28DE44BC 
  90 004d 0852A871 		.ascii	"\010R\250q&\311nk\265\370 3\223\311\374\346?y\357\011"
  90      26C96E6B 
  90      B5F82033 
  90      93C9FCE6 
  90      3F79EF09 
  91 0061 10B0750D 		.ascii	"\020\260u\015\320\323#\001F\310\243\001\2507^R\240\243"
  91      D0D32301 
  91      46C8A301 
  91      A8375E52 
  91      A0A3
  92 0073 88BC1072 		.ascii	"\210\274\020r)\013\312\322\336\036\007\325%Q\343l\315"
  92      290BCAD2 
  92      DE1E07D5 
  92      2551E36C 
  92      CD
ARM GAS  /tmp/cc8rfvLe.s 			page 7


  93 0084 D4103900 		.ascii	"\324\0209\000\204I]H\015'\317#\367\222\2750\247\324"
  93      84495D48 
  93      0D27CF23 
  93      F792BD30 
  93      A7D4
  94 0096 8DD6B5D9 		.ascii	"\215\326\265\331\231\003\352\336TC\375\012C\364\221"
  94      9903EADE 
  94      5443FD0A 
  94      43F491
  95 00a5 5433082E 		.ascii	"T3\010.\3029zA;rB\373s\214\230\\^\375\261\210jZ\325"
  95      C2397A41 
  95      3B7242FB 
  95      738C985C 
  95      5EFDB188 
  96 00bc BE8761DA 		.ascii	"\276\207a\332G)`\377\006h\306 \376\023\374\360edE\325"
  96      472960FF 
  96      0668C620 
  96      FE13FCF0 
  96      656445D5 
  97 00d0 97C3F094 		.ascii	"\227\303\360\224\217\232\200\203\377\323{$T+\014o~6"
  97      8F9A8083 
  97      FFD37B24 
  97      542B0C6F 
  97      7E36
  98 00e2 3388E334 		.ascii	"3\210\3434!\031\224d\250\316\301\373\330\013:\371\007"
  98      21199464 
  98      A8CEC1FB 
  98      D80B3AF9 
  98      07
  99 00f3 E40DF051 		.ascii	"\344\015\360QO\2211L6\204\352PW\252a\307e\016\316\221"
  99      4F91314C 
  99      3684EA50 
  99      57AA61C7 
  99      650ECE91 
 100 0107 0556A355 		.ascii	"\005V\243U\"\313\033SB\235\275,\243\210\374\013\230"
 100      22CB1B53 
 100      429DBD2C 
 100      A388FC0B 
 100      98
 101 0118 7AFEEE63 		.ascii	"z\376\356c\332\301y\372p\024\036*Z'}L\315\302\255\232"
 101      DAC179FA 
 101      70141E2A 
 101      5A277D4C 
 101      CDC2AD9A 
 102 012c 52191F4D 		.ascii	"R\031\037M\017\005\217\271#\032\356B\362\217\036R@\354"
 102      0F058FB9 
 102      231AEE42 
 102      F28F1E52 
 102      40EC
 103 013e E2CFBBFB 		.ascii	"\342\317\273\373\266\262\326\266l\014s\306\342\200\265"
 103      B6B2D6B6 
 103      6C0C73C6 
 103      E280B5
 104 014d 9BAB7F69 		.ascii	"\233\253\177i\357\334\226\027\2116]\212W0\335Z\317\305"
 104      EFDC9617 
 104      89365D8A 
 104      5730DD5A 
ARM GAS  /tmp/cc8rfvLe.s 			page 8


 104      CFC5
 105 015f A887DA15 		.ascii	"\250\207\332\025XS\327\031\351r\023\025\232\220\012"
 105      5853D719 
 105      E9721315 
 105      9A900A
 106 016e 99EEB668 		.ascii	"\231\356\266h{v\001\254@\375\353\323\365C\035\206\277"
 106      7B7601AC 
 106      40FDEBD3 
 106      F5431D86 
 106      BF
 107 017f C9CD3B5F 		.ascii	"\311\315;_\246\327\245,o\311\263\346\247\327\330.\324"
 107      A6D7A52C 
 107      6FC9B3E6 
 107      A7D7D82E 
 107      D4
 108 0190 3BF36CC8 		.ascii	";\363l\310\244\307#\224[\244\023\232\260o\262\315\030"
 108      A4C72394 
 108      5BA4139A 
 108      B06FB2CD 
 108      18
 109 01a1 D49F8734 		.ascii	"\324\237\2074\342\004@\207\314\270\235\337\3209\331"
 109      E2044087 
 109      CCB89DDF 
 109      D039D9
 110 01b0 54EA3175 		.ascii	"T\3521u\331\235\205\303wT\363\264\217=\2200\324\305"
 110      D99D85C3 
 110      7754F3B4 
 110      8F3D9030 
 110      D4C5
 111 01c2 C73D71E3 		.ascii	"\307=q\343\253\3633\242\335;\025\365\216\007\326\242"
 111      ABF333A2 
 111      DD3B15F5 
 111      8E07D6A2 
 112 01d2 437C4317 		.ascii	"C|C\027\237\353MN\276\007\223\307\242\373 \236,\354"
 112      9FEB4D4E 
 112      BE0793C7 
 112      A2FB209E 
 112      2CEC
 113 01e4 A572797B 		.ascii	"\245ry{\301\344\203G\256e\355\356Qg\302\031\253z^%\350"
 113      C1E48347 
 113      AE65EDEE 
 113      5167C219 
 113      AB7A5E25 
 114 01f9 77C18823 		.ascii	"w\301\210#\031T.\247\206\362g\312\205\376\\\337\320"
 114      19542EA7 
 114      86F267CA 
 114      85FE5CDF 
 114      D0
 115 020a 606970F8 		.ascii	"`ip\370l\241\220/\016\330\371 \250\006\266\033T\234"
 115      6CA1902F 
 115      0ED8F920 
 115      A806B61B 
 115      549C
 116 021c 09FF9267 		.ascii	"\011\377\222g\017W\275\213\376X\345\230\235/\026\217"
 116      0F57BD8B 
 116      FE58E598 
 116      9D2F168F 
ARM GAS  /tmp/cc8rfvLe.s 			page 9


 117 022c 9CC88D5A 		.ascii	"\234\310\215Z\360\033\360j\3143"
 117      F01BF06A 
 117      CC33
 118              		.text
 119              		.section	.gnu.lto_logfileWrite.part.1.71ba7478757c25a3,"",%progbits
 120 0000 789C8D52 		.ascii	"x\234\215R\275k\024Q\020\237\337{\273\233\333\030\341"
 120      BD6B1451 
 120      109FDF7B 
 120      BB9BDB18 
 120      E1
 121 0011 0A218985 		.ascii	"\012!\211\205\304\200\215b\202he\353\277\220\200\226"
 121      C4808D62 
 121      826865EB 
 121      BF908096 
 122 0021 9B735D17 		.ascii	"\233s]\027\316;\271\234XXd.\036\032D\302\221&\220X$"
 122      CE3BB99C 
 122      5858642E 
 122      1E1A44C2 
 122      91269058 
 123 0036 88888528 		.ascii	"\210\210\205(\246\012X\254\212\301\302\017\204\024F"
 123      A60A58AC 
 123      8AC1C20F 
 123      841446
 124 0045 9BAB3558 		.ascii	"\233\2535Xh\343\027\2363\273w\027\243\202y\2603\357"
 124      68E3179E 
 124      33BB7717 
 124      A38279B0 
 124      33EF
 125 0057 E3F731F3 		.ascii	"\343\3671\363\366\0312\364\3478.\337\023\223ex\004\267"
 125      F61932F4 
 125      E7382EDF 
 125      13936578 
 125      04B7
 126 0069 F152262E 		.ascii	"\361R&.L\232\215\261\353\243\304\275\316\303}\304}\026"
 126      4C9A8DB1 
 126      EBA3C4BD 
 126      CEC37DC4 
 126      7D16
 127 007b 8EEED672 		.ascii	"\216\356\326r\016\240\023\002M\271\306:\230:\005\325"
 127      0EA01302 
 127      4DB9C63A 
 127      983A05D5 
 128 008b F2866999 		.ascii	"\362\206i\231y\256\371\364}\202yNjK\374\243\325\002"
 128      79AEF9F4 
 128      7D82794E 
 128      6A4BFCA3 
 128      D502
 129 009d 62886F1E 		.ascii	"b\210o\036T\000\235\224\005ri2\330^H\306\345\373\314"
 129      54009D94 
 129      05726932 
 129      D85E48C6 
 129      E5FBCC
 130 00b0 6ECAB331 		.ascii	"n\312\2631\254\241\275[\264|F3\377\244=`\366;4\307\320"
 130      ACA1BD5B 
 130      B47C4633 
 130      FFA43D60 
 130      F63B34C7 
ARM GAS  /tmp/cc8rfvLe.s 			page 10


 131 00c5 FE2DDA50 		.ascii	"\376-\332PFs\376\246%\215\344\335\332\365A^\232n\360"
 131      4673FEA6 
 131      258DE4DD 
 131      DAF5415E 
 131      9A6EF0
 132 00d8 4F293486 		.ascii	"O)4\206k\350\300N\230<\227l\254\315\366s\223;L\317\320"
 132      6BE8C04E 
 132      983C976C 
 132      ACCDF673 
 132      933B4CCF 
 133 00ed E11D75D8 		.ascii	"\341\035u\330H\276_\2711xm\233\347\221\377y\3363\334"
 133      48BE5FB9 
 133      31786D9B 
 133      E791FF79 
 133      DE33DC
 134 0100 6CB5BE7E 		.ascii	"l\265\276~\316\371\3009\275\315\030=\226\002\334\301"
 134      CEF9C039 
 134      BDCD183D 
 134      9602DCC1 
 135 0110 3039B2C8 		.ascii	"09\262\310\271\032\004\350R],\206\262\223\000\267\323"
 135      B91A04E8 
 135      525D2C86 
 135      B29300B7 
 135      D3
 136 0121 B89CC69B 		.ascii	"\270\234\306\233i\274%\221\324M\306\230D\375\215cp5"
 136      69BC2591 
 136      D44DC698 
 136      44FD8D63 
 136      7035
 137 0133 DB719834 		.ascii	"\333q\2304\277\240\351\267o>}A\200\273r\022\301\034"
 137      BFA0E9B7 
 137      6F3E7D41 
 137      80BB7212 
 137      C11C
 138 0145 A28362B8 		.ascii	"\242\203b\270H\0135\346|\014?\002\264\312\336\264\266"
 138      480B35E6 
 138      7C0C3F02 
 138      B4CADEB4 
 138      B6
 139 0156 896E97AF 		.ascii	"\211n\227\257\250\236x\035\222\275D\337xF\341\273\012"
 139      A89E781D 
 139      92BD44DF 
 139      7846E1BB 
 139      0A
 140 0167 C820A214 		.ascii	"\310 \242\024\243\217\350\031\3257\037\315_5]\250\212"
 140      A38FE819 
 140      D5371FCD 
 140      5F355DA8 
 140      8A
 141 0178 79BFF73B 		.ascii	"y\277\367;\016K\353\243Z\310\307\313+\263]MG\260\035"
 141      0E4BEBA3 
 141      5AC8C7CB 
 141      2BB35D4D 
 141      47B01D
 142 018b 80D32EF5 		.ascii	"\200\323.\365\361\207\266N\326\3551Z\341\031\275U\001"
 142      F187B64E 
 142      D6ED315A 
ARM GAS  /tmp/cc8rfvLe.s 			page 11


 142      E119BD55 
 142      01
 143 019c BD9697AA 		.ascii	"\275\226\227\252\256:\247\015r\325F6\314\346\352\036"
 143      AE3AA70D 
 143      72D54636 
 143      CCE6EA1E 
 144 01ac D1B2CF57 		.ascii	"\321\262\317W\007\264w\250\220>\252\335\247\203jP,G"
 144      07B477A8 
 144      903EAADD 
 144      A7836A50 
 144      2C47
 145 01be 51581929 		.ascii	"QX\031)\220_>\037\226N\024\313\223\241W\014KQ\365\254"
 145      905F3E1F 
 145      964E14CB 
 145      93A1570C 
 145      4B51F5AC 
 146 01d2 9DB870A6 		.ascii	"\235\270p\246\347b%\256V\303\222\255\204\223~{>r\364"
 146      E76225AE 
 146      56C392AD 
 146      84937E7B 
 146      3E72F4
 147 01e5 1713DFB8 		.ascii	"\027\023\337\270\345"
 147      E5
 148              		.text
 149              		.section	.gnu.lto_dataLoggerInitialize.71ba7478757c25a3,"",%progbits
 150 0000 789C8D54 		.ascii	"x\234\215TMhSA\020\236\331\367^^^\232\266i\355/\324"
 150      4D685341 
 150      109ED9F7 
 150      5E5E5E9A 
 150      B669ED2F 
 151 0015 100A3D29 		.ascii	"\020\012=)\265\364\"\210\240\225\306^\374\201\332\240"
 151      B5F42288 
 151      A095C65E 
 151      FC81DAA0 
 152 0025 1E631AC2 		.ascii	"\036c\032\302\203\246\2254\"\342\241\233R\212\370\203"
 152      83A69534 
 152      22E2A19B 
 152      528AF883 
 153 0035 A1A75211 		.ascii	"\241\247R\021-R\250R\320\203`P\204VEZ\213\255?\247\242"
 153      2D52A852 
 153      D0836050 
 153      8456455A 
 153      8BAD3FA7 
 154 004a 420E8217 		.ascii	"B\016\202\027\021\017\242\342\3018\363~\322$\024\351"
 154      110FA2E2 
 154      C138F37E 
 154      D22414E9 
 155 005a 42767766 		.ascii	"Bvwf\347\233\357\233\331}\021 \240r\234\247\337-\025"
 155      E79BEF9B 
 155      D97D1120 
 155      A0729CA7 
 155      DF2D15
 156 006d 609856F4 		.ascii	"`\230V\364\001\212\354\032@\306+\204\361S\007\351Sf"
 156      018AEC1A 
 156      40C62B84 
 156      F15307E9 
 156      5366
ARM GAS  /tmp/cc8rfvLe.s 			page 12


 157 007f 5E0248BF 		.ascii	"^\002H\277\342\230\252m\252B\373XE\246\347\341365\364"
 157      E298AA6D 
 157      AA42FB58 
 157      45A6E7E1 
 157      333635F4 
 158 0093 D8288FD0 		.ascii	"\330(\217\320\263\012\371\275r\225\375:\032\266\337"
 158      B30AF9BD 
 158      7295FD3A 
 158      1AB6DF
 159 00a2 EB6E0C44 		.ascii	"\353n\014D\336\000\302\230PT\315\243\223g\3544\262\020"
 159      DE00C298 
 159      5054CDA3 
 159      9367EC34 
 159      B210
 160 00b4 D10EB352 		.ascii	"\321\016\263RN\345\347\256_k\275|{<+\377\026\012h\""
 160      4EE5E7AE 
 160      5F6BBD7C 
 160      7B3C2BFF 
 160      160A6822 
 161 00c8 490E20C4 		.ascii	"I\016 \304\020N\221\201!k\021jy\0156r\361\323\217\034"
 161      104E9181 
 161      216B116A 
 161      790D3672 
 161      F1D38F1C 
 162 00dc CA4999F9 		.ascii	"\312I\231\371^(\324\232\250\010h\331\004zm \226\003"
 162      5E28D49A 
 162      A80868D9 
 162      047A6D20 
 162      9603
 163 00ee EF8BC57C 		.ascii	"\357\213\305|\241pu\356MG3B\222\271LTUL\"j4\011\235"
 163      A17075EE 
 163      4D473342 
 163      92B94C54 
 163      554C226A 
 164 0105 26C5A009 		.ascii	"&\305\240\011\374t\240\005 \212w\260\035\352h\235\245"
 164      FC74A005 
 164      208A77B0 
 164      1DEA689D 
 164      A5
 165 0116 B59E9C9E 		.ascii	"\265\236\234\236F\307\240\241\301\204\224\331\220\035"
 165      46C7A0A1 
 165      C18494D9 
 165      901D
 166 0124 044C4D63 		.ascii	"\004LMc\200f.9\202\202We\031^|Yz\337\026\3059\324 \201"
 166      80662E39 
 166      82825765 
 166      195E7C59 
 166      7ADF16C5 
 167 013c 2ACBD24B 		.ascii	"*\313\322K5EP\001\352\262\025\2309\351\306i\034\347"
 167      35455001 
 167      EAB21598 
 167      39E9C669 
 167      1CE7
 168 014e 2D8F53E1 		.ascii	"-\217S\341\312\001\3455\214\257\376~Um\307\335\200\231"
 168      CA01E535 
 168      8CAFFE7E 
 168      556DC7DD 
ARM GAS  /tmp/cc8rfvLe.s 			page 13


 168      8099
 169 0160 8C9401EA 		.ascii	"\214\224\001\352\332E\370#/\361\316H\"w\213\341\206"
 169      DA45F823 
 169      2FF1CE48 
 169      22778BE1 
 169      86
 170 0171 854B309D 		.ascii	"\205K0\235\245b\243\250\302\340c_i\366\001\362?1\224"
 170      A562A3A8 
 170      C2E0635F 
 170      69F601F2 
 170      3F3194
 171 0184 087A8A24 		.ascii	"\010z\212$\253\015v\370.\270'i\354%\335\304G\300\252"
 171      AB0D76F8 
 171      2EB82769 
 171      EC25DDC4 
 171      47C0AA
 172 0197 3279679C 		.ascii	"2yg\234\036'\230w\035&\362\271)ty\374EY\376\030\242"
 172      1E279877 
 172      1D26F2B9 
 172      297479FC 
 172      4559FE18 
 173 01ac 1B666235 		.ascii	"\033fb5\000Q\254<\250\252d\320\266fp\241~\013\267\232"
 173      0051AC3C 
 173      A8AA64D0 
 173      B66670A1 
 173      7E0BB79A 
 174 01c0 5B6BAA04 		.ascii	"[k\252\004\372\266\006\012\007\210,m2\377\270\333U\026"
 174      FAB6060A 
 174      07882C6D 
 174      32FFB8DB 
 174      5516
 175 01d2 282AAB89 		.ascii	"(*\253\211\025\243\374\024\310\350Z\244\233\016p\327"
 175      15A3FC14 
 175      C8E85AA4 
 175      9B0E70D7 
 176 01e2 26BE2EFD 		.ascii	"&\276.\375*v-\300g\312f\3176\000\251\225*r\252i\271"
 176      2A762DC0 
 176      67CA66CF 
 176      3600A995 
 176      2A72AA69 
 177 01f7 F8E1AC89 		.ascii	"\370\341\254\211uAh\273)\247\017\232Xo\275\220y\205"
 177      754168BB 
 177      29A70F9A 
 177      586FBD90 
 177      7985
 178 0209 2F4E87E7 		.ascii	"/N\207\347\202{\2722_\353\346\252\333\316\325Y\325~"
 178      827BBA32 
 178      5FEBE6AA 
 178      DBCED559 
 178      D57E
 179 021b 535C4C7D 		.ascii	"S\\L}\202E\255\203\307v\300&rG\314\321E\211m5\362\021"
 179      8245AD83 
 179      C776C026 
 179      7247CCD1 
 179      45896D35 
 180 0231 65690842 		.ascii	"ei\010B\320V\303\257\326\302P\026\023\233\334\027\345"
 180      D056C3AF 
ARM GAS  /tmp/cc8rfvLe.s 			page 14


 180      D6C25016 
 180      139BDC17 
 180      E5
 181 0242 85E5FD2C 		.ascii	"\205\345\375,,7=\265\263\262\243\315[w\324\346aO3\332"
 181      2C373DB5 
 181      B3B2A3CD 
 181      5B77D4E6 
 181      614F33DA 
 182 0256 025772EF 		.ascii	"\002Wr\357j\\\211\215\333+k\035\264\377\325\320\350"
 182      6A5C898D 
 182      DB2B6B1D 
 182      B4FFD5D0 
 182      E8
 183 0267 D4F09420 		.ascii	"\324\360\224 -A8f\327\320\352\326PR\200a}co\351\237"
 183      2D413866 
 183      D7D0EAD6 
 183      50528061 
 183      7D636FE9 
 184 027c 8671C2BE 		.ascii	"\206q\302\276\025\301TD\251,\204\255]\301\0358\246\177"
 184      15C15444 
 184      A92C84AD 
 184      5DC11D38 
 184      A67F
 185 028e D69D43EF 		.ascii	"\326\235C\357\302]t\266b!\314\037\000r.NQ=\030MG\207"
 185      C25D74B6 
 185      6221CC1F 
 185      00722E4E 
 185      513D184D 
 186 02a4 46128978 		.ascii	"F\022\211x\2523\006zo\370P\244\257\263K\211\247R\010"
 186      AA33067A 
 186      6FF850A4 
 186      AFB34B89 
 186      A75208
 187 02b7 7B7A7B06 		.ascii	"{z{\006z\216\034\357\353\013\367\357\013\205S\251\221"
 187      7A8E1CEF 
 187      EB0BF7EF 
 187      0B8553A9 
 187      91
 188 02c8 54E8E8C8 		.ascii	"T\350\350\310\271\341\2649\234\010\0356\207\342\243"
 188      B9E1B439 
 188      9C081D36 
 188      87E2A3
 189 02d7 1746D3F1 		.ascii	"\027F\323\361\344\356p\177\177Gw\327\240\017B\245\361"
 189      E4EE707F 
 189      7F4777D7 
 189      A00F42A5 
 189      F1
 190 02e8 BDC5BCA1 		.ascii	"\275\305\274\241\023\351h*\035\247\200\177\250\252:"
 190      13E9682A 
 190      1DA7807F 
 190      A8AA3A
 191 02f7 8C       		.ascii	"\214"
 192              		.text
 193              		.section	.gnu.lto_dataLoggerStop.71ba7478757c25a3,"",%progbits
 194 0000 789C6550 		.ascii	"x\234eP\275KBQ\024\377\235\253/\315\322\034s(\036\255"
 194      BD4B4251 
 194      14FF9DAB 
ARM GAS  /tmp/cc8rfvLe.s 			page 15


 194      2FCDD21C 
 194      73281EAD 
 195 0014 81D19434 		.ascii	"\201\321\2244e(.AP\0125\276\236\362x\220(\341\326\340"
 195      65282E41 
 195      500A35BE 
 195      9EF27890 
 195      28E1D6E0 
 196 0028 5522A241 		.ascii	"U\"\242A\244%\351\003\222\266\032Z]\202\326\206\276"
 196      A425E903 
 196      92B61A5A 
 196      5D82D686 
 196      BE
 197 0039 16A788B7 		.ascii	"\026\247\210\267\364?DC\257{\336\023\243:p\357\357\334"
 197      F43F4443 
 197      AF7BDE13 
 197      A33A70EF 
 197      EFDC
 198 004b CBEFE370 		.ascii	"\313\357\343p\004\004\376VB\235\026\001)\205\024\000"
 198      0404FE56 
 198      429D1601 
 198      29851400 
 199 005b 89F623D0 		.ascii	"\211\366#\320\010\013\"n@\250\013\252o\022Si\006])\217"
 199      080B226E 
 199      40A80BAA 
 199      6F125369 
 199      065D298F 
 200 006f 9CF77E2B 		.ascii	"\234\367~+qx\321l\313/\327%\233\224i\234`\0226\324\203"
 200      7178D16C 
 200      CB2FD725 
 200      9B94699C 
 200      601236D4 
 201 0084 740F44F0 		.ascii	"t\017D\360w\312\215\270s\\\367\354\372y.$`PWYiT\366"
 201      77CA8DB8 
 201      735CF7EC 
 201      FA792E24 
 201      60505759 
 202 009b 5C35EC49 		.ascii	"\\5\354I\331\326\301\016\252\362\352\346\344\002\011"
 202      D9D6C10E 
 202      AAF2EAE6 
 202      E40209
 203 00aa C6C0039A 		.ascii	"\306\300\003\232\367\037\375\230A\227\244\301\"q\212"
 203      F71FFD98 
 203      4197A4C1 
 203      22718A
 204 00b9 93869471 		.ascii	"\223\206\224q\025\273\213Oy\300]\240L,\345\334\300 "
 204      15BB8B4F 
 204      79C05DA0 
 204      4C2CE5DC 
 204      C020
 205 00cb EF099AAF 		.ascii	"\357\011\232\257\300\017-hz4\260\013\177v\244\274U\022"
 205      C00F2D68 
 205      7A34B00B 
 205      7F76A4BC 
 205      5512
 206 00dd 6D1A93E7 		.ascii	"m\032\223\347\262\263d\323\010\006\032\233Bl\261\357"
 206      B2B364D3 
 206      08061A9B 
ARM GAS  /tmp/cc8rfvLe.s 			page 16


 206      426CB1EF 
 207 00ed BCA6FEB9 		.ascii	"\274\246\376\271\204M\362\227\310q\243>D|\030c\3458"
 207      844DF297 
 207      C871A33E 
 207      447C1863 
 207      E538
 208 00ff A046EEF5 		.ascii	"\240F\356\365\216\247|\351,\256\244\252\005\233\242"
 208      8EA77CE9 
 208      2CAEA4AA 
 208      059BA2
 209 010e 6A74C58A 		.ascii	"jt\305\212Y\2441{\302s\331\362G\362\364Qn^\320p\336"
 209      59A4317B 
 209      C273D9F2 
 209      47F2F451 
 209      6E5ED070 
 210 0123 22BE76F8 		.ascii	"\"\276v\370\351/\206x!\034\036-\0325c\273bY\245\235"
 210      E92F8678 
 210      211C1E2D 
 210      1A3563BB 
 210      6259A59D 
 211 0137 A4895026 		.ascii	"\244\211P&\273\\\310%\347\365L:\237^Y\315\345\262k\213"
 211      BB5CC825 
 211      E7F54C3A 
 211      9F5E59CD 
 211      E5B26B8B 
 212 014b 7A66C8D0 		.ascii	"zf\310\320\327k\225j\265T\214\340\033E\367l\261"
 212      D76B956A 
 212      B5548CE0 
 212      1B45F76C 
 212      B1
 213              		.text
 214              		.section	.gnu.lto_logfileNew.71ba7478757c25a3,"",%progbits
 215 0000 789C5D51 		.ascii	"x\234]Q\277K\034A\024\376\276\331\331\273\275\363N-"
 215      BF4B1C41 
 215      14FEBED9 
 215      D9BBBDF3 
 215      4E2D
 216 0012 2CB43916 		.ascii	",\2649\026\313\010\206XZi\242\\#\012\342ARn.\347\262"
 216      CB088658 
 216      5A69A25C 
 216      230AE241 
 216      526E2EE7 
 217 0027 A0114448 		.ascii	"\240\021DH\221\3029\221 )\344\260:\022\025\305Z\354"
 217      91C23991 
 217      2029E4B0 
 217      3A1215C5 
 217      5AEC
 218 0039 05C12621 		.ascii	"\005\301&!)\022\321\"$1\205\177\200\177\201\205\227"
 218      2912D122 
 218      2431857F 
 218      807F8185 
 218      97
 219 004a F7367706 		.ascii	"\3676w\006\035\230\367f\336\276\357\307\27450x\270\236"
 219      1D98F766 
 219      DEBEEFC7 
 219      BC353078 
 219      B89E
ARM GAS  /tmp/cc8rfvLe.s 			page 17


 220 005c C8BE2030 		.ascii	"\310\276 0*\231>h\032\337\201z`\214\375\361\030\256"
 220      2A993E68 
 220      1ADF817A 
 220      608CFDF1 
 220      18AE
 221 006e E01D97E0 		.ascii	"\340\035\227\340\362\036\255\226iI\315 V\215g\271\372"
 221      F21EAD96 
 221      6949CD20 
 221      568D67B9 
 221      FA
 222 007f 824AC141 		.ascii	"\202J\301A\354;\267u\365\351rs\340\375\336Z\303\335"
 222      EC3BB775 
 222      F5E97273 
 222      E0FDDE5A 
 222      C3DD
 223 0091 B65A4C28 		.ascii	"\266ZL(b\275D\225x.\027\206i2\366\276\372\2219\275j"
 223      62BD4495 
 223      782E1786 
 223      6932F6BE 
 223      FA9139BD 
 224 00a6 B5FE1C36 		.ascii	"\265\376\0346>\263H$\364\214\006\213\210\373\302\232"
 224      3EB34824 
 224      F48C068B 
 224      88FBC29A 
 225 00b6 E1229195 		.ascii	"\341\"\221\225\212\015\344\304\234\004S\220\340\011"
 225      8A0DE4C4 
 225      9C045390 
 225      E009
 226 00c4 D2C7BA73 		.ascii	"\322\307\272s\215\020* kN\242Z\253\320h\366\276a\355"
 226      8D102A20 
 226      6B4EA25A 
 226      ABD068F6 
 226      BE61ED
 227 00d7 EBCFCBEE 		.ascii	"\353\317\313\356\210\007\362\250\230\366#>\324\235\353"
 227      8807F2A8 
 227      98F6233E 
 227      D49DEB
 228 00e6 15576F71 		.ascii	"\025Woq\3436\364\344/R\335\250-\277m\347\014\376?\004"
 228      E336F4E4 
 228      2F52DDA8 
 228      2DBF6DE7 
 228      0CFE3F04 
 229 00fa FEB765AA 		.ascii	"\376\267e\252L\025\224E\213M\347N\004\222-\241\177\307"
 229      4C159445 
 229      8B4DE74E 
 229      04922DA1 
 229      7FC7
 230 010c 35C71206 		.ascii	"5\307\022\006hc\022\346\000\021\376\335\334\355\353"
 230      686312E6 
 230      0011FEDD 
 230      DCEDEB
 231 011b 086787F0 		.ascii	"\010g\207\360(I\345\005\223\217\231Q\271\256\224\357"
 231      2849E505 
 231      938F9951 
 231      B9AE94EF 
 232 012b 253B53F8 		.ascii	"%;S\370\202\365\353z\317\035D[\356\315\251\"/>.ygx\027"
 232      82F5EB7A 
ARM GAS  /tmp/cc8rfvLe.s 			page 18


 232      CF1D445B 
 232      EECDA922 
 232      2F3E2E79 
 233 0142 749ACC9D 		.ascii	"t\232\314\235\277B\225\246\355/\210\231\213YHX\354\340"
 233      BF4295A6 
 233      ED2F8899 
 233      8B594858 
 233      ECE0
 234 0154 6C3A8C73 		.ascii	"l:\214s\371\241\372=\025\374\005\252\200\314\320l\317"
 234      F9A1FA3D 
 234      15FC05AA 
 234      80CCD06C 
 234      CF
 235 0165 0891479D 		.ascii	"\010\221G\235\036\265Qy\212\257\242\225ha)\216k\313"
 235      1EB55179 
 235      8AAFA295 
 235      6861298E 
 235      6BCB
 236 0177 C3556427 		.ascii	"\303Ud'&\237V\312\303#\203\023\343s\343S3\345\362\344"
 236      269F56CA 
 236      C3238313 
 236      E373E353 
 236      33E5F2E4 
 237 018b EC68F86C 		.ascii	"\354h\370l\271\026\255$\257\343p\272\366&\234Z\212\347"
 237      B916AD24 
 237      AFE370BA 
 237      F6269C5A 
 237      8AE7
 238 019d 93855A1E 		.ascii	"\223\205Z\036\177\001\271=w."
 238      7F01B93D 
 238      772E
 239              		.text
 240              		.section	.gnu.lto_logfileSize.71ba7478757c25a3,"",%progbits
 241 0000 789C6362 		.ascii	"x\234cb`b@\007\222@\034\015\304\374@\314\310\314\300"
 241      60624007 
 241      92401C0D 
 241      C4FC40CC 
 241      C8CCC0
 242 0013 C834E11C 		.ascii	"\3104\341\034\003C#\007\023##\210\301\300\310P\317\304"
 242      03432307 
 242      13232388 
 242      C1C0C850 
 242      CFC4
 243 0025 581FC908 		.ascii	"X\037\311\010V\273\236\351\300\203\377\377\327m9\266"
 243      56BB9EE9 
 243      C083FFFF 
 243      D76D39B6 
 244 0035 602E2323 		.ascii	"`.##\310(V\206\226\206\206\011\012\014\014\311`\005"
 244      C8285686 
 244      96868609 
 244      0A0C0CC9 
 244      6005
 245 0047 214012A4 		.ascii	"!@\022\244+\024(\011\244\231/24>\230\263\2301\221q!"
 245      2B142809 
 245      A4992F32 
 245      343E98B3 
 245      98319171 
ARM GAS  /tmp/cc8rfvLe.s 			page 19


 246 005c 232B4304 		.ascii	"#+C\004c&#\334\326\020FF\220\012\220\031\274)\211%\211"
 246      632623DC 
 246      D6104646 
 246      900A9019 
 246      BC298925 
 247 0071 39F9E9E9 		.ascii	"9\371\351\351\251Ez\311\014\000\020\026\036\241"
 247      A9457AC9 
 247      0C001016 
 247      1EA1
 248              		.text
 249              		.section	.gnu.lto_logfileWriteCsv.71ba7478757c25a3,"",%progbits
 250 0000 789C6362 		.ascii	"x\234cb`b@\007\222@\234\005\304\374@\314\310\314\300"
 250      60624007 
 250      92409C05 
 250      C4FC40CC 
 250      C8CCC0
 251 0013 C834E11C 		.ascii	"\3104\341\034\003C#\007\023##\210\301\300\310P\317\304"
 251      03432307 
 251      13232388 
 251      C1C0C850 
 251      CFC4
 252 0025 581FC908 		.ascii	"X\037\311\010V\273\236\351\300\203\377\377\327]:\276"
 252      56BB9EE9 
 252      C083FFFF 
 252      D75D3ABE 
 253 0035 A08F9189 		.ascii	"\240\217\221\211\225\2111\227\221\201\031H0\262\000"
 253      95893197 
 253      91811948 
 253      30B200
 254 0044 0990C9AC 		.ascii	"\011\220\311\254\014-\015\015\023\024\030\030\222\301"
 254      0C2D0D0D 
 254      13141818 
 254      92C1
 255 0052 EA438024 		.ascii	"\352C\200$\310\220P\240$\220f\276\310\320\370\240w)"
 255      C89050A0 
 255      249066BE 
 255      C8D0F8A0 
 255      7729
 256 0064 6322E342 		.ascii	"c\"\343BFV\206\010\306LF\270#B\030\031A*@f\360\246$"
 256      46568608 
 256      C64C46B8 
 256      23421819 
 256      412A4066 
 257 007b 9624E6E4 		.ascii	"\226$\346\344\247\247\247\026\351%3\000\000^X \020"
 257      A7A7A716 
 257      E9253300 
 257      005E5820 
 257      10
 258              		.text
 259              		.section	.gnu.lto_logfileGetWrCount.71ba7478757c25a3,"",%progbits
 260 0000 789C6362 		.ascii	"x\234cb`b@\007\222@<\003\210\371\201\230\221\231\201"
 260      60624007 
 260      92403C03 
 260      88F98198 
 260      919981
 261 0013 9169C239 		.ascii	"\221i\3029\006\206F\016&FF\020\203\201\221\241\236\211"
 261      0686460E 
ARM GAS  /tmp/cc8rfvLe.s 			page 20


 261      26464610 
 261      838191A1 
 261      9E89
 262 0025 B13E9211 		.ascii	"\261>\222\021\254v=\323\201\007\377\377\257\333qj\301"
 262      AC763DD3 
 262      8107FFFF 
 262      AFDB716A 
 262      C1
 263 0036 3C462616 		.ascii	"<F&\026&\306\\F\006f\206L\260\034+CKC\303\004\005\006"
 263      26C65C46 
 263      0666864C 
 263      B01C2B43 
 263      4B43C304 
 264 004c 86643037 		.ascii	"\206d07\004H\202\364\20722\201h\346\263\014M\267v,\327"
 264      044882F4 
 264      87323281 
 264      68E6B30C 
 264      4DB7762C 
 265 0061 4C645CC8 		.ascii	"Ld\\\310\310\312\220\316\310\254\315\260\252\001\010"
 265      C8CA90CE 
 265      C8ACCDB0 
 265      AA0108
 266 0070 EC819A67 		.ascii	"\354\201\232g3\314b\314ddLgd\212\000\322\020\007&1\302"
 266      33CC62CC 
 266      64644C67 
 266      648A00D2 
 266      10072631 
 267 0085 9C7791A1 		.ascii	"\234w\221\241\361\000+\\\033D,\204\221\021d(H)oJbIb"
 267      F1002B5C 
 267      1B442C84 
 267      91116428 
 267      48296F4A 
 268 009c 4E7E7A7A 		.ascii	"N~zzj\221^2\003\000\227\033)\353"
 268      6A915E32 
 268      0300971B 
 268      29EB
 269              		.text
 270              		.section	.gnu.lto_logfileClose.71ba7478757c25a3,"",%progbits
 271 0000 789C6550 		.ascii	"x\234eP=K\003A\024\234\331\335\363\316/ba\255\326\006"
 271      3D4B0341 
 271      149CD9DD 
 271      F3CE2F62 
 271      61ADD606 
 272 0014 0CF8476C 		.ascii	"\014\370Gl\014jy\236r,(\202\330YdO\256\260L\255\215"
 272      0C6A799E 
 272      722C2882 
 272      D859644F 
 272      AEB04CAD 
 273 0029 B62AB14D 		.ascii	"\266*\261M\241\2202\210\037\010\201\240X\370\003\374"
 273      A1903288 
 273      1F0881A0 
 273      58F803FC 
 274 0039 016A13DF 		.ascii	"\001j\023\337\336\021\025]\330}\217\335y3\263\243\240"
 274      DE11155D 
 274      D87D8FDD 
 274      7933B3A3 
 274      A0
ARM GAS  /tmp/cc8rfvLe.s 			page 21


 275 004a F0772DCA 		.ascii	"\360w-\312^\"P\221\312\000T\315{ \213\224\322\275\032"
 275      5E225091 
 275      CA0054CD 
 275      7B208B94 
 275      D2BD1A
 276 005d DC98B99A 		.ascii	"\334\230\271\232\201\233\3204\345\265!}\003\242\241"
 276      819BD034 
 276      E5B5217D 
 276      03A2A1
 277 006c B461638D 		.ascii	"\264ac\215\005\311\245\352\274\016\006\255\227\233\223"
 277      05C9A5EA 
 277      BC0E06AD 
 277      979B93
 278 007b 6BAA51C2 		.ascii	"k\252Q\302\022\206\333D \035C9\274n\200\334\271\346"
 278      1286DB44 
 278      201D4339 
 278      BC6E80DC 
 278      B9E6
 279 008d 1C901443 		.ascii	"\034\220\024C\313rz\256\272<J\325w8x~?\377`\314S\361"
 279      CB727AAE 
 279      BA3C4AD5 
 279      7738787E 
 279      3FFF60CC 
 280 00a3 9132A862 		.ascii	"\2212\250b^\246\217q\2249\347V,uJ\263JKSH\256s\370\203"
 280      5EA68F71 
 280      9439E756 
 280      2C754AB3 
 280      4A4B5348 
 281 00bb 07E49DD9 		.ascii	"\007\344\235\331\341T\270\217Ow\350\246,\203\204%D\250"
 281      E154B88F 
 281      4F77E8A6 
 281      2C838425 
 281      44A8
 282 00cd 2C47802E 		.ascii	",G\200.\362\267\254\362\015\364T\341\357$\352\324\350"
 282      F2B7ACF2 
 282      0DF454E1 
 282      EF24EAD4 
 282      E8
 283 00de D5BC8F76 		.ascii	"\325\274\217v\2735\364Q\305\231\250\273q\313H\234\360"
 283      BB35F451 
 283      C599A8BB 
 283      71CB489C 
 283      F0
 284 00ef BF8B52C3 		.ascii	"\277\213R\303\337D?D\246\370\321\243\004\346\345\013"
 284      DF443F44 
 284      A6F8D1A3 
 284      04E6E50B 
 285 00ff C813E841 		.ascii	"\310\023\350A\222\234\276\350GE\013\250\333\376\264"
 285      929CBEE8 
 285      47450BA8 
 285      DBFEB4
 286 010e 4F821EEF 		.ascii	"O\202\036\3573\232\334\210\367\342\255\2354\335\334"
 286      339ADC88 
 286      F7E2AD9D 
 286      34DDDC
 287 011d 5D48F005 		.ascii	"]H\360\005Q\364Q\310"
 287      51F451C8 
ARM GAS  /tmp/cc8rfvLe.s 			page 22


 288              		.text
 289              		.section	.gnu.lto_logfileOpenAppend.71ba7478757c25a3,"",%progbits
 290 0000 789C7552 		.ascii	"x\234uRMk\024A\020\255\327\037\223\331\315\254\273\306"
 290      4D6B1441 
 290      10ADD71F 
 290      93D9CDAC 
 290      BBC6
 291 0012 8B1E0CE2 		.ascii	"\213\036\014\342QQ\177\203\277A\003\221\234\326I\030"
 291      51517F83 
 291      BF410391 
 291      9CD64918 
 292 0022 0614210A 		.ascii	"\006\024!\012\036<\244WW\021\274,\036T\364b\310U\220"
 292      1E3CA457 
 292      5711BC2C 
 292      1E54F462 
 292      C85590
 293 0035 103090D3 		.ascii	"\0200\220\323\004\024\024\321\340E\\\365\220\233\004"
 293      041414D1 
 293      E0455CF5 
 293      909B04
 294 0044 FC3A4A0C 		.ascii	"\374:J\014\254U\263\323MVc\303T\317T\327{\365^\365("
 294      AC55B3D3 
 294      4D5663C3 
 294      54CF54D7 
 294      7BF55EF5 
 295 0059 52F4F73A 		.ascii	"R\364\367:\315\3177N\037\340\035\021A\365\336\022ub"
 295      CDCF374E 
 295      1FE01D11 
 295      41F5DE12 
 295      7562
 296 006b A5F4DA24 		.ascii	"\245\364\332$\271\272}\177\212\\\242\225\331\365e`\207"
 296      B9BA7D7F 
 296      8A5CA295 
 296      D9F56560 
 296      87
 297 007c 45169017 		.ascii	"E\026\220\027\002-(m,\026\316A(q\224\026\235\273\273"
 297      022D286D 
 297      2C16CE41 
 297      28719416 
 297      9DBBBB
 298 008f F962650B 		.ascii	"\371be\013\367]\321y\354v\006\003 \007\267o\201R\320"
 298      F75DD179 
 298      EC760603 
 298      2007B76F 
 298      8152D0
 299 00a2 347F202E 		.ascii	"4\177 .7\205Q=OU\2619\030|\356w\267Opm\033\213\314f"
 299      3785513D 
 299      4F55B139 
 299      187CEE77 
 299      B74F706D 
 300 00ba 70116429 		.ascii	"p\021d)\207\2168\230\270J\327$S\347`\223*\323\220L\223"
 300      878E3898 
 300      B84AD724 
 300      53E76093 
 300      2AD3904C 
 301 00cf 43C44C96 		.ascii	"C\304L\226\272\316\365\216\014OH\332\362:\313Q4OA\311"
 301      BACEF58E 
ARM GAS  /tmp/cc8rfvLe.s 			page 23


 301      0C4F48DA 
 301      F23ACB51 
 301      344F41C9 
 302 00e3 AEDFD0F5 		.ascii	"\256\337\320\365\217\277V^\2516\226`)\203=N\307\230"
 302      8FBF565E 
 302      A9369660 
 302      29833D4E 
 302      C798
 303 00f5 E3113DEC 		.ascii	"\343\021=\3548\347fr\214e0\2423.\325\235\017j\005\330"
 303      38E76672 
 303      8C6530A2 
 303      332ED59D 
 303      0F6A05D8 
 304 0109 9BF0B0A8 		.ascii	"\233\360\260\250\204\031\206\341_\210\307l\320\255\342"
 304      841986E1 
 304      5F88C76C 
 304      D0ADE2
 305 0118 9047C4D7 		.ascii	"\220G\304\327h\333\335v\255\034\265\264\252\340\356"
 305      68DBDD76 
 305      AD1CB5B4 
 305      AAE0EE
 306 0127 CC24C8FA 		.ascii	"\314$\310\372\004{\030'zI\317\277\254/\277\326\001$"
 306      047B1827 
 306      7A49CFBF 
 306      AC2FBFD6 
 306      0124
 307 0139 8723E39A 		.ascii	"\207#\343\232\202\246\265\311\322\306\207g\375PX\013"
 307      82A6B5C9 
 307      D2C68767 
 307      FD50580B 
 308 0149 36F6D0B3 		.ascii	"6\366\320\263\333\302\3171\017\251\227\220\244r~5G\203"
 308      DBC2CF31 
 308      0FA99790 
 308      A4727E35 
 308      4783
 309 015b 6904A62B 		.ascii	"i\004\246+\230\0126n\026\221G%\301\306\276\264\252`"
 309      980A366E 
 309      16914725 
 309      C1C6BEB4 
 309      AA60
 310 016d 18B3E568 		.ascii	"\030\263\345h\212\376\356\327\365\325;a\272\311\036"
 310      8AFEEED7 
 310      F5D53B61 
 310      BAC91E
 311 017c FA0DFD18 		.ascii	"\372\015\375\030/\365?X\335\202/l\214\\\303\231\377"
 311      2FF53F58 
 311      DD822F6C 
 311      8C5CC399 
 311      FF
 312 018d 7BD8A06E 		.ascii	"{\330\240nqx\210\"\012ZZi\245\232\231r\354\367\255\254"
 312      71788822 
 312      0A5A5A69 
 312      A59A9972 
 312      ECF7ADAC 
 313 01a1 BFF2EF37 		.ascii	"\277\362\3577~\337\263\276W3\223\371\277\243\320\274"
 313      7EDFB3BE 
 313      573393F9 
ARM GAS  /tmp/cc8rfvLe.s 			page 24


 313      BFA3D0BC 
 314 01b1 29D57D02 		.ascii	")\325}\002\317[\355\364gY\266~\362\351 o\246\374\201"
 314      CF5BEDF4 
 314      6759B67E 
 314      F2E9206F 
 314      A6FC81
 315 01c4 202C62B5 		.ascii	" ,b\2651\333\276\322\276p)\313\346\346O\246\244\347"
 315      31DBBED2 
 315      BE7029CB 
 315      E6E64FA6 
 315      A4E7
 316 01d6 E72EFF01 		.ascii	"\347.\377\001\030_\253,"
 316      185FAB2C 
 317              		.text
 318              		.section	.gnu.lto_logfileWrite.71ba7478757c25a3,"",%progbits
 319 0000 789C8554 		.ascii	"x\234\205TKhSQ\020\235\271\367\375\322|L\322\202\266"
 319      4B685351 
 319      109DB9F7 
 319      FDD27C4C 
 319      D282B6
 320 0013 6829052D 		.ascii	"h)\005-X\250\212n\272q\357\336\202.\\\304\030\302\003"
 320      58A88A6E 
 320      BA71EFDE 
 320      822E5CC4 
 320      18C203
 321 0026 AB50032E 		.ascii	"\253P\003.\\\364\246\015\232\205H\024\027~6-R\205\""
 321      5CF4A60D 
 321      9A854814 
 321      177E362D 
 321      528522
 322 0039 BA10294A 		.ascii	"\272\020)J\027\257.\242\010\365\003E\250\"\024W\202"
 322      17AF2EA2 
 322      08F50345 
 322      A8221457 
 322      82
 323 004a A101DD48 		.ascii	"\241\001\335H\025\343\314}\237\246Z\355\205\314}gf\316"
 323      15E3CC7D 
 323      9FA65AED 
 323      85CC7D67 
 323      66CE
 324 005c CC7973EF 		.ascii	"\314ys\357\213\000\001\177\256Q\372\345\014\200\335"
 324      8B00017F 
 324      AE51FAE5 
 324      0C80DD
 325 006b B4630C50 		.ascii	"\264c\014P\324^\001\224\035!du\000T\207\3016!\2053\337"
 325      D45E0194 
 325      1D216475 
 325      005487C1 
 325      36218533 
 326 0080 CB68691F 		.ascii	"\313hi\037!#@\246F\246p^\356'd\325w\021\262\204\375"
 326      212340A6 
 326      46A6705E 
 326      EE2764D5 
 326      7711B284 
 327 0095 9463CE3B 		.ascii	"\224c\316;\216\331\350p9t\020y\007\204q!\015\323\262"
 327      8ED9E870 
 327      39741079 
ARM GAS  /tmp/cc8rfvLe.s 			page 25


 327      07847121 
 327      0DD3B2
 328 00a8 1D1C3F8E 		.ascii	"\035\034?\216\334^\366\303\264R\265\225\231\246'o^\367"
 328      DC5EF6C3 
 328      B452B595 
 328      99A6276F 
 328      5EF7
 329 00ba 2A53EA67 		.ascii	"*S\352g\253\205\350\"IM#\344\021\216\021\300>\275\011"
 329      AB85E822 
 329      494D23E4 
 329      118E11C0 
 329      3EBD09
 330 00cd 63A376CD 		.ascii	"c\243v\315\275\346-\327\257lW+\252\246~\021\325E)\240"
 330      BDE62DD7 
 330      AF6C572B 
 330      AAA67E11 
 330      D54529A0 
 331 00e1 679DE9F8 		.ascii	"g\235\351\370L\374\233\351\325\274\017\365\313\335j"
 331      4CFC9BE9 
 331      D5BC0FF5 
 331      CBDD6A
 332 00f0 6A226452 		.ascii	"j\"dR\317\336\255z>\024\336J\2535\377\270\262\266\263"
 332      CFDEAD7A 
 332      3E14DE4A 
 332      AB35FFB8 
 332      B2B6B3
 333 0103 1BC14543 		.ascii	"\033\301EC\2621p\024\301\"\2036A3F\306\352\200\034\336"
 333      B2317014 
 333      C1228336 
 333      413346C6 
 333      EA801CDE 
 334 0117 C17E88B3 		.ascii	"\301~\210\263'A1\221\244';EO2\035\3042\344\201,\201"
 334      27413191 
 334      A4273B45 
 334      4F321DC4 
 334      32E4812C 
 335 012c 69029D04 		.ascii	"i\002\235\004\234.6\324\307\204\012\315\245\317O\313"
 335      9C2E36D4 
 335      C7840ACD 
 335      A5CF4FCB 
 336 013c E10C5960 		.ascii	"\341\014Y`i\264\216\222\345q\216\240\340]\276\200Jc"
 336      69B48E92 
 336      E5718EA0 
 336      E05DBE80 
 336      4A63
 337 014e E1635DE6 		.ascii	"\341c]\346\360\036\232PD\203u\307\332E\217\240\204\352"
 337      F01E9A50 
 337      448375C7 
 337      DA458FA0 
 337      84EA
 338 0160 805C8489 		.ascii	"\200\\\204\211\3677V?G\211\366 \354%m\267\341\026\021"
 338      F737563F 
 338      4789F620 
 338      EC256DB7 
 338      E11611
 339 0173 3A8A6831 		.ascii	":\212h11\256\031'\243\201\275\206\2127\0342b\027`MU"
 339      31AE1927 
ARM GAS  /tmp/cc8rfvLe.s 			page 26


 339      A381BD86 
 339      8A371C32 
 339      6217604D 
 340 0188 55DAC544 		.ascii	"U\332\305D\036\375\024*\343b\022\200\212\257N\366\204"
 340      1EFD142A 
 340      E3621280 
 340      8AAF4EF6 
 340      84
 341 0199 89548D14 		.ascii	"\211T\215\024he\337.\212\310\313\015\344Fe\006|=\354"
 341      6865DF2E 
 341      8AC8CB0D 
 341      E4466506 
 341      7C3DEC
 342 01ac 2B6BBE89 		.ascii	"+k\276\211\022\343\221\262\262R\352\304\277\325\351"
 342      12E391B2 
 342      B252EAC4 
 342      BFD5E9
 343 01bb AEB318F2 		.ascii	"\256\263\030\362\222EL\260\344K^w\350JG\222Sy\024\201"
 343      92454CB0 
 343      E44B5E77 
 343      E84A4792 
 343      53791481 
 344 01cf E4781153 		.ascii	"\344x\021S\224\315!ZsTx\233?c\237Eg\220\016\324\377"
 344      94CD215A 
 344      7354789B 
 344      3F639F45 
 344      67900ED4 
 345 01e4 589F6B7A 		.ascii	"X\237kz\023\365&<\330#\265\210O\221\210\214\026A\316"
 345      13F5263C 
 345      D823B588 
 345      4F91888C 
 345      1641CE
 346 01f7 23A1271B 		.ascii	"#\241'\033\036 \227,\017\267%f\333\213Y\260\220\322"
 346      1E20972C 
 346      0FB72566 
 346      DB8B59B0 
 346      90D2
 347 0209 A3F8DEF4 		.ascii	"\243\370\336\364\242j\235z\024\231\315\017\011\2431"
 347      A26A9D7A 
 347      1499CD0F 
 347      09A331
 348 0218 4C5627EF 		.ascii	"LV'\357F\234.\242qZ\006\241]\310 \314\362\353\036\330"
 348      469C2EA2 
 348      715A06A1 
 348      5DC820CC 
 348      F2EB1ED8 
 349 022c A21CF183 		.ascii	"\242\034\361\203\227\277\372\374\277\227\312\206%S\322"
 349      97BFFAFC 
 349      BF97CA86 
 349      2553D2
 350 023b FD70C224 		.ascii	"\375p\302$\031\315:\233\017&E\035\\\354\014\031\216"
 350      19CD3A9B 
 350      0F26451D 
 350      5CEC0C19 
 350      8E
 351 024c BEB08BF0 		.ascii	"\276\260\213\360\354Kp\324\376`\016\301#U\345\017\220"
 351      EC4B70D4 
ARM GAS  /tmp/cc8rfvLe.s 			page 27


 351      FE600EC1 
 351      2355E50F 
 351      90
 352 025d D65BFAF7 		.ascii	"\326[\372\367a\232\006\313\200t\221\344\375\271\035"
 352      619A06CB 
 352      807491E4 
 352      FDB91D
 353 026c DCDE4030 		.ascii	"\334\336@0\033s\016\365\261Qc\000\253\361\244+\010\031"
 353      1B730EF5 
 353      B1516300 
 353      ABF1A42B 
 353      0819
 354 027e 14E28F03 		.ascii	"\024\342\217\003\271\007\037t\362T\256\224;}\266X,\214"
 354      B9071F74 
 354      F254AE94 
 354      3B7DB658 
 354      2C8C
 355 0290 0DE52176 		.ascii	"\015\345!v~\314-\225\012g\206\016\312\261\3029;@\277"
 355      7ECC2D95 
 355      0A67860E 
 355      CAB1C239 
 355      3B40BF
 356 02a3 01BDE909 		.ascii	"\001\275\351\011d"
 356      64
 357              		.text
 358              		.section	.gnu.lto_dataloggerThread.71ba7478757c25a3,"",%progbits
 359 0000 789C6D52 		.ascii	"x\234mR\273J\003A\024=g\036\331\215\017\242\177`c\243"
 359      BB4A0341 
 359      143D671E 
 359      D98D0FA2 
 359      7F6063A3 
 360 0014 6067E92F 		.ascii	"`g\351/X%\240e\214\262,(\202\330Yd\243[\004QH)\332h"
 360      5825A065 
 360      8CB22C28 
 360      82D85964 
 360      A35B0451 
 361 002c 2FFA0741 		.ascii	"/\372\007A+\025\211b+\026)-\374\000\021B\2743\303\006"
 361      2B158962 
 361      2B16292D 
 361      FC001142 
 361      BC33C306 
 362 0040 0C5ED873 		.ascii	"\014^\330s\207{\356\353\314\216\202\302\270\255\310"
 362      877BEEEB 
 362      CC8E82C2 
 362      B8ADC8
 363 004f 774DA022 		.ascii	"wM\240\"\236%Pu^\200V\254h\302A\207\303}l\224>y\000"
 363      9E255075 
 363      5E8056AC 
 363      68C24187 
 363      C37D6C94 
 364 0066 B2099B47 		.ascii	"\262\011\233G\310\246,\351\342 \232J\033\313\346:}\277"
 364      C8A62CE9 
 364      E2209A4A 
 364      1BCBE63A 
 364      7DBF
 365 0078 5B75D71F 		.ascii	"[u\327\037\016o>\236/\007T\223\212;\204AJX\001\351/"
 365      0E6F3E9E 
ARM GAS  /tmp/cc8rfvLe.s 			page 28


 365      2F075493 
 365      8A3B8441 
 365      4A5801E9 
 366 008d 1039881D 		.ascii	"\0209\210\035\224\035H\215E\236e\2359\240\341{T\005"
 366      941D488D 
 366      459E659D 
 366      39A0E17B 
 366      5405
 367 009f 6546954A 		.ascii	"eF\225J\234\256QC\006\353\036\016\337\277\273\263u^"
 367      9CAE5143 
 367      06EB1E0E 
 367      DFBFBBB3 
 367      755E
 368 00b1 D122A15D 		.ascii	"\321\"\241]\304BJu\201s\246\324\011\325\232x\343W\330"
 368      C4424A75 
 368      8173A6D4 
 368      09D59A78 
 368      E357D8
 369 00c4 6021AE87 		.ascii	"`!\256\207\243c]T\224\244\310%\261\263\032\250\366\210"
 369      A3635D54 
 369      94A4C825 
 369      B1B31AA8 
 369      F688
 370 00d6 8A84F5D4 		.ascii	"\212\204\365\324P\254\022\330\323\021\033K\202g?\243"
 370      50AC12D8 
 370      D3111B4B 
 370      82673FA3 
 371 00e6 F1C2B2B0 		.ascii	"\361\302\262\260\236r#_aB\0348\300O\326\316fR\332\006"
 371      9E72235F 
 371      61421C38 
 371      C04FD6CE 
 371      6652DA06 
 372 00fa C336929B 		.ascii	"\3036\222\233\212~o5YT.\317K:\353>\251\242\233\361\232"
 372      8A7E6F35 
 372      59542ECF 
 372      4B3AEB3E 
 372      A9A29BF1 
 373 010f F0BFA642 		.ascii	"\360\277\246B\324#\362\257\326\362\250\304\245\374\371"
 373      D423F2AF 
 373      D6F2A8C4 
 373      A5FCF9
 374 011e A13589CB 		.ascii	"\2415\211\313\265\275\241\325\037\314\027\373\004\253"
 374      B5BDA1D5 
 374      1FCC17FB 
 374      04AB
 375 012c 4A933C72 		.ascii	"J\223<ro`z\263\276_\337\336M\222\255\275\245\006~\001"
 375      6F607AB3 
 375      BE5FDFDE 
 375      4D92ADBD 
 375      A5067E01 
 376 0140 4B5061C0 		.ascii	"KPa\300"
 377              		.text
 378              		.section	.gnu.lto_.symbol_nodes.71ba7478757c25a3,"",%progbits
 379 0000 789C4DCD 		.ascii	"x\234M\315\271N\303@\024\005\320;w\354\000\261\263/"
 379      B94EC340 
 379      1405D03B 
 379      77EC00B1 
ARM GAS  /tmp/cc8rfvLe.s 			page 29


 379      B32F
 380 0012 3429E968 		.ascii	"4)\351h\351\371\026\276\344\005\033\210\011\004\302"
 380      E9F916BE 
 380      E4051B88 
 380      0904C2
 381 0021 DA41817F 		.ascii	"\332A\201\177\200&%\015\221\222&\242\245E\211\004%_"
 381      8026250D 
 381      919226A2 
 381      A5458904 
 381      255F
 382 0033 C032C616 		.ascii	"\3002\306\0263\323\\\235\373F\357\021\204&\362\307\037"
 382      33D35C9D 
 382      FB46EF11 
 382      8426F2C7 
 382      1F
 383 0044 25C0F805 		.ascii	"%\300\370\005\020\031%{\274\241\250\202w\211\362\373"
 383      1019257B 
 383      BCA1A882 
 383      7789F2FB 
 384 0054 84279AB7 		.ascii	"\204'\232\267\024\332\226\373\024]\360\3360\242x\016"
 384      14DA96FB 
 384      145DF0DE 
 384      30A2780E 
 385 0064 638AEFF0 		.ascii	"c\212\357\360\200RrxDYs8\240\254;L(\033\016\217)e\207"
 385      80527278 
 385      44597338 
 385      A0AC3B4C 
 385      281B0E8F 
 386 007b 8794C0E1 		.ascii	"\207\224\300\341\220\022Z\252sJ%g\277\257\324\031\245"
 386      90125AAA 
 386      734A2567 
 386      BFAFD419 
 386      A5
 387 008c 6A35A2D4 		.ascii	"j5\242\324\254\306\224\272\325%\245auJiZ\235PZVW\224"
 387      ACC694BA 
 387      D525A561 
 387      754A695A 
 387      9D505A56 
 388 00a2 B6D505A5 		.ascii	"\266\325\005\245cuM\351\376K\243\216\370\355\333d\015"
 388      63754DE9 
 388      FE4BA38E 
 388      F8EDDB64 
 388      0D
 389 00b3 E95F5631 		.ascii	"\351_V1\315R\001\313\311\216V\015\2542\352f>\366\332"
 389      CD5201CB 
 389      C98E560D 
 389      AC32EA66 
 389      3EF6DA
 390 00c6 489FDE4D 		.ascii	"H\237\336M\266\020\317>z\332\003\242\301V\026\313\371"
 390      B610CF3E 
 390      7ADA03A2 
 390      C15616CB 
 390      F9
 391 00d7 BCA77DE0 		.ascii	"\274\247}\340!\373\346\267\362-\245\302%\205\310l+\027"
 391      21FBE6B7 
 391      F22DA5C2 
 391      2585C86C 
ARM GAS  /tmp/cc8rfvLe.s 			page 30


 391      2B17
 392 00e9 5B82463E 		.ascii	"[\202F>\016:\230\232:0\365\354\225:\014\360\374\270"
 392      0E3A989A 
 392      3A30F5EC 
 392      953A0CF0 
 392      FCB8
 393 00fb ABC32E56 		.ascii	"\253\303.V\023s#\324\210\206\013\245+\233H\277>\267"
 393      137323D4 
 393      88860BA5 
 393      2B9B48BF 
 393      3EB7
 394 010d F10B2ECE 		.ascii	"\361\013.\316\231\010"
 394      9908
 395              		.text
 396              		.section	.gnu.lto_.refs.71ba7478757c25a3,"",%progbits
 397 0000 789C6362 		.ascii	"x\234cb`b\020e\200\000FF\006&f\026F&\240\020\023#+\020"
 397      60621065 
 397      80004646 
 397      06266616 
 397      4626A010 
 398 0018 B3015900 		.ascii	"\263\001Y\000\004w\000="
 398      0477003D 
 399              		.text
 400              		.section	.gnu.lto_.decls.71ba7478757c25a3,"",%progbits
 401 0000 789CBD7D 		.ascii	"x\234\275}\007t\024G\326nwOF\"\030{\327\230\237g\306"
 401      07741447 
 401      D66E774F 
 401      4622187B 
 401      D7989F67 
 402 0015 DEF0FCF6 		.ascii	"\336\360\374\366\255\021`\357\2567<\333 \211\360\014"
 402      AD1160EF 
 402      AE373CDB 
 402      2089F00C 
 403 0025 882389B5 		.ascii	"\210#\211\265}\376\363\237\361 \215@\277\225<3\004\277"
 403      7DFEF39F 
 403      F1208D40 
 403      BF953C33 
 403      04BF
 404 0037 F7CED926 		.ascii	"\367\316\331&\011\343@f\311\311&\031c@d\021\007\214"
 404      09E34066 
 404      C9C92619 
 404      63406411 
 404      078C
 405 0049 11C1B648 		.ascii	"\021\301\266H&\011\203\000\263\200\2015\301Fd\275[\267"
 405      26098300 
 405      B3808135 
 405      C14664BD 
 405      5BB7
 406 005b BA67AA7B 		.ascii	"\272g\252{\272{\252\345}o\316\251\232\356\232\256\257"
 406      BA7BAAE5 
 406      7D6FCEA9 
 406      9AEE9AAE 
 406      AF
 407 006c EEBD75EB 		.ascii	"\356\275u\353\326\255\3205\222 \011\035\335\202\320"
 407      D6ADD035 
 407      9220091D 
 407      DD82D0
ARM GAS  /tmp/cc8rfvLe.s 			page 31


 408 007b 089F3D0B 		.ascii	"\010\237=\013\004!\343\021Ah!\010\302\213\020ZApB\230"
 408      0421E311 
 408      41682108 
 408      C28B105A 
 408      41704298 
 409 008f 0F612184 		.ascii	"\017a!\204E\020>\201\260\014\302r\010+ TA8\007\341\""
 409      45103E81 
 409      B00CC272 
 409      082B2054 
 409      413807E1 
 410 00a4 844B102E 		.ascii	"\204K\020.C\250\225\004\341\004\004I\024\360\3638\204"
 410      43A89504 
 410      E1040449 
 410      14F0F338 
 410      84
 411 00b5 7AB86FE5 		.ascii	"z\270o\345\020\204\034\010\375 \334\203 \002xs\010\217"
 411      10841C08 
 411      FD20DC83 
 411      20027873 
 411      088F
 412 00c7 42F80584 		.ascii	"B\370\005\204\377\006!\003\302s\020\272@\350\006\241"
 412      FF062103 
 412      C27310BA 
 412      40E806A1 
 413 00d7 3B847E10 		.ascii	";\204~\020\376\012a\014\204\017 L\2020\025\302,\010"
 413      FE0A610C 
 413      840F204C 
 413      823015C2 
 413      2C08
 414 00e9 8B219062 		.ascii	"\213!\220b>q\012\232\017)/\015\276{9)?\351\012/\237"
 414      3E710A9A 
 414      0F292F0D 
 414      BE7B3929 
 414      3FE90A2F 
 415 00fe 42540561 		.ascii	"BT\005a9\204U\020z@X\015a\215\222\337\251\344\355\247"
 415      39845510 
 415      7A40580D 
 415      618D92DF 
 415      A9E4EDA7 
 416 0112 944D6880 		.ascii	"\224Mh\200[!\015\350m\356\320\226A\370yL\341W-\3435"
 416      5B210DE8 
 416      6DEED096 
 416      41F8794C 
 416      E1572DE3 
 417 0127 78FEDF1D 		.ascii	"x\376\337\035\024\2475|\377\032B[\010O@h-R\271\254s"
 417      14A7357C 
 417      FF1A425B 
 417      084F4068 
 417      2D52B9AC 
 418 013c 5299BE0A 		.ascii	"R\231\276\012\337\353!lp&\344{\006~'\305\374\012\242"
 418      DFEB216C 
 418      7026E47B 
 418      067E27C5 
 418      FC0AA2
 419 014f 2C084F39 		.ascii	",\010O9\350=)\213\310\200\320F\260_\201\373\236\020"
 419      E83D298B 
 419      C880D046 
ARM GAS  /tmp/cc8rfvLe.s 			page 32


 419      B05F81FB 
 419      9E10
 420 0161 7A399279 		.ascii	"z9\222y'2n.P\371\253t}\242\224\355Th$t\265fh\253\206"
 420      27326E2E 
 420      50F9AB74 
 420      7DA294ED 
 420      54682474 
 421 017a B4771559 		.ascii	"\264w\025Y\222\262%\005g\214\222\226\247\343\235\324"
 421      92B22505 
 421      678C9296 
 421      A7E39DD4 
 422 018a 615B81F2 		.ascii	"a[\201\362\312\362N0\253\0249\252\272@x$e\357\207\260"
 422      CAF24E30 
 422      AB1439AA 
 422      BA407824 
 422      65EF87B0 
 423 019e 11AE2743 		.ascii	"\021\256'C\330\244\310`,|o\206\260E\221\203\252Wg\024"
 423      D8A4C860 
 423      2C7C6F86 
 423      B0459183 
 423      AA576714 
 424 01b2 FD51F58D 		.ascii	"\375Q\365\215\340\035\201\264c\020\216C8\251\360B\350"
 424      E01D81B4 
 424      63108E43 
 424      38A9F042 
 424      E8
 425 01c3 98A4E805 		.ascii	"\230\244\350\005\221\215\013\322~\204\264[\020~\200"
 425      918D0BD2 
 425      7E84B45B 
 425      107E80
 426 01d2 70DB403E 		.ascii	"p\333@>D\367Z\351hW\353A-\217\224OhT\365[\245\225\320"
 426      44F75AE9 
 426      6857EB41 
 426      2D8F944F 
 426      6854F55B 
 427 01e9 44F8207C 		.ascii	"D\370 |\021\271\234T\352\213`\222\362?P\364\245\321"
 427      11B99C54 
 427      EA8B6092 
 427      F23F50F4 
 427      A5D1
 428 01fb A05C51D1 		.ascii	"\240\\Q\321E\266\\\"/\202\251\226\257\266\2433R\242"
 428      45B65C22 
 428      2F82A996 
 428      AFB6A333 
 428      52A2
 429 020d 9C6D90FE 		.ascii	"\234m\220\376\210C[\236\350L\264)\302\263\017\356\275"
 429      88435B9E 
 429      E84CB429 
 429      C2B30FEE 
 429      BD
 430 021e 109A4148 		.ascii	"\020\232AHs&\227\335\\\251\307\033\222B\213\222\246"
 430      732697DD 
 430      5CA9C71B 
 430      92428B92 
 430      A6
 431 022f FF3CAA3C 		.ascii	"\377<\252<\327\332\221x\216\244\221[?|\267\203\360\244"
 431      D7DA9178 
ARM GAS  /tmp/cc8rfvLe.s 			page 33


 431      8EA4915B 
 431      3F7CB783 
 431      F0A4
 432 0241 2EDF2F94 		.ascii	".\337/\224\337\211~\253\372D\362e)\337\277P0\377\253"
 432      DF897EAB 
 432      FA44F265 
 432      29DFBF50 
 432      30FFAB
 433 0254 2E1F69EF 		.ascii	".\037i\357>!\321N\376\335\231\254\217\250S\"\225\251"
 433      3E21D14E 
 433      FEDD99AC 
 433      8FA85322 
 433      95A9
 434 0266 DA262425 		.ascii	"\332&$%\257\252\233\317\352p\211\015i-\320\274\252\234"
 434      AFAA9BCF 
 434      EA70890D 
 434      692DD0BC 
 434      AA9C
 435 0278 093ED141 		.ascii	"\011>\321A\217\240\325{\266-\356#4BZ\014\256\2479\023"
 435      8FA0D57B 
 435      B62DEE23 
 435      34425A0C 
 435      AEA73913 
 436 028c 34A8ED91 		.ascii	"4\250\355\221\264\305\337)m;C\261IS\031::\351\350 v"
 436      B4C5DF29 
 436      6D3B43B1 
 436      4953193A 
 436      3AE9E820 
 437 02a1 8CD80792 		.ascii	"\214\330\007\222\254o#\277V\344K\352\216\320$1\262\333"
 437      AC6F23BF 
 437      56E44BEA 
 437      8ED02431 
 437      B2DB
 438 02b3 0ECFFC06 		.ascii	"\016\317\374\006\302\016\010\177\201\337f+2\370\014"
 438      C20E087F 
 438      81DF662B 
 438      32F80C
 439 02c2 BEFB3AB4 		.ascii	"\276\373:\264\262p*\345d(\3660GI{\021\242?\221\374\020"
 439      B2702AE5 
 439      6428F630 
 439      47497B11 
 439      A23F91FC 
 440 02d7 FEACA38B 		.ascii	"\376\254\243\213\330V\265L\217Ro;!\355\010\204\243\020"
 440      D856B54C 
 440      8F526F3B 
 440      21ED0884 
 440      A310
 441 02e9 96283A7C 		.ascii	"\226(:|\030\276\017*\327]\030[\233\251\303\363\011\357"
 441      18BE0F2A 
 441      D75D185B 
 441      9BA9C3F3 
 441      09EF
 442 02fb C8F270B9 		.ascii	"\310\362p\271~\241\334f\032\360\371\232\030\024[\370"
 442      7EA1DC66 
 442      1AF0F99A 
 442      18145BF8 
 443 030b 042F5EA4 		.ascii	"\004/^\244\373\250I\021\026\310\362\370\372Q{\037\227"
ARM GAS  /tmp/cc8rfvLe.s 			page 34


 443      FBA84911 
 443      16C8F2F8 
 443      FA517B1F 
 443      97
 444 031c 9D4171BE 		.ascii	"\235Aq\276\350\003\320?\213\302o\204\217eH\207\334O"
 444      E803D03F 
 444      8BC26F84 
 444      8F654887 
 444      DC4F
 445 032e 8B42F227 		.ascii	"\213B\362'(\212\276\244\373\240\270@\374\215@\213\301"
 445      288ABEA4 
 445      FBA0B840 
 445      FC8D408B 
 445      C1
 446 033f 9F958B46 		.ascii	"\237\225\213F\221X\374w\011%\363*\345\036\273[<\"\000"
 446      9158FC77 
 446      0925F32A 
 446      E51EBB5B 
 446      3C2200
 447 0352 B02CFBA7 		.ascii	"\260,\373\247\265`\010lcA\037!D\012\212\213\221\272"
 447      B560086C 
 447      63411F21 
 447      440A8A8B 
 447      91BA
 448 0364 EE460421 		.ascii	"\356F\004!\015\213uD,\216S\261X!C)\341\242\244\026\361"
 448      0D8B7544 
 448      2C8E53B1 
 448      58214329 
 448      E1A2A416 
 449 0379 AC927591 		.ascii	"\254\222u\221\370HBb\262B'>\241d\361\2539\234J\216\245"
 449      F8484262 
 449      B242273E 
 449      A164F1AB 
 449      399C4A8E 
 450 038e 8A0494E4 		.ascii	"\212\004\224\344\370\305o\025r\314\362-\024\323T\212"
 450      F8C56F15 
 450      72CCF22D 
 450      14D3548A 
 451 039e 4D8442C9 		.ascii	"M\204B\311U\362\313qR\375\012\3002\333\244~jBj\373\024"
 451      55F2CB71 
 451      52FD0AC0 
 451      32DBA47E 
 451      6A426AFB 
 452 03b3 A47E628F 		.ascii	"\244~b\217\324\333qR3\024\200\025\266I]iBj\207\024\244"
 452      D4DB7152 
 452      33148015 
 452      B6495D69 
 452      426A8714 
 453 03c8 2E3721B5 		.ascii	".7!\265\2650\001I\335\235P\177\371\027j\346\225N!\336"
 453      B5300149 
 453      DD9D507F 
 453      F9176AE6 
 453      954E21DE 
 454 03dc 00AA775D 		.ascii	"\000\252w]\355$\313\336\240\270Jl\015J&\213b\\\225\310"
 454      ED24CBDE 
 454      A0B84A6C 
 454      0D4A268B 
ARM GAS  /tmp/cc8rfvLe.s 			page 35


 454      625C95C8 
 455 03f0 27350EA1 		.ascii	"'5\016\241b-\344\245\271\250\332\3066\355J'\315\212"
 455      622DE4A5 
 455      B9A8DAC6 
 455      36ED4A27 
 455      CD8A
 456 0402 A40B1A3C 		.ascii	"\244\013\032<\315\347)a\036P\034\333\262k\223(W\246"
 456      CDE72961 
 456      1E501CDB 
 456      B26B9328 
 456      57A6
 457 0414 ABADB012 		.ascii	"\253\255\260\022I Y\215\332E\\@\214T\264p[w\245\255"
 457      4920598D 
 457      DA455C40 
 457      8C54B470 
 457      5B77A5AD 
 458 0428 7C43051B 		.ascii	"|C\005\033k\033\314\253\001\333\317\202M\264\015\326"
 458      6B1BCCAB 
 458      01DBCF82 
 458      4DB40DD6 
 459 0438 4A037690 		.ascii	"J\003v\220\005\233f\033\254\215\006\3540\0136\3276\230"
 459      059B661B 
 459      AC8D06EC 
 459      300B36D7 
 459      3698
 460 044a 5F037684 		.ascii	"_\003v\204\005[h\033\354\031\015\330\261\312\364\375"
 460      055B681B 
 460      EC190DD8 
 460      B1CAF4FD 
 461 045a 6F28164E 		.ascii	"o(\026N\256\224\237Y\322\202\221\207\222]Jh\340\250"
 461      AE949F59 
 461      D2829187 
 461      925D4A68 
 461      E0A8
 462 046c F7DA115D 		.ascii	"\367\332\021]\331\211e/\327\351_Pt\350\014\256Ck\353"
 462      D989652F 
 462      D7E95F50 
 462      74E80CAE 
 462      436BEB
 463 047f 1CBEC445 		.ascii	"\034\276\304Ec#\366E\253\365\364kJ5\242\277#K?4\211"
 463      6323F645 
 463      ABF5F46B 
 463      4A35A2BF 
 463      234B3F34 
 464 0494 236F4D93 		.ascii	"#oM\223c\303\035*Q\353x\000\275\346\032y\257\362\375"
 464      63C31D2A 
 464      51EB7800 
 464      BDE61A79 
 464      AFF2FD
 465 04a7 27E4793B 		.ascii	"'\344y;DE&\264\205\032\267iE&\013k\261[\332\207\305"
 465      444526B4 
 465      851AB769 
 465      45260B6B 
 465      B15BDA87 
 466 04bc C79264E2 		.ascii	"\307\222d\342\321\311\304\243\225\211\307\227\270 \303"
 466      D1C9C4A3 
 466      9589C797 
ARM GAS  /tmp/cc8rfvLe.s 			page 36


 466      B820C3
 467 04cb A896442A 		.ascii	"\250\226D*\273\364Lh\3125bB\243\"\365\325\225\247\207"
 467      BBF44C68 
 467      CA356242 
 467      A322F5D5 
 467      95A787
 468 04de 891346C8 		.ascii	"\211\023F\310\273;\252t\035\340Ale.\226\277\327\244"
 468      BB3BAA74 
 468      1DE0416C 
 468      652E96BF 
 468      D7A4
 469 04f0 8F0FAA60 		.ascii	"\217\017\252`'m\203i5x\032\013v\236\007\254\2159e3X"
 469      276D8369 
 469      35781A0B 
 469      769E07AC 
 469      8D396533 
 470 0505 B0CBB6C1 		.ascii	"\260\313\266\301\264\224\315b\301n\362\200\371\315)"
 470      B494CD62 
 470      C16EF280 
 470      F9CD29
 471 0514 9BC382DD 		.ascii	"\233\303\202\335\263\015\246\245l%\0136B\342\000{\306"
 471      B30DA6A5 
 471      6C250B36 
 471      42E2007B 
 471      C6
 472 0525 9CB2552C 		.ascii	"\234\262U,\330\373\266\301X\312\344\330\332\2324\350"
 472      D8FBB6C1 
 472      58CAE4D8 
 472      DA9A34E8 
 473 0535 11D8FE76 		.ascii	"\021\330\376v>\343\032\304\301d\265\003\252\267\335"
 473      3EE31AC4 
 473      C164B503 
 473      AAB7DD
 474 0544 E19E31E9 		.ascii	"\341\2361\351p\033\325a\245$L\3263\241+X\271\356h \023"
 474      701BD561 
 474      A5244CD6 
 474      33A12B58 
 474      B9EE6820 
 475 0559 A30FDB4D 		.ascii	"\243\017\333M\006\305u\342\257 ^/>\005q5\306\2330\336"
 475      06C575E2 
 475      AF205E2F 
 475      3E057135 
 475      C69B30DE 
 476 056d 82F1368C 		.ascii	"\202\3616\214\267c\374\031\306\2731\336\213q-\306\007"
 476      B763FC19 
 476      C6BB31DE 
 476      8B712DC6 
 476      07
 477 057e 303E84F1 		.ascii	"0>\204\361\327\030\037\305\3708\306u\030\177\203\361"
 477      D7181FC5 
 477      F838C675 
 477      187F83F1 
 478 058e 6988E31F 		.ascii	"i\210\343\0373\201T\231x\022qW5\226\302\227\216M\251"
 478      33815499 
 478      78127157 
 478      3596C297 
 478      8E4DA9
ARM GAS  /tmp/cc8rfvLe.s 			page 37


 479 05a1 6C293B39 		.ascii	"l);9\\\357\240x\036\231O\355\266B/)\351m\337b\275\007"
 479      5CEFA078 
 479      1E994FED 
 479      B6422F29 
 479      E96DDF62 
 480 05b7 CEEDFD26 		.ascii	"\316\355\375&\261|\316\236\2377>\356\347=\255\000\\"
 480      B17CCE9E 
 480      9F373EEE 
 480      E73DAD00 
 480      5C
 481 05c8 B2AD76DF 		.ascii	"\262\255v\337\231\250\235ZAf\371.\332\360\363D\326\\"
 481      99A89D5A 
 481      4166F92E 
 481      DAF0F344 
 481      D65C
 482 05da 2A1DCA83 		.ascii	"*\035\312\203\203\313:\240\233w\005\335\274OubM\011"
 482      83CB3AA0 
 482      9B7705DD 
 482      BC4F7562 
 482      4D09
 483 05ec 23096B31 		.ascii	"#\011k1\313\367zOoB\320OSS\373yS\346\357\021\345\211"
 483      CBF77A4F 
 483      6F42D04F 
 483      5353FB79 
 483      53E6EF11 
 484 0602 E9A9E89F 		.ascii	"\351\251\350\237\347P\013~>A\177\303\244\235\235\221"
 484      E7500B7E 
 484      3E417FC3 
 484      A49D9D91 
 485 0612 FE1F90FE 		.ascii	"\376\037\220\376\033\251\351\327\302\020\352\032\364"
 485      1BA9E9D7 
 485      C210EA1A 
 485      F4
 486 061f B47F5D83 		.ascii	"\264\177]\203^j\003\027\365\337\214\236\213\235\270"
 486      5E6A0317 
 486      F5DF8C9E 
 486      8B9DB8
 487 062e 11F9F080 		.ascii	"\021\371\360\200\310\212N3v\221\204\373@\255\221\204"
 487      C88A4E33 
 487      769184FB 
 487      40AD9184 
 488 063e 358F05C5 		.ascii	"5\217\005\305\373\242\004\361\003=\225\253G#\225\017"
 488      FBA204F1 
 488      033D95AB 
 488      4723950F 
 489 064e B8A85C5B 		.ascii	"\270\250\\[\223,\343\237\013S\024\355\224\305\250W\030"
 489      932CE39F 
 489      0B5314ED 
 489      94C5A857 
 489      18
 490 065f 8DED7394 		.ascii	"\215\355s\224<L|+\365\320s\270\344\005\006\3068L\307"
 490      3C4C7C2B 
 490      F5D073B8 
 490      E40506C6 
 490      384CC7
 491 0672 9EE40155 		.ascii	"\236\344\001Uq\351\265ze\321\360\206I?\307+\007:P\220"
 491      71E9B57A 
ARM GAS  /tmp/cc8rfvLe.s 			page 38


 491      65D1F086 
 491      493FC72B 
 491      073A5090 
 492 0686 F0521A44 		.ascii	"\360R\032D\375\0223zf\031e)\336\014$a\234CT\344e\321"
 492      FD12337A 
 492      66196529 
 492      DE0C2461 
 492      9C4354E4 
 493 069c C968F034 		.ascii	"\311h\3604\262\222W\311\262\317M1%a\246m0\2779\330\022"
 493      B29257C9 
 493      B2CF4D31 
 493      2561A66D 
 493      30BF39D8 
 494 06b1 1E307387 		.ascii	"\0360s\207Q\013\266\3226\230\001e\346\012A+\313L\340"
 494      510BB6D2 
 494      36980165 
 494      E60A412B 
 494      CB4CE0
 495 06c4 E30C6A4A 		.ascii	"\343\014jJ\271\346\367f\033f~\276]\204\261\000\3740"
 495      B9E6F766 
 495      1B667EBE 
 495      5D84B100 
 495      FC30
 496 06d6 5122EE41 		.ascii	"Q\"\356A\275C\333|\371\241V\317\335\374G\264\003S\020"
 496      BD43DB7C 
 496      F9A156CF 
 496      DDFC47B4 
 496      035310
 497 06e9 688EF3A7 		.ascii	"h\216\363\247\273\306\366\037W\004`\334M\246\234rj\230"
 497      BBC6F61F 
 497      570460DC 
 497      4DA69C72 
 497      6A98
 498 06fb F9E97F47 		.ascii	"\371\351\177G\026f \013\037;\015e\301\001\264z\356\234"
 498      1666200B 
 498      1F3B0D65 
 498      C101B47A 
 498      EE9C
 499 070d 17106836 		.ascii	"\027\020h6\002U%\311\302\346\\\225\235g\315\364ez\242"
 499      025525C9 
 499      C2E65C95 
 499      9D67CDF4 
 499      657AA2
 500 0720 81B25A43 		.ascii	"\201\262ZC\252\035/8\332\370X\266\215orr(\277\371\030"
 500      AA1D2F38 
 500      DAF858B6 
 500      8D6F7272 
 500      28BFF918 
 501 0734 03FA8DAB 		.ascii	"\003\372\215\253\235\246\313\261\221\216\2466\200\005"
 501      9DA6CBB1 
 501      918EA636 
 501      8005
 502 0742 E60D20CE 		.ascii	"\346\015 \316\226\245>\230\273MAq\246\364\253\246\213"
 502      96A53E98 
 502      BB4D4171 
 502      A6F4ABA6 
 502      8B
ARM GAS  /tmp/cc8rfvLe.s 			page 39


 503 0753 7AC94F17 		.ascii	"z\311O\027\365G\254\250c\266E\355gE\2555Z\273x\300\314"
 503      F547ACA8 
 503      63B645ED 
 503      6745AD35 
 503      5ABB78C0 
 504 0768 47603FCD 		.ascii	"G`?\315h\2554\2573\303\336\373e\306\350\274\314ZT\245"
 504      68AD34AF 
 504      33C3DEFB 
 504      65C6E8BC 
 504      CC5A54A5 
 505 077c A1ADFBC7 		.ascii	"\241\255\373\3075\0176\2645\022q>*]\206\316\2079\014"
 505      350F36B4 
 505      3512713E 
 505      2A5D86CE 
 505      87390C
 506 078f 2161BDA4 		.ascii	"!a\275\244\353\326\033B~\232\232\272S\277\263\020;u"
 506      EBD61B42 
 506      7E9A9ABA 
 506      53BFB310 
 506      3B75
 507 07a1 D57AFE1D 		.ascii	"\325z\376\035\313'Y\233\324\357\305\356\206\310\030"
 507      CB27599B 
 507      D4EFC5EE 
 507      86C818
 508 07b0 9E62CDB5 		.ascii	"\236b\315\265\215\3457\"TH\3422(n@\345\256\226pl#q\214"
 508      8DE53722 
 508      5448E232 
 508      286E40E5 
 508      AE96706C 
 509 07c7 40566B14 		.ascii	"@Vk\024\232K\201W\260"
 509      9A4B8157 
 509      B0
 510 07d0 0ABCD865 		.ascii	"\012\274\330eW\347\364\274\250\025\021\024\033q\340"
 510      57E7F4BC 
 510      A8151114 
 510      1B71E0
 511 07df 341A891F 		.ascii	"4\032\211\037\203\361{\030\177\200\361\207\030/\303"
 511      83F17B18 
 511      7F80F187 
 511      182FC3
 512 07ee 78390F6B 		.ascii	"x9\017kwE\206\316\225HgCS\375\226\372\206C\015\235\246"
 512      774586CE 
 512      95486743 
 512      53FD96FA 
 512      86430D9D 
 513 0803 CAB1610E 		.ascii	"\312\261a\016\217PI}\271\341\251\272\012\320`7jpL\362"
 513      8F50497D 
 513      B9E1A9BA 
 513      0AD06037 
 513      6A704CF2 
 514 0817 00056B74 		.ascii	"\000\005kt\032\314\001D\270\370\0142kt\270\372m?M\265"
 514      1ACC0144 
 514      B8F80C32 
 514      6B74B8FA 
 514      6D3F4DB5 
 515 082b D0616C78 		.ascii	"\320alx\222\260\315E\307\023N_\"mo\"Md\036=\224H\226"
 515      92B0CD45 
ARM GAS  /tmp/cc8rfvLe.s 			page 40


 515      C7134E5F 
 515      226D6F22 
 515      4D641E3D 
 516 0842 98E45389 		.ascii	"\230\344S\211d\007\223|5\221\354d\222\033\023\311.&"
 516      6407937C 
 516      3591EC64 
 516      921B13C9 
 516      2E26
 517 0854 798C3B9E 		.ascii	"y\214;\236\354f\222\247$\222=L\362\374D\262\227\251"
 517      EC6692A7 
 517      24923D4C 
 517      F2FC44B2 
 517      97A9
 518 0866 11CB8E33 		.ascii	"\021\313\2163!\244\240\270\023\233\300\347\222\3030"
 518      21A4A0B8 
 518      139BC0E7 
 518      92C330
 519 0875 1B0CC3DC 		.ascii	"\033\014\303\334:M\2605m+\243&\014#\275\233:b%\243O"
 519      3A4DB035 
 519      6D2BA326 
 519      0C23BD9B 
 519      3A6225A3 
 520 088a D2B00DC7 		.ascii	"\322\260\015\307p\204\272\343\222\335\021\353\011\311"
 520      7084BAE3 
 520      92DD11EB 
 520      09C9
 521 0898 78C49A98 		.ascii	"x\304\232\230'Y\255\347B[l*w\027\247\211I\317Ah\223"
 521      2759ADE7 
 521      425B6C2A 
 521      7717A789 
 521      49CF4168 
 522 08ad 84F55C68 		.ascii	"\204\365\\h\251\272\016\325\276m\322\243\331\234\325"
 522      A9BA0ED5 
 522      BE6DD2A3 
 522      D99CD5
 523 08bc 6A183D9B 		.ascii	"j\030=\233w\324\367\206\012\227\036ow\261;\273D\277"
 523      77D4F786 
 523      0A971E6F 
 523      77B13BBB 
 523      44BF
 524 08ce C1C84FF3 		.ascii	"\301\310O\363hP<\007j\222\352)\2346\321\367!\333\350"
 524      68503C07 
 524      6A92EA29 
 524      9C36D1F7 
 524      21DBE8
 525 08e1 32CB79AE 		.ascii	"2\313y\256^\344h\2459+\232ai|\340\3341\316H\375\264"
 525      5EE468A5 
 525      392B9A61 
 525      697CE0DC 
 525      31CE48FD 
 526 08f6 5BD7FE13 		.ascii	"[\327\376\023\015\310%\354\002\307xR\317\037h`\202\342"
 526      0DC825EC 
 526      02C77852 
 526      CF1F6860 
 526      82E2
 527 0908 65898C6E 		.ascii	"e\211\214n\257\350Y\370q&\262p\205\213\205\007us\036"
 527      AFE859F8 
ARM GAS  /tmp/cc8rfvLe.s 			page 41


 527      7126B270 
 527      858B8507 
 527      75731E
 528 091b 97EB6322 		.ascii	"\227\353c\"\277\341;z7\326v\004\216<\276G\313\267\313"
 528      BFE13B7A 
 528      37D67604 
 528      8E3CBE47 
 528      CBB7CB
 529 092e D324CB77 		.ascii	"\323$\313wCo\371\326\222\271.\232\236\332\366\035\360"
 529      436FF9D6 
 529      92B92E9A 
 529      9EDAF61D 
 529      F0
 530 093f 24DBBE93 		.ascii	"$\333\276\223\036C\333w\336ch\373\276\367\030\332\276"
 530      1E43DB77 
 530      DE6368FB 
 530      BEF718DA 
 530      BE
 531 0950 BB1EADED 		.ascii	"\273\036\255\355\0238\354\323\015\306>\335D\373\364"
 531      1338ECD3 
 531      0DC63EDD 
 531      44FBF4
 532 095f 83897D0A 		.ascii	"\203\211}\012\212G\343u\306k\2374\365U?\375\326\376"
 532      8A47E375 
 532      C66B9F34 
 532      F5553FFD 
 532      D6FE
 533 0971 A15BA13D 		.ascii	"\241[\241=\216q7\261\375\324\325\361\264\237a\016\276"
 533      8E7137B1 
 533      FDD4D5F1 
 533      B49F610E 
 533      BE
 534 0982 F633C2A1 		.ascii	"\3663\302\241S\276\251u\250|$=\265\362\315\255\233\223"
 534      53BEA975 
 534      A87C243D 
 534      B5F2CDAD 
 534      9B93
 535 0994 DC7E745E 		.ascii	"\334~t^\351\213?3\265\243\243\035:\247\364\242\3041"
 535      E98B3F33 
 535      B5A3A31D 
 535      3AA7F4A2 
 535      C431
 536 09a6 E9A1C8E1 		.ascii	"\351\241\310\341\301\214\307\010\241\225\016\342[\217"
 536      C18CC708 
 536      A1950EE2 
 536      5B8F
 537 09b4 F66A7558 		.ascii	"\366juXC\020-\310\214\210\367\034i&|&\375\006\235\""
 537      43102DC8 
 537      8C88F71C 
 537      69267C26 
 537      FD069D22 
 538 09c8 964384D3 		.ascii	"\226C\204\3234?\263\332H`\006\365T\037\237\007\373m"
 538      343FB3DA 
 538      486006F5 
 538      541F9F07 
 538      FB6D
 539 09da 9CE3FA3B 		.ascii	"\234\343\372;\037\236\311\240\015w\234\203X\234\263"
ARM GAS  /tmp/cc8rfvLe.s 			page 42


 539      1F9EC9A0 
 539      0D779C83 
 539      589CB3
 540 09e9 DE941647 		.ascii	"\336\224\026G\213\203c!}\205\257\336\207\025>1u\205"
 540      8B836321 
 540      7D85AFDE 
 540      87153E31 
 540      7585
 541 09fb 8F1C115B 		.ascii	"\217\034\021[\277oVb\331n\204\345\354DP\234\204M\211"
 541      BF6F5662 
 541      D96E84E5 
 541      EC44509C 
 541      844D89
 542 0a0e 6721EE7B 		.ascii	"g!\356{\344db\323\304\012dm\330\207\013-S\034\304D\374"
 542      E46462D3 
 542      C40A646D 
 542      D8870B2D 
 542      531CC444 
 543 0a23 681BCCAF 		.ascii	"h\033\314\257\001\333\310\202\335\347\0013\353\307\001"
 543      01DBC882 
 543      DDE70133 
 543      EBC701
 544 0a32 6C330B36 		.ascii	"l3\0136\322g\027LK\331V\026\354]\0360\263i\000\000\333"
 544      D267174C 
 544      4BD95616 
 544      EC5D1E30 
 544      B3690000 
 545 0a47 CF828DB5 		.ascii	"\317\202\215\265\015\306R6,vz\337^2\034{T\230(\313\303"
 545      0DC65236 
 545      2C767ADF 
 545      5E321C7B 
 545      549828CB 
 546 0a5c E4796E33 		.ascii	"\344yn3\245\020\004|D\266|\004\006\341\216G\265Jz\350"
 546      A510047C 
 546      44B67C04 
 546      06E18E47 
 546      B54A7AE8 
 547 0a70 BD164449 		.ascii	"\275\026DIIzj\253\364\265\242\244\252\3033\021\231#"
 547      497A6AAB 
 547      F4B5A2A4 
 547      AAC33311 
 547      9923
 548 0a82 799BD268 		.ascii	"y\233\322h\345\3307\373\322\344w\323\343C\332%\026\204"
 548      E5D837FB 
 548      D2E477D3 
 548      E343DA25 
 548      1684
 549 0a94 2FD1B7AE 		.ascii	"/\321\267\256\243\373$?MNM\367\361}\263\332\310\363"
 549      A3FB243F 
 549      4D4E4DF7 
 549      F17DB3DA 
 549      C8F3
 550 0aa6 B68BFCFB 		.ascii	"\266\213\374\373\004\032f\256\377-\272 \237`-N\366\031"
 550      041A66AE 
 550      FF2DBA20 
 550      9F602D4E 
 550      F619
ARM GAS  /tmp/cc8rfvLe.s 			page 43


 551 0ab8 CE9B7100 		.ascii	"\316\233q\000\255\236\273\230\316!.G\240\331: \373["
 551      AD9EBB98 
 551      CE212E47 
 551      A0D93A20 
 551      FB5B
 552 0aca 0E6C3D2C 		.ascii	"\016l=,\011K\260\300%\011\375K\271?A#\272\372\333\037"
 552      094BB0C0 
 552      2509FD4B 
 552      B93F4123 
 552      BAFADB1F 
 553 0ade 5EEAA0EC 		.ascii	"^\352\240\354O\240\242Xf\033\260\225\256R$aUS\365\206"
 553      4FA0A258 
 553      661BB095 
 553      AE522461 
 553      5553F586 
 554 0af2 615D1D3C 		.ascii	"a]\035</t\220\201\361b\307Sl\001kxZ\235\231[\017M\370"
 554      2F749081 
 554      F162C753 
 554      6C016B78 
 554      5A9D995B 
 555 0b09 1ADB84AB 		.ascii	"\032\333\204\253m\203\3715`7X\260\255<`~s\312~`\301"
 555      6D83F935 
 555      603758B0 
 555      AD3C607E 
 555      73CA7E60 
 556 0b1e 3EB30DA6 		.ascii	">\263\015\246\245\354\026\013\266\233\007\314h\364b"
 556      A5EC160B 
 556      B69B07CC 
 556      68F462
 557 0b2d F461BB43 		.ascii	"\364a\273C\350\257\034\244\277\232\21455\025\343\351"
 557      E8AF1CA4 
 557      BF9A8C35 
 557      3515E3E9 
 558 0b3d 18CFC478 		.ascii	"\030\317\304x6\306s1\236\217\361:\2147`\274\021\343"
 558      36C67331 
 558      9E8FF13A 
 558      8C3760BC 
 558      11E3
 559 0b4f CD6CFD5A 		.ascii	"\315l\375Z\370.\015\023q\177\317X\364]\276\360Y\372"
 559      F82E0D13 
 559      717FCF58 
 559      F45DBEF0 
 559      59FA
 560 0b61 2EE34C58 		.ascii	".\343LX%\324\307,|\227\230\336w9\352\263\353\2730\325"
 560      25D4C72C 
 560      7C9798DE 
 560      7739EAB3 
 560      EBBB30D5 
 561 0b75 809E6BAC 		.ascii	"\200\236k\254l\313JY\036\345V\033\331)=\242\315M@\307"
 561      6CCB4A59 
 561      1EE5561B 
 561      D9293DA2 
 561      CD4D40C7 
 562 0b89 66A6EF7F 		.ascii	"f\246\357\177C\005\373\3266\230\276\305\252\3658\022"
 562      4305FBD6 
 562      3698BEC5 
 562      AAF53812 
ARM GAS  /tmp/cc8rfvLe.s 			page 44


 563 0b99 EB7114D6 		.ascii	"\353q\024\326\310\007\030\357\300x\247\266\365]L2r\324"
 563      C80718EF 
 563      C078A7B6 
 563      F55D4C32 
 563      72D4
 564 0bab E965F012 		.ascii	"\351e\360\022\336\261\220\032\321\254\222\032\331\011"
 564      DEB1901A 
 564      D1AC921A 
 564      D909
 565 0bb9 B91B58E8 		.ascii	"\271\033X\350\025\373\223\213\352f\227S\320\026R.\027"
 565      15FB938B 
 565      EA669753 
 565      D016522E 
 565      17
 566 0bca 3B55A4AC 		.ascii	";U\244\254\270\316\325\337\\\261\275\315FYn\025\024"
 566      B8CED5DF 
 566      5CB1BDCD 
 566      46596E15 
 566      14
 567 0bdb F7A2F7B8 		.ascii	"\367\242\367\270\252Y\352\365b\015\216$l\302,_\352\372"
 567      AA59EAF5 
 567      620D8E24 
 567      6CC22C5F 
 567      EAFA
 568 0bed B8FA99EB 		.ascii	"\270\372\231\353\316\374\3334D\376\222\253\237\273g"
 568      CEFCDB34 
 568      44FE92AB 
 568      9FBB67
 569 0bfc 34EAA664 		.ascii	"4\352\246d\231\311\360\200^\231\357\306Ii\232#\376p"
 569      99C9F080 
 569      5E99EFC6 
 569      49699A23 
 569      FE70
 570 0c0e 17DA9403 		.ascii	"\027\332\224\003\330\002\207\245\331\005\323V\312\244"
 570      D80287A5 
 570      D905D356 
 570      CAA4
 571 0c1c 9A593637 		.ascii	"\232Y67\263Um\274\364\304\026\024\331\021T\376\003i"
 571      B3556DBC 
 571      F4C41614 
 571      D91154FE 
 571      0369
 572 0c2e 7A5D54D6 		.ascii	"z]T\326,\022\272\310\343G\037\347a\304|\326\011j\362"
 572      2C12BAC8 
 572      E3471FE7 
 572      61C47CD6 
 572      096AF2
 573 0c41 40BB6A1C 		.ascii	"@\273j\034\234\252\336\216\251\233&\011\365XX\235^\033"
 573      9CAADE8E 
 573      A99B2609 
 573      F558589D 
 573      5E1B
 574 0c53 AAB61D78 		.ascii	"\252\266\035x\226jC\035\2276\254\3377\225kH4\317\255"
 574      966A431D 
 574      9736ACDF 
 574      37956B48 
 574      34CFAD
ARM GAS  /tmp/cc8rfvLe.s 			page 45


 575 0c66 165F88C5 		.ascii	"\026_\210\305\177\230N\212\257\327\027\277\345\334\245"
 575      7F984E8A 
 575      AFD717BF 
 575      E5DCA5
 576 0c75 1769F1F5 		.ascii	"\027i\361\365\\\305\237\256\235l\244\214&\243V\265\372"
 576      5CC59FAE 
 576      9D6CA48C 
 576      26A356B5 
 576      FA
 577 0c86 B65D7F66 		.ascii	"\266]\177f.\026\362-*\320\225t}\365\275\304\316\333"
 577      2E16F22D 
 577      2AD09574 
 577      7DF5BDC4 
 577      CEDB
 578 0c98 0BCA6A3E 		.ascii	"\013\312j>\243\277?\306\251o\222\376\002\233\333_\372"
 578      A3BF3FC6 
 578      A96F92FE 
 578      029BDB5F 
 578      FA
 579 0ca9 186B4AA5 		.ascii	"\030kJ\245\341\216mD\255\022\337\250\305\026A\301\036"
 579      E18E6D44 
 579      AD12DFA8 
 579      C51641C1 
 579      1E
 580 0cba F0805958 		.ascii	"\360\200YX\366\037X\260a\315\355\202i)\273\305\202\215"
 580      F61F58B0 
 580      61CDED82 
 580      6929BBC5 
 580      828D
 581 0ccc E201B3D8 		.ascii	"\342\001\263\330ay\233\005\033c\033LK\331]\026\354\003"
 581      61799B05 
 581      1B631B4C 
 581      4BD95D16 
 581      EC03
 582 0cde 1E308B1D 		.ascii	"\0360\213\035\226\367Y\260\011\266\301\264\224=d\301"
 582      96F759B0 
 582      09B6C1B4 
 582      943D64C1 
 583 0cee A6F080F9 		.ascii	"\246\360\200\371\315)\033\177\220\001\233n\033LK\331"
 583      CD291B7F 
 583      90019B6E 
 583      1B4C4BD9 
 584 0cfe 44166C36 		.ascii	"D\026l6\017\230\305\\\364d\026l\276m0-e\177g\301\026"
 584      0F98C55C 
 584      F464166C 
 584      BE6D302D 
 584      657F67C1 
 585 0d13 F28019ED 		.ascii	"\362\200\031\355sT7\337\262`\037\333\006\323R6\203\005"
 585      735437DF 
 585      B2601FDB 
 585      06D35236 
 585      8305
 586 0d25 FB9407EC 		.ascii	"\373\224\007\354\005s\312f\261`U\266\301\264\224\255"
 586      0573CA66 
 586      B16055B6 
 586      C1B494AD 
 587 0d35 64C1D6F2 		.ascii	"d\301\326\362\200\275lN\331*\026l\203m0-ekX\260M<`="
ARM GAS  /tmp/cc8rfvLe.s 			page 46


 587      80BD6C4E 
 587      D92A166C 
 587      836D302D 
 587      656B58B0 
 588 0d4d CC295BC7 		.ascii	"\314)[\307\202m\265\015\246\245l\003\013\266\235\007"
 588      826DB50D 
 588      A6A56C03 
 588      0BB69D07 
 589 0d5d ACAF3965 		.ascii	"\254\2579e\033Y\260\235\266\301\264\224mf\301jx\300"
 589      1B59B09D 
 589      B6C1B494 
 589      6D66C16A 
 589      78C0
 590 0d6f 5E33A76C 		.ascii	"^3\247l+\013\266\3176\230\226\262\375,X-\017\330\033"
 590      2B0BB6CF 
 590      369896B2 
 590      FD2C582D 
 590      0FD81B
 591 0d82 0694C53F 		.ascii	"\006\224\305?f~\346i\007\343\253\037l\256:86\373h!\201"
 591      667EE669 
 591      07E3AB1F 
 591      6CAE3A38 
 591      36FB6821 
 592 0d97 71A4B95D 		.ascii	"q\244\271]\217L\3037\361\255\333mT\372y\352\254\236"
 592      8F4CC337 
 592      F1ADDB6D 
 592      54FA79EA 
 592      AC9E
 593 0da9 E441B4E8 		.ascii	"\344A\264\350\000\225\215\374\024\354[\333`:U\256\321"
 593      00958DFC 
 593      14EC5BDB 
 593      603A55AE 
 593      D1
 594 0dba 0F47B836 		.ascii	"\017G\2706\371,\341\334\354lVMs\235L5]\341\341\301\242"
 594      F92CE1DC 
 594      EC6C564D 
 594      739D4C35 
 594      5DE1E1C1 
 595 0dcf DF3D5D33 		.ascii	"\337=]3\013W\320\370w\231Um<\240x\357\037\341\242\324"
 595      0B57D0F8 
 595      7799556D 
 595      3CA078EF 
 595      1FE1A2D4 
 596 0de3 CDE67AF7 		.ascii	"\315\346z\367o\206\336{O\261\241I\022\356\353\2710Z"
 596      6F86DE7B 
 596      4FB1A149 
 596      12EEEBB9 
 596      305A
 597 0df5 5732EFF0 		.ascii	"W2\357\360AQ\216\267\257^.\313#\334v\370\330\243\360"
 597      41518EB7 
 597      AF5E2ECB 
 597      23DC76F8 
 597      D8A3F0
 598 0e08 B104F918 		.ascii	"\261\004\371\030\331\342\247\363\361~\013\273|<\243"
 598      D9E2A7F3 
 598      F17E0BBB 
 598      7C3CA3
ARM GAS  /tmp/cc8rfvLe.s 			page 47


 599 0e17 E363FB33 		.ascii	"\343c\3733\366\3718\256\360\361)\3621\371_\300\307,"
 599      F6F938AE 
 599      F0F129F2 
 599      31F95FC0 
 599      C72C
 600 0e29 DB7CB06F 		.ascii	"\333|\260oL\341P\252\003\035Jq\315x\257r\352f\274\217"
 600      4CE150AA 
 600      031D4A71 
 600      CD78AF72 
 600      EA66BC8F 
 601 0e3d EF15FD34 		.ascii	"\357\025\37549\325\030F\2165\354e\306\2372\337\370\363"
 601      39D51846 
 601      8E35EC65 
 601      C69F32DF 
 601      F8F3
 602 0e4f BA22B1B5 		.ascii	"\272\"\261\265(\261\217t\022\343Gj\250\333Y\245ld\335"
 602      28B18F74 
 602      12E3476A 
 602      A8DB59A5 
 602      6C64DD
 603 0e62 80501F37 		.ascii	"\200P\0377\031j\365\351\365t\363\346&\004\252J\252E"
 603      196AF5E9 
 603      F574F3E6 
 603      2604AA4A 
 603      AA45
 604 0e74 B7AE12DD 		.ascii	"\267\256\022\335\332J\204[R\322m2\034\026\377\246\244"
 604      DA4A845B 
 604      52D26D32 
 604      1C16FFA6 
 604      A4
 605 0e85 901B8FF0 		.ascii	"\220\033\217\360\377=\037\270\034H>\251@\233\275GB\201"
 605      FF3D1FB8 
 605      1C483EA9 
 605      409BBD47 
 605      4281
 606 0e97 7E5BAD58 		.ascii	"~[\255X~ZI;~\022\342\360\330\352\367f+\353\"/a\227\374"
 606      7E5A493B 
 606      7E12E2F0 
 606      D8EAF766 
 606      2BEB222F 
 607 0eae 13E10EEC 		.ascii	"\023\341\016\354\263?\353\261\275-\325\272\235\310\320"
 607      B33FEBB1 
 607      BD2DD5BA 
 607      9DC8D0
 608 0ebd C1A41A6E 		.ascii	"\301\244\032n\322\254\307\251\2462\022\377H\302y}s\267"
 608      D2ACC7A9 
 608      A63212FF 
 608      48C2797D 
 608      73B7
 609 0ecf 354422B5 		.ascii	"5D\"\265u\247\003\347\314I|>\356R\233\335t>\316I\346"
 609      75A703E7 
 609      CC497C3E 
 609      EE529BDD 
 609      743ECE49 
 610 0ee4 E32EE984 		.ascii	"\343.\351\204\3011\003s\233\022\355L\232\217;\360\204"
 610      C1310373 
 610      9B12ED4C 
ARM GAS  /tmp/cc8rfvLe.s 			page 48


 610      9A8F3BF0 
 610      84
 611 0ef5 321FE7E4 		.ascii	"2\037\347\344\232\201\251T\365\202N\263\035tH\012lS"
 611      9A81A954 
 611      F5824EB3 
 611      1D74480A 
 611      6C53
 612 0f07 E5A9A9C2 		.ascii	"\345\251\251\302\004}A\261\326I:\376\375N\315D\354;"
 612      047D41B1 
 612      D6493AFE 
 612      FD4ECD44 
 612      EC3B
 613 0f19 2DEDCADE 		.ascii	"-\355\312\336\317\312>vo\337,\221\320o0i\3642\353b\305"
 613      CFCA3E76 
 613      6FDF2C91 
 613      D06F3069 
 613      F432EB62 
 614 0f2e 057FE689 		.ascii	"\005\177\346\211=(\236C(\370\211-m\356]\225\204\017"
 614      3D289E43 
 614      28F8892D 
 614      6DEE5D95 
 614      840F
 615 0f40 31CB9164 		.ascii	"1\313\221d\301\357iK\005\177\204K\360_\033\012\376\210"
 615      C1EF694B 
 615      057F844B 
 615      F05F1B0A 
 615      FE88
 616 0f52 7DC13FA5 		.ascii	"}\301?\245\276\262\034w\355\202\342a\333`~\253Z<\302"
 616      BEB21C77 
 616      ED82E261 
 616      DB607EAB 
 616      5A3CC2
 617 0f65 D4E231AC 		.ascii	"\324\3421\254\305\343N2\005~B[\227\253\365u\251\221"
 617      C5E34E32 
 617      057E425B 
 617      97ABF575 
 617      A991
 618 0f77 9C72693A 		.ascii	"\234ri:\240\227c\223\276R\327n\251\315\333\312\243\033"
 618      A0976393 
 618      BE52D76E 
 618      A9CDDBCA 
 618      A31B
 619 0f89 16C3F039 		.ascii	"\026\303\3609_\241H\250\275\331i\033\314\257\001\333"
 619      5FA148A8 
 619      BDD9691B 
 619      CCAF01DB 
 620 0f99 329673BB 		.ascii	"2\226s\273\230\356="
 620      98EE3D
 621 0fa0 B15A2CF7 		.ascii	"\261Z,\367\254^]\352\036\036\030-\016\303\256\363,\207"
 621      AC5E5DEA 
 621      1E1E182D 
 621      0EC3AEF3 
 621      2C87
 622 0fb2 BE403F7F 		.ascii	"\276@?\177\336\207{\236\251\336\216i\245\242Z\210\332"
 622      DE877B9E 
 622      A9DE8E69 
 622      A5A25A88 
ARM GAS  /tmp/cc8rfvLe.s 			page 49


 622      DA
 623 0fc3 425BEE5D 		.ascii	"B[\356]R\266P\323\241\300\004=\\\312\221\212\026\356"
 623      52B650D3 
 623      A1C0043D 
 623      5CCA918A 
 623      16EE
 624 0fd5 616877C7 		.ascii	"ahw\307\246\274\207\027\253\253&\236\316e\344iz+}\217"
 624      A6BC8717 
 624      ABAB269E 
 624      CE65E469 
 624      7A2B7D8F 
 625 0fe9 4025C328 		.ascii	"@%\303(\342YF\021\277EE<\217\212x\001\343K\254:\232"
 625      E2594611 
 625      BF45453C 
 625      8F8A7801 
 625      E34BAC3A 
 626 0ffe 395B     		.ascii	"9["
 627 1000 DFB1C387 		.ascii	"\337\261\303\207\371\266\371\366\353j\307\254\2303l"
 627      F9B6F9F6 
 627      EB6AC7AC 
 627      98336C
 628 100f 314B5A71 		.ascii	"1KZq\350\236\371\254\0151\352\177R\335\001\272f\260"
 628      E89EF9AC 
 628      0D31EA7F 
 628      52DD01BA 
 628      66B0
 629 1021 CA36A256 		.ascii	"\3126\242V\233\257\217\325\270\003[x\340^6 \320\350"
 629      9BAF8FD5 
 629      B8035B78 
 629      E05E3620 
 629      D0E8
 630 1033 C3AE1281 		.ascii	"\303\256\022\201\325\307\005\271\375\270dv\010\343\257"
 630      D5C705B9 
 630      FDB86476 
 630      08E3AF
 631 1042 313E81F1 		.ascii	"1>\201\361\014\254\270Y\030\317\301\370C\214\027c\274"
 631      0CACB859 
 631      18CFC1F8 
 631      438C1763 
 631      BC
 632 1053 0CE32A8C 		.ascii	"\014\343*\214\367`|\020\343\223\030\237\302\270\036"
 632      F7607C10 
 632      E393189F 
 632      C2B81E
 633 1062 E36B18DF 		.ascii	"\343k\030\337H\245\000J/0s\321\211v\313\320V\357\241"
 633      48A5004A 
 633      2F3073D1 
 633      8976CBD0 
 633      56EFA1
 634 1075 33DE499A 		.ascii	"3\336I\232w\300\241\233\303OZ\204\032\377\010\307b\236"
 634      77C0A19B 
 634      C34F5A84 
 634      1AFF08C7 
 634      629E
 635 1087 C572CBF4 		.ascii	"\305r\313\364[\027\337\3362\234\326\351eT\353sN\335"
 635      5B17DFDE 
 635      329CD6E9 
ARM GAS  /tmp/cc8rfvLe.s 			page 50


 635      6554EB73 
 635      4EDD
 636 1099 EEC2D4FB 		.ascii	"\356\302\324\373\206\265\225\372\315\034\363W25\253"
 636      86B595FA 
 636      CD1CF357 
 636      3235AB
 637 10a8 29F18D61 		.ascii	")\361\215a\277L\310\344\364\322\023\377\207n0\273\213"
 637      BF4CC8E4 
 637      F4D213FF 
 637      876E30BB 
 637      8B
 638 10b9 ADF1D023 		.ascii	"\255\361\320#\251\227\01058DJ\017tf.v\375\024}Y3\265"
 638      A9970835 
 638      38444A0F 
 638      74662E76 
 638      FD147D59 
 639 10cf 891B3922 		.ascii	"\211\0339\"\366\343\251\311\212R\322\345\376\323H\302"
 639      F6E3A9C9 
 639      8A52D2E5 
 639      FED348C2 
 640 10df 83A67589 		.ascii	"\203\246u\211d\357\300)f\357\3009\333`~\015\330m\026"
 640      64EFC029 
 640      66EFC039 
 640      DB607E0D 
 640      D86D16
 641 10f2 EC020F98 		.ascii	"\354\002\017\230\305\316\260\273,\330w\266\301\264\224"
 641      C5CEB0BB 
 641      2CD877B6 
 641      C1B494
 642 1101 DD67C1AE 		.ascii	"\335g\301\256\362\200Y\354\014{\310\202\335\264\015"
 642      F28059EC 
 642      0C7BC882 
 642      DDB40D
 643 1110 A6A56CFC 		.ascii	"\246\245l\374i\006\354.\017\230\305\206\227\211,\330"
 643      6906EC2E 
 643      0F98C586 
 643      97892CD8 
 644 1120 B0D676C1 		.ascii	"\260\326v\301\264\224Mf\301\306\360\200\371\015(3\372"
 644      B4944D66 
 644      C1C6F080 
 644      F90D2833 
 644      FA
 645 1131 B08D2028 		.ascii	"\260\215 (>\304N\252\021\255\3230\027\211G`<\012\343"
 645      3EC44EAA 
 645      11ADD330 
 645      17894760 
 645      3C0AE3
 646 1144 D1188FC1 		.ascii	"\321\030\217\301\370=\214?\300x\234\213\243#\273\303"
 646      F83D8C3F 
 646      C0789C8B 
 646      A323BBC3 
 647 1154 F630E35A 		.ascii	"\3660\343ZsX#\213\031\244\351\267\366\377\357\237\262"
 647      7358238B 
 647      19A4E9B7 
 647      F6FFEF9F 
 647      B2
 648 1165 33B9FEE8 		.ascii	"3\271\376\350\252\275\177!\346#\365\356\344).\276\335"
ARM GAS  /tmp/cc8rfvLe.s 			page 51


 648      AABD7F21 
 648      E623F5EE 
 648      E4292EBE 
 648      DD
 649 1176 C9535DFA 		.ascii	"\311S]\372\255\361_\241-!\351\251\335\353\006Nw-&\262"
 649      ADF15FA1 
 649      2D21E9A9 
 649      DDEB064E 
 649      772D26B2 
 650 118a D289DBC2 		.ascii	"\322\211\333\302\275/R[8\323El\341\211\326)m\241\026"
 650      BD2F525B 
 650      38D3456C 
 650      E189D629 
 650      6DA116
 651 119d 87D03747 		.ascii	"\207\3207GO\377\352Z\244\177Nj\372\311f\333Z\255-\274"
 651      4FFFEA5A 
 651      A47F4E6A 
 651      FAC966DB 
 651      5AAD2DBC 
 652 11b1 8A2490BC 		.ascii	"\212$\220\274M\263\205\033j\031\205\277f\033\314\257"
 652      4DB3851B 
 652      6A1985BF 
 652      661BCCAF 
 653 11c1 01DBC882 		.ascii	"\001\333\310\202\375\310\003f\265K\226\005\273c\033"
 653      FDC80366 
 653      B54B9605 
 653      BB631B
 654 11d0 4C4BD956 		.ascii	"LK\331V\026\354!\017\230\325.Y\026l\304\243v\301\374"
 654      16EC210F 
 654      98D52E59 
 654      166CC4A3 
 654      76C1FC
 655 11e3 46D52B24 		.ascii	"F\325+$iGP\234\353\"Fb\0366\375\0171^\200\361\"\214"
 655      6947509C 
 655      EB224662 
 655      1E36FD0F 
 655      315E80F1 
 656 11f9 9760BC94 		.ascii	"\227`\274\224\307$\314p1&a4\022<\265i\032\003&\341\350"
 656      C724CC70 
 656      31266134 
 656      123CB569 
 656      1A0326E1 
 657 120e AAB37FDE 		.ascii	"\252\263\177\336\230l\022\250<\314(X\316R0\3266\005"
 657      986C12A8 
 657      3CCC2858 
 657      CE5230D6 
 657      3605
 658 1220 7E9682D8 		.ascii	"~\226\202\330\275\257\350\344\274\372j\370$=\236\321"
 658      BDAFE8E4 
 658      BCFA6AF8 
 658      243D9ED1 
 659 1230 B4ACD528 		.ascii	"\264\254\325(\345+<\325\213\202\315\260\015\246=\011"
 659      E52B3CD5 
 659      8B82CDB0 
 659      0DA63D09 
 660 1240 6D7C2D03 		.ascii	"m|-\003\266\3006\230\331\376\265i\250\013\323\261\316"
 660      B6C03698 
ARM GAS  /tmp/cc8rfvLe.s 			page 52


 660      D9FEB569 
 660      A80BD3B1 
 660      CE
 661 1251 3FC57825 		.ascii	"?\305x%\306\2530^\303j\201$|\362\250\336o\245\306\221"
 661      C6AB305E 
 661      C36A8124 
 661      7CF2A8DE 
 661      6FA5C691 
 662 1265 414D5851 		.ascii	"AMXQ\201\027\327\254n'\261u\273\365Q\216\016\307o\256"
 662      8117D7AC 
 662      6E27B175 
 662      BBF5518E 
 662      0EC76FAE 
 663 1279 5DD36F5D 		.ascii	"]\323o]S:\034\012\014\003t\333\210Zm\231rz\216f\347"
 663      533A1C0A 
 663      0C0374DB 
 663      885A6D99 
 663      727A8E66 
 664 128e F75E1E3C 		.ascii	"\367^\036<\213\355\005\263\250\213@\301\016\333\006"
 664      8BED05B3 
 664      A88B40C1 
 664      0EDB06
 665 129d F30BA61F 		.ascii	"\363\013\246\037\366\265\257\240x\025\337\224\370'\276"
 665      F6B5AFA0 
 665      7815DF94 
 665      F827BE
 666 12ac 3CFB10E3 		.ascii	"<\373\020\343\33584j@\247\3416\306\023\261\2266`\274"
 666      DD38346A 
 666      40A7E136 
 666      C613B196 
 666      3660BC
 667 12bf 11E3CD3C 		.ascii	"\021\343\315<5v\221\335}x\012Y8\337\324\327\244\353"
 667      357691DD 
 667      7D780A59 
 667      38DFD4D7 
 667      A4EB
 668 12d1 1B0E1D9D 		.ascii	"\033\016\035\235/N\242\007\2365\342K\355\347l#jk\354"
 668      2F4EA207 
 668      9E35E24B 
 668      EDE76C23 
 668      6A6BEC
 669 12e4 169DB2A2 		.ascii	"\026\235\262\242`\227x\300\214\0327#V*\320\177\240@"
 669      609778C0 
 669      8C1A3723 
 669      562AD07F 
 669      A040
 670 12f6 2FA028B7 		.ascii	"/\240(\267\241\260\266k\233\315\367I\315\206\2761\310"
 670      A1B0B66B 
 670      9BCDF749 
 670      CD86BE31 
 670      C8
 671 1307 20255E2D 		.ascii	" %^-\024\254\260\314\004\177&!\370\240X\203\223qv\336"
 671      14ACB0CC 
 671      047F2621 
 671      F8A05883 
 671      937176DE 
 672 131b B9D48AA9 		.ascii	"\271\324\212\251\261F5\203\364\364\231;H~\212\267d\371"
ARM GAS  /tmp/cc8rfvLe.s 			page 53


 672      B1463583 
 672      F4F4993B 
 672      487E8AB7 
 672      64F9
 673 132d 4FE16A60 		.ascii	"O\341j`N\341\272\215k\263w\350\231[\310\3641\214Ob|"
 673      4EE1BA8D 
 673      6BB377E8 
 673      995BC8F4 
 673      318C4F62 
 674 1342 0AE37A8C 		.ascii	"\012\343z\214w\362\210\341&\373\232\367\230\307\010"
 674      77F288E1 
 674      26FB9AF7 
 674      98C708
 675 1351 D9DF37F9 		.ascii	"\331\3377\3715\357\007\007\027>\203GWP\275\206\356\305"
 675      35EF0707 
 675      173E8347 
 675      5750BD86 
 675      EEC5
 676 1363 36A056AE 		.ascii	"6\240V\256\323\257\357\246s`\344\250/\350]x\340,z\227"
 676      D3AFEFA6 
 676      7360E4A8 
 676      2FE85D78 
 676      E02C7A97 
 677 1377 999736D0 		.ascii	"\231\2276\320c;i-\315\324\303\245\354\022\264\324\315"
 677      633B692D 
 677      CDD4C3A5 
 677      EC12B4D4 
 677      CD
 678 1388 FA8F691D 		.ascii	"\372\217i\035U\254\005\266\261\236\261\252\361\357\231"
 678      55AC05B6 
 678      B19EB1AA 
 678      F1EF99
 679 1397 1ABF8E35 		.ascii	"\032\277\2165~\003k\274\006\025|\017\306\3730\376\222"
 679      7E036BBC 
 679      06157C0F 
 679      C6FB30FE 
 679      92
 680 13a8 A7962FFF 		.ascii	"\247\226/\377\304\263\270\252\317\035\\#Rw{?\272\333"
 680      C4B3B8AA 
 680      CF1D5C23 
 680      52777B3F 
 680      BADB
 681 13ba 1B1F4BE9 		.ascii	"\033\037K\351n\353gYk0\313!\275\313}\363\015?M\345\030"
 681      6EEB6759 
 681      6B30CB21 
 681      BDCB7DF3 
 681      0D3F4DE5 
 682 13cf 30FCA068 		.ascii	"0\374\240h\303e\324\206\203q\300&ik\354\316\025F\271"
 682      C365D486 
 682      8371C026 
 682      696BECCE 
 682      1546B9
 683 13e2 82E25E97 		.ascii	"\202\342^\227d\023N\253\015\367.\356N:\307Js\030[R\255"
 683      64134EAB 
 683      0DF72EEE 
 683      4E3AC74A 
 683      73185B52 
ARM GAS  /tmp/cc8rfvLe.s 			page 54


 684 13f7 9C607BEB 		.ascii	"\234`{\353#<\334X\350\366\203o5\272}J\017gS\267'\374"
 684      233CDC58 
 684      E8F6836F 
 684      35BA7D4A 
 684      0F6753B7 
 685 140d 1813E577 		.ascii	"\030\023\345w\323\325\335\377\227\365p)w\377w\264R\357"
 685      D3D5DDFF 
 685      97F57029 
 685      77FF77B4 
 685      52EF
 686 141f 438C6BFD 		.ascii	"C\214k\3755\272SGP\231\217a|\034\343\223\030\237\342"
 686      35BA5347 
 686      50998F61 
 686      7C1CE393 
 686      189FE2
 687 1432 51EFDA84 		.ascii	"Q\357\332\204 \333\013s\344\330\265\372\257/|\327\346"
 687      20DB0B73 
 687      E4D8B5FA 
 687      AF2F7CD7 
 687      E6
 688 1443 13E2BBC8 		.ascii	"\023\342\273\310\017\033\3776l\270\250{\351\325iq\312"
 688      0F1BFF36 
 688      6CB8A87B 
 688      E9D56971 
 688      CA
 689 1454 A24BF3D2 		.ascii	"\242K\363\322\253\341X;\325\332\341\354\3137\236\240"
 689      ABE1583B 
 689      D5DAE1EC 
 689      CB379EA0 
 690 1464 ADE55B6C 		.ascii	"\255\345[l-\247~f\274\204e\271\345\340\202\276\245\254"
 690      2DA77E66 
 690      BC8465B9 
 690      E5E082BE 
 690      A5AC
 691 1476 A5AFCE5F 		.ascii	"\245\257\316_\340j+\325\273\226q\237\375\246k\2507\177"
 691      E06A2BD5 
 691      BB96719F 
 691      FDA66BA8 
 691      377F
 692 1488 667CF69B 		.ascii	"f|\366\233\3461p\220\260\275\\\325S9\251\022\251\274"
 692      E6317090 
 692      B0BD5CD5 
 692      5339A912 
 692      A9BC
 693 149a CA45E594 		.ascii	"\312E\345\224])\316~\343_\274^\177\343\354\237V\340"
 693      5D29CE7E 
 693      E35FBC5E 
 693      7FE3EC9F 
 693      56E0
 694 14ac 84F10D17 		.ascii	"\204\361\015\027\256L\375\\\357A\270tk\327.\355\332"
 694      AE4CFD5C 
 694      EF41B874 
 694      6BD72EED 
 694      DA
 695 14bd B5CB97B8 		.ascii	"\265\313\227\270P\326\256\315\252\346\272\313\342\204"
 695      50D6AECD 
 695      AAE6BACB 
ARM GAS  /tmp/cc8rfvLe.s 			page 55


 695      E284
 696 14cb 25E590A3 		.ascii	"%\345\220\243\370\375\015Z.\327\3410\327\\\214S\362"
 696      F8FD0D5A 
 696      2ED7E130 
 696      D75C8C53 
 696      F2
 697 14dc 89A40AB8 		.ascii	"\211\244\012\270i\275\361\354\313\007\333\2403h\365"
 697      69BDF1EC 
 697      CB07DBA0 
 697      3368F5
 698 14eb FA37A1CE 		.ascii	"\3727\241\316\214\232\273VlN\377\011l\336a\331\234o"
 698      8C9ABB56 
 698      6C4EFF09 
 698      6CDE61D9 
 698      9C6F
 699 14fd 9B4D3FCB 		.ascii	"\233M?\313f\352s\227\326Z\264v\331m\301\342\014\033"
 699      66EA7397 
 699      D65AB476 
 699      D96DC1E2 
 699      0C1B
 700 150f E75235B2 		.ascii	"\347R5\262\266\374s\324\275\024,\245:L\257\251,U\032"
 700      B6FC73D4 
 700      BD142CA5 
 700      3A4CAFA9 
 700      2C551A
 701 1522 B0C4C5C2 		.ascii	"\260\304\305\302(\267n\375d\217m6\374\202\366\223\360"
 701      28B76EFD 
 701      648F6D36 
 701      FC82F693 
 701      F0
 702 1533 CFBF476B 		.ascii	"\317\277Gk~\033\343\207\030\217t\363,\005\262\232\262"
 702      7E1BE387 
 702      188F74F3 
 702      2C05B29A 
 702      B2
 703 1544 1535E582 		.ascii	"\0255\345\202\375\006a\364a\015,\270\253\330\011]\342"
 703      FD0661F4 
 703      610D2CB8 
 703      ABD8095D 
 703      E2
 704 1555 E96CCE25 		.ascii	"\351l\316%H\212\213\230\331\360HE\367\245\316\372\374"
 704      488A8B98 
 704      D9F04845 
 704      F7A5CEFA 
 704      FC
 705 1566 52F84896 		.ascii	"R\370H\226'b\267\364\035\251]\012\003\275>>W\357joX"
 705      2762B7F4 
 705      1DA95D0A 
 705      03BD3E3E 
 705      57EF6A6F 
 706 157b 9C5218CD 		.ascii	"\234R\030\315,O\205\261\230H\313\222\204\023)2*\024"
 706      2C4F85B1 
 706      9848CB92 
 706      84132932 
 706      2A14
 707 158d FD5A5848 		.ascii	"\375ZXH\364\346\350\267}{(\207y\230gR\370{\327-\261"
 707      F4E6E8B7 
ARM GAS  /tmp/cc8rfvLe.s 			page 56


 707      7D7B2887 
 707      79986752 
 707      F87BD72D 
 708 15a2 BC60875A 		.ascii	"\274`\207Z_\377\340\326\331Jq\302\210\341\273\345k\304"
 708      5FFFE0D6 
 708      D94A71C2 
 708      88E1BBE5 
 708      6BC4
 709 15b4 34261B69 		.ascii	"4&\033i\231\353 \301\272e\277\301-d\023\335\304F_\321"
 709      99EB20C1 
 709      BA65BFC1 
 709      2D6413DD 
 709      C4465FD1 
 710 15c8 49891F68 		.ascii	"I\211\037h\365\351\331\031\364PE\004\272\231d\354\005"
 710      F5E9D919 
 710      F4504504 
 710      BA9964EC 
 710      05
 711 15d9 9DB117B4 		.ascii	"\235\261\027\264\306\036n\345F\345C\367\206A\312\337"
 711      C61E6EE5 
 711      46E543F7 
 711      8641CADF 
 712 15e9 8426E531 		.ascii	"\204&\3451S\224\011\356\224\236\204f\251.\336\277>&"
 712      539409EE 
 712      949E8466 
 712      A92EDEBF 
 712      3E26
 713 15fb 308EF7DD 		.ascii	"0\216\367\335Q\212\343=\303M\\\211\373?O\351xk\201$"
 713      518AE33D 
 713      C34D5C89 
 713      FB3F4FE9 
 713      786B8124 
 714 160f A1F27192 		.ascii	"\241\362q\222e\266[\327Q\317\015\372ij\352nz\365\035"
 714      65B65BD7 
 714      51CF0DFA 
 714      696AEA6E 
 714      7AF51D
 715 1622 C6198441 		.ascii	"\306\031\204A\010\236\372J\262Z8\203\232F\244\205[{"
 715      089EFA4A 
 715      B25A3883 
 715      9A46A485 
 715      5B7B
 716 1634 5571BC4F 		.ascii	"Uq\274O`\033\030\033\247\257i\216\367\372O\225\215\022"
 716      601B181B 
 716      A7AF698E 
 716      F7FA4F95 
 716      8D12
 717 1646 B5083789 		.ascii	"\265\0107\211\007\316\302\221\256\276\224\354\307\033"
 717      07CEC291 
 717      AEBE94EC 
 717      C71B
 718 1654 49F96915 		.ascii	"I\371i\025k\001\343\205TW~A\017\375]\214\2655\343\361"
 718      6B01E385 
 718      54577E41 
 718      0FFD5D8C 
 718      B535E3F1 
 719 1668 D4B5A5C5 		.ascii	"\324\265\245\305!\225\261T_U\207\350\251\277K\271*\353"
ARM GAS  /tmp/cc8rfvLe.s 			page 57


 719      2195B154 
 719      5F5587E8 
 719      A9BF4BB9 
 719      2AEB
 720 167a 30DD404E 		.ascii	"0\335@NG\314s\220\200\2456d\253\005;Z\363\031\255\371"
 720      47CC7390 
 720      80A53664 
 720      AB053B5A 
 720      F319ADF9 
 721 168e 9D62A2E6 		.ascii	"\235b\242\346\227\332\250ymU\035\253a\376\264a\276\236"
 721      97DAA879 
 721      6D551DAB 
 721      61FEB461 
 721      BE9E
 722 16a0 B69447F5 		.ascii	"\266\224G\365h\376\364 v\202\005[d\033\354\005\015\330"
 722      68FEF420 
 722      7682055B 
 722      641BEC05 
 722      0DD8
 723 16b2 37A3DF57 		.ascii	"7\243\337W\246&\351q\360Ky\004g\241E\247\022g\313\007"
 723      A626E971 
 723      F04B7904 
 723      67A145A7 
 723      1267CB07 
 724 16c6 C5C37AB1 		.ascii	"\305\303z\261\361v\244\012\3305\366\240\372\025<\224"
 724      F176A40A 
 724      D835F6A0 
 724      FA153C94 
 725 16d6 59BC6070 		.ascii	"Y\274`p\203\005[g\033LK\331\017,\330f\0360\213\235\376"
 725      83055B67 
 725      1B4C4BD9 
 725      0F2CD866 
 725      1E308B9D 
 726 16eb B759B01D 		.ascii	"\267Y\260\035\266\301\264\224\335Mz\365As\"\177\222"
 726      B6C1B494 
 726      DD4D7AF5 
 726      4173227F 
 726      92
 727 16fc B5DEE666 		.ascii	"\265\336\346f\034\270}<\205\373\3158\221c\263\367\246"
 727      1CB87D3C 
 727      85FBCD38 
 727      9163B3F7 
 727      A6
 728 170d E1589C1C 		.ascii	"\341X\234\034\362/\011\207\364hr\034NN1qn\364a\015\004"
 728      F22F0987 
 728      F468721C 
 728      4E4E3171 
 728      6EF4610D 
 729 1722 986437F1 		.ascii	"\230d7\361\\\226\271\211K\265\034\343\025\030Wa\274"
 729      5C96B989 
 729      4BB51CE3 
 729      15185761 
 729      BC
 730 1733 1AE3B518 		.ascii	"\032\343\265\030\257\303x\003\306\0331\336\214\361V"
 730      AFC37803 
 730      C61B31DE 
 730      8CF156
ARM GAS  /tmp/cc8rfvLe.s 			page 58


 731 1742 8CB7F3B8 		.ascii	"\214\267\363\270c\213X!\035\265mh55\004}\333w\347\325"
 731      638B5821 
 731      1DB56D68 
 731      3535047D 
 731      DB77E7D5 
 732 1756 BFE7A053 		.ascii	"\277\347\240S\370'y\020\215T\333XL\263\0311\315E1\315"
 732      F8277910 
 732      8D54DB58 
 732      4CB31931 
 732      CD4531CD 
 733 176a 4356E763 		.ascii	"CV\347c\374\021\306\0131\336\311\303\374tw\262\343\247"
 733      FC11C60B 
 733      31DEC9C3 
 733      FC7477B2 
 733      E3A7
 734 177c 08247EAF 		.ascii	"\010$~\257L\351h\374mI\370V\327\015(\336 \370T\377 "
 734      4CE968FC 
 734      6D49F856 
 734      D70D28DE 
 734      20F854FF 
 735 1791 D3F53D28 		.ascii	"\323\365=(\266$\334\302\347\306\273\315\234:\244@\361"
 735      B624DCC2 
 735      E7C6BBCD 
 735      9C3AA440 
 735      F1
 736 17a2 061F847A 		.ascii	"\006\037\204z\320\342\203\342gn\3112\333\"&\333Z\352"
 736      D0E283E2 
 736      676EC932 
 736      DB2226DB 
 736      5AEA
 737 17b4 44D29EF7 		.ascii	"D\322\236\367n\212\362\024n\320\211\034/W\235\354\333"
 737      6E8AF214 
 737      6ED0891C 
 737      2F579DEC 
 737      DB
 738 17c5 867A6E82 		.ascii	"\206zn\2026\227\356\3549\374y"
 738      3697EEEC 
 738      39FC79
 739 17d0 B7911719 		.ascii	"\267\221\027\031;\274\353}\357\370a\365\215\215\355"
 739      3BBCEB7D 
 739      EFF861F5 
 739      8D8DED
 740 17df 75031A82 		.ascii	"u\003\032\202j&\367\375\372\001\315tw\232^\302r\033"
 740      6A26F7FD 
 740      FA01CD74 
 740      779A5EC2 
 740      721B
 741 17f1 2309CB13 		.ascii	"#\011\313\023B=\324\307\367\242\220j\255ek\302k\255"
 741      423DD4C7 
 741      F7A2906A 
 741      AD656BC2 
 741      6BAD
 742 1803 35AF0793 		.ascii	"5\257\007\223y\235W\037\333ZH}e\033\234\036\321sJ<\032"
 742      799D571F 
 742      DB5A487D 
 742      651B9C1E 
 742      D1734A3C 
ARM GAS  /tmp/cc8rfvLe.s 			page 59


 743 1818 BD6EC5EF 		.ascii	"\275n\305\357\225I]N\3672\346QK\033*\304\335\225\343"
 743      95495D4E 
 743      F732E651 
 743      4B1B2AC4 
 743      DD95E3
 744 182b 1F1E6A47 		.ascii	"\037\036jGw\374\237D\177e\257N\214)q\202\342)\224\353"
 744      77FC9F44 
 744      7F65AF4E 
 744      8C297182 
 744      E22994EB 
 745 183f 69BDCB72 		.ascii	"i\275\313r\207\376\005\300i.\227\345A\315\202\246\376"
 745      87FE05C0 
 745      692E97E5 
 745      41CD82A6 
 745      FE
 746 1850 51C1D136 		.ascii	"Q\301\3216\\\177T\360-Ry>\311\261\242T\236\347\242\362"
 746      5C7F54F0 
 746      2D52793E 
 746      C9B1A254 
 746      9EE7A2F2 
 747 1864 EB1AC5CF 		.ascii	"\353\032\305\317$\2634\352\364\314\371\246\272V\352"
 747      24B334EA 
 747      F4CCF9A6 
 747      BA56EA
 748 1873 A19F7710 		.ascii	"\241\237w\020l\276m0\277\021X#\202\215ps\200\245>\313"
 748      6CBE6D30 
 748      BF115823 
 748      828D7073 
 748      80A53ECB 
 749 1887 9FCE07BC 		.ascii	"\237\316\007\274c\033\314\200\262\246\316e\\\345\230"
 749      631BCC80 
 749      B2A6CE65 
 749      5CE598
 750 1896 9EB17DB6 		.ascii	"\236\261}\266\377\315\025g\026)\257D]\307\321\343\005"
 750      FFCD1567 
 750      1629AF44 
 750      5DC7D1E3 
 750      05
 751 18a7 9DD637E9 		.ascii	"\235\3267\351=\027\201s\242\350\012\333\205^\307\222"
 751      3D178173 
 751      A2E80ADB 
 751      855EC792 
 752 18b7 5308D7E2 		.ascii	"S\010\327\342\254xh\277O\246\234\342\263\022p\203\225"
 752      AC7868BF 
 752      4FA69CE2 
 752      B3127083 
 752      95
 753 18c8 80AFBBF9 		.ascii	"\200\257\273\371\347\277n\261l\335\262\315\226M\235"
 753      E7BF6EB1 
 753      6CDDB2CD 
 753      964D9D
 754 18d7 B19AB57C 		.ascii	"\261\232\265|`\305\222\311\344l\223X\276\317\262|\217"
 754      60C592C9 
 754      E46C9358 
 754      BECFB27C 
 754      8F
 755 18e8 87E59F72 		.ascii	"\207\345\237rz\274\025\313\243<\366'j\233\304\362H\017"
ARM GAS  /tmp/cc8rfvLe.s 			page 60


 755      7ABC15CB 
 755      A33CF627 
 755      6A9BC4F2 
 755      480F
 756 18fa C3F2F027 		.ascii	"\303\362\360'\354\262\354\027\264\037f\371\036\335\260"
 756      ECB2EC17 
 756      B41F66F9 
 756      1EDDB0
 757 1909 8B185FC2 		.ascii	"\213\030_\302\370;\214/c\374#\306\3670\036\341\341p"
 757      F83B8C2F 
 757      63FC23C6 
 757      F7301EE1 
 757      E170
 758 191b D5CEBA93 		.ascii	"\325\316\272\223\246\015O7\321P\313\261\207d$\301\273"
 758      A60D4F37 
 758      D150CBB1 
 758      876424C1 
 758      BB
 759 192c F4B372E9 		.ascii	"\364\263r\351\275'p\002\340}\017\351P\267=as\345G\022"
 759      BD277002 
 759      E07D0FE9 
 759      50B73D61 
 759      73E54712 
 760 1940 BEC22CE3 		.ascii	"\276\302,\343<\272\256j}%\236\247J\3229V\1778\017N6"
 760      3CBAAE6A 
 760      7D259EA7 
 760      4AD23956 
 760      7F380F4E 
 761 1955 9A738AD5 		.ascii	"\232s\212\325=\020\375Aq2\322_gL\277\325t\323\025\314"
 761      3D10FD41 
 761      7132D25F 
 761      674CBFD5 
 761      74D315CC 
 762 1969 32554FFF 		.ascii	"2UO\377\217d\272i*\027\365\015\352\233/\223<\304K\275"
 762      8F64BA69 
 762      2A17F50D 
 762      EA9B2F93 
 762      3CC44BBD 
 763 197d 17076C52 		.ascii	"\027\007lRG\033\273\217\177\036@\337\242\031\321\326"
 763      471BBB8F 
 763      7F1E40DF 
 763      A219D1D6 
 764 198d 2E965F83 		.ascii	".\226_\2035a\227\372\376\023}ei\034\017\236\3054\301"
 764      356197FA 
 764      FE137D65 
 764      691C0F9E 
 764      C534C1
 765 19a0 64B2BFC6 		.ascii	"d\262\277\306\316\033\232{\22474\347{H\361\323\333\376"
 765      CE1B9A7B 
 765      943734E7 
 765      7B48F1D3 
 765      DBFE
 766 19b2 0B7A2E49 		.ascii	"\013z.IXd\233\013\215T\352\253\226\236k\243\276\374"
 766      58649B0B 
 766      8D54EAAB 
 766      969E6BA3 
 766      BEFC
ARM GAS  /tmp/cc8rfvLe.s 			page 61


 767 19c4 42095BC1 		.ascii	"B\011[\301\203\310?\222Kh\023\3303\017\031\311\315\360"
 767      83C83F92 
 767      4B6813D8 
 767      330F19C9 
 767      CDF0
 768 19d6 1063300B 		.ascii	"\020c0\013\3439\030\317\303x!\217y\230\304\232\261\352"
 768      E33918CF 
 768      C378218F 
 768      7998C49A 
 768      B1EA
 769 19e8 B66A7BB3 		.ascii	"\266j{\263\251^\306\244\216cH\235\200\244NdI\222\204"
 769      A95EC6A4 
 769      8E63489D 
 769      80A44E64 
 769      499284
 770 19fb ED589E1D 		.ascii	"\355X\236\035s\244\025\366\361\017\357\265\2779\\\236"
 770      73A415F6 
 770      F10FEFB5 
 770      BF395C9E 
 771 1a0b D691FB48 		.ascii	"\326\221\373H\361\330]\267\024\024\227z\310i\3425:\215"
 771      F1D85DB7 
 771      1414977A 
 771      C869E235 
 771      3A8D
 772 1a1d E13C4DFC 		.ascii	"\341<M\374S\217\3564\361\233\3644q\222n\321\240\325"
 772      538FEE34 
 772      F19BF434 
 772      71926ED1 
 772      A0D5
 773 1a2f D3C4DB26 		.ascii	"\323\304\333&\237&^\327\326\3604\361sm\265\247\211+"
 773      9F265ED7 
 773      D6F034F1 
 773      736DB5A7 
 773      892B
 774 1a41 52B03C1F 		.ascii	"R\260<\037<A\\P\\\216\"_\341\261>\037\374\264\365<\241"
 774      3C415C50 
 774      5C8E225F 
 774      E1B13E1F 
 774      FCB4F53C 
 775 1a56 F93B41B1 		.ascii	"\371;A\261\306\032\362\216\037\357\033;\325\353/+o1"
 775      C61AF28E 
 775      1FEF1B3B 
 775      D5EB2F2B 
 775      6F31
 776 1a68 AD4373FA 		.ascii	"\255Cs\372\321\277\2456\247\0068`v\360@\312j\004\251"
 776      D1BFA536 
 776      A7063860 
 776      76F040CA 
 776      6A04A9
 777 1a7b B20B2209 		.ascii	"\262\013\"\011\2331\313f\275M\336B\327\3527sXerr?}\215"
 777      9B31CB66 
 777      BD4DDE42 
 777      D7EA3773 
 777      58657272 
 778 1a92 577DBFF1 		.ascii	"W}\277\361\3638\246R\350\313\254\370R\233\345\375tk"
 778      F338A652 
 778      E8CBACF8 
ARM GAS  /tmp/cc8rfvLe.s 			page 62


 778      529BE5FD 
 778      746B
 779 1aa4 215DADAF 		.ascii	"!]\255\257\325\203\331\264\243\207\342\257\352N\307"
 779      D583D9B4 
 779      A387E2AF 
 779      EA4EC7
 780 1ab3 8D67C76D 		.ascii	"\215g\307m\343i\032Y\3540%\216\202\235\345\001\263\230"
 780      E3691A59 
 780      EC30258E 
 780      829DE501 
 780      B398
 781 1ac5 713DC682 		.ascii	"q=\306\202]\264\015\246\245\354\004\013v\215\007\314"
 781      5DB40DA6 
 781      A5EC040B 
 781      768D07CC 
 782 1ad5 62C6F51B 		.ascii	"b\306\365\033\245;k\342\001\361_z\314W\270\250\266\232"
 782      A53B6BE2 
 782      01F15F7A 
 782      CC57B8A8 
 782      B69A
 783 1ae7 E5ACF530 		.ascii	"\345\254\3650\016\032\337\201\362S\251\003\364\005\372"
 783      0E1ADF81 
 783      F253A903 
 783      F405FA
 784 1af6 04B7756D 		.ascii	"\004\267um@W4!\314\254\350\203\036\363CYu\277\201\217"
 784      40573421 
 784      CCACE883 
 784      1EF34359 
 784      75BF818F 
 785 1b0a DBCEAE80 		.ascii	"\333\316\256\200\265\265u\272R\363\022\347{<p~\203\372"
 785      B5B575BA 
 785      52F312E7 
 785      7B3C707E 
 785      83FA
 786 1b1c 32FAB00D 		.ascii	"2\372\260\015\032\274\\4|\333\260\023\334\216\361g\030"
 786      1ABC5C34 
 786      7CDBB013 
 786      DC8EF167 
 786      18
 787 1b2d 7F8E710D 		.ascii	"\177\216q\015\306{0\336\207\361a\266W\372\177\203*\011"
 787      C67B30DE 
 787      87F161B6 
 787      57FA7F83 
 787      2A09
 788 1b3f 13DBE9FA 		.ascii	"\023\333\351\372:\255aJ\325\016e\354\354&\3110\300\345"
 788      3AAD614A 
 788      D50E65EC 
 788      EC26C930 
 788      C0E5
 789 1b51 B7B8879E 		.ascii	"\267\270\207\236\244\026\367\030\032\313\351\355\364"
 789      A416F718 
 789      1ACBE9ED 
 789      F4
 790 1b5e 1E52B547 		.ascii	"\036R\265G\267\221\370_\310\357\022.~M\337\207\217\363"
 790      B791F85F 
 790      C8EF122E 
 790      7E4DDF87 
ARM GAS  /tmp/cc8rfvLe.s 			page 63


 790      8FF3
 791 1b70 3BAD23FB 		.ascii	";\255#\373\207\2563\254\376\036\347\033\217\335\277"
 791      87AE33AC 
 791      FE1EE71B 
 791      8FDDBF
 792 1b7f C739A5FC 		.ascii	"\3079\245\374\341`\334D+\027-\343l\254\320\263a\370"
 792      E160DC44 
 792      2B172DE3 
 792      6CACD0B3 
 792      61F8
 793 1b91 9AABE941 		.ascii	"\232\253\351Ae\244%\312\0167\245M\022Vq\241\275a\206"
 793      65A425CA 
 793      0E37A54D 
 793      125671A1 
 793      BD6186
 794 1ba4 66343636 		.ascii	"f466\372+\2058h\273\2046\234Zzw\214\362\012\377\267"
 794      FA2B8538 
 794      68BB8436 
 794      9C5A7A77 
 794      8CF20AFF 
 795 1bb9 A80E6B75 		.ascii	"\250\016ku\352\220\022\010\007\247\372~s\366\331\335"
 795      EA901208 
 795      07A7FA7E 
 795      73F6D9DD 
 796 1bc9 220EF22E 		.ascii	"\"\016\362.\244\3569G\216\210U\235\335-)\333\242\247"
 796      A4EE3947 
 796      8E88559D 
 796      DD2D29DB 
 796      A2A7
 797 1bdb E002FA48 		.ascii	"\340\002\372H\334:w\241i#\032\000\\uVY@\247p\225\266"
 797      DC3A77A1 
 797      69231A00 
 797      5C755659 
 797      40A77095 
 798 1bf0 E1FC1AB8 		.ascii	"\341\374\032\2705Z\270-\016\0168\213\267\305\326i\341"
 798      355AB82D 
 798      0E0E388B 
 798      B7C5D669 
 798      E1
 799 1c01 641EEA2C 		.ascii	"d\036\352,\336\027\333\240\205\033\316\003g\361\306"
 799      DE17DBA0 
 799      851BCE03 
 799      67F1C6
 800 1c10 D846164E 		.ascii	"\330F\026N\022>C\205\260\003\247\245n\263\026\256\206"
 800      123E4385 
 800      B003A7A5 
 800      6EB316AE 
 800      86
 801 1c21 07CEA843 		.ascii	"\007\316\250C6\372\260\232\027\024/\242i\272\204f\347"
 801      36FAB09A 
 801      17142FA2 
 801      69BA8466 
 801      E7
 802 1c32 3B8C2F63 		.ascii	";\214/c|\005\343\253\030\377\023\343k<c\240s\354\030"
 802      7C05E3AB 
 802      18FF13E3 
 802      6B3C63A0 
ARM GAS  /tmp/cc8rfvLe.s 			page 64


 802      73EC18
 803 1c45 E80B7D13 		.ascii	"\350\013}\0235\"\273\302@\012\306d\237f\026\336\352"
 803      3522BBC2 
 803      400AC664 
 803      9F6616DE 
 803      EA
 804 1c56 71E1ED0C 		.ascii	"q\341\355\014\316\335\274\207\344}\214\361Z\214\217"
 804      CEDDBC87 
 804      E47D8CF1 
 804      5A8C8F
 805 1c65 627C12E3 		.ascii	"b|\022\343z\214\317\362\020_\347N\323\024\250Y\013:"
 805      7A8CCFF2 
 805      105FE74E 
 805      D314A859 
 805      0B3A
 806 1c77 A86BE3F1 		.ascii	"\250k\343\361\325\266\273U\342\024\\m\253\305i\362\005"
 806      D5B6BB55 
 806      E2145C6D 
 806      ABC569F2 
 806      05
 807 1c88 38B3FDB5 		.ascii	"8\263\375\265\351\212P-\263\367\352&YH:\201\331\352"
 807      E98A502D 
 807      B3F7EA26 
 807      59483A81 
 807      D9EA
 808 1c9a 5CD6D94E 		.ascii	"\\\326\331N0\331\326\323\3256\272_\375\002\322e\236"
 808      30D9D6D3 
 808      D536BA5F 
 808      FD02D265 
 808      9E
 809 1cab 11D77394 		.ascii	"\021\327s\224\214\367h\306:\\\026\374.E\306:7\273\327"
 809      8CF768C6 
 809      3A5C16FC 
 809      2E45C63A 
 809      37BBD7
 810 1cbe 4BBB74F5 		.ascii	"K\273t\365\265\365\322\325M\217\321\322U\325\361t\303"
 810      B5F5D2D5 
 810      4D8FD1D2 
 810      55D5F174 
 810      C3
 811 1ccf 553AAB7F 		.ascii	"U:\253\177\260\274\257\237\203\244B\326\324\314?\015"
 811      B0BCAF9F 
 811      83A442D6 
 811      D4CC3F0D 
 812 1cdf 6B469E1A 		.ascii	"kF\236\032\322\325\311=\217e\235(\254\016\227\257\216"
 812      D2D5C93D 
 812      8F659D28 
 812      AC0E97AF 
 812      8E
 813 1cf0 1AD54A54 		.ascii	"\032\325JT\377\304Y\223\315\210\327\207\206\274\036"
 813      FFC45993 
 813      CD88D787 
 813      86BC1E
 814 1cff 3F431AB0 		.ascii	"?C\032\260|\277\261q\204W\260\261V7\334k\260*\251a^"
 814      7CBFB171 
 814      8457B0B1 
 814      5637DC6B 
ARM GAS  /tmp/cc8rfvLe.s 			page 65


 814      B02AA961 
 815 1d14 B0BD4EFC 		.ascii	"\260\275N\374\300X>\017\012u\253\230\303\274<+\304\207"
 815      C0583E0F 
 815      0A75AB98 
 815      C3BC3C2B 
 815      C487
 816 1d26 F46235CF 		.ascii	"\364b5\317\306\252z\322\302\262y6\223\205e\360\277S"
 816      C6AA7AD2 
 816      C2B27936 
 816      938565F0 
 816      BF53
 817 1d38 64641796 		.ascii	"dd\027\226\365\032\313\3442\252\305\321\336\244Z\\Y"
 817      F51ACBE4 
 817      32AAC5D1 
 817      DEA45A5C 
 817      59
 818 1d49 1F5BB5CB 		.ascii	"\037[\265\313Xc\255f\315\307\032\325\240\256F\336\371"
 818      5863AD66 
 818      CDC71AD5 
 818      A0AE46DE 
 818      F9
 819 1d5a 2F063532 		.ascii	"/\00652\\n\324\327\310\007\3265\022\327\330*\334\210"
 819      5C6ED4D7 
 819      C807D635 
 819      12D7D82A 
 819      DC88
 820 1d6c 49A7E0CD 		.ascii	"I\247\340\315s)\004\2167du\177\2151\253V\312:\331BY"
 820      7329048E 
 820      3764757F 
 820      8D31AB56 
 820      CA3AD942 
 821 1d81 75432752 		.ascii	"uC'R5f0S\275\206\377\337K\017\006M\334\177\342H^Q\220"
 821      35663053 
 821      BD86FFDF 
 821      4B0F064D 
 821      DC7FE248 
 822 1d98 84C9C6A2 		.ascii	"\204\311\306\242\234\252_\242\237\304\245\334\333H6"
 822      9CAA5FA2 
 822      9FC4A5DC 
 822      DB4836
 823 1da7 428F242C 		.ascii	"B\217$,@`\363lH\265\222\255\341?\332Pz%a\251>\233\356"
 823      4060F36C 
 823      48B592AD 
 823      E13FDA50 
 823      7A2561A9 
 824 1dbe 1054E44A 		.ascii	"\020T\344J-\2552\275\257\372*\314\032}>\315\036\270"
 824      2DAD32BD 
 824      AFFA2ACC 
 824      1A7D3ECD 
 824      1EB8
 825 1dd0 38F786BA 		.ascii	"8\367\206\272mV\232\"\337\031\311\025\016\026j\375\273"
 825      6D569A22 
 825      DF19C915 
 825      0E166AFD 
 825      BB
 826 1de1 1FC01872 		.ascii	"\037\300\030rx\254\261\361%\257\276\316%\363:_\300\241"
 826      78ACB1F1 
ARM GAS  /tmp/cc8rfvLe.s 			page 66


 826      25AFBECE 
 826      25F33A5F 
 826      C0A1
 827 1df3 DE9B8CEA 		.ascii	"\336\233\214\352d\242<W_'\037q\252\367ZTo:\007m\236"
 827      64A23C57 
 827      5F271F71 
 827      AAF75A54 
 827      6F3A076D 
 828 1e08 4B217091 		.ascii	"K!p\221!\267u\357\276\257rk\307\034/\345\340\366Kcn"
 828      21B775EF 
 828      BEAF726B 
 828      C71C2FE5 
 828      E0F64B63 
 829 1e1d 9336897C 		.ascii	"\2236\211|\314\305\255\276n?\266\256\333e\311\334\326"
 829      CCC5ADBE 
 829      6E3FB6AE 
 829      DB65C9DC 
 829      D6
 830 1e2e 5F8B4DDB 		.ascii	"_\213M\333\2474f\312\201$\2340\246q\246\236\306\025"
 830      A73466CA 
 830      81249C30 
 830      A671A69E 
 830      C615
 831 1e40 4DA27185 		.ascii	"M\242q\2055\215+\015k\344\260b[\347\276l\243>\326Xv"
 831      358D2B0D 
 831      6BE4B062 
 831      5BE7BE6C 
 831      A33ED658 
 832 1e55 8FFAAD2C 		.ascii	"\217\372\255,J\233\211\337\323\036]_\177W8\353o5\227"
 832      4A9B89DF 
 832      D31E5D5F 
 832      7F5738EB 
 832      6F3597
 833 1e68 05599F70 		.ascii	"\005Y\237p\351v\244\310\306\272t7\203\317\250\226\340"
 833      E976A4C8 
 833      C6BA7437 
 833      83CFA896 
 833      E0
 834 1e79 0ED2B3DA 		.ascii	"\016\322\263\332\332\022(\331f\357J\213\277+*?\251\313"
 834      DA1228D9 
 834      66EF4A8B 
 834      BF2B2A3F 
 834      A9CB
 835 1e8b A7B33C0A 		.ascii	"\247\263<\012\367\2065h\226K\021{\265A\015^\214\325"
 835      F7863568 
 835      964B117B 
 835      B5410D5E 
 835      8CD5
 836 1e9d EDDBA7F8 		.ascii	"\355\333\247\3708\016\201\276 \"\011\357>i\356k\340"
 836      380E81BE 
 836      202209EF 
 836      3E69EE6B 
 836      E0
 837 1eae 5CD54C7C 		.ascii	"\\\325L|`\273\251P^b\325lE\345\250VN\272\325@\260\310"
 837      60BBA950 
 837      5E62D56C 
 837      45E5A856 
ARM GAS  /tmp/cc8rfvLe.s 			page 67


 837      4EBAD540 
 838 1ec4 A550B943 		.ascii	"\245P\271CK\345\253\242c\252\223\266\210\361\365\207"
 838      4BE5ABA2 
 838      63AA93B6 
 838      88F1F587 
 839 1ed4 2FEC704D 		.ascii	"/\354pM\227w\214\224\033\033\377\2467\000\026\033\031"
 839      97778C94 
 839      1B1BFFA6 
 839      3700161B 
 839      19
 840 1ee5 76EBF5ED 		.ascii	"v\353\365\355\034\273uJy\033B\271\347]\313m\274q\250"
 840      1CBB754A 
 840      791B42B9 
 840      E75DCB6D 
 840      BC71A8
 841 1ef8 DD069C4B 		.ascii	"\335\006\234K\372\302K&\017\016\352D\306\211\023\253"
 841      FAC24B26 
 841      0F0EEA44 
 841      C68913AB 
 842 1f08 BA4A1654 		.ascii	"\272J\026Tk\021\343\204\016#(v\323MGu\323\035C\270\272"
 842      6B11E384 
 842      0E232876 
 842      D34D4775 
 842      D31D43B8 
 843 1f1d C1218FF7 		.ascii	"\301!\217\367b\272$\374\370\244v\361\203\311\327\335"
 843      62BA24FC 
 843      F8A476F1 
 843      83C9D7DD 
 844 1f2d 6C3EAF5B 		.ascii	"l>\257[b0v\320\373\253\344'u\255\254QG\241\372\320\341"
 844      623076D0 
 844      FBABE427 
 844      75ADAC51 
 844      47A1FAD0 
 845 1f42 A44A9B16 		.ascii	"\244J\233\026\257\264\352\312\303\223\304\011#\346\031"
 845      AFB4EACA 
 845      C393C409 
 845      23E619
 846 1f51 BD1DC2BF 		.ascii	"\275\035\302\277L\265\372+\"\247c^\262N5\246}\223\326"
 846      4CB5FA2B 
 846      22A7635E 
 846      B24E35A6 
 846      7D93D6
 847 1f64 A9EABCBA 		.ascii	"\251\352\274\272u\252\343\357\341:\025IO\275N5\241}"
 847      75AAE3EF 
 847      E13A1549 
 847      4FBD4E35 
 847      A17D
 848 1f76 F23AD5D4 		.ascii	"\362:\325\324\366\206\353T\037\2657\374\327\333\345"
 848      F686EB54 
 848      1FB537FC 
 848      D7DBE5
 849 1f85 ED0DFFF5 		.ascii	"\355\015\377\365vS{\355\277\336*\311\273\022\311\354"
 849      76537BED 
 849      BFDE2AC9 
 849      BB12C9EC 
 850 1f95 3F7E1F48 		.ascii	"?~\037H$\263\377\370}&\221"
 850      24B3FFF8 
ARM GAS  /tmp/cc8rfvLe.s 			page 68


 850      7D2691
 851 1fa0 CCFEE3F7 		.ascii	"\314\376\343\367\345D\262\227I\376!\221\354c\222+\375"
 851      E544B297 
 851      49FE2191 
 851      EC63922B 
 851      FD
 852 1fb1 F1E4664C 		.ascii	"\361\344fL\362\364Dr\032\223\2744\221\234\316$W'\222"
 852      F2F44472 
 852      1A93BC34 
 852      919CCE24 
 852      572792
 853 1fc4 9B33C97B 		.ascii	"\2333\311{\023\311-\230\344\023\211\344\226L\362\371"
 853      13C92D98 
 853      E41389E4 
 853      964CF2F9 
 854 1fd4 44722B26 		.ascii	"Dr+&\371\373D\362#L\362\360\247\342\311\255Y\272\023"
 854      F9FB44F2 
 854      234CF2F0 
 854      A7E2C9AD 
 854      59BA13
 855 1fe7 C98F2A75 		.ascii	"\311\217*uIn-\227\013\023:\022\024Ob\203\370\306k\274"
 855      496E2D97 
 855      0B133A12 
 855      144F6283 
 855      F8C66BBC 
 856 1ffb 5C68666C 		.ascii	"\\hfl\216"
 856      8E
 857 2000 EA8DCD22 		.ascii	"\352\215\315\"\266s;'j;\267\371\242\221;\274\374)\343"
 857      B6733B27 
 857      6A3BB7F9 
 857      A2913BBC 
 857      FC29E3
 858 2013 66F68E2F 		.ascii	"f\366\216/\331O\030\037;\364\025xE\363\015\275\"\322"
 858      D94F181F 
 858      3BF41578 
 858      45F30DBD 
 858      22D2
 859 2025 5ECC087D 		.ascii	"^\314\010}\327g@\250\216\220\265&\204\274oH\310\234"
 859      D76740A8 
 859      8E90B526 
 859      84BC6F48 
 859      C89C
 860 2037 DAF765D1 		.ascii	"\332\367e\321p\374aE\307X=\035\344\355\024\233\002\333"
 860      70FC6145 
 860      C7583D1D 
 860      E4ED149B 
 860      02DB
 861 2049 6242E744 		.ascii	"bB\347D#:\353\357\037\\a&0R\266\351@IO\350e1I`\237\233"
 861      233AEBEF 
 861      1F5C6126 
 861      3052B6E9 
 861      40494FE8 
 862 2063 10F27743 		.ascii	"\020\362wCB6\354:\3420\353\317\254D6\315\250\352\342"
 862      4236EC3A 
 862      E230EBCF 
 862      AC4436CD 
 862      A8EAE2
ARM GAS  /tmp/cc8rfvLe.s 			page 69


 863 2076 37FB0C45 		.ascii	"7\373\014E\264\337\204\262\231\206Uy\344\253\246T\345"
 863      B4DF84B2 
 863      99865579 
 863      E4ABA654 
 863      E5
 864 2087 6C4BBABA 		.ascii	"lK\272\272\2605\311\277\257e\341\330\307\211\225\236"
 864      B035C9BF 
 864      AF65E1D8 
 864      C789959E 
 865 2097 EF23D6F4 		.ascii	"\357#\326\364\330S\372.\322\376\233\333\011\"\364\257"
 865      D853FA2E 
 865      D2FE9BDB 
 865      0922F4AF 
 866 20a7 80F8CC7D 		.ascii	"\200\370\314}\210\205>\213Y\305oLd\273\310\260\326g"
 866      88853E8B 
 866      59C56F4C 
 866      64BBC8B0 
 866      D667
 867 20b9 2EFAEEA5 		.ascii	".\372\356\245i\253\344\221x\376\200\376\364\001\213"
 867      69ABE491 
 867      78FE80FE 
 867      F4018B
 868 20c8 15D5257A 		.ascii	"\025\325%z\351^\307C\3555\224\2347\241d\251\226\222"
 868      E95EC743 
 868      ED35949C 
 868      37A164A9 
 868      9692
 869 20da A785F9B2 		.ascii	"\247\205\371\262|\260\376\301\255\245\035\310\342\203"
 869      7CB0FEC1 
 869      ADA51DC8 
 869      E283
 870 20e8 4CDC3F51 		.ascii	"L\334?QT\347\024\257\305A\314HY\226\200k\342\362\360"
 870      54E714AF 
 870      C541CC48 
 870      5996806B 
 870      E2F2F0
 871 20fb 722D33E9 		.ascii	"r-3\351\302{lMt3_\035^\351K\027t\037\263G?M\324\231"
 871      C27B6C4D 
 871      74335F1D 
 871      5EE94B17 
 871      741FB347 
 872 2113 AEA689CF 		.ascii	"\256\246\211\317f\226\253\3124\027\361#\315r\2552\311"
 872      6696ABCA 
 872      3417F123 
 872      CD72AD32 
 872      C9
 873 2124 C52F9135 		.ascii	"\305/\2215\372\352%\234r\355\274\\mJ\361Q\013\212\327"
 873      FAEA259C 
 873      72EDBC5C 
 873      6D4AF151 
 873      0B8AD7
 874 2137 99E6225A 		.ascii	"\231\346\"Z`\226k\275i.r8\206Y\256\015\246\271H/d\226"
 874      60966BBD 
 874      692E7238 
 874      8659AE0D 
 874      A6B9482F 
 875 214d ABDA34D7 		.ascii	"\253\3324\327d\213\\\033Ms\215\265\310\265\311$\227"
ARM GAS  /tmp/cc8rfvLe.s 			page 70


 875      648B5C1B 
 875      4D738DB5 
 875      C8B5C924 
 875      97
 876 215e B2D65AEF 		.ascii	"\262\326Z\357\232\246=\260%\311\273\334\342\263\273"
 876      9AA63DB0 
 876      25C9BBDC 
 876      E2B3BB
 877 216d D6BAD567 		.ascii	"\326\272\325g\274\326\232\252\2727\2332H\336*6\313\265"
 877      BCD69AAA 
 877      BA379B32 
 877      48DE2A36 
 877      CBB5
 878 217f CD34D734 		.ascii	"\3154\3274\013\261\304Ls-\265P\255\355\246\271f[\224"
 878      0BB1C44C 
 878      732DB550 
 878      ADEDA6B9 
 878      665B94
 879 2192 B5C334D7 		.ascii	"\265\3034\327~\013\276>K\3442\332\007\220\246>\277&"
 879      7E0BBE3E 
 879      4BE432DA 
 879      0790A63E 
 879      BF26
 880 21a4 3198A8AF 		.ascii	"1\230\250\257>\267\343\211M\364\317,|d\344t\353)\303"
 880      3EB7E389 
 880      4DF4CF2C 
 880      7C64E474 
 880      EB29C3
 881 21b7 C19B0590 		.ascii	"\301\233\005\220$\214x\232\344\251\361\351\226\177'"
 881      248C789A 
 881      E4A9F1E9 
 881      967F27
 882 21c6 D06D5324 		.ascii	"\320mS$\335bL\021?\342d\212\262\003\204\235\212'y\215"
 882      DD624C11 
 882      3FE2648A 
 882      B203849D 
 882      8A27798D 
 883 21da B8D5A887 		.ascii	"\270\325\250\207\362\000\213'\307\246\356\032\207\333"
 883      F2008B27 
 883      C7A6EE1A 
 883      87DB
 884 21e8 B0D40D02 		.ascii	"\260\324\015\002Dv3\230\265\365f*\306<Uk\277\260\255"
 884      44763398 
 884      B5F5662A 
 884      C63C556B 
 884      BFB0AD
 885 21fb B55F9A68 		.ascii	"\265_\232h\255\372\207+\22206.\031\343r\215\370\360"
 885      ADFA872B 
 885      9230362E 
 885      19E3728D 
 885      F8F0
 886 220d 6BF8985E 		.ascii	"k\370\230^\371\201H\216LS\370\230\3672i|\314\002\323"
 886      F981488E 
 886      4C53F898 
 886      F732697C 
 886      CC02D3
 887 2220 CB2A8657 		.ascii	"\313*\206W!j\277\302F\202<\240c\222\236\016M6\255$\014"
ARM GAS  /tmp/cc8rfvLe.s 			page 71


 887      216ABFC2 
 887      46823CA0 
 887      63929E0E 
 887      4D36AD24 
 888 2235 C8181E9B 		.ascii	"\310\030\036\233\261\013_\"\246\0233s\364hF\233\003"
 888      B10B5F22 
 888      A6133373 
 888      F468469B 
 888      03
 889 2246 9758A0CD 		.ascii	"\227X\240\315\256\034\2479\340p\221\036\320\250\262"
 889      AE1CA739 
 889      E070911E 
 889      D0A8B2
 890 2255 576A002D 		.ascii	"Wj\000->\254*\006\305=>2t\331\353\303\315(\030\327b"
 890      3EAC2A06 
 890      C53D3E32 
 890      74D9EBC3 
 890      CD2818D7 
 891 226a 7C10E3C3 		.ascii	"|\020\343\303>f\220\257kj;M\350!%\0341m\240K,\232\365"
 891      3E6690AF 
 891      6B6A3B4D 
 891      E821251C 
 891      316DA04B 
 892 2281 51C6737A 		.ascii	"Q\306sz!c`yi(\243\240\274\360\355\214\302\320\340\214"
 892      21636079 
 892      6928A3A0 
 892      BCF0ED8C 
 892      C2D0E08C 
 893 2295 8281C5FD 		.ascii	"\202\201\305\375\213\313#\031\321\360\240\26273\340"
 893      8BCB2319 
 893      D1F0A0B2 
 893      3733E0
 894 22a4 2234349A 		.ascii	"\"44\232Q\024\214\026E2\"\341\202\214\342\262hh@(\334"
 894      51148C16 
 894      453222E1 
 894      828CE2B2 
 894      68684028 
 895 22b9 61A0E0EC 		.ascii	"a\240\340\354\372z~\266\273{\237~\376L\301Y00\030~\316"
 895      FA7A7EB6 
 895      BB7B9F7E 
 895      FE4CC159 
 895      3030187E 
 896 22ce 1E525111 		.ascii	"\036RQ\021\200\270\272u\311\357\226\347)\212\004\242"
 896      80B8BA75 
 896      C9EF96E7 
 896      298A04A2 
 897 22de 6F57841C 		.ascii	"oW\204\034\205\341\301\256\202H\361\377\012\271\313"
 897      85E1C1AE 
 897      8248F1FF 
 897      0AB9CB
 898 22ed 02F064C4 		.ascii	"\002\360d\3045\244\250$8\300[\024)\016\220\013\347\253"
 898      35A4A824 
 898      38C05B14 
 898      290E900B 
 898      E7AB
 899 22ff 39B95952 		.ascii	"9\271YRq\241\257,\020./\217\026\026\207]Y$\251YI0\022"
 899      71A1AF2C 
ARM GAS  /tmp/cc8rfvLe.s 			page 72


 899      102E2F8F 
 899      1616875D 
 899      5924A959 
 900 2316 0D14940C 		.ascii	"\015\024\224\014\212D\233\025\205C!z\351E\214PY\324"
 900      8A449B15 
 900      8543217A 
 900      E9458C50 
 900      59D4
 901 2328 5544203D 		.ascii	"UD =\203\313K\372\007#!\017$\3427d'\337\336\302`4\210"
 901      83CB4BFA 
 901      0723210F 
 901      24E23764 
 901      27DFDEC2 
 902 233f 09438ACB 		.ascii	"\011C\212\313\"\241\202\250\003\276]\371\231=\272\344"
 902      22A182A8 
 902      03BE5DF9 
 902      993DBAE4 
 903 234f B6881496 		.ascii	"\266\210\024\226\226\002=\245\025%! \326\203\267\201"
 903      96023DA5 
 903      15252120 
 903      D683B781 
 904 235f A80BBF7F 		.ascii	"\250\013\277\177\237\212\335\201\301\022\020\027\220"
 904      9F8ADD81 
 904      C1121017 
 904      90
 905 236c 5218CA20 		.ascii	"R\030\312 \371\"\025\305\000\342\353\335;3+\\<8\024"
 905      F92215C5 
 905      00E2EBDD 
 905      3B332B5C 
 905      3C3814
 906 237f 4E8F5FFD 		.ascii	"N\217_\375\265w\276+\320\265\274\274$\2558\022 D\204"
 906      B577BE2B 
 906      D0B5BCBC 
 906      24AD3812 
 906      204484
 907 2392 A3A1C274 		.ascii	"\243\241\302t\270\256\010\227G\201\242P\241\247\240"
 907      B8AE0897 
 907      4781A250 
 907      A1A7A0
 908 23a1 BCAC0CAE 		.ascii	"\274\254\014\256\232\025\026G\224\313_f\014\212\204"
 908      9A151647 
 908      94CB5F66 
 908      0C8A84
 909 23b0 3382E1D2 		.ascii	"3\202\341\322g\313\312\313B\317\206\202\375\213\343"
 909      67CBCACB 
 909      42CF8682 
 909      FD8BE3
 910 23bf C5454036 		.ascii	"\305E@6eQ(\315;\010\276\237\353\034\210>o\361ti\020"
 910      655128CD 
 910      3B08BE9F 
 910      EB1C883E 
 910      6FF17469 
 911 23d4 682F0B65 		.ascii	"h/\013e\004\012CE\301A%Q\254\213\010\344n\026\010\250"
 911      040A4345 
 911      C1412551 
 911      AC8B08E4 
 911      6E1608A8 
ARM GAS  /tmp/cc8rfvLe.s 			page 73


 912 23e8 F93DE4E2 		.ascii	"\371=\344\342\205@\324G\223\340\312\031\016\005\013"
 912      8540D447 
 912      93E0CA19 
 912      0E050B
 913 23f7 5D43C2C5 		.ascii	"]C\302\305\321\2203\362vY\301\237\354\310\003\256\003"
 913      D19033F2 
 913      7659C19F 
 913      ECC803AE 
 913      03
 914 2408 C5E5FD4B 		.ascii	"\305\345\375K\312\013\336\204rZv%\027Y\241\301\305\005"
 914      CA0BDE84 
 914      725A7625 
 914      1759A1C1 
 914      C505
 915 241a A19E6545 		.ascii	"\241\236eE\345\336\376%o\006\260\316\310E\331\240R\357"
 915      E5DEFE25 
 915      6F06B0CE 
 915      C845D9A0 
 915      52EF
 916 242c 80501404 		.ascii	"\200P\024\004ST\356\030\\\032m\006\211\221(\324l \332"
 916      5354EE18 
 916      5C1A6D06 
 916      899128D4 
 916      6C20DA
 917 243f AC6BAF57 		.ascii	"\254k\257W\002\375\372\364\354\3233\337K.\363\362s\372"
 917      02FDFAF4 
 917      ECD333DF 
 917      4B2EF3F2 
 917      73FA
 918 2451 625A97CC 		.ascii	"bZ\227\314\374\236\177\315nA.3s\372\364\311\206\333"
 918      FC9E7FCD 
 918      6E412E33 
 918      73FAF4C9 
 918      86DB
 919 2463 3EDD1F21 		.ascii	">\335\037!\267Y=\363\022)>\222\222\233\335%\353\365"
 919      B7593DF3 
 919      12293E92 
 919      929BDD25 
 919      EBF5
 920 2475 34F50A52 		.ascii	"4\365\012R\361\372\325\334\236\371\352u\336\353}2\341"
 920      F1FAD5DC 
 920      9EF9EA75 
 920      DEEB7D32 
 920      E1
 921 2486 DA85A53A 		.ascii	"\332\205\245:\012\212\013\035\005\221BoA\260\"XP\034"
 921      0A8A0B1D 
 921      0591426F 
 921      41B02258 
 921      501C
 922 2498 7D3B8B87 		.ascii	"};\213\207\361\212\362p4\222\221\227\337\373\271\316"
 922      F18AF270 
 922      34929197 
 922      DFFBB9CE 
 923 24a8 19BD7A65 		.ascii	"\031\275zee\344\365\3559\270S\006\250D\240\244\244\220"
 923      65E4F5ED 
 923      39B85306 
 923      A844A0A4 
ARM GAS  /tmp/cc8rfvLe.s 			page 74


 923      A490
 924 24ba A8052450 		.ascii	"\250\005$Pe\350lG\216T\247\232\301\227*\021\300Q%B."
 924      65E86C47 
 924      8E54A79A 
 924      C1972A11 
 924      C0512542 
 925 24cf 89440836 		.ascii	"\211D\0106\345\022\177\245\262I'\227\2319\275\373\366"
 925      E5127FA5 
 925      B2492797 
 925      9939BDFB 
 925      F6
 926 24e0 CACECF6E 		.ascii	"\312\316\317n\016\000\005\301\022h\037\005o\006\242"
 926      0E0005C1 
 926      12681F05 
 926      6F06A2
 927 24ef EE505961 		.ascii	"\356PYa\240\240\177vS\370\352\336\267g\316\340\316\031"
 927      A0A07F76 
 927      53F8EADE 
 927      B767CEE0 
 927      CE19
 928 2501 1550BF94 		.ascii	"\025P\277\224\261\364H\264\024\024h@Eq9\264\234\336"
 928      B1F448B4 
 928      14146840 
 928      457139B4 
 928      9CDE
 929 2513 3959D9B9 		.ascii	"9Y\331\271\356\234\374\327\373f\347zr\362\372fgg\345"
 929      EE9CFCD7 
 929      FB66E77A 
 929      72F2FA66 
 929      6767E5
 930 2526 BAFAF6EB 		.ascii	"\272\372\366\353\233\225\353\350\011!'+W|\025u\266\323"
 930      9B95EBE8 
 930      0921272B 
 930      577C1575 
 930      B6D3
 931 2538 EF8117AA 		.ascii	"\357\201\027\252k\344\322\021\011E]\005%\241`X\354\341"
 931      6BE4D211 
 931      09455D05 
 931      25A16058 
 931      ECE1
 932 254a EC9A979B 		.ascii	"\354\232\227\233\353\354\225\371J\256\263K\267\334^"
 932      EBEC95F9 
 932      4AAEB34B 
 932      B7DC5E
 933 2559 24EAE1E8 		.ascii	"$\352\341\350\232\233\333\254\270\234PS\\\010\034D\""
 933      9A9BDBAC 
 933      B89C5053 
 933      5C081C44 
 933      22
 934 256a E4D2055F 		.ascii	"\344\322\005_A\250\254p'\"\202\314\362\262\242\342\001"
 934      41A8AC70 
 934      272282CC 
 934      F2B2A2E2 
 934      01
 935 257b EE02FC4A 		.ascii	"\356\002\374Ji\366\302\321\270\220\013\006F\336\216"
 935      69F6C2D1 
 935      B8900B06 
ARM GAS  /tmp/cc8rfvLe.s 			page 75


 935      46DE8E
 936 258a A86DC21B 		.ascii	"\250m\302\033\035H\024\037ZB\301\300\000\275~\336\036"
 936      1D48141F 
 936      5A42C1C0 
 936      00BD7EDE 
 936      1E
 937 259b 56C14022 		.ascii	"V\301@\"\027wE\240\014\014\"|U\204C\203{p@PQw\311\355"
 937      177745A0 
 937      0C0C227C 
 937      55844383 
 937      7B704050 
 938 25b3 9DD97B28 		.ascii	"\235\331{(<YZQ\\\022\012G2\272gf\302\343*y\236hE\230"
 938      3C595A51 
 938      5C120A47 
 938      32BA6766 
 938      C2E32A79 
 939 25cb 481A718B 		.ascii	"H\032q\213\313\211\335\210B1\177\264\215?\260\240<L"
 939      CB89DD88 
 939      42317FB4 
 939      8D3FB0A0 
 939      3C4C
 940 25dd 8C5E1A49 		.ascii	"\214^\032I\206\266\027-\210\016\375\037MC\011\014\376"
 940      86B6172D 
 940      880EFD1F 
 940      4D43090C 
 940      FE
 941 25ee 4329915C 		.ascii	"C)\221\\84\000\014\020\251\314N\277\207\360\007\010"
 941      3834000C 
 941      10A9CC4E 
 941      BF87F007 
 941      08
 942 25ff 2F40F8A3 		.ascii	"/@\370\243#\322\271#\204N\020:Cx\016\302\363\020~\007"
 942      23D2B923 
 942      844E103A 
 942      43780EC2 
 942      F3107E07 
 943 2613 019EEB0C 		.ascii	"\001\236\353\014\317u\206\347:\303s\317\301s\317u\222"
 943      CF7586E7 
 943      3AC373CF 
 943      C173CF75 
 943      92
 944 2624 C2CF4BE1 		.ascii	"\302\317K\341\337I\341\337K\341?H\341\027\244\360\037"
 944      DF49E1DF 
 944      4BE13F48 
 944      E117A4F0 
 944      1F
 945 2635 1DE14E1D 		.ascii	"\035\341N\035!t\222J\302\360\365\234\253\"\000\324z"
 945      2174924A 
 945      C2F0F59C 
 945      AB2200D4 
 945      7A
 946 2646 88848784 		.ascii	"\210\204\207\204\302\360]^R\030\012\023\211\007KC\336"
 946      C2F05D5E 
 946      52180A13 
 946      89074B43 
 946      DE
 947 2657 A8D25420 		.ascii	"\250\322T \035\257<\321\322\362BzO:\231\210'\032\016"
ARM GAS  /tmp/cc8rfvLe.s 			page 76


 947      1DAF3CD1 
 947      D2F2427A 
 947      4F3A9988 
 947      271A0E
 948 266a 910E099E 		.ascii	"\221\016\011\236'\027\256\322\310\000\370Q\261\203`"
 948      2717AED2 
 948      C800F851 
 948      B18360
 949 2679 FF942B77 		.ascii	"\377\224+w\270\360m\370\311\033\032Z\034\005\211\204"
 949      B8F06DF8 
 949      C91B1A5A 
 949      1C058984 
 950 2689 DC43A2E5 		.ascii	"\334C\242\345\375\377\263\"-4\030\272\234\322`\004\033"
 950      FDFFB322 
 950      2D3418BA 
 950      9CD26004 
 950      1B
 951 269a D21072E1 		.ascii	"\322\020r\341\250\010\014jAU%\022(\201\226\032\210\266"
 951      A8080C6A 
 951      41552512 
 951      2881961A 
 951      88B6
 952 26ac 8C2B0F4D 		.ascii	"\214+\017M\361U\004\206\004\213\243\305e\003Z\252\311"
 952      F1550486 
 952      048BA3C5 
 952      65035AAA 
 952      C9
 953 26bd 6F0D0A0D 		.ascii	"o\015\012\015\002\252Z1ObR\263\212\000\024\213\227."
 953      02AA5A31 
 953      4F6252B3 
 953      8A00148B 
 953      972E
 954 26cf BC848450 		.ascii	"\274\204\204P\0054Y\310\354*\035\004\265\235\262#\326"
 954      053459C8 
 954      EC2A1D04 
 954      B59DB223 
 954      D6
 955 26e0 E8636974 		.ascii	"\350cit(\321\233R\212\016\337\345C\312@h\210\004,\224"
 955      28D19B52 
 955      8A0EDFE5 
 955      43CA4068 
 955      88042C94 
 956 26f4 A29A027D 		.ascii	"\242\232\002}\360\034\241\264\031\221J\260\004\225\013"
 956      F01CA1B4 
 956      19914AB0 
 956      04950B
 957 2703 122BA0D7 		.ascii	"\022+\240\327\372\203\255\362\024f\240\314\326JS\002"
 957      FA83ADF2 
 957      1466A0CC 
 957      D64A5302 
 958 2713 2987C2A1 		.ascii	")\207\302\241\262\002\340\326M\223\376\314\343Jd\366"
 958      B202E0D6 
 958      4D93FECC 
 958      E34A64F6 
 959 2723 CEEB9907 		.ascii	"\316\353\231\007\246'\003-L\321\363\035;\015E\205%\206"
 959      A627032D 
 959      4CD1F31D 
ARM GAS  /tmp/cc8rfvLe.s 			page 77


 959      3B0D4585 
 959      2586
 960 2735 2D1F9A43 		.ascii	"-\037\232CV\250\310\221\231\333\011Bg)/W\002C\223\231"
 960      56A8C891 
 960      99DB0942 
 960      67292F57 
 960      02439399 
 961 2749 9BD937D7 		.ascii	"\233\3317\327\235\373\032|\347\272\363\361\313\323\263"
 961      9DFB1A7C 
 961      E7BAF3F1 
 961      CBD3B3
 962 2758 735E66B7 		.ascii	"s^f\267\356\271.\370\356\233\353\000;\330\315\256\331"
 962      EEB92EF8 
 962      EE9BEB00 
 962      3BD8CDAE 
 962      D9
 963 2769 C3B8DBF3 		.ascii	"\303\270\333\363C\207RB\002\205\245A\302\\V\357.\201"
 963      43875242 
 963      0285A541 
 963      C25C56EF 
 963      2E81
 964 277b 3C50A560 		.ascii	"<P\245`\251J\215\224\231\353\354\223\225\237\353\350"
 964      A94A8D94 
 964      99EBEC93 
 964      959FEBE8 
 965 278b DB25D7D9 		.ascii	"\333%\327\331\273#\211:u\311ut\003b\"\370\240\263\270"
 965      BB23893A 
 965      75C97574 
 965      036222F8 
 965      A0B3B8
 966 279e A820EC2E 		.ascii	"\250 \354.\216\014,.\212\372\"\241\222\242\342\262\302"
 966      8E0C2C2E 
 966      8AFA22A1 
 966      92A2E2B2 
 966      C2
 967 27af D050F760 		.ascii	"\320P\367`\350\355\313\303\255\343\350\001\3724\230"
 967      E8EDCBC3 
 967      ADE3E801 
 967      FA3498
 968 27be 53B8090F 		.ascii	"S\270\011\017%qt\250/<\024\276\211&\373\242\352\225"
 968      257174A8 
 968      2F3C14BE 
 968      8926FBA2 
 968      EA95
 969 27d0 13D8A970 		.ascii	"\023\330\251p\225D\012\212\006\270\006\222\2308\037"
 969      95440A8A 
 969      06B80692 
 969      98381F
 970 27df D40CB6C4 		.ascii	"\324\014\266\304\2767\020,,\014\207\"\221P\304\011\036"
 970      BE37102C 
 970      2C0C8722 
 970      9150C409 
 970      1E
 971 27f0 4A2179BE 		.ascii	"J!y\276\320S\004v\005\014\236\027Rr\241.\336\006\357"
 971      D0530476 
 971      050C9E17 
 971      5272A12E 
ARM GAS  /tmp/cc8rfvLe.s 			page 78


 971      DE06EF
 972 2803 0CBF9B13 		.ascii	"\014\277\233\023G\251\244|\000u\377\322\023w`\251\023"
 972      47A9A47C 
 972      0075FFD2 
 972      137760A9 
 972      13
 973 2814 378E4861 		.ascii	"7\216Ha\201\007.\373\006\243\003\323\013I\217\326\273"
 973      81072EFB 
 973      06A303D3 
 973      0B498FD6 
 973      BB
 974 2825 7C10D8A0 		.ascii	"|\020\330\240Bw\031\002\247T\316\301AP\255A\021\370"
 974      42771902 
 974      A754CEC1 
 974      4150AD41 
 974      11F8
 975 2837 0174AC2C 		.ascii	"\001t\254,J\274D{\012F\245C\024\354\261\256\340\326"
 975      4ABC447B 
 975      0A46A543 
 975      14ECB1AE 
 975      E0D6
 976 2849 E58540B1 		.ascii	"\345\205@\261\313\242\305\301\022Z\033\217\033%\202"
 976      CBA2C5C1 
 976      125A1B8F 
 976      1B2582
 977 2858 07D6193D 		.ascii	"\007\326\031=\244\222\342\376\031\003\012\012t\236\322"
 977      A492E2FE 
 977      19030A0A 
 977      749ED2
 978 2867 F31D5EE8 		.ascii	"\363\035^\350\360<\353]\201\247Dl8\361Q\300\236U\014"
 978      F03CEB5D 
 978      81A7446C 
 978      38F151C0 
 978      9E550C
 979 287a 8A3AC043 		.ascii	"\212:\300C\361\252$;\340\302QT\032e%V \270\251\337\344"
 979      F1AA243B 
 979      E0C25154 
 979      1A652556 
 979      20B8A9DF 
 980 288f 450B425C 		.ascii	"E\013B\\)\370\205\210\004\214\213r\345$\366\311\255"
 980      29F88588 
 980      048C8B72 
 980      E524F6C9 
 980      AD
 981 28a0 C8B15BCF 		.ascii	"\310\261[\317^RQ\304IL\222#\024\016;\213*\242aw\004"
 981      5E5251C4 
 981      494C9223 
 981      140E3B8B 
 981      2AA26177 
 982 28b5 3D5B178D 		.ascii	"=[\027\215\013\211\267\352\00576@.\210?\033\200g\034"
 982      0B89B7EA 
 982      05373640 
 982      2E883F1B 
 982      80671C
 983 28c8 FD071539 		.ascii	"\375\007\0259\011\232gH8\223\210\376\021\005\275OhH"
 983      099A6748 
 983      389388FE 
ARM GAS  /tmp/cc8rfvLe.s 			page 79


 983      1105BD4F 
 983      6848
 984 28da 878A6038 		.ascii	"\207\212`8\332\241\243\003R\\E\244\260G\225\337^%n\034"
 984      DAA1A303 
 984      525C45A4 
 984      B04795DF 
 984      5E256E1C 
 985 28ee FDB5D3EF 		.ascii	"\375\265\323\357l9 \2410\010\221\350C\036^Q\037\246"
 985      6C3920A1 
 985      300891E8 
 985      431E5E51 
 985      1FA6
 986 2900 257B03B2 		.ascii	"%{\003\262\365\221\016\264\270\024Xu\202\254\242N\020"
 986      F5910EB4 
 986      B8145875 
 986      82ACA24E 
 986      10
 987 2911 56D48DAE 		.ascii	"V\324\215\256c\324E\332{4\2453\255\251a4\261\244\202"
 987      63D445DA 
 987      7B34A533 
 987      ADA96134 
 987      B1A482
 988 2924 5BE05520 		.ascii	"[\340U R>(L\254G:{\333\212\336\020\233\025*#J\332B\233"
 988      523E284C 
 988      AC473A7B 
 988      DB8ADE10 
 988      9B152A23 
 989 293c E00995A0 		.ascii	"\340\011\225\240iK\203o5\315\007\327\024\234Ba\177\000"
 989      694B836F 
 989      35CD07D7 
 989      149C4261 
 989      7F00
 990 294e 5506C978 		.ascii	"U\006\311xI~\037B;\211P\004s\273\3609_\244P\351T|yY"
 990      497E1F42 
 990      3B895004 
 990      73BBF039 
 990      5FA450E9 
 991 2966 8AFBE581 		.ascii	"\212\373\345\201+\342}y\341\033\235/{<\2425&<6/.\003"
 991      2BE27D79 
 991      E11B9D2F 
 991      7B3CA235 
 991      263C362F 
 992 297c 99A9DD01 		.ascii	"\231\251\335\00189\352\245W\275\364\275\245v\036pU\200"
 992      3839EAA5 
 992      57BDF4BD 
 992      A5761E70 
 992      5580
 993 298e AD2DEC7D 		.ascii	"\255-\354}+\000z\000v\325\365V Z^\341\201G\302\240\034"
 993      2B007A00 
 993      76D5F556 
 993      205A5EE1 
 993      8147C2A0 
 994 29a3 F01D2E84 		.ascii	"\360\035.\204o\337[e\345\321\342\242\267\001\345\255"
 994      6FDF5B65 
 994      E5D1E2A2 
 994      B701E5AD 
 995 29b3 00BD74BF 		.ascii	"\000\275t\277\005b({\323]\214\230-\312\007E\231b\335"
ARM GAS  /tmp/cc8rfvLe.s 			page 80


 995      0562287B 
 995      D35D8C98 
 995      2DCA0745 
 995      9962DD
 996 29c6 E5782115 		.ascii	"\345x!\025\367\227\312\3737\357\227\327%7\237\261\261"
 996      F797CAFB 
 996      37EF97D7 
 996      25379FB1 
 996      B1
 997 29d7 CF39BBE7 		.ascii	"\3179\273\347\367\315u\015\212\200\376<Ft\276\027\252"
 997      F7CD750D 
 997      8A80FE3C 
 997      4674BE17 
 997      AA
 998 29e8 70CFB262 		.ascii	"p\317\262b\322\302\240\215H\221BGa\377\001-\022\277"
 998      D2C2A08D 
 998      48914247 
 998      61FF012D 
 998      12BF
 999 29fa E50151CD 		.ascii	"\345\001Q\315\022\212\231\246\\\346\301\303-Y\235\314"
 999      128A99A6 
 999      5CE6C1C3 
 999      2D599DCC 
 1000 2a0a 8C0C76C1 		.ascii	"\214\014v\301Wi\004\354!\250g\020\014\241\273\014\023"
 1000      576904EC 
 1000      21A86710 
 1000      0CA1BB0C 
 1000      13
 1001 2a1b 54B5EE1E 		.ascii	"T\265\356\036\212\276J\025=]I\311,)\217\204\324\237"
 1001      8ABE4A15 
 1001      3D5D49C9 
 1001      2C298F84 
 1001      D49F
 1002 2a2d 73A06BEC 		.ascii	"s\240k\354RA\372\307t\026\327]\022*\033\020\035\350"
 1002      5241FAC7 
 1002      7416D75D 
 1002      122A1B10 
 1002      1DE8
 1003 2a3f 2B875FF0 		.ascii	"+\207_\360\371V\211\266\232\217}\220#\030\036`\313&"
 1003      F95689B6 
 1003      9A8F7D90 
 1003      23181E60 
 1003      CB26
 1004 2a51 C0F3A423 		.ascii	"\300\363\244#\035\034Duj\021\010\014(\033T\020Pn\323"
 1004      1D1C4475 
 1004      6A11080C 
 1004      281B5410 
 1004      506ED3
 1005 2a64 FED27F50 		.ascii	"\376\322\177PqI\364\331\342\262\027\005\360!\224T\360"
 1005      7149F4D9 
 1005      E2B21705 
 1005      F0219454 
 1005      F0
 1006 2a75 21075393 		.ascii	"!\007S\223\341\351\226\233\235\327\257W\276\253[n \347"
 1006      E1E9969B 
 1006      9DD7AF57 
 1006      BEAB5B6E 
ARM GAS  /tmp/cc8rfvLe.s 			page 81


 1006      20E7
 1007 2a87 95348861 		.ascii	"\2254\210a\240\362J \033\334Z\270\356\331'\237\\\246"
 1007      A0F24A20 
 1007      1BDC5AB8 
 1007      EED9279F 
 1007      5CA6
 1008 2a99 C3659F9C 		.ascii	"\303e\237\234|\305\227\307\233\000\230\211l\345\262"
 1008      7CC597C7 
 1008      9B009889 
 1008      6CE5B2
 1009 2aa8 6F97FC1E 		.ascii	"o\227\374\036-\361\351\277v\351\3253+\320\247K\357l"
 1009      2DF1E9BF 
 1009      76E9D533 
 1009      2BD0A74B 
 1009      EF6C
 1010 2aba 1F41CAEE 		.ascii	"\037A\312\356\3233;\313\013W\331\257\365\314\313\177"
 1010      D3333BCB 
 1010      0B57D9AF 
 1010      F5CCCB7F 
 1011 2aca 847924A7 		.ascii	"\204y$\247\353\377\204\221PkH!\343\235\354@\337\334"
 1011      EBFF8491 
 1011      506B4821 
 1011      E39DEC40 
 1011      DFDC
 1012 2adc 9C7C48C8 		.ascii	"\234|H\310\316j\305<\224\225K\306RJ\331\331}\272t\355"
 1012      CE6AC53C 
 1012      94954BC6 
 1012      524AD9D9 
 1012      7DBA74ED 
 1013 2af0 457F574A 		.ascii	"E\177WJ\317{=/?\2737)\270\367+\335\362\002]\272\346"
 1013      CF7B3D2F 
 1013      3FBB3729 
 1013      B8F72BDD 
 1013      F2025DBA 
 1014 2b05 E40200A1 		.ascii	"\344\002\000\241)\277g\357\354\234~\371\204\206^9\231"
 1014      29BF67EF 
 1014      EC9C7EF9 
 1014      84865E39 
 1014      99
 1015 2b16 AF6467B5 		.ascii	"\257dg\265\216\203\344\364\353\336\003\206\037\271\331"
 1015      8E83E4F4 
 1015      EBDE0386 
 1015      1FB9D9
 1016 2b25 3F27CFE5 		.ascii	"?'\317\345\344\004zw\351\363z \247ov\037\212\371\030"
 1016      E4047A77 
 1016      E9F37A20 
 1016      A76F761F 
 1016      8AF918
 1017 2b38 533E7497 		.ascii	"S>t\227\300I>\014\034\212\002\244\276<E0\300/'#\371"
 1017      C0493E0C 
 1017      1C8A02A4 
 1017      BE3C4530 
 1017      C02F2723 
 1018 2b4d 4029A9F7 		.ascii	"@)\251\367f8\036\007= 3\011\201\222H(\364\246\263\037"
 1018      66381E07 
 1018      3D203309 
 1018      81924828 
ARM GAS  /tmp/cc8rfvLe.s 			page 82


 1018      F4A6B31F 
 1019 2b61 880C6ED0 		.ascii	"\210\014n\320\3064+\030\230?\2600\257$\024\252peew\355"
 1019      C6342B18 
 1019      983FB030 
 1019      AF2414AA 
 1019      70656577 
 1020 2b76 D71DFBAE 		.ascii	"\327\035\373\256|\305\217o\226\270qB\375G\210VF\272"
 1020      7CC58F6F 
 1020      96B87142 
 1020      FD478856 
 1020      46BA
 1021 2b88 1444C174 		.ascii	"\024D\301ty\240e\226\221f\025!y\363\301\200\375_\322"
 1021      79A06596 
 1021      91661521 
 1021      79F3C180 
 1021      FD5FD2
 1022 2b9b 659976   		.ascii	"e\231v"
 1023              		.text
 1024              		.section	.gnu.lto_.symtab.71ba7478757c25a3,"",%progbits
 1025 0000 64617461 		.ascii	"dataLoggerInitialize\000\000\000\000\000\000\000\000"
 1025      4C6F6767 
 1025      6572496E 
 1025      69746961 
 1025      6C697A65 
 1026 001c 00000000 		.ascii	"\000\000\000\000U\003\000\000dataLoggerStop\000\000"
 1026      55030000 
 1026      64617461 
 1026      4C6F6767 
 1026      65725374 
 1027 0034 00000000 		.ascii	"\000\000\000\000\000\000\000\000\000\000\373\003\000"
 1027      00000000 
 1027      0000FB03 
 1027      00
 1028 0041 006C6F67 		.ascii	"\000logfileNew\000\000\000\000\000\000\000\000\000\000"
 1028      66696C65 
 1028      4E657700 
 1028      00000000 
 1028      00000000 
 1029 0056 00000104 		.ascii	"\000\000\001\004\000\000logfileSize\000\000\000\000"
 1029      00006C6F 
 1029      6766696C 
 1029      6553697A 
 1029      65000000 
 1030 006b 00000000 		.ascii	"\000\000\000\000\000\000\000\000\015\004\000\000log"
 1030      00000000 
 1030      0D040000 
 1030      6C6F67
 1031 007a 66696C65 		.ascii	"fileWriteCsv\000\000\000\000\000\000\000\000\000\000"
 1031      57726974 
 1031      65437376 
 1031      00000000 
 1031      00000000 
 1032 0090 00001304 		.ascii	"\000\000\023\004\000\000logfileGetWrCount\000\000\000"
 1032      00006C6F 
 1032      6766696C 
 1032      65476574 
 1032      5772436F 
ARM GAS  /tmp/cc8rfvLe.s 			page 83


 1033 00aa 00000000 		.ascii	"\000\000\000\000\000\000\000\000\000#\004\000\000lo"
 1033      00000000 
 1033      00230400 
 1033      006C6F
 1034 00b9 6766696C 		.ascii	"gfileClose\000\000\000\000\000\000\000\000\000\000\000"
 1034      65436C6F 
 1034      73650000 
 1034      00000000 
 1034      00000000 
 1035 00ce 00290400 		.ascii	"\000)\004\000\000logfileOpenAppend\000\000\000\000\000"
 1035      006C6F67 
 1035      66696C65 
 1035      4F70656E 
 1035      41707065 
 1036 00e9 00000000 		.ascii	"\000\000\000\000\000\000\000/\004\000\000logfileWri"
 1036      0000002F 
 1036      0400006C 
 1036      6F676669 
 1036      6C655772 
 1037 00fe 74650000 		.ascii	"te\000\000\000\000\000\000\000\000\000\000\000\0003"
 1037      00000000 
 1037      00000000 
 1037      000033
 1038 010d 04000064 		.ascii	"\004\000\000dataloggerThread\000\000\000\000\000\000"
 1038      6174616C 
 1038      6F676765 
 1038      72546872 
 1038      65616400 
 1039 0126 00000000 		.ascii	"\000\000\000\000\000\000A\004\000\000chvprintf\000\000"
 1039      00004104 
 1039      00006368 
 1039      76707269 
 1039      6E746600 
 1040 013b 02000000 		.ascii	"\002\000\000\000\000\000\000\000\000\000G\004\000\000"
 1040      00000000 
 1040      00004704 
 1040      0000
 1041 0149 665F6F70 		.ascii	"f_open\000\000\002\000\000\000\000\000\000\000\000\000"
 1041      656E0000 
 1041      02000000 
 1041      00000000 
 1041      0000
 1042 015b 56040000 		.ascii	"V\004\000\000f_close\000\000\002\000\000\000\000\000"
 1042      665F636C 
 1042      6F736500 
 1042      00020000 
 1042      000000
 1043 016e 00000000 		.ascii	"\000\000\000\000\211\004\000\000f_mount\000\000\002"
 1043      89040000 
 1043      665F6D6F 
 1043      756E7400 
 1043      0002
 1044 0180 00000000 		.ascii	"\000\000\000\000\000\000\000\000\000\215\004\000\000"
 1044      00000000 
 1044      008D0400 
 1044      00
 1045 018d 73646D6D 		.ascii	"sdmmcGetFS\000\000\002\000\000\000\000\000\000\000\000"
ARM GAS  /tmp/cc8rfvLe.s 			page 84


 1045      63476574 
 1045      46530000 
 1045      02000000 
 1045      00000000 
 1046 01a2 00930400 		.ascii	"\000\223\004\000\000f_lseek\000\000\002\000\000\000"
 1046      00665F6C 
 1046      7365656B 
 1046      00000200 
 1046      0000
 1047 01b4 00000000 		.ascii	"\000\000\000\000\000\000\227\004\000\000f_write\000"
 1047      00009704 
 1047      0000665F 
 1047      77726974 
 1047      6500
 1048 01c6 00020000 		.ascii	"\000\002\000\000\000\000\000\000\000\000\000\234\004"
 1048      00000000 
 1048      0000009C 
 1048      04
 1049 01d3 00006368 		.ascii	"\000\000chThdSleep\000\000\002\000\000\000\000\000\000"
 1049      54686453 
 1049      6C656570 
 1049      00000200 
 1049      00000000 
 1050 01e8 000000A7 		.ascii	"\000\000\000\247\004\000\000"
 1050      040000
 1051              		.text
 1052              		.section	.gnu.lto_.opts,"",%progbits
 1053 0000 272D6D63 		.ascii	"'-mcpu=cortex-m4' '-mfloat-abi=hard' '-mfpu=fpv4-sp"
 1053      70753D63 
 1053      6F727465 
 1053      782D6D34 
 1053      2720272D 
 1054 0033 2D643136 		.ascii	"-d16' '-mno-thumb-interwork' '-mthumb' '-O2' '-fomi"
 1054      2720272D 
 1054      6D6E6F2D 
 1054      7468756D 
 1054      622D696E 
 1055 0066 742D6672 		.ascii	"t-frame-pointer' '-falign-functions=16' '-ffunction"
 1055      616D652D 
 1055      706F696E 
 1055      74657227 
 1055      20272D66 
 1056 0099 2D736563 		.ascii	"-sections' '-fdata-sections' '-fno-common' '-flto' "
 1056      74696F6E 
 1056      73272027 
 1056      2D666461 
 1056      74612D73 
 1057 00cc 272D6673 		.ascii	"'-fsingle-precision-constant'\000"
 1057      696E676C 
 1057      652D7072 
 1057      65636973 
 1057      696F6E2D 
 1058              		.text
 1059              		.section	.text.chprintf,"ax",%progbits
 1060              		.align	2
 1061              		.p2align 4,,15
 1062              		.thumb
ARM GAS  /tmp/cc8rfvLe.s 			page 85


 1063              		.thumb_func
 1064              		.type	chprintf, %function
 1065              	chprintf:
 1066              		@ args = 4, pretend = 12, frame = 8
 1067              		@ frame_needed = 0, uses_anonymous_args = 1
 1068 0000 0EB4     		push	{r1, r2, r3}
 1069 0002 00B5     		push	{lr}
 1070 0004 82B0     		sub	sp, sp, #8
 1071 0006 03AA     		add	r2, sp, #12
 1072 0008 52F8041B 		ldr	r1, [r2], #4
 1073 000c 0192     		str	r2, [sp, #4]
 1074 000e FFF7FEFF 		bl	chvprintf
 1075 0012 02B0     		add	sp, sp, #8
 1076              		@ sp needed
 1077 0014 5DF804EB 		ldr	lr, [sp], #4
 1078 0018 03B0     		add	sp, sp, #12
 1079 001a 7047     		bx	lr
 1080              		.size	chprintf, .-chprintf
 1081 001c AFF30080 		.section	.text.dataLoggerInitialize,"ax",%progbits
 1082              		.align	2
 1083              		.p2align 4,,15
 1084              		.global	dataLoggerInitialize
 1085              		.thumb
 1086              		.thumb_func
 1087              		.type	dataLoggerInitialize, %function
 1088              	dataLoggerInitialize:
 1089              		@ args = 0, pretend = 0, frame = 0
 1090              		@ frame_needed = 0, uses_anonymous_args = 0
 1091 0000 70B5     		push	{r4, r5, r6, lr}
 1092 0002 0446     		mov	r4, r0
 1093 0004 0D46     		mov	r5, r1
 1094 0006 DAB1     		cbz	r2, .L6
 1095 0008 C0B1     		cbz	r0, .L3
 1096 000a 1249     		ldr	r1, .L11
 1097 000c 124E     		ldr	r6, .L11+4
 1098 000e 0260     		str	r2, [r0]
 1099 0010 1046     		mov	r0, r2
 1100 0012 002D     		cmp	r5, #0
 1101 0014 08BF     		it	eq
 1102 0016 0D46     		moveq	r5, r1
 1103 0018 3360     		str	r3, [r6]
 1104 001a FFF7FEFF 		bl	sdmmcGetFS
 1105 001e A560     		str	r5, [r4, #8]
 1106 0020 2946     		mov	r1, r5
 1107 0022 6060     		str	r0, [r4, #4]
 1108 0024 0122     		movs	r2, #1
 1109 0026 FFF7FEFF 		bl	f_mount
 1110 002a 0546     		mov	r5, r0
 1111 002c 58B9     		cbnz	r0, .L10
 1112 002e 0123     		movs	r3, #1
 1113 0030 3068     		ldr	r0, [r6]
 1114 0032 2373     		strb	r3, [r4, #12]
 1115 0034 0949     		ldr	r1, .L11+8
 1116 0036 FFF7FEFF 		bl	chprintf
 1117 003a 2846     		mov	r0, r5
 1118              	.L3:
 1119 003c 40B2     		sxtb	r0, r0
ARM GAS  /tmp/cc8rfvLe.s 			page 86


 1120 003e 70BD     		pop	{r4, r5, r6, pc}
 1121              	.L6:
 1122 0040 1046     		mov	r0, r2
 1123 0042 40B2     		sxtb	r0, r0
 1124 0044 70BD     		pop	{r4, r5, r6, pc}
 1125              	.L10:
 1126 0046 3068     		ldr	r0, [r6]
 1127 0048 0549     		ldr	r1, .L11+12
 1128 004a 2A46     		mov	r2, r5
 1129 004c FFF7FEFF 		bl	chprintf
 1130 0050 FF20     		movs	r0, #255
 1131 0052 F3E7     		b	.L3
 1132              	.L12:
 1133              		.align	2
 1134              	.L11:
 1135 0054 00000000 		.word	.LC0
 1136 0058 00000000 		.word	.LANCHOR0
 1137 005c 34000000 		.word	.LC2
 1138 0060 04000000 		.word	.LC1
 1139              		.size	dataLoggerInitialize, .-dataLoggerInitialize
 1140 0064 AFF30080 		.section	.text.dataLoggerStop,"ax",%progbits
 1140      AFF30080 
 1140      AFF30080 
 1141              		.align	2
 1142              		.p2align 4,,15
 1143              		.global	dataLoggerStop
 1144              		.thumb
 1145              		.thumb_func
 1146              		.type	dataLoggerStop, %function
 1147              	dataLoggerStop:
 1148              		@ args = 0, pretend = 0, frame = 0
 1149              		@ frame_needed = 0, uses_anonymous_args = 0
 1150 0000 074B     		ldr	r3, .L14
 1151 0002 0849     		ldr	r1, .L14+4
 1152 0004 10B5     		push	{r4, lr}
 1153 0006 0446     		mov	r4, r0
 1154 0008 1868     		ldr	r0, [r3]
 1155 000a FFF7FEFF 		bl	chprintf
 1156 000e 0020     		movs	r0, #0
 1157 0010 0146     		mov	r1, r0
 1158 0012 0246     		mov	r2, r0
 1159 0014 FFF7FEFF 		bl	f_mount
 1160 0018 0020     		movs	r0, #0
 1161 001a 2073     		strb	r0, [r4, #12]
 1162 001c 10BD     		pop	{r4, pc}
 1163              	.L15:
 1164 001e 00BF     		.align	2
 1165              	.L14:
 1166 0020 00000000 		.word	.LANCHOR0
 1167 0024 54000000 		.word	.LC3
 1168              		.size	dataLoggerStop, .-dataLoggerStop
 1169 0028 AFF30080 		.section	.text.logfileNew,"ax",%progbits
 1169      AFF30080 
 1170              		.align	2
 1171              		.p2align 4,,15
 1172              		.global	logfileNew
 1173              		.thumb
ARM GAS  /tmp/cc8rfvLe.s 			page 87


 1174              		.thumb_func
 1175              		.type	logfileNew, %function
 1176              	logfileNew:
 1177              		@ args = 0, pretend = 0, frame = 0
 1178              		@ frame_needed = 0, uses_anonymous_args = 0
 1179 0000 2DE9F041 		push	{r4, r5, r6, r7, r8, lr}
 1180 0004 124E     		ldr	r6, .L22
 1181 0006 0C46     		mov	r4, r1
 1182 0008 0546     		mov	r5, r0
 1183 000a 1249     		ldr	r1, .L22+4
 1184 000c 3068     		ldr	r0, [r6]
 1185 000e 9046     		mov	r8, r2
 1186 0010 1F46     		mov	r7, r3
 1187 0012 FFF7FEFF 		bl	chprintf
 1188 0016 247B     		ldrb	r4, [r4, #12]	@ zero_extendqisi2
 1189 0018 1CB9     		cbnz	r4, .L21
 1190              	.L19:
 1191 001a 2046     		mov	r0, r4
 1192 001c 40B2     		sxtb	r0, r0
 1193 001e BDE8F081 		pop	{r4, r5, r6, r7, r8, pc}
 1194              	.L21:
 1195 0022 0023     		movs	r3, #0
 1196 0024 C5F80C80 		str	r8, [r5, #12]
 1197 0028 6F60     		str	r7, [r5, #4]
 1198 002a 4046     		mov	r0, r8
 1199 002c 3946     		mov	r1, r7
 1200 002e 2B61     		str	r3, [r5, #16]
 1201 0030 0A22     		movs	r2, #10
 1202 0032 FFF7FEFF 		bl	f_open
 1203 0036 0446     		mov	r4, r0
 1204 0038 0028     		cmp	r0, #0
 1205 003a EED0     		beq	.L19
 1206 003c 3068     		ldr	r0, [r6]
 1207 003e 0649     		ldr	r1, .L22+8
 1208 0040 2246     		mov	r2, r4
 1209 0042 FFF7FEFF 		bl	chprintf
 1210 0046 E0B2     		uxtb	r0, r4
 1211 0048 40B2     		sxtb	r0, r0
 1212 004a BDE8F081 		pop	{r4, r5, r6, r7, r8, pc}
 1213              	.L23:
 1214 004e 00BF     		.align	2
 1215              	.L22:
 1216 0050 00000000 		.word	.LANCHOR0
 1217 0054 74000000 		.word	.LC4
 1218 0058 98000000 		.word	.LC5
 1219              		.size	logfileNew, .-logfileNew
 1220 005c AFF30080 		.section	.text.logfileSize,"ax",%progbits
 1221              		.align	2
 1222              		.p2align 4,,15
 1223              		.global	logfileSize
 1224              		.thumb
 1225              		.thumb_func
 1226              		.type	logfileSize, %function
 1227              	logfileSize:
 1228              		@ args = 0, pretend = 0, frame = 0
 1229              		@ frame_needed = 0, uses_anonymous_args = 0
 1230              		@ link register save eliminated.
ARM GAS  /tmp/cc8rfvLe.s 			page 88


 1231 0000 0020     		movs	r0, #0
 1232 0002 7047     		bx	lr
 1233              		.size	logfileSize, .-logfileSize
 1234 0004 AFF30080 		.section	.text.logfileWriteCsv,"ax",%progbits
 1234      AFF30080 
 1234      AFF30080 
 1235              		.align	2
 1236              		.p2align 4,,15
 1237              		.global	logfileWriteCsv
 1238              		.thumb
 1239              		.thumb_func
 1240              		.type	logfileWriteCsv, %function
 1241              	logfileWriteCsv:
 1242              		@ args = 0, pretend = 0, frame = 0
 1243              		@ frame_needed = 0, uses_anonymous_args = 0
 1244              		@ link register save eliminated.
 1245 0000 0020     		movs	r0, #0
 1246 0002 7047     		bx	lr
 1247              		.size	logfileWriteCsv, .-logfileWriteCsv
 1248 0004 AFF30080 		.section	.text.logfileGetWrCount,"ax",%progbits
 1248      AFF30080 
 1248      AFF30080 
 1249              		.align	2
 1250              		.p2align 4,,15
 1251              		.global	logfileGetWrCount
 1252              		.thumb
 1253              		.thumb_func
 1254              		.type	logfileGetWrCount, %function
 1255              	logfileGetWrCount:
 1256              		@ args = 0, pretend = 0, frame = 0
 1257              		@ frame_needed = 0, uses_anonymous_args = 0
 1258              		@ link register save eliminated.
 1259 0000 0069     		ldr	r0, [r0, #16]
 1260 0002 7047     		bx	lr
 1261              		.size	logfileGetWrCount, .-logfileGetWrCount
 1262 0004 AFF30080 		.section	.text.logfileClose,"ax",%progbits
 1262      AFF30080 
 1262      AFF30080 
 1263              		.align	2
 1264              		.p2align 4,,15
 1265              		.global	logfileClose
 1266              		.thumb
 1267              		.thumb_func
 1268              		.type	logfileClose, %function
 1269              	logfileClose:
 1270              		@ args = 0, pretend = 0, frame = 0
 1271              		@ frame_needed = 0, uses_anonymous_args = 0
 1272 0000 10B5     		push	{r4, lr}
 1273 0002 0446     		mov	r4, r0
 1274 0004 C068     		ldr	r0, [r0, #12]
 1275 0006 FFF7FEFF 		bl	f_close
 1276 000a 10B1     		cbz	r0, .L28
 1277 000c 0023     		movs	r3, #0
 1278 000e 2361     		str	r3, [r4, #16]
 1279 0010 0120     		movs	r0, #1
 1280              	.L28:
 1281 0012 40B2     		sxtb	r0, r0
ARM GAS  /tmp/cc8rfvLe.s 			page 89


 1282 0014 10BD     		pop	{r4, pc}
 1283              		.size	logfileClose, .-logfileClose
 1284 0016 00BFAFF3 		.section	.text.logfileOpenAppend,"ax",%progbits
 1284      0080AFF3 
 1284      0080
 1285              		.align	2
 1286              		.p2align 4,,15
 1287              		.global	logfileOpenAppend
 1288              		.thumb
 1289              		.thumb_func
 1290              		.type	logfileOpenAppend, %function
 1291              	logfileOpenAppend:
 1292              		@ args = 0, pretend = 0, frame = 0
 1293              		@ frame_needed = 0, uses_anonymous_args = 0
 1294 0000 38B5     		push	{r3, r4, r5, lr}
 1295 0002 0546     		mov	r5, r0
 1296 0004 1222     		movs	r2, #18
 1297 0006 C068     		ldr	r0, [r0, #12]
 1298 0008 6968     		ldr	r1, [r5, #4]
 1299 000a FFF7FEFF 		bl	f_open
 1300 000e 0446     		mov	r4, r0
 1301 0010 08B1     		cbz	r0, .L35
 1302              	.L31:
 1303 0012 60B2     		sxtb	r0, r4
 1304 0014 38BD     		pop	{r3, r4, r5, pc}
 1305              	.L35:
 1306 0016 E868     		ldr	r0, [r5, #12]
 1307 0018 C168     		ldr	r1, [r0, #12]
 1308 001a FFF7FEFF 		bl	f_lseek
 1309 001e 0446     		mov	r4, r0
 1310 0020 0028     		cmp	r0, #0
 1311 0022 F6D0     		beq	.L31
 1312 0024 E868     		ldr	r0, [r5, #12]
 1313 0026 FFF7FEFF 		bl	f_close
 1314 002a 60B2     		sxtb	r0, r4
 1315 002c 38BD     		pop	{r3, r4, r5, pc}
 1316              		.size	logfileOpenAppend, .-logfileOpenAppend
 1317 002e 00BF     		.section	.text.logfileWrite,"ax",%progbits
 1318              		.align	2
 1319              		.p2align 4,,15
 1320              		.global	logfileWrite
 1321              		.thumb
 1322              		.thumb_func
 1323              		.type	logfileWrite, %function
 1324              	logfileWrite:
 1325              		@ args = 0, pretend = 0, frame = 8
 1326              		@ frame_needed = 0, uses_anonymous_args = 0
 1327 0000 2DE9E041 		push	{r5, r6, r7, r8, lr}
 1328 0004 1E46     		mov	r6, r3
 1329 0006 83B0     		sub	sp, sp, #12
 1330 0008 0546     		mov	r5, r0
 1331 000a 8846     		mov	r8, r1
 1332 000c 1746     		mov	r7, r2
 1333 000e 2BB1     		cbz	r3, .L40
 1334 0010 C068     		ldr	r0, [r0, #12]
 1335 0012 FFF7FEFF 		bl	logfileOpenAppend
 1336 0016 10F0FF0F 		tst	r0, #255
ARM GAS  /tmp/cc8rfvLe.s 			page 90


 1337 001a 0AD1     		bne	.L38
 1338              	.L40:
 1339 001c 4146     		mov	r1, r8
 1340 001e E868     		ldr	r0, [r5, #12]
 1341 0020 3A46     		mov	r2, r7
 1342 0022 01AB     		add	r3, sp, #4
 1343 0024 FFF7FEFF 		bl	f_write
 1344 0028 10B9     		cbnz	r0, .L43
 1345 002a 019B     		ldr	r3, [sp, #4]
 1346 002c 9F42     		cmp	r7, r3
 1347 002e 04D0     		beq	.L47
 1348              	.L43:
 1349 0030 0120     		movs	r0, #1
 1350              	.L38:
 1351 0032 40B2     		sxtb	r0, r0
 1352 0034 03B0     		add	sp, sp, #12
 1353              		@ sp needed
 1354 0036 BDE8E081 		pop	{r5, r6, r7, r8, pc}
 1355              	.L47:
 1356 003a 2B69     		ldr	r3, [r5, #16]
 1357 003c 0133     		adds	r3, r3, #1
 1358 003e 2B61     		str	r3, [r5, #16]
 1359 0040 26B9     		cbnz	r6, .L48
 1360 0042 3046     		mov	r0, r6
 1361 0044 40B2     		sxtb	r0, r0
 1362 0046 03B0     		add	sp, sp, #12
 1363              		@ sp needed
 1364 0048 BDE8E081 		pop	{r5, r6, r7, r8, pc}
 1365              	.L48:
 1366 004c E868     		ldr	r0, [r5, #12]
 1367 004e FFF7FEFF 		bl	f_close
 1368 0052 0028     		cmp	r0, #0
 1369 0054 EDD0     		beq	.L38
 1370 0056 C0B2     		uxtb	r0, r0
 1371 0058 EBE7     		b	.L38
 1372              		.size	logfileWrite, .-logfileWrite
 1373 005a 00BFAFF3 		.section	.text.dataloggerThread,"ax",%progbits
 1373      0080
 1374              		.align	2
 1375              		.p2align 4,,15
 1376              		.global	dataloggerThread
 1377              		.thumb
 1378              		.thumb_func
 1379              		.type	dataloggerThread, %function
 1380              	dataloggerThread:
 1381              		@ args = 0, pretend = 0, frame = 0
 1382              		@ frame_needed = 0, uses_anonymous_args = 0
 1383 0000 90F8AC30 		ldrb	r3, [r0, #172]	@ zero_extendqisi2
 1384 0004 70B5     		push	{r4, r5, r6, lr}
 1385 0006 0446     		mov	r4, r0
 1386 0008 8BB1     		cbz	r3, .L51
 1387 000a 0A4E     		ldr	r6, .L57
 1388 000c 42F21075 		movw	r5, #10000
 1389              	.L52:
 1390 0010 D4F8B030 		ldr	r3, [r4, #176]
 1391 0014 05FB03F0 		mul	r0, r5, r3
 1392 0018 0138     		subs	r0, r0, #1
ARM GAS  /tmp/cc8rfvLe.s 			page 91


 1393 001a A6FB0030 		umull	r3, r0, r6, r0
 1394 001e 8009     		lsrs	r0, r0, #6
 1395 0020 0130     		adds	r0, r0, #1
 1396 0022 FFF7FEFF 		bl	chThdSleep
 1397 0026 94F8AC30 		ldrb	r3, [r4, #172]	@ zero_extendqisi2
 1398 002a 002B     		cmp	r3, #0
 1399 002c F0D1     		bne	.L52
 1400              	.L51:
 1401 002e 0020     		movs	r0, #0
 1402 0030 70BD     		pop	{r4, r5, r6, pc}
 1403              	.L58:
 1404 0032 00BF     		.align	2
 1405              	.L57:
 1406 0034 D34D6210 		.word	274877907
 1407              		.size	dataloggerThread, .-dataloggerThread
 1408 0038 AFF30080 		.section	.bss.DEBUG,"aw",%nobits
 1408      AFF30080 
 1409              		.align	2
 1410              		.set	.LANCHOR0,. + 0
 1411              		.type	DEBUG, %object
 1412              		.size	DEBUG, 4
 1413              	DEBUG:
 1414 0000 00000000 		.space	4
 1415              		.section	.rodata.str1.4,"aMS",%progbits,1
 1416              		.align	2
 1417              	.LC0:
 1418 0000 00       		.ascii	"\000"
 1419 0001 000000   		.space	3
 1420              	.LC1:
 1421 0004 44415441 		.ascii	"DATALOGGER: Error Mounting Filesystem,ERR%20d\012\000"
 1421      4C4F4747 
 1421      45523A20 
 1421      4572726F 
 1421      72204D6F 
 1422 0033 00       		.space	1
 1423              	.LC2:
 1424 0034 44415441 		.ascii	"DATALOGGER: Datalogger Started\012\000"
 1424      4C4F4747 
 1424      45523A20 
 1424      44617461 
 1424      6C6F6767 
 1425              	.LC3:
 1426 0054 44415441 		.ascii	"DATALOGGER: Datalogger Stopped\012\000"
 1426      4C4F4747 
 1426      45523A20 
 1426      44617461 
 1426      6C6F6767 
 1427              	.LC4:
 1428 0074 44415441 		.ascii	"DATALOGGER: Creating New Logfile\012\000"
 1428      4C4F4747 
 1428      45523A20 
 1428      43726561 
 1428      74696E67 
 1429 0096 0000     		.space	2
 1430              	.LC5:
 1431 0098 44415441 		.ascii	"DATALOGGER: Error creating Logfile, ERR%02d\012\000"
 1431      4C4F4747 
ARM GAS  /tmp/cc8rfvLe.s 			page 92


 1431      45523A20 
 1431      4572726F 
 1431      72206372 
 1432              		.comm	__gnu_lto_v1,1,1
 1433 00c5 000000   		.ident	"GCC: (GNU Tools for ARM Embedded Processors) 4.8.4 20140526 (release) [ARM/embedded-4_8-br
ARM GAS  /tmp/cc8rfvLe.s 			page 93


DEFINED SYMBOLS
                            *ABS*:0000000000000000 datalogger.c
     /tmp/cc8rfvLe.s:1060   .text.chprintf:0000000000000000 $t
     /tmp/cc8rfvLe.s:1065   .text.chprintf:0000000000000000 chprintf
     /tmp/cc8rfvLe.s:1082   .text.dataLoggerInitialize:0000000000000000 $t
     /tmp/cc8rfvLe.s:1088   .text.dataLoggerInitialize:0000000000000000 dataLoggerInitialize
     /tmp/cc8rfvLe.s:1135   .text.dataLoggerInitialize:0000000000000054 $d
     /tmp/cc8rfvLe.s:1141   .text.dataLoggerStop:0000000000000000 $t
     /tmp/cc8rfvLe.s:1147   .text.dataLoggerStop:0000000000000000 dataLoggerStop
     /tmp/cc8rfvLe.s:1166   .text.dataLoggerStop:0000000000000020 $d
     /tmp/cc8rfvLe.s:1170   .text.logfileNew:0000000000000000 $t
     /tmp/cc8rfvLe.s:1176   .text.logfileNew:0000000000000000 logfileNew
     /tmp/cc8rfvLe.s:1216   .text.logfileNew:0000000000000050 $d
     /tmp/cc8rfvLe.s:1221   .text.logfileSize:0000000000000000 $t
     /tmp/cc8rfvLe.s:1227   .text.logfileSize:0000000000000000 logfileSize
     /tmp/cc8rfvLe.s:1235   .text.logfileWriteCsv:0000000000000000 $t
     /tmp/cc8rfvLe.s:1241   .text.logfileWriteCsv:0000000000000000 logfileWriteCsv
     /tmp/cc8rfvLe.s:1249   .text.logfileGetWrCount:0000000000000000 $t
     /tmp/cc8rfvLe.s:1255   .text.logfileGetWrCount:0000000000000000 logfileGetWrCount
     /tmp/cc8rfvLe.s:1263   .text.logfileClose:0000000000000000 $t
     /tmp/cc8rfvLe.s:1269   .text.logfileClose:0000000000000000 logfileClose
     /tmp/cc8rfvLe.s:1285   .text.logfileOpenAppend:0000000000000000 $t
     /tmp/cc8rfvLe.s:1291   .text.logfileOpenAppend:0000000000000000 logfileOpenAppend
     /tmp/cc8rfvLe.s:1318   .text.logfileWrite:0000000000000000 $t
     /tmp/cc8rfvLe.s:1324   .text.logfileWrite:0000000000000000 logfileWrite
     /tmp/cc8rfvLe.s:1374   .text.dataloggerThread:0000000000000000 $t
     /tmp/cc8rfvLe.s:1380   .text.dataloggerThread:0000000000000000 dataloggerThread
     /tmp/cc8rfvLe.s:1406   .text.dataloggerThread:0000000000000034 $d
     /tmp/cc8rfvLe.s:1409   .bss.DEBUG:0000000000000000 $d
     /tmp/cc8rfvLe.s:1413   .bss.DEBUG:0000000000000000 DEBUG
     /tmp/cc8rfvLe.s:1416   .rodata.str1.4:0000000000000000 $d
                            *COM*:0000000000000001 __gnu_lto_v1
     /tmp/cc8rfvLe.s:1140   .text.dataLoggerInitialize:0000000000000064 $t
     /tmp/cc8rfvLe.s:1169   .text.dataLoggerStop:0000000000000028 $t
     /tmp/cc8rfvLe.s:1220   .text.logfileNew:000000000000005c $t
     /tmp/cc8rfvLe.s:1408   .text.dataloggerThread:0000000000000038 $t

UNDEFINED SYMBOLS
chvprintf
sdmmcGetFS
f_mount
f_open
f_close
f_lseek
f_write
chThdSleep
