ARM GAS  /tmp/ccryQ9rE.s 			page 1


   1              		.syntax unified
   2              		.cpu cortex-m3
   3              		.fpu softvfp
   4              		.eabi_attribute 20, 1
   5              		.eabi_attribute 21, 1
   6              		.eabi_attribute 23, 3
   7              		.eabi_attribute 24, 1
   8              		.eabi_attribute 25, 1
   9              		.eabi_attribute 26, 1
  10              		.eabi_attribute 30, 2
  11              		.eabi_attribute 34, 1
  12              		.eabi_attribute 18, 4
  13              		.thumb
  14              		.file	"fatfs_diskio.c"
  15              		.section	.gnu.lto_.jmpfuncs.ed27127b010030f5,"",%progbits
  16 0000 789C6362 		.ascii	"x\234cb`b\300\006^@in\006\006F\246j\206_\015\035\015"
  16      6062C006 
  16      5E40696E 
  16      060646A6 
  16      6A865F0D 
  17 0016 02998C0C 		.ascii	"\002\231\214\014\271\214`Q&l\202\314\330\004Y\260\011"
  17      B98C6051 
  17      266C82CC 
  17      D80459B0 
  17      09
  18 0027 B232B331 		.ascii	"\2622\26312\26032p\36030a\3122`\023d\006\212\22610p"
  18      32B03332 
  18      70F03330 
  18      61CA3260 
  18      1364068A 
  19 003f 92AC038B 		.ascii	"\222\254\003\213\365\\\354L@I\3062\250\032F\220'\001"
  19      F55CEC4C 
  19      4049C632 
  19      A81A4690 
  19      2701
  20 0051 543F267D 		.ascii	"T?&}"
  21              		.text
  22              		.section	.gnu.lto_.inline.ed27127b010030f5,"",%progbits
  23 0000 789C9551 		.ascii	"x\234\225QA\016\302 \020\234\205-\322B\223\306\030\017"
  23      410EC220 
  23      109C852D 
  23      D24293C6 
  23      180F
  24 0012 C684F8A1 		.ascii	"\306\204\370\241\336L\374\201\361'\036\373\000\017|"
  24      DE4CFC81 
  24      F1271EFB 
  24      000F7C
  25 0021 C8AB2FF0 		.ascii	"\310\253/\360\021\036] jj4U\022\206\205\231\331\205"
  25      111E5D20 
  25      6A6A3455 
  25      12868599 
  25      D985
  26 0033 4541E1D3 		.ascii	"EA\341\323\270PY\035\340\027\004\345o[\230\030\262X"
  26      B850591D 
  26      E01704E5 
  26      6F5B9818 
  26      B258
ARM GAS  /tmp/ccryQ9rE.s 			page 2


  27 0045 7B408EBE 		.ascii	"{@\216\276\021\032\266\023\202cx#\370\033Q\241a\322"
  27      111AB613 
  27      82637823 
  27      F81B51A1 
  27      61D2
  28 0057 D8EFE840 		.ascii	"\330\357\350@\271n\211\222\"m+\231\346$\006\037C\007"
  28      B96E8992 
  28      226D2B99 
  28      E624061F 
  28      4307
  29 0069 3A2BAB32 		.ascii	":+\2532&\245A\355D\370\262&\320\211H\025l\014Y\245\234"
  29      26A541ED 
  29      44F8B226 
  29      D0894815 
  29      6C0C59A5 
  30 007e 14C7EC0F 		.ascii	"\024\307\354\017\255\305\332\216\256\224\265\011xdX"
  30      ADC5DA8E 
  30      AE94B509 
  30      786458
  31 008d 1E03A3E3 		.ascii	"\036\003\243\343\247\217[bi\315\320s\213\022\324\330"
  31      A78F5B62 
  31      69CDD073 
  31      8B12D4D8 
  32 009d 985F32AD 		.ascii	"\230_2\255\256\363\211L\322,\026w\003g\247\237Q\\C?"
  32      AEF3894C 
  32      D22C1677 
  32      0367A79F 
  32      515C433F 
  33 00b1 F40E5A51 		.ascii	"\364\016ZQ\376\346G\327q\007iI&?"
  33      FEE647D7 
  33      71076949 
  33      263F
  34              		.text
  35              		.section	.gnu.lto_.pureconst.ed27127b010030f5,"",%progbits
  36 0000 789C6362 		.ascii	"x\234cb`b\020g\200\000n\006\011&\011f\011\026\011V)"
  36      60621067 
  36      80006E06 
  36      09260966 
  36      09160956 
  37 0015 36097609 		.ascii	"6\011v\011\016\011N\011.\011n\006\000\021\361\001Z"
  37      0E094E09 
  37      2E096E06 
  37      0011F101 
  37      5A
  38              		.text
  39              		.section	.gnu.lto_disk_initialize.part.0.ed27127b010030f5,"",%progbits
  40 0000 789C8552 		.ascii	"x\234\205RAk\023A\024~\337\314\354\354\246\006\364\""
  40      416B1341 
  40      147EDFCC 
  40      ECECA606 
  40      F422
  41 0012 5EA59782 		.ascii	"^\245\227\202\202\213\236\372\013\004=x\220\004\364"
  41      828B9EFA 
  41      0B043D78 
  41      9004F4
  42 0021 20B2D96D 		.ascii	" \262\331m\323\2414\221$\015\210\207Nl\220\034,\204"
  42      D3A13491 
ARM GAS  /tmp/ccryQ9rE.s 			page 3


  42      240D8887 
  42      4E6C901C 
  42      2C84
  43 0033 1EF5D222 		.ascii	"\036\365\322\"\336\024\361 \324\233\027A(U\304S\212"
  43      DE14F120 
  43      D49B1741 
  43      2855C453 
  43      8A
  44 0044 87E05585 		.ascii	"\207\340U\205\236E\\\337\314&\241\366\342\300\316{\357"
  44      9E455CDF 
  44      CC26A1F6 
  44      E2C0CE7B 
  44      EF
  45 0055 9BEFBDF7 		.ascii	"\233\357\275\367\275\331\021$\350\344\272\303\337u\206"
  45      BDD91124 
  45      E8E4BAC3 
  45      DF7586
  46 0064 6FB24589 		.ascii	"o\262E\211\020\015?\262\023Ax+\204\334Y$;\247\216\316"
  46      100D3FB2 
  46      1341782B 
  46      84DC5924 
  46      3BA78ECE 
  47 0078 922D4B28 		.ascii	"\222-K(\207\366\"%\202\301\002\303\332\355\345\000\272"
  47      87F62225 
  47      82C102C3 
  47      DAEDE500 
  47      BA
  48 0089 8035C2C2 		.ascii	"\2005\302\302\011\001\347\020h#\022R\005:\304\306m\270"
  48      0901E710 
  48      68231252 
  48      053AC4C6 
  48      6DB8
  49 009b 76629E76 		.ascii	"vb\236v\255\335\036\277\377\362\370\234\035\333\241"
  49      ADDD1EBF 
  49      FFF2F89C 
  49      1DDBA1
  50 00aa FD93E730 		.ascii	"\375\223\3470`a\327@)\350\026\007\210\274\021\370Wi"
  50      6061D740 
  50      29E81607 
  50      88BC11F8 
  50      5769
  51 00bc 91F9EECD 		.ascii	"\221\371\356\315\317=\330G\266w\224\347\247\015\244"
  51      CF3DD847 
  51      B67794E7 
  51      A70DA4
  52 00cb A01BFF4B 		.ascii	"\240\033\377K|%\3548\317G\337\242\022\310@\011\336\002"
  52      7C25EC38 
  52      CF47DFA2 
  52      12C84009 
  52      DE02
  53 00dd 49099E61 		.ascii	"I\011\236a\236\324\304\006\014J=\011x\005\324\267vx"
  53      9ED4C406 
  53      0C4A3D09 
  53      7805D4B7 
  53      7678
  54 00ef BE8813EC 		.ascii	"\276\210\023\354z4\365\205+\274\273\351*\334\216\255"
  54      7A34F585 
ARM GAS  /tmp/ccryQ9rE.s 			page 4


  54      2BBCBBE9 
  54      2ADC8EAD 
  55 00ff AC4278BB 		.ascii	"\254Bx\273\317\203'x\216\2002\307;\240\207\207{\207"
  55      CF832778 
  55      8E8032C7 
  55      3BA08787 
  55      7B87
  56 0111 E502A903 		.ascii	"\345\002\251\003\027\351\202\201~JOz\326\2361\010\037"
  56      17E98281 
  56      7E4A4F7A 
  56      D69E3108 
  56      1F
  57 0122 D02F3B70 		.ascii	"\320/;p^\264\006\307w\312#\257\2676\323\377\201\372"
  57      5EB406C7 
  57      77CA23AF 
  57      B736D3FF 
  57      81FA
  58 0134 3F7A9767 		.ascii	"?z\227g%\034E\007\307&\253@\322\316\"+P^\301'\352\217"
  58      251C4507 
  58      C726AB40 
  58      D2CE222B 
  58      505EC127 
  59 014a BF5F99D2 		.ascii	"\277_\231\322\305\254C)EQ\322!Q\321\261`\361\324s'\333"
  59      C5AC4329 
  59      4551D221 
  59      51D1B160 
  59      F1D47327 
  60 015f 08D7E658 		.ascii	"\010\327\346X\227\021I\207H\376y\277\367\265wA\362\305"
  60      97114987 
  60      48FE79BF 
  60      F7B57741 
  60      F2C5
  61 0171 56485465 		.ascii	"VHTe\336`A\036\320\346\333\315\327rZ@\325\3413N\251"
  61      DE60411E 
  61      D0E6DBCD 
  61      D7725A40 
  61      D5E1334E 
  62 0186 49852AB4 		.ascii	"I\205*\264\327\347ji>T`R\340\017\302\331\325\021_\033"
  62      D7E76A69 
  62      3E546052 
  62      E00FC2D9 
  62      D5115F1B 
  63 019a BFC3CFDE 		.ascii	"\277\303\317\336\255\027\002F\024\324\241\365\327\227"
  63      AD170246 
  63      14D4A1F5 
  63      D797
  64 01a8 70B3C271 		.ascii	"p\263\302q\335\013\276\032\2574\327\226\342\264\231"
  64      DD0BBE1A 
  64      AF34D796 
  64      E2B499
  65 01b7 DD8FB3A5 		.ascii	"\335\217\263\245n\234\256\230\232i\266\343Nk\275\261"
  65      6E9CAE98 
  65      9A69B6E3 
  65      4E6BBDB1 
  66 01c7 1AB3D34D 		.ascii	"\032\263\323MZ\246\271\336\216\227\223\316r\373n\315"
  66      5AA6B9DE 
  66      8E9793CE 
ARM GAS  /tmp/ccryQ9rE.s 			page 5


  66      72FB6ECD 
  67 01d7 3432D3A8 		.ascii	"42\323\250O\303\314\264WM\363RJ\352^\326\352\252v'\351"
  67      4FC3CCB4 
  67      574DF352 
  67      4AEA5ED6 
  67      EAAA7627 
  68 01ec FC056044 		.ascii	"\374\005`D\245\230"
  68      A598
  69              		.text
  70              		.section	.gnu.lto_disk_status.part.1.ed27127b010030f5,"",%progbits
  71 0000 789C8552 		.ascii	"x\234\205RAk\023A\024~\337\314\354\354\246V\360\240"
  71      416B1341 
  71      147EDFCC 
  71      ECECA656 
  71      F0A0
  72 0012 78955E0A 		.ascii	"x\225^\012\012.\336\372\013\004/\012\222\200\036D6\273"
  72      0A2EDEFA 
  72      0B042F0A 
  72      92801E44 
  72      36BB
  73 0024 6D329426 		.ascii	"m2\224&%I\003\342\241\023\233C\016\012\301\213\242\227"
  73      254903E2 
  73      A1139B43 
  73      0E0AC18B 
  73      A297
  74 0036 94D29BE8 		.ascii	"\224\322\233\350\251H\021\241'\011H\025\217\025\017"
  74      A94811A1 
  74      27094815 
  74      8F150F
  75 0045 3979D183 		.ascii	"9y\321\203\340M\304\370f6\011\265\027\007v\336{\337"
  75      E04DC4F8 
  75      663609B5 
  75      170776DE 
  75      7BDF
  76 0057 7CEFBDEF 		.ascii	"|\357\275\357\315\216 A'\327\035\376n0|\223-\012\204"
  76      CD8E2041 
  76      27D71DFE 
  76      6E307C93 
  76      2D0A84
  77 006a A8FF819D 		.ascii	"\250\377\201\235\010\302[!\344`\211\354\234\372q\216"
  77      08C25B21 
  77      E46089EC 
  77      9CFA718E 
  78 007a ECBC8472 		.ascii	"\354\274\204rh'R\"\350-2\254\335>\037@\347\260F\230"
  78      68275222 
  78      E82D32AC 
  78      DD3E1F40 
  78      E7B04698 
  79 008e 3B21E01C 		.ascii	";!\340\034\002mFB\252@\207\330\274\015\327N,\320\266"
  79      026D4642 
  79      AA4087D8 
  79      BC0DD74E 
  79      2CD0B6
  80 00a1 B58F47BB 		.ascii	"\265\217G\273_\207xb\017:\003\373{<\006\014X\3325P\012"
  80      5F877862 
  80      0F3A03FB 
  80      7B3C060C 
ARM GAS  /tmp/ccryQ9rE.s 			page 6


  80      58DA3550 
  81 00b6 BAC50122 		.ascii	"\272\305\001\"o\004\376\325\232\347\036\274y\367\350"
  81      6F04FED5 
  81      9AE71EBC 
  81      79F7E8
  82 00c5 BC1DD9BE 		.ascii	"\274\035\331\276\375\303\251\006R\320\365\377e\276\022"
  82      FDC3A906 
  82      52D0F5FF 
  82      65BE12
  83 00d4 76341EEF 		.ascii	"v4\036\357\377\214\012 \003%x\013$%\330\301\002\251"
  83      FF8C0A20 
  83      0325780B 
  83      2425D8C1 
  83      02A9
  84 00e6 890D1894 		.ascii	"\211\015\030\224z\022\360\012\250km\377B\036'\330\366"
  84      7A12F00A 
  84      A86B6DFF 
  84      421E27D8 
  84      F6
  85 00f7 68EA0B17 		.ascii	"h\352\013\027yw\003\026\271\035[Y\202\360\366=\317\236"
  85      79770316 
  85      B91D5B59 
  85      82F0F63D 
  85      CF9E
  86 0109 60170165 		.ascii	"`\027\001e\216wH\017>?\3756D\016U\200Kt\321@?\247g\035"
  86      8E77480F 
  86      3E3FFD36 
  86      440E5580 
  86      4B74D140 
  87 0121 6BCF1884 		.ascii	"k\317\030\204\367\351\227\3559/Z\203Kp\322#/\270<\033"
  87      F7E997ED 
  87      392F5A83 
  87      4B70D223 
  87      2FB83C1B 
  88 0135 6048DDEF 		.ascii	"`H\335\357\235+\263\022\216\242\203c\243\025!i\260\304"
  88      9D2BB312 
  88      8EA28363 
  88      A3152169 
  88      B0C4
  89 0147 129497F0 		.ascii	"\022\224\227\360\221\272\243\227;z\312\027\263\026\205"
  89      91BAA397 
  89      3B7ACA17 
  89      B31685
  90 0156 14794D87 		.ascii	"\024yM\207Dy\313\234\305s\317\235\354#\\\237cm\216H"
  90      4479CB9C 
  90      C573CF9D 
  90      EC235C9F 
  90      636D8E48 
  91 016a 3A44F21F 		.ascii	":D\362\037|\261W\365.H~\331['*1\257\267(\017ik\177\353"
  91      7CB157F5 
  91      2E487ED9 
  91      5B272A31 
  91      AFB7280F 
  92 0182 EDE96901 		.ascii	"\355\351i\001U\201\3178\245&\025J\320^\240\253\245\371"
  92      5581CF38 
  92      A526154A 
  92      D05EA0AB 
ARM GAS  /tmp/ccryQ9rE.s 			page 7


  92      A5F9
  93 0194 50814981 		.ascii	"P\201I\201?\010g\227G|q\374\030?y\267\222\0138\242\240"
  93      3F086797 
  93      477C71FC 
  93      183F79B7 
  93      920B38A2 
  94 01a9 02AD1FBE 		.ascii	"\002\255\037\276>\353\206\205\343\272g|5\256\326\327"
  94      3EEB8685 
  94      E3BA677C 
  94      35AED6D7 
  95 01b9 96E3B49E 		.ascii	"\226\343\264\236\335\213\263\345v\234VM\331\324\233"
  95      DD8BB3E5 
  95      769C564D 
  95      D9D49B
  96 01c8 71ABB151 		.ascii	"q\253\261Q[\215\331i'\015S\337h\306+Ik\245y\267lj\231"
  96      5B8DD969 
  96      270D53DF 
  96      68C62B49 
  96      6BA579B7 
  97 01df A955A661 		.ascii	"\251U\246af\232\253\246~9%\265\2365\332\252\331JZ\177"
  97      669AABA6 
  97      7E3925B5 
  97      9E35DAAA 
  97      D94A5A7F 
  98 01f3 01822EA8 		.ascii	"\001\202.\250i"
  98      69
  99              		.text
 100              		.section	.gnu.lto_disk_read.part.2.ed27127b010030f5,"",%progbits
 101 0000 789C9D92 		.ascii	"x\234\235\222?K\003A\020\305\347\355\356\305D\004-\254"
 101      3F4B0341 
 101      10C5E7ED 
 101      EEC54404 
 101      2DAC
 102 0012 45FC002E 		.ascii	"E\374\000.\266~\000\301\312&\212b\021.wI\\\304\234\344"
 102      B67E00C1 
 102      CA268A62 
 102      112E7749 
 102      5CC49CE4 
 103 0026 92805864 		.ascii	"\222\200Xd\003\021R\212\235`a\020\011\202(\330\011\026"
 103      0311528A 
 103      9D606110 
 103      098228D8 
 103      0916
 104 0038 36822028 		.ascii	"6\202 (\001\033\273\200\255\275 B\334\335\340\237X\211"
 104      011BBB80 
 104      ADBD2042 
 104      DCDDE09F 
 104      5889
 105 004a 0BF7DEEC 		.ascii	"\013\367\336\354\334\376f\206\333c\304\350\367\2325"
 105      DCFE6686 
 105      DB63C4E8 
 105      F79A35
 106 0059 CF338832 		.ascii	"\3173\2102\306\221 x\273\367&\360\300\2343&\256&H\017"
 106      C6912078 
 106      BBF726F0 
 106      C09C3326 
 106      AE26480F 
ARM GAS  /tmp/ccryQ9rE.s 			page 8


 107 006d F347497A 		.ascii	"\363GIz\204C\330l=)\000\033\020\250\3461.P[\201\255"
 107      8443D86C 
 107      3D29001B 
 107      10A8E631 
 107      2E505B81 
 108 0082 25A6A8A5 		.ascii	"%\246\250\245\365^w\347\365\026\373\372\272q\250\337"
 108      F55E77E7 
 108      F516FBFA 
 108      BA71A8DF 
 109 0092 7B3D40C1 		.ascii	"{=@\301\364\235\007\005\240e\263\301\2443&\006\007\351"
 109      F49D0705 
 109      A065B3C1 
 109      A4332606 
 109      07E9
 110 00a4 B3FA42EB 		.ascii	"\263\372B\353\224\343\270\002g\264\360\017L0Z\372#v"
 110      94E3B802 
 110      67B4F00F 
 110      4C305AFA 
 110      2376
 111 00b6 A635FFC4 		.ascii	"\2465\377\304<F\253\337X\262\217a\020;g\272\333\353"
 111      3C46ABDF 
 111      58B28F61 
 111      103B67BA 
 111      DBEB
 112 00c8 5DB6531E 		.ascii	"]\266S\036H!\301\214\014\231\264G\015\255w'}\2640E>"
 112      4821C18C 
 112      0C99B447 
 112      0DAD7727 
 112      7DB43045 
 113 00dd 8E9C1E3B 		.ascii	"\216\234\036;m\033%[\325\254\264Q\373\335\322\360\254"
 113      6D1B255B 
 113      D5ACB451 
 113      FBDDD2F0 
 113      AC
 114 00ee F34530E7 		.ascii	"\363E0\347\017\324\3506oF}\234\230\027\005`\233\336"
 114      0FD4E836 
 114      6F467D9C 
 114      98170560 
 114      9BDE
 115 0100 74538F29 		.ascii	"tS\217)$\003\364\007\260\231\244Bj\003\324?e\032\017"
 115      2403F407 
 115      B099A442 
 115      6A03D43F 
 115      651A0F
 116 0113 13DD52E3 		.ascii	"\023\335R\343\245>\363\305\331\211\023?\307M\203\323"
 116      A53EF3C5 
 116      D989133F 
 116      C74D83D3 
 117 0123 A3347D84 		.ascii	"\2434}\204\353sg\256\216(\2645;.,\300\375\020O\304,"
 117      EB7367AE 
 117      8E28B435 
 117      3B2E2CC0 
 117      FD104FC4 
 118 0138 3A64EEE9 		.ascii	":d\356\351\240\023\272\220\210\237v\306m\005X\324\036"
 118      A013BA90 
 118      889F76C6 
 118      6D0558D4 
ARM GAS  /tmp/ccryQ9rE.s 			page 9


 118      1E
 119 0149 9B936BD1 		.ascii	"\233\223k\321FN\006Q\270%\303\\U\006k*\253\242X\226"
 119      464E0651 
 119      B825C35C 
 119      55066B2A 
 119      ABA25896 
 120 015d 4B95E2BA 		.ascii	"K\225\342\2724A\325/\251\250\022\313\274_\316\307\231"
 120      3441D52F 
 120      A9A812CB 
 120      BC5FCEC7 
 120      99
 121 016e AC2A86AA 		.ascii	"\254*\206\252X\370\334\206*^W\321t@^\020U\212\345D\234"
 121      58F8DC86 
 121      2A5E57D1 
 121      74405E10 
 121      558AE544 
 122 0183 0BCA5149 		.ascii	"\013\312QId+\371\274\330\014K\325\017Vc\223\225"
 122      642BF9BC 
 122      D80C4BD5 
 122      0F566393 
 122      95
 123              		.text
 124              		.section	.gnu.lto_disk_write.part.3.ed27127b010030f5,"",%progbits
 125 0000 789C9D92 		.ascii	"x\234\235\222\273J\003A\024\206\317?3\233\213\010ZX"
 125      BB4A0341 
 125      1486CF3F 
 125      339B8B08 
 125      5A58
 126 0012 4BC80338 		.ascii	"K\310\0038\330\372\000\202\225M\024\305B6\273\271\014"
 126      D8FA0082 
 126      954D14C5 
 126      4236BBB9 
 126      0C
 127 0023 6256B249 		.ascii	"bV\262I@,2B\012K\261\263SDD\004\005k\021KEQ\004\033"
 127      402C3242 
 127      0A4BB1B3 
 127      53444404 
 127      056B114B 
 128 003b 894540EC 		.ascii	"\211E@\354|\002\021\342\314\204x\253\304\201\375\377"
 128      7C0211E2 
 128      CC8478AB 
 128      C481FDFF 
 129 004b 3367E73B 		.ascii	"3g\347;\347\260\263\214\030\375^\023\346y\006\321\242"
 129      E7B0B38C 
 129      18FD5E13 
 129      E67906D1 
 129      A2
 130 005c 712408DE 		.ascii	"q$\010\336\346\255\011<0\347\214\211\263Q\322\003\374"
 130      E6AD093C 
 130      30E78C89 
 130      B351D203 
 130      FC
 131 006d 41921EE4 		.ascii	"A\222\036\344\0206\273\236\022\200\015\010\324\364\030"
 131      1036BB9E 
 131      12800D08 
 131      D4F418
 132 007c 1768CEC3 		.ascii	"\027h\316\303\326\022Y\332\325z\253\263\177t\205m}\321"
ARM GAS  /tmp/ccryQ9rE.s 			page 10


 132      D61259DA 
 132      D57AABB3 
 132      7F74856D 
 132      7DD1
 133 008e DAD1EFDD 		.ascii	"\332\321\357\335.\240`\372N\201\002\320\234\331 \343"
 133      2EA060FA 
 133      4E8102D0 
 133      9CD920E3 
 134 009e 8C899F83 		.ascii	"\214\211\237\203\364X}\252u\332q\\\2013\232\376\007"
 134      F4587DAA 
 134      75DA715C 
 134      81339AFE 
 134      07
 135 00af 2618CDFE 		.ascii	"&\030\315\376\021;\326\232\3671\217\321\302\027\226"
 135      113BD69A 
 135      F7318FD1 
 135      C21796
 136 00be EA61F889 		.ascii	"\352a\370\211\2350\335\351v\267\317\323\036H!\301\214"
 136      9D30DDE9 
 136      76B7CFD3 
 136      1E4821C1 
 136      8C
 137 00cf 244DDAA3 		.ascii	"$M\332\243\226\326\233\031\037\273\310\222\217=\247"
 137      96D69B19 
 137      1FBBC892 
 137      8F3DA7
 138 00de FB4E0F8C 		.ascii	"\373N\017\214\222\255jV\316\250\375n9x\326\371\014\230"
 138      92AD6A56 
 138      CEA8FD6E 
 138      3978D6F9 
 138      0C98
 139 00f0 F33B6A75 		.ascii	"\363;ju\332/C>\016\315\213\022\260FozC\017+\244\002"
 139      DA2F433E 
 139      0ECD8B12 
 139      B0466F7A 
 139      430F2BA4 
 140 0105 F406B099 		.ascii	"\364\006\260\231\224Bz\031\324;e\032\017\020]R\353u"
 140      94427A19 
 140      D43B651A 
 140      0F105D52 
 140      EB75
 141 0117 7DFC93B3 		.ascii	"}\374\223\263\023'\276\217\233\003\247\007i\372\010"
 141      1327BE8F 
 141      9B03A707 
 141      69FA08
 142 0126 D7E7DA5C 		.ascii	"\327\347\332\\\035Qhk\336\273\260\004\367C<\022\263"
 142      1D51686B 
 142      DEBBB004 
 142      F7433C12 
 142      B3
 143 0137 68D2DCD3 		.ascii	"h\322\334\323M;t!\021\177j\217\330\012\260\250=6)\313"
 143      4D3B7421 
 143      117F6A8F 
 143      D80AB0A8 
 143      3D3629CB 
 144 014b D1724106 		.ascii	"\321rA\006Q\270*\303BC\006e\225WQ,k\325zeI\232\240\341"
 144      51B82AC3 
ARM GAS  /tmp/ccryQ9rE.s 			page 11


 144      42430665 
 144      9557512C 
 144      6BD57A65 
 145 0163 5755548F 		.ascii	"WUT\217e\321\257\025\343\305\274\252\204\252R\352oC"
 145      65D1AF15 
 145      E3C5BCAA 
 145      84AA52EA 
 145      6F43
 146 0175 152FA968 		.ascii	"\025/\251h, /\210\352\225Z\".\004\265\250*\362\365b"
 146      2C202F88 
 146      EA955A22 
 146      2E04B5A8 
 146      2AF2F562 
 147 0189 51AC84D5 		.ascii	"Q\254\204\325\306\007\223\010\224H"
 147      C6079308 
 147      9448
 148              		.text
 149              		.section	.gnu.lto_disk_ioctl.part.4.ed27127b010030f5,"",%progbits
 150 0000 789C5D50 		.ascii	"x\234]P=K\003A\020\235\267\267{\306F\254\255\304\037"
 150      3D4B0341 
 150      109DB7B7 
 150      7BC646AC 
 150      ADC41F
 151 0013 E0FD0B41 		.ascii	"\340\375\013A\301.\001\255\344\314\231d\021s\2223\001"
 151      C12E01AD 
 151      E4CC9964 
 151      11739233 
 151      01
 152 0024 2B37123B 		.ascii	"+7\022;E\261\021b\243\210X\332\210\250\225\255\370\001"
 152      45B11162 
 152      A38858DA 
 152      88A895AD 
 152      F801
 153 0036 766A1544 		.ascii	"vj\025D\360\007h%B\234\335\273\210qag\336\316\333y\363"
 153      F0076825 
 153      429CDDBB 
 153      88716167 
 153      DECEDB79 
 154 004b 760509FA 		.ascii	"v\005\011\372\277\246x\237\201h\2323\006\010\376\316"
 154      BFA6789F 
 154      81689A33 
 154      0608FECE 
 155 005b 03031FC2 		.ascii	"\003\003\037\302e\341\311\215\02129\345\242\227F(\313"
 155      65E1C98D 
 155      113239E5 
 155      A2974628 
 155      CB
 156 006c 3573B207 		.ascii	"5s\262\007\024`\001\201\326|\356PX\233\205\325\306\030"
 156      14600181 
 156      D67CEE50 
 156      589B85D5 
 156      C618
 157 007e 1D1AB3DB 		.ascii	"\035\032\263\3339~\275\301\236\271n\036\230\357n\027"
 157      397EBDC1 
 157      9EB96E1E 
 157      98EF6E17 
 158 008e D0601F93 		.ascii	"\320`\037\223\240\"h\206\017\310\271$\320o\354T\230"
ARM GAS  /tmp/ccryQ9rE.s 			page 12


 158      A0226886 
 158      0FC8B924 
 158      D06FEC54 
 158      98
 159 009f 4EB77BF9 		.ascii	"N\267{\37158\000,q\007\007x\244y\023)j\031\2633\032"
 159      3538002C 
 159      71070778 
 159      A4791329 
 159      6A19B333 
 160 00b4 E2904790 		.ascii	"\342\220G\220\025\342\225\347hm\344\341\333\354\025"
 160      15E295E7 
 160      686DE4E1 
 160      DBEC15
 161 00c3 205CBE65 		.ascii	" \\\276e\207!\216\240(\342\012\335Q\253\323>AZ)\003"
 161      87218EA0 
 161      28E20ADD 
 161      51ABD33E 
 161      415A2903 
 162 00d7 5BB4D96C 		.ascii	"[\264\331l\231\353\227!\015ie\"7\201(\253\237\333\272"
 162      99EB9721 
 162      0D696522 
 162      378128AB 
 162      9FDBBA
 163 00ea F5472929 		.ascii	"\365G))\377\222W\277\244p\244\372\343\277\300:\033#"
 163      FF9257BF 
 163      A470A4FA 
 163      E3BFC03A 
 163      1B23
 164 00fc 7DD399BE 		.ascii	"}\323\231\276\247\365\213\247\367\033/-\355S\273i\314"
 164      A7F58BA7 
 164      F71B2F2D 
 164      ED53BB69 
 164      CC
 165 010d B0862A43 		.ascii	"\260\206*CX\035\337\265Z\244\214\374\025\222\377\205"
 165      581DDFB5 
 165      5AA48CFC 
 165      1592FF85 
 166 011d BC1EA368 		.ascii	"\274\036\243h;{a\346\355\321\301rz\343\231<+\305X\334"
 166      3B7B61E6 
 166      EDD1C172 
 166      7AE3993C 
 166      2BC558DC 
 167 0131 7D4419F4 		.ascii	"}D\031\364>\023\207$\311\267\272\375-X\015\353\177\""
 167      3E138724 
 167      C9B7BAFD 
 167      2D580DEB 
 167      7F22
 168 0143 A8C44B0B 		.ascii	"\250\304K\013A1\216V\203h\241\021\024+z^\307I\260R\253"
 168      41318E56 
 168      8368A111 
 168      142B7A5E 
 168      C749B052 
 169 0158 57170306 		.ascii	"W\027\003\006\215\260\246\343z\022\224\302\225R27\257"
 169      8DB0A6E3 
 169      7A1294C2 
 169      95523237 
 169      AF
ARM GAS  /tmp/ccryQ9rE.s 			page 13


 170 0169 AB91AE96 		.ascii	"\253\221\256\226{\307H'\213:\036/\222\\\216j\215\037"
 170      7BC74827 
 170      8B3A1E2F 
 170      925C8E6A 
 170      8D1F
 171 017b FADC83D2 		.ascii	"\372\334\203\322"
 172              		.text
 173              		.section	.gnu.lto_disk_initialize.ed27127b010030f5,"",%progbits
 174 0000 789C5D4F 		.ascii	"x\234]O\261J\003A\020}3\273\321+-\255\304/p\311O\210"
 174      B14A0341 
 174      107D33BB 
 174      D12B2DAD 
 174      C42F70C9 
 175 0016 1F60402B 		.ascii	"\037`@+\271\334%\227%\344\016rI@,r!\021,\024R\370\003"
 175      B9DC2597 
 175      25E40E72 
 175      49402C72 
 175      21112C14 
 176 002d FE808275 		.ascii	"\376\200\202u\212\364\212\242\244\021,\362\0356qg/\007"
 176      8AF48AA2 
 176      A4112CF2 
 176      1D367167 
 176      2F07
 177 003f E2C2CE9B 		.ascii	"\342\302\316\233\235\267\363\336\014\203\361\377\324"
 177      9DB7F3DE 
 177      0C83F1FF 
 177      D4
 178 004c DD0D0838 		.ascii	"\335\015\0108qH5\020\317\337\200I\300\254\027\007(\002"
 178      71483510 
 178      CFDF8049 
 178      C0AC1707 
 178      2802
 179 005e B5321249 		.ascii	"\2652\022IK\2314\221 \010cV\232\306\347\3445\236x\271"
 179      4B993491 
 179      20086356 
 179      9AC6E7E4 
 179      359E78B9 
 180 0072 DE6C1E9F 		.ascii	"\336l\036\237\257?\367w\031\226\240$h\352y\272\206Y"
 180      AF3FF777 
 180      1996A024 
 180      68EA79BA 
 180      8659
 181 0084 51CC0F81 		.ascii	"Q\314\017\201\310?O]\024\221\006\261\240z\305t\375\275"
 181      C83F4F5D 
 181      149106B1 
 181      A07AC574 
 181      FDBD
 182 0096 13D28373 		.ascii	"\023\322\203sOH\337\341v2+\366,\371\317q\011(\253\313"
 182      4F48DFE1 
 182      76322BF6 
 182      2CF9CF71 
 182      0928ABCB 
 183 00aa 05B9FA99 		.ascii	"\005\271\372\231\013\\\222\177\327i\220\302\312\250"
 183      0B5C927F 
 183      D76990C2 
 183      CAA8
 184 00b8 17377C29 		.ascii	"\0277|)\346\351wL\203J[]\341\247\270\021m\025mu-\351"
ARM GAS  /tmp/ccryQ9rE.s 			page 14


 184      E6E9774C 
 184      834A5B5D 
 184      E1A7B811 
 184      6D156D75 
 185 00ce AA5BFB69 		.ascii	"\252[\373i\244}k\373\341\323\2444\371\002;\001\345\315"
 185      A47D6BFB 
 185      E1D3A434 
 185      F9023B01 
 185      E5CD
 186 00e0 DDFA7C5F 		.ascii	"\335\372|_\227MHz\204?6\235\254\3272Q\026_\232\2705"
 186      974D487A 
 186      843F369D 
 186      ACD73251 
 186      165F9AB8 
 187 00f5 3251C736 		.ascii	"2Q\3076m\226\233A\177\230v\215KFa\337f\303\334\264\303"
 187      6D969B41 
 187      7F98768D 
 187      4B4661DF 
 187      66C3DCB4 
 188 010a 413BBF68 		.ascii	"A;\277h\3324\266iR=c\233wmv\024\341\027MmU\234"
 188      DA34B669 
 188      523D639B 
 188      776D7614 
 188      E1174D6D 
 189              		.text
 190              		.section	.gnu.lto_disk_status.ed27127b010030f5,"",%progbits
 191 0000 789C5D50 		.ascii	"x\234]P=N\002A\024\376\336\233A7V\236\300x\002'\226"
 191      3D4E0241 
 191      14FEDE9B 
 191      4137569E 
 191      C0780227 
 192 0015 5E807800 		.ascii	"^\200x\000I\2642\313,,\023\302n\302\002\211\261`\011"
 192      49B432CB 
 192      2C2C13C2 
 192      6EC20289 
 192      B16009
 193 0028 14169A70 		.ascii	"\024\026\232p\003\365\002\332ZXP\030\033\374\211\206"
 193      03F502DA 
 193      5A585018 
 193      1BFC8986 
 194 0038 C68E73D0 		.ascii	"\306\216s\320\340\314,\233\030'\231\367\275\337\357"
 194      E0CC2C9B 
 194      182799F7 
 194      BDDFEF
 195 0047 7B330CC6 		.ascii	"{3\014\306\377sh\357\016\001\307\026\251\002\342\351"
 195      FF7368EF 
 195      0E01C716 
 195      A902E2E9 
 196 0057 07300A98 		.ascii	"\0070\012\230\345\363\036\362@,\224\263$]\232$\221C"
 196      E5F31EF2 
 196      402C94B3 
 196      245D9A24 
 196      9143
 197 0069 10862C24 		.ascii	"\020\206,$\015\317\310s<\362l\271^?<\275\336\275\023"
 197      0DCFC873 
 197      3CF26CB9 
 197      5E3F3CBD 
ARM GAS  /tmp/ccryQ9rE.s 			page 15


 197      DEBD13
 198 007c 6D330C41 		.ascii	"m3\014A8#\251\343\033*\230\344\371t\037\320><\261\326"
 198      3823A9E3 
 198      1B2A98E4 
 198      F9741FD0 
 198      3E3CB1D6 
 199 0090 D1D4881D 		.ascii	"\321\324\210\035\2127\214\227\267:\244{\253\037\223"
 199      8A378C97 
 199      B73AA47B 
 199      AB1F93
 200 009f BCC1F568 		.ascii	"\274\301\365h\222\357\032\362\315Q\001(\262\263\357"
 200      92EF1AF2 
 200      CD510128 
 200      B2B3EF
 201 00ae 2D9B3F25 		.ascii	"-\233?%C\\\024\377>\250F\002\013%\346v\375\202\314\227"
 201      435C14FF 
 201      3EA84602 
 201      0B25E676 
 201      FD82CC97 
 202 00c2 3F310E4A 		.ascii	"?1\016Jnq\211U~\345\270\205\336\360\032\222\345\264"
 202      6E718955 
 202      7EE5B885 
 202      DEF01A92 
 202      E5B4
 203 00d4 F4DBB8F1 		.ascii	"\364\333\270\361\215\354\227w\343B\344\007l\011\204"
 203      8DEC9777 
 203      E342E407 
 203      6C0984
 204 00e3 17B71FC0 		.ascii	"\027\267\037\300/G\356%\344f\\\275\252Zi\247\241t\032"
 204      2F47EE25 
 204      E4665CBD 
 204      AA5A69A7 
 204      A1741A
 205 00f6 5DA8A831 		.ascii	"]\250\2501P\272e\352&\315T\257\333O\332\312:\203\260"
 205      50BA65EA 
 205      26CD54AF 
 205      DB4FDACA 
 205      3A83B0
 206 0109 6BD27EA6 		.ascii	"k\322~\246\232a\257\231\235\327M\022\231$.\303\310d"
 206      9A61AF99 
 206      9DD74D12 
 206      99242EC3 
 206      C864
 207 011b 6D931E68 		.ascii	"m\223\036h\374\002\2759V\335"
 207      FC02BD39 
 207      56DD
 208              		.text
 209              		.section	.gnu.lto_disk_read.ed27127b010030f5,"",%progbits
 210 0000 789C6D52 		.ascii	"x\234mR\315KTQ\024?\347\336\367=o\232\0214\020$Z\027"
 210      CD4B5451 
 210      143FE7DE 
 210      F73D6F9A 
 210      11341024 
 211 0016 F40872ED 		.ascii	"\364\010r\355\"\210\376\200\204Z\205\363\236>\0372N"
 211      2288FE80 
 211      845A85F3 
 211      9E3E1F32 
ARM GAS  /tmp/ccryQ9rE.s 			page 16


 211      4E
 212 0027 382A440B 		.ascii	"8*D\013\337\364&\020*\222hU\004\265\217\202\226Q\250"
 212      DFF42610 
 212      2A926855 
 212      04B58F82 
 212      9651A8
 213 003a 6D1C7234 		.ascii	"m\034r4\"\211FZ\010\271\263E\233\350\303\302\316\271"
 213      2289465A 
 213      08B9B345 
 213      9BE8C3C2 
 213      CEB9
 214 004c 6FDE13C5 		.ascii	"o\336\023\305\003s\356\371\370\235\337\357\276;G\200"
 214      0373EEF9 
 214      F89DDFEF 
 214      BE3B4780 
 215 005c 80C396D0 		.ascii	"\200\303\226\320\357\274\004\270H'\026\000\305\302:"
 215      EFBC04B8 
 215      48271600 
 215      C5C23A
 216 006b 40C312C2 		.ascii	"@\303\022\302yv\016bKn\367\263\027\316\253\026@\354"
 216      79760E62 
 216      4B6EF7B3 
 216      17CEAB16 
 216      40EC
 217 007d 689F7488 		.ascii	"h\237t\210]M8\257OP\246ox\224\351h\361\014\032\302y"
 217      5D4D38AF 
 217      4F50A66F 
 217      7894E968 
 217      F10C1AC2 
 218 0092 2BA96AAE 		.ascii	"+\251j\256\277#\250k\246\345e\313\022\206\25286\267"
 218      BF23A86B 
 218      A6E565CB 
 218      1286AA38 
 218      36B7
 219 00a4 5D1B1D05 		.ascii	"]\033\035\005w\020\371\004\2049!5\3350-\333\301\271"
 219      7710F904 
 219      84392135 
 219      DD302DDB 
 219      C1B9
 220 00b6 2BA86EF5 		.ascii	"+\250n\365B,m\355\355=\337Xy\362\030\305q\204*\322\325"
 220      422C6DED 
 220      ED3DDF58 
 220      79F218C5 
 220      71842AD2 
 221 00cb AB881222 		.ascii	"\253\210\022\"\004\235\235\201U\024\026EhS$\013\024"
 221      049D9D81 
 221      55141645 
 221      6853240B 
 221      14
 222 00dc 09972228 		.ascii	"\011\227\"(\222\303\022\247e\036\353\341\261^v}\234"
 222      92C312A7 
 222      651EEBE1 
 222      B15E767D 
 222      9C
 223 00ed 92E9D08C 		.ascii	"\222\351\320\214\343\205\223\000\276J/\221\347\213\014"
 223      E3859300 
 223      BE4A2F91 
ARM GAS  /tmp/ccryQ9rE.s 			page 17


 223      E78B0C
 224 00fc A3E053B6 		.ascii	"\243\340S\266!\331\332\361G\360)\352\020\242q\027\356"
 224      21D9DAF1 
 224      47F029EA 
 224      10A27117 
 224      EE
 225 010d 349A7139 		.ascii	"4\232q9\"i\262\0005u\277\264\272\264iR\3752Fi5\240\211"
 225      2269B200 
 225      3575BFB4 
 225      BAB46952 
 225      FD324669 
 226 0124 7D1BA689 		.ascii	"}\033\246\211\355~\271J\217\231\222\251\366\032\334"
 226      ED7EB94A 
 226      8F9992A9 
 226      F61ADC
 227 0133 DCFCBCDB 		.ascii	"\334\374\274\333\302\214\337:\015\247\"\324\037\301"
 227      C28CDF3A 
 227      0DA722D4 
 227      1FC1
 228 0141 C346CC2A 		.ascii	"\303F\314*\306\015\370\023\317sdV\321 \032f7\025a\005"
 228      C60DF813 
 228      CF736456 
 228      D1201A66 
 228      37156105 
 229 0155 33EA1634 		.ascii	"3\352\0264\2775\316\346\024\014\321\017Jk\360\035\345"
 229      BF35CEE6 
 229      140CD10F 
 229      4A6BF01D 
 229      E5
 230 0166 7BB8B5F5 		.ascii	"{\270\265\365\353k)\303\025rj\313\307\224\213+V*\225"
 230      EB6B29C3 
 230      15726ACB 
 230      C7948B2B 
 230      562A95
 231 0179 A2086647 		.ascii	"\242\010fGh\037\226(\260\304\201\335\031\246\372}~\223"
 231      681F9628 
 231      B0C481DD 
 231      19A6FA7D 
 231      7E93
 232 018b 0EF485E8 		.ascii	"\016\364\205\350j\330\201\336\020\213\032r\313\200\227"
 232      6AD881DE 
 232      108B1A72 
 232      CB8097
 233 019a AE52DF4D 		.ascii	"\256R\337Mr\365R\256\356\370]\252\243\324I\247\320U"
 233      72F552AE 
 233      EEF85DAA 
 233      A3D449A7 
 233      D055
 234 01ac 1FCC478F 		.ascii	"\037\314G\217P7a\247 \327 \271\235\374\2747\220\001"
 234      503761A7 
 234      20D720B9 
 234      9DFCBC37 
 234      9001
 235 01be CB34CF58 		.ascii	"\3134\317X7\346\377\203\272\363\311\357\374\002=!\012"
 235      37E6FF83 
 235      BAF3C9EF 
 235      FC023D21 
ARM GAS  /tmp/ccryQ9rE.s 			page 18


 235      0A
 236 01cf 6E16F7C8 		.ascii	"n\026\367\310J9\221\005\377\\\311z\313?V\212\0316\005"
 236      4A399105 
 236      FF5CC97A 
 236      CB3F568A 
 236      193605
 237 01e2 EEEB7500 		.ascii	"\356\353u\000C\354\323\311\225\315/\213\327: B\354\345"
 237      43ECD3C9 
 237      95CD2F8B 
 237      D73A2042 
 237      ECE5
 238 01f4 B4C7DC1E 		.ascii	"\264\307\334\036b\026\033V\201\2768\2612\006=\377\334"
 238      62161B56 
 238      81BE38B1 
 238      32063DFF 
 238      DC
 239 0205 637EBA3A 		.ascii	"c~\272:\264\221\245L\324Q\233\306\253\321]\251\017*"
 239      B491A54C 
 239      D4519BC6 
 239      ABD15DA9 
 239      0F2A
 240 0217 0C536407 		.ascii	"\014Sd\007\324N\201\004\371\367\315\200\012\021\264"
 240      D44E8104 
 240      F9F7CD80 
 240      0A11B4
 241 0226 0743DDC8 		.ascii	"\007C\335\310h/\006*\324@\264?\272\244e#\25712)?\323"
 241      682F062A 
 241      D440B43F 
 241      BAA46523 
 241      AF313229 
 242 023c 056FBC56 		.ascii	"\005o\274V\035\365\374Zp\335\013Fg=\177<\252D\265\272"
 242      1DF5FC5A 
 242      70DD0B46 
 242      673D7F3C 
 242      AA44B5BA 
 243 0250 373D3533 		.ascii	"7=539\341Q0;2\025\325f\352\336\330\310\364X\375j%\232"
 243      39E15130 
 243      3B3215D5 
 243      66EADED8 
 243      C8F458FD 
 244 0267 0CA2C930 		.ascii	"\014\242\3110K\203\250>\021\325\316\370\360\037\224"
 244      4B83A83E 
 244      11D5CEF8 
 244      F01F94
 245 0276 3CDB7C   		.ascii	"<\333|"
 246              		.text
 247              		.section	.gnu.lto_disk_write.ed27127b010030f5,"",%progbits
 248 0000 789C6D53 		.ascii	"x\234mS\315K\025Q\024?\347\316\307\273o\346\215O\237"
 248      CD4B1551 
 248      143FE7CE 
 248      C7BB6FE6 
 248      8D4F9F
 249 0013 F0D48DB4 		.ascii	"\360\324\215\264\214\202\206\240M\377@\364\007$$-Bg"
 249      8C8286A0 
 249      4DFF40F4 
 249      0724242D 
 249      4267
ARM GAS  /tmp/ccryQ9rE.s 			page 19


 250 0025 741CE4F9 		.ascii	"t\034\344\371\300\247R\264p^\357\011\222\006B\341\""
 250      C0A752B4 
 250      705EEF09 
 250      920642E1 
 250      22
 251 0036 3705B58B 		.ascii	"7\005\265\213\334\207\013\215\026~\244\021D0E\360 \335"
 251      DC870B8D 
 251      167EA411 
 251      443045F0 
 251      20DD
 252 0048 B5681512 		.ascii	"\265h\025\022\222\235s\347\315\210\346\2059\367|\374"
 252      929D73E7 
 252      CD88E685 
 252      39F77CFC 
 253 0058 CEEF77E7 		.ascii	"\316\357w\347\316\031\001\002\316\256'\364\254j\000"
 253      CE190102 
 253      CEAE27F4 
 253      AC6A00
 254 0067 3769C702 		.ascii	"7i\307\002\240X\332\003\250K!\354\327\327 \222\332~"
 254      A058DA03 
 254      A84B21EC 
 254      D7D72092 
 254      DA7E
 255 0079 1F5B61BF 		.ascii	"\037[a\277\335\004\210,\375\213\001QA\027\366\334\006"
 255      DD04882C 
 255      FD8B0151 
 255      4117F6DC 
 255      06
 256 008a 87C68243 		.ascii	"\207\306\202C\241!\354\265~\212\314\317.E&\346\231\002"
 256      A121ECB5 
 256      7E8ACCCF 
 256      2E4526E6 
 256      9902
 257 009c 73C27EA7 		.ascii	"s\302~\247QV\356m\023\264 \223\364\206\314\213\234\312"
 257      5156EE6D 
 257      13B42093 
 257      F486CC8B 
 257      9CCA
 258 00ae 5816970B 		.ascii	"X\026\227\013\026\332\012n#\362\016\010\263B\323\015"
 258      16DA0A6E 
 258      23F20E08 
 258      B342D30D 
 259 00be 3327F396 		.ascii	"3'\363\226\215\263\203\250N\271*\326[\307\307o~o??D"
 259      8DB383A8 
 259      4EB92AD6 
 259      5BC7C76F 
 259      7E6F3F3F 
 260 00d3 D18B5041 		.ascii	"\321\213PAz\225\012\242\006!\202\301\306\304\012\012"
 260      7A950AA2 
 260      062182C1 
 260      C6C40A0A 
 261 00e3 491E5A64 		.ascii	"I\036Zd\204M\241\346\260\327A\036\024\311`\027\207%"
 261      844DA1E6 
 261      B0D7411E 
 261      14C96017 
 261      8725
 262 00f5 EEEDE6DE 		.ascii	"\356\355\346\3362\233\036\016i\031\320\214\242\245\013"
ARM GAS  /tmp/ccryQ9rE.s 			page 20


 262      329B1E0E 
 262      6919D08C 
 262      A2A50B
 263 0104 009E0A6F 		.ascii	"\000\236\012o\221\345\343\014\240\340]\373\000\215\326"
 263      91E5E30C 
 263      A0E05DFB 
 263      008DD6
 264 0113 DAC810BE 		.ascii	"\332\310\020\276@\003\0024\037\303b\275\031u\206\244"
 264      40030234 
 264      1FC362BD 
 264      197586A4 
 265 0123 4FCB475D 		.ascii	"O\313G]\0352\311\256\037Y\224\277\215a\222\365\251\343"
 265      1D32C9AE 
 265      1F5994BF 
 265      8D6192F5 
 265      A9E3
 266 0135 640D50C7 		.ascii	"d\015P\307~\237\266C7\234\220\251\362.<\374z\270\272"
 266      7E9FB643 
 266      379C90A9 
 266      F22E3CFC 
 266      7AB8BA
 267 0148 8529BFBC 		.ascii	"\205)\277\274\014\227B4V\340Y=b\025\363\001\374\211"
 267      0C974234 
 267      56E0593D 
 267      6215F301 
 267      FC89
 268 015a E6D9CB55 		.ascii	"\346\331\313U\320$\032f\317)\302aL\2517\241\371\263"
 268      D0241A66 
 268      CF29C261 
 268      4CA937A1 
 268      F9B3
 269 016c 7E35A360 		.ascii	"~5\243`\210qZZ\207_\250}\204fk\353\225\231\342\254\214"
 269      88715A5A 
 269      875FA87D 
 269      84666BEB 
 269      9599E2AC 
 270 0181 5A7A9870 		.ascii	"Zz\230pqF&R\011\212\256-\177\226\337b\376S\3234@\371"
 270      71462652 
 270      098AAE2D 
 270      7F96DF62 
 270      FE53D334 
 271 0197 8B443FD7 		.ascii	"\213D?\327\332\231+\2450'\243\267\2746\374\177\372\000"
 271      DA992BA5 
 271      3027A3B7 
 271      BC36FC7F 
 271      FA00
 272 01a9 ED10EDB3 		.ascii	"\355\020\355\263\012\3169\012&\364\322\215\307\320\023"
 272      0ACE390A 
 272      26F4D28D 
 272      C7D013
 273 01b8 60878131 		.ascii	"`\207\2011\224\003,\032\310\225\034<\022J|\357\240\230"
 273      94032C1A 
 273      C8951C3C 
 273      124A7CEF 
 273      A098
 274 01ca 327465E2 		.ascii	"2te\342\005/\371R\347\212\223\214\323\026\277\236\265"
 274      052FF952 
ARM GAS  /tmp/ccryQ9rE.s 			page 21


 274      E78A938C 
 274      D316BF9E 
 274      B5
 275 01db 9E232EE1 		.ascii	"\236#.\341/j\273\320Xh\374X\356O\201%\352glG\304_\233"
 275      2F6ABBD0 
 275      5868FC58 
 275      EE4F8125 
 275      EA676C47 
 276 01f2 AAF38D83 		.ascii	"\252\363\215\203rZ\354\016Pp\261xL\253\230\021\345a"
 276      725AEC0E 
 276      5070B178 
 276      4CAB9811 
 276      E561
 277 0204 5968ACB7 		.ascii	"Yh\254\267\261\262\343\244\330\004x\242\027\003\006"
 277      B1B2E3A4 
 277      D80478A2 
 277      170306
 278 0213 D8639229 		.ascii	"\330c\222)\311\305o\367b\020\001\2269\354\226O\3570"
 278      C9C56FF7 
 278      62100196 
 278      39EC964F 
 278      EF30
 279 0225 8B050EBD 		.ascii	"\213\005\016\275pC\246\004F\366\266\235^{ C\032\371"
 279      7043A604 
 279      46F6B69D 
 279      5E7B2043 
 279      1AF9
 280 0237 B6A6ADC6 		.ascii	"\266\246\255\306\230\347\256=\257\237\224\033$\367\022"
 280      98E7AE3D 
 280      AF9F941B 
 280      24F712
 281 0246 831A58D0 		.ascii	"\203\032X\320@[\214}\345\012\320_\016*\217~\260\367"
 281      405B8C7D 
 281      E50AD05F 
 281      0E2A8F7E 
 281      B0F7
 282 0258 A9973B8A 		.ascii	"\251\227;\212\247\224\253\2038\372^ U\013\371oA\246"
 282      A794AB83 
 282      38FA5E20 
 282      550BF96F 
 282      41A6
 283 026a E7FBBAE1 		.ascii	"\347\373\272\341\216U+#\256W\365\357\273\376\310\214"
 283      8E552B23 
 283      AE57F5EF 
 283      BBFEC88C 
 284 027a EB8D85C3 		.ascii	"\353\215\205\303a\265\346NMNO\214\273\344\314\014M\206"
 284      61B5E64E 
 284      4D4E4F8C 
 284      BBE4CC0C 
 284      4D86
 285 028c D5E99A3B 		.ascii	"\325\351\232;:45Z\273;\034N\370\341D\220\206~X\033\017"
 285      3A34355A 
 285      BB3B1C4E 
 285      F8E14490 
 285      867E581B 
 286 02a1 AB573CF8 		.ascii	"\253W<\370\007\364\\\362\365"
 286      07F45CF2 
ARM GAS  /tmp/ccryQ9rE.s 			page 22


 286      F5
 287              		.text
 288              		.section	.gnu.lto_disk_ioctl.ed27127b010030f5,"",%progbits
 289 0000 789C5D8F 		.ascii	"x\234]\217\261J\003A\020\206\347\337\335\204\263\021"
 289      B14A0341 
 289      1086E7DF 
 289      DD84B311 
 290 0010 DB58F904 		.ascii	"\333X\371\004.\202\317 >\200\007Z\311\345.\271,!w\220"
 290      2E82CF20 
 290      3E80075A 
 290      C9E52EB9 
 290      2C217790 
 291 0024 4B022292 		.ascii	"K\002\"\222\013\236`\241\230\007\260\320^\024\362\004"
 291      0B9E60A1 
 291      9807B0D0 
 291      5E14F204 
 292 0034 E99588A5 		.ascii	"\351\225\210\245]\2124\276\202M\234\335\363@\\\330\177"
 292      5D8A34BE 
 292      824D9CDD 
 292      F3405CD8 
 292      7F
 293 0045 666766BF 		.ascii	"fgf\277\231\021$\350\377\331\343\273\015\242C\266\250"
 293      991124E8 
 293      FFD9E3BB 
 293      0DA243B6 
 293      A8
 294 0056 11C47441 		.ascii	"\021\304tA4\361\204PO\373\224{r\325\260\012e\303P\200"
 294      34F18450 
 294      4FFB947B 
 294      72D5B00A 
 294      65C35080 
 295 006a B5041A0B 		.ascii	"\265\004\032\013\2510>\201c\274\210\371r\275~\276_<"
 295      A9303E81 
 295      63BC88F9 
 295      72BD7EBE 
 295      5F3C
 296 007c 7C416E80 		.ascii	"|An\200\014\270\021\213D\017\244XPg\261\275kT\344\371"
 296      0CB8118B 
 296      440FA458 
 296      5067B1BD 
 296      6B54E4F9 
 297 0090 74872874 		.ascii	"t\207(t?\217X-\320\347$[\371F\227\313\2738\300#O\022"
 297      3F8F582D 
 297      D0E7245B 
 297      F94697CB 
 297      BB38C023 
 298 00a6 43DED2CD 		.ascii	"C\336\322\315\244\310\267\014\\q\004\351\272\225\321"
 298      A4C8B70C 
 298      5C7104E9 
 298      BA95D1
 299 00b5 F96C93E3 		.ascii	"\371l\223\343\3070\216\313I\365g)\237KW\015\371\312"
 299      C7308ECB 
 299      49F56729 
 299      9F4B570D 
 299      F9CA
 300 00c7 8B943097 		.ascii	"\213\2240\227~\247+\257b\213s\372\316\257-[\206%\236"
 300      7EA72BAF 
ARM GAS  /tmp/ccryQ9rE.s 			page 23


 300      628B73FA 
 300      CEAF2D5B 
 300      86259E
 301 00da 832A46DD 		.ascii	"\203*F\335T \237\035;\223\205\3746\377pn\\\326\177\022"
 301      54209F1D 
 301      3B9385FC 
 301      36FF706E 
 301      5CD67F12 
 302 00ee 1823DD08 		.ascii	"\030#\335\010\244H\024\027v\037\330?v\242\003\335I{"
 302      A4481417 
 302      761FD83F 
 302      76A203DD 
 302      497B
 303 0100 2D1DA6D1 		.ascii	"-\035\246\321\231\216Z#\035vL\323\244\231\036\364\207"
 303      998E5A23 
 303      1D764CD3 
 303      A4991EF4 
 303      87
 304 0111 4957B333 		.ascii	"IW\2633\012\372&\035f\272\035\014\332\331i\323$\221"
 304      0AFA261D 
 304      66BA1D0C 
 304      DAD969D3 
 304      2491
 305 0123 49E2EA19 		.ascii	"I\342\352\031\231\254k\322\335\220~\000F\203X\235"
 305      99AC6BD2 
 305      DD907E00 
 305      4683589D 
 306              		.text
 307              		.section	.gnu.lto_get_fattime.ed27127b010030f5,"",%progbits
 308 0000 789C6362 		.ascii	"x\234cb`b@\007\222@\034\017\304\036@\314\310\314\300"
 308      60624007 
 308      92401C0F 
 308      C41E40CC 
 308      C8CCC0
 309 0013 C834E11C 		.ascii	"\3104\341\034\003C#\007\023##\210\301\300\310P\317\304"
 309      03432307 
 309      13232388 
 309      C1C0C850 
 309      CFC4
 310 0025 581FC908 		.ascii	"X\037\311\010V\273\236\351\300\203\377\377\327\3358"
 310      56BB9EE9 
 310      C083FFFF 
 310      D7DD38
 311 0034 3FE70EE3 		.ascii	"?\347\016\343~&\220Y\254\014-\015\015\023\024\030\030"
 311      7E269059 
 311      AC0C2D0D 
 311      0D131418 
 311      18
 312 0045 92C12A42 		.ascii	"\222\301*B\200$H[(#\023\210f\276\310\320\370\340\367"
 312      8024485B 
 312      28231388 
 312      66BEC8D0 
 312      F8E0F7
 313 0058 72C644C6 		.ascii	"r\306D\306\205\214\254\014\021\214\231\214\014\015\015"
 313      858CAC0C 
 313      118C998C 
 313      0C0D0D
ARM GAS  /tmp/ccryQ9rE.s 			page 24


 314 0067 2D8C509B 		.ascii	"-\214P\233C\030\031A\212@\306\270\351g\344\347\246\352"
 314      43181941 
 314      8A40C6B8 
 314      E967E4E7 
 314      A6EA
 315 0079 27E7A754 		.ascii	"'\347\247T\352\247\244\226\351'gd&e\346\027\353\227"
 315      EAA7A496 
 315      E9276764 
 315      2665E617 
 315      EB97
 316 008b 1495E665 		.ascii	"\024\225\346e\353\003\031e\211E\231\371\245\305\372"
 316      EB031965 
 316      894599F9 
 316      A5C5FA
 317 009a 69892569 		.ascii	"i\211%i\305\361I\231y)\231y\3510nJfqvf\276^2\003\000"
 317      C5F14999 
 317      79299979 
 317      E9306E4A 
 317      66717666 
 318 00b3 578B3802 		.ascii	"W\2138\002"
 319              		.text
 320              		.section	.gnu.lto_.symbol_nodes.ed27127b010030f5,"",%progbits
 321 0000 789C4DC9 		.ascii	"x\234M\311;N\303P\024\204\341\231{\354\30478\017#Q\262"
 321      3B4EC350 
 321      1484E199 
 321      7BECC437 
 321      380F2351 
 322 0015 03F6C18E 		.ascii	"\003\366\301\216h'\222%\2242\033\200\202\212u$\022\257"
 322      68279225 
 322      94321B80 
 322      828A7524 
 322      12AF
 323 0027 0443C233 		.ascii	"\004C\3023]\010\015[H\20308\342\336\323\374\372\346"
 323      5D080D5B 
 323      48833038 
 323      E2DED3FC 
 323      FAE6
 324 0039 38389C10 		.ascii	"88\234\020\315\271\027\012\030W\200t6bz_?\004\367J1"
 324      CDB9170A 
 324      18578074 
 324      36627A5F 
 324      3F04F74A 
 325 004e ACEE8D72 		.ascii	"\254\356\215r\021\337)\213\270\242\222\210\327T\272"
 325      11DF298B 
 325      B8A29288 
 325      D754BA
 326 005d E379CD1B 		.ascii	"\343y\315\033\252\025\361\226jG\274\243\262\2103\312"
 326      AA15F196 
 326      6A47BCA3 
 326      B28833CA 
 327 006d 479C539D 		.ascii	"G\234S\235@V\324^\303\341\220\\Py\3203\325\015z\244"
 327      4056D45E 
 327      C3E1905C 
 327      5079D033 
 327      D50D7AA4 
 328 0081 7A410F54 		.ascii	"zA\017T?\350\211\032\004-\251\342_\206\034\237\353o"
 328      3FE8891A 
ARM GAS  /tmp/ccryQ9rE.s 			page 25


 328      042DA9E2 
 328      5F861C9F 
 328      EB6F
 329 0093 9ADBD5BA 		.ascii	"\232\333\325\272(\177\233\364\232\266\200\311eEk\273"
 329      287F9BF4 
 329      9AB680C9 
 329      65456BBB 
 330 00a3 A6D900E5 		.ascii	"\246\331\000\345G\235>\246\333\003\313\014\233+3\237"
 330      479D3EA6 
 330      DB03CB0C 
 330      9B2B339F 
 331 00b3 FF8D7E1F 		.ascii	"\377\215~\037\323\302|\201\362\364\320|\202\213c\353"
 331      D3C27C81 
 331      F2F4D07C 
 331      828B63EB 
 332 00c3 A4987C1D 		.ascii	"\244\230|\035\341\007e\251o\243"
 332      E10765A9 
 332      6FA3
 333              		.text
 334              		.section	.gnu.lto_.refs.ed27127b010030f5,"",%progbits
 335 0000 789C2588 		.ascii	"x\234%\210\311\015\0000\014\203\014\311\243\235\244"
 335      C90D0030 
 335      0C830CC9 
 335      A39DA4
 336 000f FB6FD8CB 		.ascii	"\373o\330\313\022 \331\230\225?\023D\257\251CK\215\367"
 336      1220D998 
 336      953F1344 
 336      AFA9434B 
 336      8DF7
 337 0021 D1F357B2 		.ascii	"\321\363W\262\001\0157\000r"
 337      010D3700 
 337      72
 338              		.text
 339              		.section	.gnu.lto_.decls.ed27127b010030f5,"",%progbits
 340 0000 789CBD5C 		.ascii	"x\234\275\\\013t\024E\272\356\356\231\311[\236\273\370"
 340      0B741445 
 340      BAEEEE99 
 340      C95B9EBB 
 340      F8
 341 0011 B8EE7176 		.ascii	"\270\356qv\317\356=\236\275\273\206\207\253\270\347"
 341      CFEE3D9E 
 341      BDBB8687 
 341      ABB8E7
 342 0020 5C574CD0 		.ascii	"\\WL\320\315]^g\022t\367\334\33536\223\016\2315\311"
 342      CD5D5E67 
 342      1274F7DC 
 342      DD333693 
 342      0E9935C9 
 343 0034 64672610 		.ascii	"dg&\020\356\275g\267\011\362\006\305\310\033\344\345"
 343      EEBD67B7 
 343      09F206C5 
 343      C81BE4E5 
 344 0044 E2033440 		.ascii	"\342\0034@0H\220\340\004\005BP\344a\214\200\220!\242"
 344      304890E0 
 344      04054250 
 344      E4618C80 
 344      9021A2
ARM GAS  /tmp/ccryQ9rE.s 			page 26


 345 0057 3C141010 		.ascii	"<\024\020\020QX\311\375\353\357\356\351\356\232\356"
 345      5158C9FD 
 345      EBEFEEE9 
 345      EE9AEE
 346 0066 9EEE71CF 		.ascii	"\236\356q\317\3169U]SS\365\325\377\252\277\376\252\356"
 346      CE39555D 
 346      5353F5D5 
 346      FFAABFFE 
 346      AAEE
 347 0078 1E8EE198 		.ascii	"\036\216\341\2309n\206\351\201\317\363\377\3150\367"
 347      396E86E9 
 347      81CFF3FF 
 347      CD30F7
 348 0087 E5324C1E 		.ascii	"\3452L\036\3030\017B\342 \255\206\344#\005\370\364\203"
 348      C3300F42 
 348      E220AD86 
 348      E42305F8 
 348      F483
 349 0099 3416CA7F 		.ascii	"4\026\312\177\204\364\004\244\010\244\211\220&C\232"
 349      84F404A4 
 349      08A48990 
 349      26439A
 350 00a8 01690EA4 		.ascii	"\001i\016\244\325\2206@j\206\324\002\251\025\322\333"
 350      D5903640 
 350      6A86D402 
 350      A915D2DB 
 351 00b8 9076416A 		.ascii	"\220vAj\207\364>\244\017 \261\200\365\241\214\253|\010"
 351      87F43EA4 
 351      0F20B180 
 351      F5A18CAB 
 351      7C08
 352 00ca 769E3C5E 		.ascii	"v\236<^/F*?\016\345\313p\335\004\351\"\24452M\037A\375"
 352      2F462A3F 
 352      0EE5CB70 
 352      DD04E922 
 352      A435324D 
 353 00e1 0E1987A4 		.ascii	"\016\031\207\244\0132\275c\345q]P>\302Ic\034\245\306"
 353      0B32BD63 
 353      E5715D50 
 353      3EC24963 
 353      1CA5C6
 354 00f4 F9E33F61 		.ascii	"\371\343?a\234?j\3069&\217\36315\016\221\021\210\223"
 354      9C3F6AC6 
 354      39268FF3 
 354      31350E91 
 354      118893
 355 0107 59A819A7 		.ascii	"Y\250\031\247\036\312\3638il2\3268N\032\203\214\265"
 355      1ECAF338 
 355      696C32D6 
 355      384E1A83 
 355      8CB5
 356 0119 43EECFC9 		.ascii	"C\356\317\311}\211\3548YN\307)\354\210\011\366Z\033"
 356      7D89EC38 
 356      594EC729 
 356      EC8809F6 
 356      5A1B
 357 012b D8115927 		.ascii	"\330\021Y'\012\366\011\012\233\3504\223\222\017\301"
ARM GAS  /tmp/ccryQ9rE.s 			page 27


 357      0AF6090A 
 357      9BE83493 
 357      920FC1
 358 013a 2236D105 		.ascii	"\"6\321\005\327n\271=+\267\315\200\353\377\301\365\257"
 358      D76EB93D 
 358      2BB7CD80 
 358      EBFFC1F5 
 358      AF
 359 014b 903E8174 		.ascii	"\220>\201t\012\322\247\220>\243p\211\235xdY?(\343\237"
 359      0AD2A790 
 359      3EA37089 
 359      9D786459 
 359      3F28E39F 
 360 015f 86F49886 		.ascii	"\206\364\230\2066\322f\254,\327\251p=\003\351,\2053"
 360      36D266AC 
 360      2CD7A970 
 360      3D03E92C 
 360      8533
 361 0171 C300E71C 		.ascii	"\303\000\347\034\244?ipf\310vJpf\301\365sH_P8\304^\373"
 361      A43F6970 
 361      66C8764A 
 361      7066C1F5 
 361      73485F50 
 362 0189 C8BC29BA 		.ascii	"\310\274)\272W\360\2646p\036\276\357\203t\001\322n\331"
 362      57F0B436 
 362      701EBEEF 
 362      837401D2 
 362      6ED9
 363 019b 7688DC2F 		.ascii	"v\210\334/B\3429\325.\3342f\273l\357O\310r\\\006\327"
 363      42E239D5 
 363      2EDC3266 
 363      BB6CEF4F 
 363      C8725C06 
 364 01b0 15909642 		.ascii	"\025\220\226BZ\016\351KH\227\270d\373's\247\237\015"
 364      5A0EE94B 
 364      4897B864 
 364      FB2773A7 
 364      9F0D
 365 01c2 7A149B54 		.ascii	"z\024\233T\350\272\014\351\200\206\256+\220\242\032"
 365      E8BA0CE9 
 365      8086AE2B 
 365      90A21A
 366 01d1 BA3C3276 		.ascii	"\272<2v\213<\367\310\034\214\310\264\255\207\353k\220"
 366      8B3CF7C8 
 366      1C8CC8B4 
 366      AD87EB6B 
 366      90
 367 01e2 D6417A15 		.ascii	"\326Az\025\322W\220\256\032\320\266A\226\271b\007\204"
 367      D25790AE 
 367      1AD0B641 
 367      96B96207 
 367      84
 368 01f3 A6AF21D5 		.ascii	"\246\257!\325jdN\332L\224\3335\301u\013\2447 ]\203\364"
 368      6A644EDA 
 368      4C94DB35 
 368      C1750BA4 
 368      37205D83 
ARM GAS  /tmp/ccryQ9rE.s 			page 28


 369 0208 0D85D72C 		.ascii	"\015\205\327,\323W\257\261\245f\252\015\371\3442\263"
 369      D357AFB1 
 369      A566AA0D 
 369      F9E432B3 
 370 0218 44B14E5C 		.ascii	"D\261N\\5M\374m[\257~\314\263\"|\274m`\225\277gy\266"
 370      354DFC6D 
 370      5BAF7ECC 
 370      B3227CBC 
 370      6D6095BF 
 371 022f 5736B3CA 		.ascii	"W6\263\312\205\245\274l\346^h\3753\346\357\2428/>u\315"
 371      85A5BC6C 
 371      E65E68FD 
 371      33E6EFA2 
 371      382F3E75 
 372 0244 EDA29B67 		.ascii	"\355\242\233g\327\260\375\200\256\007X\346\347\314+"
 372      D7B0FD80 
 372      AE0758E6 
 372      E7CC2B
 373 0253 D06D9E28 		.ascii	"\320m\236(v\377\204M\036\202I\011\013jf_\0040\236]\313"
 373      76FF844D 
 373      1E824909 
 373      0B6A665F 
 373      04309E5D 
 374 0268 FE5C1A44 		.ascii	"\376\\\032D\214u\354\311#\203\220zF\376\305\340\363"
 374      8C75ECC9 
 374      2383907A 
 374      46FEC5E0 
 374      F3
 375 0279 636615D0 		.ascii	"cf\025\320\037;>}\345\355\342\252\235\254\021;\320\200"
 375      1F3B3E7D 
 375      E5EDE2AA 
 375      9DAC113B 
 375      D080
 376 028b D50C2D72 		.ascii	"\325\014-r\312\320^\224\353\177\261F\004\352[\361\354"
 376      CAD05E94 
 376      EB7FB146 
 376      04EA5BF1 
 376      EC
 377 029c 7A9683FC 		.ascii	"z\226\203\374U\232\310\315\323\221\310Wm\021\331\264"
 377      559AC8CD 
 377      D391C857 
 377      6D11D9B4 
 378 02ac 672F2BD6 		.ascii	"g/+\326\347\351h\034\300,@\032\247\001\221\321,f:\371"
 378      E7E9681C 
 378      C02C401A 
 378      A70191D1 
 378      2C663AF9 
 379 02c0 253E559C 		.ascii	"%>U\234\314\376%AJ\226B\011\253h\200\210\232\343\331"
 379      CCFE2541 
 379      4A964209 
 379      AB688088 
 379      9AE3D9
 380 02d3 4D6C16D0 		.ascii	"Ml\026\320\377\270\221\310\221\032\362;\371\220\356"
 380      FFB891C8 
 380      911AF23B 
 380      F990EE
 381 02e2 525929B1 		.ascii	"RY)\261\011p\257\002\356\226;md\007`\311\205&\007\025"
ARM GAS  /tmp/ccryQ9rE.s 			page 29


 381      0970AF02 
 381      EE963B6D 
 381      640760C9 
 381      85260715 
 382 02f6 BFC9856C 		.ascii	"\277\311\205l\254+\201k\326q\003\233\2534\341\230?\261"
 382      AC2B816B 
 382      D671039B 
 382      AB34E198 
 382      3FB1
 383 0308 B2B48C5A 		.ascii	"\262\264\214Z\313E\035\234NRb\243(fgH\220\034\023t\212"
 383      CB451D9C 
 383      4E5262A3 
 383      28666748 
 383      901C1374 
 384 031d E535C79A 		.ascii	"\3455\307\232`\003+\313&]\177u\212e@\227\271-H\2122"
 384      60032BCB 
 384      265D7F75 
 384      8A654097 
 384      B92D488A 
 385 0332 13F60E03 		.ascii	"\023\366\016\003-\311\345lf\206\012i\254.y\032o\236"
 385      2DC9E56C 
 385      66860A69 
 385      AC2E791A 
 385      6F9E
 386 0344 B5AB95AD 		.ascii	"\265\253\225\255\203\301x\266\225\315\206\336\015,\253"
 386      83C178B6 
 386      95CD86DE 
 386      0D2CAB
 387 0353 3362FB50 		.ascii	"3b\373P]\263\267? \212Y<\373\016\002}A\001\361lfB\224"
 387      5DB3B73F 
 387      208A593C 
 387      FB0E027D 
 387      4101F16C 
 388 036a 89EF4A03 		.ascii	"\211\357J\003\202\206?\313\005\022*\365f\322h.\013@"
 388      82863FCB 
 388      05122AF5 
 388      66D2682E 
 388      0B40
 389 037c 27539985 		.ascii	"'S\231\205\370Z\361\266\305\275,\246\024\221\306k\377"
 389      F85AF1B6 
 389      C5BD2CA6 
 389      1491C66B 
 389      FF
 390 038d 812CEC45 		.ascii	"\201,\354E\026\256\031\313\302\006P\327\354\025C\021"
 390      16AE19CB 
 390      C20650D7 
 390      EC154311 
 391 039d E85D04EA 		.ascii	"\350]\004\352I\222\005K\311\202\3253\307f\253\205\036"
 391      4992054B 
 391      C982D533 
 391      C766AB85 
 391      1E
 392 03ae FDE44ED9 		.ascii	"\375\344N\331\326\314^\332\324\311\251\265\232V\211"
 392      D6CC5EDA 
 392      D4C9A9B5 
 392      9A5689
 393 03bd 145BF3BB 		.ascii	"\024[\363\273E;\277gr6\214\277\217\026O\376H\306\037"
ARM GAS  /tmp/ccryQ9rE.s 			page 30


 393      453BBF67 
 393      72368CBF 
 393      8F164FFE 
 393      48C61F
 394 03d0 DFF5F5E2 		.ascii	"\337\365\365\342d\177\355\300\376\017\233\333\177\202"
 394      647FEDC0 
 394      FE0F9BDB 
 394      7F82
 395 03de 2B4B7388 		.ascii	"+Ks\210\231j\221g\333\331\237\245/\351\316\357/\351"
 395      996A9167 
 395      DBD99FA5 
 395      2FE9CEEF 
 395      2FE9
 396 03f0 435A493F 		.ascii	"CZI?\355X\322^\255\244\365.k\276\035\260\333L\325\366"
 396      ED58D25E 
 396      ADA4F52E 
 396      6BBE1DB0 
 396      DB4CD5F6 
 397 0404 FD7C5697 		.ascii	"\375|V\227\271\316\014\227\355\2074>\347!\255C\225\347"
 397      B9CE0C97 
 397      ED87343E 
 397      E721AD43 
 397      95E7
 398 0416 D9E5FADF 		.ascii	"\331\345\372\337\220\265\367\023\214B>\340\364\263,"
 398      90B5F713 
 398      8C423EE0 
 398      F4B32C
 399 0425 250821E0 		.ascii	"%\010!\3403z9\277&x\245\332\324\213\371\267kq1W\\\347"
 399      337A39BF 
 399      2678A5DA 
 399      D48BF9B7 
 399      6B713157 
 400 043b 291CFFB3 		.ascii	")\034\377\263tW\274\330u\241m\240\202u\3361\226\327"
 400      7457BCD8 
 400      75A16DA0 
 400      8275DE31 
 400      96D7
 401 044d 88502689 		.ascii	"\210P&\211K\236=\215\246}\206\3751\344\347 Oi\213\335"
 401      4B9E3D8D 
 401      A67D86FD 
 401      31E4E720 
 401      4F698BDD 
 402 0461 3A73B665 		.ascii	":s\266e\276'\264\346{\325\261\305\321\274(\212\340\331"
 402      BE27B4E6 
 402      7BD5B1C5 
 402      D1BC288A 
 402      E0D9
 403 0473 06247B0B 		.ascii	"\006${\013\346[1\337\206\371v\314\017b~\014\363\343"
 403      E65B31DF 
 403      86F976CC 
 403      0F627E0C 
 403      F3E3
 404 0485 76587B45 		.ascii	"vX{EK\347M\244\363\305t\365\027\377\364\306\342[\305"
 404      4BE74DA4 
 404      F3C574F5 
 404      17FFF4C6 
 404      E25BC5
ARM GAS  /tmp/ccryQ9rE.s 			page 31


 405 0498 788CCD64 		.ascii	"x\214\315d\246I!\\]\252e\342r\375\375\304|/B\027\216"
 405      A649215C 
 405      5DAA65E2 
 405      72FDFDC4 
 405      7C2F4217 
 406 04ad A973E9CD 		.ascii	"\251s\351\315\327\006\014a\3412t\326\031p\363$\257T"
 406      D7060C61 
 406      E13274D6 
 406      1970F324 
 406      AF54
 407 04bf 6B61C038 		.ascii	"ka\3008\3478f.\014I\340\334\331j\335b\265\216\3254]"
 407      E738662E 
 407      0C49E0DC 
 407      D96ADD62 
 407      B58ED534 
 408 04d4 AD56739A 		.ascii	"\255Vs\232\352W\325j\227\246\372M\265\332\255\251~O"
 408      EA57D56A 
 408      97A6FA4D 
 408      B5DAADA9 
 408      7E4F
 409 04e6 ADF668AA 		.ascii	"\255\366h\252;\325\352\014M\365'ju\246\246\372\242Z"
 409      3BD5EA0C 
 409      4DF5276A 
 409      75A6A6FA 
 409      A25A
 410 04f8 9DA55187 		.ascii	"\235\245Q\207\345\222\251\012\211g\257\240\375\177\305"
 410      E592A90A 
 410      8967AFA0 
 410      FD7FC5
 411 0507 BA0CBB71 		.ascii	"\272\014\273q\314\015\027e\006:\221\247\0126Eb\006,"
 411      CC0D1765 
 411      063A91A7 
 411      0A364562 
 411      062C
 412 0519 59D7FA32 		.ascii	"Y\327\3722\363\344\035\2054\251\225]\005\253\367\330"
 412      F3E41D85 
 412      34A9955D 
 412      05ABF7D8 
 413 0529 3C3B83EB 		.ascii	"<;\203\353\213%\\\230D\331\003b\0133\263\235\311e'\306"
 413      8B255C98 
 413      44D90362 
 413      0B33B39D 
 413      C96527C6 
 414 053d CFCB560B 		.ascii	"\317\313V\013\312\304\344\230\311n\212\011\375\260\251"
 414      CAC4E498 
 414      C96E8A09 
 414      FDB0A9
 415 054c C25C6278 		.ascii	"\302\\bx\270f\020\3328f\252-\264T\213\206\342\333f\322"
 415      B86610DA 
 415      3866AA2D 
 415      B4548B86 
 415      E2DB66D2 
 416 0560 6846F3EC 		.ascii	"hF\363\354nS\260\330\265\351\317\333\335\350=\241\300"
 416      6E53B0D8 
 416      B5E9CFDB 
 416      DDE83DA1 
 416      C0
ARM GAS  /tmp/ccryQ9rE.s 			page 32


 417 0571 E525265D 		.ascii	"\345%&]\354\333\335\254\327`\267\247k\312\263\365\334"
 417      ECDBDDAC 
 417      D760B7A7 
 417      6BCAB3F5 
 417      DC
 418 0582 CF8CF684 		.ascii	"\317\214\366\204\272V\244\335|\216Z?\336\332\215\333"
 418      BA56A4DD 
 418      7C8E5A3F 
 418      DEDA8DDB 
 419 0592 41529F7A 		.ascii	"AR\237z\005\351\234f\316\212n+\232\330+\017L0\022\377"
 419      05E99C66 
 419      CE8A6E2B 
 419      9AD82B0F 
 419      4C3012FF 
 420 05a6 A0FBCB3F 		.ascii	"\240\373\313?c\220\271\230#\313_\247\333p\3713\207\341"
 420      6390B998 
 420      23CB5FA7 
 420      DB70F933 
 420      87E1
 421 05b8 D9A51CD9 		.ascii	"\331\245\034\331\321.\243Y\270\272\014YXf\213\205\357"
 421      D12EA359 
 421      B8BA0C59 
 421      58668B85 
 421      EF
 422 05c9 8EAD70E8 		.ascii	"\216\255p\350\365\236;\035\273c\012n9Vp\304\361\315"
 422      F59E3B1D 
 422      BB630A6E 
 422      395670C4 
 422      F1CD
 423 05db F7A4E5F8 		.ascii	"\367\244\345\370Vs\224\343k\232\326\233\220M\352S\273"
 423      567394E3 
 423      6B9AD69B 
 423      904DEA53 
 423      BB
 424 05ec BE959E64 		.ascii	"\276\225\236d\327\267\316c\350\3726{\014]_\213\307\320"
 424      D7B7CE63 
 424      E8FA367B 
 424      0C5D5F8B 
 424      C7D0
 425 05fe F5B579F4 		.ascii	"\365\265y\364\256\217\261\341\236TVxv\015G\334\323\013"
 425      AE8FB1E1 
 425      9E545678 
 425      760D47DC 
 425      D30B
 426 0610 9CB17BE2 		.ascii	"\234\261{\342\331i\011\235\331uO:}\305;\272\017\324"
 426      D969099D 
 426      D9754F3A 
 426      7DC53BBA 
 426      0FD4
 427 0622 EE80F938 		.ascii	"\356\200\37183#\315\371s\354\230\235\371\263\321\346"
 427      3323CDF9 
 427      73EC989D 
 427      F9B3D1E6 
 428 0632 FC69A48D 		.ascii	"\374i\244\215o\32114\276F[\306\267\362\330\212\224{"
 428      6FD13134 
 428      BE465BC6 
 428      B7F2D88A 
ARM GAS  /tmp/ccryQ9rE.s 			page 33


 428      947B
 429 0644 88077F68 		.ascii	"\210\007\177h\352G\267pT8\272\210\263q\322!\313\341"
 429      EA47B770 
 429      5438BA88 
 429      B371D221 
 429      CBE1
 430 0656 BBA53F20 		.ascii	"\273\245? \2046q$\252\356\240lXG\2204\220\031\021\333"
 430      84367124 
 430      AAEEA06C 
 430      58479034 
 430      901911DB 
 431 066a 704C233E 		.ascii	"pL#>\223~\2035\021\307i\344\322\2151\233\215\004f\240"
 431      937E8335 
 431      11C769E4 
 431      D28D319B 
 431      8D0466A0 
 432 067e A778C2C1 		.ascii	"\247x\302\301\337\231\3408\336t\361\300Mv\223(\366\341"
 432      DF99E038 
 432      DE74F1C0 
 432      4D769328 
 432      F6E1
 433 0690 D91DE872 		.ascii	"\331\035\350r\376\236\221\322\345\350\201p\033Dk|sO"
 433      FE9E91D2 
 433      E5E88170 
 433      1B446B7C 
 433      734F
 434 06a2 1B8B7EAC 		.ascii	"\033\213~\2545\265\316\237\232\022{\243\247\215[\"\306"
 434      35B5CE9F 
 434      9A127BA3 
 434      A78D5B22 
 434      C6
 435 06b3 9E72E17A 		.ascii	"\236r\341z9\305\362h\202gw\342j\237\372\354\200c6!3"
 435      39C5F268 
 435      826777E2 
 435      6A9FFAEC 
 435      80633621 
 436 06c8 ADE98916 		.ascii	"\255\351\211\026\350\332J\330 \273\201w8\342(\232\034"
 436      E8DA4AD8 
 436      20BB8177 
 436      38E2289A 
 436      1C
 437 06d9 C3797570 		.ascii	"\303yup\333\364p\315v\340\314\326s\200\333\256\207k"
 437      DBF470CD 
 437      76E0CCD6 
 437      7380DBAE 
 437      876B
 438 06eb 710CA7A7 		.ascii	"q\014\247\247n\207\036\256\325\016\234\331Y\000\300"
 438      6E871EAE 
 438      D50E9CD9 
 438      5900C0
 439 06fa 1DD0C3ED 		.ascii	"\035\320\303\355v\014\247\247\356\220\036\256\335\016"
 439      760CA7A7 
 439      EE901EAE 
 439      DD0E
 440 0708 9C51F462 		.ascii	"\234Q\364b\364\321\0320\230\027z\353\2679\262\343\330"
 440      F4D11A30 
 440      98177AEB 
ARM GAS  /tmp/ccryQ9rE.s 			page 34


 440      B739B2E3 
 440      D8
 441 0719 8D791BE6 		.ascii	"\215y\033\346\355\230\277\213\371~\314\017p)\366#\362"
 441      ED98BF8B 
 441      F97ECC0F 
 441      7029F623 
 441      F2
 442 072a 247BEBEB 		.ascii	"${\353\353\003wm\3059\326\202\236eA\246\245g\331a\302"
 442      03776DC5 
 442      39D6829E 
 442      6541A6A5 
 442      67D961C2 
 443 073e 1521F403 		.ascii	"\025!\364\003\013\317\362\001\355YVe:\365,\032\231\343"
 443      0BCFF201 
 443      ED595665 
 443      3AF52C1A 
 443      99E3
 444 0750 BA12AB6A 		.ascii	"\272\022\253j\331(\212S3\344\003\026q\232x\367\313\352"
 444      D9288A53 
 444      33E40316 
 444      719A78F7 
 444      CBEA
 445 0762 BCECA360 		.ascii	"\274\354\243`p\214\346\274\355\215_\340\314\357D=\275"
 445      708CE6BC 
 445      ED8D5FE0 
 445      CCEF443D 
 445      BD
 446 0773 44B16A1F 		.ascii	"D\261j\037\250k\366K\322\331\343Q\004\332H\001\361\254"
 446      A86BF64B 
 446      D2D9E351 
 446      04DA4801 
 446      F1AC
 447 0785 8B3A6F73 		.ascii	"\213:os\351\035\202+[-\364\364\270\030g\215a\277C\013"
 447      E91D822B 
 447      5B2DF4F4 
 447      B818678D 
 447      61BF430B 
 448 0799 4F4764AA 		.ascii	"OGd\252h\233\010/.\013O\221E\253c\304>I:\226Lt3\232"
 448      689B082F 
 448      2E0B4F91 
 448      45AB63C4 
 448      3E493A96 
 449 07b1 E8EB6884 		.ascii	"\350\353h\204\3331\377\020\363\023Z\203\344\230]I2\223"
 449      DB31FF10 
 449      F3135A83 
 449      E4985D49 
 449      3293
 450 07c3 96600D9E 		.ascii	"\226`\015\236\272V3\251\021\315\214\262\201"
 450      BA5633A9 
 450      11CD8CB2 
 450      81
 451 07d0 D36CB9DF 		.ascii	"\323l\271\337\307A\227\245kt\261\025'\362\346\361)\357"
 451      C74197A5 
 451      6B74B115 
 451      27F2E6F1 
 451      29EF
 452 07e2 5FB915A4 		.ascii	"_\271\025\244B\325b\216\337\214\335\266\015\247\331"
ARM GAS  /tmp/ccryQ9rE.s 			page 35


 452      42D5628E 
 452      DF8CDDB6 
 452      0DA7D9
 453 07f1 295CCA9E 		.ascii	")\\\312\236\311J\271\224\351q`\247\214]NS\313Y|\301"
 453      C94AB994 
 453      E97160A7 
 453      8C5D4E53 
 453      CB597CC1 
 454 0805 0B27FF6D 		.ascii	"\013'\377m1\"\237\266\025\303\3340\332\003Hd\231\311"
 454      31229FB6 
 454      15C3DC30 
 454      DA034864 
 454      99C9
 455 0817 F0737AF2 		.ascii	"\360sz\362v&HI/,\270\271\033\344(\341r\314\011\307`"
 455      76264849 
 455      2F2CB8B9 
 455      1BE428E1 
 455      72CC09C7 
 456 082c 7AA53CB7 		.ascii	"z\245<\267g92d\377\326\301\262\227\316\336\336\202\""
 456      67393264 
 456      FFD6C1B2 
 456      97CEDEDE 
 456      8222
 457 083e FB128DBF 		.ascii	"\373\022\215\277!\233\266\305V\372\300\334\316\212\276"
 457      219BB6C5 
 457      56FAC0DC 
 457      CE8ABE
 458 084d 25DB0623 		.ascii	"%\333\006#\346{`\320\344\301;\2331TV\242\343\0143F`"
 458      E67B60D0 
 458      E4C13B9B 
 458      315456A2 
 458      E30C3346 
 459 0862 45C5C1AE 		.ascii	"E\305\301\256\322\326\260\254\341\340/%k\270j\313\032"
 459      D2D6B0AC 
 459      E1E02F25 
 459      6BB86ACB 
 459      1A
 460 0873 DED8B7C8 		.ascii	"\336\330\267\310V\200\266*qs\362\2478|\017\016\177\235"
 460      5680B62A 
 460      7173F2A7 
 460      387C0F0E 
 460      7F9D
 461 0885 1EFE8DC6 		.ascii	"\036\376\215\306\263\017J\303_\2675\374\246C\363\215"
 461      B30F4AC3 
 461      5FB735FC 
 461      A643F38D 
 462 0895 8CD12486 		.ascii	"\214\321$\206V\324\327p\351\356\2258\310M4\240\2759"
 462      56D4D770 
 462      E9EE9538 
 462      C84D34A0 
 462      BD39
 463 08a7 B4FA7EA3 		.ascii	"\264\372~\243=Ad\344\033\212\032\373=\224\243P\237\226"
 463      3D4164E4 
 463      1B8A1AFB 
 463      3D94A350 
 463      9F96
 464 08b9 FD029B7B 		.ascii	"\375\002\233{\213^AM)4t8F\324\033\361\353\207pFH`\037"
ARM GAS  /tmp/ccryQ9rE.s 			page 36


 464      8B5E414D 
 464      29347438 
 464      46D41BF1 
 464      EB877046 
 465 08d0 D9013377 		.ascii	"\331\0013w\357\261-Z\260c\216\301\364\224m\325\202\235"
 465      EFB12D5A 
 465      B0638EC1 
 465      F4946DD5 
 465      829D
 466 08e2 B003667E 		.ascii	"\260\003f~\023&\266M\013v\3221\230\236\262\355Z\260"
 466      1326B64D 
 466      0B76D231 
 466      989EB2ED 
 466      5AB0
 467 08f4 5376C0CC 		.ascii	"Sv\300\314\217\214b;\264`g\034\203\351);\240\005\373"
 467      8F8C623B 
 467      B460671C 
 467      83E9293B 
 467      A005FB
 468 0907 C20E98D7 		.ascii	"\302\016\230\327\200\262\304\307\314/\177\253]\333."
 468      80B2C4C7 
 468      CC2F7FAB 
 468      5DDB2E
 469 0916 E6280EC1 		.ascii	"\346(\016\301\241M3*\306\225\034\247\036L\3077Y\213"
 469      A14D332A 
 469      C6951CA7 
 469      1E4CC737 
 469      598B
 470 0928 EEDC26CF 		.ascii	"\356\334&\317\013\311\271\177k\007\321\302`\226\356"
 470      0BC9B97F 
 470      6B07D1C2 
 470      6096EE
 471 0937 D1AC1493 		.ascii	"\321\254\024\223s\235\202Q\246\274\207^\276m\334\234"
 471      739D8251 
 471      A6BC875E 
 471      BE6DDC9C 
 472 0947 531F7FD0 		.ascii	"S\037\177\320\334\217\275\315\270-\304\026.\022\375"
 472      DC8FBDCD 
 472      B82DC416 
 472      2E12FD
 473 0956 2C77A907 		.ascii	",w\251\007\246\313\023\361\033)Ig\2763sM\237\240\260"
 473      A6CB13F1 
 473      1B294967 
 473      BE33734D 
 473      9FA0B0
 474 0969 EE6A6609 		.ascii	"\356jf\011K\\\332\373wv\304d1\025\272\366,\307#6\373"
 474      4B5CDAFB 
 474      7776C464 
 474      3115BAF6 
 474      2CC72336 
 475 097e F79F97BD 		.ascii	"\367\237\227\275tP^PW\271\310\202\272 \227\366\310{"
 475      74505E50 
 475      57B9C882 
 475      BA2097F6 
 475      C87B
 476 0990 1DDE81E6 		.ascii	"\035\336\201\346\230\0254\027F\007O\346s\020l\361\310"
 476      98153417 
ARM GAS  /tmp/ccryQ9rE.s 			page 37


 476      46074FE6 
 476      73106CF1 
 476      C8
 477 09a1 5DCD0DB0 		.ascii	"]\315\015\260c\317p\302\307^\231\217\265\310\307\213"
 477      63CF70C2 
 477      C75E998F 
 477      B5C8C78B 
 478 09b1 FF043E1A 		.ascii	"\377\004>\032\034\363q7\305G\353\335\316\3718\"\363"
 478      1CF37137 
 478      C547EBDD 
 478      CEF93822 
 478      F3
 479 09c2 B10EF9D8 		.ascii	"\261\016\371\330\362O\340c\207c>\006j\370\300\350\346"
 479      F24FE063 
 479      87633E06 
 479      6AF8C0E8 
 479      E6
 480 09d3 1E29BAE9 		.ascii	"\036)\272\351\317\324[G7\370l\217\253\277\376\330\346"
 480      CFD45B47 
 480      37F86C8F 
 480      ABBFFED8 
 480      E6
 481 09e4 483BEB95 		.ascii	"H;\353\225\252S\205\025b\354Z\273&$\024\355\205\204"
 481      AA538515 
 481      62EC5ABB 
 481      262414ED 
 481      8584
 482 09f6 97648935 		.ascii	"\227d\2115\242\304vQ\022\263\217\264\271\375\235M\362"
 482      A2C47651 
 482      12B38FB4 
 482      B9FD9D4D 
 482      F2
 483 0a07 232E4D08 		.ascii	"#.M\010\265/m\250\256}oH\217ulE\240\303IZ\314\240\224"
 483      B52F6DA8 
 483      AE7D6F48 
 483      8F756C45 
 483      A0C3495A 
 484 0a1e 98A15722 		.ascii	"\230\241W\"|%#}C\"T\366or\015\371\222\311\374\313\373"
 484      7C25237D 
 484      432254F6 
 484      6F720DF9 
 484      92C9FCCB 
 485 0a33 71CC7124 		.ascii	"q\314q$\237(0\235\240\013\015\350\027\315\362\342\""
 485      9F28309D 
 485      A00B0DE8 
 485      17CDF2E2 
 485      22
 486 0a44 29E9D4F7 		.ascii	")\351\324\367B\254\213m\236-m\2050@\344\230\363\337"
 486      42AC8B6D 
 486      9E2D6D85 
 486      3040E498 
 486      F3DF
 487 0a56 13EEE03E 		.ascii	"\023\356\340>\347\033\221\326;$\253kE\206\276J\322p"
 487      E71B91D6 
 487      3B24AB6B 
 487      4586BE4A 
 487      D270
ARM GAS  /tmp/ccryQ9rE.s 			page 38


 488 0a68 5A1B1131 		.ascii	"Z\033\0211/MF\022\037\216\231\236gc\021\361Zi\353\333"
 488      2F4D4612 
 488      1F8E999E 
 488      676311F1 
 488      5A69EBDB 
 489 0a7c 7B6C6E66 		.ascii	"{lnf\022[\3443\267\265\2410\366\270\310\026yv\236\361"
 489      125BE433 
 489      B7B5A130 
 489      F6B8C816 
 489      79769EF1 
 490 0a90 F315169B 		.ascii	"\363\025\026\233\242\245\330\245\335\225\264E>x\273"
 490      A2A5D8A5 
 490      DD95B445 
 490      3E78BB
 491 0a9f B42B213F 		.ascii	"\264+!?\331\330\024MS\354B\332\371~\201\367@H\337t\345"
 491      D9D8144D 
 491      53EC42DA 
 491      F97E81F7 
 491      4048DF74 
 492 0ab4 A953A14A 		.ascii	"\251S\241J\037\317\276\213\361\302{.\335\331\310:\307"
 492      1FCFBE8B 
 492      F1C27B2E 
 492      DDD9C83A 
 492      C7
 493 0ac5 B2F76A65 		.ascii	"\262\367je\037\273\261o9\336\0226\330\307=\244\215\342"
 493      1FBBB16F 
 493      39DE1236 
 493      D8C73DA4 
 493      8DE2
 494 0ad7 12828FDF 		.ascii	"\022\202\217\337\276\027\305s\000\005\377\272\211\340"
 494      BE17C573 
 494      0005FFBA 
 494      89E0
 495 0ae5 4D1F6CE1 		.ascii	"M\037l\341\230w\260\313\341d\301\357\275C\022\374a["
 495      9877B0CB 
 495      E164C1EF 
 495      BD4312FC 
 495      615B
 496 0af7 82EF3014 		.ascii	"\202\3570\024\374a\347\202\227\361>T\317\031x\366\202"
 496      FC61E782 
 496      97F13E54 
 496      CF1978F6 
 496      82
 497 0b08 6330AF95 		.ascii	"c0\257\225\026\017k\264\330\201Z\374\320EN\245:\365"
 497      160F6BB4 
 497      D8815AFC 
 497      D0454EA5 
 497      3AF5
 498 0b1a BAECA075 		.ascii	"\272\354\240u\251\223\234\\4\275\373,\306\236\333\277"
 498      A9939C5C 
 498      34BDFB2C 
 498      C69EDBBF 
 499 0b2a 5C1689E4 		.ascii	"\\\026\211\344\363\342vlc\240\271HV\354G\221H\376\346"
 499      F3E2766C 
 499      63A0B948 
 499      56EC4791 
 499      48FEE6
ARM GAS  /tmp/ccryQ9rE.s 			page 39


 500 0b3d 33C7605E 		.ascii	"3\307`^\035X\313\3236\357'\353\356\337s\314%\034\267"
 500      1D58CBD3 
 500      36EF27EB 
 500      EEDF73CC 
 500      251CB7
 501 0b50 8B3697AE 		.ascii	"\2136\227\256\323\007\247\263\223q\351\354\262a/\260"
 501      D307A7B3 
 501      9371E9EC 
 501      B2612FB0 
 502 0b60 CE7F9A8D 		.ascii	"\316\177\232\215\347\356\222\335\256\277EA\265\020\265"
 502      E7EE92DD 
 502      AEBF4541 
 502      B510B5
 503 0b6f 85B5DC38 		.ascii	"\205\265\3348+?_%\35566\323p\016w\3417\205\266\201\316"
 503      2B3F5F25 
 503      ED3636D3 
 503      700E77E1 
 503      3785B681 
 504 0b84 04A3DCF1 		.ascii	"\004\243\334\361l&\221\316\031\344\351\315[\350\025"
 504      6C2691CE 
 504      19E4E9CD 
 504      5BE815
 505 0b93 41928CC6 		.ascii	"A\222\214\306\020\2734\206x\022\015\261\033\015\361"
 505      10BB3486 
 505      78120DB1 
 505      1B0DF1
 506 0ba2 14E69F69 		.ascii	"\024\346\237i\315\321,\330:\255\335>\274\355\230o/\245"
 506      CDD12CD8 
 506      3AADDD3E 
 506      BCED986F 
 506      2FA5
 507 0bb4 1DB3614E 		.ascii	"\035\263aNh\207i\277\305\206\355\0155\025/q\352\277"
 507      688769BF 
 507      C586ED0D 
 507      35152F71 
 507      EABF
 508 0bc6 56C201E9 		.ascii	"V\302\001\351\030\357\003\307\210zk\276\364\264.\034"
 508      18EF03C7 
 508      887A6BBE 
 508      F4B42E1C 
 509 0bd6 E8B203F7 		.ascii	"\350\262\003\367\220\001\201F\037\355\301-\317\236\305"
 509      90018146 
 509      1FEDC12D 
 509      CF9EC5
 510 0be5 33F27378 		.ascii	"3\362sx\212}\036\363\213\230\177\205\371|T\334B\314"
 510      8A7D1EF3 
 510      8B987F85 
 510      F97C54DC 
 510      42CC
 511 0bf7 1763BE12 		.ascii	"\027c\276\022\363\277c\376\012\346\015\230\357\306\374"
 511      F3BF63FE 
 511      0AE60D98 
 511      EFC6FC
 512 0c06 7DCC8F60 		.ascii	"}\314\217`~\014\363\343\230\237\307\374b*\003\220W\201"
 512      7E0CF3E3 
 512      989FC7FC 
 512      622A0390 
ARM GAS  /tmp/ccryQ9rE.s 			page 40


 512      5781
 513 0c18 95178FDC 		.ascii	"\225\027\217\334\371*\372\352O\320\374W\366\242-\357"
 513      F92AFAEA 
 513      4FD0FC57 
 513      F6A22DEF 
 514 0c28 738E3A56 		.ascii	"s\216:VK:\027n\354e\343|\335\342\004\264\243\373\314"
 514      4B3A176E 
 514      EC65E37C 
 514      DDE204B4 
 514      A3FBCC
 515 0c3b A4963A49 		.ascii	"\244\226:I\247g\320\254\343.\352\361\203\324\017\026"
 515      A767D0AC 
 515      E32EEAF1 
 515      83D40F16 
 516 0c4b E9957A7C 		.ascii	"\351\225z|\205\371k\032\336\227\315\0168\023w\240\343"
 516      85F96B1A 
 516      DE97CD0E 
 516      381377A0 
 516      E3
 517 0c5c EBD94614 		.ascii	"\353\331F\024\3125\234\216\315\224PR\002\0211]\247\374"
 517      CA359C8E 
 517      CD945052 
 517      0211315D 
 517      A7FC
 518 0c6e 5C6CD3BA 		.ascii	"\\l\323\272\275\322\035\350\353\251\275\334SSbM\353"
 518      BDD21DE8 
 518      EBA9BDDC 
 518      5353624D 
 518      EB
 519 0c7f F6728BC5 		.ascii	"\366r\213\305X\235r\007\332\352\006\025\317~\204\266"
 519      589D7207 
 519      DAEA0615 
 519      CF7E84B6 
 520 0c8f 95FA1ED2 		.ascii	"\225\372\036\322.d\345\272:\315\215\356\370\350\254"
 520      2E64E5BA 
 520      3ACD8DEE 
 520      F8E8AC
 521 0c9e 46AB2B08 		.ascii	"F\253+\010\222\326\235e\221*\345\026\322^\307\200}t"
 521      92D69D65 
 521      912AE516 
 521      D25EC780 
 521      7D74
 522 0cb0 6C362B6C 		.ascii	"l6+l\362\354w\322~\3071\240^\365o\322\024v:\006\034"
 522      F2EC77D2 
 522      7EC731A0 
 522      5EF56FD2 
 522      14763A06 
 523 0cc5 A8A3B085 		.ascii	"\250\243\260\205\246\360\244\035@\213%\342-\232\302"
 523      A6F0A41D 
 523      408B25E2 
 523      2D9AC2
 524 0cd4 538E01F5 		.ascii	"S\216\001\3652<HSx\3011\240^\206\207i\012/9\006\324"
 524      323C4853 
 524      78C131A0 
 524      5E868769 
 524      0A2F3906 
 525 0ce9 CBB083A6 		.ascii	"\313\260\203\246\360\206\035@\213\023\302N\232\302\311"
ARM GAS  /tmp/ccryQ9rE.s 			page 41


 525      F0861D40 
 525      8B13C24E 
 525      9AC2C9
 526 0cf8 BD9D02EA 		.ascii	"\275\235\002\352ex\204\246p\266c@\275\014\217\321\024"
 526      657884A6 
 526      70B66340 
 526      BD0C8FD1 
 526      14
 527 0d09 D63B06D4 		.ascii	"\326;\006\324\313\3608M\341r;\200V'~4\205/8\006\324"
 527      CBF0384D 
 527      E1723B80 
 527      56277E34 
 527      852F3806 
 528 0d1e CBF0124D 		.ascii	"\313\360\022M\341k\216\001\3652\274BS\330\344\030P/"
 528      E16B8E01 
 528      F532BC42 
 528      53D8E418 
 528      502F
 529 0d30 C3AB3485 		.ascii	"\303\2534\205o\331\001\364\232\313\360\032M\341.\307"
 529      6FD901F4 
 529      9ACBF01A 
 529      4DE12EC7 
 530 0d40 80F42D75 		.ascii	"\200\364-u\315G\273\212\360\354\015\014\363\376\201"
 530      CD47BB8A 
 530      F0EC0D0C 
 530      F3FE81
 531 0d4f EB7B0FE6 		.ascii	"\353{\017\346\223\335$\237\202\371T\314\247c>\023\363"
 531      93DD249F 
 531      82F954CC 
 531      A7633E13 
 531      F3
 532 0d60 D998CFC5 		.ascii	"\331\230\317\305\374\031\314\237\305\3749\314\027`\276"
 532      FC19CC9F 
 532      C5FC39CC 
 532      1760BE
 533 0d6f 08F32598 		.ascii	"\010\363%\230/\303\374y\314W\272m\004\220_k#\273\367"
 533      2FC3FC79 
 533      CC57BA6D 
 533      04905F6B 
 533      23BBF7
 534 0d82 7BDB8802 		.ascii	"{\333\210\002,Nn;\272\017\374\357\367yd0\336y\263\365"
 534      2C4E6E3B 
 534      BA0FFCEF 
 534      F7796430 
 534      DE79B3F5 
 535 0d96 01F2C467 		.ascii	"\001\362\304g\352\307\006\327\272\355=6\370\222\233"
 535      EAC706D7 
 535      BAED3D36 
 535      F8929B
 536 0da5 5AC29FDB 		.ascii	"Z\302\237\333\217\217\015\222\372\324\333\332\005im"
 536      8F8F0D92 
 536      FAD4DBDA 
 536      05696D
 537 0db4 93D418E4 		.ascii	"\223\324\030\344]\371)\270\365n\022\203,\355\223\362"
 537      5DF929B8 
 537      F56E1283 
 537      2CED93F2 
ARM GAS  /tmp/ccryQ9rE.s 			page 42


 538 0dc4 D181E487 		.ascii	"\321\201\344\207\276\033h\006\276\273,?\005\327\220"
 538      BE1B6806 
 538      BEBB2C3F 
 538      05D790
 539 0dd3 9A05982E 		.ascii	"\232\005\230.\317^\221\237\202S\036rj@*Hg\013%\353\214"
 539      CF5E919F 
 539      82531E72 
 539      6A402A48 
 539      670B25EB 
 540 0de8 460F587F 		.ascii	"F\017X\177E\367\314T\243c8\257\016n\276\036n\253\035"
 540      45F7CC54 
 540      A36338AF 
 540      0E6EBE1E 
 540      6EAB1D
 541 0dfb 388BC7D7 		.ascii	"8\213\307\327\026\352\341Z\034\303y\215d\311$)\203g"
 541      16EAE15A 
 541      1CC3798D 
 541      64C92429 
 541      8367
 542 0e0d 37B8C954 		.ascii	"7\270\311T\336\210S\255\021\363\3271\337bg\332\255s"
 542      DE8853AD 
 542      11F3D731 
 542      DF6267DA 
 542      AD73
 543 0e1f 6BA6DD4E 		.ascii	"k\246\335N$\362\245\3644\002\323\256\363\346\221\241"
 543      24F2A5F4 
 543      3402D3AE 
 543      F3E691A1 
 544 0e2f DB92A79D 		.ascii	"\333\222\247\235$\0033\012\266i)hwL\201WKAl\311~\351"
 544      2403330A 
 544      B6692968 
 544      774C8157 
 544      4B416CC9 
 545 0e45 C693F242 		.ascii	"\306\223\362B\344\3734\236\321-\007\213\360j\371\376"
 545      E4FB349E 
 545      D12D078B 
 545      F06AF9FE 
 546 0e55 DC8D4F28 		.ascii	"\334\215O(`\037:\006\313\322\201\255\320\202\305\035"
 546      601F3A06 
 546      CBD281AD 
 546      D082C51D 
 547 0e65 83993D2E 		.ascii	"\203\231=.\3652\352\377\025\324y3\346\3331\337\201y"
 547      F532EAFF 
 547      15D47933 
 547      E6DB31DF 
 547      8179
 548 0e77 4C6B051C 		.ascii	"Lk\005\034s\232\232\372\212\003\322\240\252\236\212"
 548      739A9AFA 
 548      8A03D2A0 
 548      AA9E8A
 549 0e86 B18B6BA6 		.ascii	"\261\213k\246\333\027\264\272\275\336\307\206S\367\232"
 549      DB17B4BA 
 549      BDDEC786 
 549      53F79A
 550 0e95 5B5747F7 		.ascii	"[WG\367\227\262S\227\2009F\354\353\024Qo-\013\272V\310"
 550      97B25397 
 550      803946EC 
ARM GAS  /tmp/ccryQ9rE.s 			page 43


 550      EB14516F 
 550      2D0BBA56 
 551 0eaa DB75E93D 		.ascii	"\333u\351=\217iv\360,\336\363X\336%\235\214!\330<\307"
 551      8F6976F0 
 551      2CDEF358 
 551      DE259D8C 
 551      21D83CC7 
 552 0ebe 605EC6F4 		.ascii	"`^\306\364\243}\347\201g\227\343\006\355y\334\352\277"
 552      A37DE781 
 552      6797E306 
 552      ED79DCEA 
 552      BF
 553 0ecf 8679B7B4 		.ascii	"\206y\267\264\371\307\205\374*\346kPK\357`\276\033\363"
 553      F9C785FC 
 553      2AE66B50 
 553      4BEF60BE 
 553      1BF3
 554 0ee1 363B1A5B 		.ascii	"6;\032[\244} `)\2620?\355\207\\>\375\374\200Kv\371\015"
 554      A47D2060 
 554      29B2303F 
 554      ED875C3E 
 554      FDFC804B 
 555 0ef8 D2898063 		.ascii	"\322\211\200c@\275\302\276\226Nc%\260\265v\300\214\346"
 555      40BDC2BE 
 555      964E6325 
 555      B0B576C0 
 555      8CE6
 556 0f0a B646AA92 		.ascii	"\266F\252\222<\027\240<\027\242\014\367\241\254\336"
 556      3C17A03C 
 556      17A20CF7 
 556      A1ACDE
 557 0f19 D3CF9AF5 		.ascii	"\323\317\232\365}\351Y3\237~\324P}\255\206\261\3022"
 557      7DE95933 
 557      9F7ED450 
 557      7DAD86B1 
 557      C232
 558 0f2b 93FB3C55 		.ascii	"\223\373<U\356<{\022\317\231\235\274o\244\027S\317\036"
 558      EE3C7B12 
 558      CF999DBC 
 558      6FA41753 
 558      CF1E
 559 0f3d C50B4AFF 		.ascii	"\305\013J\377\266\320\204\344\247xA\314\350\304\327"
 559      B6D084E4 
 559      A77841CC 
 559      E8C4D7
 560 0f4c E8A3FDD7 		.ascii	"\350\243\375\327\013p\026\370\264\372\313\370\002\343"
 560      0B7016F8 
 560      B4FACBF8 
 560      02E3
 561 0f5a 05CCA723 		.ascii	"\005\314\247#\353\2631\237\213\3713\322\343\304v\304"
 561      EBB3319F 
 561      8BF933D2 
 561      E3C476C4 
 562 0f6a B05A7DBD 		.ascii	"\260Z}\275\321\301\275\352\206\235\227\345\373\245\207"
 562      D1C1BDEA 
 562      869D97E5 
 562      FBA587
ARM GAS  /tmp/ccryQ9rE.s 			page 44


 563 0f79 F095979B 		.ascii	"\360\225\227\233I\352rx\257\372.f\205\030\213\307\027"
 563      49EA7278 
 563      AFFA2E66 
 563      85188BC7 
 563      17
 564 0f8a 355E9ECF 		.ascii	"5^\236\317>;\245\256M\374\222\334\027\323\275\246a\237"
 564      3E3BA5AE 
 564      4DFC92DC 
 564      17D3BDA6 
 564      619F
 565 0f9c BCA62D47 		.ascii	"\274\246-G"
 566 0fa0 BBE533E9 		.ascii	"\273\3453\351N$\257\256?M\336!\2673\372\314\304\367"
 566      4E24AFAE 
 566      3F4DDE21 
 566      B733FACC 
 566      C4F7
 567 0fb2 A17B805C 		.ascii	"\241{\200\\R\336\010\341\230Y\324h\014\363\357\314Z"
 567      52DE08E1 
 567      9859D468 
 567      0CF3EFCC 
 567      5A
 568 0fc3 51AC97B8 		.ascii	"Q\254\227\270\273\264\263\3566\211.\322\253\303}\227"
 568      BBB4B3EE 
 568      36892ED2 
 568      ABC37D97 
 569 0fd3 212732E8 		.ascii	"!'2\350Q\267\356\317X$)\305\032w\317\311\23279\336\323"
 569      51B7EECF 
 569      582429C5 
 569      1A77CFC9 
 569      9A3739DE 
 570 0fe8 7317F51E 		.ascii	"s\027\365\036\013A5\243\364\270\001\245\253M(\025\033"
 570      0B4135A3 
 570      F4B801A5 
 570      AB4D2815 
 570      1B
 571 0ff9 5E165D2A 		.ascii	"^\026]*\221\037["
 571      911F5B
 572 1000 1379C290 		.ascii	"\023y\302\220\310\255{\014\211\264\377\016X\323\226"
 572      C8AD7B0C 
 572      89B4FF0E 
 572      58D396
 573 100f EE2118ED 		.ascii	"\356!\030\355v\273\311+`\257S\264\332|\005\354S7\365"
 573      76BBC92B 
 573      60AF53B4 
 573      DA7C05EC 
 573      5337F5
 574 1022 0AD8F15A 		.ascii	"\012\330\361Z\257T\233\372\005\260\355\375\223_\000"
 574      AF549BFA 
 574      05B0EDFD 
 574      935F00
 575 1031 7BBBBFE1 		.ascii	"{\273\277\341\013`\357\3657|\001\254\263\277\341\013"
 575      0B60EFF5 
 575      377C01AC 
 575      B3BFE10B 
 576 1041 60DDFD9D 		.ascii	"`\335\375\235\277\000\2462\302\263\237a\000r\332m\374"
 576      BF00A632 
 576      C2B39F61 
ARM GAS  /tmp/ccryQ9rE.s 			page 45


 576      0072DA6D 
 576      FC
 577 1052 02989905 		.ascii	"\002\230\231\005\2344\260\200\363\346\266\332\375\243"
 577      9C34B080 
 577      F3E6B6DA 
 577      FDA3
 578 1060 25921974 		.ascii	"%\222\031t\313\302\212[\233\301%C38\332nb\253\004\325"
 578      CBC28A5B 
 578      9BC12543 
 578      3338DA6E 
 578      62AB04D5 
 579 1074 8CD2AF0C 		.ascii	"\214\322\257\014(\275im\253\012\221W\254\211\274jHd"
 579      28BD696D 
 579      AB0A9157 
 579      AC89BC6A 
 579      4864
 580 1086 FDFE3488 		.ascii	"\375\3764\210\374\306M\275\031v\010\265\254\376k\201"
 580      FCC64DBD 
 580      197608B5 
 580      ACFE6B81 
 581 1096 8E01E461 		.ascii	"\216\001\344a\336\017\364<\374\224y\0018\210-zz\356"
 581      DE0FF43C 
 581      FC947901 
 581      38882D7A 
 581      7AEE
 582 10a8 ADE2138A 		.ascii	"\255\342\023\212/]\203\215\256\231\360!\273.\271\347"
 582      2F5D838D 
 582      AE99F021 
 582      BB2EB9E7 
 583 10b8 92FD7321 		.ascii	"\222\375s!\236\342\344\273\037/\322=u4+4Ib\203\335\360"
 583      9EE2E4BB 
 583      1F2FD23D 
 583      75342B34 
 583      496283DD 
 584 10cd 9C5B673D 		.ascii	"\234[g=\241\012\316l@\231\333\033\311\202[\025\217-"
 584      A10ACE6C 
 584      4099DB1B 
 584      C9825B15 
 584      8F2D
 585 10df 17D0533F 		.ascii	"\027\320S?\343u\340\210\352<\006r\243\004\265\336XP"
 585      E375E088 
 585      EA3C0672 
 585      A304B5DE 
 585      5850
 586 10f1 2BCF6E65 		.ascii	"+\317ne\305\014EPob\243\311\036KA\311\374\326\305\236"
 586      C50C4550 
 586      6F62A3C9 
 586      1E4B41C9 
 586      FCD6C59E 
 587 1105 FF74EB6A 		.ascii	"\377t\353j\354\254x5\263\2162\231Oy\214\030n\204x\210"
 587      ECAC7835 
 587      B38E3299 
 587      4F798C18 
 587      6E847888 
 588 1119 18CACA87 		.ascii	"\030\312\312\207$F8&fLj\3234U\247<;\315C\342\213\031"
 588      24463826 
 588      664C6AD3 
ARM GAS  /tmp/ccryQ9rE.s 			page 46


 588      3455A73C 
 588      3BCD43E2 
 589 112f 3649DDBC 		.ascii	"6I\335\274[R\215B\251Y?\231\322\231\206\224\222\007"
 589      5B528D42 
 589      A9593F99 
 589      D2998694 
 589      9207
 590 1141 27254A1D 		.ascii	"'%J\035\330\364\\#\335\030\375\373\206\364\213il\345"
 590      D8F45C23 
 590      DD18FDFB 
 590      86F48B69 
 590      6CE5
 591 1153 31F87713 		.ascii	"1\370w\023\007\217\3304\234\273\"\207\027\365\036\242"
 591      078FD834 
 591      9CBB2287 
 591      17F51EA2 
 592 1163 E9777F40 		.ascii	"\351w\177@\257\337i\375Q\220SBbW\266\222\273\272\013"
 592      AFDF69FD 
 592      51905342 
 592      6257B692 
 592      BBBA0B
 593 1176 91864349 		.ascii	"\221\206CI4x(\032<z\032<\331jA\245\2012\364NC\353\001"
 593      3478281A 
 593      3C7A1A3C 
 593      D96A41A5 
 593      8132F44E 
 594 118d EF7BEE47 		.ascii	"\357{\356GK\033D\342\330\264\0064\307\332\200d\323k"
 594      4B1B44E2 
 594      D8B40634 
 594      C7DA8064 
 594      D36B
 595 119f D9233B05 		.ascii	"\331#;\005\242\006\236\355qS])\257\200\312\222\273\356"
 595      A2069EED 
 595      71535D29 
 595      AF80CA92 
 595      BBEE
 596 11b1 00A34948 		.ascii	"\000\243IH\375$\322f\336\221\264R:\036\234.\217)\011"
 596      FD24D266 
 596      DE91B452 
 596      3A1E9C2E 
 596      8F2909
 597 11c4 EB4C8AAE 		.ascii	"\353L\212\256\013=Z{o\336\243wEfl\312\002\\bh\357G\333"
 597      0B3D5A7B 
 597      6FDEA377 
 597      45666CCA 
 597      025C6268 
 598 11db D3B0F735 		.ascii	"\323\260\3675v\355\335\326?\002\035v\177\217\177\004"
 598      76EDDDD6 
 598      3F021D76 
 598      7F8F7F04 
 599 11eb 5A6B3467 		.ascii	"Zk4gd!k\276\313\222\243\314\350\202\261\023:>+\331\011"
 599      64216BBE 
 599      CB92A3CC 
 599      E882B113 
 599      3A3E2BD9 
 600 1200 ADB66543 		.ascii	"\255\266eC]\355\363%}\256\325\330\320jS}\256\325\330"
 600      5DEDF325 
ARM GAS  /tmp/ccryQ9rE.s 			page 47


 600      7DAED5D8 
 600      D06A537D 
 600      AED5D8
 601 1213 D0A576D9 		.ascii	"\320\245v\331\024\352qB<O\217jaEWfi\254\210gW\246\350"
 601      14EA7142 
 601      3C4F8F6A 
 601      61455766 
 601      69AC8867 
 602 122a AAB7A263 		.ascii	"\252\267\242c\355z+2cT\226\367+\206VT\277?\015+\332"
 602      ED7A2B32 
 602      635496F7 
 602      2B865654 
 602      BF3F0D2B 
 603 123f 68614509 		.ascii	"haE\011\337n\035\031|k\254\300\005O'+p\203-\005.\334"
 603      DF6E1D19 
 603      7C6BACC0 
 603      054F272B 
 603      70832D05 
 604 1255 9F3B50E9 		.ascii	"\237;P\351\367\235\333~?mD\241\350}\203\251\0064\021"
 604      F79DDB7E 
 604      3F6D44A1 
 604      E87D83A9 
 604      063411
 605 1268 455D5244 		.ascii	"E]RDa6\240,\265\327\223\025\2601\036;\362\376>\026\202"
 605      6136A02C 
 605      B5D79315 
 605      B0311E3B 
 605      F2FE3E16 
 606 127d BA7F903B 		.ascii	"\272\177\220;\336\224\012\210\245\230\251`\233'9b|\352"
 606      DE940A88 
 606      A598A960 
 606      9B273962 
 606      7CEA
 607 128f 87861163 		.ascii	"\207\206\021c\235\330\370\262\230\255\314,\236m6\341"
 607      9DD8F8B2 
 607      98ADCC2C 
 607      9E6D36E1 
 608 129f 4EC67B33 		.ascii	"N\306{3\231\314\370\274\370\256\267Z\331%\342\316\247"
 608      99CCF8BC 
 608      F8AEB75A 
 608      D925E2CE 
 608      A7
 609 12b0 C49E9EBF 		.ascii	"\304\236\236\277\321tZ\376#\037m*d\377MG\211ItKMcF\224"
 609      D1745AFE 
 609      231F6D2A 
 609      64FF4D47 
 609      8949744B 
 610 12c8 C43EDE37 		.ascii	"\304>\3367Gd\245\340U\202\207\350\311\004`\247!\300"
 610      4764A5E0 
 610      558287E8 
 610      C90460A7 
 610      21C0
 611 12da E5648056 		.ascii	"\345d\200V\023\200w\014\001\216\252\000\016$\261\333"
 611      1380770C 
 611      018EAA00 
 611      0E24B1DB 
 612 12ea 4812892F 		.ascii	"H\022\211/\362?\321Q\222\371\310\204\256\275\206t}\224"
ARM GAS  /tmp/ccryQ9rE.s 			page 48


 612      F23FD151 
 612      92F9C884 
 612      AEBD8674 
 612      7D94
 613 12fc 165DFB2C 		.ascii	"\026]\373,\3512\372\2036\2169gB\327~C\272\276L\213\256"
 613      E932FA83 
 613      368E3967 
 613      42D77E43 
 613      BABE4C8B 
 614 1311 03967475 		.ascii	"\003\226tu\032\312k\362\000c\272\016\033\322uBk\010"
 614      1ACA6BF2 
 614      0063BA0E 
 614      1BD27542 
 614      6B08
 615 1323 FBD010E6 		.ascii	"\373\320\020\346\233\000t\350\001~\302\254&\223bQc\373"
 615      9B0074E8 
 615      017EC2AC 
 615      26936251 
 615      63FB
 616 1335 1AB65E5C 		.ascii	"\032\266^\\\325\006\333\354\236\036\366.\345\277__M"
 616      D506DBEC 
 616      9E1EF62E 
 616      E5BF5F5F 
 616      4D
 617 1346 A0C8CC25 		.ascii	"\240\310\314%\377\257k\247\012H\277\275\3561\377_\214"
 617      FFAF6BA7 
 617      0A48BFBD 
 617      EE31FF5F 
 617      8C
 618 1357 8FD435D3 		.ascii	"\217\3245\323\313\254$\021[\313\\1\207\303\227\021\225"
 618      CBAC2411 
 618      5BCB5C31 
 618      87C39711 
 618      95
 619 1368 D31546DF 		.ascii	"\323\025F\337b\2368\325\362\367\330\241iZ\204\217S "
 619      629E38D5 
 619      F2F7D8A1 
 619      695A848F 
 619      5320
 620 137a A4FA3D9E 		.ascii	"\244\372=\236\342\367+\332\337\355\277\314\276\254\241"
 620      E2F72BDA 
 620      DFEDBFCC 
 620      BEACA1
 621 1389 BB8E95FE 		.ascii	"\273\216\225\376 \247\013\003\256\306\001tt\352\364"
 621      20A70B03 
 621      AEC60174 
 621      74EAF4
 622 1398 75764AEC 		.ascii	"uvJ\354]\026\316\266\233\026;\321\374\003Sbul\202\257"
 622      5D16CEB6 
 622      9B163BD1 
 622      FC035362 
 622      756C82AF 
 623 13ac 6B06923D 		.ascii	"k\006\222=\266\277n\025\211\247\315\233\350Dc\004\261"
 623      B6BF6E15 
 623      89A7CD9B 
 623      E8446304 
 623      B1
ARM GAS  /tmp/ccryQ9rE.s 			page 49


 624 13bd ED69AD72 		.ascii	"\355i\255rt-(\372\311\301\234\031\375\247i\372u\343"
 624      742D28FA 
 624      C9C19C19 
 624      FDA769FA 
 624      75E3
 625 13cf 927D213D 		.ascii	"\222}!=\256\336\254t-\250q\217[\214{\316r\334\031\006"
 625      AEDEAC74 
 625      2DA8718F 
 625      5B8C7BCE 
 625      72DC1906 
 626 13e3 E3EA8D71 		.ascii	"\343\352\215q\206\305\270\373,\246\311yu\\\252\327n"
 626      86C5B8FB 
 626      2CA6C979 
 626      755CAAD7 
 626      6E
 627 13f4 8B5E174C 		.ascii	"\213^\027L{\235\264\340\361\242%\217s\014x<:]\313\343"
 627      7B9DB4E0 
 627      F1A2258F 
 627      730C783C 
 627      3A5DCBE3 
 628 1408 1C0B1E0F 		.ascii	"\034\013\036\017XP{\331\224\332\257,\250\275bI\355j"
 628      58507BD9 
 628      94DAAF2C 
 628      A8BD6249 
 628      ED6A
 629 141a 036AFF31 		.ascii	"\003j\3771KK\355j\013j\277\261\030\367k\313q7\030\214"
 629      4B4BED6A 
 629      0B6ABFB1 
 629      18F76BCB 
 629      7137188C 
 630 142e DBA8B37C 		.ascii	"\333\250\263|]\013\346\276\374\362P\245\220\037\010"
 630      5D0BE6BE 
 630      FCF250A5 
 630      901F08
 631 143d 954ECA2F 		.ascii	"\225N\312/\025&\344\007\312\203\343\202\241H~4\\S\365"
 631      1526E407 
 631      CA83E382 
 631      A1487E34 
 631      5C53F5
 632 1450 643E14CA 		.ascii	"d>\024\312\371\212\374`U\240\242\246T\310\257\254\014"
 632      F98AFC60 
 632      55A0A2A6 
 632      54C8AFAC 
 632      0C
 633 1461 F823D5C1 		.ascii	"\370#\325\301{\312\231\354\221#\013\012\303\301\011"
 633      7BCA99EC 
 633      91230B0A 
 633      C3C109
 634 1470 4238E3D1 		.ascii	"B8\343\321Qc\275\005L^\242\342\261\221%\036\377\303"
 634      5163BD05 
 634      4C5EA2E2 
 634      B191251E 
 634      FFC3
 635 1482 A150456E 		.ascii	"\241PEn0\342\017VE\204pT(\315\203ru8\024\025\002\360"
 635      30E20F56 
 635      45847054 
 635      28CD8372 
ARM GAS  /tmp/ccryQ9rE.s 			page 50


 635      75381415 
 636 1498 253310AA 		.ascii	"%3\020\252\252\202RNi0\"\027\177\232_\023\011\347\363"
 636      AA82524E 
 636      69302217 
 636      7F9A5F13 
 636      09E7F3
 637 14ab E1CA5F56 		.ascii	"\341\312_V\205\252\204_\012\374\270`b\324H\2644X\025"
 637      85AA845F 
 637      0AFCB860 
 637      62D448B4 
 637      345815
 638 14be 8541B36A 		.ascii	"\205A\263j\340:d\260?z\257E\353J\036X\250\022\362\375"
 638      E03A64B0 
 638      3F7AAF45 
 638      EB4A1E58 
 638      A812F2FD 
 639 14d2 A542195F 		.ascii	"\245B\031_S\021\365G'U\013\021\350\235\343\367+\375"
 639      5311F547 
 639      27550B11 
 639      E89DE3F7 
 639      2BFD
 640 14e4 334961A8 		.ascii	"3Ia\250?\232-UA\311\035\026\370R\317\304p0*\270#\223"
 640      3F9A2D55 
 640      41C91D16 
 640      F852CFC4 
 640      70302AB8 
 641 14fa AA02BF76 		.ascii	"\252\002\277v\"\026(\373\203\241q\025\241\300\2230N"
 641      221628FB 
 641      83A17115 
 641      A1C09330 
 641      4E
 642 150b EF8749A1 		.ascii	"\357\207I\241P\230\020\014\010EUe\241\254q\025O\372"
 642      5098100C 
 642      08455565 
 642      A1AC7115 
 642      4FFA
 643 151d 23C1FF11 		.ascii	"#\301\377\0212I\241\252\2462k\274\020\005\301\224\205"
 643      3249A1AA 
 643      A6326BBC 
 643      1005C194 
 643      85
 644 152e 5C132AA3 		.ascii	"\\\023*\2439P\031\211\362Q\301\037\315yx\304\357\374"
 644      39501989 
 644      F251C11F 
 644      CD7978C4 
 644      EFFC
 645 1540 6347158D 		.ascii	"cG\025\215**\311\"\305\342\222\321c\260nXAI\321c\303"
 645      2A2AC922 
 645      C5E292D1 
 645      63B06E58 
 645      4149D163 
 646 1555 7B9162C1 		.ascii	"{\221b\301\350Q\243\206\303\327Q\217\366%_\013\213\212"
 646      E851A386 
 646      C3D7518F 
 646      F6255F0B 
 646      8B8A
 647 1567 D59A6C52 		.ascii	"\325\232lR\343\033>\254\360\017\271J\011j\261\374\270"
ARM GAS  /tmp/ccryQ9rE.s 			page 51


 647      E31B3EAC 
 647      F00FB94A 
 647      096AB1FC 
 647      B8
 648 1578 AFA84429 		.ascii	"\257\250D)\027\377aT\001\224=8\252+\020,u\005\"\245"
 648      17FF6154 
 648      01943D38 
 648      AA2B102C 
 648      750522A5 
 649 158c 5901BE9A 		.ascii	"Y\001\276\232\017\004\243\223\012\3550^\035\012G#\371"
 649      0F04A393 
 649      0AED305E 
 649      1D0A4723 
 649      F9
 650 159d C5252387 		.ascii	"\305%#\207\014\316\0371\2420\277xL\321\204A\371`\031"
 650      0CCE1F31 
 650      A230BF78 
 650      4CD18441 
 650      F96019
 651 15b0 FE8A8A52 		.ascii	"\376\212\212Rb\035P!\031\303`'r\224L+\007.\212D\000"
 651      621D5021 
 651      19C36027 
 651      72944C2B 
 651      072E8A44 
 652 15c5 47910829 		.ascii	"G\221\010)\022\211\020l\211K\374U\222M\036)\026\214"
 652      1289106C 
 652      894BFC55 
 652      924D1E29 
 652      168C
 653 15d7 1E3966C4 		.ascii	"\0369f\304\360\222\341\267\000@\200\257\250\030\307"
 653      F092E1B7 
 653      004080AF 
 653      A818C7
 654 15e6 079EF447 		.ascii	"\007\236\364G3\204\252R\177`\334\003\251\010\021j\243"
 654      3384AA52 
 654      7F60DC03 
 654      A908116A 
 654      A3
 655 15f7 F905238B 		.ascii	"\371\005#\213\213\212\201/0\271\312!\203\313\006\015"
 655      8B8A812F 
 655      30B9CA21 
 655      83CB060D 
 656 1607 AC057AF2 		.ascii	"\254\005z\362\036\035S4\332_\002VT(\224\271\012|# \375"
 656      1E1D5334 
 656      DA5F0256 
 656      542894B9 
 656      0A7C2320 
 657 161c D65554E8 		.ascii	"\326UT\350s\215.\364\271\037.\366\371\\\017\373|\356"
 657      738D2EF4 
 657      B91F2EF6 
 657      F95C0FFB 
 657      7CEE
 658 162e 1105BFF3 		.ascii	"\021\005\277\363\015OGx\004\036\244W\015F$I/'\030\""
 658      0D4F4778 
 658      041EA457 
 658      0D462449 
 658      2F271822 
ARM GAS  /tmp/ccryQ9rE.s 			page 52


 659 1642 6D82A540 		.ascii	"m\202\245@|$B\212h\370\203\356\003\201H\006K\212\036"
 659      7C24428A 
 659      68F883EE 
 659      03814806 
 659      4B8A1E
 660 1655 F88907DD 		.ascii	"\370\211\007\335\205\007\021\211\024\204\252\312\202"
 660      85071189 
 660      1484AACA 
 660      82
 661 1662 E3330278 		.ascii	"\3433\002x\031\232\212\214p4!\363@ydRD\231\"Y\321r2"
 661      199A8A8C 
 661      703421F3 
 661      40796452 
 661      44992259 
 662 1679 0F606204 		.ascii	"\017`b\004\312\375R\371^gX\201r\302AF\265\277\012\344"
 662      CAFD52F9 
 662      5E675881 
 662      72C24146 
 662      B5BF0AE4 
 663 168d 0997EAB0 		.ascii	"\011\227\352\2600\341\2676 $\241\014\363\215,\030Y\013"
 663      30E1B736 
 663      2024A10C 
 663      F38D2C18 
 663      590B
 664 169f 2D2BAB83 		.ascii	"-+\253\203\025B8\222\377hA\0014W\310\313\214V\207\203"
 664      15423892 
 664      FF684101 
 664      3457C8CB 
 664      8C568783 
 665 16b3 21BF841B 		.ascii	"!\277\204\033\014\0217\022\205aR\2526\011\277<\020\012"
 665      0C113712 
 665      856152AA 
 665      3609BF3C 
 665      100A
 666 16c5 0B00984B 		.ascii	"\013\000\230K\252a*F\003\321\332\377L\017\305?\341\376"
 666      AA612A46 
 666      03D1DAFF 
 666      4C0FC53F 
 666      E1FE
 667 16d7 4A22B9B0 		.ascii	"J\"\271\2600\036\374\221?\312\205\357\345\302\277\342"
 667      301EFC91 
 667      3FCA85EF 
 667      E5C2BFE2 
 668 16e7 C2F771E1 		.ascii	"\302\367q\341\373\271\360P.\374\200+<h \244A\\E\030"
 668      FBB9F050 
 668      2EFC802B 
 668      3C6820A4 
 668      415C4518 
 669 16fb 2E433CD5 		.ascii	".C<\325~\030-\223Hh\242\020\206k\250\242T\010\273\003"
 669      7E182D93 
 669      4868A210 
 669      866BA8A2 
 669      5408BB03 
 670 170f E57C9888 		.ascii	"\345|\230\210\215\257\024\262\242\262\371\303\217X\312"
 670      8DAF14B2 
 670      A2B2F9C3 
 670      8F58CA
ARM GAS  /tmp/ccryQ9rE.s 			page 53


 671 171e 8C56864A 		.ascii	"\214V\206J\245\357e\025\374\370Hf4,\224EP\016\244\340"
 671      A5EF6515 
 671      FCF84866 
 671      342C9445 
 671      500EA4E0 
 672 1732 A98C8C87 		.ascii	"\251\214\214\207\037e\337\006>M.e\204K'\301OYBm0\012"
 672      1F65DF06 
 672      3E4D2E65 
 672      844B27C1 
 672      4F59426D 
 673 1748 6C091913 		.ascii	"l\011\031\023\243\241q\177\256\316\025&\010U\321J>\202"
 673      A3A1717F 
 673      AECE1526 
 673      0855D14A 
 673      3E82
 674 175a 93632229 		.ascii	"\223c\")\270\252\3755\275$}G\374\0250\373\374\321\336"
 674      B8AAFD35 
 674      BD247D47 
 674      FC1530FB 
 674      FCD1DE
 675 176d 090B906A 		.ascii	"\011\013\220j\262\253\375\023\371`4X5\276\267R\375\227"
 675      B2ABFD13 
 675      F9603458 
 675      35BEB752 
 675      FD97
 676 177f 1AA106A8 		.ascii	"\032\241\006\250\352\243i\211U9\325~\030\026\213\036"
 676      EAA36989 
 676      5539D57E 
 676      18168B1E 
 677 178f 2C428550 		.ascii	",B\205P\015\323\020:{*k@eC\034\031Ue\224L\303\314J\011"
 677      0DD3103A 
 677      7B2A6B40 
 677      65431C19 
 677      5565944C 
 678 17a7 1DAEA189 		.ascii	"\035\256\241\211U 9D\002\026*\321\326\200>hG(\315!R"
 678      55203944 
 678      02162AD1 
 678      D6803E68 
 678      4728CD21 
 679 17bc E12BD042 		.ascii	"\341+\320B\240\262\032V\242\373\035\215'3\003c\366\223"
 679      A0B21A56 
 679      A2FB1D8D 
 679      27330363 
 679      F693
 680 17ce E703     		.ascii	"\347\003"
 681 17d0 4859080B 		.ascii	"HY\010\013U\001\3406C\252\312%\016G\365\011\203\262"
 681      5501E036 
 681      43AACA25 
 681      0E47F509 
 681      83B2
 682 17e2 7DC38B87 		.ascii	"}\303\213\207\373\036\033^8\020\276\015N|\033\304\025"
 682      FB1E1B5E 
 682      3810BE0D 
 682      4E7C1BC4 
 682      15
 683 17f3 FB125F06 		.ascii	"\373\022_\006s\205\352\227!\236\002_\301\030\365\373"
 683      7385EA97 
ARM GAS  /tmp/ccryQ9rE.s 			page 54


 683      219E025F 
 683      C118F5FB 
 684 1803 BD19BEDF 		.ascii	"\275\031\276\337C\215Z\361\253\214\022}\305}\231E\203"
 684      438D5AF1 
 684      AB8C127D 
 684      C57D9945 
 684      83
 685 1814 8B0B1E79 		.ascii	"\213\013\036yT\255\271\337\0035\032\214\241.\360|\217"
 685      54ADB9DF 
 685      03351A8C 
 685      A12EF07C 
 685      8F
 686 1825 38F54198 		.ascii	"8\365A\230?2\250\266V\362z\376\322J\036X\357_8r\230"
 686      3F32A8B6 
 686      56F27AFE 
 686      D24A1E58 
 686      EF5F3872 
 687 183a BFA09C87 		.ascii	"\277\240\234\207\325\271Be\264\300\347)\030UX\342s\027"
 687      D5B94265 
 687      B4C0E729 
 687      185558E2 
 687      7317
 688 184c 8C1906D9 		.ascii	"\214\031\006\331\310a\276\314\200\324\306\035,\013\204"
 688      C861BECC 
 688      80D4C61D 
 688      2C0B84
 689 185b 338291F2 		.ascii	"3\202\221\362`Y4;\"T\224\005\253J\205\332\214\011\260"
 689      6059343B 
 689      22549405 
 689      AB4A85DA 
 689      8C09B0
 690 186e B687C2FD 		.ascii	"\266\207\302\375\022\310`\320 >\230'\036\370\022\256"
 690      12C860D0 
 690      203E9827 
 690      1EF812AE 
 691 187e 2579B436 		.ascii	"%y\2646;\\\013Wb\343\331Q\245\344\006V\252=\025\221"
 691      3B5C0B57 
 691      62E3D951 
 691      A5E40656 
 691      AA3D1591 
 692 1892 40D9784F 		.ascii	"@\331xO9\311I\304!y\271\336\270\322\372\371\322\322"
 692      39C949C4 
 692      2179B9DE 
 692      B8D2FAF9 
 692      D2D2
 693 18a4 B0108908 		.ascii	"\260\020\211\010\221\224\356\216\270\3662>Z\026\311"
 693      9194EE8E 
 693      B8F6323E 
 693      5A16C9
 694 18b3 8F8403A0 		.ascii	"\217\204\003\240\350\2500^\010\003\217\356\207\377P"
 694      E8A8305E 
 694      08038FEE 
 694      87FF50
 695 18c2 323CA5BC 		.ascii	"2<\245\274&\360`I5\021\011\301?.\210v\254|\205\010\346"
 695      26F06049 
 695      351109C1 
 695      3F2E8876 
ARM GAS  /tmp/ccryQ9rE.s 			page 55


 695      AC7C8508 
 696 18d7 C960E89E 		.ascii	"\311`\350\236\000\223\322\304\364D\310\375\300\254\013"
 696      0093D2C4 
 696      F444C8FD 
 696      C0AC0B
 697 18e6 8B4B8695 		.ascii	"\213K\206\225\214-\036@j`\346\302\024\343+ X\270\247"
 697      8C2D1E40 
 697      6A60E6C2 
 697      14E32B20 
 697      58B8A7
 698 18f9 9A0F47EF 		.ascii	"\232\017G\357\031\330\017\253\211\027\250\211HU\203"
 698      19D80FAB 
 698      8917A889 
 698      485583
 699 1908 320B41DF 		.ascii	"2\013A\337cG\224d\300\305?\372wD\373\376\341>\337h\264"
 699      63479464 
 699      C0C53FFA 
 699      7744FBFE 
 699      E13EDF68 
 700 191d 0358E9C7 		.ascii	"\003X\351\307\370JrHi\324\350\022\037,\222\244\010\312"
 700      F84A7248 
 700      69D4E812 
 700      1F2C92A4 
 700      08CA
 701 192f 82167D10 		.ascii	"\202\026}\020\213X\257\2044\270/V`\320#\325\014\221"
 701      8B58AF84 
 701      34B82F56 
 701      60D023D5 
 701      0C91
 702 1941 6A82A140 		.ascii	"j\202\241@\264B\252\271\327\025\250,u\217\253)+\353"
 702      B442AAB9 
 702      D715A82C 
 702      758FAB29 
 702      2BEB
 703 1953 4D11E8AE 		.ascii	"M\021\350\256.\015O\310\325\220\347)||\264\257\320="
 703      2E0D4FC8 
 703      D590E729 
 703      7C7CB4AF 
 703      D03D
 704 1965 B6685449 		.ascii	"\266hTIvb\244\214\010\032\200'\020\252\251\302xO\036"
 704      7662A48C 
 704      081A8027 
 704      10AAA9C2 
 704      784F1E
 705 1978 2F471D28 		.ascii	"/G\035(\227\204C \231h\260R\270\203D\230\260\012\372"
 705      97844320 
 705      9968B052 
 705      B8834498 
 705      B00AFA
 706 198b 215CC476 		.ascii	"!\\\304vj\320\370C\370\2518\032\252.\026\300\015T\021"
 706      6AD0F843 
 706      F8A9381A 
 706      AA2E16C0 
 706      0D5411
 707 199e 227C803F 		.ascii	"\"|\200? \251\366q\322\255/\2516h\010,\351\253\373\351"
 707      20A9F671 
 707      D2AD2FA9 
ARM GAS  /tmp/ccryQ9rE.s 			page 56


 707      3668082C 
 707      E9ABFBE9 
 708 19b2 1A62DF5B 		.ascii	"\032b\337[\223[b\275\207D\270\203\334\204\311\377\007"
 708      935B62BD 
 708      8744B883 
 708      DC84C9FF 
 708      07
 709 19c3 9F5CB6DA 		.ascii	"\237\\\266\332"
 710              		.text
 711              		.section	.gnu.lto_.symtab.ed27127b010030f5,"",%progbits
 712 0000 6469736B 		.ascii	"disk_initialize\000\000\000\000\000\000\000\000\000"
 712      5F696E69 
 712      7469616C 
 712      697A6500 
 712      00000000 
 713 0018 00000081 		.ascii	"\000\000\000\201\002\000\000disk_status\000\000\000"
 713      02000064 
 713      69736B5F 
 713      73746174 
 713      75730000 
 714 002d 00000000 		.ascii	"\000\000\000\000\000\000\000\000\000\210\002\000\000"
 714      00000000 
 714      00880200 
 714      00
 715 003a 6469736B 		.ascii	"disk_read\000\000\000\000\000\000\000\000\000\000\000"
 715      5F726561 
 715      64000000 
 715      00000000 
 715      00000000 
 716 004e 008C0200 		.ascii	"\000\214\002\000\000disk_write\000\000\000\000\000\000"
 716      00646973 
 716      6B5F7772 
 716      69746500 
 716      00000000 
 717 0063 00000000 		.ascii	"\000\000\000\000\000\000\241\002\000\000disk_ioctl\000"
 717      0000A102 
 717      00006469 
 717      736B5F69 
 717      6F63746C 
 718 0078 00000000 		.ascii	"\000\000\000\000\000\000\000\000\000\000\000\257\002"
 718      00000000 
 718      000000AF 
 718      02
 719 0085 00006765 		.ascii	"\000\000get_fattime\000\000\000\000\000\000\000\000"
 719      745F6661 
 719      7474696D 
 719      65000000 
 719      00000000 
 720 009a 00000000 		.ascii	"\000\000\000\000\271\002\000\000MMCD1\000\000\002\000"
 720      B9020000 
 720      4D4D4344 
 720      31000002 
 720      00
 721 00ab 00000000 		.ascii	"\000\000\000\000\000\000\000\000\326\002\000\000mmc"
 721      00000000 
 721      D6020000 
 721      6D6D63
ARM GAS  /tmp/ccryQ9rE.s 			page 57


 722 00ba 5F6C6C64 		.ascii	"_lld_is_write_protected\000\000\002\000\000\000\000"
 722      5F69735F 
 722      77726974 
 722      655F7072 
 722      6F746563 
 723 00d8 00000000 		.ascii	"\000\000\000\000\000\275\002\000\000mmcStopSequenti"
 723      00BD0200 
 723      006D6D63 
 723      53746F70 
 723      53657175 
 724 00f0 616C5265 		.ascii	"alRead\000\000\002\000\000\000\000\000\000\000\000\000"
 724      61640000 
 724      02000000 
 724      00000000 
 724      0000
 725 0102 C1020000 		.ascii	"\301\002\000\000mmcStopSequentialWrite\000\000\002\000"
 725      6D6D6353 
 725      746F7053 
 725      65717565 
 725      6E746961 
 726 0120 00000000 		.ascii	"\000\000\000\000\000\000\000\000\303\002\000\000mmc"
 726      00000000 
 726      C3020000 
 726      6D6D63
 727 012f 53657175 		.ascii	"SequentialRead\000\000\002\000\000\000\000\000\000\000"
 727      656E7469 
 727      616C5265 
 727      61640000 
 727      02000000 
 728 0147 0000C502 		.ascii	"\000\000\305\002\000\000mmcStartSequentialRead\000\000"
 728      00006D6D 
 728      63537461 
 728      72745365 
 728      7175656E 
 729 0165 02000000 		.ascii	"\002\000\000\000\000\000\000\000\000\000\312\002\000"
 729      00000000 
 729      0000CA02 
 729      00
 730 0172 006D6D63 		.ascii	"\000mmcSequentialWrite\000\000\002\000\000\000\000\000"
 730      53657175 
 730      656E7469 
 730      616C5772 
 730      69746500 
 731 018d 00000000 		.ascii	"\000\000\000\000\317\002\000\000mmcStartSequentialW"
 731      CF020000 
 731      6D6D6353 
 731      74617274 
 731      53657175 
 732 01a8 72697465 		.ascii	"rite\000\000\002\000\000\000\000\000\000\000\000\000"
 732      00000200 
 732      00000000 
 732      00000000 
 733 01b8 D4020000 		.ascii	"\324\002\000\000"
 734              		.text
 735              		.section	.gnu.lto_.opts,"",%progbits
 736 0000 272D6D63 		.ascii	"'-mcpu=cortex-m3' '-mno-thumb-interwork' '-mthumb' "
 736      70753D63 
ARM GAS  /tmp/ccryQ9rE.s 			page 58


 736      6F727465 
 736      782D6D33 
 736      2720272D 
 737 0033 272D4F32 		.ascii	"'-O2' '-fomit-frame-pointer' '-falign-functions=16'"
 737      2720272D 
 737      666F6D69 
 737      742D6672 
 737      616D652D 
 738 0066 20272D66 		.ascii	" '-ffunction-sections' '-fdata-sections' '-fno-comm"
 738      66756E63 
 738      74696F6E 
 738      2D736563 
 738      74696F6E 
 739 0099 6F6E2720 		.ascii	"on' '-flto'\000"
 739      272D666C 
 739      746F2700 
 740              		.text
 741              		.section	.text.disk_initialize,"ax",%progbits
 742              		.align	2
 743              		.p2align 4,,15
 744              		.global	disk_initialize
 745              		.thumb
 746              		.thumb_func
 747              		.type	disk_initialize, %function
 748              	disk_initialize:
 749              		@ args = 0, pretend = 0, frame = 0
 750              		@ frame_needed = 0, uses_anonymous_args = 0
 751 0000 10B5     		push	{r4, lr}
 752 0002 60B9     		cbnz	r0, .L9
 753 0004 0748     		ldr	r0, .L11
 754 0006 0479     		ldrb	r4, [r0, #4]	@ zero_extendqisi2
 755 0008 053C     		subs	r4, r4, #5
 756 000a 18BF     		it	ne
 757 000c 0124     		movne	r4, #1
 758 000e FFF7FEFF 		bl	mmc_lld_is_write_protected
 759 0012 10B1     		cbz	r0, .L4
 760 0014 44F00404 		orr	r4, r4, #4
 761 0018 E4B2     		uxtb	r4, r4
 762              	.L4:
 763 001a 2046     		mov	r0, r4
 764 001c 10BD     		pop	{r4, pc}
 765              	.L9:
 766 001e 0120     		movs	r0, #1
 767 0020 10BD     		pop	{r4, pc}
 768              	.L12:
 769 0022 00BF     		.align	2
 770              	.L11:
 771 0024 00000000 		.word	MMCD1
 772              		.size	disk_initialize, .-disk_initialize
 773 0028 AFF30080 		.section	.text.disk_status,"ax",%progbits
 773      AFF30080 
 774              		.align	2
 775              		.p2align 4,,15
 776              		.global	disk_status
 777              		.thumb
 778              		.thumb_func
 779              		.type	disk_status, %function
ARM GAS  /tmp/ccryQ9rE.s 			page 59


 780              	disk_status:
 781              		@ args = 0, pretend = 0, frame = 0
 782              		@ frame_needed = 0, uses_anonymous_args = 0
 783 0000 10B5     		push	{r4, lr}
 784 0002 60B9     		cbnz	r0, .L21
 785 0004 0748     		ldr	r0, .L22
 786 0006 0479     		ldrb	r4, [r0, #4]	@ zero_extendqisi2
 787 0008 053C     		subs	r4, r4, #5
 788 000a 18BF     		it	ne
 789 000c 0124     		movne	r4, #1
 790 000e FFF7FEFF 		bl	mmc_lld_is_write_protected
 791 0012 10B1     		cbz	r0, .L16
 792 0014 44F00404 		orr	r4, r4, #4
 793 0018 E4B2     		uxtb	r4, r4
 794              	.L16:
 795 001a 2046     		mov	r0, r4
 796 001c 10BD     		pop	{r4, pc}
 797              	.L21:
 798 001e 0120     		movs	r0, #1
 799 0020 10BD     		pop	{r4, pc}
 800              	.L23:
 801 0022 00BF     		.align	2
 802              	.L22:
 803 0024 00000000 		.word	MMCD1
 804              		.size	disk_status, .-disk_status
 805 0028 AFF30080 		.section	.text.disk_read,"ax",%progbits
 805      AFF30080 
 806              		.align	2
 807              		.p2align 4,,15
 808              		.global	disk_read
 809              		.thumb
 810              		.thumb_func
 811              		.type	disk_read, %function
 812              	disk_read:
 813              		@ args = 0, pretend = 0, frame = 8
 814              		@ frame_needed = 0, uses_anonymous_args = 0
 815 0000 10B5     		push	{r4, lr}
 816 0002 0C46     		mov	r4, r1
 817 0004 82B0     		sub	sp, sp, #8
 818 0006 10B1     		cbz	r0, .L38
 819 0008 0420     		movs	r0, #4
 820              	.L25:
 821 000a 02B0     		add	sp, sp, #8
 822              		@ sp needed
 823 000c 10BD     		pop	{r4, pc}
 824              	.L38:
 825 000e 1148     		ldr	r0, .L40
 826 0010 0179     		ldrb	r1, [r0, #4]	@ zero_extendqisi2
 827 0012 0529     		cmp	r1, #5
 828 0014 18BF     		it	ne
 829 0016 0320     		movne	r0, #3
 830 0018 F7D1     		bne	.L25
 831 001a 1146     		mov	r1, r2
 832 001c 0193     		str	r3, [sp, #4]
 833 001e FFF7FEFF 		bl	mmcStartSequentialRead
 834 0022 019B     		ldr	r3, [sp, #4]
 835 0024 68B9     		cbnz	r0, .L29
ARM GAS  /tmp/ccryQ9rE.s 			page 60


 836 0026 13B9     		cbnz	r3, .L31
 837 0028 0DE0     		b	.L30
 838              	.L39:
 839 002a 013B     		subs	r3, r3, #1
 840 002c 0BD0     		beq	.L30
 841              	.L31:
 842 002e 2146     		mov	r1, r4
 843 0030 0848     		ldr	r0, .L40
 844 0032 0193     		str	r3, [sp, #4]
 845 0034 FFF7FEFF 		bl	mmcSequentialRead
 846 0038 04F50074 		add	r4, r4, #512
 847 003c 019B     		ldr	r3, [sp, #4]
 848 003e 0028     		cmp	r0, #0
 849 0040 F3D0     		beq	.L39
 850              	.L29:
 851 0042 0120     		movs	r0, #1
 852 0044 E1E7     		b	.L25
 853              	.L30:
 854 0046 0348     		ldr	r0, .L40
 855 0048 02B0     		add	sp, sp, #8
 856              		@ sp needed
 857 004a BDE81040 		pop	{r4, lr}
 858 004e FFF7FEBF 		b	mmcStopSequentialRead
 859              	.L41:
 860 0052 00BF     		.align	2
 861              	.L40:
 862 0054 00000000 		.word	MMCD1
 863              		.size	disk_read, .-disk_read
 864 0058 AFF30080 		.section	.text.disk_write,"ax",%progbits
 864      AFF30080 
 865              		.align	2
 866              		.p2align 4,,15
 867              		.global	disk_write
 868              		.thumb
 869              		.thumb_func
 870              		.type	disk_write, %function
 871              	disk_write:
 872              		@ args = 0, pretend = 0, frame = 8
 873              		@ frame_needed = 0, uses_anonymous_args = 0
 874 0000 30B5     		push	{r4, r5, lr}
 875 0002 0C46     		mov	r4, r1
 876 0004 83B0     		sub	sp, sp, #12
 877 0006 10B1     		cbz	r0, .L57
 878 0008 0420     		movs	r0, #4
 879              	.L43:
 880 000a 03B0     		add	sp, sp, #12
 881              		@ sp needed
 882 000c 30BD     		pop	{r4, r5, pc}
 883              	.L57:
 884 000e 154D     		ldr	r5, .L60
 885 0010 2979     		ldrb	r1, [r5, #4]	@ zero_extendqisi2
 886 0012 0529     		cmp	r1, #5
 887 0014 18BF     		it	ne
 888 0016 0320     		movne	r0, #3
 889 0018 F7D1     		bne	.L43
 890 001a 2846     		mov	r0, r5
 891 001c 0192     		str	r2, [sp, #4]
ARM GAS  /tmp/ccryQ9rE.s 			page 61


 892 001e 0093     		str	r3, [sp]
 893 0020 FFF7FEFF 		bl	mmc_lld_is_write_protected
 894 0024 019A     		ldr	r2, [sp, #4]
 895 0026 08B1     		cbz	r0, .L58
 896 0028 0220     		movs	r0, #2
 897 002a EEE7     		b	.L43
 898              	.L58:
 899 002c 2846     		mov	r0, r5
 900 002e 1146     		mov	r1, r2
 901 0030 FFF7FEFF 		bl	mmcStartSequentialWrite
 902 0034 009B     		ldr	r3, [sp]
 903 0036 68B9     		cbnz	r0, .L47
 904 0038 13B9     		cbnz	r3, .L49
 905 003a 0DE0     		b	.L48
 906              	.L59:
 907 003c 013B     		subs	r3, r3, #1
 908 003e 0BD0     		beq	.L48
 909              	.L49:
 910 0040 2146     		mov	r1, r4
 911 0042 0848     		ldr	r0, .L60
 912 0044 0093     		str	r3, [sp]
 913 0046 FFF7FEFF 		bl	mmcSequentialWrite
 914 004a 04F50074 		add	r4, r4, #512
 915 004e 009B     		ldr	r3, [sp]
 916 0050 0028     		cmp	r0, #0
 917 0052 F3D0     		beq	.L59
 918              	.L47:
 919 0054 0120     		movs	r0, #1
 920 0056 D8E7     		b	.L43
 921              	.L48:
 922 0058 0248     		ldr	r0, .L60
 923 005a 03B0     		add	sp, sp, #12
 924              		@ sp needed
 925 005c BDE83040 		pop	{r4, r5, lr}
 926 0060 FFF7FEBF 		b	mmcStopSequentialWrite
 927              	.L61:
 928              		.align	2
 929              	.L60:
 930 0064 00000000 		.word	MMCD1
 931              		.size	disk_write, .-disk_write
 932 0068 AFF30080 		.section	.text.disk_ioctl,"ax",%progbits
 932      AFF30080 
 933              		.align	2
 934              		.p2align 4,,15
 935              		.global	disk_ioctl
 936              		.thumb
 937              		.thumb_func
 938              		.type	disk_ioctl, %function
 939              	disk_ioctl:
 940              		@ args = 0, pretend = 0, frame = 0
 941              		@ frame_needed = 0, uses_anonymous_args = 0
 942              		@ link register save eliminated.
 943 0000 08B1     		cbz	r0, .L72
 944              	.L70:
 945 0002 0420     		movs	r0, #4
 946 0004 7047     		bx	lr
 947              	.L72:
ARM GAS  /tmp/ccryQ9rE.s 			page 62


 948 0006 29B1     		cbz	r1, .L66
 949 0008 0229     		cmp	r1, #2
 950 000a FAD1     		bne	.L70
 951 000c 4FF40073 		mov	r3, #512
 952 0010 1380     		strh	r3, [r2]	@ movhi
 953 0012 7047     		bx	lr
 954              	.L66:
 955 0014 0846     		mov	r0, r1
 956 0016 7047     		bx	lr
 957              		.size	disk_ioctl, .-disk_ioctl
 958 0018 AFF30080 		.section	.text.get_fattime,"ax",%progbits
 958      AFF30080 
 959              		.align	2
 960              		.p2align 4,,15
 961              		.global	get_fattime
 962              		.thumb
 963              		.thumb_func
 964              		.type	get_fattime, %function
 965              	get_fattime:
 966              		@ args = 0, pretend = 0, frame = 0
 967              		@ frame_needed = 0, uses_anonymous_args = 0
 968              		@ link register save eliminated.
 969 0000 4FF40410 		mov	r0, #2162688
 970 0004 7047     		bx	lr
 971              		.size	get_fattime, .-get_fattime
 972              		.comm	__gnu_lto_v1,1,1
 973 0006 00BFAFF3 		.ident	"GCC: (GNU Tools for ARM Embedded Processors) 4.8.4 20140526 (release) [ARM/embedded-4_8-br
 973      0080AFF3 
 973      0080
ARM GAS  /tmp/ccryQ9rE.s 			page 63


DEFINED SYMBOLS
                            *ABS*:0000000000000000 fatfs_diskio.c
     /tmp/ccryQ9rE.s:742    .text.disk_initialize:0000000000000000 $t
     /tmp/ccryQ9rE.s:748    .text.disk_initialize:0000000000000000 disk_initialize
     /tmp/ccryQ9rE.s:771    .text.disk_initialize:0000000000000024 $d
     /tmp/ccryQ9rE.s:774    .text.disk_status:0000000000000000 $t
     /tmp/ccryQ9rE.s:780    .text.disk_status:0000000000000000 disk_status
     /tmp/ccryQ9rE.s:803    .text.disk_status:0000000000000024 $d
     /tmp/ccryQ9rE.s:806    .text.disk_read:0000000000000000 $t
     /tmp/ccryQ9rE.s:812    .text.disk_read:0000000000000000 disk_read
     /tmp/ccryQ9rE.s:862    .text.disk_read:0000000000000054 $d
     /tmp/ccryQ9rE.s:865    .text.disk_write:0000000000000000 $t
     /tmp/ccryQ9rE.s:871    .text.disk_write:0000000000000000 disk_write
     /tmp/ccryQ9rE.s:930    .text.disk_write:0000000000000064 $d
     /tmp/ccryQ9rE.s:933    .text.disk_ioctl:0000000000000000 $t
     /tmp/ccryQ9rE.s:939    .text.disk_ioctl:0000000000000000 disk_ioctl
     /tmp/ccryQ9rE.s:959    .text.get_fattime:0000000000000000 $t
     /tmp/ccryQ9rE.s:965    .text.get_fattime:0000000000000000 get_fattime
                            *COM*:0000000000000001 __gnu_lto_v1
     /tmp/ccryQ9rE.s:773    .text.disk_initialize:0000000000000028 $t
     /tmp/ccryQ9rE.s:805    .text.disk_status:0000000000000028 $t
     /tmp/ccryQ9rE.s:864    .text.disk_read:0000000000000058 $t
     /tmp/ccryQ9rE.s:932    .text.disk_write:0000000000000068 $t

UNDEFINED SYMBOLS
mmc_lld_is_write_protected
MMCD1
mmcStartSequentialRead
mmcSequentialRead
mmcStopSequentialRead
mmcStartSequentialWrite
mmcSequentialWrite
mmcStopSequentialWrite
