ARM GAS  /tmp/ccz32YbK.s 			page 1


   1              		.syntax unified
   2              		.cpu cortex-m4
   3              		.eabi_attribute 27, 3
   4              		.eabi_attribute 28, 1
   5              		.fpu fpv4-sp-d16
   6              		.eabi_attribute 20, 1
   7              		.eabi_attribute 21, 1
   8              		.eabi_attribute 23, 3
   9              		.eabi_attribute 24, 1
  10              		.eabi_attribute 25, 1
  11              		.eabi_attribute 26, 1
  12              		.eabi_attribute 30, 2
  13              		.eabi_attribute 34, 1
  14              		.eabi_attribute 18, 4
  15              		.thumb
  16              		.file	"gps.c"
  17              		.section	.gnu.lto_.jmpfuncs.c939903555f4bfc5,"",%progbits
  18 0000 789CB593 		.ascii	"x\234\265\223\275N\3030\024\205\317\265\235\244\377"
  18      BD4EC330 
  18      1485CFB5 
  18      9DA4FF
  19 000f A46D0212 		.ascii	"\244m\002\022CY\220\030x\011\242V\012C\221\220\212\020"
  19      43599018 
  19      7809A256 
  19      0A439190 
  19      8A10
  20 0021 62CC9621 		.ascii	"b\314\226!+\013KF\036\241\013/\320'\341\231\230\260"
  20      2B0B4B46 
  20      1EA10B2F 
  20      D027E199 
  20      98B0
  21 0033 DD923428 		.ascii	"\335\2224(A\271\221\032E\316\225\375\331\347\344\330"
  21      41B9911A 
  21      45CE95FD 
  21      D9E7E4D8 
  22 0043 1610A87B 		.ascii	"\026\020\250{v\036p\243\277\001@\032\221P\244\0138 "
  22      761E70A3 
  22      BF01401A 
  22      9150A40B 
  22      3820
  23 0055 F18EEFFC 		.ascii	"\361\216\357\374#\367SBF\226\355\011\364I\312\027J\211"
  23      23F75342 
  23      4696ED09 
  23      F449CA17 
  23      4A89
  24 0067 24B0042C 		.ascii	"$\260\004,\2635\214X\200>\363\355]jF\364#\014\245t\335"
  24      B3358C58 
  24      803EF3ED 
  24      5D6A46F4 
  24      230CA574 
  25 007c CCBB4C7E 		.ascii	"\314\273L~\310\344}&\0372\371K&\177U\313\017H\0348\233"
  25      C8E47D26 
  25      1F32F94B 
  25      267F55CB 
  25      0F481C38 
  26 0091 B593910D 		.ascii	"\265\223\221\015\373(~\367\026\273<7\225\227\221H\250"
  26      FB287EF7 
ARM GAS  /tmp/ccz32YbK.s 			page 2


  26      16BB3C37 
  26      95979148 
  26      A8
  27 00a2 DCBC9161 		.ascii	"\334\274\221a\307V\014o\364+M\177\244{\013\\\357\245"
  27      C7560C6F 
  27      F42B4D7F 
  27      A47B0B5C 
  27      EFA5
  28 00b4 FB47D25A 		.ascii	"\373G\322Zu\"+\322\203l\357\255\251\223=\302\335z\237"
  28      75222BD2 
  28      836CEFAD 
  28      A9933DC2 
  28      DD7A9F
  29 00c7 A6C63CD9 		.ascii	"\246\306<\331\216\341\027\265L\241\242=*\260\261\305"
  29      8EE117B5 
  29      4CA1A23D 
  29      2AB0B1C5 
  30 00d7 4AAED55A 		.ascii	"J\256\325Zd_Q\242\223\002=\323\267 \241\362\026Y\227"
  30      645F51A2 
  30      93023DD3 
  30      B720A1F2 
  30      165997
  31 00ea 7ED5E43F 		.ascii	"~\325\344?4k\311\031\265\373s\273\361\225\350\013vZ"
  31      346BC919 
  31      B5FB73BB 
  31      F195E80B 
  31      765A
  32 00fc 1B4472C8 		.ascii	"\033Dr\310\274u \363\3239Q<'AW'\263\202\23578qxN\302"
  32      BC7520F3 
  32      D339513C 
  32      27415727 
  32      B3829D37 
  33 0115 AE4E8282 		.ascii	"\256N\202\202\015\033\234\270<'\347\247s\342\361\234"
  33      0D1B9CB8 
  33      3C27E7A7 
  33      73E2F19C 
  34 0125 5CB474D2 		.ascii	"\\\264t\322\325\004s\242[?\221s\024D\327\323\314\234"
  34      D50473A2 
  34      5B3F9173 
  34      1444D7D3 
  34      CC9C
  35 0137 C8BC9050 		.ascii	"\310\274\220P\321\372\001*\216#\335\254\327\272\331"
  35      D1FA012A 
  35      8E23DDAC 
  35      D7BAD9
  36 0146 986AF30C 		.ascii	"\230j\363\014u\277z\202z]E\220\361#~\000vX_\330"
  36      75BF7A82 
  36      7A5D4590 
  36      F1237E00 
  36      76585FD8 
  37              		.text
  38              		.section	.gnu.lto_.inline.c939903555f4bfc5,"",%progbits
  39 0000 789C9D53 		.ascii	"x\234\235S\275N\002A\020\376fw\357\207;8\017A\320\204"
  39      BD4E0241 
  39      10FE6677 
  39      EF873B38 
  39      0F41D084 
ARM GAS  /tmp/ccz32YbK.s 			page 3


  40 0014 800591CE 		.ascii	"\200\005\221\316\316\302ZcbCmic\304\027\260\2660Ja\301"
  40      CEC25A63 
  40      62436D69 
  40      63C417B0 
  40      B6304A61 
  41 0029 1B406161 		.ascii	"\033@aa\351\003XX\320P\251\011\276\2021>\205s\273\367"
  41      E9035858 
  41      D050A909 
  41      BE82313E 
  41      8573BBF7 
  42 003d 839CC48B 		.ascii	"\203\234\304\213W\354\314\316|\33773\273{\002\002\277"
  42      57ECCCCE 
  42      7CDF3733 
  42      BB7B0202 
  42      BF
  43 004e 7D33696C 		.ascii	"}3il\035\220\2024\310\236t4\226r\021\221\213\310\\D"
  43      1D908234 
  43      C89E7434 
  43      96721191 
  43      8BC85C44 
  44 0062 C1AF1131 		.ascii	"\301\257\0211\231\341\245\207#8\303\236Q\363\242\210"
  44      99E1A587 
  44      2338C39E 
  44      51F3A288 
  45 0072 CFCEA86F 		.ascii	"\317\316\250o\241\266\305\254\326\375\023e\332Q\012"
  45      A1B6C5AC 
  45      D6FD1365 
  45      DA510A
  46 0081 2E029F24 		.ascii	".\002\237$\235\237\320\0055\230A\203\324#-\036\027R"
  46      9D9FD005 
  46      35984183 
  46      D4232D1E 
  46      1752
  47 0093 934E88F0 		.ascii	"\223N\210\360\346\320\215\2459Q\302\336N\\X\266\246"
  47      E6D08DA5 
  47      3951C2DE 
  47      4E5C58B6 
  47      A6
  48 00a4 0706275E 		.ascii	"\007\006'^\327\"\016\254\200\243\243\376\177\035\017"
  48      D7220EAC 
  48      80A3A3FE 
  48      7F1D0F
  49 00b3 953649E8 		.ascii	"\2256I\350\266\232\221\336 \365\362m\331\327\273\272"
  49      B69A91DE 
  49      20F5F26D 
  49      D9D7BBBA 
  50 00c3 2D59E671 		.ascii	"-Y\346q\004\323y4\227qe\330\201iPf\014\372t\224Y\221"
  50      04D37934 
  50      977165D8 
  50      81695066 
  50      0CFA7494 
  51 00d9 9D4F0555 		.ascii	"\235O\005U\227\224)\267\331e\270\251g\\\315\327e\355"
  51      979429B7 
  51      D965B8A9 
  51      675CCDD7 
  51      65ED
  52 00eb 059150C0 		.ascii	"\005\221P\300\032\366B\210g\261\255\240\256,\025\267"
ARM GAS  /tmp/ccz32YbK.s 			page 4


  52      1AF64288 
  52      67B1ADA0 
  52      AE2C15B7 
  53 00fb A0F48107 		.ascii	"\240\364\201\007l\365$\001\3360vHh\001}\246\362\364"
  53      6CF52401 
  53      DE307648 
  53      68017DA6 
  53      F2F4
  54 010d F1EE0CE1 		.ascii	"\361\356\014\341\3271\267?o\3074\322\215/\331Q\177e"
  54      D731B73F 
  54      6FC734D2 
  54      8D2FD951 
  54      7F65
  55 011f 203DA910 		.ascii	" =\251\020\245\375\344\026\274\217\251\375\363\032\252"
  55      A5FDE416 
  55      BC8FA9FD 
  55      F31AAA
  56 012e E8BE5BCC 		.ascii	"\350\276[\314\250\216_\\8\267\227bah\341G4\263&\262"
  56      A88E5F5C 
  56      38B79762 
  56      6168E147 
  56      34B326B2 
  57 0142 D92E01C4 		.ascii	"\331.\001\304%\221\246\242W\211ux\335\245\247\252\237"
  57      2591A6A2 
  57      57897578 
  57      DDA5A7AA 
  57      9F
  58 0153 934E9B1B 		.ascii	"\223N\233\033\340]\255\020\252^\010\265Q\010\325(\204"
  58      E05DAD10 
  58      AA5E08B5 
  58      5108D528 
  58      84
  59 0164 6AA23147 		.ascii	"j\2421G\362\317\254\304\376e\015\032\337\353\214V)"
  59      F2CFACC4 
  59      FE650D1A 
  59      DFEB8C56 
  59      29
  60              		.text
  61              		.section	.gnu.lto_.pureconst.c939903555f4bfc5,"",%progbits
  62 0000 789C6362 		.ascii	"x\234cb`b\320d\200\000\021\006\006F \227\231\201\305"
  62      6062D064 
  62      80001106 
  62      06462097 
  62      9981C5
  63 0013 8AD58A43 		.ascii	"\212\325\212C\212\223\205K\202G\222\227\225OJ\300T\320"
  63      8A93854B 
  63      82479297 
  63      954F4AC0 
  63      54D0
  64 0025 52484258 		.ascii	"RHBXBDBTBLB\\\002\0009N\003\017"
  64      42444254 
  64      424C425C 
  64      0200394E 
  64      030F
  65              		.text
  66              		.section	.gnu.lto_gpsTxbufEnd.c939903555f4bfc5,"",%progbits
  67 0000 789C6362 		.ascii	"x\234cb`b@\007\222@\034\004\304\034@\314\310\314\300"
ARM GAS  /tmp/ccz32YbK.s 			page 5


  67      60624007 
  67      92401C04 
  67      C41C40CC 
  67      C8CCC0
  68 0013 C834E11C 		.ascii	"\3104\341\034\003C#\007\023##\210\301\300\310P\317\304"
  68      03432307 
  68      13232388 
  68      C1C0C850 
  68      CFC4
  69 0025 581FC908 		.ascii	"X\037\311\010V\273\236\351\300\203\377\377\327]8\266"
  69      56BB9EE9 
  69      C083FFFF 
  69      D75D38B6 
  70 0035 60152323 		.ascii	"`\025##\310(V\206\226\206\206\011\012\014\014\311`\005"
  70      C8285686 
  70      96868609 
  70      0A0C0CC9 
  70      6005
  71 0047 214012A4 		.ascii	"!@\022\244+\024(\011\244\231/20&2.dd\205[\026\302\310"
  71      2B142809 
  71      A4992F32 
  71      3026322E 
  71      6464855B 
  72 005e 08920069 		.ascii	"\010\222\000ieK/(\326Kf\000\000\012\020\030\200"
  72      654B2F28 
  72      D64B6600 
  72      000A1018 
  72      80
  73              		.text
  74              		.section	.gnu.lto_gpsTxC.c939903555f4bfc5,"",%progbits
  75 0000 789C6362 		.ascii	"x\234cb`b@\007\222@\034\004\304\034@\314\310\314\300"
  75      60624007 
  75      92401C04 
  75      C41C40CC 
  75      C8CCC0
  76 0013 C834E11C 		.ascii	"\3104\341\034\003C#\007\023##\210\301\300\310P\317\304"
  76      03432307 
  76      13232388 
  76      C1C0C850 
  76      CFC4
  77 0025 581FC908 		.ascii	"X\037\311\010V\273\236\351\300\203\377\377\327}8\266"
  77      56BB9EE9 
  77      C083FFFF 
  77      D77D38B6 
  78 0035 60172323 		.ascii	"`\027##\310(V\206\226\206\206\011\012\014\014\311`\005"
  78      C8285686 
  78      96868609 
  78      0A0C0CC9 
  78      6005
  79 0047 214012A4 		.ascii	"!@\022\244+\024(\011\244\231/20&2.dd\205[\026\302\310"
  79      2B142809 
  79      A4992F32 
  79      3026322E 
  79      6464855B 
  80 005e 08920069 		.ascii	"\010\222\000ieK/(\326Kf\000\000\030 \030\260"
  80      654B2F28 
  80      D64B6600 
ARM GAS  /tmp/ccz32YbK.s 			page 6


  80      00182018 
  80      B0
  81              		.text
  82              		.section	.gnu.lto_gpsRxEnd.c939903555f4bfc5,"",%progbits
  83 0000 789C6362 		.ascii	"x\234cb`b@\007\222@\034\004\304\034@\314\310\314\300"
  83      60624007 
  83      92401C04 
  83      C41C40CC 
  83      C8CCC0
  84 0013 C834E11C 		.ascii	"\3104\341\034\003C#\007\023##\210\301\300\310P\317\304"
  84      03432307 
  84      13232388 
  84      C1C0C850 
  84      CFC4
  85 0025 581FC908 		.ascii	"X\037\311\010V\273\236\351\300\203\377\377\327\3358"
  85      56BB9EE9 
  85      C083FFFF 
  85      D7DD38
  86 0034 BEE01D23 		.ascii	"\276\340\035##\310(V\206\226\206\206\011\012\014\014"
  86      23C82856 
  86      86968686 
  86      090A0C0C 
  87 0044 C9600521 		.ascii	"\311`\005!@\022\244+\024(\011\244\231/20&2.dd\205[\026"
  87      4012A42B 
  87      142809A4 
  87      992F3230 
  87      26322E64 
  88 005c C2C80892 		.ascii	"\302\310\010\222\000ieK/(\326Kf\000\000 \037\030\315"
  88      0069654B 
  88      2F28D64B 
  88      66000020 
  88      1F18CD
  89              		.text
  90              		.section	.gnu.lto_gpsRxErr.c939903555f4bfc5,"",%progbits
  91 0000 789C6362 		.ascii	"x\234cb`b@\007\222@\034\004\304\034@\314\310\314\300"
  91      60624007 
  91      92401C04 
  91      C41C40CC 
  91      C8CCC0
  92 0013 C834E11C 		.ascii	"\3104\341\034\003C#\007\023##\210\301\300\310P\317\304"
  92      03432307 
  92      13232388 
  92      C1C0C850 
  92      CFC4
  93 0025 581FC908 		.ascii	"X\037\311\010V\273\236\351\300\203\377\377\327\3758"
  93      56BB9EE9 
  93      C083FFFF 
  93      D7FD38
  94 0034 BEE03F23 		.ascii	"\276\340?##\310(V\206\226\206\206\011\012\014\014\311"
  94      23C82856 
  94      86968686 
  94      090A0C0C 
  94      C9
  95 0045 60052140 		.ascii	"`\005!@\022\244+\024(\011\244\231/20&2.dd\205[\026\302"
  95      12A42B14 
  95      2809A499 
  95      2F323026 
ARM GAS  /tmp/ccz32YbK.s 			page 7


  95      322E6464 
  96 005d C8089200 		.ascii	"\310\010\222\000ieK/(\326Kf\000\000.x\030\376"
  96      69654B2F 
  96      28D64B66 
  96      00002E78 
  96      18FE
  97              		.text
  98              		.section	.gnu.lto_chBSemSignal.c939903555f4bfc5,"",%progbits
  99 0000 789C8D52 		.ascii	"x\234\215R\275k\024A\024\377\275\231]\357<\223\220F"
  99      BD6B1441 
  99      14FFBD99 
  99      5DEF3C93 
  99      9046
 100 0012 B00AD708 		.ascii	"\260\012\327\010\361\003W\304\324\006\004\301\" 9\003"
 100      F10357C4 
 100      D40604C1 
 100      22203903 
 101 0022 A690B03B 		.ascii	"\246\220\260;\267\344\006\335[\331\273\013\211)2\227"
 101      B7E406DD 
 101      5BD9BB0B 
 101      89293297 
 102 0032 5C918045 		.ascii	"\\\221\200E\270X\030?@\301#\321B\377\002\361J\013MH"
 102      B858183F 
 102      40C123D1 
 102      42FF02F1 
 102      4A0B4D48 
 103 0046 2B160141 		.ascii	"+\026\001AH\025m\014\304\"\316\354\336m\202\215\031"
 103      48156D0C 
 103      C422CEEC 
 103      DE6D828D 
 103      19
 104 0057 D899F766 		.ascii	"\330\231\367f\336\357c\337\014\003\303\277\343\212\376"
 104      DEEF63DF 
 104      0C03C3BF 
 104      E38AFE
 105 0066 6EE9ED15 		.ascii	"n\351\355\025\275\222\015b\313\033@=\313\030\337\353"
 105      BD920D62 
 105      CB1B403D 
 105      CB18DFEB 
 106 0076 83CA59AB 		.ascii	"\203\312Y\253\327\240z8Y\311\266Ed\002\020\346\030\267"
 106      D7A07A38 
 106      59C9B645 
 106      640210E6 
 106      18B7
 107 0088 686E9C62 		.ascii	"hn\234b\222\367\254\275}p\360\356w\363\303s\372\314"
 107      92F7ACBD 
 107      7D70F0EE 
 107      77F3C373 
 107      FACC
 108 009a 7A390584 		.ascii	"z9\005\204\014$!\253'Sb\243\241\324r\036\0201\340\266"
 108      0C2421AB 
 108      275362A3 
 108      A1D4721E 
 108      1031E0B6 
 109 00ae 9E0DCF18 		.ascii	"\236\015\317\0301\263\362\015\314\377\332}\374\375L"
 109      31B3F20D 
 109      CCFFDA7D 
ARM GAS  /tmp/ccz32YbK.s 			page 8


 109      FCFD4C
 110 00bd 5AE6D22B 		.ascii	"Z\346\322+m&\026\"Ls\343\233'\346\007\260D/\324\223"
 110      6D261622 
 110      4C73E39B 
 110      27E607B0 
 110      442FD493 
 111 00d1 6149717A 		.ascii	"aIqz\207$\361\274\211\322\363G\235s+\371\301/\230\377"
 111      8724F1BC 
 111      89D2F347 
 111      9D732BF9 
 111      C12F98FF 
 112 00e5 FAED65EB 		.ascii	"\372\355e\353|\312\235\004\352Ok\260\253#b\217\230\244"
 112      7CCA9D04 
 112      EA4F6BB0 
 112      AB23628F 
 112      98A4
 113 00f7 CC05BC55 		.ascii	"\314\005\274UJ\265\267\232\247%\331I\242\206$\235x\206"
 113      4AB5B79A 
 113      A725D949 
 113      A286249D 
 113      7886
 114 0109 A775A5FA 		.ascii	"\247u\245\372%e&\211\033\315l\314\355\031\234Ko\214"
 114      25652689 
 114      1BCD6CCC 
 114      ED199C4B 
 114      6F8C
 115 011b 57CF9074 		.ascii	"W\317\220tb\340\023\032?\352\275.\255\353T\363\032\210"
 115      62E0131A 
 115      3FEABD2E 
 115      ADEB54F3 
 115      1A88
 116 012d 7DB4ED63 		.ascii	"}\264\355c\304\261\327\307\265\271\375\205\265\326\271"
 116      C4B1D7C7 
 116      B5B9FD85 
 116      B5D6B9
 117 013c 6E617616 		.ascii	"nav\026\017u\307:\312w\217\247\234\212n\242\321\356"
 117      0F75C73A 
 117      CA778FA7 
 117      9C8A6EA2 
 117      D1EE
 118 014e 5001B3D8 		.ascii	"P\001\263\330W\213\006xR\020KK\264\204\244\\\327\203"
 118      578B0678 
 118      52104B4B 
 118      B484A45C 
 118      D783
 119 0160 15777F13 		.ascii	"\025w\177\023\013\333\037wr\335\236\247\300SB\2334C"
 119      0BDB1F77 
 119      72DD9EA7 
 119      C053429B 
 119      3443
 120 0172 520F709C 		.ascii	"R\017p\234;r\351\265\206\304w\202#w\342\322\032\015"
 120      3B72E9B5 
 120      86C47782 
 120      2377E2D2 
 120      1A0D
 121 0184 249A5BA8 		.ascii	"$\232[\250\377l\256\332)\026\311s c\304\324^uJa\340"
 121      FF6CAEDA 
ARM GAS  /tmp/ccz32YbK.s 			page 9


 121      2916C973 
 121      2063C4D4 
 121      5E754A61 
 122 0199 3B222CCE 		.ascii	";\",\3168E\177\312\021%\351\311\260\342T\243Z\371\236"
 122      38457FCA 
 122      1125E9C9 
 122      B0E254A3 
 122      5AF99E
 123 01ac A383A8EA 		.ascii	"\243\203\250\352\310\262\270_+\352\242\222W\361\203"
 123      C8B2B85F 
 123      2BEAA292 
 123      57F183
 124 01bb 4B250CFF 		.ascii	"K%\014\377\017\344OW\235\353#\205\233\205Cl\030\371"
 124      0FE44F57 
 124      9DEB2385 
 124      9B85436C 
 124      18F9
 125 01cd 1322B851 		.ascii	"\023\"\270Q+\013M\320?R\030\315{n\305\177\020\311\213"
 125      2B0B4DD0 
 125      3F5218CD 
 125      7B6EC57F 
 125      10C98B
 126 01e0 F9B397C1 		.ascii	"\371\263\227\301\"d\002?\010\243\031\374\005\004\315"
 126      2264023F 
 126      08A319FC 
 126      0504CD
 127 01ef B75A     		.ascii	"\267Z"
 128              		.text
 129              		.section	.gnu.lto_gpsRxChar.part.0.c939903555f4bfc5,"",%progbits
 130 0000 789CB554 		.ascii	"x\234\265T\315KTQ\024?\347\276\217\231\261\3241\203"
 130      CD4B5451 
 130      143FE7BE 
 130      8F99B1D4 
 130      3183
 131 0012 DA244310 		.ascii	"\332$C\020\030\225\257\376\202\204\"p\341&\025r\021"
 131      1895AFFE 
 131      82842270 
 131      E1261572 
 131      11
 132 0023 F1E6398E 		.ascii	"\361\3469\216\257\032G\306\231PZx\307i!\025\"\321B\214"
 132      AF1A47C6 
 132      99505A78 
 132      C7692115 
 132      22D1428C 
 133 0037 20094254 		.ascii	" \011BT\350k\221\225\301,\"\212\312\010\014\372X$IR"
 133      E86B9195 
 133      C12C228A 
 133      CA080CFA 
 133      58244952 
 134 004b 9B9ADA44 		.ascii	"\233\232\332D\3661\235{\357\314\233AZh\320\2039\367"
 134      F6319D7B 
 134      EFCC9B41 
 134      5A68D083 
 134      39F7
 135 005d 9C7BCFF9 		.ascii	"\234{\317\371\235\3379\347\316e\300`\345\267\237~\365"
 135      9DDF39E7 
 135      CE65C060 
ARM GAS  /tmp/ccz32YbK.s 			page 10


 135      E5B79F7E 
 135      F5
 136 006e 26409256 		.ascii	"&@\222V\364\001\232#s\244\230\310\344\312\230>[\007"
 136      F4019A23 
 136      73A498C8 
 136      E4CA983E 
 136      5B07
 137 0080 BC429BB7 		.ascii	"\274B\233\267\200\257\327P\027\273i\277\216\206R\014"
 137      80AFD750 
 137      17BB69BF 
 137      8E86520C 
 138 0090 44A100C2 		.ascii	"D\241\000\302\200\3114\335\300\201v\024\250\346V\030"
 138      80C934DD 
 138      C0817614 
 138      A8E65618 
 139 00a0 E7FCDCC2 		.ascii	"\347\374\334\302\373\317\037p\224g\007/\361\237\371"
 139      FBCF1F70 
 139      9467072F 
 139      F19FF9
 140 00af 3CA28BC4 		.ascii	"<\242\213\304 \200\340 \034\"\003\203ra+X\251X~\203"
 140      2080E020 
 140      1C220383 
 140      72612B58 
 140      A9587E83 
 141 00c3 F3808CD3 		.ascii	"\363\200\214\323\\\324\030\254+\205\205T\230\376\267"
 141      5CD418AC 
 141      2B858554 
 141      98FEB7
 142 00d2 B0ECAF2F 		.ascii	"\260\354\257/\017\221\242\323\271|\276\332E\235A\315"
 142      0F91A2D3 
 142      B97CBEDA 
 142      459D41CD 
 143 00e2 AA0247B3 		.ascii	"\252\002G\263\371\007\303\233N/\360\021\376\233\250"
 143      F907C39B 
 143      4E2FF011 
 143      FE9BA8
 144 00f1 BA688017 		.ascii	"\272h\200\027\346Wa\270\232|6^A\366\177\022^e|!\237"
 144      E65761B8 
 144      9A7C365E 
 144      41F67F12 
 144      5E657C21 
 145 0106 7FF5CD5F 		.ascii	"\177\365\315_\213\340\242\311\204\320H\370t\260q\002"
 145      8BE0A2C9 
 145      84D048F8 
 145      74B07102 
 146 0116 B7822176 		.ascii	"\267\202!vL\022\314GB\367\0133 \004\005\033p\212\363"
 146      4C12CC47 
 146      42F70B33 
 146      2004051B 
 146      708AF3
 147 0129 91908DE3 		.ascii	"\221\220\215\343\344h\343e\2222\037}\255$\305\024[\311"
 147      E468E365 
 147      92321F7D 
 147      AD24C514 
 147      5BC9
 148 013b 9156AD8D 		.ascii	"\221V\255\215\012\020\353S\030|=\372\266\322\213\234"
 148      0A10EB53 
ARM GAS  /tmp/ccz32YbK.s 			page 11


 148      187C3DFA 
 148      B6D28B9C 
 149 014b 9031CAE4 		.ascii	"\2201\312\3447\207\353\201p&\211\266\203\022&\212\270"
 149      3787EB81 
 149      702689B6 
 149      8312268A 
 149      B8
 150 015c 032639E7 		.ascii	"\003&9\347\331\3571\027\375\027`,\315y\320\305\300I"
 150      D9EF3117 
 150      FD17602C 
 150      CD79D0C5 
 150      C049
 151 016e 58E64342 		.ascii	"X\346CB\253\210IGQ[\205\254(,l\033\247E\355\000\017"
 151      AB884947 
 151      515B85AC 
 151      282C6C1B 
 151      A745ED00 
 152 0183 E1FE52BA 		.ascii	"\341\376R\272\332\306)2\011L\270\371\235\262\372\333"
 152      DAC62932 
 152      094CB8F9 
 152      9DB2FADB 
 153 0193 5083794B 		.ascii	"P\203yK\322z9\266\245@\313#\364c\021\005\326\224$\304"
 153      D27A39B6 
 153      A540CB23 
 153      F4631105 
 153      D69424C4 
 154 01a7 14215620 		.ascii	"\024!V \364\342#\256\232\221D\271\256\030Q\252O\231"
 154      F4E223AE 
 154      9A9144B9 
 154      AE1851AA 
 154      4F99
 155 01b9 3B68E335 		.ascii	";h\3435II\213\012`\332\\\316P\266\"Q]\240Q\222y\002"
 155      49498B0A 
 155      60DA5CCE 
 155      50B62251 
 155      5DA05192 
 156 01cf 59B70BA6 		.ascii	"Y\267\013\246I\347\207]\\\257r\363\275.VR\226\260\010"
 156      49E7875D 
 156      5CAF72F3 
 156      BD2E5652 
 156      96B008
 157 01e2 2D001312 		.ascii	"-\000\023\022\200g\225e\313\014e\362o\264\"\260Ql\002"
 157      80679565 
 157      CB0C65F2 
 157      6FB422B0 
 157      516C02
 158 01f5 2A2A4DEA 		.ascii	"**M\352\240\204\273\346\036G\205\220Eu\027\223\230Q"
 158      A084BBE6 
 158      1E478590 
 158      45751793 
 158      9851
 159 0207 5131A53E 		.ascii	"Q1\245>\343\345\365QMQqi\310\363q\2560\020/U\0259\010"
 159      E3E5F551 
 159      4D517169 
 159      C8F371AE 
 159      30102F55 
 160 021e 7475A785 		.ascii	"tu\247\205VU\032\220^\2728K9\266rD\267\206\267\227\356"
ARM GAS  /tmp/ccz32YbK.s 			page 12


 160      56551A90 
 160      5EBA384B 
 160      39B67244 
 160      B786B797 
 161 0233 8CA646E4 		.ascii	"\214\246F\344W\345\004\3276\237{^\307\356d\026\3176"
 161      57E504D7 
 161      369F7B5E 
 161      C7EE6416 
 161      CF36
 162 0245 D8382B99 		.ascii	"\3308+\231\007\010O\370\232\245\216\315z\035\373\227"
 162      07084FF8 
 162      9AA58ECD 
 162      7A1DFB97 
 163 0255 14042981 		.ascii	"\024\004)\201ff\226>\260r0\276gm\355\227hr\230bs\016"
 163      6666963E 
 163      B07230BE 
 163      676DED97 
 163      68729862 
 164 026b 06BFCC9C 		.ascii	"\006\277\314\234_\334\3545H5\005\304C\212\320\256\211"
 164      5FDCEC35 
 164      483505C4 
 164      438AD0AE 
 164      89
 165 027c 775A538F 		.ascii	"wZS\217u\035\034\275\310G\033]\254.\342\006CB\363\216"
 165      751D1CBD 
 165      C8471B5D 
 165      AC2EE206 
 165      4342F38E 
 166 0290 63EAB846 		.ascii	"c\352\270F\215\340\031\234\312}\275\335W\304\363xmp"
 166      8DE0199C 
 166      CA7DBDDD 
 166      57C4F378 
 166      6D70
 167 02a2 0A03133B 		.ascii	"\012\003\023;~\027kc\210\005'\0277\256\216\221\215\217"
 167      7E176B63 
 167      88052717 
 167      37AE8E91 
 167      8D8F
 168 02b4 686A9202 		.ascii	"hj\222\002\224Q\260\361\011\326\225\377K\015y\011\236"
 168      9451B0F1 
 168      09D695FF 
 168      4B0D7909 
 168      9E
 169 02c5 433AF7EE 		.ascii	"C:\367\356\256\356\341\200zjP\034\21283\332\323\333"
 169      AEEEE180 
 169      7A6A501C 
 169      8A3833DA 
 169      D3DB
 170 02d7 E0003A46 		.ascii	"\340\000:F\312N${\314p\252\2633\222h\264\272\342\261"
 170      CA4E247B 
 170      CC70AAB3 
 170      339268B4 
 170      BAE2B1
 171 02ea 88E5C43B 		.ascii	"\210\345\304;\372\255\216\310\011\313\351r\303n\274"
 171      FAAD8EC8 
 171      09CBE972 
 171      C36EBC
ARM GAS  /tmp/ccz32YbK.s 			page 13


 172 02f9 D74A2652 		.ascii	"\327J&R\335\307,R\"}Ik_sKS\213\345v;\307S\035\3027\021"
 172      DDC72C52 
 172      227D496B 
 172      5F734B53 
 172      8BE5763B 
 173 0313 39E2C40E 		.ascii	"9\342\304\016\244\272\235\206.\0106\267\034\014\205"
 173      A4BA9D86 
 173      2E0836B7 
 173      1C0C85
 174 0322 EDDE484F 		.ascii	"\355\336HO\302\335\031\332\266\033X\002|\261H,\236\350"
 174      C2DD19DA 
 174      B61B5802 
 174      7CB1482C 
 174      9EE8
 175 0334 873F0404 		.ascii	"\207?\004\004\2234"
 175      9334
 176              		.text
 177              		.section	.gnu.lto_gpsRxChar.c939903555f4bfc5,"",%progbits
 178 0000 789C9592 		.ascii	"x\234\225\222?h\024A\024\306\2777\263\273\331\273\354"
 178      3F681441 
 178      14C6BF37 
 178      B3BBD9BB 
 178      EC
 179 0011 FD49E00A 		.ascii	"\375I\340\012\213H\210\215 j\233\316Z\353\004\264\260"
 179      8B48888D 
 179      206A9BCE 
 179      5AEB04B4 
 179      B0
 180 0022 D85BCDB1 		.ascii	"\330[\315\261\305\211(V\026\231\315\246\010(\341\020"
 180      C5892856 
 180      1699CDA6 
 180      0828E110 
 181 0032 0221165E 		.ascii	"\002!\026^\220\210D\301Z\261\210\240(\210\212\020A\""
 181      908844C1 
 181      5AB188A0 
 181      28888A10 
 181      4122
 182 0044 E881A088 		.ascii	"\350\201\240\210 \207VFp}3\263{I\254t`\337\314\274y"
 182      20875646 
 182      707D33B3 
 182      7B49AC74 
 182      60DFCCBC 
 183 0059 FB7DBFF9 		.ascii	"\373}\277\371# \360w;\301\337\031\011\324\270\247!\220"
 183      2320F077 
 183      3BC1DF19 
 183      09D4B8A7 
 183      2190
 184 006b E8BC0412 		.ascii	"\350\274\004\022_\010\331o@\225\235\356$T \311\323i"
 184      5F08D96F 
 184      40959DEE 
 184      245420C9 
 184      D369
 185 007d 7284F770 		.ascii	"r\204\367p?g\335\315\243\234um6\361=\"=\000aVH\307\365"
 185      3F67DDCD 
 185      A39C756D 
 185      36F13D22 
 185      3D006156 
ARM GAS  /tmp/ccz32YbK.s 			page 14


 186 0094 68F61469 		.ascii	"h\366\024im\232\300\252R\327zOn,\356S\335\271\216\372"
 186      6D9AC0AA 
 186      52D77A4F 
 186      6E2CEE53 
 186      DDB98EFA 
 187 00a8 9D651413 		.ascii	"\235e\024\023S\224\010\021\341$Oh\334t\302\331\213u"
 187      53940811 
 187      E1244F68 
 187      DC74C2D9 
 187      8B75
 188 00ba 4F6CF4B2 		.ascii	"Ol\364\262\354\352\375\371\357c\015\2426\377\303\201"
 188      ECEAFDF9 
 188      EF630DA2 
 188      36FFC381 
 189 00ca 7CC42403 		.ascii	"|\304$\003\016NE\207*\007\267\206\220V\331\251\2563"
 189      0E4E4587 
 189      2A07B786 
 189      9056D9A9 
 189      AE33
 190 00dc 231CC428 		.ascii	"#\034\304(\007\255\341b^\251\3168\264\025\267)\216\032"
 190      07ADE162 
 190      5EA9CE38 
 190      B415B729 
 190      8E1A
 191 00ee 739A84EE 		.ascii	"s\232\204\356\3453<\376\374h\351\251\014\351&\271h\221"
 191      E5333CFE 
 191      FC68E9A9 
 191      0CE926B9 
 191      6891
 192 0100 D01C5E79 		.ascii	"\320\034^y\027\3044I\364\033\362\025R\337\026\001\227"
 192      17C43449 
 192      F41BF215 
 192      52DF1601 
 192      97
 193 0111 B1AD1654 		.ascii	"\261\255\026T=\246\241\210\214*{\371E\265\203\356\244"
 193      3DA6A188 
 193      8C2A7BF9 
 193      45B583EE 
 193      A4
 194 0122 7C81B9AF 		.ascii	"|\201\271\257\351\217\305\203\205\254\317\312\000g\267"
 194      E98FC583 
 194      85ACCFCA 
 194      0067B7
 195 0131 963F5472 		.ascii	"\226?Tr$K\\\020*\256\006l}D\346\212Z\024\034\302\272"
 195      244B5C10 
 195      2AAE066C 
 195      7D44E68A 
 195      5A141CC2 
 196 0146 526AE367 		.ascii	"Rj\343g;\246\322u\254$J\273\226\007\376\303mS\251\231"
 196      3BA6D275 
 196      AC244ABB 
 196      9607FEC3 
 196      6D53A999 
 197 015a 878D7D53 		.ascii	"\207\215}S\343\204t\313`\2027\367)\251\205\264f\030"
 197      E38474CB 
 197      608237F7 
 197      29A985B4 
ARM GAS  /tmp/ccz32YbK.s 			page 15


 197      6618
 198 016c 025D568A 		.ascii	"\002]V\212\366l\315\305\355\011\015\273\365velpR9\320"
 198      F66CCDC5 
 198      ED090DBB 
 198      F576656C 
 198      705239D0 
 199 0180 AF8FA4B5 		.ascii	"\257\217\244\265\326\014\220\264@\225\034\350\315\027"
 199      D60C90B4 
 199      40951CE8 
 199      CD17
 200 018e FA6722A3 		.ascii	"\372g\"\243r\307\022\261\325\267\364\001\205\264n\220"
 200      72C712B1 
 200      D5B7F401 
 200      85B46E90 
 201 019e AAAC6892 		.ascii	"\252\254h\222\333)\273\025\2405\255\306&\233,\022\034"
 201      DB29BB15 
 201      A035ADC6 
 201      269B2C12 
 201      1C
 202 01af C65D1EAB 		.ascii	"\306]\036\253\323q\341\255\216\305Te\227\2466\312\205"
 202      D371E1AD 
 202      8EC55465 
 202      97A636CA 
 202      85
 203 01c0 590918CC 		.ascii	"Y\011\030\314v\271\245\013i\366N\026\302\365\342\020"
 203      76B9A50B 
 203      69F64E16 
 203      C2F5E210 
 204 01d0 C8A21CB7 		.ascii	"\310\242\034\267\013;\272\377}\306\254\231o\352\\a2"
 204      0B3BBAFF 
 204      7DC6AC99 
 204      6FEA5C61 
 204      32
 205 01e1 C226C6FA 		.ascii	"\302&\306\372\312\300w\224\367\304\013\246\362y?\277"
 205      CAC07794 
 205      F7C40BA6 
 205      F2793FBF 
 206 01f1 908195E4 		.ascii	"\220\201\225\344\002\255n\357\244\265\363\222<\363B"
 206      02AD6EEF 
 206      A4B5F392 
 206      3CF342
 207 0200 5F23E9BD 		.ascii	"_#\351\275?P<=\333\246\370PyMsy\255\363\027\217D\360"
 207      3F503C3D 
 207      DBA6F850 
 207      794D7379 
 207      ADF3178F 
 208 0216 9A976666 		.ascii	"\232\227ff\316^\370\003\234t\325\006"
 208      CE5EF803 
 208      9C74D506 
 209              		.text
 210              		.section	.gnu.lto_gpsParseNMEAType.part.1.c939903555f4bfc5,"",%progbits
 211 0000 789C8D94 		.ascii	"x\234\215\224=h\024A\024\307\337\233\257\335\231\335"
 211      3D681441 
 211      14C7DF9B 
 211      AFDD99DD 
 212 0010 C242C414 		.ascii	"\302B\304\024\036A\013\025\324\240\210\215\215\007\201"
 212      1E410B15 
ARM GAS  /tmp/ccz32YbK.s 			page 16


 212      D4A0888D 
 212      8D0781
 213 001f 289C552E 		.ascii	"(\234U.\2426\032\316pl\241D.\205b\221\011\371\340\374"
 213      A2361ACE 
 213      706CA144 
 213      2E856291 
 213      09F9E0FC 
 214 0033 40829C68 		.ascii	"@\202\234h\012\301 b#\330\330\231\302\302\302\302\017"
 214      0AC12062 
 214      23D8D899 
 214      C2C2C2C2 
 214      0F
 215 0044 846B5279 		.ascii	"\204kRy\205\020\260N\025\202\347\274\331\313\235\037"
 215      8510B04E 
 215      1582E7BC 
 215      D9CB9D1F 
 216 0054 0BBB0BFB 		.ascii	"\013\273\013\373\177\377\377\316\314\373\315\024\263"
 216      7FFFFFCE 
 216      CCFBCD14 
 216      B3
 217 0061 0C18FCFB 		.ascii	"\014\030\374\373\264\334{U\000\234r\025c\300h\371\213"
 217      B4DC7B55 
 217      009C7215 
 217      63C068F9 
 217      8B
 218 0072 3311325F 		.ascii	"3\0212_\0313k%\260\206\267G\300\306\274\227\204O\202"
 218      19336B25 
 218      B086B747 
 218      C0C6BC97 
 218      844F82
 219 0085 99D7275D 		.ascii	"\231\327']\222?\206\\\222\275\244|R\275\024\370\024"
 219      923F865C 
 219      92BDA47C 
 219      52BD14F8 
 219      14
 220 0096 F452E853 		.ascii	"\364R\350S\310L\363\240K\2324\326h\2104\027\032D2\200"
 220      C84CF3A0 
 220      4B9A34D6 
 220      68883417 
 220      1A443280 
 221 00aa 301B312E 		.ascii	"0\0331.\244\012Bmp\366\022\322.q?\254Z\373\250\263\370"
 221      A40A426D 
 221      70F612D2 
 221      2E713FAC 
 221      5AFBA8B3 
 222 00bf 6E1D57EC 		.ascii	"n\035W\354\373\205\347v\273\333EL\320\235H#\324\020"
 222      FB85E776 
 222      BBDB454C 
 222      D09D4823 
 222      D410
 223 00d1 2EBA80C3 		.ascii	".\272\200\303\2760\361\367\021\3370\333\351vW~\352\030"
 223      BE30F1F7 
 223      11DF30DB 
 223      E976577E 
 223      EA18
 224 00e3 F13AAD98 		.ascii	"\361:\255\230\304U\327\220C\202\\\220H\022E\022\220"
 224      C455D790 
ARM GAS  /tmp/ccz32YbK.s 			page 17


 224      43825C90 
 224      48124512 
 224      90
 225 00f4 84249AC4 		.ascii	"\204$\232\3048\241f\022\026\254]\036N\327\001\341\334"
 225      38A16612 
 225      16AC5D1E 
 225      4ED701E1 
 225      DC
 226 0105 53754A3B 		.ascii	"SuJ;\256bD\225O \363\3653\314\337\237\337xrx\022_\240"
 226      AE624495 
 226      4F20F3F5 
 226      33CCDF9F 
 226      DF787278 
 227 011c 843AB23A 		.ascii	"\204:\262:\242\337\026w\213\276\302Rgk\321\354\214\361"
 227      A2DF1677 
 227      8BBEC252 
 227      676BD1EC 
 227      8CF1
 228 012e 3BB0659B 		.ascii	";\260e\233vW\202\262\206\276+-\240\217{\023T%\330\375"
 228      765782B2 
 228      86BE2B2D 
 228      A08F7B13 
 228      5425D8FD 
 229 0142 CC3E3D93 		.ascii	"\314>=\223`\000\351\002\177\274\2206\256\001>\302\207"
 229      6000E902 
 229      7FBC9036 
 229      AE013EC2 
 229      87
 230 0153 8DB9E3FD 		.ascii	"\215\271\343\375N4\304\377<\366\204\213\355\021N\304"
 230      4E34C4FF 
 230      3CF6848B 
 230      ED114EC4 
 231 0163 ED97D1CE 		.ascii	"\355\227\321\316<\221C\034\312#\236\356w\312 \012\270"
 231      3C91431C 
 231      CA239EEE 
 231      77CA200A 
 231      B8
 232 0174 BBCF137F 		.ascii	"\273\317\023\177\015\2102\207X*L\224\031D\011\237\264"
 232      0D883287 
 232      582A4C94 
 232      1944099F 
 232      B4
 233 0185 27365FF5 		.ascii	"'6_\365\211*\207x\2400Qe\020\025<\346\236xo@\014r\210"
 233      892A8778 
 233      A0305165 
 233      10153CE6 
 233      9E786F40 
 234 019c 870A1383 		.ascii	"\207\012\023\203\014b\000K\350\211\017\006\3040\207"
 234      0C62004B 
 234      E8890F06 
 234      C43087
 235 01ab 78B43031 		.ascii	"x\26401\314 \206p\304\003\037\016\200:\007x\2420P\377"
 235      CC208670 
 235      C4031F0E 
 235      803A0778 
 235      A23050FF 
 236 01bf 07ACBA49 		.ascii	"\007\254\272I{\334\0052\376\002}s\177\003jnhh\035\014"
ARM GAS  /tmp/ccz32YbK.s 			page 18


 236      7BDC0532 
 236      FE027D73 
 236      7F036A6E 
 236      68681D0C 
 237 01d3 4D77B790 		.ascii	"Mw\267\220\255}\217\275E\340\355+\3361\020\233\251\343"
 237      AD7D8FBD 
 237      45E0ED2B 
 237      DE31109B 
 237      A9E3
 238 01e5 205B37BD 		.ascii	" [7\275\023\240\336\246NB\320N\235\202p3u\001\350V\203"
 238      13A0DEA6 
 238      4E42D04E 
 238      9D827033 
 238      7501E856 
 239 01fa 804828FA 		.ascii	"\200H(\372\035\252\372t\343X\015Lc\346\366\364\324\271"
 239      1DAAFA74 
 239      E3580D4C 
 239      63E6F6F4 
 239      D4B9
 240 020c 1BD7A66E 		.ascii	"\033\327\246n\211r\345<\210\261\261\262\223J\305\311"
 240      8972E53C 
 240      88B1B1B2 
 240      934AC5C9 
 241 021c 38B9F10B 		.ascii	"8\271\361\013 \316\216VA\\\036-\303o\374\351\013\316"
 241      20CE8E56 
 241      415C1E2D 
 241      C36FFCE9 
 241      0BCE
 242              		.text
 243              		.section	.gnu.lto_gpsStart.c939903555f4bfc5,"",%progbits
 244 0000 789C9591 		.ascii	"x\234\225\221\275K\003A\020\305\337\333\275\213gbaa"
 244      BD4B0341 
 244      10C5DFDB 
 244      BD8B6762 
 244      6161
 245 0012 63676D40 		.ascii	"cgm@\020\377\025\003Z\232+\302\025\001A,\304\"\033\211"
 245      10FF1503 
 245      5A9A2BC2 
 245      1501412C 
 245      C4221B89 
 246 0026 609952B4 		.ascii	"`\231R\264\321V$\301\316FP\260\210\211\037XEmLgk\260"
 246      D15624C1 
 246      CE4650B0 
 246      88891F58 
 246      456D4C67 
 247 003c 1111E2CE 		.ascii	"\021\021\342\316\356%\205it\340n\347\036o~3\267\243"
 247      EE258569 
 247      74E06EE7 
 247      1E6F7E33 
 247      B7A3
 248 004e A0F03B96 		.ascii	"\240\360;\226\3543k\345\310\236\014AU\277\007\252\221"
 248      EC336BE5 
 248      C89E0C41 
 248      55BF07AA 
 248      91
 249 005f 52C11961 		.ascii	"R\301\031a\262\372\365\0260S\232\201\327\003R\022\020"
 249      B2FAF516 
ARM GAS  /tmp/ccz32YbK.s 			page 19


 249      30539A81 
 249      D7035212 
 249      10
 250 0070 15A50356 		.ascii	"\025\245\003VV\351(Mu\331\033\014\032\357\355\243\026"
 250      56E9284D 
 250      75D91B0C 
 250      1AEFEDA3 
 250      16
 251 0081 55964808 		.ascii	"U\226H\010\3152-5\2418B\324\214\251\317\001\261\363"
 251      CD322D35 
 251      A13842D4 
 251      8CA9CF01 
 251      B1F3
 252 0093 2FDBB760 		.ascii	"/\333\267`\012Tr\352\026\256\337\256>\332z\215\307v"
 252      0A5472EA 
 252      16AEDFAE 
 252      3EDA7A8D 
 252      C776
 253 00a5 8612F50A 		.ascii	"\206\022\365\012}\335(\012\324\260\243\350;\354t>\033"
 253      7DDD280A 
 253      D4B0A3E8 
 253      3BEC743E 
 253      1B
 254 00b6 37CA3BF3 		.ascii	"7\312;\363816\026\255\371\020\007Uc\246\023\252m|\231"
 254      38313616 
 254      ADF91007 
 254      5563A613 
 254      AA6D7C99 
 255 00ca 3DC974D9 		.ascii	"=\311t\3311\204\245\035\244\230\"K\362mI\347\373\315"
 255      3184A51D 
 255      A498224B 
 255      F26D49E7 
 255      FBCD
 256 00dc FE1829F8 		.ascii	"\376\030)\370\033\311\243D\011$y@\255w\261\233\3630"
 256      1BC9A344 
 256      09247940 
 256      AD77B19B 
 256      F330
 257 00ee 605419C6 		.ascii	"`T\031\306\251S\224(a&m\264\231p\302B\213\364\033I\353"
 257      A9539428 
 257      61266DB4 
 257      9970C242 
 257      8BF41B49 
 258 0103 12466EB0 		.ascii	"\022Fn\260\227\247f\237\303\313\210\362\230\377\347"
 258      97A7669F 
 258      C3CB88F2 
 258      98FFE7
 259 0112 0FCA3CE1 		.ascii	"\017\312<\341\330,\223q\332\3152\275h\266\022f\313T"
 259      D82C9371 
 259      DACD32BD 
 259      68B61266 
 259      CB54
 260 0124 A3F6B9E1 		.ascii	"\243\366\271\341m\007n/\217v\343bw\330gP:a0\014V\324"
 260      6D076E2F 
 260      8F76E362 
 260      77D86750 
 260      3A61300C 
ARM GAS  /tmp/ccz32YbK.s 			page 20


 261 013a 6937721A 		.ascii	"i7r\032\240\277\2733\262XJ\241\264\311\224\3267\026"
 261      A0BFBB33 
 261      B2584AA1 
 261      B4C994D6 
 261      3716
 262 014c 62FC000E 		.ascii	"b\374\000\016\352\211\243"
 262      EA89A3
 263              		.text
 264              		.section	.gnu.lto_gpsStop.c939903555f4bfc5,"",%progbits
 265 0000 789C5D8E 		.ascii	"x\234]\2161\017\001A\024\204g\336:Qj\025\0225\211?\203"
 265      310F0141 
 265      148467DE 
 265      3A516A15 
 265      1235893F 
 266 0015 84922B2E 		.ascii	"\204\222+.[H$J\205=\271B\251\246\241\320\242\022\245"
 266      5B48244A 
 266      853DB942 
 266      A9A6A1D0 
 266      A212A5
 267 0028 462588F6 		.ascii	"F%\210\3664\327\372\013\032v\357hl2\273\373\362f\276"
 267      34D7FA0B 
 267      1A76EF68 
 267      6C32BBFB 
 267      F266BE
 268 003b 8C40F07F 		.ascii	"\214@\360\177JV'\253\202\025\025(\263+\020\026\204t"
 268      4A5627AB 
 268      82151528 
 268      B32B1016 
 268      8474
 269 004d 1F1063E1 		.ascii	"\037\020c\341\270\303\324\273\225c\362~ov\347\345\203"
 269      B8C3D4BB 
 269      9563F27E 
 269      6F76E7E5 
 269      83
 270 005e E209FB84 		.ascii	"\342\011\373\204\202Nw\036\"cf\025\300O\307\246\275"
 270      824E771E 
 270      22636615 
 270      C04FC7A6 
 270      BD
 271 006f 5DBE4571 		.ascii	"]\276Eq\257\272`\022\037\366Ov\271\242\207\200\252\206"
 271      AFBA6012 
 271      1FF64F76 
 271      B9A28780 
 271      AA86
 272 0081 AA0D2E30 		.ascii	"\252\015.0\017\2151\015M\006\22465\263\202=\376\352"
 272      0F8D310D 
 272      4D069436 
 272      35B3823D 
 272      FEEA
 273 0093 DD101DCB 		.ascii	"\335\020\035\313Y\012\030\341e\246\246\250\251|f\016"
 273      590A18E1 
 273      65A6A6A8 
 273      A97C660E 
 274 00a3 4BD2CC01 		.ascii	"K\322\314\001w\204I\274\376\342\035\307\373\001\232"
 274      778449BC 
 274      FEE21DC7 
 274      FB019A
ARM GAS  /tmp/ccz32YbK.s 			page 21


 275 00b2 D6691B38 		.ascii	"\326i\0338n>\030\014\353>>\025\0271\276"
 275      6E3E180C 
 275      EB3E3E15 
 275      1731BE
 276              		.text
 277              		.section	.gnu.lto_gpsParseNMEAType.c939903555f4bfc5,"",%progbits
 278 0000 789C5D91 		.ascii	"x\234]\221=K\003A\020\206\337\331\217\273K<\3212\202"
 278      3D4B0341 
 278      1086DFD9 
 278      8FBB4B3C 
 278      D13282
 279 0013 88859D60 		.ascii	"\210\205\235`\345\017\320\312\326\302\200\226r\305q"
 279      E50FD0CA 
 279      D6C28096 
 279      72C571
 280 0022 8520585A 		.ascii	"\205 XZdc\"\0106\001\213\004E\320\316B\264\024lT\260"
 280      64632208 
 280      36018B04 
 280      45D0CE42 
 280      B4146C54 
 281 0037 38F023D8 		.ascii	"8\360#\330\010v\026\202? \235\010q\346r\027\324\205"
 281      08761682 
 281      3F209D08 
 281      71E67217 
 281      D485
 282 0049 9DD9D999 		.ascii	"\235\331\331\231yffWA\341\377Z\344\335! dM\036H\265"
 282      79666657 
 282      41E1FF5A 
 282      E4DD2120 
 282      644D1E48 
 283 005e 9E817AA0 		.ascii	"\236\201z\240\224NC\270\262M\357\000\027je>&\304<\237"
 283      944E43B8 
 283      B24DEF00 
 283      176A653E 
 283      26C43C9F 
 284 0072 67CB9095 		.ascii	"g\313\220\225(\262D\242A\250)m,\325\326(c^\252\333\367"
 284      28B244A2 
 284      41A8296D 
 284      2CD5D628 
 284      635EAADB 
 285 0087 7EFFE2F5 		.ascii	"~\377\342\365\341\344\214t@H\010\2326\010\206OdY(\217"
 285      E1E48C74 
 285      4048089A 
 285      3608864F 
 285      6459288F 
 286 009b 85F6C5C1 		.ascii	"\205\366\305\301\313\242\351\\k\032\2102s\205\245`\253"
 286      CBA2E95C 
 286      6B1A8832 
 286      7385A560 
 286      AB
 287 00ac A444EB27 		.ascii	"\244D\353'\354\\\357^\265g\327\351\224\223c2G8$\006"
 287      EC5CEF5E 
 287      B567D7E9 
 287      94936332 
 287      47382406 
 288 00c0 C5A45759 		.ascii	"\305\244WY\233|\220\024\367\237\365\261a\220\270\354"
 288      9B7C9014 
ARM GAS  /tmp/ccz32YbK.s 			page 22


 288      F79FF5B1 
 288      6190B8EC 
 289 00d0 CCAF41AB 		.ascii	"\314\257A\253\244\221\206Lk\3547n\332\223E\240\3151"
 289      A491864C 
 289      6BEC376E 
 289      DA9345A0 
 289      CD31
 290 00e2 9ED4EEC2 		.ascii	"\236\324\356\302+\356\275m|\271=7\236\220\037\321`,"
 290      2BEEBD6D 
 290      7CB93D37 
 290      9E901FD1 
 290      602C
 291 00f4 0E96CB4A 		.ascii	"\016\226\313JB\301\024J\307\256\263\220P\011\203\004"
 291      42C1144A 
 291      C7AEB390 
 291      50098304 
 292 0104 08A3AC78 		.ascii	"\010\243\254x\242\221\274\225\322\220$.\215?\255\030"
 292      A291BC95 
 292      D290242E 
 292      8D3FAD18 
 293 0114 1C18DD45 		.ascii	"\034\030\335E3(\202\374a\2710\"\225\227\323\011\215"
 293      332882FC 
 293      61B93022 
 293      9597D309 
 293      8D
 294 0125 1619367B 		.ascii	"\026\0316{\213\027\376\032\361d\015\275\201\004\215"
 294      8B17FE1A 
 294      F1640DBD 
 294      81048D
 295 0134 00EABB17 		.ascii	"\000\352\273\0270\303\014l\037\372\261W\221\207$I\022"
 295      30C30C6C 
 295      1FFAB157 
 295      91872449 
 295      12
 296 0145 9A176F6E 		.ascii	"\232\027on\315E\320K\313\370\001\306\323]\265"
 296      CD45D04B 
 296      CBF801C6 
 296      D35DB5
 297              		.text
 298              		.section	.gnu.lto_gpsParseFix.c939903555f4bfc5,"",%progbits
 299 0000 789CB557 		.ascii	"x\234\265W}h\225e\024?\347\375\270\367\275\357\375\376"
 299      7D689565 
 299      143FE7FD 
 299      B8F7BDEF 
 299      FDFE
 300 0012 DAE64427 		.ascii	"\332\346D'CH\3245\023\323Y\004E\177\370w\220P\364\227"
 300      4348D435 
 300      13D35904 
 300      457FF877 
 300      9050F497 
 301 0026 CEBCDD3F 		.ascii	"\316\274\335?L\321$\312?|\3476\030\2245\024\333\372"
 301      4CD124CA 
 301      3F7CE736 
 301      18943514 
 301      DBFA
 302 0038 22C56E8B 		.ascii	"\"\305n\213\\\031\010:\254?6\250h\250YF\340`\224\254"
 302      5C19083A 
ARM GAS  /tmp/ccz32YbK.s 			page 23


 302      AC3F36A8 
 302      68A85946 
 302      E06094AC 
 303 004c 0FA2A402 		.ascii	"\017\242\244\002\003\207\204\353\234\347\343\375\270"
 303      038784EB 
 303      9CE7E3FD 
 303      B8
 304 0059 29DBD87A 		.ascii	")\333\330z\3778\357\363<\347\234\347\374\316\357\234"
 304      FF38EFF3 
 304      3CE79CE7 
 304      FCCEEF9C 
 305 0069 F7B9CF35 		.ascii	"\367\271\3175\300\200\372\247\025\001\236\311\002\264"
 305      C080FAA7 
 305      15019EC9 
 305      02B4
 306 0077 D0181B00 		.ascii	"\320\030\033\000\215\376\257\000\272\034\303(\367\233"
 306      8DFEAF00 
 306      BA1CC328 
 306      F79B
 307 0085 E0B9A677 		.ascii	"\340\271\246w\001\300K\231X\224\353\026\332<\030sl#"
 307      01C04B99 
 307      5894EB16 
 307      DA3C1873 
 307      6C23
 308 0097 F613AB5C 		.ascii	"\366\023\253\\g\330 \203\230\021\017O\343\206\365\331"
 308      67D82083 
 308      98110F4F 
 308      E386F5D9 
 309 00a7 B8985EB4 		.ascii	"\270\230^\264h\3528\371\251\004xNB\310\224\220i!3Bf"
 309      68EA38F9 
 309      A904784E 
 309      42C89490 
 309      69213342 
 310 00bc 852C0899 		.ascii	"\205,\010\231\223\226\206\333w\017\371'Y\246\\,\310"
 310      939686DB 
 310      770FF927 
 310      59A65C2C 
 310      C8
 311 00cd F0493D48 		.ascii	"\360I=H\351AZ\0172z\220\325\203\234\036\344\365\240"
 311      E9415A0F 
 311      327A90D5 
 311      839C1EE4 
 311      F5A0
 312 00df 20D31873 		.ascii	" \323\030s\212F\351\375/\030_\371\3278\355_\222Ya\031"
 312      8A46E9FD 
 312      2F185FF9 
 312      D738ED5F 
 312      92596119 
 313 00f3 91DF8070 		.ascii	"\221\337\200p\3200-;\026w\022n2\225\316ds\371B\261T"
 313      D0302D3B 
 313      1677126E 
 313      3295CE64 
 313      73F942B1 
 314 0108 C6834F22 		.ascii	"\306\203O\"sf\266\302\011\317;r\355\347\241\337p\300"
 314      7366B6C2 
 314      09CF3B72 
 314      EDE7A1DF 
ARM GAS  /tmp/ccz32YbK.s 			page 24


 314      70C0
 315 011a 1BED3AEE 		.ascii	"\033\355:\356\37533\203XE\3427\201\320\211\360\004M"
 315      FD333383 
 315      5845E237 
 315      81D089F0 
 315      044D
 316 012c D0112F03 		.ascii	"\320\021/\003\353\010\027\276\243\337^9\274\304;~\250"
 316      EB0817BE 
 316      A3DF5E39 
 316      BCC43B7E 
 316      A8
 317 013d DFBB4DAE 		.ascii	"\337\273M\256U4\015H\006\236+\244\247uG\317\357\256"
 317      55340D48 
 317      069E2BA4 
 317      A77547CF 
 317      EFAE
 318 014f BCD2E85D 		.ascii	"\274\322\350]\363\264'\305\314\316\026\363\2641zmff"
 318      F3B427C5 
 318      CCCE16F3 
 318      B4317A6D 
 318      6666
 319 0161 F868EFD4 		.ascii	"\370h\357\324\223\233\021\266\341\011l%\267mx\222\336"
 319      939B11B6 
 319      E1096C25 
 319      B76D7892 
 319      DE
 320 0172 A67A5BF4 		.ascii	"\246z[\364\256\321\333\206*Z.\356BH\322\310N\223\210"
 320      AED1DB86 
 320      2A5A2EEE 
 320      4248D2C8 
 320      4E9388
 321 0185 65944D96 		.ascii	"e\224M\226&\361\2342\314\263\246\2404%\2364\250I#\233"
 321      26F19C32 
 321      CCB3A6A0 
 321      34259E34 
 321      A849239B 
 322 0199 35D116D8 		.ascii	"5\321\026\330\314\243e,ZX\264\262X\311b\025\011g5\213"
 322      CCA3652C 
 322      5A58B4B2 
 322      58C96215 
 322      0967358B 
 323 01ad 353C6DE3 		.ascii	"5<m\343Q;\213u<]O\"\261\201\204\273Q\005\333\244Pw\250"
 323      513B8B75 
 323      3C5D4F22 
 323      B18184BB 
 323      5105DBA4 
 324 01c4 10F4D8D0 		.ascii	"\020\364\330\320\343y\375+\344\272\\\225\266\300l\320"
 324      E379FD2B 
 324      E4BA5C95 
 324      B6C06CD0 
 325 01d4 F338C91E 		.ascii	"\3638\311\036\204\255h\320\313\274\004\335/u\337x\267"
 325      84AD68D0 
 325      CBBC04DD 
 325      2F75DF78 
 325      B7
 326 01e5 651B0EA1 		.ascii	"e\033\016\241\015\025LV\320\025\\\231dz\031bz=}\000"
 326      0D154C56 
ARM GAS  /tmp/ccz32YbK.s 			page 25


 326      D0155C99 
 326      647A1962 
 326      7A3D7D00 
 327 01f9 6E797D5E 		.ascii	"ny}^\256\212\311N\224<\2221/6U1\265\034\226\276\355"
 327      AE8AC94E 
 327      943C9231 
 327      2F365531 
 327      B51C96BE 
 328 020e 0D3E5CC5 		.ascii	"\015>\\\3054H\007\301w\306$\254\364\021}\011=\327\273"
 328      344807C1 
 328      77C624AC 
 328      F4117D09 
 328      3DD7BB
 329 0221 B2FE4EAC 		.ascii	"\262\376N\254\212\205\353\260\025M\230\001\011e\250"
 329      8A85EBB0 
 329      154D9801 
 329      0965A8
 330 0230 B6541B66 		.ascii	"\266T\033f4\224\270og\301\340\347\302\260\257\373\367"
 330      3494B86F 
 330      67C1E0E7 
 330      C2B0AFFB 
 330      F7
 331 0241 5A8736CC 		.ascii	"Z\2076\314U\320bC`\\\227\340\320\037\335{\265*O*^\243"
 331      55D06243 
 331      605C97E0 
 331      D01FDD7B 
 331      B52A4F2A 
 332 0257 9D3F32F4 		.ascii	"\235?2\364b\241\202\206\337\017d?\336\257\300\265\301"
 332      62A18286 
 332      DF0F643F 
 332      DEAFC0B5 
 332      C1
 333 0268 B047CF66 		.ascii	"\260G\317f\342\372Mx\243\313\343ts~\342\316.\344\203"
 333      E2FA4D78 
 333      A3CBE374 
 333      737EE2CE 
 333      2EE483
 334 027b 823D1D45 		.ascii	"\202=\035E@^!\253p\232\022\242\015\364\255 \355z\276"
 334      405E21AB 
 334      709A12A2 
 334      0DF4AD20 
 334      ED7ABE
 335 028e F793DA72 		.ascii	"\367\223\332r\0352K\373\221_\\E6\225_\224\231,\253\362"
 335      1D324BFB 
 335      915F5C45 
 335      36955F94 
 335      992CABF2 
 336 02a2 6B7D5E26 		.ascii	"k}^&\300\250`G\011\011\2615<\360\2411\001V\0057\362"
 336      C0A86047 
 336      0909B135 
 336      3CF0A131 
 336      01560537 
 337 02b7 3C67F5C5 		.ascii	"<g\365\3059X\014\350x1y\227\261\037\216\230\321}\242"
 337      39580CE8 
 337      78317997 
 337      B11F8E98 
 337      D17DA2
ARM GAS  /tmp/ccz32YbK.s 			page 26


 338 02ca 0CC7616C 		.ascii	"\014\307al\\X\3762\366WA\033J\326\262\021C\007\246\035"
 338      5C58FE32 
 338      F657411B 
 338      4AD6B211 
 338      4307A61D 
 339 02de 539078A3 		.ascii	"S\220x\243\326\244\015K\212\306C#_'#T\3357g\252J*\002"
 339      D6A40D4B 
 339      8AC64323 
 339      5F272354 
 339      DD3767AA 
 340 02f5 AF89828A 		.ascii	"\257\211\202\212\242\334\254\331:FC\270*\027\341u\357"
 340      A2DCACD9 
 340      3A4643B8 
 340      2A17E175 
 340      EF
 341 0306 FA4042EB 		.ascii	"\372@B\353\3600\274\334\325\343\215\276\363\232Y\305"
 341      F030BCDC 
 341      D5E38DBE 
 341      F39A59C5 
 342 0316 027BEF50 		.ascii	"\002{\357P\034*E\177\221\326\375\036\330\201VXy\305"
 342      1C2A457F 
 342      91D6FD1E 
 342      D8815658 
 342      79C5
 343 0328 571A4269 		.ascii	"W\032Bi\207\225W}\245)\224\261\260\362{_i\011e<\254"
 343      8795577D 
 343      A52994B1 
 343      B0F27B5F 
 343      6909653C 
 344 033d FCDB57DA 		.ascii	"\374\333W\332B\351\204\225\267}e\\(\023a\345`\203V&"
 344      42E98495 
 344      B77D655C 
 344      281361E5 
 344      60835626 
 345 0351 84D28D54 		.ascii	"\204\322\215T \001\257\242y\201\316e\231\375\016E\375"
 345      2001AFA2 
 345      7981CE65 
 345      99FD0E45 
 345      FD
 346 0362 F9DE53EF 		.ascii	"\371\336S\357\265iB\032e?\025%\343\336\203\021\312\355"
 346      B569421A 
 346      653F1525 
 346      E3DE8311 
 346      CAED
 347 0374 7077257D 		.ascii	"pw%}\027V\025\243]\341\222\015\027{|\360\314\224\021"
 347      175615A3 
 347      5DE1920D 
 347      177B7CF0 
 347      CC9411
 348 0387 29EC6354 		.ascii	")\354cT\2455\360\001\017\357\257bI\206+W\260\211wi\020"
 348      A535F001 
 348      0FEFAF62 
 348      49862B57 
 348      B0897769 
 349 039c EEDB31A8 		.ascii	"\356\3331\250h\360=S \001wr\344\314\224\337\221\315"
 349      68F03D53 
 349      20017772 
ARM GAS  /tmp/ccz32YbK.s 			page 27


 349      E4CC94DF 
 349      91CD
 350 03ae 6DB0768E 		.ascii	"m\260v\216\235\"v\013\035\324\342\373L.\010\033\006"
 350      9D22760B 
 350      1DD4E2FB 
 350      4C2E081B 
 350      06
 351 03bf D89A6517 		.ascii	"\330\232e\027_]h\272\376\215A\264\363\003\022\347\344"
 351      5F5D68BA 
 351      FE8D41B4 
 351      F30312E7 
 351      E4
 352 03d0 7428E565 		.ascii	"t(\345e\363L9t\007Y\204\224\365\001\303@$\266\301\263"
 352      F34C3974 
 352      07598494 
 352      F501C340 
 352      24B6C1B3 
 353 03e4 01B69679 		.ascii	"\001\266\226yb3\027\025\233\025`k\221\345\0309\273\300"
 353      62331715 
 353      9B15606B 
 353      91E51839 
 353      BBC0
 354 03f6 72E88E8F 		.ascii	"r\350\216\217\226\343j(\345\326y\246\034\272d,B\312"
 354      96E36A28 
 354      E5D679A6 
 354      1CBA642C 
 354      42CA
 355 0408 FEE751E1 		.ascii	"\376\347Q\341\037b\321*!l+\347\211\315^Tl\361\000\333"
 355      1F62D12A 
 355      216C2BE7 
 355      89CD5E54 
 355      6CF100DB 
 356 041c 4A598EC1 		.ascii	"JY\216\301s\013,\207\023)\207\236l\305\244:nF\246\027"
 356      730B2C87 
 356      1329879E 
 356      6CC5A43A 
 356      6E46A617 
 357 0430 1A01EE12 		.ascii	"\032\001\356\022!U\177v\332\"\245[\335\247\206\374{"
 357      21557F76 
 357      DA22A55B 
 357      DDA786FC 
 357      7B
 358 0441 C5AA03F0 		.ascii	"\305\252\003\360\242\270a\211p\017\021\337w\016\027"
 358      A2B86189 
 358      700F11DF 
 358      770E17
 359 0450 3A842E43 		.ascii	":\204.C\357h\263\272\331\200_\235\306N4\024s\253\324"
 359      EF68B3BA 
 359      D9805F9D 
 359      C64E3414 
 359      73ABD4
 360 0463 41BC5FD6 		.ascii	"A\274_\326L\231V\261I\003K\327\003\213)`\347\206Vk`"
 360      4C9956B1 
 360      49034BD7 
 360      038B2960 
 360      E786566B 
 361 0478 AB23C09E 		.ascii	"\253#\300\236\232\0130n\245\217]\275\301\232\3715R\370"
ARM GAS  /tmp/ccz32YbK.s 			page 28


 361      9A0B306E 
 361      A58F5DBD 
 361      C19AF935 
 361      52F8
 362 048a 6FCF65B0 		.ascii	"o\317e\260\377\223\337\222N\365#K\320h\363*\237\236"
 362      FF93DF92 
 362      4EF5234B 
 362      D068F32A 
 362      9F9E
 363 049c 329B4C7D 		.ascii	"2\233L}6q\225\315\217\001\315ms\244\331\010\203\230"
 363      367195CD 
 363      8F01CD6D 
 363      73A4D908 
 363      8398
 364 04ae 85E63645 		.ascii	"\205\3466E\363\363w\2439[\017\314Q\300\376\014hn\237"
 364      F3F377A3 
 364      395B0FCC 
 364      51C0FE0C 
 364      686E9F
 365 04c1 23CDD113 		.ascii	"#\315\321\0239D\363\272\377\215\346v\332<Ds\256>\233"
 365      3944F3BA 
 365      FF8DE676 
 365      DA3C4473 
 365      AE3E9B
 366 04d4 84CAE6E4 		.ascii	"\204\312\346\344\260O\363z\221M\"\240\371.\037\217\031"
 366      B04FF37A 
 366      914D22A0 
 366      F92E1F8F 
 366      19
 367 04e5 06310BCD 		.ascii	"\0061\013\315\353g\353\346|=0Wws\000l\203\000\346\006"
 367      EB67EBE6 
 367      7C3D3057 
 367      7773006C 
 367      8300E606 
 368 04f9 C096DE19 		.ascii	"\300\226\336\031\2305\017`\033f\003V\340\333+\003S7"
 368      98350F60 
 368      1B660356 
 368      E0DB2B03 
 368      5337
 369 050b 44F157E1 		.ascii	"D\361W\341t\255]\203\332DwI\377\232(]\212p3!.\306\301"
 369      74AD5D83 
 369      DA447749 
 369      FF9A285D 
 369      8A703321 
 370 0522 5509FDBB 		.ascii	"U\011\375\273\231|&@;\231#&mR\230\266'\200\006\031\363"
 370      997C2640 
 370      3B992326 
 370      6D5298B6 
 370      27800619 
 371 0537 AD63BBE8 		.ascii	"\255c\273\350\346Z\230\034(\363V%\216\316\346\035\025"
 371      E65A981C 
 371      28F35625 
 371      8ECEE61D 
 371      15
 372 0548 348B3801 		.ascii	"4\2138\001\033\205\033@q\362\330\013lP\346\277\\\337"
 372      1B851B40 
 372      71F2D80B 
ARM GAS  /tmp/ccz32YbK.s 			page 29


 372      6C50E6BF 
 372      5CDF
 373 055a 08781579 		.ascii	"\010x\025yM\233\000\233m\254\031\375\340Ac\362hB\254"
 373      4D9B009B 
 373      6DAC19FD 
 373      E04163F2 
 373      6842AC
 374 056d 91DFA767 		.ascii	"\221\337\247g\312\374\217\015\311\2179\210U\366\354"
 374      CAFC8F0D 
 374      C98F3988 
 374      55F6EC
 375 057c BBB713B0 		.ascii	"\273\267\023\260j\356\331\275/\271}\377\316\235O\357"
 375      6AEED9BD 
 375      2FB97DFF 
 375      CE9D4FEF 
 376 058c 7D74F7FE 		.ascii	"}t\367\376g\237\263\266ly\004\376\005\021\231k\367"
 376      679FB3B6 
 376      6C7904FE 
 376      0511996B 
 376      F7
 377              		.text
 378              		.section	.gnu.lto_gpsNMEAChecksum.c939903555f4bfc5,"",%progbits
 379 0000 789C5D51 		.ascii	"x\234]Q=K\003A\020\2357\273{9\305\306\336B\354\325\312"
 379      3D4B0341 
 379      109D37BB 
 379      7B39C5C6 
 379      DE42ECD5 
 380 0015 D27F9180 		.ascii	"\322\177\221\200b\025\0169\203D\224\220:{&\251\264\010"
 380      62150E39 
 380      83449490 
 380      3A7B26A9 
 380      B408
 381 0027 36823606 		.ascii	"6\2026\006K\011V\207\032\024c\245\210\012\226\001\213"
 381      4B095687 
 381      1A1463A5 
 381      880A9601 
 381      8B
 382 0038 D4EA4F08 		.ascii	"\324\352O\010\234\263\311]D\027\356\346\343\275\231"
 382      9CB3C95D 
 382      4417EEE6 
 382      E3BD99
 383 0047 793BCBC4 		.ascii	"y;\313\304\364\377\254\312w\002\242Y\261\360\010\334"
 383      F4FFACCA 
 383      7702A259 
 383      B1F008DC 
 384 0057 7A238A7C 		.ascii	"z#\212|\206\036;j\354<\370\232\325\341#\221\2356\215"
 384      861E3B6A 
 384      EC3CF89A 
 384      D5E12391 
 384      9D368D
 385 006a 1CD91903 		.ascii	"\034\331\031\003\270<\201j\254\264Am\035\256\035\026"
 385      B83C816A 
 385      ACB4416D 
 385      1DAE1D16 
 386 007a A86DEDD1 		.ascii	"\250m\355\321\240\371\365\211c\333\213\316\3540I\200"
 386      A0F9F589 
 386      63DB8BCE 
ARM GAS  /tmp/ccz32YbK.s 			page 30


 386      EC304980 
 387 008a 1264F414 		.ascii	"\022d\364\024(\000\255I\000\177d\030\177\265\\ro\220"
 387      2800AD49 
 387      007F6418 
 387      7FB55C72 
 387      6F90
 388 009c 24B771F3 		.ascii	"$\267q\363yC\270eWSD[Z*H\240]\306\243\022T\316y~\212"
 388      7943B865 
 388      5753445B 
 388      5A2A48A0 
 388      5DC6A312 
 389 00b5 C931D4B0 		.ascii	"\3111\324\260\2665\237\305\301\250m^\376\242\264\000"
 389      B6359FC5 
 389      C1A86D5E 
 389      FEA2B400 
 390 00c5 16A35EA9 		.ascii	"\026\243^\251~P\277\352\314\025q\016C!t\010\365GB\001"
 390      7E50BFEA 
 390      CC15710E 
 390      43217408 
 390      F5474201 
 391 00d9 8AE47E63 		.ascii	"\212\344~c\342}g9#\346B`B\024\260[\337\311 ?\004\207"
 391      E27D6739 
 391      23E64260 
 391      4214B05B 
 391      DFC9203F 
 392 00ef B2B3B45E 		.ascii	"\262\263\264^\223,D\352\367\273\315\233\305\214\343"
 392      932C44EA 
 392      F7BBCD9B 
 392      C58CE3
 393 00fe 9DCA7645 		.ascii	"\235\312vEr\332E\247\323\236\250\361\035\255LH\0162"
 393      72DA45A7 
 393      D39EA8F1 
 393      1DAD4C48 
 393      0E32
 394 0110 BF7BE813 		.ascii	"\277{\350\023D!\177\304{2_\015\343;\364\211\035G0~\211"
 394      44217FC4 
 394      7B325F0D 
 394      E33BF489 
 394      1D47307E 
 395 0125 AB325AB2 		.ascii	"\2532Z\262e7\324\270\313\275S4\270\276@\326.}\344< "
 395      6537D4B8 
 395      CBBD5334 
 395      B8BE40D6 
 395      2E7DE43C 
 396 013a A00BBC70 		.ascii	"\240\013\274p\267\262\024\220\037lm\006\333\225j\371"
 396      B7B21490 
 396      1F6C6D06 
 396      DB956AF9 
 397 014a 07674C67 		.ascii	"\007gLg\375"
 397      FD
 398              		.text
 399              		.section	.gnu.lto_gpsThread.c939903555f4bfc5,"",%progbits
 400 0000 789C9D54 		.ascii	"x\234\235TKL\023Q\024\275w\276\375YT\344\253(\376E\002"
 400      4B4C1351 
 400      14BD77BE 
 400      FD5954E4 
 400      AB28FE45 
ARM GAS  /tmp/ccz32YbK.s 			page 31


 401 0015 DDE8DA95 		.ascii	"\335\350\332\225+\267\0225\306\220vh\340E+j\305\304"
 401      2BB71235 
 401      C6907668 
 401      E0452B6A 
 401      C5C4
 402 0027 B8602A25 		.ascii	"\270`*%\021\303\202\205&\212\033\214\270\000\014]\030"
 402      11C38285 
 402      268A1B8C 
 402      B8000C5D 
 402      18
 403 0038 BF1B3194 		.ascii	"\277\0331\224H$j\374\220\0304\24611\006\301Ot'&x\337"
 403      48246AFC 
 403      901834A6 
 403      313106C1 
 403      4F742726 
 404 004e BC99296D 		.ascii	"\274\231)m!\021'\231\367\336\314\334{\316\271\347\335"
 404      21112799 
 404      F7DECCDC 
 404      7BCEB9E7 
 404      DD
 405 005f 79124890 		.ascii	"y\022H\220\177\035\240{R\003\330K3z\000\245\236\347"
 405      7F1DA07B 
 405      5203D84B 
 405      337A00A5 
 405      9EE7
 406 0071 00098F84 		.ascii	"\000\011\217\204\232X\310\222\362\316\007\246O\2753"
 406      9A58C892 
 406      F2CE07A6 
 406      4FBD33
 407 0080 0A600614 		.ascii	"\012`\006\024T\305{U\004<\366h\222\334\375\204>\371"
 407      54C57B55 
 407      043CF668 
 407      92DCFD84 
 407      3EF9
 408 0092 F4A44E01 		.ascii	"\364\244N\001:\"\177\017\010\355\222\254\250\232\216"
 408      3A227F0F 
 408      08ED92AC 
 408      A89A8E
 409 00a1 ED879013 		.ascii	"\355\207\220\023\341&\270n\232W2c?\247\360\2529\222"
 409      E126B86E 
 409      9A573263 
 409      3FA7F0AA 
 409      3992
 410 00b3 EC33FFCC 		.ascii	"\3543\377\314\317#2$Q^\004\003\341 =`\2655IJ\256\312"
 410      CF233224 
 410      515E0403 
 410      E1203D60 
 410      B535494A 
 411 00c9 94349299 		.ascii	"\2244\222\231\237\357~\320\371\261\261J\306\030\202"
 411      9FEF7ED0 
 411      F9B1B14A 
 411      C61882
 412 00d8 060C652F 		.ascii	"\006\014e/\015\212\237\0065@\203\026\344\253b\014\343"
 412      0D8A9F06 
 412      35408316 
 412      E4AB620C 
 412      E3
ARM GAS  /tmp/ccz32YbK.s 			page 32


 413 00e9 75E22AA5 		.ascii	"u\342*\245\007\275\214\006O9_U\360U%\217'4\025\222\246"
 413      07BD8C06 
 413      4F395F55 
 413      F055258F 
 413      27341592 
 414 00fe D9532D02 		.ascii	"\331S-\002\201S\323\265\237F\252\240\001%\232\344\027"
 414      8153D3B5 
 414      9F46AAA0 
 414      01259AE4 
 414      17
 415 010f D0F963A0 		.ascii	"\320\371c\240\347b\211\035\352\344\214L|\232T\001\302"
 415      E762891D 
 415      EAE48C4C 
 415      7C9A5401 
 415      C2
 416 0120 780355CA 		.ascii	"x\003U\312C\241\356\034\3746/\230+\031z\015\224\302"
 416      43A1EE1C 
 416      FC362F98 
 416      2B197A0D 
 416      94C2
 417 0132 7893BEB9 		.ascii	"x\223\276\271o3\257\373.\355d\350\253\205A\223\256F"
 417      6F33AFFB 
 417      2EED64E8 
 417      AB854193 
 417      AE46
 418 0144 86FE1862 		.ascii	"\206\376\030b\204g\332\221a\354\347\023/;\200\244p\205"
 418      8467DA91 
 418      61ECE713 
 418      2F3B80A4 
 418      7085
 419 0156 006D4019 		.ascii	"\000m@\031\310XR\222\314\014D\013t\314\216\311Y\035"
 419      C8585292 
 419      CC0C440B 
 419      74CC8EC9 
 419      591D
 420 0168 729E8EA0 		.ascii	"r\236\216\240\201J\030\007su\364_\256\315\3528\231\243"
 420      814A1807 
 420      7375F45F 
 420      AECDEA38 
 420      99A3
 421 017a 6350E818 		.ascii	"cP\350\030\340\023\303\"\000*?\3235\240\347\263v}]P"
 421      E013C322 
 421      002A3FD3 
 421      35A0E7B3 
 421      767D5D50 
 422 018e BC5A58BC 		.ascii	"\274ZX\274\026\306T\016\351\253\376-Y\316\206\034\316"
 422      16C6540E 
 422      E9ABFE2D 
 422      59CE861C 
 422      CE
 423 019f 94E01CCE 		.ascii	"\224\340\034\316\257\375\031\234\237z?;\\#h\232\321"
 423      AFFD199C 
 423      9F7A3F3B 
 423      5C23689A 
 423      D1
 424 01b0 5B0BE49F 		.ascii	"[\013\344\237r\015z\023&\247Y\351\022\256\212!\357g"
 424      720D7A13 
ARM GAS  /tmp/ccz32YbK.s 			page 33


 424      26A759E9 
 424      12AE8A21 
 424      EF67
 425 01c2 9EBCCA92 		.ascii	"\236\274\312\222\022q6\204\364+\"\177\201\276\325\006"
 425      12713684 
 425      F42B227F 
 425      81BED506 
 426 01d2 EAD647C2 		.ascii	"\352\326G\302dX,\230\336\366V\345\025i\316\015\327e"
 426      64582C98 
 426      DEF656E5 
 426      1569CE0D 
 426      D765
 427 01e4 8BF48884 		.ascii	"\213\364\210\204RQ\302\310\3444\221\255\3717-\022G\271"
 427      5251C2C8 
 427      E43491AD 
 427      F9372D12 
 427      47B9
 428 01f6 2FEC20AA 		.ascii	"/\354 \252o\035\017\2515\357Y5\225\021\242\365\362w"
 428      6F1D0FA9 
 428      35EF5935 
 428      9511A2F5 
 428      F277
 429 0208 07B13995 		.ascii	"\007\2619\225\3729\032'\241\315)\251\203[\334\263#\314"
 429      FA391A27 
 429      A1CD29A9 
 429      835BDCB3 
 429      23CC
 430 021a E136F730 		.ascii	"\3416\3670,#\226\010\312.0!\001\270O.\033o\231\017C"
 430      2C239608 
 430      CA2E3021 
 430      01B84F2E 
 430      1B6F990F 
 431 022f 7E0737E0 		.ascii	"~\0077\340\252,7\320k[\340gX\0010\016\351\317\011\257"
 431      AA2C37D0 
 431      6B5BE067 
 431      5801300E 
 431      E9CF09AF 
 432 0243 1BC8E557 		.ascii	"\033\310\345W:\036\212&T \343\265zpzF/\260t\255\201"
 432      3A1E8A26 
 432      5420E3B5 
 432      7A707A46 
 432      2FB074AD 
 433 0258 3EB7093C 		.ascii	">\267\011<\014\327\331R\0173\254\262\244\212\337\330"
 433      0CD7D952 
 433      0F33ACB2 
 433      A48ADFD8 
 434 0268 CE63B87E 		.ascii	"\316c\270~I\323\207R5\005\246\227\377\257\351\351<\323"
 434      49D38752 
 434      3505A697 
 434      FFAFE9E9 
 434      3CD3
 435 027a 47ADEA2A 		.ascii	"G\255\352*\010\3216\235\330\234\232\203\3131=-L\257"
 435      08D1369D 
 435      D89C9A83 
 435      CB313D2D 
 435      4CAF
 436 028c 1045A585 		.ascii	"\020E\245\205\351i\307\364\316\314\227!_\201G\033\014"
ARM GAS  /tmp/ccz32YbK.s 			page 34


 436      E969C7F4 
 436      CECC9721 
 436      5F81471B 
 436      0C
 437 029d F4DB9E07 		.ascii	"\364\333\236\007m\233\252m\360G$|\243\205\256\346\372"
 437      6D9BAA6D 
 437      F047247C 
 437      A385AEE6 
 437      FA
 438 02ae B449ECE1 		.ascii	"\264I\354\341\314\"pdy`1\313\033\227\266\\l\244\352"
 438      CC227064 
 438      796031CB 
 438      1B97B65C 
 438      6CA4EA
 439 02c1 9E26DFF7 		.ascii	"\236&\337\367\025\240n6\354c\207{\271e\234\377\212["
 439      15A06E36 
 439      EC63877B 
 439      B9659CFF 
 439      8A5B
 440 02d3 9D440DE8 		.ascii	"\235D\015\350@\227\371\276\335\377\365Tr|\323\254\337"
 440      4097F9BE 
 440      DDFFF554 
 440      727CD3AC 
 440      DF
 441 02e4 52A65DA1 		.ascii	"R\246]\241\214m\315(\363\314\355\366.hv\373\214Cr6\261"
 441      8C6DCD28 
 441      F3CCEDF6 
 441      2E6876FB 
 441      8C437236 
 442 02f9 DB4DE121 		.ascii	"\333M\341!\362\202\356\"p\235\037\266\026\366\335i\314"
 442      F282EE22 
 442      709D1FB6 
 442      16F6DD69 
 442      CC
 443 030a 6F8A99D4 		.ascii	"o\212\231\324\272lS\004\205\207\225vS\334\236\010.\347"
 443      BA6C5304 
 443      85879576 
 443      53DC9E08 
 443      2EE7
 444 031c 5408E3A4 		.ascii	"T\010\343\244\263Mt2\274\311\255~\207\201En\000Q0\244"
 444      B34D7432 
 444      BCC9AD7E 
 444      8781456E 
 444      005130A4 
 445 0330 667C0989 		.ascii	"f|\011\211\314\334\020:\342\213\205\342\375\004\226"
 445      CCDC103A 
 445      E28B85E2 
 445      FD0496
 446 033f D43981D6 		.ascii	"\3249\201\326|\"^o\200\036\213\306\343\341\346\350\256"
 446      7C225E6F 
 446      801E8BC6 
 446      E3E1E6E8 
 446      AE
 447 0350 504B6B2C 		.ascii	"PKk,\0322Z\233\316\206\232\242gBF\013\213\260\326x\350"
 447      1A325A9B 
 447      CE869AA2 
 447      6742460B 
ARM GAS  /tmp/ccz32YbK.s 			page 35


 447      8BB0D678 
 448 0365 F4A9B6E3 		.ascii	"\364\251\266\343GC\2648u:\304\216\033\307\332\232(\250"
 448      4743B438 
 448      753AC48E 
 448      1BC7DA9A 
 448      28A8
 449 0377 25128FC6 		.ascii	"%\022\217\306\352[\340/J\323\3030"
 449      EA5BE02F 
 449      4AD3C330 
 450              		.text
 451              		.section	.gnu.lto_gpsGetLatitude.c939903555f4bfc5,"",%progbits
 452 0000 789C7550 		.ascii	"x\234uP\273n\0021\020\234\261s\276S\252\264t\364\021"
 452      BB6E0231 
 452      109CB173 
 452      BE53AAB4 
 452      74F411
 453 0013 7C0D1427 		.ascii	"|\015\024'\224\002\256@.\220\220(#\204\221\016\211\202"
 453      9402AE40 
 453      2E909028 
 453      2384910E 
 453      8982
 454 0025 03AAD4A1 		.ascii	"\003\252\324\241M\221\374B~ A\264T\376\201\374\000\015"
 454      4D91FC42 
 454      7E2041B4 
 454      54FE81FC 
 454      000D
 455 0037 D8E72305 		.ascii	"\330\347#\005\217\225\254]\317\356\316\214- p\0315w"
 455      8F95AC5D 
 455      CFEECE8C 
 455      2D207019 
 455      3577
 456 0049 5A041297 		.ascii	"Z\004\022\227)A\261\376\005\246\211 }\001b\"8IY\316"
 456      2941B1FE 
 456      05A68920 
 456      7D016222 
 456      384959CE 
 457 005d 7E896F7B 		.ascii	"~\211o{<~\276\355\337WTJrP\302\021rc\326u +\257\236"
 457      3C7EBEED 
 457      DF57544A 
 457      7250C211 
 457      7263D675 
 458 0075 CCAFB629 		.ascii	"\314\257\266)|\226[\344v\361\023w\271a\344\332\2578"
 458      7C965BE4 
 458      76F11377 
 458      B961E4DA 
 458      AF38
 459 0087 98B979D2 		.ascii	"\230\271y\322t\343\201\325#\211&\237\361a\\\244\232"
 459      74E381D5 
 459      2389269F 
 459      F1615CA4 
 459      9A
 460 0098 6240F642 		.ascii	"b@\366B\023\325\236v\336\260\305\314\026\177\352\212"
 460      13D59E76 
 460      DEB0C5CC 
 460      167FEA8A 
 461 00a8 EA216378 		.ascii	"\352!cxX\2372\200\246\255\031U\204cMU\225\035\315\270"
 461      589F3280 
ARM GAS  /tmp/ccz32YbK.s 			page 36


 461      A6AD1955 
 461      84634D55 
 461      951DCDB8 
 462 00bc E40EE4BD 		.ascii	"\344\016\344\275j\355_#\361\032\271]\026\217\267\354"
 462      6AED5F23 
 462      F11AB95D 
 462      168FB7EC 
 463 00cc CA5B765F 		.ascii	"\312[v_\356\333\335ajW\2153S\210\226\223v\277\342uU"
 463      EEDBDD61 
 463      6A578D33 
 463      53889693 
 463      76BFE275 
 464 00e1 7F386A66 		.ascii	"\1778jf8\001\373\002S\210"
 464      3801FB02 
 464      5388
 465              		.text
 466              		.section	.gnu.lto_gpsGetLongitude.c939903555f4bfc5,"",%progbits
 467 0000 789C7550 		.ascii	"x\234uP1n\0021\020\234\2619s\242\242\245K\037\301k\240"
 467      316E0231 
 467      109CB139 
 467      73A2A2A5 
 467      4B1FC16B 
 468 0015 408802AE 		.ascii	"@\210\002\2568\271@BJ\031\2413\322!\321D\342\007\201"
 468      38B94042 
 468      4A19A133 
 468      D221D144 
 468      E20781
 469 0028 0EAE483E 		.ascii	"\016\256H>@\301\007\022D\233\312\037\310\007h\210}>"
 469      40C10712 
 469      449BCA1F 
 469      C8076888 
 469      7D3E
 470 003a 5210B292 		.ascii	"R\020\262\222\265\353\331\335\231\261\005\004n\243\345"
 470      B5EBD9DD 
 470      99B10504 
 470      6EA3E5
 471 0049 4E9740EC 		.ascii	"N\227@\3542%(V\237\300<\026\244/@d\202Y\237\345\354"
 471      32252856 
 471      9FC03C16 
 471      A42F4064 
 471      82599FE5 
 472 005e BB38D8CB 		.ascii	"\2738\330\313\345m\377\265.\250\224\344\244\204#\344"
 472      E56DFFB5 
 472      2EA894E4 
 472      A48423E4 
 473 006e C6AC1E80 		.ascii	"\306\254\036\200\244\274z2\277\332\243\360Y\036\221"
 473      A4BC7A32 
 473      BFDAA3F0 
 473      591E91
 474 007d DBD78FFA 		.ascii	"\333\327\217\372\210\033F\256\375\214\263Y\232\246\246"
 474      881B46AE 
 474      FD8CB359 
 474      9AA6A6
 475 008c 1B0FAC1E 		.ascii	"\033\017\254\036\2115\371\210\302\270\350k\212\0119"
 475      8935F988 
 475      C2B8E86B 
 475      8A0939
ARM GAS  /tmp/ccz32YbK.s 			page 37


 476 009b 0E4D547B 		.ascii	"\016MT{\332y\303\021\013\273\375V\177\250j\011\303\303"
 476      DA79C311 
 476      0BBBFD56 
 476      7FA86A09 
 476      C3C3
 477 00ad 52CA009A 		.ascii	"R\312\000\232\236fT\021\3164UU\0164\353%w \037Wk\277"
 477      9E665411 
 477      CE345555 
 477      0E34EB25 
 477      77201F57 
 478 00c3 1AB1D7C8 		.ascii	"\032\261\327\310\355\356\245q\317\256\274gw\370\277"
 478      EDEEA571 
 478      CFAEBC67 
 478      77F8BF
 479 00d2 DD13E6B6 		.ascii	"\335\023\346\266h_\231Bt\235\264\373\025\257\253\322"
 479      685F9942 
 479      749DB4FB 
 479      15AFABD2 
 480 00e2 E95327C1 		.ascii	"\351S'\301\017\211\302T-"
 480      0F89C254 
 480      2D
 481              		.text
 482              		.section	.gnu.lto_gpsGetAltitude.c939903555f4bfc5,"",%progbits
 483 0000 789C6362 		.ascii	"x\234cb`b@\007\222@\034\302\310\300\300\001\244\031"
 483      60624007 
 483      92401CC2 
 483      C8C0C001 
 483      A419
 484 0012 99191899 		.ascii	"\231\031\030\231&\234c`h\344`bd\0041\030\030\031\352"
 484      269C6360 
 484      68E46062 
 484      64043118 
 484      1819EA
 485 0025 9918EB23 		.ascii	"\231\030\353#\031\301j\3273\035x\360\377\377\272O\267"
 485      19C16AD7 
 485      331D78F0 
 485      FFFFBA4F 
 485      B7
 486 0036 16EC6564 		.ascii	"\026\354edccf\314\005\013\2632\26444LP``H\006sA\206"
 486      636366CC 
 486      050BB332 
 486      B434344C 
 486      50606048 
 487 004e 81B48632 		.ascii	"\201\264\20622\201h\346\363\014-\017v\235eOd\\\310\310"
 487      328168E6 
 487      F30C2D0F 
 487      769D654F 
 487      645CC8C8 
 488 0062 0A94AE66 		.ascii	"\012\224\256f\370\325\320\321 \220\311\010T\0161\025"
 488      F8D5D0D1 
 488      2090C908 
 488      540E3115 
 489 0072 24C291C9 		.ascii	"$\302\221\311\310\250\315\260\252\001\010\"3\031\231"
 489      C8A8CDB0 
 489      AA010822 
 489      331999
 490 0081 72191993 		.ascii	"r\031\031\223 \222\014P}\231@\2671\234gh}\260\373-\033"
ARM GAS  /tmp/ccz32YbK.s 			page 38


 490      20920C50 
 490      7D9940B7 
 490      319C6768 
 490      7DB0FB2D 
 491 0096 86512CC9 		.ascii	"\206Q,\311\214\020\217\24532C\004\033B3\031Y\241\006"
 491      8C108FA5 
 491      33324304 
 491      1B423319 
 491      59A106
 492 00a9 D66632B2 		.ascii	"\326f2\262A\231\321\231\214\354`\263!\206'A\265\301"
 492      4199D199 
 492      8CEC60B3 
 492      21862741 
 492      B5C1
 493 00bb EDE000D9 		.ascii	"\355\340\000\331\321\362`O/\0276\3472csn,n\347^dh|\260"
 493      D1F2604F 
 493      2F1736E7 
 493      3263736E 
 493      2C6EE75E 
 494 00d3 57176612 		.ascii	"W\027f\022\004\204\000\255\006\206\012\310^\266\364"
 494      048400AD 
 494      06860AC8 
 494      5EB6F4
 495 00e2 8262BD64 		.ascii	"\202b\275d\006\000 \352T\312"
 495      060020EA 
 495      54CA
 496              		.text
 497              		.section	.gnu.lto_gpsGetTime.c939903555f4bfc5,"",%progbits
 498 0000 789C7550 		.ascii	"x\234uP\261\212\0021\024\234I\334\270X\331\332\331\213"
 498      B18A0231 
 498      149C49DC 
 498      B858D9DA 
 498      D98B
 499 0012 F7355AC8 		.ascii	"\3675Z\310a\241[H\012\341\300\362\020#\254`#XZz\255"
 499      61A15B48 
 499      0AE1C0F2 
 499      1023AC60 
 499      23585A7A 
 500 0027 85FE823F 		.ascii	"\205\376\202?\240\213\235`\223\037\360\007l\274d\263"
 500      A08B9D60 
 500      931FF007 
 500      6CBC64B3 
 501 0037 67E1E983 		.ascii	"g\341\351\203\360^\346\27573\211\200\300s\324\334i\021"
 501      F05EE6BD 
 501      37338980 
 501      C073D4DC 
 501      6911
 502 0049 885DA604 		.ascii	"\210]\246\004\305\362\010LcA\372\002\304Dp\322a>\273"
 502      C5F2084C 
 502      6341FA02 
 502      C44470D2 
 502      613EBB
 503 005c 137B7BBF 		.ascii	"\023{{\277oW\227\365\231JI\016s8Bj\314\262\016$\371"
 503      6F5797F5 
 503      994A490E 
 503      7338426A 
 503      CCB20E24 
ARM GAS  /tmp/ccz32YbK.s 			page 39


 504 0071 D593F9D5 		.ascii	"\325\223\371\3256\205\3172Cj\017\207r\217?\214\\\373"
 504      3685CF32 
 504      436A0F87 
 504      728F3F8C 
 504      5CFB
 505 0083 1B373337 		.ascii	"\033737UM7\036X=\022k\262\201\215q\321\321\024C\262"
 505      554D371E 
 505      583D126B 
 505      B2818D71 
 505      D1D11443 
 506 0098 1F9A28F6 		.ascii	"\037\232(\366\264\363\206\0143{\274\252\177T\245\204"
 506      B4F3860C 
 506      337BBCAA 
 506      7F54A584 
 507 00a8 E16103CA 		.ascii	"\341a\003\312\000\232\266fT\020\2165UQ~j\226s\356@\336"
 507      009AB666 
 507      54108E35 
 507      55517E6A 
 507      9673EE40 
 508 00bd 2FD61E1A 		.ascii	"/\326\036\032\261\327Hm\266\250\274\262+_\331\355\276"
 508      B1D7486D 
 508      B6A8BCB2 
 508      2B5FD9ED 
 508      BE
 509 00ce B77BC2D4 		.ascii	"\267{\302\324\236\233\177L!ZN\332\375\212\327U\203\257"
 509      9E9B7F4C 
 509      215A4EDA 
 509      FD8AD755 
 509      83AF
 510 00e0 D147825F 		.ascii	"\321G\202_\377\351T\340"
 510      FFE954E0 
 511              		.text
 512              		.section	.gnu.lto_gpsGetSatellites.c939903555f4bfc5,"",%progbits
 513 0000 789C7550 		.ascii	"x\234uP\273n\0021\020\234\2619s\242\242M\227>\"_\003"
 513      BB6E0231 
 513      109CB139 
 513      73A2A24D 
 513      973E225F 
 514 0015 05421470 		.ascii	"\005B\024p\005r\201\024)%B\030\351\"\321 \361\011\320"
 514      05728114 
 514      29254218 
 514      E922D120 
 514      F109D0
 515 0028 52C01F20 		.ascii	"R\300\037 ~\000\020u\032\227<\224\037H\003\366\371H"
 515      7E001075 
 515      1A973C94 
 515      1F4803F6 
 515      F948
 516 003a 0164256B 		.ascii	"\001d%k\327\263\2733c\013\010\334\307\213;U\002\261"
 516      D7B3BB33 
 516      630B08DC 
 516      C78B3B55 
 516      02B1
 517 004c CB94A098 		.ascii	"\313\224\240\230l\201a,H_\200\030\010\016\352\314f\227"
 517      6C81612C 
 517      485F8018 
 517      080EEACC 
ARM GAS  /tmp/ccz32YbK.s 			page 40


 517      6697
 518 005e 626D2F97 		.ascii	"bm/\227\305\352{z\246R\222\335\014\216\220\0323y\005"
 518      C5EA7B7A 
 518      A65292DD 
 518      0C8E901A 
 518      337905
 519 0071 92ECEAC9 		.ascii	"\222\354\352\311\374j\215\302g\271Cj\017\233b\2133F"
 519      FC6A8DC2 
 519      67B9436A 
 519      0F9B628B 
 519      3346
 520 0083 AEDDC3AF 		.ascii	"\256\335\303\257\031\231\262\246\033\017\254\036\211"
 520      1999B2A6 
 520      1B0FAC1E 
 520      89
 521 0090 35F986B9 		.ascii	"5\371\206\271qQ\327\024]\262\035\232\310\367\264\363"
 521      7151D714 
 521      5DB21D9A 
 521      C8F7B4F3 
 522 00a0 861DBEEC 		.ascii	"\206\035\276\354\361G=P\025\022\206\207u(\003hj\232"
 522      F1473D50 
 522      15128687 
 522      75280368 
 522      6A9A
 523 00b2 514ED8D7 		.ascii	"QN\330\327Ty\331\320,f\334\201\274\235\257\375i\304"
 523      5479D9D0 
 523      2C66DC81 
 523      BC9DAFFD 
 523      69C4
 524 00c4 5E23B5A7 		.ascii	"^#\265\247q\351\231]\371\314n\363\177\273{\014\355\271"
 524      71E9995D 
 524      F9CC6EF3 
 524      7FBB7B0C 
 524      EDB9
 525 00d6 72630A51 		.ascii	"rc\012Qu\322\356W\274\256\352||\276'\270\002\214!U}"
 525      75D2EE57 
 525      BCAEEA7C 
 525      7CBE27B8 
 525      028C2155 
 526              		.text
 527              		.section	.gnu.lto_gpsGetLocation.c939903555f4bfc5,"",%progbits
 528 0000 789C95D3 		.ascii	"x\234\225\323\275J\003A\020\007\360\371\357\336\227"
 528      BD4A0341 
 528      1007F0F9 
 528      EFDE97
 529 000f E7056D45 		.ascii	"\347\005mE\013{A_\304F\210`\012\013sE\270\" \330\031"
 529      0B7B415F 
 529      C4468860 
 529      0A0B7345 
 529      B82220D8 
 530 0024 C48B46D0 		.ascii	"\304\213F\3204\006\354\264Q\354,\264\022\033\213\274"
 530      3406ECB4 
 530      51EC2CB4 
 530      121B8BBC 
 531 0034 400CD636 		.ascii	"@\014\3266y\007\005!)\342\354\336\231\215\346\002\271"
 531      79070521 
 531      29E2ECDE 
ARM GAS  /tmp/ccz32YbK.s 			page 41


 531      998DE602 
 531      B9
 532 0045 819B5DF6 		.ascii	"\201\233]\366c\366\307\301\010\022\364?\226\370\333"
 532      63F6C7C1 
 532      0812F43F 
 532      96F8DB
 533 0054 B4883C1E 		.ascii	"\264\210<\036!\011\242\365FT\367\004\240&\004:\0268"
 533      2109A2F5 
 533      4654F704 
 533      A026043A 
 533      1638
 534 0066 2E419F7D 		.ascii	".A\237}\022\355\336p\370\370\365q\333\204\273 Q\005"
 534      12EDDE70 
 534      F8F8F571 
 534      DB84BB20 
 534      5105
 535 0078 5914811C 		.ascii	"Y\024\201\034\225<N\3609\211@%>nS#\216[\253D\241\276"
 535      953C4EF0 
 535      39894025 
 535      3E6E5323 
 535      8E5BAB44 
 536 008e 5EE4AC6A 		.ascii	"^\344\254jn\363&\217\262K\215\336\240\343\356\341\016"
 536      6EF3268F 
 536      B24B8DDE 
 536      A0E3EEE1 
 536      0E
 537 009f 366FD7A8 		.ascii	"6o\327\250\037\237\307\213\021d\210\3449\265\342E\260"
 537      1F9FC78B 
 537      116488E4 
 537      39B5E245 
 537      B0
 538 00b0 D6E821E6 		.ascii	"\326\350!\346(E\260\253@9\331\244\364^\004\207\250C"
 538      2845B0AB 
 538      4039D9A4 
 538      F45E0487 
 538      A843
 539 00c2 27FDD3CF 		.ascii	"'\375\323\317\227\225d\255\002\253F\207LJ/nEpo\350\032"
 539      979564AD 
 539      02AB4687 
 539      4C4A2F6E 
 539      45706FE8 
 540 00d7 11BC0AE4 		.ascii	"\021\274\012\344\016\217s\272B9}GG\227\316\332\313\023"
 540      0E8F73BA 
 540      42397D47 
 540      4797CEDA 
 540      CB13
 541 00e9 163F44F2 		.ascii	"\026?D\362\313tM\265\030\037\231\302\317\\\312M\347"
 541      CB744DB5 
 541      181F99C2 
 541      CF5CCA4D 
 541      E7
 542 00fa 57AABCE6 		.ascii	"W\252\274\346\211?\305G\314\371\224\371m\230\316\214"
 542      893FC547 
 542      CCF994F9 
 542      6D98CE8C 
 543 010a 4C9983E9 		.ascii	"L\231\203\351\344e\312l\346\3000=\315\204a\006\331L"
 543      E465CA6C 
ARM GAS  /tmp/ccz32YbK.s 			page 42


 543      E6C0303D 
 543      CD846106 
 543      D94C
 544 011c 2B07D333 		.ascii	"+\007\3233L\2141\203\251L+\23394L_3\205a\026\262\231"
 544      4C8C3183 
 544      A94C2B9B 
 544      39344C5F 
 544      33856116 
 545 0132 760EA66F 		.ascii	"v\016\246o\230b\214Y\230\312\264\263\231\367\257#f0"
 545      98628C59 
 545      98CAB4B3 
 545      99F7AF23 
 545      6630
 546 0144 23D3C9C1 		.ascii	"#\323\311\301\014\3622\235\011\246\352\306\213K?\253"
 546      0CF2329D 
 546      09A6EAC6 
 546      8B4B3FAB 
 547 0154 1B655637 		.ascii	"\033eV7\356N\357\306w\252\367\232\033\277\225\222(r"
 547      EE4EEFC6 
 547      77AAF79A 
 547      1BBF9592 
 547      2872
 548 0166 3B70D3AB 		.ascii	";p\323\253\367\235\312\376\301zH?\361\253\3670"
 548      F79DCAFE 
 548      C17A483F 
 548      F1ABF730 
 549              		.text
 550              		.section	.gnu.lto_.symbol_nodes.c939903555f4bfc5,"",%progbits
 551 0000 789C4DCF 		.ascii	"x\234M\317\313n\323@\024\006\340\343\177lhJ\343\342"
 551      CB6ED340 
 551      1406E0E3 
 551      7F6C684A 
 551      E3E2
 552 0012 5C9CDE92 		.ascii	"\\\234\336\2224)%H\200x\246>\311\011X$-\005\251P\356"
 552      34292548 
 552      8078A63E 
 552      C9095824 
 552      2D05A950 
 553 0027 B450622E 		.ascii	"\264Pb.\205\025] \301\202\015\021]\260\350\006\251H"
 553      85155D20 
 553      C1820D11 
 553      5DB0E806 
 553      A948
 554 0039 74D3E215 		.ascii	"t\323\342\025\022\210\027 \300\330>\352\314l~}\277\316"
 554      12881720 
 554      C0D83EEA 
 554      CC6C7E7D 
 554      BFCE
 555 004b 19CD8040 		.ascii	"\031\315\200@\007\212\362\203\253`\242\265=\"\346\215"
 555      078AF283 
 555      AB60A2B5 
 555      3D22E68D 
 556 005b 9525F4C0 		.ascii	"\225%\364\300\216\305e0,\256\200\225\305O\016\273\302"
 556      8EC56530 
 556      2CAE8095 
 556      C54F0EBB 
 556      C2
ARM GAS  /tmp/ccz32YbK.s 			page 43


 557 006c CDE525BC 		.ascii	"\315\345%\274\001{\307t\274.\340\262\362.\203<&\364"
 557      017BC774 
 557      BC2EE0B2 
 557      F22E833C 
 557      26F4
 558 007e C127ACD5 		.ascii	"\301'\254\325\035\360I3\213U\360\230\360\261^\275\006"
 558      1DF04933 
 558      8B55F098 
 558      F0B15EBD 
 558      06
 559 008f 47AFE23A 		.ascii	"G\257\342:\270`Z\334\000\217[\274\011>e\355\254A\245"
 559      B8605ADC 
 559      008F5BBC 
 559      093E65ED 
 559      AC41A5
 560 00a2 3BB7C013 		.ascii	";\267\300\023\326\320:\270h\3616\330\267x\007<i\361"
 560      D6D03AB8 
 560      68F136D8 
 560      B778073C 
 560      69F1
 561 00b4 2EF8B4C5 		.ascii	".\370\264\305{\340\300\342}p\311\342\003p\331\320\331"
 561      7BE0C0E2 
 561      7D70C9E2 
 561      0370D9D0 
 561      D9
 562 00c5 00577276 		.ascii	"\000Wrv\273\216\263\011\256\032m\201C\243G\340\232\321"
 562      BB8EB309 
 562      AE1A6D81 
 562      43A347E0 
 562      9AD1
 563 00d7 43F094D1 		.ascii	"C\360\224\321\023\360\264\321S\360\214\321\000<k\364"
 563      13F0B4D1 
 563      53F08CD1 
 563      003C6BF4 
 564 00e7 023C67F4 		.ascii	"\002<g\364\034\\7z\006n\030\305\340\246\321+\360\274"
 564      1C5C377A 
 564      066E18C5 
 564      E0A6D12B 
 564      F0BC
 565 00f9 D136B865 		.ascii	"\3216\270e\364\022\3346z\015^8\226r\247)\032\325\224"
 565      F412DC36 
 565      7A0D5E38 
 565      9672A729 
 565      1AD594
 566 010c 3B45F1D1 		.ascii	";E\361\321_Gy.}\357\377l\2521\217\006\207\213\2520C"
 566      5F47792E 
 566      7DEFFF6C 
 566      AA318F06 
 566      878BAA30 
 567 0121 711F6924 		.ascii	"q\037i$\273~\246\336\205L?&3\355\\\312\264\275\347d"
 567      BB7EA6DE 
 567      854C3F26 
 567      33ED5CCA 
 567      B4BDE764 
 568 0135 3CD4378C 		.ascii	"<\3247\214\317Q\362n\244s\226\342\367:'\352y_\324s["
 568      CF51F26E 
 568      A47396E2 
ARM GAS  /tmp/ccz32YbK.s 			page 44


 568      F73A27EA 
 568      795FD473 
 569 014a A12A1668 		.ascii	"\241*\026h\360V)_\246\375\006E_F\347\224\337\244h?\315"
 569      F056295F 
 569      A6FD0645 
 569      5F46E794 
 569      DFA4683F 
 570 015f 0625FBB9 		.ascii	"\006%\373\271\223\257\271\207\337\362\214\017t\006g"
 570      93AFB987 
 570      DFF28C0F 
 570      740667
 571 016e 294AF782 		.ascii	")J\367\202E\212\377\374>\257\20234\314rA\177#\315\""
 571      458AFFFC 
 571      3EAF8233 
 571      34CC7241 
 571      7F23CD22 
 572 0182 5DD9FDF7 		.ascii	"]\331\375\367\301SA\233\206\275_\027U\340\323\307~\232"
 572      C153419B 
 572      86BD5F17 
 572      55E0D3C7 
 572      7E9A
 573 0194 2D4AB29C 		.ascii	"-J\262\234\247\350s6P\247hU\377\264\324\316o,u\362\027"
 573      A7E87336 
 573      50A76855 
 573      FFB4D4CE 
 573      6F2C75F2 
 574 01a9 955A344C 		.ascii	"\225Z4L\263,}Y\372\262\364\025\351+\322W\244\257J_\225"
 574      B32C7D59 
 574      FAB2F415 
 574      E92BD257 
 574      A4AF4A5F 
 575 01be BE2A7D28 		.ascii	"\276*}(}(}(}M\372ZG\334\241\350H,\031\365\364\373Rg"
 575      7D287D28 
 575      7D4DFA5A 
 575      47DCA1E8 
 575      482C19F5 
 576 01d6 A93FA093 		.ascii	"\251?\240\223\376\003X\2422\370"
 576      FE0358A2 
 576      32F8
 577              		.text
 578              		.section	.gnu.lto_.refs.c939903555f4bfc5,"",%progbits
 579 0000 789C4D8C 		.ascii	"x\234M\214\331\016\2000\010\004\227\255=bM\033\357\377"
 579      D90E8030 
 579      080497AD 
 579      3D624D1B 
 579      EFFF
 580 0012 7FF03F6D 		.ascii	"\177\360?m\005\215L\330\001\036 \210\013Z\311# 0HKi"
 580      058D4CD8 
 580      011E2088 
 580      0B5AC923 
 580      2030484B 
 581 0027 300EE9BD 		.ascii	"0\016\351\275\370\361\271\364-\373LPH&\272R\244J\305"
 581      F8F1B9F4 
 581      2DFB4C50 
 581      4826BA52 
 581      A44AC5
 582 003a 0F7ECD3A 		.ascii	"\017~\315:\315\214\035\375B\313n\267\350\344V\363f\336"
ARM GAS  /tmp/ccz32YbK.s 			page 45


 582      CD8C1DFD 
 582      42CB6EB7 
 582      E8E456F3 
 582      66DE
 583 004c CD873A9E 		.ascii	"\315\207:\236\014\177p\003\212y\004'"
 583      0C7F7003 
 583      8A790427 
 584              		.text
 585              		.section	.gnu.lto_.decls.c939903555f4bfc5,"",%progbits
 586 0000 789CBD5D 		.ascii	"x\234\275]\011x\024U\236\257\252>s\010\021\025qvf\214"
 586      09781455 
 586      9EAFAA3E 
 586      73081115 
 586      7176668C 
 587 0014 ABE338EE 		.ascii	"\253\3438\356j\010\340\210;3b\014\3477\200l\022\034"
 587      6A08E088 
 587      3B33620C 
 587      E737806C 
 587      121C
 588 0026 7776C6A6 		.ascii	"wv\306\246\3504$\222\313\356\016\304\331\357[\213+\012"
 588      E8342492 
 588      CBEE0EC4 
 588      D9EF5B8B 
 588      2B0A
 589 0038 28F72567 		.ascii	"(\367%g@D\360@\022\344\220C\032\204\020@\010\341H\204"
 589      4044F040 
 589      12E49043 
 589      1A841040 
 589      08E14884 
 590 004c 48121190 		.ascii	"H\022\021\220\3135\334\022$\331\377{\365\252\273\352"
 590      CB35DC12 
 590      24D9FF7B 
 590      F5AABBEA 
 591 005c F5ABEAAA 		.ascii	"\365\253\352\252\314\354\366\307\253\256\343\275\337"
 591      CCECF6C7 
 591      ABAEE3BD 
 591      DF
 592 0069 FBFD8FF7 		.ascii	"\373\375\217\367\177G\275\016\002'p\273\3428\256\015"
 592      7F47BD0E 
 592      022770BB 
 592      E238AE0D 
 593 0079 3E470A39 		.ascii	">G\0129\2565\201\343\356\3438\356YH\017@Z\006)\021R"
 593      AE3581E3 
 593      EEE338EE 
 593      59480F40 
 593      5A062911 
 594 008e 11CF71AF 		.ascii	"\021\317q\257B\012@\032\015\351eH\036H\311\002\307="
 594      420A401A 
 594      0DE96548 
 594      1E48C902 
 594      C73D
 595 00a0 04E96148 		.ascii	"\004\351aH.\310\367(|\377\032\322\357 \255\206\353Q"
 595      2EC8F728 
 595      7CFF1AD2 
 595      EF20AD86 
 595      EB51
 596 00b2 90E71138 		.ascii	"\220\347\0218\377=\244\337B\372\003\244'!\331\340\231"
ARM GAS  /tmp/ccz32YbK.s 			page 46


 596      FF3DA4DF 
 596      42FA03A4 
 596      2721D9E0 
 596      99
 597 00c3 04CFE01F 		.ascii	"\004\317\340\037\347F\365\301\275\027 \255\202\363T"
 597      E746F5C1 
 597      BD1720AD 
 597      82F354
 598 00d2 F8EE0EE9 		.ascii	"\370\356\016\351)HO@z\006\322#p\377\337\341\373EH\177"
 598      29484F40 
 598      7A06D223 
 598      70FFDFE1 
 598      FB45487F 
 599 00e6 86F432A4 		.ascii	"\206\3642\244lH\243 \025B*\2064\033R\031\244\017!\225"
 599      6C48A320 
 599      15422A86 
 599      341B5219 
 599      A40F2195 
 600 00fa 43DA0269 		.ascii	"C\332\002i\007\244*H\325\220\216@\252\203T\017\251\021"
 600      07A42A48 
 600      D5908E40 
 600      AA83540F 
 600      A911
 601 010c D21948E7 		.ascii	"\322\031H\347 ]\202\324\002\251\015\361\002b\016H\361"
 601      205D82D4 
 601      02A90DF1 
 601      02620E48 
 601      F1
 602 011d 903A42EA 		.ascii	"\220:B\352\014\251\013\244\237A\372%\244\207!\375\032"
 602      0CA90BA4 
 602      9F41FA25 
 602      A48721FD 
 602      1A
 603 012e D26F20D9 		.ascii	"\322o \331\201\323S\360\3754\244^\220\322\220P\252\017"
 603      81D353F0 
 603      FD34A45E 
 603      90D29050 
 603      AA0F
 604 0140 E2AB7C78 		.ascii	"\342\253|x\352Z\371\274H\345y\221\221\347\317T\236?"
 604      EA5AF9BC 
 604      48E57991 
 604      91E7CF54 
 604      9E3F
 605 0152 33F2BC4C 		.ascii	"3\362\274L\345y\231\221\007\351\353.\370vr\262}\322"
 605      E5799991 
 605      07E9EB2E 
 605      F87672B2 
 605      7DD2
 606 0164 816F259C 		.ascii	"\201o%\234\367\266\311vB\366ZNl\336\027\356\235\207"
 606      F7B6C976 
 606      42F65A4E 
 606      6CDE17EE 
 606      9D87
 607 0176 3CFDE0FB 		.ascii	"<\375\340\373,|#8d\233WxYn\204\325\337&\353\017\351"
 607      2C7C2338 
 607      649B5778 
 607      596E84D5 
ARM GAS  /tmp/ccz32YbK.s 			page 47


 607      DF26EB0F 
 608 018b 11D59943 		.ascii	"\021\325\231C\325\211l\203|\351:<\354\300\311~\204l"
 608      D5896C83 
 608      7CE93A3C 
 608      ECC0C97E 
 608      846C
 609 019d 3E0DEECF 		.ascii	">\015\356\317%e\020\326\317\341d\005\\\277\013i `\366"
 609      256510D6 
 609      CFE16405 
 609      5CBF0B69 
 609      2060F6
 610 01b0 83EFBEA8 		.ascii	"\203\357\276\250,\257\3458\310&s\363\021\377\371#|\017"
 610      2CAFE538 
 610      C82673F3 
 610      11FFF923 
 610      7C0F
 611 01c2 82D40792 		.ascii	"\202\324\007\222\203\3247\030\036dAz\311&sD\224\220"
 611      83D43718 
 611      1E64417A 
 611      C9267344 
 611      9490
 612 01d4 6D9EA26C 		.ascii	"m\236\242l\203|\246#'sQ\270\335\307G8\241\354\377\011"
 612      837CA623 
 612      277351B8 
 612      DDC74738 
 612      A1ECFF09 
 613 01e8 873C419F 		.ascii	"\207<A\237\037\315\301Np\325<P\236W\341\332/\310<\324"
 613      1FCDC14E 
 613      70D53C50 
 613      9E57E1DA 
 613      2FC83CD4 
 614 01fc 1FE4B3F1 		.ascii	"\037\344\263\361\024\007\2041\006\256\377b\323\266\271"
 614      14078431 
 614      06AEFF62 
 614      D3B6B9
 615 020b EF896E05 		.ascii	"\357\211n\005R\356\022\321\337\014J\347\250\015 \034"
 615      52EE12D1 
 615      DF0C4AE7 
 615      A80D201C 
 616 021b A45F49C5 		.ascii	"\244_I\305\033\311\360W[\244\335\"b/\333\344\266|\233"
 616      1BC9F057 
 616      5BA4DD22 
 616      622FDBE4 
 616      B67C9B
 617 022e C8924E64 		.ascii	"\310\222Ndy\226\\\317&m\242\205\\/!2<M\311\201\332\234"
 617      79965CCF 
 617      266DA285 
 617      5C2F2132 
 617      3C4DC981 
 618 0244 93D3D677 		.ascii	"\223\323\326w\007\316\377\233\217\3309\235\330\242\214"
 618      07CEFF9B 
 618      8FD8399D 
 618      D8A28C
 619 0253 B431746F 		.ascii	"\2641to\025\305\375C\242\2071\304\366\235\210\257M#"
 619      15C5FD43 
 619      A28731C4 
 619      F69D88AF 
ARM GAS  /tmp/ccz32YbK.s 			page 48


 619      4D23
 620 0265 18482EA4 		.ascii	"\030H.\244\027%\346(z\361 9\010\226\215\340\\\"1\001"
 620      1725E628 
 620      7AF12039 
 620      08968DE0 
 620      5C223101 
 621 0279 95FB84AA 		.ascii	"\225\373\204\252\007\305\206\237\023\277S\364\256\370"
 621      07C5869F 
 621      13BF53F4 
 621      AEF8
 622 0287 A45227AA 		.ascii	"\244R'\252\377a\022\257~\257c\217G\010>\212\225\367"
 622      FF6112AF 
 622      7EAF638F 
 622      47083E8A 
 622      95F7
 623 0299 F0725C43 		.ascii	"\360r\\C\261\017\305\300a\220\337\011I\204\224`\223"
 623      B10FC5C0 
 623      6190DF09 
 623      49849460 
 623      93
 624 02aa 631FF251 		.ascii	"c\037\362Q\024\317\224\370\206\342\332S\304o\312\011"
 624      14CF94F8 
 624      86E2DA53 
 624      C46FCA09 
 625 02ba 6725F640 		.ascii	"g%\366@\030\3466\300\365&A\216+\303!y\221OC\362A\032"
 625      18E636C0 
 625      F526418E 
 625      2BC32179 
 625      914F43F2 
 626 02d0 016924A4 		.ascii	"\001i$\244\034H\271\224=\266\020{\250\345\273\217\217"
 626      1C48B994 
 626      3DB6107B 
 626      A8E5BB8F 
 626      8F
 627 02e1 E8117D78 		.ascii	"\350\021}x\222\017}o\247\364\203b\346\343\360\235\252"
 627      920F7D6F 
 627      A7F48362 
 627      E6E3F09D 
 627      AA
 628 02f2 2AFF8A2D 		.ascii	"*\377\212-\322v\377\246j\273\3716m\254\177\020\256\013"
 628      D276FFA6 
 628      6ABBF936 
 628      6DAC7F10 
 628      AE0B
 629 0304 203D628B 		.ascii	" =b\213\370B!\234\377\223M\346\243n?Ep\376\221 \333"
 629      F842219C 
 629      FF934DE6 
 629      A36E3F45 
 629      70FE9120 
 630 0319 9BF6CD57 		.ascii	"\233\366\315Wm\221\276\244\002\265\037\233\334\277$"
 630      6D91BEA4 
 630      02B51F9B 
 630      DCBF24
 631 0328 C17700D2 		.ascii	"\301w\000\322k\266\210\217\241\373\253T\376\333G\210"
 631      6BB6888F 
 631      A1FBAB54 
 631      FEDB4788 
ARM GAS  /tmp/ccz32YbK.s 			page 49


 632 0338 F4276320 		.ascii	"\364'c _\022\221\351o$v\217'q|\022\211\351?#m\025\371"
 632      5F1291E9 
 632      6F24768F 
 632      27717C12 
 632      89E93F23 
 633 034f 0D8AF5C8 		.ascii	"\015\212\365\310\026\235I\374W\374\025\251x\267 \307"
 633      169D49FC 
 633      57FC15A9 
 633      78B720C7 
 634 035f 11BA1DA3 		.ascii	"\021\272\035\243\376\005\272\320(\031\246\332d\037z"
 634      FE05BAD0 
 634      2819A6DA 
 634      641F7A
 635 036e 84C8F138 		.ascii	"\204\310\3618\301Q\270\245\022\333W\221z\177C\372\033"
 635      C151B8A5 
 635      12DB5791 
 635      7A7F43FA 
 635      1B
 636 037f 648E2F19 		.ascii	"d\216/\031\361\242\272\235\365t'\365T3\352\251a\324"
 636      F1A2BA9D 
 636      F57427F5 
 636      5433EAA9 
 636      61D4
 637 0391 73C4A01E 		.ascii	"s\304\240\036\245\037g\325\243\370\362\021F=\307\030"
 637      A51F67D5 
 637      A3F8F211 
 637      463DC718 
 638 03a1 F5D419D4 		.ascii	"\365\324\031\324\243\214\023X\365<A\352\251c\324s\234"
 638      A38C1358 
 638      F53C41EA 
 638      A963D473 
 638      9C
 639 03b2 514F7D3B 		.ascii	"QO};\353y\206\324S\317\250\347$\243\236F\022\277\036"
 639      EB7986D4 
 639      53CFA8E7 
 639      24A39E46 
 639      12BF1E
 640 03c5 2631E30F 		.ascii	"&1\343\017\014\277Vl\204|\033\325\3778\211\015\210\203"
 640      0CBF566C 
 640      847C1BD5 
 640      FF38890D 
 640      8883
 641 03d7 8BD49DAA 		.ascii	"\213\324\235\252\262\233z\014d'u\320\\\276epI\340&K"
 641      B29B7A0C 
 641      642775D0 
 641      5CBE6570 
 641      49E0264B 
 642 03eb D238A9AC 		.ascii	"\3228\251\254T\352_\325\241\0237C\202Or\025\260{\211"
 642      54EA5FD5 
 642      A1133743 
 642      824F7215 
 642      B07B89
 643 03fe 17F90E71 		.ascii	"\027\371\016q\3340|\222\030\207\033\367\257\270\025"
 643      DC307C92 
 643      18871BF7 
 643      AFB815
 644 040d 9234BDE9 		.ascii	"\2224\275\351\314w]$\273\310/\347;\001\354\323<\304"
ARM GAS  /tmp/ccz32YbK.s 			page 50


 644      CC775D24 
 644      BBC82FE7 
 644      3B01ECD3 
 644      3CC4
 645 041f 80D5506A 		.ascii	"\200\325Pj\272$\355|\224\347\242?\261P!\370\361+\001"
 645      BA24ED7C 
 645      94E7A23F 
 645      B15021F8 
 645      F12B01
 646 0432 4BE4DFE3 		.ascii	"K\344\337\343\037\227\353\220B[*\023Q\035\350>G\236"
 646      1F97EB90 
 646      425B2A13 
 646      511DE83E 
 646      479E
 647 0444 303E0F71 		.ascii	"0>\017qe(\363\266\312E\274T\266\2237\311\377H\345V\233"
 647      6528F3B6 
 647      CA45BC54 
 647      B69337C9 
 647      FF48E556 
 648 0459 24B9457E 		.ascii	"$\271E~5\226`\"\317kj\210\205\"p3p\211\217h\316\365"
 648      35966022 
 648      CF6B6A88 
 648      85227033 
 648      70898F68 
 649 046f CBF864F9 		.ascii	"\313\370d\371vl\312'\317\304I3\023\031U=\247T\345\216"
 649      766CCA27 
 649      CFC44933 
 649      1319553D 
 649      A754E58E 
 650 0483 10BE39F9 		.ascii	"\020\2769\371\340\014~\202$\301\203\265\230\362Q6\345"
 650      E00C7E82 
 650      24C183B5 
 650      98F25136 
 650      E5
 651 0494 B2E7F480 		.ascii	"\262\347\364\200\004\3564.\262\216\342\334T_}t,?\026"
 651      04EE342E 
 651      B28EE2DC 
 651      545F7D74 
 651      2C3F16
 652 04a7 43AF3341 		.ascii	"C\2573A|\\\350X\351\342\007\220\256c9N\231]\251\277"
 652      7C5CE858 
 652      E9E20790 
 652      AE63394E 
 652      995DA9BF 
 653 04bb 7744901B 		.ascii	"wD\220\033\223w\361X\363\233\260\030\037\01015\257\205"
 653      9377F158 
 653      F39BB018 
 653      1F083135 
 653      AF85
 654 04cd 11B875B8 		.ascii	"\021\270u\270\310\226(1\2465(bl1%\306m\"\206\310o\004"
 654      C8962831 
 654      A6352862 
 654      6C3125C6 
 654      6D2286C8 
 655 04e3 51046E5B 		.ascii	"Q\004n[\030\227T\234\254\324\213Z\0239\225?$\203\026"
 655      1897549C 
 655      ACD48B5A 
ARM GAS  /tmp/ccz32YbK.s 			page 51


 655      1339953F 
 655      248316
 656 04f6 AFB53271 		.ascii	"\257\2652q\272\250\200\355\262\014\226\254\001\233\265"
 656      BAA880ED 
 656      B20C96AC 
 656      019BB5
 657 0505 67112617 		.ascii	"g\021&\027\307\275\031\3211\307\004#\212\335X{\260\206"
 657      C7BD19D1 
 657      31C70423 
 657      8ADD587B 
 657      B086
 658 0517 1F8FE5FF 		.ascii	"\037\217\345\377\002\212\011\334l\233V\265\346\241n"
 658      028A09DC 
 658      6C9B56B5 
 658      E6A16E
 659 0526 2DD8BD83 		.ascii	"-\330\275\203\037\207\241*1\324\216vC\255_\262\365\031"
 659      1F87A12A 
 659      31D48E76 
 659      43AD5FB2 
 659      F519
 660 0538 6CEEBD18 		.ascii	"l\356\275\030\250\215\002\022yWX\215\341k%\003B\303"
 660      A88D0212 
 660      7957588D 
 660      E16B2503 
 660      42C3
 661 054a 8FC9099A 		.ascii	"\217\311\011\232xv\344\376\217\263\013\334d\273\011"
 661      7876E4FE 
 661      8FB30BDC 
 661      64BB09
 662 0559 D3B9F5FC 		.ascii	"\323\271\365\374@j:1\355\014\377\216\024\232`S\232\244"
 662      406A3A31 
 662      ED0CFF8E 
 662      149A6053 
 662      9AA4
 663 056b 534F4710 		.ascii	"SOG\020Fp]\007i_\276z\352\320\023\363%)I~\024\333\225"
 663      46705D07 
 663      695FBE7A 
 663      EAD013F3 
 663      2529497E 
 664 0582 37EE9F67 		.ascii	"7\356\237g\256E:\225\352\263q\365Gp\365G\350\352\333"
 664      AE453A95 
 664      EAB371F5 
 664      4770F547 
 664      E8EADB
 665 0595 CE9E7B56 		.ascii	"\316\236{V\256\376\210\251\352\033\253gGW/\362\317\336"
 665      AEFE88A9 
 665      EA1BAB67 
 665      47572FF2 
 665      CFDE
 666 05a7 67E41957 		.ascii	"g\344\031WO5?\266\024WR\207[\314b\007\355\032\275\022"
 666      4F353FB6 
 666      14575287 
 666      5BCC6207 
 666      ED1ABD12 
 667 05bb B4C6836B 		.ascii	"\264\306\203kU\006\201[\351P\330\267\253\301\202\230"
 667      5506815B 
 667      E950D8B7 
ARM GAS  /tmp/ccz32YbK.s 			page 52


 667      ABC18298 
 668 05cb A15EAB2B 		.ascii	"\241^\253+$i\222S\341\360\201e\304d\215\"\256T\343\020"
 668      24699253 
 668      E1F08165 
 668      C4648D22 
 668      AE54E310 
 669 05df 2083AD31 		.ascii	" \203\2551\003\246\353G\343B\327\324`\025\226\301\264"
 669      03A6EB47 
 669      E342D7D4 
 669      601596C1 
 669      B4
 670 05f0 CC6EA8C1 		.ascii	"\314n\250\3016\230\001K\322g\366\243\032l\263e0-\263"
 670      3698014B 
 670      D267F6A3 
 670      1A6CB365 
 670      302DB3
 671 0603 1635D8E7 		.ascii	"\0265\330\347f\300\272\3503\373I\015\266\3232\230\226"
 671      66C0BAE8 
 671      33FB490D 
 671      B6D33298 
 671      96
 672 0614 59AB1AAC 		.ascii	"Y\253\032\254\322\014X\262>\263\351\207U`\373,\203i"
 672      D20C58B2 
 672      3EB3E987 
 672      5560FB2C 
 672      8369
 673 0626 99CD5483 		.ascii	"\231\315T\203\0354\003\366\230>\263\331j\260\303\226"
 673      1D3403F6 
 673      983EB3D9 
 673      6AB0C396 
 674 0636 C1B4CCE6 		.ascii	"\301\264\314\346\252\301j\315\200u\325g6_\015v\3022"
 674      AAC16ACD 
 674      8075D567 
 674      365F0D76 
 674      C232
 675 0648 9896D902 		.ascii	"\230\226\331\0025X\203\031\260\236\372\314\026\251\301"
 675      35588319 
 675      B09EFACC 
 675      16A9C1
 676 0657 4E5906D3 		.ascii	"NY\006\3232[\253\006;k\006\3549}f\025j\260\363\226\301"
 676      325BAB06 
 676      3B6B06EC 
 676      397D6615 
 676      6AB0F396 
 677 066c B4CC3E55 		.ascii	"\264\314>U\203]2\003\326_\237\331\0065\330\017\226\301"
 677      835D3203 
 677      D65F9FD9 
 677      0635D80F 
 677      96C1
 678 067e B4CC36A9 		.ascii	"\264\3146\251\301\256\230\001\033\242\317l\263\032\354"
 678      C1AE9801 
 678      1BA2CF6C 
 678      B31AEC
 679 068d BA65302D 		.ascii	"\272e0-\263\255j\260\037\315\200\275\244\317\354s5\330"
 679      B3AD6AB0 
 679      1FCD80BD 
 679      A4CFEC73 
ARM GAS  /tmp/ccz32YbK.s 			page 53


 679      35D8
 680 069f 4F96C1B4 		.ascii	"O\226\301\264\314\016\251\301$\247\011\260a\014f\341"
 680      CC0EA9C1 
 680      24A709B0 
 680      610C66E1 
 681 06af 0FAB1CEA 		.ascii	"\017\253\034\352\246\017\363\341~[\340\306;\225\001"
 681      A60FF3E1 
 681      7E5BE0C6 
 681      3B9501
 682 06be 8EC53E9A 		.ascii	"\216\305>\232\213`\274\341\264: \323\310\0153\203\263"
 682      8B60BCE1 
 682      B43A20D3 
 682      C80D3383 
 682      B3
 683 06cf CBF859E3 		.ascii	"\313\370Y\343\245\252\256\312\350\374m3\210\006\035"
 683      A5AAAECA 
 683      E8FC6D33 
 683      88061D
 684 06de E0823DAA 		.ascii	"\340\202=\252\241\376\034\313`\224+#0\315\320\211\014"
 684      A1FE1CCB 
 684      60942B23 
 684      30CDD089 
 684      0C
 685 06ef AF9BDE0B 		.ascii	"\257\233\336\013u\231\037\031\274\271\025,4\303\226"
 685      75991F19 
 685      BCB9152C 
 685      34C396
 686 06fe 476A30E1 		.ascii	"Gj0\341\026\302\231\245.]\330yE~\266\360+8\316\021\342"
 686      16C299A5 
 686      2E5DD879 
 686      457EB6F0 
 686      2B38CE11 
 687 0713 C22CE473 		.ascii	"\302,\344s\345\254\215Gz^\354d\315\3351\200qQ=O\230"
 687      E5AC8D47 
 687      7A5EEC64 
 687      CDDD3180 
 687      71513D4F 
 688 0728 29A83C61 		.ascii	")\250<a\271\0315\031t\355\215{\026\335/5\205x\225\274"
 688      B9193519 
 688      74ED8D7B 
 688      16DD2F35 
 688      857895BC 
 689 073c 86CA8119 		.ascii	"\206\312\201\031\321\334\003\312\214\350\035\001\315"
 689      D1DC03CA 
 689      8CE81D01 
 689      CD
 690 0749 3E563B99 		.ascii	">V;\231\323\030\023P\267\026|\374/x\032\263\010\003"
 690      D3181350 
 690      B7167CFC 
 690      2F781AB3 
 690      0803
 691 075b 55B41B68 		.ascii	"U\264\033h\375\222%=1\320R\014\264\231\002\022y\236"
 691      FD92253D 
 691      31D0520C 
 691      B4990212 
 691      799E
 692 076d 9A0FF1DA 		.ascii	"\232\017\361\332\031\013\037\0279i\323\232\353\037\232"
ARM GAS  /tmp/ccz32YbK.s 			page 54


 692      190B1F17 
 692      3969D39A 
 692      EB1F9A
 693 077c 1766B0B4 		.ascii	"\027f\260\264\2754\342\304\034=5\325W\337\231\301_\035"
 693      BD34E2C4 
 693      1C3D35D5 
 693      57DF99C1 
 693      5F1D
 694 078e 27CDEF6A 		.ascii	"'\315\357j\301b\265_*\026[\201\365\363e\224~\026\011"
 694      C162B55F 
 694      2A165B81 
 694      F5F36594 
 694      7E1609
 695 07a1 D6142470 		.ascii	"\326\024$pG-\013\362\230V\220i\273fZ\027$\354z\253\261"
 695      472D0BF2 
 695      98569069 
 695      BB665A17 
 695      24EC7AAB 
 696 07b6 205FFF03 		.ascii	" _\377\003\0049mY\220\256*A\320\012\311\365\231r\034"
 696      04396D59 
 696      90AE2A41 
 696      D00AC9F5 
 696      99721C
 697 07c9 BC879B69 		.ascii	"\274\207\233i<3E"
 697      3C3345
 698 07d0 7CD608F7 		.ascii	"|\326\010\367h\027\267\216\357C\213[\350v\354\305\255"
 698      6817B78E 
 698      EF438B5B 
 698      E876ECC5 
 698      AD
 699 07e1 9BFB54EB 		.ascii	"\233\373T\353\027\222\251\365\213\271\325\212\312\312"
 699      1792A9F5 
 699      8BB9D58A 
 699      CACA
 700 07ef B1CA2EB2 		.ascii	"\261\312.\262\032\231)\250['v\225\223\365\213O1\324"
 700      1A9929A8 
 700      5B277695 
 700      93F58B4F 
 700      31D4
 701 0801 E57643AD 		.ascii	"\345vC\255o\330(\267\327\215\030\350V\224\031\235\224"
 701      6FD828B7 
 701      D78D18E8 
 701      5694199D 
 701      94
 702 0812 159D5A2B 		.ascii	"\025\235Z+\302%\252\351G\264\272\300\277N\356\240\013"
 702      C225AAE9 
 702      47B4BAC0 
 702      BF4EEEA0 
 702      0B
 703 0823 17F7FF5E 		.ascii	"\027\367\377^\016zc\027O\014k\2617\016{\320\231\231"
 703      0E7A6317 
 703      4F0C6BB1 
 703      370E7BD0 
 703      9999
 704 0835 4A4F2A1B 		.ascii	"JO*\033i\362\337\2058.\264n\212\262\010\327\013\365"
 704      69F2DF85 
 704      382EB46E 
ARM GAS  /tmp/ccz32YbK.s 			page 55


 704      8AB208D7 
 704      0BF5
 705 0847 A5B3FE4E 		.ascii	"\245\263\376N\270\232\375\226\227\315\346\036U\334."
 705      B89AFD96 
 705      97CDE61E 
 705      55DC2E
 706 0856 84255AE0 		.ascii	"\204%Z\340\242M\\I\307d3\253H+\333+I\370#p\037\273L"
 706      A24D5C49 
 706      C76433AB 
 706      482BDB2B 
 706      49F82370 
 707 086d 7499C906 		.ascii	"t\231\311\006\346\252\276I\314\025s)JYf\336W9\226,3"
 707      E6AABE49 
 707      CC157329 
 707      4A5966DE 
 707      5739962C 
 708 0882 570A687D 		.ascii	"W\012h}\266\234\322\206\2115\255\020.\262W\210Z\237"
 708      B69CD286 
 708      8935AD10 
 708      2EB25788 
 708      5A9F
 709 0894 3DA0ACCF 		.ascii	"=\240\254\317\242g&\026\2654\353\263\"\277\235\027\010"
 709      A2672616 
 709      B534EBB3 
 709      22BF9D17 
 709      08
 710 08a5 6E7B35AA 		.ascii	"n{5\2521b\204\240\310\357\307\343\243/\205\207\324\332"
 710      316284A0 
 710      C8EFC7E3 
 710      A32F8587 
 710      D4DA
 711 08b7 3F6459FB 		.ascii	"?dY\373\311j\355\207n\357\227_I(+\366'h\274\347\324"
 711      C96AED87 
 711      6EEF975F 
 711      49282BF6 
 711      2768BCE7 
 712 08cc 635772AA 		.ascii	"cWr\252;O\227B3\017\342A\247\334\356\316\230!g0\265"
 712      3B4F9742 
 712      330FE241 
 712      A7DCEECE 
 712      98216730 
 713 08e1 5E2283C9 		.ascii	"^\"\203\311.\177\3212X\262\006l\333Ts/\004$^=\034\026"
 713      2E7FD132 
 713      58B2066C 
 713      DB54732F 
 713      04245E3D 
 714 08f7 B81BB8DE 		.ascii	"\270\033\270\336Z\332Sn\265\035z\203xJ\255\011O\201"
 714      5ADA536E 
 714      B51D7A83 
 714      784AAD09 
 714      4F81
 715 0909 CE06BF49 		.ascii	"\316\006\277IQ\364\274\326\255\240\032\350\231\345'"
 715      51F4BCD6 
 715      ADA01AE8 
 715      99E527
 716 0918 CA7B81F3 		.ascii	"\312{\201\363{y\014'\017\3577\321p1g\037Z\270V_UWk\212"
 716      7B790C27 
ARM GAS  /tmp/ccz32YbK.s 			page 56


 716      0FEF37D1 
 716      7031671F 
 716      5AB8565F 
 717 0930 91DB62A8 		.ascii	"\221\333b\250\3763\324\3356\342f\030r\323AI\326\214"
 717      FE33D4DD 
 717      36E26618 
 717      72D34149 
 717      D68C
 718 0942 CA9F6B55 		.ascii	"\312\237kU\376\374\025\366\347\343\340\317\"_\217\217"
 718      FEFC15F6 
 718      E7E3E0CF 
 718      225F8F8F 
 719 0952 27D5BEAD 		.ascii	"'\325\276\255\327\3437\250\307\353U\226\345N\246\254"
 719      D7E337A8 
 719      C7EB5596 
 719      E54EA6AC 
 720 0962 A357CD31 		.ascii	"\243W\3151u5\325n\023\276\247\277\022\003a\345\330,"
 720      7535D56E 
 720      13BEA7BF 
 720      120361E5 
 720      D82C
 721 0974 A54B92DF 		.ascii	"\245K\222\337{\034\267\214\250\365\346\313S5]\322i3"
 721      7B1CB78C 
 721      A8F5E6CB 
 721      53355DD2 
 721      6933
 722 0986 70CF3108 		.ascii	"p\3171\010\262>\352\367V\"\277\215Gf\372\234G\006\012"
 722      B23EEAF7 
 722      5622BF8D 
 722      4766FA9C 
 722      47060A
 723 0999 E1E34E7C 		.ascii	"\341\343N|<\200\217oc\303M\303\307\031\3708\037\037"
 723      3C808F6F 
 723      63C34DC3 
 723      C719F838 
 723      1F1F
 724 09ab DFC5C755 		.ascii	"\337\305\307U\370\3701>\356\306\307\203\370x\010\037"
 724      F8F8313E 
 724      EEC6C783 
 724      F878081F 
 725 09bb 0FE3E351 		.ascii	"\017\343\343Q|<\215\217g\3158\200\034h\303n\246\304"
 725      7C3C8D8F 
 725      67CD3880 
 725      1C68C36E 
 725      A6C4
 726 09cd DC75ED7E 		.ascii	"\334u\355~'V\033y'&\362;,\203\321\036\245\321\344:\225"
 726      27561B79 
 726      2726F23B 
 726      2C83D11E 
 726      A5D1E43A 
 727 09e2 26D7634D 		.ascii	"&\327cMn\300z;\247\015\343\227\334\312\233\332\366\204"
 727      6EC07A3B 
 727      A70DE397 
 727      DCCA9BDA 
 727      F684
 728 09f4 03A9E948 		.ascii	"\003\251\351H\351\326g\360\353\034+C\331c\312\230\342"
 728      E9D667F0 
ARM GAS  /tmp/ccz32YbK.s 			page 57


 728      EB1C2B43 
 728      D963CA98 
 728      E2
 729 0a05 220EB0D7 		.ascii	"\"\016\260\327\242\232\357\247\364\350\337\3228\256"
 729      A29AEFA7 
 729      F4E8DFD2 
 729      38AE
 730 0a13 8596C96C 		.ascii	"\205\226\311lLbk\362#\225&\327`M~\2025yA\253I)\016\325"
 730      4C626BF2 
 730      239526D7 
 730      604D7E82 
 730      357941AB 
 731 0a2b BA3252EB 		.ascii	"\2722R\3530\245\252DcM\262k]\251\252\365}\\\353*\336"
 731      30A5AA44 
 731      634DB26B 
 731      5DA9AAF5 
 731      7D5CEB2A 
 732 0a40 848F2E8B 		.ascii	"\204\217.\213,/i\302\352\335\334tl\236\347\346w\220"
 732      2C2F69C2 
 732      EADDDC74 
 732      6C9EE7E6 
 732      7790
 733 0a52 5726F400 		.ascii	"W&\364\000.\013w\3433\215=\345\2653\235\022WT\253\037"
 733      2E0B77E3 
 733      338D3DE5 
 733      B5339D12 
 733      5754AB1F 
 734 0a66 89719113 		.ascii	"\211q\221\023[\014\252\315\221@g~@\272\364\203o\376"
 734      5B0CAACD 
 734      9140677E 
 734      40BAF483 
 734      6FFE
 735 0a78 ED13FC5E 		.ascii	"\355\023\374^\354\252\274D\020G\373\216\203r\035\207"
 735      ECAABC44 
 735      1047FB8E 
 735      83721D87 
 736 0a88 D6751C71 		.ascii	"\326u\034q\221\0232\034\215\331\377\010\352\361\014"
 736      9113321C 
 736      8DD9FF08 
 736      EAF10C
 737 0a97 21326BCD 		.ascii	"!2k\315\336\327e'\276\211\373\240I\3611_\325kq\020\267"
 737      DED76527 
 737      BE89FBA0 
 737      49F1315F 
 737      D56B7110 
 738 0aac 16AA730F 		.ascii	"\026\252s\017\3255\340]\035-\246\206\200\215\015K\242"
 738      D535E05D 
 738      1D2DA686 
 738      808D0D4B 
 738      A2
 739 0abd 07169DB9 		.ascii	"\007\026\235\2719\304n\022\037\324}\313\210\300[\205"
 739      39C46E12 
 739      1FD47DCB 
 739      88C05B85 
 740 0acd CEF8CC86 		.ascii	"\316\370\314\206\367\276\304\324BS\270\027\376yX\013"
 740      F7BEC4D4 
 740      4253B817 
ARM GAS  /tmp/ccz32YbK.s 			page 58


 740      FE79580B 
 741 0add A193F5BF 		.ascii	"\241\223\365\277@|\307\332\220\012f\307V\201\026D\344"
 741      407CC7DA 
 741      900A66C7 
 741      56811644 
 741      E4
 742 0aee C7DB50D0 		.ascii	"\307\333P\320C/\2035j\270\263\024\253\001\335\217\255"
 742      432F8335 
 742      6AB8B314 
 742      AB01DD8F 
 742      AD
 743 0aff 8639A7CE 		.ascii	"\2069\247\316\331\346I\241\2616\027W\212\027 &\216\213"
 743      D9E649A1 
 743      B1361757 
 743      8A172026 
 743      8E8B
 744 0b11 B500D156 		.ascii	"\265\000\321Vq\276\213l\2747\240\224\300\035\241\230"
 744      71BE8B6C 
 744      BC37A094 
 744      C01DA198 
 745 0b21 9B4042BC 		.ascii	"\233@B\274&Ca\015\357Y\245\035\021ot\337\2007V\270\300"
 745      2643610D 
 745      EF59A51D 
 745      116F74DF 
 745      803756B8 
 746 0b36 35C6CBCA 		.ascii	"5\306\313\312\260\307E\356]\214\334\343UY\257Gn+[\014"
 746      B0C745EE 
 746      5D8CDCE3 
 746      5559AF47 
 746      6E2B5B0C 
 747 0b4a D1A5E112 		.ascii	"\321\245\341\022V\204\234\310O\261\241\000\362\226\315"
 747      56849CC8 
 747      4FB1A100 
 747      F296CD
 748 0b59 C62C06B1 		.ascii	"\306,\006\261+\201'f`\211\032\263#\203\306p\371M\276"
 748      2B812766 
 748      60891AB3 
 748      2383C670 
 748      F94DBE
 749 0b6c E6BB89D2 		.ascii	"\346\273\211\322\332aV\214p\371\001\331\010\263\261"
 749      DA61568C 
 749      70F901D9 
 749      08B3B1
 750 0b7b 114A13DA 		.ascii	"\021J\023\332e\204y\264\021\326\313F\230g\312\010\263"
 750      658479B4 
 750      11D6CB46 
 750      9867CA08 
 750      B3
 751 0b8c 13A28DB0 		.ascii	"\023\242\215\260,\201i\204\265\011\326\2150Oe\204\371"
 751      2C816984 
 751      B509D68D 
 751      304F6584 
 751      F9
 752 0b9d D808EFE8 		.ascii	"\330\010\357\350\032a\207e#\270)#\324Lj\207\021n\375"
 752      1A618765 
 752      23B82923 
 752      D44C6A87 
ARM GAS  /tmp/ccz32YbK.s 			page 59


 752      116EFD
 753 0bb0 4C36C232 		.ascii	"L6\3022l\204\275\3553\302\012\332\010u\262\021V\230"
 753      6C84BDED 
 753      33C20ADA 
 753      0875B211 
 753      5698
 754 0bc2 32421DC3 		.ascii	"2B\035\303\010\247\331F\270\332\016#\254P\031\341=l"
 754      08A7D946 
 754      B8DA0E23 
 754      AC5019E1 
 754      3D6C
 755 0bd4 8495BA46 		.ascii	"\204\225\272F\230\220h\325\010ItK\230\304\177\363~\251"
 755      989068D5 
 755      0849744B 
 755      98C47FF3 
 755      7EA9
 756 0be6 44BDB450 		.ascii	"D\275\264PV\006@\325\272=\202\310\377\210g&\221^\001"
 756      560640D5 
 756      BA3D82C8 
 756      FF886726 
 756      915E01
 757 0bf9 DDFBC9CC 		.ascii	"\335\373\311\314\320t\215M5ix\213\226\301\354H\222\004"
 757      D0748D4D 
 757      3569788B 
 757      96C1EC48 
 757      9204
 758 0c0b D4AF4F55 		.ascii	"\324\257OU\241)^{:\204\246\272S\267&\361\345\270\203"
 758      A1295E7B 
 758      3A84A6BA 
 758      53B726F1 
 758      E5B883
 759 0c1e 5E873B85 		.ascii	"^\207;\205\352D\213\235\002\022g\003\335!,F\224\320"
 759      EA448B9D 
 759      02126703 
 759      DD212C46 
 759      94D0
 760 0c30 42E386D8 		.ascii	"B\343\206\330]\302\204\361\241\362SUBdT:\336p`!\362"
 760      5DC284F1 
 760      A1F25355 
 760      4264543A 
 760      DE706021 
 761 0c45 7BF0F0CA 		.ascii	"{\360\360\312\314\262\325I,\314\006\013\232\325\362"
 761      CCB2D549 
 761      2CCC060B 
 761      9AD5F2
 762 0c54 AA90352B 		.ascii	"\252\2205+\362\237\331\220\3776Y\206K\326\300}\252\205"
 762      F29FD990 
 762      FF365986 
 762      4BD6C07D 
 762      AA85
 763 0c66 FBD60C9C 		.ascii	"\373\326\014\234\336\\\034\3406h\341\276\263\014\247"
 763      DE5C1CE0 
 763      3668E1BE 
 763      B30CA7
 764 0c75 65B7490B 		.ascii	"e\267I\013w\321\014\234\336[E\200\333\254\205\373\301"
 764      77D10C9C 
 764      DE5B4580 
ARM GAS  /tmp/ccz32YbK.s 			page 60


 764      DBAC85FB 
 764      C1
 765 0c86 329C96DD 		.ascii	"2\234\226\335V-\334U3p\254\367o\254\217\332\201az\207"
 765      562DDC55 
 765      3370ACF7 
 765      6FAC8FDA 
 765      81617A87 
 766 0c9a 43CE261B 		.ascii	"C\316&\033\2323l\301\307m\370\270\035\037w\340\343\027"
 766      9A336CC1 
 766      C76DF8B8 
 766      1D1F77E0 
 766      E317
 767 0cac F8B8DB66 		.ascii	"\370\270\333f\242\251W\250\233\372\217f\232\272\376"
 767      A2A957A8 
 767      9BFA8F66 
 767      9ABAFE
 768 0cbb F20BEA33 		.ascii	"\362\013\3523\246\36058\\)\273\031[-C&\253!CwN5\333"
 768      A6F03538 
 768      5C29BB19 
 768      5B2D4326 
 768      AB214377 
 769 0cd2 70DB3311 		.ascii	"p\3333\021\3774S$\022A\026_\330\373{\324#\305\332e,"
 769      FF345324 
 769      1241165F 
 769      D8FB7BD4 
 769      23C5DA65 
 770 0ce7 F20740B1 		.ascii	"\362\007@\261f\366NW\323\321\344\372A<\274\25465\274"
 770      66F64E57 
 770      D3D1E4FA 
 770      413CBCAC 
 770      3635BC
 771 0cfa BC6972F9 		.ascii	"\274ir\371.\304\253\335$\034\016\367>+w\257Gp4<pW\314"
 771      2EC4ABDD 
 771      241C0EF7 
 771      3E2B77AF 
 771      4770343C 
 772 0d11 68A8C5C1 		.ascii	"h\250\305\301kW4\377u\325\230\177\255\251X\270\221l"
 772      6B5734FF 
 772      75D5987F 
 772      ADA958B8 
 772      916C
 773 0d23 3F0C071D 		.ascii	"?\014\007\035L\241\266\3351l\223\274\357\213\204\034"
 773      4CA1B6DD 
 773      316C93BC 
 773      EF8B841C 
 774 0d33 CB60C91A 		.ascii	"\313`\311\032\260\315j\260sf\300\014\342\327V5\330%"
 774      B0CD6AB0 
 774      7366C00C 
 774      E2D75635 
 774      D825
 775 0d45 CB605A66 		.ascii	"\313`Zf\237\253\301.\233\0013\210]\207\324`7,\203%\263"
 775      9FABC12E 
 775      9B013388 
 775      5D87D460 
 775      372C8325 
 776 0d5a CCCB4579 		.ascii	"\314\313Ey\207\310\327\341P\363\025\016&'\360\361k|"
 776      87C8D7E1 
ARM GAS  /tmp/ccz32YbK.s 			page 61


 776      50F3150E 
 776      2627F0F1 
 776      6B7C
 777 0d6c 6CC0C726 		.ascii	"l\300\307&|<e&\310\034V\007\231\026L\270\272}\036\003"
 777      7C3C6526 
 777      C81C5607 
 777      99164CB8 
 777      BA7D1E03 
 778 0d80 4166F185 		.ascii	"Af\361\205o~\267\031\357$\245\266\300\"}\35018\253f"
 778      6F7EB719 
 778      EF24A5B6 
 778      C0227DE8 
 778      3138AB66 
 779 0d94 30B68355 		.ascii	"0\266\203U\006\311j\006\241\333\007\345\335\021\312"
 779      06C96A06 
 779      A1DB07E5 
 779      DD11CA
 780 0da3 0E85521A 		.ascii	"\016\205R\032\2175\3123Z\265>\230\260v\230\002\366\266"
 780      8F35CA33 
 780      5AB53E98 
 780      B0769802 
 780      F6B6
 781 0db5 6530CDB8 		.ascii	"e0\315\270=4\275Z\0056\3172XR\224G\310\276p\010\373"
 781      3D34BD5A 
 781      0536CF32 
 781      58529447 
 781      C8BE7008 
 782 0dca 420DB6F9 		.ascii	"B\015\266\371\031|<\207\217\027\360\361\222\332\013"
 782      197C3C87 
 782      8F17F0F1 
 782      92DA0B
 783 0dd9 046E4907 		.ascii	"\004nI\007z\031E\016\216*\324H\024\345\314\342\352\331"
 783      7A19450E 
 783      8E2AD448 
 783      14E5CCE2 
 783      EAD9
 784 0deb 76BFDAB6 		.ascii	"v\277\332\266\345\035L\3647\372\273\215P\027\366\026"
 784      E51D4CF4 
 784      37FABB8D 
 784      5017F616 
 785 0dfb 1971CBC8 		.ascii	"\031q\313\310\002\267\3212\244\312]\240\271.\376\366"
 785      02B7D132 
 785      A4CA5DA0 
 785      B92EFEF6 
 786 0e0b 9C6DBE14 		.ascii	"\234m\276\024\032\247\014\037\245R\351\261U\035T\032"
 786      1AA70C1F 
 786      A552E9B1 
 786      551D541A 
 787 0e1b 27106806 		.ascii	"'\020h\006\022\336\002\263\361_a\200J\026\262\214\012"
 787      12DE02B3 
 787      F15F6180 
 787      4A16B28C 
 787      0A
 788 0e2c 88FC356C 		.ascii	"\210\3745l\031\233v\274i\213\213\234\264\265\341\037"
 788      199B76BC 
 788      698B8B9C 
 788      B4B5E11F 
ARM GAS  /tmp/ccz32YbK.s 			page 62


 789 0e3c 246DA38C 		.ascii	"$m\243\214b\002<\274\217\346}\371w\0057q\304\251\214"
 789      62023CBC 
 789      8FE67DF9 
 789      77053771 
 789      C4A98C
 790 0e4f B2AE8D5A 		.ascii	"\262\256\215Z$\213E\306Rf\201\253\241\015\240!iy45A"
 790      248B45C6 
 790      526681AB 
 790      A10DA021 
 790      69793435 
 791 0e64 15E22662 		.ascii	"\025\342&b\345\225bg\233\205\217e\370\3701>\226\343"
 791      E5956267 
 791      9B858F65 
 791      F8F8313E 
 791      96E3
 792 0e76 63153EEE 		.ascii	"c\025>\356\303\307f|\274b\306-\245\210[\212\374P\233"
 792      C3C7667C 
 792      BC62C62D 
 792      A5885B8A 
 792      FC509B
 793 0e89 61FEF02A 		.ascii	"a\376\360*\340\371\302Ux\266sG@\236WGi\232\012xh\311"
 793      E0F9C255 
 793      78B67347 
 793      409E5747 
 793      699A0A78 
 794 0e9f 4DAFF63B 		.ascii	"M\257\366;6\315\333\005\215\002\250g\320\211\343zZ\254"
 794      36CDDB05 
 794      8D02A867 
 794      D089E37A 
 794      5AAC
 795 0eb1 BFED5506 		.ascii	"\277\355U\0065d\351P\341}\3012^\262\006\257\265\001"
 795      3564E950 
 795      E17DC132 
 795      5EB206AF 
 795      B501
 796 0ec3 777032D8 		.ascii	"wp2\33053`\006\321un#\275\345\317\374\242\346D\273f"
 796      35336006 
 796      D1756E23 
 796      BDE5CFFC 
 796      A2E644BB 
 797 0ed8 5153366A 		.ascii	"QS6j\370\342\272\354\367&\255\033Z\270\344^\274\014"
 797      F8E2BAEC 
 797      F726AD1B 
 797      5AB8E45E 
 797      BC0C
 798 0eea 694752DD 		.ascii	"iGR\33516-\252X\217\324d\273\276i\251g\002\367FG\253"
 798      31362DAA 
 798      588FD464 
 798      BBBE69A9 
 798      6702F746 
 799 0f00 DAD39A62 		.ascii	"\332\323\232bi\343\337\265*<\325@\201\246\227\351CG"
 799      69E3DFB5 
 799      2A3CD540 
 799      81A697E9 
 799      4347
 800 0f12 16DE8734 		.ascii	"\026\336\20747\003/\323\314\350\370\017\3303b\301l["
 800      37032FD3 
ARM GAS  /tmp/ccz32YbK.s 			page 63


 800      CCE8F80F 
 800      D83362C1 
 800      6C5B
 801 0f24 64B3BD8D 		.ascii	"d\263\275\215\315\266\270\243\241\331\246\032\230m\256"
 801      CDB6B8A3 
 801      A1D9A61A 
 801      986DAE
 802 0f33 81D9E6D2 		.ascii	"\201\331\346\322f{\337\214\331\0146\315~\326\250\264"
 802      667BDF8C 
 802      D90C36CD 
 802      7ED6A8B4 
 803 0f43 48791AB6 		.ascii	"Hy\032\266\3262\236\326\015\016-M<4L\366x\201\333@\203"
 803      D6329ED6 
 803      0D0E2D4D 
 803      3C344CF6 
 803      7881DB40 
 804 0f58 998DC704 		.ascii	"\231\215\307\004\354+5\330f\313`\232%\262P\263\032\354"
 804      EC2B35D8 
 804      66CB609A 
 804      25B250B3 
 804      1AEC
 805 0f6a 73CB60C9 		.ascii	"s\313`\311Q\326P\231\245E\365\232\3776^L\373\011\277"
 805      51D65099 
 805      A545F59A 
 805      FF365E4C 
 805      FB09BF
 806 0f7d DF6DC3BD 		.ascii	"\337m\303\275\300X;:\216\307\307\267\360q>>.\300\307"
 806      C0583B3A 
 806      8EC7C7B7 
 806      F0713E3E 
 806      2EC0C7
 807 0f90 45F8B8C4 		.ascii	"E\370\270\304n\242\247\270!\030\276eK\246^\262"
 807      6EA2A7B8 
 807      2118BE65 
 807      4BA65EB2 
 808 0fa0 7551CADB 		.ascii	"uQ\312\333H\371ev\253/\331\226\333\331/\331\204\030"
 808      48F96576 
 808      AB2FD996 
 808      DBD92FD9 
 808      8418
 809 0fb2 4CCBECC6 		.ascii	"L\313\354\306L\273h\210\226\205\347\236\367\222\362"
 809      4CBB6888 
 809      9685E79E 
 809      F792F2
 810 0fc1 2B2C337D 		.ascii	"+,3}O\207\351=1\230\276\253\303T\231\"\253\226\237C"
 810      4F87E93D 
 810      3198BEAB 
 810      C3549922 
 810      AB969F43 
 811 0fd5 E1DFBCA2 		.ascii	"\341\337\274\242\337@\220\256xN\353\345\233\344\265"
 811      DF4090AE 
 811      784EEBE5 
 811      9BE4B5
 812 0fe4 F2FB7634 		.ascii	"\362\373v4\327\336K\265\374\230@\320}\343\"\037\330"
 812      D7DE4BB5 
 812      FC9840D0 
 812      7DE3221F 
ARM GAS  /tmp/ccz32YbK.s 			page 64


 812      D8
 813 0ff5 A9F9F649 		.ascii	"\251\371\366I1Y\276\033{\263\315"
 813      3159BE1B 
 813      7BB3CD
 814 1000 E5F36EA9 		.ascii	"\345\363n\2514\221\255\335!Je\361D\3445\226\225\373"
 814      3491ADDD 
 814      214A65F1 
 814      44E43596 
 814      95FB
 815 1012 898E7295 		.ascii	"\211\216r\225\006+pg\303\"\260j\21552\220BW\034\363"
 815      062B7067 
 815      C322B06A 
 815      8D353290 
 815      42571CF3 
 816 1026 BBCA6617 		.ascii	"\273\312f\027\270\2134\226\326?\014f#\004\354\232\012"
 816      B88B3496 
 816      D63F0C66 
 816      2304EC9A 
 816      0A
 817 1037 EC9A2930 		.ascii	"\354\232)0\375\015\272\241\033\000\306Vl\324\212\317"
 817      FD0DBAA1 
 817      1B00C656 
 817      6CD48ACF 
 818 1047 06CB8ADD 		.ascii	"\006\313\212\335\250\243X\305'\005\256\225\346\257\251"
 818      A8A358C5 
 818      2705AE95 
 818      E6AFA9
 819 1056 959C6AB6 		.ascii	"\225\234j\266\201iu\361#\326\305\032\254\2137\222L\030"
 819      816975F1 
 819      23D6C51A 
 819      AC8B3792 
 819      4C18
 820 1068 49B309A7 		.ascii	"I\263\011\247+\313\3478B>\342\260\"\377\221\035E\275"
 820      2BCBE738 
 820      423EE2B0 
 820      22FF911D 
 820      45BD
 821 107a 8F712C2B 		.ascii	"\217q,+\307\307u\370\270\036\037?3\023\335V\352\264"
 821      C7C775F8 
 821      B81E1F3F 
 821      3313DD56 
 821      EAB4
 822 108c 44F9EF01 		.ascii	"D\371\357\001\350\225\332\242[\012YC\257\324V\335Rk"
 822      E895DAA2 
 822      5B0A5943 
 822      AFD456DD 
 822      526B
 823 109e 0C4A6D8B 		.ascii	"\014Jm\213\224\"\373Pj\226\237\372\202\207\366\2156"
 823      9422FB50 
 823      6A969FFA 
 823      8287F68D 
 823      36
 824 10af 3AC99BC2 		.ascii	":\311\233\302\346\201\216Y\313k\235\0240\374Ws\004n"
 824      E6818E59 
 824      CB6B9D14 
 824      30FC5773 
 824      046E
ARM GAS  /tmp/ccz32YbK.s 			page 65


 825 10c1 19B64588 		.ascii	"\031\266E\210n\363\365\303\222\345\273&\336\303\227"
 825      6EF3F5C3 
 825      92E5BB26 
 825      DEC397
 826 10d0 912D7112 		.ascii	"\221-q\022\236}~\034\006l\317\330\034B\310iM\010\321"
 826      9E7D7E1C 
 826      066CCFD8 
 826      1C42C869 
 826      4D08D1
 827 10e3 89D49ADF 		.ascii	"\211\324\232\337*\343\267\030\226}\276J\307\347\275"
 827      2AE3B718 
 827      967DBE4A 
 827      C7E7BD
 828 10f2 5A76A144 		.ascii	"Zv\241D\345A\225\362\272\257\322r]{u\352R\336\325\011"
 828      E54195F2 
 828      BAAFD272 
 828      5D7B75EA 
 828      52DED509 
 829 1106 DC7A5A6D 		.ascii	"\334zZmT\275\261'!W\2337\361\2409e)e+\015\310ZJ!\"1"
 829      54BDB127 
 829      21579B37 
 829      F1A03965 
 829      29652B0D 
 830 1120 F1AEFD05 		.ascii	"\361\256\375\005\265X\031\254\312:\230\372w\022R\350"
 830      B55819AC 
 830      CA3A98FA 
 830      771252E8 
 831 1130 E6AA38CC 		.ascii	"\346\2528\314M\356\233\216E\011\253\351\211\230x$\004"
 831      4DEE9B8E 
 831      4509ABE9 
 831      89987824 
 831      04
 832 1141 88FCE78C 		.ascii	"\210\374\347\214F\254\335#IN\347\013\014/{\220[\"\035"
 832      46ACDD23 
 832      494EE70B 
 832      0C2F7B90 
 832      5B221D
 833 1154 6A0E6DAF 		.ascii	"j\016m\257\234\012\343\315q\241\266\266^\234<1\025\270"
 833      9C0AE3CD 
 833      71A1B6B6 
 833      5E9C3C31 
 833      15B8
 834 1166 86246D8F 		.ascii	"\206$m\217\371\010\367\256$\315\224\026\372\372+\276"
 834      F908F7AE 
 834      24CD9416 
 834      FAFA2BBE 
 835 1176 7D01E7A8 		.ascii	"}\001\347\250\261?\3104tx\012\375(\367\036\362\213-"
 835      B13FC834 
 835      74780AFD 
 835      28F71EF2 
 835      8B2D
 836 1188 D2902E78 		.ascii	"\322\220.x\262\301\221B\252\217\310\037\266k\376\\\022"
 836      B2C19142 
 836      AA8FC81F 
 836      B66BFE5C 
 836      12
 837 1199 E1D55099 		.ascii	"\341\325P\2318}lS[\333\203\012\251f6\251\031\012)\221"
ARM GAS  /tmp/ccz32YbK.s 			page 66


 837      387D6C53 
 837      5BDB830A 
 837      A96636A9 
 837      190A2991 
 838 11ad 3F6A479B 		.ascii	"?jG\233Hj\333C\252\226&U\307$U\273\207\"u\223Mj\016"
 838      486ADB43 
 838      AA962655 
 838      C72455BB 
 838      87227593 
 839 11c4 4DEA447B 		.ascii	"M\352D{H\235\240I\3253I\335\210\220B\263\030\201\223"
 839      489DA049 
 839      D53349DD 
 839      889042B3 
 839      188193
 840 11d7 EE3647AA 		.ascii	"\3566G\252\301\230\024)V\217\212\311\023\270I\030X\277"
 840      C1981429 
 840      568F8AC9 
 840      13B84918 
 840      58BF
 841 11e9 D80CB971 		.ascii	"\330\014\271q\263di\240ei\214\226%\324\334tf\315)\374"
 841      B36469A0 
 841      65698C96 
 841      25D4DC74 
 841      66CD29FC 
 842 11fd C2566A6B 		.ascii	"\302Vjk{=\331\374d\365\014=Y]\206\267R\252\246\211\002"
 842      7B3DD9FC 
 842      64F50C3D 
 842      595D86B7 
 842      52AAA689 
 843 1212 3785AD15 		.ascii	"7\205\255\025,\3362\274\207y>\316qZW<\262\247\216\210"
 843      2CDE32BC 
 843      87793ECE 
 843      715A573C 
 843      B2A78E88 
 844 1226 775C2DDE 		.ascii	"w\\-\336iZ\274\357\230\342\325,o\371\247\305\025e\322"
 844      695ABCEF 
 844      98E2D52C 
 844      6FF9A7C5 
 844      1565D2
 845 1239 24A9B5ED 		.ascii	"$\251\265\355u\336\274|\227\210|\021\221\004n\021%\017"
 845      75DEBC7C 
 845      97887C11 
 845      91046E11 
 845      250F
 846 124b 21069DC4 		.ascii	"!\006\235\304*\311\026&v\221&\366=\213\230T!Iq\240\363"
 846      2AC91626 
 846      769126F6 
 846      3D8B9854 
 846      214971A0 
 847 1260 36499057 		.ascii	"6I\220W0\240\367b\253k\036\355D?\230r\242:\3611e\246"
 847      30A0F762 
 847      AB6B1EED 
 847      443F9872 
 847      A23AF131 
 848 1276 B71103AB 		.ascii	"\267\021\003\253\212Q\253\242dm\206\345D?\320\3024\263"
 848      8A51ABA2 
 848      646D86E5 
ARM GAS  /tmp/ccz32YbK.s 			page 67


 848      443FD0C2 
 848      34B3
 849 1288 84091D9B 		.ascii	"\204\011\035\2332\373\2017\345\220\346\326\350\330\374"
 849      32FB8137 
 849      E590E6D6 
 849      E8D8FC
 850 1297 769839AD 		.ascii	"v\2309\255{\037\225\027N\355h7\314g\2242L\356\206i\261"
 850      7B1F9517 
 850      4EED6837 
 850      CC679432 
 850      4CEE8669 
 851 12ac 53BB6196 		.ascii	"S\273a\226:\004\371n\354\2750UwG\357\2059t7s/\314\361"
 851      3A04F96E 
 851      ECBD3055 
 851      7747EF85 
 851      39743773 
 852 12c3 BBB57B61 		.ascii	"\273\265{a\310\355o\"\267m\252\333\347#\267\355\252"
 852      C8ED6F22 
 852      B76DAADB 
 852      E723B7ED 
 852      AA
 853 12d4 DB5722B7 		.ascii	"\333W\"\267\035\252\333-\221\333N\325\355\011\235\302"
 853      1DAADB2D 
 853      91DB4ED5 
 853      ED099DC2 
 854 12e4 B75DAADB 		.ascii	"\267]\252\333\223#\267\311\273\015|i\270+'\242$\230"
 854      9323B7C9 
 854      BB0D7C69 
 854      B82B27A2 
 854      2498
 855 12f6 AAE341EB 		.ascii	"\252\343A\353Ov\366\256\034\275\326q\303\256\277\201"
 855      4F76F6AE 
 855      1CBDD671 
 855      C3AEBF81 
 856 1306 D17893EB 		.ascii	"\321x\223\3534\007{\245W\340\246wb\271?4\340\303OV\243"
 856      34077BA5 
 856      57E0A677 
 856      62B93F34 
 856      E0C34F56 
 857 131b C6229715 		.ascii	"\306\"\227\025\270U8\337u\335F@j\300\336<S\252\371\032"
 857      B85538DF 
 857      75DD4640 
 857      6AC0DE3C 
 857      53AAF91A 
 858 132f 79F34DE2 		.ascii	"y\363M\342\000\252R\224\353\340\307\323\035Q\316]\326"
 858      00AA5294 
 858      EBE0C7D3 
 858      1D51CE5D 
 858      D6
 859 1340 146A9CFC 		.ascii	"\024j\234\374V\270\277\32687\031\203\231\371\231\356"
 859      56B8BFD6 
 859      38371983 
 859      99F999EE 
 860 1350 898F1EC7 		.ascii	"\211\217\036\307\316=\327\201W\230(Q\315\003\255oX\234"
 860      CE3DD781 
 860      57982851 
 860      CD03AD6F 
ARM GAS  /tmp/ccz32YbK.s 			page 68


 860      589C
 861 1362 8281DEC1 		.ascii	"\202\201\336\301@\033) \221\347\250\345=N\273\274\007"
 861      401B2920 
 861      91E7A8E5 
 861      3D4EBBBC 
 861      07
 862 1373 9728E8B4 		.ascii	"\227(\350\264E\266o\303\235\327\271v\225\3213\361\034"
 862      45B66FC3 
 862      9DD7B976 
 862      95D133F1 
 862      1C
 863 1384 07631D93 		.ascii	"\007c\035\2232vH\317\330-\217o\223\215-\027\332\205"
 863      327648CF 
 863      D82D8F6F 
 863      938D2D17 
 863      DA85
 864 1396 23DE6C87 		.ascii	"#\336l\207\271\276\274\034\033{.\336h\254)\3052\366"
 864      B9BEBC1C 
 864      1B7B2EDE 
 864      68AC29C5 
 864      32F6
 865 13a8 E2686337 		.ascii	"\342hc75\207\226\354\227\273\366\245\317Q}\005B\325"
 865      358796EC 
 865      97BBF6A5 
 865      CF517D05 
 865      42D5
 866 13ba 937899C3 		.ascii	"\223x\231\303\322~^j\"D\326N\3574\3630\357Y\341\300"
 866      D27E5E6A 
 866      2244D64E 
 866      EF34F330 
 866      EF59E1C0 
 867 13ce 0B285176 		.ascii	"\013(Qv\225\347C*#\205T3\317\235\270\021\177\201\347"
 867      95E7432A 
 867      23855433 
 867      CF9DB811 
 867      7F81E7
 868 13e1 99BBF171 		.ascii	"\231\273\361q?>\036\300\307j|d\015]\243W\202t[g\035"
 868      3F3E1EC0 
 868      C76A7C64 
 868      0D5DA357 
 868      82745B67 
 869 13f6 D360A1A5 		.ascii	"\323`\241\245\373\227B\333\020\344\222\002\327\210s"
 869      FB9742DB 
 869      10E49202 
 869      D78873
 870 1405 95E99AEB 		.ascii	"\225\351\232\353]\207\276\271\312\214\315\365>\323\\"
 870      5D87BEB9 
 870      CA8CCDF5 
 870      3ED35C
 871 1414 A8E391DB 		.ascii	"\250\343\221\333\346v\211wS&C\255^O\322\217h'Ea\203"
 871      E6768977 
 871      532643AD 
 871      5E4FD28F 
 871      68274561 
 872 1429 92F95BA6 		.ascii	"\222\371[\246\314\322R\324!\313\331g:\220{~\250+\257"
 872      CCD252D4 
 872      21CBD967 
ARM GAS  /tmp/ccz32YbK.s 			page 69


 872      3A907B7E 
 872      A82BAF
 873 143c 3A168DA3 		.ascii	":\026\215\243b\321\207\306\362\256a\312\273n\246N,2"
 873      62D187C6 
 873      F2AE61CA 
 873      BB6EA64E 
 873      2C32
 874 144e 76D00A96 		.ascii	"v\320\012\226\264\341\013\262\352@I\177\215-\375\365"
 874      B4E10BB2 
 874      EA40497F 
 874      8D2DFDF5 
 875 145e ECFE4A24 		.ascii	"\354\376J$\226\356A9\312\215\245W\017\372V\342\367\002"
 875      96EE4139 
 875      CA8DA557 
 875      0FFA56E2 
 875      F702
 876 1470 53621423 		.ascii	"Sb\024#t\230NRn\254\264\365\314\000~\2546\254\264.\224"
 876      74984E52 
 876      6EACB4F5 
 876      CC007EAC 
 876      36ACB42E 
 877 1485 D2161974 		.ascii	"\322\026\031tU[M\270\310\264{\230Jj\313\246\\d\213I"
 877      555B4DB8 
 877      C8B47B98 
 877      4A6ACBA6 
 877      5C648B49 
 878 1499 175987A5 		.ascii	"\027Y\207\245\225\177\202\257)\305\222\366s\246\264"
 878      957F82AF 
 878      29C592F6 
 878      73A6B4
 879 14a8 6DB5FB79 		.ascii	"m\265\373y\240\360\023z!LI[n \355NZ\332^Q\302.e\013"
 879      A0F0137A 
 879      214C495B 
 879      6E20ED4E 
 879      5ADA5E51 
 880 14c0 DB8884C5 		.ascii	"\333\210\204\305?I[\2153\354\320\225\265\227\332\260"
 880      3F495B8D 
 880      33ECD095 
 880      B597DAB0 
 881 14d0 9F944E4C 		.ascii	"\237\224NL\262\313\2348\203R\204\336.\246\254s\026\350"
 881      B2CB9C38 
 881      835284DE 
 881      2EA6AC73 
 881      16E8
 882 14e2 CA6A30B6 		.ascii	"\312j0\266\337k\302\260\037\263e\275\031\361\376\255"
 882      DF6BC2B0 
 882      1FB365BD 
 882      19F1FEAD 
 883 14f2 38479529 		.ascii	"8G\225)\303J\322\333\322\304$><\254F\245T\037\210\327"
 883      C34AD2DB 
 883      D2C4243E 
 883      3CAC46A5 
 883      541F88D7 
 884 1506 4CF1369F 		.ascii	"L\3616\237\010\3173\021g\201\333\301fu+\342n\007\260"
 884      08CF3311 
 884      6781DBC1 
 884      66752BE2 
ARM GAS  /tmp/ccz32YbK.s 			page 70


 884      6E07B0
 885 1519 BB55B78B 		.ascii	"\273U\267\213U5\315\352\020\223U3\315\252&\206\256\024"
 885      5535CDEA 
 885      10935533 
 885      CDAA2686 
 885      AE14
 886 152b 5647DAC5 		.ascii	"VG\332\305\352\010\315\352(\223\325\334z\212U\223\201"
 886      EA08CDEA 
 886      2893D5DC 
 886      7A8A5593 
 886      81
 887 153c B7AA59D5 		.ascii	"\267\252Y\325\265\213U\035\315\352+&\253\2554\253\213"
 887      B58B551D 
 887      CDEA2B26 
 887      ABAD34AB 
 887      8B
 888 154d 6C56B769 		.ascii	"lV\267iV\365\355bUO\263\372\232\311\352\212\302\312"
 888      56F5ED62 
 888      554FB3FA 
 888      9AC9EA8A 
 888      C2CA
 889 155f 7C9B69A2 		.ascii	"|\233i\242\333\314J{T\233\371\211-\333;J\350Wdk4\031"
 889      DBCC4A7B 
 889      549BF989 
 889      2DDB3B4A 
 889      E857646B 
 890 1575 FAB5B235 		.ascii	"\372\265\2625\322\262\235b\364\220\323\233\352\253\017"
 890      D2B29D62 
 890      F490D39B 
 890      EAAB0F
 891 1584 96F233C6 		.ascii	"\226\3623\306\227UI\315\350\355\265y\011\317:\242g\374"
 891      975549CD 
 891      E8EDB579 
 891      09CF3AA2 
 891      67FC
 892 1596 53EEA567 		.ascii	"S\356\245g\374r\216\357\230U\037.=\313\277#\355\304"
 892      FC728EEF 
 892      98551F2E 
 892      3DCBBF23 
 892      EDC4
 893 15a8 4B29162A 		.ascii	"K)\026*>O\253vK\264j\027\351\020\271\310 \262\266i\335"
 893      3E4FAB76 
 893      4BB46A17 
 893      E910B9C8 
 893      20B2B669 
 894 15bd B727B209 		.ascii	"\267'\262\011\221\266.\322\364\015\364\272\207\235\325"
 894      91B62ED2 
 894      F40DF4BA 
 894      879DD5
 895 15cc 0D9009E5 		.ascii	"\015\220\011\345\301{U=\314\36745\364\227\2234\027\352"
 895      C17B553D 
 895      CCF73435 
 895      F4979334 
 895      17EA
 896 15de 875785E8 		.ascii	"\207W\205\350=\036\002W\253\241Nji\300\265\220\213\263"
 896      3D1E0257 
 896      ABA14E6A 
ARM GAS  /tmp/ccz32YbK.s 			page 71


 896      69C0B590 
 896      8BB3
 897 15f0 4A95CA4F 		.ascii	"J\225\312O\261\"\024X\037\242\355\266\212\035\277\230"
 897      B1221458 
 897      1FA2EDB6 
 897      8A1DBF98 
 898 1600 5F214DB0 		.ascii	"_!M\260\272\262s\2335=\011_\220\237sP24\353\250\277"
 898      BAB2739B 
 898      353D095F 
 898      909F7350 
 898      3234EBA8 
 899 1615 95E50765 		.ascii	"\225\345\007e?\266U\361oZ\356\225$'\305\013\375\352"
 899      3FB655F1 
 899      6F5AEE95 
 899      2427C50B 
 899      FDEA
 900 1627 9DE2D1A2 		.ascii	"\235\342\321\242\303c\234\223\345\217\255\025{\177\021"
 900      C3639C93 
 900      E58FAD15 
 900      7B7F11
 901 1636 F64765FD 		.ascii	"\366Ge\375t\362}l\210\011L\210\272\013\233\235\355p"
 901      74F27D6C 
 901      88094C88 
 901      BA0B9B9D 
 901      ED70
 902 1648 E9525A16 		.ascii	"\351RZ\026\315x\223D0J\266\205:\304&\261\210\205\326"
 902      CD789344 
 902      304AB685 
 902      3AC426B1 
 902      8885D6
 903 165b 9E96DC72 		.ascii	"\236\226\334r\0237\317j\212!\2539L\357}W\207\325T\246"
 903      1337CF6A 
 903      8A21AB39 
 903      4CEF7D57 
 903      87D554A6 
 904 166f BA8E5DBC 		.ascii	"\272\216]\274\320\253=>9]\313\314\374\217roN\336 /,"
 904      D0AB3D3E 
 904      395DCBCC 
 904      FC8F726F 
 904      4EDE202F 
 905 1684 CC74A2F5 		.ascii	"\314t\242\365\200\013\367\321\363\306v\354\367\241\347"
 905      800BF7D1 
 905      F3C676EC 
 905      F7A1E7
 906 1693 013A1A98 		.ascii	"\001:\032\230\303\324\300\255\266s\252V){\265\300\265"
 906      C3D4C0AD 
 906      B673AA56 
 906      297BB5C0 
 906      B5
 907 16a4 E960CC63 		.ascii	"\351`\314c\332\266b\317[\022\257t\2332\300\224\316l"
 907      DAB662CF 
 907      5B12AF74 
 907      9B32C094 
 907      CE6C
 908 16b6 80779824 		.ascii	"\200w\230$ 4\374r\201\236\031\256\032\014\202\027\322"
 908      2034FC72 
 908      819E19AE 
ARM GAS  /tmp/ccz32YbK.s 			page 72


 908      1A0C8217 
 908      D2
 909 16c7 1EC258BA 		.ascii	"\036\302X\272\230\243Ce1\223\312\221\312\206\261\355"
 909      98A34365 
 909      3193CA91 
 909      CA86B1ED 
 910 16d7 EA8E96D2 		.ascii	"\352\216\226\322TP\257\020\276\270\310t\326\367t\250"
 910      5450AF10 
 910      BEB8C874 
 910      D6F774A8 
 911 16e7 2D67AAB9 		.ascii	"-g\252\271\255\022\246E\313\230sI\243\211\302\012\026"
 911      AD12A645 
 911      CB987349 
 911      A389C20A 
 911      16
 912 16f8 318AC85A 		.ascii	"1\212\310Z\035\"+\231Dn\225F\210\310\202\013\334f\035"
 912      1D222B99 
 912      446E9546 
 912      88C8820B 
 912      DC661D
 913 170b 84550C84 		.ascii	"\204U\014\204\265M\025\337^\261E:\274P\005ms\324\320"
 913      B54D15DF 
 913      5EB1453A 
 913      BC50056D 
 913      73D4D0
 914 171e 757A3C91 		.ascii	"uz<\221\377\001\007q\322\367\354\203z\211d\277\344\016"
 914      FF010771 
 914      D2F7EC83 
 914      7A8964BF 
 914      E40E
 915 1730 775E2CB9 		.ascii	"w^,\2719\212\301\007\206Q\204\364\211\224>\216v\216"
 915      398AC107 
 915      865184F4 
 915      89943E8E 
 915      768E
 916 1742 EA0345FE 		.ascii	"\352\003E\376z\244^\221\277\251\355I\350\317?s\313\244"
 916      7AA45E91 
 916      BFA9ED49 
 916      E8CF3F73 
 916      CBA4
 917 1754 A6434D35 		.ascii	"\246CM5\313w\356\346gJR\225$\201\266\370\007\225\377"
 917      CB77EEE6 
 917      674A5295 
 917      2481B6F8 
 917      0795FF
 918 1767 E9A03E8C 		.ascii	"\351\240>\214O\244\214\336\227\021\321\033\302\012\035"
 918      4FA48CDE 
 918      9711D11B 
 918      C20A1D
 919 1776 0A2DDC37 		.ascii	"\012-\3347\207\207Y\261\004m\244\215W~K\177\212\006"
 919      878759B1 
 919      046DA48D 
 919      577E4B7F 
 919      8A06
 920 1788 92A27E39 		.ascii	"\222\242~9\277\211 \365\340\326Io\206\246\333\344\242"
 920      BF8920F5 
 920      E0D6496F 
ARM GAS  /tmp/ccz32YbK.s 			page 73


 920      86A6DBE4 
 920      A2
 921 1799 F276AFFF 		.ascii	"\362v\257\377\342Z\2447\245\320\342}\274\262s\226\274"
 921      E25AA437 
 921      A5D0E27D 
 921      BCB27396 
 921      BC
 922 17aa 7B94F781 		.ascii	"{\224\367\201\221\307K\342\225\247\265\312S\264?\214"
 922      91C74BE2 
 922      95A7B5CA 
 922      53B43F8C 
 923 17ba 3C5D1B7E 		.ascii	"<]\033~zBy:>\362\264\"^\331\270\371\203\362\364\255"
 923      7A42793A 
 923      3EF2B422 
 923      5ED9B8F9 
 923      83F2F4AD 
 924 17ce C8D3     		.ascii	"\310\323"
 925 17d0 4FE395FD 		.ascii	"O\343\225\375\201\015\312S\264\317\214\3047\351\217"
 925      810DCA53 
 925      B4CF8CC4 
 925      37E98F
 926 17df 9CBCE30C 		.ascii	"\234\274\343\014]\333\344i\347\242\310%\270\012'\357"
 926      5DDBE469 
 926      E7A2C825 
 926      B80A27EF 
 927 17ef 420B3F0F 		.ascii	"B\013?\017+k\316gq0\222\305mXY\243\273D\253\212Z\326"
 927      2B6BCE67 
 927      713092C5 
 927      6D5859A3 
 927      BB44AB8A 
 928 1805 C38B7451 		.ascii	"\303\213tQZ/?<U\255uy\203N3\015\025\275\033lg\004I\357"
 928      5A2F3F3C 
 928      55AD7579 
 928      834E330D 
 928      15BD1B6C 
 929 181d 0F4A68DE 		.ascii	"\017Jh\336\352\2402_8\357&g\312\036\000Ng\233\\O\245"
 929      EAA0325F 
 929      38EF2667 
 929      CA1E004E 
 929      679B5C4F 
 930 1832 A88B14D8 		.ascii	"\250\213\024\330\345\264\272\315`\267\223\275\315\300"
 930      E5B4BACD 
 930      60B793BD 
 930      CDC0
 931 1840 495853EF 		.ascii	"IXS\357\010\320\240W\017\252\322\251\2673\345\254A\251"
 931      08D0A057 
 931      0FAAD2A9 
 931      B733E5AC 
 931      41A9
 932 1852 3D9152E4 		.ascii	"=\221R\344\335\337\304\367#\2576\037\222_Y\012\334\315"
 932      DDDFC4F7 
 932      23AF361F 
 932      925F590A 
 932      DCCD
 933 1864 CECC49CA 		.ascii	"\316\314I\312I\345\245$P\303k\316U\316v\274\224D\205"
 933      49E5A524 
 933      50C36BCE 
ARM GAS  /tmp/ccz32YbK.s 			page 74


 933      55CE76BC 
 933      944485
 934 1877 541F50BC 		.ascii	"T\037P\2746\\Q\342\3541\330h\363\245\256\022\316\030"
 934      365C51E2 
 934      EC31D868 
 934      F3A5AE12 
 934      CE18
 935 1889 6C9C3D10 		.ascii	"l\234=\020\245\204\232\345\207oB\007$\311\035\020\375"
 935      A5849AE5 
 935      876F4207 
 935      24C91D10 
 935      FD
 936 189a 86D768D1 		.ascii	"\206\327h\321\260\232\016t\310a\250\3006\361~\366;\313"
 936      B09A0E74 
 936      C861A8C0 
 936      36F17EF6 
 936      3BCB
 937 18ac BF7651B2 		.ascii	"\277vQ\262_\305\332<\350d\257d\205\207]D\233\3335\253"
 937      5FC5DA3C 
 937      E864AF64 
 937      85875D44 
 937      9BDB35AB 
 938 18c0 7D7AA508 		.ascii	"}z\245\010\301\232\350\276 \324\034:\344\303\242N+\223"
 938      C19AE8BE 
 938      20D41C3A 
 938      E4C3A24E 
 938      2B93
 939 18d2 ECA67A01 		.ascii	"\354\246z\001\031\353\2303z\3667\373~\272\017\"\253"
 939      19EB9833 
 939      7AF637FB 
 939      7EBA0F22 
 939      AB
 940 18e3 7415AB94 		.ascii	"t\025\253\224\327Qx=B\307S\010^-\223\345\342\322\271"
 940      D751783D 
 940      42C75308 
 940      5E2D93E5 
 940      E2D2B9
 941 18f6 E1856BB4 		.ascii	"\341\205k\264<\177\026\257\016\254f\327(i\3370\177E"
 941      3C7F16AF 
 941      0EAC66D7 
 941      2869DF30 
 941      7F45
 942 1908 7BD97143 		.ascii	"{\331qC/\273d\340/\365\272^\366\275AS\373Z\267\024\032"
 942      2FBB64E0 
 942      2FF5BA5E 
 942      F6BD4153 
 942      FB5AB714 
 943 191d ADE9953A 		.ascii	"\255\351\225:\251[\352\266A]\015\272\245n\030\310\325"
 943      A95BEAB6 
 943      415D0DBA 
 943      A56E18C8 
 943      D5
 944 192e A85BAAD4 		.ascii	"\250[\252\324\200a\223n\251)\006\245\276\211\224J\346"
 944      8061936E 
 944      A92906A5 
 944      BE89944A 
 944      E6
ARM GAS  /tmp/ccz32YbK.s 			page 75


 945 193f 96C2A87C 		.ascii	"\226\302\250|\2724Q\010\033\253\\\275l!?\017\315\230"
 945      BA345108 
 945      1BAB5CBD 
 945      6C213F0F 
 945      CD98
 946 1951 35BE8C4F 		.ascii	"5\276\214O6\314rx\226\024o\014\362U\314\034\0151s\\"
 946      36CC7278 
 946      96146F0C 
 946      F255CC1C 
 946      0D31735C 
 947 1965 8B99A335 		.ascii	"\213\231\2435f\216\371sus\270\2717\344\227\366\322X"
 947      668EF973 
 947      7573B8B9 
 947      37E497F6 
 947      D258
 948 1977 FE5583F7 		.ascii	"\376U\203\367\232\370\357E\213\374\005\247\033\275\371"
 948      9AF8EF45 
 948      8BFC05A7 
 948      1BBDF9
 949 1986 BF5F67F6 		.ascii	"\277_g\366/g@\037T^>W\316\370(\213-5\260\330\367\272"
 949      2F67401F 
 949      545E3E57 
 949      CEF8288B 
 949      2D35B0D8 
 950 199c 765E6150 		.ascii	"v^aP\352\177tK-4(\365\203n\251\217\014\274\276Y\267"
 950      EA7F744B 
 950      2D3428F5 
 950      836EA98F 
 950      0CBCBE59 
 951 19b1 548541A9 		.ascii	"T\205A\251\313\272\245\246\0330\274\022)\025\376\317"
 951      CBBAA5A6 
 951      1B30BC12 
 951      2915FECF 
 952 19c1 9A56E9FE 		.ascii	"\232V\351\376\311\206]x\011\357\252\223\372\333\210"
 952      C9865D78 
 952      09EFAA93 
 952      FADB88
 953 19d0 735A8F77 		.ascii	"sZ\217w\221\377k\026\364\210c\214\335\311\207\354\360"
 953      91FF6B16 
 953      F488638C 
 953      DDC987EC 
 953      F0
 954 19e1 5B583AAD 		.ascii	"[X:\255\213T\266\203W\366\250l\307\221\017\225e\215"
 954      8B54B683 
 954      57F6A86C 
 954      C7910F95 
 954      658D
 955 19f3 66C2830A 		.ascii	"f\302\203\012\305\372\324\326\315q\020O\337&\2773\225"
 955      C5FAD4D6 
 955      CD71104F 
 955      DF26BF33 
 955      95
 956 1a04 BD682F8D 		.ascii	"\275h/\215g\366\257\211\204?\224\006UPQ\032\274\025"
 956      67F6AF89 
 956      843F9406 
 956      5550511A 
 956      BC15
ARM GAS  /tmp/ccz32YbK.s 			page 76


 957 1a16 D5EBEE6E 		.ascii	"\325\353\356nk\212\014=,\254M\321].\032k\204/\210\373"
 957      6B8A0C3D 
 957      2CAC4DD1 
 957      5D2E1A6B 
 957      842F88FB 
 958 1a2a 535D700D 		.ascii	"S]p\015\273\013\276J\017hZ\214\0074J\317]\231\320U\321"
 958      BB0BBE4A 
 958      0F685A8C 
 958      07344ACF 
 958      5D99D055 
 959 1a3f E1298CDC 		.ascii	"\341)\214\334\242\333u\023>\254\201P\013\335E\2652{"
 959      A2DB7513 
 959      3EAC8150 
 959      0BDD45B5 
 959      327B
 960 1a51 C1EDFBD4 		.ascii	"\301\355\373\324\275\240\205I\350\004W\354\355g\347"
 960      BDA08549 
 960      E80457EC 
 960      ED67E7
 961 1a60 D88A394E 		.ascii	"\330\2129N+f\274\313\334H\257\376\364\220\376\221\367"
 961      2B66BCCB 
 961      DC48AFFE 
 961      F490FE91 
 961      F7
 962 1a71 557AA508 		.ascii	"Uz\245\010\301R\027K\336\266i\332^\3776\236\353^5It"
 962      C152174B 
 962      DEB669DA 
 962      5EFF369E 
 962      EB5E3549 
 963 1a86 92315152 		.ascii	"\2221QR\354\016\032{!\323\300\254\312E\0253o@THc\300"
 963      EC0E1A7B 
 963      21D3C0AC 
 963      CA451533 
 963      6F405448 
 964 1a9c C92EA331 		.ascii	"\311.\2431\306\007\006\361e\252+\362\377%\365H\311)"
 964      C60706F1 
 964      65AA2BF2 
 964      FF25F548 
 964      C929
 965 1aae CCF7A578 		.ascii	"\314\367\245x\013\263_K\311\366\215N\361\346\344\016"
 965      0BB35F4B 
 965      C9F68D4E 
 965      F1E6E40E 
 966 1abe CF2D0CA4 		.ascii	"\317-\014\244\004\375\305\005\243R\340\304\037L\311"
 966      04FDC505 
 966      A352E0C4 
 966      1F4CC9
 967 1acd 2DF0E615 		.ascii	"-\360\346\025gC\246\234\341\001_\376\2239\\\247\341"
 967      6743A69C 
 967      E1015FFE 
 967      93395CA7 
 967      E1
 968 1ade B905A2FF 		.ascii	"\271\005\242\3775\017\\\211E9\205~\237'\350\3547xhr"
 968      350F5C89 
 968      4539857E 
 968      9F27E8EC 
 968      37786872 
ARM GAS  /tmp/ccz32YbK.s 			page 77


 969 1af2 3AD7DD12 		.ascii	":\327\335\022\234\214\226\240\202\211\013\237\367\264"
 969      9C8C96A0 
 969      82890B9F 
 969      F7B4
 970 1b00 86F45A20 		.ascii	"\206\364Z \370Z\221/\000p\035\2039~\237\230\035\360"
 970      F85A912F 
 970      00701D83 
 970      397E9F98 
 970      1DF0
 971 1b12 BC5AEC2B 		.ascii	"\274Z\354+\006\310$o\216Gs\313\232\310\001oN6\240\272"
 971      06C8246F 
 971      8E4773CB 
 971      9AC8016F 
 971      4E36A0BA 
 972 1b26 65086018 		.ascii	"e\010`\030\206s\026y\012|%A\370*\362\373F\3677\201Z"
 972      86731679 
 972      0A7C2541 
 972      F82AF2FB 
 972      46F73781 
 973 1b3b 54E80F06 		.ascii	"T\350\017\006R\3222\006\245\017*\201\234\371E\271y>"
 973      52D23206 
 973      A50F2A81 
 973      9CF945B9 
 973      793E
 974 1b4d 7F20A55F 		.ascii	"\177 \245_z:dW\370\273\202E\376\334BO\360\221\224\342"
 974      7A3A6457 
 974      F8BB8245 
 974      FEDC424F 
 974      F09194E2 
 975 1b61 803F45F4 		.ascii	"\200?E\364\347?QPX\340{\302'\016\317\015\323\012\004"
 975      E73F5150 
 975      58E07BC2 
 975      270ECF0D 
 975      D30A04
 976 1b74 B3730B82 		.ascii	"\263s\013\202\210V1|w\357\346\011\3660\310\235/\002"
 976      8856317C 
 976      77EFE609 
 976      F630C89D 
 976      2F02
 977 1b86 99025F8A 		.ascii	"\231\002_\212'\3337B,\316\013z\224\252\342=\036\245"
 977      27DB3742 
 977      2CCE0B7A 
 977      94AAE23D 
 977      1EA5
 978 1b98 3C9622B7 		.ascii	"<\226\"\267\320\345-,\010\202P\317X\226&\307\013FC\326"
 978      D0E52D2C 
 978      088250CF 
 978      589626C7 
 978      0B4643D6 
 979 1bac 44B73D80 		.ascii	"D\267=\200\352\015\226\374\241}(\236\321O#\277p\373"
 979      EA0D96FC 
 979      A17D289E 
 979      D14F23BF 
 979      70FB
 980 1bbe 7D234120 		.ascii	"}#A O\320\026H\375-\244\247!\365\204\364\214-\320\255"
 980      4FD01648 
 980      FD2DA4A7 
ARM GAS  /tmp/ccz32YbK.s 			page 78


 980      21F584F4 
 980      8C2DD0AD 
 981 1bd2 2BA45448 		.ascii	"+\244TH\335 u\207\324\003\322S\220 _7\310\327\015\362"
 981      DD207587 
 981      D403D253 
 981      90205F37 
 981      C8D70DF2 
 982 1be6 75837CDD 		.ascii	"u\203|\335!_\367T\301\337C\360?%\370\177+\370\237\026"
 982      215FF754 
 982      C1DF43F0 
 982      3F25F87F 
 982      2BF89F16 
 983 1bfa FC3D05FF 		.ascii	"\374=\005\37736\177jWH\251B\236\037\276\272;\212<\300"
 983      33367F6A 
 983      5748A942 
 983      9E1FBEBA 
 983      3B8A3CC0 
 984 1c0e D685EC39 		.ascii	"\326\205\3549\306\347\207\357\302\274l\237\337\356\315"
 984      C6E787EF 
 984      C2BC6C9F 
 984      DFEECD
 985 1c1d 11FDC8C8 		.ascii	"\021\375\310\310b\276\317\035\014\004\305 x\223\013"
 985      62BECF1D 
 985      0C04C520 
 985      78930B
 986 1c2c 29AC27B8 		.ascii	")\254'\270\201\254:8\203\354\370\231+\230_\230\355\303"
 986      81AC3A38 
 986      83ECF899 
 986      2B985F98 
 986      EDC3
 987 1c3e D723F2C4 		.ascii	"\327#\362\304\221\001W\320\357\033\021\300\232E'\216"
 987      910157D0 
 987      EF1B11C0 
 987      9A45278E 
 988 1c4e FCC04878 		.ascii	"\374\300HxH\324\015\305\025\305\373\263_\203Gn_In\020"
 988      48D40DC5 
 988      15C5FBB3 
 988      5F83476E 
 988      5F496E10 
 989 1c62 14E5738E 		.ascii	"\024\345s\216\011\026\016\177\245(\3017\332W\020\314"
 989      09160E7F 
 989      A528C137 
 989      DA5710CC 
 990 1c72 1703A320 		.ascii	"\027\003\243 \213o\014:\261\025y\212;(\236\234\227\033"
 990      8B6F0C3A 
 990      B115798A 
 990      3B289E9C 
 990      971B
 991 1c84 003B7654 		.ascii	"\000;vT\3716\272\023W\344\031#\346\006s\013F\306\027"
 991      F936BA13 
 991      57E41923 
 991      E606730B 
 991      46C617
 992 1c97 790015FB 		.ascii	"y\000\025\373\273\003\237\302\015_\221\257\000\374f"
 992      BB039FC2 
 992      0D5F91AF 
 992      00FC66
ARM GAS  /tmp/ccz32YbK.s 			page 79


 993 1ca6 A423BF18 		.ascii	"\244#\277\030ll\255\251\346\007K\220o\346\313M\010\276"
 993      6C6CADA9 
 993      E6074B90 
 993      6FE6CB4D 
 993      08BE
 994 1cb8 0BC71480 		.ascii	"\013\307\024\200\2520\0220\314\307M\001\252\207|\210"
 994      AA301230 
 994      CCC74D01 
 994      AA877C88 
 995 1cc8 483C125A 		.ascii	"H<\022Z\314\303.\0057\213\012\013\363\\\244\3719\274"
 995      CCC32E05 
 995      378B0A0B 
 995      F35CA4F9 
 995      39BC
 996 1cda 05C0DC11 		.ascii	"\005\300\334\021\360\300\267sx\000\005\221n\330y\363"
 996      F0C0B773 
 996      78000591 
 996      6ED879F3 
 997 1cea 7287A78C 		.ascii	"r\207\247\214\364z)'\356\361d\317'{\250\035\037\234"
 997      F47A2927 
 997      EEF164CF 
 997      277BA81D 
 997      1F9C
 998 1cfc 18983803 		.ascii	"\030\2308\003\271\177\003e\367\213%D\216\230G\\,3kP"
 998      B97F0365 
 998      F78B2544 
 998      8E98475C 
 998      2C336B50 
 999 1d10 F76E2903 		.ascii	"\367n)\003\007\366N\031\232\231\226\2215:5\245X\004"
 999      07F64E19 
 999      9A999691 
 999      353A35A5 
 999      5804
 1000 1d22 4FCDCB43 		.ascii	"O\315\313C\315;~(\334J/,\030\221;\022\237\366\366\347"
 1000      CD3B7E28 
 1000      DC4A2F2C 
 1000      18913B12 
 1000      9FF6F6E7 
 1001 1d36 8EF6F963 		.ascii	"\216\366\371c\252\010\241+\324\020\032\362\177\364M"
 1001      AA08A12B 
 1001      D4101AF2 
 1001      7FF44D
 1002 1d45 9C250141 		.ascii	"\234%\001Ay\206\016\0360x@V\034>\317\314za\010\256\300"
 1002      79860E1E 
 1002      30784056 
 1002      1C3ECFCC 
 1002      7A6108AE 
 1003 1d5a 93D127AD 		.ascii	"\223\321'\255\367\1778p\306\273P\221`\011)\224\210\037"
 1003      F77F3870 
 1003      C6BB5091 
 1003      60092994 
 1003      881F
 1004 1d6c 67BDE419 		.ascii	"g\275\344\031\320{`\237\016\312EZz\326\200\027\373$"
 1004      D07B609F 
 1004      0ECA455A 
 1004      7AD68017 
 1004      FB24
ARM GAS  /tmp/ccz32YbK.s 			page 80


 1005 1d7e 2997E92F 		.ascii	")\227\351/\014\0322\260OV\037\027)\206!\374Z\210\014"
 1005      0C1A32B0 
 1005      4F561F17 
 1005      298621FC 
 1005      5A880C
 1006 1d91 35448616 		.ascii	"5D\206\026\"C\005A\2129\275X\374\337\305\222\031\354"
 1006      22430541 
 1006      8A39BD58 
 1006      FCDFC592 
 1006      19EC
 1007 1da3 9C923E28 		.ascii	"\234\222>(s@&h\024\354\221\337\275\333\210\036]SKP\333"
 1007      73402668 
 1007      14EC91DF 
 1007      BDDB881E 
 1007      5D534B50 
 1008 1db8 BF0B6BD6 		.ascii	"\277\013k\326\223\005\341\245\267o\204\220\231!\364"
 1008      9305E1A5 
 1008      B76F8490 
 1008      9921F4
 1009 1dc7 CEB03D9F 		.ascii	"\316\260=\237\221aK\317H\205\324\015Rw{\277\254!\031"
 1009      91614BCF 
 1009      4885D40D 
 1009      52777BBF 
 1009      AC2119
 1010 1dda 8EE200F0 		.ascii	"\216\342\000\360ue\347\213\250\315\364\265jD|\354\333"
 1010      7565E78B 
 1010      A8CDF4B5 
 1010      6A447CEC 
 1010      DB
 1011 1deb A3A444AE 		.ascii	"\243\244D\256\337\0038\250W\352=(\315\223\011\255N\314"
 1011      DF0338A8 
 1011      57EA3D28 
 1011      CD9309AD 
 1011      4ECC
 1012 1dfd 0F5348CF 		.ascii	"\017SH\317\260\017\356\235\225a\033\222\226a\037\324"
 1012      B00FEE9D 
 1012      95611B92 
 1012      96611FD4 
 1013 1e0d 151D52D3 		.ascii	"\025\035R\3232l}\3233\234\001\234\321\236;\302\353w"
 1013      326C7DD3 
 1013      339C019C 
 1013      D19E3BC2 
 1013      EB77
 1014 1e1f E6067272 		.ascii	"\346\006rrG\240\276'oDnA\266\257\3049\332\347\015\026"
 1014      47A0BE27 
 1014      6F446E41 
 1014      B6AFC439 
 1014      DAE70D16 
 1015 1e33 FA3B85D1 		.ascii	"\372;\205\321=rnp[\270\360\227\240c\260\004\307\336"
 1015      3D726E70 
 1015      5BB8F097 
 1015      A063B004 
 1015      C7DE
 1016 1e45 D4DF7A82 		.ascii	"\324\337z\202$\214\242S\207\277dx\361\0107\262\206w"
 1016      248CA253 
 1016      87BF6478 
 1016      F10837B2 
ARM GAS  /tmp/ccz32YbK.s 			page 81


 1016      8677
 1017 1e57 3834F360 		.ascii	"84\363`\0114\271T\217w\270|\326\015\316\334~t\206n\341"
 1017      0934B954 
 1017      8F77B87C 
 1017      D60DCEDC 
 1017      7E74866E 
 1018 1e6c 5C389BBF 		.ascii	"\\8\233\277\004\305\032\270\207\275\007\207\017\270"
 1018      04C51AB8 
 1018      87BD0787 
 1018      0FB8
 1019 1e7a 8BCE7DE8 		.ascii	"\213\316}\3509*\342G\217\035\201\"\237/\333\346\365"
 1019      392AE247 
 1019      8F1D8122 
 1019      9F2FDBE6 
 1019      F5
 1020 1e8b A742EA06 		.ascii	"\247B\352\006\251\273sd\021\212\344w\301\327\300B\257"
 1020      A9BB7364 
 1020      118AE477 
 1020      C1D7C042 
 1020      AF
 1021 1e9c 18CC2D2C 		.ascii	"\030\314-,\360\004;\250\256@!\366`.D\260<\270\014\202"
 1021      F0043BA8 
 1021      AE4021F6 
 1021      602E44B0 
 1021      3CB80C82 
 1022 1eb0 A3C6E515 		.ascii	"\243\306\345\025\026\214\304gn1O\276\345\016\210\301"
 1022      168CC467 
 1022      6E314FBE 
 1022      E50E88C1 
 1023 1ec0 F4C26268 		.ascii	"\364\302bh\217\010\315\313\305e\213Aq\020j\332\011p"
 1023      8F08CDCB 
 1023      C5658B41 
 1023      71106ADA 
 1023      0970
 1024 1ed2 23C3E7F5 		.ascii	"#\303\347\365\241\326\340\202\363\241@\311\011\022\216"
 1024      A1D6E082 
 1024      F3A140C9 
 1024      09128E
 1025 1ee1 F0F913E4 		.ascii	"\360\371\023\344/\\.Q\364\006!\313\363\370\216;\217"
 1025      2F5C2E51 
 1025      F40621CB 
 1025      F3F88E3B 
 1025      8F
 1026 1ef2 548D0A67 		.ascii	"T\215\012g!}\364)\310v a\212\234\370N\272\033\241\226"
 1026      217DF429 
 1026      C8762061 
 1026      8A9CF84E 
 1026      BA1BA196 
 1027 1f06 C05D72E2 		.ascii	"\300]r\342\367\363\276Do\316\363\231\276\374\314\334"
 1027      F7F3BE44 
 1027      6FCEF399 
 1027      BEFCCCDC 
 1028 1f16 9105629E 		.ascii	"\221\005b\236mx\240(\011?K\007\275<Y\204\232V\327\270"
 1028      6D78A028 
 1028      093F4B07 
 1028      BD3C5984 
 1028      9A56D7B8 
ARM GAS  /tmp/ccz32YbK.s 			page 82


 1029 1f2a F00DDEDB 		.ascii	"\360\015\336\333!\000\321\321W\340\365!CCX\3557$\323"
 1029      2100D1D1 
 1029      57E0F521 
 1029      434358ED 
 1029      3724D3
 1030 1f3d 93367090 		.ascii	"\2236p\220\273\357\200\227<\275\323\262\322\\\375\372"
 1030      BBEF8097 
 1030      3CBDD3B2 
 1030      D25CFDFA 
 1031 1f4d BCE019F2 		.ascii	"\274\340\031\362B\246\013\234\336\223\231\226\345\206"
 1031      42A60B9C 
 1031      DE939996 
 1031      E586
 1032 1f5b E4797140 		.ascii	"\344yq@\237?\271\372C\273\0330\270_\034\344\352\343"
 1032      9F3FB9FA 
 1032      43BB1B30 
 1032      B85F1CE4 
 1032      EAE3
 1033 1f6d C91A30A8 		.ascii	"\311\0320\250\217\343\205\254\376}2\034C\007\367\356"
 1033      8FE385AC 
 1033      FE7D321C 
 1033      4307F7EE 
 1034 1f7d D3F77EA8 		.ascii	"\323\367~\250b\210\350\017\370\006\017\352\223\206\240"
 1034      6288E80F 
 1034      F8060FEA 
 1034      9386A0
 1035 1f8c E5AA535D 		.ascii	"\345\252S]\005\371>\0214\351\224C\276\033Got\002\371"
 1035      05F93E11 
 1035      34E99443 
 1035      BE1B476F 
 1035      7402F9
 1036 1f9f 33       		.ascii	"3"
 1037 1fa0 8390E52E 		.ascii	"\203\220\345.\225\236\200\016\276]Xd\203\357$\0322A"
 1037      959E800E 
 1037      BE5D5864 
 1037      83EF241A 
 1037      3241
 1038 1fb2 B9D137B7 		.ascii	"\271\3217\267$\036\341\366\353\227\006\3206\320ZGx\204"
 1038      241EE1F6 
 1038      EB9706D0 
 1038      36D05A47 
 1038      7884
 1039 1fc4 B2A5E7F8 		.ascii	"\262\245\347\370\274\243\002\305\371H\342,\034\336m"
 1039      BCA302C5 
 1039      F948E22C 
 1039      1CDE6D
 1040 1fd3 A27F24B2 		.ascii	"\242\177$\262j?_p \261\243=\333\027\010v$\367\024\223"
 1040      6A3F5F70 
 1040      20B1A33D 
 1040      DB170876 
 1040      24F71493 
 1041 1fe7 923C69C4 		.ascii	"\222<i\304\260\361\362e\026\330?I>\315\204\226\236\227"
 1041      B0F1F265 
 1041      16D83F49 
 1041      3ECD8496 
 1041      9E97
 1042 1ff9 971BF405 		.ascii	"\227\033\364\005\0248b"
ARM GAS  /tmp/ccz32YbK.s 			page 83


 1042      143862
 1043 2000 2C182665 		.ascii	",\030&ezs2|0\336\361e\027\347\3712\301 a{\0140\036\214"
 1043      7A73327C 
 1043      30DEF165 
 1043      17E7F932 
 1043      C120617B 
 1044 2018 F8A15341 		.ascii	"\370\241SA\275\003<+(\316\203H\037\364\027x\363\213"
 1044      BD033C2B 
 1044      28CE8348 
 1044      1FF41778 
 1044      F38B
 1045 202a E01A3AA7 		.ascii	"\340\032:\247\3021\366<\2378\302^T\354\367a\227\306"
 1045      C231F63C 
 1045      9F38C25E 
 1045      54ECF761 
 1045      97C6
 1046 203c 0A839E6B 		.ascii	"\012\203\236kP\260\344\205\341\257@K\033P\220\033t\313"
 1046      50B0E485 
 1046      E1AF404B 
 1046      1B50901B 
 1046      74CB
 1047 204e 4F0A8B5C 		.ascii	"O\012\213\\\305P\032\201\025\203R\322\213^\353\200\276"
 1047      C5501A81 
 1047      158352D2 
 1047      8B5EEB80 
 1047      BE
 1048 205f D38A50D7 		.ascii	"\323\212P\327\205L\377\264\245^\213\364\215\000\027"
 1048      854CFFB4 
 1048      A55E8BF4 
 1048      8D0017
 1049 206e 874688A0 		.ascii	"\207F\210\240\006h\255\336\234\254\234\354\314<\237"
 1049      0668ADDE 
 1049      9CAC9CEC 
 1049      CC3C9F
 1050 207d AF280193 		.ascii	"\257(\001\223\030Z\000\252\037\025\207\317A\033\243"
 1050      185A00AA 
 1050      1F1587CF 
 1050      411BA3
 1051 208c 3A2A5488 		.ascii	":*T\210A\343\261\"@3>4\370\203\323?A\027\333\021\237"
 1051      41E3B122 
 1051      40333E34 
 1051      F883D33F 
 1051      4117DB11 
 1052 20a1 45F8BB46 		.ascii	"E\370\273F\024$C\343\364\362\251(\262x\213^C\256\016"
 1052      142443E3 
 1052      F4F2A928 
 1052      B2788B5E 
 1052      43AE0E
 1053 20b4 3920A8F8 		.ascii	"9 \250\370\373\025\005\322G\214\264\201\217:\203\205"
 1053      FB1505D2 
 1053      478CB481 
 1053      8F3A8385 
 1054 20c4 A3A091DC 		.ascii	"\243\240\221\334\245\366\365\001\310\020i\331\331Y\205"
 1054      A5F6F501 
 1054      C81069D9 
 1054      D95985
 1055 20d3 72F3B997 		.ascii	"r\363\271\227\230\020\267\250\214\022\371&\262sV\341"
ARM GAS  /tmp/ccz32YbK.s 			page 84


 1055      9810B7A8 
 1055      8C12F926 
 1055      B27356E1 
 1056 20e3 C89179A4 		.ascii	"\310\221y\244\2159<\317C\227\032\027@R \353\272@\374"
 1056      8D393CCF 
 1056      43971A17 
 1056      405220EB 
 1056      BA40FC
 1057 20f6 02B04292 		.ascii	"\002\260B\222\214\034\341\345\010\212\243|\005\361\362"
 1057      8C1CE1E5 
 1057      088AA37C 
 1057      05F1F2
 1058 2105 6D443C41 		.ascii	"mD<A>\305\342\374/\322\006\027K"
 1058      3EC5E2FC 
 1058      2FD20617 
 1058      4B
 1059              		.text
 1060              		.section	.gnu.lto_.symtab.c939903555f4bfc5,"",%progbits
 1061 0000 67707353 		.ascii	"gpsSem\000\000\000\000\000\000\000\000\000\000\000\000"
 1061      656D0000 
 1061      00000000 
 1061      00000000 
 1061      0000
 1062 0012 35030000 		.ascii	"5\003\000\000gpsStart\000\000\000\000\000\000\000\000"
 1062      67707353 
 1062      74617274 
 1062      00000000 
 1062      00000000 
 1063 0026 00000000 		.ascii	"\000\000\000\000\224\002\000\000gpsStop\000\000\000"
 1063      94020000 
 1063      67707353 
 1063      746F7000 
 1063      0000
 1064 0038 00000000 		.ascii	"\000\000\000\000\000\000\000\000\000\240\002\000\000"
 1064      00000000 
 1064      00A00200 
 1064      00
 1065 0045 67707350 		.ascii	"gpsParseNMEAType\000\000\000\000\000\000\000\000\000"
 1065      61727365 
 1065      4E4D4541 
 1065      54797065 
 1065      00000000 
 1066 005e 000000AB 		.ascii	"\000\000\000\253\002\000\000gpsParseFix\000\000\000"
 1066      02000067 
 1066      70735061 
 1066      72736546 
 1066      69780000 
 1067 0073 00000000 		.ascii	"\000\000\000\000\000\000\000\000\000\261\002\000\000"
 1067      00000000 
 1067      00B10200 
 1067      00
 1068 0080 6770734E 		.ascii	"gpsNMEAChecksum\000\000\000\000\000\000\000\000\000"
 1068      4D454143 
 1068      6865636B 
 1068      73756D00 
 1068      00000000 
 1069 0098 000000BB 		.ascii	"\000\000\000\273\002\000\000gpsThread\000\000\000\000"
ARM GAS  /tmp/ccz32YbK.s 			page 85


 1069      02000067 
 1069      70735468 
 1069      72656164 
 1069      00000000 
 1070 00ac 00000000 		.ascii	"\000\000\000\000\000\000\000\000\301\002\000\000gps"
 1070      00000000 
 1070      C1020000 
 1070      677073
 1071 00bb 4765744C 		.ascii	"GetLatitude\000\000\000\000\000\000\000\000\000\000"
 1071      61746974 
 1071      75646500 
 1071      00000000 
 1071      00000000 
 1072 00d0 0000C802 		.ascii	"\000\000\310\002\000\000gpsGetLongitude\000\000\000"
 1072      00006770 
 1072      73476574 
 1072      4C6F6E67 
 1072      69747564 
 1073 00e8 00000000 		.ascii	"\000\000\000\000\000\000\000\000\000\317\002\000\000"
 1073      00000000 
 1073      00CF0200 
 1073      00
 1074 00f5 67707347 		.ascii	"gpsGetAltitude\000\000\000\000\000\000\000\000\000\000"
 1074      6574416C 
 1074      74697475 
 1074      64650000 
 1074      00000000 
 1075 010d 0000D302 		.ascii	"\000\000\323\002\000\000gpsGetTime\000\000\000\000\000"
 1075      00006770 
 1075      73476574 
 1075      54696D65 
 1075      00000000 
 1076 0122 00000000 		.ascii	"\000\000\000\000\000\000\000\327\002\000\000gpsGetS"
 1076      000000D7 
 1076      02000067 
 1076      70734765 
 1076      7453
 1077 0134 6174656C 		.ascii	"atellites\000\000\000\000\000\000\000\000\000\000\000"
 1077      6C697465 
 1077      73000000 
 1077      00000000 
 1077      00000000 
 1078 0148 00DB0200 		.ascii	"\000\333\002\000\000gpsGetLocation\000\000\000\000\000"
 1078      00677073 
 1078      4765744C 
 1078      6F636174 
 1078      696F6E00 
 1079 0160 00000000 		.ascii	"\000\000\000\000\000\000\000\337\002\000\000chSchRe"
 1079      000000DF 
 1079      02000063 
 1079      68536368 
 1079      5265
 1080 0172 73636865 		.ascii	"scheduleS\000\000\002\000\000\000\000\000\000\000\000"
 1080      64756C65 
 1080      53000002 
 1080      00000000 
 1080      00000000 
ARM GAS  /tmp/ccz32YbK.s 			page 86


 1081 0186 00E50200 		.ascii	"\000\345\002\000\000chSemSignalI\000\000\002\000\000"
 1081      00636853 
 1081      656D5369 
 1081      676E616C 
 1081      49000002 
 1082 019c 00000000 		.ascii	"\000\000\000\000\000\000\000\350\002\000\000uartSta"
 1082      000000E8 
 1082      02000075 
 1082      61727453 
 1082      7461
 1083 01ae 72740000 		.ascii	"rt\000\000\002\000\000\000\000\000\000\000\000\000\372"
 1083      02000000 
 1083      00000000 
 1083      0000FA
 1084 01bd 02000063 		.ascii	"\002\000\000chMtxObjectInit\000\000\002\000\000\000"
 1084      684D7478 
 1084      4F626A65 
 1084      6374496E 
 1084      69740000 
 1085 01d5 00000000 		.ascii	"\000\000\000\000\000\000\377\002\000\000uartStop\000"
 1085      0000FF02 
 1085      00007561 
 1085      72745374 
 1085      6F7000
 1086 01e8 00020000 		.ascii	"\000\002\000\000\000\000\000\000\000\000\000\003\003"
 1086      00000000 
 1086      00000003 
 1086      03
 1087 01f5 00007553 		.ascii	"\000\000uStrCpy\000\000\002\000\000\000\000\000\000"
 1087      74724370 
 1087      79000002 
 1087      00000000 
 1087      0000
 1088 0207 00000005 		.ascii	"\000\000\000\005\003\000\000uStrAppendChar\000\000\002"
 1088      03000075 
 1088      53747241 
 1088      7070656E 
 1088      64436861 
 1089 021f 00000000 		.ascii	"\000\000\000\000\000\000\000\000\000\012\003\000\000"
 1089      00000000 
 1089      000A0300 
 1089      00
 1090 022c 63685468 		.ascii	"chThdSleep\000\000\002\000\000\000\000\000\000\000\000"
 1090      64536C65 
 1090      65700000 
 1090      02000000 
 1090      00000000 
 1091 0241 000F0300 		.ascii	"\000\017\003\000\000chMtxUnlock\000\000\002\000\000"
 1091      0063684D 
 1091      7478556E 
 1091      6C6F636B 
 1091      00000200 
 1092 0256 00000000 		.ascii	"\000\000\000\000\000\000\000\026\003\000\000chMtxLo"
 1092      00000016 
 1092      03000063 
 1092      684D7478 
 1092      4C6F
ARM GAS  /tmp/ccz32YbK.s 			page 87


 1093 0268 636B0000 		.ascii	"ck\000\000\002\000\000\000\000\000\000\000\000\000\030"
 1093      02000000 
 1093      00000000 
 1093      000018
 1094 0277 03000075 		.ascii	"\003\000\000uartStopReceive\000\000\002\000\000\000"
 1094      61727453 
 1094      746F7052 
 1094      65636569 
 1094      76650000 
 1095 028f 00000000 		.ascii	"\000\000\000\000\000\000\032\003\000\000chSemReset\000"
 1095      00001A03 
 1095      00006368 
 1095      53656D52 
 1095      65736574 
 1096 02a4 00020000 		.ascii	"\000\002\000\000\000\000\000\000\000\000\000\036\003"
 1096      00000000 
 1096      0000001E 
 1096      03
 1097 02b1 00006368 		.ascii	"\000\000chSemWait\000\000\002\000\000\000\000\000\000"
 1097      53656D57 
 1097      61697400 
 1097      00020000 
 1097      00000000 
 1098 02c5 00000023 		.ascii	"\000\000\000#\003\000\000chSemObjectInit\000\000\002"
 1098      03000063 
 1098      6853656D 
 1098      4F626A65 
 1098      6374496E 
 1099 02de 00000000 		.ascii	"\000\000\000\000\000\000\000\000\000'\003\000\000"
 1099      00000000 
 1099      00270300 
 1099      00
 1100              		.text
 1101              		.section	.gnu.lto_.opts,"",%progbits
 1102 0000 272D6D63 		.ascii	"'-mcpu=cortex-m4' '-mfloat-abi=hard' '-mfpu=fpv4-sp"
 1102      70753D63 
 1102      6F727465 
 1102      782D6D34 
 1102      2720272D 
 1103 0033 2D643136 		.ascii	"-d16' '-mno-thumb-interwork' '-mthumb' '-O2' '-fomi"
 1103      2720272D 
 1103      6D6E6F2D 
 1103      7468756D 
 1103      622D696E 
 1104 0066 742D6672 		.ascii	"t-frame-pointer' '-falign-functions=16' '-ffunction"
 1104      616D652D 
 1104      706F696E 
 1104      74657227 
 1104      20272D66 
 1105 0099 2D736563 		.ascii	"-sections' '-fdata-sections' '-fno-common' '-flto' "
 1105      74696F6E 
 1105      73272027 
 1105      2D666461 
 1105      74612D73 
 1106 00cc 272D6673 		.ascii	"'-fsingle-precision-constant'\000"
 1106      696E676C 
 1106      652D7072 
ARM GAS  /tmp/ccz32YbK.s 			page 88


 1106      65636973 
 1106      696F6E2D 
 1107              		.text
 1108              		.section	.text.gpsTxbufEnd,"ax",%progbits
 1109              		.align	2
 1110              		.p2align 4,,15
 1111              		.thumb
 1112              		.thumb_func
 1113              		.type	gpsTxbufEnd, %function
 1114              	gpsTxbufEnd:
 1115              		@ args = 0, pretend = 0, frame = 0
 1116              		@ frame_needed = 0, uses_anonymous_args = 0
 1117              		@ link register save eliminated.
 1118 0000 7047     		bx	lr
 1119              		.size	gpsTxbufEnd, .-gpsTxbufEnd
 1120 0002 00BFAFF3 		.section	.text.gpsTxC,"ax",%progbits
 1120      0080AFF3 
 1120      0080AFF3 
 1120      0080
 1121              		.align	2
 1122              		.p2align 4,,15
 1123              		.thumb
 1124              		.thumb_func
 1125              		.type	gpsTxC, %function
 1126              	gpsTxC:
 1127              		@ args = 0, pretend = 0, frame = 0
 1128              		@ frame_needed = 0, uses_anonymous_args = 0
 1129              		@ link register save eliminated.
 1130 0000 7047     		bx	lr
 1131              		.size	gpsTxC, .-gpsTxC
 1132 0002 00BFAFF3 		.section	.text.gpsRxEnd,"ax",%progbits
 1132      0080AFF3 
 1132      0080AFF3 
 1132      0080
 1133              		.align	2
 1134              		.p2align 4,,15
 1135              		.thumb
 1136              		.thumb_func
 1137              		.type	gpsRxEnd, %function
 1138              	gpsRxEnd:
 1139              		@ args = 0, pretend = 0, frame = 0
 1140              		@ frame_needed = 0, uses_anonymous_args = 0
 1141              		@ link register save eliminated.
 1142 0000 7047     		bx	lr
 1143              		.size	gpsRxEnd, .-gpsRxEnd
 1144 0002 00BFAFF3 		.section	.text.gpsRxErr,"ax",%progbits
 1144      0080AFF3 
 1144      0080AFF3 
 1144      0080
 1145              		.align	2
 1146              		.p2align 4,,15
 1147              		.thumb
 1148              		.thumb_func
 1149              		.type	gpsRxErr, %function
 1150              	gpsRxErr:
 1151              		@ args = 0, pretend = 0, frame = 0
 1152              		@ frame_needed = 0, uses_anonymous_args = 0
ARM GAS  /tmp/ccz32YbK.s 			page 89


 1153              		@ link register save eliminated.
 1154 0000 7047     		bx	lr
 1155              		.size	gpsRxErr, .-gpsRxErr
 1156 0002 00BFAFF3 		.section	.text.gpsRxChar,"ax",%progbits
 1156      0080AFF3 
 1156      0080AFF3 
 1156      0080
 1157              		.align	2
 1158              		.p2align 4,,15
 1159              		.thumb
 1160              		.thumb_func
 1161              		.type	gpsRxChar, %function
 1162              	gpsRxChar:
 1163              		@ args = 0, pretend = 0, frame = 0
 1164              		@ frame_needed = 0, uses_anonymous_args = 0
 1165 0000 10B5     		push	{r4, lr}
 1166 0002 1C4B     		ldr	r3, .L13
 1167 0004 0A29     		cmp	r1, #10
 1168 0006 93F8CC20 		ldrb	r2, [r3, #204]	@ zero_extendqisi2
 1169 000a 0CD0     		beq	.L11
 1170 000c 632A     		cmp	r2, #99
 1171 000e 09D8     		bhi	.L5
 1172 0010 93F8CD00 		ldrb	r0, [r3, #205]	@ zero_extendqisi2
 1173 0014 6424     		movs	r4, #100
 1174 0016 04FB0030 		mla	r0, r4, r0, r3
 1175 001a 0430     		adds	r0, r0, #4
 1176 001c 541C     		adds	r4, r2, #1
 1177 001e 83F8CC40 		strb	r4, [r3, #204]
 1178 0022 8154     		strb	r1, [r0, r2]
 1179              	.L5:
 1180 0024 10BD     		pop	{r4, pc}
 1181              	.L11:
 1182 0026 632A     		cmp	r2, #99
 1183 0028 07D8     		bhi	.L7
 1184 002a 93F8CD10 		ldrb	r1, [r3, #205]	@ zero_extendqisi2
 1185 002e 6420     		movs	r0, #100
 1186 0030 00FB0131 		mla	r1, r0, r1, r3
 1187 0034 0431     		adds	r1, r1, #4
 1188 0036 0020     		movs	r0, #0
 1189 0038 8854     		strb	r0, [r1, r2]
 1190              	.L7:
 1191 003a 93F8CD10 		ldrb	r1, [r3, #205]	@ zero_extendqisi2
 1192 003e 0022     		movs	r2, #0
 1193 0040 81F00101 		eor	r1, r1, #1
 1194 0044 83F8CD10 		strb	r1, [r3, #205]
 1195 0048 83F8CC20 		strb	r2, [r3, #204]
 1196 004c 2023     		movs	r3, #32
 1197              	@ 546 "/home/cody/dev/chibios/trunk/os/ext/CMSIS/include/core_cmFunc.h" 1
 1198 004e 83F31188 		MSR basepri, r3
 1199              	@ 0 "" 2
 1200              	@ 546 "/home/cody/dev/chibios/trunk/os/ext/CMSIS/include/core_cmFunc.h" 1
 1201 0052 83F31188 		MSR basepri, r3
 1202              	@ 0 "" 2
 1203              		.thumb
 1204 0056 0848     		ldr	r0, .L13+4
 1205 0058 8368     		ldr	r3, [r0, #8]
 1206 005a 9342     		cmp	r3, r2
ARM GAS  /tmp/ccz32YbK.s 			page 90


 1207 005c 07DD     		ble	.L12
 1208              	.L8:
 1209 005e FFF7FEFF 		bl	chSchRescheduleS
 1210 0062 0023     		movs	r3, #0
 1211              	@ 546 "/home/cody/dev/chibios/trunk/os/ext/CMSIS/include/core_cmFunc.h" 1
 1212 0064 83F31188 		MSR basepri, r3
 1213              	@ 0 "" 2
 1214              	@ 546 "/home/cody/dev/chibios/trunk/os/ext/CMSIS/include/core_cmFunc.h" 1
 1215 0068 83F31188 		MSR basepri, r3
 1216              	@ 0 "" 2
 1217              		.thumb
 1218 006c 10BD     		pop	{r4, pc}
 1219              	.L12:
 1220 006e FFF7FEFF 		bl	chSemSignalI
 1221 0072 F4E7     		b	.L8
 1222              	.L14:
 1223              		.align	2
 1224              	.L13:
 1225 0074 00000000 		.word	.LANCHOR0
 1226 0078 00000000 		.word	.LANCHOR1
 1227              		.size	gpsRxChar, .-gpsRxChar
 1228 007c AFF30080 		.section	.text.gpsStart,"ax",%progbits
 1229              		.align	2
 1230              		.p2align 4,,15
 1231              		.global	gpsStart
 1232              		.thumb
 1233              		.thumb_func
 1234              		.type	gpsStart, %function
 1235              	gpsStart:
 1236              		@ args = 0, pretend = 0, frame = 0
 1237              		@ frame_needed = 0, uses_anonymous_args = 0
 1238 0000 38B5     		push	{r3, r4, r5, lr}
 1239 0002 0346     		mov	r3, r0
 1240 0004 78B1     		cbz	r0, .L17
 1241 0006 094C     		ldr	r4, .L18
 1242 0008 0025     		movs	r5, #0
 1243 000a 04F58C70 		add	r0, r4, #280
 1244 000e 2360     		str	r3, [r4]
 1245 0010 84F8CD50 		strb	r5, [r4, #205]
 1246 0014 FFF7FEFF 		bl	chMtxObjectInit
 1247 0018 2068     		ldr	r0, [r4]
 1248 001a 0549     		ldr	r1, .L18+4
 1249 001c FFF7FEFF 		bl	uartStart
 1250 0020 2846     		mov	r0, r5
 1251              	.L16:
 1252 0022 40B2     		sxtb	r0, r0
 1253 0024 38BD     		pop	{r3, r4, r5, pc}
 1254              	.L17:
 1255 0026 FF20     		movs	r0, #255
 1256 0028 FBE7     		b	.L16
 1257              	.L19:
 1258 002a 00BF     		.align	2
 1259              	.L18:
 1260 002c 00000000 		.word	.LANCHOR0
 1261 0030 00000000 		.word	.LANCHOR2
 1262              		.size	gpsStart, .-gpsStart
 1263 0034 AFF30080 		.section	.text.gpsStop,"ax",%progbits
ARM GAS  /tmp/ccz32YbK.s 			page 91


 1263      AFF30080 
 1263      AFF30080 
 1264              		.align	2
 1265              		.p2align 4,,15
 1266              		.global	gpsStop
 1267              		.thumb
 1268              		.thumb_func
 1269              		.type	gpsStop, %function
 1270              	gpsStop:
 1271              		@ args = 0, pretend = 0, frame = 0
 1272              		@ frame_needed = 0, uses_anonymous_args = 0
 1273 0000 08B5     		push	{r3, lr}
 1274 0002 0068     		ldr	r0, [r0]
 1275 0004 FFF7FEFF 		bl	uartStop
 1276 0008 0020     		movs	r0, #0
 1277 000a 08BD     		pop	{r3, pc}
 1278              		.size	gpsStop, .-gpsStop
 1279 000c AFF30080 		.section	.text.gpsParseNMEAType,"ax",%progbits
 1280              		.align	2
 1281              		.p2align 4,,15
 1282              		.global	gpsParseNMEAType
 1283              		.thumb
 1284              		.thumb_func
 1285              		.type	gpsParseNMEAType, %function
 1286              	gpsParseNMEAType:
 1287              		@ args = 0, pretend = 0, frame = 0
 1288              		@ frame_needed = 0, uses_anonymous_args = 0
 1289 0000 10B5     		push	{r4, lr}
 1290 0002 0378     		ldrb	r3, [r0]	@ zero_extendqisi2
 1291 0004 242B     		cmp	r3, #36
 1292 0006 0446     		mov	r4, r0
 1293 0008 01D0     		beq	.L33
 1294 000a 0820     		movs	r0, #8
 1295 000c 10BD     		pop	{r4, pc}
 1296              	.L33:
 1297 000e 0130     		adds	r0, r0, #1
 1298 0010 2049     		ldr	r1, .L39
 1299 0012 0222     		movs	r2, #2
 1300 0014 FFF7FEFF 		bl	strncmp
 1301 0018 08B1     		cbz	r0, .L34
 1302 001a 0720     		movs	r0, #7
 1303              	.L22:
 1304 001c 10BD     		pop	{r4, pc}
 1305              	.L34:
 1306 001e 0334     		adds	r4, r4, #3
 1307 0020 2046     		mov	r0, r4
 1308 0022 1D49     		ldr	r1, .L39+4
 1309 0024 0322     		movs	r2, #3
 1310 0026 FFF7FEFF 		bl	strncmp
 1311 002a 0028     		cmp	r0, #0
 1312 002c F6D0     		beq	.L22
 1313 002e 2046     		mov	r0, r4
 1314 0030 1A49     		ldr	r1, .L39+8
 1315 0032 0322     		movs	r2, #3
 1316 0034 FFF7FEFF 		bl	strncmp
 1317 0038 38B1     		cbz	r0, .L27
 1318 003a 2046     		mov	r0, r4
ARM GAS  /tmp/ccz32YbK.s 			page 92


 1319 003c 1849     		ldr	r1, .L39+12
 1320 003e 0322     		movs	r2, #3
 1321 0040 FFF7FEFF 		bl	strncmp
 1322 0044 18B9     		cbnz	r0, .L35
 1323 0046 0220     		movs	r0, #2
 1324 0048 10BD     		pop	{r4, pc}
 1325              	.L27:
 1326 004a 0120     		movs	r0, #1
 1327 004c 10BD     		pop	{r4, pc}
 1328              	.L35:
 1329 004e 2046     		mov	r0, r4
 1330 0050 1449     		ldr	r1, .L39+16
 1331 0052 0322     		movs	r2, #3
 1332 0054 FFF7FEFF 		bl	strncmp
 1333 0058 08B9     		cbnz	r0, .L36
 1334 005a 0320     		movs	r0, #3
 1335 005c 10BD     		pop	{r4, pc}
 1336              	.L36:
 1337 005e 2046     		mov	r0, r4
 1338 0060 1149     		ldr	r1, .L39+20
 1339 0062 0322     		movs	r2, #3
 1340 0064 FFF7FEFF 		bl	strncmp
 1341 0068 08B9     		cbnz	r0, .L37
 1342 006a 0420     		movs	r0, #4
 1343 006c 10BD     		pop	{r4, pc}
 1344              	.L37:
 1345 006e 2046     		mov	r0, r4
 1346 0070 0E49     		ldr	r1, .L39+24
 1347 0072 0322     		movs	r2, #3
 1348 0074 FFF7FEFF 		bl	strncmp
 1349 0078 08B9     		cbnz	r0, .L38
 1350 007a 0520     		movs	r0, #5
 1351 007c 10BD     		pop	{r4, pc}
 1352              	.L38:
 1353 007e 2046     		mov	r0, r4
 1354 0080 0B49     		ldr	r1, .L39+28
 1355 0082 0322     		movs	r2, #3
 1356 0084 FFF7FEFF 		bl	strncmp
 1357 0088 0028     		cmp	r0, #0
 1358 008a 14BF     		ite	ne
 1359 008c 0720     		movne	r0, #7
 1360 008e 0620     		moveq	r0, #6
 1361 0090 10BD     		pop	{r4, pc}
 1362              	.L40:
 1363 0092 00BF     		.align	2
 1364              	.L39:
 1365 0094 00000000 		.word	.LC0
 1366 0098 04000000 		.word	.LC1
 1367 009c 08000000 		.word	.LC2
 1368 00a0 0C000000 		.word	.LC3
 1369 00a4 10000000 		.word	.LC4
 1370 00a8 14000000 		.word	.LC5
 1371 00ac 18000000 		.word	.LC6
 1372 00b0 1C000000 		.word	.LC7
 1373              		.size	gpsParseNMEAType, .-gpsParseNMEAType
 1374 00b4 AFF30080 		.section	.text.gpsParseFix,"ax",%progbits
 1374      AFF30080 
ARM GAS  /tmp/ccz32YbK.s 			page 93


 1374      AFF30080 
 1375              		.align	2
 1376              		.p2align 4,,15
 1377              		.global	gpsParseFix
 1378              		.thumb
 1379              		.thumb_func
 1380              		.type	gpsParseFix, %function
 1381              	gpsParseFix:
 1382              		@ args = 0, pretend = 0, frame = 0
 1383              		@ frame_needed = 0, uses_anonymous_args = 0
 1384 0000 2DE9F84F 		push	{r3, r4, r5, r6, r7, r8, r9, r10, fp, lr}
 1385 0004 0322     		movs	r2, #3
 1386 0006 0446     		mov	r4, r0
 1387 0008 8A46     		mov	r10, r1
 1388 000a 0330     		adds	r0, r0, #3
 1389 000c 4649     		ldr	r1, .L66
 1390 000e FFF7FEFF 		bl	strncmp
 1391 0012 0028     		cmp	r0, #0
 1392 0014 40F08580 		bne	.L61
 1393 0018 0734     		adds	r4, r4, #7
 1394 001a 2378     		ldrb	r3, [r4]	@ zero_extendqisi2
 1395 001c 434F     		ldr	r7, .L66+4
 1396 001e 4FF0020B 		mov	fp, #2
 1397 0022 0BF1FF31 		add	r1, fp, #-1
 1398 0026 2C2B     		cmp	r3, #44
 1399 0028 8046     		mov	r8, r0
 1400 002a B946     		mov	r9, r7
 1401 002c C9B2     		uxtb	r1, r1
 1402 002e 2DD0     		beq	.L63
 1403              	.L65:
 1404 0030 002B     		cmp	r3, #0
 1405 0032 74D0     		beq	.L64
 1406 0034 661C     		adds	r6, r4, #1
 1407 0036 0022     		movs	r2, #0
 1408              	.L59:
 1409 0038 BB54     		strb	r3, [r7, r2]
 1410 003a 3378     		ldrb	r3, [r6]	@ zero_extendqisi2
 1411 003c 551C     		adds	r5, r2, #1
 1412 003e 2C2B     		cmp	r3, #44
 1413 0040 3446     		mov	r4, r6
 1414 0042 2A46     		mov	r2, r5
 1415 0044 06F10106 		add	r6, r6, #1
 1416 0048 EDB2     		uxtb	r5, r5
 1417 004a 03D0     		beq	.L45
 1418 004c 13B1     		cbz	r3, .L45
 1419 004e 102A     		cmp	r2, #16
 1420 0050 F2D1     		bne	.L59
 1421 0052 1546     		mov	r5, r2
 1422              	.L45:
 1423 0054 0139     		subs	r1, r1, #1
 1424 0056 07F80580 		strb	r8, [r7, r5]
 1425 005a 0134     		adds	r4, r4, #1
 1426 005c 0829     		cmp	r1, #8
 1427 005e 50D8     		bhi	.L48
 1428 0060 DFE801F0 		tbb	[pc, r1]
 1429              	.L50:
 1430 0064 2E       		.byte	(.L49-.L50)/2
ARM GAS  /tmp/ccz32YbK.s 			page 94


 1431 0065 28       		.byte	(.L51-.L50)/2
 1432 0066 22       		.byte	(.L52-.L50)/2
 1433 0067 1C       		.byte	(.L53-.L50)/2
 1434 0068 16       		.byte	(.L54-.L50)/2
 1435 0069 4F       		.byte	(.L48-.L50)/2
 1436 006a 05       		.byte	(.L55-.L50)/2
 1437 006b 4F       		.byte	(.L48-.L50)/2
 1438 006c 54       		.byte	(.L56-.L50)/2
 1439 006d 00       		.p2align 1
 1440              	.L55:
 1441 006e 0AF13E00 		add	r0, r10, #62
 1442 0072 2E49     		ldr	r1, .L66+4
 1443 0074 FFF7FEFF 		bl	uStrCpy
 1444              	.L60:
 1445 0078 0BF1010B 		add	fp, fp, #1
 1446 007c 2378     		ldrb	r3, [r4]	@ zero_extendqisi2
 1447 007e 5FFA8BFB 		uxtb	fp, fp
 1448 0082 0BF1FF31 		add	r1, fp, #-1
 1449 0086 2C2B     		cmp	r3, #44
 1450 0088 C9B2     		uxtb	r1, r1
 1451 008a D1D1     		bne	.L65
 1452              	.L63:
 1453 008c 0025     		movs	r5, #0
 1454 008e E1E7     		b	.L45
 1455              	.L54:
 1456 0090 0AF11E00 		add	r0, r10, #30
 1457 0094 3978     		ldrb	r1, [r7]	@ zero_extendqisi2
 1458 0096 FFF7FEFF 		bl	uStrAppendChar
 1459 009a EDE7     		b	.L60
 1460              	.L53:
 1461 009c 0AF11E00 		add	r0, r10, #30
 1462 00a0 2249     		ldr	r1, .L66+4
 1463 00a2 FFF7FEFF 		bl	uStrCpy
 1464 00a6 E7E7     		b	.L60
 1465              	.L52:
 1466 00a8 0AF10A00 		add	r0, r10, #10
 1467 00ac 3978     		ldrb	r1, [r7]	@ zero_extendqisi2
 1468 00ae FFF7FEFF 		bl	uStrAppendChar
 1469 00b2 E1E7     		b	.L60
 1470              	.L51:
 1471 00b4 0AF10A00 		add	r0, r10, #10
 1472 00b8 1C49     		ldr	r1, .L66+4
 1473 00ba FFF7FEFF 		bl	uStrCpy
 1474 00be DBE7     		b	.L60
 1475              	.L49:
 1476 00c0 3B78     		ldrb	r3, [r7]	@ zero_extendqisi2
 1477 00c2 8AF80030 		strb	r3, [r10]
 1478 00c6 002B     		cmp	r3, #0
 1479 00c8 D6D0     		beq	.L60
 1480 00ca 99F80130 		ldrb	r3, [r9, #1]	@ zero_extendqisi2
 1481 00ce 8AF80130 		strb	r3, [r10, #1]
 1482 00d2 3A23     		movs	r3, #58
 1483 00d4 8AF80230 		strb	r3, [r10, #2]
 1484 00d8 99F80220 		ldrb	r2, [r9, #2]	@ zero_extendqisi2
 1485 00dc 8AF80320 		strb	r2, [r10, #3]
 1486 00e0 99F80320 		ldrb	r2, [r9, #3]	@ zero_extendqisi2
 1487 00e4 8AF80420 		strb	r2, [r10, #4]
ARM GAS  /tmp/ccz32YbK.s 			page 95


 1488 00e8 8AF80530 		strb	r3, [r10, #5]
 1489 00ec 99F80430 		ldrb	r3, [r9, #4]	@ zero_extendqisi2
 1490 00f0 8AF80630 		strb	r3, [r10, #6]
 1491 00f4 99F80530 		ldrb	r3, [r9, #5]	@ zero_extendqisi2
 1492 00f8 8AF80730 		strb	r3, [r10, #7]
 1493 00fc 8AF80880 		strb	r8, [r10, #8]
 1494 0100 BAE7     		b	.L60
 1495              	.L48:
 1496 0102 BBF10A0F 		cmp	fp, #10
 1497 0106 B7D1     		bne	.L60
 1498 0108 0020     		movs	r0, #0
 1499 010a 05E0     		b	.L42
 1500              	.L56:
 1501 010c 0AF13200 		add	r0, r10, #50
 1502 0110 0649     		ldr	r1, .L66+4
 1503 0112 FFF7FEFF 		bl	uStrCpy
 1504 0116 0020     		movs	r0, #0
 1505              	.L42:
 1506 0118 40B2     		sxtb	r0, r0
 1507 011a BDE8F88F 		pop	{r3, r4, r5, r6, r7, r8, r9, r10, fp, pc}
 1508              	.L64:
 1509 011e 1D46     		mov	r5, r3
 1510 0120 98E7     		b	.L45
 1511              	.L61:
 1512 0122 FF20     		movs	r0, #255
 1513 0124 F8E7     		b	.L42
 1514              	.L67:
 1515 0126 00BF     		.align	2
 1516              	.L66:
 1517 0128 08000000 		.word	.LC2
 1518 012c 00000000 		.word	.LANCHOR3
 1519              		.size	gpsParseFix, .-gpsParseFix
 1520              		.section	.text.gpsNMEAChecksum,"ax",%progbits
 1521              		.align	2
 1522              		.p2align 4,,15
 1523              		.global	gpsNMEAChecksum
 1524              		.thumb
 1525              		.thumb_func
 1526              		.type	gpsNMEAChecksum, %function
 1527              	gpsNMEAChecksum:
 1528              		@ args = 0, pretend = 0, frame = 0
 1529              		@ frame_needed = 0, uses_anonymous_args = 0
 1530              		@ link register save eliminated.
 1531 0000 4378     		ldrb	r3, [r0, #1]	@ zero_extendqisi2
 1532 0002 421C     		adds	r2, r0, #1
 1533 0004 3BB1     		cbz	r3, .L71
 1534 0006 0020     		movs	r0, #0
 1535              	.L70:
 1536 0008 5840     		eors	r0, r0, r3
 1537 000a 12F8013F 		ldrb	r3, [r2, #1]!	@ zero_extendqisi2
 1538 000e C0B2     		uxtb	r0, r0
 1539 0010 002B     		cmp	r3, #0
 1540 0012 F9D1     		bne	.L70
 1541 0014 7047     		bx	lr
 1542              	.L71:
 1543 0016 1846     		mov	r0, r3
 1544 0018 7047     		bx	lr
ARM GAS  /tmp/ccz32YbK.s 			page 96


 1545              		.size	gpsNMEAChecksum, .-gpsNMEAChecksum
 1546 001a 00BFAFF3 		.section	.text.gpsThread,"ax",%progbits
 1546      0080
 1547              		.align	2
 1548              		.p2align 4,,15
 1549              		.global	gpsThread
 1550              		.thumb
 1551              		.thumb_func
 1552              		.type	gpsThread, %function
 1553              	gpsThread:
 1554              		@ args = 0, pretend = 0, frame = 0
 1555              		@ frame_needed = 0, uses_anonymous_args = 0
 1556 0000 F8B5     		push	{r3, r4, r5, r6, r7, lr}
 1557 0002 0646     		mov	r6, r0
 1558 0004 0121     		movs	r1, #1
 1559 0006 1D48     		ldr	r0, .L84
 1560 0008 1D4C     		ldr	r4, .L84+4
 1561 000a FFF7FEFF 		bl	chSemObjectInit
 1562 000e B378     		ldrb	r3, [r6, #2]	@ zero_extendqisi2
 1563 0010 2746     		mov	r7, r4
 1564 0012 2BB9     		cbnz	r3, .L79
 1565 0014 2CE0     		b	.L78
 1566              	.L77:
 1567 0016 C820     		movs	r0, #200
 1568 0018 FFF7FEFF 		bl	chThdSleep
 1569 001c B378     		ldrb	r3, [r6, #2]	@ zero_extendqisi2
 1570 001e 3BB3     		cbz	r3, .L78
 1571              	.L79:
 1572 0020 1648     		ldr	r0, .L84
 1573 0022 FFF7FEFF 		bl	chSemWait
 1574 0026 0121     		movs	r1, #1
 1575 0028 1448     		ldr	r0, .L84
 1576 002a FFF7FEFF 		bl	chSemReset
 1577 002e 2068     		ldr	r0, [r4]
 1578 0030 FFF7FEFF 		bl	uartStopReceive
 1579 0034 94F8CD30 		ldrb	r3, [r4, #205]	@ zero_extendqisi2
 1580 0038 6425     		movs	r5, #100
 1581 003a 05FB0340 		mla	r0, r5, r3, r4
 1582 003e 0430     		adds	r0, r0, #4
 1583 0040 FFF7FEFF 		bl	gpsParseNMEAType
 1584 0044 0128     		cmp	r0, #1
 1585 0046 E6D1     		bne	.L77
 1586 0048 0E48     		ldr	r0, .L84+8
 1587 004a FFF7FEFF 		bl	chMtxLock
 1588 004e 97F8CD30 		ldrb	r3, [r7, #205]	@ zero_extendqisi2
 1589 0052 0D49     		ldr	r1, .L84+12
 1590 0054 05FB0370 		mla	r0, r5, r3, r7
 1591 0058 0430     		adds	r0, r0, #4
 1592 005a FFF7FEFF 		bl	gpsParseFix
 1593 005e 0948     		ldr	r0, .L84+8
 1594 0060 FFF7FEFF 		bl	chMtxUnlock
 1595 0064 C820     		movs	r0, #200
 1596 0066 FFF7FEFF 		bl	chThdSleep
 1597 006a B378     		ldrb	r3, [r6, #2]	@ zero_extendqisi2
 1598 006c 002B     		cmp	r3, #0
 1599 006e D7D1     		bne	.L79
 1600              	.L78:
ARM GAS  /tmp/ccz32YbK.s 			page 97


 1601 0070 2068     		ldr	r0, [r4]
 1602 0072 FFF7FEFF 		bl	uartStop
 1603 0076 0020     		movs	r0, #0
 1604 0078 F8BD     		pop	{r3, r4, r5, r6, r7, pc}
 1605              	.L85:
 1606 007a 00BF     		.align	2
 1607              	.L84:
 1608 007c 00000000 		.word	.LANCHOR1
 1609 0080 00000000 		.word	.LANCHOR0
 1610 0084 18010000 		.word	.LANCHOR0+280
 1611 0088 CE000000 		.word	.LANCHOR0+206
 1612              		.size	gpsThread, .-gpsThread
 1613 008c AFF30080 		.section	.text.gpsGetLatitude,"ax",%progbits
 1614              		.align	2
 1615              		.p2align 4,,15
 1616              		.global	gpsGetLatitude
 1617              		.thumb
 1618              		.thumb_func
 1619              		.type	gpsGetLatitude, %function
 1620              	gpsGetLatitude:
 1621              		@ args = 0, pretend = 0, frame = 0
 1622              		@ frame_needed = 0, uses_anonymous_args = 0
 1623 0000 70B5     		push	{r4, r5, r6, lr}
 1624 0002 084D     		ldr	r5, .L87
 1625 0004 05F58C74 		add	r4, r5, #280
 1626 0008 0646     		mov	r6, r0
 1627 000a 2046     		mov	r0, r4
 1628 000c FFF7FEFF 		bl	chMtxLock
 1629 0010 3046     		mov	r0, r6
 1630 0012 05F1D801 		add	r1, r5, #216
 1631 0016 FFF7FEFF 		bl	strcpy
 1632 001a 2046     		mov	r0, r4
 1633 001c BDE87040 		pop	{r4, r5, r6, lr}
 1634 0020 FFF7FEBF 		b	chMtxUnlock
 1635              	.L88:
 1636              		.align	2
 1637              	.L87:
 1638 0024 00000000 		.word	.LANCHOR0
 1639              		.size	gpsGetLatitude, .-gpsGetLatitude
 1640 0028 AFF30080 		.section	.text.gpsGetLongitude,"ax",%progbits
 1640      AFF30080 
 1641              		.align	2
 1642              		.p2align 4,,15
 1643              		.global	gpsGetLongitude
 1644              		.thumb
 1645              		.thumb_func
 1646              		.type	gpsGetLongitude, %function
 1647              	gpsGetLongitude:
 1648              		@ args = 0, pretend = 0, frame = 0
 1649              		@ frame_needed = 0, uses_anonymous_args = 0
 1650 0000 70B5     		push	{r4, r5, r6, lr}
 1651 0002 084D     		ldr	r5, .L90
 1652 0004 05F58C74 		add	r4, r5, #280
 1653 0008 0646     		mov	r6, r0
 1654 000a 2046     		mov	r0, r4
 1655 000c FFF7FEFF 		bl	chMtxLock
 1656 0010 3046     		mov	r0, r6
ARM GAS  /tmp/ccz32YbK.s 			page 98


 1657 0012 05F1EC01 		add	r1, r5, #236
 1658 0016 FFF7FEFF 		bl	strcpy
 1659 001a 2046     		mov	r0, r4
 1660 001c BDE87040 		pop	{r4, r5, r6, lr}
 1661 0020 FFF7FEBF 		b	chMtxUnlock
 1662              	.L91:
 1663              		.align	2
 1664              	.L90:
 1665 0024 00000000 		.word	.LANCHOR0
 1666              		.size	gpsGetLongitude, .-gpsGetLongitude
 1667 0028 AFF30080 		.section	.text.gpsGetAltitude,"ax",%progbits
 1667      AFF30080 
 1668              		.align	2
 1669              		.p2align 4,,15
 1670              		.global	gpsGetAltitude
 1671              		.thumb
 1672              		.thumb_func
 1673              		.type	gpsGetAltitude, %function
 1674              	gpsGetAltitude:
 1675              		@ args = 0, pretend = 0, frame = 0
 1676              		@ frame_needed = 0, uses_anonymous_args = 0
 1677 0000 70B5     		push	{r4, r5, r6, lr}
 1678 0002 084D     		ldr	r5, .L93
 1679 0004 05F58C74 		add	r4, r5, #280
 1680 0008 0646     		mov	r6, r0
 1681 000a 2046     		mov	r0, r4
 1682 000c FFF7FEFF 		bl	chMtxLock
 1683 0010 3046     		mov	r0, r6
 1684 0012 05F58071 		add	r1, r5, #256
 1685 0016 FFF7FEFF 		bl	strcpy
 1686 001a 2046     		mov	r0, r4
 1687 001c BDE87040 		pop	{r4, r5, r6, lr}
 1688 0020 FFF7FEBF 		b	chMtxUnlock
 1689              	.L94:
 1690              		.align	2
 1691              	.L93:
 1692 0024 00000000 		.word	.LANCHOR0
 1693              		.size	gpsGetAltitude, .-gpsGetAltitude
 1694 0028 AFF30080 		.section	.text.gpsGetTime,"ax",%progbits
 1694      AFF30080 
 1695              		.align	2
 1696              		.p2align 4,,15
 1697              		.global	gpsGetTime
 1698              		.thumb
 1699              		.thumb_func
 1700              		.type	gpsGetTime, %function
 1701              	gpsGetTime:
 1702              		@ args = 0, pretend = 0, frame = 0
 1703              		@ frame_needed = 0, uses_anonymous_args = 0
 1704 0000 70B5     		push	{r4, r5, r6, lr}
 1705 0002 084D     		ldr	r5, .L96
 1706 0004 05F58C74 		add	r4, r5, #280
 1707 0008 0646     		mov	r6, r0
 1708 000a 2046     		mov	r0, r4
 1709 000c FFF7FEFF 		bl	chMtxLock
 1710 0010 3046     		mov	r0, r6
 1711 0012 05F1CE01 		add	r1, r5, #206
ARM GAS  /tmp/ccz32YbK.s 			page 99


 1712 0016 FFF7FEFF 		bl	strcpy
 1713 001a 2046     		mov	r0, r4
 1714 001c BDE87040 		pop	{r4, r5, r6, lr}
 1715 0020 FFF7FEBF 		b	chMtxUnlock
 1716              	.L97:
 1717              		.align	2
 1718              	.L96:
 1719 0024 00000000 		.word	.LANCHOR0
 1720              		.size	gpsGetTime, .-gpsGetTime
 1721 0028 AFF30080 		.section	.text.gpsGetSatellites,"ax",%progbits
 1721      AFF30080 
 1722              		.align	2
 1723              		.p2align 4,,15
 1724              		.global	gpsGetSatellites
 1725              		.thumb
 1726              		.thumb_func
 1727              		.type	gpsGetSatellites, %function
 1728              	gpsGetSatellites:
 1729              		@ args = 0, pretend = 0, frame = 0
 1730              		@ frame_needed = 0, uses_anonymous_args = 0
 1731 0000 70B5     		push	{r4, r5, r6, lr}
 1732 0002 084D     		ldr	r5, .L99
 1733 0004 05F58C74 		add	r4, r5, #280
 1734 0008 0646     		mov	r6, r0
 1735 000a 2046     		mov	r0, r4
 1736 000c FFF7FEFF 		bl	chMtxLock
 1737 0010 3046     		mov	r0, r6
 1738 0012 05F58671 		add	r1, r5, #268
 1739 0016 FFF7FEFF 		bl	strcpy
 1740 001a 2046     		mov	r0, r4
 1741 001c BDE87040 		pop	{r4, r5, r6, lr}
 1742 0020 FFF7FEBF 		b	chMtxUnlock
 1743              	.L100:
 1744              		.align	2
 1745              	.L99:
 1746 0024 00000000 		.word	.LANCHOR0
 1747              		.size	gpsGetSatellites, .-gpsGetSatellites
 1748 0028 AFF30080 		.section	.text.gpsGetLocation,"ax",%progbits
 1748      AFF30080 
 1749              		.align	2
 1750              		.p2align 4,,15
 1751              		.global	gpsGetLocation
 1752              		.thumb
 1753              		.thumb_func
 1754              		.type	gpsGetLocation, %function
 1755              	gpsGetLocation:
 1756              		@ args = 0, pretend = 0, frame = 0
 1757              		@ frame_needed = 0, uses_anonymous_args = 0
 1758 0000 70B5     		push	{r4, r5, r6, lr}
 1759 0002 144C     		ldr	r4, .L102
 1760 0004 04F58C76 		add	r6, r4, #280
 1761 0008 0546     		mov	r5, r0
 1762 000a 3046     		mov	r0, r6
 1763 000c FFF7FEFF 		bl	chMtxLock
 1764 0010 04F1D801 		add	r1, r4, #216
 1765 0014 05F10A00 		add	r0, r5, #10
 1766 0018 FFF7FEFF 		bl	strcpy
ARM GAS  /tmp/ccz32YbK.s 			page 100


 1767 001c 04F1EC01 		add	r1, r4, #236
 1768 0020 05F11E00 		add	r0, r5, #30
 1769 0024 FFF7FEFF 		bl	strcpy
 1770 0028 04F58071 		add	r1, r4, #256
 1771 002c 05F13200 		add	r0, r5, #50
 1772 0030 FFF7FEFF 		bl	strcpy
 1773 0034 04F1CE01 		add	r1, r4, #206
 1774 0038 2846     		mov	r0, r5
 1775 003a FFF7FEFF 		bl	strcpy
 1776 003e 05F13E00 		add	r0, r5, #62
 1777 0042 04F58671 		add	r1, r4, #268
 1778 0046 FFF7FEFF 		bl	strcpy
 1779 004a 3046     		mov	r0, r6
 1780 004c BDE87040 		pop	{r4, r5, r6, lr}
 1781 0050 FFF7FEBF 		b	chMtxUnlock
 1782              	.L103:
 1783              		.align	2
 1784              	.L102:
 1785 0054 00000000 		.word	.LANCHOR0
 1786              		.size	gpsGetLocation, .-gpsGetLocation
 1787              		.global	gpsSem
 1788 0058 AFF30080 		.section	.bss.gpsSem,"aw",%nobits
 1788      AFF30080 
 1789              		.align	2
 1790              		.set	.LANCHOR1,. + 0
 1791              		.type	gpsSem, %object
 1792              		.size	gpsSem, 12
 1793              	gpsSem:
 1794 0000 00000000 		.space	12
 1794      00000000 
 1794      00000000 
 1795              		.section	.bss.GPS,"aw",%nobits
 1796              		.align	2
 1797              		.set	.LANCHOR0,. + 0
 1798              		.type	GPS, %object
 1799              		.size	GPS, 296
 1800              	GPS:
 1801 0000 00000000 		.space	296
 1801      00000000 
 1801      00000000 
 1801      00000000 
 1801      00000000 
 1802              		.section	.rodata.str1.4,"aMS",%progbits,1
 1803              		.align	2
 1804              	.LC0:
 1805 0000 475000   		.ascii	"GP\000"
 1806 0003 00       		.space	1
 1807              	.LC1:
 1808 0004 414C4D00 		.ascii	"ALM\000"
 1809              	.LC2:
 1810 0008 47474100 		.ascii	"GGA\000"
 1811              	.LC3:
 1812 000c 474C4C00 		.ascii	"GLL\000"
 1813              	.LC4:
 1814 0010 47534100 		.ascii	"GSA\000"
 1815              	.LC5:
 1816 0014 47535600 		.ascii	"GSV\000"
ARM GAS  /tmp/ccz32YbK.s 			page 101


 1817              	.LC6:
 1818 0018 48445400 		.ascii	"HDT\000"
 1819              	.LC7:
 1820 001c 5A444100 		.ascii	"ZDA\000"
 1821              		.section	.data.serGpsCfg,"aw",%progbits
 1822              		.align	2
 1823              		.set	.LANCHOR2,. + 0
 1824              		.type	serGpsCfg, %object
 1825              		.size	serGpsCfg, 32
 1826              	serGpsCfg:
 1827 0000 00000000 		.word	gpsTxbufEnd
 1828 0004 00000000 		.word	gpsTxC
 1829 0008 00000000 		.word	gpsRxEnd
 1830 000c 00000000 		.word	gpsRxChar
 1831 0010 00000000 		.word	gpsRxErr
 1832 0014 80250000 		.word	9600
 1833 0018 0000     		.short	0
 1834 001a 0040     		.short	16384
 1835 001c 0000     		.short	0
 1836 001e 0000     		.space	2
 1837              		.section	.bss.tokBuf,"aw",%nobits
 1838              		.align	2
 1839              		.set	.LANCHOR3,. + 0
 1840              		.type	tokBuf, %object
 1841              		.size	tokBuf, 20
 1842              	tokBuf:
 1843 0000 00000000 		.space	20
 1843      00000000 
 1843      00000000 
 1843      00000000 
 1843      00000000 
 1844              		.comm	__gnu_lto_v1,1,1
 1845              		.ident	"GCC: (GNU Tools for ARM Embedded Processors) 4.8.4 20140526 (release) [ARM/embedded-4_8-br
ARM GAS  /tmp/ccz32YbK.s 			page 102


DEFINED SYMBOLS
                            *ABS*:0000000000000000 gps.c
     /tmp/ccz32YbK.s:1109   .text.gpsTxbufEnd:0000000000000000 $t
     /tmp/ccz32YbK.s:1114   .text.gpsTxbufEnd:0000000000000000 gpsTxbufEnd
     /tmp/ccz32YbK.s:1121   .text.gpsTxC:0000000000000000 $t
     /tmp/ccz32YbK.s:1126   .text.gpsTxC:0000000000000000 gpsTxC
     /tmp/ccz32YbK.s:1133   .text.gpsRxEnd:0000000000000000 $t
     /tmp/ccz32YbK.s:1138   .text.gpsRxEnd:0000000000000000 gpsRxEnd
     /tmp/ccz32YbK.s:1145   .text.gpsRxErr:0000000000000000 $t
     /tmp/ccz32YbK.s:1150   .text.gpsRxErr:0000000000000000 gpsRxErr
     /tmp/ccz32YbK.s:1157   .text.gpsRxChar:0000000000000000 $t
     /tmp/ccz32YbK.s:1162   .text.gpsRxChar:0000000000000000 gpsRxChar
     /tmp/ccz32YbK.s:1225   .text.gpsRxChar:0000000000000074 $d
     /tmp/ccz32YbK.s:1229   .text.gpsStart:0000000000000000 $t
     /tmp/ccz32YbK.s:1235   .text.gpsStart:0000000000000000 gpsStart
     /tmp/ccz32YbK.s:1260   .text.gpsStart:000000000000002c $d
     /tmp/ccz32YbK.s:1264   .text.gpsStop:0000000000000000 $t
     /tmp/ccz32YbK.s:1270   .text.gpsStop:0000000000000000 gpsStop
     /tmp/ccz32YbK.s:1280   .text.gpsParseNMEAType:0000000000000000 $t
     /tmp/ccz32YbK.s:1286   .text.gpsParseNMEAType:0000000000000000 gpsParseNMEAType
     /tmp/ccz32YbK.s:1365   .text.gpsParseNMEAType:0000000000000094 $d
     /tmp/ccz32YbK.s:1375   .text.gpsParseFix:0000000000000000 $t
     /tmp/ccz32YbK.s:1381   .text.gpsParseFix:0000000000000000 gpsParseFix
     /tmp/ccz32YbK.s:1430   .text.gpsParseFix:0000000000000064 $d
     /tmp/ccz32YbK.s:1517   .text.gpsParseFix:0000000000000128 $d
     /tmp/ccz32YbK.s:1521   .text.gpsNMEAChecksum:0000000000000000 $t
     /tmp/ccz32YbK.s:1527   .text.gpsNMEAChecksum:0000000000000000 gpsNMEAChecksum
     /tmp/ccz32YbK.s:1547   .text.gpsThread:0000000000000000 $t
     /tmp/ccz32YbK.s:1553   .text.gpsThread:0000000000000000 gpsThread
     /tmp/ccz32YbK.s:1608   .text.gpsThread:000000000000007c $d
     /tmp/ccz32YbK.s:1614   .text.gpsGetLatitude:0000000000000000 $t
     /tmp/ccz32YbK.s:1620   .text.gpsGetLatitude:0000000000000000 gpsGetLatitude
     /tmp/ccz32YbK.s:1638   .text.gpsGetLatitude:0000000000000024 $d
     /tmp/ccz32YbK.s:1641   .text.gpsGetLongitude:0000000000000000 $t
     /tmp/ccz32YbK.s:1647   .text.gpsGetLongitude:0000000000000000 gpsGetLongitude
     /tmp/ccz32YbK.s:1665   .text.gpsGetLongitude:0000000000000024 $d
     /tmp/ccz32YbK.s:1668   .text.gpsGetAltitude:0000000000000000 $t
     /tmp/ccz32YbK.s:1674   .text.gpsGetAltitude:0000000000000000 gpsGetAltitude
     /tmp/ccz32YbK.s:1692   .text.gpsGetAltitude:0000000000000024 $d
     /tmp/ccz32YbK.s:1695   .text.gpsGetTime:0000000000000000 $t
     /tmp/ccz32YbK.s:1701   .text.gpsGetTime:0000000000000000 gpsGetTime
     /tmp/ccz32YbK.s:1719   .text.gpsGetTime:0000000000000024 $d
     /tmp/ccz32YbK.s:1722   .text.gpsGetSatellites:0000000000000000 $t
     /tmp/ccz32YbK.s:1728   .text.gpsGetSatellites:0000000000000000 gpsGetSatellites
     /tmp/ccz32YbK.s:1746   .text.gpsGetSatellites:0000000000000024 $d
     /tmp/ccz32YbK.s:1749   .text.gpsGetLocation:0000000000000000 $t
     /tmp/ccz32YbK.s:1755   .text.gpsGetLocation:0000000000000000 gpsGetLocation
     /tmp/ccz32YbK.s:1785   .text.gpsGetLocation:0000000000000054 $d
     /tmp/ccz32YbK.s:1793   .bss.gpsSem:0000000000000000 gpsSem
     /tmp/ccz32YbK.s:1789   .bss.gpsSem:0000000000000000 $d
     /tmp/ccz32YbK.s:1796   .bss.GPS:0000000000000000 $d
     /tmp/ccz32YbK.s:1800   .bss.GPS:0000000000000000 GPS
     /tmp/ccz32YbK.s:1803   .rodata.str1.4:0000000000000000 $d
     /tmp/ccz32YbK.s:1822   .data.serGpsCfg:0000000000000000 $d
     /tmp/ccz32YbK.s:1826   .data.serGpsCfg:0000000000000000 serGpsCfg
     /tmp/ccz32YbK.s:1838   .bss.tokBuf:0000000000000000 $d
     /tmp/ccz32YbK.s:1842   .bss.tokBuf:0000000000000000 tokBuf
ARM GAS  /tmp/ccz32YbK.s 			page 103


                            *COM*:0000000000000001 __gnu_lto_v1
     /tmp/ccz32YbK.s:1228   .text.gpsRxChar:000000000000007c $t
     /tmp/ccz32YbK.s:1263   .text.gpsStart:0000000000000034 $t
     /tmp/ccz32YbK.s:1374   .text.gpsParseNMEAType:00000000000000b4 $t
     /tmp/ccz32YbK.s:1613   .text.gpsThread:000000000000008c $t
     /tmp/ccz32YbK.s:1640   .text.gpsGetLatitude:0000000000000028 $t
     /tmp/ccz32YbK.s:1667   .text.gpsGetLongitude:0000000000000028 $t
     /tmp/ccz32YbK.s:1694   .text.gpsGetAltitude:0000000000000028 $t
     /tmp/ccz32YbK.s:1721   .text.gpsGetTime:0000000000000028 $t
     /tmp/ccz32YbK.s:1748   .text.gpsGetSatellites:0000000000000028 $t
     /tmp/ccz32YbK.s:1788   .text.gpsGetLocation:0000000000000058 $t
     /tmp/ccz32YbK.s:1439   .text.gpsParseFix:000000000000006d $d
     /tmp/ccz32YbK.s:1439   .text.gpsParseFix:000000000000006e $t

UNDEFINED SYMBOLS
chSchRescheduleS
chSemSignalI
chMtxObjectInit
uartStart
uartStop
strncmp
uStrCpy
uStrAppendChar
chSemObjectInit
chThdSleep
chSemWait
chSemReset
uartStopReceive
chMtxLock
chMtxUnlock
strcpy
