ARM GAS  /tmp/ccUxo6N8.s 			page 1


   1              		.syntax unified
   2              		.cpu cortex-m4
   3              		.eabi_attribute 27, 3
   4              		.eabi_attribute 28, 1
   5              		.fpu fpv4-sp-d16
   6              		.eabi_attribute 20, 1
   7              		.eabi_attribute 21, 1
   8              		.eabi_attribute 23, 3
   9              		.eabi_attribute 24, 1
  10              		.eabi_attribute 25, 1
  11              		.eabi_attribute 26, 1
  12              		.eabi_attribute 30, 2
  13              		.eabi_attribute 34, 1
  14              		.eabi_attribute 18, 4
  15              		.thumb
  16              		.file	"gps.c"
  17              		.section	.gnu.lto_.jmpfuncs.a3290799ac8b6ff,"",%progbits
  18 0000 789CAD93 		.ascii	"x\234\255\223;O\3030\024\205\317\275vB\337M\241e`\010"
  18      3B4FC330 
  18      1485CFBD 
  18      7642DF4D 
  18      A1656008 
  19 0014 0B03027E 		.ascii	"\013\003\002~\004\021\225\302\020$\244\"\204\030\273"
  19      041195C2 
  19      1024A422 
  19      8418BB
  20 0023 65C8CAC2 		.ascii	"e\310\312\302\342\221\225\255\013\177\200\237\310\204"
  20      E29195AD 
  20      0B7F809F 
  20      C884
  21 0031 ED3EF250 		.ascii	"\355>\362P[\305\222=87\271_\316q\216c\006c\337\370\016"
  21      5BC5923D 
  21      3837B95F 
  21      CE718E63 
  21      0663DFF8 
  22 0046 801B7D9D 		.ascii	"\200\033}\235\002\244\021\001I\272@\000\342O\374\251"
  22      02A41101 
  22      49BA4000 
  22      E24FFCA9 
  23 0056 2F15E584 		.ascii	"/\025\345\204\202,\333atI\2107\312\211\004\360\000X"
  23      822CDB61 
  23      74498837 
  23      CA8904F0 
  23      0058
  24 0068 6665188E 		.ascii	"fe\030\216A?ju\237\233\216\036l(\251\353\303|\350\310"
  24      413F6A75 
  24      9F9B8E1E 
  24      6C28A9EB 
  24      C37CE8C8 
  25 007c F71DF9C8 		.ascii	"\367\035\371\310\221\2379\362\027\216\374\345^\276G"
  25      919F39F2 
  25      178EFCE5 
  25      5EBE47
  26 008b BCE16CD6 		.ascii	"\274\341l\326AA6\354J\374\341-~\2252\325IA\274\244r"
  26      414136EC 
  26      4AFCE12D 
  26      7E9532D5 
ARM GAS  /tmp/ccUxo6N8.s 			page 2


  26      4941BCA4 
  27 00a0 F306861D 		.ascii	"\363\006\206\035Z3|\320\326\232\032\326\235\030Wk\353"
  27      5A337CD0 
  27      D69A1AD6 
  27      9D18576B 
  27      EB
  28 00b1 6EC55ABB 		.ascii	"n\305Z\273\216D+\027\266/\364P\325\354\307\270^k\016"
  28      8E442B17 
  28      B62FF450 
  28      D5ECC7B8 
  28      5E6B0E
  29 00c4 2CA37151 		.ascii	",\243qQjS\363\001\327\356\202\343m\331l\207-\343\340"
  29      6A53F301 
  29      D7EE82E3 
  29      6DD96C87 
  29      2DE3E0
  30 00d7 4D0E8797 		.ascii	"M\016\207\227\351\3723\216)2q\326vh\270\363\037Y\377"
  30      E9FA338E 
  30      293271D6 
  30      7668B8F3 
  30      1F59FF
  31 00ea 7201862C 		.ascii	"r\001\206,\271\361\216\213\364\371YRy\376\254\374\204"
  31      B9F18E8B 
  31      F4F95952 
  31      79FEACFC 
  31      84
  32 00fb 6A5F7584 		.ascii	"j_u\204v\222\234\264\213\252\025t\352Q\353\314\243\326"
  32      76929CB4 
  32      8BAA1574 
  32      EA51EBCC 
  32      A3D6
  33 010d D4A3D6CC 		.ascii	"\324\243\326\314\243\3269\371\323\202L\262'\3104M\364"
  33      A3D639F9 
  33      D3824CB2 
  33      27C8344D 
  33      F4
  34 011e 94657A5A 		.ascii	"\224ezZ\230j\361\012\3718\177\201|\237'\020\3513\370"
  34      986AF10A 
  34      F9387F81 
  34      7C9F2710 
  34      E933F8
  35 0131 0EFFEBE1 		.ascii	"\016\377\353\341\365\221"
  35      F591
  36              		.text
  37              		.section	.gnu.lto_.inline.a3290799ac8b6ff,"",%progbits
  38 0000 789C9D52 		.ascii	"x\234\235R=O\3030\020}>;\037m\0227m\012\022\210/!D\177"
  38      3D4FC330 
  38      107D3E3B 
  38      1F6D1237 
  38      6D0A1288 
  39 0018 0103121B 		.ascii	"\001\003\022\033\250cg&V\312\017`gB\035\220\250\230"
  39      A8636726 
  39      56CA0F60 
  39      67421D90 
  39      A898
  40 002a 18183AF6 		.ascii	"\030\030:\366' \006\304\320\221\201\01112!&~\003g;m"
  40      272006C4 
ARM GAS  /tmp/ccUxo6N8.s 			page 3


  40      D0918109 
  40      31322126 
  40      7E03673B 
  41 003f 4A832241 		.ascii	"J\203\"A\006\347|w\357\335\363\263\011\204\337\276\033"
  41      06E77C77 
  41      EFDDF3B3 
  41      0984DFBE 
  41      1B
  42 0050 E9FE6D40 		.ascii	"\351\376m@\222\260M\376h\323\366\212R\206J\031Y\312"
  42      92B04DFE 
  42      68D3F68A 
  42      52864A19 
  42      59CA
  43 0062 28449910 		.ascii	"(D\231\020\014\346\366\332\270\213`\320qlu\223\2118"
  43      0CE6F6DA 
  43      B88B60D0 
  43      716C7593 
  43      8938
  44 0074 18F63C24 		.ascii	"\030\366<$\031\243\322\311IAm*\010\241#!\305\351\261"
  44      19A3D2C9 
  44      49416D2A 
  44      08A12321 
  44      C5E9B1
  45 0087 38132D06 		.ascii	"8\023-\006\210\376,\022\226;\237\243F\233)\322\313\243"
  45      88FE2C12 
  45      963B9FA3 
  45      469B29D2 
  45      CBA3
  46 0099 3067E642 		.ascii	"0g\346B\015{\273\371\\\27169t}\364\3220\030x\232\263"
  46      0D7BBBF9 
  46      5CB93639 
  46      747DF4D2 
  46      3018789A 
  47 00ae C3DE7F83 		.ascii	"\303\336\177\203:\342u!aee\206\257?\213\312\262\324"
  47      3AE27521 
  47      61656586 
  47      AF3F8BCA 
  47      B2D4
  48 00c0 DB869525 		.ascii	"\333\206\225%c>\0161\234\217\026r_\014_;\201\262@\210"
  48      633E0E31 
  48      9C8F1672 
  48      5F0C5F3B 
  48      81B24088 
  49 00d4 CF40B915 		.ascii	"\317@\271\025\205=\011\232\241Pn\\{\207\333\335<\027"
  49      853D099A 
  49      A1506E5C 
  49      7B87DBDD 
  49      3C17
  50 00e6 5ABC1DEB 		.ascii	"Z\274\035\353\317\221\244\004o\320IAO\264\245\240.<"
  50      CF91A404 
  50      6FD04941 
  50      4FB4A5A0 
  50      2E3C
  51 00f8 954B50D6 		.ascii	"\225KP\326o\315\177{\022\235\276\343\212\246>u\037\357"
  51      6FCD7F7B 
  51      129DBEE3 
  51      8AA63E75 
ARM GAS  /tmp/ccUxo6N8.s 			page 4


  51      1FEF
  52 010a 02E8FB83 		.ascii	"\002\350\373\203\302(w\015*\261w*c\221o$\030\274\260"
  52      C228770D 
  52      2AB1772A 
  52      63916F24 
  52      18BCB0
  53 011d FD6B7E4A 		.ascii	"\375k~J\015k\312\314\333\006j\373S=\365\217\211\377"
  53      0D6BCACC 
  53      DB066AFB 
  53      533DF58F 
  53      89FF
  54 012f F3E252AC 		.ascii	"\363\342R\254^\007,&yx\325\010\276\236\005\315\371d"
  54      5E072C26 
  54      7978D508 
  54      BE9E05CD 
  54      F964
  55 0141 06901D44 		.ascii	"\006\220\035DnKF5Ed\236nl\236+\232\010W\270\211\351"
  55      6E4B4635 
  55      45649E6E 
  55      6C9E2B9A 
  55      0857B889 
  56 0156 165E9A5B 		.ascii	"\026^\232[[\325\345\254\272\334\256./U\227\227\321\334"
  56      5BD5E5AC 
  56      BADCAE2E 
  56      2F559797 
  56      D1DC
  57 0168 E6B8717B 		.ascii	"\346\270q{\216h\334-\225\361\015\266\247O\254"
  57      8E68DC2D 
  57      95F10DB6 
  57      A74FAC
  58              		.text
  59              		.section	.gnu.lto_.pureconst.a3290799ac8b6ff,"",%progbits
  60 0000 789C6362 		.ascii	"x\234cb`b\320d\200\000\021\006\006F \227\231\201\305"
  60      6062D064 
  60      80001106 
  60      06462097 
  60      9981C5
  61 0013 8A558A43 		.ascii	"\212U\212C\212\223\205K\202G\222\227\225O\212\337T\300"
  61      8A93854B 
  61      82479297 
  61      954F8ADF 
  61      54C0
  62 0025 52504248 		.ascii	"RPBHBXBDBTBL\012\0005h\002\351"
  62      42584244 
  62      4254424C 
  62      0A003568 
  62      02E9
  63              		.text
  64              		.section	.gnu.lto_gpsTxbufEnd.a3290799ac8b6ff,"",%progbits
  65 0000 789C6362 		.ascii	"x\234cb`b@\007\222@\034\004\304\034@\314\310\314\300"
  65      60624007 
  65      92401C04 
  65      C41C40CC 
  65      C8CCC0
  66 0013 C834E11C 		.ascii	"\3104\341\034\003C#\007\023##\210\301\300\310P\317\304"
  66      03432307 
  66      13232388 
ARM GAS  /tmp/ccUxo6N8.s 			page 5


  66      C1C0C850 
  66      CFC4
  67 0025 581FC908 		.ascii	"X\037\311\010V\273\236\351\300\203\377\377\327\355;"
  67      56BB9EE9 
  67      C083FFFF 
  67      D7ED3B
  68 0034 B6602523 		.ascii	"\266`%##\310(V\206\226\206\206\011\012\014\014\311`"
  68      23C82856 
  68      86968686 
  68      090A0C0C 
  68      C960
  69 0046 05214012 		.ascii	"\005!@\022\244+\024(\011\244\231/20&2.dd\205[\026\302"
  69      A42B1428 
  69      09A4992F 
  69      32302632 
  69      2E646485 
  70 005d C8089200 		.ascii	"\310\010\222\000ieK/(\326Kf\000\000\004o\030m"
  70      69654B2F 
  70      28D64B66 
  70      0000046F 
  70      186D
  71              		.text
  72              		.section	.gnu.lto_gpsTxC.a3290799ac8b6ff,"",%progbits
  73 0000 789C6362 		.ascii	"x\234cb`b@\007\222@\034\004\304\034@\314\310\314\300"
  73      60624007 
  73      92401C04 
  73      C41C40CC 
  73      C8CCC0
  74 0013 C834E11C 		.ascii	"\3104\341\034\003C#\007\023##\210\301\300\310P\317\304"
  74      03432307 
  74      13232388 
  74      C1C0C850 
  74      CFC4
  75 0025 581FC908 		.ascii	"X\037\311\010V\273\236\351\300\203\377\377\327\335;"
  75      56BB9EE9 
  75      C083FFFF 
  75      D7DD3B
  76 0034 B6602723 		.ascii	"\266`'##\310(V\206\226\206\206\011\012\014\014\311`"
  76      23C82856 
  76      86968686 
  76      090A0C0C 
  76      C960
  77 0046 05214012 		.ascii	"\005!@\022\244+\024(\011\244\231/20&2.dd\205[\026\302"
  77      A42B1428 
  77      09A4992F 
  77      32302632 
  77      2E646485 
  78 005d C8089200 		.ascii	"\310\010\222\000ieK/(\326Kf\000\000\022\177\030\235"
  78      69654B2F 
  78      28D64B66 
  78      0000127F 
  78      189D
  79              		.text
  80              		.section	.gnu.lto_gpsRxEnd.a3290799ac8b6ff,"",%progbits
  81 0000 789C6362 		.ascii	"x\234cb`b@\007\222@\034\004\304\034@\314\310\314\300"
  81      60624007 
  81      92401C04 
ARM GAS  /tmp/ccUxo6N8.s 			page 6


  81      C41C40CC 
  81      C8CCC0
  82 0013 C834E11C 		.ascii	"\3104\341\034\003C#\007\023##\210\301\300\310P\317\304"
  82      03432307 
  82      13232388 
  82      C1C0C850 
  82      CFC4
  83 0025 581FC908 		.ascii	"X\037\311\010V\273\236\351\300\203\377\377\327]8\276"
  83      56BB9EE9 
  83      C083FFFF 
  83      D75D38BE 
  84 0035 E0152323 		.ascii	"\340\025##\310(V\206\226\206\206\011\012\014\014\311"
  84      C8285686 
  84      96868609 
  84      0A0C0CC9 
  85 0045 60052140 		.ascii	"`\005!@\022\244+\024(\011\244\231/20&2.dd\205[\026\302"
  85      12A42B14 
  85      2809A499 
  85      2F323026 
  85      322E6464 
  86 005d C8089200 		.ascii	"\310\010\222\000ieK/(\326Kf\000\000\034\233\030\301"
  86      69654B2F 
  86      28D64B66 
  86      00001C9B 
  86      18C1
  87              		.text
  88              		.section	.gnu.lto_gpsRxErr.a3290799ac8b6ff,"",%progbits
  89 0000 789C6362 		.ascii	"x\234cb`b@\007\222@\034\004\304\034@\314\310\314\300"
  89      60624007 
  89      92401C04 
  89      C41C40CC 
  89      C8CCC0
  90 0013 C834E11C 		.ascii	"\3104\341\034\003C#\007\023##\210\301\300\310P\317\304"
  90      03432307 
  90      13232388 
  90      C1C0C850 
  90      CFC4
  91 0025 581FC908 		.ascii	"X\037\311\010V\273\236\351\300\203\377\377\327}8\276"
  91      56BB9EE9 
  91      C083FFFF 
  91      D77D38BE 
  92 0035 E0372323 		.ascii	"\3407##\310(V\206\226\206\206\011\012\014\014\311`\005"
  92      C8285686 
  92      96868609 
  92      0A0C0CC9 
  92      6005
  93 0047 214012A4 		.ascii	"!@\022\244+\024(\011\244\231/20&2.dd\205[\026\302\310"
  93      2B142809 
  93      A4992F32 
  93      3026322E 
  93      6464855B 
  94 005e 08920069 		.ascii	"\010\222\000ieK/(\326Kf\000\000*\364\030\362"
  94      654B2F28 
  94      D64B6600 
  94      002AF418 
  94      F2
  95              		.text
ARM GAS  /tmp/ccUxo6N8.s 			page 7


  96              		.section	.gnu.lto_chBSemSignal.a3290799ac8b6ff,"",%progbits
  97 0000 789C8D52 		.ascii	"x\234\215R\275k\024A\024\377\275\231]\357<\223\220F"
  97      BD6B1441 
  97      14FFBD99 
  97      5DEF3C93 
  97      9046
  98 0012 B00AD708 		.ascii	"\260\012\327\010\361\003W\304\324\006\004\301\" 9\003"
  98      F10357C4 
  98      D40604C1 
  98      22203903 
  99 0022 A690B03B 		.ascii	"\246\220\260;\267\344\006\335[\331\273\013\211)2\227"
  99      B7E406DD 
  99      5BD9BB0B 
  99      89293297 
 100 0032 5C918045 		.ascii	"\\\221\200E\270X\030?@\301#\321B\377\002\361J\013MH"
 100      B858183F 
 100      40C123D1 
 100      42FF02F1 
 100      4A0B4D48 
 101 0046 2B160141 		.ascii	"+\026\001AH\025m\014\304\"\316\354\336m\202\215\031"
 101      48156D0C 
 101      C422CEEC 
 101      DE6D828D 
 101      19
 102 0057 D899F766 		.ascii	"\330\231\367f\336\357c\337\014\003\303\277\343\212\376"
 102      DEEF63DF 
 102      0C03C3BF 
 102      E38AFE
 103 0066 6EE9ED15 		.ascii	"n\351\355\025\275\222\015b\313\033@=\313\030\337\353"
 103      BD920D62 
 103      CB1B403D 
 103      CB18DFEB 
 104 0076 83CA59AB 		.ascii	"\203\312Y\253\327\240z8Y\311\266Ed\002\020\346\030\267"
 104      D7A07A38 
 104      59C9B645 
 104      640210E6 
 104      18B7
 105 0088 686E9C62 		.ascii	"hn\234b\222\367\254\275}p\360\356w\363\303s\372\314"
 105      92F7ACBD 
 105      7D70F0EE 
 105      77F3C373 
 105      FACC
 106 009a 7A390584 		.ascii	"z9\005\204\014$!\253'Sb\243\241\324r\036\0201\340\266"
 106      0C2421AB 
 106      275362A3 
 106      A1D4721E 
 106      1031E0B6 
 107 00ae 9E0DCF18 		.ascii	"\236\015\317\0301\263\362\015\314\377\332}\374\375L"
 107      31B3F20D 
 107      CCFFDA7D 
 107      FCFD4C
 108 00bd 5AE6D22B 		.ascii	"Z\346\322+m&\026\"Ls\343\233'\346\007\260D/\324\223"
 108      6D261622 
 108      4C73E39B 
 108      27E607B0 
 108      442FD493 
 109 00d1 6149717A 		.ascii	"aIqz\207$\361\274\211\322\363G\235s+\371\301/\230\377"
ARM GAS  /tmp/ccUxo6N8.s 			page 8


 109      8724F1BC 
 109      89D2F347 
 109      9D732BF9 
 109      C12F98FF 
 110 00e5 FAED65EB 		.ascii	"\372\355e\353|\312\235\004\352Ok\260\253#b\217\230\244"
 110      7CCA9D04 
 110      EA4F6BB0 
 110      AB23628F 
 110      98A4
 111 00f7 CC05BC55 		.ascii	"\314\005\274UJ\265\267\232\247%\331I\242\206$\235x\206"
 111      4AB5B79A 
 111      A725D949 
 111      A286249D 
 111      7886
 112 0109 A775A5FA 		.ascii	"\247u\245\372%e&\211\033\315l\314\355\031\234Ko\214"
 112      25652689 
 112      1BCD6CCC 
 112      ED199C4B 
 112      6F8C
 113 011b 57CF9074 		.ascii	"W\317\220tb\340\023\032?\352\275.\255\353T\363\032\210"
 113      62E0131A 
 113      3FEABD2E 
 113      ADEB54F3 
 113      1A88
 114 012d 7DB4ED63 		.ascii	"}\264\355c\304\261\327\307\265\271\375\205\265\326\271"
 114      C4B1D7C7 
 114      B5B9FD85 
 114      B5D6B9
 115 013c 6E617616 		.ascii	"nav\026\017u\307:\312w\217\247\234\212n\242\321\356"
 115      0F75C73A 
 115      CA778FA7 
 115      9C8A6EA2 
 115      D1EE
 116 014e 5001B3D8 		.ascii	"P\001\263\330W\213\006xR\020KK\264\204\244\\\327\203"
 116      578B0678 
 116      52104B4B 
 116      B484A45C 
 116      D783
 117 0160 15777F13 		.ascii	"\025w\177\023\013\333\037wr\335\236\247\300SB\2334C"
 117      0BDB1F77 
 117      72DD9EA7 
 117      C053429B 
 117      3443
 118 0172 520F709C 		.ascii	"R\017p\234;r\351\265\206\304w\202#w\342\322\032\015"
 118      3B72E9B5 
 118      86C47782 
 118      2377E2D2 
 118      1A0D
 119 0184 249A5BA8 		.ascii	"$\232[\250\377l\256\332)\026\311s c\304\324^uJa\340"
 119      FF6CAEDA 
 119      2916C973 
 119      2063C4D4 
 119      5E754A61 
 120 0199 3B222CCE 		.ascii	";\",\3168E\177\312\021%\351\311\260\342T\243Z\371\236"
 120      38457FCA 
 120      1125E9C9 
 120      B0E254A3 
ARM GAS  /tmp/ccUxo6N8.s 			page 9


 120      5AF99E
 121 01ac A383A8EA 		.ascii	"\243\203\250\352\310\262\270_+\352\242\222W\361\203"
 121      C8B2B85F 
 121      2BEAA292 
 121      57F183
 122 01bb 4B250CFF 		.ascii	"K%\014\377\017\344OW\235\353#\205\233\205Cl\030\371"
 122      0FE44F57 
 122      9DEB2385 
 122      9B85436C 
 122      18F9
 123 01cd 1322B851 		.ascii	"\023\"\270Q+\013M\320?R\030\315{n\305\177\020\311\213"
 123      2B0B4DD0 
 123      3F5218CD 
 123      7B6EC57F 
 123      10C98B
 124 01e0 F9B397C1 		.ascii	"\371\263\227\301\"d\002?\010\243\031\374\005\004\315"
 124      2264023F 
 124      08A319FC 
 124      0504CD
 125 01ef B75A     		.ascii	"\267Z"
 126              		.text
 127              		.section	.gnu.lto_gpsRxChar.part.0.a3290799ac8b6ff,"",%progbits
 128 0000 789CB552 		.ascii	"x\234\265R\275k\024A\024\177\277\331\217\333\273\344"
 128      BD6B1441 
 128      147FBFD9 
 128      8FDBBBE4 
 129 0010 924B954A 		.ascii	"\222K\225J\011\261\021D\363'\330\330X\012\027P\320b"
 129      09B11144 
 129      F327D8D8 
 129      580A1750 
 129      D062
 130 0022 EF30C716 		.ascii	"\3570\307\026'!\232\312\"\357r)\202B8\254Bl\014\202"
 130      27219ACA 
 130      22EF7229 
 130      824238AC 
 130      426C0C82 
 131 0036 842410B5 		.ascii	"\204$\020\265\022\2618\360\203\200_\250i\214 \007\202"
 131      12B138F0 
 131      83805FA8 
 131      698C2007 
 131      82
 132 0047 68A3B131 		.ascii	"h\243\2611\222\250\353\233\231\333\275\020,\316\302"
 132      92A8EB9B 
 132      99DBBD10 
 132      2CCEC2
 133 0056 817DF366 		.ascii	"\201}\363f\346\375>\336\316(R\264\177\234\220\357\254"
 133      E6FD3EDE 
 133      CE2852B4 
 133      7F9C90EF 
 133      AC
 134 0067 4B342833 		.ascii	"K4(32\004\277\361B\022\037\312\314J\271\017\016\022"
 134      3204BFF1 
 134      42121FCA 
 134      CC4AB90F 
 134      0E12
 135 0079 E79C8D11 		.ascii	"\347\234\215\021\342^\007\256\336\255\005.<\233x\200"
 135      E25E07AE 
ARM GAS  /tmp/ccUxo6N8.s 			page 10


 135      DEAD052E 
 135      3C9B7880 
 136 0089 4E0834E5 		.ascii	"N\0104\345+\307\3650u\006\232\325\037\246E\346k\255"
 136      2BC7F530 
 136      75069AD5 
 136      1FA645E6 
 136      6BAD
 137 009b C75F3F61 		.ascii	"\307_?a\236\233\3237\370g\034\003\021\304A\026T\006"
 137      9E9BD337 
 137      F8671C03 
 137      11C44116 
 137      5406
 138 00ad 9D96050A 		.ascii	"\235\226\005\012fR\373\\Y,\337e\316\032\234\023\301"
 138      6652FB5C 
 138      592CDF65 
 138      CE1A9C13 
 138      C1
 139 00be 51D4D381 		.ascii	"Q\324\323\201\015Y\230\3737Xs\367\333:\004]\333\212"
 139      0D5998FB 
 139      375873F7 
 139      DB3A045D 
 139      DB8A
 140 00d0 E3FE08AE 		.ascii	"\343\376\010\256\242\201\256\200\363\315_O\346\006\257"
 140      A281AE80 
 140      F3CD5F4F 
 140      E606AF
 141 00df B4B8C1BF 		.ascii	"\264\270\301\277\305j\004\217RX`a\350F/\304-\250\377"
 141      C56A048F 
 141      52586061 
 141      E8462FC4 
 141      2DA8FF
 142 00f2 23B8A6B8 		.ascii	"#\270\246\270\025\307o\277\007yP\004_\351\340H\310\270"
 142      15C76FBF 
 142      07795004 
 142      5FE9E048 
 142      C8B8
 143 0104 146209C3 		.ascii	"\024b\011\303\344\351\035_\202\312H\320\242\036\315"
 143      E4E91D5F 
 143      82CA48D0 
 143      A21ECD
 144 0113 30378642 		.ascii	"07\206B,\312q\210\233\022\215\212\214\242D}wE\370zv"
 144      2CCA7188 
 144      9B128D8A 
 144      8CA2447D 
 144      7745F87A 
 145 0128 46C5B69E 		.ascii	"F\305\266\236\237\323\364\346\217\367\371\024\271d0"
 145      9FD3F4E6 
 145      8FF7F914 
 145      B96430
 146 0137 76C96B73 		.ascii	"v\311ks\207Ix\226\305l\031\206\246\002\034\241efnnW"
 146      87497896 
 146      C56C1986 
 146      A6021CA1 
 146      65666E6E 
 147 014c 2304D769 		.ascii	"#\004\327i\241\306\\\210\220\275L;<\253\263\\\325\024"
 147      A1C65C88 
 147      90BD4C3B 
ARM GAS  /tmp/ccUxo6N8.s 			page 11


 147      3CABB35C 
 147      D514
 148 015e EA8E72A6 		.ascii	"\352\216r\246\217\222^\207X\325\035\023\255\323\243"
 148      8F925E87 
 148      58D51D13 
 148      ADD3A3
 149 016d 8FB5FE10 		.ascii	"\217\265\376\020+\262\0242]\026\234\332\323\365(\034"
 149      2BB21432 
 149      5D169CDA 
 149      D3F5281C 
 150 017d DA1831B6 		.ascii	"\332\0301\266\356-\034h\333J\015m\177\200\346Z1\206"
 150      EE2D1C68 
 150      DB4A0D6D 
 150      7F80E65A 
 150      3186
 151 018f 9435A4DA 		.ascii	"\2245\244\332\206\336|F\327\216\014\313\035\353H\244"
 151      86DE7C46 
 151      D78E0CCB 
 151      1DEB48A4 
 152 019f BED4EF23 		.ascii	"\276\324\357#\304mc\311\251hb\331\334\251\213Zb\324"
 152      C46D63C9 
 152      A96862D9 
 152      DCA98B5A 
 152      62D4
 153 01b1 D56C22F2 		.ascii	"\325l\"\362ZHz\216\322\252\344|.B\257\325\346\343\021"
 153      5A487A8E 
 153      D2AAE47C 
 153      2E42AFD5 
 153      E6E311
 154 01c4 F2A252D2 		.ascii	"\362\242R\322\3206\2610\021\245\253=j\365\331\372\356"
 154      D036B130 
 154      11A5AB3D 
 154      6AF5D9FA 
 154      EE
 155 01d5 3B2721F6 		.ascii	";'!\366\222\237\000k\345\244=\350\360\376\363?\256\350"
 155      929F006B 
 155      E5A43DE8 
 155      F0FEF33F 
 155      AEE8
 156 01e7 609ABA90 		.ascii	"`\232\272\220\210\370\025\335\261H_Mu3\322\223\034\230"
 156      88F815DD 
 156      B1485F4D 
 156      7533D293 
 156      1C98
 157 01f9 CAA75BED 		.ascii	"\312\247[\355\013I\245\372\244@\263\333\227\254\263"
 157      0B49A5FA 
 157      A440B3DB 
 157      97ACB3
 158 0208 BECE05B9 		.ascii	"\276\316\005\271\346\341\274\244\231\326\263\207\031"
 158      E6E1BCA4 
 158      99D6B387 
 158      19
 159 0215 FB3A8852 		.ascii	"\373:\210Ro\375e\333\270\331\011\"\024\252@\273(\302"
 159      6FFD65DB 
 159      B8D90922 
 159      14AA40BB 
 159      28C2
ARM GAS  /tmp/ccUxo6N8.s 			page 12


 160 0227 40C2E119 		.ascii	"@\302\341\031\216WTkm\036J(\354(\212U9\323\227\353W"
 160      8E57546B 
 160      6D1E4A28 
 160      EC288A55 
 160      39D397EB 
 161 023c C62F1E2B 		.ascii	"\306/\036+\023\312\336d8qi\334/M\216\215\235\237\370"
 161      13CADE64 
 161      387169DC 
 161      2F4D8E8D 
 161      9D9FF8
 162 024f 03955C13 		.ascii	"\003\225\\\023\351"
 162      E9
 163              		.text
 164              		.section	.gnu.lto_gpsRxChar.a3290799ac8b6ff,"",%progbits
 165 0000 789C9592 		.ascii	"x\234\225\222?h\024A\024\306\3377\263\273\271\275\277"
 165      3F681441 
 165      14C6DF37 
 165      B3BBB9BD 
 165      BF
 166 0011 22A4B088 		.ascii	"\"\244\260\210\204\330\010\242\266\351\254\265\023\022"
 166      84D808A2 
 166      B6E9ACB5 
 166      1312
 167 001f D0C262EF 		.ascii	"\320\302b\3574\313\026'\242XYd.\233\" \204C\273XxAN"
 167      34CB1627 
 167      A2585964 
 167      2E9B2220 
 167      8443BB58 
 168 0036 240A968A 		.ascii	"$\012\226\212XD\020\024D\305hu\202\034\004\024\021\344"
 168      58441014 
 168      44C56875 
 168      821C0414 
 168      11E4
 169 0048 BA4814CF 		.ascii	"\272H\024\317\367fv\317\304\312\014\354\233\2317o\277"
 169      F76676CF 
 169      C4CA0CEC 
 169      9B99376F 
 169      BF
 170 0059 EF377F14 		.ascii	"\3577\177\024)\372\267\235\342\357\274&\252q\2171\202"
 170      29FAB79D 
 170      E2EFBC26 
 170      AA718F31 
 170      82
 171 006a 6ABF216A 		.ascii	"j\277!j\025\224\322\203q2E\2573M\246\254\021H\032\236"
 171      1594D283 
 171      713245AF 
 171      334DA6AC 
 171      11481A9E 
 172 007e 0A9E1EE4 		.ascii	"\012\236\036\344\254\377\3418g}\227m\025\002@\006\004"
 172      ACFFE138 
 172      677D976D 
 172      15024006 
 172      04
 173 008f 9A57DAF3 		.ascii	"\232W\332\363\003\314\237\205hc\212V\215\271\321\357"
 173      03CC9F85 
 173      68638A56 
 173      8DB9D1EF 
ARM GAS  /tmp/ccUxo6N8.s 			page 13


 174 009f DE5E3E60 		.ascii	"\336^>`:\013m\363{8D\002\246\010A\015\320\031\236`\322"
 174      3A0B6DF3 
 174      7B384402 
 174      A608410D 
 174      D0199E60 
 175 00b4 76CADB8D 		.ascii	"v\312\333\215\365P\255\367\207\303_\217\0267&\366\003"
 175      F550ADF7 
 175      87C35F8F 
 175      163726F6 
 175      03
 176 00c5 4DFE8703 		.ascii	"M\376\207\003|J\240C\016^QB\211\203_\246\010\253\354"
 176      7C4AA043 
 176      0E5E5142 
 176      89835FA6 
 176      08ABEC
 177 00d8 54914C95 		.ascii	"T\221L\225\203\252q\020\015\237\026\215iO\222Xq\233"
 177      83AA7110 
 177      0D9F168D 
 177      694F9258 
 177      719B
 178 00ea E12898B3 		.ascii	"\341(\230\263P\322\353\227\364\374\313\263\233/t\204"
 178      50D2EB97 
 178      F4FCCBB3 
 178      9B2F7484 
 179 00fa 3B2C1C43 		.ascii	";,\034C\011GP\334\0011\013M\203q\375\226\322\202+\""
 179      094750DC 
 179      01310B4D 
 179      8371FD96 
 179      D2822B22 
 180 010e BA46DB66 		.ascii	"\272F\333f\311\354K0\326\200Ue\257B^\355QgZ\277\246"
 180      C9EC4B30 
 180      D6805565 
 180      AF425EED 
 180      51675ABF 
 181 0123 856FE9E6 		.ascii	"\205o\351\346\362\341\\\326ge\"\316\366~|\252dH\216"
 181      F2E15CD6 
 181      676522CE 
 181      F67E7CAA 
 181      64488E
 182 0136 3827345C 		.ascii	"8'4\\M\344\352\033\260W\024#<Bk\306\230\365\255f\202"
 182      4DE4EA1B 
 182      B0571423 
 182      3C426BC6 
 182      98F5AD66 
 183 014b F016ADB4 		.ascii	"\360\026\255\264\214\270\026G\376\245\246\255\024\346"
 183      8CB81647 
 183      FEA5A6AD 
 183      14E6
 184 0159 92B5AF0B 		.ascii	"\222\265\257\013N\204\273\026\223xs\237[\265\010]\313"
 184      4E84BB16 
 184      9378739F 
 184      5BB5085D 
 184      CB
 185 016a 104A5978 		.ascii	"\020JYxz\327\326|\2727%\260\275\307+\023\243\223\312"
 185      7AD7D67C 
 185      BA3725B0 
 185      BDC72B13 
ARM GAS  /tmp/ccUxo6N8.s 			page 14


 185      A393CA
 186 017d 80B63621 		.ascii	"\200\2666!Z]\013\244\035P1\003z\377\025\377MdU\356;"
 186      5A5D0BA4 
 186      1D503103 
 186      7AFF15FF 
 186      4D6455EE 
 187 0192 22B6FA9E 		.ascii	"\"\266\372\236>A\2045\213TbE\233\334N\331-\007-\213"
 187      3E418435 
 187      8B546245 
 187      9BDC4ED9 
 187      2D072D8B 
 188 01a6 1A9B6CB0 		.ascii	"\032\233l\260H\371(=\340\2619\227\240\342\274\315\211"
 188      48F9283D 
 188      E0B13997 
 188      A0E2BCCD 
 188      89
 189 01b7 045576A9 		.ascii	"\004Uv\251\213Q&\034;\263l\266\303-]J\177~\324\271p"
 189      8B51261C 
 189      3BB36CB6 
 189      C32D5D4A 
 189      7F7ED4B9 
 190 01cc 253F0438 		.ascii	"%?\0048\224\223n\341\257\356\236\317\2305\263M]\314"
 190      94936EE1 
 190      AFEE9ECF 
 190      9835B34D 
 190      5DCC
 191 01de 4DAA6C62 		.ascii	"M\252lb\255\257\217|k\274'^\260\225\257\006\331\205"
 191      ADAF8F7C 
 191      6BBC275E 
 191      B095AF06 
 191      D985
 192 01f0 8CAC3417 		.ascii	"\214\2544\027\210\272\273\223\330\241\313\345\004\366"
 192      88BABB93 
 192      D8A1CBE5 
 192      04F6
 193 01fe 85BEA356 		.ascii	"\205\276\243V\277w(\177z\256\315\360\241\362\232p\005"
 193      BF77287F 
 193      7AAECDF0 
 193      A1F29A70 
 193      05
 194 020f F1A52BC7 		.ascii	"\361\245+\307\032\024\324\257\316\315]\270\374\007\272"
 194      1A14D4AF 
 194      CECD5DB8 
 194      FC07BA
 195 021e 79D4D8   		.ascii	"y\324\330"
 196              		.text
 197              		.section	.gnu.lto_gpsParseNMEAType.part.1.a3290799ac8b6ff,"",%progbits
 198 0000 789C8D94 		.ascii	"x\234\215\224=hTA\024\205\317\235\237\367\336\314na"
 198      3D685441 
 198      1485CF9D 
 198      9FF7DECC 
 198      6E61
 199 0012 21620A97 		.ascii	"!b\012\227\240\205\012jP\304\306\306\205@\024\326*\033"
 199      A0850A6A 
 199      50C4C6C6 
 199      854014D6 
 199      2A1B
ARM GAS  /tmp/ccUxo6N8.s 			page 15


 200 0024 511B0D6B 		.ascii	"Q\033\015kX\266P\"\033A\261\310\204\304\220 B\020ES"
 200      58B65022 
 200      1B41B1C8 
 200      84C49020 
 200      42104553 
 201 0038 040C2236 		.ascii	"\004\014\"6\202\205\013\"XXXX\370\203\220&\205\260\205"
 201      82850B22 
 201      58585858 
 201      F8839026 
 201      85B085
 202 004b 622536DB 		.ascii	"b%6\333(\221u\356\354f\327\237\205\267\017\336\271\347"
 202      289175EE 
 202      EC66D79F 
 202      85B70FDE 
 202      B9E7
 203 005d BC99B9DF 		.ascii	"\274\231\271\337L1O@\340\337\347\216\177\317+\340\210"
 203      4C314F40 
 203      E0DFE78E 
 203      7FCF2BE0 
 203      88
 204 006e AF940565 		.ascii	"\257\224\005e\226\336{\223!\021\252\020\366e\016\316"
 204      96DE7B93 
 204      2111AA10 
 204      F6650ECE 
 205 007e CAB521B8 		.ascii	"\312\265!\270\254l'\025\222\022\366\311a\237\364\347"
 205      AC6C2715 
 205      9212F6C9 
 205      619FF4E7 
 206 008e 019F743B 		.ascii	"\001\237t;E!E\355\024\207\024\267S\022R\"\354\302n\237"
 206      452145ED 
 206      148714B7 
 206      53125222 
 206      ECC26E9F 
 207 00a2 0C6BD690 		.ascii	"\014k\326\220e\322Lb\211\330\2000\235\021R\351(N\214"
 207      65D24C62 
 207      89D88030 
 207      9D1152E9 
 207      284E8C
 208 00b5 A5E933C4 		.ascii	"\245\3513\304\273\244\235Xu\356v\375\313\363uZv\257"
 208      BBA49D58 
 208      75EE76FD 
 208      CBF3755A 
 208      76AF
 209 00c7 E61EB88D 		.ascii	"\346\036\270\215f\223\250B\376D\206P\"\234\366\201\006"
 209      6693A842 
 209      FE448650 
 209      229CF681 
 209      06
 210 00d8 4311EAEF 		.ascii	"C\021\352\357#>\025\256\336l\276\370n\262D\027y\305"
 210      233E15AE 
 210      DE6CBEF8 
 210      6EB24417 
 210      79C5
 211 00ea 38ADFA86 		.ascii	"8\255\372\206\022\025\222\212E\263D,1K\302bX\254\027"
 211      1215928A 
 211      45B3442C 
 211      314BC262 
ARM GAS  /tmp/ccUxo6N8.s 			page 16


 211      58AC17
 212 00fd 6EA631E7 		.ascii	"n\2461\347\334\322`k\035\030\347\237\242W\336q\2212"
 212      DCD2606B 
 212      1D18E79F 
 212      A257DE71 
 212      9132
 213 010f 5CE51889 		.ascii	"\\\345\030\211P\337a\366\346\354\263{{\307\351!i\224"
 213      50DF61F6 
 213      E6ECB37B 
 213      7BC7E921 
 213      6994
 214 0121 499489C2 		.ascii	"I\224\211\302\266\244_\364\001\363\365o7\354\346\230"
 214      B6A45FF4 
 214      01F3F56F 
 214      37ECE698 
 215 0131 BC8E9F6E 		.ascii	"\274\216\237n\301m\251\220.Q\350\312\013\370\343\366"
 215      C16DA990 
 215      2E51E8CA 
 215      0BF8E3F6 
 216 0141 0A45396C 		.ascii	"\012E9l]q\367\217U(FkA8^\302\0337\300\033\274\376:s"
 216      5D71F78F 
 216      5528466B 
 216      41385EC2 
 216      1B37C01B 
 217 0159 B0D38987 		.ascii	"\260\323\211\207\344\237\307\036\363qmH2\361\307\243"
 217      E49FC71E 
 217      F3716D48 
 217      32F1C7A3 
 218 0169 CCE63C95 		.ascii	"\314\346<\225B\034H#\036\355t\352ATX\334\021\210\277"
 218      421C4823 
 218      1EED74EA 
 218      415458DC 
 218      1188BF
 219 017c BA449D42 		.ascii	"\272D\235B\314\365M\324=\210\032oM .>\356\020\243\024"
 219      CCF54DD4 
 219      3D881A6F 
 219      4D202E3E 
 219      EE10A314 
 220 0190 E2AEBE89 		.ascii	"\342\256\276\211Q\017b\204\2732\020ou\211q\012qO\337"
 220      510F6284 
 220      BB32106F 
 220      7589710A 
 220      714FDF
 221 01a3 C4B80731 		.ascii	"\304\270\0071\306<\005\342r\227\230\244\020\367\367"
 221      C63C05E2 
 221      729798A4 
 221      10F7F7
 222 01b2 4D4C7A10 		.ascii	"MLz\020\023\354\013\300\225.\320\244\000\017\365\015"
 222      13EC0BC0 
 222      952ED0A4 
 222      000FF50D 
 223 01c2 34FF018B 		.ascii	"4\377\001\213~\3226\177\201l\270@\037\375\337\200\233"
 223      7ED2367F 
 223      816CB840 
 223      1FFDDF80 
 223      9B
 224 01d3 5B1E5A87 		.ascii	"[\036Z\207\345\351\376\026\212\215O\331`\011\262v.8"
ARM GAS  /tmp/ccUxo6N8.s 			page 17


 224      E5E9FE16 
 224      8A8D4FD9 
 224      6009B276 
 224      2E38
 225 01e5 01D56839 		.ascii	"\001\325h9\011]\273\034\234B\324h9\215\270V\015.B\322"
 225      095DBB1C 
 225      9C42D468 
 225      398DB856 
 225      0D2E42D2 
 226 01f9 68B918A6 		.ascii	"h\271\030\246v\205\201\304(\376\035F\345\311\352\201"
 226      768581C4 
 226      28FE1D46 
 226      E5C9EA81 
 227 0209 126C75EA 		.ascii	"\022lu\352\332\344\304\211K\027&\256\252|\341$\324\310"
 227      DAE4C489 
 227      4B1726AE 
 227      AA7CE124 
 227      D4C8
 228 021b 48DE4BA1 		.ascii	"H\336K\241\340e\224\335\350)\250\343\303E\250\263\303"
 228      E06594DD 
 228      E829A8E3 
 228      C345A8B3 
 228      C3
 229 022c 79FC0699 		.ascii	"y\374\006\231\267\014\256"
 229      B70CAE
 230              		.text
 231              		.section	.gnu.lto_gpsStart.a3290799ac8b6ff,"",%progbits
 232 0000 789C9551 		.ascii	"x\234\225Q=K\003A\020}o\366.w\211\026\026\376\000k\003"
 232      3D4B0341 
 232      107D6FF6 
 232      2E778916 
 232      16FE006B 
 233 0015 82F8570C 		.ascii	"\202\370W\014hi\256\010W\004\004\261\020\213l$\202e"
 233      6869AE08 
 233      570404B1 
 233      108B6C24 
 233      8265
 234 0027 6A6DB455 		.ascii	"jm\264U\211\330\005l\024,4~a!~\025\246\263\261\261\023"
 234      89D8056C 
 234      142C347E 
 234      61217E15 
 234      A6B3B1B1 
 235 003c 9BB8B377 		.ascii	"\233\270\263wI\241\225\003\2733;\373\346\275\307\256"
 235      49A19503 
 235      BB333BFB 
 235      E6BDC7AE 
 236 004c 40F03BE6 		.ascii	"@\360;\346\334\272\"\020\273\314\020\224\366-\320\214"
 236      DCBA2210 
 236      BBCC1094 
 236      F62DD08C 
 237 005c 458263C2 		.ascii	"E\202c\302\226\314\3335`\307\015\203\254\037\220Z\200"
 237      96CCDB35 
 237      60C70D83 
 237      AC1F905A 
 237      80
 238 006d 688809D8 		.ascii	"h\210\011\330X\244g9\222\323\376`\320y\352\355\236P"
 238      58A46739 
ARM GAS  /tmp/ccUxo6N8.s 			page 18


 238      92D3FE60 
 238      D079EAED 
 238      9E50
 239 007f 8A444A18 		.ascii	"\212DJ\030\326\211\310U\212\010\321\262\266=\005$\036"
 239      D689C855 
 239      8A08D1B2 
 239      B63D0524 
 239      1E
 240 0090 3FEF76A5 		.ascii	"?\357v\245\251P4\233\013\234\277\237\275\366\314\022"
 240      A950349B 
 240      0B9CBF9F 
 240      BDF6CC12 
 241 00a0 F79C871A 		.ascii	"\367\234\207\032\315\002\263\271QTh\340\254\230\033"
 241      CD02B3B9 
 241      515468E0 
 241      AC981B
 242 00af 6C5C7D1D 		.ascii	"l\\}\035\\J\206,c\337\272\230u\340\035l7\255\235H)\353"
 242      5C4A862C 
 242      63DFBA98 
 242      75E01D6C 
 242      37AD9D48 
 243 00c5 F8B65B5A 		.ascii	"\370\266[Z\231\272\347P.\343I\2529eM\317wh\365\273\233"
 243      99BAE750 
 243      2EE349AA 
 243      39654DCF 
 243      7768F5BB 
 244 00da 63191130 		.ascii	"c\031\0210\232\012\222\\Y;q\3120\027YMYp\204\325\374"
 244      9A0A925C 
 244      593B71CA 
 244      3017594D 
 244      597084D5 
 245 00ef 369F4B19 		.ascii	"6\237K\031\001\316\324K\267\363\311\241\375\250\214"
 245      01CED44B 
 245      B7F3C9A1 
 245      FDA88C
 246 00fe E97F5A52 		.ascii	"\351\177ZR?\341\037/qB\311\035GY\323\256\245,\326)#"
 246      3FE11F2F 
 246      7142C91D 
 246      4759D3AE 
 246      A52CD629 
 247 0113 F9D2F07D 		.ascii	"\371\322\360}\002\377\222\367\356\217\024\356i\237A"
 247      02FF92F7 
 247      EE8F14EE 
 247      699F41
 248 0122 55C26018 		.ascii	"U\302`\030l\310\307C\354{\2009|\234\324\257\240\016"
 248      6CC8C743 
 248      EC7B8039 
 248      7C9CD4AF 
 248      A00E
 249 0134 AA4CA1B6 		.ascii	"\252L\241\266\2742\223\340\007\225/x\006"
 249      BC3293E0 
 249      07952F78 
 249      06
 250              		.text
 251              		.section	.gnu.lto_gpsStop.a3290799ac8b6ff,"",%progbits
 252 0000 789C5D8E 		.ascii	"x\234]\216\261\016\001A\030\204g\376u\242\324*$j\022"
 252      B10E0141 
ARM GAS  /tmp/ccUxo6N8.s 			page 19


 252      188467FE 
 252      75A2D42A 
 252      246A12
 253 0013 2F838492 		.ascii	"/\203\204\222+.[H$J\205=Q(U\"4\024Z\012/\240Q\211\023"
 253      2B2E5B48 
 253      244A853D 
 253      51285522 
 253      34145A0A 
 254 002c ADEA5AAF 		.ascii	"\255\352Z\257\2409\273w\256\261\311\354\356\237\177"
 254      A039BB77 
 254      AEB1C9EC 
 254      EE9F7F
 255 003b E6CB0804 		.ascii	"\346\313\010\004\377\247bu\265*YQ\201\262\214\200\260"
 255      FFA76275 
 255      B52A5951 
 255      81B28C80 
 255      B0
 256 004c 24A4FB80 		.ascii	"$\244\373\200\230\012\247=\246\336\223\\\342$9\256n"
 256      980AA73D 
 256      A6DE935C 
 256      E22439AE 
 256      6E
 257 005d BB88E209 		.ascii	"\273\210\342\011\207\204\202Nw\036\346\306,k\200\237"
 257      8784824E 
 257      771EE6C6 
 257      2C6B809F 
 258 006d 8E6D7BBB 		.ascii	"\216m{\273|\207\342^u\307\354\265>\277\331\347\236\036"
 258      7C87E25E 
 258      75C7ECB5 
 258      3EBFD9E7 
 258      9E1E
 259 007f 02AA06EA 		.ascii	"\002\252\006\3526\270\305&4\306\2644\031P\272\324\314"
 259      36B8C526 
 259      34C6B434 
 259      1950BAD4 
 259      CC
 260 0090 0A0E98D7 		.ascii	"\012\016\230\327{`~\251f)`\202\217Y\230\262\246\362"
 260      7B607EA9 
 260      66296082 
 260      8F5998B2 
 260      A6F2
 261 00a2 99392C49 		.ascii	"\2319,I\263\000<\021\306\367\303\017\3578^\016h[\247"
 261      B3003C11 
 261      C6F7C30F 
 261      EF385E0E 
 261      685BA7
 262 00b5 6DE0B8C5 		.ascii	"m\340\270\305`4n\372\370\002\343y1g"
 262      60346EFA 
 262      F802E379 
 262      3167
 263              		.text
 264              		.section	.gnu.lto_gpsParseNMEAType.a3290799ac8b6ff,"",%progbits
 265 0000 789C5D91 		.ascii	"x\234]\221=K\003A\020\206\337\331\217\273K<\3212\202"
 265      3D4B0341 
 265      1086DFD9 
 265      8FBB4B3C 
 265      D13282
ARM GAS  /tmp/ccUxo6N8.s 			page 20


 266 0013 88859D60 		.ascii	"\210\205\235`\345\017\320\312\326\302\200\226r\305q"
 266      E50FD0CA 
 266      D6C28096 
 266      72C571
 267 0022 8520585A 		.ascii	"\205 XZdc\"\010Z\004,\022\024A\261T\264\027\005\005"
 267      64632208 
 267      5A042C12 
 267      1441B154 
 267      B4170505 
 268 0036 8B033F82 		.ascii	"\213\003?\202\245\235\205\340O\010\330\304\231\313]"
 268      A59D85E0 
 268      4F08D8C4 
 268      99CB5D
 269 0045 50177666 		.ascii	"P\027vfgg\346\231\231]\005\205\377k\221w\207\200\220"
 269      6767E699 
 269      995D0585 
 269      FF6B9177 
 269      878090
 270 0058 357920D5 		.ascii	"5y \325z\005\352\201R:\015\341\3126}\000\\\250\225\371"
 270      7A05EA81 
 270      523A0DE1 
 270      CA367D00 
 270      5CA895F9 
 271 006c 9C10F372 		.ascii	"\234\020\363r\236-CV\242\310\022\211\006\241\246\264"
 271      9E2D4356 
 271      A2C81289 
 271      06A1A6B4 
 272 007c B1545BA3 		.ascii	"\261T[\243\214y\255\356?\372\375\253\333\247\323;\322"
 272      8C79ADEE 
 272      3FFAFDAB 
 272      DBA7D33B 
 272      D2
 273 008d 01212168 		.ascii	"\001!!h\332 \030>\221e\241<\026\332\027\007/\213\246"
 273      DA20183E 
 273      9165A13C 
 273      16DA1707 
 273      2F8BA6
 274 00a0 73AD6920 		.ascii	"s\255i \312\314\025\226\202\255\222\022\255_\260s\263"
 274      CACC1596 
 274      82AD9212 
 274      AD5FB073 
 274      B3
 275 00b1 7BDE9E5D 		.ascii	"{\336\236]\2473N\216\311\034\343\210\030\024\223^em"
 275      A7334E8E 
 275      C91CE388 
 275      1814935E 
 275      656D
 276 00c3 F241523C 		.ascii	"\362AR<~\325\307\206A\342\2623\277\006\255\222F\032"
 276      7ED5C786 
 276      41E2B233 
 276      BF06AD92 
 276      461A
 277 00d5 32ADB1DF 		.ascii	"2\255\261\337\270hO\026\2016\307xR\273\013\257\270\367"
 277      B8684F16 
 277      8136C778 
 277      52BB0BAF 
 277      B8F7
ARM GAS  /tmp/ccUxo6N8.s 			page 21


 278 00e7 B6F1EDF6 		.ascii	"\266\361\355\366\334xB~D\203\2618X.+\011\005S(\235\270"
 278      DC78427E 
 278      4483B138 
 278      582E2B09 
 278      0553289D 
 279 00fc CE424225 		.ascii	"\316BB%\014\022 \214\262\342\211F\362VJC\222\2704\376"
 279      0C12208C 
 279      B2E28946 
 279      F2564A43 
 279      92B834FE 
 280 0110 B4627068 		.ascii	"\264bpht\027\315\240\010\362\207\345\302\210T^N'4Zd"
 280      7417CDA0 
 280      08F287E5 
 280      C288545E 
 280      4E27345A 
 281 0125 D8EC2DDE 		.ascii	"\330\354-\336\370k\304\2235\364\016\0224\002\250\347"
 281      F86BC493 
 281      35F40E12 
 281      3402A8E7 
 282 0135 5EC00C33 		.ascii	"^\300\0143\260}\350\203^E\036\222$Ih^\274\2715\027A"
 282      B07DE883 
 282      5E451E92 
 282      2449685E 
 282      BCB93517 
 283 014a 2F2DE307 		.ascii	"/-\343\007\203n] "
 283      836E5D20 
 284              		.text
 285              		.section	.gnu.lto_gpsParseFix.a3290799ac8b6ff,"",%progbits
 286 0000 789CAD56 		.ascii	"x\234\255V[h\\E\030\376\3779\327\275\234\275D\327\244"
 286      5B685C45 
 286      18FEFF39 
 286      D7BD9CBD 
 286      44D7A4
 287 0013 B9BB2679 		.ascii	"\271\273&yH$\005Q\364\301\007}*\342\243\026-\342C\262"
 287      48240551 
 287      F4C1077D 
 287      2AE2A316 
 287      2DE243B2 
 288 0027 DAE520C5 		.ascii	"\332\345 \305\240\325\007\373\220\263\311VSj\333P\014"
 288      A0D507FB 
 288      90B3C956 
 288      536ADB50 
 288      0C
 289 0038 065B9354 		.ascii	"\006[\223T\333J%\240\320\007kK!\015j\253\266\215QA#"
 289      DB4A25A0 
 289      D0076B4B 
 289      210D6AAB 
 289      B68D5141 
 290 004d 1517AA86 		.ascii	"\025\027\252\206\322\220J\037\004\223\330\365\237\231"
 290      D2904A1F 
 290      0493D8F5 
 290      9F99
 291 005b 3327BB9B 		.ascii	"3'\273\233H\022\353\300\3169\347\377\376\373|\2633\014"
 291      4812EBC0 
 291      CE39E7FF 
 291      FEFB7CB3 
 291      330C
ARM GAS  /tmp/ccUxo6N8.s 			page 22


 292 006d 18548E79 		.ascii	"\030T\216y\372\365D\000\032\351\211U\200l\3602@\316"
 292      FAF54400 
 292      1AE98955 
 292      806CF032 
 292      40CE
 293 007f 662C3962 		.ascii	"f,9b\201\027\326n~\001\340E5\214I\271nE\207\"\340\331"
 293      8117D66E 
 293      7E01E045 
 293      358C49B9 
 293      6E458722 
 294 0095 86984D31 		.ascii	"\206\230M1[b\016\2119,fG\352\240#\215L\365b1\373\217"
 294      5B620E89 
 294      392C6647 
 294      EAA0238D 
 294      4CF56231 
 295 00ab 147975C6 		.ascii	"\024yu\306\036\"\247\266\022\207\324K\230EJ\360\210"
 295      1E22A7B6 
 295      1287D44B 
 295      98454AF0 
 295      88
 296 00bc 1247D58B 		.ascii	"\022G\325\213#\3238g\307X\374\362W\224X81\251\221f\234"
 296      23D33867 
 296      C758FCF2 
 296      57945838 
 296      31A99166 
 297 00d1 E99F7E2E 		.ascii	"\351\237~.>\177\260\3513\201I\251\237D\344/\200\320"
 297      3E7FB0E9 
 297      338149A9 
 297      9F44E42F 
 297      80D0
 298 00e3 CB34DD30 		.ascii	"\3134\3350-;\024\216D\235X<\221\304\336m\310\353\327"
 298      2D3B148E 
 298      449D583C 
 298      91C4DE6D 
 298      C8EBD7
 299 00f6 D270C49B 		.ascii	"\322p\304\233\030,\374\366\3474\346\274\211\374\230"
 299      182CFCF6 
 299      E734E6BC 
 299      89FC98
 300 0105 B7542C22 		.ascii	"\267T,\"\272H\275\012!d\020\236\246\017\364\344\223"
 300      BA48BD0A 
 300      2164109E 
 300      A60FF4E4 
 300      93
 301 0116 25CABBC7 		.ascii	"%\312\273\307\215\275\203\023g\016\354\337\344\215\365"
 301      8DBD8313 
 301      670EECDF 
 301      E48DF5
 302 0125 0D7AB7C8 		.ascii	"\015z\267\310\326E\215Ab\331\264YZ\352\253Z\236\235"
 302      D6458D41 
 302      62D9B459 
 302      5AEAAB5A 
 302      9E9D
 303 0137 DA5FED15 		.ascii	"\332_\355\025<e\2513H-[\332\322\022\313-?b\023\205b"
 303      3C65A933 
 303      482D5BDA 
 303      D212CB2D 
ARM GAS  /tmp/ccUxo6N8.s 			page 23


 303      3F621385 
 304 014c 71EEAFFC 		.ascii	"q\356\257\374\267\217\337\207\320\205\357c\232r\355"
 304      B78FDF87 
 304      D085EF63 
 304      9A72ED
 305 015b C263F4D4 		.ascii	"\302c\364\324\300E\303\302\035\0106\275\231a\232\254"
 305      C045C3C2 
 305      1D0836BD 
 305      99619AAC 
 306 016b A8AF93E0 		.ascii	"\250\257\223\340\037I\232\354*R\300\024W\250\341\262"
 306      1F499AEC 
 306      2A52C014 
 306      57A8E1B2 
 307 017b 5A9A4275 		.ascii	"Z\232Bu4\205\353\371\324\304\2014\007Z8\320\312em|j"
 307      3485EBF9 
 307      D4C48134 
 307      075A38D0 
 307      CA656D7C 
 308 0190 E7B20E2E 		.ascii	"\347\262\016.\353\364]n\366\303\3220 \357y\203\315]"
 308      EBF45D6E 
 308      F6C3D230 
 308      20EF7983 
 308      CD5D
 309 01a2 7884BE25 		.ascii	"x\204\276%\252\260\214(\340I\232oEa+2zh\227\240\177"
 309      AAB08C28 
 309      E0499A6F 
 309      45612B32 
 309      7A6897A0 
 310 01b7 6FFFD591 		.ascii	"o\377\325\221\246.\374\000\015\310\242\235EK\024\253"
 310      A62EFC00 
 310      0DC8A29D 
 310      454B14AB 
 311 01c7 91EA1498 		.ascii	"\221\352\024\230J\036\336\005\013\336\200\227p1\222"
 311      4A1EDE05 
 311      0BDE8097 
 311      703192
 312 01d6 41D90852 		.ascii	"A\331\010R\346\302\032\027\243\215P\375\2567\374\210"
 312      E6C21A17 
 312      A38D50FD 
 312      AE37FC88 
 313 01e6 8B0E4803 		.ascii	"\213\016H\003\321\260\030\357B\034\340\002\344\347r"
 313      D1B018EF 
 313      421CE002 
 313      E4E772
 314 01f5 F1C01387 		.ascii	"\361\300\023\207\254\322FnE\015~\215hS\260\273\360\363"
 314      ACD2466E 
 314      450D7E8D 
 314      6853B0BB 
 314      F0F3
 315 0207 1B96D28B 		.ascii	"\033\226\322\213\006\021\023\031d~D\213\013\207=\357"
 315      06111319 
 315      647E448B 
 315      0B873DEF 
 316 0217 10F94836 		.ascii	"\020\371H6B\275\214Z\245\242\272x\007\317:_\370\345"
 316      42BD8C5A 
 316      A5A2BA78 
 316      07CF3A5F 
ARM GAS  /tmp/ccUxo6N8.s 			page 24


 316      F8E5
 317 0229 BCEF0720 		.ascii	"\274\357\007 psg\0065\341\206Kl\027S\035\360\241Gc\233"
 317      70736706 
 317      35E1864B 
 317      6C17531D 
 317      F0A14763 
 318 023e 8B77ED40 		.ascii	"\213w\355@\326\355/o\340\252Ze\247\303\211I\320.\302"
 318      D6ED2F6F 
 318      E0AA5A65 
 318      A7C38949 
 318      D02EC2
 319 0251 B037FEB7 		.ascii	"\2607\376\267\255\322c\373\340\315\\\336\233\370\356"
 319      ADD263FB 
 319      E0CD5CDE 
 319      9BF8EE
 320 0260 A0E6620D 		.ascii	"\240\346b\015W|\316w\357\003?\306I\316k\325Q\200z)x"
 320      577CCE77 
 320      EF033FC6 
 320      49CE6BD5 
 320      51807A29 
 321 0275 33009900 		.ascii	"3\000\231\000\215Rp)\0005\001\232\245\340[U\012\324"
 321      8D527029 
 321      0035019A 
 321      A5E05B55 
 321      0AD4
 322 0287 05689582 		.ascii	"\005h\225\202#\001h\010\320.\005O\007\240%\300P\331"
 322      23016808 
 322      D02E054F 
 322      07A025C0 
 322      50D9
 323 0299 12187036 		.ascii	"\022\030p6\244}M{U\026(\362\235\202\327\013\363\347"
 323      A47D4D7B 
 323      551628F2 
 323      9D82D70B 
 323      F3E7
 324 02ab CD159DDC 		.ascii	"\315\025\235\334\224\361\253\341\022\032\017\272X\253"
 324      94F1ABE1 
 324      121A0FBA 
 324      58AB
 325 02b9 082754B3 		.ascii	"\010'T\263\210\202\000&\265\261N\256\310\215\331\260"
 325      88820026 
 325      B5B14EAE 
 325      C88DD9B0 
 326 02c9 6A5D2270 		.ascii	"j]\"pT\237\361+\337\005\257U\372p\261\001\340\022\364"
 326      549FF12B 
 326      DF05AF55 
 326      FA70B101 
 326      E012F4
 327 02dc CDF7BFAA 		.ascii	"\315\367\277\252\014\223d+d\217I\211\277\200\216\213"
 327      0C93642B 
 327      648F4989 
 327      BF808E8B 
 328 02ec 8D87E01D 		.ascii	"\215\207\340\035\012\330\224\305*\036\270Y8\355\016"
 328      0AD894C5 
 328      2A1EB859 
 328      38ED0E
 329 02fb 889A5455 		.ascii	"\210\232TU\232\225U\032\262\312\205\333\251R\227U\212"
ARM GAS  /tmp/ccUxo6N8.s 			page 25


 329      9A95551A 
 329      B2CA85DB 
 329      A9529755 
 329      8A
 330 030c AD7463B4 		.ascii	"\255tc\264Ve\233\362qf\224n\245\325\003P\365\032\225"
 330      56659BF2 
 330      7166946E 
 330      A5D50350 
 330      F51A95
 331 031f 90F3B8FC 		.ascii	"\220\363\270\374\356\025\001An\250\264^BP\012 \242\263"
 331      EE150141 
 331      6EA8B45E 
 331      42500A20 
 331      A2B3
 332 0331 E51E2FCD 		.ascii	"\345\036/\315FT\360\232\015\365\370\313\217\303\225"
 332      4654F09A 
 332      0DF5F8CB 
 332      8FC395
 333 0340 1DBD67F5 		.ascii	"\035\275g\365\216\252\215X\243:jUv\324\024\036O\357"
 333      8EAA8D58 
 333      A33A6A55 
 333      76D4141E 
 333      4FEF
 334 0352 2E8E3EAC 		.ascii	".\216>\254\222\251\225\276Z\374\206\264\372\244\273"
 334      92A995BE 
 334      5AFC86B4 
 334      FAA4BB
 335 0361 009FCDE6 		.ascii	"\000\237\315\346\202\214k9\324\362D\031)m\370\236\321"
 335      828C6B39 
 335      D4F24419 
 335      296DF89E 
 335      D1
 336 0372 5F54DF4F 		.ascii	"_T\337O\303\357-hJ\261\256\003\332\327\310O\244p\"\260"
 336      C3EF2D68 
 336      4AB1AE03 
 336      DAD7C84F 
 336      A47022B0 
 337 0386 A8CFCAF5 		.ascii	"\250\317\312\365\241:#eu>\260f\235\365*\225Pe\235\226"
 337      A13A2365 
 337      753EB066 
 337      9DF52A95 
 337      50659D96 
 338 039a 60CED8DE 		.ascii	"`\316\330\336\320\177'\216QB\234\223G\003\3424)\342"
 338      D07F278E 
 338      51429C93 
 338      4703E234 
 338      29E2
 339 03ac 98FF1B71 		.ascii	"\230\377\033q\2142\3424U\022g\337\236\230\012\236\336"
 339      8C32E234 
 339      551267DF 
 339      9E980A9E 
 339      DE
 340 03bd 1871BE59 		.ascii	"\030q\276Y/q4\277\241i\325\320peCm\2378W\217\006\304"
 340      2F7134BF 
 340      A169D5D0 
 340      7065436D 
 340      9F38578F 
ARM GAS  /tmp/ccUxo6N8.s 			page 26


 341 03d3 69590F71 		.ascii	"iY\017qZ\004q\236*#ND\021\347\324\361I])\266n\2308m"
 341      5A04719E 
 341      2A234E44 
 341      11E7D4F1 
 341      495D29B6 
 342 03eb 591E53D4 		.ascii	"Y\036S\324\271^\342\250:\333T*\321\312:C\2228#\267A"
 342      B95EE2A8 
 342      3ADB542A 
 342      D1CA3A43 
 342      923823B7 
 343 0400 1C5C5EBA 		.ascii	"\034\\^\272\321kA#\3327\264t\327\373\217\243\262\354"
 343      D16B4123 
 343      DA37B474 
 343      D7FB8FA3 
 343      B2EC
 344 0412 20E3D5FF 		.ascii	" \343\325\377X\365\325\253\324\375*;T\225\016\214\323"
 344      58F5D5AB 
 344      D4FD2A3B 
 344      54950E8C 
 344      D3
 345 0423 19C9CBF4 		.ascii	"\031\311\313\364\017B~\232\217_\013\"t\256<\315\271"
 345      0F427E9A 
 345      8F5F0B22 
 345      74AE3CCD 
 345      B9
 346 0434 3F4DD64A 		.ascii	"?M\326J'\3723\377~\240\323\376\030\350\377\344X\260"
 346      27FA33FF 
 346      7EA0D3FE 
 346      18E8FFE4 
 346      58B0
 347 0446 2A9BE9F4 		.ascii	"*\233\351\364\015\016V\031>\006t\277\324\370E\343\334"
 347      0D0E5619 
 347      3E0674BF 
 347      D4F845E3 
 347      DC
 348 0457 F4014729 		.ascii	"\364\001G)\242\037B\215\031@\272WhW\026{(!\347\342P"
 348      A21F428D 
 348      1940BA57 
 348      6857167B 
 348      2821E7E2 
 349 046c C30C4847 		.ascii	"\303\014HGt\375\234[\334I\236\235+C\016\367\027\007"
 349      74FD9C5B 
 349      DC499E9D 
 349      2B430EF7 
 349      1707
 350 047e BAD6727F 		.ascii	"\272\326r\177\277\223\277\206\340\314\017N\317e\246"
 350      BF93BF86 
 350      E0CC0F4E 
 350      CF65A6
 351 048d 2560965F 		.ascii	"%`\226_]\362\205S{\302\253]9\314`AK\256\034\317\256"
 351      5DF28553 
 351      7BC2AB5D 
 351      39CC6041 
 351      4BAE1CCF 
 352 04a2 75E54842 		.ascii	"u\345HB\316!\376N^g\022\223+x?\234\364\006\370\225\230"
 352      CE21FE4E 
 352      5E671293 
ARM GAS  /tmp/ccUxo6N8.s 			page 27


 352      2B783F9C 
 352      F406F895 
 353 04b7 C6B46875 		.ascii	"\306\264huV\2267\003\032O\315(\252\201\275\354\360\242"
 353      56963703 
 353      1A4FCD28 
 353      AA81BDEC 
 353      F0A2
 354 04c9 2D640089 		.ascii	"-d\000\211\303o\247\370\275\017\311)o\275\231\355y\271"
 354      C36FA7F8 
 354      BD0FC929 
 354      6FBD99ED 
 354      79B9
 355 04db 330366F7 		.ascii	"3\003f\367+\333\267?\377\222\356\356|\361\005t\365-"
 355      2BDBB73F 
 355      FF92EEEE 
 355      7CF10574 
 355      F52D
 356 04ed 5B1E0576 		.ascii	"[\036\005v/\374\003D\005\251d"
 356      2FFC0344 
 356      05A964
 357              		.text
 358              		.section	.gnu.lto_gpsNMEAChecksum.a3290799ac8b6ff,"",%progbits
 359 0000 789C5D51 		.ascii	"x\234]Q=K\303P\024\275\347}\244Q\\\334\035\304\301\261"
 359      3D4BC350 
 359      14BDE77D 
 359      A4515CDC 
 359      1DC4C1B1 
 360 0014 9BA3FFC0 		.ascii	"\233\243\377\300\261\005\035K\220X$\242\224\316}\261"
 360      B1051D4B 
 360      905824A2 
 360      94CE7DB1 
 361 0024 ED6487E2 		.ascii	"\355d\207\342\"Q\007\213X\020\025A';\325I\007+8v\313"
 361      2251078B 
 361      58101541 
 361      273BD549 
 361      072B3876 
 362 0039 2C4ECE42 		.ascii	",N\316B\274\257I*\365Ar?\316\271\367\236w\237 A\377"
 362      BCAF492A 
 362      F541723F 
 362      CEB9F79E 
 362      779F2041 
 363 004e CF3A7FA7 		.ascii	"\317:\177\247 Zd\013\207 \272\357D\241+\240RG\246\316"
 363      205A640B 
 363      8720BAEF 
 363      44A12BA0 
 363      5247A6CE 
 364 0062 B3AB84EC 		.ascii	"\263\253\204\354\274\020\231y\335*\220Y\320\200\315"
 364      BC109979 
 364      DD2A9059 
 364      D080CD
 365 0071 13A821A4 		.ascii	"\023\250!\244\322hl\301\266\303\012\365\2149\216\257"
 365      D2686CC1 
 365      B6C30AF5 
 365      8C398EAF 
 366 0081 1E3E7162 		.ascii	"\036>qb\206\341\205\371I\022\240\012\036=\007\362@\233"
 366      86E185F9 
 366      4912A00A 
ARM GAS  /tmp/ccUxo6N8.s 			page 28


 366      1E3D07F2 
 366      409B
 367 0093 1CC09D18 		.ascii	"\034\300\235\030\201Y-\367b\030'I'j\177o07\2605\025"
 367      81592DF7 
 367      62182749 
 367      276A7F6F 
 367      3037B035 
 368 00a8 F4B8A504 		.ascii	"\364\270\245\004\007\312f\034\252B\026\254\347f\030"
 368      07CA661C 
 368      AA4216AC 
 368      E76618
 369 00b7 1F4D2D63 		.ascii	"\037M-c\272\313y\354M\332\226\370\317J\313\020l\344"
 369      BACB79EC 
 369      4DDA96F8 
 369      CF4ACB10 
 369      6CE4
 370 00c9 889A47CD 		.ascii	"\210\232G\315\233\376R\005\227\320\344C\371\2203\022"
 370      9BFE5205 
 370      97D0E443 
 370      F9903312 
 371 00d9 CA90C4F7 		.ascii	"\312\220\304\367K\211\217\375bN,\370\300\224\310\340"
 371      4B898FFD 
 371      624E2CF8 
 371      C094C8E0 
 372 00e9 A0B99743 		.ascii	"\240\271\227C\256\017\341\363\316\262zE\274\020\256"
 372      AE0FE1F3 
 372      CEB27A45 
 372      BC10AE
 373 00f8 3F1CB4EF 		.ascii	"?\034\264\357Vs\216s\306\333e\311Y\027\225M{\245\326"
 373      56738E73 
 373      C6DB65C9 
 373      5917954D 
 373      7BA5D6
 374 010b 57B83625 		.ascii	"W\2706%YH\377\355aL`\205\3426:\340\371\362-z\302\230"
 374      5948FFED 
 374      614C6085 
 374      E2363AE0 
 374      F9F22D7A 
 375 0121 84E53026 		.ascii	"\204\3450&\316\243:\217\346l`\207j{\271\017\012\343"
 375      CEA33A8F 
 375      E66C6087 
 375      6A7BB90F 
 375      0AE3
 376 0133 D135F276 		.ascii	"\3215\362v\331#\227\000\006m\340\370\373\265\242G\256"
 376      D9239700 
 376      066DE0F8 
 376      FBB5A247 
 376      AE
 377 0144 B7B3EDED 		.ascii	"\267\263\355\355\326\352\301/q\277fV"
 377      D6EAC12F 
 377      71BF6656 
 378              		.text
 379              		.section	.gnu.lto_gpsThread.a3290799ac8b6ff,"",%progbits
 380 0000 789C8D54 		.ascii	"x\234\215TMHTQ\024>\347\375\3178\3318e\277V\022\255"
 380      4D485451 
 380      143EE7FD 
 380      CF38D938 
ARM GAS  /tmp/ccUxo6N8.s 			page 29


 380      65BF5612 
 381 0015 127D9B5A 		.ascii	"\022}\233ZG\213\326m\034\250E\310\233\3470\363\250\321"
 381      478BD66D 
 381      1CA845C8 
 381      9BE730F3 
 381      A8D1
 382 0027 72348816 		.ascii	"r4\210\026\276\311\021\372\331\270(\320\334(M\310H\350"
 382      BEC911FA 
 382      D9B828D0 
 382      DC284DC8 
 382      48E8
 383 0039 C22070E3 		.ascii	"\302 p\343hBfd\224-B\\\274M\204\020%\025BRL\347\276"
 383      68426664 
 383      942D425C 
 383      BC4D8410 
 383      25154252 
 384 0050 FBDE1B67 		.ascii	"\373\336\033g\334ta\356}\367\336s\276\357;\367\2343"
 384      DC7461EE 
 384      7DF7DE73 
 384      BEEF3BF7 
 384      9C33
 385 0062 0208503B 		.ascii	"\002\010P;:\350\367R\002\270@+\206\000\205\241\025\200"
 385      3AE8F752 
 385      02B8402B 
 385      860085A1 
 385      1580
 386 0074 9C26A0CC 		.ascii	"\234&\240\314?DAZ\020\301\016k+\313\000vDC\205\235\237"
 386      3F44415A 
 386      10C10E6B 
 386      2BCB0076 
 386      4443859D 
 387 0089 97F8FDBC 		.ascii	"\227\370\375\274&\363\003T\004\321\265\010\253\314<"
 387      26F30354 
 387      04D1B508 
 387      ABCC3C
 388 0098 A222B263 		.ascii	"\242\"\262c@\350\027DM\222\025\025\373/##\304\2230n"
 388      40E81744 
 388      4D921515 
 388      FB2F2323 
 388      C493306E 
 389 00ac DBC3CEE7 		.ascii	"\333\303\316\347\027k8b\227\362c\366\237r\031\321B\022"
 389      176B3862 
 389      97F263F6 
 389      9F7219D1 
 389      4212
 390 00be 17423011 		.ascii	"\027B0\021.\321\006\233\335E\220\252\325N\013%\247\\"
 390      2ED1069B 
 390      DD4590AA 
 390      D54E0B25 
 390      A75C
 391 00d0 5E1F1DFC 		.ascii	"^\037\035\374q\261Q\300\014\202\014\026\212\032MR\210"
 391      71B151C0 
 391      0C820C16 
 391      8A1A4D52 
 391      88
 392 00e1 26398206 		.ascii	"&9\202\006\216\023C\2246J\003Mj\214&\215<e\310\333\366"
 392      8E134394 
ARM GAS  /tmp/ccUxo6N8.s 			page 30


 392      364A034D 
 392      6A8C268D 
 392      3C65C8DB 
 393 00f6 5033BF06 		.ascii	"P3\277\006FC\243\235f\222\033G\201\026\361\035\014n"
 393      4643A39D 
 393      66921B47 
 393      8116F11D 
 393      0C6E
 394 0108 1687EE37 		.ascii	"\026\207\3567z\246\276O\351\301\257\2172\200\201OP&"
 394      7AA6BE4F 
 394      E9C1AF8F 
 394      3280814F 
 394      5026
 395 011a 3FE44A6E 		.ascii	"?\344Jn\303\266}\327\216Z\0302Q0\360)\335\005\247\316"
 395      C3B67DD7 
 395      8E5A1832 
 395      5130F029 
 395      DD05A7CE 
 396 012e EAD8C3D3 		.ascii	"\352\330\303\323\026\206[`\322\246\321aa]\0061\301<"
 396      16865B60 
 396      D2A6D161 
 396      615D0631 
 396      C13C
 397 0140 3D4B030B 		.ascii	"=K\003\013la!F\220\024\356\341\240q\024\201^\221\224"
 397      6C612146 
 397      9014EEE1 
 397      A0711481 
 397      5E9194
 398 0153 E49D6272 		.ascii	"\344\235br\227\216\255E\261\242C\254\321Qo\242d\340"
 398      978EAD45 
 398      B1A243AC 
 398      D1516FA2 
 398      64E0
 399 0165 64B58EC2 		.ascii	"d\265\216\302\243\226\212\216\033U:&\271\216\"[,\334"
 399      A3968A8E 
 399      1B553A26 
 399      B98E225B 
 399      2CDC
 400 0177 0B40E13B 		.ascii	"\013@\341;\367\212j-\353\353-\251B*\357\016^1p\272\212"
 400      F78A6A2D 
 400      EBEB2DA9 
 400      422AEF0E 
 400      5E3170BA 
 401 018c F443E154 		.ascii	"\364C\341T\2053^\3059\3159\247jc\177\013w\326\326\013"
 401      85335EC5 
 401      39CD39A7 
 401      6A637F0B 
 401      77D6D60B 
 402 01a0 AB620DB7 		.ascii	"\253b\015\267=7\321Z\341V\031G\012\243\034\271\264\272"
 402      3D37D15A 
 402      E1561947 
 402      0AA31CB9 
 402      B4BA
 403 01b2 4100D151 		.ascii	"A\000\321Qx\234\263\231\222\206@S,\203\254\314\031~"
 403      789CB399 
 403      92864053 
 403      2C83ACCC 
ARM GAS  /tmp/ccUxo6N8.s 			page 31


 403      197E
 404 01c4 CC559B60 		.ascii	"\314U\233`93\3609WI\\\337\006f\251Nfh\237\302\006Bt"
 404      3933F039 
 404      57495CDF 
 404      0666A94E 
 404      66689FC2 
 405 01db 0FB70788 		.ascii	"\017\267\007\210\215s\245Pch\214\204\336l_+<c\241\\"
 405      8D73A550 
 405      63688C84 
 405      DE6C5F2B 
 405      3C63A15C 
 406 01ef B170BF17 		.ascii	"\261p\277\027\3259\013\033\211%\301\210<`B\002\010v"
 406      D5390B1B 
 406      8925C188 
 406      3C604202 
 406      0876
 407 0201 011BCBE4 		.ascii	"\001\033\313\344\367b\235\217\033\012T\0360\335\262"
 407      F7629D8F 
 407      1B0A541E 
 407      30DDB2
 408 0210 648E9A85 		.ascii	"d\216\232\205\007\001\226`\361K.\024\0302\371\207pG"
 408      07019660 
 408      F14B2E14 
 408      1832F987 
 408      7047
 409 0222 E9B793FD 		.ascii	"\351\267\223\375\330+\3008J0\345\026\253\363\273\030"
 409      D82BC038 
 409      4A30E516 
 409      ABF3BB18 
 410 0232 E6F63B32 		.ascii	"\346\366;2r\330\244.\366p\331!\201\037\361T\317\021"
 410      72D8A42E 
 410      F670D921 
 410      811FF154 
 410      CF11
 411 0244 E4515736 		.ascii	"\344QW6\257\035\317\327\302&\277\372d\330TD\376\251"
 411      AF1DCFD7 
 411      C226BFFA 
 411      64D85444 
 411      FEA9
 412 0256 00F52FB2 		.ascii	"\000\365/\262\304|\232]\026|Yr\013Pa\213\364\352\204"
 412      C47C9A5D 
 412      167C5972 
 412      0B50618B 
 412      F4EA84
 413 0269 752C8502 		.ascii	"u,\205\002\223y\334{e\277W\227 \3775w6pa&\342\316&\216"
 413      9379DC7B 
 413      65BF5797 
 413      20FF3577 
 413      36706126 
 414 0281 532AA9DD 		.ascii	"S*\251\335\030\366\360\314\006\326&\375\347DS%\351a"
 414      18F6F0CC 
 414      06D626FD 
 414      E7445325 
 414      E961
 415 0293 1E4ACC4B 		.ascii	"\036J\314K\372\310\233zj\347\377K\272\233\206\005?\015"
 415      FAC89B7A 
 415      6AE7FF4B 
ARM GAS  /tmp/ccUxo6N8.s 			page 32


 415      BA9B8605 
 415      3F0D
 416 02a5 D41BF3D5 		.ascii	"\324\033\363\325/u\302\304\272\300\200(,\372\317\201"
 416      2F75C2C4 
 416      BAC08028 
 416      2CFACF81 
 417 02b5 F79073FE 		.ascii	"\367\220s\376\026\321\027\037\361\337\036I1#PR\327\263"
 417      16D1171F 
 417      F1DF1E49 
 417      31235052 
 417      D7B3
 418 02c7 6D26A899 		.ascii	"m&\250\231d6k\244\222g\364tw&\251\233\335\235\267\364"
 418      64366BA4 
 418      9267F474 
 418      7726A99B 
 418      DD9DB7F4 
 419 02db CEE44DDD 		.ascii	"\316\344M\335L[\011\253;\253\367\366\364u]\325\351\243"
 419      4C5B09AB 
 419      3BABF7F6 
 419      F4755DD5 
 419      E9A3
 420 02ed A757B7BA 		.ascii	"\247W\267\272\314k}\235d\224Nd\223\231\2664\374\003"
 420      CC6B7D9D 
 420      64944E64 
 420      9399B634 
 420      FC03
 421 02ff 31AB47CC 		.ascii	"1\253G\314"
 422              		.text
 423              		.section	.gnu.lto_gpsGetLatitude.a3290799ac8b6ff,"",%progbits
 424 0000 789C7550 		.ascii	"x\234uP\261J\003A\020}o/\227\\\254\264\264\013\266\202"
 424      B14A0341 
 424      107D6F2F 
 424      975CACB4 
 424      B40BB682 
 425 0014 5F13C12B 		.ascii	"_\023\301+,\356N\011\013\006\004#\026\026\331\223\023"
 425      2CEE4E09 
 425      0B060423 
 425      1616D993 
 425      13
 426 0025 04410236 		.ascii	"\004A\0026\2366\006;-\304?H/F\264\024\213\003\261\361"
 426      9E36063B 
 426      2DC43F48 
 426      2F46B414 
 426      8B03B1F1 
 427 0039 0B448473 		.ascii	"\013D\204s\366\356\242(q`wfvf\336{\263\012\012\177m"
 427      F6EEA228 
 427      71607766 
 427      7666DE7B 
 427      B30A0A7F 
 428 004e 5ECE3181 		.ascii	"^\3161\2019\361t@5\030\003\261\247H\033\200\350+\366"
 428      39F17440 
 428      351803B1 
 428      A7481B80 
 428      E82BF6
 429 0061 7DDA562E 		.ascii	"}\332V.`h\314 {}ycjF\311\271\371\314sRS`\233DD\254H"
 429      6068CC20 
 429      7B7D7963 
ARM GAS  /tmp/ccUxo6N8.s 			page 33


 429      6A46C9B9 
 429      F9CC7352 
 430 007c C256E154 		.ascii	"\302V\341T\3557\317\265\032ey\376|\263\377\350\273\016"
 430      ED37CFB5 
 430      1A6579FE 
 430      7CB3FFE8 
 430      BB0E
 431 008e 020E054D 		.ascii	"\002\016\005M\314E\"\220\255I\036\025Dm\271-\3732\225"
 431      CC452290 
 431      AD491E15 
 431      446DB92D 
 431      FB3295
 432 00a1 F5CE3D92 		.ascii	"\365\316=\222\354\350\266\021\360\202\256\224w\361a"
 432      ECE8B611 
 432      F082AE94 
 432      77F161
 433 00b0 0ECCACA6 		.ascii	"\016\314\254\246\023\261\350/^<\315\332\".\215\230\257"
 433      13B1E82F 
 433      5E3CCDDA 
 433      222E8D98 
 433      AF
 434 00c1 E97689B0 		.ascii	"\351v\211\260,\242\232\323\254\003w\330{z\027\375\345"
 434      2CA29AD3 
 434      AC0377D8 
 434      7B7A17FD 
 434      E5
 435 00d2 5B874E35 		.ascii	"[\207N5\222\3325\252xG\263q\206\323\330X\016\357\233"
 435      92DA35AA 
 435      7847B371 
 435      86D3D858 
 435      0EEF9B
 436 00e5 ADD92DF0 		.ascii	"\255\331-\360\354r\315\0027\254\330CN\276\325\012=9"
 436      EC72CD02 
 436      37ACD843 
 436      4EBED50A 
 436      3D39
 437 00f7 9C992654 		.ascii	"\234\231&TM\023\272\372\277\320\007\304Yz\365\243\263"
 437      4D13BAFA 
 437      BFD007C4 
 437      597AF5A3 
 437      B3
 438 0108 EC680BA5 		.ascii	"\354h\013\245\374\210\005\253w6\267\226\"x\033AO\367"
 438      FC8805AB 
 438      7736B796 
 438      22781B41 
 438      4FF7
 439 011a B6D7D6BF 		.ascii	"\266\327\326\277\000FuhQ"
 439      00467568 
 439      51
 440              		.text
 441              		.section	.gnu.lto_gpsGetLongitude.a3290799ac8b6ff,"",%progbits
 442 0000 789C7550 		.ascii	"x\234uP\261J\003A\020}o/\227\334Y\211\235]\260\025\374"
 442      B14A0341 
 442      107D6F2F 
 442      97DC5989 
 442      9D5DB015 
 443 0015 9A0846B0 		.ascii	"\232\010F\260\310\235r,\030\025\324B,\262''\0106\001"
ARM GAS  /tmp/ccUxo6N8.s 			page 34


 443      C89D722C 
 443      1815D442 
 443      2CB22727 
 443      083601
 444 0028 2B8D85C1 		.ascii	"+\215\205\301.*V\366\351E\305\326\352\032\233\224V\""
 444      2E2A56F6 
 444      E945C5D6 
 444      EA1A9B94 
 444      5622
 445 003a C2397B77 		.ascii	"\3029{wQ\2248\260;3;3\357\275Y\005\205\2776+\347\204"
 445      519438B0 
 445      3B333B33 
 445      EFBD5905 
 445      85BF362B 
 446 0050 C08C783A 		.ascii	"\300\214x:\240\352>\002\261\247H\033\200\350(v\232\264"
 446      A0EA3E02 
 446      B1A7481B 
 446      80E82876 
 446      9AB4
 447 0062 AD9C43DF 		.ascii	"\255\234C\337\230n\372:\032\361\324\014\223\013\363"
 447      986EFA3A 
 447      1AF1D40C 
 447      930BF3
 448 0071 9965A4A6 		.ascii	"\231e\244\246\300\372DH,I\302z\356T\3457\317\255\032"
 448      C0FA4448 
 448      2C49C27A 
 448      EE54E537 
 448      CFAD1A
 449 0084 A659767E 		.ascii	"\246Yv~w\370\266\354:h\261/hb.\022\201\254\217\3630"
 449      77F8B6EC 
 449      3A68B12F 
 449      68622E12 
 449      81AC8FF3 
 450 0099 276AC86D 		.ascii	"'j\310m\331\027\251\254w\236\220\244\203\373Z\213\227"
 450      D917A9AC 
 450      779E90A4 
 450      83FB5A8B 
 450      97
 451 00aa 74A5BC8F 		.ascii	"t\245\274\217\017sd\2465\235\220y\177\376\342iV\346"
 451      0F7364A6 
 451      359D9079 
 451      7FFEE269 
 451      56E6
 452 00bc 3130624D 		.ascii	"10bMM\267M\004E\021\345\234f\025x\300\301\313\273\350"
 452      4DB74D04 
 452      4511E59C 
 452      661578C0 
 452      C1CBBBE8 
 453 00d0 2FDE223A 		.ascii	"/\336\":\345H\317\256Q\306{\232\265\036\316bc9\274o"
 453      E548CFAE 
 453      51C67B9A 
 453      B51ECE62 
 453      6339BC6F 
 454 00e4 36BF9DE3 		.ascii	"6\277\235\343\331\345\374\0347(\331\003\216\277\325"
 454      D9E5FC1C 
 454      3728D903 
 454      8EBFD5
ARM GAS  /tmp/ccUxo6N8.s 			page 35


 455 00f3 0ABD3E9E 		.ascii	"\012\275>\236\232$TM\022\272\362\277\320g\304\351\315"
 455      9A24544D 
 455      12BAF2BF 
 455      D067C4E9 
 455      CD
 456 0104 D58FCEA2 		.ascii	"\325\217\316\242\243!\224\362#\026\254\032mm/\204\360"
 456      A32194F2 
 456      2316AC1A 
 456      6D6D2F84 
 456      F0
 457 0115 D7373722 		.ascii	"\32777\"\275\263\273\272\366\005\314\267h\375"
 457      BDB3BBBA 
 457      F605CCB7 
 457      68FD
 458              		.text
 459              		.section	.gnu.lto_gpsGetAltitude.a3290799ac8b6ff,"",%progbits
 460 0000 789C7550 		.ascii	"x\234uP\261J\003A\020}o/\227\334Yii\027l\005\277&\202"
 460      B14A0341 
 460      107D6F2F 
 460      97DC5969 
 460      69176C05 
 461 0017 012DEE4E 		.ascii	"\001-\356N\011\013\006\004#\026\026\331\223\023\004"
 461      090B0604 
 461      231616D9 
 461      931304
 462 0026 9B8055B4 		.ascii	"\233\200U\2641\330iai')\225\240\242\245X\\ccc+\"\234"
 462      31D86961 
 462      69272995 
 462      A0A2A558 
 462      5C636363 
 463 003d B3771745 		.ascii	"\263w\027E\211\003\2733\2633\363\336\233UP\370k\263"
 463      8903BB33 
 463      B333F3DE 
 463      9B5550F8 
 463      6BB3
 464 004f 720E09CC 		.ascii	"r\016\011\314\210\247\003\252\336\035\020{\212\264\001"
 464      88A703AA 
 464      DE1D107B 
 464      8AB401
 465 005e 88AE62B7 		.ascii	"\210\256b\267I\333\3129\014\214\351\245/o\257\354\233"
 465      49DBCA39 
 465      0C8CE9A5 
 465      2F6FAFEC 
 465      9B
 466 006f 6172623E 		.ascii	"arb>\263\214\324\024X\237\210\210%IX\317\235\252\374"
 466      B38CD414 
 466      589F8888 
 466      254958CF 
 466      9DAAFC
 467 0082 E6B950C3 		.ascii	"\346\271P\3034\313\236/\367\036\227]\007\001\007\202"
 467      34CB9E2F 
 467      F71E975D 
 467      07010782 
 468 0092 26E62211 		.ascii	"&\346\"\021\310\3728\217r\242\206\334\226}\221\312z"
 468      C8FA388F 
 468      72A286DC 
 468      967D91CA 
ARM GAS  /tmp/ccUxo6N8.s 			page 36


 468      7A
 469 00a3 E71E497A 		.ascii	"\347\036Iz5\252\005<\245+\345\035|\230}3\255\351D\314"
 469      35AA053C 
 469      A52BE51D 
 469      7C987D33 
 469      ADE944CC 
 470 00b7 FBF3174F 		.ascii	"\373\363\027O\2632\2173#\326\324t\333DX\024Q\316iV\201"
 470      B3328F33 
 470      23D6D474 
 470      DB445814 
 470      51CE6956 
 471 00cc 5BEC3EBD 		.ascii	"[\354>\275\213\376\342\255E\247\034\351\3335\312x[\263"
 471      8BFEE2AD 
 471      45A71CE9 
 471      DB35CA78 
 471      5BB3
 472 00de 768CA3D8 		.ascii	"v\214\243\330X\016\357\233\315o\347xv9?\307\015K\366"
 472      580EEF9B 
 472      CD6FE778 
 472      76393FC7 
 472      0D4BF6
 473 00f1 90E36FB5 		.ascii	"\220\343o\265B\257\017\246&\011U\223\204\256\374/\364"
 473      42AF0FA6 
 473      26095593 
 473      84AEFC2F 
 473      F4
 474 0102 01717A73 		.ascii	"\001qzs\376\243\263\350h\010\245\374\210\005\253\266"
 474      FEA3B3E8 
 474      6808A5FC 
 474      8805ABB6 
 475 0112 36361722 		.ascii	"66\027\"x\301zGw\266V\327\276\000\304\243i\002"
 475      78C17A47 
 475      77B656D7 
 475      BE00C4A3 
 475      6902
 476              		.text
 477              		.section	.gnu.lto_gpsGetTime.a3290799ac8b6ff,"",%progbits
 478 0000 789C7550 		.ascii	"x\234uP=K\003A\020}o\357.\271\010\202\255]\260\025\374"
 478      3D4B0341 
 478      107D6FEF 
 478      2EB90882 
 478      AD5DB015 
 479 0015 35114C91 		.ascii	"5\021L\221\"wH\330\342@\321\316\"{r\202`\023L\345Ga"
 479      227748D8 
 479      E240D1CE 
 479      227B7282 
 479      60134CE5 
 480 002b B0D3C21F 		.ascii	"\260\323\302\037`\223^Tl\203\3025\376\201\024\"\"\234"
 480      60935E54 
 480      6C83C235 
 480      FE811422 
 480      229C
 481 003d B37B1745 		.ascii	"\263{\027E\211\003\2733\2633\363\336\233UP\370k\313"
 481      8903BB33 
 481      B333F3DE 
 481      9B5550F8 
 481      6BCB
ARM GAS  /tmp/ccUxo6N8.s 			page 37


 482 004f 72860416 		.ascii	"r\206\004\026\305\323\003\325\340\001HCE\332\000D_\261"
 482      C5D303D5 
 482      E0014843 
 482      45DA0044 
 482      5FB1
 483 0061 DFA66DE5 		.ascii	"\337\246m\345\012F\306\034\347\257oS\236\230qva>\213"
 483      0A46C61C 
 483      E7AF6F53 
 483      9E987176 
 483      613E8B
 484 0074 82D414D8 		.ascii	"\202\324\024\330\006\021\023\033\222\260\351\234\362"
 484      0611131B 
 484      92B0E99C 
 484      F2
 485 0081 7FF3DCA8 		.ascii	"\177\363\334\250q^\024\347\267\007\323N\340\241\313"
 485      715E14E7 
 485      B707D34E 
 485      E0A1CB
 486 0090 91A08905 		.ascii	"\221\240\211\005\310\214\0314gy\354\210Zr[\366u*\353"
 486      C88C1934 
 486      6779EC88 
 486      5A725BF6 
 486      752AEB
 487 00a3 BD4764F9 		.ascii	"\275Gd\371\344\256\336\345%\003)\357\341\303\034\232"
 487      E4AEDEE5 
 487      250329EF 
 487      E1C31C9A 
 488 00b3 254D2FA6 		.ascii	"%M/\246\353w/\241\246\277\212+#\326\326\014\022\"*\213"
 488      EB772FA1 
 488      A6BF8A2B 
 488      23D6D60C 
 488      12222A8B 
 489 00c7 A8E6346B 		.ascii	"\250\3464k\300=\366'\357\242\277|\353\321\253F\206v"
 489      C03DF627 
 489      EFA2BF7C 
 489      EBD1AB46 
 489      8676
 490 00d9 8D2ADED6 		.ascii	"\215*\336\326\254\237\34145\226#\374fk$\016\317.\327"
 490      AC9FE134 
 490      359623FC 
 490      666B240E 
 490      CF2ED7
 491 00ec 70B851C5 		.ascii	"p\270Q\305\036q\366\255V\350\363\321\302<\241j\236\320"
 491      1E71F6AD 
 491      56E8F3D1 
 491      C23CA16A 
 491      9ED0
 492 00fe CEFF429F 		.ascii	"\316\377B\237\220\346/\327?:\313\216\226P\312\217X\260"
 492      90E62FD7 
 492      3F3ACB8E 
 492      9650CA8F 
 492      58B0
 493 0110 5A6F6B67 		.ascii	"Zokg-\206\277\253\223\315/A2g\212"
 493      2D86BFAB 
 493      93CD2F41 
 493      32678A
 494              		.text
ARM GAS  /tmp/ccUxo6N8.s 			page 38


 495              		.section	.gnu.lto_gpsGetSatellites.a3290799ac8b6ff,"",%progbits
 496 0000 789C7550 		.ascii	"x\234uP=K\003A\020}o\317K\356\254\264\264\223\264\202"
 496      3D4B0341 
 496      107D6FCF 
 496      4BEEACB4 
 496      B493B482 
 497 0014 7FC2BF10 		.ascii	"\177\302\277\020\301\024\"wW\204-b\204D,,\262'\021\004"
 497      C1142277 
 497      57842D62 
 497      84442C2C 
 497      B2271104 
 498 0028 9BA085A8 		.ascii	"\233\240\205\250\215\301N\013\177\201\220^\242h)\026"
 498      8DC14E0B 
 498      7F81905E 
 498      A2682916 
 499 0038 D7D85858 		.ascii	"\327\330XX\307\0178g\357.\212\022\007v\347cg\336{;\012"
 499      C70F3867 
 499      EF2E8A12 
 499      0776E763 
 499      67DE7B3B 
 500 004d 0A7F6D4E 		.ascii	"\012\177mN\316!\201Y\361t@\325\273\005bO\2216\000\321"
 500      CE218159 
 500      F17440D5 
 500      BB05624F 
 500      913600D1 
 501 0061 51ECD468 		.ascii	"Q\354\324h[YA\337\230\203\344\371\343\205Gf\020\237"
 501      5B5941DF 
 501      9883E4F9 
 501      E3854766 
 501      109F
 502 0073 99CF3425 		.ascii	"\231\3174%5\005\326'\"bE\022z\231S\374\315s\245\006"
 502      3505D627 
 502      22624512 
 502      7A9953FC 
 502      CD73A506 
 503 0087 499A3E5D 		.ascii	"I\232>]\357>\254\271\016\002\366\005M\314E\327\230\336"
 503      EF3EACB9 
 503      0E02F605 
 503      4DCC45D7 
 503      98DE
 504 0099 FC388FB2 		.ascii	"\3748\217\262\251\252\334\226}\231\312z\347\016\335"
 504      A9AADC96 
 504      7D99CA7A 
 504      E70EDD
 505 00a8 E4F5A61C 		.ascii	"\344\365\246\034\360\234\256<o\343\335\354\231\031M"
 505      F09CAE3C 
 505      6FE3DDEC 
 505      99194D
 506 00b7 2762CE62 		.ascii	"'b\316b+\236\346\324\002.\214XM\323m\020a!\241\230\323"
 506      2B9EE6D4 
 506      022E8C58 
 506      4DD36D10 
 506      6121A198 
 507 00cc 2C0143EC 		.ascii	",\001C\354<\216D\177^\253\323)F\216\3557\212xK\263|"
 507      3C8E447F 
 507      5EABD329 
 507      468EED37 
ARM GAS  /tmp/ccUxo6N8.s 			page 39


 507      8A784BB3 
 508 00e1 8A93D858 		.ascii	"\212\223\330X\016\357\233\315odx\366s~\206\033\026\354"
 508      0EEF9BCD 
 508      6F6478F6 
 508      737E861B 
 508      16EC
 509 00f3 21C76BB5 		.ascii	"!\307k\265BG\373\323\223\204\252IBW\377\027z\2178y\273"
 509      4247FBD3 
 509      9384AA49 
 509      4257FF17 
 509      7A8F3879 
 510 0108 FCD19977 		.ascii	"\374\321\231wT\205R6b\301J\365\215\326b\004\257\025"
 510      54855236 
 510      62C14AF5 
 510      8DD66204 
 510      AF15
 511 011a B4979A9B 		.ascii	"\264\227\232\233\353\355/\026fi\212"
 511      EBED2F16 
 511      66698A
 512              		.text
 513              		.section	.gnu.lto_gpsGetLocation.a3290799ac8b6ff,"",%progbits
 514 0000 789CA593 		.ascii	"x\234\245\223?K\003A\020\305\337\354\336m\326\313\005"
 514      3F4B0341 
 514      10C5DFEC 
 514      DE6DD6CB 
 514      05
 515 0011 6DEDAC0D 		.ascii	"m\355\254\015\332\370U\"\230\302\302\244\010[\004\004"
 515      DAF85522 
 515      98C2C2A4 
 515      085B0404 
 516 0021 B1B2C845 		.ascii	"\261\262\310ER\210 \004\253D\033\377t\026jiik\021\305"
 516      52882004 
 516      AB441BFF 
 516      74166A69 
 516      696B11C5 
 517 0035 4E63938F 		.ascii	"Nc\223\217!6q\366v\325(g\212\313\300\315\016\273;\357"
 517      213671F6 
 517      76D52867 
 517      8ACBC0CD 
 517      0EBB3BEF 
 518 0049 FD586E04 		.ascii	"\375Xn\004\004\376\306\"\177\257\022\320\274\222\004"
 518      04FEC622 
 518      7FAF12D0 
 518      BC9204
 519 0058 89EE23D0 		.ascii	"\211\356#\320\326\202\310\026 \264\004\265\252\224\336"
 519      D682C816 
 519      20B404B5 
 519      AA94DE
 520 0067 BD11F7A3 		.ascii	"\275\021\367\243\361\370\372xx\326'5/a\010\0015\011"
 520      F1F8FA78 
 520      78D62735 
 520      2F610801 
 520      3509
 521 0079 CA56DAA6 		.ascii	"\312V\332\246\210\023\305\234\254Q\210N\222t\227\200"
 521      8813C59C 
 521      AC51884E 
 521      92749780 
ARM GAS  /tmp/ccUxo6N8.s 			page 40


 522 0089 7ADA5EE1 		.ascii	"z\332^\341l5\327\371\220W\371\204\316\350pP\330\242"
 522      6C35D7F9 
 522      9057F984 
 522      CEE87050 
 522      D8A2
 523 009b 730AF978 		.ascii	"s\012\371x\017\037\311A\262`H\326\311\331\331\035m("
 523      0F1FC941 
 523      B26048D6 
 523      C9D9D91D 
 523      6D28
 524 00ad 28E32AE1 		.ascii	"(\343*\341\250\032\012\233D5w\010\337gH\001\003\354"
 524      A81A0A9B 
 524      44357708 
 524      DF674801 
 524      03EC
 525 00bf 0FDF2FDE 		.ascii	"\017\337/\336\002\267\327 Y\306\262\241\202o\3345\244"
 525      02B7D720 
 525      59C6B2A1 
 525      826FDC35 
 525      A4
 526 00d0 4F71D24E 		.ascii	"Oq\322N\254\372\334\267O\324L}6\210\313T\261\346}k\364"
 526      ACFADCB7 
 526      4FD44C7D 
 526      3688CB54 
 526      B1E67D6B 
 527 00e5 F54CACFB 		.ascii	"\365L\254\373p[t\252^l\215uY\214\233t\203\002\333\\"
 527      705B74AA 
 527      5E6C8D75 
 527      598C9B74 
 527      8302DB5C 
 528 00f9 FCD5C4E6 		.ascii	"\374\325\304\346\216\247w\371\303\243f\344\221yx\244"
 528      8EA777F9 
 528      C3A366E4 
 528      917978A4 
 529 0109 E7F1EF73 		.ascii	"\347\361\357s7\301\243g\344\011\362\360\004\236G;\236"
 529      37C1A367 
 529      E409F2F0 
 529      049E473B 
 529      9E
 530 011a 97099E28 		.ascii	"\227\011\236(\345\211s\363\204Sy\342l\236\320\363D\376"
 530      E58973F3 
 530      845379E2 
 530      6C9ED0F3 
 530      44FE
 531 012c FF99E089 		.ascii	"\377\231\340\211S\236Rn\0365\225\247\224\315\243<O\014"
 531      539E526E 
 531      1E3595A7 
 531      94CDA33C 
 531      4F0C
 532 013e D8D1E81D 		.ascii	"\330\321\350\035EY\243!\262Fc\363\377\321xF{\324_\371"
 532      4559A321 
 532      B24663F3 
 532      FFD17846 
 532      7BD45FF9 
 533 0152 52725161 		.ascii	"RrQaP\236@+\245\032\333;\253u|\002\347\372\326\230"
 533      509E402B 
 533      A51ADB3B 
ARM GAS  /tmp/ccUxo6N8.s 			page 41


 533      AB757C02 
 533      E7FAD698 
 534              		.text
 535              		.section	.gnu.lto_.symbol_nodes.a3290799ac8b6ff,"",%progbits
 536 0000 789C4DD0 		.ascii	"x\234M\320Io\323@\030\306\361\327\317\330\264)M\232"
 536      496FD340 
 536      18C6F1D7 
 536      CFD8B429 
 536      4D9A
 537 0012 3D6DB335 		.ascii	"=m\2635\005nH|\036\216\375$O\301\"iY\313\276\250\033"
 537      056E487C 
 537      1E8EFD24 
 537      4FC12269 
 537      59CBBEA8 
 538 0027 3148C08D 		.ascii	"1H\300\215\003R{mD\270\371\202\004\027@E\021\007\244"
 538      03527B6D 
 538      44B8F982 
 538      04174045 
 538      1107A4
 539 003a 7243DC02 		.ascii	"rC\334\002\214\355Qg|\371\353\367\352\035\217e\010d"
 539      8CED5167 
 539      7CF9EBF7 
 539      EA1D8F65 
 539      0864
 540 004c A0247B70 		.ascii	"\240${p\015\024\331\212E\310\355\3155\364A\317\341\006"
 540      0D14D98A 
 540      45C8EDCD 
 540      35F441CF 
 540      E106
 541 005e 08879BA0 		.ascii	"\010\207\233\240r\370\336\243o\270\263\261\206\327`"
 541      72F8DEA3 
 541      6FB8B3B1 
 541      86D760
 542 006d 704A2FF8 		.ascii	"pJ/\370\347\301\247\012\256@\002\012\006\340\031\347"
 542      E7C1A70A 
 542      AE40020A 
 542      06E019E7 
 543 007d E81B70C6 		.ascii	"\350\033p\306\356\342\0068k\270\253\217^\207\247\217"
 543      EEE20638 
 543      6BB8AB8F 
 543      5E87A78F 
 544 008d E22698B3 		.ascii	"\342&\230\263S\334\002\347\034\336\006\317:\274\003"
 544      53DC02E7 
 544      1CDE06CF 
 544      3ABC03
 545 009c CE3BDC02 		.ascii	"\316;\334\002\363\016\357\202\005\207\367\300\005\207"
 545      F30EEF82 
 545      0587F7C0 
 545      0587
 546 00aa F7C1A2C3 		.ascii	"\367\301\242\303\007`\311\341C\260\354\360\021X\261"
 546      0760C9E1 
 546      43B0ECF0 
 546      1158B1
 547 00b9 F49E82D5 		.ascii	"\364\236\202\325\214\353\353\236\367\014\254Y\355\200"
 547      8CEBEB9E 
 547      F70CAC59 
 547      ED80
ARM GAS  /tmp/ccUxo6N8.s 			page 42


 548 00c7 75AB2760 		.ascii	"u\253'`\303\3521\270h\265\015.Y\015\301e\253]\260i\365"
 548      C3EA31B8 
 548      68B50D2E 
 548      590DC165 
 548      AB5DB069 
 549 00dc 1C6C59ED 		.ascii	"\034lY\355\203m\253=\260c\365\022\354Z\275\000W\254"
 549      836DAB3D 
 549      B063F512 
 549      EC5ABD00 
 549      57AC
 550 00ee 22B0772A 		.ascii	"\"\260w*\345/J8m(\277!\321\367\277\236\012|9\352\237"
 550      E52F4A38 
 550      6D28BF21 
 550      D1F7BF9E 
 550      0A7C39EA 
 551 0103 74D56C20 		.ascii	"t\325l \303\343\013*\267$\321\000I&\343B\252\376\305"
 551      C3E30B2A 
 551      B724D100 
 551      4926E342 
 551      AAFEC5
 552 0116 543F1752 		.ascii	"T?\027R\275\275\224\352U\354\245<\326o\230k\312\350"
 552      BDBD94EA 
 552      55ECA53C 
 552      D66F986B 
 552      CAE8
 553 0128 60AABB2C 		.ascii	"`\252\273,\341\241\356|+\233\347\365\336~]\345s2|\247"
 553      E1A1EE7C 
 553      2B9BE7F5 
 553      DE7E5DE5 
 553      73327CA7 
 554 013c 54C16C17 		.ascii	"T\301l\027:29\371\255\333\223\360W\322\025\231\374\370"
 554      3A3239F9 
 554      ADDB93F0 
 554      57D21599 
 554      FCF8
 555 014e AADB9570 		.ascii	"\252\333\225p\374\245\2318\374\220u\224\266+\023\343"
 555      FCA59938 
 555      FC907594 
 555      B62B13E3 
 556 015e 3036F3D8 		.ascii	"06\363\330\314\215\303\217\231\243\264\035\211>\375"
 556      CC8DC38F 
 556      99A3B41D 
 556      893EFD
 557 016d D9D317B6 		.ascii	"\331\323\027\266%\372\034wT\361\274\204\311\305\305"
 557      25FA1C77 
 557      54F1BC84 
 557      C9C5C5
 558 017c 73121D7C 		.ascii	"s\022\035|\273\254\212\253\372s\223\346\345\3500iA\256"
 558      BBAC8AAB 
 558      FA7393E6 
 558      E5E83069 
 558      41AE
 559 018e 8EA77AAF 		.ascii	"\216\247z\257%\341@\377\210R/\333/\265e\224\264l\\6"
 559      25E140FF 
 559      88522FDB 
 559      2FB56594 
 559      B46C5C36 
ARM GAS  /tmp/ccUxo6N8.s 			page 43


 560 01a2 AE18578C 		.ascii	"\256\030W\214\253\306U\343\232q\315\270n\\o\313D\377"
 560      ABC655E3 
 560      9A71CDB8 
 560      6E5C6FCB 
 560      44FF
 561 01b4 68F90F74 		.ascii	"h\371\017tj\026\026"
 561      6A1616
 562              		.text
 563              		.section	.gnu.lto_.refs.a3290799ac8b6ff,"",%progbits
 564 0000 789C358A 		.ascii	"x\2345\212[\016\300 \014\303\212\201\026\015i\332\373"
 564      5B0EC020 
 564      0CC38A81 
 564      160D69DA 
 564      FB
 565 0011 B2BBFCE8 		.ascii	"\262\273\374\350\200\346\303N\025\004y\245_\316\242"
 565      80E6C34E 
 565      150479A5 
 565      5FCEA2
 566 0020 A268502C 		.ascii	"\242hP,\225\351ii\335\275\346\212\020\200Bd\245}m\303"
 566      95E96969 
 566      DDBDE68A 
 566      10804264 
 566      A57D6DC3 
 567 0034 3CBEF44D 		.ascii	"<\276\364M\334\377\245\306c\360\034\274\006\357N{\234"
 567      DCFFA5C6 
 567      63F01CBC 
 567      06EF4E7B 
 567      9C
 568 0045 33CD3FC8 		.ascii	"3\315?\310\036\002\302"
 568      1E02C2
 569              		.text
 570              		.section	.gnu.lto_.decls.a3290799ac8b6ff,"",%progbits
 571 0000 789CBD5D 		.ascii	"x\234\275]\011x\024U\236\257\243\273s\002\001EqG\277"
 571      09781455 
 571      9EAFA3BB 
 571      73020145 
 571      7147BF
 572 0013 8933A3E3 		.ascii	"\2113\243\343:\253\201\300(\356\314\0101 \260\003\310"
 572      3AAB81C0 
 572      28EECC08 
 572      3120B003 
 572      C8
 573 0024 246186FD 		.ascii	"$a\206\375\276\231i\212\244 \031r\331\335\301\270\373"
 573      BE99698A 
 573      A4201972 
 573      D9DDC1B8 
 573      FB
 574 0035 7D6B1120 		.ascii	"}k\021 \"\212\334\247\034\001\271U\204\200\234\202\015"
 574      228ADCA7 
 574      1C01B955 
 574      84809C82 
 574      0D
 575 0046 4A0C2024 		.ascii	"J\014 $\034rj\022\271\344p\306p\311\241\220\375\277"
 575      1C726A12 
 575      B9E470C6 
 575      70C9A190 
 575      FDBF
ARM GAS  /tmp/ccUxo6N8.s 			page 44


 576 0058 A3BAAA5E 		.ascii	"\243\272\252^WUW\305\331\355\217\367\372\325\253\367"
 576      575557C5 
 576      D9ED8FF7 
 576      FAD5ABF7 
 577 0068 7EEF7FBD 		.ascii	"~\357\177\275\377;;\010\234\300\3759\201\343Z\340\323"
 577      FF3B3B08 
 577      9CC0FD39 
 577      81E35AE0 
 577      D3
 578 0079 A990E316 		.ascii	"\251\220\343\026$q\\G\216\343\236\345\310\367\"\010"
 578      24715C47 
 578      8EE39EE5 
 578      C8F72208 
 579 0089 C9104A79 		.ascii	"\311\020Jy\216{\021B\020\302(\010\177\205\340\207\220"
 579      8E7B1142 
 579      10C22808 
 579      7F85E087 
 579      90
 580 009a 2A70DCC3 		.ascii	"*p\334\303\020~\016\341\027\020\036\201\360K\010\217"
 580      107E0EE1 
 580      17101E81 
 580      F04B088F 
 581 00aa 41E80E61 		.ascii	"A\350\016a%\324\035\011\345D\370V\340\033\376\341\364"
 581      25D41D09 
 581      E544F856 
 581      E01BFEE1 
 581      F4
 582 00bb 33F0AE1F 		.ascii	"3\360\256\037\204\025\220\376\031\204\337Cz\020\204"
 582      841590FE 
 582      1984DF43 
 582      7A1084
 583 00ca 1C084320 		.ascii	"\034\010C \374\025\202\014\241\000B\011\204\211\020"
 583      FC15820C 
 583      A1004209 
 583      848910
 584 00d9 E6405802 		.ascii	"\346@X\002a\025\204\365\020\266@\330\001a\027\204Z\010"
 584      611584F5 
 584      10B640D8 
 584      01611784 
 584      5A08
 585 00eb 7B21D441 		.ascii	"{!\324A8\004\341\004\204/!|\005\341[\010\327 \334\204"
 585      3804E104 
 585      842F217C 
 585      05E15B08 
 585      D720DC84 
 586 00ff 701BC20F 		.ascii	"p\033\302\017\020x \302\013\241-\204\024\010\035!< "
 586      107820C2 
 586      0BA12D84 
 586      14081D21 
 586      3C20
 587 0111 12DA7E02 		.ascii	"\022\332~\002\321C\020\036A\017\272\017\242Q\375\360"
 587      D143101E 
 587      410FBA0F 
 587      A251FDF0 
 588 0121 CCB3FA19 		.ascii	"\314\263\372\031\304\224\031dR&\207)\223cRf\010Sf\210"
 588      C4941964 
 588      52268729 
ARM GAS  /tmp/ccUxo6N8.s 			page 45


 588      93635266 
 588      08536688 
 589 0135 491924A3 		.ascii	"I\031$\2436\360\355\343\210\254\221\354k \375K\221\310"
 589      36F0EDE3 
 589      88AC91EC 
 589      6B20FD4B 
 589      91C8
 590 0147 1CC97E31 		.ascii	"\034\311~1\325\341\277B^\003\274\177\034\276O\3027\202"
 590      D5E1BF42 
 590      5E03BC7F 
 590      1CBE4FC2 
 590      3782
 591 0159 43B2FF1B 		.ascii	"C\262\377\033\224\363P\254_\211DfHv\250\315aL\233H\037"
 591      94F350AC 
 591      5F894466 
 591      4876A8CD 
 591      614C9B48 
 592 016e 1DE0FB3A 		.ascii	"\035\340\373:\274l\313\021\273@:E\272\237D\353 \254"
 592      BC6CCB11 
 592      BB403A45 
 592      BA9F44EB 
 592      20AC
 593 0180 0721311F 		.ascii	"\007!1\037\236\347AH\003\314\347\340;\003BG\310\357"
 593      9EE74148 
 593      03CCE7E0 
 593      3B034247 
 593      C8EF
 594 0192 2C127AFC 		.ascii	",\022z\374\002\221uo\370\356\003\241\247@\352\2426\272"
 594      0291756F 
 594      F8EE03A1 
 594      A740EAA2 
 594      36BA
 595 01a4 C08BA745 		.ascii	"\300\213\247EB\023\"\001\351\341'\214.\220]\264\343"
 595      42132201 
 595      E9E1278C 
 595      2E905DB4 
 595      E3
 596 01b5 48DB2A2D 		.ascii	"H\333*-\035y\215\006T\3747\020\015\027\254\3511k\277"
 596      1D798D06 
 596      54FC3710 
 596      0D17ACE9 
 596      316BBF
 597 01c8 4030D280 		.ascii	"@0\322\200\312\214\204\347B!\332\036\220]&24 \214\027"
 597      CA8C84E7 
 597      4221DA1E 
 597      905D2632 
 597      34208C17 
 598 01dc E1F9B7A2 		.ascii	"\341\371\267\242\261\317\234\242\262\024h\275\257\250"
 598      B1CF9CA2 
 598      B21468BD 
 598      AFA8
 599 01ea BC263032 		.ascii	"\274&02Fv\016]\020\313S\321\321\375;Q\353s\327\341\371"
 599      46760E5D 
 599      10CB53D1 
 599      D1FD3B51 
 599      EB73D7E1 
 600 01ff 5991F4C3 		.ascii	"Y\221\364\303f*\243g\005\322\247D\212q\215\332=z\236"
ARM GAS  /tmp/ccUxo6N8.s 			page 46


 600      662AA367 
 600      05D2A744 
 600      8A718DDA 
 600      3D7A9E
 601 0212 45697F88 		.ascii	"Ei\177\210\241\037\365'\037gl\347\016\244\377\207\327"
 601      A11FF527 
 601      1F676CE7 
 601      0EA4FF87 
 601      D7
 602 0223 F4F92CC5 		.ascii	"\364\371,\305\237C\373\017\312[\304\320\274\204\362"
 602      9F43FB0F 
 602      CA5BC4D0 
 602      BC84F2
 603 0232 FF22D571 		.ascii	"\377\"\325q\007jS?\247\345\221\\\220<T_\241\312\243"
 603      076A533F 
 603      A7E5915C 
 603      903C545F 
 603      A1CAA3
 604 0245 079211C5 		.ascii	"\007\222\021\305\022)\316W\264\277\243z+\230vP\277\177"
 604      1229CE57 
 604      B4BFA37A 
 604      2B987650 
 604      BF7F
 605 0257 14BE7B8A 		.ascii	"\024\276{\212\232\274\177N\365\213\350U\333\215\343"
 605      9ABC7F4E 
 605      F58BE855 
 605      DB8DE3
 606 0266 487D1F67 		.ascii	"H}\037g\256\207\347D\315W\3351\223-\324\313\204\274"
 606      AE87E744 
 606      CD57DD31 
 606      932DD4CB 
 606      84BC
 607 0278 5E107C10 		.ascii	"^\020|\020zC\020D\322\267\220_\373%\345\263\007<w\203"
 607      7A431044 
 607      D2B7905F 
 607      FB25E5B3 
 607      073C7783 
 608 028c EFE7E15D 		.ascii	"\357\347\341]?\344O8\242\203'!t\206\220\016\341)\201"
 608      3FE44F38 
 608      A2832721 
 608      7486900E 
 608      E12981
 609 029f D0B38AF2 		.ascii	"\320\263\212\362\206|O[\352{\220\017\272Mm\350}\370"
 609      867C4F5B 
 609      EA7B900F 
 609      BA4D6DE8 
 609      7DF8
 610 02b1 5E4BF5F4 		.ascii	"^K\365\364\037\020~\017\241?\204\001\020\006Bx\001\302"
 610      1F107E0F 
 610      A13F8401 
 610      10064278 
 610      01C2
 611 02c3 20467FEB 		.ascii	" F\177\353\251\376\036\344\215}@\225;G\345\260\236>"
 611      A9FE1EE4 
 611      8D7D4095 
 611      3B47E5B0 
 611      9E3E
ARM GAS  /tmp/ccUxo6N8.s 			page 47


 612 02d5 6F62E489 		.ascii	"ob\344\211\374\347\303\360\335EW\377\017\"\251\037\322"
 612      FCE7C3F0 
 612      DD4557FF 
 612      0F22A91F 
 612      D2
 613 02e6 F567641F 		.ascii	"\365gd\0379\242\321\237\267\207\347\301\020\356\023"
 613      39A2D19F 
 613      B787E7C1 
 613      10EE13
 614 02f5 ADFBD71F 		.ascii	"\255\373\327\037!\275T v\361'Q\033\027\336\2010\004"
 614      21BD5420 
 614      76F12751 
 614      1B17DE81 
 614      3004
 615 0307 C95CD4EC 		.ascii	"\311\\\324\354\015\361\201\374\221\332\027\321\330\360"
 615      0DF181FC 
 615      91DA17D1 
 615      D8F0
 616 0315 6791D85F 		.ascii	"g\221\330_2\245\325O}t>\365\327\305\324w\243~\252\216"
 616      32A5D54F 
 616      7D743EF5 
 616      D7C5D477 
 616      A37EAA8E 
 617 0329 0BAA9D22 		.ascii	"\013\252\235\"Qm\027\210\337`\373\355\016*\363n:\276"
 617      516D1788 
 617      DF60FBED 
 617      0E2AF36E 
 617      3ABE
 618 033b 591B4074 		.ascii	"Y\033@t\252<\351\307\253\316\364y\007\325\343m*'\266"
 618      AA3CE9C7 
 618      ABCEF479 
 618      07D5E36D 
 618      2A27B6
 619 034e 8D5D3FA2 		.ascii	"\215]?\242\215t\372\274+F\033\265?\242\215n\364\271"
 619      8D74FABC 
 619      2B461BB5 
 619      3FA28D6E 
 619      F4B9
 620 0360 36461B7B 		.ascii	"6F\033{i\033\310\366\335\266\361$}\336\033\243\215:"
 620      691BC8F6 
 620      DDB6F124 
 620      7DDE1BA3 
 620      8D3A
 621 0372 DAC683AD 		.ascii	"\332\306\203\255\340\343)\372\\\027\243\215C\324G!;"
 621      E0E329FA 
 621      5C17A38D 
 621      43D44721 
 621      3B
 622 0383 53FD03DB 		.ascii	"S\375\003\333\006\222\243\276\035d\2575\224\2568\306"
 622      0692A3BE 
 622      1D64AF35 
 622      94AE38C6 
 623 0393 06D2A90C 		.ascii	"\006\322\251\014\237\324\321pHG\003\352jG\205h:\222"
 623      9FD4D170 
 623      484703EA 
 623      6A478568 
 623      3A92
ARM GAS  /tmp/ccUxo6N8.s 			page 48


 624 03a5 B8098A52 		.ascii	"\270\011\212R\241TU*}k\333v\340\246(\360I\255\005\312"
 624      A154552A 
 624      7D6BDB76 
 624      E0A628F0 
 624      49AD05CA 
 625 03b9 86F012DF 		.ascii	"\206\360\022\3376\201\033\212\023\311\011X\010\217p"
 625      36811B8A 
 625      13C90958 
 625      088F70
 626 03c8 4B146572 		.ascii	"K\024er\323\331\257;)\036\211_\314w\000\330\247y\356"
 626      D3D9AF3B 
 626      291E895F 
 626      CC7700D8 
 626      A779EE
 627 03db 716E25D4 		.ascii	"qn%\324\232\254(;\037\345\271\350O,T\216\223\370e\200"
 627      9AAC283B 
 627      1FE5B9E8 
 627      4F2C548E 
 627      93F86580 
 628 03ef 25F14BF9 		.ascii	"%\361K\371\307I\033JxkM2j\003\345s\364\215\311\347a"
 628      C7491B4A 
 628      786B4D32 
 628      6A03E573 
 628      F48DC9E7 
 629 0404 AE0A15DE 		.ascii	"\256\012\025\336V3\217W\252v\362\016\351?T\363\241\250"
 629      56338F57 
 629      AA76F20E 
 629      E93F54F3 
 629      A1A8
 630 0416 28F112BF 		.ascii	"(\361\022\277\022s0\216\347\015-\304B\021\270)\270\306"
 630      1273308E 
 630      E70D2DC4 
 630      4211B829 
 630      B8C6
 631 0428 BB2CCD27 		.ascii	"\273,\315'\027\361\251$;6\311_\236MP\246&\2334\325S"
 631      17F1A924 
 631      3B36C95F 
 631      9E4D50A6 
 631      269B34D5 
 632 043d 6D2A5E23 		.ascii	"m*^#\370\306\204\375S\370\261\212\002/\326`\222\017"
 632      F8C684FD 
 632      53F8B18A 
 632      022FD660 
 632      920F
 633 044f 9B935CD5 		.ascii	"\233\223\\\325\323\012H\340\316\340*\353\030\232\233"
 633      D30A48E0 
 633      CEE02AEB 
 633      189A9B
 634 045e 4ED61D1E 		.ascii	"N\326\035\036\315\217\306\320\353\034\020^\021\376\274"
 634      CD8FC6D0 
 634      EB1C105E 
 634      11FEBC
 635 046d 72FE0348 		.ascii	"r\376\003H\326\261\014\247\312\243\266\337Kc\344\273"
 635      D6B10CA7 
 635      CAA3B6DF 
 635      4B63E4BB 
 636 047d 099FF058 		.ascii	"\011\237\360X\362\2330\033\253\204\230\2227\302\010"
ARM GAS  /tmp/ccUxo6N8.s 			page 49


 636      F29B301B 
 636      AB849892 
 636      37C208
 637 048c DC3A5C65 		.ascii	"\334:\\ek\024\033\223\032T6\266:b\343{\312\206\304o"
 637      6B141B93 
 637      1A5436B6 
 637      3A62E37B 
 637      CA86C46F 
 638 04a0 0456046E 		.ascii	"\004V\004n[\004\2276\234\252\266\213F\034\232$\037Z"
 638      5B049736 
 638      9CAAB68B 
 638      461C9A24 
 638      1F5A
 639 04b2 C08877B7 		.ascii	"\300\210w\267&y\262\244\202}\342\032,\325\0006\355\323"
 639      2679B2A4 
 639      827DE21A 
 639      2CD50036 
 639      EDD3
 640 04c4 7998B804 		.ascii	"y\230\270\004n\274&c\316\024\214\012v\343\221\375\007"
 640      6EBC2663 
 640      CE148C0A 
 640      76E391FD 
 640      07
 641 04d5 F83198FF 		.ascii	"\3701\230\377\217\241\232\300M\027\215\242u\016uk\356"
 641      8FA19AC0 
 641      4D178DA2 
 641      750E756B 
 641      EE
 642 04e6 AE1D7C05 		.ascii	"\256\035|\005\206\252\301P;Z\015\365\301\202\017\237"
 642      86AAC150 
 642      3B5A0DF5 
 642      C1820F9F 
 643 04f6 C1EADE8D 		.ascii	"\301\352\336\215\201Z\030 \211\217\213\2101\362\254"
 643      815A1820 
 643      898F8B88 
 643      31F2AC
 644 0505 164068F8 		.ascii	"\026@h\3705M\240\005a;\356\377\270\270\300M\3608P]\274"
 644      354DA005 
 644      613BEEFF 
 644      B8B8C04D 
 644      F038505D 
 645 051a 951D284D 		.ascii	"\225\035(M'&\235\345\347(\341\261\242\332%}V2\0027\202"
 645      27269DE5 
 645      E728E1B1 
 645      A2DA257D 
 645      56320237 
 646 052f DBDACFDA 		.ascii	"\333\332\317\332\362\325S\365O\314V\224\024\362*\266"
 646      F2D553F5 
 646      4FCC5694 
 646      14F22AB6 
 647 053f 296FDC3B 		.ascii	")o\334;\313Y\217\364\251\315\347\341\346\017\341\346"
 647      CB598FF4 
 647      A9CDE7E1 
 647      E60FE1E6 
 648 054f 0FB1CDB7 		.ascii	"\017\261\315\267\234;\377,i\376\220\243\346\033\353"
 648      9C3BFF2C 
 648      69FE90A3 
ARM GAS  /tmp/ccUxo6N8.s 			page 50


 648      E61BEB
 649 055e A647372F 		.ascii	"\246G7/\361\317v\264\263\214\253\247\232\037[\210\033"
 649      F1CF76B4 
 649      B38CABA7 
 649      9A1F5B88 
 649      1B
 650 056f 398A7BCC 		.ascii	"9\212{\314|/k\032=\222\214\312\203g]\001\201[\346U\251"
 650      7C2F6B1A 
 650      3D928CCA 
 650      83675D01 
 650      815BE655 
 651 0584 6F558705 		.ascii	"oU\207\0056\303=VV+\312k>\225\206U\256\021S\015\202"
 651      36C33D56 
 651      562BCA6B 
 651      3E958655 
 651      AE11530D 
 652 0599 B852875D 		.ascii	"\270R\207]\000\001[\355\004\314\322\216*\302\327\364"
 652      00015BED 
 652      04CCD28E 
 652      2AC2D7F4 
 653 05a9 60D5AEC1 		.ascii	"`\325\256\301\214\224}\247\007\333\340\004,\305\232"
 653      8C947DA7 
 653      07DBE004 
 653      2CC59A
 654 05b8 B29B7AB0 		.ascii	"\262\233z\260-\256\301\214\224\335\326\203mw\002\326"
 654      2DAEC18C 
 654      94DDD683 
 654      6D7702D6 
 655 05c8 C99AB21F 		.ascii	"\311\232\262\037\364`;]\203\031)\273\253\007\253q\002"
 655      F4603B5D 
 655      831929BB 
 655      AB07AB71 
 655      02
 656 05d9 966A4DD9 		.ascii	"\226jM\331\344\203:\260=\256\301\214\224M\325\203\355"
 656      E4833AB0 
 656      3DAEC18C 
 656      944DD583 
 656      ED
 657 05ea 7702F698 		.ascii	"w\002\366\2305e\323\365`\007]\203\031)\233\251\007;"
 657      3565D3F5 
 657      60075D83 
 657      19299BA9 
 657      073B
 658 05fc E204ACB3 		.ascii	"\342\004\254\2635e\263\365`'\\\203\031)\233\253\007"
 658      3565B3F5 
 658      60275C83 
 658      19299BAB 
 658      07
 659 060d 6B7002D6 		.ascii	"kp\002\326\335\232\262yz\260S\256\301\214\224\255\321"
 659      DD9AB279 
 659      7AB053AE 
 659      C18C94AD 
 659      D1
 660 061e 839D7302 		.ascii	"\203\235s\002\326\323\232\262j=\330\005\327`F\312\326"
 660      D6D39AB2 
 660      6A3DD805 
 660      D76046CA 
ARM GAS  /tmp/ccUxo6N8.s 			page 51


 660      D6
 661 062f EBC1BE71 		.ascii	"\353\301\276q\002\326\327\232\262\015z\260o]\203\031"
 661      02D6D79A 
 661      B20D7AB0 
 661      6F5D8319 
 662 063f 29DBA407 		.ascii	")\333\244\007\273\342\004l\2205e[\364`\327]\203\031"
 662      BBE2046C 
 662      9035655B 
 662      F460D75D 
 662      8319
 663 0651 29FB500F 		.ascii	")\373P\017v\323\011\330\020k\312\266\353\301~p\015f"
 663      76D309D8 
 663      106BCAB6 
 663      EBC17E70 
 663      0D66
 664 0663 A4AC5E0F 		.ascii	"\244\254^\017\246\370\034\200\0155\241,\3621\253\207"
 664      A6F81C80 
 664      0D35A12C 
 664      F231AB87 
 665 0673 86E9837C 		.ascii	"\206\351\203|d\334\026\2701>u\202\343r\214\3464\214"
 665      64DC16B8 
 665      313E7582 
 665      E3728CE6 
 665      348C
 666 0685 577D6E27 		.ascii	"W}n'd\006\276aepn\021?m\214R\333Y\235\235Ot\202h3\000"
 666      6406BE61 
 666      65706E11 
 666      3F6D8C52 
 666      DB599D9D 
 667 069f CEFD5437 		.ascii	"\316\375T7\325\237\341\032\2141e\004f\230:\321\351u"
 667      D59FE11A 
 667      8C316504 
 667      66983AD1 
 667      E975
 668 06b1 D3D270A7 		.ascii	"\323\322p\247\331\332\344-^\305\302\233\011x\246\006"
 668      D9DAE42D 
 668      5EC5C29B 
 668      0978A606 
 669 06c1 0B6E2152 		.ascii	"\013n!RX\351\324\311\274\254\304O\027\036\201x\206\220"
 669      58E9D4C9 
 669      BCACC44F 
 669      171E8178 
 669      8690
 670 06d3 10A182A4 		.ascii	"\020\241\202\244\325T\013\217\344<\337g\266v\307\000"
 670      D5540B8F 
 670      E43CDF67 
 670      B676C700 
 671 06e3 F655AD2C 		.ascii	"\366U\255,a\252\240\263\204\305N\304d3\2647~:\357~\245"
 671      61AAA0B3 
 671      84C54EC4 
 671      6433B437 
 671      7E3AEF7E 
 672 06f8 29CCEBF8 		.ascii	")\314\353\370\265\025\016\254\210f\356SWDs\004\264\372"
 672      B5150EAC 
 672      8866EE53 
 672      57447304 
 672      B4FA
ARM GAS  /tmp/ccUxo6N8.s 			page 52


 673 070a 58E9335D 		.ascii	"X\3513]\3068\200\2725\367\275_\341e\314<\014T\335j\240"
 673      C63880BA 
 673      35F7BD5F 
 673      E165CC3C 
 673      0C54DD6A 
 674 071f 0F162CE8 		.ascii	"\017\026,\350\216\201\026b\240-\014\220\304\363\314"
 674      8E811662 
 674      A02D0C90 
 674      C4F3CC
 675 072e 7A8837AE 		.ascii	"z\2107\256X\370\004-\321bT\327?\265,\254`Y}\031\330"
 675      58F8042D 
 675      D16254D7 
 675      3FB52CAC 
 675      60597D19 
 676 0743 89397B6A 		.ascii	"\2119{j:Ywg\012\177\265B\231\335\331\205\306\216|\246"
 676      3A597767 
 676      0A7FB542 
 676      99DDD985 
 676      C68E7CA6 
 677 0757 6A6C0996 		.ascii	"jl\011\226\317gQ\362\231'\270\023\220\300\035v\315\310"
 677      CF6751F2 
 677      9927B813 
 677      90C01D76 
 677      CDC8
 678 0769 63464626 		.ascii	"cFF&}2\325=#\021\323[\211\031\371\342\237\300\310\031"
 678      7D32D53D 
 678      2311D35B 
 678      8919F9E2 
 678      9FC0C819 
 679 077d D78C74D6 		.ascii	"\327\214t\3261\202vH\256O%~\360\036n\252\375\312\024"
 679      31827648 
 679      AE4F257E 
 679      F01E6EAA 
 679      FDCA14
 680 0790 D1B35AB8 		.ascii	"\321\263Z\270\307\270\271u|\017\332\334B\331\2617\267"
 680      C7B8B975 
 680      7C0FDADC 
 680      42D9B137 
 680      B7
 681 07a1 6EECD1ED 		.ascii	"n\354\321\355_(\216\366/f\326\251\"[\213Ev\311\254\223"
 681      5F288EF6 
 681      2F66D6A9 
 681      225B8B45 
 681      76C9AC93 
 682 07b5 3982BA75 		.ascii	"9\202\272u\342\223\265t\377b=\206\272\334j\250\017\032"
 682      E293B574 
 682      FF623D86 
 682      BADC6AA8 
 682      0F1A
 683 07c7 3692FEBA 		.ascii	"6\222\376\272\021\003\335\212R"
 683      1103DD8A 
 683      52
 684 07d0 A38FD1A2 		.ascii	"\243\217\321\242\317\250ExD-\335D\273\013\374+4\007"
 684      CFA84578 
 684      442DDD44 
 684      BB0BFC2B 
 684      3407
ARM GAS  /tmp/ccUxo6N8.s 			page 53


 685 07e2 3DC471FF 		.ascii	"=\304q\377\357\365`4\216\343\251b]\216\306\021\013:"
 685      EFF56034 
 685      8EE3A962 
 685      5D8EC611 
 685      0B3A
 686 07f4 3B551D49 		.ascii	";U\035I\211\222&\374(\304\212\360\272\327\325M\270\036"
 686      899226FC 
 686      28C48AF0 
 686      BAD7D54D 
 686      B81E
 687 0806 682C9DF6 		.ascii	"h,\235\366#\341\016\354u\275m6\363\260jva\314\321\334"
 687      23E10EEC 
 687      75BD6D36 
 687      F3B06A76 
 687      61CCD1DC 
 688 081a 3856C535 		.ascii	"8V\3055\254Ov\262\213\264\254\265\234D>\002\367^\234"
 688      AC4F76B2 
 688      8BB4ACB5 
 688      9C443E02 
 688      F75E9C
 689 082d 832133D5 		.ascii	"\203!3\325F]u7\250\272bnE\251\333\314{jF\323m\346\032"
 689      465D7537 
 689      A8BA626E 
 689      45A9DBCC 
 689      7B6A46D3 
 690 0844 01EDCFAE 		.ascii	"\001\355\317\256e\244\341`O+\214\253\354\026\242\366"
 690      65A4E160 
 690      4F2B8CAB 
 690      EC16A2F6 
 691 0854 67F7A9FB 		.ascii	"g\367\251\373\263\350\235\203M-\303\376\254\304\177"
 691      B3E89D83 
 691      4D2DC3FE 
 691      ACC47F
 692 0863 C40B14B7 		.ascii	"\304\013\024\267\265\0225(Q#P\342\367\342\371\321g\302"
 692      B5123528 
 692      512350E2 
 692      F7E2F9D1 
 692      67C2
 693 0875 C37AE9D7 		.ascii	"\303z\351\327\273\226~\252^\372\341\357\367\222#\011"
 693      BB967EAA 
 693      5EFAE1EF 
 693      F7922309 
 694 0885 75C7FE04 		.ascii	"u\307\376\004\213\327S?w\245I\313u\272\022\236\272\037"
 694      8BD7533F 
 694      77A549CB 
 694      75BA129E 
 694      BA1F
 695 0897 4F3A49BF 		.ascii	"O:I\277;\353\2048\233\245\365\002\002FL\376\222k\260"
 695      3BEB8438 
 695      9BA5F502 
 695      02464CFE 
 695      926BB0
 696 08aa 5403D8B6 		.ascii	"T\003\330\2667\235\035\010(\274~:,p\337\341v\217\260"
 696      379D1D08 
 696      28BC7E3A 
 696      2C70DFE1 
 696      768FB0
ARM GAS  /tmp/ccUxo6N8.s 			page 54


 697 08bd 9672ABA5 		.ascii	"\226r\253\245\376Uj)G\034X\012\0146\370$E\225\363\232"
 697      FE556A29 
 697      471C580A 
 697      0C36F824 
 697      4595F39A 
 698 08d1 7815D546 		.ascii	"x\025\325F\316fv\242\236\013\\\330\315c82\275\337\304"
 698      CE6676A2 
 698      9E0B5CD8 
 698      CD633832 
 698      BDDFC4
 699 08e4 C2C55C7D 		.ascii	"\302\305\\}\030\341\356\312\265\235\335\011\206\364"
 699      18E1EECA 
 699      B59DDD09 
 699      86F4
 700 08f2 C5F0C9CD 		.ascii	"\305\360\311\315h\270m\304\3350\034\317:%\"\031\235"
 700      68B86DC4 
 700      DD301CCF 
 700      3A252219 
 700      9D
 701 0903 3D1FD1D9 		.ascii	"=\037\321\331\3631l\317\307\301\236%\376$\216\277\324"
 701      F3316CCF 
 701      C7C19E25 
 701      FE248EBF 
 701      D4
 702 0914 DBB6D588 		.ascii	"\333\266\325\210\337\240\237\257\327\272\346;\225\321"
 702      DFA09FAF 
 702      D7BAE63B 
 702      95D1
 703 0922 8E55339F 		.ascii	"\216U3\237\353\233\251\213w`{\326;1\340V>\237\246\016"
 703      EB9BA98B 
 703      77607BD6 
 703      3B31E056 
 703      3E9FA60E 
 704 0936 49E4DCE3 		.ascii	"I\344\334\343\270kD\2435_~\3230$\235q\002\327\323\204"
 704      B86B44A3 
 704      355F7ED3 
 704      30249D71 
 704      02D7D384 
 705 094a 40B38FFE 		.ascii	"@\263\217\376\334J\342\267\361HM\333y\244\2400\216w"
 705      DC4AE2B7 
 705      F1484DDB 
 705      79A4A030 
 705      8E77
 706 095c E2781F8E 		.ascii	"\342x\037\216'b\305M\302\361\024\034\317\306\361\333"
 706      2762C54D 
 706      C2F1141C 
 706      CFC6F1DB 
 707 096c 385E81E3 		.ascii	"8^\201\343\367p\274\013\307\373q\\\217\343\2038>\214"
 707      F770BC0B 
 707      C7FB715C 
 707      8FE38338 
 707      3E8C
 708 097e E333383E 		.ascii	"\34338>\347\304\000\210\243\215\230\231\352s\327\265"
 708      E7C40088 
 708      A38D9899 
 708      EA73D7B5 
 709 098e FA4CEC88 		.ascii	"\372L\354\210v&&\361;\\\203\261\026e\220\344:\235$?"
ARM GAS  /tmp/ccUxo6N8.s 			page 55


 709      762626F1 
 709      3B5C83B1 
 709      166590E4 
 709      3A9D243F 
 710 09a2 C092DC80 		.ascii	"\300\222\334\200\345v\336\350\306\277\211WOj[\343\016"
 710      E576DEE8 
 710      C6BF8957 
 710      4F6A5BE3 
 710      0E
 711 09b3 94A64395 		.ascii	"\224\246C\225\037>\203\217s\334Le?W\347\024\227\260"
 711      1F3E838F 
 711      73DC4C65 
 711      3F57E714 
 711      97B0
 712 09c5 83BD16D5 		.ascii	"\203\275\026\325}\327\263\263\177W\363\270\333,ON}\222"
 712      7DD7B3B3 
 712      7F57F3B8 
 712      DB2C4F4E 
 712      7D92
 713 09d7 B924DFD5 		.ascii	"\271$\337\325Ir5\226\344\373X\222\027\215\222T\022P"
 713      49723596 
 713      E4FB5892 
 713      178D9254 
 713      1250
 714 09e9 ABCBB456 		.ascii	"\253\313\264V\207\252M%\333K\322\274\325e\272V\227\343"
 714      87AA4D25 
 714      DB4BD2BC 
 714      D565BA56 
 714      97E3
 715 09fb 5657F00E 		.ascii	"VW\360\016lt\221\266\275dp\253\355\271\311X==g\267%"
 715      6C7491B6 
 715      BD6470AB 
 715      EDB9C958 
 715      3D3D67B7 
 716 0a10 3B135600 		.ascii	";\023V\000\227\205\3668e\320'\331;\263\250qE\267\373"
 716      9785F638 
 716      65D027D9 
 716      3BB3A871 
 716      45B7FB
 717 0a23 919CA025 		.ascii	"\221\234\240%\304\030\2446k\216\316\371\204t\341\252"
 717      C418A436 
 717      6B8ECEF9 
 717      8474E1AA 
 718 0a33 AFFEFD7D 		.ascii	"\257\376\375}|.v\225l\021$\260\266\343eL\307k4\035o"
 718      7C2E7695 
 718      6C1124B0 
 718      B6E3654C 
 718      C76B341D 
 719 0a48 8296A0D3 		.ascii	"\202\226\240\323\321\230\343\217\240\237\317PB\246\255"
 719      D198E38F 
 719      A09FCF50 
 719      42A6AD
 720 0a57 DEFD0A31 		.ascii	"\336\375\0121\342\033x\014z-1\346Q\275\021\007\321v"
 720      E21B780C 
 720      7A2D31E6 
 720      51BD1107 
 720      D176
ARM GAS  /tmp/ccUxo6N8.s 			page 56


 721 0a69 9B19DCC3 		.ascii	"\233\031\334\303G\033\360\255\216\333\216\246\200\215"
 721      471BF0AD 
 721      8EDB8EA6 
 721      808D
 722 0a77 0D0BA227 		.ascii	"\015\013\242'\026\367q3\250\336\024>dy\312\210\300\357"
 722      16F77133 
 722      A8DE143E 
 722      6479CA88 
 722      C0EF
 723 0a89 0AF7E194 		.ascii	"\012\367\341\224\210\357\276\304\224BSd\024~0\"\205"
 723      88EFBEC4 
 723      94425364 
 723      147E3022 
 723      85
 724 0a9a F097271F 		.ascii	"\360\227'\037B\364\216\026\221\010\246\307\026\201\021"
 724      42F48E16 
 724      9108A6C7 
 724      168111
 725 0aa9 44E2C788 		.ascii	"D\342\307\210\310\351\241\303`\203\030\356,\304b@\371"
 725      C8E9A1C3 
 725      608318EE 
 725      2CC46240 
 725      F9
 726 0aba B1C530E3 		.ascii	"\261\3050\343\324yq\226\022\036-\306q\225x\003b\\E\254"
 726      D4797196 
 726      121E2DC6 
 726      71957803 
 726      625C45AC 
 727 0ace 0D8896EA 		.ascii	"\015\210\226\352\013\235\210\362^\205Z\002w\210\241"
 727      0B9D88F2 
 727      5E855A02 
 727      7788A1
 728 0add DC0112A2 		.ascii	"\334\001\022\242k\002T6\320=\255\262\035\242\033\345"
 728      6B025436 
 728      D03DADB2 
 728      1DA21BE5 
 729 0aed DBD08D05 		.ascii	"\333\320\215\005.p\215\211D\030\236\004-\357\222\226"
 729      2E708D89 
 729      44189E04 
 729      2DEF9296 
 730 0afd C7EB8A5E 		.ascii	"\307\353\212^\327\262\325+\201\350\321v\013K#N\342_"
 730      D7B2D52B 
 730      81E8D176 
 730      0B4B234E 
 730      E25F
 731 0b0f 17910379 		.ascii	"\027\221\003yC\024M\253\201\357J\342\251\032\314X\215"
 731      43144DAB 
 731      81EF4AE2 
 731      A91ACC58 
 731      8D
 732 0b20 39904167 		.ascii	"9\220Ag\270<\236?\360\3658e\315P7J\270\374\000Q\302"
 732      B83C9E3F 
 732      F0F53865 
 732      CD50374A 
 732      B8FC0051 
 733 0b35 74AC84CA 		.ascii	"t\254\204\312\244V)a\026\253\204\017\210\022f9R\302"
 733      A4562961 
ARM GAS  /tmp/ccUxo6N8.s 			page 57


 733      16AB840F 
 733      88126639 
 733      52C2
 734 0b47 F4A46825 		.ascii	"\364\244h%,J2U\302\232$\367J\230\245S\302l\254\2049"
 734      2C4A3255 
 734      C29A24F7 
 734      4A98A553 
 734      C26CAC84 
 735 0b5c 964AD8E1 		.ascii	"\226J\330\341Z\011\361\214\022\016\274\326\012%\334"
 735      5A09F18C 
 735      120EBCD6 
 735      0A25DC
 736 0b6b FA17A284 		.ascii	"\372\027\242\204EX\011\273[\247\204%\254\022\216\022"
 736      455809BB 
 736      5BA78425 
 736      AC128E12 
 737 0b7b 252C71A4 		.ascii	"%,q\244\204\243&J8c\256\204\253\255P\302\022\235\022"
 737      84A3264A 
 737      3863AE84 
 737      ABAD50C2 
 737      129D12
 738 0b8e 9662252C 		.ascii	"\226b%,\263T\302\330d\267JHa{\302k\374W\313+\025\346"
 738      B354C2D8 
 738      64B74A48 
 738      617BC26B 
 738      FC57CB2B 
 739 0ba4 D042DD19 		.ascii	"\320B\335\031\000Q[\216\010\022\177\023\257L\264Q\001"
 739      00515B8E 
 739      08127F13 
 739      AF4CB451 
 739      01
 740 0bb5 E5FDE064 		.ascii	"\345\375\340dj\272Z\324-\032\336`yp:\223\244\016\365"
 740      6ABA5AD4 
 740      2D1ADE60 
 740      79703A93 
 740      A40EF5
 741 0bc8 8B53B568 		.ascii	"\213S\265h\211\327\232\001\241\351\350\251[\257\361"
 741      89D79A01 
 741      A1E9E8A9 
 741      5BAFF1
 742 0bd7 6BF100BD 		.ascii	"k\361\000\275\016\017\012u\311.\007\005\304\316\006"
 742      0E0F0A75 
 742      C92E0705 
 742      C4CE06
 743 0be6 7640988F 		.ascii	"v@\230\217HB\033\215\033b\017\011c\307\204\327\236\252"
 743      48421B8D 
 743      1B620F09 
 743      63C784D7 
 743      9EAA
 744 0bf8 15B459E9 		.ascii	"\025\264Y\351\030\333\211\205\304\177\212\247WN\266"
 744      18DB8985 
 744      C47F8AA7 
 744      574EB6
 745 0c07 ADBEC4CC 		.ascii	"\255\276\304\314lp!Y#]\325D\262\022\277YD\366\333\344"
 745      6C702159 
 745      235DD544 
 745      B212BF59 
ARM GAS  /tmp/ccUxo6N8.s 			page 58


 745      44F6DBE4 
 746 0c1b 1A2ED500 		.ascii	"\032.\325\000\267\336\010w\332\011\234\325Z\034\340"
 746      B7DE0877 
 746      DA099CD5 
 746      5A1CE0
 747 0c2a 3618E1BE 		.ascii	"6\030\341\276v\015g\244n\223\021\356\222\0238\253SE"
 747      760D67A4 
 747      6E9311EE 
 747      921338AB 
 747      5345
 748 0c3c 80DB6284 		.ascii	"\200\333b\204\373\3265\234\221\272\017\215pW\235\300"
 748      FBD6359C 
 748      91BA0F8D 
 748      70579DC0 
 749 0c4c 999DBF99 		.ascii	"\231\235\277\231}\364\006\014\313;\354r6\211h\315\260"
 749      7DF4060C 
 749      CB3BEC72 
 749      368968CD 
 749      B0
 750 0c5d 15C7DB70 		.ascii	"\025\307\333p\374\021\216w\340\370c\034\357\022\035"
 750      FC118E77 
 750      E0F8631C 
 750      EF121D
 751 0c6c 74F56A7D 		.ascii	"t\365j}W\277\351\244\253[o\277\2401\343u\376\000vW\352"
 751      57BFE9A4 
 751      AB5B6FBF 
 751      A031E375 
 751      FE007657 
 752 0c81 6DC6BBAE 		.ascii	"m\306\273\256!S\365\220\341;\247\232E\334\367\034\370"
 752      2153F590 
 752      E13BA79A 
 752      45DCF71C 
 752      F8
 753 0c92 3FC31289 		.ascii	"?\303\022\211z\220\371\027w\377\026\215H\261n\031K\374"
 753      7A90F917 
 753      77FF168D 
 753      48B16E19 
 753      4BFC
 754 0ca4 3E10AC93 		.ascii	">\020\254\223\273\323u\2547\271\276\037O/\353\034M/"
 754      BBD375AC 
 754      37B9BE1F 
 754      4F2FEB1C 
 754      4D2F
 755 0cb6 6F38DCBE 		.ascii	"o8\334\276\013\363z3\211\270\303\335\317\222\341\365"
 755      0BF37A33 
 755      89B8C3DD 
 755      CF92E1F5 
 756 0cc6 10F686FB 		.ascii	"\020\366\206\373\332\304\364\206F\034\274w\305\322\277"
 756      DAC4F486 
 756      461CBC77 
 756      C5D2BF
 757 0cd5 AE0ED37F 		.ascii	"\256\016\323\177\304\221/\334H\257\037F\234\016&\341"
 757      C4912FDC 
 757      48AF1F46 
 757      9C0E26E1 
 758 0ce5 48AB7DD8 		.ascii	"H\253}\330&r\357\213\272\034\327`\251\006\260-z\260"
 758      2672EF8B 
ARM GAS  /tmp/ccUxo6N8.s 			page 59


 758      BA1CD760 
 758      A906B02D 
 758      7AB0
 759 0cf7 F34EC06C 		.ascii	"\363N\300l\374\327\207z\260o\\\203\031)\333\256\007"
 759      FCD7877A 
 759      B06F5C83 
 759      1929DBAE 
 759      07
 760 0d08 BBEC04CC 		.ascii	"\273\354\004\314\306w\325\353\301\276s\015\226j\246"
 760      C677D5EB 
 760      C1BE730D 
 760      966AA6
 761 0d17 5E2ECA3A 		.ascii	"^.\312:$\376(v5\307\26039\201\343/p\334\200\343&\034"
 761      24FE2876 
 761      35C7B033 
 761      3981E32F 
 761      70DC80E3 
 762 0d2d 9F72E264 		.ascii	"\237r\342d\016\352\235\314mLp]\353,\006\234\314\374"
 762      0EEA9DCC 
 762      6D4C705D 
 762      EB2C069C 
 762      CCFC
 763 0d3f 8B5FFD66 		.ascii	"\213_\375f\013\276I\312\\\201E\362\260\242\340\234\236"
 763      0BBE49CA 
 763      5C8145F2 
 763      B0A2E09C 
 763      9E
 764 0d50 82D16DDD 		.ascii	"\202\321m\335R\220\252\247 \374\375~r;B\275\241P\311"
 764      5290AAA7 
 764      20FCFD7E 
 764      723B42BD 
 764      A150C9
 765 0d63 E299CDF2 		.ascii	"\342\231\315\362\354v\255\367'\255\031\252\202Mt\015"
 765      EC76ADF7 
 765      27AD19AA 
 765      824D740D 
 766 0d73 6698B787 		.ascii	"f\230\267\207'\327\351\300f\271\006K\211\262\010b\013"
 766      27D7E9C0 
 766      66B9064B 
 766      89B20862 
 766      0B
 767 0d84 F5D8160E 		.ascii	"\365\330\026\016`\235\237\305\361y\034_\304\3617z+\020"
 767      609D9FC5 
 767      F1791C5F 
 767      C4F1377A 
 767      2B10
 768 0d96 B8056DD9 		.ascii	"\270\005m\331m\024\342\034u\250\232\027\345\234\342"
 768      6D14E21C 
 768      75A89A17 
 768      E59CE2
 769 0da5 5AE976AF 		.ascii	"Z\351v\257^\267k\333:\030o\254o\033\241!\354\015:\343"
 769      5EB76BDB 
 769      3A186FAC 
 769      6F1BA121 
 769      EC0D3AE3 
 770 0db9 26C802B7 		.ascii	"&\310\002\267\3215\244\316\\\240\273\316?}^\234\255"
 770      D135A4CE 
ARM GAS  /tmp/ccUxo6N8.s 			page 60


 770      5CA0BBCE 
 770      3F7D5E9C 
 770      AD
 771 0dca 842BD4E9 		.ascii	"\204+\324\351\243R\251<\266\242\255N\342\024\002\255"
 771      A352A93C 
 771      B6A2AD4E 
 771      E21402AD 
 772 0dda 40225760 		.ascii	"@\"W`6\376\033LP\351F\226]\005\211\277\2065#\032\347"
 772      36FE1B4C 
 772      50E94696 
 772      5D0589BF 
 772      8635231A 
 773 0def 9B628296 		.ascii	"\233b\202\226hiA?`\344\2661Jq\000\036\271G\263\234\374"
 773      6869413F 
 773      60E4B631 
 773      4A71001E 
 773      B947B39C 
 774 0e04 AEE006F6 		.ascii	"\256\340\006\36685Q\332\025\231M\262X\304\270*,p\007"
 774      383551DA 
 774      15994DB2 
 774      58C4B82A 
 774      2C7007
 775 0e17 58051888 		.ascii	"X\005\030\210t=\233\032\253sq\343\260\360*\261\261M"
 775      743D9B1A 
 775      AB7371E3 
 775      B0F02AB1 
 775      B14D
 776 0e29 C371158E 		.ascii	"\303q\025\216\337\303\361Z\034\327\342x\017\216\233"
 776      DFC3F15A 
 776      1CD7E278 
 776      0F8E9B
 777 0e38 717CC589 		.ascii	"q|\305\211Y*\232YJ\374`\321\266|d\027\360B\311\012\274"
 777      592A9A59 
 777      4AFC60D1 
 777      B67C6417 
 777      F042C90A 
 778 0e4d DAB92320 		.ascii	"\332\271# \313;\312H\232qxh\313\315\252\365;\242\341"
 778      CB3BCA48 
 778      9A717868 
 778      CBCDAAF5 
 778      3BA2E1
 779 0e60 74C12000 		.ascii	"t\301 \000\346\035\014\342\270\235\333\356O{\325I\015"
 779      E61D0CE2 
 779      B89DDBEE 
 779      4F7BD549 
 779      0D
 780 0e71 DD3A54E9 		.ascii	"\335:T\351\276\350\032/\325\200w\267\001\017p\004\354"
 780      BEE81A2F 
 780      D58077B7 
 780      010F7004 
 780      EC
 781 0e82 9A13301B 		.ascii	"\232\0230\033\357:\263\221\275\362\347|Ss\234\307\260"
 781      EF3AB391 
 781      BDF2E77C 
 781      53739CC7 
 781      B0
 782 0e93 A949941A 		.ascii	"\251I\224\032y\270N\354\336\241v\303o-\270\027oCz\020"
ARM GAS  /tmp/ccUxo6N8.s 			page 61


 782      79B84EEC 
 782      DEA176C3 
 782      6F2DB817 
 782      6F437A10 
 783 0ea7 5777EC55 		.ascii	"Ww\354U\213\032\266\"j\202\307Z\265\314;\201{\265\235"
 783      8B1AB622 
 783      6A82C75A 
 783      B5CC3B81 
 783      7BB59D
 784 0eba 5BE91955 		.ascii	"[\351\031U\261\260\361G\355\012\277i#@\307\333\364\341"
 784      B1B0F147 
 784      ED0ABF69 
 784      2340C7DB 
 784      F4E1
 785 0ecc 436F7544 		.ascii	"CouD\222\233\202\267i\246\264\373'\334\031q\241\266"
 785      929B82B7 
 785      69A6B4FB 
 785      27DC1971 
 785      A1B6
 786 0ede AD446D13 		.ascii	"\255Dm\023\261\332\346\267\263U\333\2336j\233i\243\266"
 786      B1DAE6B7 
 786      B355DB9B 
 786      366A9B69 
 786      A3B6
 787 0ef0 99ACDA96 		.ascii	"\231\254\332\226;Q\233\315\245\331\315\215j\217$\313"
 787      3B519BCD 
 787      A5D9CD8D 
 787      6A8F24CB 
 788 0f00 B035AEF1 		.ascii	"\2605\256\361\214fP\2770\271~(\261x\201\333\300\202"
 788      8C6650BF 
 788      30B97E28 
 788      B17881DB 
 788      C082
 789 0f12 39F5C714 		.ascii	"9\365\307\024\354\230\036l\213k0\303\026Y\270Y\017\266"
 789      EC981E6C 
 789      8B6B30C3 
 789      1659B859 
 789      0FB6
 790 0f24 DD35586A 		.ascii	"\3355Xj\2246tj\271\255;\346\377\036o\246\375\200\317"
 790      9436746A 
 790      B9AD3BE6 
 790      FF1E6FA6 
 790      FD80CF
 791 0f37 775BF028 		.ascii	"w[\360(0\332\203\34218~\003\307\263q<\027\307\363p\274"
 791      30DA83E2 
 791      31387E03 
 791      C7B3713C 
 791      17C7F370 
 792 0f4c C0E360A4 		.ascii	"\300\343`\244\370N\260=eKe\016\331:\251\365EZ\177\221"
 792      F84EB03D 
 792      654B650E 
 792      D93AA9F5 
 792      455A7F91 
 793 0f60 C7ED21DB 		.ascii	"\307\355!\333b\217\371!\233\020\203\322*\2179\245\366"
 793      628FF921 
 793      9B1083D2 
 793      2A8F39A5 
ARM GAS  /tmp/ccUxo6N8.s 			page 62


 793      F6
 794 0f71 87806F5B 		.ascii	"\207\200o[\324\262:EL1\222\003\032p\315\3402\013\006"
 794      D4B23A45 
 794      4C319203 
 794      1A70CDE0 
 794      320B06
 795 0f84 D5CD5CAB 		.ascii	"\325\315\\\253zK,H5\373}_de}/\027\031\301g\334\275\360"
 795      7A4B2C48 
 795      35FB7D5F 
 795      64657D2F 
 795      1719C167 
 796 0f9b 293D8D5E 		.ascii	")=\215^\341"
 796      E1
 797 0fa0 414BF4DD 		.ascii	"AK\364\335\214\303\210\011\004\243>\256\362\216\207"
 797      8CC38809 
 797      04A33EAE 
 797      F28E87
 798 0faf FDB9B394 		.ascii	"\375\271\263\224Jr\035\034\345\335\241\273Q\244\363"
 798      4A721D1C 
 798      E5DDA1BB 
 798      51A4F3
 799 0fbe 9F8E00B6 		.ascii	"\237\216\000\266fxW\302\227oQ8r\301\363\274k\270T\003"
 799      667857C2 
 799      976F5138 
 799      72C1F3BC 
 799      6BB85403 
 800 0fd2 DC1519DD 		.ascii	"\334\025\031\335\037\241\227E\235`Y\377\3763|M\207\365"
 800      1FA19745 
 800      9D6059FF 
 800      FE337C4D 
 800      87F5
 801 0fe4 BD6B2C3D 		.ascii	"\275k,=]\025\341\357\3762\273\263\272p\032\233\302`"
 801      5D15E1EF 
 801      FE32BBB3 
 801      BA701A9B 
 801      C260
 802 0ff6 992D9CCC 		.ascii	"\231-\234\314\374\257\331G\257L"
 802      FCAFD947 
 802      AF4C
 803 1000 985A7A90 		.ascii	"\230Zz\220#Y\215\335\303\032\034W\343x=\21678q\030\313"
 803      23598DDD 
 803      C31A1C57 
 803      E3783D8E 
 803      37387118 
 804 1015 2DBBE14A 		.ascii	"-\273\341J\213k\012\250\326&\255\026\275n\261u\361\211"
 804      8B6B0AA8 
 804      D626AD16 
 804      BD6EB175 
 804      F189
 805 1027 8F79B047 		.ascii	"\217y\260G$Cr\367i:\360mv\326\334F\005\253\347\261\215"
 805      244372F7 
 805      693AF06D 
 805      76D6DC46 
 805      05ABE7B1 
 806 103c 2EC0F2D9 		.ascii	".\300\362\331\312\332\350\361\241\251$7\266\215~YEo"
 806      CADAE8F1 
 806      A1A92437 
ARM GAS  /tmp/ccUxo6N8.s 			page 63


 806      B68D7E59 
 806      456F
 807 104e 7E297891 		.ascii	"~)x\221\265*\002\330:\033m<\023\257T&\253\036\263S$"
 807      B52A02D8 
 807      3A1B6D3C 
 807      13AF5426 
 807      AB1EB353 
 808 1063 61702C93 		.ascii	"ap,\223\275*R\026\225\311N\327\236\345c\013\317\362"
 808      BD2A5216 
 808      95C94ED7 
 808      9EE5630B 
 808      CFF2
 809 1075 07237555 		.ascii	"\007#uU\211\352\213%\352\251\326\016\332\226\346\235"
 809      89EA8B25 
 809      EAA9D60E 
 809      DA96E69D 
 810 1085 80EF6A96 		.ascii	"\200\357j\226o\246b\354\311\362\345\346M<\260\256Z\356"
 810      6FA662EC 
 810      C9F2E5E6 
 810      4D3CB0AE 
 810      5AEE
 811 1097 6616D0CC 		.ascii	"f\026\320\314rW\360V\222\254\010_\371\263\326\015v\271"
 811      7257F056 
 811      92AC085F 
 811      F9B3D60D 
 811      76B9
 812 10a9 07D3EF46 		.ascii	"\007\323\357F(\341\353+\310mA\342\014\017F1kp}\246x"
 812      28E1EB2B 
 812      C86D41E2 
 812      0C0F4631 
 812      6B707DA6 
 813 10be A96A1FDA 		.ascii	"\251j\037\332l\3223\214w\371h2l\306\334O\271\005J}s"
 813      6CD2338C 
 813      77F96832 
 813      6CC6DC4F 
 813      B9054A7D 
 814 10d3 785BCD9B 		.ascii	"x[\315\2330/\252\010\267\264\364\340\310\002J\340N\246"
 814      302FAA08 
 814      B7B4F4E0 
 814      C8024AE0 
 814      4EA6
 815 10e5 185DF42F 		.ascii	"\030]\364/\270\267\025e\252\362\226\334W5\316\257q\211"
 815      B8B71565 
 815      AAF296DC 
 815      5735CEAF 
 815      7189
 816 10f7 BD9E9F9A 		.ascii	"\275\236\237\232ZEd\251\367(\267\024\031\321VeP'<)\346"
 816      5A4564A9 
 816      F728B714 
 816      19D15665 
 816      50273C29 
 817 110c 6825DD47 		.ascii	"h%\335G\342?\363\030\376\014\017\245\353\213\232\344"
 817      E23FF318 
 817      FE0C0FA5 
 817      EB8B9AE4 
 818 111c C9A39B5A 		.ascii	"\311\243\233ZZ~\252\022\365ws\242\246\250DI\374~\017"
 818      5A7EAA12 
ARM GAS  /tmp/ccUxo6N8.s 			page 64


 818      F57773A2 
 818      A6A84449 
 818      FC7E0F
 819 112f BAEC50DF 		.ascii	"\272\354P\337\032\242\352Y\242\016\230\022\265\375S"
 819      1AA2EA59 
 819      A20E9812 
 819      B5FD53
 820 113e 86A86BE6 		.ascii	"\206\250k\346D\315`\211:\334\032\242\016\263D}nJT\203"
 820      44CD6089 
 820      3ADC1AA2 
 820      0EB3447D 
 820      6E4A5483 
 821 1152 46149A6D 		.ascii	"F\024\232m\303J\312!Q\307\354\211\242\325N\242jd\241"
 821      C34ACA21 
 821      51C7EC89 
 821      A2D54EA2 
 821      6A64A1
 822 1165 51D99EB7 		.ascii	"Q\331\236\267\2556\205\364b3^\216\261\274\034\217\346"
 822      AD3685F4 
 822      62335E8E 
 822      B1BC1C8F 
 822      E6
 823 1176 25DCDC74 		.ascii	"%\334\334tv\365)|\260\250\264\264\274\222\352|Q\325"
 823      76F5297C 
 823      B0A8B4B4 
 823      BC92EA7C 
 823      51D5
 824 1188 C82EAA16 		.ascii	"\310.\252\026\341+\177\272\345\214\300\215oo*\025\314"
 824      E12B7FBA 
 824      E58CC08D 
 824      6F6F2A15 
 824      CC
 825 1199 DE22F253 		.ascii	"\336\"\362S:\\\242\301\222=z\367\213\262w\\\317^\003"
 825      3A5CA2C1 
 825      923D7AF7 
 825      8BB2775C 
 825      CF5E03
 826 11ac CBDE57A6 		.ascii	"\313\336W\246\354m]|\345'\363\253\253\224\327\224\273"
 826      EC6D5D7C 
 826      E527F3AB 
 826      AB94D794 
 826      BB
 827 11bd 2DAFF0CE 		.ascii	"-\257\360\316\371;G\371\323X\022\2709\014?\2240\360"
 827      F93B47F9 
 827      D35812B8 
 827      390C3F94 
 827      30F0
 828 11cf F22B1431 		.ascii	"\362+\0241B\330Y\226\260\257\315\010S\252\025%\001d"
 828      42D85996 
 828      B0AFCD08 
 828      53AA1525 
 828      0164
 829 11e1 DEA20864 		.ascii	"\336\242\010d\245\015\303\217\271\270f\261Ft\301\221"
 829      A50DC38F 
 829      B9B866B1 
 829      4674C191 
 830 11f1 111D951E 		.ascii	"\021\035\225\036SW$\3531\260\256\032\263{G\367\020\314"
ARM GAS  /tmp/ccUxo6N8.s 			page 65


 830      535724EB 
 830      31B0AE1A 
 830      B37B47F7 
 830      10CC
 831 1203 8CE802CB 		.ascii	"\214\350\002\313\314E3f\302[_\237\376\300x\342\322\342"
 831      CC453366 
 831      C25B5F9F 
 831      FEC078E2 
 831      D2E2
 832 1215 0D32767E 		.ascii	"\0152v~mc\306\335\035\217\342\015\276\313\036tkc\003"
 832      6D63C6DD 
 832      1D8FE20D 
 832      BECB1E74 
 832      6B6303
 833 1228 230C87B7 		.ascii	"#\014\207\2676\256y\230[\033\363\275\002\311\215}gc"
 833      36AE7998 
 833      5B1BF3BD 
 833      02C98D7D 
 833      6763
 834 123a 57FBE83B 		.ascii	"W\373\350;\033\373\332\233\336\3318\322\336xg\203f7"
 834      1BFBDA9B 
 834      DED938D2 
 834      DE786783 
 834      6637
 835 124c 68D9A22E 		.ascii	"h\331\242.\373\234\226\355\321e\177\253e{u\3317\264"
 835      FB9C96ED 
 835      D1657FAB 
 835      657B75D9 
 835      37B4
 836 125e 6C9F2E7B 		.ascii	"l\237.{t\207Hv\234.\373U-\233\216z\370\321\366\366\210"
 836      74874876 
 836      9C2EFB55 
 836      2D9B8E7A 
 836      F8D1F6F6 
 837 1273 2624D03D 		.ascii	"&$\320=\236\011~\3471\277=b\325;\232\331\336\377\266"
 837      9E097EE7 
 837      31BF3D62 
 837      D53B9AD9 
 837      DEFFB6
 838 1286 27AAF74F 		.ascii	"'\252\367O\354`f\316\320!/>Q\207\214\237T\022\270\245"
 838      EC6066CE 
 838      D0212F3E 
 838      51878C9F 
 838      5412B8A5 
 839 129a B8DCB796 		.ascii	"\270\334\267\226FMWn\330:\247*\007\276@\326y\231*TW"
 839      464D576E 
 839      D83AA72A 
 839      07BE40D6 
 839      79992A54 
 840 12af 8B3105FC 		.ascii	"\2131\005\374\3725o\224\261V5\205\217Nx#2\376\032\214"
 840      FA356F94 
 840      B1563585 
 840      8F4E7823 
 840      32FE1A8C 
 841 12c3 954EC09C 		.ascii	"\225N\300\234\374<\364\304\273\217cc\235\344E\026\360"
 841      FC3CF4C4 
 841      BB8F6363 
ARM GAS  /tmp/ccUxo6N8.s 			page 66


 841      9DE44516 
 841      F0
 842 12d4 1EC3AA73 		.ascii	"\036\303\252s\240\017\032\346\247a\240\251\030h=\003"
 842      A00F1AE6 
 842      A761A0A9 
 842      18683D03 
 843 12e4 24F11CB3 		.ascii	"$\361\034\263\255\304\031\267\225\340\0219\221\026\355"
 843      ADC419B7 
 843      95E01139 
 843      9116ED
 844 12f3 DA30E4BC 		.ascii	"\3320\344\274\302\265\252\216\225\262\337\364\232\354"
 844      C2B5AA8E 
 844      95B2DFF4 
 844      9AEC
 845 1301 9F31CADE 		.ascii	"\2371\312\336f\245\354\023\217o#\312&\225>\302\036l"
 845      66A5EC13 
 845      8F6F23CA 
 845      26953EC2 
 845      1E6C
 846 1313 A2D7D9D8 		.ascii	"\242\327\331\330\274\026+{\022\276\340j\250e\246\354"
 846      BC162B7B 
 846      12BEE06A 
 846      A865A6EC 
 847 1323 99D1CA6E 		.ascii	"\231\321\312nj\016O\337K\206\352\205=\031\337\217P\255"
 847      6A0E4FDF 
 847      4B86EA85 
 847      3D19DF8F 
 847      50AD
 848 1335 389EEB75 		.ascii	"8\236\353uu\217\224Y\231\320=\273\357\233yX\210\314"
 848      758F9459 
 848      99D03DBB 
 848      EF9B7958 
 848      88CC
 849 1347 F7A24967 		.ascii	"\367\242IgM\224^\311\002E\247\244\255\272\345\3316\334"
 849      4D945EC9 
 849      0245A7A4 
 849      ADBAE5D9 
 849      36DC
 850 1359 29B7E3C5 		.ascii	")\267\343\305X\030\307\273p\374)\216w\343\330l*\032"
 850      5818C7BB 
 850      70FC298E 
 850      77E3D86C 
 850      2A1A
 851 136b C5C83CAF 		.ascii	"\305\310<\257\371\376\277\300\0356UXx\306\336\205\320"
 851      F9FEBFC0 
 851      1D365558 
 851      78C6DE85 
 851      D0
 852 137c 37045253 		.ascii	"7\004RS\340\276\300\245\346X\252\213\342\233\252k\216"
 852      E0BEC0A5 
 852      E658AA8B 
 852      E29BAA6B 
 852      8E
 853 138d BDBAAA4C 		.ascii	"\275\272\252L\325\205\006\022\3227?R\370xFe\250\327"
 853      D5850612 
 853      D2373F52 
 853      F8784665 
ARM GAS  /tmp/ccUxo6N8.s 			page 67


 853      A8D7
 854 139f 5B71BA94 		.ascii	"[q\272\2245R\023\217\324d\312\263\262\020\015\260\244"
 854      3552138F 
 854      D464CAB3 
 854      B2100DB0 
 854      A4
 855 13b0 F8EB5E64 		.ascii	"\370\353^d\236K,\371\325\373\242\012\306\027-\261\347"
 855      9E4B2CF9 
 855      D5FBA20A 
 855      C6172DB1 
 855      E7
 856 13c1 77B929BF 		.ascii	"w\271)\277oM\262\360E\366\006\372\216\031\267\221\007"
 856      6F4DB2F0 
 856      45F606FA 
 856      8E19B791 
 856      07
 857 13d2 BA3467B8 		.ascii	"\2724g\270\277l\316\375\365\274\276\252'\276\203K\254"
 857      BF6CCEFD 
 857      F5BCBEAA 
 857      27BE834B 
 857      AC
 858 13e3 B2E75E3F 		.ascii	"\262\347^?\211[\216\253\215\277\307\276\332r\217\265"
 858      895B8EAB 
 858      8DBFC7BE 
 858      DA728FB5 
 859 13f3 91ACB217 		.ascii	"\221\254\262\027\332jS\007\336r0\"\264N\214\320\346"
 859      DA6A5307 
 859      DE723022 
 859      B44E8CD0 
 859      E6
 860 1404 D96C017E 		.ascii	"\331l\001~\340\300D\336\270\307TH-y\214\211\254wh\""
 860      E0C044DE 
 860      B8C75448 
 860      2D798C89 
 860      AC776822 
 861 1418 EB30B7E4 		.ascii	"\3530\267\344\247\337\206Zf\334n4\345v\363\241\275<"
 861      A7DF865A 
 861      66DC6E34 
 861      E576F3A1 
 861      BD3C
 862 142a 90F0033A 		.ascii	"\220\360\003:\210d\270]k\303\355V\226\333\036Q\314\316"
 862      8864B85D 
 862      6BC3ED56 
 862      96DB1E51 
 862      CCCE
 863 143c 3367B611 		.ascii	"3g\266\0211\213\177\012\265\014\027\330b\311k\017\275"
 863      318B7F0A 
 863      B50C17D8 
 863      62C96B0F 
 863      BD
 864 144d 62DFAF1C 		.ascii	"b\337\257\034\227\342!4q6\265(y\333Ly\235s\304\262;"
 864      97E22134 
 864      7136B528 
 864      79DB4C79 
 864      9D73C4B2 
 865 1462 ACB7E175 		.ascii	"\254\267\341u\2477z\262\276\352\036\323\311\272\242"
 865      A7377AB2 
ARM GAS  /tmp/ccUxo6N8.s 			page 68


 865      BEEA1ED3 
 865      C9BAA2
 866 1471 54AF40C3 		.ascii	"T\257@\303\321zJ\346\016{2?6%\263\376Hd\375\207\232"
 866      D17A4AE6 
 866      0E7B323F 
 866      3625B3FE 
 866      4864FD87 
 867 1486 16B8CDCE 		.ascii	"\026\270\315\316\032\333e\337X\215ic7\331\306v;k\254"
 867      1ADB65DF 
 867      588D6963 
 867      37D9C676 
 867      3B6BAC
 868 1499 D6BEB1DD 		.ascii	"\326\276\261\335\246\215\255\2355\321J\001h\037\327"
 868      A68DAD9D 
 868      35D14A01 
 868      681FD7
 869 14a8 4A019F99 		.ascii	"J\001\237\231(\340\2309\231\025\224Lr`&\361{\355\311"
 869      28E09839 
 869      9915944C 
 869      726026F1 
 869      7BEDC9
 870 14bb DC674AE6 		.ascii	"\334gJ\346\361\243\226vb\347\001\352M\310<mE\346j\274"
 870      F1A39676 
 870      62E701EA 
 870      4DC83C6D 
 870      45E66ABC 
 871 14cf A853BB6E 		.ascii	"\250S\273n\235}\327=`J\346\224\271\226]\327f\351y\230"
 871      9D7DD73D 
 871      604AE694 
 871      B9965DD7 
 871      66E97998 
 872 14e3 EDB9CBA3 		.ascii	"\355\271\313\243\375\3245\363\256;G\363\312c\356E%\016"
 872      FDD435F3 
 872      AE3B47F3 
 872      CA63EE45 
 872      250E
 873 14f5 39F4CA13 		.ascii	"9\364\312\023\225q)|d\325\207j\351>\022\177\304d\360"
 873      9571297C 
 873      64D5876A 
 873      E93E127F 
 873      C464F0
 874 1508 9ADC74B2 		.ascii	"\232\334t\262n\177%?eLU\255\322\214\0164\235sx\322D"
 874      6E7F253F 
 874      654C55AD 
 874      D28C0E34 
 874      9D7378D2 
 875 151d 0FE3EF65 		.ascii	"\017\343\357e\365@J|a\332\364\301\312s\374\034e'\336"
 875      F5404A7C 
 875      61DAF4C1 
 875      CA73FC1C 
 875      6527DE
 876 1530 B570D170 		.ascii	"\265p\321p\003+\332M\321\242\235cAH\223\011!k\232\346"
 876      032BDA4D 
 876      D1A29D63 
 876      41489309 
 876      216B9AE6 
 877 1544 9F3E9147 		.ascii	"\237>\221G\011i\351\244L\336\300n1x\314\254\221\256"
ARM GAS  /tmp/ccUxo6N8.s 			page 69


 877      0969E9A4 
 877      4CDEC06E 
 877      3178CCAC 
 877      91AE
 878 1556 DDF6DEAB 		.ascii	"\335\366\336\253\263\240S,i\350\217\351\030\036\364"
 878      B3A0532C 
 878      69E88FE9 
 878      181EF4
 879 1565 2FAF0AD1 		.ascii	"/\257\012\321\307\376\002w\310@:m\345$n\205>\234V\233"
 879      C7FE0277 
 879      C8403A6D 
 879      E5246E85 
 879      3E9C569B 
 880 1579 A4CFE735 		.ascii	"\244\317\3475\022\314>T\332-\325;\036\232]\255\214u"
 880      12CC3E54 
 880      DA2DD53B 
 880      1E9A5DAD 
 880      8C75
 881 158b BB89D26C 		.ascii	"\273\211\322l\266r\210<\320\033\376\014\017\177\267"
 881      B672883C 
 881      D01BFE0C 
 881      0F7FB7
 882 159a 10FF5533 		.ascii	"\020\377U3;\250\272\331R\313\217w\335\303\256\263t\241"
 882      3BA8BAD9 
 882      52CB8F77 
 882      DDC3AEB3 
 882      74A1
 883 15ac 1F423374 		.ascii	"\037B3t\334\260\240\343\206\251=\336\255\336\375P\304"
 883      DCB0A0E3 
 883      86A93DDE 
 883      ADDEFD50 
 883      C4
 884 15bd 1ED5ADCA 		.ascii	"\036\325\255\312W;\232C\3342\205\270\331r^\017q\035"
 884      573B9A43 
 884      DC3285B8 
 884      D9725E0F 
 884      711D
 885 15cf FBFAC916 		.ascii	"\373\372\311\026\020\337\233B\314;}\302k\325+\320\274"
 885      10DF9B42 
 885      CC3B7DC2 
 885      6BD52BD0 
 885      BC
 886 15e0 C44A1E77 		.ascii	"\304J\036wl\247\223\324\366\330\311\203\005e\212\317"
 886      6CA793D4 
 886      F6D8C983 
 886      05658ACF 
 887 15f0 8CB25997 		.ascii	"\214\262Y\227\366<0\303\312S\230\366\021\202V\3413\351"
 887      F63C30C3 
 887      CA5398F6 
 887      118256E1 
 887      33E9
 888 1602 150C25B5 		.ascii	"\025\014%\265\026\224\2145\241\004u\330Sc5\2475F\251"
 888      16948C35 
 888      A10475D8 
 888      536335A7 
 888      3546A9
 889 1615 7FC291A0 		.ascii	"\177\302\221\2400\001\022\177F\223\273\304W\262\304"
ARM GAS  /tmp/ccUxo6N8.s 			page 70


 889      3001127F 
 889      4693BBC4 
 889      57B2C4
 890 1624 99892D46 		.ascii	"\231\211-F\227\335\3271\252\313J\374E\334\012}\370\306"
 890      97DDD731 
 890      AACB4AFC 
 890      45DC0A7D 
 890      F8C6
 891 1636 A86AF613 		.ascii	"\250j\366\023\261\236\332h\353\371\334B2\223Lut\260"
 891      B19EDA68 
 891      EBF9DC42 
 891      32934C75 
 891      74B0
 892 1648 A6A1353E 		.ascii	"\246\2415>u\012+\205Mz)\\2\345\272\321\202\260\351f"
 892      750A2B85 
 892      4D7A295C 
 892      32E5BAD1 
 892      82B0E966 
 893 165c 84855B6A 		.ascii	"\204\205[j`\264_d:\332\333\315\200g\232\021\306\020"
 893      60B45F64 
 893      3ADADBCD 
 893      80679A11 
 893      C610
 894 166e 72D18290 		.ascii	"r\321\202\220\331\246\204\334\252\324\010!\214\303H"
 894      D9A684DC 
 894      AAD40821 
 894      8CC348
 895 167d 6C8130D7 		.ascii	"l\2010\327\210\3603n\221\322T\337\264u\361\355O\370"
 895      88F0336E 
 895      91D254DF 
 895      B475F1ED 
 895      4FF8
 896 168f A98A52AB 		.ascii	"\251\212R\253(\200\302\377T\375\223\352c\357SQ(7CUn"
 896      2880C2FF 
 896      54FD93EA 
 896      63EF5351 
 896      28374355 
 897 16a4 D42BFFF3 		.ascii	"\324+\377\3634<\204\025\256\017O\3333\203\207I\220\002"
 897      343C8415 
 897      AE0F4FDB 
 897      33838749 
 897      9002
 898 16b6 4EB98557 		.ascii	"N\271\205W\177\264\373:\013\244D\375Dw\001E\352\306"
 898      7FB4FB3A 
 898      0BA444FD 
 898      44770145 
 898      EAC6
 899 16c8 AD53C687 		.ascii	"\255S\306\207'\213\244*\271W\362\337\334me\274\022\236"
 899      278BA42A 
 899      B957F2DF 
 899      DC6D65BC 
 899      129E
 900 16da B18757AF 		.ascii	"\261\207W\257\350\321\303#r\341\204\276\236\231\250"
 900      E8D1C323 
 900      72E184BE 
 900      9E99A8
 901 16e9 BEAD57DF 		.ascii	"\276\255W\337\242\213(\364\355\354\310\333\303\352\333"
ARM GAS  /tmp/ccUxo6N8.s 			page 71


 901      A28B28F4 
 901      EDECC8DB 
 901      C3EADB
 902 16f8 31DADBB9 		.ascii	"1\332\333\271\211\352\015\261\013\352\3337\264\267\363"
 902      89EA0DB1 
 902      0BEADB37 
 902      B4B7F3
 903 1707 12D58B48 		.ascii	"\022\325\213H\307\324\267\350B\013\342 .\201\013\243"
 903      C7D4B7E8 
 903      420BE220 
 903      2E810BA3 
 904 1717 6D91B9F4 		.ascii	"m\221\271\364Y$\023\263y\306\307\005\372GMT\233\023"
 904      592413B3 
 904      79C6C705 
 904      FA474D54 
 904      9B13
 905 1729 6076847B 		.ascii	"`v\204{\274\272%3#JP\306]\034\004\266L\223\271\305="
 905      BCBA2533 
 905      234A50C6 
 905      5D1C04B6 
 905      4C93B9C5 
 906 173e 98EE6A9D 		.ascii	"\230\356j\2358Ze\271\317\355a\356\012\237\371a\256\217"
 906      385A65B9 
 906      CFED61EE 
 906      0A9FF961 
 906      AE8F
 907 1750 B6CC9CAE 		.ascii	"\266\314\234\256\243)\214\025\324J\237\325\231\374I"
 907      A3298C15 
 907      D44A9FD5 
 907      99FC49
 908 175f 9B5AABB4 		.ascii	"\233Z\253\264Z\364\320d\334r\355L\350ar\326\003\363"
 908      5AF4D064 
 908      DC72ED4C 
 908      E86172D6 
 908      03F3
 909 1771 A2FB4CA7 		.ascii	"\242\373L\247\234_\252\2479\022\177\032o\356\275\343"
 909      9C5FAAA7 
 909      39127F1A 
 909      6FEEBDE3 
 910 1781 6BC5690E 		.ascii	"k\305i\016\252d\350>\357\032\273\017\303\016:2\267b"
 910      AA64E83E 
 910      EF1ABB0F 
 910      C30E3A32 
 910      B762
 911 1793 E77D4B21 		.ascii	"\347}K!4\332\334\214[\023%\204\255\213\367\334\200\201"
 911      34DADC8C 
 911      5B132584 
 911      AD8BF7DC 
 911      8081
 912 17a5 42210305 		.ascii	"B!\003\005{4f\267;S\315:\036d0\214\343Yn.\315Y\177\351"
 912      7B3466B7 
 912      3B53CD3A 
 912      1E64308C 
 912      E3596E2E 
 913 17bd A416FF3B 		.ascii	"\244\026\377;\226\346Z\237\371\272#\362'\032\2514?2"
 913      96E65A9F 
 913      F9BA23F2 
ARM GAS  /tmp/ccUxo6N8.s 			page 72


 913      271AA934 
 913      3F32
 914 17cf 6C       		.ascii	"l"
 915 17d0 AB58D5A2 		.ascii	"\253X\325\242\004\256\217\366n\341\346\360v\031\263"
 915      04AE8FF6 
 915      6EE1E6F0 
 915      7619B3
 916 17df 3AA94AF1 		.ascii	":\251J\361\270\230;l\362E\317\3457\334g\273\364#[$\022"
 916      B8983B6C 
 916      F245CFE5 
 916      37DC67BB 
 916      F4235B24 
 917 17f4 BFD1C252 		.ascii	"\277\321\302R(\336f[\0238g\243\314\255\226&p\312\246"
 917      28DE665B 
 917      133867A3 
 917      CCAD9626 
 917      70CAA6
 918 1807 1F7C6859 		.ascii	"\037|hY\353\272M\255m\226\265\232mjm\267\256e\303\327"
 918      EBBA4DAD 
 918      6D96B59A 
 918      6D6A6DB7 
 918      AE65C3D7 
 919 181b 475A2D0B 		.ascii	"GZ-\013\177d\274\214\200\352\204];\244\035\026\016\251"
 919      7F64BC8C 
 919      80EA845D 
 919      3BA41D16 
 919      0EA9
 920 182d 9D39C177 		.ascii	"\2359\301wl\330\334i\311&\232;Y\325\372\330\262\026"
 920      6CD8DC69 
 920      C9269A3B 
 920      59D5FAD8 
 920      B216
 921 183f 62C6AAD6 		.ascii	"b\306\252\326'\226\265*l\332\332\245\325r\365WX\361"
 921      2796B52A 
 921      6CDADAA5 
 921      D572F557 
 921      58F1
 922 1851 11192CE1 		.ascii	"\021\031,\341\356\263X?\305\374\363\216\230\306\235"
 922      EEB3583F 
 922      C5FCF38E 
 922      98C69D
 923 1860 111A6B7C 		.ascii	"\021\032k|\326\012\331\255\321\230\312-\204\366'+\343"
 923      D60AD9AD 
 923      D198CA2D 
 923      84F6272B 
 923      E3
 924 1871 8488EB5C 		.ascii	"\204\210\353\\\245_\254\223\367\341\343\223\306T\361"
 924      A55FAC93 
 924      F7E1E393 
 924      C654F1
 925 1880 A9B645AE 		.ascii	"\251\266E\256LR\022\355A~\210Yb\372\324X%\026\304,\261"
 925      4C5212ED 
 925      417E8859 
 925      62FAD458 
 925      2516C42C 
 926 1895 C5BA443C 		.ascii	"\305\272D<\367*9\363UF\363/\306V\310\001_<h\344\270"
 926      F72A39F3 
ARM GAS  /tmp/ccUxo6N8.s 			page 73


 926      5546F32F 
 926      C656C801 
 926      5F3C68E4 
 927 18aa B5465001 		.ascii	"\265FP\001\216j\201\244\325\024\037e3Sll\346\260\245"
 927      8E6A81A4 
 927      D5141F65 
 927      33536C6C 
 927      E6B0A5
 928 18bd A5CDB4A9 		.ascii	"\245\315\264\251\365\271e\255\2456=\350\210e\255wlj"
 928      F5B965AD 
 928      A5363DE8 
 928      8865AD77 
 928      6C6A
 929 18cf 1DD56A45 		.ascii	"\035\325jE\376\237\230\025\226\277\026\337\206\267\264"
 929      FE9F9815 
 929      96BF16DF 
 929      86B7B4
 930 18de 8FF9983F 		.ascii	"\217\371\230?\3136\343\356\201N\344\177\205@\2578\223"
 930      CB36E3EE 
 930      814EE47F 
 930      8540AF38 
 930      93
 931 18ef 592EFDD0 		.ascii	"Y.\375\320K[s*'uR\252v\360\352\265\203F<\012\240\272"
 931      4B5B732A 
 931      277552AA 
 931      76F0EAB5 
 931      83463C0A 
 932 1905 B459B38B 		.ascii	"\264Y\263\213\320\\D#Q\227\300\336\252\234H\177\342"
 932      D05C4423 
 932      5197C0DE 
 932      AA9C487F 
 932      E2
 933 1916 46347B81 		.ascii	"F4{\201\305s\372\207\014\"\037F\202:\250\350\235\242"
 933      C573FA87 
 933      0C221F46 
 933      823AA8E8 
 933      9DA2
 934 1928 A8F9C0AE 		.ascii	"\250\371\300\256\226&mR\344|y\324\304N\006\320,(\362"
 934      96266D52 
 934      E47C79D4 
 934      C44E06D0 
 934      2C28F2
 935 193b 404D923D 		.ascii	"@M\222=\2521\237\034\\e\247Z\215\366S-uNQ\223\324Y\225"
 935      AA319F1C 
 935      5C65A75A 
 935      8DF6532D 
 935      754E5193 
 936 1952 61C5FDBC 		.ascii	"a\305\375\274\261\0363\251\240\364\230M\321\032\331"
 936      B11E33A9 
 936      A0F4984D 
 936      D11AD9
 937 1961 29DA69D3 		.ascii	")\332i\323Y\304G{fFN\360\036v\263\\\273`&(\366F\321"
 937      59C4477B 
 937      66464EF0 
 937      1E76B35C 
 937      BB602628 
 938 1978 FDA68239 		.ascii	"\375\246\2029\316\012\346\274\3039\350\3113\203\372"
ARM GAS  /tmp/ccUxo6N8.s 			page 74


 938      CE0AE6BC 
 938      C339E8C9 
 938      3383FA
 939 1987 6A471656 		.ascii	"jG\026V\265(\201\227L\371m\231\244\347\227\350[\340"
 939      B5288197 
 939      4CF96D99 
 939      A4E797E8 
 939      5BE0
 940 1999 A63924F4 		.ascii	"\2469$\364\037\2164x\007\315\012\221j`\332\343c\252"
 940      1F8E3478 
 940      07CD0A91 
 940      6A60DAE3 
 940      63AA
 941 19ab 3957E03F 		.ascii	"9W\340?X\005~kd\210\353\226\226_R$\247\345\226\344\275"
 941      58057E6B 
 941      6488EB96 
 941      965F5224 
 941      A7E596E4 
 942 19c0 9C96278F 		.ascii	"\234\226'\217J\313\315/\030VP\022L\013\005\312\212G"
 942      4ACBCD2F 
 942      18565012 
 942      4C0B05CA 
 942      8A47
 943 19d2 A6412210 		.ascii	"\246A\"\020J+(\316-,\313\203B\371\303\202r\321\223\371"
 943      4A2B28CE 
 943      2D2CCB83 
 943      42F9C382 
 943      72D193F9 
 944 19e6 5C876105 		.ascii	"\\\207a\005\305R\340e?<I\245\371%\001\331\037\362\365"
 944      C552E065 
 944      3F3C49A5 
 944      F92501D9 
 944      1FF2F5
 945 19f9 19383835 		.ascii	"\031885\223\353\352\012\216\240%\351`\022\"\351\356"
 945      93EBEA0A 
 945      8EA025E9 
 945      601222E9 
 945      EE
 946 1a0a EE905E0E 		.ascii	"\356\220^\016\206^.\225\203\000\327.\224\037\220\245"
 946      865E2E95 
 946      8300D72E 
 946      941F90A5 
 947 1a1a BCA0FFC5 		.ascii	"\274\240\377\3052\271\014 Sr\363\375\206,w,\007s\363"
 947      32B90C20 
 947      5372F3FD 
 947      862C772C 
 947      0773F3
 948 1a2d F300359E 		.ascii	"\363\0005\236@\000\205\0218_\251\277X.\017\301Wi@\036"
 948      40008511 
 948      385FA9BF 
 948      582E0FC1 
 948      5769401E 
 949 1a41 D5D7016A 		.ascii	"\325\327\001jiI \024L\313\310\032\2209\240\034J\026"
 949      69492014 
 949      4CCBC81A 
 949      9039A01C 
 949      4A16
ARM GAS  /tmp/ccUxo6N8.s 			page 75


 950 1a53 951614CA 		.ascii	"\225\026\024\312\201`Z\237\314L(\256\322\037\027*\015"
 950      81605A9F 
 950      CC4C28AE 
 950      D21F172A 
 950      0D
 951 1a64 1494F843 		.ascii	"\024\224\370C\277H+\013\006\322\244@\321\023\305%\305"
 951      BF482B0B 
 951      06D2A440 
 951      D113C525 
 951      C5
 952 1a75 F213B234 		.ascii	"\362\023\2624\254 BV0\224WP\034Bd\225\301w\327t\177"
 952      AC204256 
 952      30945750 
 952      1C426495 
 952      C177D774 
 953 1a8a A89B4DE9 		.ascii	"\250\233M\351\"\011\210)\226\323\374y\362p\251\2540"
 953      22098829 
 953      96D3FC79 
 953      F270A9AC 
 953      30
 954 1a9b E4579B4A 		.ascii	"\344W\233J\364\373\325\372\230\213\202\222\270\334\222"
 954      F4FBD5FA 
 954      988B8292 
 954      B8DC92
 955 1aaa E21030F5 		.ascii	"\342\0200\365\214kn\362sAiH\233(\333\017\250\271\241"
 955      8C6B6EF2 
 955      73416948 
 955      9B28DB0F 
 955      A8B9A1
 956 1abd F2DFB50E 		.ascii	"\362\337\265\016\305?\352id\027\361\001y\0040\344\017"
 956      C53FEA69 
 956      6417F101 
 956      790430E4 
 956      0F
 957 1ace 89C12E4F 		.ascii	"\211\301.OAx\032Bw\010\317\210\301\364\316\020\272@"
 957      41781A42 
 957      7708CF88 
 957      C1F4CE10 
 957      BA40
 958 1ae0 4887D015 		.ascii	"H\207\320\025B7\010\277\206\000\345\322\241\\:\224K"
 958      423708BF 
 958      8600E5D2 
 958      A15C3A94 
 958      4B
 959 1af1 87725DA1 		.ascii	"\207r]\241\\\327.B\240\233\020\370\265\020xJ\010<-\004"
 959      5CD72E42 
 959      A09B10F8 
 959      B510784A 
 959      083C2D04 
 960 1b05 BA0B8167 		.ascii	"\272\013\201g\304@\227\316\020\272\010\205\001\370\352"
 960      C44097CE 
 960      10BA0885 
 960      01F8EA
 961 1b14 EA2DF503 		.ascii	"\352-\365\003\265qH\237/\311\001\370.)\314\223\003\236"
 961      B571489F 
 961      2FC901F8 
 961      2E29CC93 
ARM GAS  /tmp/ccUxo6N8.s 			page 76


 961      039E
 962 1b26 DC7C2980 		.ascii	"\334|)\200\224,\025\311\361\241`H\012\2015\305!\201"
 962      942C15C9 
 962      F1A16048 
 962      0A8135C5 
 962      2181
 963 1b38 75073320 		.ascii	"u\0073 \242\203\024\024\307\357\342BE%y2~\036^(\215"
 963      A2831414 
 963      C7EFE242 
 963      45257932 
 963      7E1E5E28 
 964 1b4d 08C68502 		.ascii	"\010\306\205\002\362\360 \226,Jx\213\202#\340%\0257"
 964      F2F02096 
 964      2C4A788B 
 964      8223E025 
 964      1537
 965 1b5f 5457051F 		.ascii	"TW\005\037\310{\031^\305\313\345\005!\020\224\354{)"
 965      C87B195E 
 965      C5CBE505 
 965      211094EC 
 965      7B29
 966 1b71 5432EC6F 		.ascii	"T2\354o\245I\362(\2718T$\005GB\021\371%\224\020K\375"
 966      A549F228 
 966      B9385424 
 966      05474211 
 966      F9259410 
 967 1b87 656D554B 		.ascii	"emUK.,\010\202\036\333\351l\033\345$\224\372_\222\012"
 967      2E2C0882 
 967      1EDBE96C 
 967      1BE52494 
 967      FA5F920A 
 968 1b9b 4205C523 		.ascii	"B\005\305#\022K\375\200\212\355\335\213\223\220!\227"
 968      124BFD80 
 968      8AEDDD8B 
 968      93902197 
 969 1bab CAC56037 		.ascii	"\312\305`7#\274Ee\240cw]\265(T\216l\263\210t!\370.y"
 969      23BC4565 
 969      A063775D 
 969      B528548E 
 969      6CB38874 
 970 1bc3 A9184485 		.ascii	"\251\030D\205\221\200\302\"\334\025\240y(\207\010ID"
 970      9180C222 
 970      DC15A079 
 970      28870849 
 970      44
 971 1bd4 4C4B85D8 		.ascii	"LK\205\330\244 \263\264\244\2440\216v?on1P\356\015\372"
 971      A420B3B4 
 971      A4A4308E 
 971      763F6F6E 
 971      3150EE0D 
 972 1be9 E1DB372C 		.ascii	"\341\3337,\210\234H:6\336\302\202ai#rs\031#\356\366"
 972      889C483A 
 972      36DEC282 
 972      61692372 
 972      731923EE 
 973 1bfe 64F727BB 		.ascii	"d\367'\273\351\015\037\214\030(\361\005\013\376\013"
 973      E90D1F8C 
ARM GAS  /tmp/ccUxo6N8.s 			page 77


 973      1828F105 
 973      0BFE0B
 974 1c0d 84DD2716 		.ascii	"\204\335'\026\023\371R!5\261\354\234\001]\323\323\372"
 974      13F95221 
 974      35B1EC9C 
 974      015DD3D3 
 974      FA
 975 1c1e F7EF9536 		.ascii	"\367\357\22568;#+gT\227\2642\011,\265\260\020u\357\304"
 975      383B232B 
 975      675497B4 
 975      32092CB5 
 975      B01075EF 
 976 1c33 C1909559 		.ascii	"\301\220\225YR<\274`\004N\366\012\024\214\222\0031E"
 976      523CBC60 
 976      044EF60A 
 976      148C9203 
 976      3145
 977 1c45 84D055D2 		.ascii	"\204\320U\322\020\032\262\177\364M\215%\011A\371\007"
 977      101AB27F 
 977      F44D8D25 
 977      0941F907 
 978 1c55 0FEC37B0 		.ascii	"\017\3547\260_N\002Ng\347\2740\0107\340\317\352\235"
 978      5F4E024E 
 978      67E7BC30 
 978      0837E0CF 
 978      EA9D
 979 1c67 D1EB3FBD 		.ascii	"\321\353?\275\270`\033T%TN+%\343\3279C\374\375z\365"
 979      B8601B54 
 979      25544E2B 
 979      25E3D739 
 979      43FCFD7A 
 980 1c7c EFDD567D 		.ascii	"\357\335V}\310\310\314\351\367\307\336)\352c\346\013"
 980      C8C8CCE9 
 980      F7C7DE29 
 980      EA63E60B 
 981 1c8c 0306F5EF 		.ascii	"\003\006\365\357\235\323;\216V\303\020\001#D\226\036"
 981      9DD33B8E 
 981      56C31001 
 981      2344961E 
 982 1c9c 22CB0891 		.ascii	"\"\313\010\221\245\203\240\325|\271\230\375\337\304"
 982      A583A0D5 
 982      7CB998FD 
 982      DFC4
 983 1caa E219F49C 		.ascii	"\342\031\364\234\2269 \273_6H\024\364Q\3245}x\267\316"
 983      963920BB 
 983      5F364814 
 983      F451D435 
 983      7D78B7CE 
 984 1cbe 5DCA51DF 		.ascii	"]\312Q\337o\203%\353\317\001\367\322K\036.dg\011\275"
 984      6F8325EB 
 984      CF01F7D2 
 984      4B1E2E64 
 984      6709BD
 985 1cd1 B2C4E7B2 		.ascii	"\262\304\347\262\262\304\314\254.\020\322!t\365\364"
 985      B2C4CCAC 
 985      2E10D221 
 985      74F5F4
ARM GAS  /tmp/ccUxo6N8.s 			page 78


 986 1ce0 C91994E5 		.ascii	"\311\031\224\345-\013\002\275qyE\022\3523\317\273U\""
 986      2D0B02BD 
 986      71794512 
 986      EA33CFBB 
 986      5522
 987 1cf2 8E9FEF56 		.ascii	"\216\237\357V^N\332\367\003\016\032\225z\015\310\360"
 987      5E4EDAF7 
 987      030E1A95 
 987      7A0DC8F0 
 988 1d02 6743AF93 		.ascii	"gC\257\223\212\"$dfy\006\366\312\311\022\007edy\006"
 988      8A222464 
 988      667906F6 
 988      CAC91207 
 988      65647906 
 989 1d16 74465197 		.ascii	"tFQ\227\214,\361\371\314,_\020\027\364\024\014\317\015"
 989      8C2CF1F9 
 989      CC2C5F10 
 989      17F4140C 
 989      CF0D
 990 1d28 F80A82F9 		.ascii	"\370\012\202\371\005\303\321\330S8\274\2408O.\367\215"
 990      05C3D1D8 
 990      5338BCA0 
 990      384F2EF7 
 990      8D
 991 1d39 92734325 		.ascii	"\222sC%\201\016\021t?)\015f\013\017\201r\024\207\312"
 991      810E1174 
 991      3F290D66 
 991      0B0F8172 
 991      1487CA
 992 1d4c B1EFEDF2 		.ascii	"\261\357\355\362\224?D\335(Jz\003\345\303\312\206\307"
 992      943F44DD 
 992      284A7A03 
 992      E5C3CA86 
 992      C7
 993 1d5d 236DE40E 		.ascii	"#m\344\016\203n\036*\207.\327\305\237;\214\244\322!"
 993      836E1E2A 
 993      872ED7C5 
 993      9F3B8CA4 
 993      D221
 994 1d6f 151F4029 		.ascii	"\025\037@)\224\205K\341b\201r\344k \017[\017v\037\220"
 994      94854BE1 
 994      628172E4 
 994      6B200F5B 
 994      0F761F90 
 995 1d83 8BD2327A 		.ascii	"\213\3222z\217\252\004\320ko\260T\226\363\304\334@\027"
 995      8FAA04D0 
 995      6B6FB054 
 995      96F3C4DC 
 995      4017
 996 1d95 08E910BA 		.ascii	"\010\351\020\272\372F\224\"O\336\006\276\372\227\344"
 996      FA469422 
 996      4FDE06BE 
 996      FA97E4
 997 1da4 4AA18292 		.ascii	"J\241\202\222b\260;\335\223'T\000\356\253\020\322!\260"
 997      62B03BDD 
 997      93275400 
 997      EEAB10D2 
ARM GAS  /tmp/ccUxo6N8.s 			page 79


 997      21B0
 998 1db6 D284C292 		.ascii	"\322\204\302\222\342\0218\025/\025\222\254\370\240\024"
 998      E2113815 
 998      2F1592AC 
 998      F8A014
 999 1dc5 CA2C2983 		.ascii	"\312,)\203\316\210\240r\271\204<)$\015@\375\032\301"
 999      CE88A072 
 999      B9843C29 
 999      240D40FD 
 999      1AC1
 1000 1dd7 64C9B932 		.ascii	"d\311\2712\352\012q\220\036\014\364\370\200\275\341"
 1000      EA0A7190 
 1000      1E0CF4F8 
 1000      80BDE1
 1001 1de6 7220897C 		.ascii	"r \211|\341z\311Rn\010\212<\207s\342\013i\273\250r\016"
 1001      E17AC952 
 1001      6E088A3C 
 1001      8773E20B 
 1001      69BBA872 
 1002 1dfb 1246EFE2 		.ascii	"\022F\357\342</\342\244\324\207s2\343\021j9\344\322"
 1002      3C2FE2A4 
 1002      D4877332 
 1002      E3116A39 
 1002      E4D2
 1003 1e0d 4420C0CB 		.ascii	"D \300\313\311\271\371\317e\313E\331\005#\212\245Bq"
 1003      C9B9F9CF 
 1003      65CB45D9 
 1003      05238AA5 
 1003      4271
 1004 1e1f 58B03405 		.ascii	"X\2604\005\277\313\004\241<Y\212\372U\347\204H\006\237"
 1004      BFCB04A1 
 1004      3C598AFA 
 1004      55E78448 
 1004      069F
 1005 1e31 DB3608AE 		.ascii	"\3336\010\256Q.\316\225\221\226\301\247\366\031\224"
 1005      512ECE95 
 1005      9196C1A7 
 1005      F61994
 1006 1e40 EDCFE83F 		.ascii	"\355\317\350? \376\371~C\374\2752r2\342\372\364~\301"
 1006      20FEF97E 
 1006      43FCBD32 
 1006      7232E2FA 
 1006      F47EC1
 1007 1e53 3FE885EC 		.ascii	"?\350\205\3548\260x\177vFN<\004\377\037\373\365\376"
 1007      38B0787F 
 1007      76464E3C 
 1007      04FF1FFB 
 1007      F5FE
 1008 1e65 535C5FE8 		.ascii	"S\\_\350t\375\006\366I\200R\275\3759\375\006\364\366"
 1008      74FD06F6 
 1008      498052BD 
 1008      FD39FD06 
 1008      F4F6
 1009 1e77 BE90D3B7 		.ascii	"\276\220\323\267w\226w\360\300^\275\237\277\037\232"
 1009      779677F0 
 1009      C05EBD9F 
 1009      BF1F9A
ARM GAS  /tmp/ccUxo6N8.s 			page 80


 1010 1e86 18240582 		.ascii	"\030$\005\202\362\300\001\2753\0204i\272K\\q\221,\201"
 1010      F2C001BD 
 1010      33103469 
 1010      BA4B5C71 
 1010      912C81
 1011 1e99 5DF988BF 		.ascii	"]\371\210\277\217\307\256\033%\240|v\010\212\264\321"
 1011      8FC7AE1B 
 1011      25A07C76 
 1011      088AB4D1 
 1012 1ea9 C909C8C1 		.ascii	"\311\011\310\301\331%\245\"|\247\260\220Ij\306\363\005"
 1012      D925A522 
 1012      7CA7B090 
 1012      496AC6F3 
 1012      05
 1013 1eba E58908B7 		.ascii	"\345\211\010\267O\237\014\200\026Aj\355\340\025*\226"
 1013      4F9F0C80 
 1013      16416AED 
 1013      E0152A96 
 1014 1eca 992FE78E 		.ascii	"\231/\347\216\014\226\025!\216s\260o\027\245\300\210"
 1014      0C961521 
 1014      8E73B06F 
 1014      17A5C088 
 1015 1eda B6F0D447 		.ascii	"\266\360\324G\016\365\247zlG\037Um\322\327\031T\247"
 1015      0EF5A77A 
 1015      6C471F55 
 1015      6DD2D719 
 1015      54A7
 1016 1eec 89E43107 		.ascii	"\211\3441\007T\237B\222\331\320\303\013\013\013BrPE"
 1016      549F4292 
 1016      D9D0C30B 
 1016      0B0B4272 
 1016      5045
 1017 1efe 52ED234F 		.ascii	"R\355#O\016\2429Rvn~\226\014\223\0359\257\254P\316\006"
 1017      0EA23952 
 1017      766E7E96 
 1017      0C931D39 
 1017      AFAC50CE 
 1018 1f13 8544F4D1 		.ascii	"\205D\364\321\317~&\022\200\021\005\015\015\360\256"
 1018      CF7E2612 
 1018      8011050D 
 1018      0DF0AE
 1019 1f22 B8AC10DC 		.ascii	"\270\254\020\334|(P\234[T\012\31702\225\274\344)\224"
 1019      7C28509C 
 1019      5B540ACF 
 1019      303295BC 
 1019      E42994
 1020 1f35 A5E19ED2 		.ascii	"\245\341\236\322\262\200\214\355\031\013\014\206\255"
 1020      B2808CED 
 1020      190B0C86 
 1020      AD
 1021 1f42 01A1F217 		.ascii	"\001\241\362\027\206\375\015\272Y\277\342\202P<ySR\232"
 1021      86FD0DBA 
 1021      59BFE282 
 1021      503C7953 
 1021      529A
 1022 1f54 845F0C2E 		.ascii	"\204_\014.\006q\214D=4T22\3064\010\006\015h\334#\205"
 1022      06718C44 
ARM GAS  /tmp/ccUxo6N8.s 			page 81


 1022      3D345432 
 1022      32C63408 
 1022      060D68DC 
 1023 1f6a 4A0A48CB 		.ascii	"J\012H\313\245/'`\020\340od\"\346\002\330\222\321\264"
 1023      A52F2760 
 1023      10E06F64 
 1023      22E602D8 
 1023      92D1B4
 1024 1f7d 0D927F82 		.ascii	"\015\222\177\202\301\261\035Ni\215#\263\204\014\350"
 1024      C1B11D4E 
 1024      698D23B3 
 1024      840CE8
 1025 1f8c FD813EA5 		.ascii	"\375\201>\245\301\314\341#D\260\2476z\203\354\207D\226"
 1025      C1CCE123 
 1025      44B0A736 
 1025      7A83EC87 
 1025      4496
 1026 1f9e 9197     		.ascii	"\221\227"
 1027 1fa0 9753426C 		.ascii	"\227SBl\374^*ll\366Y\345$\263MYq\020J\313y\251\250+"
 1027      FC5E2A6C 
 1027      6CF659E5 
 1027      24B34D59 
 1027      71104ACB 
 1028 1fb8 7BFDCFC1 		.ascii	"{\375\317\301\220\227\020,\224\345R\244\2058pe\305 "
 1028      9097102C 
 1028      94E552A4 
 1028      85387065 
 1028      C520
 1029 1fca A81482AB 		.ascii	"\250\024\202\253\265\356\015I#\345\342D\222\215\310"
 1029      B5EE0D49 
 1029      23E5E244 
 1029      928DC8
 1030 1fd9 4B22494C 		.ascii	"K\"IL\364\377\002$\3147\011"
 1030      F4FF0224 
 1030      CC3709
 1031              		.text
 1032              		.section	.gnu.lto_.symtab.a3290799ac8b6ff,"",%progbits
 1033 0000 67707353 		.ascii	"gpsSem\000\000\000\000\000\000\000\000\000\000\000\000"
 1033      656D0000 
 1033      00000000 
 1033      00000000 
 1033      0000
 1034 0012 1B030000 		.ascii	"\033\003\000\000gpsStart\000\000\000\000\000\000\000"
 1034      67707353 
 1034      74617274 
 1034      00000000 
 1034      000000
 1035 0025 00000000 		.ascii	"\000\000\000\000\000\215\002\000\000gpsStop\000\000"
 1035      008D0200 
 1035      00677073 
 1035      53746F70 
 1035      0000
 1036 0037 00000000 		.ascii	"\000\000\000\000\000\000\000\000\000\000\231\002\000"
 1036      00000000 
 1036      00009902 
 1036      00
 1037 0044 00677073 		.ascii	"\000gpsParseNMEAType\000\000\000\000\000\000\000\000"
ARM GAS  /tmp/ccUxo6N8.s 			page 82


 1037      50617273 
 1037      654E4D45 
 1037      41547970 
 1037      65000000 
 1038 005d 00000000 		.ascii	"\000\000\000\000\244\002\000\000gpsParseFix\000\000"
 1038      A4020000 
 1038      67707350 
 1038      61727365 
 1038      46697800 
 1039 0072 00000000 		.ascii	"\000\000\000\000\000\000\000\000\000\000\252\002\000"
 1039      00000000 
 1039      0000AA02 
 1039      00
 1040 007f 00677073 		.ascii	"\000gpsNMEAChecksum\000\000\000\000\000\000\000\000"
 1040      4E4D4541 
 1040      43686563 
 1040      6B73756D 
 1040      00000000 
 1041 0097 00000000 		.ascii	"\000\000\000\000\264\002\000\000gpsThread\000\000\000"
 1041      B4020000 
 1041      67707354 
 1041      68726561 
 1041      64000000 
 1042 00ab 00000000 		.ascii	"\000\000\000\000\000\000\000\000\000\272\002\000\000"
 1042      00000000 
 1042      00BA0200 
 1042      00
 1043 00b8 67707347 		.ascii	"gpsGetLatitude\000\000\000\000\000\000\000\000\000\000"
 1043      65744C61 
 1043      74697475 
 1043      64650000 
 1043      00000000 
 1044 00d0 0000C102 		.ascii	"\000\000\301\002\000\000gpsGetLongitude\000\000\000"
 1044      00006770 
 1044      73476574 
 1044      4C6F6E67 
 1044      69747564 
 1045 00e8 00000000 		.ascii	"\000\000\000\000\000\000\000\000\000\305\002\000\000"
 1045      00000000 
 1045      00C50200 
 1045      00
 1046 00f5 67707347 		.ascii	"gpsGetAltitude\000\000\000\000\000\000\000\000\000\000"
 1046      6574416C 
 1046      74697475 
 1046      64650000 
 1046      00000000 
 1047 010d 0000C802 		.ascii	"\000\000\310\002\000\000gpsGetTime\000\000\000\000\000"
 1047      00006770 
 1047      73476574 
 1047      54696D65 
 1047      00000000 
 1048 0122 00000000 		.ascii	"\000\000\000\000\000\000\000\313\002\000\000gpsGetS"
 1048      000000CB 
 1048      02000067 
 1048      70734765 
 1048      7453
 1049 0134 6174656C 		.ascii	"atellites\000\000\000\000\000\000\000\000\000\000\000"
ARM GAS  /tmp/ccUxo6N8.s 			page 83


 1049      6C697465 
 1049      73000000 
 1049      00000000 
 1049      00000000 
 1050 0148 00CF0200 		.ascii	"\000\317\002\000\000gpsGetLocation\000\000\000\000\000"
 1050      00677073 
 1050      4765744C 
 1050      6F636174 
 1050      696F6E00 
 1051 0160 00000000 		.ascii	"\000\000\000\000\000\000\000\323\002\000\000chSchRe"
 1051      000000D3 
 1051      02000063 
 1051      68536368 
 1051      5265
 1052 0172 73636865 		.ascii	"scheduleS\000\000\002\000\000\000\000\000\000\000\000"
 1052      64756C65 
 1052      53000002 
 1052      00000000 
 1052      00000000 
 1053 0186 00DA0200 		.ascii	"\000\332\002\000\000chSemSignalI\000\000\002\000\000"
 1053      00636853 
 1053      656D5369 
 1053      676E616C 
 1053      49000002 
 1054 019c 00000000 		.ascii	"\000\000\000\000\000\000\000\335\002\000\000uartSta"
 1054      000000DD 
 1054      02000075 
 1054      61727453 
 1054      7461
 1055 01ae 72740000 		.ascii	"rt\000\000\002\000\000\000\000\000\000\000\000\000\357"
 1055      02000000 
 1055      00000000 
 1055      0000EF
 1056 01bd 02000063 		.ascii	"\002\000\000chMtxObjectInit\000\000\002\000\000\000"
 1056      684D7478 
 1056      4F626A65 
 1056      6374496E 
 1056      69740000 
 1057 01d5 00000000 		.ascii	"\000\000\000\000\000\000\364\002\000\000uartStop\000"
 1057      0000F402 
 1057      00007561 
 1057      72745374 
 1057      6F7000
 1058 01e8 00020000 		.ascii	"\000\002\000\000\000\000\000\000\000\000\000\370\002"
 1058      00000000 
 1058      000000F8 
 1058      02
 1059 01f5 00006368 		.ascii	"\000\000chMtxUnlock\000\000\002\000\000\000\000\000"
 1059      4D747855 
 1059      6E6C6F63 
 1059      6B000002 
 1059      00000000 
 1060 020a 00000000 		.ascii	"\000\000\000\000\372\002\000\000strtok\000\000\002\000"
 1060      FA020000 
 1060      73747274 
 1060      6F6B0000 
 1060      0200
ARM GAS  /tmp/ccUxo6N8.s 			page 84


 1061 021c 00000000 		.ascii	"\000\000\000\000\000\000\000\000\374\002\000\000ato"
 1061      00000000 
 1061      FC020000 
 1061      61746F
 1062 022b 69000002 		.ascii	"i\000\000\002\000\000\000\000\000\000\000\000\000\001"
 1062      00000000 
 1062      00000000 
 1062      0001
 1063 0239 03000063 		.ascii	"\003\000\000chMtxLock\000\000\002\000\000\000\000\000"
 1063      684D7478 
 1063      4C6F636B 
 1063      00000200 
 1063      00000000 
 1064 024d 00000000 		.ascii	"\000\000\000\000\016\003\000\000chSemReset\000\000\002"
 1064      0E030000 
 1064      63685365 
 1064      6D526573 
 1064      65740000 
 1065 0262 00000000 		.ascii	"\000\000\000\000\000\000\000\000\000\020\003\000\000"
 1065      00000000 
 1065      00100300 
 1065      00
 1066 026f 63685365 		.ascii	"chSemWait\000\000\002\000\000\000\000\000\000\000\000"
 1066      6D576169 
 1066      74000002 
 1066      00000000 
 1066      00000000 
 1067 0283 00150300 		.ascii	"\000\025\003\000\000chSemObjectInit\000\000\002\000"
 1067      00636853 
 1067      656D4F62 
 1067      6A656374 
 1067      496E6974 
 1068 029b 00000000 		.ascii	"\000\000\000\000\000\000\000\000\031\003\000\000"
 1068      00000000 
 1068      19030000 
 1069              		.text
 1070              		.section	.gnu.lto_.opts,"",%progbits
 1071 0000 272D6D63 		.ascii	"'-mcpu=cortex-m4' '-mfloat-abi=hard' '-mfpu=fpv4-sp"
 1071      70753D63 
 1071      6F727465 
 1071      782D6D34 
 1071      2720272D 
 1072 0033 2D643136 		.ascii	"-d16' '-mno-thumb-interwork' '-mthumb' '-O2' '-fomi"
 1072      2720272D 
 1072      6D6E6F2D 
 1072      7468756D 
 1072      622D696E 
 1073 0066 742D6672 		.ascii	"t-frame-pointer' '-falign-functions=16' '-ffunction"
 1073      616D652D 
 1073      706F696E 
 1073      74657227 
 1073      20272D66 
 1074 0099 2D736563 		.ascii	"-sections' '-fdata-sections' '-fno-common' '-flto' "
 1074      74696F6E 
 1074      73272027 
 1074      2D666461 
 1074      74612D73 
ARM GAS  /tmp/ccUxo6N8.s 			page 85


 1075 00cc 272D6673 		.ascii	"'-fsingle-precision-constant'\000"
 1075      696E676C 
 1075      652D7072 
 1075      65636973 
 1075      696F6E2D 
 1076              		.text
 1077              		.section	.text.gpsTxbufEnd,"ax",%progbits
 1078              		.align	2
 1079              		.p2align 4,,15
 1080              		.thumb
 1081              		.thumb_func
 1082              		.type	gpsTxbufEnd, %function
 1083              	gpsTxbufEnd:
 1084              		@ args = 0, pretend = 0, frame = 0
 1085              		@ frame_needed = 0, uses_anonymous_args = 0
 1086              		@ link register save eliminated.
 1087 0000 7047     		bx	lr
 1088              		.size	gpsTxbufEnd, .-gpsTxbufEnd
 1089 0002 00BFAFF3 		.section	.text.gpsTxC,"ax",%progbits
 1089      0080AFF3 
 1089      0080AFF3 
 1089      0080
 1090              		.align	2
 1091              		.p2align 4,,15
 1092              		.thumb
 1093              		.thumb_func
 1094              		.type	gpsTxC, %function
 1095              	gpsTxC:
 1096              		@ args = 0, pretend = 0, frame = 0
 1097              		@ frame_needed = 0, uses_anonymous_args = 0
 1098              		@ link register save eliminated.
 1099 0000 7047     		bx	lr
 1100              		.size	gpsTxC, .-gpsTxC
 1101 0002 00BFAFF3 		.section	.text.gpsRxEnd,"ax",%progbits
 1101      0080AFF3 
 1101      0080AFF3 
 1101      0080
 1102              		.align	2
 1103              		.p2align 4,,15
 1104              		.thumb
 1105              		.thumb_func
 1106              		.type	gpsRxEnd, %function
 1107              	gpsRxEnd:
 1108              		@ args = 0, pretend = 0, frame = 0
 1109              		@ frame_needed = 0, uses_anonymous_args = 0
 1110              		@ link register save eliminated.
 1111 0000 7047     		bx	lr
 1112              		.size	gpsRxEnd, .-gpsRxEnd
 1113 0002 00BFAFF3 		.section	.text.gpsRxErr,"ax",%progbits
 1113      0080AFF3 
 1113      0080AFF3 
 1113      0080
 1114              		.align	2
 1115              		.p2align 4,,15
 1116              		.thumb
 1117              		.thumb_func
 1118              		.type	gpsRxErr, %function
ARM GAS  /tmp/ccUxo6N8.s 			page 86


 1119              	gpsRxErr:
 1120              		@ args = 0, pretend = 0, frame = 0
 1121              		@ frame_needed = 0, uses_anonymous_args = 0
 1122              		@ link register save eliminated.
 1123 0000 7047     		bx	lr
 1124              		.size	gpsRxErr, .-gpsRxErr
 1125 0002 00BFAFF3 		.section	.text.gpsRxChar,"ax",%progbits
 1125      0080AFF3 
 1125      0080AFF3 
 1125      0080
 1126              		.align	2
 1127              		.p2align 4,,15
 1128              		.thumb
 1129              		.thumb_func
 1130              		.type	gpsRxChar, %function
 1131              	gpsRxChar:
 1132              		@ args = 0, pretend = 0, frame = 0
 1133              		@ frame_needed = 0, uses_anonymous_args = 0
 1134 0000 10B5     		push	{r4, lr}
 1135 0002 174B     		ldr	r3, .L13
 1136 0004 0A29     		cmp	r1, #10
 1137 0006 93F8A820 		ldrb	r2, [r3, #168]	@ zero_extendqisi2
 1138 000a 0CD0     		beq	.L11
 1139 000c 512A     		cmp	r2, #81
 1140 000e 09D8     		bhi	.L5
 1141 0010 93F8A900 		ldrb	r0, [r3, #169]	@ zero_extendqisi2
 1142 0014 5224     		movs	r4, #82
 1143 0016 04FB0030 		mla	r0, r4, r0, r3
 1144 001a 0430     		adds	r0, r0, #4
 1145 001c 541C     		adds	r4, r2, #1
 1146 001e 83F8A840 		strb	r4, [r3, #168]
 1147 0022 8154     		strb	r1, [r0, r2]
 1148              	.L5:
 1149 0024 10BD     		pop	{r4, pc}
 1150              	.L11:
 1151 0026 512A     		cmp	r2, #81
 1152 0028 0AD8     		bhi	.L7
 1153 002a 93F8A910 		ldrb	r1, [r3, #169]	@ zero_extendqisi2
 1154 002e 5220     		movs	r0, #82
 1155 0030 00FB0131 		mla	r1, r0, r1, r3
 1156 0034 0431     		adds	r1, r1, #4
 1157 0036 541C     		adds	r4, r2, #1
 1158 0038 0020     		movs	r0, #0
 1159 003a 83F8A840 		strb	r4, [r3, #168]
 1160 003e 8854     		strb	r0, [r1, r2]
 1161              	.L7:
 1162 0040 2023     		movs	r3, #32
 1163              	@ 546 "/home/cody/dev/chibios/trunk/os/ext/CMSIS/include/core_cmFunc.h" 1
 1164 0042 83F31188 		MSR basepri, r3
 1165              	@ 0 "" 2
 1166              		.thumb
 1167 0046 0748     		ldr	r0, .L13+4
 1168 0048 8368     		ldr	r3, [r0, #8]
 1169 004a 002B     		cmp	r3, #0
 1170 004c 05DD     		ble	.L12
 1171              	.L8:
 1172 004e FFF7FEFF 		bl	chSchRescheduleS
ARM GAS  /tmp/ccUxo6N8.s 			page 87


 1173 0052 0023     		movs	r3, #0
 1174              	@ 546 "/home/cody/dev/chibios/trunk/os/ext/CMSIS/include/core_cmFunc.h" 1
 1175 0054 83F31188 		MSR basepri, r3
 1176              	@ 0 "" 2
 1177              		.thumb
 1178 0058 10BD     		pop	{r4, pc}
 1179              	.L12:
 1180 005a FFF7FEFF 		bl	chSemSignalI
 1181 005e F6E7     		b	.L8
 1182              	.L14:
 1183              		.align	2
 1184              	.L13:
 1185 0060 00000000 		.word	.LANCHOR0
 1186 0064 00000000 		.word	.LANCHOR1
 1187              		.size	gpsRxChar, .-gpsRxChar
 1188 0068 AFF30080 		.section	.text.gpsStart,"ax",%progbits
 1188      AFF30080 
 1189              		.align	2
 1190              		.p2align 4,,15
 1191              		.global	gpsStart
 1192              		.thumb
 1193              		.thumb_func
 1194              		.type	gpsStart, %function
 1195              	gpsStart:
 1196              		@ args = 0, pretend = 0, frame = 0
 1197              		@ frame_needed = 0, uses_anonymous_args = 0
 1198 0000 10B5     		push	{r4, lr}
 1199 0002 0346     		mov	r3, r0
 1200 0004 60B1     		cbz	r0, .L17
 1201 0006 074C     		ldr	r4, .L18
 1202 0008 2046     		mov	r0, r4
 1203 000a 40F8C03B 		str	r3, [r0], #192
 1204 000e FFF7FEFF 		bl	chMtxObjectInit
 1205 0012 2068     		ldr	r0, [r4]
 1206 0014 0449     		ldr	r1, .L18+4
 1207 0016 FFF7FEFF 		bl	uartStart
 1208 001a 0020     		movs	r0, #0
 1209              	.L16:
 1210 001c 40B2     		sxtb	r0, r0
 1211 001e 10BD     		pop	{r4, pc}
 1212              	.L17:
 1213 0020 FF20     		movs	r0, #255
 1214 0022 FBE7     		b	.L16
 1215              	.L19:
 1216              		.align	2
 1217              	.L18:
 1218 0024 00000000 		.word	.LANCHOR0
 1219 0028 00000000 		.word	.LANCHOR2
 1220              		.size	gpsStart, .-gpsStart
 1221 002c AFF30080 		.section	.text.gpsStop,"ax",%progbits
 1222              		.align	2
 1223              		.p2align 4,,15
 1224              		.global	gpsStop
 1225              		.thumb
 1226              		.thumb_func
 1227              		.type	gpsStop, %function
 1228              	gpsStop:
ARM GAS  /tmp/ccUxo6N8.s 			page 88


 1229              		@ args = 0, pretend = 0, frame = 0
 1230              		@ frame_needed = 0, uses_anonymous_args = 0
 1231 0000 08B5     		push	{r3, lr}
 1232 0002 0068     		ldr	r0, [r0]
 1233 0004 FFF7FEFF 		bl	uartStop
 1234 0008 0020     		movs	r0, #0
 1235 000a 08BD     		pop	{r3, pc}
 1236              		.size	gpsStop, .-gpsStop
 1237 000c AFF30080 		.section	.text.gpsParseNMEAType,"ax",%progbits
 1238              		.align	2
 1239              		.p2align 4,,15
 1240              		.global	gpsParseNMEAType
 1241              		.thumb
 1242              		.thumb_func
 1243              		.type	gpsParseNMEAType, %function
 1244              	gpsParseNMEAType:
 1245              		@ args = 0, pretend = 0, frame = 0
 1246              		@ frame_needed = 0, uses_anonymous_args = 0
 1247 0000 10B5     		push	{r4, lr}
 1248 0002 0378     		ldrb	r3, [r0]	@ zero_extendqisi2
 1249 0004 242B     		cmp	r3, #36
 1250 0006 0446     		mov	r4, r0
 1251 0008 01D0     		beq	.L33
 1252 000a 0820     		movs	r0, #8
 1253 000c 10BD     		pop	{r4, pc}
 1254              	.L33:
 1255 000e 0130     		adds	r0, r0, #1
 1256 0010 2049     		ldr	r1, .L39
 1257 0012 0222     		movs	r2, #2
 1258 0014 FFF7FEFF 		bl	strncmp
 1259 0018 08B1     		cbz	r0, .L34
 1260 001a 0720     		movs	r0, #7
 1261              	.L22:
 1262 001c 10BD     		pop	{r4, pc}
 1263              	.L34:
 1264 001e 0334     		adds	r4, r4, #3
 1265 0020 2046     		mov	r0, r4
 1266 0022 1D49     		ldr	r1, .L39+4
 1267 0024 0322     		movs	r2, #3
 1268 0026 FFF7FEFF 		bl	strncmp
 1269 002a 0028     		cmp	r0, #0
 1270 002c F6D0     		beq	.L22
 1271 002e 2046     		mov	r0, r4
 1272 0030 1A49     		ldr	r1, .L39+8
 1273 0032 0322     		movs	r2, #3
 1274 0034 FFF7FEFF 		bl	strncmp
 1275 0038 38B1     		cbz	r0, .L27
 1276 003a 2046     		mov	r0, r4
 1277 003c 1849     		ldr	r1, .L39+12
 1278 003e 0322     		movs	r2, #3
 1279 0040 FFF7FEFF 		bl	strncmp
 1280 0044 18B9     		cbnz	r0, .L35
 1281 0046 0220     		movs	r0, #2
 1282 0048 10BD     		pop	{r4, pc}
 1283              	.L27:
 1284 004a 0120     		movs	r0, #1
 1285 004c 10BD     		pop	{r4, pc}
ARM GAS  /tmp/ccUxo6N8.s 			page 89


 1286              	.L35:
 1287 004e 2046     		mov	r0, r4
 1288 0050 1449     		ldr	r1, .L39+16
 1289 0052 0322     		movs	r2, #3
 1290 0054 FFF7FEFF 		bl	strncmp
 1291 0058 08B9     		cbnz	r0, .L36
 1292 005a 0320     		movs	r0, #3
 1293 005c 10BD     		pop	{r4, pc}
 1294              	.L36:
 1295 005e 2046     		mov	r0, r4
 1296 0060 1149     		ldr	r1, .L39+20
 1297 0062 0322     		movs	r2, #3
 1298 0064 FFF7FEFF 		bl	strncmp
 1299 0068 08B9     		cbnz	r0, .L37
 1300 006a 0420     		movs	r0, #4
 1301 006c 10BD     		pop	{r4, pc}
 1302              	.L37:
 1303 006e 2046     		mov	r0, r4
 1304 0070 0E49     		ldr	r1, .L39+24
 1305 0072 0322     		movs	r2, #3
 1306 0074 FFF7FEFF 		bl	strncmp
 1307 0078 08B9     		cbnz	r0, .L38
 1308 007a 0520     		movs	r0, #5
 1309 007c 10BD     		pop	{r4, pc}
 1310              	.L38:
 1311 007e 2046     		mov	r0, r4
 1312 0080 0B49     		ldr	r1, .L39+28
 1313 0082 0322     		movs	r2, #3
 1314 0084 FFF7FEFF 		bl	strncmp
 1315 0088 0028     		cmp	r0, #0
 1316 008a 14BF     		ite	ne
 1317 008c 0720     		movne	r0, #7
 1318 008e 0620     		moveq	r0, #6
 1319 0090 10BD     		pop	{r4, pc}
 1320              	.L40:
 1321 0092 00BF     		.align	2
 1322              	.L39:
 1323 0094 00000000 		.word	.LC0
 1324 0098 04000000 		.word	.LC1
 1325 009c 08000000 		.word	.LC2
 1326 00a0 0C000000 		.word	.LC3
 1327 00a4 10000000 		.word	.LC4
 1328 00a8 14000000 		.word	.LC5
 1329 00ac 18000000 		.word	.LC6
 1330 00b0 1C000000 		.word	.LC7
 1331              		.size	gpsParseNMEAType, .-gpsParseNMEAType
 1332 00b4 AFF30080 		.section	.text.gpsParseFix,"ax",%progbits
 1332      AFF30080 
 1332      AFF30080 
 1333              		.align	2
 1334              		.p2align 4,,15
 1335              		.global	gpsParseFix
 1336              		.thumb
 1337              		.thumb_func
 1338              		.type	gpsParseFix, %function
 1339              	gpsParseFix:
 1340              		@ args = 0, pretend = 0, frame = 16
ARM GAS  /tmp/ccUxo6N8.s 			page 90


 1341              		@ frame_needed = 0, uses_anonymous_args = 0
 1342 0000 70B5     		push	{r4, r5, r6, lr}
 1343 0002 0322     		movs	r2, #3
 1344 0004 84B0     		sub	sp, sp, #16
 1345 0006 0446     		mov	r4, r0
 1346 0008 0E46     		mov	r6, r1
 1347 000a 0330     		adds	r0, r0, #3
 1348 000c 3D49     		ldr	r1, .L63
 1349 000e FFF7FEFF 		bl	strncmp
 1350 0012 0028     		cmp	r0, #0
 1351 0014 74D1     		bne	.L57
 1352 0016 2046     		mov	r0, r4
 1353 0018 3B49     		ldr	r1, .L63+4
 1354 001a FFF7FEFF 		bl	strtok
 1355 001e 0546     		mov	r5, r0
 1356 0020 3A48     		ldr	r0, .L63+8
 1357 0022 FFF7FEFF 		bl	chMtxLock
 1358 0026 002D     		cmp	r5, #0
 1359 0028 5FD0     		beq	.L44
 1360 002a 0124     		movs	r4, #1
 1361              	.L45:
 1362 002c 631E     		subs	r3, r4, #1
 1363 002e DBB2     		uxtb	r3, r3
 1364 0030 013B     		subs	r3, r3, #1
 1365 0032 062B     		cmp	r3, #6
 1366 0034 05D8     		bhi	.L46
 1367 0036 DFE803F0 		tbb	[pc, r3]
 1368              	.L48:
 1369 003a 41       		.byte	(.L47-.L48)/2
 1370 003b 32       		.byte	(.L49-.L48)/2
 1371 003c 2B       		.byte	(.L50-.L48)/2
 1372 003d 1B       		.byte	(.L51-.L48)/2
 1373 003e 10       		.byte	(.L52-.L48)/2
 1374 003f 04       		.byte	(.L46-.L48)/2
 1375 0040 4B       		.byte	(.L53-.L48)/2
 1376 0041 00       		.p2align 1
 1377              	.L46:
 1378 0042 0020     		movs	r0, #0
 1379 0044 3049     		ldr	r1, .L63+4
 1380 0046 FFF7FEFF 		bl	strtok
 1381 004a 0546     		mov	r5, r0
 1382 004c 0028     		cmp	r0, #0
 1383 004e 4CD0     		beq	.L44
 1384 0050 082C     		cmp	r4, #8
 1385 0052 4AD0     		beq	.L44
 1386              	.L56:
 1387 0054 0134     		adds	r4, r4, #1
 1388 0056 E4B2     		uxtb	r4, r4
 1389 0058 E8E7     		b	.L45
 1390              	.L52:
 1391 005a 2B78     		ldrb	r3, [r5]	@ zero_extendqisi2
 1392 005c 572B     		cmp	r3, #87
 1393 005e 4BD0     		beq	.L62
 1394              	.L54:
 1395 0060 0020     		movs	r0, #0
 1396 0062 2949     		ldr	r1, .L63+4
 1397 0064 FFF7FEFF 		bl	strtok
ARM GAS  /tmp/ccUxo6N8.s 			page 91


 1398 0068 0546     		mov	r5, r0
 1399 006a 0028     		cmp	r0, #0
 1400 006c F2D1     		bne	.L56
 1401 006e 3CE0     		b	.L44
 1402              	.L51:
 1403 0070 2946     		mov	r1, r5
 1404 0072 0522     		movs	r2, #5
 1405 0074 6846     		mov	r0, sp
 1406 0076 FFF7FEFF 		bl	strncpy
 1407 007a A91D     		adds	r1, r5, #6
 1408 007c 0222     		movs	r2, #2
 1409 007e 0DF10500 		add	r0, sp, #5
 1410 0082 FFF7FEFF 		bl	strncpy
 1411 0086 6846     		mov	r0, sp
 1412 0088 FFF7FEFF 		bl	atoi
 1413 008c B060     		str	r0, [r6, #8]
 1414 008e E7E7     		b	.L54
 1415              	.L50:
 1416 0090 2B78     		ldrb	r3, [r5]	@ zero_extendqisi2
 1417 0092 532B     		cmp	r3, #83
 1418 0094 E4D1     		bne	.L54
 1419 0096 7368     		ldr	r3, [r6, #4]
 1420 0098 5B42     		negs	r3, r3
 1421 009a 7360     		str	r3, [r6, #4]
 1422 009c E0E7     		b	.L54
 1423              	.L49:
 1424 009e 2946     		mov	r1, r5
 1425 00a0 0422     		movs	r2, #4
 1426 00a2 6846     		mov	r0, sp
 1427 00a4 FFF7FEFF 		bl	strncpy
 1428 00a8 691D     		adds	r1, r5, #5
 1429 00aa 0222     		movs	r2, #2
 1430 00ac 01A8     		add	r0, sp, #4
 1431 00ae FFF7FEFF 		bl	strncpy
 1432 00b2 6846     		mov	r0, sp
 1433 00b4 FFF7FEFF 		bl	atoi
 1434 00b8 7060     		str	r0, [r6, #4]
 1435 00ba D1E7     		b	.L54
 1436              	.L47:
 1437 00bc 2946     		mov	r1, r5
 1438 00be 0622     		movs	r2, #6
 1439 00c0 6846     		mov	r0, sp
 1440 00c2 FFF7FEFF 		bl	strncpy
 1441 00c6 6846     		mov	r0, sp
 1442 00c8 FFF7FEFF 		bl	atoi
 1443 00cc 3060     		str	r0, [r6]
 1444 00ce C7E7     		b	.L54
 1445              	.L53:
 1446 00d0 2946     		mov	r1, r5
 1447 00d2 0122     		movs	r2, #1
 1448 00d4 6846     		mov	r0, sp
 1449 00d6 FFF7FEFF 		bl	strncpy
 1450 00da 6846     		mov	r0, sp
 1451 00dc FFF7FEFF 		bl	atoi
 1452 00e0 0949     		ldr	r1, .L63+4
 1453 00e2 3074     		strb	r0, [r6, #16]
 1454 00e4 0020     		movs	r0, #0
ARM GAS  /tmp/ccUxo6N8.s 			page 92


 1455 00e6 FFF7FEFF 		bl	strtok
 1456              	.L44:
 1457 00ea 0848     		ldr	r0, .L63+8
 1458 00ec FFF7FEFF 		bl	chMtxUnlock
 1459 00f0 0020     		movs	r0, #0
 1460              	.L42:
 1461 00f2 40B2     		sxtb	r0, r0
 1462 00f4 04B0     		add	sp, sp, #16
 1463              		@ sp needed
 1464 00f6 70BD     		pop	{r4, r5, r6, pc}
 1465              	.L62:
 1466 00f8 7368     		ldr	r3, [r6, #4]
 1467 00fa 5B42     		negs	r3, r3
 1468 00fc B360     		str	r3, [r6, #8]
 1469 00fe AFE7     		b	.L54
 1470              	.L57:
 1471 0100 FF20     		movs	r0, #255
 1472 0102 F6E7     		b	.L42
 1473              	.L64:
 1474              		.align	2
 1475              	.L63:
 1476 0104 08000000 		.word	.LC2
 1477 0108 20000000 		.word	.LC8
 1478 010c C0000000 		.word	.LANCHOR0+192
 1479              		.size	gpsParseFix, .-gpsParseFix
 1480              		.section	.text.gpsNMEAChecksum,"ax",%progbits
 1481              		.align	2
 1482              		.p2align 4,,15
 1483              		.global	gpsNMEAChecksum
 1484              		.thumb
 1485              		.thumb_func
 1486              		.type	gpsNMEAChecksum, %function
 1487              	gpsNMEAChecksum:
 1488              		@ args = 0, pretend = 0, frame = 0
 1489              		@ frame_needed = 0, uses_anonymous_args = 0
 1490              		@ link register save eliminated.
 1491 0000 4378     		ldrb	r3, [r0, #1]	@ zero_extendqisi2
 1492 0002 421C     		adds	r2, r0, #1
 1493 0004 3BB1     		cbz	r3, .L68
 1494 0006 0020     		movs	r0, #0
 1495              	.L67:
 1496 0008 5840     		eors	r0, r0, r3
 1497 000a 12F8013F 		ldrb	r3, [r2, #1]!	@ zero_extendqisi2
 1498 000e C0B2     		uxtb	r0, r0
 1499 0010 002B     		cmp	r3, #0
 1500 0012 F9D1     		bne	.L67
 1501 0014 7047     		bx	lr
 1502              	.L68:
 1503 0016 1846     		mov	r0, r3
 1504 0018 7047     		bx	lr
 1505              		.size	gpsNMEAChecksum, .-gpsNMEAChecksum
 1506 001a 00BFAFF3 		.section	.text.gpsThread,"ax",%progbits
 1506      0080
 1507              		.align	2
 1508              		.p2align 4,,15
 1509              		.global	gpsThread
 1510              		.thumb
ARM GAS  /tmp/ccUxo6N8.s 			page 93


 1511              		.thumb_func
 1512              		.type	gpsThread, %function
 1513              	gpsThread:
 1514              		@ args = 0, pretend = 0, frame = 0
 1515              		@ frame_needed = 0, uses_anonymous_args = 0
 1516 0000 F8B5     		push	{r3, r4, r5, r6, r7, lr}
 1517 0002 0121     		movs	r1, #1
 1518 0004 0646     		mov	r6, r0
 1519 0006 1248     		ldr	r0, .L78
 1520 0008 124C     		ldr	r4, .L78+4
 1521 000a FFF7FEFF 		bl	chSemObjectInit
 1522 000e 5227     		movs	r7, #82
 1523 0010 0FE0     		b	.L75
 1524              	.L76:
 1525 0012 FFF7FEFF 		bl	chSemWait
 1526 0016 0E48     		ldr	r0, .L78
 1527 0018 0121     		movs	r1, #1
 1528 001a FFF7FEFF 		bl	chSemReset
 1529 001e 94F8A950 		ldrb	r5, [r4, #169]	@ zero_extendqisi2
 1530 0022 07FB0545 		mla	r5, r7, r5, r4
 1531 0026 0435     		adds	r5, r5, #4
 1532 0028 2846     		mov	r0, r5
 1533 002a FFF7FEFF 		bl	gpsParseNMEAType
 1534 002e 0128     		cmp	r0, #1
 1535 0030 08D0     		beq	.L77
 1536              	.L75:
 1537 0032 B378     		ldrb	r3, [r6, #2]	@ zero_extendqisi2
 1538 0034 0648     		ldr	r0, .L78
 1539 0036 002B     		cmp	r3, #0
 1540 0038 EBD1     		bne	.L76
 1541 003a 2068     		ldr	r0, [r4]
 1542 003c FFF7FEFF 		bl	uartStop
 1543 0040 0020     		movs	r0, #0
 1544 0042 F8BD     		pop	{r3, r4, r5, r6, r7, pc}
 1545              	.L77:
 1546 0044 2846     		mov	r0, r5
 1547 0046 0449     		ldr	r1, .L78+8
 1548 0048 FFF7FEFF 		bl	gpsParseFix
 1549 004c F1E7     		b	.L75
 1550              	.L79:
 1551 004e 00BF     		.align	2
 1552              	.L78:
 1553 0050 00000000 		.word	.LANCHOR1
 1554 0054 00000000 		.word	.LANCHOR0
 1555 0058 AC000000 		.word	.LANCHOR0+172
 1556              		.size	gpsThread, .-gpsThread
 1557 005c AFF30080 		.section	.text.gpsGetLatitude,"ax",%progbits
 1558              		.align	2
 1559              		.p2align 4,,15
 1560              		.global	gpsGetLatitude
 1561              		.thumb
 1562              		.thumb_func
 1563              		.type	gpsGetLatitude, %function
 1564              	gpsGetLatitude:
 1565              		@ args = 0, pretend = 0, frame = 0
 1566              		@ frame_needed = 0, uses_anonymous_args = 0
 1567 0000 38B5     		push	{r3, r4, r5, lr}
ARM GAS  /tmp/ccUxo6N8.s 			page 94


 1568 0002 064C     		ldr	r4, .L81
 1569 0004 04F1C005 		add	r5, r4, #192
 1570 0008 2846     		mov	r0, r5
 1571 000a FFF7FEFF 		bl	chMtxLock
 1572 000e D4F8B040 		ldr	r4, [r4, #176]
 1573 0012 2846     		mov	r0, r5
 1574 0014 FFF7FEFF 		bl	chMtxUnlock
 1575 0018 2046     		mov	r0, r4
 1576 001a 38BD     		pop	{r3, r4, r5, pc}
 1577              	.L82:
 1578              		.align	2
 1579              	.L81:
 1580 001c 00000000 		.word	.LANCHOR0
 1581              		.size	gpsGetLatitude, .-gpsGetLatitude
 1582              		.section	.text.gpsGetLongitude,"ax",%progbits
 1583              		.align	2
 1584              		.p2align 4,,15
 1585              		.global	gpsGetLongitude
 1586              		.thumb
 1587              		.thumb_func
 1588              		.type	gpsGetLongitude, %function
 1589              	gpsGetLongitude:
 1590              		@ args = 0, pretend = 0, frame = 0
 1591              		@ frame_needed = 0, uses_anonymous_args = 0
 1592 0000 38B5     		push	{r3, r4, r5, lr}
 1593 0002 064C     		ldr	r4, .L84
 1594 0004 04F1C005 		add	r5, r4, #192
 1595 0008 2846     		mov	r0, r5
 1596 000a FFF7FEFF 		bl	chMtxLock
 1597 000e D4F8B440 		ldr	r4, [r4, #180]
 1598 0012 2846     		mov	r0, r5
 1599 0014 FFF7FEFF 		bl	chMtxUnlock
 1600 0018 2046     		mov	r0, r4
 1601 001a 38BD     		pop	{r3, r4, r5, pc}
 1602              	.L85:
 1603              		.align	2
 1604              	.L84:
 1605 001c 00000000 		.word	.LANCHOR0
 1606              		.size	gpsGetLongitude, .-gpsGetLongitude
 1607              		.section	.text.gpsGetAltitude,"ax",%progbits
 1608              		.align	2
 1609              		.p2align 4,,15
 1610              		.global	gpsGetAltitude
 1611              		.thumb
 1612              		.thumb_func
 1613              		.type	gpsGetAltitude, %function
 1614              	gpsGetAltitude:
 1615              		@ args = 0, pretend = 0, frame = 0
 1616              		@ frame_needed = 0, uses_anonymous_args = 0
 1617 0000 38B5     		push	{r3, r4, r5, lr}
 1618 0002 064C     		ldr	r4, .L87
 1619 0004 04F1C005 		add	r5, r4, #192
 1620 0008 2846     		mov	r0, r5
 1621 000a FFF7FEFF 		bl	chMtxLock
 1622 000e D4F8B840 		ldr	r4, [r4, #184]
 1623 0012 2846     		mov	r0, r5
 1624 0014 FFF7FEFF 		bl	chMtxUnlock
ARM GAS  /tmp/ccUxo6N8.s 			page 95


 1625 0018 2046     		mov	r0, r4
 1626 001a 38BD     		pop	{r3, r4, r5, pc}
 1627              	.L88:
 1628              		.align	2
 1629              	.L87:
 1630 001c 00000000 		.word	.LANCHOR0
 1631              		.size	gpsGetAltitude, .-gpsGetAltitude
 1632              		.section	.text.gpsGetTime,"ax",%progbits
 1633              		.align	2
 1634              		.p2align 4,,15
 1635              		.global	gpsGetTime
 1636              		.thumb
 1637              		.thumb_func
 1638              		.type	gpsGetTime, %function
 1639              	gpsGetTime:
 1640              		@ args = 0, pretend = 0, frame = 0
 1641              		@ frame_needed = 0, uses_anonymous_args = 0
 1642 0000 38B5     		push	{r3, r4, r5, lr}
 1643 0002 064C     		ldr	r4, .L90
 1644 0004 04F1C005 		add	r5, r4, #192
 1645 0008 2846     		mov	r0, r5
 1646 000a FFF7FEFF 		bl	chMtxLock
 1647 000e D4F8AC40 		ldr	r4, [r4, #172]
 1648 0012 2846     		mov	r0, r5
 1649 0014 FFF7FEFF 		bl	chMtxUnlock
 1650 0018 2046     		mov	r0, r4
 1651 001a 38BD     		pop	{r3, r4, r5, pc}
 1652              	.L91:
 1653              		.align	2
 1654              	.L90:
 1655 001c 00000000 		.word	.LANCHOR0
 1656              		.size	gpsGetTime, .-gpsGetTime
 1657              		.section	.text.gpsGetSatellites,"ax",%progbits
 1658              		.align	2
 1659              		.p2align 4,,15
 1660              		.global	gpsGetSatellites
 1661              		.thumb
 1662              		.thumb_func
 1663              		.type	gpsGetSatellites, %function
 1664              	gpsGetSatellites:
 1665              		@ args = 0, pretend = 0, frame = 0
 1666              		@ frame_needed = 0, uses_anonymous_args = 0
 1667 0000 38B5     		push	{r3, r4, r5, lr}
 1668 0002 064C     		ldr	r4, .L93
 1669 0004 04F1C005 		add	r5, r4, #192
 1670 0008 2846     		mov	r0, r5
 1671 000a FFF7FEFF 		bl	chMtxLock
 1672 000e 94F8BC40 		ldrb	r4, [r4, #188]	@ zero_extendqisi2
 1673 0012 2846     		mov	r0, r5
 1674 0014 FFF7FEFF 		bl	chMtxUnlock
 1675 0018 2046     		mov	r0, r4
 1676 001a 38BD     		pop	{r3, r4, r5, pc}
 1677              	.L94:
 1678              		.align	2
 1679              	.L93:
 1680 001c 00000000 		.word	.LANCHOR0
 1681              		.size	gpsGetSatellites, .-gpsGetSatellites
ARM GAS  /tmp/ccUxo6N8.s 			page 96


 1682              		.section	.text.gpsGetLocation,"ax",%progbits
 1683              		.align	2
 1684              		.p2align 4,,15
 1685              		.global	gpsGetLocation
 1686              		.thumb
 1687              		.thumb_func
 1688              		.type	gpsGetLocation, %function
 1689              	gpsGetLocation:
 1690              		@ args = 0, pretend = 0, frame = 0
 1691              		@ frame_needed = 0, uses_anonymous_args = 0
 1692 0000 70B5     		push	{r4, r5, r6, lr}
 1693 0002 0C4C     		ldr	r4, .L96
 1694 0004 04F1C006 		add	r6, r4, #192
 1695 0008 0546     		mov	r5, r0
 1696 000a 3046     		mov	r0, r6
 1697 000c FFF7FEFF 		bl	chMtxLock
 1698 0010 04F1B000 		add	r0, r4, #176
 1699 0014 07C8     		ldmia	r0, {r0, r1, r2}
 1700 0016 D4F8AC30 		ldr	r3, [r4, #172]
 1701 001a 94F8BC40 		ldrb	r4, [r4, #188]	@ zero_extendqisi2
 1702 001e 2C74     		strb	r4, [r5, #16]
 1703 0020 6860     		str	r0, [r5, #4]
 1704 0022 A960     		str	r1, [r5, #8]
 1705 0024 3046     		mov	r0, r6
 1706 0026 EA60     		str	r2, [r5, #12]
 1707 0028 2B60     		str	r3, [r5]
 1708 002a BDE87040 		pop	{r4, r5, r6, lr}
 1709 002e FFF7FEBF 		b	chMtxUnlock
 1710              	.L97:
 1711 0032 00BF     		.align	2
 1712              	.L96:
 1713 0034 00000000 		.word	.LANCHOR0
 1714              		.size	gpsGetLocation, .-gpsGetLocation
 1715              		.global	gpsSem
 1716 0038 AFF30080 		.section	.bss.gpsSem,"aw",%nobits
 1716      AFF30080 
 1717              		.align	2
 1718              		.set	.LANCHOR1,. + 0
 1719              		.type	gpsSem, %object
 1720              		.size	gpsSem, 12
 1721              	gpsSem:
 1722 0000 00000000 		.space	12
 1722      00000000 
 1722      00000000 
 1723              		.section	.bss.GPS,"aw",%nobits
 1724              		.align	2
 1725              		.set	.LANCHOR0,. + 0
 1726              		.type	GPS, %object
 1727              		.size	GPS, 208
 1728              	GPS:
 1729 0000 00000000 		.space	208
 1729      00000000 
 1729      00000000 
 1729      00000000 
 1729      00000000 
 1730              		.section	.rodata.str1.4,"aMS",%progbits,1
 1731              		.align	2
ARM GAS  /tmp/ccUxo6N8.s 			page 97


 1732              	.LC0:
 1733 0000 475000   		.ascii	"GP\000"
 1734 0003 00       		.space	1
 1735              	.LC1:
 1736 0004 414C4D00 		.ascii	"ALM\000"
 1737              	.LC2:
 1738 0008 47474100 		.ascii	"GGA\000"
 1739              	.LC3:
 1740 000c 474C4C00 		.ascii	"GLL\000"
 1741              	.LC4:
 1742 0010 47534100 		.ascii	"GSA\000"
 1743              	.LC5:
 1744 0014 47535600 		.ascii	"GSV\000"
 1745              	.LC6:
 1746 0018 48445400 		.ascii	"HDT\000"
 1747              	.LC7:
 1748 001c 5A444100 		.ascii	"ZDA\000"
 1749              	.LC8:
 1750 0020 2C00     		.ascii	",\000"
 1751 0022 0000     		.section	.data.serGpsCfg,"aw",%progbits
 1752              		.align	2
 1753              		.set	.LANCHOR2,. + 0
 1754              		.type	serGpsCfg, %object
 1755              		.size	serGpsCfg, 32
 1756              	serGpsCfg:
 1757 0000 00000000 		.word	gpsTxbufEnd
 1758 0004 00000000 		.word	gpsTxC
 1759 0008 00000000 		.word	gpsRxEnd
 1760 000c 00000000 		.word	gpsRxChar
 1761 0010 00000000 		.word	gpsRxErr
 1762 0014 C0120000 		.word	4800
 1763 0018 0000     		.short	0
 1764 001a 0000     		.short	0
 1765 001c 0000     		.short	0
 1766 001e 0000     		.space	2
 1767              		.comm	__gnu_lto_v1,1,1
 1768              		.ident	"GCC: (GNU Tools for ARM Embedded Processors) 4.8.4 20140526 (release) [ARM/embedded-4_8-br
ARM GAS  /tmp/ccUxo6N8.s 			page 98


DEFINED SYMBOLS
                            *ABS*:0000000000000000 gps.c
     /tmp/ccUxo6N8.s:1078   .text.gpsTxbufEnd:0000000000000000 $t
     /tmp/ccUxo6N8.s:1083   .text.gpsTxbufEnd:0000000000000000 gpsTxbufEnd
     /tmp/ccUxo6N8.s:1090   .text.gpsTxC:0000000000000000 $t
     /tmp/ccUxo6N8.s:1095   .text.gpsTxC:0000000000000000 gpsTxC
     /tmp/ccUxo6N8.s:1102   .text.gpsRxEnd:0000000000000000 $t
     /tmp/ccUxo6N8.s:1107   .text.gpsRxEnd:0000000000000000 gpsRxEnd
     /tmp/ccUxo6N8.s:1114   .text.gpsRxErr:0000000000000000 $t
     /tmp/ccUxo6N8.s:1119   .text.gpsRxErr:0000000000000000 gpsRxErr
     /tmp/ccUxo6N8.s:1126   .text.gpsRxChar:0000000000000000 $t
     /tmp/ccUxo6N8.s:1131   .text.gpsRxChar:0000000000000000 gpsRxChar
     /tmp/ccUxo6N8.s:1185   .text.gpsRxChar:0000000000000060 $d
     /tmp/ccUxo6N8.s:1189   .text.gpsStart:0000000000000000 $t
     /tmp/ccUxo6N8.s:1195   .text.gpsStart:0000000000000000 gpsStart
     /tmp/ccUxo6N8.s:1218   .text.gpsStart:0000000000000024 $d
     /tmp/ccUxo6N8.s:1222   .text.gpsStop:0000000000000000 $t
     /tmp/ccUxo6N8.s:1228   .text.gpsStop:0000000000000000 gpsStop
     /tmp/ccUxo6N8.s:1238   .text.gpsParseNMEAType:0000000000000000 $t
     /tmp/ccUxo6N8.s:1244   .text.gpsParseNMEAType:0000000000000000 gpsParseNMEAType
     /tmp/ccUxo6N8.s:1323   .text.gpsParseNMEAType:0000000000000094 $d
     /tmp/ccUxo6N8.s:1333   .text.gpsParseFix:0000000000000000 $t
     /tmp/ccUxo6N8.s:1339   .text.gpsParseFix:0000000000000000 gpsParseFix
     /tmp/ccUxo6N8.s:1369   .text.gpsParseFix:000000000000003a $d
     /tmp/ccUxo6N8.s:1476   .text.gpsParseFix:0000000000000104 $d
     /tmp/ccUxo6N8.s:1481   .text.gpsNMEAChecksum:0000000000000000 $t
     /tmp/ccUxo6N8.s:1487   .text.gpsNMEAChecksum:0000000000000000 gpsNMEAChecksum
     /tmp/ccUxo6N8.s:1507   .text.gpsThread:0000000000000000 $t
     /tmp/ccUxo6N8.s:1513   .text.gpsThread:0000000000000000 gpsThread
     /tmp/ccUxo6N8.s:1553   .text.gpsThread:0000000000000050 $d
     /tmp/ccUxo6N8.s:1558   .text.gpsGetLatitude:0000000000000000 $t
     /tmp/ccUxo6N8.s:1564   .text.gpsGetLatitude:0000000000000000 gpsGetLatitude
     /tmp/ccUxo6N8.s:1580   .text.gpsGetLatitude:000000000000001c $d
     /tmp/ccUxo6N8.s:1583   .text.gpsGetLongitude:0000000000000000 $t
     /tmp/ccUxo6N8.s:1589   .text.gpsGetLongitude:0000000000000000 gpsGetLongitude
     /tmp/ccUxo6N8.s:1605   .text.gpsGetLongitude:000000000000001c $d
     /tmp/ccUxo6N8.s:1608   .text.gpsGetAltitude:0000000000000000 $t
     /tmp/ccUxo6N8.s:1614   .text.gpsGetAltitude:0000000000000000 gpsGetAltitude
     /tmp/ccUxo6N8.s:1630   .text.gpsGetAltitude:000000000000001c $d
     /tmp/ccUxo6N8.s:1633   .text.gpsGetTime:0000000000000000 $t
     /tmp/ccUxo6N8.s:1639   .text.gpsGetTime:0000000000000000 gpsGetTime
     /tmp/ccUxo6N8.s:1655   .text.gpsGetTime:000000000000001c $d
     /tmp/ccUxo6N8.s:1658   .text.gpsGetSatellites:0000000000000000 $t
     /tmp/ccUxo6N8.s:1664   .text.gpsGetSatellites:0000000000000000 gpsGetSatellites
     /tmp/ccUxo6N8.s:1680   .text.gpsGetSatellites:000000000000001c $d
     /tmp/ccUxo6N8.s:1683   .text.gpsGetLocation:0000000000000000 $t
     /tmp/ccUxo6N8.s:1689   .text.gpsGetLocation:0000000000000000 gpsGetLocation
     /tmp/ccUxo6N8.s:1713   .text.gpsGetLocation:0000000000000034 $d
     /tmp/ccUxo6N8.s:1721   .bss.gpsSem:0000000000000000 gpsSem
     /tmp/ccUxo6N8.s:1717   .bss.gpsSem:0000000000000000 $d
     /tmp/ccUxo6N8.s:1724   .bss.GPS:0000000000000000 $d
     /tmp/ccUxo6N8.s:1728   .bss.GPS:0000000000000000 GPS
     /tmp/ccUxo6N8.s:1731   .rodata.str1.4:0000000000000000 $d
     /tmp/ccUxo6N8.s:1752   .data.serGpsCfg:0000000000000000 $d
     /tmp/ccUxo6N8.s:1756   .data.serGpsCfg:0000000000000000 serGpsCfg
                            *COM*:0000000000000001 __gnu_lto_v1
     /tmp/ccUxo6N8.s:1188   .text.gpsRxChar:0000000000000068 $t
ARM GAS  /tmp/ccUxo6N8.s 			page 99


     /tmp/ccUxo6N8.s:1221   .text.gpsStart:000000000000002c $t
     /tmp/ccUxo6N8.s:1332   .text.gpsParseNMEAType:00000000000000b4 $t
     /tmp/ccUxo6N8.s:1557   .text.gpsThread:000000000000005c $t
     /tmp/ccUxo6N8.s:1716   .text.gpsGetLocation:0000000000000038 $t
     /tmp/ccUxo6N8.s:1376   .text.gpsParseFix:0000000000000041 $d
     /tmp/ccUxo6N8.s:1376   .text.gpsParseFix:0000000000000042 $t

UNDEFINED SYMBOLS
chSchRescheduleS
chSemSignalI
chMtxObjectInit
uartStart
uartStop
strncmp
strtok
chMtxLock
strncpy
atoi
chMtxUnlock
chSemObjectInit
chSemWait
chSemReset
