ARM GAS  /tmp/cc9RF4xZ.s 			page 1


   1              		.syntax unified
   2              		.cpu cortex-m4
   3              		.eabi_attribute 27, 3
   4              		.eabi_attribute 28, 1
   5              		.fpu fpv4-sp-d16
   6              		.eabi_attribute 20, 1
   7              		.eabi_attribute 21, 1
   8              		.eabi_attribute 23, 3
   9              		.eabi_attribute 24, 1
  10              		.eabi_attribute 25, 1
  11              		.eabi_attribute 26, 1
  12              		.eabi_attribute 30, 2
  13              		.eabi_attribute 34, 1
  14              		.eabi_attribute 18, 4
  15              		.thumb
  16              		.file	"gps.c"
  17              		.section	.gnu.lto_.jmpfuncs.8abda428814c3751,"",%progbits
  18 0000 789CB593 		.ascii	"x\234\265\223\277N\204@\020\306\277Y\026\016\356/w\307"
  18      BF4E8440 
  18      10C6BF59 
  18      160EEE2F 
  18      77C7
  19 0012 69627136 		.ascii	"ibq6&\026\276\204\304K\260\300\304\344\2141\226t\024"
  19      2616BE84 
  19      C44BB0C0 
  19      C4E48C31 
  19      967414
  20 0025 B4363694 		.ascii	"\26466\224>\3025\276\200\217h\345\356z\002w\201\013"
  20      3EC235BE 
  20      808F68E5 
  20      EE7A0277 
  20      810B
  21 0037 B3895B0C 		.ascii	"\263\211[\014\223\360c\347\233o\006\001\201\266s>\000"
  21      93F063E7 
  21      9B6F0601 
  21      81B6733E 
  21      00
  22 0048 AED53302 		.ascii	"\256\3253\002H!\016$\251\004.H\274\343\273\374(\303"
  22      48210E24 
  22      A9042E48 
  22      BCE3BBFC 
  22      28C3
  23 005a 9C509061 		.ascii	"\234P\220a}\201\200\034\347\205r\"\007\270\003\014\263"
  23      7D81801C 
  23      E7857222 
  23      07B8030C 
  23      B3
  24 006b D38C5883 		.ascii	"\323\214X\203>\313\335m\256\337\250#4%U\336\315{L~\304"
  24      3ECBDD6D 
  24      AEDFA823 
  24      342555DE 
  24      CD7B4C7E 
  25 0080 E44326BF 		.ascii	"\344C&\277b\362\027L\376\262\225\037\222\330s\306k\267"
  25      62F2174C 
  25      FEB2951F 
  25      92D873C6 
  25      6BB7
ARM GAS  /tmp/cc9RF4xZ.s 			page 2


  26 0092 206376C3 		.ascii	" cv\303~\357\006_e\251\263AA\"\243zxc\315NL1\274\321"
  26      7EEF065F 
  26      65A9B341 
  26      4122A37A 
  26      7863CD4E 
  27 00aa 5F693A2A 		.ascii	"_i:*\355\257q\365[:h\224VU\247\216\331\211\323\201;"
  27      EDAF71F5 
  27      5B3A6894 
  27      5655A78E 
  27      D989D381 
  28 00bf BF19855A 		.ascii	"\277\031\205Z\301AS\303\252\203\221\351\240nA\22357"
  28      C14153C3 
  28      AA8391E9 
  28      A06E4193 
  28      3537
  29 00d1 AEB8895A 		.ascii	"\256\270\211Z\271\214\352\2255\327O\351\300\227\023"
  29      B98CEA95 
  29      35D74FE9 
  29      C09713
  30 00e0 34EBCA39 		.ascii	"4\353\3129\3652[\030\227\233m\315*6lm0\333{\323{\236"
  30      F5325B18 
  30      979B6DCD 
  30      2A366C6D 
  30      30DB7BD3 
  31 00f6 8BFF5322 		.ascii	"\213\377S\"yJ\226\266J\346\025\273\350P\342\362\224"
  31      794A96B6 
  31      4AE615BB 
  31      E850E2F2 
  31      94
  32 0107 44B64A96 		.ascii	"D\266J\226\025\033u(\361xJV\266J\374\212\015:\224\014"
  32      151B7528 
  32      F1784A56 
  32      B64AFC8A 
  32      0D3A940C 
  33 011b 784ACE7A 		.ascii	"xJ\316z*\261\025!l}\024\266\253 l\267\231\371!\363\207"
  33      2AB11521 
  33      6C7D14B6 
  33      AB206CB7 
  33      99F921F3 
  34 0130 848CD307 		.ascii	"\204\214\323\007\310$\211UHS\025\266:\333>C\336o\236"
  34      C8248955 
  34      485315B6 
  34      3ADB3E43 
  34      DE6F9E
  35 0143 205F3731 		.ascii	" _71\234\344\021?\300\340?2"
  35      9CE4113F 
  35      C0E03F32 
  36              		.text
  37              		.section	.gnu.lto_.inline.8abda428814c3751,"",%progbits
  38 0000 789C9D53 		.ascii	"x\234\235S\253R\303@\024=ww\363h\222\246\351\223\031"
  38      AB52C340 
  38      143D7777 
  38      F36892A6 
  38      E99319
  39 0013 0628A243 		.ascii	"\006(\242C\277\000\201\206AV\240PH(\206o@1u\364\023"
  39      BF008186 
  39      4156A050 
ARM GAS  /tmp/cc9RF4xZ.s 			page 3


  39      4828866F 
  39      403175F4 
  40 0028 AA184435 		.ascii	"\252\030D5\002\205\250D \030\340\013\030\024\026\313"
  40      0285A844 
  40      2018E00B 
  40      181416CB 
  41 0038 CDDDB401 		.ascii	"\315\335\264\001\002C \"\367\356\335s\316}\354\256\202"
  41      02432022 
  41      F7EEDD73 
  41      CE7DECAE 
  41      82
  42 0049 C277DF95 		.ascii	"\302w\337\225\266\266\005hE\002r']\301R!\242\012\021"
  42      B6B60568 
  42      45027227 
  42      5DC15221 
  42      A20A11
  43 005c 5D881884 		.ascii	"]\210\030\204M\"&3\274r\271\013o\324\267jA\032\011\331"
  43      4D222633 
  43      BC72B90B 
  43      6FD4B76A 
  43      411A09D9 
  44 0070 190F1C54 		.ascii	"\031\017\034T\233\314Jf\007\271t\272\003\037qH\232\216"
  44      9BCC4A66 
  44      07B974BA 
  44      031F7148 
  44      9A8E
  45 0082 F6E998DA 		.ascii	"\366\351\230\332L\240\341\302#\321\316\362\230I7Ar\266"
  45      4CA0E1C2 
  45      23D1CEF2 
  45      98493741 
  45      72B6
  46 0094 E367CABC 		.ascii	"\343g\312\274Q\301\346F\226W\257\314\266-N\335\325R"
  46      51C1E646 
  46      9657AFCC 
  46      B62D4EDD 
  46      D552
  47 00a6 0E9C98A3 		.ascii	"\016\234\230\243\343\301\177\235\000\321*iHY\235To\270"
  47      E3C17F9D 
  47      00D12A69 
  47      48599D54 
  47      6FB8
  48 00b8 F08A6599 		.ascii	"\360\212e\231\2475)KG\334\216b:\267\3463.\202\033\333"
  48      A735294B 
  48      47DC8E62 
  48      3AB7E633 
  48      2E821BDB 
  49 00cc 0275CEA0 		.ascii	"\002u\316\240\027\317\330?\362\361TQ\367\311\330tK="
  49      17CFD83F 
  49      F2F15451 
  49      F7C9D874 
  49      4B3D
  50 00de 86DB7CD6 		.ascii	"\206\333|\326\025\276\244u?\210$\012\316\250\237@\335"
  50      15BEA475 
  50      3F88240A 
  50      CEA89F40 
  50      DD
  51 00ef A8750373 		.ascii	"\250u\003s\352\230\254\004#\363\216\331J'q\375\021o"
ARM GAS  /tmp/cc9RF4xZ.s 			page 4


  51      EA98AC04 
  51      23F38ED9 
  51      4A2771FD 
  51      116F
  52 0101 1E291190 		.ascii	"\036)\021\220\231\352\303\213\351\011\032\323\275|Z"
  52      99EAC38B 
  52      E9091AD3 
  52      BD7C5A
  53 0110 3A2229FC 		.ascii	":\")\374\257v1\257\032*[\363\263\010\236g\356\347\303"
  53      AF7631AF 
  53      1A2A5BF3 
  53      B3089E67 
  53      EEE7C3
  54 0123 48B07CEE 		.ascii	"H\260|\3561\243z\375\020\303{\275%\365\241\367\\S\331"
  54      31A37AFD 
  54      10C37BBD 
  54      25F5A1F7 
  54      5C53D9
  55 0136 A54A6F97 		.ascii	"\245Jo\227\012\323\212\271\235tQG\320\373r/\345\362"
  55      0AD38AB9 
  55      9D745147 
  55      D0FB722F 
  55      E5F2
  56 0148 C8B69D37 		.ascii	"\310\266\2357\257\032\245P\315R\250V)T\273\024\252\203"
  56      AF1AA550 
  56      CD52A856 
  56      2954BB14 
  56      AA83
  57 015a CE3DE60F 		.ascii	"\316=\346\017\344G\354o\326\242\361\016\314\221T\356"
  57      E447EC6F 
  57      D6A2F10E 
  57      CC9154EE 
  58              		.text
  59              		.section	.gnu.lto_.pureconst.8abda428814c3751,"",%progbits
  60 0000 789C6362 		.ascii	"x\234cb`b\320d\200\000\021\006\006F \227\231\201\305"
  60      6062D064 
  60      80001106 
  60      06462097 
  60      9981C5
  61 0013 8A558A43 		.ascii	"\212U\212C\212\223\205K\202G\222\227\225O\212\337T\300"
  61      8A93854B 
  61      82479297 
  61      954F8ADF 
  61      54C0
  62 0025 52504248 		.ascii	"RPBHBXBDBTBL\002\0005f\002\347"
  62      42584244 
  62      4254424C 
  62      02003566 
  62      02E7
  63              		.text
  64              		.section	.gnu.lto_gpsTxbufEnd.8abda428814c3751,"",%progbits
  65 0000 789C6362 		.ascii	"x\234cb`b@\007\222@\034\004\304\034@\314\310\314\300"
  65      60624007 
  65      92401C04 
  65      C41C40CC 
  65      C8CCC0
  66 0013 C834E11C 		.ascii	"\3104\341\034\003C#\007\023##\210\301\300\310P\317\304"
ARM GAS  /tmp/cc9RF4xZ.s 			page 5


  66      03432307 
  66      13232388 
  66      C1C0C850 
  66      CFC4
  67 0025 581FC908 		.ascii	"X\037\311\010V\273\236\351\300\203\377\377\327\355;"
  67      56BB9EE9 
  67      C083FFFF 
  67      D7ED3B
  68 0034 B6602523 		.ascii	"\266`%##\310(V\206\226\206\206\011\012\014\014\311`"
  68      23C82856 
  68      86968686 
  68      090A0C0C 
  68      C960
  69 0046 05214012 		.ascii	"\005!@\022\244+\024(\011\244\231/20&2.dd\205[\026\302"
  69      A42B1428 
  69      09A4992F 
  69      32302632 
  69      2E646485 
  70 005d C8089200 		.ascii	"\310\010\222\000ieK/(\326Kf\000\000\004o\030m"
  70      69654B2F 
  70      28D64B66 
  70      0000046F 
  70      186D
  71              		.text
  72              		.section	.gnu.lto_gpsTxC.8abda428814c3751,"",%progbits
  73 0000 789C6362 		.ascii	"x\234cb`b@\007\222@\034\004\304\034@\314\310\314\300"
  73      60624007 
  73      92401C04 
  73      C41C40CC 
  73      C8CCC0
  74 0013 C834E11C 		.ascii	"\3104\341\034\003C#\007\023##\210\301\300\310P\317\304"
  74      03432307 
  74      13232388 
  74      C1C0C850 
  74      CFC4
  75 0025 581FC908 		.ascii	"X\037\311\010V\273\236\351\300\203\377\377\327\335;"
  75      56BB9EE9 
  75      C083FFFF 
  75      D7DD3B
  76 0034 B6602723 		.ascii	"\266`'##\310(V\206\226\206\206\011\012\014\014\311`"
  76      23C82856 
  76      86968686 
  76      090A0C0C 
  76      C960
  77 0046 05214012 		.ascii	"\005!@\022\244+\024(\011\244\231/20&2.dd\205[\026\302"
  77      A42B1428 
  77      09A4992F 
  77      32302632 
  77      2E646485 
  78 005d C8089200 		.ascii	"\310\010\222\000ieK/(\326Kf\000\000\022\177\030\235"
  78      69654B2F 
  78      28D64B66 
  78      0000127F 
  78      189D
  79              		.text
  80              		.section	.gnu.lto_gpsRxEnd.8abda428814c3751,"",%progbits
  81 0000 789C6362 		.ascii	"x\234cb`b@\007\222@\034\004\304\034@\314\310\314\300"
ARM GAS  /tmp/cc9RF4xZ.s 			page 6


  81      60624007 
  81      92401C04 
  81      C41C40CC 
  81      C8CCC0
  82 0013 C834E11C 		.ascii	"\3104\341\034\003C#\007\023##\210\301\300\310P\317\304"
  82      03432307 
  82      13232388 
  82      C1C0C850 
  82      CFC4
  83 0025 581FC908 		.ascii	"X\037\311\010V\273\236\351\300\203\377\377\327]8\276"
  83      56BB9EE9 
  83      C083FFFF 
  83      D75D38BE 
  84 0035 E0152323 		.ascii	"\340\025##\310(V\206\226\206\206\011\012\014\014\311"
  84      C8285686 
  84      96868609 
  84      0A0C0CC9 
  85 0045 60052140 		.ascii	"`\005!@\022\244+\024(\011\244\231/20&2.dd\205[\026\302"
  85      12A42B14 
  85      2809A499 
  85      2F323026 
  85      322E6464 
  86 005d C8089200 		.ascii	"\310\010\222\000ieK/(\326Kf\000\000\034\233\030\301"
  86      69654B2F 
  86      28D64B66 
  86      00001C9B 
  86      18C1
  87              		.text
  88              		.section	.gnu.lto_gpsRxErr.8abda428814c3751,"",%progbits
  89 0000 789C6362 		.ascii	"x\234cb`b@\007\222@\034\004\304\034@\314\310\314\300"
  89      60624007 
  89      92401C04 
  89      C41C40CC 
  89      C8CCC0
  90 0013 C834E11C 		.ascii	"\3104\341\034\003C#\007\023##\210\301\300\310P\317\304"
  90      03432307 
  90      13232388 
  90      C1C0C850 
  90      CFC4
  91 0025 581FC908 		.ascii	"X\037\311\010V\273\236\351\300\203\377\377\327}8\276"
  91      56BB9EE9 
  91      C083FFFF 
  91      D77D38BE 
  92 0035 E0372323 		.ascii	"\3407##\310(V\206\226\206\206\011\012\014\014\311`\005"
  92      C8285686 
  92      96868609 
  92      0A0C0CC9 
  92      6005
  93 0047 214012A4 		.ascii	"!@\022\244+\024(\011\244\231/20&2.dd\205[\026\302\310"
  93      2B142809 
  93      A4992F32 
  93      3026322E 
  93      6464855B 
  94 005e 08920069 		.ascii	"\010\222\000ieK/(\326Kf\000\000*\364\030\362"
  94      654B2F28 
  94      D64B6600 
  94      002AF418 
ARM GAS  /tmp/cc9RF4xZ.s 			page 7


  94      F2
  95              		.text
  96              		.section	.gnu.lto_chBSemSignal.8abda428814c3751,"",%progbits
  97 0000 789C8D52 		.ascii	"x\234\215R\275k\024A\024\377\275\231]\357<\223\220F"
  97      BD6B1441 
  97      14FFBD99 
  97      5DEF3C93 
  97      9046
  98 0012 B00AD708 		.ascii	"\260\012\327\010\361\003W\304\324\006\004\301\" 9\003"
  98      F10357C4 
  98      D40604C1 
  98      22203903 
  99 0022 A690B03B 		.ascii	"\246\220\260;\267\344\006\335[\331\273\013\211)2\227"
  99      B7E406DD 
  99      5BD9BB0B 
  99      89293297 
 100 0032 5C918045 		.ascii	"\\\221\200E\270X\030?@\301#\321B\377\002\361J\013MH"
 100      B858183F 
 100      40C123D1 
 100      42FF02F1 
 100      4A0B4D48 
 101 0046 2B160141 		.ascii	"+\026\001AH\025m\014\304\"\316\354\336m\202\215\031"
 101      48156D0C 
 101      C422CEEC 
 101      DE6D828D 
 101      19
 102 0057 D899F766 		.ascii	"\330\231\367f\336\357c\337\014\003\303\277\343\212\376"
 102      DEEF63DF 
 102      0C03C3BF 
 102      E38AFE
 103 0066 6EE9ED15 		.ascii	"n\351\355\025\275\222\015b\313\033@=\313\030\337\353"
 103      BD920D62 
 103      CB1B403D 
 103      CB18DFEB 
 104 0076 83CA59AB 		.ascii	"\203\312Y\253\327\240z8Y\311\266Ed\002\020\346\030\267"
 104      D7A07A38 
 104      59C9B645 
 104      640210E6 
 104      18B7
 105 0088 686E9C62 		.ascii	"hn\234b\222\367\254\275}p\360\356w\363\303s\372\314"
 105      92F7ACBD 
 105      7D70F0EE 
 105      77F3C373 
 105      FACC
 106 009a 7A390584 		.ascii	"z9\005\204\014$!\253'Sb\243\241\324r\036\0201\340\266"
 106      0C2421AB 
 106      275362A3 
 106      A1D4721E 
 106      1031E0B6 
 107 00ae 9E0DCF18 		.ascii	"\236\015\317\0301\263\362\015\314\377\332}\374\375L"
 107      31B3F20D 
 107      CCFFDA7D 
 107      FCFD4C
 108 00bd 5AE6D22B 		.ascii	"Z\346\322+m&\026\"Ls\343\233'\346\007\260D/\324\223"
 108      6D261622 
 108      4C73E39B 
 108      27E607B0 
ARM GAS  /tmp/cc9RF4xZ.s 			page 8


 108      442FD493 
 109 00d1 6149717A 		.ascii	"aIqz\207$\361\274\211\322\363G\235s+\371\301/\230\377"
 109      8724F1BC 
 109      89D2F347 
 109      9D732BF9 
 109      C12F98FF 
 110 00e5 FAED65EB 		.ascii	"\372\355e\353|\312\235\004\352Ok\260\253#b\217\230\244"
 110      7CCA9D04 
 110      EA4F6BB0 
 110      AB23628F 
 110      98A4
 111 00f7 CC05BC55 		.ascii	"\314\005\274UJ\265\267\232\247%\331I\242\206$\235x\206"
 111      4AB5B79A 
 111      A725D949 
 111      A286249D 
 111      7886
 112 0109 A775A5FA 		.ascii	"\247u\245\372%e&\211\033\315l\314\355\031\234Ko\214"
 112      25652689 
 112      1BCD6CCC 
 112      ED199C4B 
 112      6F8C
 113 011b 57CF9074 		.ascii	"W\317\220tb\340\023\032?\352\275.\255\353T\363\032\210"
 113      62E0131A 
 113      3FEABD2E 
 113      ADEB54F3 
 113      1A88
 114 012d 7DB4ED63 		.ascii	"}\264\355c\304\261\327\307\265\271\375\205\265\326\271"
 114      C4B1D7C7 
 114      B5B9FD85 
 114      B5D6B9
 115 013c 6E617616 		.ascii	"nav\026\017u\307:\312w\217\247\234\212n\242\321\356"
 115      0F75C73A 
 115      CA778FA7 
 115      9C8A6EA2 
 115      D1EE
 116 014e 5001B3D8 		.ascii	"P\001\263\330W\213\006xR\020KK\264\204\244\\\327\203"
 116      578B0678 
 116      52104B4B 
 116      B484A45C 
 116      D783
 117 0160 15777F13 		.ascii	"\025w\177\023\013\333\037wr\335\236\247\300SB\2334C"
 117      0BDB1F77 
 117      72DD9EA7 
 117      C053429B 
 117      3443
 118 0172 520F709C 		.ascii	"R\017p\234;r\351\265\206\304w\202#w\342\322\032\015"
 118      3B72E9B5 
 118      86C47782 
 118      2377E2D2 
 118      1A0D
 119 0184 249A5BA8 		.ascii	"$\232[\250\377l\256\332)\026\311s c\304\324^uJa\340"
 119      FF6CAEDA 
 119      2916C973 
 119      2063C4D4 
 119      5E754A61 
 120 0199 3B222CCE 		.ascii	";\",\3168E\177\312\021%\351\311\260\342T\243Z\371\236"
 120      38457FCA 
ARM GAS  /tmp/cc9RF4xZ.s 			page 9


 120      1125E9C9 
 120      B0E254A3 
 120      5AF99E
 121 01ac A383A8EA 		.ascii	"\243\203\250\352\310\262\270_+\352\242\222W\361\203"
 121      C8B2B85F 
 121      2BEAA292 
 121      57F183
 122 01bb 4B250CFF 		.ascii	"K%\014\377\017\344OW\235\353#\205\233\205Cl\030\371"
 122      0FE44F57 
 122      9DEB2385 
 122      9B85436C 
 122      18F9
 123 01cd 1322B851 		.ascii	"\023\"\270Q+\013M\320?R\030\315{n\305\177\020\311\213"
 123      2B0B4DD0 
 123      3F5218CD 
 123      7B6EC57F 
 123      10C98B
 124 01e0 F9B397C1 		.ascii	"\371\263\227\301\"d\002?\010\243\031\374\005\004\315"
 124      2264023F 
 124      08A319FC 
 124      0504CD
 125 01ef B75A     		.ascii	"\267Z"
 126              		.text
 127              		.section	.gnu.lto_gpsRxChar.part.0.8abda428814c3751,"",%progbits
 128 0000 789CB552 		.ascii	"x\234\265R\275k\024A\024\177\277\331\217\333\273\344"
 128      BD6B1441 
 128      147FBFD9 
 128      8FDBBBE4 
 129 0010 924B954A 		.ascii	"\222K\225J\011\261\021D\363'\330\330X\012\027P\320b"
 129      09B11144 
 129      F327D8D8 
 129      580A1750 
 129      D062
 130 0022 EF30C716 		.ascii	"\3570\307\026'!\232\312\"\357r)\202B8\254Bl\014\202"
 130      27219ACA 
 130      22EF7229 
 130      824238AC 
 130      426C0C82 
 131 0036 842410B5 		.ascii	"\204$\020\265\022\2618\360\203\200_\250i\214 \007\202"
 131      12B138F0 
 131      83805FA8 
 131      698C2007 
 131      82
 132 0047 68A3B131 		.ascii	"h\243\2611\222\250\353\233\231\333\275\020,\316\302"
 132      92A8EB9B 
 132      99DBBD10 
 132      2CCEC2
 133 0056 817DF366 		.ascii	"\201}\363f\346\375>\336\316(R\264\177\234\220\357\254"
 133      E6FD3EDE 
 133      CE2852B4 
 133      7F9C90EF 
 133      AC
 134 0067 4B342833 		.ascii	"K4(32\004\277\361B\022\037\312\314J\271\017\016\022"
 134      3204BFF1 
 134      42121FCA 
 134      CC4AB90F 
 134      0E12
ARM GAS  /tmp/cc9RF4xZ.s 			page 10


 135 0079 E79C8D11 		.ascii	"\347\234\215\021\342^\007\256\336\255\005.<\233x\200"
 135      E25E07AE 
 135      DEAD052E 
 135      3C9B7880 
 136 0089 4E0834E5 		.ascii	"N\0104\345+\307\3650u\006\232\325\037\246E\346k\255"
 136      2BC7F530 
 136      75069AD5 
 136      1FA645E6 
 136      6BAD
 137 009b C75F3F61 		.ascii	"\307_?a\236\233\3237\370g\034\003\021\304A\026T\006"
 137      9E9BD337 
 137      F8671C03 
 137      11C44116 
 137      5406
 138 00ad 9D96050A 		.ascii	"\235\226\005\012fR\373\\Y,\337e\316\032\234\023\301"
 138      6652FB5C 
 138      592CDF65 
 138      CE1A9C13 
 138      C1
 139 00be 51D4D381 		.ascii	"Q\324\323\201\015Y\230\3737Xs\367\333:\004]\333\212"
 139      0D5998FB 
 139      375873F7 
 139      DB3A045D 
 139      DB8A
 140 00d0 E3FE08AE 		.ascii	"\343\376\010\256\242\201\256\200\363\315_O\346\006\257"
 140      A281AE80 
 140      F3CD5F4F 
 140      E606AF
 141 00df B4B8C1BF 		.ascii	"\264\270\301\277\305j\004\217RX`a\350F/\304-\250\377"
 141      C56A048F 
 141      52586061 
 141      E8462FC4 
 141      2DA8FF
 142 00f2 23B8A6B8 		.ascii	"#\270\246\270\025\307o\277\007yP\004_\351\340H\310\270"
 142      15C76FBF 
 142      07795004 
 142      5FE9E048 
 142      C8B8
 143 0104 146209C3 		.ascii	"\024b\011\303\344\351\035_\202\312H\320\242\036\315"
 143      E4E91D5F 
 143      82CA48D0 
 143      A21ECD
 144 0113 30378642 		.ascii	"07\206B,\312q\210\233\022\215\212\214\242D}wE\370zv"
 144      2CCA7188 
 144      9B128D8A 
 144      8CA2447D 
 144      7745F87A 
 145 0128 46C5B69E 		.ascii	"F\305\266\236\237\323\364\346\217\367\371\024\271d0"
 145      9FD3F4E6 
 145      8FF7F914 
 145      B96430
 146 0137 76C96B73 		.ascii	"v\311ks\207Ix\226\305l\031\206\246\002\034\241efnnW"
 146      87497896 
 146      C56C1986 
 146      A6021CA1 
 146      65666E6E 
 147 014c 2304D769 		.ascii	"#\004\327i\241\306\\\210\220\275L;<\253\263\\\325\024"
ARM GAS  /tmp/cc9RF4xZ.s 			page 11


 147      A1C65C88 
 147      90BD4C3B 
 147      3CABB35C 
 147      D514
 148 015e EA8E72A6 		.ascii	"\352\216r\246\217\222^\207X\325\035\023\255\323\243"
 148      8F925E87 
 148      58D51D13 
 148      ADD3A3
 149 016d 8FB5FE10 		.ascii	"\217\265\376\020+\262\0242]\026\234\332\323\365(\034"
 149      2BB21432 
 149      5D169CDA 
 149      D3F5281C 
 150 017d DA1831B6 		.ascii	"\332\0301\266\356-\034h\333J\015m\177\200\346Z1\206"
 150      EE2D1C68 
 150      DB4A0D6D 
 150      7F80E65A 
 150      3186
 151 018f 9435A4DA 		.ascii	"\2245\244\332\206\336|F\327\216\014\313\035\353H\244"
 151      86DE7C46 
 151      D78E0CCB 
 151      1DEB48A4 
 152 019f BED4EF23 		.ascii	"\276\324\357#\304mc\311\251hb\331\334\251\213Zb\324"
 152      C46D63C9 
 152      A96862D9 
 152      DCA98B5A 
 152      62D4
 153 01b1 D56C22F2 		.ascii	"\325l\"\362ZHz\216\322\252\344|.B\257\325\346\343\021"
 153      5A487A8E 
 153      D2AAE47C 
 153      2E42AFD5 
 153      E6E311
 154 01c4 F2A252D2 		.ascii	"\362\242R\322\3206\2610\021\245\253=j\365\331\372\356"
 154      D036B130 
 154      11A5AB3D 
 154      6AF5D9FA 
 154      EE
 155 01d5 3B2721F6 		.ascii	";'!\366\222\237\000k\345\244=\350\360\376\363?\256\350"
 155      929F006B 
 155      E5A43DE8 
 155      F0FEF33F 
 155      AEE8
 156 01e7 609ABA90 		.ascii	"`\232\272\220\210\370\025\335\261H_Mu3\322\223\034\230"
 156      88F815DD 
 156      B1485F4D 
 156      7533D293 
 156      1C98
 157 01f9 CAA75BED 		.ascii	"\312\247[\355\013I\245\372\244@\263\333\227\254\263"
 157      0B49A5FA 
 157      A440B3DB 
 157      97ACB3
 158 0208 BECE05B9 		.ascii	"\276\316\005\271\346\341\274\244\231\326\263\207\031"
 158      E6E1BCA4 
 158      99D6B387 
 158      19
 159 0215 FB3A8852 		.ascii	"\373:\210Ro\375e\333\270\331\011\"\024\252@\273(\302"
 159      6FFD65DB 
 159      B8D90922 
ARM GAS  /tmp/cc9RF4xZ.s 			page 12


 159      14AA40BB 
 159      28C2
 160 0227 40C2E119 		.ascii	"@\302\341\031\216WTkm\036J(\354(\212U9\323\227\353W"
 160      8E57546B 
 160      6D1E4A28 
 160      EC288A55 
 160      39D397EB 
 161 023c C62F1E2B 		.ascii	"\306/\036+\023\312\336d8qi\334/M\216\215\235\237\370"
 161      13CADE64 
 161      387169DC 
 161      2F4D8E8D 
 161      9D9FF8
 162 024f 03955C13 		.ascii	"\003\225\\\023\351"
 162      E9
 163              		.text
 164              		.section	.gnu.lto_gpsRxChar.8abda428814c3751,"",%progbits
 165 0000 789C9592 		.ascii	"x\234\225\222?h\024A\024\306\3377\263\273\271\275\277"
 165      3F681441 
 165      14C6DF37 
 165      B3BBB9BD 
 165      BF
 166 0011 22A4B088 		.ascii	"\"\244\260\210\204\330\010\242\266\351\254\265\023\022"
 166      84D808A2 
 166      B6E9ACB5 
 166      1312
 167 001f D0C262EF 		.ascii	"\320\302b\3574\313\026'\242XYd.\233\" \204C\273XxAN"
 167      34CB1627 
 167      A2585964 
 167      2E9B2220 
 167      8443BB58 
 168 0036 240A968A 		.ascii	"$\012\226\212XD\020\024D\305hu\202\034\004\024\021\344"
 168      58441014 
 168      44C56875 
 168      821C0414 
 168      11E4
 169 0048 BA4814CF 		.ascii	"\272H\024\317\367fv\317\304\312\014\354\233\2317o\277"
 169      F76676CF 
 169      C4CA0CEC 
 169      9B99376F 
 169      BF
 170 0059 EF377F14 		.ascii	"\3577\177\024)\372\267\235\342\357\274&\252q\2171\202"
 170      29FAB79D 
 170      E2EFBC26 
 170      AA718F31 
 170      82
 171 006a 6ABF216A 		.ascii	"j\277!j\025\224\322\203q2E\2573M\246\254\021H\032\236"
 171      1594D283 
 171      713245AF 
 171      334DA6AC 
 171      11481A9E 
 172 007e 0A9E1EE4 		.ascii	"\012\236\036\344\254\377\3418g}\227m\025\002@\006\004"
 172      ACFFE138 
 172      677D976D 
 172      15024006 
 172      04
 173 008f 9A57DAF3 		.ascii	"\232W\332\363\003\314\237\205hc\212V\215\271\321\357"
 173      03CC9F85 
ARM GAS  /tmp/cc9RF4xZ.s 			page 13


 173      68638A56 
 173      8DB9D1EF 
 174 009f DE5E3E60 		.ascii	"\336^>`:\013m\363{8D\002\246\010A\015\320\031\236`\322"
 174      3A0B6DF3 
 174      7B384402 
 174      A608410D 
 174      D0199E60 
 175 00b4 76CADB8D 		.ascii	"v\312\333\215\365P\255\367\207\303_\217\0267&\366\003"
 175      F550ADF7 
 175      87C35F8F 
 175      163726F6 
 175      03
 176 00c5 4DFE8703 		.ascii	"M\376\207\003|J\240C\016^QB\211\203_\246\010\253\354"
 176      7C4AA043 
 176      0E5E5142 
 176      89835FA6 
 176      08ABEC
 177 00d8 54914C95 		.ascii	"T\221L\225\203\252q\020\015\237\026\215iO\222Xq\233"
 177      83AA7110 
 177      0D9F168D 
 177      694F9258 
 177      719B
 178 00ea E12898B3 		.ascii	"\341(\230\263P\322\353\227\364\374\313\263\233/t\204"
 178      50D2EB97 
 178      F4FCCBB3 
 178      9B2F7484 
 179 00fa 3B2C1C43 		.ascii	";,\034C\011GP\334\0011\013M\203q\375\226\322\202+\""
 179      094750DC 
 179      01310B4D 
 179      8371FD96 
 179      D2822B22 
 180 010e BA46DB66 		.ascii	"\272F\333f\311\354K0\326\200Ue\257B^\355QgZ\277\246"
 180      C9EC4B30 
 180      D6805565 
 180      AF425EED 
 180      51675ABF 
 181 0123 856FE9E6 		.ascii	"\205o\351\346\362\341\\\326ge\"\316\366~|\252dH\216"
 181      F2E15CD6 
 181      676522CE 
 181      F67E7CAA 
 181      64488E
 182 0136 3827345C 		.ascii	"8'4\\M\344\352\033\260W\024#<Bk\306\230\365\255f\202"
 182      4DE4EA1B 
 182      B0571423 
 182      3C426BC6 
 182      98F5AD66 
 183 014b F016ADB4 		.ascii	"\360\026\255\264\214\270\026G\376\245\246\255\024\346"
 183      8CB81647 
 183      FEA5A6AD 
 183      14E6
 184 0159 92B5AF0B 		.ascii	"\222\265\257\013N\204\273\026\223xs\237[\265\010]\313"
 184      4E84BB16 
 184      9378739F 
 184      5BB5085D 
 184      CB
 185 016a 104A5978 		.ascii	"\020JYxz\327\326|\2727%\260\275\307+\023\243\223\312"
 185      7AD7D67C 
ARM GAS  /tmp/cc9RF4xZ.s 			page 14


 185      BA3725B0 
 185      BDC72B13 
 185      A393CA
 186 017d 80B63621 		.ascii	"\200\2666!Z]\013\244\035P1\003z\377\025\377MdU\356;"
 186      5A5D0BA4 
 186      1D503103 
 186      7AFF15FF 
 186      4D6455EE 
 187 0192 22B6FA9E 		.ascii	"\"\266\372\236>A\2045\213TbE\233\334N\331-\007-\213"
 187      3E418435 
 187      8B546245 
 187      9BDC4ED9 
 187      2D072D8B 
 188 01a6 1A9B6CB0 		.ascii	"\032\233l\260H\371(=\340\2619\227\240\342\274\315\211"
 188      48F9283D 
 188      E0B13997 
 188      A0E2BCCD 
 188      89
 189 01b7 045576A9 		.ascii	"\004Uv\251\213Q&\034;\263l\266\303-]J\177~\324\271p"
 189      8B51261C 
 189      3BB36CB6 
 189      C32D5D4A 
 189      7F7ED4B9 
 190 01cc 253F0438 		.ascii	"%?\0048\224\223n\341\257\356\236\317\2305\263M]\314"
 190      94936EE1 
 190      AFEE9ECF 
 190      9835B34D 
 190      5DCC
 191 01de 4DAA6C62 		.ascii	"M\252lb\255\257\217|k\274'^\260\225\257\006\331\205"
 191      ADAF8F7C 
 191      6BBC275E 
 191      B095AF06 
 191      D985
 192 01f0 8CAC3417 		.ascii	"\214\2544\027\210\272\273\223\330\241\313\345\004\366"
 192      88BABB93 
 192      D8A1CBE5 
 192      04F6
 193 01fe 85BEA356 		.ascii	"\205\276\243V\277w(\177z\256\315\360\241\362\232p\005"
 193      BF77287F 
 193      7AAECDF0 
 193      A1F29A70 
 193      05
 194 020f F1A52BC7 		.ascii	"\361\245+\307\032\024\324\257\316\315]\270\374\007\272"
 194      1A14D4AF 
 194      CECD5DB8 
 194      FC07BA
 195 021e 79D4D8   		.ascii	"y\324\330"
 196              		.text
 197              		.section	.gnu.lto_gpsParseNMEAType.part.1.8abda428814c3751,"",%progbits
 198 0000 789C8D94 		.ascii	"x\234\215\224=hTA\024\205\317\235\237\367\336\314na"
 198      3D685441 
 198      1485CF9D 
 198      9FF7DECC 
 198      6E61
 199 0012 21620A97 		.ascii	"!b\012\227\240\205\012jP\304\306\306\205@\024\326*\033"
 199      A0850A6A 
 199      50C4C6C6 
ARM GAS  /tmp/cc9RF4xZ.s 			page 15


 199      854014D6 
 199      2A1B
 200 0024 511B0D6B 		.ascii	"Q\033\015kX\266P\"\033A\261\310\204\304\220 B\020ES"
 200      58B65022 
 200      1B41B1C8 
 200      84C49020 
 200      42104553 
 201 0038 040C2236 		.ascii	"\004\014\"6\202\205\013\"XXXX\370\203\220&\205\260\205"
 201      82850B22 
 201      58585858 
 201      F8839026 
 201      85B085
 202 004b 622536DB 		.ascii	"b%6\333(\221u\356\354f\327\237\205\267\017\336\271\347"
 202      289175EE 
 202      EC66D79F 
 202      85B70FDE 
 202      B9E7
 203 005d BC99B9DF 		.ascii	"\274\231\271\337L1O@\340\337\347\216\177\317+\340\210"
 203      4C314F40 
 203      E0DFE78E 
 203      7FCF2BE0 
 203      88
 204 006e AF940565 		.ascii	"\257\224\005e\226\336{\223!\021\252\020\366e\016\316"
 204      96DE7B93 
 204      2111AA10 
 204      F6650ECE 
 205 007e CAB521B8 		.ascii	"\312\265!\270\254l'\025\222\022\366\311a\237\364\347"
 205      AC6C2715 
 205      9212F6C9 
 205      619FF4E7 
 206 008e 019F743B 		.ascii	"\001\237t;E!E\355\024\207\024\267S\022R\"\354\302n\237"
 206      452145ED 
 206      148714B7 
 206      53125222 
 206      ECC26E9F 
 207 00a2 0C6BD690 		.ascii	"\014k\326\220e\322Lb\211\330\2000\235\021R\351(N\214"
 207      65D24C62 
 207      89D88030 
 207      9D1152E9 
 207      284E8C
 208 00b5 A5E933C4 		.ascii	"\245\3513\304\273\244\235Xu\356v\375\313\363uZv\257"
 208      BBA49D58 
 208      75EE76FD 
 208      CBF3755A 
 208      76AF
 209 00c7 E61EB88D 		.ascii	"\346\036\270\215f\223\250B\376D\206P\"\234\366\201\006"
 209      6693A842 
 209      FE448650 
 209      229CF681 
 209      06
 210 00d8 4311EAEF 		.ascii	"C\021\352\357#>\025\256\336l\276\370n\262D\027y\305"
 210      233E15AE 
 210      DE6CBEF8 
 210      6EB24417 
 210      79C5
 211 00ea 38ADFA86 		.ascii	"8\255\372\206\022\025\222\212E\263D,1K\302bX\254\027"
 211      1215928A 
ARM GAS  /tmp/cc9RF4xZ.s 			page 16


 211      45B3442C 
 211      314BC262 
 211      58AC17
 212 00fd 6EA631E7 		.ascii	"n\2461\347\334\322`k\035\030\347\237\242W\336q\2212"
 212      DCD2606B 
 212      1D18E79F 
 212      A257DE71 
 212      9132
 213 010f 5CE51889 		.ascii	"\\\345\030\211P\337a\366\346\354\263{{\307\351!i\224"
 213      50DF61F6 
 213      E6ECB37B 
 213      7BC7E921 
 213      6994
 214 0121 499489C2 		.ascii	"I\224\211\302\266\244_\364\001\363\365o7\354\346\230"
 214      B6A45FF4 
 214      01F3F56F 
 214      37ECE698 
 215 0131 BC8E9F6E 		.ascii	"\274\216\237n\301m\251\220.Q\350\312\013\370\343\366"
 215      C16DA990 
 215      2E51E8CA 
 215      0BF8E3F6 
 216 0141 0A45396C 		.ascii	"\012E9l]q\367\217U(FkA8^\302\0337\300\033\274\376:s"
 216      5D71F78F 
 216      5528466B 
 216      41385EC2 
 216      1B37C01B 
 217 0159 B0D38987 		.ascii	"\260\323\211\207\344\237\307\036\363qmH2\361\307\243"
 217      E49FC71E 
 217      F3716D48 
 217      32F1C7A3 
 218 0169 CCE63C95 		.ascii	"\314\346<\225B\034H#\036\355t\352ATX\334\021\210\277"
 218      421C4823 
 218      1EED74EA 
 218      415458DC 
 218      1188BF
 219 017c BA449D42 		.ascii	"\272D\235B\314\365M\324=\210\032oM .>\356\020\243\024"
 219      CCF54DD4 
 219      3D881A6F 
 219      4D202E3E 
 219      EE10A314 
 220 0190 E2AEBE89 		.ascii	"\342\256\276\211Q\017b\204\2732\020ou\211q\012qO\337"
 220      510F6284 
 220      BB32106F 
 220      7589710A 
 220      714FDF
 221 01a3 C4B80731 		.ascii	"\304\270\0071\306<\005\342r\227\230\244\020\367\367"
 221      C63C05E2 
 221      729798A4 
 221      10F7F7
 222 01b2 4D4C7A10 		.ascii	"MLz\020\023\354\013\300\225.\320\244\000\017\365\015"
 222      13EC0BC0 
 222      952ED0A4 
 222      000FF50D 
 223 01c2 34FF018B 		.ascii	"4\377\001\213~\3226\177\201l\270@\037\375\337\200\233"
 223      7ED2367F 
 223      816CB840 
 223      1FFDDF80 
ARM GAS  /tmp/cc9RF4xZ.s 			page 17


 223      9B
 224 01d3 5B1E5A87 		.ascii	"[\036Z\207\345\351\376\026\212\215O\331`\011\262v.8"
 224      E5E9FE16 
 224      8A8D4FD9 
 224      6009B276 
 224      2E38
 225 01e5 01D56839 		.ascii	"\001\325h9\011]\273\034\234B\324h9\215\270V\015.B\322"
 225      095DBB1C 
 225      9C42D468 
 225      398DB856 
 225      0D2E42D2 
 226 01f9 68B918A6 		.ascii	"h\271\030\246v\205\201\304(\376\035F\345\311\352\201"
 226      768581C4 
 226      28FE1D46 
 226      E5C9EA81 
 227 0209 126C75EA 		.ascii	"\022lu\352\332\344\304\211K\027&\256\252|\341$\324\310"
 227      DAE4C489 
 227      4B1726AE 
 227      AA7CE124 
 227      D4C8
 228 021b 48DE4BA1 		.ascii	"H\336K\241\340e\224\335\350)\250\343\303E\250\263\303"
 228      E06594DD 
 228      E829A8E3 
 228      C345A8B3 
 228      C3
 229 022c 79FC0699 		.ascii	"y\374\006\231\267\014\256"
 229      B70CAE
 230              		.text
 231              		.section	.gnu.lto_gpsStart.8abda428814c3751,"",%progbits
 232 0000 789C9551 		.ascii	"x\234\225Q=K\003A\020}o\366.w\211\026\026\376\000k\003"
 232      3D4B0341 
 232      107D6FF6 
 232      2E778916 
 232      16FE006B 
 233 0015 82F8570C 		.ascii	"\202\370W\014hi\256\010W\004\004\261\020\213l$\202e"
 233      6869AE08 
 233      570404B1 
 233      108B6C24 
 233      8265
 234 0027 6A6DB455 		.ascii	"jm\264U\211\330\005l\024,4~a!~\025\246\263\261\261\023"
 234      89D8056C 
 234      142C347E 
 234      61217E15 
 234      A6B3B1B1 
 235 003c 9BB8B377 		.ascii	"\233\270\263wI\241\225\003\2733;\373\346\275\307\256"
 235      49A19503 
 235      BB333BFB 
 235      E6BDC7AE 
 236 004c 40F03BE6 		.ascii	"@\360;\346\334\272\"\020\273\314\020\224\366-\320\214"
 236      DCBA2210 
 236      BBCC1094 
 236      F62DD08C 
 237 005c 458263C2 		.ascii	"E\202c\302\226\314\3335`\307\015\203\254\037\220Z\200"
 237      96CCDB35 
 237      60C70D83 
 237      AC1F905A 
 237      80
ARM GAS  /tmp/cc9RF4xZ.s 			page 18


 238 006d 688809D8 		.ascii	"h\210\011\330X\244g9\222\323\376`\320y\352\355\236P"
 238      58A46739 
 238      92D3FE60 
 238      D079EAED 
 238      9E50
 239 007f 8A444A18 		.ascii	"\212DJ\030\326\211\310U\212\010\321\262\266=\005$\036"
 239      D689C855 
 239      8A08D1B2 
 239      B63D0524 
 239      1E
 240 0090 3FEF76A5 		.ascii	"?\357v\245\251P4\233\013\234\277\237\275\366\314\022"
 240      A950349B 
 240      0B9CBF9F 
 240      BDF6CC12 
 241 00a0 F79C871A 		.ascii	"\367\234\207\032\315\002\263\271QTh\340\254\230\033"
 241      CD02B3B9 
 241      515468E0 
 241      AC981B
 242 00af 6C5C7D1D 		.ascii	"l\\}\035\\J\206,c\337\272\230u\340\035l7\255\235H)\353"
 242      5C4A862C 
 242      63DFBA98 
 242      75E01D6C 
 242      37AD9D48 
 243 00c5 F8B65B5A 		.ascii	"\370\266[Z\231\272\347P.\343I\2529eM\317wh\365\273\233"
 243      99BAE750 
 243      2EE349AA 
 243      39654DCF 
 243      7768F5BB 
 244 00da 63191130 		.ascii	"c\031\0210\232\012\222\\Y;q\3120\027YMYp\204\325\374"
 244      9A0A925C 
 244      593B71CA 
 244      3017594D 
 244      597084D5 
 245 00ef 369F4B19 		.ascii	"6\237K\031\001\316\324K\267\363\311\241\375\250\214"
 245      01CED44B 
 245      B7F3C9A1 
 245      FDA88C
 246 00fe E97F5A52 		.ascii	"\351\177ZR?\341\037/qB\311\035GY\323\256\245,\326)#"
 246      3FE11F2F 
 246      7142C91D 
 246      4759D3AE 
 246      A52CD629 
 247 0113 F9D2F07D 		.ascii	"\371\322\360}\002\377\222\367\356\217\024\356i\237A"
 247      02FF92F7 
 247      EE8F14EE 
 247      699F41
 248 0122 55C26018 		.ascii	"U\302`\030l\310\307C\354{\2009|\234\324\257\240\016"
 248      6CC8C743 
 248      EC7B8039 
 248      7C9CD4AF 
 248      A00E
 249 0134 AA4CA1B6 		.ascii	"\252L\241\266\2742\223\340\007\225/x\006"
 249      BC3293E0 
 249      07952F78 
 249      06
 250              		.text
 251              		.section	.gnu.lto_gpsStop.8abda428814c3751,"",%progbits
ARM GAS  /tmp/cc9RF4xZ.s 			page 19


 252 0000 789C5D8E 		.ascii	"x\234]\216\261\016\001A\030\204g\376u\242\324*$j\022"
 252      B10E0141 
 252      188467FE 
 252      75A2D42A 
 252      246A12
 253 0013 2F838492 		.ascii	"/\203\204\222+.[H$J\205=Q(U\"4\024Z\012/\240Q\211\023"
 253      2B2E5B48 
 253      244A853D 
 253      51285522 
 253      34145A0A 
 254 002c ADEA5AAF 		.ascii	"\255\352Z\257\2409\273w\256\261\311\354\356\237\177"
 254      A039BB77 
 254      AEB1C9EC 
 254      EE9F7F
 255 003b E6CB0804 		.ascii	"\346\313\010\004\377\247bu\265*YQ\201\262\214\200\260"
 255      FFA76275 
 255      B52A5951 
 255      81B28C80 
 255      B0
 256 004c 24A4FB80 		.ascii	"$\244\373\200\230\012\247=\246\336\223\\\342$9\256n"
 256      980AA73D 
 256      A6DE935C 
 256      E22439AE 
 256      6E
 257 005d BB88E209 		.ascii	"\273\210\342\011\207\204\202Nw\036\346\306,k\200\237"
 257      8784824E 
 257      771EE6C6 
 257      2C6B809F 
 258 006d 8E6D7BBB 		.ascii	"\216m{\273|\207\342^u\307\354\265>\277\331\347\236\036"
 258      7C87E25E 
 258      75C7ECB5 
 258      3EBFD9E7 
 258      9E1E
 259 007f 02AA06EA 		.ascii	"\002\252\006\3526\270\305&4\306\2644\031P\272\324\314"
 259      36B8C526 
 259      34C6B434 
 259      1950BAD4 
 259      CC
 260 0090 0A0E98D7 		.ascii	"\012\016\230\327{`~\251f)`\202\217Y\230\262\246\362"
 260      7B607EA9 
 260      66296082 
 260      8F5998B2 
 260      A6F2
 261 00a2 99392C49 		.ascii	"\2319,I\263\000<\021\306\367\303\017\3578^\016h[\247"
 261      B3003C11 
 261      C6F7C30F 
 261      EF385E0E 
 261      685BA7
 262 00b5 6DE0B8C5 		.ascii	"m\340\270\305`4n\372\370\002\343y1g"
 262      60346EFA 
 262      F802E379 
 262      3167
 263              		.text
 264              		.section	.gnu.lto_gpsParseNMEAType.8abda428814c3751,"",%progbits
 265 0000 789C5D91 		.ascii	"x\234]\221=K\003A\020\206\337\331\217\273K<\3212\202"
 265      3D4B0341 
 265      1086DFD9 
ARM GAS  /tmp/cc9RF4xZ.s 			page 20


 265      8FBB4B3C 
 265      D13282
 266 0013 88859D60 		.ascii	"\210\205\235`\345\017\320\312\326\302\200\226r\305q"
 266      E50FD0CA 
 266      D6C28096 
 266      72C571
 267 0022 8520585A 		.ascii	"\205 XZdc\"\010Z\004,\022\024A\261T\264\027\005\005"
 267      64632208 
 267      5A042C12 
 267      1441B154 
 267      B4170505 
 268 0036 8B033F82 		.ascii	"\213\003?\202\245\235\205\340O\010\330\304\231\313]"
 268      A59D85E0 
 268      4F08D8C4 
 268      99CB5D
 269 0045 50177666 		.ascii	"P\027vfgg\346\231\231]\005\205\377k\221w\207\200\220"
 269      6767E699 
 269      995D0585 
 269      FF6B9177 
 269      878090
 270 0058 357920D5 		.ascii	"5y \325z\005\352\201R:\015\341\3126}\000\\\250\225\371"
 270      7A05EA81 
 270      523A0DE1 
 270      CA367D00 
 270      5CA895F9 
 271 006c 9C10F372 		.ascii	"\234\020\363r\236-CV\242\310\022\211\006\241\246\264"
 271      9E2D4356 
 271      A2C81289 
 271      06A1A6B4 
 272 007c B1545BA3 		.ascii	"\261T[\243\214y\255\356?\372\375\253\333\247\323;\322"
 272      8C79ADEE 
 272      3FFAFDAB 
 272      DBA7D33B 
 272      D2
 273 008d 01212168 		.ascii	"\001!!h\332 \030>\221e\241<\026\332\027\007/\213\246"
 273      DA20183E 
 273      9165A13C 
 273      16DA1707 
 273      2F8BA6
 274 00a0 73AD6920 		.ascii	"s\255i \312\314\025\226\202\255\222\022\255_\260s\263"
 274      CACC1596 
 274      82AD9212 
 274      AD5FB073 
 274      B3
 275 00b1 7BDE9E5D 		.ascii	"{\336\236]\2473N\216\311\034\343\210\030\024\223^em"
 275      A7334E8E 
 275      C91CE388 
 275      1814935E 
 275      656D
 276 00c3 F241523C 		.ascii	"\362AR<~\325\307\206A\342\2623\277\006\255\222F\032"
 276      7ED5C786 
 276      41E2B233 
 276      BF06AD92 
 276      461A
 277 00d5 32ADB1DF 		.ascii	"2\255\261\337\270hO\026\2016\307xR\273\013\257\270\367"
 277      B8684F16 
 277      8136C778 
ARM GAS  /tmp/cc9RF4xZ.s 			page 21


 277      52BB0BAF 
 277      B8F7
 278 00e7 B6F1EDF6 		.ascii	"\266\361\355\366\334xB~D\203\2618X.+\011\005S(\235\270"
 278      DC78427E 
 278      4483B138 
 278      582E2B09 
 278      0553289D 
 279 00fc CE424225 		.ascii	"\316BB%\014\022 \214\262\342\211F\362VJC\222\2704\376"
 279      0C12208C 
 279      B2E28946 
 279      F2564A43 
 279      92B834FE 
 280 0110 B4627068 		.ascii	"\264bpht\027\315\240\010\362\207\345\302\210T^N'4Zd"
 280      7417CDA0 
 280      08F287E5 
 280      C288545E 
 280      4E27345A 
 281 0125 D8EC2DDE 		.ascii	"\330\354-\336\370k\304\2235\364\016\0224\002\250\347"
 281      F86BC493 
 281      35F40E12 
 281      3402A8E7 
 282 0135 5EC00C33 		.ascii	"^\300\0143\260}\350\203^E\036\222$Ih^\274\2715\027A"
 282      B07DE883 
 282      5E451E92 
 282      2449685E 
 282      BCB93517 
 283 014a 2F2DE307 		.ascii	"/-\343\007\203n] "
 283      836E5D20 
 284              		.text
 285              		.section	.gnu.lto_gpsParseFix.8abda428814c3751,"",%progbits
 286 0000 789CAD57 		.ascii	"x\234\255WKhTg\024>\347>f\356\314\235\314{\214\211\332"
 286      4B685467 
 286      143EE73E 
 286      66EECC9D 
 286      CC7B8C89 
 287 0015 B42154C4 		.ascii	"\264!T\304\230\"Vl\032\304\244.\\uQ\250P\2271\326a\350"
 287      9822566C 
 287      1AC4A42E 
 287      5C7551A8 
 287      509731D6 
 288 002b 435103A5 		.ascii	"CQ\003\245.rc\"\004\324\032,\264i\305F\015&m\011(\270"
 288      2E726322 
 288      04D41A2C 
 288      B469C546 
 288      0D266D09 
 289 0041 097D9994 		.ascii	"\011}\231\224\266T\324\306n\212#Y\210\024mUJqc\214I"
 289      B654D4C6 
 289      6E8A2359 
 289      88146D55 
 289      4A71638C 
 290 0056 A7E77FDD 		.ascii	"\247\347\177\335{gFM$s\027\347\177\234\327w\276\377"
 290      7B67464D 
 290      247317E7 
 290      7F9CD777 
 290      BEFF
 291 0068 BF77CE68 		.ascii	"\277w\316h\240A\351\363\002\002t\306\001^\2449.\001"
 291      A041E9F3 
ARM GAS  /tmp/cc9RF4xZ.s 			page 22


 291      020274C6 
 291      015EA439 
 291      2E01
 292 007a D4FA7F03 		.ascii	"\324\372\177\003\350\2664-\323\257\203\023\326\235K"
 292      E8B6342D 
 292      D3AF8313 
 292      D69D4B
 293 0089 004E44C7 		.ascii	"\000ND\307\024\333G\003M6NX\246\026\370\223i\302\326"
 293      14DB4703 
 293      4D364E58 
 293      A616F893 
 293      69C2D6
 294 009c A846FA80 		.ascii	"\250F\372\200\026\364/\203\232\361\323E\276\274l\320"
 294      16F42F83 
 294      9AF1D345 
 294      BEBC6CD0 
 295 00ac D2B21237 		.ascii	"\322\262\0227C\340X!.#\\Vq\031\3452\306e\222\313\270"
 295      43E05821 
 295      2E235C56 
 295      7119E532 
 295      C66592CB 
 296 00c1 B0D4C27D 		.ascii	"\260\324\302}+\311\337f2\022F[\240\2621)&\0215\251R"
 296      2BC9DF66 
 296      3212465B 
 296      A0B23129 
 296      261135A9 
 297 00d6 93A89AC4 		.ascii	"\223\250\232\304\324$\256&\0115I\212*&\254\224\226\376"
 297      D424AE26 
 297      0935498A 
 297      2A26AC94 
 297      96FE
 298 00e8 F217862F 		.ascii	"\362\027\206/\363W\220\342\247EU\230Ad# ti\272a\006"
 298      F35790E2 
 298      A7455598 
 298      41642320 
 298      7469BA61 
 299 00fd 8256286C 		.ascii	"\202V(lG\252\242\261x\"\231Jg\260k\0332\312\214z8\345"
 299      47AAA2B1 
 299      7822994A 
 299      67B06B1B 
 299      32CA8C7A 
 300 0113 38C76E1C 		.ascii	"8\307n\034|\3607~\352\214w\237tf\013\005\304\034\022"
 300      7CF0377E 
 300      EA8C779F 
 300      74660B05 
 300      C41C12
 301 0126 BD21840E 		.ascii	"\275!\204\016\204\267h\201\026\0374,\346\233\371\216"
 301      84B76881 
 301      161F342C 
 301      E69BF98E 
 302 0136 F78F7F7B 		.ascii	"\367\217\177{\364\010:'\017\364;\377\221k\016u\015l"
 302      F4083A27 
 302      0FF43BFF 
 302      916B0E75 
 302      0D6C
 303 0148 CFB34F8C 		.ascii	"\317\263O\214Z\242\334\32596\376\375\344G\325\316\015"
 303      5AA2DCD5 
ARM GAS  /tmp/cc9RF4xZ.s 			page 23


 303      3936FEFD 
 303      E447D5CE 
 303      0D
 304 0159 47B952D2 		.ascii	"G\271R\322\344B\222\222\347\017\223\3669\247\317)\024"
 304      E4429292 
 304      E70F93F6 
 304      39A7CF29 
 304      14
 305 016a BAB8DB92 		.ascii	"\272\270\333\222\371\334\316j\3437\012\205\331\207\275"
 305      F9DCCE6A 
 305      E3370A85 
 305      D987BD
 306 0179 D75FDF8C 		.ascii	"\327_\337\214\320\216\247\260\236\334\332\361\014\215"
 306      D08EA7B0 
 306      9EDCDAF1 
 306      0C8D
 307 0187 BA1C0D1A 		.ascii	"\272\034\015\032Gh4!\207\206\215\357!DhfFI\004b$\264"
 307      47683421 
 307      87868DEF 
 307      21446866 
 307      46490462 
 308 019d 38896082 		.ascii	"8\211`\202\204\225\224\246)9\246\231MF\306\251f\213"
 308      849594A6 
 308      2939A699 
 308      4D46C6A9 
 308      668B
 309 01af 1AB9A895 		.ascii	"\032\271\250\225\3432\346\266\234\211\025\024\031\353"
 309      E332E6B6 
 309      9C891514 
 309      19EB
 310 01bd D8AC9E89 		.ascii	"\330\254\236\211\006&V2\261\212\211F&\232\230XK\"\264"
 310      06265632 
 310      B18A8946 
 310      269A9858 
 310      4B22B4
 311 01d0 8E44783D 		.ascii	"\216Dx=\023\033\230hf\242\205\204\275\221Dd\223\014"
 311      131B9868 
 311      66A28584 
 311      BD914464 
 311      930C
 312 01e2 DE2A2B6A 		.ascii	"\336*+j\223#=&\364:N\377\363b\335\216C\\\236\341r\204"
 312      93233D26 
 312      F43A4EFF 
 312      F362DD8E 
 312      435C9EE1 
 313 01f8 5B747086 		.ascii	"[tp\206\336$\331\213\260\0255\032\364+\320s\250\347"
 313      DE24D98B 
 313      B015351A 
 313      F42BD073 
 313      A8E7
 314 020a F61775ED 		.ascii	"\366\027u\355\370\025\232\220\305H\026m\316\246N\246"
 314      F8159A90 
 314      C548166D 
 314      CEA64EA6 
 315 021a 931050FB 		.ascii	"\223\020P\373\321\3750C\354\307sX\325\201\202i2f\233"
 315      D1FD3043 
 315      ECC77358 
ARM GAS  /tmp/cc9RF4xZ.s 			page 24


 315      D5818269 
 315      32669B
 316 022d 4B73187D 		.ascii	"Ks\030}\016\352O8\003\2559\214\201p\340'\022\327\011"
 316      0EEA4F38 
 316      03AD398C 
 316      8170E027 
 316      12D709
 317 0240 315D835F 		.ascii	"1]\203_\241\367^w\314\215\304T\001\377ImE\035\012t&"
 317      A1F75E77 
 317      CC8DC454 
 317      01FF496D 
 317      451D0A74 
 318 0255 908736A6 		.ascii	"\220\2076\246\244+\254\035\236{7\017\233\370*\010\332"
 318      A42BAC1D 
 318      9E7B370F 
 318      9BF82A08 
 318      DA
 319 0266 BD47FB98 		.ascii	"\275G\373\230\231\001\003?\003\203\334\327sa\360\025"
 319      9901033F 
 319      0383DCD7 
 319      7361F015 
 320 0276 15309545 		.ascii	"\0250\225EC\272\001\\\201\003\377\364\354Q\2524\251"
 320      43BA015C 
 320      8103FFF4 
 320      EC51AA34 
 320      A9
 321 0287 D81E39DC 		.ascii	"\330\0369\334\327\324f&\213\232\337\376b\277\304\266"
 321      D7D46626 
 321      8B9ADFFE 
 321      62BFC4B6 
 322 0297 06461D7A 		.ascii	"\006F\035z\232\351$\004}\024@B\314bBa5\201^3\344y\316"
 322      9AE92404 
 322      7D144042 
 322      CC624261 
 322      35815E33 
 323 02ae 0EAE5641 		.ascii	"\016\256VAc\024\224g:\244\253\2558QI\012\236\343\233"
 323      63149467 
 323      3AA4ABAD 
 323      3851490A 
 323      9EE39B
 324 02c1 83B750ED 		.ascii	"\203\267P\355'\216\303\347\224\336\"\013\006#(S\024"
 324      278EC3E7 
 324      94DE220B 
 324      06232853 
 324      14
 325 02d2 B39460AA 		.ascii	"\263\224`\252d\243\313Q\036\264,\326\246\221\340\033"
 325      64A3CB51 
 325      1EB42CD6 
 325      A691E01B 
 326 02e2 B373FF6A 		.ascii	"\263s\377jy0\262\230d\353\224\321\027d\270\002@\037"
 326      7930B298 
 326      64EB94D1 
 326      1764B802 
 326      401F
 327 02f4 319D4599 		.ascii	"1\235E\231\310\037\325\213\343\024\263\035\204\211\213"
 327      C81FD58B 
 327      E314B31D 
ARM GAS  /tmp/cc9RF4xZ.s 			page 25


 327      84898B
 328 0303 DCF2D6C4 		.ascii	"\334\362\326\304u7\241\2400Vdh\301\264\245\363Jo\017"
 328      7537A1A0 
 328      30566468 
 328      C1B4A5F3 
 328      4A6F0F
 329 0316 2E5586D5 		.ascii	".U\206\325\222\323\003cW\355\"\336\326\372x\253\226"
 329      92D30363 
 329      57ED22DE 
 329      D6FA78AB 
 329      96
 330 0327 3158500B 		.ascii	"1XP\013@\236\301\335ASE\251\361\037\302e\370\314\371"
 330      409EC1DD 
 330      415345A9 
 330      F11FC265 
 330      F8CCF9
 331 033a AE60291D 		.ascii	"\256`)\035\036\201\303\335\275\316\370\211\217\365\034"
 331      1E81C3DD 
 331      BDCEF889 
 331      8FF51C
 332 0349 A698F70E 		.ascii	"\246\230\367\016\024\337~\251\230\211\321\276\353\275"
 332      14DF7EA9 
 332      9889D1BE 
 332      EBBD
 333 0357 0375BFF2 		.ascii	"\003u\277\362jR)5\2564\374\312?\\\245\316\225\246_9"
 333      6A522935 
 333      AE34FCCA 
 333      3F5CA5CE 
 333      95A65F39 
 334 036b E52A0DAE 		.ascii	"\345*\015\256\014\370\225\367]\245\311\225A\277r\326"
 334      0CF895F7 
 334      5DA5C995 
 334      41BF72D6 
 335 037b 5506B9D2 		.ascii	"U\006\271\322\362+?I)e\210+CE\034\207\340(\352\227\350"
 335      F22B3F49 
 335      2965882B 
 335      43451C87 
 335      E028EA97 
 336 0390 FB2EAAE7 		.ascii	"\373.\252\347\305\360\0133\347\276\223\313\304\205I"
 336      C5F00B33 
 336      E7BE93CB 
 336      C48549
 337 039f B318A6F8 		.ascii	"\263\030\246\370\346\231\376Kc\273\206L\225\206\242"
 337      E699FE4B 
 337      63BB864C 
 337      9586A2
 338 03ae F861B261 		.ascii	"\370a\262ag85v\372\246{+\226\257\201F\367\264J\337G"
 338      67383576 
 338      FAA67B2B 
 338      96AF8146 
 338      F7B44ADF 
 339 03c3 FE4A141F 		.ascii	"\376J\024\037\355\033d\274\032\276f\323\3659\314\010"
 339      ED1B64BC 
 339      1ABE66D3 
 339      F539CC08 
 340 03d3 3C4BB2B8 		.ascii	"<K\262\270\202\371\212\263\336\216\336\211{\321(\025"
 340      82F98AB3 
ARM GAS  /tmp/cc9RF4xZ.s 			page 26


 340      DE8EDE89 
 340      7BD12815 
 341 03e3 0F3875CD 		.ascii	"\0178u\315\227\275\256,;V4;z\331\353\304M\235>}S[TH"
 341      97BDAE2C 
 341      3B56343B 
 341      7AD9EBC4 
 341      4D9D3E7D 
 342 03fb B7F5E017 		.ascii	"\267\365\340\027\372U\201sj`\310+\252\276\254(_\273"
 342      FA558173 
 342      6A60C82B 
 342      AABEAC28 
 342      5FBB
 343 040d 5281A274 		.ascii	"R\201\242t\257\250z\221}\314\227\275\241,\273^\321\354"
 343      AFA87A91 
 343      7DCC97BD 
 343      A12CBB5E 
 343      D1EC
 344 041f 8697BD41 		.ascii	"\206\227\275APzmh\221\224\252+\\L\351\264\257\250\225"
 344      507A6D68 
 344      9194AA2B 
 344      5C4CE9B4 
 344      AFA895
 345 0432 6545B930 		.ascii	"eE\2710*R\224{M)\225<\320a/\373\252\262\354fE\263\007"
 345      2A52947B 
 345      4D29953C 
 345      D0612FFB 
 345      AAB2EC66 
 346 0449 BDECAB04 		.ascii	"\275\354\253\004\245c\303\213\244\324*\242\264IRz\315"
 346      A563C38B 
 346      A4D42AA2 
 346      B449527A 
 346      CD
 347 045a 57546359 		.ascii	"WTcYQ.\214\212\024\345~\333(\225<\320\341;n\366\246"
 347      512E8C8A 
 347      14E57EDB 
 347      28953CD0 
 347      E13B6EF6 
 348 046f B2EC5671 		.ascii	"\262\354Vq\366s\213\313\036\366\2627\011J\007F\356,"
 348      F6738BCB 
 348      1EF6B237 
 348      094A0746 
 348      EE2C
 349 0481 8E52BB88 		.ascii	"\216R\273\210R\265\330\2126\373lS\206\231\236\207\015"
 349      52B5D88A 
 349      36FB6C53 
 349      86999E87 
 349      0D
 350 0492 AABCB5FB 		.ascii	"\252\274\265\373\341Cj\340d\370\226y\302\363g\022\016"
 350      E1436AE0 
 350      64F89679 
 350      C2F36712 
 350      0E
 351 04a3 8ED7C896 		.ascii	"\216\327\310\226\011\334\026ki\207\374\275\3431gX\264"
 351      09DC166B 
 351      6987FCBD 
 351      E3316758 
 351      B4
ARM GAS  /tmp/cc9RF4xZ.s 			page 27


 352 04b4 6D39AC51 		.ascii	"m9\254Q=\035\267\316a\255\302\022)\375\011\021\277\317"
 352      3D1DB7CE 
 352      61ADC212 
 352      29FD0911 
 352      BFCF
 353 04c6 333D2367 		.ascii	"3=#gj\025\266u\034[\330\303\266\354\361\330\360\031"
 353      6A15B675 
 353      1C5BD8C3 
 353      B6ECF1D8 
 353      F019
 354 04d8 B0AD93D8 		.ascii	"\260\255\223\330\366>\005[U)6Sb;\357a[_)l\313;d+\300"
 354      F63E055B 
 354      55293653 
 354      623BEF61 
 354      5B5F296C 
 355 04f1 633E09DB 		.ascii	"c>\011\333\012\205-Z\212- \261]\360\260mX 6m>l>\336"
 355      0A852D5A 
 355      8A2D20B1 
 355      5DF0B06D 
 355      5820366D 
 356 0509 36486C9D 		.ascii	"6Hl\235O\341-V\212-(\261\335\365\2605W\012\233\217\267"
 356      4FE12D56 
 356      8A2D28B1 
 356      DDF5B035 
 356      570A9B8F 
 357 051e E6276373 		.ascii	"\346'csy\213\227b\263$\266\202\207\255\205c\263=l\317"
 357      798B9762 
 357      B324B682 
 357      87AD8563 
 357      B33D6CCF 
 358 0532 3D1E9B3E 		.ascii	"=\036\233>\0376\037o-\013\270o\211Rl!u\337\206]l\033"
 358      1F361F6F 
 358      2D0BB86F 
 358      89526C21 
 358      75DF865D 
 359 0548 39B68887 		.ascii	"9\266\210\207\255\356\361\330\214g\300\266q\001\330"
 359      ADEEF1D8 
 359      8C67C0B6 
 359      7101D8
 360 0557 92AC9D66 		.ascii	"\222\254\235f\330dC\313{\342\241\301\227\024\256Vj}"
 360      D86443CB 
 360      7BE2A1C1 
 360      9714AE56 
 360      6A7D
 361 0569 DDAE56B8 		.ascii	"\335\256V\270\244\340A\010Y\247\3565y\350\266\222\342"
 361      A4E04108 
 361      59A7EE35 
 361      79E8B692 
 361      E2
 362 057a C903FD09 		.ascii	"\311\003\375\011h\323I\264&\247\315<\350Y\334\304V5"
 362      68D349B4 
 362      26A7CD3C 
 362      E859DCC4 
 362      5635
 363 058c C9D1429A 		.ascii	"\311\321B\232\305H\263\264\314\2566\213z\012\363\220"
 363      C548B3B4 
 363      CCAE368B 
ARM GAS  /tmp/cc9RF4xZ.s 			page 28


 363      7A0AF390 
 364 059c E4110052 		.ascii	"\344\021\000R\243s\0370\203\214\370#\370\343]\371\251"
 364      A3731F30 
 364      838CF823 
 364      F8E35DF9 
 364      A9
 365 05ad 14F85F86 		.ascii	"\024\370_\206\363N\037\373wO\226\277s\320Y\321v\346"
 365      F34E1FFB 
 365      774F96BF 
 365      73D059D1 
 365      76E6
 366 05bf C164018C 		.ascii	"\301d\001\214\202z\260K\033}d\361=\026\364x\206\375"
 366      827AB04B 
 366      1B7D64F1 
 366      3D16F478 
 366      86FD
 367 05d1 C9440ACA 		.ascii	"\311D\012\312\310\011dw\357m\352\000\314\005\366\355"
 367      C8096477 
 367      EF6DEA00 
 367      CC05F6ED 
 368 05e1 7AE7B5CE 		.ascii	"z\347\265\316\235\372\356]{\355\355\235;w\276\275g\363"
 368      9DFAEE5D 
 368      7BEDED9D 
 368      3B77BEBD 
 368      67F3
 369 05f3 AECEF7F7 		.ascii	"\256\316\367\367\031[\266\264\301\377\372k\251\331"
 369      195BB6B4 
 369      C1FFFA6B 
 369      A9D9
 370              		.text
 371              		.section	.gnu.lto_gpsNMEAChecksum.8abda428814c3751,"",%progbits
 372 0000 789C5D51 		.ascii	"x\234]Q=K\003A\020\2357\273{9\305\306\336Bl\354\322"
 372      3D4B0341 
 372      109D37BB 
 372      7B39C5C6 
 372      DE426CEC 
 373 0015 59FA17AC 		.ascii	"Y\372\027\254\022\3202\034r\006\211(!u\366LRi\021l\004"
 373      12D0321C 
 373      72068928 
 373      2175F64C 
 373      5269116C 
 374 002a F5C06011 		.ascii	"\365\300`\021\004!X\211\301\"\026\242\215\202e\300\""
 374      04215889 
 374      C12216A2 
 374      8D8265C0 
 374      22
 375 003b B5883F40 		.ascii	"\265\210?@\204s6\271S\342\302\335|\27473og\231\230\376"
 375      847336B9 
 375      53E2C2DD 
 375      7CBC3733 
 375      6F679998 
 376 0050 9F55F94E 		.ascii	"\237U\371N@4/\026\036\201\333/D\221\317\320\023GM\234"
 376      40342F16 
 376      1E81DB2F 
 376      4491CFD0 
 376      13474D9C 
 377 0064 7B5FB33A 		.ascii	"{_\263:|$\262\263\246\231#;g\000\227'P\235\2256\250"
ARM GAS  /tmp/cc9RF4xZ.s 			page 29


 377      7C24B2B3 
 377      A699233B 
 377      67009727 
 377      509D9536 
 378 0079 6FC0B5C3 		.ascii	"o\300\265\303\022u\254=\032=\364\337ql\007\321\271\375"
 378      1275AC3D 
 378      1A3DF4DF 
 378      716C07D1 
 378      B9FD
 379 008b 4E12A00C 		.ascii	"N\022\240\014\031=\003\012@\353\022\300\037\033\306"
 379      193D030A 
 379      40EB12C0 
 379      1F1BC6
 380 009a B4961E0F 		.ascii	"\264\226\036\017FIr\026\267\276\326\204[q5%t\244\245"
 380      46497216 
 380      B7BED684 
 380      5B713525 
 380      74A4A5
 381 00ad 8204DA65 		.ascii	"\202\004\332e<*C\345\234\347\247\230\034CMk\333\213"
 381      3C2A43E5 
 381      9CE7A798 
 381      1C434D6B 
 381      DB8B
 382 00bf 591C8CDB 		.ascii	"Y\034\214\333\026\344/J\213`1\352\231\032\007\215^w"
 382      16E42F4A 
 382      8B6031EA 
 382      991A078D 
 382      5E77
 383 00d1 A1840B18 		.ascii	"\241\204\013\030\012\241C\250)\011E(\222\373M\2107\335"
 383      0AA143A8 
 383      29094528 
 383      92FB4D88 
 383      37DD
 384 00e3 7C46CC85 		.ascii	"|F\314\205\300/Q\300~c'\203\374\020\034\312\316\322"
 384      C02F51C0 
 384      7E632783 
 384      FC101CCA 
 384      CED2
 385 00f5 7A4DB210 		.ascii	"zM\262\020\251\337\357\267\256\2273\216w*\333\025\311"
 385      A9DFEFB7 
 385      AE97338E 
 385      772ADB15 
 385      C9
 386 0106 69179D4E 		.ascii	"i\027\235N{\242\346G\264\362Kr\220\371\333\303\220 "
 386      7BA2E647 
 386      B4F24B72 
 386      90F9DBC3 
 386      9020
 387 0118 0AF92EDE 		.ascii	"\012\371.\336\223\371\352-\276\305\220\330q\004\343"
 387      93F9EA2D 
 387      BEC590D8 
 387      7104E3
 388 0127 ABB826A3 		.ascii	"\253\270&\243%[qC\215\273\334+E\243\317Kd\355\322G."
 388      255B7143 
 388      8DBBDC2B 
 388      45A3CF4B 
 388      64EDD247 
ARM GAS  /tmp/cc9RF4xZ.s 			page 30


 389 013c 0002BAC0 		.ascii	"\000\002\272\300\013w\253\371\200\374`k3\330\256\326"
 389      0B77ABF9 
 389      80FC606B 
 389      33D8AED6 
 390 014c 2A3F0525 		.ascii	"*?\005%g\034"
 390      671C
 391              		.text
 392              		.section	.gnu.lto_gpsThread.8abda428814c3751,"",%progbits
 393 0000 789C8D54 		.ascii	"x\234\215T\315O\023A\024\177o\277[*\226*~\242\022\343"
 393      CD4F1341 
 393      147F6FBF 
 393      5B2A962A 
 393      7EA212E3 
 394 0014 49027BD1 		.ascii	"I\002{\321\263\361\340\177@\0239\030\262]\232v\243\005"
 394      B3F1E07F 
 394      40133918 
 394      B25D9A76 
 394      A305
 395 0026 A560623C 		.ascii	"\245`b<\260\225\222\210'\016\232\000&\012\261\036\012"
 395      B0959288 
 395      270E9A00 
 395      260AB11E 
 395      0A
 396 0037 040E78F2 		.ascii	"\004\016x\362bA\024\002\021\243\304\013\361\260\301"
 396      62411402 
 396      11A3C40B 
 396      F1B0C1
 397 0046 83212186 		.ascii	"\203!!\206\233\206\230\3247;\273\333\017.N\322\231\235"
 397      9B8698D4 
 397      373BBBDB 
 397      0F2E4ED2 
 397      999D
 398 0058 99F77EBF 		.ascii	"\231\367~\277\337\233\367^\005\020\240~t\323\357\275"
 398      DF9BF75E 
 398      0510A07E 
 398      74D3EFBD 
 399 0068 04708356 		.ascii	"\004p\203V\014\001\012c\233\0009M@\231\177\210\202\264"
 399      0C010A63 
 399      9B00394D 
 399      40997F88 
 399      82B4
 400 007a 2C821DD6 		.ascii	",\202\035\3266\327\001\354\210\206\012;\277.\361\373"
 400      36D701EC 
 400      88860A3B 
 400      BF2EF1FB 
 401 008a 254DE607 		.ascii	"%M\346\007\250\010\242k\021V\231yDEd\307\2000$\210\232"
 401      A808A26B 
 401      11569979 
 401      444564C7 
 401      80302488 
 402 009f 242B2A0E 		.ascii	"$+*\016u!#\304\2130m\333\343\316\310\3166N\330\245\374"
 402      752123C4 
 402      8B306DDB 
 402      E3CEC8CE 
 402      364ED8A5 
 403 00b4 94FDB75C 		.ascii	"\224\375\267\\F\264\220\304\205\020L\204\233\264\301"
 403      46B490C4 
ARM GAS  /tmp/cc9RF4xZ.s 			page 31


 403      85104C84 
 403      9BB4C1
 404 00c3 567711A4 		.ascii	"Vw\021\244Z\265\013B\311)\227\367^\216\034t5\013\230"
 404      5AB50B42 
 404      C92997F7 
 404      5E8E1C74 
 404      350B98
 405 00d6 4190C142 		.ascii	"A\220\301BQ\243I\012\321$G\320\300ib\210\322Fi\242I"
 405      51A3490A 
 405      D12447D0 
 405      C0696288 
 405      D24669A2 
 406 00eb 8DD1A491 		.ascii	"\215\321\244\221\247\014y\333\036k\345\327\300hht\322"
 406      A70C79DB 
 406      1E6BE5D7 
 406      C0686874 
 406      D2
 407 00fc 4C72E328 		.ascii	"Lr\343(\320\"~\206\221\375\342\330\223f\317\324\367"
 407      D0227E86 
 407      91FDE2D8 
 407      9366CFD4 
 407      F7
 408 010d 296DAC7C 		.ascii	")m\254|\223\001\014|\2052\371!W\362\020\016\354\307"
 408      93010C7C 
 408      8532F921 
 408      57F2100E 
 408      ECC7
 409 011f 76D4C290 		.ascii	"v\324\302\220\211\202\201\257\351.8u\266\246\236^\266"
 409      898281AF 
 409      E92E3875 
 409      B6A69E5E 
 409      B6
 410 0130 30DC0633 		.ascii	"0\334\00636\215n\013\0332\210\011\346\351Y\032X`\013"
 410      368D6E0B 
 410      1B328809 
 410      E6E9591A 
 410      58600B
 411 0143 0B3182A4 		.ascii	"\0131\202\244\360\010\007\215\243\010\364\212\244$\357"
 411      F008078D 
 411      A308F48A 
 411      A424EF
 412 0152 14938774 		.ascii	"\024\223\207t|\374 Vt\210u:\032M\224\014\234\251\325"
 412      7CFC2056 
 412      7488753A 
 412      1A4D940C 
 412      9CA9D5
 413 0165 5178D656 		.ascii	"Qx\326V\321q\257F\307\014\327Qd\213\205G\001(|g\264"
 413      D171AF46 
 413      C70CD751 
 413      648B8547 
 413      01287C67 
 414 017a A8D6B38E 		.ascii	"\250\326\263\216\256V\005/\037\016^1p\241\206\364k\341"
 414      AE56052F 
 414      1F0E5E31 
 414      70A186F4 
 414      6BE1
 415 018c 5285335E 		.ascii	"R\2053^\303\271\3009\347\353c\377\004\217\266\277\027"
ARM GAS  /tmp/cc9RF4xZ.s 			page 32


 415      C3B9C039 
 415      E7EB63FF 
 415      048FB6BF 
 415      17
 416 019d B6C43A6E 		.ascii	"\266\304:n\373\307\\{\205[e\034)\214r\344\322\326.\001"
 416      FBC75C7B 
 416      855B651C 
 416      298C72E4 
 416      D2D62E01 
 417 01b1 449FC364 		.ascii	"D\237\303d\316fJ\232\002M\261\014\2622g\3701Wm\202\345"
 417      CE664A9A 
 417      024DB10C 
 417      B23267F8 
 417      31576D82 
 418 01c6 CCC0375C 		.ascii	"\314\3007\\%q\375\032~Ku\262H\373\0246\021\242{x0Ll"
 418      2571FD1A 
 418      7E4B75B2 
 418      48FB1436 
 418      11A27B78 
 419 01dd 9C2B851A 		.ascii	"\234+\205\032Cc$\364f\307\332a\216\205r\313\302\343"
 419      436324F4 
 419      66C7DA61 
 419      8E8572CB 
 419      C2E3
 420 01ef 5E54D72C 		.ascii	"^T\327,l&\226\004#\362\200\011\011 \330\005l,\223\343"
 420      6C269604 
 420      23F28009 
 420      0920D805 
 420      6C2C93E3 
 421 0203 B30D3E6E 		.ascii	"\263\015>n(Py\302t\313\2229j\026\236\004X\203\225\237"
 421      285079C2 
 421      74CB9239 
 421      6A169E04 
 421      5883959F 
 422 0217 B95060C8 		.ascii	"\271P`\310\344\237\302\252\322\357$\373\251U\3008J0"
 422      E49FC2AA 
 422      D2EF24FB 
 422      A955C038 
 422      4A30
 423 0229 EF16AB33 		.ascii	"\357\026\25339\033\346\366U\0319mR\027{\270\354\220"
 423      391BE6F6 
 423      5519396D 
 423      52177BB8 
 423      EC90
 424 023b C0CF78AA 		.ascii	"\300\317x\252\337\021\344YW6\257\035\317\327\302\026"
 424      DF11E459 
 424      5736AF1D 
 424      CFD7C216 
 425 024b BFFA64D8 		.ascii	"\277\372d\330WD\376\251\000\365/\262\304\374\331Y\027"
 425      5744FEA9 
 425      00F52FB2 
 425      C4FCD959 
 425      17
 426 025c 7C59721B 		.ascii	"|Yr\033Pa\213\364\352\204u.\205\002\223y\336{e\277W"
 426      50618BF4 
 426      EA84752E 
 426      85029379 
ARM GAS  /tmp/cc9RF4xZ.s 			page 33


 426      DE7B65BF 
 427 0271 D720BF97 		.ascii	"\327 \277\227\273\032\2700\023\261\272\211\343\224J"
 427      BB1AB830 
 427      13B1BA89 
 427      E3944A
 428 0280 6A37863D 		.ascii	"j7\206=\276\270\213\365I\377=\327RIz\230\207\022\363"
 428      BEB88BF5 
 428      49FF3DD7 
 428      52497A98 
 428      8712F3
 429 0293 923EB1D1 		.ascii	"\222>\261\321H\355\374\177Iw\323\260\354\247\201zc\251"
 429      48EDFC7F 
 429      4977D3B0 
 429      ECA7817A 
 429      63A9
 430 02a5 F6A52E98 		.ascii	"\366\245.\230\330\020\030\020\205E\3779\360\005r\316"
 430      D8101810 
 430      8545FF39 
 430      F00572CE 
 431 02b5 8B59F4C5 		.ascii	"\213Y\364\305G\374\267GR\314\010\224\324\335l\207\011"
 431      47FCB747 
 431      52CC0894 
 431      D4DD6C87 
 431      09
 432 02c6 6A2699CD 		.ascii	"j&\231\315\032\251\344\025=\335\227I\352f_\317\003\275"
 432      1AA9E415 
 432      3DDD9749 
 432      EA665FCF 
 432      03BD
 433 02d8 27795F37 		.ascii	"'y_7\323V\302\352\313\352\003\375\203\275\267u\372\350"
 433      D356C2EA 
 433      CBEA03FD 
 433      83BDB775 
 433      FAE8
 434 02ea 1FD0AD5E 		.ascii	"\037\320\255^\363\316`\017\031\245\023\331d\246#\015"
 434      F3CE600F 
 434      19A513D9 
 434      64A6230D 
 435 02fa FF00C652 		.ascii	"\377\000\306RG\005"
 435      4705
 436              		.text
 437              		.section	.gnu.lto_gpsGetLatitude.8abda428814c3751,"",%progbits
 438 0000 789C7550 		.ascii	"x\234uP\261\212\0021\024\234I\334u\271\312\326\316^"
 438      B18A0231 
 438      149C49DC 
 438      75B9CAD6 
 438      CE5E
 439 0012 F06BB490 		.ascii	"\360k\264\220\303\302\335BR\010\202\245\210\021V\020"
 439      C3C2DD42 
 439      520882A5 
 439      88115610 
 440 0022 6CFC04AF 		.ascii	"l\374\004\257\265p\333;\253\353\005\305\306\312\"\275"
 440      B570DB3B 
 440      ABEB05C5 
 440      C6CA22BD 
 441 0032 7F60A3C9 		.ascii	"\177`\243\311f\265\360\274\007\341\275\314{of\022\001"
 441      66B5F0BC 
ARM GAS  /tmp/cc9RF4xZ.s 			page 34


 441      07E1BDCC 
 441      7B6F6612 
 441      01
 442 0043 81D7A8DA 		.ascii	"\201\327\250\332\323$\020\331L\011\212\345\036\230F"
 442      D32410D9 
 442      4C098AE5 
 442      1E9846
 443 0052 82740588 		.ascii	"\202t\005\210\211\340\244\315|6\023\277\346v\333\234"
 443      89E0A4CD 
 443      7C3613BF 
 443      E676DB9C 
 444 0062 4FAB2D83 		.ascii	"O\253-\203P\262\237\303\001R\255\2275 \311\257\216\314"
 444      50B29FC3 
 444      0152AD97 
 444      3520C9AF 
 444      8ECC
 445 0074 ADB6285C 		.ascii	"\255\266(\\\226\007\244&\333\225\273\374b`\333#\\\365"
 445      9607A426 
 445      DB95BBFC 
 445      6260DB23 
 445      5CF5
 446 0086 5C5714ED 		.ascii	"\\W\024\355\270guH\244\310:\326\332F[Q\364\311\3307"
 446      B8677548 
 446      A4C83AD6 
 446      DA465B51 
 446      F4C9D837 
 447 009a 51EC29EB 		.ascii	"Q\354)\353\015\007\314\314\367%\374CUJ\350\037\326\243"
 447      0D07CCCC 
 447      F725FC43 
 447      554AE81F 
 447      D6A3
 448 00ac F4A06E29 		.ascii	"\364\240n)\006\005\341X1,\312O\305r\316\355\311\343"
 448      0605E158 
 448      312CCA4F 
 448      C572CEED 
 448      C9E3
 449 00be 62EDA911 		.ascii	"b\355\251\0219\215\324\374,>\336\331\225\357\354v\376"
 449      398DD4FC 
 449      2C3EDED9 
 449      95EFEC76 
 449      FE
 450 00cf B77BC4D4 		.ascii	"\267{\304\324l\353\017&\037M+m\177\305\351\206\275\301"
 450      6CEB0F26 
 450      1F4D2B6D 
 450      7FC5E986 
 450      BDC1
 451 00e1 B091E00E 		.ascii	"\260\221\340\016\344\205T\220"
 451      E4855490 
 452              		.text
 453              		.section	.gnu.lto_gpsGetLongitude.8abda428814c3751,"",%progbits
 454 0000 789C7550 		.ascii	"x\234uP=\213\0021\024\234In\327\305\312\326\316^\270"
 454      3D8B0231 
 454      149C496E 
 454      D7C5CAD6 
 454      CE5EB8
 455 0013 5FA38588 		.ascii	"_\243\205\210\205n\261\244\020\204+\3450\302\012\202"
 455      856EB1A4 
ARM GAS  /tmp/cc9RF4xZ.s 			page 35


 455      10842BE5 
 455      30C20A82 
 456 0023 8DF80BB4 		.ascii	"\215\370\013\264\265\320\277`\255\267\212\325\265\351"
 456      B5D0BF60 
 456      ADB78AD5 
 456      B5E9
 457 0031 EF1F5CA3 		.ascii	"\357\037\\\243\311f\265\360\343Ax/\363\336\233\231D"
 457      C966B5F0 
 457      E341782F 
 457      F3DE9B99 
 457      44
 458 0042 40E031AA 		.ascii	"@\3401\252\3664\010D6S\202b~\004\306\221 ]\001b$8j1"
 458      F6340844 
 458      36538262 
 458      7E04C691 
 458      205D0162 
 459 005a 9FDD8A9D 		.ascii	"\237\335\212\235\271\\6\213\337e\306 \224\354\347p\200"
 459      B95C368B 
 459      DF65C620 
 459      94ECE770 
 459      80
 460 006b 54EB790D 		.ascii	"T\353y\015\210\363\253#s\253M\012\227\345\011\251\331"
 460      88F3AB23 
 460      73AB4D0A 
 460      97E509A9 
 460      D9
 461 007c 1F4A5DAE 		.ascii	"\037J]\256\030\330\366\020\377z\252+\212v\334\263:$"
 461      18D8F610 
 461      FF7AAA2B 
 461      8A76DCB3 
 461      3A24
 462 008e 52641D6B 		.ascii	"Rd\035km\243\245(\372d\3177Q\354)\353\015'L\314\341"
 462      6DA3A528 
 462      FA64CF37 
 462      51EC29EB 
 462      0D274CCC 
 463 00a3 2F7CA2FA 		.ascii	"/|\242\372\210\351\037\226PzP7\025\203\202\360[1,\312"
 463      88E91F96 
 463      507A5037 
 463      158382F0 
 463      5B312CCA 
 464 00b7 B66229E7 		.ascii	"\266b)\347\366\344\275b\355\256\0219\215\324\374\314"
 464      F6E4BD62 
 464      EDAE1139 
 464      8DD4FCCC 
 465 00c7 CAAFECCA 		.ascii	"\312\257\354\312Wv;\357\355\23616Y\375\306\344\243a"
 465      57763BEF 
 465      ED9E3136 
 465      59FDC6E4 
 465      A361
 466 00d9 A5EDAF38 		.ascii	"\245\355\2578\3350\031|}\306\270\002\325\353T\256"
 466      DD30197C 
 466      7DC6B802 
 466      D5EB54AE 
 467              		.text
 468              		.section	.gnu.lto_gpsGetAltitude.8abda428814c3751,"",%progbits
 469 0000 789C7550 		.ascii	"x\234uP=\213B1\020\234I|\037X]kg/\370k\264\020\271\342"
ARM GAS  /tmp/cc9RF4xZ.s 			page 36


 469      3D8B4231 
 469      109C497C 
 469      1F585D6B 
 469      672FF86B 
 470 0018 7C85A410 		.ascii	"|\205\244\020\004K\021#<A\260\361'hkq\327Z^\177pbe\245"
 470      044B1123 
 470      3C41B0F1 
 470      27686B71 
 470      D75A5E7F 
 471 0030 A614FC07 		.ascii	"\246\024\374\0076\232\274<-\374X\010\273\231\335\235"
 471      369ABC3C 
 471      2DFC5808 
 471      BB99DD9D 
 472 0040 994440E0 		.ascii	"\231D@\3401J\366\324\010\3046S\202b\366\017\214bA\272"
 472      314AF6D4 
 472      08C43653 
 472      8262F60F 
 472      8C6241BA 
 473 0054 02C45070 		.ascii	"\002\304Pp\330`6\373#~\315\345\362\275\332\316\217\014"
 473      D86036FB 
 473      237ECDE5 
 473      F2BDDACE 
 473      8F0C
 474 0066 42C94E06 		.ascii	"B\311N\006\007H\265\236\225\201$\273:2\267Z\247pY\256"
 474      0748B59E 
 474      958124BB 
 474      3A32B75A 
 474      A77059AE 
 475 007a 919ADD5F 		.ascii	"\221\232\335_\364\305\005\003\333\356\343\254'\372C"
 475      F4C50503 
 475      DBEEE3AC 
 475      27FA43
 476 0089 D18E7B56 		.ascii	"\321\216{V\207\304\212\254`\251m4\024E\207l\371&\362"
 476      87C48AAC 
 476      60A96D34 
 476      1445876C 
 476      F926F2
 477 009c 3D65BD61 		.ascii	"=e\275a\215\261\331\237\302'\252BB\377\2606\245\007"
 477      8DB1D99F 
 477      C227AA42 
 477      42FFB036 
 477      A507
 478 00ae 755D31C8 		.ascii	"u]1\310\011\007\212a^6\025\243\214\333\223\267\362\265"
 478      09078A61 
 478      5E3615A3 
 478      8CDB93B7 
 478      F2B5
 479 00c0 BB46EC34 		.ascii	"\273F\3544Rs\230\026_\331\225\257\354~\276\267\273\301"
 479      52739816 
 479      5FD995AF 
 479      EC7EBEB7 
 479      BBC1
 480 00d2 C81C2B37 		.ascii	"\310\034+7&\0375+m\177\305\351\206\355n\257\232\340"
 480      261F352B 
 480      6D7FC5E9 
 480      86ED6EAF 
 480      9AE0
ARM GAS  /tmp/cc9RF4xZ.s 			page 37


 481 00e4 0A5ABB55 		.ascii	"\012Z\273UC"
 481      43
 482              		.text
 483              		.section	.gnu.lto_gpsGetTime.8abda428814c3751,"",%progbits
 484 0000 789C7550 		.ascii	"x\234uP1N\0031\020\234\261\261\357DEKG\037\211\327\334"
 484      314E0331 
 484      109CB1B1 
 484      EF44454B 
 484      471F89D7 
 485 0015 1511A220 		.ascii	"\025\021\242 WD.\"!Q\"t\216t\221\"\245\311\023BK\221"
 485      57442E22 
 485      21512274 
 485      8E749122 
 485      A5C91342 
 486 002b 7C217D24 		.ascii	"|!}$\"*:\344\236\017\300\245\010\366\331P\300\261\222"
 486      222A3AE4 
 486      9E0FC0A5 
 486      08F6D950 
 486      C0B192
 487 003e B5EBD9DD 		.ascii	"\265\353\331\335\231\261\005\004~\307\271?\005\201\334"
 487      99B10504 
 487      7EC7B93F 
 487      0581DC
 488 004d 674A502C 		.ascii	"gJP,\237\201i.\310P\200\250\005\353!\273\331\215\330"
 488      9F81692E 
 488      C85080A8 
 488      05EB21BB 
 488      D98DD8
 489 0060 BAE371FD 		.ascii	"\272\343q\375\366\272:Pi\311I\007+4\326./\200\252\273"
 489      F6BA3A50 
 489      69C94907 
 489      2B34D62E 
 489      2F80AABB 
 490 0074 06B2B05A 		.ascii	"\006\262\260ZR\204,\367h\334\307.\273\341#\225o\337"
 490      52842CF7 
 490      68DCC72E 
 490      BBE12395 
 490      6FDF
 491 0086 A3B5737B 		.ascii	"\243\265s{f\350\307#k@rC\016\360d}\014\015\305\204\034"
 491      66E8C723 
 491      6B407243 
 491      0EF0647D 
 491      0C0DC584 
 492 009b C526D29E 		.ascii	"\305&\322\236\361\336\260\307\314}\276\353?T'\025\343"
 492      F1DEB0C7 
 492      CC7DBEEB 
 492      3F542715 
 492      E3
 493 00ac C3C69411 		.ascii	"\303\306\224\021\264\245\241J\204\017\206:\225W\206"
 493      B4A5A14A 
 493      840F863A 
 493      955786
 494 00bb 59C71DC9 		.ascii	"Y\307\035\311Gi\355G#\017\032\215k\027\247}ve\237\335"
 494      4769ED47 
 494      230F1A8D 
 494      6B17A77D 
 494      76659FDD 
ARM GAS  /tmp/cc9RF4xZ.s 			page 38


 495 00cf EBFFEDBE 		.ascii	"\353\377\355\276`\352\016\203o\246\030\205\227\366\277"
 495      60EA0E83 
 495      6FA61885 
 495      97F6BF
 496 00de 1274F5F8 		.ascii	"\022t\365\370\366\356\262\302\027\346\344U\340"
 496      F6EEB2C2 
 496      17E6E455 
 496      E0
 497              		.text
 498              		.section	.gnu.lto_gpsGetSatellites.8abda428814c3751,"",%progbits
 499 0000 789C7550 		.ascii	"x\234uP1n\0021\020\234\261s\276S\252\264t\364\210\274"
 499      316E0231 
 499      109CB173 
 499      BE53AAB4 
 499      74F488BC 
 500 0014 068A134A 		.ascii	"\006\212\023J\021\256@.\220\"Q\"\204\221\016\011\011"
 500      11AE402E 
 500      90225122 
 500      84910E09 
 500      09
 501 0025 0E51E401 		.ascii	"\016Q\344\001I\233\"\371B>\000\210\226\312\037\340\003"
 501      499B22F9 
 501      423E0088 
 501      96CA1FE0 
 501      03
 502 0036 69C03E1F 		.ascii	"i\300>\037\024\004V\262v=\273;3\266\200\300u\324\334"
 502      140456B2 
 502      763DBB3B 
 502      33B680C0 
 502      75D4DC
 503 0049 6911485C 		.ascii	"i\021H\\\246\004\305j\003L\022A\372\002\304Xp\234\262"
 503      A604C56A 
 503      034C1241 
 503      FA02C458 
 503      709CB2
 504 005c 9CFD11BF 		.ascii	"\234\375\021\277\366x\374~\337\177,\251\224d\277\204"
 504      F678FC7E 
 504      DF7F2CA9 
 504      9464BF84 
 505 006c 23E4C6AC 		.ascii	"#\344\306\254\352@V^=\231_mS\370,\267\310\355|\035\277"
 505      EA40565E 
 505      3D995F6D 
 505      53F82CB7 
 505      C8ED7C1D 
 506 0081 F293916B 		.ascii	"\362\223\221k\017\361gf\346I\323\215\007V\217$\232l"
 506      0FF16766 
 506      E649D38D 
 506      07568F24 
 506      9A6C
 507 0093 E0CBB848 		.ascii	"\340\313\270H5E\237\354\206&\252=\355\274a\213\251]"
 507      35459FEC 
 507      8626AA3D 
 507      EDBC618B 
 507      A95D
 508 00a5 1CD43FAA 		.ascii	"\034\324?\252\207\214\341a=\312\000\232\266fT\021\216"
 508      878CE161 
 508      3DCA009A 
ARM GAS  /tmp/cc9RF4xZ.s 			page 39


 508      B6665411 
 508      8E
 509 00b6 34555576 		.ascii	"4UUv4\343\222;\220w\253\265\213F\3425r[\024\217\267"
 509      34E3923B 
 509      9077ABB5 
 509      8B46E235 
 509      725B148F 
 510 00cb ECCA5B76 		.ascii	"\354\312[v_\356\333\335ab\227\3153S\210\226\223v\277"
 510      5FEEDBDD 
 510      616297CD 
 510      33538896 
 510      9376BF
 511 00de E27555EF 		.ascii	"\342uU\357m\360\234\341\004\364\237S\201"
 511      6DF09CE1 
 511      04F49F53 
 511      81
 512              		.text
 513              		.section	.gnu.lto_gpsGetLocation.8abda428814c3751,"",%progbits
 514 0000 789C95D3 		.ascii	"x\234\225\323\277K\303@\024\007\360\367\275K\2561\366"
 514      BF4BC340 
 514      1407F0F7 
 514      BD4BAE31 
 514      F6
 515 0011 87ABE8E0 		.ascii	"\207\253\350\340.\372\227\270\010\025\354\340`3\224"
 515      2EFA97B8 
 515      0815ECE0 
 515      603394
 516 0020 0C05C1CD 		.ascii	"\014\005\301\315\"M\265\202\213PpS\020\305APk\027\273"
 516      224DB582 
 516      8B507053 
 516      10C54150 
 516      6B17BB
 517 0033 38F51FA8 		.ascii	"8\365\037\250\305\325\251\177G\227zw\211\275\252\027"
 517      C5D5A97F 
 517      47977A77 
 517      89BDAA17 
 518 0043 300FF2EE 		.ascii	"0\017\362\356\270\037\357>\004\036#F\277cY~[\016\221"
 518      B81FEF3E 
 518      041E2346 
 518      BF63597E 
 518      5B0E91
 519 0056 27477002 		.ascii	"'Gp\002\353\274\023\265<\006\250\011\201\232\014\315"
 519      EBBC13B5 
 519      3C06A809 
 519      819A0CCD 
 520 0066 0AF4D91E 		.ascii	"\012\364\331\036\033\214\247\323\227\267\317\333.D\211"
 520      1B8CA7D3 
 520      97B7CFDB 
 520      2E4489
 521 0075 A30E7228 		.ascii	"\243\016r(\004\011\225<\231\340\313\304\3622qy\334\245"
 521      0409953C 
 521      99E0CBC4 
 521      F2327179 
 521      DCA5
 522 0087 761475D6 		.ascii	"v\024u\326\210\002}\275,\263\252\271\003\246F>\242\366"
 522      88027DBD 
 522      2CB3AAB9 
ARM GAS  /tmp/cc9RF4xZ.s 			page 40


 522      03A6463E 
 522      A2F6
 523 0099 F86698DB 		.ascii	"\370f\230\333\307\035\\\271\335\240It\036-\205p\002"
 523      C71D5CB9 
 523      DDA04974 
 523      1E2D8570 
 523      02
 524 00aa C4CFA915 		.ascii	"\304\317\251\025/\204\273N\217\221\214J\010Q\007\252"
 524      2F84BB4E 
 524      8F918C4A 
 524      085107AA 
 525 00ba F12625F7 		.ascii	"\361&%\367B\344\210\206t29\235\276\256\306k58\015:\222"
 525      42E48886 
 525      7432399D 
 525      BEAEC66B 
 525      35380D3A 
 526 00cf A4E4E276 		.ascii	"\244\344\342v\010\357\232\256\020b\241\006\276+G_W\250"
 526      08EF9AAE 
 526      1062A106 
 526      BE2B475F 
 526      57A8
 527 00e1 26EFE818 		.ascii	"&\357\350\030\321\331`\345\217e1@\374\313tM\265\030"
 527      D1D960E5 
 527      8F653140 
 527      FCCB744D 
 527      B518
 528 00f3 1D9BC27D 		.ascii	"\035\233\302}Y\312K\346\227\252\274\346\261\037\305"
 528      59CA4BE6 
 528      97AABCE6 
 528      B11FC5
 529 0102 67CC7CC2 		.ascii	"g\314|\302\274\357\317\230\342\237L\236\201)\2622\271"
 529      BCEFCF98 
 529      E29F4C9E 
 529      8129B232 
 529      B9
 530 0113 9DF96098 		.ascii	"\235\371`\230\236f\3020\013v\246\223\201\351\031&\346"
 530      9E66C230 
 530      0B76A693 
 530      81E91926 
 530      E6
 531 0124 988554A6 		.ascii	"\230\205T\246cg>\031\246\257\231\3140\213v\246\233\201"
 531      63673E19 
 531      A6AF99CC 
 531      308B76A6 
 531      9B81
 532 0136 E91B269B 		.ascii	"\351\033&\233c\026S\231\256\235\3313\314\274fr\303,"
 532      63165399 
 532      AE9DD933 
 532      CCBC6672 
 532      C32C
 533 0148 D9992203 		.ascii	"\331\231\"\0033o\230|\216YJe\212?L\325\215\317\027\276"
 533      336F987C 
 533      8E594A65 
 533      8A3F4CD5 
 533      8DCF17BE 
 534 015c AD1BB9AD 		.ascii	"\255\033\271\255\033\367\322\273\361\203Z\343\356\306"
 534      1BF7D2BB 
ARM GAS  /tmp/cc9RF4xZ.s 			page 41


 534      F1835AE3 
 534      EEC6
 535 016a 77A538CA 		.ascii	"w\2458\312\262\035d\323\253\367E\355\340p3\240/F\242"
 535      B21D64D3 
 535      ABF745ED 
 535      E07033A0 
 535      2F46A2
 536 017d F638     		.ascii	"\3668"
 537              		.text
 538              		.section	.gnu.lto_.symbol_nodes.8abda428814c3751,"",%progbits
 539 0000 789C4DD0 		.ascii	"x\234M\320\313N\024A\024\006\340S\177u\013\203L\323"
 539      CB4E1441 
 539      1406E053 
 539      7F750B83 
 539      4CD3
 540 0012 73E73217 		.ascii	"s\3472\027\300\230\2600\341y\\\362$\007\3548\003^\307"
 540      C098B030 
 540      E1795CF2 
 540      2407EC38 
 540      035EC7
 541 0025 2B680071 		.ascii	"+h\000q\232\005.Y\230\300\226\211,YJ\202\011\201\314"
 541      9A052E59 
 541      98C09689 
 541      2C594A82 
 541      0981CC
 542 0038 CAC45718 		.ascii	"\312\304W\030\265\252\373\204\252\336\374\371\376>\247"
 542      B5AAFB84 
 542      AADEFCF9 
 542      FE3EA7
 543 0047 2BD52050 		.ascii	"+\325 P_S\376\340)\230\250\177A\304\274\273\265\206"
 543      5F53FEE0 
 543      2998A87F 
 543      41C4BCBB 
 543      B586
 544 0059 2E5879DC 		.ascii	".Xy\334\004\303\343\026X{\374\2418\020\356m\256\341"
 544      04C3E316 
 544      587BFCA1 
 544      3810EE6D 
 544      AEE1
 545 006b 081CDE51 		.ascii	"\010\034\336Q\205\377\024\002\326\341\006(dB\017|\317"
 545      85FF1402 
 545      D6E10628 
 545      64420F7C 
 545      CF
 546 007c 5BFD069E 		.ascii	"[\375\006\236p\263x\016\236\024\356\233\325gPf\025/"
 546      70B3780E 
 546      9E14EE9B 
 546      D5675066 
 546      152F
 547 008e C005D7E2 		.ascii	"\300\005\327\342%x\312\343+\360}\217\257\301\323\036"
 547      2578CAE3 
 547      2BF07D8F 
 547      AFC1D31E 
 548 009e FBE0A2C7 		.ascii	"\373\340\242\3077\340\310\343[\360\214\307w\340\330"
 548      37E0C8E3 
 548      5BF08CC7 
 548      77E0D8
ARM GAS  /tmp/cc9RF4xZ.s 			page 42


 549 00ad E37B70C9 		.ascii	"\343{p\311\343\007p\331\343Gp\305Q}\002Ws\256\257+\365"
 549      E30770D9 
 549      E34770C5 
 549      517D0257 
 549      73AEAF2B 
 550 00c2 195C73DA 		.ascii	"\031\\s\332\003\327\235v\300\015\247m\360\254\323.x"
 550      03D79D76 
 550      C00DA76D 
 550      F0ACD32E 
 550      78
 551 00d3 CE691F3C 		.ascii	"\316i\037<\357\364\005\274\3404\0007\235\276\202[N\007"
 551      EFF405BC 
 551      E0340037 
 551      9DBE825B 
 551      4E07
 552 00e5 E0B6D321 		.ascii	"\340\266\323!\270\343\224\202\027\357\244\203YJ\306"
 552      B8E39482 
 552      17EFA483 
 552      594AC6
 553 00f4 0D1D3428 		.ascii	"\015\0354(\275\375\253t\030\320Y\367OGO\2064\270y\250"
 553      BDFDAB74 
 553      18D059F7 
 553      4F474F86 
 553      34B879A8 
 554 0108 0B7394F6 		.ascii	"\013s\224\366`ct\036e\352>\312\364{&\323\361j\246\243"
 554      6063741E 
 554      65EA3ECA 
 554      F47B26D3 
 554      F16AA6A3 
 555 011c 0B95F1C6 		.ascii	"\013\225\361\306|aj\201\206'c\223\363\224\234\232\234"
 555      7C616A81 
 555      86276393 
 555      F3949C9A 
 555      9C
 556 012d 6EE67DD1 		.ascii	"n\346}\321\314\035\324u\261@\203\357ZG2\035\265(\375"
 556      CC1DD475 
 556      B14083EF 
 556      5A47321D 
 556      B528FD
 557 0140 395EB199 		.ascii	"9^\261\231\\\332l\323\3502\367\360*w\372K\336_\3479"
 557      5CDA6CD3 
 557      E832F7F0 
 557      2A77FA4B 
 557      DE5FE739 
 558 0154 B2192F51 		.ascii	"\262\031/Qb\367\343EJO\256\037\353\270cN\265Y\244\263"
 558      62F7E345 
 558      4A4FAE1F 
 558      EBB8634E 
 558      B559A4B3 
 559 0168 539B113D 		.ascii	"S\233\021=9\037\267u\334\244\244g\356Sz\220\317\227"
 559      391FB775 
 559      DCA4A467 
 559      EE537A90 
 559      CF97
 560 017a 5AF9B9A5 		.ascii	"Z\371\271\245e\032\332,K_\226\276,}E\372\212\364\025"
 560      651ADA2C 
 560      4B5F96BE 
ARM GAS  /tmp/cc9RF4xZ.s 			page 43


 560      2C7D45FA 
 560      8AF415
 561 018d E9ABD257 		.ascii	"\351\253\322W\245\257J_\223\276&}M\372\272\364\365\226"
 561      A5AF4A5F 
 561      93BE267D 
 561      4DFABAF4 
 561      F596
 562 019f D8DCE356 		.ascii	"\330\334\343V,\231\330\377m\235\3452\215L\322\177:\335"
 562      2C99D8FF 
 562      6D9DE532 
 562      8D4CD27F 
 562      3ADD
 563 01b1 1B11     		.ascii	"\033\021"
 564              		.text
 565              		.section	.gnu.lto_.refs.8abda428814c3751,"",%progbits
 566 0000 789C358A 		.ascii	"x\2345\212K\026\300 \010\003c\024\360\325M\3777\355"
 566      4B16C020 
 566      08036314 
 566      F0D54DFF 
 566      37ED
 567 0012 FD5B0A92 		.ascii	"\375[\012\222\305L^ \210\007q\"P(\265(\255\365\351m"
 567      C54C5E20 
 567      88077122 
 567      5028B528 
 567      ADF5E96D 
 568 0026 F9BAFB90 		.ascii	"\371\272\373\220A\260\220\354\254\266\322<\376\343k"
 568      41B090EC 
 568      ACB6D23C 
 568      FEE36B
 569 0035 DDF85BDD 		.ascii	"\335\370[\335\223G\362L^A\273\2033x\001\266X\002\260"
 569      9347F24C 
 569      5E41BB83 
 569      337801B6 
 569      5802B0
 570              		.text
 571              		.section	.gnu.lto_.decls.8abda428814c3751,"",%progbits
 572 0000 789CBD5D 		.ascii	"x\234\275]\011x\024E\276\357cf\222\220\010\001\305\315"
 572      09781445 
 572      BEEF6366 
 572      92900801 
 572      C5CD
 573 0012 BEB73EE3 		.ascii	"\276\267>\343>\327\317\317}\032.\025\327U\301\200\300"
 573      3ED7CFCF 
 573      7D1A2E15 
 573      D755C180 
 573      C0
 574 0023 5BAE4D82 		.ascii	"[\256M\202\353\356\267\353\320$\003d\311\345\314\004"
 574      EBEEB7EB 
 574      D0240364 
 574      C9E5CC04 
 575 0033 E2BEEF7B 		.ascii	"\342\276\357{6W\024D\011\341\024\011\204C\001\017\204"
 575      36571444 
 575      09E11409 
 575      8443010F 
 575      84
 576 0044 20875C0E 		.ascii	" \207\\\016\012!\200\220D\224\310\225D\344\024|\006"
 576      0A218090 
ARM GAS  /tmp/cc9RF4xZ.s 			page 44


 576      4494C895 
 576      44E4147C 
 576      06
 577 0055 109043F2 		.ascii	"\020\220C\362\376u\364LwMuOw\326\367\346\243j\252\253"
 577      FE75F44C 
 577      774D754F 
 577      77D6F7E6 
 577      A36AAAAB 
 578 0069 AB7EF5BF 		.ascii	"\253~\365\277\352_\347\004I\220\204`\202 \264\302\347"
 578      EA5FE704 
 578      49908460 
 578      8220B4C2 
 578      E7
 579 007a F67C41F0 		.ascii	"\366|A\360'\012BgA\020\236\204\220\002a1\204$\010E\242"
 579      270A4267 
 579      41109E84 
 579      90026131 
 579      84240845 
 580 008f 20BC0021 		.ascii	" \274\000!\000a,\204\347!x!\244J\202p\017\204\177\207"
 580      00612C84 
 580      E7217821 
 580      A44A8270 
 580      0F847F87 
 581 00a3 702F84DF 		.ascii	"p/\204\337AX\011\345\307\300\273\307!\235\006\341\367"
 581      415809E5 
 581      C7C0BBC7 
 581      219D06E1 
 581      F7
 582 00b4 101E86F0 		.ascii	"\020\036\206\360\004\204\337B\220\341\275\012\357\341"
 582      0484DF42 
 582      90E1BD0A 
 582      EFE1
 583 00c2 9F108FDA 		.ascii	"\237\020\217\332\202\274!\020V@\372!\370\356\006\241"
 583      82BC2110 
 583      5640FA21 
 583      F8EE06A1 
 584 00d2 07840720 		.ascii	"\007\204\007 \364D\370\220\377G\370~\026\302_ <\017"
 584      F444F890 
 584      FF47F87E 
 584      16C25F20 
 584      3C0F
 585 00e4 2107C218 		.ascii	"!\007\302\030\010\205\020\212!\314\202P\011\341]\010"
 585      0885108A 
 585      21CC8250 
 585      09E15D08 
 586 00f4 6B206C86 		.ascii	"k l\206\260\035B\015\204Z\010\007 4@8\002\241\011\302"
 586      B01D420D 
 586      845A0807 
 586      20344038 
 586      02A109C2 
 587 0108 49086720 		.ascii	"I\010g \234\207p\035B+\242\013\010sC\350\010\341\027"
 587      9C87701D 
 587      422BA20B 
 587      087343E8 
 587      08E117
 588 011b 107E0521 		.ascii	"\020~\005!\025\302\257!\334+\023\272\357\203\350~\010"
 588      15C2AF21 
ARM GAS  /tmp/cc9RF4xZ.s 			page 45


 588      DC2B13BA 
 588      EF83E87E 
 588      08
 589 012c 5DD083EE 		.ascii	"]\320\203\356\203\350\323>\"\363\254}\236e\312<\313"
 589      83E8D33E 
 589      22F3AC7D 
 589      9E65CA3C 
 589      CB
 590 013d 29F317A6 		.ascii	")\363\027\246\314_8e\236g\312<\317)\203\344s\033|{\004"
 590      CC5F3865 
 590      9E67CA3C 
 590      CF2983E4 
 590      731B7C7B 
 591 0152 A2936E40 		.ascii	"\242\223n@o5\244\273\313D7HGK\250~\037\206\274\263P"
 591      6F35A4BB 
 591      CB443748 
 591      474BA87E 
 591      1F86BCB3 
 592 0167 E611F83E 		.ascii	"\346\021\370>\005\337\010\016\351\342\357P\316E\261"
 592      05DF080E 
 592      E9E2EF50 
 592      CE45B1
 593 0176 1E9589BC 		.ascii	"\036\225\211\274\220\334P\233\243\2316\221.:\301\367"
 593      90DC509B 
 593      A3993691 
 593      2E3AC1F7 
 594 0186 6578D95E 		.ascii	"ex\331^ 6\203t<\035\362\347\320:\010\353W\220X\006\317"
 594      20368374 
 594      3C1DF2E7 
 594      D03A08EB 
 594      57905806 
 595 019b 4B213C0E 		.ascii	"K!<\016\230\375\340\373\031\010\235!\377\3672\241\307"
 595      98FDE0FB 
 595      19089D21 
 595      FFF732A1 
 595      C7
 596 01ac 476DE40F 		.ascii	"Gm\344\017\360=\010B_\211\324Em<\001/\322eB\023\"\001"
 596      F03D0842 
 596      5F89D445 
 596      6D3C012F 
 596      D2654213 
 597 01c2 E9E13E46 		.ascii	"\351\341>F\027\310&:\010\244m\215\226\316b\204\006T"
 597      17C8263A 
 597      08A46D8D 
 597      96CE6284 
 597      0654
 598 01d4 BC1F4479 		.ascii	"\274\037Dy\2229=\274\366\013%#\015\250\314\013\360\354"
 598      92393DBC 
 598      F60B2523 
 598      0DA8CC0B 
 598      F0EC
 599 01e6 97A2ED01 		.ascii	"\227\242\355\001\331d;\206\006\2041\016\236\373\313"
 599      D9643B86 
 599      0684310E 
 599      9EFBCB
 600 01f5 C6FEF41D 		.ascii	"\306\376\364\035\225\245D\353\235\247\362\232\301\310"
 600      95A544EB 
ARM GAS  /tmp/cc9RF4xZ.s 			page 46


 600      9DA7F29A 
 600      C1C8
 601 0203 18D93874 		.ascii	"\030\3318tO,OUG\367\0009\322\037\021Q\377)\223>z\203"
 601      4F2C4F55 
 601      47F70039 
 601      D21F1151 
 601      FF29933E 
 602 0219 CA285D22 		.ascii	"\312(]\"}L\246\030\255\324\346\321\363BJ\373\375\014"
 602      7D4CA618 
 602      ADD4E6D1 
 602      F3424AFB 
 602      FD0C
 603 022b FDA82F79 		.ascii	"\375\250/y\004c;?A\372\277\305\210>\323)~%\355;(o\005"
 603      04633B3F 
 603      41FABFC5 
 603      883ED329 
 603      7E25ED3B 
 604 0242 43F3BB94 		.ascii	"C\363\273\224\377qT\307\235\250MM\247\030H.H\036\232"
 604      FF7154C7 
 604      9DA84D4D 
 604      A718482E 
 604      481E9A
 605 0255 1FD1E4F1 		.ascii	"\037\321\344\361\007\304\003\305\222)\316y\332\327Q"
 605      07C403C5 
 605      9229CE79 
 605      DAD751
 606 0264 BD0F9876 		.ascii	"\275\017\230vP\237O\245\366\245\311{\240Lh\325\267\211"
 606      509F4FA5 
 606      F6A5C97B 
 606      A04C68D5 
 606      B789
 607 0276 68407E08 		.ascii	"h@~\010\371\246T\352\233x\372@m \037x\273H|\026\362"
 607      F9A654EA 
 607      9B78FA40 
 607      6D201F78 
 607      BB487C16 
 608 028b 6DC8C70D 		.ascii	"m\310\307\015\206\262C xd\342\333\206\302w'\231\320"
 608      86B24320 
 608      7864E2DB 
 608      86C27727 
 608      99D0
 609 029d 8E7C9C5B 		.ascii	"\216|\234[ ~K\363c\310\177\365\240\366\263\206\362\240"
 609      207E4BF3 
 609      63C87FF5 
 609      A0F6B386 
 609      F2A0
 610 02af F918641F 		.ascii	"\371\030d\037\353\341y#\204?\302s\006\204L\010Y\020"
 610      EBE17923 
 610      843FC273 
 610      06844C08 
 610      5910
 611 02c1 86417816 		.ascii	"\206Ax\026\302\237 <\307\350f3\325\215\236\327\316b"
 611      C29F203C 
 611      C7E86633 
 611      D58D9ED7 
 611      CE62
 612 02d3 44A6E823 		.ascii	"D\246\350#\322r\350\373cFV\310/\"\237\332UW\377\317"
ARM GAS  /tmp/cc9RF4xZ.s 			page 47


 612      D272E8FB 
 612      634656C8 
 612      2F229FDA 
 612      5557FFCF 
 613 02e7 32A9FF0F 		.ascii	"2\251\377\017]_E\272\377\253l\364\351)\360\3747\010"
 613      5D5F45BA 
 613      FFAB6CF4 
 613      E929F0FC 
 613      3708
 614 02f9 77C9E67D 		.ascii	"w\311\346}\347yH\277'\021\235{\345\310\330P\005a8<\217"
 614      E77948BF 
 614      27119D7B 
 614      E5C8D850 
 614      0561383C 
 615 030e 9423B684 		.ascii	"\224#\266\204\370@\276F\353gh\034\310\221\211m%QZGQ"
 615      F840BE46 
 615      EB67681C 
 615      C891896D 
 615      25515A47 
 616 0323 3F5C447D 		.ascii	"?\\D}\362X\352\237Q\037\324\374\275f\203HT;%\342\023"
 616      F258EA9F 
 616      511FD4FC 
 616      BD668348 
 616      543B25E2 
 617 0338 D83E89C6 		.ascii	"\330>\211\306\002\030\352\242\372\013\322\2516V!:=\024"
 617      0218EAA2 
 617      FA0BD2A9 
 617      3656213A 
 617      3D14
 618 034a 471B971E 		.ascii	"G\033\227\036\242\372C\365\357\245c\004\032\023\220"
 618      A2FA43F5 
 618      EFA56304 
 618      1A1390
 619 0359 583FE3F4 		.ascii	"X?\343\364\375\3326\266\323\215\266S\313i\247\236\323"
 619      FDDA36B6 
 619      D38DB653 
 619      CB69A79E 
 619      D3
 620 036a CE018B76 		.ascii	"\316\001\213v\2641\227\327\216f\217\0078\355|\311i\247"
 620      B43197D7 
 620      8E668F07 
 620      38ED7CC9 
 620      69A7
 621 037c C1A21D6D 		.ascii	"\301\242\035mL\347\265\363\000m\247\201\323\316!N;G"
 621      4CE7B5F3 
 621      006DA781 
 621      D3CE214E 
 621      3B47
 622 038e 2CDAD1FC 		.ascii	",\332\321\374\003\257\235\236\264\235#\234v\216q\332"
 622      03AF9D9E 
 622      B49D239C 
 622      768E71DA 
 623 039e 41E37FB2 		.ascii	"A\343\177\262@t\201\344\364\004\365\005l\273\232\236"
 623      407481E4 
 623      F404F505 
 623      6CBB9A9E 
 624 03ae B47E8FDA 		.ascii	"\264~\217\332}\230\362\213h\211\2434<\244\323\237~\336"
ARM GAS  /tmp/cc9RF4xZ.s 			page 48


 624      7D98F28B 
 624      6889A334 
 624      3CA4D39F 
 624      7EDE
 625 03c0 E2A26DB1 		.ascii	"\342\242m\2614}\303\241)Q\230\252\252\023\324\312R\265"
 625      347DC3A1 
 625      295198AA 
 625      AA13D4CA 
 625      52B5
 626 03d2 7F4DFB4E 		.ascii	"\177M\373N\302\014\025>\2515\320;\237\023\025\261}\202"
 626      C20C153E 
 626      A935D03B 
 626      9F1315B1 
 626      7D82
 627 03e4 301C2792 		.ascii	"0\034'\222\022p\247\370\215\260LU\313\232O\236NQ]\212"
 627      1270A7F8 
 627      8DB04C55 
 627      CB9A4F9E 
 627      4E515D8A 
 628 03f8 B844EC04 		.ascii	"\270D\354\004\260\217\212\302\003\302J\250U\246\252"
 628      B08F8AC2 
 628      03C24AA8 
 628      55A6AA
 629 0407 9FDC270A 		.ascii	"\237\334'\012\321\237X\250\202\240\210o\003\226\"\276"
 629      D19F58A8 
 629      82A0886F 
 629      039622BE 
 630 0417 253E40DA 		.ascii	"%>@\332PC\233\253\223P\033(_\240o8\237{\204JTxk\365"
 630      50439BAB 
 630      93501B28 
 630      5FA06F38 
 630      9F7B844A 
 631 042f 0251ADFC 		.ascii	"\002Q\255\374D\264I\377\201\352-\262\252\306+\342J\314"
 631      44B449FF 
 631      81EA2DB2 
 631      AAC62BE2 
 631      4ACC
 632 0441 C1645134 		.ascii	"\301dQ4\264\020\013E\022f\340\032\357\2614\037Y,\246"
 632      B4100B45 
 632      1266E01A 
 632      EFB1341F 
 632      592CA6
 633 0454 92ECD824 		.ascii	"\222\354\330$\037;\231\240\226'q\232\352\2455\025\037"
 633      1F3B99A0 
 633      9627719A 
 633      EAA53515 
 633      1F
 634 0465 21F8EAD4 		.ascii	"!\370\352\324\3753\304I\252\012/Vc\222\277\340\223\\"
 634      FD33C449 
 634      AA0A2F56 
 634      6392BFE0 
 634      935C
 635 0477 D9CB0C48 		.ascii	"\331\313\014H\022N\340*k\031\232\233\217\324~1^\034"
 635      124EE02A 
 635      6B199A9B 
 635      8FD47E31 
 635      5E1C
ARM GAS  /tmp/cc9RF4xZ.s 			page 49


 636 0489 8FA1D7DA 		.ascii	"\217\241\327\332 |B\350\313\322\212_\"Y\3072\234J\227"
 636      207C42E8 
 636      CBD28A5F 
 636      2259C732 
 636      9C4A97
 637 049c D67E9F08 		.ascii	"\326~\237\010#W\246\356\020\261\3447b6\336\221bJ\336"
 637      2357A6EE 
 637      10B1E437 
 637      6236DE91 
 637      624ADE
 638 04af 0823096B 		.ascii	"\010#\011kq\225\315QlLo\324\330\330l\213\215\033\224"
 638      7195CD51 
 638      6C4C6FD4 
 638      D8D86C8B 
 638      8D1B94
 639 04c2 0D45DC00 		.ascii	"\015E\334\000\254H\302\3260.m8Uk\027\365&\232$\037Z"
 639      AC48C2D6 
 639      302E6D38 
 639      556B17F5 
 639      269A241F 
 640 04d7 C08877AB 		.ascii	"\300\210w\253:\251L\321\300v8\006K5\200\315\334\265"
 640      3AA94CD1 
 640      C0763806 
 640      4B3580CD 
 640      DCB5
 641 04e9 00139720 		.ascii	"\000\023\227 \274\022\221\261\300\005\243\202\335pp"
 641      BC1291B1 
 641      C005A382 
 641      DD7070
 642 04f8 7FBD3811 		.ascii	"\177\2758\021\363\377)T\223\204Y\262Q\264\366\241\256"
 642      F3FF2954 
 642      938459B2 
 642      51B4F6A1 
 642      AE
 643 0509 CDDFB95D 		.ascii	"\315\337\271]\234\200\241\2521\324\3666C\255[\270\345"
 643      9C80A1AA 
 643      31D4F636 
 643      43AD5BB8 
 643      E5
 644 051a 31ACEEDD 		.ascii	"1\254\356\335\030\250\225\001R\304\270\260\030\303\317"
 644      18A89501 
 644      52C4B8B0 
 644      18C3CF
 645 0529 5A018486 		.ascii	"Z\001\204\206_\323\004Z(v\020\376\217\213K\302T\227"
 645      5FD3045A 
 645      287610FE 
 645      8F8B4BC2 
 645      5497
 646 053b 0DD5C59B 		.ascii	"\015\325\305\233\331\201\332|x\372I\361\01554I\326\272"
 646      D981DA7C 
 646      78FA49F1 
 646      0D353449 
 646      D6BA
 647 054d A4C74C46 		.ascii	"\244\307LF\340Fp[\373Y[\276t\274\356\301y\252\232L^"
 647      E046705B 
 647      FB595BBE 
 647      74BCEEC1 
ARM GAS  /tmp/cc9RF4xZ.s 			page 50


 647      79AA9A4C 
 648 0562 C536E50D 		.ascii	"\3056\345\015{\347\332\353\221\036\255\371\034\334\374"
 648      7BE7DAEB 
 648      911EADF9 
 648      1CDCFC
 649 0571 01DCFC01 		.ascii	"\001\334\374\001\266\371\326Sg\236$\315\037\260\325"
 649      B6F9D653 
 649      679E24CD 
 649      1FB0D5
 650 0580 7C53EDAC 		.ascii	"|S\355\254\350\346\025\361\311\316V\226q\351x\313\375"
 650      E8E615F1 
 650      C9CE5696 
 650      71E978CB 
 650      FD
 651 0591 8B70230D 		.ascii	"\213p#\015\270\307T\270Y\323x*\321\250<x\326\025\220"
 651      B8C754B8 
 651      59D3782A 
 651      D1A83C78 
 651      D61590
 652 05a4 84B7DD1A 		.ascii	"\204\267\335\032\365m\352\260\300f\350\251\225U\252"
 652      F56DEAB0 
 652      C066E8A9 
 652      9555AA
 653 05b3 3AC5A3D1 		.ascii	":\305\243\321\360\216c\304T\203 .\326b\027@\300V\331"
 653      F08E63C4 
 653      5483202E 
 653      D6621740 
 653      C056D9
 654 05c6 0133B5A3 		.ascii	"\0013\265\243\011\241\037\364`U\216\301\214\224]\321"
 654      09A11FF4 
 654      60558EC1 
 654      8C945DD1 
 655 05d6 83ADB703 		.ascii	"\203\255\267\003\226lN\331\217z\260M\216\301\214\224"
 655      966C4ED9 
 655      8F7AB04D 
 655      8EC18C94 
 656 05e6 5DD7836D 		.ascii	"]\327\203m\263\003\226bN\331M=\330'\216\301\214\224"
 656      B3039662 
 656      4ED94D3D 
 656      D8278EC1 
 656      8C94
 657 05f8 DDD28355 		.ascii	"\335\322\203U\333\001K5\247\254\354s\035\330\036\307"
 657      DB014B35 
 657      A7ACEC73 
 657      1DD81EC7 
 658 0608 6046CACA 		.ascii	"`F\312\312\365`\373\355\200\335oN\331,=\330\347\216"
 658      F560FBED 
 658      80DD6F4E 
 658      D92C3DD8 
 658      E78E
 659 061a C18C94CD 		.ascii	"\301\214\224\315\321\203\035\264\003\326\305\234\262"
 659      D1831DB4 
 659      03D6C59C 
 659      B2
 660 0627 797AB0C3 		.ascii	"yz\260\303\216\301\214\224\315\327\2035\332\001\353"
 660      8EC18C94 
 660      CDD78335 
ARM GAS  /tmp/cc9RF4xZ.s 			page 51


 660      DA01EB
 661 0636 694ED902 		.ascii	"iN\331\002=\330q\307`F\312V\353\301N\331\001\353eNY"
 661      3DD871C7 
 661      6046CA56 
 661      EBC14ED9 
 661      01EB654E 
 662 064b 951EECAC 		.ascii	"\225\036\354\254c0#e\037\352\301\316\333\001\353oN\331"
 662      63302365 
 662      1FEAC1CE 
 662      DB01EB6F 
 662      4ED9
 663 065d 7A3DD8F7 		.ascii	"z=\330\367\216\301\214\224m\324\203]\264\0036\324\234"
 663      8EC18C94 
 663      6DD4835D 
 663      B40336D4 
 663      9C
 664 066e B24D7AB0 		.ascii	"\262Mz\260\313\216\301\214\224m\321\203\375h\007\354"
 664      CB8EC18C 
 664      946DD183 
 664      FD6807EC 
 665 067e 3973CAB6 		.ascii	"9s\312\266\351\301n:\0063RV\247\007S=6\300\206s(\013"
 665      E9C16E3A 
 665      06335256 
 665      A707533D 
 665      36C08673 
 666 0694 7F78F5D0 		.ascii	"\177x\365\3200\375\271\030\036\267%a\242G\233\3408\034"
 666      30FDB918 
 666      1EB72561 
 666      A2479BE0 
 666      381C
 667 06a6 A38508C6 		.ascii	"\243\205\010\306\313\036\247\0232\003\337\26028\265"
 667      CB1EA713 
 667      3203DFB0 
 667      3238B5
 668 06b5 589C3951 		.ascii	"X\2349Q\255\351\242\315\316_\263\203h1\000\316\337\245"
 668      ADE9A2CD 
 668      CE5FB383 
 668      683100CE 
 668      DFA5
 669 06c7 9BEACF76 		.ascii	"\233\352\317v\014\306\2302\0023L\235\350\364\272\371"
 669      0CC69832 
 669      02334C9D 
 669      E8F4BAF9 
 670 06d7 AD50CABC 		.ascii	"\255P\312\274\310\344-^\303B+l2S\203\005\267\024.\254"
 670      C8E42D5E 
 670      C3422B6C 
 670      32538305 
 670      B7142EAC 
 671 06eb A6A4F0CB 		.ascii	"\246\244\360\313*\342,\3517\020\317\226\022\302T\220"
 671      2AE22CE9 
 671      3710CF96 
 671      12C25490 
 672 06fb B4966A15 		.ascii	"\264\226j\025\221\234+<\274\265;\006\260\256jf\011\345"
 672      919C2B3C 
 672      BCB53B06 
 672      B0AE6A66 
 672      09E5
ARM GAS  /tmp/cc9RF4xZ.s 			page 52


 673 070d 92CE1296 		.ascii	"\222\316\022\226\330\021\223\305\320\336\264k\301/\324"
 673      D81193C5 
 673      D0DEB46B 
 673      C12FD4
 674 071c E690A8E3 		.ascii	"\346\220\250\343\327R8\260\"\232\263O[\021\275!\241"
 674      D75238B0 
 674      229AB34F 
 674      5B11BD21 
 674      A1
 675 072d D5C74A0F 		.ascii	"\325\307J\017w\031c\003\352\332\374\367\177\213\227"
 675      77196303 
 675      EADAFCF7 
 675      7F8B97
 676 073c 310B3050 		.ascii	"1\0130PU\233\201\326-\\\330\023\003-\302@\233\030 E"
 676      559B81D6 
 676      2D5CD813 
 676      032DC240 
 676      9B182045 
 677 0750 1499F590 		.ascii	"\024\231\365\220h\\\261\210\011\221D\253Q]?kYX\301\262"
 677      685CB188 
 677      099144AB 
 677      515D3F6B 
 677      5958C1B2 
 678 0764 FA32B013 		.ascii	"\3722\260\023s\366\324|\244\366\247\031\342\245\011"
 678      73F6D47C 
 678      A4F6A719 
 678      E2A509
 679 0773 EABC2E0E 		.ascii	"\352\274.\0164v\3603Mc\313\260|>\213\222\317\002\311"
 679      3476F033 
 679      4D63CBB0 
 679      7C3E8B92 
 679      CF02C9
 680 0786 998024E1 		.ascii	"\231\200$\341\013\307\214\334odd\372\216r\347\214\204"
 680      0BC78CDC 
 680      6F6464FA 
 680      8E72E78C 
 680      84
 681 0797 4D6F2566 		.ascii	"Mo%f\344\350\317\300\310\011\307\214t\3211\202vH.\227"
 681      E4E8CFC0 
 681      C809C78C 
 681      74D13182 
 681      76482E97 
 682 07ab 133F78BB 		.ascii	"\023?x\273Pn\2752E\364\254\222n7nn\035\332\2036\267"
 682      506EBD32 
 682      45F4AC92 
 682      6E376E6E 
 682      1DDA8336 
 683 07c0 5076ECCD 		.ascii	"Pv\354\315\255\253{t\373\027\252\255\375\2139\265"
 683      ADAB7B74 
 683      FB17AAAD 
 683      FD8B39B5 
 684 07d0 9AC8D660 		.ascii	"\232\310\326`\221\235\343u2[P\327\016\357XC\367/>\304"
 684      919DE375 
 684      325B50D7 
 684      0EEF5843 
 684      F72F3EC4 
 685 07e4 5017DA0C 		.ascii	"P\027\332\014\265\256q\003\351\257\0330\320\265(5z\030"
ARM GAS  /tmp/cc9RF4xZ.s 			page 53


 685      B5AE7103 
 685      E9AF1B30 
 685      D0B52835 
 685      7A18
 686 07f6 2D7A8C5A 		.ascii	"-z\214Z\204G\324\322\217hwA|\211\346\240\2078\341\377"
 686      8447D4D2 
 686      8F687741 
 686      7C89E6A0 
 686      8738E1FF 
 687 080a BD1E8CC6 		.ascii	"\275\036\214\306q\"U\254\303\3218lA'\313\265\221\224"
 687      712255AC 
 687      C3D1386C 
 687      4127CBB5 
 687      9194
 688 081c 2869EA3F 		.ascii	"(i\352?\2058!\264\366Um\023\356)4\226\316\374'\341\352"
 688      853821B4 
 688      F6556D13 
 688      EE293496 
 688      CEFC27E1 
 689 0831 F73ADE36 		.ascii	"\367:\3366\233\363\205fv!\314\321\3748V\305\325\254"
 689      9BF38566 
 689      7621CCD1 
 689      FC3856C5 
 689      D5AC
 690 0843 4FB6B38B 		.ascii	"O\266\263\213\364v[9\011\177$\341\3758\033Cf\252\205"
 690      F4765B39 
 690      097F24E1 
 690      FD381B43 
 690      66AA85
 691 0856 BA6AAF52 		.ascii	"\272j\257Ru\305\334\212\322\266\231\367T\217\247\333"
 691      75C5DC8A 
 691      D2B699F7 
 691      548FA7DB 
 692 0866 CCD512DA 		.ascii	"\314\325\022\332\237]\303H\303\306\236V\010W\331-E\355"
 692      9F5DC348 
 692      C3C69E56 
 692      0857D92D 
 692      45ED
 693 0878 CFEED3F6 		.ascii	"\317\356\323\366g\321;\033\233Z\206\375YE\374X\224("
 693      67D13B1B 
 693      9B5A86FD 
 693      5945FC58 
 693      9428
 694 088a 6E5B256A 		.ascii	"n[%jPb\204@E\334\213\347G\237I\367\350\245_\347X\372"
 694      50628440 
 694      45DC8BE7 
 694      479F49F7 
 694      E8A55FE7 
 695 08a0 A97AE987 		.ascii	"\251z\351\207n\354%G\022\332\216\375a\026\257\227~\356"
 695      6EEC2547 
 695      12DA8EFD 
 695      6116AF97 
 695      7EEE
 696 08b2 4A93A6EB 		.ascii	"J\223\246\353t5T\276\037O:I\277;i\2078\213\245\365B"
 696      743554BE 
 696      1F4F3A49 
 696      BF3B6987 
ARM GAS  /tmp/cc9RF4xZ.s 			page 54


 696      388BA5F5 
 697 08c7 02464CFE 		.ascii	"\002FL\376\234c\260T\003\330\326\327\355\035\010\250"
 697      9C63B054 
 697      03D8D6D7 
 697      ED1D08A8 
 698 08d7 A27E3A2C 		.ascii	"\242~:,\011Wp\273\007YK\271\326Z\3672\265\224\2036,"
 698      095770BB 
 698      07594BB9 
 698      D65AF732 
 698      B5948336 
 699 08ec 05061B7C 		.ascii	"\005\006\033|\222\242\311yu\274\206j!g\236\235h\347"
 699      92A2C979 
 699      75BC866A 
 699      21679E9D 
 699      68E7
 700 08fe 0267778B 		.ascii	"\002gw\213\030\216L\3577\262p1W\037F\270[\276\232.\316"
 700      188E4CEF 
 700      37B27031 
 700      571F46B8 
 700      5BBE9A2E 
 701 0913 0443FA62 		.ascii	"\004C\372b\350\310Gh\270m\302\3350\024\317:%\"\031\235"
 701      E8C84768 
 701      B86DC2DD 
 701      3014CF3A 
 701      2522199D 
 702 0927 3D1FD4D9 		.ascii	"=\037\324\331\363W\330\236\017\201=+\342\021\034\037"
 702      F357D89E 
 702      0F813D2B 
 702      E2111C1F 
 703 0937 D3DBB6D9 		.ascii	"\323\333\266\331\210\337\250\237\257\3278\346;\225\321"
 703      88DFA89F 
 703      AFD738E6 
 703      3B95D1
 704 0946 8E59335F 		.ascii	"\216Y3_\352\233\251\215\267a{\346;1\340V\276\234\251"
 704      EA9BA98D 
 704      B7617BE6 
 704      3B31E056 
 704      BE9CA9
 705 0959 0D49E4DC 		.ascii	"\015I\344\334\343\220cD\2435_x\3350$\235\260\003\327"
 705      E3906344 
 705      A3355F78 
 705      DD30249D 
 705      B003D7
 706 096c 8B4320EF 		.ascii	"\213C \357\243?\267R\304\255\"R\3236\021)(\204\343O"
 706      A33FB752 
 706      C4AD2252 
 706      D3361129 
 706      2884E34F 
 707 0980 70BC0FC7 		.ascii	"p\274\017\307\257a\305M\307\361\014\034\317\303\361"
 707      AF61C54D 
 707      C7F10C1C 
 707      CFC3F1
 708 098f 521CAFC0 		.ascii	"R\034\257\300\361\3738\336\211\343\3758\256\303\361"
 708      F1FB38DE 
 708      89E3FD38 
 708      AEC3F1
 709 099e E738FE02 		.ascii	"\3478\376\002\307'p|\312\216\001\020G\03363\315\347"
ARM GAS  /tmp/cc9RF4xZ.s 			page 55


 709      C727707C 
 709      CA8E0110 
 709      471B3633 
 709      CDE7
 710 09b0 AE6DF399 		.ascii	"\256m\363\231\330\301\310\231\230\"nw\014\306Z\224A"
 710      D8C1C899 
 710      98226E77 
 710      0CC65A94 
 710      41
 711 09c1 926B7592 		.ascii	"\222ku\222\\\207%\271\036\313\355\214\321\215\237\217"
 711      5C8725B9 
 711      1ECBED8C 
 711      D18D9F8F 
 712 09d1 D74E6ADB 		.ascii	"\327Nj\333\342\016\324\346\003\245[\036\303\3079N\246"
 712      E20ED4E6 
 712      03A55B1E 
 712      C3C7394E 
 712      A6
 713 09e2 B25F6A73 		.ascii	"\262_js\212s\330\301\376\020\325}?dg\377\216\346q\327"
 713      8A73D8C1 
 713      FE10D57D 
 713      3F6467FF 
 713      8EE671D7 
 714 09f6 599EECFA 		.ascii	"Y\236\354\372$\276$\337\323Ir\025\226\344\007X\222\337"
 714      24BE24DF 
 714      D3497215 
 714      96E40758 
 714      92DF
 715 0a08 1A25A926 		.ascii	"\032%\251&\240V\337\216\264:\\k*\311Z\222\374V\337\326"
 715      A056DF8E 
 715      B43A5C6B 
 715      2AC95A92 
 715      FC56DFD6 
 716 0a1c B5BA1CB7 		.ascii	"\265\272\034\267\272B\264a\243\213#\333K\006\267\332"
 716      BA42B461 
 716      A38B23DB 
 716      4B06B7DA 
 717 0a2c 5128C3EA 		.ascii	"Q(\303\352\3515\257=\331\2310\003\270 u\304)\203>\311"
 717      E935AF3D 
 717      D9993003 
 717      B82075C4 
 717      29833EC9 
 718 0a40 DE99498D 		.ascii	"\336\231I\215\213\272\335\217\244\204HB\216AjK\304\321"
 718      8BBADD8F 
 718      A4844842 
 718      8E416A4B 
 718      C4D1
 719 0a52 D99F902E 		.ascii	"\331\237\220.z\347\353\337}\200\317\305.\221-\202\004"
 719      7AE7EBDF 
 719      7D80CFC5 
 719      2E912D82 
 719      04
 720 0a63 D676DC8C 		.ascii	"\326v\334\214\351\270\215\246\343N\210$\350t4\346\370"
 720      E9B88DA6 
 720      E34E8824 
 720      E87434E6 
 720      F8
ARM GAS  /tmp/cc9RF4xZ.s 			page 56


 721 0a74 23E9E733 		.ascii	"#\351\3473\224\220\231\253v\277D\214\370*\036\203\246"
 721      949099AB 
 721      76BF448C 
 721      F82A1E83 
 721      A6
 722 0a85 B48B7954 		.ascii	"\264\213yTo\304A\264]g\006\367PC#\276\325q\335\326\024"
 722      6FC441B4 
 722      5D6706F7 
 722      504323BE 
 722      D571DDD6 
 723 0a9a B0A97161 		.ascii	"\260\251qa\364\304\342Na6\325\233*\006MO\031\021\370"
 723      F4C4E24E 
 723      6136D59B 
 723      2A064D4F 
 723      1911F8
 724 0aad 2DE94E9C 		.ascii	"-\351N\234\222\361\335\227\230Rh\016\217\302\277\012"
 724      92F1DD97 
 724      9852680E 
 724      8FC2BF0A 
 725 0abd 4B2174EC 		.ascii	"K!t\354\310]\210\336\3612\022\301\254\330\"0\202(\342"
 725      C85D88DE 
 725      F13212C1 
 725      ACD82230 
 725      8228E2
 726 0ad0 4419393D 		.ascii	"D\0319=t\030l\020\303O\213\260\030P~l1\314>~F\236\253"
 726      74186C10 
 726      C34F8BB0 
 726      18507E6C 
 726      31CC3E7E 
 727 0ae7 86C6CB71 		.ascii	"\206\306\313qB)\336\200\230<!\326\006Dk\325\331\024"
 727      4229DE80 
 727      983C21D6 
 727      06446BD5 
 727      D914
 728 0af9 A2BC97A1 		.ascii	"\242\274\227\241\226$\034`(\267\201\204\350\232\012"
 728      96241C60 
 728      28B78184 
 728      E89A0A
 729 0b08 950D74CF 		.ascii	"\225\015t\317,\355\200\350F\371\026tc\201KBS;\"\014"
 729      2CED80E8 
 729      46F91674 
 729      63814B42 
 729      533B220C 
 730 0b1c 574224EF 		.ascii	"WB$\357\\$O\324\025\275\034\311\326\256\014\242G\313"
 730      5C244FD4 
 730      15BD1CC9 
 730      D6AE0CA2 
 730      47CB
 731 0b2e 2DAC0871 		.ascii	"-\254\010q\212\370\252\214\034\3104Y\346V\003\337\225"
 731      8AF8AA8C 
 731      1CC83459 
 731      E65603DF 
 731      95
 732 0b3f 285235F0 		.ascii	"(R5\360X\2159\220Ag\270\360\212X\177z\262\272z\270\023"
 732      588D3990 
 732      4167B8F0 
 732      8A587F7A 
ARM GAS  /tmp/cc9RF4xZ.s 			page 57


 732      B2BA7AB8 
 733 0b54 255CF825 		.ascii	"%\\\370%Q\302,\254\204\322\3046)a.\253\204uD\011sm)"
 733      51C22CAC 
 733      84D2C436 
 733      29612EAB 
 733      84754409 
 734 0b6b 615662B4 		.ascii	"aVb\264\022\026'r\225\260:\321\271\022\346\352\2240"
 734      12162772 
 734      95B03AD1 
 734      B912E6EA 
 734      9430
 735 0b7d 0F2BE10D 		.ascii	"\017+\341\015S%lw\254\204xF\011\365S\332\240\204k\377"
 735      53256C77 
 735      AC847846 
 735      09F553DA 
 735      A0846BFF 
 736 0b91 4294B018 		.ascii	"B\224\260\030+aw\333\224\260\214UB\003Q\3022[Jh\340"
 736      2B6177DB 
 736      94B08C55 
 736      420351C2 
 736      325B4A68 
 737 0ba6 28E1045F 		.ascii	"(\341\004_\011\227\332\240\204e:%\274\205\225\360\266"
 737      0997DAA0 
 737      84653A25 
 737      BC8595F0 
 737      B6
 738 0bb7 A9122625 		.ascii	"\251\022&%9UB2\333\023\246\210_//U\231C\013mg\000Dm"
 738      39554232 
 738      DB13A688 
 738      5F2F2F55 
 738      99430B6D 
 739 0bcf 3A2228E2 		.ascii	":\"(\342\217xe\022\031\025P\336M;S\323U\262n\3210\215"
 739      8F786512 
 739      191550DE 
 739      4D3B53D3 
 739      55B26ED1 
 740 0be5 E5C1EE4C 		.ascii	"\345\301\356L\222:\324\243\307k\320\022\257-\003Bs\303"
 740      923AD4A3 
 740      C76BD012 
 740      AF2D0342 
 740      73C3
 741 0bf7 F16B53C4 		.ascii	"\361kS\3045x\200^\213\007\205\332$\207\203\002bg=; "
 741      3578805E 
 741      8B0785DA 
 741      24878302 
 741      62673D3B 
 742 0c0c 542092D0 		.ascii	"T \222\320F\343\372\330C\302\244\211\2415\307k\244\310"
 742      46E3FAD8 
 742      43C2A489 
 742      A135C76B 
 742      A4C8
 743 0c1e AC74A2E5 		.ascii	"\254t\242\345\304B\021w\341\351\225\235m\253c\230\231"
 743      C4421177 
 743      E1E9959D 
 743      6DAB6398 
 743      99
 744 0c2f F50E246B 		.ascii	"\365\016$k\244\253\212HV\021?\222\221\3756;\206K5\300"
ARM GAS  /tmp/cc9RF4xZ.s 			page 58


 744      A4AB8A48 
 744      56113F92 
 744      91FD363B 
 744      864B35C0 
 745 0c43 7D6884FB 		.ascii	"}h\204\373\306\016\234\331Z\034\340\326\033\341N;\206"
 745      C60E9CD9 
 745      5A1CE0D6 
 745      1BE14E3B 
 745      86
 746 0c54 3352B7D1 		.ascii	"3R\267\321\010w\316\016\234\331\251\"\300m2\302}\357"
 746      0877CE0E 
 746      9CD9A922 
 746      C06D32C2 
 746      7DEF
 747 0c66 18CE48DD 		.ascii	"\030\316H\335\026#\334%;p\274\3637\336Go\300\260\274"
 747      1623DC25 
 747      3B70BCF3 
 747      37DE476F 
 747      C0B0BC
 748 0c79 C32E67A3 		.ascii	"\303.g\243\214\326\014\233q\274\025\307\037\343x;\216"
 748      8CD60C9B 
 748      71BC15C7 
 748      1FE3783B 
 748      8E
 749 0c8a 3FC5F14E 		.ascii	"?\305\361N\331FW\257\322w\365\037\355tu\363\355\027"
 749      D94657AF 
 749      D277F51F 
 749      ED7475F3 
 749      ED17
 750 0c9c 3466BC2A 		.ascii	"4f\274*\326cw\245\335f\274\345\0302U\017\031\372\351"
 750      D66377A5 
 750      DD66BCE5 
 750      1832550F 
 750      19FAE9
 751 0caf 788B8CFB 		.ascii	"x\213\214\373\236\015\377gX\"Q\017R\361\355\356\337"
 751      9E0DFF67 
 751      5822510F 
 751      52F1EDEE 
 751      DF
 752 0cc0 A31129D6 		.ascii	"\243\021)\326-cE\334\007\202\265sw\272\226\365&\227"
 752      2D6345DC 
 752      0782B573 
 752      77BA96F5 
 752      2697
 753 0cd2 F7E3E965 		.ascii	"\367\343\351e\255\255\351\345U\233\333w!Qo&aw\270\373"
 753      ADADE9E5 
 753      559BDB77 
 753      21516F26 
 753      6177B8FB 
 754 0ce6 4932BC1E 		.ascii	"I2\274\036\300\336p\337m1\275\241\021\007\357]\261\364"
 754      C0DE70DF 
 754      6D31BDA1 
 754      1107EF5D 
 754      B1F4
 755 0cf8 AFADC5F4 		.ascii	"\257\255\305\364\037\264\345\0137\320\353\207a\247\203"
 755      1FB4E50B 
 755      37D0EB87 
ARM GAS  /tmp/cc9RF4xZ.s 			page 59


 755      61A783
 756 0d07 4938D866 		.ascii	"I8\330f\037\266\221\334\373\242.\3071X\252\001l\223"
 756      1FB691DC 
 756      FBA22EC7 
 756      3158AA01 
 756      6C93
 757 0d19 1EEC8C1D 		.ascii	"\036\354\214\0350\013\377\265E\017v\3361\230\221\262"
 757      300BFFB5 
 757      450F76DE 
 757      319891B2 
 758 0d29 6D7AB00B 		.ascii	"mz\260\013v\300,|W\235\036\354\212c\260T\236z\205(\353"
 758      76C02C7C 
 758      579D1EEC 
 758      8A63B054 
 758      9E7A8528 
 759 0d3e 50C406EC 		.ascii	"P\304\006\354j\276\302\316\3440\216\217\342\270\021"
 759      6ABEC2CE 
 759      E4308E8F 
 759      E2B811
 760 0d4d C7CD383E 		.ascii	"\307\3158>n\307\311|\256w2\3271\301\265m\263\030p2\025"
 760      6EC7C97C 
 760      AE7732D7 
 760      31C1B56D 
 760      B3187032 
 761 0d62 DF7EFDF8 		.ascii	"\337~\375\370&|\223\224\271\002\213\344aF\301)=\005"
 761      267C9394 
 761      B9028BE4 
 761      6146C129 
 761      3D05
 762 0d74 E3DB3BA5 		.ascii	"\343\333;\245 UOA\350\306~r;B\273\241P\312\342\361f"
 762      20554F41 
 762      E8C67E72 
 762      3B42BBA1 
 762      50CAE2F1 
 763 0d89 7956BBD6 		.ascii	"yV\273\326\373\023W\017\327\300^s\014f\230\267\207\312"
 763      FB13570F 
 763      D7C05E73 
 763      0C6698B7 
 763      87CA
 764 0d9b 6A756073 		.ascii	"ju`s\035\203%GY\004\261\205:l\013\365X\347'q|\006\307"
 764      1D832547 
 764      5904B185 
 764      3A6C0BF5 
 764      58E72771 
 765 0db2 DFE2F8BC 		.ascii	"\337\342\370\274\336\012$aa{v\033\2058G\035j\304\213"
 765      DE0A2461 
 765      617B761B 
 765      8538471D 
 765      6AC48B
 766 0dc5 0A7671CD 		.ascii	"\012vq\315t\273W\257\3335\355m\2147\346\267\215\320"
 766      74BB57AF 
 766      DB35ED6D 
 766      8C37E6B7 
 766      8DD0
 767 0dd7 10368DCE 		.ascii	"\0206\215\316\270\011\262$lp\014\2513\027\350\256\025"
 767      B809B224 
 767      6C700CA9 
ARM GAS  /tmp/cc9RF4xZ.s 			page 60


 767      3317E8AE 
 767      15
 768 0de8 DF9C91E7 		.ascii	"\337\234\221\347\251\241\011\332\364Q-U\357_\321^'q"
 768      A9A109DA 
 768      F4512D55 
 768      EF5FD15E 
 768      2771
 769 0dfa 0A815620 		.ascii	"\012\201V \341+0\033\376\003&\250t#\313\252\202\"\376"
 769      E12B301B 
 769      FE0326A8 
 769      7423CBAA 
 769      8222FE
 770 0e0d 8035231B 		.ascii	"\2005#\033\347\233rB$\321\332\212\177\220\264\225Q\212"
 770      E79B7242 
 770      24D1DA8A 
 770      7F90B495 
 770      518A
 771 0e1f 0DF0F03D 		.ascii	"\015\360\360=\232\345\344w\005W\261\307\251\216\322"
 771      9AE5E477 
 771      0557B1C7 
 771      A98ED2
 772 0e2e AECC6C92 		.ascii	"\256\314l\222\305\"\306QaI\250g\025` \322\361lj\222"
 772      C522C651 
 772      6149A867 
 772      156020D2 
 772      F16C6A92 
 773 0e42 CEC54DC6 		.ascii	"\316\305M\306\302+\305\3066\023\307\2258~\037\307kp"
 773      C22BC5C6 
 773      3613C795 
 773      387E1FC7 
 773      6B70
 774 0e54 5C83E33D 		.ascii	"\\\203\343=8n\301\361E;f\251F\314R\021\207\311\226\345"
 774      386EC1F1 
 774      453B66A9 
 774      46CC5211 
 774      87C996E5 
 775 0e68 C3BB8067 		.ascii	"\303\273\200g\013W\340\325\316O\022\262\274\006F\322"
 775      0B57E0D5 
 775      CE4F12B2 
 775      BC0646D2 
 776 0e78 8CC3435B 		.ascii	"\214\303C[nf\255\377$\033N\027\014\002`\336\301 \216"
 776      6E66ADFF 
 776      241B4E17 
 776      0C0260DE 
 776      C1208E
 777 0e8b DBB9EEFC 		.ascii	"\333\271\356\374\264W\233\324\320\255C\215\356o\035"
 777      B4579BD4 
 777      D0AD438D 
 777      EE6F1D
 778 0e9a E3A51AF0 		.ascii	"\343\245\032\360n5\342\001\216\200\375`\007\314\302"
 778      6E35E201 
 778      8E80FD60 
 778      07CCC2
 779 0ea9 BBCE6962 		.ascii	"\273\316ib\257\374\331\337\324\234\3542lj\022\245\206"
 779      AFFCD9DF 
 779      D49CEC32 
 779      6C6A12A5 
ARM GAS  /tmp/cc9RF4xZ.s 			page 61


 779      86
 780 0eba 1F2E13BB 		.ascii	"\037.\023\273\267\251\335\320\233\013\357\300\333\220"
 780      B7A9DDD0 
 780      9B0BEFC0 
 780      DB90
 781 0ec8 2EC4D54F 		.ascii	".\304\325O\326\252E\015\233\0215\325e\256Z\346\235$"
 781      D6AA450D 
 781      9B1135D5 
 781      65AE5AE6 
 781      9D24
 782 0eda BCDCC1A9 		.ascii	"\274\334\301\251\364\214\252X\324\364O\355\012\277n"
 782      F48CAA58 
 782      D4F44FED 
 782      0ABF6E
 783 0ee9 2140DBDB 		.ascii	"!@\333\333\364\241\003ovF\222\233\201\267ift\370\031"
 783      F4A1036F 
 783      7646929B 
 783      81B76966 
 783      74F819
 784 0efc EE8C3850 		.ascii	"\356\2148P\333f\242\266\327\260\332*:X\252\355u\013"
 784      DB66A2B6 
 784      D7B0DA2A 
 784      3A58AAED 
 784      750B
 785 0f0e B5CDB150 		.ascii	"\265\315\261P\333\034Vm\313\355\250\315\342\322\354"
 785      DB1C566D 
 785      CBEDA8CD 
 785      E2D2EC
 786 0f1d 474D5A8F 		.ascii	"GMZ\217$\313\260\325\216\361\214fP\267(\251n8\261xI"
 786      24CBB0D5 
 786      8EF18C66 
 786      50B728A9 
 786      6E38B178 
 787 0f32 58CF82D9 		.ascii	"X\317\202\331\365\307\024\354+=\330&\307`\206-\262P"
 787      F5C714EC 
 787      2B3DD826 
 787      C760862D 
 787      B250
 788 0f44 8B1E6C9B 		.ascii	"\213\036l\233c\260\324(m\350\324r]w\314\177\003o\246"
 788      63B0D428 
 788      6DE8D472 
 788      5D77CC7F 
 788      036FA6
 789 0f57 DDC4E7BB 		.ascii	"\335\304\347\273\255x\024\030\357B\361D\034O\303\361"
 789      AD781418 
 789      EF42F144 
 789      1C4FC3F1 
 790 0f67 3C1CCFC7 		.ascii	"<\034\317\307\361\002\034/t\331\030)\256H\226\247l\251"
 790      F1021C2F 
 790      74D91829 
 790      AE4896A7 
 790      6CA9
 791 0f79 298633B6 		.ascii	")\2063\266\024\255\272L\253/v9=c[\342\342\237\261I1"
 791      14ADBA4C 
 791      AB2F7639 
 791      3D635BE2 
 791      E29FB149 
ARM GAS  /tmp/cc9RF4xZ.s 			page 62


 792 0f8e 08AD74F1 		.ascii	"\010\255t\361\011\325\326\235\272=\335\025\262V\371"
 792      09D5D69D 
 792      BA3DDD15 
 792      B256F9
 793 0f9d 61213C   		.ascii	"a!<"
 794 0fa0 BECDBE75 		.ascii	"\276\315\276u\366\252v\345\324\205\026\260\273\231\356"
 794      F6AA76E5 
 794      D48516B0 
 794      BB99EE
 795 0faf 141308C6 		.ascii	"\024\023\010\306D\\e\271\213\3751\260\222Jrc\337`i:"
 795      445C65B9 
 795      8BFD31B0 
 795      924A7263 
 795      DF60693A 
 796 0fc3 1BAF9626 		.ascii	"\033\257\226&\361\205\033\265\332\177\327\261p\3373"
 796      F1851BB5 
 796      DA7FD7B1 
 796      70DF33
 797 0fd2 11AE263A 		.ascii	"\021\256&:I8\025f\201\327j\254\341V\015\265\270\347"
 797      49381566 
 797      81D76AAC 
 797      E1560DB5 
 797      B8E7
 798 0fe4 75E1935F 		.ascii	"u\341\223_\242\325\326\\\334\007\216\311_mB~\3730\371"
 798      A2D5D65C 
 798      DC078EC9 
 798      5F6D427E 
 798      FB30F9
 799 0ff7 E758F20D 		.ascii	"\347X\362\015\255\306\032R\324"
 799      ADC61A52 
 799      D4
 800 1000 D045209F 		.ascii	"\320E \237P\006\203\273\035,C\207M1`\375\020\021Ee/"
 800      500683BB 
 800      1D2C4387 
 800      4D3160FD 
 800      10114565 
 801 1015 A32C7A19 		.ascii	"\243,z\031IQ\304u\216e\261\336D\026\332\275PI\270\305"
 801      4951C475 
 801      8E65B1DE 
 801      4416DABD 
 801      5049B8C5 
 802 1029 D26F6895 		.ascii	"\322oh\225&\015\367\314\222\015\364_\301\262X\214e\361"
 802      260DF7CC 
 802      920DF45F 
 802      C1B2588C 
 802      65F1
 803 103b 72328365 		.ascii	"r2\203e\350\3514\331\205\203\305\373\350\273\210\"\256"
 803      E8E934D9 
 803      8583C5FB 
 803      E8BB8822 
 803      AE
 804 104c 7421E7F5 		.ascii	"t!\347\365\016vI\253p\\\205\343\017q\274\321\216\223"
 804      0E7649AB 
 804      705C85E3 
 804      0F71BCD1 
 804      8E93
 805 105e 5A6AD2F7 		.ascii	"Zj\322\367\311\317\372\315jm2\255\205\364oVk\263i\255"
ARM GAS  /tmp/cc9RF4xZ.s 			page 63


 805      C9CFFACD 
 805      6A6D32AD 
 805      85F46F56 
 805      6BB369AD 
 806 1072 7516B5B6 		.ascii	"u\026\265\266\230\326z\327\242\326\326H-z\011\245~\311"
 806      98D67AD7 
 806      A2D6D648 
 806      2D7A09A5 
 806      7EC9
 807 1084 E14F45F0 		.ascii	"\341OE\360C\350\226\023\271\0216\0274\303;\201\357\240"
 807      43E89613 
 807      B9113617 
 807      34C33B81 
 807      EFA0
 808 1096 81B588D8 		.ascii	"\201\265\210\330\032\026c\015\206X\337thx*\311\215\275"
 808      1A16630D 
 808      8658DF74 
 808      68782AC9 
 808      8DBD
 809 10a8 3D78AC92 		.ascii	"=x\254\222\336\207S\361\322\363\3750`[&\346\340\352"
 809      DE8753F1 
 809      D2F3FD30 
 809      605B26E6 
 809      E0EA
 810 10ba 4E185C1D 		.ascii	"N\030\\\035\337i\224\2715\244\014*\223]\216{J\215IO"
 810      DF6994B9 
 810      35A40C2A 
 810      935D8E7B 
 810      4A8D494F 
 811 10ce F9A391BA 		.ascii	"\371\243\221\272\312v\332\213e\332Y_\265\343\266v\233"
 811      CA76DA8B 
 811      65DA595F 
 811      B5E3B676 
 811      9B
 812 10df B4A51DD4 		.ascii	"\264\245\035\324I\302:VlL\273\261W \027Z6\212 9m\037"
 812      49C23A56 
 812      6C4CBBB1 
 812      5720175A 
 812      368A2039 
 813 10f5 650B0BC8 		.ascii	"e\013\013\310\333GY!\232)bB\350\342_Q?'`5\316\301\364"
 813      DB475921 
 813      9A296242 
 813      E8E25F51 
 813      3F276035 
 814 110c 5B3C6AE8 		.ascii	"[<j\350\362\212\004L\033\031C\277d\341\214#&\027\217"
 814      F28A044C 
 814      1B1943BF 
 814      64E18C23 
 814      26178F
 815 111f 3A0E45DC 		.ascii	":\016E\334\306\351\372\306\013\2224\331\314c\356na\241"
 815      C6E9FAC6 
 815      0B9234D9 
 815      CC63EE6E 
 815      61A1
 816 1131 5AD712DA 		.ascii	"Z\327\022\332Z\375:L6'\204Z[\237\022\310\252T\022\032"
 816      5AFD3A4C 
 816      3627845A 
ARM GAS  /tmp/cc9RF4xZ.s 			page 64


 816      5B9F12C8 
 816      AA54121A 
 817 1145 938D23FB 		.ascii	"\223\215#\373\275\302RU-W\337\364\365\327l\373[\\\242"
 817      BDC25255 
 817      2D57DFF4 
 817      F5D76CFB 
 817      5B5CA2
 818 1158 DE753757 		.ascii	"\336u7W\321\341\365\363}\302[\310.6\253CS\360JC\240"
 818      D1E1F5F3 
 818      7DC25BC8 
 818      2E36AB43 
 818      53F04A43 
 819 116d 95741F45 		.ascii	"\225t\037E\374\334%\3513(]G\253\223\312\3067\267\266"
 819      FCDC25E9 
 819      33285D47 
 819      AB93CAC6 
 819      37B7B6
 820 1180 DEAD11D5 		.ascii	"\336\255\021\325\302'j\206F\224\"~\341B7H\016\266\205"
 820      C2276A86 
 820      4694227E 
 820      E1423748 
 820      0EB685
 821 1193 A8832C51 		.ascii	"\250\203,Q\015\\\242\266\355b\210\272\312'j6K\324\341"
 821      0D5CA2B6 
 821      ED6288BA 
 821      CA276A36 
 821      4BD4E1
 822 11a6 B6107598 		.ascii	"\266\020u\230%\352\010\227\250\306\010Qh\011#\011jG"
 822      25EA0897 
 822      A8C60851 
 822      68092309 
 822      6A47
 823 11b8 7B44355A 		.ascii	"{D5Z\023E\253\035A\325\310\352m\012\0066\2576\203tn"
 823      1345AB1D 
 823      41D5C8EA 
 823      6D0A0636 
 823      AF368374 
 824 11cd 1E2F8D2C 		.ascii	"\036/\215,/M\321\274\204Z\232O\256:\216Ok\325\326\326"
 824      2F4DD1BC 
 824      845A9A4F 
 824      AE3A8E4F 
 824      6BD5D6D6 
 825 11e1 9752EDAF 		.ascii	"\227R\355\257TO\262+\325\305\370\036\245n\215(\011\257"
 825      544FB22B 
 825      D5C5F81E 
 825      A56E8D28 
 825      09AF
 826 11f3 F2A582D9 		.ascii	"\362\245\202\331[\214/0\317\303%N\230\262G/\324Q\366"
 826      5B8C2F30 
 826      CFC3254E 
 826      98B2472F 
 826      D451F6
 827 1206 0EE9D93B 		.ascii	"\016\351\331;\301\262w\232\313^\375\222\213\377ZQU\251"
 827      C1B2779A 
 827      CB5EFD92 
 827      8BFF5A51 
 827      55A9
ARM GAS  /tmp/cc9RF4xZ.s 			page 65


 828 1218 4E516FB5 		.ascii	"NQo\265\276$\332\347\357<\345/\302\222$,`\370\241\204"
 828      BE24DAE7 
 828      EF3CE52F 
 828      C292242C 
 828      60F8A184 
 829 122c C120B142 		.ascii	"\301 \261B\225\303\204\235c\011\373\216G\230Z\245\252"
 829      95C3849D 
 829      6309FB8E 
 829      47985AA5 
 829      AA
 830 123d 0920F356 		.ascii	"\011 \363VU\"\333\0270z\361\3055\2275\242\357m\031Q"
 830      5522DB17 
 830      307AF1C5 
 830      359735A2 
 830      EF6D1951 
 831 1251 8372BFB6 		.ascii	"\203r\277\266\314\333\200\201u\325\230-Q\2721\3033\242"
 831      CCDB8081 
 831      75D5982D 
 831      51BA31C3 
 831      33A2
 832 1263 EF59665A 		.ascii	"\357YfZx\314\2046\277:\353\227\257\020\227\026o\220"
 832      78CC8436 
 832      BF3AEB97 
 832      AF109716 
 832      6F90
 833 1275 B1FDBB30 		.ascii	"\261\375\2730\263om\277\217\354\232\272\320U\230\217"
 833      B36F6DBF 
 833      8FEC9ABA 
 833      D055988F 
 834 1285 1861D8BC 		.ascii	"\030a\330\274\012s\335\305\\\205\251pK$7\366E\230\232"
 834      0A73DDC5 
 834      5C85A970 
 834      4B2437F6 
 834      45989A
 835 1298 8ED11761 		.ascii	"\216\321\027a\352:r/\302\034\352h\274\010C\263\277\216"
 835      EA3A722F 
 835      C21CEA68 
 835      BC0843B3 
 835      BF8E
 836 12aa 64CBBAEC 		.ascii	"d\313\272\354\263\221l\227.\373b$\333\255\313\276\036"
 836      B3916C97 
 836      2EFB6224 
 836      DBADCBBE 
 836      1E
 837 12bb C9F6E8B2 		.ascii	"\311\366\350\262'u\012g\307\351\262\247F\262\351\250"
 837      27750A67 
 837      C7E9B2A7 
 837      46B2E9A8 
 838 12cb 871F2DAF 		.ascii	"\207\037-\257\344D\204\004\353t<\325\275\351\342_\311"
 838      E4448404 
 838      EB743CD5 
 838      BDE9E25F 
 838      C9
 839 12dc 31EB1D57 		.ascii	"1\353\035W\\\346\267\027\255o\270Nw\363\267y%\241\254"
 839      5CE6B717 
 839      AD6FB84E 
 839      77F3B779 
ARM GAS  /tmp/cc9RF4xZ.s 			page 66


 839      25A1AC
 840 12ef 13CFFCA1 		.ascii	"\023\317\374\241\003\177\373`-\352,\244\256$\254\300"
 840      037FFB60 
 840      2DEA2CA4 
 840      AE24ACC0 
 841 12ff E52E9B76 		.ascii	"\345.\233v\002\332\002\266\346r\265\376(\262\346\253"
 841      02DA02B6 
 841      E672B5FE 
 841      28B2E6AB 
 842 130f D40074B5 		.ascii	"\324\000t\265\030\323\301\257\313\334Q\306]\331\034"
 842      18D3C1AF 
 842      CBDC51C6 
 842      5DD91C
 843 131e 6A983A2D 		.ascii	"j\230:-<^\033\214\233\316\301\354\374F\367\360{\017"
 843      3C5E1B8C 
 843      9BCEC1EC 
 843      FC46F7F0 
 843      7B0F
 844 1330 60E39EE3 		.ascii	"`\343\236\343\306\333K\014\253\366\201\3265V\244a\240"
 844      C6DB4B0C 
 844      ABF681D6 
 844      3556A461 
 844      A0
 845 1341 3730D006 		.ascii	"70\320\006\006H\021\005foO0\356\355\301#r:\255\221\273"
 845      06481105 
 845      666F4F30 
 845      EEEDC123 
 845      723AAD91 
 846 1356 DB90F392 		.ascii	"\333\220\363\222\320\246:f*\236\355\346lb2\312\016\231"
 846      D0A63A66 
 846      2A9EEDE6 
 846      6C6232CA 
 846      0E99
 847 1368 29FBF003 		.ascii	")\373\360\003[\211\262I\245\035\330\343\315r\333\033"
 847      5B89B249 
 847      A51DD8E3 
 847      CD72DB1B 
 848 1378 CBD76065 		.ascii	"\313\327`e\317\301\267\214\015\265x\312\256\210VvsK"
 848      CFC1B78C 
 848      0DB578CA 
 848      AE885676 
 848      734B
 849 138a 68D65E32 		.ascii	"h\326^2\264/\352\305\214\025\010\325\214\343\305nG\227"
 849      B42FEAC5 
 849      8C1508D5 
 849      8CE3C56E 
 849      4797
 850 139c 79998510 		.ascii	"y\231\205\020\3358\275\321\"\302\272g\231\033o\364D"
 850      DD38BDD1 
 850      22C2BA67 
 850      991B6FF4 
 850      44
 851 13ad E995AC87 		.ascii	"\351\225\254\207tJ\012\351\326\253\237\340N\374)^\235"
 851      744A0AE9 
 851      D6AB9FE0 
 851      4EFC295E 
 851      9D
ARM GAS  /tmp/cc9RF4xZ.s 			page 67


 852 13be EEC4F15E 		.ascii	"\356\304\361^\034\357\303q-\216yS\327\350U\253i\357"
 852      1CEFC371 
 852      2D8E7953 
 852      D7E855AB 
 852      69EF
 853 13d0 6CE02A2C 		.ascii	"l\340*,4{\357\"\350\033\022\251)\011M\270T\245\251\272"
 853      347BEF22 
 853      E81B12A9 
 853      29094DB8 
 853      54A5A9BA 
 854 13e4 96BACDD5 		.ascii	"\226\272\315\325Ui\255\256\345\\u\241\201\207\364\315"
 854      5569ADAE 
 854      E55C75A1 
 854      8187F4CD 
 855 13f4 8F55319E 		.ascii	"\217U1\236Q\031\352\365f\234\276\307\032)r\033\014\317"
 855      5119EAF5 
 855      669CBEC7 
 855      1A29721B 
 855      0CCF
 856 1406 DF707956 		.ascii	"\337pyV\027\241\001\231\024/w#\363|\327\224_\275/\232"
 856      17A10199 
 856      142F7723 
 856      F37CD794 
 856      5FBD2F9A 
 857 141a C0F8A277 		.ascii	"\300\370\242w\255\371]\305\345\267b\272\211/\2626\320"
 857      ADF95DC5 
 857      E5B762BA 
 857      892FB236 
 857      D0
 858 142b 2A1EB7E1 		.ascii	"*\036\267\341\007\272W\301p\377\003\237\373\3139\375"
 858      07BA57C1 
 858      70FF039F 
 858      FBCB39FD 
 859 143b 354FACDE 		.ascii	"5O\254\336\216J\254\261\346^?\351[\212\017\005^\215"
 859      8E4AACB1 
 859      E65E3FE9 
 859      5B8A0F05 
 859      5E8D
 860 144d 518D92C3 		.ascii	"Q\215\222\3035\2225\326B[\307u\340\365\007\302BKa\204"
 860      359235D6 
 860      425BC775 
 860      E0F507C2 
 860      424B6184 
 861 1461 B6C062A8 		.ascii	"\266\300b\250\332b\303D\246\337\316\025Rk\016c\"\233"
 861      DA62C344 
 861      A6DFCE15 
 861      526B0E63 
 861      229B
 862 1473 6D9AC85A 		.ascii	"m\232\310Z\314-\371\375\275\241\026\217\333m\\no\034"
 862      CC2DF9FD 
 862      BDA1168F 
 862      DB6D5C6E 
 862      6F1C
 863 1485 D82B0209 		.ascii	"\330+\002\0117\321i0\303\355\032\013n?a\271}*\212\331"
 863      37D16930 
 863      C3ED1A0B 
 863      6E3F61B9 
ARM GAS  /tmp/cc9RF4xZ.s 			page 68


 863      7D2A8AD9 
 864 1499 457C669B 		.ascii	"E|f\233\020\263\370\367h+q\201\355\246\274>\245W\354"
 864      10B3F8F7 
 864      682B7181 
 864      EDA6BC3E 
 864      A557EC
 865 14ac 07A59393 		.ascii	"\007\245\223\223]\204&\301\242\026%o\007\227\327#sL"
 865      5D8426C1 
 865      A216256F 
 865      0797D723 
 865      734C
 866 14be 79B598DB 		.ascii	"y\265\230\333\357\266\241\330\367\371\274^\215X\377"
 866      EFB6A1D8 
 866      F7F9BC5E 
 866      8D58FF
 867 14cd 165CA2C6 		.ascii	"\026\\\242\306\226bU\3655ur\262\030\236V\243Z\272\017"
 867      966255F5 
 867      357572B2 
 867      189E56A3 
 867      5ABA0F
 868 14e0 F86B2E7B 		.ascii	"\370k.{e\015\341u&\242Y\022\266\363\251\272\0261\267"
 868      650DE175 
 868      26A25912 
 868      B6F3A9BA 
 868      1631B7
 869 14f3 7DD8DC6A 		.ascii	"}\330\334j\333DU-KU\035\227\252\365,U\3651d\245Qu\240"
 869      DB44552D 
 869      4B551D97 
 869      AAF52C55 
 869      F53164A5 
 870 150a 4D541D60 		.ascii	"MT\035`\251\372\202K\325Q\226\252f\013k\325S\325\320"
 870      A9FA824B 
 870      D55196AA 
 870      660B6BD5 
 870      53D5D0
 871 151d 26AA1A58 		.ascii	"&\252\032X\252\276\342RU~\230\241\352\034\237\252\033"
 871      AABEE252 
 871      557E98A1 
 871      EA1C9FAA 
 871      1B
 872 152e 2C5547DA 		.ascii	",UG\332D\325\021\226\252\243\\\2526jT\331\3573\315l"
 872      44D51196 
 872      AAA35CAA 
 872      366A54D9 
 872      EF33CD6C 
 873 1542 9F59EA8A 		.ascii	"\237Y\352\212\35237\371\274\275\241\271~\215\267&\233"
 873      EA3337F9 
 873      BCBDA1B9 
 873      7E8DB726 
 873      9B
 874 1553 AEDFC85B 		.ascii	"\256\337\310[\023\313\333q\316\010Y\326|\244v\177\251"
 874      13CBDB71 
 874      CE0859D6 
 874      7CA4767F 
 874      A9
 875 1564 38636265 		.ascii	"8cbe\215\332\202\216\256\355sx\312\035\275\342\177\365"
 875      8DDA828E 
ARM GAS  /tmp/cc9RF4xZ.s 			page 69


 875      AEED7378 
 875      CA1DBDE2 
 875      7FF5
 876 1576 0E76C54F 		.ascii	"\016v\305OJ\234\3466\375y\351)\361\015\365\023\274\225"
 876      4A9CE636 
 876      FD79E929 
 876      F10DF513 
 876      BC95
 877 1588 E2A0E1B3 		.ascii	"\342\240\341\263\254h7E\213v\201\011!\3478\204\254n"
 877      AC683745 
 877      8B768109 
 877      21E73884 
 877      AC6E
 878 159a 5EFBCDE1 		.ascii	"^\373\315\341\034JHk\212Z\266\236\335\367p\361\206\001"
 878      1C4A486B 
 878      8A5AB69E 
 878      DDF770F1 
 878      8601
 879 15ac BAA0DC7F 		.ascii	"\272\240\334\177\207n\204\371\216%\015\375\331$\303"
 879      876E84F9 
 879      8E250DFD 
 879      D924C3
 880 15bb 83FEE525 		.ascii	"\203\376\345%)\372\202\207$\0344\220N[i\304\255\320"
 880      29FA8287 
 880      241C3490 
 880      4E5B69C4 
 880      ADD0
 881 15cd 87535A93 		.ascii	"\207SZ\223\332\357\260\"$\360>T\332\255U\333\357\232"
 881      DAEFB022 
 881      24F03E54 
 881      DAAD55DB 
 881      EF9A
 882 15df 57A54E72 		.ascii	"W\245Nr\272\263s\203\267<\011?\320\337r0<\264\230\210"
 882      BAB37383 
 882      B73C093F 
 882      D0DF7230 
 882      3CB49888 
 883 15f3 FF16CF0E 		.ascii	"\377\026\317\016*\177l\255\021_q<*\251\036\206.\364"
 883      2A7F6CAD 
 883      115F713C 
 883      2AA91E86 
 883      2EF4
 884 1605 9377868E 		.ascii	"\223w\206\216\353&tL\360\360\354\361V\325\356\273\302"
 884      EB26744C 
 884      F0F0ECF1 
 884      56D5EEBB 
 884      C2
 885 1616 F6A8ED9F 		.ascii	"\366\250\355\237N\355\314\207\230\304\201X\335\\\365"
 885      4EEDCC87 
 885      98C48158 
 885      DD5CF5
 886 1625 CD453962 		.ascii	"\315E9bI\241*V\316\310\031\231\230\222\"~\217\245C\225"
 886      49A12A56 
 886      CEC81999 
 886      9892227E 
 886      8FA54395 
 887 1639 3A13DAA5 		.ascii	":\023\332\245\254\375\233\360f\347\0125^`((e\005`\230"
ARM GAS  /tmp/cc9RF4xZ.s 			page 70


 887      ACFD9BF0 
 887      66E70A35 
 887      5E602828 
 887      65056098 
 888 164d A4526363 		.ascii	"\244Rcc\004R\3219\312\270`\225\037i\027\246\333F\025"
 888      0452D139 
 888      CAB86095 
 888      1F6917A6 
 888      DB4615
 889 1660 B11FC267 		.ascii	"\261\037\302g\350\207\023j<\366\030\323\345\343\222"
 889      E887136A 
 889      3CF618D3 
 889      E5E392
 890 166f 731E2907 		.ascii	"s\036)\007\345\036\315\205L\363\204}\310\262\237\205"
 890      E51ECD85 
 890      4CF3847D 
 890      C8B29F85 
 891 167f 44F02ED5 		.ascii	"D\360.\325\215m\361.\363X\251\"\357\022~8\307\355\262"
 891      8D6DF12E 
 891      F358A922 
 891      EF127E38 
 891      C7EDB2
 892 1692 EF9AD8C8 		.ascii	"\357\232\330\310\233<3\013\265V\303\364z1wMb5\341\254"
 892      9B3C330B 
 892      B556C3F4 
 892      7A31774D 
 892      6235E1AC 
 893 16a6 E011C610 		.ascii	"\340\021\306\020\262\336\204\220E\\B\256\225F\010!\214"
 893      B2DE8490 
 893      455C42AE 
 893      95460821 
 893      8C
 894 16b7 4B42C804 		.ascii	"KB\310\004a1\267\307\374\330zF\337cT\014Qg\002\261\224"
 894      6131B7C7 
 894      FCD87A46 
 894      DF63540C 
 894      516702B1 
 895 16cc 4B44D5AE 		.ascii	"KD\325\256i\252\250\215\371\004\340\250\011\300[F\200"
 895      69AAA88D 
 895      F904E0A8 
 895      09C05B46 
 895      80
 896 16dd 5F0B8BD5 		.ascii	"_\013\213\325\346\272\346\372%\327w\210\345\252Z\243"
 896      E6BAE6FA 
 896      25D77788 
 896      E5AA5AA3 
 897 16ed AAC08978 		.ascii	"\252\300\211x\267\366\247\354O\205Q\250D\243._,\217"
 897      B7F6A7EC 
 897      4F8551A8 
 897      44A32E5F 
 897      2C8F
 898 16ff E021AC50 		.ascii	"\340!\254P]h\346\236\331\"\254|Tp\221\255\242\366c\351"
 898      5D68E69E 
 898      D922AC7C 
 898      547091AD 
 898      A2F663E9 
 899 1713 EF582035 		.ascii	"\357X 5\352\247\321+)R\017a\255\372J\250L&U\311}\236"
ARM GAS  /tmp/cc9RF4xZ.s 			page 71


 899      EAA7D12B 
 899      29520F61 
 899      ADFA4AA8 
 899      4C2655C9 
 900 1729 FF12AEAB 		.ascii	"\377\022\256\253\257\250\241\331{D\355j$=_\"\027}\350"
 900      AFA8A1D9 
 900      7B44ED6A 
 900      243D5F22 
 900      177DE8
 901 173c EB39EDB4 		.ascii	"\3539\355\264\267\007\265\267\350\002\020};/\374\366"
 901      B707B5B7 
 901      E802107D 
 901      3B2FFCF6 
 902 174c B0F67662 		.ascii	"\260\366vb\344\355\374v\332\315\274\357\265\267\323"
 902      E4EDFC76 
 902      DACDBCEF 
 902      B5B7D3
 903 175b 226F17B4 		.ascii	"\"o\027\264\323.\2005jo\321E\"\304A\\\202\020B;!\363"
 903      D32E8035 
 903      6A6FD145 
 903      22C4415C 
 903      8210423B 
 904 1771 E9B34C96 		.ascii	"\351\263L\226\026\013\214\217\013\365\217\021Q}\224"
 904      160B8C8F 
 904      0BF58F11 
 904      517D94
 905 1780 0073153C 		.ascii	"\000s\025<i\320va\256F\011\312\270q\203\027\244\021"
 905      69D07661 
 905      AE4609CA 
 905      B8718317 
 905      A411
 906 1792 999BFDCA 		.ascii	"\231\233\375\312\337\260\333\216W\343\236\2164\245\235"
 906      DFB0DB8E 
 906      57E39E8E 
 906      34A59D
 907 17a1 CD6A7553 		.ascii	"\315juS\231\252=\265\252q\264\302Z\217\323\343\337\017"
 907      99AA3DB5 
 907      AA71B4C2 
 907      5A8FD3E3 
 907      DF0F
 908 17b3 3DFCE35F 		.ascii	"=\374\343_\017\245\232\331\273E\223\0213\250u\036\263"
 908      0FA59AD9 
 908      BB459311 
 908      33A8751E 
 908      B3
 909 17c4 1B03A72C 		.ascii	"\033\003\247,j\255\217\324\242g2\223"
 909      6AAD8FD4 
 909      A2673293 
 910 17d0 97478E9C 		.ascii	"\227G\216\234\356!GI\222p\2433w\362xL;,\002\322\360"
 910      EE214749 
 910      9270A333 
 910      77F2784C 
 910      3B2C02D2 
 911 17e5 5EE0064F 		.ascii	"^\340\006O\033\016\213P%C\327\333h\354z\014;\273\254"
 911      1B0E8B50 
 911      2543D7DB 
 911      68EC7A0C 
ARM GAS  /tmp/cc9RF4xZ.s 			page 72


 911      3BBBAC
 912 17f8 2E5B980A 		.ascii	".[\230\012\341\244\305m\306-QB\250_\262\347*\314SU2"
 912      E1A4C56D 
 912      C62D5142 
 912      A85FB2E7 
 912      2ACC5355 
 913 180d 4F654FDE 		.ascii	"OeO\336\2546s\266\261\216\023\031\014\3438\247\334\311"
 913      AC3673B6 
 913      B18E1319 
 913      0CE338A7 
 913      DCC9
 914 181f 3F4BFA5B 		.ascii	"?K\372[\212V\374\022\226\346V\017\177\207!\374g5\251"
 914      8A56FC12 
 914      96E6560F 
 914      7F8721FC 
 914      6735A9
 915 1832 343F36EC 		.ascii	"4?6\354\302\230\325\242\004\206\242\035c\250%\264\315"
 915      C298D5A2 
 915      0486A21D 
 915      63A825B4 
 915      CD
 916 1843 4706D84A 		.ascii	"G\006\330J\325ek\200%X;<\321\263\362yw\262\376\224\356"
 916      D5656B80 
 916      25583B3C 
 916      D1B3F279 
 916      77B2FE94 
 917 1858 9E54ADD0 		.ascii	"\236T\255\320\216\011P\205OM,\205\342\355\2644\201\363"
 917      8E095085 
 917      4F4D2C85 
 917      E2EDB434 
 917      81F3
 918 186a 16CADC65 		.ascii	"\026\312\334ej\002\337Y\364\203\032\323Zh\2240\335\253"
 918      6A02DF59 
 918      F4831AD3 
 918      5A689430 
 918      DDAB
 919 187c 30AD75C3 		.ascii	"0\255u\303\242\255=\246\265\256X\360\2657R\213\177\365"
 919      A2AD3DA6 
 919      B5AE58F0 
 919      B537528B 
 919      7FF5
 920 188e E595F055 		.ascii	"\345\225\360U\007\315\201}\346\330\037\3553\361G\311"
 920      07CD817D 
 920      E6D81FED 
 920      33F147C9 
 921 189e 7C7A4B2D 		.ascii	"|zK-d\263\337\224KD\226Y\255Z\323Z\345\026m\325Ej\245"
 921      64B3DF94 
 921      4B449659 
 921      AD5AD35A 
 921      E5166DD5 
 922 18b5 0A8B54B5 		.ascii	"\012\213T\265\254L\235,\205\375\313\032\375\332\224"
 922      AC4C9D2C 
 922      85FDCB1A 
 922      FDDA94
 923 18c4 BC0FDD98 		.ascii	"\274\017\335\230>\261RL\265,RW\256\266\263\0069\030"
 923      3EB1524C 
 923      B52C5257 
ARM GAS  /tmp/cc9RF4xZ.s 			page 73


 923      AEB6B306 
 923      3918
 924 18d6 B3C4D198 		.ascii	"\263\304\321\230%.\306,q3f\21193MK\304\013/\223\223"
 924      252EC62C 
 924      71336689 
 924      39334D4B 
 924      C40B2F93 
 925 18eb 5975BCF8 		.ascii	"Yu\274\370\202\305\341\025\376\213\300\212x\310\023"
 925      82C5E115 
 925      FE8BC08A 
 925      78C813
 926 18fa 8FB6D7EE 		.ascii	"\217\266\327\3564Y\342\221\002\350\203\352\223\264\226"
 926      3459E291 
 926      02E883EA 
 926      93B496
 927 1909 12A33436 		.ascii	"\022\24346\317BcGM\365\\aQ\353\230i\255\367,\372[\243"
 927      CF426347 
 927      4DF55C61 
 927      51EB9869 
 927      ADF72CFA 
 928 191f 69AD2A8B 		.ascii	"i\255*\213ZM\221Z\341\377\"g\205\351\017\345w\340\275"
 928      5A4D915A 
 928      E1FF2267 
 928      85E90FE5 
 928      77E0BD
 929 1932 93660FF3 		.ascii	"\223f\017\363\027\351f\337\252O!\377!\006z%p&\232\364"
 929      17E966DF 
 929      AA4F21FF 
 929      21067A25 
 929      70269AF4 
 930 1946 43AF56BD 		.ascii	"C\257V\275Q:=E\255\334.j\227\003\326bg\212\352\362\246"
 930      513A3D45 
 930      ADDC2E6A 
 930      9703D662 
 930      678AEAF2 
 931 195b 2BE15EAA 		.ascii	"+\341^\252i$\352\252\326\233\245\257\321_\367\021\315"
 931      6924EAAA 
 931      D69BA5AF 
 931      D15FF711 
 931      CD
 932 196c 6E65F1EC 		.ascii	"ne\361\354\376\015\207\360\207\221\240\016*z\317&jX"
 932      FE0D87F0 
 932      8791A00E 
 932      2A7ACF26 
 932      6A58
 933 197e DDD9DA1C 		.ascii	"\335\331\332\034\231[\330_%\235a\307T4\231\010?P\223"
 933      995BD85F 
 933      259D61C7 
 933      54349908 
 933      3F5093
 934 1991 64C6D89D 		.ascii	"d\306\330\235\3741\366\022;c9m=c\321\206\346\352\304"
 934      FC31F612 
 934      3B63396D 
 934      3D63D186 
 934      E6EAC4
 935 19a4 2E9A0C0F 		.ascii	".\232\014\017b\344\323\246c3\245\2077\3239\315\316t"
 935      62E4D3A6 
ARM GAS  /tmp/cc9RF4xZ.s 			page 74


 935      6333A587 
 935      37D339CD 
 935      CE74
 936 19b6 CE7107E3 		.ascii	"\316q\007\343\217\367\314\011\237\233\335\343d\325v"
 936      8FF7CC09 
 936      9F9BDDE3 
 936      64D576
 937 19c5 81272846 		.ascii	"\201'(F0G\371\2029\304\012\246\305\346T\356\310\211"
 937      3047F982 
 937      39C40AA6 
 937      C5E654EE 
 937      C889
 938 19d7 A1FD2307 		.ascii	"\241\375#\007\005f\265(\201\227\270\374\266N\327\363"
 938      0566B528 
 938      8197B8FC 
 938      B64ED7F3 
 939 19e7 4BF42D09 		.ascii	"K\364-\011\247m\022z\305\226\006\177B\223+\244\032E"
 939      A76D127A 
 939      C596067F 
 939      42932BA4 
 939      1A45
 940 19f9 FC1F0F53 		.ascii	"\374\037\017S\315\276\002\257\260\012\274jdH\350\221"
 940      CDBE02AF 
 940      B00ABC6A 
 940      6448E891 
 941 1a09 36BA30DF 		.ascii	"6\2720\337\227\226]\230\363bZ\216olZ\366\350\334\021"
 941      97965D98 
 941      F3625A8E 
 941      6F6C5AF6 
 941      E8DC11
 942 1a1c B98581B4 		.ascii	"\271\205\201\264\240\277\270`L\032$\374\301\264\334"
 942      A0BFB860 
 942      4C1A24FC 
 942      C1B4DC
 943 1a2b 82ECBCE2 		.ascii	"\202\354\274\342\034(4zD\300\227\377\320h\241\323\210"
 943      1C28347A 
 943      44C097FF 
 943      D068A1D3 
 943      88
 944 1a3c DC02C5FF 		.ascii	"\334\002\305\377\242\027\236\224\242\321\205~\2377\350"
 944      A2179E94 
 944      A2D1857E 
 944      9F37E8
 945 1a4b E9377858 		.ascii	"\3517xXj\272\320\335\021\034AK\324\301$\204\323=\235"
 945      6ABAD0DD 
 945      111C414B 
 945      D4C12484 
 945      D33D9D
 946 1a5e 21BD1808 		.ascii	"!\275\030\010\276X\344\013\000\\\207\340h\277O\311\011"
 946      BE58E40B 
 946      005C87E0 
 946      68BF4FC9 
 946      09
 947 1a6f 785F28F6 		.ascii	"x_(\366\025\003dr\366h\257!\313\031\313\201\354\321"
 947      15036472 
 947      F668AF21 
 947      CB19CB81 
ARM GAS  /tmp/cc9RF4xZ.s 			page 75


 947      ECD1
 948 1a81 39801A4F 		.ascii	"9\200\032O \200\3020\234\247\310[\340+\011\302W\221"
 948      2080C230 
 948      9CA7C85B 
 948      E02B09C2 
 948      5791
 949 1a93 DF37B6BF 		.ascii	"\3377\266\277\015\324\242B\1770\220\326;cP\372\240\022"
 949      0DD4A242 
 949      7F3090D6 
 949      3B6350FA 
 949      A012
 950 1aa5 28995F94 		.ascii	"(\231_\224\233\347\363\007\322\372\245\247Cq\215\376"
 950      9BE7F307 
 950      D2FAA5A7 
 950      43718DFE 
 951 1ab5 B860913F 		.ascii	"\270`\221?\267\320\033\2747\2558\340OS\374\371\017\026"
 951      B7D01BBC 
 951      37AD38E0 
 951      4F53FCF9 
 951      0F16
 952 1ac7 1416F81E 		.ascii	"\024\026\370\036\364)#r\303d\005\2029\271\005ADV1|w"
 952      F4292372 
 952      C3640582 
 952      39B90541 
 952      4456317C 
 953 1adc EFE60DF6 		.ascii	"\357\346\015\366\260(\235\257\0001\005\2764o\216o\244"
 953      B0289DAF 
 953      003105BE 
 953      346F8E6F 
 953      A4
 954 1aed 529C17F4 		.ascii	"R\234\027\364jM\265\363z\265\372\230\213\334\302\270"
 954      6A4DB5F3 
 954      7AB5FA98 
 954      8BDCC2B8 
 955 1afd ECC28220 		.ascii	"\354\302\202 0\365\230cnFg\203\322\2206Q\266\027P\263"
 955      30F59863 
 955      6E466783 
 955      D2903651 
 955      B61750B3 
 956 1b11 83254FB4 		.ascii	"\203%O\264\015\305;\366Qd\027\361~\337(`\310\033\224"
 956      0DC53BF6 
 956      516417F1 
 956      7EDF2860 
 956      C81B94
 957 1b24 035D1F81 		.ascii	"\003]\037\201\360(\204\236\020\036\223\003\335\272@"
 957      F028849E 
 957      101E9303 
 957      DDBA40
 958 1b33 E80AA11B 		.ascii	"\350\012\241\033\204\356\020z@x\030\002\224\353\006"
 958      84EE107A 
 958      40781802 
 958      94EB06
 959 1b42 E5BA41B9 		.ascii	"\345\272A\271nP\256;\224\353\336U\362\367\220\374\017"
 959      6E50AE3B 
 959      94EBDE55 
 959      F2F790FC 
 959      0F
ARM GAS  /tmp/cc9RF4xZ.s 			page 76


 960 1b53 4BFE4724 		.ascii	"K\376G$\377\243\222\277\247\344\177L\366w\355\002\241"
 960      FFA392BF 
 960      A7E47F4C 
 960      F677ED02 
 960      A1
 961 1b64 AB94E787 		.ascii	"\253\224\347\207\257\356\356\"/P\033\207\3649\316\347"
 961      AFEEEE22 
 961      2F501B87 
 961      F439CEE7 
 962 1b74 87EFC2BC 		.ascii	"\207\357\302\274\034\237\337\225=Z\361#%+\371\276\370"
 962      1C9FDF95 
 962      3D5AF123 
 962      252BF9BE 
 962      F8
 963 1b85 6020A804 		.ascii	"` \250\004\301\232\342\220\300z\202\031\020\321A\012"
 963      C19AE290 
 963      C07A8219 
 963      10D1410A 
 964 1b95 8AE37771 		.ascii	"\212\343wq\301\374\302\034\037~\036\231\247\214\012"
 964      C1FCC21C 
 964      1F7E1E99 
 964      A78C0A
 965 1ba4 C405FDBE 		.ascii	"\304\005\375\276\221\001,Y\224p\347\007F\301K*n\250"
 965      91012C59 
 965      9470E707 
 965      46C14B2A 
 965      6EA8
 966 1bb6 AE09DE9F 		.ascii	"\256\011\336\237\363\"\274\212\367\225\344\006AP>\317"
 966      F322BC8A 
 966      F795E406 
 966      41503ECF 
 967 1bc6 B860E188 		.ascii	"\270`\341\210\277\027%\372\306\372\012\202\371J`\014"
 967      BF1725FA 
 967      C6FA0A82 
 967      F94A600C 
 968 1bd6 14F18D43 		.ascii	"\024\361\215C\011\271\310[\334^\263\344\274\334\000"
 968      09B9C85B 
 968      DC5EB3E4 
 968      BCDC00
 969 1be5 E8B183CE 		.ascii	"\350\261\203\316\266QNB\221w\234\222\033\314-\030\325"
 969      B6514E42 
 969      91779C92 
 969      1BCC2D18 
 969      D5
 970 1bf6 AEC80BA8 		.ascii	"\256\310\013\250\330\336\3358\011\031\276\"_\001\330"
 970      D8DEDD38 
 970      0919BE22 
 970      5F01D8
 971 1c05 CD28777E 		.ascii	"\315(w~1\350\330YW\315\017\226 \333\314']\010\276\013"
 971      31E8D859 
 971      57CD0F96 
 971      20DBCC27 
 971      5D08BE0B 
 972 1c19 C71580A8 		.ascii	"\307\025\200\2500\022P\230\217\273\0024\017\345\020"
 972      30125098 
 972      8FBB0234 
 972      0FE510
ARM GAS  /tmp/cc9RF4xZ.s 			page 77


 973 1c28 21ED10D3 		.ascii	"!\355\020\323J\0366)\310,*,\314\213\243\335\317\235"
 973      4A1E3629 
 973      C82C2A2C 
 973      CC8BA3DD 
 973      CF9D
 974 1c3a 5D0094BB 		.ascii	"]\000\224\273\003^\370\366\214\010 '\322\015\033o^\356"
 974      035EF8F6 
 974      8C082027 
 974      D20D1B6F 
 974      5EEE
 975 1c4c 88B451D9 		.ascii	"\210\264Q\331\331\214\021\367x\250\347C=\364\206\017"
 975      D98C11F7 
 975      78A8E743 
 975      3DF4860F 
 976 1c5c 460C9478 		.ascii	"F\014\224x\002\271\377\000a\367\213\305\304h%\217\232"
 976      02B9FF00 
 976      61F78BC5 
 976      C468258F 
 976      9A
 977 1c6d 5866D6A0 		.ascii	"Xf\326\240\356\335\322\006\016\354\2236,\263wF\326\330"
 977      EEDDD206 
 977      0EEC9336 
 977      2CB37746 
 977      D6D8
 978 1c7f AE69C50A 		.ascii	"\256i\305\012Xj^\036\352\336\355\206AVza\301\310\334"
 978      586A5E1E 
 978      EADEED86 
 978      41567A61 
 978      C1C8DC
 979 1c92 5138D9C7 		.ascii	"Q8\331\307\237;\326\347\217)\"\204\256\221\206\320\220"
 979      9F3BD6E7 
 979      8F292284 
 979      AE9186D0 
 979      90
 980 1ca3 FDA36F6A 		.ascii	"\375\243oj,\211\010\312;l\360\200\301\003\262\022p:"
 980      2C8908CA 
 980      3B6CF080 
 980      C103B212 
 980      703A
 981 1cb5 336BC850 		.ascii	"3k\310P\334\2007\243o\357>\177v\343\202\267\241*\301"
 981      DC8037A3 
 981      6FEF3E7F 
 981      76E382B7 
 981      A12AC1
 982 1cc8 125A2909 		.ascii	"\022Z)\011\277\316z\316;\240\317\300\276\355\265\207"
 982      BFCE7ACE 
 982      3BA0CFC0 
 982      BEEDB587 
 983 1cd8 DEE95903 		.ascii	"\336\351Y\003\236\355\233\254=\246\017\0314t`\337\254"
 983      9EED9BAC 
 983      3DA60F19 
 983      347460DF 
 983      AC
 984 1ce9 BE71B41A 		.ascii	"\276q\264\032\206\360\033!2\364\020\031F\210\014\035"
 984      86F01B21 
 984      32F41019 
 984      46880C1D 
ARM GAS  /tmp/cc9RF4xZ.s 			page 78


 985 1cf9 04ADE6C9 		.ascii	"\004\255\346\311\306\354?\036\213g\320sZ\372\240\314"
 985      C6EC3F1E 
 985      8B67D073 
 985      5AFAA0CC 
 986 1d09 01992051 		.ascii	"\001\231 Q\320G~\367n#{t\351Z\202\372\376mX\262\336"
 986      D0477EF7 
 986      6E237B74 
 986      E95A82FA 
 986      FE6D58B2 
 987 1d1e 2C702F7D 		.ascii	",p/}|#\245\314\014\251O\206\374tF\206\234\236\321\025"
 987      7C23A5CC 
 987      0CA94F86 
 987      FC744686 
 987      9C9ED115 
 988 1d32 423708DD 		.ascii	"B7\010\335]\375\262\206f\270\213\003@o\\N\276\202\372"
 988      5DFDB286 
 988      66B88B03 
 988      406F5C4E 
 988      BE82FA
 989 1d45 CC334E95 		.ascii	"\3143N\225\210\343gz\224\224\220\366\275\200\203F\245"
 989      88E3677A 
 989      949490F6 
 989      BD808346 
 989      A5
 990 1d56 3E837A7B 		.ascii	">\203z{3\241\327)\371a\022\3223\\\203\373de\310C{g\270"
 990      33A1D729 
 990      F96112D2 
 990      335C83FB 
 990      6465C843 
 991 1d6d 06754151 		.ascii	"\006uAQ\327\336\031\3623\351\031\236\000.\350\312\035"
 991      D7DE19F2 
 991      33E9199E 
 991      002EE8CA 
 991      1D
 992 1d7e 99EDF7E4 		.ascii	"\231\355\367\344\006F\347\216DcO\336\310\334\202\034"
 992      0646E78E 
 992      44634FDE 
 992      C8DC821C 
 993 1d8e 5F8967AC 		.ascii	"_\211g\254/;X\350\357\024F\367\222\322`\266\360\340"
 993      2F3B58E8 
 993      EF1446F7 
 993      92D260B6 
 993      F0E0
 994 1da0 2F4171B0 		.ascii	"/Aq\260\004\373\336\256\217x\203\324\215\242\244\333"
 994      04FBDEAE 
 994      8F7883D4 
 994      8DA2A4DB 
 995 1db0 5F32A278 		.ascii	"_2\242xd<\322F\366\010\350\346\301\022\350r]\275\331"
 995      643CD246 
 995      F608E8E6 
 995      C112E872 
 995      5DBDD9
 996 1dc3 2348AA1B 		.ascii	"#H\252\033\244\342\375(\205\262p)\\\314_\202|\015\344"
 996      A4E2FD28 
 996      85B27029 
 996      5CCC5F82 
 996      7C0DE4
ARM GAS  /tmp/cc9RF4xZ.s 			page 79


 997 1dd6 61EBC1EE 		.ascii	"a\353\301\356\003rQ\332\207\336\243*~\364\332\035(\362"
 997      037251DA 
 997      87DEA32A 
 997      7EF4DA1D 
 997      28F2
 998 1de8 F972E46C 		.ascii	"\371r\344l\177W\010\335 t\367\214*B\236\3746\370\032"
 998      7F5708DD 
 998      2074F78C 
 998      2A429EFC 
 998      36F81A
 999 1dfb 5898AD04 		.ascii	"X\230\255\004s\013\013\274\301\366\272'\020\210+\230"
 999      730B0BBC 
 999      C1F6BA27 
 999      10882B98 
 1000 1e0b 0B1E2C0F 		.ascii	"\013\036,\017\036\203`\250\011y\205\005\243p*^\311#"
 1000      1E8360A8 
 1000      09798505 
 1000      A3702A5E 
 1000      C923
 1001 1e1d 59F10125 		.ascii	"Y\361\001%\230^X\014\375\021\241e\013\0119JP\031\204"
 1001      985E580C 
 1001      FD11A165 
 1001      0B09394A 
 1001      501984
 1002 1e30 BA762264 		.ascii	"\272v\"dd\370\262}\2507\304Az\030\220\344\001\016G\372"
 1002      64F8B27D 
 1002      A837C441 
 1002      7A1890E4 
 1002      010E47FA 
 1003 1e44 FC89E40B 		.ascii	"\374\211\344\013\327KR\262\203P\344i\234\023\237G\233"
 1003      D74B52B2 
 1003      8350E469 
 1003      9C139F47 
 1003      9B
 1004 1e55 4695B390 		.ascii	"F\225\263\220<\372\026\344\270\0213E\036\234\223\036"
 1004      3CFA16E4 
 1004      B8113345 
 1004      1E9C931E 
 1005 1e65 8F504B20 		.ascii	"\217PK \227&\374~\321\227\224=\372\351L_~f\356\250\002"
 1005      9726FC7E 
 1005      D197943D 
 1005      FAE94C5F 
 1005      7E66EEA8 
 1006 1e7a 254F1E11 		.ascii	"%O\036\021(J\306\357\322A.\017\025\241\256\325%!\234"
 1006      284AC6EF 
 1006      D2412E0F 
 1006      15A1AED5 
 1006      25219C
 1007 1e8d 2166B70F 		.ascii	"!f\267\017\200w\364\025d\373\220\242\301\255\366\033"
 1007      8077F415 
 1007      64FB90A2 
 1007      C1ADF61B 
 1008 1e9d 9AE9ED3D 		.ascii	"\232\351\355=pP\3743\003\236\363\366\351\235\325;\256"
 1008      7050FC33 
 1008      039EF3F6 
 1008      E99DD53B 
 1008      AE
ARM GAS  /tmp/cc9RF4xZ.s 			page 80


 1009 1eae 5FDF21DE 		.ascii	"_\337!\336\241C2\343\300\350\275\231\275\263\342!x\237"
 1009      A14332E3 
 1009      C0E8BD99 
 1009      BDB3E221 
 1009      789F
 1010 1ec0 1DD0F74F 		.ascii	"\035\320\367Oq\375\241\337\015\030\334/\001J\365\365"
 1010      71FDA1DF 
 1010      0D18DC2F 
 1010      014AF5F5 
 1011 1ed0 660D18D4 		.ascii	"f\015\030\324\327=$\253\177\337\014\367\260\301}\372"
 1011      D73D24AB 
 1011      7FDF0CF7 
 1011      B0C17DFA 
 1012 1ee0 3EF30B68 		.ascii	">\363\013hb\250\342\017\370\006\017\352\333\033A\223"
 1012      62A8E20F 
 1012      F8060FEA 
 1012      DB1B4193 
 1013 1ef0 A6BBC615 		.ascii	"\246\273\306\025\344\373\024\220\244\207\270\374x\354"
 1013      E4FB1490 
 1013      A487B8FC 
 1013      78EC
 1014 1efe BD5102CA 		.ascii	"\275Q\002\312g\006\241\310m:9\00198\273\260H\206\357"
 1014      6706A1C8 
 1014      6D3A3901 
 1014      3938BBB0 
 1014      4886EF
 1015 1f11 64163251 		.ascii	"d\0262Q\313x&\267\244\035\302\355\327\2577@\313 \265"
 1015      CB7826B7 
 1015      A41DC2ED 
 1015      D7AF3740 
 1015      CB20B5
 1016 1f24 0EF00A15 		.ascii	"\016\360\012\025K\037\355\313\036\023(\316G\034ga\367"
 1016      4B1FEDCB 
 1016      1E1328CE 
 1016      471C6761 
 1016      F7
 1017 1f35 2E2BFE51 		.ascii	".+\376QH\253\375|\301\201T\217\256\034_ \330\201\346"
 1017      48ABFD7C 
 1017      C181548F 
 1017      AE1C5F20 
 1017      D881E6
 1018 1f48 692AA565 		.ascii	"i*\245ezS\305\266#\217Y\240\377d\222\314\204\236\236"
 1018      7A53C5B6 
 1018      238F59A0 
 1018      FF6492CC 
 1018      849E9E
 1019 1f5b 97971BF4 		.ascii	"\227\227\033\364\00548\252,\230&ef\217\316\360\301|"
 1019      053438AA 
 1019      2C982665 
 1019      668FCEF0 
 1019      C17C
 1020 1f6d C797539C 		.ascii	"\307\227S\234\347\313\004\205\204\3651\300z2\342\207"
 1020      E7CB0485 
 1020      84F531C0 
 1020      7A32E287 
 1021 1f7d 41058D0E 		.ascii	"A\005\215\016\360\256\2408\017<}\320_\220\235_\004\317"
 1021      F0AEA038 
ARM GAS  /tmp/cc9RF4xZ.s 			page 81


 1021      0F3C7DD0 
 1021      5F909D5F 
 1021      04CF
 1022 1f8f 3038158E 		.ascii	"08\025\216s\345\371\224\221\256\242b\277\017\2334\026"
 1022      73E5F994 
 1022      91AEA262 
 1022      BF0F9B34 
 1022      16
 1023 1fa0 188C5C83 		.ascii	"\030\214\\\203\202%CF\374\035z\332\200\202\334`<ySX"
 1023      82254346 
 1023      FC1D7ADA 
 1023      8082DC60 
 1023      3C795358 
 1024 1fb4 1437B220 		.ascii	"\0247\262 \025\254<[\354\212\272hv\321\213\370K\011"
 1024      15AC3C5B 
 1024      EC8ABA68 
 1024      76D18BF8 
 1024      4B09
 1025 1fc6 B6C3E400 		.ascii	"\266\303\344\000}>4\005\203\344\237`\240\353\200S\021"
 1025      7D3E3405 
 1025      83E49F60 
 1025      A0EB8053 
 1025      11
 1026 1fd7 94448C3A 		.ascii	"\224D\214:\254\000d9&\001\247\201\2751\310\352\240\030"
 1026      AC006439 
 1026      2601A781 
 1026      BD31C8EA 
 1026      A018
 1027 1fe9 F46F7FBF 		.ascii	"\364o\177\277\242@\372\310Q2\230\313mz{\033\200\204"
 1027      A240FAC8 
 1027      513298CB 
 1027      6D7A7B1B 
 1027      8084
 1028 1ffb D13B2727 		.ascii	"\321;''\253"
 1028      AB
 1029 2000 9098F01D 		.ascii	"\220\230\360\035T\214\330\2523JH\246\333\3734\014c\011"
 1029      548CD8AA 
 1029      334A48A6 
 1029      DBFB340C 
 1029      6309
 1030 2012 813C9FAF 		.ascii	"\201<\237\257\010I4\016\334S\001p\236L\220\"T\270\203"
 1030      0849340E 
 1030      DC530170 
 1030      9E4C9022 
 1030      54B883
 1031 2025 CA185F41 		.ascii	"\312\030_A;\222\215\310L$IL\374\377\002\350\320B\333"
 1031      3B928DC8 
 1031      4C24494C 
 1031      FCFF02E8 
 1031      D042DB
 1032              		.text
 1033              		.section	.gnu.lto_.symtab.8abda428814c3751,"",%progbits
 1034 0000 67707353 		.ascii	"gpsSem\000\000\000\000\000\000\000\000\000\000\000\000"
 1034      656D0000 
 1034      00000000 
 1034      00000000 
 1034      0000
ARM GAS  /tmp/cc9RF4xZ.s 			page 82


 1035 0012 26030000 		.ascii	"&\003\000\000gpsStart\000\000\000\000\000\000\000\000"
 1035      67707353 
 1035      74617274 
 1035      00000000 
 1035      00000000 
 1036 0026 00000000 		.ascii	"\000\000\000\000\224\002\000\000gpsStop\000\000\000"
 1036      94020000 
 1036      67707353 
 1036      746F7000 
 1036      0000
 1037 0038 00000000 		.ascii	"\000\000\000\000\000\000\000\000\000\240\002\000\000"
 1037      00000000 
 1037      00A00200 
 1037      00
 1038 0045 67707350 		.ascii	"gpsParseNMEAType\000\000\000\000\000\000\000\000\000"
 1038      61727365 
 1038      4E4D4541 
 1038      54797065 
 1038      00000000 
 1039 005e 000000AB 		.ascii	"\000\000\000\253\002\000\000gpsParseFix\000\000\000"
 1039      02000067 
 1039      70735061 
 1039      72736546 
 1039      69780000 
 1040 0073 00000000 		.ascii	"\000\000\000\000\000\000\000\000\000\261\002\000\000"
 1040      00000000 
 1040      00B10200 
 1040      00
 1041 0080 6770734E 		.ascii	"gpsNMEAChecksum\000\000\000\000\000\000\000\000\000"
 1041      4D454143 
 1041      6865636B 
 1041      73756D00 
 1041      00000000 
 1042 0098 000000BB 		.ascii	"\000\000\000\273\002\000\000gpsThread\000\000\000\000"
 1042      02000067 
 1042      70735468 
 1042      72656164 
 1042      00000000 
 1043 00ac 00000000 		.ascii	"\000\000\000\000\000\000\000\000\301\002\000\000gps"
 1043      00000000 
 1043      C1020000 
 1043      677073
 1044 00bb 4765744C 		.ascii	"GetLatitude\000\000\000\000\000\000\000\000\000\000"
 1044      61746974 
 1044      75646500 
 1044      00000000 
 1044      00000000 
 1045 00d0 0000C802 		.ascii	"\000\000\310\002\000\000gpsGetLongitude\000\000\000"
 1045      00006770 
 1045      73476574 
 1045      4C6F6E67 
 1045      69747564 
 1046 00e8 00000000 		.ascii	"\000\000\000\000\000\000\000\000\000\317\002\000\000"
 1046      00000000 
 1046      00CF0200 
 1046      00
 1047 00f5 67707347 		.ascii	"gpsGetAltitude\000\000\000\000\000\000\000\000\000\000"
ARM GAS  /tmp/cc9RF4xZ.s 			page 83


 1047      6574416C 
 1047      74697475 
 1047      64650000 
 1047      00000000 
 1048 010d 0000D302 		.ascii	"\000\000\323\002\000\000gpsGetTime\000\000\000\000\000"
 1048      00006770 
 1048      73476574 
 1048      54696D65 
 1048      00000000 
 1049 0122 00000000 		.ascii	"\000\000\000\000\000\000\000\327\002\000\000gpsGetS"
 1049      000000D7 
 1049      02000067 
 1049      70734765 
 1049      7453
 1050 0134 6174656C 		.ascii	"atellites\000\000\000\000\000\000\000\000\000\000\000"
 1050      6C697465 
 1050      73000000 
 1050      00000000 
 1050      00000000 
 1051 0148 00DB0200 		.ascii	"\000\333\002\000\000gpsGetLocation\000\000\000\000\000"
 1051      00677073 
 1051      4765744C 
 1051      6F636174 
 1051      696F6E00 
 1052 0160 00000000 		.ascii	"\000\000\000\000\000\000\000\337\002\000\000chSchRe"
 1052      000000DF 
 1052      02000063 
 1052      68536368 
 1052      5265
 1053 0172 73636865 		.ascii	"scheduleS\000\000\002\000\000\000\000\000\000\000\000"
 1053      64756C65 
 1053      53000002 
 1053      00000000 
 1053      00000000 
 1054 0186 00E50200 		.ascii	"\000\345\002\000\000chSemSignalI\000\000\002\000\000"
 1054      00636853 
 1054      656D5369 
 1054      676E616C 
 1054      49000002 
 1055 019c 00000000 		.ascii	"\000\000\000\000\000\000\000\350\002\000\000uartSta"
 1055      000000E8 
 1055      02000075 
 1055      61727453 
 1055      7461
 1056 01ae 72740000 		.ascii	"rt\000\000\002\000\000\000\000\000\000\000\000\000\372"
 1056      02000000 
 1056      00000000 
 1056      0000FA
 1057 01bd 02000063 		.ascii	"\002\000\000chMtxObjectInit\000\000\002\000\000\000"
 1057      684D7478 
 1057      4F626A65 
 1057      6374496E 
 1057      69740000 
 1058 01d5 00000000 		.ascii	"\000\000\000\000\000\000\377\002\000\000uartStop\000"
 1058      0000FF02 
 1058      00007561 
 1058      72745374 
ARM GAS  /tmp/cc9RF4xZ.s 			page 84


 1058      6F7000
 1059 01e8 00020000 		.ascii	"\000\002\000\000\000\000\000\000\000\000\000\003\003"
 1059      00000000 
 1059      00000003 
 1059      03
 1060 01f5 00006368 		.ascii	"\000\000chSemReset\000\000\002\000\000\000\000\000\000"
 1060      53656D52 
 1060      65736574 
 1060      00000200 
 1060      00000000 
 1061 020a 00000017 		.ascii	"\000\000\000\027\003\000\000chSemWait\000\000\002\000"
 1061      03000063 
 1061      6853656D 
 1061      57616974 
 1061      00000200 
 1062 021e 00000000 		.ascii	"\000\000\000\000\000\000\000\000\034\003\000\000chS"
 1062      00000000 
 1062      1C030000 
 1062      636853
 1063 022d 656D4F62 		.ascii	"emObjectInit\000\000\002\000\000\000\000\000\000\000"
 1063      6A656374 
 1063      496E6974 
 1063      00000200 
 1063      00000000 
 1064 0243 00002003 		.ascii	"\000\000 \003\000\000chMtxUnlock\000\000\002\000\000"
 1064      00006368 
 1064      4D747855 
 1064      6E6C6F63 
 1064      6B000002 
 1065 0259 00000000 		.ascii	"\000\000\000\000\000\000\000\"\003\000\000chMtxLock"
 1065      00000022 
 1065      03000063 
 1065      684D7478 
 1065      4C6F636B 
 1066 026d 00000200 		.ascii	"\000\000\002\000\000\000\000\000\000\000\000\000$\003"
 1066      00000000 
 1066      00000000 
 1066      2403
 1067 027b 0000     		.ascii	"\000\000"
 1068              		.text
 1069              		.section	.gnu.lto_.opts,"",%progbits
 1070 0000 272D6D63 		.ascii	"'-mcpu=cortex-m4' '-mfloat-abi=hard' '-mfpu=fpv4-sp"
 1070      70753D63 
 1070      6F727465 
 1070      782D6D34 
 1070      2720272D 
 1071 0033 2D643136 		.ascii	"-d16' '-mno-thumb-interwork' '-mthumb' '-O2' '-fomi"
 1071      2720272D 
 1071      6D6E6F2D 
 1071      7468756D 
 1071      622D696E 
 1072 0066 742D6672 		.ascii	"t-frame-pointer' '-falign-functions=16' '-ffunction"
 1072      616D652D 
 1072      706F696E 
 1072      74657227 
 1072      20272D66 
 1073 0099 2D736563 		.ascii	"-sections' '-fdata-sections' '-fno-common' '-flto' "
ARM GAS  /tmp/cc9RF4xZ.s 			page 85


 1073      74696F6E 
 1073      73272027 
 1073      2D666461 
 1073      74612D73 
 1074 00cc 272D6673 		.ascii	"'-fsingle-precision-constant'\000"
 1074      696E676C 
 1074      652D7072 
 1074      65636973 
 1074      696F6E2D 
 1075              		.text
 1076              		.section	.text.gpsTxbufEnd,"ax",%progbits
 1077              		.align	2
 1078              		.p2align 4,,15
 1079              		.thumb
 1080              		.thumb_func
 1081              		.type	gpsTxbufEnd, %function
 1082              	gpsTxbufEnd:
 1083              		@ args = 0, pretend = 0, frame = 0
 1084              		@ frame_needed = 0, uses_anonymous_args = 0
 1085              		@ link register save eliminated.
 1086 0000 7047     		bx	lr
 1087              		.size	gpsTxbufEnd, .-gpsTxbufEnd
 1088 0002 00BFAFF3 		.section	.text.gpsTxC,"ax",%progbits
 1088      0080AFF3 
 1088      0080AFF3 
 1088      0080
 1089              		.align	2
 1090              		.p2align 4,,15
 1091              		.thumb
 1092              		.thumb_func
 1093              		.type	gpsTxC, %function
 1094              	gpsTxC:
 1095              		@ args = 0, pretend = 0, frame = 0
 1096              		@ frame_needed = 0, uses_anonymous_args = 0
 1097              		@ link register save eliminated.
 1098 0000 7047     		bx	lr
 1099              		.size	gpsTxC, .-gpsTxC
 1100 0002 00BFAFF3 		.section	.text.gpsRxEnd,"ax",%progbits
 1100      0080AFF3 
 1100      0080AFF3 
 1100      0080
 1101              		.align	2
 1102              		.p2align 4,,15
 1103              		.thumb
 1104              		.thumb_func
 1105              		.type	gpsRxEnd, %function
 1106              	gpsRxEnd:
 1107              		@ args = 0, pretend = 0, frame = 0
 1108              		@ frame_needed = 0, uses_anonymous_args = 0
 1109              		@ link register save eliminated.
 1110 0000 7047     		bx	lr
 1111              		.size	gpsRxEnd, .-gpsRxEnd
 1112 0002 00BFAFF3 		.section	.text.gpsRxErr,"ax",%progbits
 1112      0080AFF3 
 1112      0080AFF3 
 1112      0080
 1113              		.align	2
ARM GAS  /tmp/cc9RF4xZ.s 			page 86


 1114              		.p2align 4,,15
 1115              		.thumb
 1116              		.thumb_func
 1117              		.type	gpsRxErr, %function
 1118              	gpsRxErr:
 1119              		@ args = 0, pretend = 0, frame = 0
 1120              		@ frame_needed = 0, uses_anonymous_args = 0
 1121              		@ link register save eliminated.
 1122 0000 7047     		bx	lr
 1123              		.size	gpsRxErr, .-gpsRxErr
 1124 0002 00BFAFF3 		.section	.text.gpsRxChar,"ax",%progbits
 1124      0080AFF3 
 1124      0080AFF3 
 1124      0080
 1125              		.align	2
 1126              		.p2align 4,,15
 1127              		.thumb
 1128              		.thumb_func
 1129              		.type	gpsRxChar, %function
 1130              	gpsRxChar:
 1131              		@ args = 0, pretend = 0, frame = 0
 1132              		@ frame_needed = 0, uses_anonymous_args = 0
 1133 0000 10B5     		push	{r4, lr}
 1134 0002 174B     		ldr	r3, .L13
 1135 0004 0A29     		cmp	r1, #10
 1136 0006 93F8A820 		ldrb	r2, [r3, #168]	@ zero_extendqisi2
 1137 000a 0CD0     		beq	.L11
 1138 000c 512A     		cmp	r2, #81
 1139 000e 09D8     		bhi	.L5
 1140 0010 93F8A900 		ldrb	r0, [r3, #169]	@ zero_extendqisi2
 1141 0014 5224     		movs	r4, #82
 1142 0016 04FB0030 		mla	r0, r4, r0, r3
 1143 001a 0430     		adds	r0, r0, #4
 1144 001c 541C     		adds	r4, r2, #1
 1145 001e 83F8A840 		strb	r4, [r3, #168]
 1146 0022 8154     		strb	r1, [r0, r2]
 1147              	.L5:
 1148 0024 10BD     		pop	{r4, pc}
 1149              	.L11:
 1150 0026 512A     		cmp	r2, #81
 1151 0028 0AD8     		bhi	.L7
 1152 002a 93F8A910 		ldrb	r1, [r3, #169]	@ zero_extendqisi2
 1153 002e 5220     		movs	r0, #82
 1154 0030 00FB0131 		mla	r1, r0, r1, r3
 1155 0034 0431     		adds	r1, r1, #4
 1156 0036 541C     		adds	r4, r2, #1
 1157 0038 0020     		movs	r0, #0
 1158 003a 83F8A840 		strb	r4, [r3, #168]
 1159 003e 8854     		strb	r0, [r1, r2]
 1160              	.L7:
 1161 0040 2023     		movs	r3, #32
 1162              	@ 546 "/home/cody/dev/chibios/trunk/os/ext/CMSIS/include/core_cmFunc.h" 1
 1163 0042 83F31188 		MSR basepri, r3
 1164              	@ 0 "" 2
 1165              		.thumb
 1166 0046 0748     		ldr	r0, .L13+4
 1167 0048 8368     		ldr	r3, [r0, #8]
ARM GAS  /tmp/cc9RF4xZ.s 			page 87


 1168 004a 002B     		cmp	r3, #0
 1169 004c 05DD     		ble	.L12
 1170              	.L8:
 1171 004e FFF7FEFF 		bl	chSchRescheduleS
 1172 0052 0023     		movs	r3, #0
 1173              	@ 546 "/home/cody/dev/chibios/trunk/os/ext/CMSIS/include/core_cmFunc.h" 1
 1174 0054 83F31188 		MSR basepri, r3
 1175              	@ 0 "" 2
 1176              		.thumb
 1177 0058 10BD     		pop	{r4, pc}
 1178              	.L12:
 1179 005a FFF7FEFF 		bl	chSemSignalI
 1180 005e F6E7     		b	.L8
 1181              	.L14:
 1182              		.align	2
 1183              	.L13:
 1184 0060 00000000 		.word	.LANCHOR0
 1185 0064 00000000 		.word	.LANCHOR1
 1186              		.size	gpsRxChar, .-gpsRxChar
 1187 0068 AFF30080 		.section	.text.gpsStart,"ax",%progbits
 1187      AFF30080 
 1188              		.align	2
 1189              		.p2align 4,,15
 1190              		.global	gpsStart
 1191              		.thumb
 1192              		.thumb_func
 1193              		.type	gpsStart, %function
 1194              	gpsStart:
 1195              		@ args = 0, pretend = 0, frame = 0
 1196              		@ frame_needed = 0, uses_anonymous_args = 0
 1197 0000 10B5     		push	{r4, lr}
 1198 0002 0346     		mov	r3, r0
 1199 0004 60B1     		cbz	r0, .L17
 1200 0006 074C     		ldr	r4, .L18
 1201 0008 2046     		mov	r0, r4
 1202 000a 40F8E03B 		str	r3, [r0], #224
 1203 000e FFF7FEFF 		bl	chMtxObjectInit
 1204 0012 2068     		ldr	r0, [r4]
 1205 0014 0449     		ldr	r1, .L18+4
 1206 0016 FFF7FEFF 		bl	uartStart
 1207 001a 0020     		movs	r0, #0
 1208              	.L16:
 1209 001c 40B2     		sxtb	r0, r0
 1210 001e 10BD     		pop	{r4, pc}
 1211              	.L17:
 1212 0020 FF20     		movs	r0, #255
 1213 0022 FBE7     		b	.L16
 1214              	.L19:
 1215              		.align	2
 1216              	.L18:
 1217 0024 00000000 		.word	.LANCHOR0
 1218 0028 00000000 		.word	.LANCHOR2
 1219              		.size	gpsStart, .-gpsStart
 1220 002c AFF30080 		.section	.text.gpsStop,"ax",%progbits
 1221              		.align	2
 1222              		.p2align 4,,15
 1223              		.global	gpsStop
ARM GAS  /tmp/cc9RF4xZ.s 			page 88


 1224              		.thumb
 1225              		.thumb_func
 1226              		.type	gpsStop, %function
 1227              	gpsStop:
 1228              		@ args = 0, pretend = 0, frame = 0
 1229              		@ frame_needed = 0, uses_anonymous_args = 0
 1230 0000 08B5     		push	{r3, lr}
 1231 0002 0068     		ldr	r0, [r0]
 1232 0004 FFF7FEFF 		bl	uartStop
 1233 0008 0020     		movs	r0, #0
 1234 000a 08BD     		pop	{r3, pc}
 1235              		.size	gpsStop, .-gpsStop
 1236 000c AFF30080 		.section	.text.gpsParseNMEAType,"ax",%progbits
 1237              		.align	2
 1238              		.p2align 4,,15
 1239              		.global	gpsParseNMEAType
 1240              		.thumb
 1241              		.thumb_func
 1242              		.type	gpsParseNMEAType, %function
 1243              	gpsParseNMEAType:
 1244              		@ args = 0, pretend = 0, frame = 0
 1245              		@ frame_needed = 0, uses_anonymous_args = 0
 1246 0000 10B5     		push	{r4, lr}
 1247 0002 0378     		ldrb	r3, [r0]	@ zero_extendqisi2
 1248 0004 242B     		cmp	r3, #36
 1249 0006 0446     		mov	r4, r0
 1250 0008 01D0     		beq	.L33
 1251 000a 0820     		movs	r0, #8
 1252 000c 10BD     		pop	{r4, pc}
 1253              	.L33:
 1254 000e 0130     		adds	r0, r0, #1
 1255 0010 2049     		ldr	r1, .L39
 1256 0012 0222     		movs	r2, #2
 1257 0014 FFF7FEFF 		bl	strncmp
 1258 0018 08B1     		cbz	r0, .L34
 1259 001a 0720     		movs	r0, #7
 1260              	.L22:
 1261 001c 10BD     		pop	{r4, pc}
 1262              	.L34:
 1263 001e 0334     		adds	r4, r4, #3
 1264 0020 2046     		mov	r0, r4
 1265 0022 1D49     		ldr	r1, .L39+4
 1266 0024 0322     		movs	r2, #3
 1267 0026 FFF7FEFF 		bl	strncmp
 1268 002a 0028     		cmp	r0, #0
 1269 002c F6D0     		beq	.L22
 1270 002e 2046     		mov	r0, r4
 1271 0030 1A49     		ldr	r1, .L39+8
 1272 0032 0322     		movs	r2, #3
 1273 0034 FFF7FEFF 		bl	strncmp
 1274 0038 38B1     		cbz	r0, .L27
 1275 003a 2046     		mov	r0, r4
 1276 003c 1849     		ldr	r1, .L39+12
 1277 003e 0322     		movs	r2, #3
 1278 0040 FFF7FEFF 		bl	strncmp
 1279 0044 18B9     		cbnz	r0, .L35
 1280 0046 0220     		movs	r0, #2
ARM GAS  /tmp/cc9RF4xZ.s 			page 89


 1281 0048 10BD     		pop	{r4, pc}
 1282              	.L27:
 1283 004a 0120     		movs	r0, #1
 1284 004c 10BD     		pop	{r4, pc}
 1285              	.L35:
 1286 004e 2046     		mov	r0, r4
 1287 0050 1449     		ldr	r1, .L39+16
 1288 0052 0322     		movs	r2, #3
 1289 0054 FFF7FEFF 		bl	strncmp
 1290 0058 08B9     		cbnz	r0, .L36
 1291 005a 0320     		movs	r0, #3
 1292 005c 10BD     		pop	{r4, pc}
 1293              	.L36:
 1294 005e 2046     		mov	r0, r4
 1295 0060 1149     		ldr	r1, .L39+20
 1296 0062 0322     		movs	r2, #3
 1297 0064 FFF7FEFF 		bl	strncmp
 1298 0068 08B9     		cbnz	r0, .L37
 1299 006a 0420     		movs	r0, #4
 1300 006c 10BD     		pop	{r4, pc}
 1301              	.L37:
 1302 006e 2046     		mov	r0, r4
 1303 0070 0E49     		ldr	r1, .L39+24
 1304 0072 0322     		movs	r2, #3
 1305 0074 FFF7FEFF 		bl	strncmp
 1306 0078 08B9     		cbnz	r0, .L38
 1307 007a 0520     		movs	r0, #5
 1308 007c 10BD     		pop	{r4, pc}
 1309              	.L38:
 1310 007e 2046     		mov	r0, r4
 1311 0080 0B49     		ldr	r1, .L39+28
 1312 0082 0322     		movs	r2, #3
 1313 0084 FFF7FEFF 		bl	strncmp
 1314 0088 0028     		cmp	r0, #0
 1315 008a 14BF     		ite	ne
 1316 008c 0720     		movne	r0, #7
 1317 008e 0620     		moveq	r0, #6
 1318 0090 10BD     		pop	{r4, pc}
 1319              	.L40:
 1320 0092 00BF     		.align	2
 1321              	.L39:
 1322 0094 00000000 		.word	.LC0
 1323 0098 04000000 		.word	.LC1
 1324 009c 08000000 		.word	.LC2
 1325 00a0 0C000000 		.word	.LC3
 1326 00a4 10000000 		.word	.LC4
 1327 00a8 14000000 		.word	.LC5
 1328 00ac 18000000 		.word	.LC6
 1329 00b0 1C000000 		.word	.LC7
 1330              		.size	gpsParseNMEAType, .-gpsParseNMEAType
 1331 00b4 AFF30080 		.section	.text.gpsParseFix,"ax",%progbits
 1331      AFF30080 
 1331      AFF30080 
 1332              		.align	2
 1333              		.p2align 4,,15
 1334              		.global	gpsParseFix
 1335              		.thumb
ARM GAS  /tmp/cc9RF4xZ.s 			page 90


 1336              		.thumb_func
 1337              		.type	gpsParseFix, %function
 1338              	gpsParseFix:
 1339              		@ args = 0, pretend = 0, frame = 24
 1340              		@ frame_needed = 0, uses_anonymous_args = 0
 1341 0000 2DE9F04F 		push	{r4, r5, r6, r7, r8, r9, r10, fp, lr}
 1342 0004 0322     		movs	r2, #3
 1343 0006 87B0     		sub	sp, sp, #28
 1344 0008 8246     		mov	r10, r0
 1345 000a 0E46     		mov	r6, r1
 1346 000c 0330     		adds	r0, r0, #3
 1347 000e 4F49     		ldr	r1, .L69
 1348 0010 FFF7FEFF 		bl	strncmp
 1349 0014 0028     		cmp	r0, #0
 1350 0016 40F09780 		bne	.L61
 1351 001a 4FF00709 		mov	r9, #7
 1352 001e 4FF0020B 		mov	fp, #2
 1353 0022 1AF80930 		ldrb	r3, [r10, r9]	@ zero_extendqisi2
 1354 0026 0BF1FF31 		add	r1, fp, #-1
 1355 002a 2C2B     		cmp	r3, #44
 1356 002c 0746     		mov	r7, r0
 1357 002e 06F13208 		add	r8, r6, #50
 1358 0032 C9B2     		uxtb	r1, r1
 1359 0034 33D0     		beq	.L63
 1360              	.L68:
 1361 0036 002B     		cmp	r3, #0
 1362 0038 00F08380 		beq	.L64
 1363 003c 0DF10305 		add	r5, sp, #3
 1364 0040 0022     		movs	r2, #0
 1365              	.L59:
 1366 0042 0132     		adds	r2, r2, #1
 1367 0044 D2B2     		uxtb	r2, r2
 1368 0046 09EB0204 		add	r4, r9, r2
 1369 004a E4B2     		uxtb	r4, r4
 1370 004c 05F8013F 		strb	r3, [r5, #1]!
 1371 0050 1AF80430 		ldrb	r3, [r10, r4]	@ zero_extendqisi2
 1372 0054 2C2B     		cmp	r3, #44
 1373 0056 02D0     		beq	.L45
 1374 0058 0BB1     		cbz	r3, .L45
 1375 005a 102A     		cmp	r2, #16
 1376 005c F1D1     		bne	.L59
 1377              	.L45:
 1378 005e 06AB     		add	r3, sp, #24
 1379 0060 1A44     		add	r2, r2, r3
 1380 0062 0134     		adds	r4, r4, #1
 1381 0064 0139     		subs	r1, r1, #1
 1382 0066 02F8147C 		strb	r7, [r2, #-20]
 1383 006a 5FFA84F9 		uxtb	r9, r4
 1384 006e 0829     		cmp	r1, #8
 1385 0070 18D8     		bhi	.L48
 1386 0072 DFE801F0 		tbb	[pc, r1]
 1387              	.L50:
 1388 0076 34       		.byte	(.L49-.L50)/2
 1389 0077 2E       		.byte	(.L51-.L50)/2
 1390 0078 28       		.byte	(.L52-.L50)/2
 1391 0079 22       		.byte	(.L53-.L50)/2
 1392 007a 1C       		.byte	(.L54-.L50)/2
ARM GAS  /tmp/cc9RF4xZ.s 			page 91


 1393 007b 17       		.byte	(.L48-.L50)/2
 1394 007c 05       		.byte	(.L55-.L50)/2
 1395 007d 17       		.byte	(.L48-.L50)/2
 1396 007e 5C       		.byte	(.L56-.L50)/2
 1397 007f 00       		.p2align 1
 1398              	.L55:
 1399 0080 4046     		mov	r0, r8
 1400 0082 01A9     		add	r1, sp, #4
 1401 0084 FFF7FEFF 		bl	strcpy
 1402              	.L60:
 1403 0088 0BF1010B 		add	fp, fp, #1
 1404 008c 1AF80930 		ldrb	r3, [r10, r9]	@ zero_extendqisi2
 1405 0090 5FFA8BFB 		uxtb	fp, fp
 1406 0094 0BF1FF31 		add	r1, fp, #-1
 1407 0098 2C2B     		cmp	r3, #44
 1408 009a C9B2     		uxtb	r1, r1
 1409 009c CBD1     		bne	.L68
 1410              	.L63:
 1411 009e 4C46     		mov	r4, r9
 1412 00a0 0022     		movs	r2, #0
 1413 00a2 DCE7     		b	.L45
 1414              	.L48:
 1415 00a4 BBF10A0F 		cmp	fp, #10
 1416 00a8 EED1     		bne	.L60
 1417 00aa 0020     		movs	r0, #0
 1418 00ac 45E0     		b	.L42
 1419              	.L54:
 1420 00ae 06F11B00 		add	r0, r6, #27
 1421 00b2 01A9     		add	r1, sp, #4
 1422 00b4 FFF7FEFF 		bl	strcat
 1423 00b8 E6E7     		b	.L60
 1424              	.L53:
 1425 00ba 06F11B00 		add	r0, r6, #27
 1426 00be 01A9     		add	r1, sp, #4
 1427 00c0 FFF7FEFF 		bl	strcpy
 1428 00c4 E0E7     		b	.L60
 1429              	.L52:
 1430 00c6 06F10C00 		add	r0, r6, #12
 1431 00ca 01A9     		add	r1, sp, #4
 1432 00cc FFF7FEFF 		bl	strcat
 1433 00d0 DAE7     		b	.L60
 1434              	.L51:
 1435 00d2 06F10C00 		add	r0, r6, #12
 1436 00d6 01A9     		add	r1, sp, #4
 1437 00d8 FFF7FEFF 		bl	strcpy
 1438 00dc D4E7     		b	.L60
 1439              	.L49:
 1440 00de 0123     		movs	r3, #1
 1441 00e0 1B78     		ldrb	r3, [r3]	@ zero_extendqisi2
 1442 00e2 FBB1     		cbz	r3, .L57
 1443 00e4 9DF80430 		ldrb	r3, [sp, #4]	@ zero_extendqisi2
 1444 00e8 9DF80500 		ldrb	r0, [sp, #5]	@ zero_extendqisi2
 1445 00ec 9DF806C0 		ldrb	ip, [sp, #6]	@ zero_extendqisi2
 1446 00f0 9DF807E0 		ldrb	lr, [sp, #7]	@ zero_extendqisi2
 1447 00f4 9DF80850 		ldrb	r5, [sp, #8]	@ zero_extendqisi2
 1448 00f8 9DF80940 		ldrb	r4, [sp, #9]	@ zero_extendqisi2
 1449 00fc 9DF80B10 		ldrb	r1, [sp, #11]	@ zero_extendqisi2
ARM GAS  /tmp/cc9RF4xZ.s 			page 92


 1450 0100 9DF80C20 		ldrb	r2, [sp, #12]	@ zero_extendqisi2
 1451 0104 3370     		strb	r3, [r6]
 1452 0106 7070     		strb	r0, [r6, #1]
 1453 0108 3A23     		movs	r3, #58
 1454 010a 2E20     		movs	r0, #46
 1455 010c F772     		strb	r7, [r6, #11]
 1456 010e B370     		strb	r3, [r6, #2]
 1457 0110 7371     		strb	r3, [r6, #5]
 1458 0112 86F803C0 		strb	ip, [r6, #3]
 1459 0116 86F804E0 		strb	lr, [r6, #4]
 1460 011a B571     		strb	r5, [r6, #6]
 1461 011c F471     		strb	r4, [r6, #7]
 1462 011e 3072     		strb	r0, [r6, #8]
 1463 0120 7172     		strb	r1, [r6, #9]
 1464 0122 B272     		strb	r2, [r6, #10]
 1465              	.L57:
 1466 0124 3046     		mov	r0, r6
 1467 0126 01A9     		add	r1, sp, #4
 1468 0128 FFF7FEFF 		bl	strcpy
 1469 012c ACE7     		b	.L60
 1470              	.L56:
 1471 012e 06F12A00 		add	r0, r6, #42
 1472 0132 01A9     		add	r1, sp, #4
 1473 0134 FFF7FEFF 		bl	strcpy
 1474 0138 0020     		movs	r0, #0
 1475              	.L42:
 1476 013a 40B2     		sxtb	r0, r0
 1477 013c 07B0     		add	sp, sp, #28
 1478              		@ sp needed
 1479 013e BDE8F08F 		pop	{r4, r5, r6, r7, r8, r9, r10, fp, pc}
 1480              	.L64:
 1481 0142 1A46     		mov	r2, r3
 1482 0144 4C46     		mov	r4, r9
 1483 0146 8AE7     		b	.L45
 1484              	.L61:
 1485 0148 FF20     		movs	r0, #255
 1486 014a F6E7     		b	.L42
 1487              	.L70:
 1488              		.align	2
 1489              	.L69:
 1490 014c 08000000 		.word	.LC2
 1491              		.size	gpsParseFix, .-gpsParseFix
 1492              		.section	.text.gpsNMEAChecksum,"ax",%progbits
 1493              		.align	2
 1494              		.p2align 4,,15
 1495              		.global	gpsNMEAChecksum
 1496              		.thumb
 1497              		.thumb_func
 1498              		.type	gpsNMEAChecksum, %function
 1499              	gpsNMEAChecksum:
 1500              		@ args = 0, pretend = 0, frame = 0
 1501              		@ frame_needed = 0, uses_anonymous_args = 0
 1502              		@ link register save eliminated.
 1503 0000 4378     		ldrb	r3, [r0, #1]	@ zero_extendqisi2
 1504 0002 421C     		adds	r2, r0, #1
 1505 0004 3BB1     		cbz	r3, .L74
 1506 0006 0020     		movs	r0, #0
ARM GAS  /tmp/cc9RF4xZ.s 			page 93


 1507              	.L73:
 1508 0008 5840     		eors	r0, r0, r3
 1509 000a 12F8013F 		ldrb	r3, [r2, #1]!	@ zero_extendqisi2
 1510 000e C0B2     		uxtb	r0, r0
 1511 0010 002B     		cmp	r3, #0
 1512 0012 F9D1     		bne	.L73
 1513 0014 7047     		bx	lr
 1514              	.L74:
 1515 0016 1846     		mov	r0, r3
 1516 0018 7047     		bx	lr
 1517              		.size	gpsNMEAChecksum, .-gpsNMEAChecksum
 1518 001a 00BFAFF3 		.section	.text.gpsThread,"ax",%progbits
 1518      0080
 1519              		.align	2
 1520              		.p2align 4,,15
 1521              		.global	gpsThread
 1522              		.thumb
 1523              		.thumb_func
 1524              		.type	gpsThread, %function
 1525              	gpsThread:
 1526              		@ args = 0, pretend = 0, frame = 0
 1527              		@ frame_needed = 0, uses_anonymous_args = 0
 1528 0000 F8B5     		push	{r3, r4, r5, r6, r7, lr}
 1529 0002 0121     		movs	r1, #1
 1530 0004 0646     		mov	r6, r0
 1531 0006 1248     		ldr	r0, .L84
 1532 0008 124C     		ldr	r4, .L84+4
 1533 000a FFF7FEFF 		bl	chSemObjectInit
 1534 000e 5227     		movs	r7, #82
 1535 0010 0FE0     		b	.L81
 1536              	.L82:
 1537 0012 FFF7FEFF 		bl	chSemWait
 1538 0016 0E48     		ldr	r0, .L84
 1539 0018 0121     		movs	r1, #1
 1540 001a FFF7FEFF 		bl	chSemReset
 1541 001e 94F8A950 		ldrb	r5, [r4, #169]	@ zero_extendqisi2
 1542 0022 07FB0545 		mla	r5, r7, r5, r4
 1543 0026 0435     		adds	r5, r5, #4
 1544 0028 2846     		mov	r0, r5
 1545 002a FFF7FEFF 		bl	gpsParseNMEAType
 1546 002e 0128     		cmp	r0, #1
 1547 0030 08D0     		beq	.L83
 1548              	.L81:
 1549 0032 B378     		ldrb	r3, [r6, #2]	@ zero_extendqisi2
 1550 0034 0648     		ldr	r0, .L84
 1551 0036 002B     		cmp	r3, #0
 1552 0038 EBD1     		bne	.L82
 1553 003a 2068     		ldr	r0, [r4]
 1554 003c FFF7FEFF 		bl	uartStop
 1555 0040 0020     		movs	r0, #0
 1556 0042 F8BD     		pop	{r3, r4, r5, r6, r7, pc}
 1557              	.L83:
 1558 0044 2846     		mov	r0, r5
 1559 0046 0449     		ldr	r1, .L84+8
 1560 0048 FFF7FEFF 		bl	gpsParseFix
 1561 004c F1E7     		b	.L81
 1562              	.L85:
ARM GAS  /tmp/cc9RF4xZ.s 			page 94


 1563 004e 00BF     		.align	2
 1564              	.L84:
 1565 0050 00000000 		.word	.LANCHOR1
 1566 0054 00000000 		.word	.LANCHOR0
 1567 0058 AA000000 		.word	.LANCHOR0+170
 1568              		.size	gpsThread, .-gpsThread
 1569 005c AFF30080 		.section	.text.gpsGetLatitude,"ax",%progbits
 1570              		.align	2
 1571              		.p2align 4,,15
 1572              		.global	gpsGetLatitude
 1573              		.thumb
 1574              		.thumb_func
 1575              		.type	gpsGetLatitude, %function
 1576              	gpsGetLatitude:
 1577              		@ args = 0, pretend = 0, frame = 0
 1578              		@ frame_needed = 0, uses_anonymous_args = 0
 1579 0000 70B5     		push	{r4, r5, r6, lr}
 1580 0002 084D     		ldr	r5, .L87
 1581 0004 05F1E004 		add	r4, r5, #224
 1582 0008 0646     		mov	r6, r0
 1583 000a 2046     		mov	r0, r4
 1584 000c FFF7FEFF 		bl	chMtxLock
 1585 0010 3046     		mov	r0, r6
 1586 0012 05F1B601 		add	r1, r5, #182
 1587 0016 FFF7FEFF 		bl	strcpy
 1588 001a 2046     		mov	r0, r4
 1589 001c BDE87040 		pop	{r4, r5, r6, lr}
 1590 0020 FFF7FEBF 		b	chMtxUnlock
 1591              	.L88:
 1592              		.align	2
 1593              	.L87:
 1594 0024 00000000 		.word	.LANCHOR0
 1595              		.size	gpsGetLatitude, .-gpsGetLatitude
 1596 0028 AFF30080 		.section	.text.gpsGetLongitude,"ax",%progbits
 1596      AFF30080 
 1597              		.align	2
 1598              		.p2align 4,,15
 1599              		.global	gpsGetLongitude
 1600              		.thumb
 1601              		.thumb_func
 1602              		.type	gpsGetLongitude, %function
 1603              	gpsGetLongitude:
 1604              		@ args = 0, pretend = 0, frame = 0
 1605              		@ frame_needed = 0, uses_anonymous_args = 0
 1606 0000 70B5     		push	{r4, r5, r6, lr}
 1607 0002 084D     		ldr	r5, .L90
 1608 0004 05F1E004 		add	r4, r5, #224
 1609 0008 0646     		mov	r6, r0
 1610 000a 2046     		mov	r0, r4
 1611 000c FFF7FEFF 		bl	chMtxLock
 1612 0010 3046     		mov	r0, r6
 1613 0012 05F1C501 		add	r1, r5, #197
 1614 0016 FFF7FEFF 		bl	strcpy
 1615 001a 2046     		mov	r0, r4
 1616 001c BDE87040 		pop	{r4, r5, r6, lr}
 1617 0020 FFF7FEBF 		b	chMtxUnlock
 1618              	.L91:
ARM GAS  /tmp/cc9RF4xZ.s 			page 95


 1619              		.align	2
 1620              	.L90:
 1621 0024 00000000 		.word	.LANCHOR0
 1622              		.size	gpsGetLongitude, .-gpsGetLongitude
 1623 0028 AFF30080 		.section	.text.gpsGetAltitude,"ax",%progbits
 1623      AFF30080 
 1624              		.align	2
 1625              		.p2align 4,,15
 1626              		.global	gpsGetAltitude
 1627              		.thumb
 1628              		.thumb_func
 1629              		.type	gpsGetAltitude, %function
 1630              	gpsGetAltitude:
 1631              		@ args = 0, pretend = 0, frame = 0
 1632              		@ frame_needed = 0, uses_anonymous_args = 0
 1633 0000 70B5     		push	{r4, r5, r6, lr}
 1634 0002 084D     		ldr	r5, .L93
 1635 0004 05F1E004 		add	r4, r5, #224
 1636 0008 0646     		mov	r6, r0
 1637 000a 2046     		mov	r0, r4
 1638 000c FFF7FEFF 		bl	chMtxLock
 1639 0010 3046     		mov	r0, r6
 1640 0012 05F1D401 		add	r1, r5, #212
 1641 0016 FFF7FEFF 		bl	strcpy
 1642 001a 2046     		mov	r0, r4
 1643 001c BDE87040 		pop	{r4, r5, r6, lr}
 1644 0020 FFF7FEBF 		b	chMtxUnlock
 1645              	.L94:
 1646              		.align	2
 1647              	.L93:
 1648 0024 00000000 		.word	.LANCHOR0
 1649              		.size	gpsGetAltitude, .-gpsGetAltitude
 1650 0028 AFF30080 		.section	.text.gpsGetTime,"ax",%progbits
 1650      AFF30080 
 1651              		.align	2
 1652              		.p2align 4,,15
 1653              		.global	gpsGetTime
 1654              		.thumb
 1655              		.thumb_func
 1656              		.type	gpsGetTime, %function
 1657              	gpsGetTime:
 1658              		@ args = 0, pretend = 0, frame = 0
 1659              		@ frame_needed = 0, uses_anonymous_args = 0
 1660 0000 70B5     		push	{r4, r5, r6, lr}
 1661 0002 084D     		ldr	r5, .L96
 1662 0004 05F1E004 		add	r4, r5, #224
 1663 0008 0646     		mov	r6, r0
 1664 000a 2046     		mov	r0, r4
 1665 000c FFF7FEFF 		bl	chMtxLock
 1666 0010 3046     		mov	r0, r6
 1667 0012 05F1AA01 		add	r1, r5, #170
 1668 0016 FFF7FEFF 		bl	strcpy
 1669 001a 2046     		mov	r0, r4
 1670 001c BDE87040 		pop	{r4, r5, r6, lr}
 1671 0020 FFF7FEBF 		b	chMtxUnlock
 1672              	.L97:
 1673              		.align	2
ARM GAS  /tmp/cc9RF4xZ.s 			page 96


 1674              	.L96:
 1675 0024 00000000 		.word	.LANCHOR0
 1676              		.size	gpsGetTime, .-gpsGetTime
 1677 0028 AFF30080 		.section	.text.gpsGetSatellites,"ax",%progbits
 1677      AFF30080 
 1678              		.align	2
 1679              		.p2align 4,,15
 1680              		.global	gpsGetSatellites
 1681              		.thumb
 1682              		.thumb_func
 1683              		.type	gpsGetSatellites, %function
 1684              	gpsGetSatellites:
 1685              		@ args = 0, pretend = 0, frame = 0
 1686              		@ frame_needed = 0, uses_anonymous_args = 0
 1687 0000 70B5     		push	{r4, r5, r6, lr}
 1688 0002 084D     		ldr	r5, .L99
 1689 0004 05F1E004 		add	r4, r5, #224
 1690 0008 0646     		mov	r6, r0
 1691 000a 2046     		mov	r0, r4
 1692 000c FFF7FEFF 		bl	chMtxLock
 1693 0010 3046     		mov	r0, r6
 1694 0012 05F1DC01 		add	r1, r5, #220
 1695 0016 FFF7FEFF 		bl	strcpy
 1696 001a 2046     		mov	r0, r4
 1697 001c BDE87040 		pop	{r4, r5, r6, lr}
 1698 0020 FFF7FEBF 		b	chMtxUnlock
 1699              	.L100:
 1700              		.align	2
 1701              	.L99:
 1702 0024 00000000 		.word	.LANCHOR0
 1703              		.size	gpsGetSatellites, .-gpsGetSatellites
 1704 0028 AFF30080 		.section	.text.gpsGetLocation,"ax",%progbits
 1704      AFF30080 
 1705              		.align	2
 1706              		.p2align 4,,15
 1707              		.global	gpsGetLocation
 1708              		.thumb
 1709              		.thumb_func
 1710              		.type	gpsGetLocation, %function
 1711              	gpsGetLocation:
 1712              		@ args = 0, pretend = 0, frame = 0
 1713              		@ frame_needed = 0, uses_anonymous_args = 0
 1714 0000 70B5     		push	{r4, r5, r6, lr}
 1715 0002 144C     		ldr	r4, .L102
 1716 0004 04F1E006 		add	r6, r4, #224
 1717 0008 0546     		mov	r5, r0
 1718 000a 3046     		mov	r0, r6
 1719 000c FFF7FEFF 		bl	chMtxLock
 1720 0010 04F1B601 		add	r1, r4, #182
 1721 0014 05F10C00 		add	r0, r5, #12
 1722 0018 FFF7FEFF 		bl	strcpy
 1723 001c 04F1C501 		add	r1, r4, #197
 1724 0020 05F11B00 		add	r0, r5, #27
 1725 0024 FFF7FEFF 		bl	strcpy
 1726 0028 04F1D401 		add	r1, r4, #212
 1727 002c 05F12A00 		add	r0, r5, #42
 1728 0030 FFF7FEFF 		bl	strcpy
ARM GAS  /tmp/cc9RF4xZ.s 			page 97


 1729 0034 04F1AA01 		add	r1, r4, #170
 1730 0038 2846     		mov	r0, r5
 1731 003a FFF7FEFF 		bl	strcpy
 1732 003e 05F13200 		add	r0, r5, #50
 1733 0042 04F1DC01 		add	r1, r4, #220
 1734 0046 FFF7FEFF 		bl	strcpy
 1735 004a 3046     		mov	r0, r6
 1736 004c BDE87040 		pop	{r4, r5, r6, lr}
 1737 0050 FFF7FEBF 		b	chMtxUnlock
 1738              	.L103:
 1739              		.align	2
 1740              	.L102:
 1741 0054 00000000 		.word	.LANCHOR0
 1742              		.size	gpsGetLocation, .-gpsGetLocation
 1743              		.global	gpsSem
 1744 0058 AFF30080 		.section	.bss.gpsSem,"aw",%nobits
 1744      AFF30080 
 1745              		.align	2
 1746              		.set	.LANCHOR1,. + 0
 1747              		.type	gpsSem, %object
 1748              		.size	gpsSem, 12
 1749              	gpsSem:
 1750 0000 00000000 		.space	12
 1750      00000000 
 1750      00000000 
 1751              		.section	.bss.GPS,"aw",%nobits
 1752              		.align	2
 1753              		.set	.LANCHOR0,. + 0
 1754              		.type	GPS, %object
 1755              		.size	GPS, 240
 1756              	GPS:
 1757 0000 00000000 		.space	240
 1757      00000000 
 1757      00000000 
 1757      00000000 
 1757      00000000 
 1758              		.section	.rodata.str1.4,"aMS",%progbits,1
 1759              		.align	2
 1760              	.LC0:
 1761 0000 475000   		.ascii	"GP\000"
 1762 0003 00       		.space	1
 1763              	.LC1:
 1764 0004 414C4D00 		.ascii	"ALM\000"
 1765              	.LC2:
 1766 0008 47474100 		.ascii	"GGA\000"
 1767              	.LC3:
 1768 000c 474C4C00 		.ascii	"GLL\000"
 1769              	.LC4:
 1770 0010 47534100 		.ascii	"GSA\000"
 1771              	.LC5:
 1772 0014 47535600 		.ascii	"GSV\000"
 1773              	.LC6:
 1774 0018 48445400 		.ascii	"HDT\000"
 1775              	.LC7:
 1776 001c 5A444100 		.ascii	"ZDA\000"
 1777              		.section	.data.serGpsCfg,"aw",%progbits
 1778              		.align	2
ARM GAS  /tmp/cc9RF4xZ.s 			page 98


 1779              		.set	.LANCHOR2,. + 0
 1780              		.type	serGpsCfg, %object
 1781              		.size	serGpsCfg, 32
 1782              	serGpsCfg:
 1783 0000 00000000 		.word	gpsTxbufEnd
 1784 0004 00000000 		.word	gpsTxC
 1785 0008 00000000 		.word	gpsRxEnd
 1786 000c 00000000 		.word	gpsRxChar
 1787 0010 00000000 		.word	gpsRxErr
 1788 0014 C0120000 		.word	4800
 1789 0018 0000     		.short	0
 1790 001a 0000     		.short	0
 1791 001c 0000     		.short	0
 1792 001e 0000     		.space	2
 1793              		.comm	__gnu_lto_v1,1,1
 1794              		.ident	"GCC: (GNU Tools for ARM Embedded Processors) 4.8.4 20140526 (release) [ARM/embedded-4_8-br
ARM GAS  /tmp/cc9RF4xZ.s 			page 99


DEFINED SYMBOLS
                            *ABS*:0000000000000000 gps.c
     /tmp/cc9RF4xZ.s:1077   .text.gpsTxbufEnd:0000000000000000 $t
     /tmp/cc9RF4xZ.s:1082   .text.gpsTxbufEnd:0000000000000000 gpsTxbufEnd
     /tmp/cc9RF4xZ.s:1089   .text.gpsTxC:0000000000000000 $t
     /tmp/cc9RF4xZ.s:1094   .text.gpsTxC:0000000000000000 gpsTxC
     /tmp/cc9RF4xZ.s:1101   .text.gpsRxEnd:0000000000000000 $t
     /tmp/cc9RF4xZ.s:1106   .text.gpsRxEnd:0000000000000000 gpsRxEnd
     /tmp/cc9RF4xZ.s:1113   .text.gpsRxErr:0000000000000000 $t
     /tmp/cc9RF4xZ.s:1118   .text.gpsRxErr:0000000000000000 gpsRxErr
     /tmp/cc9RF4xZ.s:1125   .text.gpsRxChar:0000000000000000 $t
     /tmp/cc9RF4xZ.s:1130   .text.gpsRxChar:0000000000000000 gpsRxChar
     /tmp/cc9RF4xZ.s:1184   .text.gpsRxChar:0000000000000060 $d
     /tmp/cc9RF4xZ.s:1188   .text.gpsStart:0000000000000000 $t
     /tmp/cc9RF4xZ.s:1194   .text.gpsStart:0000000000000000 gpsStart
     /tmp/cc9RF4xZ.s:1217   .text.gpsStart:0000000000000024 $d
     /tmp/cc9RF4xZ.s:1221   .text.gpsStop:0000000000000000 $t
     /tmp/cc9RF4xZ.s:1227   .text.gpsStop:0000000000000000 gpsStop
     /tmp/cc9RF4xZ.s:1237   .text.gpsParseNMEAType:0000000000000000 $t
     /tmp/cc9RF4xZ.s:1243   .text.gpsParseNMEAType:0000000000000000 gpsParseNMEAType
     /tmp/cc9RF4xZ.s:1322   .text.gpsParseNMEAType:0000000000000094 $d
     /tmp/cc9RF4xZ.s:1332   .text.gpsParseFix:0000000000000000 $t
     /tmp/cc9RF4xZ.s:1338   .text.gpsParseFix:0000000000000000 gpsParseFix
     /tmp/cc9RF4xZ.s:1388   .text.gpsParseFix:0000000000000076 $d
     /tmp/cc9RF4xZ.s:1490   .text.gpsParseFix:000000000000014c $d
     /tmp/cc9RF4xZ.s:1493   .text.gpsNMEAChecksum:0000000000000000 $t
     /tmp/cc9RF4xZ.s:1499   .text.gpsNMEAChecksum:0000000000000000 gpsNMEAChecksum
     /tmp/cc9RF4xZ.s:1519   .text.gpsThread:0000000000000000 $t
     /tmp/cc9RF4xZ.s:1525   .text.gpsThread:0000000000000000 gpsThread
     /tmp/cc9RF4xZ.s:1565   .text.gpsThread:0000000000000050 $d
     /tmp/cc9RF4xZ.s:1570   .text.gpsGetLatitude:0000000000000000 $t
     /tmp/cc9RF4xZ.s:1576   .text.gpsGetLatitude:0000000000000000 gpsGetLatitude
     /tmp/cc9RF4xZ.s:1594   .text.gpsGetLatitude:0000000000000024 $d
     /tmp/cc9RF4xZ.s:1597   .text.gpsGetLongitude:0000000000000000 $t
     /tmp/cc9RF4xZ.s:1603   .text.gpsGetLongitude:0000000000000000 gpsGetLongitude
     /tmp/cc9RF4xZ.s:1621   .text.gpsGetLongitude:0000000000000024 $d
     /tmp/cc9RF4xZ.s:1624   .text.gpsGetAltitude:0000000000000000 $t
     /tmp/cc9RF4xZ.s:1630   .text.gpsGetAltitude:0000000000000000 gpsGetAltitude
     /tmp/cc9RF4xZ.s:1648   .text.gpsGetAltitude:0000000000000024 $d
     /tmp/cc9RF4xZ.s:1651   .text.gpsGetTime:0000000000000000 $t
     /tmp/cc9RF4xZ.s:1657   .text.gpsGetTime:0000000000000000 gpsGetTime
     /tmp/cc9RF4xZ.s:1675   .text.gpsGetTime:0000000000000024 $d
     /tmp/cc9RF4xZ.s:1678   .text.gpsGetSatellites:0000000000000000 $t
     /tmp/cc9RF4xZ.s:1684   .text.gpsGetSatellites:0000000000000000 gpsGetSatellites
     /tmp/cc9RF4xZ.s:1702   .text.gpsGetSatellites:0000000000000024 $d
     /tmp/cc9RF4xZ.s:1705   .text.gpsGetLocation:0000000000000000 $t
     /tmp/cc9RF4xZ.s:1711   .text.gpsGetLocation:0000000000000000 gpsGetLocation
     /tmp/cc9RF4xZ.s:1741   .text.gpsGetLocation:0000000000000054 $d
     /tmp/cc9RF4xZ.s:1749   .bss.gpsSem:0000000000000000 gpsSem
     /tmp/cc9RF4xZ.s:1745   .bss.gpsSem:0000000000000000 $d
     /tmp/cc9RF4xZ.s:1752   .bss.GPS:0000000000000000 $d
     /tmp/cc9RF4xZ.s:1756   .bss.GPS:0000000000000000 GPS
     /tmp/cc9RF4xZ.s:1759   .rodata.str1.4:0000000000000000 $d
     /tmp/cc9RF4xZ.s:1778   .data.serGpsCfg:0000000000000000 $d
     /tmp/cc9RF4xZ.s:1782   .data.serGpsCfg:0000000000000000 serGpsCfg
                            *COM*:0000000000000001 __gnu_lto_v1
     /tmp/cc9RF4xZ.s:1187   .text.gpsRxChar:0000000000000068 $t
ARM GAS  /tmp/cc9RF4xZ.s 			page 100


     /tmp/cc9RF4xZ.s:1220   .text.gpsStart:000000000000002c $t
     /tmp/cc9RF4xZ.s:1331   .text.gpsParseNMEAType:00000000000000b4 $t
     /tmp/cc9RF4xZ.s:1569   .text.gpsThread:000000000000005c $t
     /tmp/cc9RF4xZ.s:1596   .text.gpsGetLatitude:0000000000000028 $t
     /tmp/cc9RF4xZ.s:1623   .text.gpsGetLongitude:0000000000000028 $t
     /tmp/cc9RF4xZ.s:1650   .text.gpsGetAltitude:0000000000000028 $t
     /tmp/cc9RF4xZ.s:1677   .text.gpsGetTime:0000000000000028 $t
     /tmp/cc9RF4xZ.s:1704   .text.gpsGetSatellites:0000000000000028 $t
     /tmp/cc9RF4xZ.s:1744   .text.gpsGetLocation:0000000000000058 $t
     /tmp/cc9RF4xZ.s:1397   .text.gpsParseFix:000000000000007f $d
     /tmp/cc9RF4xZ.s:1397   .text.gpsParseFix:0000000000000080 $t

UNDEFINED SYMBOLS
chSchRescheduleS
chSemSignalI
chMtxObjectInit
uartStart
uartStop
strncmp
strcpy
strcat
chSemObjectInit
chSemWait
chSemReset
chMtxLock
chMtxUnlock
