ARM GAS  /tmp/cclyubud.s 			page 1


   1              		.syntax unified
   2              		.cpu cortex-m4
   3              		.eabi_attribute 27, 3
   4              		.eabi_attribute 28, 1
   5              		.fpu fpv4-sp-d16
   6              		.eabi_attribute 20, 1
   7              		.eabi_attribute 21, 1
   8              		.eabi_attribute 23, 3
   9              		.eabi_attribute 24, 1
  10              		.eabi_attribute 25, 1
  11              		.eabi_attribute 26, 1
  12              		.eabi_attribute 30, 2
  13              		.eabi_attribute 34, 1
  14              		.eabi_attribute 18, 4
  15              		.thumb
  16              		.file	"gps.c"
  17              		.section	.gnu.lto_.jmpfuncs.7b15e597d780654d,"",%progbits
  18 0000 789CB593 		.ascii	"x\234\265\223\275N\3030\024\205\317\265\335\244\377"
  18      BD4EC330 
  18      1485CFB5 
  18      DDA4FF
  19 000f A43F2912 		.ascii	"\244?)\022CY\220\030*\336\201\210Ja(\022R\021B\214\331"
  19      43599018 
  19      2ADE8188 
  19      4A612812 
  19      5211428C 
  20 0024 32646561 		.ascii	"2dea\311\310#t\341\005x\022F\236\207\011\333m\223\006"
  20      C9C82374 
  20      E1057812 
  20      469E8709 
  20      DB6D9306 
  21 0038 252837A2 		.ascii	"%(7\242V\344\\9\337\3659\276\271\026\020(\033_.p\251"
  21      56E45C39 
  21      DFF539BE 
  21      B9161028 
  21      1B5F2E70 
  22 004d DF538034 		.ascii	"\337S\2004\"\241H\007h\201\304+\276\323\267\324\213"
  22      22A14807 
  22      6881C42B 
  22      BED3B7D4 
  22      8B
  23 005e 090959B6 		.ascii	"\011\011Y\266-\320!)\237(&\222\300\015`\231\215a\304"
  23      2DD02129 
  23      9F282692 
  23      C00D6099 
  23      8D61C4
  24 0071 1CF49E6E 		.ascii	"\034\364\236n\256c\363E\017a(\245\343j\336a\362=&\357"
  24      AE63F345 
  24      0F6128A5 
  24      E36ADE61 
  24      F23D26EF 
  25 0085 31799FC9 		.ascii	"1y\237\311\2371\371\363R\276Kb\307\331Z\267\022\262"
  25      9F31F9F3 
  25      52BE4B62 
  25      C7D95AB7 
  25      12B2
  26 0097 C53E28BF 		.ascii	"\305>(\277\263\300G\232\232\310MHD\224\377\274\276a"
ARM GAS  /tmp/cclyubud.s 			page 2


  26      B3C0479A 
  26      9AC84D48 
  26      4494FFBC 
  26      BE61
  27 00a9 07560C2F 		.ascii	"\007V\014/\264\227\246_\322\3559.\266\322\235\003i\255"
  27      B497A65F 
  27      D2ED392E 
  27      B6D29D03 
  27      69AD
  28 00bb 3A9405E9 		.ascii	":\224\005\351n\262\365V\271h\362z\213\203\370\352?`"
  28      6EB2F556 
  28      B968F27A 
  28      8B83F8EA 
  28      3F60
  29 00cd 6E837834 		.ascii	"n\203x42G$\273\320\377\244\232\265*h\0172lh\261\234"
  29      324724BB 
  29      D0FFA49A 
  29      B52A680F 
  29      326C68B1 
  30 00e2 ABB517D9 		.ascii	"\253\265\027\331G\344\350I\206z\372\256D\224\3375\353"
  30      47E4E849 
  30      867AFAAE 
  30      4494DF35 
  30      EB
  31 00f3 725434F9 		.ascii	"rT4\371\007\315\332rL\365Nn\333\243P\372\214\035\227"
  31      07CDDA72 
  31      4CF54E6E 
  31      DBA350FA 
  31      8C1D97
  32 0106 1622DAD5 		.ascii	"\026\"\332\325\274vA&\307s\242xN\246M\235L2vZ\341\244"
  32      BC764126 
  32      C773A278 
  32      4EA64D9D 
  32      4C32765A 
  33 011c C573E237 		.ascii	"\305s\3427u\342g\354\254\302\211\303s2;\236\023\227"
  33      75E267EC 
  33      ACC289C3 
  33      73323B9E 
  33      1397
  34 012e E7E4B4A6 		.ascii	"\347\344\264\246\223\246&\230\211Ny\"\247\025D\323n"
  34      93A62698 
  34      894E7922 
  34      A71544D3 
  34      6E
  35 013f 6626322F 		.ascii	"f&2/$T\260\272\203\012\303@O\253\225\236\326&Z?B\335"
  35      2454B0BA 
  35      830AC340 
  35      4FAB959E 
  35      D6265A3F 
  36 0155 2E1FA09E 		.ascii	".\037\240\236\227\001dx\217\037\012+d\027"
  36      97016478 
  36      8F1F0A2B 
  36      6417
  37              		.text
  38              		.section	.gnu.lto_.inline.7b15e597d780654d,"",%progbits
  39 0000 789C9D53 		.ascii	"x\234\235S-O\003A\020}\263\273\367\321\273\366\270\243"
  39      2D4F0341 
ARM GAS  /tmp/cclyubud.s 			page 3


  39      107DB3BB 
  39      F7D1BBF6 
  39      B8A3
  40 0012 A5A549D3 		.ascii	"\245\245I\323\"\032\352p\0104\204\004S\315/\200\342"
  40      221AEA70 
  40      08348404 
  40      53CD2F80 
  40      E2
  41 0023 50680481 		.ascii	"Ph\004\201\006U\201\247\002\301\217@ \352A\224 q\204"
  41      065581A7 
  41      02C18F40 
  41      20EA4194 
  41      207184
  42 0036 F02B98DB 		.ascii	"\360+\230\333\275\217\302A\270\364\304\316\354\314{"
  42      BD8FC241 
  42      B8F4C4CE 
  42      ECCC7B
  43 0045 6F6667F7 		.ascii	"ofg\367\004\004~\373^\245\261\015@\012\322 {\332\323"
  43      04047EFB 
  43      5EA5B10D 
  43      400AD220 
  43      7BDAD3
  44 0058 582A4444 		.ascii	"X*DD!\"\013\021\005\277N\304d\206W\356\367\341\214\007"
  44      21220B11 
  44      05BF4EC4 
  44      648657EE 
  44      F7E18C07 
  45 006c 46CD8B23 		.ascii	"F\315\213#>;\223\241\205z\233Y\235\273\007\312\265\343"
  45      3E3B93A1 
  45      857A9B59 
  45      9DBB07CA 
  45      B5E3
  46 007e 145C043E 		.ascii	"\024\\\004>I:>\244\023j1\203F\231GZ<)\244\246\275\020"
  46      493A3EA4 
  46      136A3183 
  46      4699475A 
  46      3C29A4A6 
  47 0094 E1E59E9B 		.ascii	"\341\345\236\233Hs\242\202\355\315\244\260\354\314v"
  47      4873A282 
  47      EDCDA4B0 
  47      ECCC76
  48 00a3 0D4E3CAF 		.ascii	"\015N<\257\304\034X\001G'\303e\035\017\265.I\350\266"
  48      C41C5801 
  48      4727C365 
  48      1D0FB52E 
  48      49E8B6
  49 00b6 D663BD51 		.ascii	"\326c\275Q\346\025\333\262/\266t[\262\312\307\021L\347"
  49      E615DBB2 
  49      2FB6745B 
  49      B2CAC711 
  49      4CE7
  50 00c8 A3B98CAB 		.ascii	"\243\271\214\253\302\016L\2032g\320\207\243\314\212"
  50      C20E4C83 
  50      3267D087 
  50      A3CC8A
  51 00d7 7C3E3544 		.ascii	"|>5D.)S\256\335g\270\251g\\\315\327e\355\005\221P\300"
  51      2E2953AE 
ARM GAS  /tmp/cclyubud.s 			page 4


  51      DD67B8A9 
  51      675CCDD7 
  51      65ED0591 
  52 00ed 1A0F4288 		.ascii	"\032\017B\210G\261\241\240\316-\225\264\240\364\300"
  52      47B1A1A0 
  52      CE2D95B4 
  52      A0F4C0
  53 00fc 03B6FA24 		.ascii	"\003\266\372$\001\336p\343\220\320\002z\246\362tz}\204"
  53      01DE70E3 
  53      90D0027A 
  53      A6F2747A 
  53      7D84
  54 010e F0F380DB 		.ascii	"\360\363\200\333\237w\023\032\351\306\227\265\331\334"
  54      9F77131A 
  54      E9C697B5 
  54      D9DC
  55 011c 425476D2 		.ascii	"BTv\322;\361\336g\366\367K\211\320\177\261\230\021\335"
  55      3BF1DE67 
  55      F6F74B89 
  55      D07FB198 
  55      11DD
  56 012e 3EB970AE 		.ascii	">\271p\256\316\304\302\010\204\037\323\314\232\312\346"
  56      CEC4C208 
  56      841FD3CC 
  56      9ACAE6
  57 013d BB143019 		.ascii	"\273\0240\031\352\034\262T\374F\261\012\257\377\343"
  57      EA1CB254 
  57      FC46B10A 
  57      AFFFE3
  58 014c E1EAC7A5 		.ascii	"\341\352\307\245\323\346>xW/\205j\224B\255\225B5K\241"
  58      D3E63E78 
  58      572F856A 
  58      9442AD95 
  58      42354BA1 
  59 0160 5A68CE91 		.ascii	"Zh\316\221\376A\177b\377\263\006\215/`\351Vc"
  59      FE417F62 
  59      FFB3068D 
  59      2F60E956 
  59      63
  60              		.text
  61              		.section	.gnu.lto_.pureconst.7b15e597d780654d,"",%progbits
  62 0000 789C6362 		.ascii	"x\234cb`b\320d\200\000\021\006\006F \227\231\201\305"
  62      6062D064 
  62      80001106 
  62      06462097 
  62      9981C5
  63 0013 8AD58A43 		.ascii	"\212\325\212C\212\223\205K\202G\222\227\225OJ\300T\320"
  63      8A93854B 
  63      82479297 
  63      954F4AC0 
  63      54D0
  64 0025 52484258 		.ascii	"RHBXBDBTBLB\\\002\0009N\003\017"
  64      42444254 
  64      424C425C 
  64      0200394E 
  64      030F
  65              		.text
ARM GAS  /tmp/cclyubud.s 			page 5


  66              		.section	.gnu.lto_gpsTxbufEnd.7b15e597d780654d,"",%progbits
  67 0000 789C6362 		.ascii	"x\234cb`b@\007\222@\034\004\304\034@\314\310\314\300"
  67      60624007 
  67      92401C04 
  67      C41C40CC 
  67      C8CCC0
  68 0013 C834E11C 		.ascii	"\3104\341\034\003C#\007\023##\210\301\300\310P\317\304"
  68      03432307 
  68      13232388 
  68      C1C0C850 
  68      CFC4
  69 0025 581FC908 		.ascii	"X\037\311\010V\273\236\351\300\203\377\377\327]8\266"
  69      56BB9EE9 
  69      C083FFFF 
  69      D75D38B6 
  70 0035 60152323 		.ascii	"`\025##\310(V\206\226\206\206\011\012\014\014\311`\005"
  70      C8285686 
  70      96868609 
  70      0A0C0CC9 
  70      6005
  71 0047 214012A4 		.ascii	"!@\022\244+\024(\011\244\231/20&2.dd\205[\026\302\310"
  71      2B142809 
  71      A4992F32 
  71      3026322E 
  71      6464855B 
  72 005e 08920069 		.ascii	"\010\222\000ieK/(\326Kf\000\000\012\020\030\200"
  72      654B2F28 
  72      D64B6600 
  72      000A1018 
  72      80
  73              		.text
  74              		.section	.gnu.lto_gpsTxC.7b15e597d780654d,"",%progbits
  75 0000 789C6362 		.ascii	"x\234cb`b@\007\222@\034\004\304\034@\314\310\314\300"
  75      60624007 
  75      92401C04 
  75      C41C40CC 
  75      C8CCC0
  76 0013 C834E11C 		.ascii	"\3104\341\034\003C#\007\023##\210\301\300\310P\317\304"
  76      03432307 
  76      13232388 
  76      C1C0C850 
  76      CFC4
  77 0025 581FC908 		.ascii	"X\037\311\010V\273\236\351\300\203\377\377\327}8\266"
  77      56BB9EE9 
  77      C083FFFF 
  77      D77D38B6 
  78 0035 60172323 		.ascii	"`\027##\310(V\206\226\206\206\011\012\014\014\311`\005"
  78      C8285686 
  78      96868609 
  78      0A0C0CC9 
  78      6005
  79 0047 214012A4 		.ascii	"!@\022\244+\024(\011\244\231/20&2.dd\205[\026\302\310"
  79      2B142809 
  79      A4992F32 
  79      3026322E 
  79      6464855B 
  80 005e 08920069 		.ascii	"\010\222\000ieK/(\326Kf\000\000\030 \030\260"
ARM GAS  /tmp/cclyubud.s 			page 6


  80      654B2F28 
  80      D64B6600 
  80      00182018 
  80      B0
  81              		.text
  82              		.section	.gnu.lto_gpsRxEnd.7b15e597d780654d,"",%progbits
  83 0000 789C6362 		.ascii	"x\234cb`b@\007\222@\034\004\304\034@\314\310\314\300"
  83      60624007 
  83      92401C04 
  83      C41C40CC 
  83      C8CCC0
  84 0013 C834E11C 		.ascii	"\3104\341\034\003C#\007\023##\210\301\300\310P\317\304"
  84      03432307 
  84      13232388 
  84      C1C0C850 
  84      CFC4
  85 0025 581FC908 		.ascii	"X\037\311\010V\273\236\351\300\203\377\377\327\3358"
  85      56BB9EE9 
  85      C083FFFF 
  85      D7DD38
  86 0034 BEE01D23 		.ascii	"\276\340\035##\310(V\206\226\206\206\011\012\014\014"
  86      23C82856 
  86      86968686 
  86      090A0C0C 
  87 0044 C9600521 		.ascii	"\311`\005!@\022\244+\024(\011\244\231/20&2.dd\205[\026"
  87      4012A42B 
  87      142809A4 
  87      992F3230 
  87      26322E64 
  88 005c C2C80892 		.ascii	"\302\310\010\222\000ieK/(\326Kf\000\000 \037\030\315"
  88      0069654B 
  88      2F28D64B 
  88      66000020 
  88      1F18CD
  89              		.text
  90              		.section	.gnu.lto_gpsRxErr.7b15e597d780654d,"",%progbits
  91 0000 789C6362 		.ascii	"x\234cb`b@\007\222@\034\004\304\034@\314\310\314\300"
  91      60624007 
  91      92401C04 
  91      C41C40CC 
  91      C8CCC0
  92 0013 C834E11C 		.ascii	"\3104\341\034\003C#\007\023##\210\301\300\310P\317\304"
  92      03432307 
  92      13232388 
  92      C1C0C850 
  92      CFC4
  93 0025 581FC908 		.ascii	"X\037\311\010V\273\236\351\300\203\377\377\327\3758"
  93      56BB9EE9 
  93      C083FFFF 
  93      D7FD38
  94 0034 BEE03F23 		.ascii	"\276\340?##\310(V\206\226\206\206\011\012\014\014\311"
  94      23C82856 
  94      86968686 
  94      090A0C0C 
  94      C9
  95 0045 60052140 		.ascii	"`\005!@\022\244+\024(\011\244\231/20&2.dd\205[\026\302"
  95      12A42B14 
ARM GAS  /tmp/cclyubud.s 			page 7


  95      2809A499 
  95      2F323026 
  95      322E6464 
  96 005d C8089200 		.ascii	"\310\010\222\000ieK/(\326Kf\000\000.x\030\376"
  96      69654B2F 
  96      28D64B66 
  96      00002E78 
  96      18FE
  97              		.text
  98              		.section	.gnu.lto_chBSemSignal.7b15e597d780654d,"",%progbits
  99 0000 789C8D52 		.ascii	"x\234\215R\275k\024A\024\377\275\231]\357<\223\220F"
  99      BD6B1441 
  99      14FFBD99 
  99      5DEF3C93 
  99      9046
 100 0012 B00AD708 		.ascii	"\260\012\327\010\361\003W\304\324\006\004\301\" 9\003"
 100      F10357C4 
 100      D40604C1 
 100      22203903 
 101 0022 A690B03B 		.ascii	"\246\220\260;\267\344\006\335[\331\273\013\211)2\227"
 101      B7E406DD 
 101      5BD9BB0B 
 101      89293297 
 102 0032 5C918045 		.ascii	"\\\221\200E\270X\030?@\301#\321B\377\002\361J\013MH"
 102      B858183F 
 102      40C123D1 
 102      42FF02F1 
 102      4A0B4D48 
 103 0046 2B160141 		.ascii	"+\026\001AH\025m\014\304\"\316\354\336m\202\215\031"
 103      48156D0C 
 103      C422CEEC 
 103      DE6D828D 
 103      19
 104 0057 D899F766 		.ascii	"\330\231\367f\336\357c\337\014\003\303\277\343\212\376"
 104      DEEF63DF 
 104      0C03C3BF 
 104      E38AFE
 105 0066 6EE9ED15 		.ascii	"n\351\355\025\275\222\015b\313\033@=\313\030\337\353"
 105      BD920D62 
 105      CB1B403D 
 105      CB18DFEB 
 106 0076 83CA59AB 		.ascii	"\203\312Y\253\327\240z8Y\311\266Ed\002\020\346\030\267"
 106      D7A07A38 
 106      59C9B645 
 106      640210E6 
 106      18B7
 107 0088 686E9C62 		.ascii	"hn\234b\222\367\254\275}p\360\356w\363\303s\372\314"
 107      92F7ACBD 
 107      7D70F0EE 
 107      77F3C373 
 107      FACC
 108 009a 7A390584 		.ascii	"z9\005\204\014$!\253'Sb\243\241\324r\036\0201\340\266"
 108      0C2421AB 
 108      275362A3 
 108      A1D4721E 
 108      1031E0B6 
 109 00ae 9E0DCF18 		.ascii	"\236\015\317\0301\263\362\015\314\377\332}\374\375L"
ARM GAS  /tmp/cclyubud.s 			page 8


 109      31B3F20D 
 109      CCFFDA7D 
 109      FCFD4C
 110 00bd 5AE6D22B 		.ascii	"Z\346\322+m&\026\"Ls\343\233'\346\007\260D/\324\223"
 110      6D261622 
 110      4C73E39B 
 110      27E607B0 
 110      442FD493 
 111 00d1 6149717A 		.ascii	"aIqz\207$\361\274\211\322\363G\235s+\371\301/\230\377"
 111      8724F1BC 
 111      89D2F347 
 111      9D732BF9 
 111      C12F98FF 
 112 00e5 FAED65EB 		.ascii	"\372\355e\353|\312\235\004\352Ok\260\253#b\217\230\244"
 112      7CCA9D04 
 112      EA4F6BB0 
 112      AB23628F 
 112      98A4
 113 00f7 CC05BC55 		.ascii	"\314\005\274UJ\265\267\232\247%\331I\242\206$\235x\206"
 113      4AB5B79A 
 113      A725D949 
 113      A286249D 
 113      7886
 114 0109 A775A5FA 		.ascii	"\247u\245\372%e&\211\033\315l\314\355\031\234Ko\214"
 114      25652689 
 114      1BCD6CCC 
 114      ED199C4B 
 114      6F8C
 115 011b 57CF9074 		.ascii	"W\317\220tb\340\023\032?\352\275.\255\353T\363\032\210"
 115      62E0131A 
 115      3FEABD2E 
 115      ADEB54F3 
 115      1A88
 116 012d 7DB4ED63 		.ascii	"}\264\355c\304\261\327\307\265\271\375\205\265\326\271"
 116      C4B1D7C7 
 116      B5B9FD85 
 116      B5D6B9
 117 013c 6E617616 		.ascii	"nav\026\017u\307:\312w\217\247\234\212n\242\321\356"
 117      0F75C73A 
 117      CA778FA7 
 117      9C8A6EA2 
 117      D1EE
 118 014e 5001B3D8 		.ascii	"P\001\263\330W\213\006xR\020KK\264\204\244\\\327\203"
 118      578B0678 
 118      52104B4B 
 118      B484A45C 
 118      D783
 119 0160 15777F13 		.ascii	"\025w\177\023\013\333\037wr\335\236\247\300SB\2334C"
 119      0BDB1F77 
 119      72DD9EA7 
 119      C053429B 
 119      3443
 120 0172 520F709C 		.ascii	"R\017p\234;r\351\265\206\304w\202#w\342\322\032\015"
 120      3B72E9B5 
 120      86C47782 
 120      2377E2D2 
 120      1A0D
ARM GAS  /tmp/cclyubud.s 			page 9


 121 0184 249A5BA8 		.ascii	"$\232[\250\377l\256\332)\026\311s c\304\324^uJa\340"
 121      FF6CAEDA 
 121      2916C973 
 121      2063C4D4 
 121      5E754A61 
 122 0199 3B222CCE 		.ascii	";\",\3168E\177\312\021%\351\311\260\342T\243Z\371\236"
 122      38457FCA 
 122      1125E9C9 
 122      B0E254A3 
 122      5AF99E
 123 01ac A383A8EA 		.ascii	"\243\203\250\352\310\262\270_+\352\242\222W\361\203"
 123      C8B2B85F 
 123      2BEAA292 
 123      57F183
 124 01bb 4B250CFF 		.ascii	"K%\014\377\017\344OW\235\353#\205\233\205Cl\030\371"
 124      0FE44F57 
 124      9DEB2385 
 124      9B85436C 
 124      18F9
 125 01cd 1322B851 		.ascii	"\023\"\270Q+\013M\320?R\030\315{n\305\177\020\311\213"
 125      2B0B4DD0 
 125      3F5218CD 
 125      7B6EC57F 
 125      10C98B
 126 01e0 F9B397C1 		.ascii	"\371\263\227\301\"d\002?\010\243\031\374\005\004\315"
 126      2264023F 
 126      08A319FC 
 126      0504CD
 127 01ef B75A     		.ascii	"\267Z"
 128              		.text
 129              		.section	.gnu.lto_gpsRxChar.part.0.7b15e597d780654d,"",%progbits
 130 0000 789CB554 		.ascii	"x\234\265T\315KTQ\024?\347\276\217\231\261\3241\203"
 130      CD4B5451 
 130      143FE7BE 
 130      8F99B1D4 
 130      3183
 131 0012 DA244310 		.ascii	"\332$C\020\030\225\257\376\202\204\"p\341&\025r\021"
 131      1895AFFE 
 131      82842270 
 131      E1261572 
 131      11
 132 0023 F1E6398E 		.ascii	"\361\3469\216\257\032G\306\231PZx\307i!\025\"\321B\214"
 132      AF1A47C6 
 132      99505A78 
 132      C7692115 
 132      22D1428C 
 133 0037 20094254 		.ascii	" \011BT\350k\221\225\301,\"\212\312\010\014\372X$IR"
 133      E86B9195 
 133      C12C228A 
 133      CA080CFA 
 133      58244952 
 134 004b 9B9ADA44 		.ascii	"\233\232\332D\3661\235{\357\314\233AZh\320\2039\367"
 134      F6319D7B 
 134      EFCC9B41 
 134      5A68D083 
 134      39F7
 135 005d 9C7BCFF9 		.ascii	"\234{\317\371\235\3379\347\316e\300`\345\267\237~\365"
ARM GAS  /tmp/cclyubud.s 			page 10


 135      9DDF39E7 
 135      CE65C060 
 135      E5B79F7E 
 135      F5
 136 006e 26409256 		.ascii	"&@\222V\364\001\232#s\244\230\310\344\312\230>[\007"
 136      F4019A23 
 136      73A498C8 
 136      E4CA983E 
 136      5B07
 137 0080 BC429BB7 		.ascii	"\274B\233\267\200\257\327P\027\273i\277\216\206R\014"
 137      80AFD750 
 137      17BB69BF 
 137      8E86520C 
 138 0090 44A100C2 		.ascii	"D\241\000\302\200\3114\335\300\201v\024\250\346V\030"
 138      80C934DD 
 138      C0817614 
 138      A8E65618 
 139 00a0 E7FCDCC2 		.ascii	"\347\374\334\302\373\317\037p\224g\007/\361\237\371"
 139      FBCF1F70 
 139      9467072F 
 139      F19FF9
 140 00af 3CA28BC4 		.ascii	"<\242\213\304 \200\340 \034\"\003\203ra+X\251X~\203"
 140      2080E020 
 140      1C220383 
 140      72612B58 
 140      A9587E83 
 141 00c3 F3808CD3 		.ascii	"\363\200\214\323\\\324\030\254+\205\205T\230\376\267"
 141      5CD418AC 
 141      2B858554 
 141      98FEB7
 142 00d2 B0ECAF2F 		.ascii	"\260\354\257/\017\221\242\323\271|\276\332E\235A\315"
 142      0F91A2D3 
 142      B97CBEDA 
 142      459D41CD 
 143 00e2 AA0247B3 		.ascii	"\252\002G\263\371\007\303\233N/\360\021\376\233\250"
 143      F907C39B 
 143      4E2FF011 
 143      FE9BA8
 144 00f1 BA688017 		.ascii	"\272h\200\027\346Wa\270\232|6^A\366\177\022^e|!\237"
 144      E65761B8 
 144      9A7C365E 
 144      41F67F12 
 144      5E657C21 
 145 0106 7FF5CD5F 		.ascii	"\177\365\315_\213\340\242\311\204\320H\370t\260q\002"
 145      8BE0A2C9 
 145      84D048F8 
 145      74B07102 
 146 0116 B7822176 		.ascii	"\267\202!vL\022\314GB\367\0133 \004\005\033p\212\363"
 146      4C12CC47 
 146      42F70B33 
 146      2004051B 
 146      708AF3
 147 0129 91908DE3 		.ascii	"\221\220\215\343\344h\343e\2222\037}\255$\305\024[\311"
 147      E468E365 
 147      92321F7D 
 147      AD24C514 
 147      5BC9
ARM GAS  /tmp/cclyubud.s 			page 11


 148 013b 9156AD8D 		.ascii	"\221V\255\215\012\020\353S\030|=\372\266\322\213\234"
 148      0A10EB53 
 148      187C3DFA 
 148      B6D28B9C 
 149 014b 9031CAE4 		.ascii	"\2201\312\3447\207\353\201p&\211\266\203\022&\212\270"
 149      3787EB81 
 149      702689B6 
 149      8312268A 
 149      B8
 150 015c 032639E7 		.ascii	"\003&9\347\331\3571\027\375\027`,\315y\320\305\300I"
 150      D9EF3117 
 150      FD17602C 
 150      CD79D0C5 
 150      C049
 151 016e 58E64342 		.ascii	"X\346CB\253\210IGQ[\205\254(,l\033\247E\355\000\017"
 151      AB884947 
 151      515B85AC 
 151      282C6C1B 
 151      A745ED00 
 152 0183 E1FE52BA 		.ascii	"\341\376R\272\332\306)2\011L\270\371\235\262\372\333"
 152      DAC62932 
 152      094CB8F9 
 152      9DB2FADB 
 153 0193 5083794B 		.ascii	"P\203yK\322z9\266\245@\313#\364c\021\005\326\224$\304"
 153      D27A39B6 
 153      A540CB23 
 153      F4631105 
 153      D69424C4 
 154 01a7 14215620 		.ascii	"\024!V \364\342#\256\232\221D\271\256\030Q\252O\231"
 154      F4E223AE 
 154      9A9144B9 
 154      AE1851AA 
 154      4F99
 155 01b9 3B68E335 		.ascii	";h\3435II\213\012`\332\\\316P\266\"Q]\240Q\222y\002"
 155      49498B0A 
 155      60DA5CCE 
 155      50B62251 
 155      5DA05192 
 156 01cf 59B70BA6 		.ascii	"Y\267\013\246I\347\207]\\\257r\363\275.VR\226\260\010"
 156      49E7875D 
 156      5CAF72F3 
 156      BD2E5652 
 156      96B008
 157 01e2 2D001312 		.ascii	"-\000\023\022\200g\225e\313\014e\362o\264\"\260Ql\002"
 157      80679565 
 157      CB0C65F2 
 157      6FB422B0 
 157      516C02
 158 01f5 2A2A4DEA 		.ascii	"**M\352\240\204\273\346\036G\205\220Eu\027\223\230Q"
 158      A084BBE6 
 158      1E478590 
 158      45751793 
 158      9851
 159 0207 5131A53E 		.ascii	"Q1\245>\343\345\365QMQqi\310\363q\2560\020/U\0259\010"
 159      E3E5F551 
 159      4D517169 
 159      C8F371AE 
ARM GAS  /tmp/cclyubud.s 			page 12


 159      30102F55 
 160 021e 7475A785 		.ascii	"tu\247\205VU\032\220^\2728K9\266rD\267\206\267\227\356"
 160      56551A90 
 160      5EBA384B 
 160      39B67244 
 160      B786B797 
 161 0233 8CA646E4 		.ascii	"\214\246F\344W\345\004\3276\237{^\307\356d\026\3176"
 161      57E504D7 
 161      369F7B5E 
 161      C7EE6416 
 161      CF36
 162 0245 D8382B99 		.ascii	"\3308+\231\007\010O\370\232\245\216\315z\035\373\227"
 162      07084FF8 
 162      9AA58ECD 
 162      7A1DFB97 
 163 0255 14042981 		.ascii	"\024\004)\201ff\226>\260r0\276gm\355\227hr\230bs\016"
 163      6666963E 
 163      B07230BE 
 163      676DED97 
 163      68729862 
 164 026b 06BFCC9C 		.ascii	"\006\277\314\234_\334\3545H5\005\304C\212\320\256\211"
 164      5FDCEC35 
 164      483505C4 
 164      438AD0AE 
 164      89
 165 027c 775A538F 		.ascii	"wZS\217u\035\034\275\310G\033]\254.\342\006CB\363\216"
 165      751D1CBD 
 165      C8471B5D 
 165      AC2EE206 
 165      4342F38E 
 166 0290 63EAB846 		.ascii	"c\352\270F\215\340\031\234\312}\275\335W\304\363xmp"
 166      8DE0199C 
 166      CA7DBDDD 
 166      57C4F378 
 166      6D70
 167 02a2 0A03133B 		.ascii	"\012\003\023;~\027kc\210\005'\0277\256\216\221\215\217"
 167      7E176B63 
 167      88052717 
 167      37AE8E91 
 167      8D8F
 168 02b4 686A9202 		.ascii	"hj\222\002\224Q\260\361\011\326\225\377K\015y\011\236"
 168      9451B0F1 
 168      09D695FF 
 168      4B0D7909 
 168      9E
 169 02c5 433AF7EE 		.ascii	"C:\367\356\256\356\341\200zjP\034\21283\332\323\333"
 169      AEEEE180 
 169      7A6A501C 
 169      8A3833DA 
 169      D3DB
 170 02d7 E0003A46 		.ascii	"\340\000:F\312N${\314p\252\2633\222h\264\272\342\261"
 170      CA4E247B 
 170      CC70AAB3 
 170      339268B4 
 170      BAE2B1
 171 02ea 88E5C43B 		.ascii	"\210\345\304;\372\255\216\310\011\313\351r\303n\274"
 171      FAAD8EC8 
ARM GAS  /tmp/cclyubud.s 			page 13


 171      09CBE972 
 171      C36EBC
 172 02f9 D74A2652 		.ascii	"\327J&R\335\307,R\"}Ik_sKS\213\345v;\307S\035\3027\021"
 172      DDC72C52 
 172      227D496B 
 172      5F734B53 
 172      8BE5763B 
 173 0313 39E2C40E 		.ascii	"9\342\304\016\244\272\235\206.\0106\267\034\014\205"
 173      A4BA9D86 
 173      2E0836B7 
 173      1C0C85
 174 0322 EDDE484F 		.ascii	"\355\336HO\302\335\031\332\266\033X\002|\261H,\236\350"
 174      C2DD19DA 
 174      B61B5802 
 174      7CB1482C 
 174      9EE8
 175 0334 873F0404 		.ascii	"\207?\004\004\2234"
 175      9334
 176              		.text
 177              		.section	.gnu.lto_gpsRxChar.7b15e597d780654d,"",%progbits
 178 0000 789C9592 		.ascii	"x\234\225\222?h\024A\024\306\2777\263\273\331\273\354"
 178      3F681441 
 178      14C6BF37 
 178      B3BBD9BB 
 178      EC
 179 0011 FD49E00A 		.ascii	"\375I\340\012\213H\210\215 j\233\316Z\353\004\264\260"
 179      8B48888D 
 179      206A9BCE 
 179      5AEB04B4 
 179      B0
 180 0022 D85BCDB1 		.ascii	"\330[\315\261\305\211(V\026\231\315\246\010(\341\020"
 180      C5892856 
 180      1699CDA6 
 180      0828E110 
 181 0032 0221165E 		.ascii	"\002!\026^\220\210D\301Z\261\210\240(\210\212\020A\""
 181      908844C1 
 181      5AB188A0 
 181      28888A10 
 181      4122
 182 0044 E881A088 		.ascii	"\350\201\240\210 \207VFp}3\263{I\254t`\337\314\274y"
 182      20875646 
 182      707D33B3 
 182      7B49AC74 
 182      60DFCCBC 
 183 0059 FB7DBFF9 		.ascii	"\373}\277\371# \360w;\301\337\031\011\324\270\247!\220"
 183      2320F077 
 183      3BC1DF19 
 183      09D4B8A7 
 183      2190
 184 006b E8BC0412 		.ascii	"\350\274\004\022_\010\331o@\225\235\356$T \311\323i"
 184      5F08D96F 
 184      40959DEE 
 184      245420C9 
 184      D369
 185 007d 7284F770 		.ascii	"r\204\367p?g\335\315\243\234um6\361=\"=\000aVH\307\365"
 185      3F67DDCD 
 185      A39C756D 
ARM GAS  /tmp/cclyubud.s 			page 14


 185      36F13D22 
 185      3D006156 
 186 0094 68F61469 		.ascii	"h\366\024im\232\300\252R\327zOn,\356S\335\271\216\372"
 186      6D9AC0AA 
 186      52D77A4F 
 186      6E2CEE53 
 186      DDB98EFA 
 187 00a8 9D651413 		.ascii	"\235e\024\023S\224\010\021\341$Oh\334t\302\331\213u"
 187      53940811 
 187      E1244F68 
 187      DC74C2D9 
 187      8B75
 188 00ba 4F6CF4B2 		.ascii	"Ol\364\262\354\352\375\371\357c\015\2426\377\303\201"
 188      ECEAFDF9 
 188      EF630DA2 
 188      36FFC381 
 189 00ca 7CC42403 		.ascii	"|\304$\003\016NE\207*\007\267\206\220V\331\251\2563"
 189      0E4E4587 
 189      2A07B786 
 189      9056D9A9 
 189      AE33
 190 00dc 231CC428 		.ascii	"#\034\304(\007\255\341b^\251\3168\264\025\267)\216\032"
 190      07ADE162 
 190      5EA9CE38 
 190      B415B729 
 190      8E1A
 191 00ee 739A84EE 		.ascii	"s\232\204\356\3453<\376\374h\351\251\014\351&\271h\221"
 191      E5333CFE 
 191      FC68E9A9 
 191      0CE926B9 
 191      6891
 192 0100 D01C5E79 		.ascii	"\320\034^y\027\3044I\364\033\362\025R\337\026\001\227"
 192      17C43449 
 192      F41BF215 
 192      52DF1601 
 192      97
 193 0111 B1AD1654 		.ascii	"\261\255\026T=\246\241\210\214*{\371E\265\203\356\244"
 193      3DA6A188 
 193      8C2A7BF9 
 193      45B583EE 
 193      A4
 194 0122 7C81B9AF 		.ascii	"|\201\271\257\351\217\305\203\205\254\317\312\000g\267"
 194      E98FC583 
 194      85ACCFCA 
 194      0067B7
 195 0131 963F5472 		.ascii	"\226?Tr$K\\\020*\256\006l}D\346\212Z\024\034\302\272"
 195      244B5C10 
 195      2AAE066C 
 195      7D44E68A 
 195      5A141CC2 
 196 0146 526AE367 		.ascii	"Rj\343g;\246\322u\254$J\273\226\007\376\303mS\251\231"
 196      3BA6D275 
 196      AC244ABB 
 196      9607FEC3 
 196      6D53A999 
 197 015a 878D7D53 		.ascii	"\207\215}S\343\204t\313`\2027\367)\251\205\264f\030"
 197      E38474CB 
ARM GAS  /tmp/cclyubud.s 			page 15


 197      608237F7 
 197      29A985B4 
 197      6618
 198 016c 025D568A 		.ascii	"\002]V\212\366l\315\305\355\011\015\273\365velpR9\320"
 198      F66CCDC5 
 198      ED090DBB 
 198      F576656C 
 198      705239D0 
 199 0180 AF8FA4B5 		.ascii	"\257\217\244\265\326\014\220\264@\225\034\350\315\027"
 199      D60C90B4 
 199      40951CE8 
 199      CD17
 200 018e FA6722A3 		.ascii	"\372g\"\243r\307\022\261\325\267\364\001\205\264n\220"
 200      72C712B1 
 200      D5B7F401 
 200      85B46E90 
 201 019e AAAC6892 		.ascii	"\252\254h\222\333)\273\025\2405\255\306&\233,\022\034"
 201      DB29BB15 
 201      A035ADC6 
 201      269B2C12 
 201      1C
 202 01af C65D1EAB 		.ascii	"\306]\036\253\323q\341\255\216\305Te\227\2466\312\205"
 202      D371E1AD 
 202      8EC55465 
 202      97A636CA 
 202      85
 203 01c0 590918CC 		.ascii	"Y\011\030\314v\271\245\013i\366N\026\302\365\342\020"
 203      76B9A50B 
 203      69F64E16 
 203      C2F5E210 
 204 01d0 C8A21CB7 		.ascii	"\310\242\034\267\013;\272\377}\306\254\231o\352\\a2"
 204      0B3BBAFF 
 204      7DC6AC99 
 204      6FEA5C61 
 204      32
 205 01e1 C226C6FA 		.ascii	"\302&\306\372\312\300w\224\367\304\013\246\362y?\277"
 205      CAC07794 
 205      F7C40BA6 
 205      F2793FBF 
 206 01f1 908195E4 		.ascii	"\220\201\225\344\002\255n\357\244\265\363\222<\363B"
 206      02AD6EEF 
 206      A4B5F392 
 206      3CF342
 207 0200 5F23E9BD 		.ascii	"_#\351\275?P<=\333\246\370PyMsy\255\363\027\217D\360"
 207      3F503C3D 
 207      DBA6F850 
 207      794D7379 
 207      ADF3178F 
 208 0216 9A976666 		.ascii	"\232\227ff\316^\370\003\234t\325\006"
 208      CE5EF803 
 208      9C74D506 
 209              		.text
 210              		.section	.gnu.lto_gpsParseNMEAType.part.1.7b15e597d780654d,"",%progbits
 211 0000 789C8D94 		.ascii	"x\234\215\224=h\024A\024\307\337\233\257\335\231\335"
 211      3D681441 
 211      14C7DF9B 
 211      AFDD99DD 
ARM GAS  /tmp/cclyubud.s 			page 16


 212 0010 C242C414 		.ascii	"\302B\304\024\036A\013\025\324\240\210\215\215\007\201"
 212      1E410B15 
 212      D4A0888D 
 212      8D0781
 213 001f 289C552E 		.ascii	"(\234U.\2426\032\316pl\241D.\205b\221\011\371\340\374"
 213      A2361ACE 
 213      706CA144 
 213      2E856291 
 213      09F9E0FC 
 214 0033 40829C68 		.ascii	"@\202\234h\012\301 b#\330\330\231\302\302\302\302\017"
 214      0AC12062 
 214      23D8D899 
 214      C2C2C2C2 
 214      0F
 215 0044 846B5279 		.ascii	"\204kRy\205\020\260N\025\202\347\274\331\313\235\037"
 215      8510B04E 
 215      1582E7BC 
 215      D9CB9D1F 
 216 0054 0BBB0BFB 		.ascii	"\013\273\013\373\177\377\377\316\314\373\315\024\263"
 216      7FFFFFCE 
 216      CCFBCD14 
 216      B3
 217 0061 0C18FCFB 		.ascii	"\014\030\374\373\264\334{U\000\234r\025c\300h\371\213"
 217      B4DC7B55 
 217      009C7215 
 217      63C068F9 
 217      8B
 218 0072 3311325F 		.ascii	"3\0212_\0313k%\260\206\267G\300\306\274\227\204O\202"
 218      19336B25 
 218      B086B747 
 218      C0C6BC97 
 218      844F82
 219 0085 99D7275D 		.ascii	"\231\327']\222?\206\\\222\275\244|R\275\024\370\024"
 219      923F865C 
 219      92BDA47C 
 219      52BD14F8 
 219      14
 220 0096 F452E853 		.ascii	"\364R\350S\310L\363\240K\2324\326h\2104\027\032D2\200"
 220      C84CF3A0 
 220      4B9A34D6 
 220      68883417 
 220      1A443280 
 221 00aa 301B312E 		.ascii	"0\0331.\244\012Bmp\366\022\322.q?\254Z\373\250\263\370"
 221      A40A426D 
 221      70F612D2 
 221      2E713FAC 
 221      5AFBA8B3 
 222 00bf 6E1D57EC 		.ascii	"n\035W\354\373\205\347v\273\333EL\320\235H#\324\020"
 222      FB85E776 
 222      BBDB454C 
 222      D09D4823 
 222      D410
 223 00d1 2EBA80C3 		.ascii	".\272\200\303\2760\361\367\021\3370\333\351vW~\352\030"
 223      BE30F1F7 
 223      11DF30DB 
 223      E976577E 
 223      EA18
ARM GAS  /tmp/cclyubud.s 			page 17


 224 00e3 F13AAD98 		.ascii	"\361:\255\230\304U\327\220C\202\\\220H\022E\022\220"
 224      C455D790 
 224      43825C90 
 224      48124512 
 224      90
 225 00f4 84249AC4 		.ascii	"\204$\232\3048\241f\022\026\254]\036N\327\001\341\334"
 225      38A16612 
 225      16AC5D1E 
 225      4ED701E1 
 225      DC
 226 0105 53754A3B 		.ascii	"SuJ;\256bD\225O \363\3653\314\337\237\337xrx\022_\240"
 226      AE624495 
 226      4F20F3F5 
 226      33CCDF9F 
 226      DF787278 
 227 011c 843AB23A 		.ascii	"\204:\262:\242\337\026w\213\276\302Rgk\321\354\214\361"
 227      A2DF1677 
 227      8BBEC252 
 227      676BD1EC 
 227      8CF1
 228 012e 3BB0659B 		.ascii	";\260e\233vW\202\262\206\276+-\240\217{\023T%\330\375"
 228      765782B2 
 228      86BE2B2D 
 228      A08F7B13 
 228      5425D8FD 
 229 0142 CC3E3D93 		.ascii	"\314>=\223`\000\351\002\177\274\2206\256\001>\302\207"
 229      6000E902 
 229      7FBC9036 
 229      AE013EC2 
 229      87
 230 0153 8DB9E3FD 		.ascii	"\215\271\343\375N4\304\377<\366\204\213\355\021N\304"
 230      4E34C4FF 
 230      3CF6848B 
 230      ED114EC4 
 231 0163 ED97D1CE 		.ascii	"\355\227\321\316<\221C\034\312#\236\356w\312 \012\270"
 231      3C91431C 
 231      CA239EEE 
 231      77CA200A 
 231      B8
 232 0174 BBCF137F 		.ascii	"\273\317\023\177\015\2102\207X*L\224\031D\011\237\264"
 232      0D883287 
 232      582A4C94 
 232      1944099F 
 232      B4
 233 0185 27365FF5 		.ascii	"'6_\365\211*\207x\2400Qe\020\025<\346\236xo@\014r\210"
 233      892A8778 
 233      A0305165 
 233      10153CE6 
 233      9E786F40 
 234 019c 870A1383 		.ascii	"\207\012\023\203\014b\000K\350\211\017\006\3040\207"
 234      0C62004B 
 234      E8890F06 
 234      C43087
 235 01ab 78B43031 		.ascii	"x\26401\314 \206p\304\003\037\016\200:\007x\2420P\377"
 235      CC208670 
 235      C4031F0E 
 235      803A0778 
ARM GAS  /tmp/cclyubud.s 			page 18


 235      A23050FF 
 236 01bf 07ACBA49 		.ascii	"\007\254\272I{\334\0052\376\002}s\177\003jnhh\035\014"
 236      7BDC0532 
 236      FE027D73 
 236      7F036A6E 
 236      68681D0C 
 237 01d3 4D77B790 		.ascii	"Mw\267\220\255}\217\275E\340\355+\3361\020\233\251\343"
 237      AD7D8FBD 
 237      45E0ED2B 
 237      DE31109B 
 237      A9E3
 238 01e5 205B37BD 		.ascii	" [7\275\023\240\336\246NB\320N\235\202p3u\001\350V\203"
 238      13A0DEA6 
 238      4E42D04E 
 238      9D827033 
 238      7501E856 
 239 01fa 804828FA 		.ascii	"\200H(\372\035\252\372t\343X\015Lc\346\366\364\324\271"
 239      1DAAFA74 
 239      E3580D4C 
 239      63E6F6F4 
 239      D4B9
 240 020c 1BD7A66E 		.ascii	"\033\327\246n\211r\345<\210\261\261\262\223J\305\311"
 240      8972E53C 
 240      88B1B1B2 
 240      934AC5C9 
 241 021c 38B9F10B 		.ascii	"8\271\361\013 \316\216VA\\\036-\303o\374\351\013\316"
 241      20CE8E56 
 241      415C1E2D 
 241      C36FFCE9 
 241      0BCE
 242              		.text
 243              		.section	.gnu.lto_gpsStart.7b15e597d780654d,"",%progbits
 244 0000 789C9591 		.ascii	"x\234\225\221\275K\003A\020\305\337\333\275\213gbaa"
 244      BD4B0341 
 244      10C5DFDB 
 244      BD8B6762 
 244      6161
 245 0012 63676D40 		.ascii	"cgm@\020\377\025\003Z\232+\302\025\001A,\304\"\033\211"
 245      10FF1503 
 245      5A9A2BC2 
 245      1501412C 
 245      C4221B89 
 246 0026 609952B4 		.ascii	"`\231R\264\321V$\301\316FP\260\210\211\037XEmLgk\260"
 246      D15624C1 
 246      CE4650B0 
 246      88891F58 
 246      456D4C67 
 247 003c 1111E2CE 		.ascii	"\021\021\342\316\356%\205it\340n\347\036o~3\267\243"
 247      EE258569 
 247      74E06EE7 
 247      1E6F7E33 
 247      B7A3
 248 004e A0F03B96 		.ascii	"\240\360;\226\3543k\345\310\236\014AU\277\007\252\221"
 248      EC336BE5 
 248      C89E0C41 
 248      55BF07AA 
 248      91
ARM GAS  /tmp/cclyubud.s 			page 19


 249 005f 52C11961 		.ascii	"R\301\031a\262\372\365\0260S\232\201\327\003R\022\020"
 249      B2FAF516 
 249      30539A81 
 249      D7035212 
 249      10
 250 0070 15A50356 		.ascii	"\025\245\003VV\351(Mu\331\033\014\032\357\355\243\026"
 250      56E9284D 
 250      75D91B0C 
 250      1AEFEDA3 
 250      16
 251 0081 55964808 		.ascii	"U\226H\010\3152-5\2418B\324\214\251\317\001\261\363"
 251      CD322D35 
 251      A13842D4 
 251      8CA9CF01 
 251      B1F3
 252 0093 2FDBB760 		.ascii	"/\333\267`\012Tr\352\026\256\337\256>\332z\215\307v"
 252      0A5472EA 
 252      16AEDFAE 
 252      3EDA7A8D 
 252      C776
 253 00a5 8612F50A 		.ascii	"\206\022\365\012}\335(\012\324\260\243\350;\354t>\033"
 253      7DDD280A 
 253      D4B0A3E8 
 253      3BEC743E 
 253      1B
 254 00b6 37CA3BF3 		.ascii	"7\312;\363816\026\255\371\020\007Uc\246\023\252m|\231"
 254      38313616 
 254      ADF91007 
 254      5563A613 
 254      AA6D7C99 
 255 00ca 3DC974D9 		.ascii	"=\311t\3311\204\245\035\244\230\"K\362mI\347\373\315"
 255      3184A51D 
 255      A498224B 
 255      F26D49E7 
 255      FBCD
 256 00dc FE1829F8 		.ascii	"\376\030)\370\033\311\243D\011$y@\255w\261\233\3630"
 256      1BC9A344 
 256      09247940 
 256      AD77B19B 
 256      F330
 257 00ee 605419C6 		.ascii	"`T\031\306\251S\224(a&m\264\231p\302B\213\364\033I\353"
 257      A9539428 
 257      61266DB4 
 257      9970C242 
 257      8BF41B49 
 258 0103 12466EB0 		.ascii	"\022Fn\260\227\247f\237\303\313\210\362\230\377\347"
 258      97A7669F 
 258      C3CB88F2 
 258      98FFE7
 259 0112 0FCA3CE1 		.ascii	"\017\312<\341\330,\223q\332\3152\275h\266\022f\313T"
 259      D82C9371 
 259      DACD32BD 
 259      68B61266 
 259      CB54
 260 0124 A3F6B9E1 		.ascii	"\243\366\271\341m\007n/\217v\343bw\330gP:a0\014V\324"
 260      6D076E2F 
 260      8F76E362 
ARM GAS  /tmp/cclyubud.s 			page 20


 260      77D86750 
 260      3A61300C 
 261 013a 6937721A 		.ascii	"i7r\032\240\277\2733\262XJ\241\264\311\224\3267\026"
 261      A0BFBB33 
 261      B2584AA1 
 261      B4C994D6 
 261      3716
 262 014c 62FC000E 		.ascii	"b\374\000\016\352\211\243"
 262      EA89A3
 263              		.text
 264              		.section	.gnu.lto_gpsStop.7b15e597d780654d,"",%progbits
 265 0000 789C5D8E 		.ascii	"x\234]\2161\017\001A\024\204g\336:Qj\025\0225\211?\203"
 265      310F0141 
 265      148467DE 
 265      3A516A15 
 265      1235893F 
 266 0015 84922B2E 		.ascii	"\204\222+.[H$J\205=\271B\251\246\241\320\242\022\245"
 266      5B48244A 
 266      853DB942 
 266      A9A6A1D0 
 266      A212A5
 267 0028 462588F6 		.ascii	"F%\210\3664\327\372\013\032v\357hl2\273\373\362f\276"
 267      34D7FA0B 
 267      1A76EF68 
 267      6C32BBFB 
 267      F266BE
 268 003b 8C40F07F 		.ascii	"\214@\360\177JV'\253\202\025\025(\263+\020\026\204t"
 268      4A5627AB 
 268      82151528 
 268      B32B1016 
 268      8474
 269 004d 1F1063E1 		.ascii	"\037\020c\341\270\303\324\273\225c\362~ov\347\345\203"
 269      B8C3D4BB 
 269      9563F27E 
 269      6F76E7E5 
 269      83
 270 005e E209FB84 		.ascii	"\342\011\373\204\202Nw\036\"cf\025\300O\307\246\275"
 270      824E771E 
 270      22636615 
 270      C04FC7A6 
 270      BD
 271 006f 5DBE4571 		.ascii	"]\276Eq\257\272`\022\037\366Ov\271\242\207\200\252\206"
 271      AFBA6012 
 271      1FF64F76 
 271      B9A28780 
 271      AA86
 272 0081 AA0D2E30 		.ascii	"\252\015.0\017\2151\015M\006\22465\263\202=\376\352"
 272      0F8D310D 
 272      4D069436 
 272      35B3823D 
 272      FEEA
 273 0093 DD101DCB 		.ascii	"\335\020\035\313Y\012\030\341e\246\246\250\251|f\016"
 273      590A18E1 
 273      65A6A6A8 
 273      A97C660E 
 274 00a3 4BD2CC01 		.ascii	"K\322\314\001w\204I\274\376\342\035\307\373\001\232"
 274      778449BC 
ARM GAS  /tmp/cclyubud.s 			page 21


 274      FEE21DC7 
 274      FB019A
 275 00b2 D6691B38 		.ascii	"\326i\0338n>\030\014\353>>\025\0271\276"
 275      6E3E180C 
 275      EB3E3E15 
 275      1731BE
 276              		.text
 277              		.section	.gnu.lto_gpsParseNMEAType.7b15e597d780654d,"",%progbits
 278 0000 789C5D91 		.ascii	"x\234]\221=K\003A\020\206\337\331\217\273K<\3212\202"
 278      3D4B0341 
 278      1086DFD9 
 278      8FBB4B3C 
 278      D13282
 279 0013 88859D60 		.ascii	"\210\205\235`\345\017\320\312\326\302\200\226r\305q"
 279      E50FD0CA 
 279      D6C28096 
 279      72C571
 280 0022 8520585A 		.ascii	"\205 XZdc\"\0106\001\213\004E\320\316B\264\024lT\260"
 280      64632208 
 280      36018B04 
 280      45D0CE42 
 280      B4146C54 
 281 0037 38F023D8 		.ascii	"8\360#\330\010v\026\202? \235\010q\346r\027\324\205"
 281      08761682 
 281      3F209D08 
 281      71E67217 
 281      D485
 282 0049 9DD9D999 		.ascii	"\235\331\331\231yffWA\341\377Z\344\335! dM\036H\265"
 282      79666657 
 282      41E1FF5A 
 282      E4DD2120 
 282      644D1E48 
 283 005e 9E817AA0 		.ascii	"\236\201z\240\224NC\270\262M\357\000\027je>&\304<\237"
 283      944E43B8 
 283      B24DEF00 
 283      176A653E 
 283      26C43C9F 
 284 0072 67CB9095 		.ascii	"g\313\220\225(\262D\242A\250)m,\325\326(c^\252\333\367"
 284      28B244A2 
 284      41A8296D 
 284      2CD5D628 
 284      635EAADB 
 285 0087 7EFFE2F5 		.ascii	"~\377\342\365\341\344\214t@H\010\2326\010\206OdY(\217"
 285      E1E48C74 
 285      4048089A 
 285      3608864F 
 285      6459288F 
 286 009b 85F6C5C1 		.ascii	"\205\366\305\301\313\242\351\\k\032\2102s\205\245`\253"
 286      CBA2E95C 
 286      6B1A8832 
 286      7385A560 
 286      AB
 287 00ac A444EB27 		.ascii	"\244D\353'\354\\\357^\265g\327\351\224\223c2G8$\006"
 287      EC5CEF5E 
 287      B567D7E9 
 287      94936332 
 287      47382406 
ARM GAS  /tmp/cclyubud.s 			page 22


 288 00c0 C5A45759 		.ascii	"\305\244WY\233|\220\024\367\237\365\261a\220\270\354"
 288      9B7C9014 
 288      F79FF5B1 
 288      6190B8EC 
 289 00d0 CCAF41AB 		.ascii	"\314\257A\253\244\221\206Lk\3547n\332\223E\240\3151"
 289      A491864C 
 289      6BEC376E 
 289      DA9345A0 
 289      CD31
 290 00e2 9ED4EEC2 		.ascii	"\236\324\356\302+\356\275m|\271=7\236\220\037\321`,"
 290      2BEEBD6D 
 290      7CB93D37 
 290      9E901FD1 
 290      602C
 291 00f4 0E96CB4A 		.ascii	"\016\226\313JB\301\024J\307\256\263\220P\011\203\004"
 291      42C1144A 
 291      C7AEB390 
 291      50098304 
 292 0104 08A3AC78 		.ascii	"\010\243\254x\242\221\274\225\322\220$.\215?\255\030"
 292      A291BC95 
 292      D290242E 
 292      8D3FAD18 
 293 0114 1C18DD45 		.ascii	"\034\030\335E3(\202\374a\2710\"\225\227\323\011\215"
 293      332882FC 
 293      61B93022 
 293      9597D309 
 293      8D
 294 0125 1619367B 		.ascii	"\026\0316{\213\027\376\032\361d\015\275\201\004\215"
 294      8B17FE1A 
 294      F1640DBD 
 294      81048D
 295 0134 00EABB17 		.ascii	"\000\352\273\0270\303\014l\037\372\261W\221\207$I\022"
 295      30C30C6C 
 295      1FFAB157 
 295      91872449 
 295      12
 296 0145 9A176F6E 		.ascii	"\232\027on\315E\320K\313\370\001\306\323]\265"
 296      CD45D04B 
 296      CBF801C6 
 296      D35DB5
 297              		.text
 298              		.section	.gnu.lto_gpsParseFix.7b15e597d780654d,"",%progbits
 299 0000 789CB557 		.ascii	"x\234\265W[lTU\024\335\373\334{g\356\274\337o\261\244"
 299      5B6C5455 
 299      14DDFBDC 
 299      7B67EEBC 
 299      DF6FB1A4 
 300 0014 219100A5 		.ascii	"!\221\000\245)AR\013$\032c\37031\332\250\361\013\212"
 300      2941520B 
 300      241A63F8 
 300      3331DAA8 
 300      F10B8A
 301 0027 4CE60321 		.ascii	"L\346\003!`5\312\007\267\264M\232(\332\200\320\372\212"
 301      6035CA07 
 301      B7B44D9A 
 301      28DA80D0 
 301      FA8A
ARM GAS  /tmp/cclyubud.s 			page 23


 302 0039 101C6BA4 		.ascii	"\020\034k\244\310\007\2216`\264\215hl\000Q\214\011\215"
 302      C8079136 
 302      60B48D68 
 302      6C00518C 
 302      098D
 303 004b 4D208D8A 		.ascii	"M \215\212Q\242&|\320\240\241\236\347}\014\2576-\367"
 303      51A2267C 
 303      D0A0A19E 
 303      E77D0CAF 
 303      362DF7
 304 005e 63DF73F6 		.ascii	"c\337s\366\343\354u\326\336s\346\\\002\004j\237\227"
 304      E3EC75D6 
 304      DE73E65C 
 304      02046A9F 
 304      97
 305 006f 10209B00 		.ascii	"\020 \233\000\250\243c\274\017\220\364~\007\320a\022"
 305      A8A363BC 
 305      0F90F47E 
 305      07D06112 
 306 007f 52EAD5C0 		.ascii	"R\352\325\300\012j\326i\000+\254aA\350u4\330`\3244\210"
 306      0A6AD669 
 306      002BAC61 
 306      41E87534 
 306      D860D434 
 307 0094 EF17660A 		.ascii	"\357\027f\012\232\203\204:\370\210\337=\365\023\375"
 307      9A83843A 
 307      F888DF3D 
 307      F513FD
 308 00a3 D4189F9E 		.ascii	"\324\030\237\236\321\351\3244s\223\001\260\314\000\227"
 308      D1E9D434 
 308      739301B0 
 308      CC0097
 309 00b2 612E235C 		.ascii	"a.#\\&\270Lr\231\3472+<I\260\347\001\032\037b2\034\304"
 309      26B84C72 
 309      99E7322B 
 309      3C49B0E7 
 309      011A1F62 
 310 00c9 BC481F52 		.ascii	"\274H\037R\203\260\032DH\364\347 u\214}\366\025\003"
 310      83B01A44 
 310      48F4E720 
 310      758C7DF6 
 310      1503
 311 00db 1A55FA18 		.ascii	"\032U\372\030\211s}^\350\343J\237P\203$Iq\207\264pH"
 311      89737D5E 
 311      E8E34A9F 
 311      50832449 
 311      7187B470 
 312 00f0 297D9A64 		.ascii	")}\232d\334\201\031\245\317\252AN\015\362\202\224Q\263"
 312      DC8119A5 
 312      CFAA414E 
 312      0DF28294 
 312      51B3
 313 0102 408A1F7F 		.ascii	"@\212\037\177\303v[\372\335OC\212\202#,!\2627 \354$"
 313      C3765BFA 
 313      DD4F438A 
 313      82232C21 
 313      B23720EC 
ARM GAS  /tmp/cclyubud.s 			page 24


 314 0117 9A6EF8FC 		.ascii	"\232n\370\374f \030\012G\242\261x\"\231Jg\262\271|\241"
 314      6620180A 
 314      47A2B178 
 314      22994A67 
 314      B2B97CA1 
 315 012b 58C29DCF 		.ascii	"X\302\235\317\"\253\203V\017\007-k\317\245_\007\376"
 315      22AB8356 
 315      0F072D6B 
 315      CFA55F07 
 315      FE
 316 013c C03E6BA4 		.ascii	"\300>k\244\343\200\365\337\3644b\005i\315\002\010m\010"
 316      E380F5DF 
 316      F4346205 
 316      69CD0208 
 316      6D08
 317 014e CFD0099A 		.ascii	"\317\320\011\232\374E\320[D\021;\362\343\371\335\005"
 317      FC45D05B 
 317      44113BF2 
 317      E3F9DD05 
 318 015e EBC0AE5E 		.ascii	"\353\300\256^\353\006\015\255\240F \344D.\024\221\372"
 318      EB060DAD 
 318      A04620E4 
 318      442E1491 
 318      FA
 319 016f 2D237F3A 		.ascii	"-#\177:\377F\316\272d\251H\2323v\267\234G\311\310\245"
 319      FF46CEBA 
 319      64A9489A 
 319      3376B79C 
 319      47C9C8A5 
 320 0183 E9E9C1BD 		.ascii	"\351\351\301\275\335\223\317\255EX\217\007\261\236\206"
 320      DD93CFAD 
 320      45588F07 
 320      B19E86
 321 0192 ADC743F4 		.ascii	"\255\307C\364\255\311\267N\337U\3726\240\202z\0207#"
 321      ADC9B74E 
 321      DF55FA36 
 321      A0827A10 
 321      3723
 322 01a4 84E8C888 		.ascii	"\204\350\310\210P\341\213J\237\030\235\370\343\3221"
 322      50E18B4A 
 322      9F189DF8 
 322      E3D231
 323 01b3 C12C4969 		.ascii	"\301,IiI\263IVNr\314-O\227\300\"\033-`\242\216\211z"
 323      49B34956 
 323      4E72CC2D 
 323      4F97C022 
 323      1B2D60A2 
 324 01ca 261631B1 		.ascii	"&\0261\261\230\012s\011\033-e\243\006&\032\231hb\272"
 324      980A7309 
 324      1B2D65A3 
 324      06261A99 
 324      6862BA
 325 01dd 156CB492 		.ascii	"\025l\264\222\211UT\004\232\251\010\266\310\264\253"
 325      89555404 
 325      9AA908B6 
 325      C8B4AB
 326 01ec 25FE3532 		.ascii	"%\37652\031}\014\350\262\254\336\205B/\264\302\027\030"
ARM GAS  /tmp/cclyubud.s 			page 25


 326      197D0CE8 
 326      B2ACDE85 
 326      422FB4C2 
 326      1718
 327 01fe 2FF4798A 		.ascii	"/\364y\212\312.\204V$\364\245\235\205\316\327:\257~"
 327      CA2E8456 
 327      24F4A59D 
 327      85CED73A 
 327      AF7E
 328 0210 58B71E07 		.ascii	"X\267\036\007\320\2002\206\312\030\344\254i\324\365"
 328      D0803286 
 328      CA18E4AC 
 328      69D4F5
 329 021f 1CF8943E 		.ascii	"\034\370\224>\262\003\256[=V\274\202\2416\024\214Rg"
 329      B203AE5B 
 329      3D56BC82 
 329      A136148C 
 329      5267
 330 0231 A6CC5730 		.ascii	"\246\314W0|?\224\336\267\372\037\256`\004D\000g>\252"
 330      7C3F94DE 
 330      B7FA1FAE 
 330      60044400 
 330      673EAA
 331 0244 51AC3180 		.ascii	"Q\2541\200o\241\353JG\314^\211\231|\356\212\264\242"
 331      6FA1EB4A 
 331      47CC5E89 
 331      997CEE8A 
 331      B4A2
 332 0256 06D320A0 		.ascii	"\006\323 \240\014TK\3121\252\240\370m?\035\372\277\346"
 332      0C544BCA 
 332      31AAA0F8 
 332      6D3F1DFA 
 332      BFE6
 333 0268 8E3D9D7F 		.ascii	"\216=\235\177V\233\225c\274\214:s\004\206\353,\354\372"
 333      569B9563 
 333      BC8C3A73 
 333      0486EB2C 
 333      ECFA
 334 027a AB739B32 		.ascii	"\253s\2332%\250\211\351\350\312\237\022\245L\226\221"
 334      25A889E9 
 334      E8CA9F12 
 334      A54C9691 
 335 028a D89D41FD 		.ascii	"\330\235A\375\307z%\270\006\030\264\350\363\020e\375"
 335      C77A25B8 
 335      0618B4E8 
 335      F31065FD 
 336 029a 5D78A7C3 		.ascii	"]x\247\303b\333\215\333\03377#;\206X\244)\011HHde\266"
 336      62DB8DDB 
 336      1B373723 
 336      3B8658A4 
 336      29094848 
 337 02b1 4D01D100 		.ascii	"M\001\321\000\372\333A\272\352\211\356\223\325\373U"
 337      FADB41BA 
 337      EA89EE93 
 337      D5FB55
 338 02c0 CA185D8F 		.ascii	"\312\030]\217\306\371efM\306y\231\2111Sb\231\315\313"
 338      C6F96566 
ARM GAS  /tmp/cclyubud.s 			page 26


 338      4DC67999 
 338      89315362 
 338      99CDCB
 339 02d3 389032AE 		.ascii	"8\2202\256)\"E\254\017\366\035!\343\240\227\261\205"
 339      292245AC 
 339      0FF61D21 
 339      E3A097B1 
 339      85
 340 02e4 CDE37A8F 		.ascii	"\315\343z\217\237%\363\001=\2744\266\312\350\305=\232"
 340      9F25F301 
 340      3DBC34B6 
 340      CAE8C53D 
 340      9A
 341 02f5 771D2FC3 		.ascii	"w\035/\303~\030\035\343\236\277\215\376\223T\216\202"
 341      7E181DE3 
 341      9EBF8DFE 
 341      93548E82 
 342 0305 B598C7D1 		.ascii	"\265\230\307\321\204)S\343$^\255\346\225cZ\322\270k"
 342      842953E3 
 342      245EADE6 
 342      95635AD2 
 342      B86B
 343 0317 F8FB9087 		.ascii	"\370\373\220\207\252\246\031S\225\226\031\230\216\027"
 343      AAA61953 
 343      95961998 
 343      8E17
 344 0325 9417E55A 		.ascii	"\224\027\345Z\325P9\262\356\252\234\201\267\255+}\001"
 344      D55039B2 
 344      EEAA9C81 
 344      B7AD2B7D 
 344      01
 345 0336 65C3DDF0 		.ascii	"e\303\335\360zG\2275rq\277V\301$\213\336(9\224\206\336"
 345      7A479735 
 345      7271BF56 
 345      C1248BDE 
 345      28399486 
 346 034b 14D5DB3D 		.ascii	"\024\325\333=\260\021u\267\361\274m$\334h\270\215\027"
 346      B01175B7 
 346      F1BC6D24 
 346      DC68B88D 
 346      17
 347 035c 6CA3C68D 		.ascii	"l\243\306\215>\267\361\206m\324\271\321\3576\276\225"
 347      3EB7F186 
 347      6DD4B9D1 
 347      EF36BE95 
 348 036c 5546831B 		.ascii	"UF\203\033M\267\361\013\333\350\347\306\200'\247m\014"
 348      4DB7F10B 
 348      DBE8E7C6 
 348      8027A76D 
 348      0C
 349 037d 7063D053 		.ascii	"pc\320S\201\000\274\211\332izN\213\335o\224\324\237"
 349      8100BC89 
 349      DA697A4E 
 349      8BDD6F94 
 349      D49F
 350 038f E83EFC51 		.ascii	"\350>\374Q\203\"$'\372)%\030\267V{(7\334\335\025\262"
 350      83222427 
ARM GAS  /tmp/cclyubud.s 			page 27


 350      FA292518 
 350      B7567B28 
 350      37DCDD15 
 351 03a4 439829E5 		.ascii	"C\230)\345\355\212 \365a\305\036\353?6I<\205}\202\237"
 351      ED8A20F5 
 351      61C51EEB 
 351      3F36493C 
 351      857D829F 
 352 03b8 469FB0E1 		.ascii	"F\237\260\341\203\025L\213t\2312\346\331*Y\036\276\001"
 352      83154C8B 
 352      749932E6 
 352      D92A591E 
 352      BE01
 353 03ca 9D8A3ABF 		.ascii	"\235\212:\277g\232\210\303\235\030>6iwd\261\001\226"
 353      679A88C3 
 353      9D183E36 
 353      697764B1 
 353      0196
 354 03dc CDB053F8 		.ascii	"\315\260S\370j\256#\233\377>Cs\302\206\016\266\242\350"
 354      6AAE239B 
 354      FF3E4373 
 354      C2860EB6 
 354      A2E8
 355 03ee E20B73DD 		.ascii	"\342\013s\335\256}\037\341\355\334\"pNL\271\266\274"
 355      AE7D1FE1 
 355      EDDC2270 
 355      4E4CB9B6 
 355      BC
 356 03ff 60965B76 		.ascii	"`\226[v\335p\346a\313\352\200a@\004\266\376\343\016"
 356      DD70E661 
 356      CBEA8061 
 356      4004B6FE 
 356      E30E
 357 0411 B6BA5962 		.ascii	"\266\272Yb\323\346\025\233\356`\253\023\345\030>>\307"
 357      D3E6159B 
 357      EE60AB13 
 357      E5183E3E 
 357      C7
 358 0422 72A88EF7 		.ascii	"r\250\216\367\226\343\202k\313\365\263\334\262\353\272"
 358      96E3826B 
 358      CBF5B3DC 
 358      B2EBBA
 359 0431 310F5BB6 		.ascii	"1\017[\266\177\036e\366G\314[\305\205m\321,\261\031"
 359      7F1E65F6 
 359      47CC5BC5 
 359      856DD12C 
 359      B119
 360 0443 F38ACDEF 		.ascii	"\363\212\315\357`[$\312\321?4\307r\230\236r\250I+\206"
 360      605B24CA 
 360      D13F34C7 
 360      72989E72 
 360      A8492B86 
 361 0457 E471333C 		.ascii	"\344q3<5\327\014p\233\014\341\332\263\323\340[\272\336"
 361      35D70C70 
 361      9B0CE1DA 
 361      B3D3E05B 
 361      BADE
ARM GAS  /tmp/cclyubud.s 			page 28


 362 0469 7978C0BE 		.ascii	"yx\300\276W,\336\001\257R>e\272\265\224\357[\247s\035"
 362      572CDE01 
 362      AF523E65 
 362      BAB594EF 
 362      5BA7731D 
 363 047d 42E7A07B 		.ascii	"B\347\240{\244(o6`W'\327\206D2\267X\036\304\355\242"
 363      A4286F36 
 363      605727D7 
 363      864432B7 
 363      581EC4ED 
 364 0492 66D2B582 		.ascii	"f\322\265\202y\005,R\013\314'O\311\223\223\250\200-"
 364      79052C52 
 364      0BCC274F 
 364      C99393A8 
 364      802D
 365 04a4 99651F38 		.ascii	"\231e\0378\370(\257\247.;G\375\022~\001x\322eo\305("
 365      F828AFA7 
 365      2E3B47FD 
 365      127E0178 
 365      D2656FC5 
 366 04b9 A435CEC4 		.ascii	"\2445\316\304\227\003\215\312o\251\207\211\366\2312"
 366      97038DCA 
 366      6FA98789 
 366      F69932
 367 04c8 B1FC2626 		.ascii	"\261\374&&\012m\362\357\230\256\311+\302\356\260E\225"
 367      0A6DF2EF 
 367      98AEC92B 
 367      C2EEB045 
 367      95
 368 04d9 3A06FFB2 		.ascii	":\006\377\262\253\307\251\313\243W\367F\274\030\037"
 368      ABC7A9CB 
 368      A357F746 
 368      BC181F
 369 04e8 F7608C43 		.ascii	"\367`\214CB`\374\333\301\330p\01706p\214K\335\030\023"
 369      4260FCDB 
 369      C1D8700F 
 369      3036708C 
 369      4BDD1813 
 370 04fc B5F5F1CB 		.ascii	"\265\365\361\313\30694h7N\343\014\033\207x\241\334\261"
 370      C6393468 
 370      374EE30C 
 370      1B8778A1 
 370      DCB1
 371 050e 711A65E3 		.ascii	"q\032e\343\274|\273\306I\326\0023\345\0012\3514N\323"
 371      BC7CBBC6 
 371      49D60233 
 371      E50132E9 
 371      344ED3
 372 0521 7C354E13 		.ascii	"|5N\023/\312\323\236\242\244T\343\014\015\332EY1\303"
 372      2FCAD39E 
 372      A2A454E3 
 372      0C0DDA45 
 372      5931C3
 373 0534 A2D43071 		.ascii	"\242\3240q\307\242\254\270\271q\322v\343|\260?\342\305"
 373      C7A2ACB8 
 373      B971D276 
 373      E37CB03F 
ARM GAS  /tmp/cclyubud.s 			page 29


 373      E2C5
 374 0546 F8980763 		.ascii	"\370\230\007cF5\316e\007\343\312{\200q\345\315\215\223"
 374      4635CE65 
 374      07E3CA7B 
 374      8071E5CD 
 374      8D93
 375 0558 ADAD4F40 		.ascii	"\255\255O@5\316\021\273qVq(\001\247qns\300i^(wl\234"
 375      35CE11BB 
 375      71567128 
 375      01A7716E 
 375      73C0695E 
 376 0570 55773B71 		.ascii	"Uw;qr\265\300\202\022\330\220\003\254\231\003\013:\300"
 376      72B5C082 
 376      12D89003 
 376      AC99030B 
 376      3AC0
 377 0582 4AB706A6 		.ascii	"J\267\006\246\317\002X\363\335\200\345\331\027\006\003"
 377      CF0258F3 
 377      DD80E5D9 
 377      170603
 378 0591 266FF1FC 		.ascii	"&o\361\374s\356h\325.\334jz\337\267\257\362\"\244\000"
 378      73EE68D5 
 378      2EDC6A7A 
 378      DFB7AFF2 
 378      22A400
 379 05a4 D702FCE3 		.ascii	"\327\002\374\343\305iU\264\357\317\342\031\007\025\244"
 379      C56955B4 
 379      EFCFE219 
 379      0715A4
 380 05b3 0D6B7491 		.ascii	"\015kt\221\374\2241\016t\020\325\336\333\267\231~]\344"
 380      FC94310E 
 380      7410D5DE 
 380      DBB7997E 
 380      5DE4
 381 05c5 27FA326C 		.ascii	"'\3722l\251\"\313\316\334\327\224Q+\3408\264\3600\200"
 381      A922CBCE 
 381      DCD79451 
 381      2BE038B4 
 381      F03080
 382 05d8 C2C4BE57 		.ascii	"\302\304\276W\230C\211}\026\377\300\341\225\305Uz\034"
 382      9843897D 
 382      16FFC0E1 
 382      95C5557A 
 382      1C
 383 05e9 0CE6A34F 		.ascii	"\014\346\243O\253\007w\222\211\275\001\256\243q\237"
 383      AB077792 
 383      89BD01AE 
 383      A3719F
 384 05f8 0F65D857 		.ascii	"\017e\330W5\3228\306\201\257\274u\373\3626\300\212\266"
 384      35D238C6 
 384      81AFBC75 
 384      FBF236C0 
 384      8AB6
 385 060a 75CBF6D0 		.ascii	"u\313\366\320\206\366M\233\236\337\366\350\226\366\027"
 385      86F64D9B 
 385      9EDFF6E8 
 385      96F617
ARM GAS  /tmp/cclyubud.s 			page 30


 386 0619 5ED4D7AD 		.ascii	"^\324\327\255{\004\376\007\342\346\330\206"
 386      7B04FE07 
 386      E2E6D886 
 387              		.text
 388              		.section	.gnu.lto_gpsNMEAChecksum.7b15e597d780654d,"",%progbits
 389 0000 789C5D51 		.ascii	"x\234]Q=K\003A\020\2357\273{9\305\306\336B\374\001\261"
 389      3D4B0341 
 389      109D37BB 
 389      7B39C5C6 
 389      DE42FC01 
 390 0015 B2F45F24 		.ascii	"\262\364_$\240\205E8\344\014\022QB\352\354\231\244\322"
 390      A0854538 
 390      E40C1251 
 390      42EAEC99 
 390      A4D2
 391 0027 22D808DA 		.ascii	"\"\330\010\332\030,\205X\312\005\305X)\242\202\235\001"
 391      182C8558 
 391      CA05C558 
 391      29A2829D 
 391      01
 392 0038 8BD46267 		.ascii	"\213\324bg\0338g\223\273H\\\270\233\217\367f\346\355"
 392      1B386793 
 392      BB485CB8 
 392      9B8FF766 
 392      E6ED
 393 004a 2C13D3FF 		.ascii	",\023\323\377\263.\337\031\210\026\305\302#p\373\215"
 393      B32EDF19 
 393      8816C5C2 
 393      2370FB8D 
 394 005a 28F2197A 		.ascii	"(\362\031z\342\250\211\363\340kV\307\217Dv\3364sd\027"
 394      E2A889F3 
 394      E06B56C7 
 394      8F4476DE 
 394      34736417 
 395 006e 0CE0F204 		.ascii	"\014\340\362\004\252\263\322\006\365M\270vX\241\216"
 395      AAB3D206 
 395      F54DB876 
 395      58A18E
 396 007d B527C3D6 		.ascii	"\265'\303\326\317\027Nm?\272\260\243$\001\312\220\321"
 396      CF174E6D 
 396      3FBAB0A3 
 396      2401CA90 
 396      D1
 397 008e 73A000B4 		.ascii	"s\240\000\264!\001\374\261a\314j\271\346\3760In\343"
 397      2101FCB1 
 397      61CC6AB9 
 397      E6FE3049 
 397      6EE3
 398 00a0 D6F39670 		.ascii	"\326\363\226p+\256\246\204\216\264T\220@\273\214Ge\250"
 398      2BAEA684 
 398      8EB45490 
 398      40BB8C47 
 398      65A8
 399 00b2 9CF3FC14 		.ascii	"\234\363\374\024\223c\250im{9\213\203q\333\202\374E"
 399      9363A869 
 399      6D7B398B 
 399      8371DB82 
ARM GAS  /tmp/cclyubud.s 			page 31


 399      FC45
 400 00c4 69112C46 		.ascii	"i\021,F\275R\343\250q\323]*\341\022\206B\350\020jFB"
 400      BD52E3A8 
 400      71D35D2A 
 400      E1128642 
 400      E8106A46 
 401 00d9 118AE47E 		.ascii	"\021\212\344~\023\342}w5#\346B`J\024\260\327\330\313"
 401      13E27D77 
 401      3523E642 
 401      604A14B0 
 401      D7D8CB
 402 00ec 203F0487 		.ascii	" ?\004\207\262\263\264^\223,D\352\017{\2558\237q\274"
 402      B2B3B45E 
 402      932C44EA 
 402      0F7BAD38 
 402      9F71BC
 403 00ff 73D9AE48 		.ascii	"s\331\256HN\273\350t\332\0235\277\243\265)\311A\346"
 403      4EBBE874 
 403      DA1335BF 
 403      A3B529C9 
 403      41E6
 404 0111 6F0F0382 		.ascii	"o\017\003\202(\344\317\370@\346\253Q|\207\001\261\343"
 404      28E4CFF8 
 404      40E6AB51 
 404      7C8701B1 
 404      E3
 405 0122 08C62F71 		.ascii	"\010\306/qMFK\266\342\206\032w\271w\212\206\037W\310"
 405      4D464BB6 
 405      E2861A77 
 405      B9778A86 
 405      1F57C8
 406 0135 DAA58F5C 		.ascii	"\332\245\217\\\000\004t\201\027\356W\363\001\371\301"
 406      00047481 
 406      17EE57F3 
 406      01F9C1
 407 0144 CE76B05B 		.ascii	"\316v\260[\255U~\001\211\007h>"
 407      AD557E01 
 407      8907683E 
 408              		.text
 409              		.section	.gnu.lto_gpsThread.7b15e597d780654d,"",%progbits
 410 0000 789C9D54 		.ascii	"x\234\235TKL\023Q\024\275w\276\375YE\344\253(\"~\011"
 410      4B4C1351 
 410      14BD77BE 
 410      FD5945E4 
 410      AB28227E 
 411 0015 74A36B57 		.ascii	"t\243kW.\335A\324\030c\332\241\201\027-(\005\023\343"
 411      2EDD41D4 
 411      1863DAA1 
 411      81172D28 
 411      0513E3
 412 0028 C2A99644 		.ascii	"\302\251\226D\220D\026\232\370\331@\304\005 v\3417&"
 412      9044169A 
 412      F8D940C4 
 412      052076E1 
 412      3726
 413 003a 468C3512 		.ascii	"F\2145\022\215\032?$\006]4n\014\021\215\0337\200\342"
 413      8D1A3F24 
ARM GAS  /tmp/cclyubud.s 			page 32


 413      065D346E 
 413      0C118D1B 
 413      3780E2
 414 004d 7DF366A6 		.ascii	"}\363f\246\264\305D\235d\336{3s\3579\347\236w\347I "
 414      B4C5449D 
 414      64DE7B33 
 414      73EF39E7 
 414      9E77E749 
 415 0062 41FEB587 		.ascii	"A\376\265\207\356I\015`\027\315\350\001\224\372_\002"
 415      EE490D60 
 415      17CDE801 
 415      94FA5F02 
 416 0072 243C126A 		.ascii	"$<\022jb!K\312\007\037\230>\365\366c\0003\240\240*\336"
 416      62214BCA 
 416      071F983E 
 416      F5F66300 
 416      33A0A02A 
 417 0087 AB22E091 		.ascii	"\253\"\340\221G\223\344\276\247\364\311\247'u\012\320"
 417      4793E4BE 
 417      A7F4C9A7 
 417      27750AD0 
 418 0097 11F97B40 		.ascii	"\021\371{@8)\311\212\252\351xr\037r\"\254\201A\323\274"
 418      3829C98A 
 418      AAE97872 
 418      1F7222AC 
 418      8141D3BC 
 419 00ab 9879323B 		.ascii	"\230y2;\205\227\314\361\344\2009\277\260\200\310\220"
 419      8597CCF1 
 419      E48039BF 
 419      B080C890 
 420 00bb 4479110C 		.ascii	"Dy\021\014\204\275\364\200\325\326$)\271*S\322xfa\241"
 420      84BDF480 
 420      D5D62429 
 420      B92A53D2 
 420      786661A1 
 421 00cf EF41F727 		.ascii	"\357A\367'V%c\014A\003\206\262\227\006\305O\203\032"
 421      5625630C 
 421      410386B2 
 421      9706C54F 
 421      831A
 422 00e1 A0410BF2 		.ascii	"\240A\013\362U1\206q\220\270J\351A/\243\301S\316W\025"
 422      55318671 
 422      90B84AE9 
 422      412FA3C1 
 422      53CE5715 
 423 00f5 7C55C9E3 		.ascii	"|U\311\343\011M\205\244i\366W\213@\340\324t5\322H\025"
 423      094D85A4 
 423      69F6578B 
 423      40E0D474 
 423      35D24815 
 424 0109 34A14493 		.ascii	"4\241D\223\374\012\272\277\017\367\367\226\330\241N"
 424      FC0ABABF 
 424      0FF7F796 
 424      D8A14E
 425 0118 CEF8F31F 		.ascii	"\316\370\363\037\223*@\030\257\242Jy(\324\235\200Y\363"
 425      932A4018 
 425      AFA24A79 
ARM GAS  /tmp/cclyubud.s 			page 33


 425      28D49D80 
 425      59F3
 426 012a 8CB982A1 		.ascii	"\214\271\202\241\327@)\214\327\350\233\3736\363v\340"
 426      D740298C 
 426      D7E89BFB 
 426      36F376E0 
 427 013a FC3686BE 		.ascii	"\3746\206\276:\0301\351:\310\320\037C\214\360L;2\214"
 427      3A1831E9 
 427      3AC8D01F 
 427      438CF04C 
 427      3B328C
 428 014d 437CE265 		.ascii	"C|\342e\007\220\024.\023\240M(\003\031KJ\222\231\341"
 428      0790142E 
 428      13A04D28 
 428      03194B4A 
 428      9299E1
 429 0160 68818EF9 		.ascii	"h\201\216\371'rV\207\234\247#h\240\022\306\221\\\035"
 429      27725687 
 429      9CA72368 
 429      A012C691 
 429      5C1D
 430 0172 4317EAB2 		.ascii	"C\027\352\262:\216\346\350\030\021:\206\371\304p9\000"
 430      3A8EE6E8 
 430      18113A86 
 430      F9C47039 
 430      00
 431 0183 959FE919 		.ascii	"\225\237\351\031\326\363Y{~.*^-,^\013c*\207\364\315"
 431      D6F3597B 
 431      7E2E2A5E 
 431      2D2C5E0B 
 431      632A87F4 
 432 0198 506D96B3 		.ascii	"Pm\226\263)\2073%8o\344\327\376\002NM}\234Im\0254-\350"
 432      29873325 
 432      386FE4D7 
 432      FE024E4D 
 432      7D9C496D 
 433 01b0 AD03F24F 		.ascii	"\255\003\362O\271\002\227\023&\247Y\341\022\026\305"
 433      B9029713 
 433      26A759E1 
 433      1216C5
 434 01bf 90F7334F 		.ascii	"\220\3673O.\262\244D\234\015!\375\212\310_\244o\245"
 434      2EB2A444 
 434      9C0D21FD 
 434      8AC85FA4 
 434      6FA5
 435 01d1 81BAF591 		.ascii	"\201\272\365\2210\031\026\013\246\367\227\253\362\212"
 435      3019160B 
 435      A6F797AB 
 435      F28A
 436 01df 34E752F5 		.ascii	"4\347R\365\331\"=\"\241T\2240>9Md\253\376N\213\304Q"
 436      D9223D22 
 436      A1549430 
 436      3E394D64 
 436      ABFE4E8B 
 437 01f5 EE093B88 		.ascii	"\356\011;\210\352\333\351\373\324\232w\255\232\312\010"
 437      EADBE9FB 
 437      D49A77AD 
ARM GAS  /tmp/cclyubud.s 			page 34


 437      9ACA08
 438 0204 D17A397B 		.ascii	"\321z9{\232\330\234J\375\034\215\223\320\346\224\324"
 438      9AD89C4A 
 438      FD1C8D93 
 438      D0E694D4 
 439 0214 C375EED9 		.ascii	"\303u\356\331\001\346p\233;\031\226\021K\004e\027\230"
 439      01E6709B 
 439      3B199611 
 439      4B046517 
 439      98
 440 0225 9000DC27 		.ascii	"\220\000\334'\227\215\267\314\257Q\277\203\033pU\226"
 440      978DB7CC 
 440      AF51BF83 
 440      1B705596 
 441 0235 1BE8B52D 		.ascii	"\033\350\265-\3603\254\000\230\200\364\347\204\327\015"
 441      F033AC00 
 441      9880F4E7 
 441      84D70D
 442 0244 E4F22B1D 		.ascii	"\344\362+\035\017E\023*\220\361Z=\330\363U/\260t\265"
 442      0F45132A 
 442      90F15A3D 
 442      D8F3552F 
 442      B074B5
 443 0257 813EB709 		.ascii	"\201>\267\011<\014\327\330R\3673\254\262\244\212\337"
 443      3C0CD7D8 
 443      52F733AC 
 443      B2A48ADF 
 444 0267 D8CE63B8 		.ascii	"\330\316c\270\366\217\246\217\336\332Z`z\371\377\232"
 444      F68FA68F 
 444      DEDA5A60 
 444      7AF9FF9A 
 445 0277 9ECE33FD 		.ascii	"\236\3163\375\261U]\005!\332\246\023\233Ss\360_LO\013"
 445      B1555D05 
 445      21DAA613 
 445      9B5373F0 
 445      5F4C4F0B 
 446 028b D32B4451 		.ascii	"\323+DQiaz\3321\275;\323;\346+\360h\235\201~\333\363"
 446      69617ADA 
 446      31BD3BD3 
 446      3BE62BF0 
 446      689D817E 
 447 02a1 A06D53B5 		.ascii	"\240mS\265\015\376\220\204\257\267\320\325\\\237j\304"
 447      0DFE9084 
 447      AFB7D0D5 
 447      5C9F6AC4 
 448 02b1 1E9E5D02 		.ascii	"\036\236]\002\216,\017,e\371\301?[.6RuO\223s\273\013"
 448      8E2C0F2C 
 448      65F9C13F 
 448      5B2E3652 
 448      754F9373 
 449 02c7 503718F6 		.ascii	"P7\030\366\261\303\275\254\235\340\277\342F'Q\003:\320"
 449      B1C3BDAC 
 449      9DE0BFE2 
 449      46275103 
 449      3AD0
 450 02d9 65BE6FF7 		.ascii	"e\276o\367\346\236I\216o\232\365[\312\264+\224\261\251"
 450      E69E498E 
ARM GAS  /tmp/cclyubud.s 			page 35


 450      6F9AF55B 
 450      CAB42B94 
 450      B1A9
 451 02eb 05659EB9 		.ascii	"\005e\236\271\331\336\005\315n\237\011H\316$v\270)<"
 451      D9DE05CD 
 451      6E9F0948 
 451      CE2476B8 
 451      293C
 452 02fd 445ED45D 		.ascii	"D^\324]\004\256\363\303\326\302\2763\215\371M\361\345"
 452      04AEF3C3 
 452      D6C2BE33 
 452      8DF94DF1 
 452      E5
 453 030e D69A6C53 		.ascii	"\326\232lS\004\205\207\225vS\334|\036\374\227S!\214"
 453      04858795 
 453      7653DC7C 
 453      1EFC9753 
 453      218C
 454 0320 93CE36D1 		.ascii	"\223\3166\321\311\360.\267\372-\006.w\003\210\202!5"
 454      C9F02EB7 
 454      FA2D062E 
 454      77038882 
 454      2135
 455 0332 E36B4864 		.ascii	"\343kHd\256\214\241#\276X(n$\260\244\316\011\264\226"
 455      AE8CA123 
 455      BE58286E 
 455      24B0A4CE 
 455      09B496
 456 0345 23F10603 		.ascii	"#\361\006\003\364X4\036\017\267D\267\207Z\333c\321\220"
 456      F458341E 
 456      0FB744B7 
 456      875ADB63 
 456      D190
 457 0357 D1DE7C3C 		.ascii	"\321\336|<\324\034=\0262ZY\204\265\307C\235\035]m\207"
 457      D41C3D16 
 457      325A5984 
 457      B5C7439D 
 457      1D5D6D87 
 458 036b 42B4E8E8 		.ascii	"B\264\350\350\014\2616\343pW3\005\265F\342\321XC+\374"
 458      0CB136E3 
 458      70573305 
 458      B546E2D1 
 458      58432BFC 
 459 037f 06399AC1 		.ascii	"\0069\232\301\332"
 459      DA
 460              		.text
 461              		.section	.gnu.lto_gpsGetLatitude.7b15e597d780654d,"",%progbits
 462 0000 789C7550 		.ascii	"x\234uP1n\0021\020\234\2619s\242\242M\227\036\301k\240"
 462      316E0231 
 462      109CB139 
 462      73A2A24D 
 462      971EC16B 
 463 0015 4028055C 		.ascii	"@(\005\\\201\\ E\242D\010#\035\022\015\022O\200\026"
 463      815C2045 
 463      A2440823 
 463      1D120D12 
 463      4F8016
ARM GAS  /tmp/cclyubud.s 			page 36


 464 0028 05EE0B7C 		.ascii	"\005\356\013|\000P\032\012*\177 \037H\003\366\371B\021"
 464      00501A0A 
 464      2A7F201F 
 464      4803F6F9 
 464      4211
 465 003a 60256BD7 		.ascii	"`%k\327\263\2733c\013\010\374\2177w\232\004b\227)A\261"
 465      B3BB3363 
 465      0B08FC8F 
 465      37779A04 
 465      62972941 
 466 004f 3C02D358 		.ascii	"<\002\323X\220\276\0001\021\234\264\231\317fbo\257\327"
 466      90BE0031 
 466      119CB499 
 466      CF66626F 
 466      AFD7
 467 0061 DDF9B2CA 		.ascii	"\335\371\262\312\250\224\344 \207#\244\306,\337\201"
 467      A894E420 
 467      8723A4C6 
 467      2CDF81
 468 0070 24BF7A32 		.ascii	"$\277z2\277\332\242\360Y\236\220\332\257C\271\3135#"
 468      BFDAA2F0 
 468      599E90DA 
 468      AF43B9CB 
 468      3523
 469 0082 D71EE1D7 		.ascii	"\327\036\341\327\314MU\323\215\007V\217\304\232\254"
 469      CC4D55D3 
 469      8D07568F 
 469      C49AAC
 470 0091 61635CB4 		.ascii	"ac\\\2645\305\200\354\205&\212=\355\274\341\204\231"
 470      35C580EC 
 470      85268A3D 
 470      EDBCE184 
 470      99
 471 00a2 DDFEA807 		.ascii	"\335\376\250\007\252R\302\360\260>e\000MK3*\010\307"
 471      AA52C2F0 
 471      B03E6500 
 471      4D4B332A 
 471      08C7
 472 00b4 9AAA283B 		.ascii	"\232\252(;\232\345\234;\220\367\212\265\273F\3545R\273"
 472      9AE59C3B 
 472      90F78AB5 
 472      BB46EC35 
 472      52BB
 473 00c6 5B549ED9 		.ascii	"[T\236\331\225\317\354~\274\266\373\215\251\315\352"
 473      95CFEC7E 
 473      BCB6FB8D 
 473      A9CDEA
 474 00d5 7F4C219A 		.ascii	"\177L!\232N\332\375\212\327U\375\317a#\301\015\307q"
 474      4EDAFD8A 
 474      D755FDCF 
 474      6123C10D 
 474      C771
 475 00e7 5468     		.ascii	"Th"
 476              		.text
 477              		.section	.gnu.lto_gpsGetLongitude.7b15e597d780654d,"",%progbits
 478 0000 789C6362 		.ascii	"x\234cb`b@\007\222@\034\302\310\300\300\001\244\031"
 478      60624007 
ARM GAS  /tmp/cclyubud.s 			page 37


 478      92401CC2 
 478      C8C0C001 
 478      A419
 479 0012 99191899 		.ascii	"\231\031\030\231&\234c`h\344`bd\0041\030\030\031\352"
 479      269C6360 
 479      68E46062 
 479      64043118 
 479      1819EA
 480 0025 9918EB23 		.ascii	"\231\030\353#\031\301j\3273\035x\360\377\377\272?\267"
 480      19C16AD7 
 480      331D78F0 
 480      FFFFBA3F 
 480      B7
 481 0036 169C6264 		.ascii	"\026\234bdccf\314\005\013\2632\26444LP``H\006sA\206"
 481      636366CC 
 481      050BB332 
 481      B434344C 
 481      50606048 
 482 004e 81B48632 		.ascii	"\201\264\20622\201h\346\363\014-\017\366\237eOd\\\310"
 482      328168E6 
 482      F30C2D0F 
 482      F69F654F 
 482      645CC8
 483 0061 C80A94AE 		.ascii	"\310\012\224\256f\370\325\320\321 \220\311\010T\016"
 483      66F8D5D0 
 483      D12090C9 
 483      08540E
 484 0070 311524C2 		.ascii	"1\025$\302\221\311\310\250\315\260\252\001\010\"3\031"
 484      91C9C8A8 
 484      CDB0AA01 
 484      08223319 
 485 0080 99721919 		.ascii	"\231r\031\031\223 \222\014P}\231@\2671\234gh}p\342-"
 485      9320920C 
 485      507D9940 
 485      B7319C67 
 485      687D70E2 
 486 0095 1B86512C 		.ascii	"\033\206Q,\311\214\020\217\24532C\004\033B3\031Y\241"
 486      C98C108F 
 486      A5333243 
 486      041B4233 
 486      1959A1
 487 00a8 06D66632 		.ascii	"\006\326f2\262A\231\321\231\214\354`\263!\206'A\265"
 487      B24199D1 
 487      998CEC60 
 487      B3218627 
 487      41B5
 488 00ba C1EDE000 		.ascii	"\301\355\340\000\331\321\362\340d/\0276\3472csn,n\347"
 488      D9D1F2E0 
 488      642F1736 
 488      E7326373 
 488      6E2C6EE7 
 489 00ce 5E64687C 		.ascii	"^dh|pJ\027f\022\004\204\000\255\006\206\012\310^\266"
 489      704A1766 
 489      12048400 
 489      AD06860A 
 489      C85EB6
 490 00e1 F48262BD 		.ascii	"\364\202b\275d\006\000V1U\015"
ARM GAS  /tmp/cclyubud.s 			page 38


 490      64060056 
 490      31550D
 491              		.text
 492              		.section	.gnu.lto_gpsGetAltitude.7b15e597d780654d,"",%progbits
 493 0000 789C6362 		.ascii	"x\234cb`b@\007\222@\034\302\310\300\300\001\244\031"
 493      60624007 
 493      92401CC2 
 493      C8C0C001 
 493      A419
 494 0012 99191899 		.ascii	"\231\031\030\231&\234c`h\344`bd\0041\030\030\031\352"
 494      269C6360 
 494      68E46062 
 494      64043118 
 494      1819EA
 495 0025 9918EB23 		.ascii	"\231\030\353#\031\301j\3273\035x\360\377\377\272M\267"
 495      19C16AD7 
 495      331D78F0 
 495      FFFFBA4D 
 495      B7
 496 0036 17DC6564 		.ascii	"\027\334edccf\314\005\013\2632\26444LP``H\006sA\206"
 496      636366CC 
 496      050BB332 
 496      B434344C 
 496      50606048 
 497 004e 81B48632 		.ascii	"\201\264\20622\201h\346\363\014-\017n\235eOd\\\310\310"
 497      328168E6 
 497      F30C2D0F 
 497      6E9D654F 
 497      645CC8C8 
 498 0062 0A94AE66 		.ascii	"\012\224\256f\370\325\320\321 \220\311\010T\0161\025"
 498      F8D5D0D1 
 498      2090C908 
 498      540E3115 
 499 0072 24C291C9 		.ascii	"$\302\221\311\310\250\315\260\252\001\010\"3\031\231"
 499      C8A8CDB0 
 499      AA010822 
 499      331999
 500 0081 72191993 		.ascii	"r\031\031\223 \222\014P}\231@\2671\234gh}p\373-\033"
 500      20920C50 
 500      7D9940B7 
 500      319C6768 
 500      7D70FB2D 
 501 0096 86512CC9 		.ascii	"\206Q,\311\214\020\217\24532C\004\033B3\031Y\241\006"
 501      8C108FA5 
 501      33324304 
 501      1B423319 
 501      59A106
 502 00a9 D66632B2 		.ascii	"\326f2\262A\231\321\231\214\354`\263!\206'A\265\301"
 502      4199D199 
 502      8CEC60B3 
 502      21862741 
 502      B5C1
 503 00bb EDE000D9 		.ascii	"\355\340\000\331\321\362\340N/\0276\3472csn,n\347^d"
 503      D1F2E04E 
 503      2F1736E7 
 503      3263736E 
 503      2C6EE75E 
ARM GAS  /tmp/cclyubud.s 			page 39


 504 00d0 687C7057 		.ascii	"h|pW\027f\022\004\204\000\255\006\206\012\310^\266\364"
 504      17661204 
 504      8400AD06 
 504      860AC85E 
 504      B6F4
 505 00e2 8262BD64 		.ascii	"\202b\275d\006\000G\227U+"
 505      06004797 
 505      552B
 506              		.text
 507              		.section	.gnu.lto_gpsGetTime.7b15e597d780654d,"",%progbits
 508 0000 789C7550 		.ascii	"x\234uP1n\0021\020\234\261s\276\023UZ\272\364\021y\015"
 508      316E0231 
 508      109CB173 
 508      BE13555A 
 508      BAF41179 
 509 0015 14274401 		.ascii	"\024'D\001W \027HH\224\021\302H\207D\203tOHZ\012\370"
 509      57201748 
 509      489411C2 
 509      48874483 
 509      744F485A 
 510 002b 021F4850 		.ascii	"\002\037HP\272H4\376\000\320\"\032\260\317\227\024\011"
 510      BA4834FE 
 510      00D0221A 
 510      B0CF9714 
 510      09
 511 003c AC64ED7A 		.ascii	"\254d\355zvwfl\001\201\277Qw\247I q\231\022\024\305"
 511      7677666C 
 511      0181BF51 
 511      77A74920 
 511      71991214 
 512 0051 27304D04 		.ascii	"'0M\004\351\013\020\023\301I\312rv-6\366rY}\357\336"
 512      E90B1013 
 512      C149CA72 
 512      762D36F6 
 512      72597DEF 
 513 0066 4E544A72 		.ascii	"NTJrP\302\021rc\212' +\257\236\314\257\266(|\226[\344"
 513      50C21172 
 513      638A2720 
 513      2BAF9ECC 
 513      AFB6287C 
 514 007d 76FF1177 		.ascii	"v\377\021w\371\316\310\265_q6s\363\250\351\306\003\253"
 514      F9CEC8B5 
 514      5F713673 
 514      F3A8E9C6 
 514      03AB
 515 008f 47124D3E 		.ascii	"G\022M>ci\\\244\232b@\366B\023\325\236v\336\260\305"
 515      63695CA4 
 515      9A6240F6 
 515      4213D59E 
 515      76DEB0C5 
 516 00a3 CC1EF6EA 		.ascii	"\314\036\366\352\037\325C\306\360\260>e\000MK3\252\010"
 516      1FD543C6 
 516      F0B03E65 
 516      004D4B33 
 516      AA08
 517 00b5 C79AAA2A 		.ascii	"\307\232\252*\333\232q\311\035\310{\325\332\257F\342"
 517      DB9A71C9 
ARM GAS  /tmp/cclyubud.s 			page 40


 517      1DC87BD5 
 517      DAAF46E2 
 518 00c5 35727B5C 		.ascii	"5r{\\\324n\331\225\267\354v\356\333\375\302\324\236"
 518      D46ED995 
 518      B7EC76EE 
 518      DBFDC2D4 
 518      9E
 519 00d6 1A3F4C21 		.ascii	"\032?L!\232N\332\375\212\327U\375\341\350%\303\025\314"
 519      9A4EDAFD 
 519      8AD755FD 
 519      E1E825C3 
 519      15CC
 520 00e8 5855C0   		.ascii	"XU\300"
 521              		.text
 522              		.section	.gnu.lto_gpsGetSatellites.7b15e597d780654d,"",%progbits
 523 0000 789C7550 		.ascii	"x\234uP\273n\0021\020\234\261\271\207\250h\351\350\221"
 523      BB6E0231 
 523      109CB1B9 
 523      87A868E9 
 523      E891
 524 0012 C8CF4081 		.ascii	"\310\317@\201\020E\270\002\271@B\242D\010#]$\022\012"
 524      1045B802 
 524      B94042A2 
 524      4408235D 
 524      24120A
 525 0025 F8046853 		.ascii	"\370\004hS\300/\360\005\234\250i\374\007\364\024\200"
 525      C02FF005 
 525      9CA869FC 
 525      07F41480 
 526 0035 7D3E2808 		.ascii	"}>(\010Y\311\332\365\354\356\314\330\002\002\257Q\265"
 526      59C9DAF5 
 526      ECEECCD8 
 526      0202AF51 
 526      B5
 527 0046 A74920B6 		.ascii	"\247I \266\231\022\024\253\0030\213\005\351\012\020"
 527      991214AB 
 527      03308B05 
 527      E90A10
 528 0055 53C1699B 		.ascii	"S\301i\233\371\354N\354\315\355\266\275\236\326\013"
 528      F9EC4EEC 
 528      CDEDB6BD 
 528      9ED60B
 529 0064 46A1E420 		.ascii	"F\241\344 \207\003\244Z\257j@\222_\035\231[mQ\270,3"
 529      8703A45A 
 529      AF6A4092 
 529      5F1D995B 
 529      6D51B82C 
 530 0079 A4669E45 		.ascii	"\244f\236E\237\3340\260\3551.z\256+\212v\334\263:$V"
 530      9FDC30B0 
 530      ED312E7A 
 530      AE2B8A76 
 530      DCB33A24 
 531 008e 641DBFDA 		.ascii	"d\035\277\332F[Q\014\310\236o\242\330S\326\0332|\231"
 531      465B510C 
 531      C89E6FA2 
 531      D853D61B 
 531      327C99
ARM GAS  /tmp/cclyubud.s 			page 41


 532 00a1 EF73F887 		.ascii	"\357s\370\207\252\224\320?\254O\351A\335R\014\012\302"
 532      AA94D03F 
 532      AC4FE941 
 532      DD520C0A 
 532      C2
 533 00b2 89625894 		.ascii	"\211bX\224\035\305(\347\366\344\275b\355\251\021;\215"
 533      1DC528E7 
 533      F6E4BD62 
 533      EDA9113B 
 533      8D
 534 00c3 D4FC2CCB 		.ascii	"\324\374,\313\357\354\312wv\273\377\333=bf\026\037\017"
 534      EFECCA77 
 534      76BBFFDB 
 534      3D626616 
 534      1F0F
 535 00d5 261F4D2B 		.ascii	"&\037M+m\177\305\351\206\375\341\250\221\340\016{+S"
 535      6D7FC5E9 
 535      86FDE1A8 
 535      91E00E7B 
 535      2B53
 536 00e7 E6       		.ascii	"\346"
 537              		.text
 538              		.section	.gnu.lto_gpsGetLocation.7b15e597d780654d,"",%progbits
 539 0000 789C95D3 		.ascii	"x\234\225\323\275J\003A\020\007\360\371\357\336\227"
 539      BD4A0341 
 539      1007F0F9 
 539      EFDE97
 540 000f E7056D45 		.ascii	"\347\005mE\013{A_\304F\210`\012\013sE\270\" \330\031"
 540      0B7B415F 
 540      C4468860 
 540      0A0B7345 
 540      B82220D8 
 541 0024 24178D60 		.ascii	"$\027\215`g\300\3164\212\225)\264\321.B^@\203/ y\007"
 541      67C0CE34 
 541      8A9529B4 
 541      D12E425E 
 541      40832F20 
 542 003a 0B211671 		.ascii	"\013!\026qv\357\314Fs\201\334\300\315.\3731\373\343"
 542      76EFCC46 
 542      7381DCC0 
 542      CD2EFB31 
 542      FBE3
 543 004c 600409FA 		.ascii	"`\004\011\372\037+\374m[D\036\217\220\004\321z#jx\002"
 543      1F2BFC6D 
 543      5B441E8F 
 543      9004D17A 
 543      236A7802 
 544 0060 501302D5 		.ascii	"P\023\002\325\005\352%\350\263\217\2427\030\215\036"
 544      05EA25E8 
 544      B38FA237 
 544      188D1E
 545 006f 9E3E6E3A 		.ascii	"\236>n:p\227$\252 \213\"\220\243\222\307\011>'\021\250"
 545      709724AA 
 545      208B2290 
 545      A392C709 
 545      3E2711A8 
 546 0083 C4C76D6A 		.ascii	"\304\307mj\306qk\235(\324\327\213\234U\315]\336\344"
ARM GAS  /tmp/cclyubud.s 			page 42


 546      C6716B9D 
 546      28D4D78B 
 546      9C55CD5D 
 546      DEE4
 547 0095 51F6A939 		.ascii	"Q\366\2519h\367\335\003\334\302\346\355\032\015\343"
 547      68F7DD03 
 547      DCC2E6ED 
 547      1A0DE3
 548 00a4 8B783982 		.ascii	"\213x9\202\014\221<\247V\274\010\326\006ub\216R\004"
 548      0C913CA7 
 548      56BC08D6 
 548      0675628E 
 548      5204
 549 00b6 BB0A9493 		.ascii	"\273\012\224\223MJ\357Ep\210^\351tx\366\331]K\326*\260"
 549      4D4AEF45 
 549      70885EE9 
 549      7478F6D9 
 549      5D4BD62A 
 550 00cb 6A74CCA4 		.ascii	"jt\314\244\364\342N\004\267M\327\210\340U \367x\\\320"
 550      F4E24E04 
 550      B74DD788 
 550      E05520F7 
 550      785CD0
 551 00de 15CAE93B 		.ascii	"\025\312\351;:\372t\336[\235\262\370!\222_\246k\252"
 551      3AFA74DE 
 551      5B9DB2F8 
 551      21925FA6 
 551      6BAA
 552 00f0 C5F8C414 		.ascii	"\305\370\304\024~\346Rn:\277R\3455O\374)>f.\246\314"
 552      7EE6526E 
 552      3ABF52E5 
 552      354FFC29 
 552      3E662EA6 
 553 0105 2FC374E6 		.ascii	"/\303t\346d\312\034L'/Sf3\277\015\323\323L\030f\220"
 553      64CA1C4C 
 553      272F5366 
 553      33BF0DD3 
 553      D34C1866 
 554 011a CDB47230 		.ascii	"\315\264r0=\303\304\0043\230\311\264\262\231#\303\364"
 554      3DC3C404 
 554      3398C9B4 
 554      B29923C3 
 554      F4
 555 012b 35531866 		.ascii	"5S\030f!\233i\347`\372\206)&\230\205\231L;\233y\367"
 555      219B69E7 
 555      60FA8629 
 555      26988599 
 555      4C3B9B79 
 556 0140 32660673 		.ascii	"2f\006s2\235\034\314 /\323\231b\252n\274\277\364\263"
 556      329D1CCC 
 556      202FD399 
 556      62AA6EBC 
 556      BFF4B3
 557 0153 BA516675 		.ascii	"\272Qfu\343\376\354n|\247\306\240\263\365[)\211\"\267"
 557      E3FEEC6E 
 557      7CA7C6A0 
 557      B3F55B29 
ARM GAS  /tmp/cclyubud.s 			page 43


 557      8922B7
 558 0166 0337BD7A 		.ascii	"\0037\275z\337\251\034\036m\206\364\003H\027\367\012"
 558      DFA91C1E 
 558      6D86F403 
 558      4817F70A 
 559              		.text
 560              		.section	.gnu.lto_.symbol_nodes.7b15e597d780654d,"",%progbits
 561 0000 789C4DCF 		.ascii	"x\234M\317MO\023A\034\307\361\377\376fW)\322\305\355"
 561      4D4F1341 
 561      1CC7F1FF 
 561      FE665729 
 561      D2C5ED
 562 0013 C396A7B6 		.ascii	"\303\226\247\266\264\2105Q\343k\342\225\374\253\033"
 562      B4883551 
 562      E36BE295 
 562      FCAB1B
 563 0022 5B104D50 		.ascii	"[\020MP\024P@\240\353\003z\222\203\211\036\274X\345"
 563      145040A0 
 563      EB037A92 
 563      83891EBC 
 563      58E5
 564 0034 E0818B89 		.ascii	"\340\201\213\211\034L\024\334\223Q\343\033\260\352\314"
 564      1C4C14DC 
 564      9351E31B 
 564      B0EACC
 565 0043 EE8499BD 		.ascii	"\356\204\231\275\374\362\371ff\263\013\002\375\020\224"
 565      FCF2F966 
 565      66B30B02 
 565      FD1094
 566 0052 3DB80E26 		.ascii	"=\270\016&Z: b\336X\230C\007\354X\234\007\303\342\002"
 566      5A3A2062 
 566      DE589843 
 566      07EC589C 
 566      07C3E202 
 567 0066 58587CEF 		.ascii	"XX|\357\260\253\2719?\207\027`\357\204\216\327\006\\"
 567      B0ABB939 
 567      3F871760 
 567      EF848ED7 
 567      065C
 568 0078 16DE5590 		.ascii	"\026\336U\220\307\204.\370\224uu\017|\332\234\305\""
 568      C7842EF8 
 568      9475750F 
 568      7CDA9CC5 
 568      22
 569 0089 7848F3A1 		.ascii	"xH\363\241\274z\003\216\274\212\233\340\234\251\270"
 569      BC7A038E 
 569      BC8A9BE0 
 569      9CA9B8
 570 0098 051EB678 		.ascii	"\005\036\266x\033|\306\272\263\004\241\356\334\001\217"
 570      1B7CC6BA 
 570      B304A1EE 
 570      DC018F
 571 00a7 588796C1 		.ascii	"X\207\226\301y\213w\301\276\305{\340Q\213+\340\263\026"
 571      798B77C1 
 571      BEC57BE0 
 571      518B2BE0 
 571      B316
ARM GAS  /tmp/cclyubud.s 			page 44


 572 00b9 57C181C5 		.ascii	"W\301\201\3055p\301\342}p\321\320\331\000\2272\266\333"
 572      3570C1E2 
 572      7D70D1D0 
 572      D9009732 
 572      B6DB
 573 00cb 8EB3092E 		.ascii	"\216\263\011.\033m\203C\243up\305\350\001x\314h\013"
 573      1B6D8343 
 573      A37570C5 
 573      E80178CC 
 573      680B
 574 00dd 3C6EB403 		.ascii	"<n\264\003\2360\352\201'\215\236\200\247\214\036\203"
 574      9E30EA81 
 574      278D9E80 
 574      A78C1E83 
 575 00ed AB468FC0 		.ascii	"\253F\217\3005\243\030\\7z\006\2366\332\0057\214\236"
 575      35A3185C 
 575      377A069E 
 575      36DA0537 
 575      8C9E
 576 00ff 829B46CF 		.ascii	"\202\233F\317\3013'\022\3568E\203\212p\307(>\376\353"
 576      C1332712 
 576      EE384583 
 576      8A70C728 
 576      3EFEEB
 577 0112 08CFA56F 		.ascii	"\010\317\245o\335\237u1\344Q\357hV\344&(\356BM\262\357"
 577      DD9F7531 
 577      E451EF68 
 577      56E42628 
 577      EE424DB2 
 578 0127 A7EA5C4A 		.ascii	"\247\352\\J\365}4\325\336\225T\273\007N\312#\371\206"
 578      F57D34D5 
 578      DE9554BB 
 578      074ECA23 
 578      F986
 579 0139 E1294A5E 		.ascii	"\341)J^\015\344NR\374Z\356H5\353yyn;\024\371\034\365"
 579      0DE44E52 
 579      FC5AEE48 
 579      35EB7979 
 579      6E3B14F9 
 580 014f 5E0AE1EB 		.ascii	"^\012\341\353\323~\215\242\217\203\013\302\257S\374"
 580      D37E8DA2 
 580      8F830BC2 
 580      AF53FC
 581 015e E9106AA3 		.ascii	"\351\020j\243\325wP=9\314z\3649\353\311z\326\373_T\257"
 581      D577503D 
 581      39CC7AF4 
 581      39EBC97A 
 581      D6FB5F54 
 582 0173 51FC556E 		.ascii	"Q\374Unp\236\"\365\236`\226\342?\277/\212\340\034\365"
 582      709E22F5 
 582      9E6096E2 
 582      3FBF2F8A 
 582      E01CF5
 583 0186 D39D91BF 		.ascii	"\323\235\221\277\2456O\327\366\377\275\361D\320\244"
 583      A5364FD7 
 583      F6FFBDF1 
 583      44D0A4
ARM GAS  /tmp/cclyubud.s 			page 45


 584 0195 7EE7D765 		.ascii	"~\347\327e\021\370\364\266\253\266AI\272\323\024}H\017"
 584      11F8F4B6 
 584      ABB64149 
 584      BAD3147D 
 584      480F
 585 01a7 54295A94 		.ascii	"T)Z\224\177^hfo,\264\262/,4\250\257\266\250{Q\367\242"
 585      7F5E6866 
 585      6F2CB4B2 
 585      2F2C34A8 
 585      AFB6A87B 
 586 01be EE25DD4B 		.ascii	"\356%\335K\272\227t/\353^\326\275\254{\250{\250{\250"
 586      BA97742F 
 586      EB5ED6BD 
 586      AC7BA87B 
 586      A87BA8
 587 01d1 7B45F74A 		.ascii	"{E\367JK\273E\321\261\266\336\250#\277O9]\371\003r\351"
 587      4BBB45D1 
 587      B1B6DEA8 
 587      23BF4F39 
 587      5DF90372 
 588 01e6 3FF2E936 		.ascii	"?\362\3516\301"
 588      C1
 589              		.text
 590              		.section	.gnu.lto_.refs.7b15e597d780654d,"",%progbits
 591 0000 789C4D8C 		.ascii	"x\234M\214\331\016\2000\010\004\227\255=bM\033\357\377"
 591      D90E8030 
 591      080497AD 
 591      3D624D1B 
 591      EFFF
 592 0012 7FF03F6D 		.ascii	"\177\360?m\005\215L\330\001\036 \210\013Z\311# 0HKi"
 592      058D4CD8 
 592      011E2088 
 592      0B5AC923 
 592      2030484B 
 593 0027 300EE9BD 		.ascii	"0\016\351\275\370\361\271\364-\373LPH&\272R\244J\305"
 593      F8F1B9F4 
 593      2DFB4C50 
 593      4826BA52 
 593      A44AC5
 594 003a 0F7ECD3A 		.ascii	"\017~\315:\315\214\035\375B\313n\267\350\344V\363f\336"
 594      CD8C1DFD 
 594      42CB6EB7 
 594      E8E456F3 
 594      66DE
 595 004c CD873A9E 		.ascii	"\315\207:\236\014\177p\003\212y\004'"
 595      0C7F7003 
 595      8A790427 
 596              		.text
 597              		.section	.gnu.lto_.decls.7b15e597d780654d,"",%progbits
 598 0000 789CBD5D 		.ascii	"x\234\275]\011x\024U\236\257\252\276r\011\021\005\231"
 598      09781455 
 598      9EAFAABE 
 598      72091105 
 598      99
 599 0011 D99931AE 		.ascii	"\331\2311\256\216\343\270\253!\200\212;3b\014\3477\200"
 599      8EE3B8AB 
 599      21808A3B 
ARM GAS  /tmp/cclyubud.s 			page 46


 599      33620CE7 
 599      3780
 600 0023 6C121C77 		.ascii	"l\022\034wv\306\246\3504$\222\313\356\016\204\331\357"
 600      76C6A6E8 
 600      342492CB 
 600      EE0E84D9 
 600      EF
 601 0034 5B8B2BCA 		.ascii	"[\213+\312!\367%g@D\274\220\0049\344l\020B\000!\204"
 601      21F72567 
 601      4044BC90 
 601      0439E46C 
 601      10420021 
 602 0049 48224492 		.ascii	"H\"D\222\310%\227k\270!\010\331\377{\365\252\273\352"
 602      C825976B 
 602      B82108D9 
 602      FF7BF5AA 
 602      BBEA
 603 005b F5ABEAAA 		.ascii	"\365\253\352\252\314\354\366\307\253\256\343\275\337"
 603      CCECF6C7 
 603      ABAEE3BD 
 603      DF
 604 0068 FBFD8FF7 		.ascii	"\373\375\217\367\177G\275\016\002'p\225\261\034\327"
 604      7F47BD0E 
 604      02277095 
 604      B11CD7
 605 0077 0A9F9A02 		.ascii	"\012\237\232\002\370\216\347\270\216\034\307\275\000"
 605      F88EE7B8 
 605      8E1CC7BD 
 605      00
 606 0084 E9E79096 		.ascii	"\351\347\220\226CJ\200T\310s\334\033\220\374\220FAz"
 606      434A8054 
 606      C873DC1B 
 606      90FC9046 
 606      417A
 607 0096 0D921B52 		.ascii	"\015\222\033R\222\300q\217@z\024RG\270vA\336\307\341"
 607      92C0718F 
 607      407A1452 
 607      47B87641 
 607      DEC7E1
 608 00a9 FC37907E 		.ascii	"\3747\220~\007\351C\270\036\011\367\037\203\363\337"
 608      07E943B8 
 608      1E09F71F 
 608      83F3DF
 609 00b8 437A16D2 		.ascii	"Cz\026\322\037 =\015\311\006\317$x\006\377\270\030T"
 609      1F203D0D 
 609      C906CF24 
 609      7806FFB8 
 609      1854
 610 00ca 27DC7B19 		.ascii	"'\334{\031\322j8O\201\357n\220\236\201\364\024\244\347"
 610      D26A384F 
 610      81EF6E90 
 610      9E81F414 
 610      A4E7
 611 00dc 213D06F7 		.ascii	"!=\006\367\377\035\276_\201\364gH\257A\312\2024\022"
 611      FF1DBE5F 
 611      81F46748 
 611      AF41CA82 
ARM GAS  /tmp/cclyubud.s 			page 47


 611      3412
 612 00ee 5201A422 		.ascii	"R\001\244\"Hs \225B\372\030R\031\244-\220vB\252\204"
 612      48732095 
 612      42FA1852 
 612      19A42D90 
 612      7642AA84 
 613 0102 5405A906 		.ascii	"T\005\251\006R\035\244zH\215\220\316@:\007\351\022\244"
 613      521DA47A 
 613      488D90CE 
 613      403A07E9 
 613      12A4
 614 0114 1648AD88 		.ascii	"\026H\255\210\027\020s@\212\203\324\036R'H\235!\375"
 614      17107340 
 614      8A83D41E 
 614      5227489D 
 614      21FD
 615 0126 1CD2AF20 		.ascii	"\034\322\257 =\012\3517\220~\013\311\016\234\236\201"
 615      3D0AE937 
 615      907E0BC9 
 615      0E9C9E81 
 616 0136 EFE720F5 		.ascii	"\357\347 \365\204\224\212\204R}\020_\345\303S\327\312"
 616      84948A84 
 616      527D105F 
 616      E5C353D7 
 616      CA
 617 0147 E7152ACF 		.ascii	"\347\025*\317+\214<\177\246\362\374\231\221\3475*\317"
 617      2B8C3C7F 
 617      A6F2FC99 
 617      91E7352A 
 617      CF
 618 0158 6B8C3C48 		.ascii	"k\214<H_\367\301\267\223\223\355\223\006|+\340\274\227"
 618      5FF7C1B7 
 618      9393ED93 
 618      067C2BE0 
 618      BC97
 619 016a 4DB613B2 		.ascii	"M\266\023\262\327\012b\367>p\357<\344\351\013\337g\341"
 619      D70A62F7 
 619      3E70EF3C 
 619      E4E90BDF 
 619      67E1
 620 017c 1BC121DB 		.ascii	"\033\301!\333\274\316\313r#\254~6Y\177H\217\250\316"
 620      BCCECB72 
 620      23AC7E36 
 620      597F488F 
 620      A8CE
 621 018e 6CAA4E64 		.ascii	"l\252Nd\033\344O\327\341a;N\366%d\363\351p\177\036)"
 621      1BE44FD7 
 621      E1613B4E 
 621      F62564F3 
 621      E9707F1E 
 622 01a3 83B07E01 		.ascii	"\203\260~\001'+\341\372=H\003\000\263/|\367!>\245\346"
 622      272BE1FA 
 622      3D480300 
 622      B32F7CF7 
 622      213EA5E6 
 623 01b7 38D02673 		.ascii	"8\320&s\363\022\377\371#|\017\204\324\033\222\203\324"
 623      F312FFF9 
ARM GAS  /tmp/cclyubud.s 			page 48


 623      237C0F84 
 623      D41B9283 
 623      D4
 624 01c8 37081E64 		.ascii	"7\010\036dBz\325&sD\224\220m\236\241l\203|\246='sQ\270"
 624      427AD526 
 624      73449490 
 624      6D9EA16C 
 624      837CA63D 
 625 01e0 75E4C39C 		.ascii	"u\344\303\234P\366\377\204C\256\240\317\217\346`'\270"
 625      50F6FF84 
 625      43AEA0CF 
 625      8FE66027 
 625      B8
 626 01f1 6A1E28CF 		.ascii	"j\036(\317\033p\355\023d\036\352\017\362\3318\212\003"
 626      1B70ED13 
 626      641EEA0F 
 626      F2D9388A 
 626      03
 627 0202 C2180DD7 		.ascii	"\302\030\015\327\177\261i\333\335\017D\267\002)w\211"
 627      7FB169DB 
 627      DD0F44B7 
 627      02297789 
 628 0212 E86F26A5 		.ascii	"\350o&\245s\324\006\020\016\322\257\244\342\215d\370"
 628      73D40610 
 628      0ED2AFA4 
 628      E28D64F8 
 629 0222 AB2DDC76 		.ascii	"\253-\334v\021\261\327lr{\276CdI#\262\274@\256\347\220"
 629      11B1D76C 
 629      727BBE43 
 629      644923B2 
 629      BC40AEE7 
 630 0237 36D142AE 		.ascii	"6\321B\256\227\022\031\236\243\344@m\316\311i\353\273"
 630      9712199E 
 630      A3E4406D 
 630      CEC969EB 
 630      BB
 631 0248 0BE7FFCD 		.ascii	"\013\347\377\315\207\355\234FlQJ\332\030\272\267\232"
 631      87ED9C46 
 631      6C514ADA 
 631      18BAB79A 
 632 0258 E2FE31D1 		.ascii	"\342\3761\321\303hb\373\016\304\327\246\023\014$\027"
 632      C36862FB 
 632      0EC4D7A6 
 632      130C2417 
 633 0268 D28B1277 		.ascii	"\322\213\022w\024\275\270\221\034\004\313Fp.\221\230"
 633      14BDB891 
 633      1C04CB46 
 633      702E9198 
 634 0278 80CA7D46 		.ascii	"\200\312}F\325\203b\303/\210\337)zW|R\251\023\325\377"
 634      D58362C3 
 634      2F88DF29 
 634      7A577C52 
 634      A913D5FF 
 635 028c 288957BF 		.ascii	"(\211W\277\327\261\307c\004\037\305\313\007x9\256\241"
 635      D7B1C763 
 635      041FC5CB 
 635      077839AE 
ARM GAS  /tmp/cclyubud.s 			page 49


 635      A1
 636 029d D88762E0 		.ascii	"\330\207b\340P\310\357\204$B\212\267\311\261\017\371"
 636      50C8EF84 
 636      24428AB7 
 636      C9B10FF9 
 637 02ad 288A674A 		.ascii	"(\212gJ|Cq\355\031\3427e\204\263\022{ \024s\033\340"
 637      7C4371ED 
 637      19E23765 
 637      84B3127B 
 637      2014731B 
 638 02c2 7A9320C7 		.ascii	"z\223 \307\225a\220<\310\247!y!\015\2074\002R6\244\034"
 638      9561903C 
 638      C8A72179 
 638      210D8734 
 638      025236A4 
 639 02d7 CA1E5B88 		.ascii	"\312\036[\210=\324\362u\344\303zD\037\236\344C\337;"
 639      3DD4F275 
 639      E4C37A44 
 639      1F9EE443 
 639      DF3B
 640 02e9 28FDA098 		.ascii	"(\375\240\230\371$|\247\250\312\277n\013\267\335\277"
 640      F9247CA7 
 640      A8CABF6E 
 640      0BB7DDBF 
 641 02f9 A9DA6E9E 		.ascii	"\251\332n\236M\033\353\037\206\353|H\217\331\302\276"
 641      4D1BEB1F 
 641      86EB7C48 
 641      8FD9C2BE 
 642 0309 5000E7FF 		.ascii	"P\000\347\377d\223\371\250\333O!\234\177\"\310\366\246"
 642      6493F9A8 
 642      DB4F219C 
 642      7F22C8F6 
 642      A6
 643 031a 7DF30D5B 		.ascii	"}\363\015[\270/)G\355\307&\367/\211\360\355\2074\306"
 643      B82F2947 
 643      EDC726F7 
 643      2F89F0ED 
 643      8734C6
 644 032d 16F63174 		.ascii	"\026\3661t\177\265\312\177{\013\341\376d4\344K$2\375"
 644      7FB5CA7F 
 644      7B0BE1FE 
 644      6434E44B 
 644      2432FD
 645 0340 8DC4EEF1 		.ascii	"\215\304\356\361$\216O\"1\375\347\244\255\"\277A\261"
 645      248E4F22 
 645      31FDE7A4 
 645      AD22BF41 
 645      B1
 646 0351 1ED9A213 		.ascii	"\036\331\242\023\211\377\212\277\"\025\357\021\3448"
 646      89FF8ABF 
 646      2215EF11 
 646      E438
 647 035f 42B763D4 		.ascii	"B\267c\324\277@7\032!\3034\233\354C\217\0219\236$8\012"
 647      BF40371A 
 647      21C3349B 
 647      EC438F11 
 647      399E2438 
ARM GAS  /tmp/cclyubud.s 			page 50


 648 0374 B71462FB 		.ascii	"\267\024b\373JR\357oI\177\203\314\361\025#^T\265\261"
 648      4A52EF6F 
 648      497F83CC 
 648      F115235E 
 648      54B5B1
 649 0387 9E6EA49E 		.ascii	"\236n\244\236*F=\325\214zj\014\352Q\372qV=\212/\327"
 649      2A463DD5 
 649      8C7A6A0C 
 649      EA51FA71 
 649      563D8A2F 
 650 039c 30EA39CA 		.ascii	"0\3529\312\250\247\316\240\036e\234\300\252\347)RO\035"
 650      A8A7CEA0 
 650      1E659CC0 
 650      AAE72952 
 650      4F1D
 651 03ae A39E638C 		.ascii	"\243\236c\214z\352\333X\317\363\244\236zF='\030\365"
 651      7AEADB58 
 651      CFF3A49E 
 651      7A463D27 
 651      18F5
 652 03c0 3492F8F5 		.ascii	"4\222\370\365(\211\031\177`\370\265b#\344\333\250\376"
 652      2889197F 
 652      60F8B562 
 652      23E4DBA8 
 652      FE
 653 03d1 27496C40 		.ascii	"'Il@\034\\\244\356\024\225\335\324c ;\251\203\346r\212"
 653      1C5CA4EE 
 653      1495DDD4 
 653      63203BA9 
 653      83E6728A 
 654 03e5 C1259E9B 		.ascii	"\301%\236\233,I\343\244\322\022\251_e\273\016\334L\011"
 654      2C49E3A4 
 654      D212A95F 
 654      65BB0EDC 
 654      4C09
 655 03f7 3E4995C0 		.ascii	">I\225\300\356U^\344\333\305rC\361IB,n\334\277\346V"
 655      EE555EE4 
 655      DBC57243 
 655      F149422C 
 655      6EDCBFE6 
 656 040c 4AD28CA6 		.ascii	"J\322\214\2463\337w\226\354\"\277\202\357\000\260\317"
 656      33DF7796 
 656      EC22BF82 
 656      EF00B0CF 
 657 041c F110033E 		.ascii	"\361\020\003>\204R3$i\327\343<\027\371\211\206\012\301"
 657      84523324 
 657      69D7E33C 
 657      17F98986 
 657      0AC1
 658 042e 8F5F0558 		.ascii	"\217_\005X\"\377>\377\244\\\207\024\334R\221\200\352"
 658      22FF3EFF 
 658      A45C8714 
 658      DC529180 
 658      EA
 659 043f 40F739F2 		.ascii	"@\3679\362\204\361y\204+E\231\267U,\346\245\322]\274"
 659      84F17984 
 659      2B4599B7 
ARM GAS  /tmp/cclyubud.s 			page 51


 659      552CE6A5 
 659      D25DBC
 660 0452 49FE3515 		.ascii	"I\3765\025[m\222\024#\362\037b\011&\362\274\246\206"
 660      5B6D9214 
 660      23F21F62 
 660      0926F2BC 
 660      A686
 661 0464 68280237 		.ascii	"h(\0027\023\227\370\204\346\\\277\234O\222oG\247|\342"
 661      1397F884 
 661      E65CBF9C 
 661      4F926F47 
 661      A77CE2
 662 0477 4CAC342B 		.ascii	"L\2544+\201Q\325\213JU1a\3027'\037\232\311O\220$x\260"
 662      8151D58B 
 662      4A553161 
 662      C237271F 
 662      9AC94F90 
 663 048e 1653FE9A 		.ascii	"\026S\376\232M\271\364E= \201;\215\213\254\24387\325"
 663      4DB9F445 
 663      3D20813B 
 663      8D8BACA3 
 663      3837D5
 664 04a1 577D3D96 		.ascii	"W}=\226\037\213\241\327\231 >.x\264d\311\317\220\256"
 664      1F8BA1D7 
 664      99203E2E 
 664      78B464C9 
 664      CF90AE
 665 04b4 A3394EA9 		.ascii	"\2439N\251]\251\277WX\220\033\223w\363X\363\233\260"
 665      5DA9BF57 
 665      58901B93 
 665      77F358F3 
 665      9BB0
 666 04c6 181F0951 		.ascii	"\030\037\011Q5\257\205\021\270u\270\310\226\0101\246"
 666      35AF8511 
 666      B875B8C8 
 666      960831A6 
 667 04d6 3728626C 		.ascii	"7(bl1%\306\035\"\206\310o\004Q\004n[\010\227T\234\244"
 667      3125C61D 
 667      2286C86F 
 667      0451046E 
 667      5B089754 
 668 04ec D48B5A13 		.ascii	"\324\213Z\0239\225?$\203\026\357^E\302\014Q\001\333"
 668      39953F24 
 668      8316EF5E 
 668      45C20C51 
 668      01DB
 669 04fe 6D192C49 		.ascii	"m\031,I\0036{\357bL.\226{;\254c\216\011F\024\273\261"
 669      03367BEF 
 669      624C2E96 
 669      7B3BAC63 
 669      8E094614 
 670 0514 F650353F 		.ascii	"\366P5?\036\313\377%\024\023\27096\255j\315C\335^\270"
 670      1ECBFF25 
 670      1413B839 
 670      36AD6ACD 
 670      43DD5EB8 
 671 0528 67273F0E 		.ascii	"g'?\016CU`\250\235m\206Z\277t\353\363\330\334\3730P"
ARM GAS  /tmp/cclyubud.s 			page 52


 671      435560A8 
 671      9D6D865A 
 671      BF74EBF3 
 671      D8DCFB30 
 672 053d 2B0524F2 		.ascii	"+\005$\362\256\220\032C\327J\006\204\206\037\223\023"
 672      AE901A43 
 672      D74A0684 
 672      861F9313 
 673 054d 34F96CCF 		.ascii	"4\371l\317\375\037g\027\270\311v\023\246\213\321\363"
 673      FD1F6717 
 673      B8C97613 
 673      A68BD1F3 
 674 055d 03A9E9F8 		.ascii	"\003\251\351\370\3643\374\273Rp\202Mi\222N=\035A\030"
 674      F433FCBB 
 674      5270824D 
 674      69924E3D 
 674      1D4118
 675 0570 C1751DA2 		.ascii	"\301u\035\242}\371\352\311\303O-\220\244D\371QtW\336"
 675      7DF9EAC9 
 675      C34F2D90 
 675      A444F951 
 675      7457DE
 676 0583 7860BEB9 		.ascii	"x`\276\271\026\351T\252\317\302\325\327\340\352k\350"
 676      16E954AA 
 676      CFC2D5D7 
 676      E0EA6BE8 
 677 0593 EA5BCF9E 		.ascii	"\352[\317\236{A\256\276\306T\365\215Us\"\253\027\371"
 677      7B41AEBE 
 677      C654F58D 
 677      557322AB 
 677      17F9
 678 05a5 173A1A79 		.ascii	"\027:\032y\306\325\223\315O,\303\225\324\341\026\263"
 678      C6D593CD 
 678      4F2CC395 
 678      D4E116B3 
 679 05b5 C441BB46 		.ascii	"\304A\273F\317x\255\361\340Z\225A\340V9\024\366mj\260"
 679      CF78ADF1 
 679      E05A9541 
 679      E0563914 
 679      F66D6AB0 
 680 05c9 2066B0E7 		.ascii	" f\260\347\207\345\2224\311\251p\370\3102b\222F\021"
 680      87E59234 
 680      C9A970F8 
 680      C8326292 
 680      4611
 681 05db 57AA7008 		.ascii	"W\252p\010\220\301\326\230\001\323\365\243q\301kj\260"
 681      90C1D698 
 681      01D3F5A3 
 681      71C16B6A 
 681      B0
 682 05ec 72CB605A 		.ascii	"r\313`Zf7\324`\033\314\200%\3523\273\245\006\333l\031"
 682      6637D460 
 682      1BCC8025 
 682      EA33BBA5 
 682      06DB6C19 
 683 0600 4CCBAC45 		.ascii	"L\313\254E\015\266\335\014Xg}f?\251\301vY\006\3232\273"
 683      0DB6DD0C 
ARM GAS  /tmp/cclyubud.s 			page 53


 683      58677D66 
 683      3FA9C176 
 683      5906D332 
 684 0615 A706AB30 		.ascii	"\247\006\2530\003\226\244\317l\306\021\025\330~\313"
 684      0396A4CF 
 684      6CC61115 
 684      D87ECB
 685 0624 605A66B3 		.ascii	"`Zf\263\324`\207\314\200=\241\317l\216\032\354\210e"
 685      D46087CC 
 685      803DA1CF 
 685      6C8E1AEC 
 685      8865
 686 0636 302DB379 		.ascii	"0-\263yj\260Z3`]\364\231-P\203\035\267\014\246e\266"
 686      6AB05A33 
 686      605DF499 
 686      2D50831D 
 686      B70CA665 
 687 064b 500DD660 		.ascii	"P\015\326`\006\254\207>\263\305j\260\223\226\301\264"
 687      06AC873E 
 687      B3C56AB0 
 687      9396C1B4 
 688 065b CCD6AAC1 		.ascii	"\314\326\252\301\316\232\001{Q\237Y\271\032\354\274"
 688      CE9A017B 
 688      519F59B9 
 688      1AECBC
 689 066a 65302DB3 		.ascii	"e0-\263\317\325`\227\314\200\365\323g\266A\015\366\243"
 689      CFD56097 
 689      CC80F5D3 
 689      67B6410D 
 689      F6A3
 690 067c 65302DB3 		.ascii	"e0-\263Mj\260+f\300\006\3533\333\254\006\273n\031L\313"
 690      4D6AB02B 
 690      66C006EB 
 690      33DBAC06 
 690      BB6E194C 
 691 0691 6CAB1AEC 		.ascii	"l\253\032\354\226\031\260W\365\231mW\203\375d\031L\313"
 691      9619B057 
 691      F5996D57 
 691      83FD6419 
 691      4CCB
 692 06a3 ECB01A4C 		.ascii	"\354\260\032Lr\232\000\033\312`\026\372\260\312\241"
 692      729A001B 
 692      CA6016FA 
 692      B0CAA1
 693 06b2 6EFA081F 		.ascii	"n\372\010\037\352\267\005n\274S\031\340X\354\243\271"
 693      EAB7056E 
 693      BC5319E0 
 693      58ECA3B9 
 694 06c2 30C65B4E 		.ascii	"0\306[N\253\0032\215\334038\273\234\237=^\252\354\242"
 694      AB03328D 
 694      DC303338 
 694      BB9C9F3D 
 694      5EAAECA2 
 695 06d6 8CCEDF31 		.ascii	"\214\316\3371\203h\320\001.\334\253\032\352\317\265"
 695      8368D001 
 695      2EDCAB1A 
 695      EACFB5
ARM GAS  /tmp/cclyubud.s 			page 54


 696 06e5 0C46B932 		.ascii	"\014F\2712\002\323\014\235\310\360\272\351\375`\347"
 696      02D30C9D 
 696      C8F0BAE9 
 696      FD60E7
 697 06f4 05E1C15B 		.ascii	"\005\341\301[\214\202\205f\330\362H\015&\334B(\263\324"
 697      8C828566 
 697      D8F2480D 
 697      26DC4228 
 697      B3D4
 698 0706 B9333BAF 		.ascii	"\2713;\257\310\317\021~\015\307\271Bl\210\205|\256\234"
 698      C8CF117E 
 698      0DC7B942 
 698      6C88857C 
 698      AE9C
 699 0718 B5F248CF 		.ascii	"\265\362H\317K\234\254\271;\0060.\252\347\011\263\004"
 699      4B9CACB9 
 699      3B06302E 
 699      AAE709B3 
 699      04
 700 0729 9527AC30 		.ascii	"\225'\2540\243&\203\256\275q\357\342\207\244\246 \257"
 700      A32683AE 
 700      BD71EFE2 
 700      87A4A620 
 700      AF
 701 073a 92D75039 		.ascii	"\222\327P90#\232wP\231\021\275+\240\331\307\207N\346"
 701      30239A77 
 701      509911BD 
 701      2BA0D9C7 
 701      874EE6
 702 074d 34C604D4 		.ascii	"4\306\004\324\355\205\237\376\013\236\306,\306@\345"
 702      ED859FFE 
 702      0B9EC62C 
 702      C640E5
 703 075c 6D065ABF 		.ascii	"m\006Z\277ti\017\014\264\014\003m\246\200D\236\247\346"
 703      74690F0C 
 703      B40C036D 
 703      A680449E 
 703      A7E6
 704 076e 43BC76C6 		.ascii	"C\274v\306\302\307\206OZ\265\346\372\207\346\205\031"
 704      C2C7864F 
 704      5AB5E6FA 
 704      87E68519 
 705 077e 2C6D2F8D 		.ascii	",m/\2158QGOM\365Uwg\362W\307I\013\272X\260X\355W\212"
 705      3851474F 
 705      4DF55577 
 705      67F257C7 
 705      490BBA58 
 706 0797 C55662FD 		.ascii	"\305Vb\375|\025\241\237\305\2025\005\011\334\327\226"
 706      7C15A19F 
 706      C5823505 
 706      09DCD796 
 707 07a7 0579422B 		.ascii	"\005yB+\310\364\335\263\254\013\022r\275\017\261 \337"
 707      C8F4DDB3 
 707      AC0B1272 
 707      BD0FB120 
 707      DF
 708 07b8 FE030439 		.ascii	"\376\003\0049mY\220.*A\320\012\311\365Yr\034|\200\233"
ARM GAS  /tmp/cclyubud.s 			page 55


 708      6D59902E 
 708      2A41D00A 
 708      C9F55972 
 708      1C7C809B 
 709 07cc 653C3345 		.ascii	"e<3E"
 710 07d0 7CD6080F 		.ascii	"|\326\010\017h\027\267\216\355G\213[\350v\364\305\255"
 710      6817B78E 
 710      ED478B5B 
 710      E876F4C5 
 710      AD
 711 07e1 9BFB55EB 		.ascii	"\233\373U\353\027\222\251\365\213yU\212\312\312\260"
 711      1792A9F5 
 711      8B79558A 
 711      CACAB0
 712 07f0 CA2EB21A 		.ascii	"\312.\262\032\231)\250\333\307w\227\221\365\213\317"
 712      9929A8DB 
 712      C7779791 
 712      F58BCF
 713 07ff 31D4E536 		.ascii	"1\324\3456C\255o\330(\267\327\215\030\350v\204\031\235"
 713      43AD6FD8 
 713      28B7D78D 
 713      18E87684 
 713      199D
 714 0811 94159D5A 		.ascii	"\224\025\235Z+\302%\252\351\026Z]\340\337$w\320\205"
 714      2BC225AA 
 714      E9165A5D 
 714      E0DF2477 
 714      D085
 715 0823 8BFB7F2F 		.ascii	"\213\373\177/\007\275\261\213'\206\265\330\033\207<"
 715      07BDB18B 
 715      2786B5D8 
 715      1B873C
 716 0832 E8CC2CA5 		.ascii	"\350\314,\245'\225\2154\371\357B\034\027\\7EY\204\353"
 716      27958D34 
 716      F9EF421C 
 716      175C3745 
 716      5984EB
 717 0845 89FAD2D9 		.ascii	"\211\372\322\331\177'\\\365\001\313\313f\363\276V\334"
 717      7F275CF5 
 717      01CBCB66 
 717      F3BE56DC 
 718 0855 2E88255A 		.ascii	".\210%Z\350\242M\\A\307d3\253H\253\332*I\350#p\237\272"
 718      E8A24D5C 
 718      41C76433 
 718      AB48ABDA 
 718      2A49E823 
 719 086c 4C749949 		.ascii	"Lt\231I\006\346\252\272I\314\025u)JYf\336_1\226,3W\010"
 719      06E6AABA 
 719      49CC1575 
 719      294A5966 
 719      DE5F3196 
 720 0884 687DB68C 		.ascii	"h}\266\214\322\206\2115\255 .\262O\210X\237=\250\254"
 720      D2868935 
 720      AD202EB2 
 720      4F88589F 
 720      3DA8AC
 721 0897 CFA26726 		.ascii	"\317\242g&\026\2654\353\263\"\277\203\027\010n[5\252"
ARM GAS  /tmp/cclyubud.s 			page 56


 721      16B534EB 
 721      B322BF83 
 721      17086E5B 
 721      35AA
 722 08a9 316298A0 		.ascii	"1b\230\240\310\037\300\343\243\257\204G\324\332?lY\373"
 722      C81FC0E3 
 722      A3AF8447 
 722      D4DA3F6C 
 722      59FB
 723 08bb 496AED07 		.ascii	"Ij\355\007\357\034\220_I(+\366\307i\274\027\325cWr\252"
 723      EF1C905F 
 723      49282BF6 
 723      C769BC17 
 723      D5635772 
 724 08d0 3B4F9782 		.ascii	";O\227\202\263\016\341A\247\334\356\316\230!g0\265^"
 724      B30EE141 
 724      A7DCEECE 
 724      98216730 
 724      B55E
 725 08e2 2A83C92E 		.ascii	"*\203\311.\177\3212X\222\006l\3334s/\004$^=\034\026"
 725      7FD13258 
 725      92066CDB 
 725      34732F04 
 725      245E3D1C 
 726 08f7 B81BB8DE 		.ascii	"\270\033\270\336Z\332Sn\267\036~\213xJ\255\011O\201"
 726      5ADA536E 
 726      B71E7E8B 
 726      784AAD09 
 726      4F81
 727 0909 CE06BF49 		.ascii	"\316\006\277IQ\364\2746FA5\3203\313O\224\367\002\347"
 727      51F4BC36 
 727      464135D0 
 727      33CB4F94 
 727      F702E7
 728 091c F7F1184E 		.ascii	"\367\361\030N\036\336o\242\341\242\316>\264p\367\274"
 728      1EDE6FA2 
 728      E1A2CE3E 
 728      B470F7BC 
 729 092c 955DAC29 		.ascii	"\225]\254)Fn\213\301\372/Pw\333\210\233a0\206\016J\262"
 729      466E8BC1 
 729      FA2F5077 
 729      DB889B61 
 729      30860E4A 
 730 0941 6654FE5C 		.ascii	"fT\376\\\253\362\347o\260?\037\003\177\026\371z|<\241"
 730      ABF2E76F 
 730      B03F1F03 
 730      7F16F97A 
 730      7C3CA1
 731 0954 F66DBD1E 		.ascii	"\366m\275\036\277A=^\257\264,w\022e\035\275j\216\252"
 731      BF413D5E 
 731      AFB42C77 
 731      12651DBD 
 731      6A8EAA
 732 0967 ABA98A31 		.ascii	"\253\251\2121\341{\372+1\020V\216\316V\272$\371\275"
 732      E17BFA2B 
 732      3110568E 
 732      CE56BA24 
ARM GAS  /tmp/cclyubud.s 			page 57


 732      F9BD
 733 0979 C731CB88 		.ascii	"\3071\313\210Zo\276<M\323%\2356\003\367\"\203 \353\243"
 733      5A6FBE3C 
 733      4DD3259D 
 733      3603F722 
 733      8320EBA3 
 734 098d 7E6F25F2 		.ascii	"~o%\362\333xd\246\355<2P\020\037w\341\343A||\007\033"
 734      DB7864A6 
 734      ED3C3250 
 734      101F77E1 
 734      E3417C7C 
 735 09a3 6E3A3ECE 		.ascii	"n:>\316\304\307\005\370\370\036>\256\306\307O\361q\017"
 735      C4C705F8 
 735      F81E3EAE 
 735      C6C74FF1 
 735      710F
 736 09b5 3E1EC2C7 		.ascii	">\036\302\307\303\370x\004\037\277\306\307\323\370x"
 736      C3F87804 
 736      1FBFC6C7 
 736      D3F878
 737 09c4 D68C03C8 		.ascii	"\326\214\003\310\2016\344fJ\314]\327\346wb\265\341w"
 737      8136E466 
 737      4ACC5DD7 
 737      E67762B5 
 737      E177
 738 09d6 6222BFD3 		.ascii	"b\"\277\3232\030\355Q\032M\256Sir=\326\344\006\254\267"
 738      3218ED51 
 738      1A4DAE53 
 738      69723DD6 
 738      E406ACB7 
 739 09ea 73DA307E 		.ascii	"s\3320~)FyS\333\226p 5\325\224l}\036\277\316\2612\224"
 739      29467953 
 739      DB967020 
 739      35D5946C 
 739      7D1EBFCE 
 740 0a01 3DAA8C29 		.ascii	"=\252\214).\342\000{-\242\371~N\217\376-\215\343Zh\231"
 740      2EE2007B 
 740      2DA2F97E 
 740      4E8FFE2D 
 740      8DE35A68 
 741 0a16 CCC624B6 		.ascii	"\314\306$\266&?Qir\015\326\344gX\223\027\264\232\224"
 741      263F5169 
 741      720DD6E4 
 741      67589317 
 741      B49A94
 742 0a29 6251ADAB 		.ascii	"bQ\255\253\302\265\016U\252J0\326$\273\326U\252Z?\300"
 742      C2B50E55 
 742      AA4A30D6 
 742      24BBD655 
 742      AA5A3FC0 
 743 0a3d B5AEE64D 		.ascii	"\265\256\346M\370\350\362\360\362\222&\254\336\317\315"
 743      F8E8F2F0 
 743      F29226AC 
 743      DECFCD
 744 0a4c C0E67971 		.ascii	"\300\346yqA;yeB\017\340\262p?>\323\330S^;\323)qE\265"
 744      413B7965 
 744      420FE0B2 
ARM GAS  /tmp/cclyubud.s 			page 58


 744      703F3ED3 
 744      D8535E3B 
 745 0a65 FA91101B 		.ascii	"\372\221\020\033>\261E\241\332\034\016t\346\007\244"
 745      3EB145A1 
 745      DA1C0E74 
 745      E607A4
 746 0a74 CB3EFAEE 		.ascii	"\313>\372\356\337>\303\357\305\256\312K\004\261\264"
 746      DF3EC3EF 
 746      C5AECA4B 
 746      04B1B4
 747 0a83 EF3828D7 		.ascii	"\3578(\327qh]\307\021\033>!\303\321\250\375\217\240"
 747      71685DC7 
 747      111B3E21 
 747      C3D1A8FD 
 747      8FA0
 748 0a95 1ECF1022 		.ascii	"\036\317\020\"\263\327\354{Sv\342\233\270\017\232\024"
 748      B3D7EC7B 
 748      5376E29B 
 748      B80F9A14 
 749 0aa5 17F555BD 		.ascii	"\027\365U\275\026\007qk\241:\367`]\003\336\325\321b"
 749      1607716B 
 749      A13AF760 
 749      5D03DED5 
 749      D162
 750 0ab7 6A08D8D8 		.ascii	"j\010\330\330\2604r`\321\211\233K\354&\361\001\335\267"
 750      B0347260 
 750      D1899B4B 
 750      EC26F101 
 750      DDB7
 751 0ac9 8C08FC9E 		.ascii	"\214\010\374\236\320\011\237\331\360\336\227\250Zh\012"
 751      D0099FD9 
 751      F0DE97A8 
 751      5A680A
 752 0ad8 F5C2BF08 		.ascii	"\365\302\277\010i!x\242\376\227\210\357X\033R\301\234"
 752      692178A2 
 752      FE9788EF 
 752      581B52C1 
 752      9C
 753 0ae9 E82AD082 		.ascii	"\350*\320\202\210\374x\033\012z\350e\260F\015w\227a"
 753      88FC781B 
 753      0A7AE865 
 753      B0460D77 
 753      9761
 754 0afb 35A0FBD1 		.ascii	"5\240\373\321\3250\367\3449\333|)8\326\346\342J\360"
 754      D530F7E4 
 754      39DB7C29 
 754      38D6E6E2 
 754      4AF0
 755 0b0d 02C4C471 		.ascii	"\002\304\304q\321\026 Z\313\317w\226\215\367\026\224"
 755      D116205A 
 755      CBCF7796 
 755      8DF71694 
 756 0b1d 12B81A8A 		.ascii	"\022\270\032\212\271\011$\304k2\024\326\360\236]\322"
 756      B90924C4 
 756      6B3214D6 
 756      F09E5DD2 
 757 0b2d 1EF146F7 		.ascii	"\036\361F\367\015xc\205\013\\c\234\254\014{l\370\336"
ARM GAS  /tmp/cclyubud.s 			page 59


 757      0D786385 
 757      0B5C639C 
 757      AC0C7B6C 
 757      F8DE
 758 0b3f C5F03D5E 		.ascii	"\305\360=^\225\365z\370\266\262\305\020]\032.a\205\311"
 758      95F57AF8 
 758      B6B2C510 
 758      5D1A2E61 
 758      85C9
 759 0b51 89FC141B 		.ascii	"\211\374\024\033\012 Sm6f1\210]\361<1\003K\324\250\035"
 759      0A20536D 
 759      36663188 
 759      5DF13C31 
 759      034BD4A8 
 760 0b66 193486CB 		.ascii	"\0314\206\313o\363\325\337O\224\326\016\265b\204\313"
 760      6FF3D5DF 
 760      4F94D60E 
 760      B56284CB 
 761 0b76 3F938D30 		.ascii	"?\223\2150\007\033\241$\276MF\230O\033a\275l\204\371"
 761      071BA124 
 761      BE4D4698 
 761      4F1B61BD 
 761      6C84F9
 762 0b89 A68C3027 		.ascii	"\246\2140'>\322\010\313\343\231FX\033o\335\010\363U"
 762      3ED208CB 
 762      E3994658 
 762      1B6FDD08 
 762      F355
 763 0b9b 4658808D 		.ascii	"FX\200\215\360\256\256\021vZ6B\014e\204\352Im0\302\355"
 763      F0AEAE11 
 763      765A3642 
 763      0C6584EA 
 763      496D30C2 
 764 0bb0 9FCB4658 		.ascii	"\237\313FX\216\215\260\257mFXI\033\241N6\302JSF\250"
 764      8E8DB0AF 
 764      6D465849 
 764      1BA14E36 
 764      C24A5346 
 765 0bc5 6318E134 		.ascii	"c\030\3414\333\010W\333`\204\225*#\274\217\215\260J"
 765      DB0857DB 
 765      6084952A 
 765      23BC8F8D 
 765      B04A
 766 0bd7 D7081312 		.ascii	"\327\010\023\022\254\032!\221n\011\223\370\357>(\221"
 766      AC1A2191 
 766      6E0993F8 
 766      EF3E2891 
 767 0be7 A89716CA 		.ascii	"\250\227\026\312\312\000\250Z\267G\020\371[xf\022\356"
 767      CA00A85A 
 767      B74710F9 
 767      5B786612 
 767      EE
 768 0bf8 15D0BD9F 		.ascii	"\025\320\275\237\314\014M\327\330T\223\206\251\264\014"
 768      CC0C4DD7 
 768      D8549386 
 768      A9B40C
 769 0c07 66479224 		.ascii	"fG\222$\240~{\262\022M\361\332\322!4\325\235\274=\211"
ARM GAS  /tmp/cclyubud.s 			page 60


 769      A07E7BB2 
 769      124DF1DA 
 769      D22134D5 
 769      9DBC3D89 
 770 0c1b 2FC31DF4 		.ascii	"/\303\035\364:\334)T%X\354\024\2208\033\350\016a\011"
 770      3ADC2954 
 770      2558EC14 
 770      90381BE8 
 770      0E6109
 771 0c2e A284161A 		.ascii	"\242\204\026\0327D\357\022&\214\017\226\235\254\024"
 771      3744EF12 
 771      268C0F96 
 771      9DAC14
 772 0c3d C2A3D2F1 		.ascii	"\302\243\322\361\206\003\013\221\337\213\207Wf\226\255"
 772      86030B91 
 772      DF8B8757 
 772      6696AD
 773 0c4c 4E606136 		.ascii	"N`a6X\320\254\226W\271\254Y\221\377\302\206\374\267"
 773      58D0AC96 
 773      57B9AC59 
 773      91FFC286 
 773      FCB7
 774 0c5e C9325C92 		.ascii	"\3112\\\222\006\356s-\334)3pzsq\200\333\240\205\373"
 774      06EE732D 
 774      DC293370 
 774      7A737180 
 774      DBA085FB 
 775 0c72 DE329C96 		.ascii	"\3362\234\226\335&-\334E3pzo\025\001n\263\026\356G\313"
 775      DD262DDC 
 775      4533707A 
 775      6F15016E 
 775      B316EE47 
 776 0c87 705A765B 		.ascii	"pZv[\265pW\315\300\261\336\277\261>j\007\206\351\035"
 776      B57057CD 
 776      C0B1DEBF 
 776      B13E6A07 
 776      86E91D
 777 0c9a 0E399B6C 		.ascii	"\0169\233lh\316\260\005\037\267\341\343\016|\334\211"
 777      68CEB005 
 777      1FB7E1E3 
 777      0E7CDC89 
 778 0caa 8F5FE2E3 		.ascii	"\217_\342\343\036\233\211\246^\256n\352\267\3144u\375"
 778      1E9B89A6 
 778      5EAE6EEA 
 778      B7CC3475 
 778      FD
 779 0cbb E517D467 		.ascii	"\345\027\324gL\341\253q\270Rv3\336\263\014\231\244\206"
 779      4CE1AB71 
 779      B8527633 
 779      DEB30C99 
 779      A486
 780 0ccd 0CDE3DD9 		.ascii	"\014\336=\331l\303m\317D\374\323L\221H\004Yra\337\357"
 780      6CC36DCF 
 780      44FCD34C 
 780      91480459 
 780      7261DFEF 
 781 0ce1 518F146D 		.ascii	"Q\217\024m\227\261\310\037\004\305\232\331;]EG\223\353"
ARM GAS  /tmp/cclyubud.s 			page 61


 781      97B1C81F 
 781      04C59AD9 
 781      3B5D4547 
 781      93EB
 782 0cf3 87F0F0B2 		.ascii	"\207\360\360\262\312\324\360\362\246\311\345\273 \257"
 782      CAD4F0F2 
 782      A6C9E5BB 
 782      20AF
 783 0d01 76935038 		.ascii	"v\223P8\334\367\202\334\275\326\340hx\360\276\250\321"
 783      DCF782DC 
 783      BDD6E068 
 783      78F0BEA8 
 783      D1
 784 0d12 508B83D7 		.ascii	"P\213\203\327\256h\376\353\2520\377ZS\261p#\331~\030"
 784      AE68FEEB 
 784      AA30FF5A 
 784      53B17023 
 784      D97E18
 785 0d25 0A3A9842 		.ascii	"\012:\230Bm\233c\330&y\337\027\0119\226\301\2224`\233"
 785      6D9B63D8 
 785      2679DF17 
 785      093996C1 
 785      9234609B 
 786 0d39 D560E7CC 		.ascii	"\325`\347\314\200\031\304\257\255j\260K\226\301\264"
 786      8019C4AF 
 786      AD6AB04B 
 786      96C1B4
 787 0d48 CCB6ABC1 		.ascii	"\314\266\253\301.\233\0013\210]\207\325`7,\203%\261"
 787      2E9B0133 
 787      885D87D5 
 787      60372C83 
 787      25B1
 788 0d5a CCCB4578 		.ascii	"\314\313Ex\207\310\327\341P\363\015\016&\307\361\361"
 788      87C8D7E1 
 788      50F30D0E 
 788      26C7F1F1 
 789 0d6a 5B7C6CC0 		.ascii	"[|l\300\307&|<i&\310\034Q\007\231\026L\270\252m\036"
 789      C7267C3C 
 789      6926C81C 
 789      51079916 
 789      4CB8AA6D 
 790 0d7f 034166C9 		.ascii	"\003Af\311\205\357~\267\031\357$\245\266\300\"}\350"
 790      85EF7EB7 
 790      19EF24A5 
 790      B6C0227D 
 790      E8
 791 0d90 3138AB66 		.ascii	"18\253f0\266\235U\006Ij\006\301;\207\344\335\021\312"
 791      30B69D55 
 791      06496A06 
 791      C13B87E4 
 791      DD11CA
 792 0da3 0E85121A 		.ascii	"\016\205\022\032\2175\3123Z\265>\024\277v\250\002\366"
 792      8F35CA33 
 792      5AB53E14 
 792      BF76A802 
 792      F6
 793 0db4 8E6530CD 		.ascii	"\216e0\315\270=8\243J\0056\3372Xb\204G\310\276p\030"
ARM GAS  /tmp/cclyubud.s 			page 62


 793      B83D38A3 
 793      4A0536DF 
 793      32586284 
 793      47C8BE70 
 794 0dc9 FB4235B6 		.ascii	"\373B5\266\371\031|<\207\217\027\360\361\222\332\013"
 794      F9197C3C 
 794      878F17F0 
 794      F192DA0B 
 795 0dd9 046E693B 		.ascii	"\004ni;z\031E\016\216*\324p\024\345\314\342\352\331"
 795      7A19450E 
 795      8E2AD470 
 795      14E5CCE2 
 795      EAD9
 796 0deb F680DAB6 		.ascii	"\366\200\332\266e\355L\3647\372\273\215P\0276\225\214"
 796      65ED4CF4 
 796      37FABB8D 
 796      50173695 
 796      8C
 797 0dfc B8656481 		.ascii	"\270ed\201\333h\031R\345.\320\\\227\234:g[ \005\307"
 797      DB681952 
 797      E52ED05C 
 797      979C3A67 
 797      5B2005C7 
 798 0e10 29C347A9 		.ascii	")\303G\251Dzbu;\225\306\011\004\232\201\204\266\300"
 798      447A6275 
 798      3B95C609 
 798      049A8184 
 798      B6C0
 799 0e22 6CFC5718 		.ascii	"l\374W\030\240\222\205,\243\002\"\177\015[\306\246\035"
 799      A092852C 
 799      A302227F 
 799      0D5BC6A6 
 799      1D
 800 0e33 6FDA62C3 		.ascii	"o\332b\303'\255\255\370\007I\333(\243\230\000\017\355"
 800      27ADADF8 
 800      0749DB28 
 800      A398000F 
 800      ED
 801 0e44 A3F940FE 		.ascii	"\243\371@\376]\301M\034q*\"\254k\243\026\311\242\221"
 801      5DC14D1C 
 801      712A22AC 
 801      6BA316C9 
 801      A291
 802 0e56 B19459E0 		.ascii	"\261\224Y\340\252i\003hHZ\036MMP\205\270\211Xy%\330"
 802      AA690368 
 802      485A1E4D 
 802      4D5085B8 
 802      89587925 
 803 0e6b D966E363 		.ascii	"\331f\343c)>~\212\217e\370X\211\217\373\361\261\031"
 803      293E7E8A 
 803      8F65F858 
 803      898FFBF1 
 803      B119
 804 0e7d 1FAF9871 		.ascii	"\037\257\230qK)\354\226\"?\304f\230?\264\012x\276`5"
 804      4B29EC96 
 804      223FC466 
 804      983FB40A 
ARM GAS  /tmp/cclyubud.s 			page 63


 804      78BE6035 
 805 0e91 9EEDDC15 		.ascii	"\236\355\334\025\220\347\325Q\232\246\002\036Zr\323"
 805      90E7D551 
 805      9AA6021E 
 805      5A72D3
 806 0ea0 ABFDAE4D 		.ascii	"\253\375\256M\363vA\243\000\352\031t\342\270\236\026"
 806      F37641A3 
 806      00EA1974 
 806      E2B89E16 
 807 0eb0 EB6F7B95 		.ascii	"\353o{\225A\015Y:Tx_\260\214\227\244\301\273\327\200"
 807      410D593A 
 807      54785FB0 
 807      8C97A4C1 
 807      BBD780
 808 0ec3 3B3819EC 		.ascii	";8\031\354\232\0310\203\350:\257\221\336\362g~Qs\242"
 808      9A193083 
 808      E83AAF91 
 808      DEF2677E 
 808      5173A2
 809 0ed6 5DB3A829 		.ascii	"]\263\250)\0335tq]\366{\223\326\015.Z\372 ^\206\264"
 809      1B357471 
 809      5DF67B93 
 809      D60D2E5A 
 809      FA205E86 
 810 0eeb 23A9EE1A 		.ascii	"#\251\356\032\233\026U\254Gj\262]\337\264\3243\201{"
 810      9B1655AC 
 810      476AB25D 
 810      DFB4D433 
 810      817B
 811 0efd ABBD55ED 		.ascii	"\253\275U\355iM\261\254\361\357Z\025\236f\240@\323\313"
 811      694DB1AC 
 811      F1EF5A15 
 811      9E66A040 
 811      D3CB
 812 0f0f F4C19A45 		.ascii	"\364\301\232E\035\221\346f\342e\232\231\355\377\001"
 812      1D91E666 
 812      E2659A99 
 812      EDFF01
 813 0f1e 7B462C98 		.ascii	"{F,\230m\213l\266w\260\331\226\26474\3334\003\263\315"
 813      6D8B6CB6 
 813      77B0D996 
 813      B43734DB 
 813      3403B3CD 
 814 0f32 3330DB3C 		.ascii	"30\333<\332l\037\2301\233\301\246\331/\032\225\026)"
 814      DA6C1F98 
 814      319BC1A6 
 814      D92F1A95 
 814      1629
 815 0f44 4FC3D65A 		.ascii	"O\303\326Z\306\323\272\301\341e\011\207\207\312\036"
 815      C6D3BAC1 
 815      E1650987 
 815      87CA1E
 816 0f53 2F701B68 		.ascii	"/p\033h0\263\361\230\200}\243\006\333l\031L\263D\026"
 816      30B3F198 
 816      807DA306 
 816      DB6C194C 
 816      B34416
ARM GAS  /tmp/cclyubud.s 			page 64


 817 0f66 6C56836D 		.ascii	"lV\203m\267\014\226\024a\015\225YZT\257\371\357\340"
 817      B70C9614 
 817      610D9559 
 817      5A54AFF9 
 817      EFE0
 818 0f78 C5B49FF0 		.ascii	"\305\264\237\360\373\335V\334\013\214\265\243\343x|"
 818      FBDD56DC 
 818      0B8CB5A3 
 818      E3787C
 819 0f87 9C8A8F0B 		.ascii	"\234\212\217\013\360q!>.\306\307\245v\023=\305\015\301"
 819      F071213E 
 819      2EC6C7A5 
 819      76133DC5 
 819      0DC1
 820 0f99 F02D5B12 		.ascii	"\360-[\022\365\222\255"
 820      F592AD
 821 0fa0 B352DE46 		.ascii	"\263R\336F\312/\267[}\311\266\302\316~\311&DaZj7f\332"
 821      CA2FB75B 
 821      7DC9B6C2 
 821      CE7EC926 
 821      44615A6A 
 822 0fb7 5943B434 		.ascii	"YC\26444\367|\220\224_i\231\351\373:L\037\210\302\364"
 822      34F77C90 
 822      945F6999 
 822      E9FB3A4C 
 822      1F88C2F4 
 823 0fcb 3D1DA6CA 		.ascii	"=\035\246\312\024Y\265\374\034\014\375\346\025\375\006"
 823      1459B5FC 
 823      1C0CFDE6 
 823      15FD06
 824 0fda 8274C573 		.ascii	"\202t\305s\357]\276I^+\177`Gs\355}T\313\217\012\004"
 824      EF5DBE49 
 824      5E2B7F60 
 824      4773ED7D 
 824      54CB8F0A 
 825 0fef DD372EF2 		.ascii	"\3357.\362\221\235\232o\237\020\223\344\273\3217\333"
 825      919D9A6F 
 825      9F1093E4 
 825      BBD137DB 
 826 0fff 5C       		.ascii	"\\"
 827 1000 3E1F2395 		.ascii	">\037#\225$\260\265;X\251,\216\210\274\306\262r?\323"
 827      24B0B53B 
 827      58A92C8E 
 827      88BCC6B2 
 827      723FD3
 828 1013 51AED260 		.ascii	"Q\256\322`\005\356lH\004V\255\321F\006R\360\212cA\027"
 828      05EE6C48 
 828      0456ADD1 
 828      460652F0 
 828      8A634117 
 829 1027 D9EC0277 		.ascii	"\331\354\002w\221\306\322\372\207\301l\204\200]S\201"
 829      91C6D2FA 
 829      87C16C84 
 829      805D5381 
 830 1037 5D3305A6 		.ascii	"]3\005\246\277A7x\003\300\330\212\215X\361\331`Y\261"
 830      BF413778 
 830      03C0D88A 
ARM GAS  /tmp/cclyubud.s 			page 65


 830      8D58F1D9 
 830      6059B1
 831 104a 1B7514AB 		.ascii	"\033u\024\253\370\244\300\335\243\371kj%\247\232m`Z"
 831      F8A4C0DD 
 831      A3F96B6A 
 831      25A79A6D 
 831      605A
 832 105c 5DDCC2BA 		.ascii	"]\334\302\272X\203u\361V\242\011#i6\341ta\371\034G\310"
 832      588375F1 
 832      56A20923 
 832      6936E174 
 832      61F91C47 
 833 1071 871D56E4 		.ascii	"\207\035V\344?\261\243\250\367)\216ee\370\270\016\037"
 833      3FB1A3A8 
 833      F7298E65 
 833      65F8B80E 
 833      1F
 834 1082 D7E3E317 		.ascii	"\327\343\343\027f\242\333*\235\226(\377=\000\275R[t"
 834      66A2DB2A 
 834      9D9628FF 
 834      3D00BD52 
 834      5B74
 835 1094 4B216BE8 		.ascii	"K!k\350\225\332\252[j\215A\251m\341Rd\037J\365\212\223"
 835      95DAAA5B 
 835      6A8D41A9 
 835      6DE15264 
 835      1F4AF58A 
 836 10a9 5FF2D0BE 		.ascii	"_\362\320\276\321F'yS\330|\3201ky\255\203\002\206\377"
 836      D1462779 
 836      53D87CD0 
 836      316B79AD 
 836      830286FF 
 837 10bd 6A8EC02D 		.ascii	"j\216\300-\307\266\010\322m\276~h\222|\327\304{\370"
 837      C7B608D2 
 837      6DBE7E68 
 837      927CD7C4 
 837      7BF8
 838 10cf 52B2254E 		.ascii	"R\262%N\302\263\317OC\200m\031\233C\0109\255\011!:\221"
 838      C2B3CF4F 
 838      43806D19 
 838      9B430839 
 838      AD09213A 
 839 10e4 5AF35B65 		.ascii	"Z\363[e\374\026\303\262\317W\352\370\274G\313.\230\240"
 839      FC16C3B2 
 839      CF57EAF8 
 839      BC47CB2E 
 839      98A0
 840 10f6 3CA8545E 		.ascii	"<\250T^\367UX\256k\237N]\312\273:\201[O\253\215\252"
 840      F75558AE 
 840      6B9F4E5D 
 840      CABB3A81 
 840      5B4FAB8D 
 841 110b 37FA24E4 		.ascii	"7\372$\344j\363&\0364\247,\245l\245\001YK)D$&\336\265"
 841      6AF3261E 
 841      34A72CA5 
 841      6CA50159 
 841      4B294424 
ARM GAS  /tmp/cclyubud.s 			page 66


 842 1122 BFA0162B 		.ascii	"\277\240\026+\203UZ\007S\377NB\012\336\\\035\213\271"
 842      83555A07 
 842      53FF4E42 
 842      0ADE5C1D 
 842      8BB9
 843 1134 C97DD3D1 		.ascii	"\311}\323\321\010a5=\021\023\217\204\000\221\337\316"
 843      0861353D 
 843      11138F84 
 843      0091DFCE 
 844 1144 68C4DA3D 		.ascii	"h\304\332=\222\344t\201\300\360\262\207\271\245\322"
 844      92E47481 
 844      C0F0B287 
 844      B9A5D2
 845 1153 E1E6E08E 		.ascii	"\341\346\340\216\212i0\336\034\027lm\355\311\311\023"
 845      8A6930DE 
 845      1C176C6D 
 845      EDC9C913 
 846 1163 53816B48 		.ascii	"S\201kH\324\366\230\217q\357I\322,i\221\267\237\342"
 846      D4F6988F 
 846      71EF49D2 
 846      2C6991B7 
 846      9FE2
 847 1175 DB17708E 		.ascii	"\333\027p\216j\373\303LC\207\246\320\217s\357#\277\330"
 847      6AFBC34C 
 847      4387A6D0 
 847      8F73EF23 
 847      BFD8
 848 1187 220DEE8C 		.ascii	"\"\015\356\214'\033\034)\244\372\210\374\021\273\346"
 848      271B1C29 
 848      A4FA88FC 
 848      11BBE6
 849 1196 CF25115E 		.ascii	"\317%\021^\015\025\0113\3066\265\266>\254\220jf\223"
 849      0D150933 
 849      C636B5B6 
 849      3EAC906A 
 849      6693
 850 11a8 9AA99012 		.ascii	"\232\251\220\022\371\257\355h\023Im[H\325\322\244\352"
 850      F9AFED68 
 850      13496D5B 
 850      48D5D2A4 
 850      EA
 851 11b9 98A46AF7 		.ascii	"\230\244j\367R\244n\262I\315\245I\035o\013\251\3434"
 851      52A46EB2 
 851      49CDA549 
 851      1D6F0BA9 
 851      E334
 852 11cb A97A26A9 		.ascii	"\251z&\251\033aRh\026#p\322\375\346H5\030\223\"\305"
 852      1B615268 
 852      162370D2 
 852      FDE64835 
 852      189322C5 
 853 11df EA513179 		.ascii	"\352Q1y\0027\011\003\353\027\233)7n\226,\015\264,\215"
 853      02370903 
 853      EB179B29 
 853      376E962C 
 853      0DB42C8D 
 854 11f3 91B2049B 		.ascii	"\221\262\004\233\233\316\2549\211_\330J\255\255o&\231"
ARM GAS  /tmp/cclyubud.s 			page 67


 854      9BCEAC39 
 854      895FD84A 
 854      ADAD6F26 
 854      99
 855 1204 9FAC9EA1 		.ascii	"\237\254\236\241'\253\313\361VJ\3254Q\340\246\260\265"
 855      27ABCBF1 
 855      564AD534 
 855      51E0A6B0 
 855      B5
 856 1215 82C55B8E 		.ascii	"\202\305[\216\3670/\3009N\353\212G\366\324\021\361\216"
 856      F7302FC0 
 856      394EEB8A 
 856      47F6D411 
 856      F18E
 857 1227 A9C53B4D 		.ascii	"\251\305;M\213\367=S\274\352\025-\377\264\244\274T\232"
 857      8BF73D53 
 857      BCEA152D 
 857      FFB4A4BC 
 857      549A
 858 1239 24DD6B7D 		.ascii	"$\335k}\2237/\337%\"_X$\201[L\311C\210A'\261Z\262\205"
 858      93372FDF 
 858      25225F58 
 858      24815B4C 
 858      C9438841 
 859 1252 885DA489 		.ascii	"\210]\244\211\375\300\"&\225KR,\350\274U\022\344\025"
 859      FDC02226 
 859      954B522C 
 859      E8BC5512 
 859      E415
 860 1264 0CE8BDD8 		.ascii	"\014\350\275\330\352\232O;\321\217\246\234\250N|B\231"
 860      EA9A4F3B 
 860      D18FA69C 
 860      A84E7C42 
 860      99
 861 1275 E96DC4C0 		.ascii	"\351m\304\300\252b\324\252(Y\233a9\321\217\2640\315"
 861      AA62D4AA 
 861      28599B61 
 861      39D18FB4 
 861      30CD
 862 1287 2C618247 		.ascii	",a\202G\247\314\371\331\333rH\213\321\350\330\374v\230"
 862      A7CCF9D9 
 862      DB72488B 
 862      D1E8D8FC 
 862      7698
 863 1299 B9F7F63D 		.ascii	"\271\367\366=./\234\332\321n\230/(e\230\334\015\323"
 863      2E2F9CDA 
 863      D16E982F 
 863      286598DC 
 863      0DD3
 864 12ab 62A776C3 		.ascii	"b\247v\303,s\010\362\335\350{a*\357\217\334\013s\370"
 864      2C7308F2 
 864      DDE87B61 
 864      2AEF8FDC 
 864      0B73F8
 865 12be 7EE65E98 		.ascii	"~\346^\230c\367k\367\302\220\333\337\205o\333T\267\317"
 865      63F76BF7 
 865      C290DBDF 
ARM GAS  /tmp/cclyubud.s 			page 68


 865      856FDB54 
 865      B7CF
 866 12d0 876FDB55 		.ascii	"\207o\333U\267\257\204o;T\267[\302\267\235\252\333\023"
 866      B7AF846F 
 866      3B54B75B 
 866      C2B79DAA 
 866      DB13
 867 12e2 3A846EBB 		.ascii	":\204n\273T\267'\207o\223w\033\370\322pWNXI0U\307\203"
 867      54B72787 
 867      6F93771B 
 867      F8D27057 
 867      4E584930 
 868 12f9 D69FECEC 		.ascii	"\326\237\354\354]9z\255\343\206]\177\003\243\361&\327"
 868      5D397AAD 
 868      E3865D7F 
 868      03A3F126 
 868      D7
 869 130a E90EF64A 		.ascii	"\351\016\366J\257\300\315\350\300r\177h\300G\236\256"
 869      AFC0CDE8 
 869      C0727F68 
 869      C0479EAE 
 870 131a 428D452E 		.ascii	"B\215E.+p\253q\276\353\272\215\200\324\200\275y\226"
 870      2B70AB71 
 870      BEEBBA8D 
 870      80D480BD 
 870      7996
 871 132c 54FD2DF2 		.ascii	"T\375-\362\346\233\304\001T\245(\327\301\217g8\"\234"
 871      E69BC401 
 871      54A528D7 
 871      C18F6738 
 871      229C
 872 133e BBB429D8 		.ascii	"\273\264)\3308yj\250\277\32687\031\203\231\371\231\356"
 872      38796AA8 
 872      BFD63837 
 872      198399F9 
 872      99EE
 873 1350 F14F9EC4 		.ascii	"\361O\236\304\316=\317\201W\230(Q\315\003\255oX\222"
 873      CE3DCF81 
 873      57982851 
 873      CD03AD6F 
 873      5892
 874 1362 8C81DEC5 		.ascii	"\214\201\336\305@\033) \221\347\250\345=N\273\274\007"
 874      401B2920 
 874      91E7A8E5 
 874      3D4EBBBC 
 874      07
 875 1373 9728E8B4 		.ascii	"\227(\350\264\206\267o\303\2357\2716\225\3213\361\\"
 875      86B76FC3 
 875      9D37B936 
 875      95D133F1 
 875      5C
 876 1384 07631D93 		.ascii	"\007c\035\2232vP\317\330-On\223\215-\027\332\215#\336"
 876      327650CF 
 876      D82D4F6E 
 876      938D2D17 
 876      DA8D23DE 
 877 1398 1C87B9BE 		.ascii	"\034\207\271\276\274\014\033{\036\336h\254)\3052\366"
ARM GAS  /tmp/cclyubud.s 			page 69


 877      BC0C1B7B 
 877      1EDE68AC 
 877      29C532F6 
 878 13a8 92486337 		.ascii	"\222Hc75\007\227\036\220\273\366e/R}\005B\325\223x\271"
 878      3507971E 
 878      90BBF665 
 878      2F527D05 
 878      42D59378 
 879 13bd C3D27E5E 		.ascii	"\303\322~^j\"D\326N\3576\3630\357Y\351\300\013(\021"
 879      6A2244D6 
 879      4EEF36F3 
 879      30EF59E9 
 879      C00B2811 
 880 13d1 7695E743 		.ascii	"v\225\347C*#\005U3\317]\270\021\177\211\347\231{\360"
 880      2A230555 
 880      33CF5DB8 
 880      117F89E7 
 880      997BF0
 881 13e4 F1003E1E 		.ascii	"\361\000>\036\304\307*|d\015]#W\202t[g\035\323`\301"
 881      C4C72A7C 
 881      640D5D23 
 881      5782745B 
 881      671DD360 
 882 13f9 65079641 		.ascii	"e\007\226A\333\020\344\222\002\327\210s\225\352\232"
 882      DB10E492 
 882      02D78873 
 882      95EA9A
 883 1408 EB3D87BE 		.ascii	"\353=\207\276\271J\215\315\365\001\323\\\250\343\221"
 883      B94A8DCD 
 883      F501D35C 
 883      A8E391
 884 1417 DBE60E89 		.ascii	"\333\346\016\211\217\241L\206Z\275\236\244\237\320N"
 884      8FA14C86 
 884      5ABD9EA4 
 884      9FD04E
 885 1426 8AC20625 		.ascii	"\212\302\006%\363)\246\314\3222\324!\313\331g9\220{"
 885      F329A6CC 
 885      D232D421 
 885      CBD96739 
 885      907B
 886 1438 7EAC2BAF 		.ascii	"~\254+\257:\026\215\243b\321\307\306\362\256a\312\273"
 886      3A168DA3 
 886      62D1C7C6 
 886      F2AE61CA 
 886      BB
 887 1449 6E964E2C 		.ascii	"n\226N,2v\320r\226\264\241\013\262\352@I\177\215-\375"
 887      3276D072 
 887      96B4A10B 
 887      B2EA4049 
 887      7F8D2DFD 
 888 145d F5AC7E4A 		.ascii	"\365\254~J$\226\036@9\312\214\245W\017\372V\341\367"
 888      24961E40 
 888      39CA8CA5 
 888      570FFA56 
 888      E1F7
 889 146f 0253A214 		.ascii	"\002S\242\024#t\230NRf\254\264\365\314\000>\267.\244"
 889      2374984E 
ARM GAS  /tmp/cclyubud.s 			page 70


 889      5266ACB4 
 889      F5CC003E 
 889      B72EA4
 890 1482 B4CE94D2 		.ascii	"\264\316\224\322\026\033tU[M\270\310\364\007\230Jj\315"
 890      161B7455 
 890      5B4DB8C8 
 890      F407984A 
 890      6ACD
 891 1494 A25C648B 		.ascii	"\242\\d\213I\027Y\207\245\225\177\202\257)\305\222v"
 891      49175987 
 891      A5957F82 
 891      AF29C592 
 891      76
 892 14a5 3B53DA1D 		.ascii	";S\332\035u\007x\240\360\023z!LI[f \355.Z\332\236\021"
 892      750778A0 
 892      F0137A21 
 892      4C495B66 
 892      20ED2E5A 
 893 14bc C22E630B 		.ascii	"\302.c\013\333\210\204\305?I\373\020g\330\251+kO\265"
 893      DB8884C5 
 893      3F49FB10 
 893      67D8A92B 
 893      6B4FB5
 894 14cf 613F2B99 		.ascii	"a?+\231\230h\2279q\006\245\010\275\335LY\217.\324\225"
 894      98689739 
 894      7106A508 
 894      BDDD4C59 
 894      8F2ED495 
 895 14e3 D5606CBF 		.ascii	"\325`l\277\317\204a?e\313z3\354\375[q\216JS\206\225"
 895      CF84613F 
 895      65CB7A33 
 895      ECFD5B71 
 895      8E4A5386 
 896 14f8 A477A489 		.ascii	"\244w\244\211\211|hX\215J\251>\020\257\231\342\265\034"
 896      897C6858 
 896      8D4AA93E 
 896      10AF99E2 
 896      B51C
 897 150a 0FCD3311 		.ascii	"\017\3153\021g\201\333\311fu;\354n\007\261\273U\265"
 897      6781DBC9 
 897      66753BEC 
 897      6E07B1BB 
 897      55B5
 898 151c 895515CD 		.ascii	"\211U\025\315\3520\223\325\332z\212Uu\024])\254j\332"
 898      EA3093D5 
 898      DA7A8A55 
 898      75145D29 
 898      AC6ADA
 899 152f C4AA8666 		.ascii	"\304\252\206f\3655\223U-\315\252\311\300[\325\254\352"
 899      F5359355 
 899      2DCDAAC9 
 899      C05BD5AC 
 899      EA
 900 1540 DAC4AA8E 		.ascii	"\332\304\252\216f\365\015\223\325O4\253\213lVwhV\365"
 900      66F50D93 
 900      D54F34AB 
 900      8B6C5677 
ARM GAS  /tmp/cclyubud.s 			page 71


 900      6856F5
 901 1553 6D62554F 		.ascii	"mbUO\263\372\226\311\252\274\201\2602\337f\232\3506"
 901      B3FA96C9 
 901      AABC81B0 
 901      32DF669A 
 901      E836
 902 1565 B3CA1ED1 		.ascii	"\263\312\036\321f~b\313\366\256\022\372\025\331\032"
 902      667E62CB 
 902      F6AE12FA 
 902      15D91A
 903 1574 4D867EAD 		.ascii	"M\206~\255l\215\264l'\031=\344\214\246\372\252C%\374"
 903      6C8DB46C 
 903      27193DE4 
 903      8CA6FAAA 
 903      4325FC
 904 1587 CCF1A595 		.ascii	"\314\361\245\225R3z{m^\302\263\216\310\031\377\224\007"
 904      52337A7B 
 904      6D5EC2B3 
 904      8EC819FF 
 904      9407
 905 1599 E919BF9C 		.ascii	"\351\031\277\234\343{f\325GJ\316\362\357J\273\360R\212"
 905      E37B66D5 
 905      474ACEF2 
 905      EF4ABBF0 
 905      528A
 906 15ab 858ACFD3 		.ascii	"\205\212\317\323\252\335\022\251\332\305:D.2\210\254"
 906      AADD12A9 
 906      DAC53A44 
 906      2E3288AC 
 907 15bb 6D5A77EA 		.ascii	"mZw\352x\026!\322\332Y\232\261\201^\367\260\263\272"
 907      781621D2 
 907      DA599AB1 
 907      815EF7B0 
 907      B3BA
 908 15cd 0132A13C 		.ascii	"\0012\241<\364\240\252\207\371\201\246\206\376r\222"
 908      F4A0AA87 
 908      F981A686 
 908      FE7292
 909 15dc E642FDF0 		.ascii	"\346B\375\360\252\020\271\307C\340j5\324I-\015\270\026"
 909      AA10B9C7 
 909      43E06A35 
 909      D4492D0D 
 909      B816
 910 15ee 727156A9 		.ascii	"rqV\251R\371)V\230\002\353C\264\335Z\276\363\227\013"
 910      52F92956 
 910      9802EB43 
 910      B4DD5ABE 
 910      F3970B
 911 1601 CAA50956 		.ascii	"\312\245\011VWv\356\260\246'\241\013\362s\016J\206f"
 911      5776EEB0 
 911      A627A10B 
 911      F2730E4A 
 911      8666
 912 1613 1DF5DF63 		.ascii	"\035\365\337c\371A\351\255\326J\376m\313\275\222\344"
 912      F941E9AD 
 912      D64AFE6D 
 912      CBBD92E4 
ARM GAS  /tmp/cclyubud.s 			page 72


 913 1623 A478A15F 		.ascii	"\244x\241_\275S<Ztx\214s\262\374\361^\371\276_\206\374"
 913      BD533C5A 
 913      74788C73 
 913      B2FCF15E 
 913      F9BE5F86 
 914 1638 51593F9D 		.ascii	"QY?\235\334\221\0151\201\011Qwa\263\263\015.]B\313\242"
 914      DC910D31 
 914      81095177 
 914      61B3B30D 
 914      2E5D42CB 
 915 164d 196F12BF 		.ascii	"\031o\022\277\241d[\244Cl\022\213X\260\374\264\024#"
 915      A1645BA4 
 915      436C128B 
 915      58B0FCB4 
 915      1423
 916 165f 3771F3AC 		.ascii	"7q\363\254\246\030\262\232\313\364\336\367tXMc\253\353"
 916      A618B29A 
 916      CBF4DEF7 
 916      74584D63 
 916      ABEB
 917 1671 E2859E6D 		.ascii	"\342\205\236m\361\311\031Zf\346\177\224{s\362\006ya"
 917      F1C9195A 
 917      66E67F94 
 917      7B73F206 
 917      7961
 918 1683 619613FF 		.ascii	"a\226\023\377\322\243#=ol\303~\037J\003\327u40\227\251"
 918      D2A3233D 
 918      6F6CC37E 
 918      1F4A03D7 
 918      75343097 
 919 1698 81DBADE7 		.ascii	"\201\333\255\347T\255R\366j\230)tbc\314g\333v\357T\211"
 919      54AD52F6 
 919      6A982974 
 919      6263CC67 
 919      DB76EF54 
 920 16ad 57BA4D19 		.ascii	"W\272M\031`\252\016\300\273L\022\020\032~\265P\317\014"
 920      60AA0EC0 
 920      BB4C1210 
 920      1A7EB550 
 920      CF0C
 921 16bf 570D06C1 		.ascii	"W\015\006\301\213h\017a,]\314\323\241\262\204I\245\246"
 921      8B680F61 
 921      2C5DCCD3 
 921      A1B28449 
 921      A5A6
 922 16d1 A2616C9B 		.ascii	"\242al\233\272\243e4\025\324+\204..2\235u\225\016\265"
 922      BAA36534 
 922      15D42B84 
 922      2E2E329D 
 922      75950EB5 
 923 16e5 154C35B7 		.ascii	"\025L5\267V\300\264h9s.i4QX\311\"F\021)\323!\262\212"
 923      56C0B468 
 923      39732E69 
 923      345158C9 
 923      22461129 
 924 16fd 49E47649 		.ascii	"I\344vI\230\210,\270\300m\321AX\315@X\333T~\352\212"
 924      98882CB8 
ARM GAS  /tmp/cclyubud.s 			page 73


 924      C06DD141 
 924      58CD4058 
 924      DB547EEA 
 925 1712 2DDCE105 		.ascii	"-\334\341\005\313i\233\243\206\256\323\343\211\374\217"
 925      CB699BA3 
 925      86AED3E3 
 925      89FC8F
 926 1721 388893BE 		.ascii	"8\210\223\276\347\000\324K$\373\025W\323i\211\024\303"
 926      E700D44B 
 926      24FB1557 
 926      D3698914 
 926      C3
 927 1732 510C3E6A 		.ascii	"Q\014>jCl;\332)\242\017\024\371\353\341zE\376\246\266"
 927      436C3BDA 
 927      29A20F14 
 927      F9EBE17A 
 927      45FEA6B6 
 928 1746 27A13FFF 		.ascii	"'\241?\377\314-\227\232\0167U\257\330\265\207\237%I"
 928      CC2D979A 
 928      0E3755AF 
 928      D8B5879F 
 928      2549
 929 1758 959204DA 		.ascii	"\225\222\004\332\342\037V\376\247\203oC\370D\312\310"
 929      E21F56FE 
 929      A7836F43 
 929      F844CAC8 
 930 1768 7D1961BD 		.ascii	"}\031a\275!\254\340\341\340\242\375sy\230\025K\320F"
 930      21ACE0E1 
 930      E0A2FD73 
 930      7998154B 
 930      D046
 931 177a 5A79E5B7 		.ascii	"Zy\345\267\364\247h )\342\227\363\233\010Rwn\235\364"
 931      F4A76820 
 931      29E297F3 
 931      9B085277 
 931      6E9DF4
 932 178d 7670864D 		.ascii	"vp\206M.*o\367\372/\256Ez[\012.\331\317+;g\311\273G"
 932      2E2A6FF7 
 932      FA2FAE45 
 932      7A5B0A2E 
 932      D9CF2B3B 
 933 17a5 791F1879 		.ascii	"y\037\030y\2744NyZ\253<E\373\303\310\323\265\241\247"
 933      BC344E79 
 933      5AAB3C45 
 933      FBC3C8D3 
 933      B5A1A7
 934 17b8 C795A7E3 		.ascii	"\307\225\247\343\303O\313\343\224\215\233?*O\247\206"
 934      C34FCBE3 
 934      948D9B3F 
 934      2A4FA786 
 935 17c8 9F7E1EA7 		.ascii	"\237~\036\247\354\017lP"
 935      EC0F6C50 
 936 17d0 9EA27D66 		.ascii	"\236\242}f$\276I\177\344\344\035g\350\332&O;\027\207"
 936      24BE497F 
 936      E4E41D67 
 936      E8DA264F 
 936      3B1787
ARM GAS  /tmp/cclyubud.s 			page 74


 937 17e3 2FC15538 		.ascii	"/\301U8y\027Z\350yHYs\277\210\205\221,n\303\312\032"
 937      79175AE8 
 937      79485973 
 937      BF888591 
 937      2C6EC3CA 
 938 17f8 DD0FB4AA 		.ascii	"\335\017\264\252\250e=\274H\027\241\365\262#\323\324"
 938      A8653DBC 
 938      4817A1F5 
 938      B223D3D4 
 939 1808 5A9737E8 		.ascii	"Z\2277\350\\\246\241\"w\203\355\012#\351\375A\011\315"
 939      5CA6A122 
 939      7783ED0A 
 939      23E9FD41 
 939      09CD
 940 181a 5B1D54E6 		.ascii	"[\035T\346K\347\375\344L\331\003\300\351l\223\353\241"
 940      4BE7FDE4 
 940      4CD903C0 
 940      E96C93EB 
 940      A1
 941 182b 14759102 		.ascii	"\024u\221\002\273\235V\267\031\354q\262\267\0318\011"
 941      BB9D56B7 
 941      19EC71B2 
 941      B7193809 
 942 183b 6BEA1D01 		.ascii	"k\352\035\001\032\364\352AU8\365v\246\2345(\2657\\\212"
 942      1AF4EA41 
 942      5538F576 
 942      A69C3528 
 942      B5375C8A 
 943 184f BCFB9BF8 		.ascii	"\274\373\233\370A\370\325\346#\362+K\201\273\325\211"
 943      41F8D5E6 
 943      23F22B4B 
 943      81BBD589 
 944 185f 394939A1 		.ascii	"9I9\241\274\224\004jx\315\271\322\331\206\227\222\250"
 944      BC94046A 
 944      78CDB9D2 
 944      D9869792 
 944      A8
 945 1870 90EA038A 		.ascii	"\220\352\003\212\327\206+J\234\275\006\033m\276\322"
 945      D7862B4A 
 945      9CBD061B 
 945      6DBED2
 946 187f 55C21983 		.ascii	"U\302\031\203\215\263\007#\224P\275\342\310M\350\200"
 946      8DB30723 
 946      9450BDE2 
 946      C84DE880 
 947 188f 24B903A2 		.ascii	"$\271\003\242\337\360\032-\032V\321\201\0169\014\025"
 947      DFF01A2D 
 947      1A56D181 
 947      0E390C15 
 948 189f D84A1E62 		.ascii	"\330J\036b\277\263\374kg%\373U\254\315CN\366JVh\330"
 948      BFB3FC6B 
 948      6725FB55 
 948      ACCD434E 
 948      F64A5668 
 949 18b4 45B4B943 		.ascii	"E\264\271C\263\332\247W\212\020\254\216\354\013\202"
 949      B3DAA757 
 949      8A10AC8E 
ARM GAS  /tmp/cclyubud.s 			page 75


 949      EC0B82
 950 18c3 CDC1C35E 		.ascii	"\315\301\303^,\352\364R\311n\252\027\220\261\216:#g"
 950      2CEAF452 
 950      C96EAA17 
 950      90B18E3A 
 950      2367
 951 18d5 7F731FA2 		.ascii	"\177s\037\242\373 \262JW\276Zy\035\205\327#t<\205\340"
 951      FB20B24A 
 951      57BE5A79 
 951      1D85D723 
 951      743C85E0 
 952 18e9 D532592E 		.ascii	"\3252Y.)\231\027Z\270F\313\363g\361\352\300G\354\032"
 952      2999175A 
 952      B846CBF3 
 952      67F1EAC0 
 952      47EC1A
 953 18fc 25ED1BE6 		.ascii	"%\355\033\346oh/;f\350e\227\014\374\245^\327\313~0h"
 953      6F682F3B 
 953      66E86597 
 953      0CFCA55E 
 953      D7CB7E30 
 954 1911 6ADFEA96 		.ascii	"j\337\352\226B\2435\275R'tK\3351\250\253A\267\324\015"
 954      42A335BD 
 954      5227744B 
 954      DD31A8AB 
 954      41B7D40D 
 955 1925 03B91A75 		.ascii	"\003\271\032uK\225\0300l\322-5\305\240\324w\341RI\334"
 955      4B951830 
 955      6CD22D35 
 955      C5A0D477 
 955      E15249DC 
 956 1939 321895CF 		.ascii	"2\030\225\317\220&\012!c\225\251\227-\344\347\301\231"
 956      90260A21 
 956      6395A997 
 956      2DE4E7C1 
 956      99
 957 194a B3C797F2 		.ascii	"\263\307\227\362I\206Y\216\314\226\342\214A\276\211"
 957      4986598E 
 957      CC96E28C 
 957      41BE89
 958 1959 9AE35ED4 		.ascii	"\232\343^\324\034s\346E\313\261=j\216o\364s\304po\311"
 958      1C73E645 
 958      CBB13D6A 
 958      8E6FF473 
 958      C4706FC9 
 959 196d 2FEDA5B1 		.ascii	"/\355\245\261\374\033\006\3575\361\337\213\026\371\013"
 959      FC1B06EF 
 959      35F1DF8B 
 959      16F90B
 960 197c CE186803 		.ascii	"\316\030h\003\233\037\322\231\375\313\031\320\007\225"
 960      9B1FD299 
 960      FDCB19D0 
 960      0795
 961 198a 97CF9533 		.ascii	"\227\317\2253>\302b\313\014,\366\203\256\235W\032\224"
 961      3EC262CB 
 961      0C2CF683 
 961      AE9D571A 
ARM GAS  /tmp/cclyubud.s 			page 76


 961      94
 962 199b FA1FDD52 		.ascii	"\372\037\335R\213\014J\375\250[\352\023\003\257o\326"
 962      8B0C4AFD 
 962      A85BEA13 
 962      03AF6FD6 
 963 19ab 2D556E50 		.ascii	"-UnP\352\262n\251\031\006\014\257\204K\205\376\263\246"
 963      EAB26EA9 
 963      19060CAF 
 963      844B85FE 
 963      B3A6
 964 19bd D5BA7FB2 		.ascii	"\325\272\177\262a7^\302\273\352\244\3766\342\334{\307"
 964      61375EC2 
 964      BBEAA4FE 
 964      36E2DC7B 
 964      C7
 965 19ce 3ACBFF35 		.ascii	":\313\3775\013z\3041\306\356\344Cv\370-*\231\336Y*\335"
 965      0B7AC431 
 965      C6EEE443 
 965      76F82D2A 
 965      99DE592A 
 966 19e3 C92B7B54 		.ascii	"\311+{T\2028\362\241\262\254\321LhP\241X\237\332\272"
 966      8238F2A1 
 966      B2ACD14C 
 966      6850A158 
 966      9FDABA
 967 19f6 390EE2E9 		.ascii	"9\016\342\351;\344w\246\262\027\355\247\361\314\376"
 967      3BE477A6 
 967      B217EDA7 
 967      F1CCFE
 968 1a05 3591D087 		.ascii	"5\221\320\207\322\240\012*B\203\267#z\335=\255M\341"
 968      D2A00A2A 
 968      4283B723 
 968      7ADD3DAD 
 968      4DE1
 969 1a17 A18785B5 		.ascii	"\241\207\205\265)\272\313Ec\215\320\005q\177\252\013"
 969      29BACB45 
 969      638DD005 
 969      717FAA0B 
 970 1a27 3EC2EE82 		.ascii	">\302\356\202\257\322\003\232\026\343\001\215\322sW"
 970      AFD2039A 
 970      16E3018D 
 970      D27357
 971 1a36 C4775174 		.ascii	"\304wQtx\012#\267\350v\335\204\017k \324BwQ\367\230"
 971      780A23B7 
 971      E876DD84 
 971      0F6B20D4 
 971      427751F7 
 972 1a4b BDE08EFD 		.ascii	"\275\340\216\375\352^\320\302$t\202+\372\366\263\363"
 972      EA5ED0C2 
 972      2474822B 
 972      FAF6B3F3 
 973 1a5b 6CC51CA3 		.ascii	"l\305\034\243\0253\336en\244W\177zp\277\360\373*\275"
 973      1533DE65 
 973      6EA4577F 
 973      7A70BFF0 
 973      FB2ABD
 974 1a6e 52846089 		.ascii	"R\204`\211\213%o\353tm\257\177\007\317u\257\231$:\311"
ARM GAS  /tmp/cclyubud.s 			page 77


 974      8B256FEB 
 974      746DAF7F 
 974      07CF75AF 
 974      99243AC9 
 975 1a82 98282976 		.ascii	"\230()v\027\215\275\220i`V\345\242\212\2317 *\2441\340"
 975      178DBD90 
 975      696056E5 
 975      A28A9937 
 975      202AA431 
 976 1a97 6497D118 		.ascii	"d\227\321\030\343#\203\3702\315\025\376\377\222\272"
 976      E32383F8 
 976      32CD15FE 
 976      FF92BA
 977 1aa6 276717E4 		.ascii	"'g\027\344y\223=\005Yc\222\263\274\243\222=\3319\303"
 977      79933D05 
 977      596392B3 
 977      BCA3923D 
 977      D939C3
 978 1ab9 720AFCC9 		.ascii	"r\012\374\311\001_Q\376\310d8\361\005\222s\362=\271"
 978      015F51FE 
 978      C86438F1 
 978      059273F2 
 978      3DB9
 979 1acb 45599029 		.ascii	"EY\220){\230\337\233\367t6\327aXN\276\350\033\343\206"
 979      7B98DF9B 
 979      F77436D7 
 979      61584EBE 
 979      E81BE386 
 980 1adf 2BB130BB 		.ascii	"+\2610\273\300\347u\007\234}\007\015IJ\343\272Y\202"
 980      C0E77507 
 980      9C7D070D 
 980      494AE3BA 
 980      5982
 981 1af1 93D1E255 		.ascii	"\223\321\342U0\261\241\363\036\326\220\306\370\003c"
 981      30B1A1F3 
 981      1ED690C6 
 981      F80363
 982 1b00 0ABD7E80 		.ascii	"\012\275~\200k\037\310\366y\305,\277\373\215\"o\021"
 982      6B1FC8F6 
 982      79C52CBF 
 982      FB8D226F 
 982      11
 983 1b11 40267AB2 		.ascii	"@&z\262\335\232[\326D\366{\262\263\0005F\206\000\206"
 983      DD9A5BD6 
 983      44F67BB2 
 983      B3003546 
 983      860086
 984 1b24 213867A1 		.ascii	"!8g\241;\337[\034\200\257B\237wT?\023\250\205\005\276"
 984      3BDF5B1C 
 984      80AF429F 
 984      77543F13 
 984      A88505BE 
 985 1b38 803F3935 		.ascii	"\200?95}`\332\300b\310\231W\230\223\353\365\371\223"
 985      7D60DAC0 
 985      62C89957 
 985      9893EBF5 
 985      F993
ARM GAS  /tmp/cclyubud.s 			page 78


 986 1b4a FBA6A541 		.ascii	"\373\246\245Av\205\277+P\350\313)p\007\036K.\362\373"
 986      7685BF2B 
 986      50E8CB29 
 986      70071E4B 
 986      2EF2FB
 987 1b5d 92455FDE 		.ascii	"\222E_\336S\371\005\371\336\247\274\342\260\234\020"
 987      53F905F9 
 987      DEA7BCE2 
 987      B09C10
 988 1b6c 2D7F202B 		.ascii	"-\177 +'?\200h\025\301w\267\256\356@w\203\334y\"\220"
 988      273F8068 
 988      15C177B7 
 988      AEEE4077 
 988      83DC7922 
 989 1b81 C9F726BB 		.ascii	"\311\367&\273\263\274\303\305\242\334\200[\251*\316"
 989      B3BCC3C5 
 989      A2DC805B 
 989      A92ACE
 990 1b90 ED56CA63 		.ascii	"\355V\312c)r\012\\\236\202\374\000\010\365\274ei\262"
 990      29720A5C 
 990      9E82FC00 
 990      08F5BC65 
 990      69B2
 991 1ba2 3D603464 		.ascii	"=`4dMt\333\015\250\236@\361\037\332\206\342\036\365"
 991      4D74DB0D 
 991      A89E40F1 
 991      1FDA86E2 
 991      1EF5
 992 1bb4 1CF28B18 		.ascii	"\034\362\213\030\237w\004\010\344\016\330\374)\317B"
 992      9F770408 
 992      E40ED8FC 
 992      29CF42
 993 1bc3 7A0E520F 		.ascii	"z\016R\017H\317\333\374]\273@J\201\324\025R7H\335!="
 993      48CFDBFC 
 993      5DBB404A 
 993      81D41552 
 993      3748DD21 
 994 1bd8 0309F275 		.ascii	"\003\011\362u\205|]!_W\310\327\015\362uK\021|\335\005"
 994      857C5D21 
 994      5F57C8D7 
 994      0DF2754B 
 994      117CDD05 
 995 1bec DF3382EF 		.ascii	"\3373\202\357Y\301\367\234\340\353!\370\236\267\371"
 995      59C1F79C 
 995      E0EB21F8 
 995      9EB7F9
 996 1bfb 52BA404A 		.ascii	"R\272@J\021r}\360\325\315Q\350\006\266.d\317\321^\037"
 996      11727DF0 
 996      D5CD51E8 
 996      06B62E64 
 996      CFD15E1F 
 997 1c0f 7C17E466 		.ascii	"|\027\344fy}vO\266\350CF\026\363\2741\001\177@\014\200"
 997      797D764F 
 997      B6E84346 
 997      16F3BC31 
 997      017F400C 
 998 1c24 37B990C2 		.ascii	"7\271\220\302z\200\033\310\252\2033\310\216\237\271"
ARM GAS  /tmp/cclyubud.s 			page 79


 998      7A801BC8 
 998      AA8333C8 
 998      8E9FB9
 999 1c33 02790559 		.ascii	"\002y\005Y^|=<W\034\341w\005|\336\341~\254Yt\342\310"
 999      5E7C3D3C 
 999      571CE177 
 999      057CDEE1 
 999      7EAC5974 
 1000 1c49 F38F8087 		.ascii	"\363\217\200\207D\335P\\Q\274/k\014<\212\361\026\347"
 1000      44DD505C 
 1000      51BC2F6B 
 1000      0C3C8AF1 
 1000      16E7
 1001 1c5b 0440515E 		.ascii	"\004@Q^\347\350@\301\260\327\013\343\275\243\274\371"
 1001      E7E840C1 
 1001      B0D70BE3 
 1001      BDA3BCF9 
 1002 1c6b 813CD13F 		.ascii	"\201<\321?\022\262xG\243\023[\241\273\250\235\342\311"
 1002      12B27847 
 1002      A3135BA1 
 1002      BBA89DE2 
 1002      C9
 1003 1c7c B9397EB0 		.ascii	"\2719~\260c{\225o\243;\261\205\356\321bN '\177D\\\241"
 1003      637B956F 
 1003      A33BB185 
 1003      EED1624E 
 1003      20277F44 
 1004 1c92 1B50B1BF 		.ascii	"\033P\261\277;\360)\334\360\026z\363\301oF8\362\212"
 1004      3BF029DC 
 1004      F0167AF3 
 1004      C16F4638 
 1004      F28A
 1005 1ca4 C0C6D69A 		.ascii	"\300\306\326\232j^\240\030\371f\236\334\204\340\273"
 1005      6A5EA018 
 1005      F9669EDC 
 1005      84E0BB
 1006 1cb3 60743EA8 		.ascii	"`t>\250\012#\001\303<\334\024\240z\310\207\210\304!"
 1006      0A2301C3 
 1006      3CDC14A0 
 1006      7AC88788 
 1006      C421
 1007 1cc5 A1C55CEC 		.ascii	"\241\305\\\354Rp\263\260\240 \327E\232\237\303\223\017"
 1007      5270B3B0 
 1007      A020D745 
 1007      9A9FC393 
 1007      0F
 1008 1cd6 CC1D7E37 		.ascii	"\314\035~7|;\207\371Q\020\351\212\23577gX\362\010\217"
 1008      7C3B87F9 
 1008      5110E98A 
 1008      9D373767 
 1008      58F2088F 
 1009 1cea 8772E2EE 		.ascii	"\207r\342\356O\367x\272\273\332\361\301\211\201\211"
 1009      4FF778BA 
 1009      BBDAF1C1 
 1009      898189
 1010 1cf9 D39FF337 		.ascii	"\323\237\3637Pv\337hBd\213\271\304\30522\007v\353\232"
 1010      5076DF68 
ARM GAS  /tmp/cclyubud.s 			page 80


 1010      42648BB9 
 1010      C4C53232 
 1010      0776EB9A 
 1011 1d0d 3C6040AF 		.ascii	"<`@\257\344!\031\251\351\231\243R\222\213D\360\324\334"
 1011      E42119A9 
 1011      E999A352 
 1011      928B44F0 
 1011      D4DC
 1012 1d1f 5CD4BCE3 		.ascii	"\\\324\274\343\206\300\255\264\202\374\3419#\360i/_"
 1012      86C0ADB4 
 1012      82FCE139 
 1012      23F0692F 
 1012      5F
 1013 1d30 CE28AF2F 		.ascii	"\316(\257/\252\212\020\272B\015\241!\377G\337\304Y\342"
 1013      AA8A10BA 
 1013      420DA121 
 1013      FF47DFC4 
 1013      59E2
 1014 1d42 11947BC8 		.ascii	"\021\224{\310\240\376\203\372g\306\342\363\214\314\227"
 1014      A0FE83FA 
 1014      67C6E2F3 
 1014      8CCC97
 1015 1d51 07E30ADC 		.ascii	"\007\343\012\334\351\275S{\375\207\003g\274\017\025"
 1015      E9BD537B 
 1015      FD870367 
 1015      BC0F15
 1016 1d60 09149342 		.ascii	"\011\024\223B\011\370q\346\253\356\376\275\006\364n"
 1016      09F871E6 
 1016      ABEEFEBD 
 1016      06F46E
 1017 1d6f A75CA4A6 		.ascii	"\247\\\244\246e\366\177\245w\242r\231\366\362\300\301"
 1017      65F67FA5 
 1017      77A27299 
 1017      F6F2C0C1 
 1018 1d7f 037A67F6 		.ascii	"\003zg\366v\221b\030\302\247\205HWC\244k!\322U\020\244"
 1018      76916218 
 1018      C2A78548 
 1018      5743A46B 
 1018      21D25510 
 1019 1d94 98D383C5 		.ascii	"\230\323\203\305\377]4\231\301\316\311i\0033\372g\200"
 1019      FF5D3499 
 1019      C1CEC969 
 1019      0333FA67 
 1019      80
 1020 1da5 46C11E79 		.ascii	"F\301\036y\335\272\016\357\336%\245\030\265\375\373"
 1020      DDBA0EEF 
 1020      DE25A518 
 1020      B5FDFB
 1021 1db4 B066DD99 		.ascii	"\260f\335\231\020^zy\207\013\031\351B\257t\333K\351"
 1021      105E7A79 
 1021      870B19E9 
 1021      42AF74DB 
 1021      4BE9
 1022 1dc6 E9B6B4F4 		.ascii	"\351\266\264\364\024H]!u\263\367\315\034\234\356(\362"
 1022      14485D21 
 1022      75B3F7CD 
 1022      1C9CEE28 
ARM GAS  /tmp/cclyubud.s 			page 81


 1022      F2
 1023 1dd7 035F5756 		.ascii	"\003_WV\236\210\332L\037\253F\304\307>\335\213\213\345"
 1023      9E88DA4C 
 1023      1FAB46C4 
 1023      C73EDD8B 
 1023      8BE5
 1024 1de9 FADD8083 		.ascii	"\372\335\200\203z\245^\003S\335\031\320\352\304\274"
 1024      7AA55E03 
 1024      53DD19D0 
 1024      EAC4BC
 1025 1df8 1085B474 		.ascii	"\020\205\264t\373\240^\231\351\266\301\251\351\366\201"
 1025      FBA05E99 
 1025      E9B6C1A9 
 1025      E9F681
 1026 1e07 5DD02125 		.ascii	"]\320!%5\335\326'-\335\351\307\031\3559\303=>g\216?"
 1026      35DDD627 
 1026      2DDDE9C7 
 1026      19ED39C3 
 1026      3D3E678E 
 1027 1e1c 3B6738EA 		.ascii	";g8\352{r\207\347\344gy\213\235\243\274\236@\201\257"
 1027      7B7287E7 
 1027      E467798B 
 1027      9DA3BC9E 
 1027      4081AF
 1028 1e2f 4308DD2D 		.ascii	"C\010\335-\347\006\267\205\013_1:\006\212q\354My\326"
 1028      E706B785 
 1028      0B5F313A 
 1028      068A71EC 
 1028      4D79D6
 1029 1e42 1D206114 		.ascii	"\035 a\024\235:|\305\303\212\206\307 kx\206A3\017\024"
 1029      9D3A7CC5 
 1029      C38A86C7 
 1029      206B7886 
 1029      41330F14 
 1030 1e56 43934B71 		.ascii	"C\223Kq{\206\311g]\341,\306\207\316\320-\234\013g\363"
 1030      7B86C967 
 1030      5DE12CC6 
 1030      87CED02D 
 1030      9C0B67F3 
 1031 1e6a 15A35803 		.ascii	"\025\243X\003\367\260\367\340\360\001w\321\271\027="
 1031      F7B0F7E0 
 1031      F00177D1 
 1031      B9173D
 1032 1e79 47457CE8 		.ascii	"GE|\350\261\303_\350\365f\331<\276\024H]!us\216(D\221"
 1032      B1C35FE8 
 1032      F566D93C 
 1032      BE14485D 
 1032      2175738E 
 1033 1e90 FC3EF81A 		.ascii	"\374>\370\032P\340\021\0039\005\371\356@;\325\025(\304"
 1033      50E01103 
 1033      3905F9EE 
 1033      403BD515 
 1033      28C4
 1034 1ea2 1EC88108 		.ascii	"\036\310\201\010\226\013\227\001p\324\330\334\202\374"
 1034      960B9701 
 1034      70D4D8DC 
 1034      82FC
ARM GAS  /tmp/cclyubud.s 			page 82


 1035 1eb0 11F82C46 		.ascii	"\021\370,F\314\225o\305\370\305@ZA\021\264G\204\346"
 1035      CC956FC5 
 1035      F8C5405A 
 1035      4111B447 
 1035      84E6
 1036 1ec2 E162B3C4 		.ascii	"\341b\263\304\2008\0205\355x\270\221\356\365xQkp\301"
 1036      80381035 
 1036      ED78B891 
 1036      EEF57851 
 1036      6B70C1
 1037 1ed5 F910A0E4 		.ascii	"\371\020\240\344\004\011\207{}\361\362\027.\227 z\002"
 1037      0409877B 
 1037      7DF1F217 
 1037      2E97207A 
 1037      02
 1038 1ee6 90E5257C 		.ascii	"\220\345%|'&\227T\215\012g\"}\364\316\317r a\012\235"
 1038      27269754 
 1038      8D0A6722 
 1038      7DF4CECF 
 1038      7220610A 
 1039 1efb F84E5A0C 		.ascii	"\370NZ\014B-\206\273\344\304\347\343\275\011\236\354"
 1039      422D86BB 
 1039      E4C4E7E3 
 1039      BD099EEC 
 1040 1f0b 9732BC79 		.ascii	"\2272\274y\0319#\362\305\\\3330\177a\"~\226\006zy\272"
 1040      193923F2 
 1040      C55CDB30 
 1040      7F61227E 
 1040      96067A79 
 1041 1f20 1035AD2E 		.ascii	"\0205\255.\261\241\033\274\247\235\037\242\2437\337"
 1041      B1A11BBC 
 1041      A79D1FA2 
 1041      A337DF
 1042 1f2f E3458686 		.ascii	"\343E\206\206\260\332wp\206;u\300\300\230>\375_u\367"
 1042      B0DA7770 
 1042      863B75C0 
 1042      C0983EFD 
 1042      5F75F7
 1043 1f42 4ACD4C75 		.ascii	"J\315Lu\365\355\375\262{\360\313\031.pzwFjf\014$\367"
 1043      F5EDFDB2 
 1043      7BF0CB19 
 1043      2E707A77 
 1043      466A660C 
 1044 1f58 2BFD7BFF 		.ascii	"+\375{\377\311\325\017\332]\377A}c!Wowf\377\201\275"
 1044      C9D50FDA 
 1044      5DFF417D 
 1044      6321576F 
 1044      7766FF81 
 1045 1f6d 1D2F67F6 		.ascii	"\035/g\366\353\235\356\0302\250W\357>\017A\025\203E"
 1045      EB9DEE18 
 1045      32A857EF 
 1045      3E0F4115 
 1045      8345
 1046 1f7f 9FDF3B68 		.ascii	"\237\337;h`\357T\004-W\235\342\312\317\363\212\240I"
 1046      60EF5404 
 1046      2D579DE2 
 1046      CACFF38A 
ARM GAS  /tmp/cclyubud.s 			page 83


 1046      A049
 1047 1f91 A71CF263 		.ascii	"\247\034\362cp\364F'\220?#\000Y\356S"
 1047      70F44627 
 1047      903F2300 
 1047      59EE53
 1048 1fa0 E909E8E0 		.ascii	"\351\011\350\340\333\005\2056\370N\244!\343\225\033"
 1048      DB058536 
 1048      F84EA421 
 1048      E3951B
 1049 1faf 7D728AE3 		.ascii	"}r\212\343\020n\337\276\251\000m\003\255\265\207G(["
 1049      106EDFBE 
 1049      A9006D03 
 1049      ADB58747 
 1049      285B
 1050 1fc1 5AB6D733 		.ascii	"Z\266\3273\322_\224\207$\316\304\341\335&\372F \253"
 1050      D25F9487 
 1050      24CEC4E1 
 1050      DD26FA46 
 1050      20AB
 1051 1fd3 F6F50606 		.ascii	"\366\365\006\006\020;\332\263\274\376@{rO1)\311\223"
 1051      103BDAB3 
 1051      BCFE407B 
 1051      724F3129 
 1051      C993
 1052 1fe5 4A0C1B27 		.ascii	"J\014\033'_f\202\375\023\345\323\014h\351\271\2719\001"
 1052      5F6682FD 
 1052      13E5D30C 
 1052      68E9B9B9 
 1052      3901
 1053 1ff7 AF5F8123 		.ascii	"\257_\201#\306\202aR\206"
 1053      C6826152 
 1053      86
 1054 2000 273BDD0B 		.ascii	"';\335\013\343\035oVQ\2567\003\014\022\262G\177\343"
 1054      E31D6F56 
 1054      51AE3703 
 1054      0C12B247 
 1054      7FE3
 1055 2012 C1880F3A 		.ascii	"\301\210\017:\025\324;\300\263\374\242\\\210\364\001"
 1055      15D43BC0 
 1055      B3FCA25C 
 1055      88F401
 1056 2021 5FBE27AF 		.ascii	"_\276'\257\020\256\241s*\030m\317\365\212\303\355\205"
 1056      10AEA173 
 1056      2A186DCF 
 1056      F58AC3ED 
 1056      85
 1057 2032 453E2F76 		.ascii	"E>/vi\2540\350\271\006\006\212_\036\366:\264\264\376"
 1057      69AC30E8 
 1057      B906068A 
 1057      5F1EF63A 
 1057      B4B4FE
 1058 2045 F9398118 		.ascii	"\3719\201\030\371IA\241\253\010J#\260\"PJZ\341\230\366"
 1058      F94941A1 
 1058      AB084A23 
 1058      B022504A 
 1058      5AE198F6 
 1059 2059 E87BB00F 		.ascii	"\350{\260\017\367]\310\366\317Y\352\266H\347\010x\261"
ARM GAS  /tmp/cclyubud.s 			page 84


 1059      F75DC8F6 
 1059      CF59EAB6 
 1059      48E70878 
 1059      B1
 1060 206a 6888087A 		.ascii	"h\210\010z\200\346\352\311\316\314\316\312\310\365z"
 1060      80E6EAC9 
 1060      CECCCECA 
 1060      C8F57A
 1061 2079 0BE3318B 		.ascii	"\013\3431\213!\371\240\373\221\261\370\034\3241\262"
 1061      21F9A0FB 
 1061      91B1F81C 
 1061      D431B2
 1062 2088 BDC28558 		.ascii	"\275\302\205X4\016k\002T\343E\243?8\375\023\364\261"
 1062      340E6B02 
 1062      54E345A3 
 1062      3F38FD13 
 1062      F4B1
 1063 209a EDF15958 		.ascii	"\355\361YX\000\327\360\374$h\235\036>\005\205\026O\341"
 1063      00D7F0FC 
 1063      24689D1E 
 1063      3E058516 
 1063      4FE1
 1064 20ac 18E4EB90 		.ascii	"\030\344\353\220\003\242\212\257o\241?m\370\010\033"
 1064      03A28AAF 
 1064      6FA13F6D 
 1064      F8081B
 1065 20bb 38A93350 		.ascii	"8\2513P0\022Z\311}jg\357\217,\221\232\225\225Y \267"
 1065      30125AC9 
 1065      7D6A67EF 
 1065      8F2C919A 
 1065      95955920 
 1066 20d0 9F07890D 		.ascii	"\237\007\211\015q\223J/\226o\"Cg\026\214\030\221K\032"
 1066      71934A2F 
 1066      966F2243 
 1066      67168C18 
 1066      914B1A
 1067 20e3 99C3FD12 		.ascii	"\231\303\375\022\364\251\261~$\0052\257\013\304\317"
 1067      F4A9B17E 
 1067      240532AF 
 1067      0BC4CF
 1068 20f2 073324CA 		.ascii	"\0073$\312\310a^\216\2008\322\233\037'\337F\304\343"
 1068      C8615E8E 
 1068      8038D29B 
 1068      1F27DF46 
 1068      C4E3
 1069 2104 E5532CCE 		.ascii	"\345S,\316\377\002\230\217\027I"
 1069      FF02988F 
 1069      1749
 1070              		.text
 1071              		.section	.gnu.lto_.symtab.7b15e597d780654d,"",%progbits
 1072 0000 67707353 		.ascii	"gpsSem\000\000\000\000\000\000\000\000\000\000\000\000"
 1072      656D0000 
 1072      00000000 
 1072      00000000 
 1072      0000
 1073 0012 35030000 		.ascii	"5\003\000\000gpsStart\000\000\000\000\000\000\000\000"
 1073      67707353 
ARM GAS  /tmp/cclyubud.s 			page 85


 1073      74617274 
 1073      00000000 
 1073      00000000 
 1074 0026 00000000 		.ascii	"\000\000\000\000\224\002\000\000gpsStop\000\000\000"
 1074      94020000 
 1074      67707353 
 1074      746F7000 
 1074      0000
 1075 0038 00000000 		.ascii	"\000\000\000\000\000\000\000\000\000\240\002\000\000"
 1075      00000000 
 1075      00A00200 
 1075      00
 1076 0045 67707350 		.ascii	"gpsParseNMEAType\000\000\000\000\000\000\000\000\000"
 1076      61727365 
 1076      4E4D4541 
 1076      54797065 
 1076      00000000 
 1077 005e 000000AB 		.ascii	"\000\000\000\253\002\000\000gpsParseFix\000\000\000"
 1077      02000067 
 1077      70735061 
 1077      72736546 
 1077      69780000 
 1078 0073 00000000 		.ascii	"\000\000\000\000\000\000\000\000\000\261\002\000\000"
 1078      00000000 
 1078      00B10200 
 1078      00
 1079 0080 6770734E 		.ascii	"gpsNMEAChecksum\000\000\000\000\000\000\000\000\000"
 1079      4D454143 
 1079      6865636B 
 1079      73756D00 
 1079      00000000 
 1080 0098 000000BB 		.ascii	"\000\000\000\273\002\000\000gpsThread\000\000\000\000"
 1080      02000067 
 1080      70735468 
 1080      72656164 
 1080      00000000 
 1081 00ac 00000000 		.ascii	"\000\000\000\000\000\000\000\000\301\002\000\000gps"
 1081      00000000 
 1081      C1020000 
 1081      677073
 1082 00bb 4765744C 		.ascii	"GetLatitude\000\000\000\000\000\000\000\000\000\000"
 1082      61746974 
 1082      75646500 
 1082      00000000 
 1082      00000000 
 1083 00d0 0000C802 		.ascii	"\000\000\310\002\000\000gpsGetLongitude\000\000\000"
 1083      00006770 
 1083      73476574 
 1083      4C6F6E67 
 1083      69747564 
 1084 00e8 00000000 		.ascii	"\000\000\000\000\000\000\000\000\000\317\002\000\000"
 1084      00000000 
 1084      00CF0200 
 1084      00
 1085 00f5 67707347 		.ascii	"gpsGetAltitude\000\000\000\000\000\000\000\000\000\000"
 1085      6574416C 
 1085      74697475 
ARM GAS  /tmp/cclyubud.s 			page 86


 1085      64650000 
 1085      00000000 
 1086 010d 0000D302 		.ascii	"\000\000\323\002\000\000gpsGetTime\000\000\000\000\000"
 1086      00006770 
 1086      73476574 
 1086      54696D65 
 1086      00000000 
 1087 0122 00000000 		.ascii	"\000\000\000\000\000\000\000\327\002\000\000gpsGetS"
 1087      000000D7 
 1087      02000067 
 1087      70734765 
 1087      7453
 1088 0134 6174656C 		.ascii	"atellites\000\000\000\000\000\000\000\000\000\000\000"
 1088      6C697465 
 1088      73000000 
 1088      00000000 
 1088      00000000 
 1089 0148 00DB0200 		.ascii	"\000\333\002\000\000gpsGetLocation\000\000\000\000\000"
 1089      00677073 
 1089      4765744C 
 1089      6F636174 
 1089      696F6E00 
 1090 0160 00000000 		.ascii	"\000\000\000\000\000\000\000\337\002\000\000chSchRe"
 1090      000000DF 
 1090      02000063 
 1090      68536368 
 1090      5265
 1091 0172 73636865 		.ascii	"scheduleS\000\000\002\000\000\000\000\000\000\000\000"
 1091      64756C65 
 1091      53000002 
 1091      00000000 
 1091      00000000 
 1092 0186 00E50200 		.ascii	"\000\345\002\000\000chSemSignalI\000\000\002\000\000"
 1092      00636853 
 1092      656D5369 
 1092      676E616C 
 1092      49000002 
 1093 019c 00000000 		.ascii	"\000\000\000\000\000\000\000\350\002\000\000uartSta"
 1093      000000E8 
 1093      02000075 
 1093      61727453 
 1093      7461
 1094 01ae 72740000 		.ascii	"rt\000\000\002\000\000\000\000\000\000\000\000\000\372"
 1094      02000000 
 1094      00000000 
 1094      0000FA
 1095 01bd 02000063 		.ascii	"\002\000\000chMtxObjectInit\000\000\002\000\000\000"
 1095      684D7478 
 1095      4F626A65 
 1095      6374496E 
 1095      69740000 
 1096 01d5 00000000 		.ascii	"\000\000\000\000\000\000\377\002\000\000uartStop\000"
 1096      0000FF02 
 1096      00007561 
 1096      72745374 
 1096      6F7000
 1097 01e8 00020000 		.ascii	"\000\002\000\000\000\000\000\000\000\000\000\003\003"
ARM GAS  /tmp/cclyubud.s 			page 87


 1097      00000000 
 1097      00000003 
 1097      03
 1098 01f5 00007553 		.ascii	"\000\000uStrCpy\000\000\002\000\000\000\000\000\000"
 1098      74724370 
 1098      79000002 
 1098      00000000 
 1098      0000
 1099 0207 00000005 		.ascii	"\000\000\000\005\003\000\000uStrPrependChar\000\000"
 1099      03000075 
 1099      53747250 
 1099      72657065 
 1099      6E644368 
 1100 021f 02000000 		.ascii	"\002\000\000\000\000\000\000\000\000\000\012\003\000"
 1100      00000000 
 1100      00000A03 
 1100      00
 1101 022c 00636854 		.ascii	"\000chThdSleep\000\000\002\000\000\000\000\000\000\000"
 1101      6864536C 
 1101      65657000 
 1101      00020000 
 1101      00000000 
 1102 0241 00000F03 		.ascii	"\000\000\017\003\000\000chMtxUnlock\000\000\002\000"
 1102      00006368 
 1102      4D747855 
 1102      6E6C6F63 
 1102      6B000002 
 1103 0256 00000000 		.ascii	"\000\000\000\000\000\000\000\000\026\003\000\000chM"
 1103      00000000 
 1103      16030000 
 1103      63684D
 1104 0265 74784C6F 		.ascii	"txLock\000\000\002\000\000\000\000\000\000\000\000\000"
 1104      636B0000 
 1104      02000000 
 1104      00000000 
 1104      0000
 1105 0277 18030000 		.ascii	"\030\003\000\000uartStopReceive\000\000\002\000\000"
 1105      75617274 
 1105      53746F70 
 1105      52656365 
 1105      69766500 
 1106 028f 00000000 		.ascii	"\000\000\000\000\000\000\000\032\003\000\000chSemRe"
 1106      0000001A 
 1106      03000063 
 1106      6853656D 
 1106      5265
 1107 02a1 73657400 		.ascii	"set\000\000\002\000\000\000\000\000\000\000\000\000"
 1107      00020000 
 1107      00000000 
 1107      000000
 1108 02b0 1E030000 		.ascii	"\036\003\000\000chSemWait\000\000\002\000\000\000\000"
 1108      63685365 
 1108      6D576169 
 1108      74000002 
 1108      00000000 
 1109 02c4 00000000 		.ascii	"\000\000\000\000\000#\003\000\000chSemObjectInit\000"
 1109      00230300 
ARM GAS  /tmp/cclyubud.s 			page 88


 1109      00636853 
 1109      656D4F62 
 1109      6A656374 
 1110 02dd 00020000 		.ascii	"\000\002\000\000\000\000\000\000\000\000\000'\003\000"
 1110      00000000 
 1110      00000027 
 1110      0300
 1111 02eb 00       		.ascii	"\000"
 1112              		.text
 1113              		.section	.gnu.lto_.opts,"",%progbits
 1114 0000 272D6D63 		.ascii	"'-mcpu=cortex-m4' '-mfloat-abi=hard' '-mfpu=fpv4-sp"
 1114      70753D63 
 1114      6F727465 
 1114      782D6D34 
 1114      2720272D 
 1115 0033 2D643136 		.ascii	"-d16' '-mno-thumb-interwork' '-mthumb' '-O2' '-fomi"
 1115      2720272D 
 1115      6D6E6F2D 
 1115      7468756D 
 1115      622D696E 
 1116 0066 742D6672 		.ascii	"t-frame-pointer' '-falign-functions=16' '-ffunction"
 1116      616D652D 
 1116      706F696E 
 1116      74657227 
 1116      20272D66 
 1117 0099 2D736563 		.ascii	"-sections' '-fdata-sections' '-fno-common' '-flto' "
 1117      74696F6E 
 1117      73272027 
 1117      2D666461 
 1117      74612D73 
 1118 00cc 272D6673 		.ascii	"'-fsingle-precision-constant'\000"
 1118      696E676C 
 1118      652D7072 
 1118      65636973 
 1118      696F6E2D 
 1119              		.text
 1120              		.section	.text.gpsTxbufEnd,"ax",%progbits
 1121              		.align	2
 1122              		.p2align 4,,15
 1123              		.thumb
 1124              		.thumb_func
 1125              		.type	gpsTxbufEnd, %function
 1126              	gpsTxbufEnd:
 1127              		@ args = 0, pretend = 0, frame = 0
 1128              		@ frame_needed = 0, uses_anonymous_args = 0
 1129              		@ link register save eliminated.
 1130 0000 7047     		bx	lr
 1131              		.size	gpsTxbufEnd, .-gpsTxbufEnd
 1132 0002 00BFAFF3 		.section	.text.gpsTxC,"ax",%progbits
 1132      0080AFF3 
 1132      0080AFF3 
 1132      0080
 1133              		.align	2
 1134              		.p2align 4,,15
 1135              		.thumb
 1136              		.thumb_func
 1137              		.type	gpsTxC, %function
ARM GAS  /tmp/cclyubud.s 			page 89


 1138              	gpsTxC:
 1139              		@ args = 0, pretend = 0, frame = 0
 1140              		@ frame_needed = 0, uses_anonymous_args = 0
 1141              		@ link register save eliminated.
 1142 0000 7047     		bx	lr
 1143              		.size	gpsTxC, .-gpsTxC
 1144 0002 00BFAFF3 		.section	.text.gpsRxEnd,"ax",%progbits
 1144      0080AFF3 
 1144      0080AFF3 
 1144      0080
 1145              		.align	2
 1146              		.p2align 4,,15
 1147              		.thumb
 1148              		.thumb_func
 1149              		.type	gpsRxEnd, %function
 1150              	gpsRxEnd:
 1151              		@ args = 0, pretend = 0, frame = 0
 1152              		@ frame_needed = 0, uses_anonymous_args = 0
 1153              		@ link register save eliminated.
 1154 0000 7047     		bx	lr
 1155              		.size	gpsRxEnd, .-gpsRxEnd
 1156 0002 00BFAFF3 		.section	.text.gpsRxErr,"ax",%progbits
 1156      0080AFF3 
 1156      0080AFF3 
 1156      0080
 1157              		.align	2
 1158              		.p2align 4,,15
 1159              		.thumb
 1160              		.thumb_func
 1161              		.type	gpsRxErr, %function
 1162              	gpsRxErr:
 1163              		@ args = 0, pretend = 0, frame = 0
 1164              		@ frame_needed = 0, uses_anonymous_args = 0
 1165              		@ link register save eliminated.
 1166 0000 7047     		bx	lr
 1167              		.size	gpsRxErr, .-gpsRxErr
 1168 0002 00BFAFF3 		.section	.text.gpsRxChar,"ax",%progbits
 1168      0080AFF3 
 1168      0080AFF3 
 1168      0080
 1169              		.align	2
 1170              		.p2align 4,,15
 1171              		.thumb
 1172              		.thumb_func
 1173              		.type	gpsRxChar, %function
 1174              	gpsRxChar:
 1175              		@ args = 0, pretend = 0, frame = 0
 1176              		@ frame_needed = 0, uses_anonymous_args = 0
 1177 0000 10B5     		push	{r4, lr}
 1178 0002 1C4B     		ldr	r3, .L13
 1179 0004 0A29     		cmp	r1, #10
 1180 0006 93F8CC20 		ldrb	r2, [r3, #204]	@ zero_extendqisi2
 1181 000a 0CD0     		beq	.L11
 1182 000c 632A     		cmp	r2, #99
 1183 000e 09D8     		bhi	.L5
 1184 0010 93F8CD00 		ldrb	r0, [r3, #205]	@ zero_extendqisi2
 1185 0014 6424     		movs	r4, #100
ARM GAS  /tmp/cclyubud.s 			page 90


 1186 0016 04FB0030 		mla	r0, r4, r0, r3
 1187 001a 0430     		adds	r0, r0, #4
 1188 001c 541C     		adds	r4, r2, #1
 1189 001e 83F8CC40 		strb	r4, [r3, #204]
 1190 0022 8154     		strb	r1, [r0, r2]
 1191              	.L5:
 1192 0024 10BD     		pop	{r4, pc}
 1193              	.L11:
 1194 0026 632A     		cmp	r2, #99
 1195 0028 07D8     		bhi	.L7
 1196 002a 93F8CD10 		ldrb	r1, [r3, #205]	@ zero_extendqisi2
 1197 002e 6420     		movs	r0, #100
 1198 0030 00FB0131 		mla	r1, r0, r1, r3
 1199 0034 0431     		adds	r1, r1, #4
 1200 0036 0020     		movs	r0, #0
 1201 0038 8854     		strb	r0, [r1, r2]
 1202              	.L7:
 1203 003a 93F8CD10 		ldrb	r1, [r3, #205]	@ zero_extendqisi2
 1204 003e 0022     		movs	r2, #0
 1205 0040 81F00101 		eor	r1, r1, #1
 1206 0044 83F8CD10 		strb	r1, [r3, #205]
 1207 0048 83F8CC20 		strb	r2, [r3, #204]
 1208 004c 2023     		movs	r3, #32
 1209              	@ 546 "/home/cody/dev/chibios/trunk/os/ext/CMSIS/include/core_cmFunc.h" 1
 1210 004e 83F31188 		MSR basepri, r3
 1211              	@ 0 "" 2
 1212              	@ 546 "/home/cody/dev/chibios/trunk/os/ext/CMSIS/include/core_cmFunc.h" 1
 1213 0052 83F31188 		MSR basepri, r3
 1214              	@ 0 "" 2
 1215              		.thumb
 1216 0056 0848     		ldr	r0, .L13+4
 1217 0058 8368     		ldr	r3, [r0, #8]
 1218 005a 9342     		cmp	r3, r2
 1219 005c 07DD     		ble	.L12
 1220              	.L8:
 1221 005e FFF7FEFF 		bl	chSchRescheduleS
 1222 0062 0023     		movs	r3, #0
 1223              	@ 546 "/home/cody/dev/chibios/trunk/os/ext/CMSIS/include/core_cmFunc.h" 1
 1224 0064 83F31188 		MSR basepri, r3
 1225              	@ 0 "" 2
 1226              	@ 546 "/home/cody/dev/chibios/trunk/os/ext/CMSIS/include/core_cmFunc.h" 1
 1227 0068 83F31188 		MSR basepri, r3
 1228              	@ 0 "" 2
 1229              		.thumb
 1230 006c 10BD     		pop	{r4, pc}
 1231              	.L12:
 1232 006e FFF7FEFF 		bl	chSemSignalI
 1233 0072 F4E7     		b	.L8
 1234              	.L14:
 1235              		.align	2
 1236              	.L13:
 1237 0074 00000000 		.word	.LANCHOR0
 1238 0078 00000000 		.word	.LANCHOR1
 1239              		.size	gpsRxChar, .-gpsRxChar
 1240 007c AFF30080 		.section	.text.gpsStart,"ax",%progbits
 1241              		.align	2
 1242              		.p2align 4,,15
ARM GAS  /tmp/cclyubud.s 			page 91


 1243              		.global	gpsStart
 1244              		.thumb
 1245              		.thumb_func
 1246              		.type	gpsStart, %function
 1247              	gpsStart:
 1248              		@ args = 0, pretend = 0, frame = 0
 1249              		@ frame_needed = 0, uses_anonymous_args = 0
 1250 0000 38B5     		push	{r3, r4, r5, lr}
 1251 0002 0346     		mov	r3, r0
 1252 0004 78B1     		cbz	r0, .L17
 1253 0006 094C     		ldr	r4, .L18
 1254 0008 0025     		movs	r5, #0
 1255 000a 04F58C70 		add	r0, r4, #280
 1256 000e 2360     		str	r3, [r4]
 1257 0010 84F8CD50 		strb	r5, [r4, #205]
 1258 0014 FFF7FEFF 		bl	chMtxObjectInit
 1259 0018 2068     		ldr	r0, [r4]
 1260 001a 0549     		ldr	r1, .L18+4
 1261 001c FFF7FEFF 		bl	uartStart
 1262 0020 2846     		mov	r0, r5
 1263              	.L16:
 1264 0022 40B2     		sxtb	r0, r0
 1265 0024 38BD     		pop	{r3, r4, r5, pc}
 1266              	.L17:
 1267 0026 FF20     		movs	r0, #255
 1268 0028 FBE7     		b	.L16
 1269              	.L19:
 1270 002a 00BF     		.align	2
 1271              	.L18:
 1272 002c 00000000 		.word	.LANCHOR0
 1273 0030 00000000 		.word	.LANCHOR2
 1274              		.size	gpsStart, .-gpsStart
 1275 0034 AFF30080 		.section	.text.gpsStop,"ax",%progbits
 1275      AFF30080 
 1275      AFF30080 
 1276              		.align	2
 1277              		.p2align 4,,15
 1278              		.global	gpsStop
 1279              		.thumb
 1280              		.thumb_func
 1281              		.type	gpsStop, %function
 1282              	gpsStop:
 1283              		@ args = 0, pretend = 0, frame = 0
 1284              		@ frame_needed = 0, uses_anonymous_args = 0
 1285 0000 08B5     		push	{r3, lr}
 1286 0002 0068     		ldr	r0, [r0]
 1287 0004 FFF7FEFF 		bl	uartStop
 1288 0008 0020     		movs	r0, #0
 1289 000a 08BD     		pop	{r3, pc}
 1290              		.size	gpsStop, .-gpsStop
 1291 000c AFF30080 		.section	.text.gpsParseNMEAType,"ax",%progbits
 1292              		.align	2
 1293              		.p2align 4,,15
 1294              		.global	gpsParseNMEAType
 1295              		.thumb
 1296              		.thumb_func
 1297              		.type	gpsParseNMEAType, %function
ARM GAS  /tmp/cclyubud.s 			page 92


 1298              	gpsParseNMEAType:
 1299              		@ args = 0, pretend = 0, frame = 0
 1300              		@ frame_needed = 0, uses_anonymous_args = 0
 1301 0000 10B5     		push	{r4, lr}
 1302 0002 0378     		ldrb	r3, [r0]	@ zero_extendqisi2
 1303 0004 242B     		cmp	r3, #36
 1304 0006 0446     		mov	r4, r0
 1305 0008 01D0     		beq	.L33
 1306 000a 0820     		movs	r0, #8
 1307 000c 10BD     		pop	{r4, pc}
 1308              	.L33:
 1309 000e 0130     		adds	r0, r0, #1
 1310 0010 2049     		ldr	r1, .L39
 1311 0012 0222     		movs	r2, #2
 1312 0014 FFF7FEFF 		bl	strncmp
 1313 0018 08B1     		cbz	r0, .L34
 1314 001a 0720     		movs	r0, #7
 1315              	.L22:
 1316 001c 10BD     		pop	{r4, pc}
 1317              	.L34:
 1318 001e 0334     		adds	r4, r4, #3
 1319 0020 2046     		mov	r0, r4
 1320 0022 1D49     		ldr	r1, .L39+4
 1321 0024 0322     		movs	r2, #3
 1322 0026 FFF7FEFF 		bl	strncmp
 1323 002a 0028     		cmp	r0, #0
 1324 002c F6D0     		beq	.L22
 1325 002e 2046     		mov	r0, r4
 1326 0030 1A49     		ldr	r1, .L39+8
 1327 0032 0322     		movs	r2, #3
 1328 0034 FFF7FEFF 		bl	strncmp
 1329 0038 38B1     		cbz	r0, .L27
 1330 003a 2046     		mov	r0, r4
 1331 003c 1849     		ldr	r1, .L39+12
 1332 003e 0322     		movs	r2, #3
 1333 0040 FFF7FEFF 		bl	strncmp
 1334 0044 18B9     		cbnz	r0, .L35
 1335 0046 0220     		movs	r0, #2
 1336 0048 10BD     		pop	{r4, pc}
 1337              	.L27:
 1338 004a 0120     		movs	r0, #1
 1339 004c 10BD     		pop	{r4, pc}
 1340              	.L35:
 1341 004e 2046     		mov	r0, r4
 1342 0050 1449     		ldr	r1, .L39+16
 1343 0052 0322     		movs	r2, #3
 1344 0054 FFF7FEFF 		bl	strncmp
 1345 0058 08B9     		cbnz	r0, .L36
 1346 005a 0320     		movs	r0, #3
 1347 005c 10BD     		pop	{r4, pc}
 1348              	.L36:
 1349 005e 2046     		mov	r0, r4
 1350 0060 1149     		ldr	r1, .L39+20
 1351 0062 0322     		movs	r2, #3
 1352 0064 FFF7FEFF 		bl	strncmp
 1353 0068 08B9     		cbnz	r0, .L37
 1354 006a 0420     		movs	r0, #4
ARM GAS  /tmp/cclyubud.s 			page 93


 1355 006c 10BD     		pop	{r4, pc}
 1356              	.L37:
 1357 006e 2046     		mov	r0, r4
 1358 0070 0E49     		ldr	r1, .L39+24
 1359 0072 0322     		movs	r2, #3
 1360 0074 FFF7FEFF 		bl	strncmp
 1361 0078 08B9     		cbnz	r0, .L38
 1362 007a 0520     		movs	r0, #5
 1363 007c 10BD     		pop	{r4, pc}
 1364              	.L38:
 1365 007e 2046     		mov	r0, r4
 1366 0080 0B49     		ldr	r1, .L39+28
 1367 0082 0322     		movs	r2, #3
 1368 0084 FFF7FEFF 		bl	strncmp
 1369 0088 0028     		cmp	r0, #0
 1370 008a 14BF     		ite	ne
 1371 008c 0720     		movne	r0, #7
 1372 008e 0620     		moveq	r0, #6
 1373 0090 10BD     		pop	{r4, pc}
 1374              	.L40:
 1375 0092 00BF     		.align	2
 1376              	.L39:
 1377 0094 00000000 		.word	.LC0
 1378 0098 04000000 		.word	.LC1
 1379 009c 08000000 		.word	.LC2
 1380 00a0 0C000000 		.word	.LC3
 1381 00a4 10000000 		.word	.LC4
 1382 00a8 14000000 		.word	.LC5
 1383 00ac 18000000 		.word	.LC6
 1384 00b0 1C000000 		.word	.LC7
 1385              		.size	gpsParseNMEAType, .-gpsParseNMEAType
 1386 00b4 AFF30080 		.section	.text.gpsParseFix,"ax",%progbits
 1386      AFF30080 
 1386      AFF30080 
 1387              		.align	2
 1388              		.p2align 4,,15
 1389              		.global	gpsParseFix
 1390              		.thumb
 1391              		.thumb_func
 1392              		.type	gpsParseFix, %function
 1393              	gpsParseFix:
 1394              		@ args = 0, pretend = 0, frame = 0
 1395              		@ frame_needed = 0, uses_anonymous_args = 0
 1396 0000 2DE9F84F 		push	{r3, r4, r5, r6, r7, r8, r9, r10, fp, lr}
 1397 0004 0322     		movs	r2, #3
 1398 0006 0446     		mov	r4, r0
 1399 0008 8A46     		mov	r10, r1
 1400 000a 0330     		adds	r0, r0, #3
 1401 000c 5149     		ldr	r1, .L70
 1402 000e FFF7FEFF 		bl	strncmp
 1403 0012 0028     		cmp	r0, #0
 1404 0014 40F09B80 		bne	.L63
 1405 0018 0734     		adds	r4, r4, #7
 1406 001a 2378     		ldrb	r3, [r4]	@ zero_extendqisi2
 1407 001c 4E4F     		ldr	r7, .L70+4
 1408 001e 4FF00209 		mov	r9, #2
 1409 0022 09F1FF31 		add	r1, r9, #-1
ARM GAS  /tmp/cclyubud.s 			page 94


 1410 0026 2C2B     		cmp	r3, #44
 1411 0028 8346     		mov	fp, r0
 1412 002a B846     		mov	r8, r7
 1413 002c C9B2     		uxtb	r1, r1
 1414 002e 2DD0     		beq	.L65
 1415              	.L67:
 1416 0030 002B     		cmp	r3, #0
 1417 0032 7ED0     		beq	.L66
 1418 0034 661C     		adds	r6, r4, #1
 1419 0036 0022     		movs	r2, #0
 1420              	.L61:
 1421 0038 BB54     		strb	r3, [r7, r2]
 1422 003a 3378     		ldrb	r3, [r6]	@ zero_extendqisi2
 1423 003c 551C     		adds	r5, r2, #1
 1424 003e 2C2B     		cmp	r3, #44
 1425 0040 3446     		mov	r4, r6
 1426 0042 2A46     		mov	r2, r5
 1427 0044 06F10106 		add	r6, r6, #1
 1428 0048 EDB2     		uxtb	r5, r5
 1429 004a 03D0     		beq	.L45
 1430 004c 13B1     		cbz	r3, .L45
 1431 004e 102A     		cmp	r2, #16
 1432 0050 F2D1     		bne	.L61
 1433 0052 1546     		mov	r5, r2
 1434              	.L45:
 1435 0054 0139     		subs	r1, r1, #1
 1436 0056 07F805B0 		strb	fp, [r7, r5]
 1437 005a 0134     		adds	r4, r4, #1
 1438 005c 0829     		cmp	r1, #8
 1439 005e 5AD8     		bhi	.L48
 1440 0060 DFE801F0 		tbb	[pc, r1]
 1441              	.L50:
 1442 0064 38       		.byte	(.L49-.L50)/2
 1443 0065 32       		.byte	(.L51-.L50)/2
 1444 0066 27       		.byte	(.L52-.L50)/2
 1445 0067 21       		.byte	(.L53-.L50)/2
 1446 0068 16       		.byte	(.L54-.L50)/2
 1447 0069 59       		.byte	(.L48-.L50)/2
 1448 006a 05       		.byte	(.L55-.L50)/2
 1449 006b 59       		.byte	(.L48-.L50)/2
 1450 006c 5E       		.byte	(.L56-.L50)/2
 1451 006d 00       		.p2align 1
 1452              	.L55:
 1453 006e 0AF13E00 		add	r0, r10, #62
 1454 0072 3949     		ldr	r1, .L70+4
 1455 0074 FFF7FEFF 		bl	uStrCpy
 1456              	.L62:
 1457 0078 09F10109 		add	r9, r9, #1
 1458 007c 2378     		ldrb	r3, [r4]	@ zero_extendqisi2
 1459 007e 5FFA89F9 		uxtb	r9, r9
 1460 0082 09F1FF31 		add	r1, r9, #-1
 1461 0086 2C2B     		cmp	r3, #44
 1462 0088 C9B2     		uxtb	r1, r1
 1463 008a D1D1     		bne	.L67
 1464              	.L65:
 1465 008c 0025     		movs	r5, #0
 1466 008e E1E7     		b	.L45
ARM GAS  /tmp/cclyubud.s 			page 95


 1467              	.L54:
 1468 0090 3B78     		ldrb	r3, [r7]	@ zero_extendqisi2
 1469 0092 572B     		cmp	r3, #87
 1470 0094 55D0     		beq	.L68
 1471 0096 452B     		cmp	r3, #69
 1472 0098 EED1     		bne	.L62
 1473 009a 0AF11E00 		add	r0, r10, #30
 1474 009e 2B21     		movs	r1, #43
 1475 00a0 FFF7FEFF 		bl	uStrPrependChar
 1476 00a4 E8E7     		b	.L62
 1477              	.L53:
 1478 00a6 0AF11E00 		add	r0, r10, #30
 1479 00aa 2B49     		ldr	r1, .L70+4
 1480 00ac FFF7FEFF 		bl	uStrCpy
 1481 00b0 E2E7     		b	.L62
 1482              	.L52:
 1483 00b2 3B78     		ldrb	r3, [r7]	@ zero_extendqisi2
 1484 00b4 532B     		cmp	r3, #83
 1485 00b6 3ED0     		beq	.L69
 1486 00b8 4E2B     		cmp	r3, #78
 1487 00ba DDD1     		bne	.L62
 1488 00bc 0AF10A00 		add	r0, r10, #10
 1489 00c0 2B21     		movs	r1, #43
 1490 00c2 FFF7FEFF 		bl	uStrPrependChar
 1491 00c6 D7E7     		b	.L62
 1492              	.L51:
 1493 00c8 0AF10A00 		add	r0, r10, #10
 1494 00cc 2249     		ldr	r1, .L70+4
 1495 00ce FFF7FEFF 		bl	uStrCpy
 1496 00d2 D1E7     		b	.L62
 1497              	.L49:
 1498 00d4 3B78     		ldrb	r3, [r7]	@ zero_extendqisi2
 1499 00d6 8AF80030 		strb	r3, [r10]
 1500 00da 002B     		cmp	r3, #0
 1501 00dc CCD0     		beq	.L62
 1502 00de 98F80130 		ldrb	r3, [r8, #1]	@ zero_extendqisi2
 1503 00e2 8AF80130 		strb	r3, [r10, #1]
 1504 00e6 3A23     		movs	r3, #58
 1505 00e8 8AF80230 		strb	r3, [r10, #2]
 1506 00ec 98F80220 		ldrb	r2, [r8, #2]	@ zero_extendqisi2
 1507 00f0 8AF80320 		strb	r2, [r10, #3]
 1508 00f4 98F80320 		ldrb	r2, [r8, #3]	@ zero_extendqisi2
 1509 00f8 8AF80420 		strb	r2, [r10, #4]
 1510 00fc 8AF80530 		strb	r3, [r10, #5]
 1511 0100 98F80430 		ldrb	r3, [r8, #4]	@ zero_extendqisi2
 1512 0104 8AF80630 		strb	r3, [r10, #6]
 1513 0108 98F80530 		ldrb	r3, [r8, #5]	@ zero_extendqisi2
 1514 010c 8AF80730 		strb	r3, [r10, #7]
 1515 0110 8AF808B0 		strb	fp, [r10, #8]
 1516 0114 B0E7     		b	.L62
 1517              	.L48:
 1518 0116 B9F10A0F 		cmp	r9, #10
 1519 011a ADD1     		bne	.L62
 1520 011c 0020     		movs	r0, #0
 1521 011e 05E0     		b	.L42
 1522              	.L56:
 1523 0120 0AF13200 		add	r0, r10, #50
ARM GAS  /tmp/cclyubud.s 			page 96


 1524 0124 0C49     		ldr	r1, .L70+4
 1525 0126 FFF7FEFF 		bl	uStrCpy
 1526 012a 0020     		movs	r0, #0
 1527              	.L42:
 1528 012c 40B2     		sxtb	r0, r0
 1529 012e BDE8F88F 		pop	{r3, r4, r5, r6, r7, r8, r9, r10, fp, pc}
 1530              	.L66:
 1531 0132 1D46     		mov	r5, r3
 1532 0134 8EE7     		b	.L45
 1533              	.L69:
 1534 0136 0AF10A00 		add	r0, r10, #10
 1535 013a 2D21     		movs	r1, #45
 1536 013c FFF7FEFF 		bl	uStrPrependChar
 1537 0140 9AE7     		b	.L62
 1538              	.L68:
 1539 0142 0AF11E00 		add	r0, r10, #30
 1540 0146 2D21     		movs	r1, #45
 1541 0148 FFF7FEFF 		bl	uStrPrependChar
 1542 014c 94E7     		b	.L62
 1543              	.L63:
 1544 014e FF20     		movs	r0, #255
 1545 0150 ECE7     		b	.L42
 1546              	.L71:
 1547 0152 00BF     		.align	2
 1548              	.L70:
 1549 0154 08000000 		.word	.LC2
 1550 0158 00000000 		.word	.LANCHOR3
 1551              		.size	gpsParseFix, .-gpsParseFix
 1552 015c AFF30080 		.section	.text.gpsNMEAChecksum,"ax",%progbits
 1553              		.align	2
 1554              		.p2align 4,,15
 1555              		.global	gpsNMEAChecksum
 1556              		.thumb
 1557              		.thumb_func
 1558              		.type	gpsNMEAChecksum, %function
 1559              	gpsNMEAChecksum:
 1560              		@ args = 0, pretend = 0, frame = 0
 1561              		@ frame_needed = 0, uses_anonymous_args = 0
 1562              		@ link register save eliminated.
 1563 0000 4378     		ldrb	r3, [r0, #1]	@ zero_extendqisi2
 1564 0002 421C     		adds	r2, r0, #1
 1565 0004 3BB1     		cbz	r3, .L75
 1566 0006 0020     		movs	r0, #0
 1567              	.L74:
 1568 0008 5840     		eors	r0, r0, r3
 1569 000a 12F8013F 		ldrb	r3, [r2, #1]!	@ zero_extendqisi2
 1570 000e C0B2     		uxtb	r0, r0
 1571 0010 002B     		cmp	r3, #0
 1572 0012 F9D1     		bne	.L74
 1573 0014 7047     		bx	lr
 1574              	.L75:
 1575 0016 1846     		mov	r0, r3
 1576 0018 7047     		bx	lr
 1577              		.size	gpsNMEAChecksum, .-gpsNMEAChecksum
 1578 001a 00BFAFF3 		.section	.text.gpsThread,"ax",%progbits
 1578      0080
 1579              		.align	2
ARM GAS  /tmp/cclyubud.s 			page 97


 1580              		.p2align 4,,15
 1581              		.global	gpsThread
 1582              		.thumb
 1583              		.thumb_func
 1584              		.type	gpsThread, %function
 1585              	gpsThread:
 1586              		@ args = 0, pretend = 0, frame = 0
 1587              		@ frame_needed = 0, uses_anonymous_args = 0
 1588 0000 F8B5     		push	{r3, r4, r5, r6, r7, lr}
 1589 0002 0646     		mov	r6, r0
 1590 0004 0121     		movs	r1, #1
 1591 0006 1D48     		ldr	r0, .L88
 1592 0008 1D4C     		ldr	r4, .L88+4
 1593 000a FFF7FEFF 		bl	chSemObjectInit
 1594 000e B378     		ldrb	r3, [r6, #2]	@ zero_extendqisi2
 1595 0010 2746     		mov	r7, r4
 1596 0012 2BB9     		cbnz	r3, .L83
 1597 0014 2CE0     		b	.L82
 1598              	.L81:
 1599 0016 C820     		movs	r0, #200
 1600 0018 FFF7FEFF 		bl	chThdSleep
 1601 001c B378     		ldrb	r3, [r6, #2]	@ zero_extendqisi2
 1602 001e 3BB3     		cbz	r3, .L82
 1603              	.L83:
 1604 0020 1648     		ldr	r0, .L88
 1605 0022 FFF7FEFF 		bl	chSemWait
 1606 0026 0121     		movs	r1, #1
 1607 0028 1448     		ldr	r0, .L88
 1608 002a FFF7FEFF 		bl	chSemReset
 1609 002e 2068     		ldr	r0, [r4]
 1610 0030 FFF7FEFF 		bl	uartStopReceive
 1611 0034 94F8CD30 		ldrb	r3, [r4, #205]	@ zero_extendqisi2
 1612 0038 6425     		movs	r5, #100
 1613 003a 05FB0340 		mla	r0, r5, r3, r4
 1614 003e 0430     		adds	r0, r0, #4
 1615 0040 FFF7FEFF 		bl	gpsParseNMEAType
 1616 0044 0128     		cmp	r0, #1
 1617 0046 E6D1     		bne	.L81
 1618 0048 0E48     		ldr	r0, .L88+8
 1619 004a FFF7FEFF 		bl	chMtxLock
 1620 004e 97F8CD30 		ldrb	r3, [r7, #205]	@ zero_extendqisi2
 1621 0052 0D49     		ldr	r1, .L88+12
 1622 0054 05FB0370 		mla	r0, r5, r3, r7
 1623 0058 0430     		adds	r0, r0, #4
 1624 005a FFF7FEFF 		bl	gpsParseFix
 1625 005e 0948     		ldr	r0, .L88+8
 1626 0060 FFF7FEFF 		bl	chMtxUnlock
 1627 0064 C820     		movs	r0, #200
 1628 0066 FFF7FEFF 		bl	chThdSleep
 1629 006a B378     		ldrb	r3, [r6, #2]	@ zero_extendqisi2
 1630 006c 002B     		cmp	r3, #0
 1631 006e D7D1     		bne	.L83
 1632              	.L82:
 1633 0070 2068     		ldr	r0, [r4]
 1634 0072 FFF7FEFF 		bl	uartStop
 1635 0076 0020     		movs	r0, #0
 1636 0078 F8BD     		pop	{r3, r4, r5, r6, r7, pc}
ARM GAS  /tmp/cclyubud.s 			page 98


 1637              	.L89:
 1638 007a 00BF     		.align	2
 1639              	.L88:
 1640 007c 00000000 		.word	.LANCHOR1
 1641 0080 00000000 		.word	.LANCHOR0
 1642 0084 18010000 		.word	.LANCHOR0+280
 1643 0088 CE000000 		.word	.LANCHOR0+206
 1644              		.size	gpsThread, .-gpsThread
 1645 008c AFF30080 		.section	.text.gpsGetLatitude,"ax",%progbits
 1646              		.align	2
 1647              		.p2align 4,,15
 1648              		.global	gpsGetLatitude
 1649              		.thumb
 1650              		.thumb_func
 1651              		.type	gpsGetLatitude, %function
 1652              	gpsGetLatitude:
 1653              		@ args = 0, pretend = 0, frame = 0
 1654              		@ frame_needed = 0, uses_anonymous_args = 0
 1655 0000 70B5     		push	{r4, r5, r6, lr}
 1656 0002 084D     		ldr	r5, .L91
 1657 0004 05F58C74 		add	r4, r5, #280
 1658 0008 0646     		mov	r6, r0
 1659 000a 2046     		mov	r0, r4
 1660 000c FFF7FEFF 		bl	chMtxLock
 1661 0010 3046     		mov	r0, r6
 1662 0012 05F1D801 		add	r1, r5, #216
 1663 0016 FFF7FEFF 		bl	strcpy
 1664 001a 2046     		mov	r0, r4
 1665 001c BDE87040 		pop	{r4, r5, r6, lr}
 1666 0020 FFF7FEBF 		b	chMtxUnlock
 1667              	.L92:
 1668              		.align	2
 1669              	.L91:
 1670 0024 00000000 		.word	.LANCHOR0
 1671              		.size	gpsGetLatitude, .-gpsGetLatitude
 1672 0028 AFF30080 		.section	.text.gpsGetLongitude,"ax",%progbits
 1672      AFF30080 
 1673              		.align	2
 1674              		.p2align 4,,15
 1675              		.global	gpsGetLongitude
 1676              		.thumb
 1677              		.thumb_func
 1678              		.type	gpsGetLongitude, %function
 1679              	gpsGetLongitude:
 1680              		@ args = 0, pretend = 0, frame = 0
 1681              		@ frame_needed = 0, uses_anonymous_args = 0
 1682 0000 70B5     		push	{r4, r5, r6, lr}
 1683 0002 084D     		ldr	r5, .L94
 1684 0004 05F58C74 		add	r4, r5, #280
 1685 0008 0646     		mov	r6, r0
 1686 000a 2046     		mov	r0, r4
 1687 000c FFF7FEFF 		bl	chMtxLock
 1688 0010 3046     		mov	r0, r6
 1689 0012 05F1EC01 		add	r1, r5, #236
 1690 0016 FFF7FEFF 		bl	strcpy
 1691 001a 2046     		mov	r0, r4
 1692 001c BDE87040 		pop	{r4, r5, r6, lr}
ARM GAS  /tmp/cclyubud.s 			page 99


 1693 0020 FFF7FEBF 		b	chMtxUnlock
 1694              	.L95:
 1695              		.align	2
 1696              	.L94:
 1697 0024 00000000 		.word	.LANCHOR0
 1698              		.size	gpsGetLongitude, .-gpsGetLongitude
 1699 0028 AFF30080 		.section	.text.gpsGetAltitude,"ax",%progbits
 1699      AFF30080 
 1700              		.align	2
 1701              		.p2align 4,,15
 1702              		.global	gpsGetAltitude
 1703              		.thumb
 1704              		.thumb_func
 1705              		.type	gpsGetAltitude, %function
 1706              	gpsGetAltitude:
 1707              		@ args = 0, pretend = 0, frame = 0
 1708              		@ frame_needed = 0, uses_anonymous_args = 0
 1709 0000 70B5     		push	{r4, r5, r6, lr}
 1710 0002 084D     		ldr	r5, .L97
 1711 0004 05F58C74 		add	r4, r5, #280
 1712 0008 0646     		mov	r6, r0
 1713 000a 2046     		mov	r0, r4
 1714 000c FFF7FEFF 		bl	chMtxLock
 1715 0010 3046     		mov	r0, r6
 1716 0012 05F58071 		add	r1, r5, #256
 1717 0016 FFF7FEFF 		bl	strcpy
 1718 001a 2046     		mov	r0, r4
 1719 001c BDE87040 		pop	{r4, r5, r6, lr}
 1720 0020 FFF7FEBF 		b	chMtxUnlock
 1721              	.L98:
 1722              		.align	2
 1723              	.L97:
 1724 0024 00000000 		.word	.LANCHOR0
 1725              		.size	gpsGetAltitude, .-gpsGetAltitude
 1726 0028 AFF30080 		.section	.text.gpsGetTime,"ax",%progbits
 1726      AFF30080 
 1727              		.align	2
 1728              		.p2align 4,,15
 1729              		.global	gpsGetTime
 1730              		.thumb
 1731              		.thumb_func
 1732              		.type	gpsGetTime, %function
 1733              	gpsGetTime:
 1734              		@ args = 0, pretend = 0, frame = 0
 1735              		@ frame_needed = 0, uses_anonymous_args = 0
 1736 0000 70B5     		push	{r4, r5, r6, lr}
 1737 0002 084D     		ldr	r5, .L100
 1738 0004 05F58C74 		add	r4, r5, #280
 1739 0008 0646     		mov	r6, r0
 1740 000a 2046     		mov	r0, r4
 1741 000c FFF7FEFF 		bl	chMtxLock
 1742 0010 3046     		mov	r0, r6
 1743 0012 05F1CE01 		add	r1, r5, #206
 1744 0016 FFF7FEFF 		bl	strcpy
 1745 001a 2046     		mov	r0, r4
 1746 001c BDE87040 		pop	{r4, r5, r6, lr}
 1747 0020 FFF7FEBF 		b	chMtxUnlock
ARM GAS  /tmp/cclyubud.s 			page 100


 1748              	.L101:
 1749              		.align	2
 1750              	.L100:
 1751 0024 00000000 		.word	.LANCHOR0
 1752              		.size	gpsGetTime, .-gpsGetTime
 1753 0028 AFF30080 		.section	.text.gpsGetSatellites,"ax",%progbits
 1753      AFF30080 
 1754              		.align	2
 1755              		.p2align 4,,15
 1756              		.global	gpsGetSatellites
 1757              		.thumb
 1758              		.thumb_func
 1759              		.type	gpsGetSatellites, %function
 1760              	gpsGetSatellites:
 1761              		@ args = 0, pretend = 0, frame = 0
 1762              		@ frame_needed = 0, uses_anonymous_args = 0
 1763 0000 70B5     		push	{r4, r5, r6, lr}
 1764 0002 084D     		ldr	r5, .L103
 1765 0004 05F58C74 		add	r4, r5, #280
 1766 0008 0646     		mov	r6, r0
 1767 000a 2046     		mov	r0, r4
 1768 000c FFF7FEFF 		bl	chMtxLock
 1769 0010 3046     		mov	r0, r6
 1770 0012 05F58671 		add	r1, r5, #268
 1771 0016 FFF7FEFF 		bl	strcpy
 1772 001a 2046     		mov	r0, r4
 1773 001c BDE87040 		pop	{r4, r5, r6, lr}
 1774 0020 FFF7FEBF 		b	chMtxUnlock
 1775              	.L104:
 1776              		.align	2
 1777              	.L103:
 1778 0024 00000000 		.word	.LANCHOR0
 1779              		.size	gpsGetSatellites, .-gpsGetSatellites
 1780 0028 AFF30080 		.section	.text.gpsGetLocation,"ax",%progbits
 1780      AFF30080 
 1781              		.align	2
 1782              		.p2align 4,,15
 1783              		.global	gpsGetLocation
 1784              		.thumb
 1785              		.thumb_func
 1786              		.type	gpsGetLocation, %function
 1787              	gpsGetLocation:
 1788              		@ args = 0, pretend = 0, frame = 0
 1789              		@ frame_needed = 0, uses_anonymous_args = 0
 1790 0000 70B5     		push	{r4, r5, r6, lr}
 1791 0002 144C     		ldr	r4, .L106
 1792 0004 04F58C76 		add	r6, r4, #280
 1793 0008 0546     		mov	r5, r0
 1794 000a 3046     		mov	r0, r6
 1795 000c FFF7FEFF 		bl	chMtxLock
 1796 0010 04F1D801 		add	r1, r4, #216
 1797 0014 05F10A00 		add	r0, r5, #10
 1798 0018 FFF7FEFF 		bl	strcpy
 1799 001c 04F1EC01 		add	r1, r4, #236
 1800 0020 05F11E00 		add	r0, r5, #30
 1801 0024 FFF7FEFF 		bl	strcpy
 1802 0028 04F58071 		add	r1, r4, #256
ARM GAS  /tmp/cclyubud.s 			page 101


 1803 002c 05F13200 		add	r0, r5, #50
 1804 0030 FFF7FEFF 		bl	strcpy
 1805 0034 04F1CE01 		add	r1, r4, #206
 1806 0038 2846     		mov	r0, r5
 1807 003a FFF7FEFF 		bl	strcpy
 1808 003e 05F13E00 		add	r0, r5, #62
 1809 0042 04F58671 		add	r1, r4, #268
 1810 0046 FFF7FEFF 		bl	strcpy
 1811 004a 3046     		mov	r0, r6
 1812 004c BDE87040 		pop	{r4, r5, r6, lr}
 1813 0050 FFF7FEBF 		b	chMtxUnlock
 1814              	.L107:
 1815              		.align	2
 1816              	.L106:
 1817 0054 00000000 		.word	.LANCHOR0
 1818              		.size	gpsGetLocation, .-gpsGetLocation
 1819              		.global	gpsSem
 1820 0058 AFF30080 		.section	.bss.gpsSem,"aw",%nobits
 1820      AFF30080 
 1821              		.align	2
 1822              		.set	.LANCHOR1,. + 0
 1823              		.type	gpsSem, %object
 1824              		.size	gpsSem, 12
 1825              	gpsSem:
 1826 0000 00000000 		.space	12
 1826      00000000 
 1826      00000000 
 1827              		.section	.bss.GPS,"aw",%nobits
 1828              		.align	2
 1829              		.set	.LANCHOR0,. + 0
 1830              		.type	GPS, %object
 1831              		.size	GPS, 296
 1832              	GPS:
 1833 0000 00000000 		.space	296
 1833      00000000 
 1833      00000000 
 1833      00000000 
 1833      00000000 
 1834              		.section	.rodata.str1.4,"aMS",%progbits,1
 1835              		.align	2
 1836              	.LC0:
 1837 0000 475000   		.ascii	"GP\000"
 1838 0003 00       		.space	1
 1839              	.LC1:
 1840 0004 414C4D00 		.ascii	"ALM\000"
 1841              	.LC2:
 1842 0008 47474100 		.ascii	"GGA\000"
 1843              	.LC3:
 1844 000c 474C4C00 		.ascii	"GLL\000"
 1845              	.LC4:
 1846 0010 47534100 		.ascii	"GSA\000"
 1847              	.LC5:
 1848 0014 47535600 		.ascii	"GSV\000"
 1849              	.LC6:
 1850 0018 48445400 		.ascii	"HDT\000"
 1851              	.LC7:
 1852 001c 5A444100 		.ascii	"ZDA\000"
ARM GAS  /tmp/cclyubud.s 			page 102


 1853              		.section	.data.serGpsCfg,"aw",%progbits
 1854              		.align	2
 1855              		.set	.LANCHOR2,. + 0
 1856              		.type	serGpsCfg, %object
 1857              		.size	serGpsCfg, 32
 1858              	serGpsCfg:
 1859 0000 00000000 		.word	gpsTxbufEnd
 1860 0004 00000000 		.word	gpsTxC
 1861 0008 00000000 		.word	gpsRxEnd
 1862 000c 00000000 		.word	gpsRxChar
 1863 0010 00000000 		.word	gpsRxErr
 1864 0014 80250000 		.word	9600
 1865 0018 0000     		.short	0
 1866 001a 0040     		.short	16384
 1867 001c 0000     		.short	0
 1868 001e 0000     		.space	2
 1869              		.section	.bss.tokBuf,"aw",%nobits
 1870              		.align	2
 1871              		.set	.LANCHOR3,. + 0
 1872              		.type	tokBuf, %object
 1873              		.size	tokBuf, 20
 1874              	tokBuf:
 1875 0000 00000000 		.space	20
 1875      00000000 
 1875      00000000 
 1875      00000000 
 1875      00000000 
 1876              		.comm	__gnu_lto_v1,1,1
 1877              		.ident	"GCC: (GNU Tools for ARM Embedded Processors) 4.8.4 20140526 (release) [ARM/embedded-4_8-br
ARM GAS  /tmp/cclyubud.s 			page 103


DEFINED SYMBOLS
                            *ABS*:0000000000000000 gps.c
     /tmp/cclyubud.s:1121   .text.gpsTxbufEnd:0000000000000000 $t
     /tmp/cclyubud.s:1126   .text.gpsTxbufEnd:0000000000000000 gpsTxbufEnd
     /tmp/cclyubud.s:1133   .text.gpsTxC:0000000000000000 $t
     /tmp/cclyubud.s:1138   .text.gpsTxC:0000000000000000 gpsTxC
     /tmp/cclyubud.s:1145   .text.gpsRxEnd:0000000000000000 $t
     /tmp/cclyubud.s:1150   .text.gpsRxEnd:0000000000000000 gpsRxEnd
     /tmp/cclyubud.s:1157   .text.gpsRxErr:0000000000000000 $t
     /tmp/cclyubud.s:1162   .text.gpsRxErr:0000000000000000 gpsRxErr
     /tmp/cclyubud.s:1169   .text.gpsRxChar:0000000000000000 $t
     /tmp/cclyubud.s:1174   .text.gpsRxChar:0000000000000000 gpsRxChar
     /tmp/cclyubud.s:1237   .text.gpsRxChar:0000000000000074 $d
     /tmp/cclyubud.s:1241   .text.gpsStart:0000000000000000 $t
     /tmp/cclyubud.s:1247   .text.gpsStart:0000000000000000 gpsStart
     /tmp/cclyubud.s:1272   .text.gpsStart:000000000000002c $d
     /tmp/cclyubud.s:1276   .text.gpsStop:0000000000000000 $t
     /tmp/cclyubud.s:1282   .text.gpsStop:0000000000000000 gpsStop
     /tmp/cclyubud.s:1292   .text.gpsParseNMEAType:0000000000000000 $t
     /tmp/cclyubud.s:1298   .text.gpsParseNMEAType:0000000000000000 gpsParseNMEAType
     /tmp/cclyubud.s:1377   .text.gpsParseNMEAType:0000000000000094 $d
     /tmp/cclyubud.s:1387   .text.gpsParseFix:0000000000000000 $t
     /tmp/cclyubud.s:1393   .text.gpsParseFix:0000000000000000 gpsParseFix
     /tmp/cclyubud.s:1442   .text.gpsParseFix:0000000000000064 $d
     /tmp/cclyubud.s:1549   .text.gpsParseFix:0000000000000154 $d
     /tmp/cclyubud.s:1553   .text.gpsNMEAChecksum:0000000000000000 $t
     /tmp/cclyubud.s:1559   .text.gpsNMEAChecksum:0000000000000000 gpsNMEAChecksum
     /tmp/cclyubud.s:1579   .text.gpsThread:0000000000000000 $t
     /tmp/cclyubud.s:1585   .text.gpsThread:0000000000000000 gpsThread
     /tmp/cclyubud.s:1640   .text.gpsThread:000000000000007c $d
     /tmp/cclyubud.s:1646   .text.gpsGetLatitude:0000000000000000 $t
     /tmp/cclyubud.s:1652   .text.gpsGetLatitude:0000000000000000 gpsGetLatitude
     /tmp/cclyubud.s:1670   .text.gpsGetLatitude:0000000000000024 $d
     /tmp/cclyubud.s:1673   .text.gpsGetLongitude:0000000000000000 $t
     /tmp/cclyubud.s:1679   .text.gpsGetLongitude:0000000000000000 gpsGetLongitude
     /tmp/cclyubud.s:1697   .text.gpsGetLongitude:0000000000000024 $d
     /tmp/cclyubud.s:1700   .text.gpsGetAltitude:0000000000000000 $t
     /tmp/cclyubud.s:1706   .text.gpsGetAltitude:0000000000000000 gpsGetAltitude
     /tmp/cclyubud.s:1724   .text.gpsGetAltitude:0000000000000024 $d
     /tmp/cclyubud.s:1727   .text.gpsGetTime:0000000000000000 $t
     /tmp/cclyubud.s:1733   .text.gpsGetTime:0000000000000000 gpsGetTime
     /tmp/cclyubud.s:1751   .text.gpsGetTime:0000000000000024 $d
     /tmp/cclyubud.s:1754   .text.gpsGetSatellites:0000000000000000 $t
     /tmp/cclyubud.s:1760   .text.gpsGetSatellites:0000000000000000 gpsGetSatellites
     /tmp/cclyubud.s:1778   .text.gpsGetSatellites:0000000000000024 $d
     /tmp/cclyubud.s:1781   .text.gpsGetLocation:0000000000000000 $t
     /tmp/cclyubud.s:1787   .text.gpsGetLocation:0000000000000000 gpsGetLocation
     /tmp/cclyubud.s:1817   .text.gpsGetLocation:0000000000000054 $d
     /tmp/cclyubud.s:1825   .bss.gpsSem:0000000000000000 gpsSem
     /tmp/cclyubud.s:1821   .bss.gpsSem:0000000000000000 $d
     /tmp/cclyubud.s:1828   .bss.GPS:0000000000000000 $d
     /tmp/cclyubud.s:1832   .bss.GPS:0000000000000000 GPS
     /tmp/cclyubud.s:1835   .rodata.str1.4:0000000000000000 $d
     /tmp/cclyubud.s:1854   .data.serGpsCfg:0000000000000000 $d
     /tmp/cclyubud.s:1858   .data.serGpsCfg:0000000000000000 serGpsCfg
     /tmp/cclyubud.s:1870   .bss.tokBuf:0000000000000000 $d
     /tmp/cclyubud.s:1874   .bss.tokBuf:0000000000000000 tokBuf
ARM GAS  /tmp/cclyubud.s 			page 104


                            *COM*:0000000000000001 __gnu_lto_v1
     /tmp/cclyubud.s:1240   .text.gpsRxChar:000000000000007c $t
     /tmp/cclyubud.s:1275   .text.gpsStart:0000000000000034 $t
     /tmp/cclyubud.s:1386   .text.gpsParseNMEAType:00000000000000b4 $t
     /tmp/cclyubud.s:1552   .text.gpsParseFix:000000000000015c $t
     /tmp/cclyubud.s:1645   .text.gpsThread:000000000000008c $t
     /tmp/cclyubud.s:1672   .text.gpsGetLatitude:0000000000000028 $t
     /tmp/cclyubud.s:1699   .text.gpsGetLongitude:0000000000000028 $t
     /tmp/cclyubud.s:1726   .text.gpsGetAltitude:0000000000000028 $t
     /tmp/cclyubud.s:1753   .text.gpsGetTime:0000000000000028 $t
     /tmp/cclyubud.s:1780   .text.gpsGetSatellites:0000000000000028 $t
     /tmp/cclyubud.s:1820   .text.gpsGetLocation:0000000000000058 $t
     /tmp/cclyubud.s:1451   .text.gpsParseFix:000000000000006d $d
     /tmp/cclyubud.s:1451   .text.gpsParseFix:000000000000006e $t

UNDEFINED SYMBOLS
chSchRescheduleS
chSemSignalI
chMtxObjectInit
uartStart
uartStop
strncmp
uStrCpy
uStrPrependChar
chSemObjectInit
chThdSleep
chSemWait
chSemReset
uartStopReceive
chMtxLock
chMtxUnlock
strcpy
