ARM GAS  /tmp/ccRV1ReY.s 			page 1


   1              		.syntax unified
   2              		.cpu cortex-m4
   3              		.eabi_attribute 27, 3
   4              		.eabi_attribute 28, 1
   5              		.fpu fpv4-sp-d16
   6              		.eabi_attribute 20, 1
   7              		.eabi_attribute 21, 1
   8              		.eabi_attribute 23, 3
   9              		.eabi_attribute 24, 1
  10              		.eabi_attribute 25, 1
  11              		.eabi_attribute 26, 1
  12              		.eabi_attribute 30, 2
  13              		.eabi_attribute 34, 1
  14              		.eabi_attribute 18, 4
  15              		.thumb
  16              		.file	"gps.c"
  17              		.section	.gnu.lto_.jmpfuncs.7a37c4dc3dcc898e,"",%progbits
  18 0000 789CB593 		.ascii	"x\234\265\223\275N\3030\020\307\377\3478_\375L\333\224"
  18      BD4EC330 
  18      10C7FFE7 
  18      385FFD4C 
  18      DB94
  19 0012 81A12C48 		.ascii	"\201\241,H\014\274\004U+\205!HHE\010\261\221-CV\026"
  19      0CBC0455 
  19      2B852148 
  19      484508B1 
  19      912D4356 
  20 0027 968C3C42 		.ascii	"\226\214<B\027^\200Gd\3026%IQR\345,\341\3019)\277\370"
  20      175E8047 
  20      64C23625 
  20      495152E5 
  20      2CE1C139 
  21 003e 7E77BE08 		.ascii	"~w\276\010\010\264\255\027\037\270R\317\030 \2058\220"
  21      08B4AD17 
  21      1FB852CF 
  21      18208538 
  21      90
  22 004f A402B820 		.ascii	"\244\002\270 \361\206\257\362\275\214rBA\206\015\004"
  22      F186AFF2 
  22      BD8C7242 
  22      41860D04 
  23 005f 42729C27 		.ascii	"Br\234'\312\211\034`\003\030f\257\031\261\002}\224\373"
  23      CA891C60 
  23      031866AF 
  23      19B1027D 
  23      94FB
  24 0071 9B5CBF51 		.ascii	"\233\\\277QKhJ\252\270\233\367\230\374\220\311GL~\311"
  24      4B684AAA 
  24      B89BF798 
  24      FC90C947 
  24      4C7EC9
  25 0084 E4CF99FC 		.ascii	"\344\317\231\374E+? q\340L\257\335\202L\263\033\355"
  25      452B3F20 
  25      71E04CAF 
  25      DD824CB3 
  25      1BED
  26 0096 F7AEF159 		.ascii	"\367\256\361Y\226:\362\013\022\031\325\2277\322\354"
ARM GAS  /tmp/ccRV1ReY.s 			page 2


  26      963AF20B 
  26      1219D597 
  26      37D2EC
  27 00a5 D824C32B 		.ascii	"\330$\303+\375\246\246?\251\203\025.\177R\207\215\324"
  27      FDA6A63F 
  27      A983152E 
  27      7F52878D 
  27      D4
  28 00b6 2AEBC431 		.ascii	"*\353\30413qz\343\336\337\224\"m\320\313\377\250\362"
  28      33717AE3 
  28      DEDF9422 
  28      6DD0CBFF 
  28      A8F2
  29 00c8 41850D0D 		.ascii	"A\205\015\015Vs\275\316R\241\250\271Q\305\215\325\360"
  29      5673BDCE 
  29      52A1A8B9 
  29      51C58DD5 
  29      F0
  30 00d9 66540FBF 		.ascii	"fT\017\277\021\235\034\033\236\240YG\316\250_\331\346"
  30      119D1C1B 
  30      9EA05947 
  30      CEA85FD9 
  30      E6
  31 00ea BE9AB54F 		.ascii	"\276\232\265O+6j\355Bv\350r\357n\314\377\317D\362L\026"
  31      2B366AED 
  31      4276E872 
  31      EF6ECCFF 
  31      CF44F24C 
  32 00ff B626B38A 		.ascii	"\266&\263\212\235w\230\270<\223\330\326dQ\261q\207\211"
  32      9D7798B8 
  32      3C93D8D6 
  32      6451B171 
  32      8789
  33 0111 C73359DA 		.ascii	"\3073Y\332\232\004\025\033v\230\370<\223\263\236&\266"
  33      9A04151B 
  33      7698F83C 
  33      93B39E26 
  33      B6
  34 0122 12C2B68F 		.ascii	"\022\302\266\217\302v\024\204\35543?d\376\220\220\353"
  34      C2761484 
  34      ED34333F 
  34      64FE9090 
  34      EB
  35 0133 F40E3249 		.ascii	"\364\0162I\326jKS\265\355t\264{\204\274\335>@>o\327"
  35      D66A4B53 
  35      B5ED74B4 
  35      7B84BCDD 
  35      3E403E6F 
  36 0148 70927B7C 		.ascii	"p\222{|\003r\236M\316"
  36      03729E4D 
  36      CE
  37              		.text
  38              		.section	.gnu.lto_.inline.7a37c4dc3dcc898e,"",%progbits
  39 0000 789C9D53 		.ascii	"x\234\235S;N\303@\020\235\231]\177b;\316\206|h\200P"
  39      3B4EC340 
  39      109D995D 
  39      7F623BCE 
ARM GAS  /tmp/ccRV1ReY.s 			page 3


  39      867C6880 
  40 0015 2072020A 		.ascii	" r\002\012j\020\022Mj\252\264\204\2063P\241\210*'@i"
  40      6A10124D 
  40      6AAAB484 
  40      863350A1 
  40      882A2740 
  41 002a 90283902 		.ascii	"\220(9\002B))\020\242\340\002 DA\305\001\230\235\265"
  41      42292910 
  41      A2E00220 
  41      4441C501 
  41      989DB5
  42 003d E3804118 		.ascii	"\343\200A\030\\xfg\336{\363\361\232\200\340\273\347"
  42      5C786667 
  42      DE7BF3F1 
  42      9A80E0BB 
  42      E7
  43 004e 4639DB06 		.ascii	"F9\333\006P\204\002\362\247=\301b)B\245\210*E4\304-"
  43      508402F2 
  43      A73DC162 
  43      2942A588 
  43      2A4534C4 
  44 0063 442633BC 		.ascii	"D&3\274v\271\007\301\270\357\324\"\033\211\331\231\014"
  44      76B907C1 
  44      B8EFD422 
  44      1B89D999 
  44      0C
  45 0074 3CA8B798 		.ascii	"<\250\267\230ef\303B\332f \2044F\205\207\007x\204\035"
  45      6566C342 
  45      DA662084 
  45      34468587 
  45      0778841D 
  46 0088 26E068EE 		.ascii	"&\340h\356\241hgu\364\264g\300\234\356\206\2312'j\260"
  46      A1686775 
  46      F4B467C0 
  46      9CEE8699 
  46      32276AB0 
  47 009c B599D555 		.ascii	"\265\231\325U+\263\035\207\243\273\206\345\200\227r"
  47      2BB31D87 
  47      A3BB86E5 
  47      809772
  48 00ab 7432F8AF 		.ascii	"t2\370\257\023A\262\212\012\244\255\256\325\033\315"
  48      1341B28A 
  48      0AA4ADAE 
  48      D51BCD
  49 00ba BD725BFA 		.ascii	"\275r[\372qM\332R\011\217CL\347\321B\306%\340\247\256"
  49      714DDA52 
  49      098F434C 
  49      E7D142C6 
  49      25E0A7AE 
  50 00ce 415530F0 		.ascii	"AU0\360%\320\356\015\305z\352\320\014Q\273r\313\033"
  50      25D0EE0D 
  50      C57AEAD0 
  50      0C51BB72 
  50      CB1B
  51 00e0 0C77F59C 		.ascii	"\014w\365\234+|)\353/\210\030\002o\3347@\327\264\256"
  51      2B7C29EB 
  51      2F881802 
ARM GAS  /tmp/ccRV1ReY.s 			page 4


  51      6FDC3740 
  51      D7B4AE
  52 00f3 419F783A 		.ascii	"A\237x:kA\313\276S\2662I\332\274\207\367\000I\004d\247"
  52      6B41CBBE 
  52      53B63249 
  52      DABC87F7 
  52      00490464 
  53 0108 6A787E76 		.ascii	"jx~v\014\346u\277\330\226JP\032\377\253\235\357\253"
  53      0CE675BF 
  53      D8964A50 
  53      1AFFAB9D 
  53      EFAB
  54 011a 01B5EDFC 		.ascii	"\001\265\355\374[D\3173\377\363\3070\320\273\010\230"
  54      5B44CF33 
  54      FFF3C730 
  54      D0BB0898 
  55 012a D1B87A4A 		.ascii	"\321\270zJ!x\273EZ\230\235b\313\313\025\363\023\331"
  55      2178BB45 
  55      5A989D62 
  55      CBCB15F3 
  55      13D9
  56 013c 94356481 		.ascii	"\2245d\201$1{\035\241\011\321\306\227;*\027I\322n\367"
  56      24317B1D 
  56      A109D1C6 
  56      973B2A17 
  56      49D26EF7 
  57 0150 7C5AAA84 		.ascii	"|Z\252\204jUB\265+\241:\225P]\350>@\376\263\374\210"
  57      6A5542B5 
  57      2BA13A95 
  57      505DE83E 
  57      40FEB3FC 
  58 0165 FDCD3A34 		.ascii	"\375\315:4|\000Y\006U3"
  58      7C005906 
  58      5533
  59              		.text
  60              		.section	.gnu.lto_.pureconst.7a37c4dc3dcc898e,"",%progbits
  61 0000 789C6362 		.ascii	"x\234cb`b\320d\200\000\021\006\006F \227\231\201\305"
  61      6062D064 
  61      80001106 
  61      06462097 
  61      9981C5
  62 0013 8A558A43 		.ascii	"\212U\212C\212\223\205K\202G\222\227\225O\212\337T\300"
  62      8A93854B 
  62      82479297 
  62      954F8ADF 
  62      54C0
  63 0025 52504248 		.ascii	"RPBHBXBDBTBL\002\0005f\002\347"
  63      42584244 
  63      4254424C 
  63      02003566 
  63      02E7
  64              		.text
  65              		.section	.gnu.lto_gpsTxbufEnd.7a37c4dc3dcc898e,"",%progbits
  66 0000 789C6362 		.ascii	"x\234cb`b@\007\222@\034\004\304\034@\314\310\314\300"
  66      60624007 
  66      92401C04 
  66      C41C40CC 
ARM GAS  /tmp/ccRV1ReY.s 			page 5


  66      C8CCC0
  67 0013 C834E11C 		.ascii	"\3104\341\034\003C#\007\023##\210\301\300\310P\317\304"
  67      03432307 
  67      13232388 
  67      C1C0C850 
  67      CFC4
  68 0025 581FC908 		.ascii	"X\037\311\010V\273\236\351\300\203\377\377\327\355;"
  68      56BB9EE9 
  68      C083FFFF 
  68      D7ED3B
  69 0034 B6602523 		.ascii	"\266`%##\310(V\206\226\206\206\011\012\014\014\311`"
  69      23C82856 
  69      86968686 
  69      090A0C0C 
  69      C960
  70 0046 05214012 		.ascii	"\005!@\022\244+\024(\011\244\231/20&2.dd\205[\026\302"
  70      A42B1428 
  70      09A4992F 
  70      32302632 
  70      2E646485 
  71 005d C8089200 		.ascii	"\310\010\222\000ieK/(\326Kf\000\000\004o\030m"
  71      69654B2F 
  71      28D64B66 
  71      0000046F 
  71      186D
  72              		.text
  73              		.section	.gnu.lto_gpsTxC.7a37c4dc3dcc898e,"",%progbits
  74 0000 789C6362 		.ascii	"x\234cb`b@\007\222@\034\004\304\034@\314\310\314\300"
  74      60624007 
  74      92401C04 
  74      C41C40CC 
  74      C8CCC0
  75 0013 C834E11C 		.ascii	"\3104\341\034\003C#\007\023##\210\301\300\310P\317\304"
  75      03432307 
  75      13232388 
  75      C1C0C850 
  75      CFC4
  76 0025 581FC908 		.ascii	"X\037\311\010V\273\236\351\300\203\377\377\327\335;"
  76      56BB9EE9 
  76      C083FFFF 
  76      D7DD3B
  77 0034 B6602723 		.ascii	"\266`'##\310(V\206\226\206\206\011\012\014\014\311`"
  77      23C82856 
  77      86968686 
  77      090A0C0C 
  77      C960
  78 0046 05214012 		.ascii	"\005!@\022\244+\024(\011\244\231/20&2.dd\205[\026\302"
  78      A42B1428 
  78      09A4992F 
  78      32302632 
  78      2E646485 
  79 005d C8089200 		.ascii	"\310\010\222\000ieK/(\326Kf\000\000\022\177\030\235"
  79      69654B2F 
  79      28D64B66 
  79      0000127F 
  79      189D
  80              		.text
ARM GAS  /tmp/ccRV1ReY.s 			page 6


  81              		.section	.gnu.lto_gpsRxEnd.7a37c4dc3dcc898e,"",%progbits
  82 0000 789C6362 		.ascii	"x\234cb`b@\007\222@\034\004\304\034@\314\310\314\300"
  82      60624007 
  82      92401C04 
  82      C41C40CC 
  82      C8CCC0
  83 0013 C834E11C 		.ascii	"\3104\341\034\003C#\007\023##\210\301\300\310P\317\304"
  83      03432307 
  83      13232388 
  83      C1C0C850 
  83      CFC4
  84 0025 581FC908 		.ascii	"X\037\311\010V\273\236\351\300\203\377\377\327]8\276"
  84      56BB9EE9 
  84      C083FFFF 
  84      D75D38BE 
  85 0035 E0152323 		.ascii	"\340\025##\310(V\206\226\206\206\011\012\014\014\311"
  85      C8285686 
  85      96868609 
  85      0A0C0CC9 
  86 0045 60052140 		.ascii	"`\005!@\022\244+\024(\011\244\231/20&2.dd\205[\026\302"
  86      12A42B14 
  86      2809A499 
  86      2F323026 
  86      322E6464 
  87 005d C8089200 		.ascii	"\310\010\222\000ieK/(\326Kf\000\000\034\233\030\301"
  87      69654B2F 
  87      28D64B66 
  87      00001C9B 
  87      18C1
  88              		.text
  89              		.section	.gnu.lto_gpsRxErr.7a37c4dc3dcc898e,"",%progbits
  90 0000 789C6362 		.ascii	"x\234cb`b@\007\222@\034\004\304\034@\314\310\314\300"
  90      60624007 
  90      92401C04 
  90      C41C40CC 
  90      C8CCC0
  91 0013 C834E11C 		.ascii	"\3104\341\034\003C#\007\023##\210\301\300\310P\317\304"
  91      03432307 
  91      13232388 
  91      C1C0C850 
  91      CFC4
  92 0025 581FC908 		.ascii	"X\037\311\010V\273\236\351\300\203\377\377\327}8\276"
  92      56BB9EE9 
  92      C083FFFF 
  92      D77D38BE 
  93 0035 E0372323 		.ascii	"\3407##\310(V\206\226\206\206\011\012\014\014\311`\005"
  93      C8285686 
  93      96868609 
  93      0A0C0CC9 
  93      6005
  94 0047 214012A4 		.ascii	"!@\022\244+\024(\011\244\231/20&2.dd\205[\026\302\310"
  94      2B142809 
  94      A4992F32 
  94      3026322E 
  94      6464855B 
  95 005e 08920069 		.ascii	"\010\222\000ieK/(\326Kf\000\000*\364\030\362"
  95      654B2F28 
ARM GAS  /tmp/ccRV1ReY.s 			page 7


  95      D64B6600 
  95      002AF418 
  95      F2
  96              		.text
  97              		.section	.gnu.lto_chBSemSignal.7a37c4dc3dcc898e,"",%progbits
  98 0000 789C8D52 		.ascii	"x\234\215R\275k\024A\024\377\275\231]\357<\223\220F"
  98      BD6B1441 
  98      14FFBD99 
  98      5DEF3C93 
  98      9046
  99 0012 B00AD708 		.ascii	"\260\012\327\010\361\003W\304\324\006\004\301\" 9\003"
  99      F10357C4 
  99      D40604C1 
  99      22203903 
 100 0022 A690B03B 		.ascii	"\246\220\260;\267\344\006\335[\331\273\013\211)2\227"
 100      B7E406DD 
 100      5BD9BB0B 
 100      89293297 
 101 0032 5C918045 		.ascii	"\\\221\200E\270X\030?@\301#\321B\377\002\361J\013MH"
 101      B858183F 
 101      40C123D1 
 101      42FF02F1 
 101      4A0B4D48 
 102 0046 2B160141 		.ascii	"+\026\001AH\025m\014\304\"\316\354\336m\202\215\031"
 102      48156D0C 
 102      C422CEEC 
 102      DE6D828D 
 102      19
 103 0057 D899F766 		.ascii	"\330\231\367f\336\357c\337\014\003\303\277\343\212\376"
 103      DEEF63DF 
 103      0C03C3BF 
 103      E38AFE
 104 0066 6EE9ED15 		.ascii	"n\351\355\025\275\222\015b\313\033@=\313\030\337\353"
 104      BD920D62 
 104      CB1B403D 
 104      CB18DFEB 
 105 0076 83CA59AB 		.ascii	"\203\312Y\253\327\240z8Y\311\266Ed\002\020\346\030\267"
 105      D7A07A38 
 105      59C9B645 
 105      640210E6 
 105      18B7
 106 0088 686E9C62 		.ascii	"hn\234b\222\367\254\275}p\360\356w\363\303s\372\314"
 106      92F7ACBD 
 106      7D70F0EE 
 106      77F3C373 
 106      FACC
 107 009a 7A390584 		.ascii	"z9\005\204\014$!\253'Sb\243\241\324r\036\0201\340\266"
 107      0C2421AB 
 107      275362A3 
 107      A1D4721E 
 107      1031E0B6 
 108 00ae 9E0DCF18 		.ascii	"\236\015\317\0301\263\362\015\314\377\332}\374\375L"
 108      31B3F20D 
 108      CCFFDA7D 
 108      FCFD4C
 109 00bd 5AE6D22B 		.ascii	"Z\346\322+m&\026\"Ls\343\233'\346\007\260D/\324\223"
 109      6D261622 
ARM GAS  /tmp/ccRV1ReY.s 			page 8


 109      4C73E39B 
 109      27E607B0 
 109      442FD493 
 110 00d1 6149717A 		.ascii	"aIqz\207$\361\274\211\322\363G\235s+\371\301/\230\377"
 110      8724F1BC 
 110      89D2F347 
 110      9D732BF9 
 110      C12F98FF 
 111 00e5 FAED65EB 		.ascii	"\372\355e\353|\312\235\004\352Ok\260\253#b\217\230\244"
 111      7CCA9D04 
 111      EA4F6BB0 
 111      AB23628F 
 111      98A4
 112 00f7 CC05BC55 		.ascii	"\314\005\274UJ\265\267\232\247%\331I\242\206$\235x\206"
 112      4AB5B79A 
 112      A725D949 
 112      A286249D 
 112      7886
 113 0109 A775A5FA 		.ascii	"\247u\245\372%e&\211\033\315l\314\355\031\234Ko\214"
 113      25652689 
 113      1BCD6CCC 
 113      ED199C4B 
 113      6F8C
 114 011b 57CF9074 		.ascii	"W\317\220tb\340\023\032?\352\275.\255\353T\363\032\210"
 114      62E0131A 
 114      3FEABD2E 
 114      ADEB54F3 
 114      1A88
 115 012d 7DB4ED63 		.ascii	"}\264\355c\304\261\327\307\265\271\375\205\265\326\271"
 115      C4B1D7C7 
 115      B5B9FD85 
 115      B5D6B9
 116 013c 6E617616 		.ascii	"nav\026\017u\307:\312w\217\247\234\212n\242\321\356"
 116      0F75C73A 
 116      CA778FA7 
 116      9C8A6EA2 
 116      D1EE
 117 014e 5001B3D8 		.ascii	"P\001\263\330W\213\006xR\020KK\264\204\244\\\327\203"
 117      578B0678 
 117      52104B4B 
 117      B484A45C 
 117      D783
 118 0160 15777F13 		.ascii	"\025w\177\023\013\333\037wr\335\236\247\300SB\2334C"
 118      0BDB1F77 
 118      72DD9EA7 
 118      C053429B 
 118      3443
 119 0172 520F709C 		.ascii	"R\017p\234;r\351\265\206\304w\202#w\342\322\032\015"
 119      3B72E9B5 
 119      86C47782 
 119      2377E2D2 
 119      1A0D
 120 0184 249A5BA8 		.ascii	"$\232[\250\377l\256\332)\026\311s c\304\324^uJa\340"
 120      FF6CAEDA 
 120      2916C973 
 120      2063C4D4 
 120      5E754A61 
ARM GAS  /tmp/ccRV1ReY.s 			page 9


 121 0199 3B222CCE 		.ascii	";\",\3168E\177\312\021%\351\311\260\342T\243Z\371\236"
 121      38457FCA 
 121      1125E9C9 
 121      B0E254A3 
 121      5AF99E
 122 01ac A383A8EA 		.ascii	"\243\203\250\352\310\262\270_+\352\242\222W\361\203"
 122      C8B2B85F 
 122      2BEAA292 
 122      57F183
 123 01bb 4B250CFF 		.ascii	"K%\014\377\017\344OW\235\353#\205\233\205Cl\030\371"
 123      0FE44F57 
 123      9DEB2385 
 123      9B85436C 
 123      18F9
 124 01cd 1322B851 		.ascii	"\023\"\270Q+\013M\320?R\030\315{n\305\177\020\311\213"
 124      2B0B4DD0 
 124      3F5218CD 
 124      7B6EC57F 
 124      10C98B
 125 01e0 F9B397C1 		.ascii	"\371\263\227\301\"d\002?\010\243\031\374\005\004\315"
 125      2264023F 
 125      08A319FC 
 125      0504CD
 126 01ef B75A     		.ascii	"\267Z"
 127              		.text
 128              		.section	.gnu.lto_gpsRxChar.part.0.7a37c4dc3dcc898e,"",%progbits
 129 0000 789CB552 		.ascii	"x\234\265R\275k\024A\024\177\277\331\217\333\273\344"
 129      BD6B1441 
 129      147FBFD9 
 129      8FDBBBE4 
 130 0010 924B954A 		.ascii	"\222K\225J\011\261\021D\363'\330\330X\012\027P\320b"
 130      09B11144 
 130      F327D8D8 
 130      580A1750 
 130      D062
 131 0022 EF30C716 		.ascii	"\3570\307\026'!\232\312\"\357r)\202B8\254Bl\014\202"
 131      27219ACA 
 131      22EF7229 
 131      824238AC 
 131      426C0C82 
 132 0036 842410B5 		.ascii	"\204$\020\265\022\2618\360\203\200_\250i\214 \007\202"
 132      12B138F0 
 132      83805FA8 
 132      698C2007 
 132      82
 133 0047 68A3B131 		.ascii	"h\243\2611\222\250\353\233\231\333\275\020,\316\302"
 133      92A8EB9B 
 133      99DBBD10 
 133      2CCEC2
 134 0056 817DF366 		.ascii	"\201}\363f\346\375>\336\316(R\264\177\234\220\357\254"
 134      E6FD3EDE 
 134      CE2852B4 
 134      7F9C90EF 
 134      AC
 135 0067 4B342833 		.ascii	"K4(32\004\277\361B\022\037\312\314J\271\017\016\022"
 135      3204BFF1 
 135      42121FCA 
ARM GAS  /tmp/ccRV1ReY.s 			page 10


 135      CC4AB90F 
 135      0E12
 136 0079 E79C8D11 		.ascii	"\347\234\215\021\342^\007\256\336\255\005.<\233x\200"
 136      E25E07AE 
 136      DEAD052E 
 136      3C9B7880 
 137 0089 4E0834E5 		.ascii	"N\0104\345+\307\3650u\006\232\325\037\246E\346k\255"
 137      2BC7F530 
 137      75069AD5 
 137      1FA645E6 
 137      6BAD
 138 009b C75F3F61 		.ascii	"\307_?a\236\233\3237\370g\034\003\021\304A\026T\006"
 138      9E9BD337 
 138      F8671C03 
 138      11C44116 
 138      5406
 139 00ad 9D96050A 		.ascii	"\235\226\005\012fR\373\\Y,\337e\316\032\234\023\301"
 139      6652FB5C 
 139      592CDF65 
 139      CE1A9C13 
 139      C1
 140 00be 51D4D381 		.ascii	"Q\324\323\201\015Y\230\3737Xs\367\333:\004]\333\212"
 140      0D5998FB 
 140      375873F7 
 140      DB3A045D 
 140      DB8A
 141 00d0 E3FE08AE 		.ascii	"\343\376\010\256\242\201\256\200\363\315_O\346\006\257"
 141      A281AE80 
 141      F3CD5F4F 
 141      E606AF
 142 00df B4B8C1BF 		.ascii	"\264\270\301\277\305j\004\217RX`a\350F/\304-\250\377"
 142      C56A048F 
 142      52586061 
 142      E8462FC4 
 142      2DA8FF
 143 00f2 23B8A6B8 		.ascii	"#\270\246\270\025\307o\277\007yP\004_\351\340H\310\270"
 143      15C76FBF 
 143      07795004 
 143      5FE9E048 
 143      C8B8
 144 0104 146209C3 		.ascii	"\024b\011\303\344\351\035_\202\312H\320\242\036\315"
 144      E4E91D5F 
 144      82CA48D0 
 144      A21ECD
 145 0113 30378642 		.ascii	"07\206B,\312q\210\233\022\215\212\214\242D}wE\370zv"
 145      2CCA7188 
 145      9B128D8A 
 145      8CA2447D 
 145      7745F87A 
 146 0128 46C5B69E 		.ascii	"F\305\266\236\237\323\364\346\217\367\371\024\271d0"
 146      9FD3F4E6 
 146      8FF7F914 
 146      B96430
 147 0137 76C96B73 		.ascii	"v\311ks\207Ix\226\305l\031\206\246\002\034\241efnnW"
 147      87497896 
 147      C56C1986 
 147      A6021CA1 
ARM GAS  /tmp/ccRV1ReY.s 			page 11


 147      65666E6E 
 148 014c 2304D769 		.ascii	"#\004\327i\241\306\\\210\220\275L;<\253\263\\\325\024"
 148      A1C65C88 
 148      90BD4C3B 
 148      3CABB35C 
 148      D514
 149 015e EA8E72A6 		.ascii	"\352\216r\246\217\222^\207X\325\035\023\255\323\243"
 149      8F925E87 
 149      58D51D13 
 149      ADD3A3
 150 016d 8FB5FE10 		.ascii	"\217\265\376\020+\262\0242]\026\234\332\323\365(\034"
 150      2BB21432 
 150      5D169CDA 
 150      D3F5281C 
 151 017d DA1831B6 		.ascii	"\332\0301\266\356-\034h\333J\015m\177\200\346Z1\206"
 151      EE2D1C68 
 151      DB4A0D6D 
 151      7F80E65A 
 151      3186
 152 018f 9435A4DA 		.ascii	"\2245\244\332\206\336|F\327\216\014\313\035\353H\244"
 152      86DE7C46 
 152      D78E0CCB 
 152      1DEB48A4 
 153 019f BED4EF23 		.ascii	"\276\324\357#\304mc\311\251hb\331\334\251\213Zb\324"
 153      C46D63C9 
 153      A96862D9 
 153      DCA98B5A 
 153      62D4
 154 01b1 D56C22F2 		.ascii	"\325l\"\362ZHz\216\322\252\344|.B\257\325\346\343\021"
 154      5A487A8E 
 154      D2AAE47C 
 154      2E42AFD5 
 154      E6E311
 155 01c4 F2A252D2 		.ascii	"\362\242R\322\3206\2610\021\245\253=j\365\331\372\356"
 155      D036B130 
 155      11A5AB3D 
 155      6AF5D9FA 
 155      EE
 156 01d5 3B2721F6 		.ascii	";'!\366\222\237\000k\345\244=\350\360\376\363?\256\350"
 156      929F006B 
 156      E5A43DE8 
 156      F0FEF33F 
 156      AEE8
 157 01e7 609ABA90 		.ascii	"`\232\272\220\210\370\025\335\261H_Mu3\322\223\034\230"
 157      88F815DD 
 157      B1485F4D 
 157      7533D293 
 157      1C98
 158 01f9 CAA75BED 		.ascii	"\312\247[\355\013I\245\372\244@\263\333\227\254\263"
 158      0B49A5FA 
 158      A440B3DB 
 158      97ACB3
 159 0208 BECE05B9 		.ascii	"\276\316\005\271\346\341\274\244\231\326\263\207\031"
 159      E6E1BCA4 
 159      99D6B387 
 159      19
 160 0215 FB3A8852 		.ascii	"\373:\210Ro\375e\333\270\331\011\"\024\252@\273(\302"
ARM GAS  /tmp/ccRV1ReY.s 			page 12


 160      6FFD65DB 
 160      B8D90922 
 160      14AA40BB 
 160      28C2
 161 0227 40C2E119 		.ascii	"@\302\341\031\216WTkm\036J(\354(\212U9\323\227\353W"
 161      8E57546B 
 161      6D1E4A28 
 161      EC288A55 
 161      39D397EB 
 162 023c C62F1E2B 		.ascii	"\306/\036+\023\312\336d8qi\334/M\216\215\235\237\370"
 162      13CADE64 
 162      387169DC 
 162      2F4D8E8D 
 162      9D9FF8
 163 024f 03955C13 		.ascii	"\003\225\\\023\351"
 163      E9
 164              		.text
 165              		.section	.gnu.lto_gpsRxChar.7a37c4dc3dcc898e,"",%progbits
 166 0000 789C9592 		.ascii	"x\234\225\222?h\024A\024\306\3377\263\273\271\275\277"
 166      3F681441 
 166      14C6DF37 
 166      B3BBB9BD 
 166      BF
 167 0011 22A4B088 		.ascii	"\"\244\260\210\204\330\010\242\266\351\254\265\023\022"
 167      84D808A2 
 167      B6E9ACB5 
 167      1312
 168 001f D0C262EF 		.ascii	"\320\302b\3574\313\026'\242XYd.\233\" \204C\273XxAN"
 168      34CB1627 
 168      A2585964 
 168      2E9B2220 
 168      8443BB58 
 169 0036 240A968A 		.ascii	"$\012\226\212XD\020\024D\305hu\202\034\004\024\021\344"
 169      58441014 
 169      44C56875 
 169      821C0414 
 169      11E4
 170 0048 BA4814CF 		.ascii	"\272H\024\317\367fv\317\304\312\014\354\233\2317o\277"
 170      F76676CF 
 170      C4CA0CEC 
 170      9B99376F 
 170      BF
 171 0059 EF377F14 		.ascii	"\3577\177\024)\372\267\235\342\357\274&\252q\2171\202"
 171      29FAB79D 
 171      E2EFBC26 
 171      AA718F31 
 171      82
 172 006a 6ABF216A 		.ascii	"j\277!j\025\224\322\203q2E\2573M\246\254\021H\032\236"
 172      1594D283 
 172      713245AF 
 172      334DA6AC 
 172      11481A9E 
 173 007e 0A9E1EE4 		.ascii	"\012\236\036\344\254\377\3418g}\227m\025\002@\006\004"
 173      ACFFE138 
 173      677D976D 
 173      15024006 
 173      04
ARM GAS  /tmp/ccRV1ReY.s 			page 13


 174 008f 9A57DAF3 		.ascii	"\232W\332\363\003\314\237\205hc\212V\215\271\321\357"
 174      03CC9F85 
 174      68638A56 
 174      8DB9D1EF 
 175 009f DE5E3E60 		.ascii	"\336^>`:\013m\363{8D\002\246\010A\015\320\031\236`\322"
 175      3A0B6DF3 
 175      7B384402 
 175      A608410D 
 175      D0199E60 
 176 00b4 76CADB8D 		.ascii	"v\312\333\215\365P\255\367\207\303_\217\0267&\366\003"
 176      F550ADF7 
 176      87C35F8F 
 176      163726F6 
 176      03
 177 00c5 4DFE8703 		.ascii	"M\376\207\003|J\240C\016^QB\211\203_\246\010\253\354"
 177      7C4AA043 
 177      0E5E5142 
 177      89835FA6 
 177      08ABEC
 178 00d8 54914C95 		.ascii	"T\221L\225\203\252q\020\015\237\026\215iO\222Xq\233"
 178      83AA7110 
 178      0D9F168D 
 178      694F9258 
 178      719B
 179 00ea E12898B3 		.ascii	"\341(\230\263P\322\353\227\364\374\313\263\233/t\204"
 179      50D2EB97 
 179      F4FCCBB3 
 179      9B2F7484 
 180 00fa 3B2C1C43 		.ascii	";,\034C\011GP\334\0011\013M\203q\375\226\322\202+\""
 180      094750DC 
 180      01310B4D 
 180      8371FD96 
 180      D2822B22 
 181 010e BA46DB66 		.ascii	"\272F\333f\311\354K0\326\200Ue\257B^\355QgZ\277\246"
 181      C9EC4B30 
 181      D6805565 
 181      AF425EED 
 181      51675ABF 
 182 0123 856FE9E6 		.ascii	"\205o\351\346\362\341\\\326ge\"\316\366~|\252dH\216"
 182      F2E15CD6 
 182      676522CE 
 182      F67E7CAA 
 182      64488E
 183 0136 3827345C 		.ascii	"8'4\\M\344\352\033\260W\024#<Bk\306\230\365\255f\202"
 183      4DE4EA1B 
 183      B0571423 
 183      3C426BC6 
 183      98F5AD66 
 184 014b F016ADB4 		.ascii	"\360\026\255\264\214\270\026G\376\245\246\255\024\346"
 184      8CB81647 
 184      FEA5A6AD 
 184      14E6
 185 0159 92B5AF0B 		.ascii	"\222\265\257\013N\204\273\026\223xs\237[\265\010]\313"
 185      4E84BB16 
 185      9378739F 
 185      5BB5085D 
 185      CB
ARM GAS  /tmp/ccRV1ReY.s 			page 14


 186 016a 104A5978 		.ascii	"\020JYxz\327\326|\2727%\260\275\307+\023\243\223\312"
 186      7AD7D67C 
 186      BA3725B0 
 186      BDC72B13 
 186      A393CA
 187 017d 80B63621 		.ascii	"\200\2666!Z]\013\244\035P1\003z\377\025\377MdU\356;"
 187      5A5D0BA4 
 187      1D503103 
 187      7AFF15FF 
 187      4D6455EE 
 188 0192 22B6FA9E 		.ascii	"\"\266\372\236>A\2045\213TbE\233\334N\331-\007-\213"
 188      3E418435 
 188      8B546245 
 188      9BDC4ED9 
 188      2D072D8B 
 189 01a6 1A9B6CB0 		.ascii	"\032\233l\260H\371(=\340\2619\227\240\342\274\315\211"
 189      48F9283D 
 189      E0B13997 
 189      A0E2BCCD 
 189      89
 190 01b7 045576A9 		.ascii	"\004Uv\251\213Q&\034;\263l\266\303-]J\177~\324\271p"
 190      8B51261C 
 190      3BB36CB6 
 190      C32D5D4A 
 190      7F7ED4B9 
 191 01cc 253F0438 		.ascii	"%?\0048\224\223n\341\257\356\236\317\2305\263M]\314"
 191      94936EE1 
 191      AFEE9ECF 
 191      9835B34D 
 191      5DCC
 192 01de 4DAA6C62 		.ascii	"M\252lb\255\257\217|k\274'^\260\225\257\006\331\205"
 192      ADAF8F7C 
 192      6BBC275E 
 192      B095AF06 
 192      D985
 193 01f0 8CAC3417 		.ascii	"\214\2544\027\210\272\273\223\330\241\313\345\004\366"
 193      88BABB93 
 193      D8A1CBE5 
 193      04F6
 194 01fe 85BEA356 		.ascii	"\205\276\243V\277w(\177z\256\315\360\241\362\232p\005"
 194      BF77287F 
 194      7AAECDF0 
 194      A1F29A70 
 194      05
 195 020f F1A52BC7 		.ascii	"\361\245+\307\032\024\324\257\316\315]\270\374\007\272"
 195      1A14D4AF 
 195      CECD5DB8 
 195      FC07BA
 196 021e 79D4D8   		.ascii	"y\324\330"
 197              		.text
 198              		.section	.gnu.lto_gpsParseNMEAType.part.1.7a37c4dc3dcc898e,"",%progbits
 199 0000 789C8D94 		.ascii	"x\234\215\224=h\024A\030\206\337o\376vw\356\012\013"
 199      3D681441 
 199      1886DF6F 
 199      FE7677EE 
 199      0A0B
 200 0012 11537804 		.ascii	"\021Sx\004-TP\203\"66\036\004\242pV\271\210\332h8\303"
ARM GAS  /tmp/ccRV1ReY.s 			page 15


 200      2D545083 
 200      2236361E 
 200      04A27056 
 200      B988DA68 
 201 0028 71859210 		.ascii	"q\205\222\020\013\305\"\023r\206\004\233 \212Z\010\006"
 201      0BC52213 
 201      7286049B 
 201      208A5A08 
 201      06
 202 0039 23368285 		.ascii	"#6\202\205\205\215\205\305\025\026\376 \244I!\\\021"
 202      858D85C5 
 202      1516FE20 
 202      A449215C 
 202      11
 203 004a B551ACE3 		.ascii	"\265Q\254\343\017\347|\263\227;\177\016\366\026\366"
 203      0FE77CB3 
 203      973B7F0E 
 203      F616F6
 204 0059 FDDE7767 		.ascii	"\375\336wg\346{f\212Y\001\201\177\237[\376=\257\200"
 204      E67B668A 
 204      5901817F 
 204      9F5BFE3D 
 204      AF80
 205 006b 23BE521E 		.ascii	"#\276R\036\224[z\353M\216D\250B\330\027\0058+W\207\340"
 205      945B7AEB 
 205      4D8E44A8 
 205      42D81705 
 205      382B5787 
 206 0080 F2B29D54 		.ascii	"\362\262\235THJ\330'\207}\322\353\003>\351v2!\231v\212"
 206      484AD827 
 206      877DD2EB 
 206      033EE976 
 206      32219976 
 207 0095 428ADA29 		.ascii	"B\212\332)\016)\026va\267O\011k>!\313\244\331\330\022"
 207      0E291676 
 207      61B74F09 
 207      6B3E21CB 
 207      A4D9D812 
 208 00a9 B1016126 		.ascii	"\261\001a&'\244\322&\212\023K3g\210wI;\261\354\334\315"
 208      27A4D226 
 208      8A134B33 
 208      67887749 
 208      3BB1ECDC 
 209 00be E6C7E76B 		.ascii	"\346\307\347kt\317\275\254?p?[-\242\032\371\023%\204"
 209      74CFBDAC 
 209      3F703F5B 
 209      2DA21AF9 
 209      132584
 210 00d1 0AE1B40F 		.ascii	"\012\341\264\0174\030\212P\177\037\361\251p\315Vk\343"
 210      34188A50 
 210      7F1FF1A9 
 210      70CD566B 
 210      E3
 211 00e2 539227BA 		.ascii	"S\222'\272\310+\306i\3317\224\250\221T,\232\305\260"
 211      C82BC669 
 211      D93794A8 
 211      91542C9A 
ARM GAS  /tmp/ccRV1ReY.s 			page 16


 211      C5B0
 212 00f4 442C314B 		.ascii	"D,1K\302b\275p3\215\272sK\203\351:0\316?e\257\274\343"
 212      C262BD70 
 212      338DBA73 
 212      4B83E93A 
 212      30CE3F65 
 213 010b 32E5B8CA 		.ascii	"2\345\270\3121\022\241\276\301\334\215\271gw\366\216"
 213      3112A1BE 
 213      C1DC8DB9 
 213      6777F68E 
 214 011b D343D2A8 		.ascii	"\323C\322\250\222\250\022\205mI\277\350\035\346\233"
 214      92A81285 
 214      6D49BFE8 
 214      1DE69B
 215 012a 5FAFDBCD 		.ascii	"_\257\333\3151y\015\337\335\202\333R#]\241\320\225\027"
 215      31790DDF 
 215      DD82DB52 
 215      235DA1D0 
 215      9517
 216 013c F0C7ED35 		.ascii	"\360\307\35552\005l\275\357\356\036\253Q\204tA8^\314"
 216      32056CBD 
 216      EFEE1EAB 
 216      51847441 
 216      385ECC
 217 014f 1B4F8057 		.ascii	"\033O\200Wh|\236=\330\351\304C\362\317c\217\371\270"
 217      687C9E3D 
 217      D8E9C443 
 217      F2CF638F 
 217      F9B8
 218 0161 3A2499F8 		.ascii	":$\231\370\355Qns\236\312 \016d\021\217v:\365 *,\356"
 218      ED516E73 
 218      9ECA200E 
 218      64118F76 
 218      3AF5202A 
 219 0177 08C48D2E 		.ascii	"\010\304\215.Qg\020\013}\023u\017\242\306\353$\020\177"
 219      5167100B 
 219      7D13750F 
 219      A2C6EB24 
 219      107F
 220 0189 74892683 		.ascii	"t\211&\203\270\253o\242\351A4\270-\003\361W\227\030"
 220      B8AB6FA2 
 220      E94134B8 
 220      2D03F157 
 220      9718
 221 019b 6510F7F4 		.ascii	"e\020\367\364M\214z\020#\314S \266\272\3048\203\270"
 221      4D8C7A10 
 221      23CC5320 
 221      B6BAC438 
 221      83B8
 222 01ad BF6F62DC 		.ascii	"\277ob\334\203\030c_\000.>\356\000\223\014\340\241\276"
 222      8318635F 
 222      002E3EEE 
 222      00930CE0 
 222      A1BE
 223 01bf 81C97FC0 		.ascii	"\201\311\177\300\262\237\264\315_ \033.\320{\3777\340"
 223      B29FB4CD 
 223      5F201B2E 
ARM GAS  /tmp/ccRV1ReY.s 			page 17


 223      D07BFF37 
 223      E0
 224 01d0 E69687D6 		.ascii	"\346\226\207\326`y\272\277\205\342\313\207|\260\004"
 224      6079BABF 
 224      85E2CB87 
 224      7CB004
 225 01df 593F179C 		.ascii	"Y?\027\234\200ZI\235\204n\244N\301\254\247N#\252O\005"
 225      805A499D 
 225      846EA44E 
 225      C1ACA74E 
 225      23AA4F05 
 226 01f3 6710AFA4 		.ascii	"g\020\257\244.B\322\230b 1\212\177\207\246:9}\240\002"
 226      2E42D298 
 226      6220318A 
 226      7F87A63A 
 226      397DA002 
 227 0207 3B7DF9EA 		.ascii	";}\371\352\344\304\211K\027&\256\250b\351$\324\310H"
 227      E4C4894B 
 227      1726AEA8 
 227      62E924D4 
 227      C848
 228 0219 D14BA9E4 		.ascii	"\321K\251\344e\224\335\350)\250\343\303e\250\263\303"
 228      6594DDE8 
 228      29A8E3C3 
 228      65A8B3C3 
 229 0229 45FC064C 		.ascii	"E\374\006L\312\014\331"
 229      CA0CD9
 230              		.text
 231              		.section	.gnu.lto_gpsStart.7a37c4dc3dcc898e,"",%progbits
 232 0000 789C9551 		.ascii	"x\234\225Q=K\003A\020}o\366.w\211\026\026\376\000k\003"
 232      3D4B0341 
 232      107D6FF6 
 232      2E778916 
 232      16FE006B 
 233 0015 82F8570C 		.ascii	"\202\370W\014hi\256\010W\004\004\261\020\213l$\202e"
 233      6869AE08 
 233      570404B1 
 233      108B6C24 
 233      8265
 234 0027 6A6DB455 		.ascii	"jm\264U\211\330\005l\024,4~a!~\025\246\263\261\261\023"
 234      89D8056C 
 234      142C347E 
 234      61217E15 
 234      A6B3B1B1 
 235 003c 9BB8B377 		.ascii	"\233\270\263wI\241\225\003\2733;\373\346\275\307\256"
 235      49A19503 
 235      BB333BFB 
 235      E6BDC7AE 
 236 004c 40F03BE6 		.ascii	"@\360;\346\334\272\"\020\273\314\020\224\366-\320\214"
 236      DCBA2210 
 236      BBCC1094 
 236      F62DD08C 
 237 005c 458263C2 		.ascii	"E\202c\302\226\314\3335`\307\015\203\254\037\220Z\200"
 237      96CCDB35 
 237      60C70D83 
 237      AC1F905A 
 237      80
ARM GAS  /tmp/ccRV1ReY.s 			page 18


 238 006d 688809D8 		.ascii	"h\210\011\330X\244g9\222\323\376`\320y\352\355\236P"
 238      58A46739 
 238      92D3FE60 
 238      D079EAED 
 238      9E50
 239 007f 8A444A18 		.ascii	"\212DJ\030\326\211\310U\212\010\321\262\266=\005$\036"
 239      D689C855 
 239      8A08D1B2 
 239      B63D0524 
 239      1E
 240 0090 3FEF76A5 		.ascii	"?\357v\245\251P4\233\013\234\277\237\275\366\314\022"
 240      A950349B 
 240      0B9CBF9F 
 240      BDF6CC12 
 241 00a0 F79C871A 		.ascii	"\367\234\207\032\315\002\263\271QTh\340\254\230\033"
 241      CD02B3B9 
 241      515468E0 
 241      AC981B
 242 00af 6C5C7D1D 		.ascii	"l\\}\035\\J\206,c\337\272\230u\340\035l7\255\235H)\353"
 242      5C4A862C 
 242      63DFBA98 
 242      75E01D6C 
 242      37AD9D48 
 243 00c5 F8B65B5A 		.ascii	"\370\266[Z\231\272\347P.\343I\2529eM\317wh\365\273\233"
 243      99BAE750 
 243      2EE349AA 
 243      39654DCF 
 243      7768F5BB 
 244 00da 63191130 		.ascii	"c\031\0210\232\012\222\\Y;q\3120\027YMYp\204\325\374"
 244      9A0A925C 
 244      593B71CA 
 244      3017594D 
 244      597084D5 
 245 00ef 369F4B19 		.ascii	"6\237K\031\001\316\324K\267\363\311\241\375\250\214"
 245      01CED44B 
 245      B7F3C9A1 
 245      FDA88C
 246 00fe E97F5A52 		.ascii	"\351\177ZR?\341\037/qB\311\035GY\323\256\245,\326)#"
 246      3FE11F2F 
 246      7142C91D 
 246      4759D3AE 
 246      A52CD629 
 247 0113 F9D2F07D 		.ascii	"\371\322\360}\002\377\222\367\356\217\024\356i\237A"
 247      02FF92F7 
 247      EE8F14EE 
 247      699F41
 248 0122 55C26018 		.ascii	"U\302`\030l\310\307C\354{\2009|\234\324\257\240\016"
 248      6CC8C743 
 248      EC7B8039 
 248      7C9CD4AF 
 248      A00E
 249 0134 AA4CA1B6 		.ascii	"\252L\241\266\2742\223\340\007\225/x\006"
 249      BC3293E0 
 249      07952F78 
 249      06
 250              		.text
 251              		.section	.gnu.lto_gpsStop.7a37c4dc3dcc898e,"",%progbits
ARM GAS  /tmp/ccRV1ReY.s 			page 19


 252 0000 789C5D8E 		.ascii	"x\234]\216\261\016\001A\030\204g\376u\242\324*$j\022"
 252      B10E0141 
 252      188467FE 
 252      75A2D42A 
 252      246A12
 253 0013 2F838492 		.ascii	"/\203\204\222+.[H$J\205=Q(U\"4\024Z\012/\240Q\211\023"
 253      2B2E5B48 
 253      244A853D 
 253      51285522 
 253      34145A0A 
 254 002c ADEA5AAF 		.ascii	"\255\352Z\257\2409\273w\256\261\311\354\356\237\177"
 254      A039BB77 
 254      AEB1C9EC 
 254      EE9F7F
 255 003b E6CB0804 		.ascii	"\346\313\010\004\377\247bu\265*YQ\201\262\214\200\260"
 255      FFA76275 
 255      B52A5951 
 255      81B28C80 
 255      B0
 256 004c 24A4FB80 		.ascii	"$\244\373\200\230\012\247=\246\336\223\\\342$9\256n"
 256      980AA73D 
 256      A6DE935C 
 256      E22439AE 
 256      6E
 257 005d BB88E209 		.ascii	"\273\210\342\011\207\204\202Nw\036\346\306,k\200\237"
 257      8784824E 
 257      771EE6C6 
 257      2C6B809F 
 258 006d 8E6D7BBB 		.ascii	"\216m{\273|\207\342^u\307\354\265>\277\331\347\236\036"
 258      7C87E25E 
 258      75C7ECB5 
 258      3EBFD9E7 
 258      9E1E
 259 007f 02AA06EA 		.ascii	"\002\252\006\3526\270\305&4\306\2644\031P\272\324\314"
 259      36B8C526 
 259      34C6B434 
 259      1950BAD4 
 259      CC
 260 0090 0A0E98D7 		.ascii	"\012\016\230\327{`~\251f)`\202\217Y\230\262\246\362"
 260      7B607EA9 
 260      66296082 
 260      8F5998B2 
 260      A6F2
 261 00a2 99392C49 		.ascii	"\2319,I\263\000<\021\306\367\303\017\3578^\016h[\247"
 261      B3003C11 
 261      C6F7C30F 
 261      EF385E0E 
 261      685BA7
 262 00b5 6DE0B8C5 		.ascii	"m\340\270\305`4n\372\370\002\343y1g"
 262      60346EFA 
 262      F802E379 
 262      3167
 263              		.text
 264              		.section	.gnu.lto_gpsParseNMEAType.7a37c4dc3dcc898e,"",%progbits
 265 0000 789C5D91 		.ascii	"x\234]\221=K\003A\020\206\337\331\217\273K<\3212\202"
 265      3D4B0341 
 265      1086DFD9 
ARM GAS  /tmp/ccRV1ReY.s 			page 20


 265      8FBB4B3C 
 265      D13282
 266 0013 88859D60 		.ascii	"\210\205\235`\345\017\320\312\326\302\200\226r\305q"
 266      E50FD0CA 
 266      D6C28096 
 266      72C571
 267 0022 8520585A 		.ascii	"\205 XZdc\"\0106\001\213\004\203\240X\032\264\027\013"
 267      64632208 
 267      36018B04 
 267      83A0581A 
 267      B4170B
 268 0035 058B03D1 		.ascii	"\005\213\003\321`ig!X\213\235\010q\346r\027\324\205"
 268      60696721 
 268      588B9D08 
 268      71E67217 
 268      D485
 269 0047 9DD9D999 		.ascii	"\235\331\331\231yffWA\341\377Z\346\335! dM\036H\265"
 269      79666657 
 269      41E1FF5A 
 269      E6DD2120 
 269      644D1E48 
 270 005c 9E807AA0 		.ascii	"\236\200z\240\224NC\270\262M\357\000\027je\336\246\304"
 270      944E43B8 
 270      B24DEF00 
 270      176A65DE 
 270      A6C4
 271 006e EC2DB265 		.ascii	"\354-\262e\310J\024Y\"\321 \324\2246\226j\033\2241\257"
 271      C84A1459 
 271      22D120D4 
 271      9436966A 
 271      1B9431AF 
 272 0082 D4EDEB60 		.ascii	"\324\355\353`py\363p\332%\035\020\022\202\246-\202\341"
 272      7079F370 
 272      DA251D10 
 272      1282A62D 
 272      82E1
 273 0094 135916CA 		.ascii	"\023Y\026\312c\241}q\360\262h:\327\232\005\242\314\\"
 273      63A17D71 
 273      F0B2683A 
 273      D79A05A2 
 273      CC5C
 274 00a6 6329D82A 		.ascii	"c)\330*)\321\372\021{\327\373\347\355\371M:\343\344"
 274      29D1FA11 
 274      7BD7FBE7 
 274      EDF94D3A 
 274      E3E4
 275 00b8 984C17C7 		.ascii	"\230L\027\307\304\240\230\364:k\223\017\222\342\376"
 275      C4A098F4 
 275      3A6B930F 
 275      92E2FE
 276 00c7 BD3E310A 		.ascii	"\275>1\012\022\227\235\3735h\2254\322\220i\215\303\306"
 276      12979DFB 
 276      35689534 
 276      D290698D 
 276      C3C6
 277 00d9 457BBA08 		.ascii	"E{\272\010\2649\306\223\332}x\305\275\267\213/w\340"
 277      B439C693 
ARM GAS  /tmp/ccRV1ReY.s 			page 21


 277      DA7D78C5 
 277      BDB78B2F 
 277      77E0
 278 00eb 2613F223 		.ascii	"&\023\362#\032\216\305\301rYI(\230A\351\304u\226\022"
 278      1A8EC5C1 
 278      72594928 
 278      9841E9C4 
 278      759612
 279 00fe 2A619800 		.ascii	"*a\230\000a\224\025O4\226\267R\032\221\304\245\361\247"
 279      6194154F 
 279      3496B752 
 279      1A91C4A5 
 279      F1A7
 280 0110 158323A3 		.ascii	"\025\203#\243\373h\006E\220?*\027F\244\362r:\241\361"
 280      FB680645 
 280      903F2A17 
 280      46A4F272 
 280      3AA1F1
 281 0123 22C3666F 		.ascii	"\"\303fo\361\314_#\236\254\241\027\220\240\021@\365"
 281      F1CC5F23 
 281      9EACA117 
 281      90A01140 
 281      F5
 282 0134 3E036698 		.ascii	">\003f\230\241\355C\177\177T\344!I\222\204\346\305\333"
 282      A1ED437F 
 282      7F54E421 
 282      499284E6 
 282      C5DB
 283 0146 3B0B11F4 		.ascii	";\013\021\364\312*~\000S\024]D"
 283      CA2A7E00 
 283      53145D44 
 284              		.text
 285              		.section	.gnu.lto_gpsParseFix.7a37c4dc3dcc898e,"",%progbits
 286 0000 789CAD57 		.ascii	"x\234\255WKlTU\030\376\377s\357\235\2713w\332y\017m"
 286      4B6C5455 
 286      18FEFF73 
 286      EF9DB933 
 286      77DA790F 
 287 0015 C1221091 		.ascii	"\301\"\020\221\204R\221TR[b|,\330\231\230H\002\313R"
 287      84529154 
 287      525B627C 
 287      2CD89998 
 287      4802CB52 
 288 0029 6432F101 		.ascii	"d2\361\001\001\232\030Y\364\226\226\244\011 \005\027"
 288      019A1859 
 288      F49696A4 
 288      09200517 
 289 0039 56851452 		.ascii	"V\205\024R\240JH\024]Xu\301\324\250\261\002VwL\354\202"
 289      A04A4814 
 289      5D5875C1 
 289      D4A8B102 
 289      56774CEC 
 290 004e 10251A88 		.ascii	"\020%\032\2101lh\312c\374\317\353\336;S\240%\355Y\374"
 290      316C68CA 
 290      63FCCFEB 
 290      DE3B53A0 
 290      25ED59FC 
ARM GAS  /tmp/ccRV1ReY.s 			page 22


 291 0062 E7F1BFBE 		.ascii	"\347\361\277\276\363\235s\317\374\303\200Au[\215\000"
 291      F39D73CF 
 291      FCC38041 
 291      755B8D00 
 292 0072 9BE3002B 		.ascii	"\233\343\000+i\214\213\000\331\300\257\000=6c\271\001"
 292      698C8B00 
 292      D9C0AF00 
 292      3D3663B9 
 292      01
 293 0083 03DCA8E1 		.ascii	"\003\334\250\341^\004pc\006f\370:\232h\361~\314\266"
 293      5E047063 
 293      0666F83A 
 293      9A68F17E 
 293      CCB6
 294 0095 58E84FAE 		.ascii	"X\350O\256\211\332\347\030\351C,\034\234\206\231\371"
 294      89DAE718 
 294      E9432C1C 
 294      9C8699F9 
 295 00a5 C3B8985E 		.ascii	"\303\270\230^2ij\333\251k\021p\355\210\2205B\326\012"
 295      32696ADB 
 295      A96B1170 
 295      ED889035 
 295      42D60A
 296 00b8 19173221 		.ascii	"\031\0272!dZ\310\244\264d\321\376\247\311\337\3412\026"
 296      645AC8A4 
 296      B464D1FE 
 296      A7C9DFE1 
 296      3216
 297 00ca C59844E5 		.ascii	"\305\230D\345\350A\014\323rP\243\007\265z\020\327\203"
 297      E8410CD3 
 297      7250A307 
 297      B57A10D7 
 297      83
 298 00db 841E24F5 		.ascii	"\204\036$\365 \245\007i\271\2351;\303\262\237\376\304"
 298      20A50769 
 298      B99D313B 
 298      C3B29FFE 
 298      C4
 299 00ec 81E6FE0E 		.ascii	"\201\346\376\016S\242\254\334\036\346\020y\017\010\335"
 299      53A2ACDC 
 299      1EE61079 
 299      0F08DD
 300 00fb CC30AD50 		.ascii	"\3140\255P\330\216D\235XMm<\221L\2453\331\034voAN\236"
 300      D88E449D 
 300      584D6D3C 
 300      914CA533 
 300      D91C766F 
 301 0112 B91C4EBA 		.ascii	"\271\034N\272\356\321\253\177M\377\203\037\272\305\236"
 301      EED1AB7F 
 301      4DFF831F 
 301      BAC59E
 302 0121 13EEDD72 		.ascii	"\023\356\335r\031\261\200Dt\004\241\023a3M\320\026\035"
 302      19B18044 
 302      7404A113 
 302      61334DD0 
 302      161D
 303 0133 C34AE6B9 		.ascii	"\303J\346\271oq\240X:|\010\335\023\373\006\334\373\344"
ARM GAS  /tmp/ccRV1ReY.s 			page 23


 303      6F71A058 
 303      3A7C08DD 
 303      13FB06DC 
 303      FBE4
 304 0145 5A408381 		.ascii	"Z@\203\201\343{\366\313\236%g\272\272G\213\177L\274"
 304      E37BF6CB 
 304      9E2567BA 
 304      BA478B7F 
 304      4CBC
 305 0157 BFC8BDEA 		.ascii	"\277\310\275\352jWJ\232\232KR\362\234\234p\276p\373"
 305      6A574A9A 
 305      9A4B52F2 
 305      9C9C70BE 
 305      70FB
 306 0169 DD72B95B 		.ascii	"\335r\271[\270\345fs\373\234\025\257\226\3137\357\364"
 306      B8E56673 
 306      FB9C15AF 
 306      96CB37EF 
 306      F4
 307 017a FDF2EA0B 		.ascii	"\375\362\352\013\010\035x\022\227\223[\007\236\246\336"
 307      081D7812 
 307      97935B07 
 307      9EA6DE
 308 0189 50BD49FD 		.ascii	"P\275I\375\010\365\026\024\320t\360m\204\030\215\254"
 308      08F51614 
 308      D074F06D 
 308      84188DAC 
 309 0199 5A12A138 		.ascii	"Z\022\2418\011\226 \021N\222\260S\3124\315u\031\345"
 309      09962011 
 309      4E92B053 
 309      CA34CD75 
 309      19E5
 310 01ab 9FE3933A 		.ascii	"\237\343\223:5\251W}\203\262\\\314\335\226PPl\344\243"
 310      35A9577D 
 310      83B25CCC 
 310      DD965050 
 310      6CE4A3
 311 01be 655CACE0 		.ascii	"e\\\254\340b%\027\253\270h\"\021i&\021]\313\305:.Z\270"
 311      622517AB 
 311      B8682211 
 311      6926115D 
 311      CBC53A2E 
 312 01d4 584FC269 		.ascii	"XO\302i%\021kSQ\333\325\0266\250\236\232\005}\256;\360"
 312      25116B53 
 312      51DBD516 
 312      36A89E9A 
 312      057DAE3B 
 313 01e9 A49C77E0 		.ascii	"\244\234w\340\260\220\247\205\034\021\026\235\202\222"
 313      B090A785 
 313      1C11169D 
 313      8292
 314 01f7 D749F621 		.ascii	"\327I\366!lBF\235q\031z\017\364\016\017-\355\300\317"
 314      6C42469D 
 314      71197A0F 
 314      F40E0F2D 
 314      EDC0CF
 315 020a D0823CC6 		.ascii	"\320\202<\306\362\350\010\372\0142\235\200\220^\257"
ARM GAS  /tmp/ccRV1ReY.s 			page 24


 315      F2E808FA 
 315      0C329D80 
 315      905EAF
 316 0219 DD0BD344 		.ascii	"\335\013\323Dw\242\2005\235(\251%c\276XW\300\332FX~"
 316      77A28035 
 316      9D28A925 
 316      63BE5857 
 316      C0DA4658 
 317 022e DC1D7CB1 		.ascii	"\334\035|\261\200q\220\016\342\010\022\006!\246s\377"
 317      8071900E 
 317      E2081206 
 317      21A673FF 
 318 023e 19FA6EF6 		.ascii	"\031\372n\366\304\275H\\\025\012\036\315&4\240L\207"
 318      C4BD485C 
 318      150A1ECD 
 318      2634A04C 
 318      87
 319 024f 0025D8C0 		.ascii	"\000%\330\300\225ti\331\335{o\225\240M\314\302\300&"
 319      957469D9 
 319      DD7B6F95 
 319      A04DCCC2 
 319      C026
 320 0261 EFEDE166 		.ascii	"\357\355\341f&\014\376\010\034r\177\357\235\241V\035"
 320      260CFE08 
 320      1C727FEF 
 320      9DA1561D 
 321 0271 30954753 		.ascii	"0\225GS\271\001\\\206}\377\366\356\322\2524\251\370"
 321      B9015C86 
 321      7DFFF6EE 
 321      D2AA34A9 
 321      F8
 322 0282 1A39DC62 		.ascii	"\0329\334bz1\223G\026\264\037\037P\330\326\3009\227"
 322      7A319347 
 322      16B41F1F 
 322      50D8D6C0 
 322      3997
 323 0294 DAF37412 		.ascii	"\332\363t\022\222>\012\240 \3461\251\261Z@\037\026\212"
 323      923E0AA0 
 323      20E631A9 
 323      B15A401F 
 323      168A
 324 02a6 3C378656 		.ascii	"<7\206V\353\240q\012*2\0350\364R\202\250$\205\310\361"
 324      EBA0710A 
 324      2A321D30 
 324      F45282A8 
 324      2485C8F1 
 325 02ba EDFEEBA8 		.ascii	"\355\376\353\250\327\223\237\300\307\224\336&\013\016"
 325      D7939FC0 
 325      C794DE26 
 325      0B0E
 326 02c8 23AC5254 		.ascii	"#\254RT\262\224\344\252T\223\307Q\011X\036\353\262H"
 326      B294E4AA 
 326      5493C751 
 326      09581EEB 
 326      B248
 327 02da F0CD9BE5 		.ascii	"\360\315\233\345\377X\011\314<6\360y\312\354\017s\\"
 327      FF5809CC 
ARM GAS  /tmp/ccRV1ReY.s 			page 25


 327      3C36F079 
 327      CAEC0F73 
 327      5C
 328 02eb 21A0F7CB 		.ascii	"!\240\367\313\340Q\306n\0376*\343T\262\035\206\261q"
 328      E051C66E 
 328      1F362AE3 
 328      54B21D86 
 328      B171
 329 02fd 61797D6C 		.ascii	"ay}l\312K()\214W\030\3320e\033b\247\303\247\352\264"
 329      CA4B2829 
 329      8C5718DA 
 329      30651B62 
 329      A7C3A7EA 
 330 0312 614E71BA 		.ascii	"aNq\272o\3647\247\202\267g\003\274\345T\014\036\324"
 330      6FF437A7 
 330      82B76703 
 330      BCE5540C 
 330      1ED4
 331 0324 06506730 		.ascii	"\006Pg0r\312\322Q\352\203\207p\011>r\317\035\211h\035"
 331      72CAD251 
 331      EA838770 
 331      093E72CF 
 331      1D89681D 
 332 0338 1E82833D 		.ascii	"\036\202\203=}n\361\233\017\214\202<\201m(\237}\245"
 332      7D6EF19B 
 332      0F8C823C 
 332      816D289F 
 332      7DA5
 333 034a 184CD1BA 		.ascii	"\030L\321\272\347\275\015\215\240r\322S2\2414\203\312"
 333      E7BD0D8D 
 333      A072D253 
 333      32A13483 
 333      CA
 334 035b 5B9ED210 		.ascii	"[\236\322\020J+\250\234\362\224\246P\206\202\312\373"
 334      4A2BA89C 
 334      F294A650 
 334      8682CAFB 
 335 036b 9ED212CA 		.ascii	"\236\322\022\312p\005\240\264V\206\205\322\016*\277"
 335      7005A0B4 
 335      568685D2 
 335      0E2ABF
 336 037a F49411A1 		.ascii	"\364\224\021\241\214Tp\034\201\303h\\\244\027]\356^"
 336      8C54701C 
 336      81C3685C 
 336      A4175DEE 
 336      5E
 337 038b 6C465C98 		.ascii	"lF\\\230\357N\255\321\204,\2267&\303?7j\355\005\314"
 337      EF4EADD1 
 337      842C9637 
 337      26C33F37 
 337      6AED05CC 
 338 039f 4AA215C3 		.ascii	"J\242\025\303V\360\0129\236\027We*\217>J6\374D\307\007"
 338      56F00A39 
 338      9E175765 
 338      2A8F3E4A 
 338      36FC44C7 
 339 03b4 CF5C6315 		.ascii	"\317\\c\025\247\367\032\035\324j8\313\207\317\0250'"
ARM GAS  /tmp/ccRV1ReY.s 			page 26


 339      A7F71A1D 
 339      D46A38CB 
 339      87CF1530 
 339      27
 340 03c5 332ECAE3 		.ascii	"3.\312\343\022\036\245N\270oE\377P\375\017\230\022\011"
 340      121EA54E 
 340      B86F45FF 
 340      50FD0F98 
 340      1209
 341 03d7 C493A367 		.ascii	"\304\223\243g\256y\327\256q\0154y\327A\330\007\236c"
 341      AE79D7AE 
 341      710D3479 
 341      D741D807 
 341      9E63
 342 03e9 F1CD39F3 		.ascii	"\361\3159\363\312\216~\366Fy\031\257\314wC^a!\356l\233"
 342      CA8E7EF6 
 342      467919AF 
 342      CC77435E 
 342      6121EE6C 
 343 03fe C4393915 		.ascii	"\30499\025\330\324\262\031\233\012\024#\013\260)\303"
 343      D8D4B219 
 343      9B0A1423 
 343      0BB029C3 
 344 040e DFD43299 		.ascii	"\337\3242\231}p\304\317\276bFvcA\263\233~\366\025\222"
 344      7D70C4CF 
 344      BE624676 
 344      6341B39B 
 344      7EF61592 
 345 0422 D2D19179 		.ascii	"\322\321\221yR\252\357e%\245W\002\233Z9cS\036\214\005"
 345      52AAEF65 
 345      25A55702 
 345      9B5A3963 
 345      531E8C05 
 346 0436 D994774D 		.ascii	"\331\224wM)\225:\320@\366U3\262[\013\232=\354g_%)\035"
 346      29953AD0 
 346      40F65533 
 346      B25B0B9A 
 346      3DEC675F 
 347 044d 3C3B4F4A 		.ascii	"<;OJ\355\012J\365d\023:\352\303\036\235\232o\006xH\206"
 347      ED0A4AF5 
 347      64133AEA 
 347      C31E9D9A 
 347      6F067848 
 348 0462 187FA828 		.ascii	"\030\177\250(\303t\357\371\2474\201M{\341=*YT\370\366"
 348      C374EFF9 
 348      A734814D 
 348      7BE13D2A 
 348      5954F8F6 
 349 0476 59C28B36 		.ascii	"Y\302\2136\001\373\213\365\252H\000\257\250\250\357"
 349      01FB8BF5 
 349      AA4800AF 
 349      A8A8EF
 350 0485 542FBC88 		.ascii	"T/\274\210)^\271-\336+\247\254\013\330\240\261\324T"
 350      295EB92D 
 350      DE2BA7AC 
 350      0BD8A0B1 
 350      D454
ARM GAS  /tmp/ccRV1ReY.s 			page 27


 351 0497 3F9AF217 		.ascii	"?\232\362\027i\272\367\302\351\006\215\255Y`\213\372"
 351      69BAF7C2 
 351      E9068DAD 
 351      59608BFA 
 352 04a7 D8163F18 		.ascii	"\330\026?\030\033>\006\266f\205m\367#\260\325Vc\263"
 352      1B3E06B6 
 352      66856DF7 
 352      23B0D556 
 352      63B3
 353 04b9 14B61B3E 		.ascii	"\024\266\033>\266\265\013\205mI\247\372\361\0231\037"
 353      B6B50B85 
 353      6D49A7FA 
 353      F113311F 
 354 04c9 86ED098D 		.ascii	"\206\355\011\215-^\215-\244\260\335\366\261\255\233"
 354      2D5E8D2D 
 354      A4B0DDF6 
 354      B1AD9B
 355 04d8 2336361B 		.ascii	"#66\033\266\000o\353\024\266\256G\360\226\250\306\026"
 355      B6006FEB 
 355      14B6AE47 
 355      F096A8C6 
 355      16
 356 04e9 56D886CF 		.ascii	"V\330\206\317x\330Z\026\012[\200\267\226\207c\363xK"
 356      78D85A16 
 356      0A5B80B7 
 356      968763F3 
 356      784B
 357 04fb 5663B315 		.ascii	"Vc\263\025\266\257}l\353\0056\307\307\326\370`l\306"
 357      B6AF7D6C 
 357      EB0536C7 
 357      C7D6F860 
 357      6CC6
 358 050d 6CD802BC 		.ascii	"l\330\002\274\255\237\303}KUc\213\350\373\346ck\025"
 358      AD9FC37D 
 358      4B55638B 
 358      E8FBE663 
 358      6B15
 359 051f D8623EB6 		.ascii	"\330b>\266\245\017\306f>\006\266\3269`K\363\002\222"
 359      A50FC666 
 359      3E06B6D6 
 359      39604BF3 
 359      0292
 360 0531 6353259C 		.ascii	"cS%\234\250\002/\014=\243q\265S\261\347\325q\322%\003"
 360      A8022F0C 
 360      3DA371B5 
 360      53B1E7D5 
 360      71D22503 
 361 0545 B723C86B 		.ascii	"\267#\310kS\277\220A\257x\222\255\004T\366n0H\264\247"
 361      53BF9041 
 361      AF7892AD 
 361      0454F66E 
 361      3048B4A7 
 362 0559 A7AC1218 		.ascii	"\247\254\022\030yl\343\263\372\364\261#Y\036#\313\323"
 362      796CE3B3 
 362      FAF4B123 
 362      591E23CB 
 362      D3
ARM GAS  /tmp/ccRV1ReY.s 			page 28


 363 056a 72BBBA3C 		.ascii	"r\273\272<\032\031,A\203\210\000\2209V~\227\033\344"
 363      1A192C41 
 363      83880090 
 363      39567E97 
 363      1BE4
 364 057c E45F9FEF 		.ascii	"\344_\237\357o\250\247R\342o\201\257\334~\376\007\226"
 364      6FA8A752 
 364      E26F81AF 
 364      DC7EFE07 
 364      96
 365 058d 2C7F17A0 		.ascii	",\177\027\240\363\262\264*\201\305\003\230e\335\260"
 365      F3B2B42A 
 365      81C50398 
 365      65DDB0
 366 059c 9B1DBB67 		.ascii	"\233\035\273g\2135\012z\360x\226\377\255B\012\312\311"
 366      8B350A7A 
 366      F07896FF 
 366      AD420ACA 
 366      C9
 367 05ad 09E577EE 		.ascii	"\011\345w\356n\356\004,\204\366\354x\363\345\256\355"
 367      6EEE042C 
 367      84F6EC78 
 367      F3E5AEED 
 368 05bd C6CE1DBB 		.ascii	"\306\316\035\273\235\255]\333\267\277\261\353\225\035"
 368      9DAD5DDB 
 368      B7BFB1EB 
 368      951D
 369 05cb 5DEFEC31 		.ascii	"]\357\35417n|\011\376\007\220\232v\213"
 369      376E7C09 
 369      FE07909A 
 369      768B
 370              		.text
 371              		.section	.gnu.lto_gpsNMEAChecksum.7a37c4dc3dcc898e,"",%progbits
 372 0000 789C5D51 		.ascii	"x\234]Q=K\303P\024\275\347}$Q\\\334\035\304\305M'G\177"
 372      3D4BC350 
 372      14BDE77D 
 372      24515CDC 
 372      1DC4C54D 
 373 0017 834B0B3A 		.ascii	"\203K\013:\226 \261HE)\235\373b\332\311\016\305EP!\026"
 373      9620B148 
 373      45299DFB 
 373      62DAC90E 
 373      C5455021 
 374 002c 912208EE 		.ascii	"\221\"\010\356\005\245N:\250\340\330\255\263\037\213"
 374      05A54E3A 
 374      A8E0D8AD 
 374      B31F8B
 375 003b AE4ABCAF 		.ascii	"\256J\274\257I*\365Ar?\316\271\367\236w\237 A\377\317"
 375      492AF541 
 375      723FCEB9 
 375      F79E779F 
 375      2041FFCF 
 376 004f 2A7FC720 		.ascii	"*\177\307 \232e\013\207 \332\317D\241'\240RG\246\316"
 376      9A650B87 
 376      20DACF44 
 376      A127A052 
 376      47A6CE
ARM GAS  /tmp/ccRV1ReY.s 			page 29


 377 0062 9DA7846C 		.ascii	"\235\247\204l\335\023\231i\335p\311\314h\300\346\011"
 377      DD139969 
 377      DD70C9CC 
 377      68C0E609 
 378 0072 54175269 		.ascii	"T\027Ri\3247`\333a\201:\306\034\016/n_qd\372\341\231"
 378      D43760DB 
 378      61813AC6 
 378      1C0E2F6E 
 378      5F7164FA 
 379 0088 F94E12A0 		.ascii	"\371N\022\240\014\036=\005\362A\353\034\300\033\031"
 379      0C1E3D05 
 379      F241EB1C 
 379      C01B19
 380 0097 81492DD7 		.ascii	"\201I-\327\242?L\222V\334\374\\cn\305\326\224\320\341"
 380      A23F4C92 
 380      56DCFC5C 
 380      636EC5D6 
 380      94D0E1
 381 00aa 96121C28 		.ascii	"\226\022\034(\233q\250\014\351Z\317\3130>\232\032\306"
 381      9B71A80C 
 381      E95ACFCB 
 381      303E9A1A 
 381      C6
 382 00bb B4E7F3D8 		.ascii	"\264\347\363\330\037\265-\360\237\225\026!\330\310'"
 382      1FB52DF0 
 382      9F951621 
 382      D8C827
 383 00ca 8A0EA2B7 		.ascii	"\212\016\242\267\356\\\011\347\320\024@\005\220\023"
 383      EE5C09E7 
 383      D0144005 
 383      9013
 384 00d8 128A90C4 		.ascii	"\022\212\220\304\367K\211_\335\345\234\350\006\300\230"
 384      F74B895F 
 384      DDE59CE8 
 384      06C098
 385 00e7 C8602FDA 		.ascii	"\310`/\332\311!/\200\010xgY\275\"^\010\327\357\367\232"
 385      C9212F80 
 385      08786759 
 385      BD225E08 
 385      D7EFF79A 
 386 00fb 1F8B39C7 		.ascii	"\037\2139\3079\341\355\262\344\254\213\312\246=P\343"
 386      39E1EDB2 
 386      E4AC8BCA 
 386      A63D50E3 
 387 010b 3D5C1993 		.ascii	"=\\\031\223,\244\377\3660 \260Bq\025\357\361|\371\030"
 387      2CA4FFF6 
 387      3020B042 
 387      7115EFF1 
 387      7CF918
 388 011e DF6040C2 		.ascii	"\337`@\302r\030\023\247q\215Gs\266b\207j{\271\027\012"
 388      721813A7 
 388      718D4773 
 388      B662876A 
 388      7BB9170A 
 389 0132 873F97C8 		.ascii	"\207?\227\310\333e\217\\\000\030\264\201\023\354V\227"
 389      DB658F5C 
 389      0018B481 
ARM GAS  /tmp/ccRV1ReY.s 			page 30


 389      13EC5697 
 390 0142 7CF2FCAD 		.ascii	"|\362\374\255M\177\273Z\253\374\002F\302g{"
 390      4D7FBB5A 
 390      ABFC0246 
 390      C2677B
 391              		.text
 392              		.section	.gnu.lto_gpsThread.7a37c4dc3dcc898e,"",%progbits
 393 0000 789C9D54 		.ascii	"x\234\235TKO\023Q\024>g^\235\266 \010\264(\202\"\262"
 393      4B4F1351 
 393      143E675E 
 393      9DB62008 
 393      B4288222 
 394 0015 5102DDE8 		.ascii	"Q\002\335\350\332\260\360\037\320DC\014i\207\246L\264"
 394      DAB0F01F 
 394      D044430C 
 394      6987A64C 
 394      B4
 395 0026 A0144C8C 		.ascii	"\240\024L\214\013\246\002\211\217\015\013M\000\027B"
 395      0BA60289 
 395      8F0D0B4D 
 395      001742
 396 0035 AC0B5A1E 		.ascii	"\254\013Z\0361\2700\272\240\022\215\212ZTbb\010\213"
 396      31B830BA 
 396      A0128D8A 
 396      5A546262 
 396      088B
 397 0047 26460DD1 		.ascii	"&F\015\321\030\326\304\244\236\333;\323\307\200\211"
 397      18D6C4A4 
 397      9EDB3BD3 
 397      C78089
 398 0056 3A49EFAB 		.ascii	":I\357\253\347~\337w\276s\357\025@\000\373\327E\277"
 398      E77EDF77 
 398      BE73EF15 
 398      4000FBD7 
 398      45BF
 399 0068 7605E014 		.ascii	"v\005\340\024\365\350\004\024\306\322\0001U@\231\017"
 399      F5E80414 
 399      C6D20031 
 399      5540990F 
 400 0078 44415A16 		.ascii	"DAZ\026\301p\251\351\025\000\243LE\205\255\267K\374"
 400      C170A9E9 
 400      1500A34C 
 400      4585ADB7 
 400      4BFC
 401 008a FFA7AACC 		.ascii	"\377\247\252\314\027P\021\304\\\204\313\301\302\313"
 401      175011C4 
 401      5C84CBC1 
 401      C2CB
 402 0098 1C886C19 		.ascii	"\034\210l\031\020\206\004Q\225d\305\201Cg\220\021b\023"
 402      10860451 
 402      9564C581 
 402      43679011 
 402      6213
 403 00aa 4C1BC678 		.ascii	"L\033\306x\346\313\347u\2340R#S\306\257l\026QG\022\347"
 403      E6CBE775 
 403      9C305223 
 403      53C6AF6C 
ARM GAS  /tmp/ccRV1ReY.s 			page 31


 403      16514712 
 404 00bf 44D0104E 		.ascii	"D\320\020N\323\004\033s\235 \225\252]\020R\231lv\343"
 404      D3041B73 
 404      9D2095AA 
 404      5D105299 
 404      6C76E3
 405 00d2 C1E87267 		.ascii	"\301\350rg\235\200\021\004\031t\024Uj$'5\262\233\215"
 405      9D801104 
 405      19741455 
 405      6A242735 
 405      B29B8D
 406 00e5 2A3080D3 		.ascii	"*0\200\323DSM\023\245\206\032\207\207\215\274lTK\215"
 406      44534D13 
 406      A5861A87 
 406      878DBC6C 
 406      544B8D
 407 00f8 4A40328C 		.ascii	"J@2\214\030\306X#\017\004\306J_\007\265\244\336\217"
 407      18C65823 
 407      0F04C64A 
 407      5F07B5A4 
 407      DE8F
 408 010a 0275E22A 		.ascii	"\002u\342*\214n\315\214\335\360\230\241\326\236\324"
 408      8C6ECD8C 
 408      DDF098A1 
 408      D69ED4
 409 0119 CD371F65 		.ascii	"\3157\037e\200\000\336C\231\366!\027v\005\266\215kF"
 409      8000DE43 
 409      99F62117 
 409      7605B68D 
 409      6B46
 410 012b A58E4E0D 		.ascii	"\245\216N\015\205\000\336\247\377\362\253\231\265\251"
 410      8500DEA7 
 410      FFF2AB99 
 410      B5A9
 411 0139 5BC77474 		.ascii	"[\307tt\265@\302\240\257KGw\0041\310v\232\221\001\214"
 411      B540C2A0 
 411      AF4B4777 
 411      0431C876 
 411      9A91018C 
 412 014d B38E655C 		.ascii	"\263\216e\\\206\244\260\234\203\372Q\0042\225\224\214"
 412      86A4B09C 
 412      83FA5104 
 412      3295948C 
 413 015d 6466423B 		.ascii	"dfB;t\244\237\213\005\035\242M\307\036\015\245\000&"
 413      74A49F8B 
 413      051DA24D 
 413      C71E0DA5 
 413      0026
 414 016f 4A75C46F 		.ascii	"Ju\304o\267\024t\\,\321\221\340:fX\247c\005\000\245"
 414      B714745C 
 414      2CD191E0 
 414      3A6658A7 
 414      630500A5 
 415 0183 9FB93EE3 		.ascii	"\237\271>\343\260\263\276J\027%/\357L^\011\340B\011"
 415      B0B3BE4A 
 415      17252FEF 
 415      4C5E09E0 
ARM GAS  /tmp/ccRV1ReY.s 			page 32


 415      4209
 416 0195 E9877873 		.ascii	"\351\207xs\201\323_\302\271\3009\347\355\271\277\205"
 416      81D35FC2 
 416      B9C039E7 
 416      EDB9BF85 
 417 01a5 ABEB1BF1 		.ascii	"\253\353\033\3615\321\306mdg[\013\334\016\306\021\306"
 417      35D1C66D 
 417      64675B0B 
 417      DC0EC611 
 417      C6
 418 01b6 6A8E9C5A 		.ascii	"j\216\234Z\333$\200\312;0\0313\230\222\275yMU\021d\247"
 418      DB2480CA 
 418      3B301933 
 418      9892BD79 
 418      4D551164 
 419 01cb 9EE157E5 		.ascii	"\236\341W\345\324\006Y\315\002\370\220\253$\256\237"
 419      D40659CD 
 419      02F890AB 
 419      24AE9F
 420 01da C38FE9C4 		.ascii	"\303\217\351\304,\322<\2145\204\230[\334\036&6\316\025"
 420      2CD23C8C 
 420      3584985B 
 420      DC1E2636 
 420      CE15
 421 01ec 4695A131 		.ascii	"F\225\2411\022\362\254\272\025fY*gu\2541\263:\251\243"
 421      12F2ACBA 
 421      1566592A 
 421      6775AC31 
 421      B33AA9A3 
 422 0200 8758828C 		.ascii	"\207X\202\214\310\004&$\200\374,\317\306*y7\351\266"
 422      C8042624 
 422      80FC2CCF 
 422      C62A7937 
 422      E9B6
 423 0212 709D7995 		.ascii	"p\235y\225^-w,\331FU\307Z\200\227\360\354[\314\231\017"
 423      5E2D772C 
 423      D94655C7 
 423      5A8097F0 
 423      EC5BCC99 
 424 0227 64F2F761 		.ascii	"d\362\367a\321M\350\240\370\251\027\200~\224`^\344G"
 424      D14DE8A0 
 424      F8A91780 
 424      7E94605E 
 424      E447
 425 0239 E4BB83C7 		.ascii	"\344\273\203\307\027Ud\277F\227\332\252\006!\327\231"
 425      175564BF 
 425      4697DAAA 
 425      0621D799 
 426 0249 923B753C 		.ascii	"\222;u<\220\223\314\317\215\271O\307z\356\376\243\311"
 426      9093CCCF 
 426      8DB94FC7 
 426      7AEEFEA3 
 426      C9
 427 025a 06BBF9C9 		.ascii	"\006\273\371\311\271\243;\314\367\374\257\371)\233\371"
 427      B9A33BCC 
 427      F7FCAFF9 
 427      299BF9
ARM GAS  /tmp/ccRV1ReY.s 			page 33


 428 0269 4BB92CBD 		.ascii	"K\271,\275\204h\232OlV\356\356\1771?\305\315\367\362"
 428      84689A4F 
 428      6C56EEEE 
 428      7F313FC5 
 428      CDF7F2
 429 027c A452DCFC 		.ascii	"\244R\334\374\224e\376h&\221t\355\360\250AC\227\351"
 429      9465FE68 
 429      269174ED 
 429      F0A84143 
 429      97E9
 430 028e BDDBB4E9 		.ascii	"\275\333\264\351\240\011\276D\302\017\345\320\245R\237"
 430      A009BE44 
 430      C20FE5D0 
 430      A5529F
 431 029d 1A792D93 		.ascii	"\032y-\223\273\300\221\345\356\335,\357\372\263\345"
 431      BBC091E5 
 431      EEDD2CEF 
 431      FAB3E5
 432 02ac FCB2CBB0 		.ascii	"\374\262\313\260\245\210|\250\000\275\236\310*\361\351"
 432      A5887CA8 
 432      00BD9EC8 
 432      2AF1E9
 433 02bb EB8A6039 		.ascii	"\353\212`9!\267\000\275#\"\371L\262\016\207Q`\2766\231"
 433      21B700BD 
 433      2322F94C 
 433      B20E8751 
 433      60BE3699 
 434 02cf BE9A7791 		.ascii	"\276\232w\221\016\316\310\217\330\211\374\026\026\""
 434      0ECEC88F 
 434      D889FC16 
 434      1622
 435 02dd 163FA17E 		.ascii	"\026?\241~*\036\275n\014{|q\023\355e~2W_(s\031w\245"
 435      2A1EBD6E 
 435      0C7B7C71 
 435      13ED657E 
 435      32575F28 
 436 02f5 D62CF3C4 		.ascii	"\326,\363\304\353=\364z\376]\231\025\206\362\3162\236"
 436      EB3DF47A 
 436      FE5D9915 
 436      86F2CE32 
 436      9E
 437 0306 9EA2D552 		.ascii	"\236\242\325R\227\216hX\236\017 \012\035\233\001\336"
 437      978E6858 
 437      9E0F200A 
 437      1D9B01DE 
 438 0316 432CB390 		.ascii	"C,\263\220DK|\205u\324\221\0243\002%|!\332\246\201#"
 438      444B7C85 
 438      75D49114 
 438      3302257C 
 438      21DAA681 
 439 032b 128A4603 		.ascii	"\022\212F\003\341\320q_O_$\344\323\372\272/\373\272"
 439      E1D0715F 
 439      4F5F24E4 
 439      D3FABA2F 
 439      FBBA
 440 033d 43977C5A 		.ascii	"C\227|Z\217\036\324\373\242\276\201\376\301\336s>\032"
 440      8F1ED4FB 
ARM GAS  /tmp/ccRV1ReY.s 			page 34


 440      A2BE81FE 
 440      C1DE733E 
 440      1A
 441 034e F40FF8F4 		.ascii	"\364\017\370\364^\355\374`7\005\365\004\243\241H[\017"
 441      5EEDFC60 
 441      3705F504 
 441      A3A1485B 
 441      0F
 442 035f FC06D828 		.ascii	"\374\006\330(\242\376"
 442      A2FE
 443              		.text
 444              		.section	.gnu.lto_gpsGetLatitude.7a37c4dc3dcc898e,"",%progbits
 445 0000 789C7550 		.ascii	"x\234uP=\213\0021\024\234I\334u\261\262\275\316^\360"
 445      3D8B0231 
 445      149C49DC 
 445      75B1B2BD 
 445      CE5EF0
 446 0013 D7682162 		.ascii	"\327h!b\241[H\012A\260<\304\010+\0106\376\004m-\364"
 446      A15B480A 
 446      41B03CC4 
 446      082B0836 
 446      FE046D2D 
 447 0028 2F58AA0B 		.ascii	"/X\252\013\3125\326\351\357\037\\\241\227lV\013?\036"
 447      CA35D6E9 
 447      EF1F5CA1 
 447      976C560B 
 447      3F1E
 448 003a 84F732EF 		.ascii	"\204\3672\357\275\231I\004\004\236\343\313\236:\201"
 448      BD994904 
 448      049EE3CB 
 448      9E3A81
 449 0049 C8664A50 		.ascii	"\310fJP,N\300$\022\244+@\214\005\307Mf\263[\2613\267"
 449      2C4EC024 
 449      12A42B40 
 449      8C05C74D 
 449      66B35BB1 
 450 005f DBE67A59 		.ascii	"\333\346zY\246\014B\311~\006\007H\264^T\2008\273:2\267"
 450      A60C42C9 
 450      7E060748 
 450      B45E5480 
 450      38BB3A32 
 451 0074 DAA07059 		.ascii	"\332\240pY\236\221\230}Z\354p\305\300\266\277\361\247"
 451      9E91987D 
 451      5AEC70C5 
 451      C0B6BFF1 
 451      A7
 452 0085 67BAAC68 		.ascii	"g\272\254h\307=\253C\"EV\261\3266\232\212\242Ov}\023"
 452      C73DAB43 
 452      224556B1 
 452      D6369A8A 
 452      A24F767D 
 453 009a F99EB2DE 		.ascii	"\371\236\262\336p\306\324\034~\303\027\252BL\377\260"
 453      70C6D41C 
 453      7EC317AA 
 453      424CFFB0 
 454 00aa 1EA50775 		.ascii	"\036\245\007uC1\310\011G\212a^\266\024\213\031\267'"
 454      4331C809 
ARM GAS  /tmp/ccRV1ReY.s 			page 35


 454      478A615E 
 454      B6148B19 
 454      B727
 455 00bc EFE66B0F 		.ascii	"\357\346k\017\215\310i$\3468/\275\263+\337\331m\177"
 455      8DC86924 
 455      E6382FBD 
 455      B32BDFD9 
 455      6D7F
 456 00ce B6FB8389 		.ascii	"\266\373\203\211I\253w&\037u+m\177\305\351\206\275\301"
 456      49AB7726 
 456      1F752B6D 
 456      7FC5E986 
 456      BDC1
 457 00e0 B016E31F 		.ascii	"\260\026\343\037Z\007U\017"
 457      5A07550F 
 458              		.text
 459              		.section	.gnu.lto_gpsGetLongitude.7a37c4dc3dcc898e,"",%progbits
 460 0000 789C6362 		.ascii	"x\234cb`b@\007\222@\034\302\310\300\300\001\244\031"
 460      60624007 
 460      92401CC2 
 460      C8C0C001 
 460      A419
 461 0012 99191899 		.ascii	"\231\031\030\231&\234c`h\344`bd\0041\030\030\031\352"
 461      269C6360 
 461      68E46062 
 461      64043118 
 461      1819EA
 462 0025 9918EB23 		.ascii	"\231\030\353#\031\301j\3273\035x\360\377\377\272-\327"
 462      19C16AD7 
 462      331D78F0 
 462      FFFFBA2D 
 462      D7
 463 0036 17DC6364 		.ascii	"\027\334cdecf\314\005\013\2632\26444LP``H\006sA\206"
 463      656366CC 
 463      050BB332 
 463      B434344C 
 463      50606048 
 464 004e 81B48632 		.ascii	"\201\264\20622\201h\346\363\014-\017n\237fOd\\\310\310"
 464      328168E6 
 464      F30C2D0F 
 464      6E9F664F 
 464      645CC8C8 
 465 0062 0A94AE66 		.ascii	"\012\224\256f\370\325\320\321 \220\311\010T\0161\025"
 465      F8D5D0D1 
 465      2090C908 
 465      540E3115 
 466 0072 24C291C9 		.ascii	"$\302\221\311\310\250\315\260\252\001\010\"3\031\231"
 466      C8A8CDB0 
 466      AA010822 
 466      331999
 467 0081 72191993 		.ascii	"r\031\031\223 \222\014P}\231@\2671\234gh}p\3475\033"
 467      20920C50 
 467      7D9940B7 
 467      319C6768 
 467      7D70E735 
 468 0096 86512CC9 		.ascii	"\206Q,\311\214\020\217\24532C\004\033B3\031Y\241\006"
 468      8C108FA5 
ARM GAS  /tmp/ccRV1ReY.s 			page 36


 468      33324304 
 468      1B423319 
 468      59A106
 469 00a9 D66632B2 		.ascii	"\326f2\262A\231\321\231\214\354`\263!\206'A\265\301"
 469      4199D199 
 469      8CEC60B3 
 469      21862741 
 469      B5C1
 470 00bb EDE000D9 		.ascii	"\355\340\000\331\321\362\340n7\0276\3472csn,n\347^d"
 470      D1F2E06E 
 470      371736E7 
 470      3263736E 
 470      2C6EE75E 
 471 00d0 687C704F 		.ascii	"h|pO\033f\022\004\204\000\255\006\206\012\310^\266\364"
 471      1B661204 
 471      8400AD06 
 471      860AC85E 
 471      B6F4
 472 00e2 8262BD64 		.ascii	"\202b\275d\006\000B\215U%"
 472      0600428D 
 472      5525
 473              		.text
 474              		.section	.gnu.lto_gpsGetAltitude.7a37c4dc3dcc898e,"",%progbits
 475 0000 789C7550 		.ascii	"x\234uP=\213B1\020\234I|\037X\331\332\331\013\367k\264"
 475      3D8B4231 
 475      109C497C 
 475      1F58D9DA 
 475      D90BF76B 
 476 0015 10B1D057 		.ascii	"\020\261\320WH\012A\260\224\303\010\357\340\340\032"
 476      480A41B0 
 476      94C308EF 
 476      E0E01A
 477 0024 7F82D75E 		.ascii	"\177\202\327^\241\177\301^P\254\004\253\364\202\266"
 477      A17FC15E 
 477      50AC04AB 
 477      F482B6
 478 0033 6AA3C9CB 		.ascii	"j\243\311\313\323B\275\205\260\233\331\335\231I\004"
 478      D342BD85 
 478      B09BD9DD 
 478      994904
 479 0042 049EA36C 		.ascii	"\004\236\243lO\215@l3%(&+`\034\013\322\025 F\202\243"
 479      4F8D406C 
 479      33252826 
 479      2B601C0B 
 479      D2152046 
 480 0058 06B3D9B9 		.ascii	"\006\263\331\271X\230\353u\266\333N\317\014B\311^\006"
 480      5898EB75 
 480      B6DB4ECF 
 480      0C42C95E 
 480      06
 481 0069 0748B59E 		.ascii	"\007H\265\236T\200$\273:2\267Z\247pY\256\221\232\303"
 481      548024BB 
 481      3A32B75A 
 481      A77059AE 
 481      919AC3
 482 007c 326AF397 		.ascii	"2j\363\227\201m\017q\321\337\272\244h\307=\253CbEV\361"
 482      816D0F71 
ARM GAS  /tmp/ccRV1ReY.s 			page 37


 482      D1DFBAA4 
 482      68C73DAB 
 482      43624556 
 483 0091 A76D3414 		.ascii	"\247m4\024E\217\354\370&\362=e\275a\215/s\334\207/T"
 483      458FECF8 
 483      26F23D65 
 483      BD618D2F 
 483      73DC872F 
 484 00a6 8584FE61 		.ascii	"\205\204\376a]J\017\352\272b\220\023~*\206y\331T\214"
 484      5D4A0FEA 
 484      BA629013 
 484      7E2A8679 
 484      D9548C
 485 00b9 326E4FDE 		.ascii	"2nO\336\311\327\036\032\261\323H\315\351\247\370\316"
 485      C9D71E1A 
 485      B1D348CD 
 485      E9A7F8CE 
 486 00c9 AE7C67B7 		.ascii	"\256|g\267\365\277\335\015\306\346\\\2753\371\250Yi"
 486      F5BFDD0D 
 486      C6E65CBD 
 486      33F9A859 
 486      69
 487 00da FB2B4E37 		.ascii	"\373+N7\354\366\007\037\011n\312\266U\302"
 487      ECF6071F 
 487      096ECAB6 
 487      55C2
 488              		.text
 489              		.section	.gnu.lto_gpsGetTime.7a37c4dc3dcc898e,"",%progbits
 490 0000 789C7550 		.ascii	"x\234uP;n\0021\024\234\261Y\263\242\242\245K\037\301"
 490      3B6E0231 
 490      149CB159 
 490      B3A2A2A5 
 490      4B1FC1
 491 0013 69A04011 		.ascii	"i\240@\021\005l\201\\ EJ\031!\214\264H@@\332#@K\001"
 491      056C815C 
 491      20454A19 
 491      218CB448 
 491      4040DA23 
 492 002a 57E00280 		.ascii	"W\340\002\200hS\371\002\271@\032b\257\227\024|\236d"
 492      6853F902 
 492      B9401A62 
 492      AF97147C 
 492      9E64
 493 003c BDE779EF 		.ascii	"\275\347y\357\315\214- p\0335w\232\004b\227)A\221\035"
 493      CD8C2D20 
 493      701B3577 
 493      9A046297 
 493      2941911D 
 494 0050 81712C48 		.ascii	"\201q,H_\200\030\011\216\332\314gwbo/\227m\366\275Z"
 494      5F801809 
 494      8EDACC67 
 494      77626F2F 
 494      976DF6BD 
 495 0065 5029C941 		.ascii	"P)\311A\016GH\215\311^\200$\277z2\277\332\242\360Y\236"
 495      0E47488D 
 495      C95E8024 
 495      BF7A32BF 
ARM GAS  /tmp/ccRV1ReY.s 			page 38


 495      DAA2F059 
 496 007a 90DAD9A1 		.ascii	"\220\332\331\241\334\345\232\221k\177\342\327LMU\323"
 496      DCE59A91 
 496      6B7FE2D7 
 496      4C4D55D3 
 497 008a 8D07568F 		.ascii	"\215\007V\217\304\232|\305\306\270hk\212\001\331\013"
 497      C49A7CC5 
 497      C6B8686B 
 497      8A01D90B 
 498 009a 4D147BDA 		.ascii	"M\024{\332y\303\011\023;\377QwT\245\204\341a}\312\000"
 498      79C30913 
 498      3BFF5177 
 498      54A584E1 
 498      617DCA00 
 499 00ae 9A966654 		.ascii	"\232\226fT\020\0165UQ\276i\226s\356@\336+\326\3765b"
 499      100E3555 
 499      51BE6996 
 499      73EE40DE 
 499      2BD6FE35 
 500 00c3 AF91DAAF 		.ascii	"\257\221\332\257e\345\221]\371\310n\347\271\3353\306"
 500      65E5915D 
 500      F9C86EE7 
 500      B9DD33C6 
 501 00d3 7651BF32 		.ascii	"vQ\2772\205h:i\367+^W\365\337?\032\011\376\000\347\331"
 501      85683A69 
 501      F72B5E57 
 501      F5DF3F1A 
 501      09FE00E7 
 502 00e8 5373     		.ascii	"Ss"
 503              		.text
 504              		.section	.gnu.lto_gpsGetSatellites.7a37c4dc3dcc898e,"",%progbits
 505 0000 789C6362 		.ascii	"x\234cb`b@\007\222@\034\302\310\300\300\001\244\031"
 505      60624007 
 505      92401CC2 
 505      C8C0C001 
 505      A419
 506 0012 99191899 		.ascii	"\231\031\030\231&\234c`h\344`bd\0041\030\030\031\352"
 506      269C6360 
 506      68E46062 
 506      64043118 
 506      1819EA
 507 0025 9918EB23 		.ascii	"\231\030\353#\031\301j\3273\035x\360\377\377\272m\267"
 507      19C16AD7 
 507      331D78F0 
 507      FFFFBA6D 
 507      B7
 508 0036 16CC6764 		.ascii	"\026\314gdccf\314\005\013\2632\26444LP``H\006sA\206"
 508      636366CC 
 508      050BB332 
 508      B434344C 
 508      50606048 
 509 004e 81B48632 		.ascii	"\201\264\20622\201h\346\363\014-\017\346\234eOd\\\310"
 509      328168E6 
 509      F30C2D0F 
 509      E69C654F 
 509      645CC8
 510 0061 C80A94AE 		.ascii	"\310\012\224\256f\370\325\320\321 \220\311\010T\016"
ARM GAS  /tmp/ccRV1ReY.s 			page 39


 510      66F8D5D0 
 510      D12090C9 
 510      08540E
 511 0070 311524C2 		.ascii	"1\025$\302\221\311\310\250\315\260\252\001\010\"3\031"
 511      91C9C8A8 
 511      CDB0AA01 
 511      08223319 
 512 0080 99721919 		.ascii	"\231r\031\031\223 \222\014P}\231@\2671\234gh}0\367-"
 512      9320920C 
 512      507D9940 
 512      B7319C67 
 512      687D30F7 
 513 0095 1B86512C 		.ascii	"\033\206Q,\311\214\020\217\24532C\004\033B3\031Y\241"
 513      C98C108F 
 513      A5333243 
 513      041B4233 
 513      1959A1
 514 00a8 06D66632 		.ascii	"\006\326f2\262A\231\321\231\214\354`\263!\206'A\265"
 514      B24199D1 
 514      998CEC60 
 514      B3218627 
 514      41B5
 515 00ba C1EDE000 		.ascii	"\301\355\340\000\331\321\362`^/\0276\3472csn,n\347^"
 515      D9D1F260 
 515      5E2F1736 
 515      E7326373 
 515      6E2C6EE7 
 516 00cf 64687C30 		.ascii	"dh|0_\027f\022\004\204\000\255\006\206\012\310^\266"
 516      5F176612 
 516      048400AD 
 516      06860AC8 
 516      5EB6
 517 00e1 F48262BD 		.ascii	"\364\202b\275d\006\000aAS\370"
 517      64060061 
 517      4153F8
 518              		.text
 519              		.section	.gnu.lto_gpsGetLocation.7a37c4dc3dcc898e,"",%progbits
 520 0000 789C95D3 		.ascii	"x\234\225\323\277K\303@\024\007\360\367\275K\256g\354"
 520      BF4BC340 
 520      1407F0F7 
 520      BD4BAE67 
 520      EC
 521 0011 0F57D1C1 		.ascii	"\017W\321\301]\364/q\021*\330\301\301f(\031\012\202"
 521      5DF42F71 
 521      112AD8C1 
 521      C1662819 
 521      0A82
 522 0023 9B459A6A 		.ascii	"\233E\232j\005\027\241\340\246\213\256\016v\352h\351"
 522      0517A1E0 
 522      A68BAE0E 
 522      76EA68E9 
 523 0033 3F508BAB 		.ascii	"?P\213\2538\024\034\034\034\034\334\272\324\273K\364"
 523      38141C1C 
 523      1C1CDCBA 
 523      D4BB4BF4 
 524 0043 AA4DC03C 		.ascii	"\252M\300<\310\273\343~\274\373\020x\214\030\375\215"
 524      C8BBE37E 
ARM GAS  /tmp/ccRV1ReY.s 			page 40


 524      BCFB1078 
 524      8C18FD8D 
 525 0053 65F56D39 		.ascii	"e\365m9DR\215\340\004\326y$jI\006\350\011\201\232\014"
 525      44528DE0 
 525      04D67924 
 525      6A4906E8 
 525      09819A0C 
 526 0067 CD0ACCD9 		.ascii	"\315\012\314\331.\033\214\247\323\373\227\347\233>D"
 526      2E1B8CA7 
 526      D3FB97E7 
 526      9B3E44
 527 0076 89A30E72 		.ascii	"\211\243\016r(\000\011\235\244J\360Tby\225\270:\356"
 527      2800099D 
 527      A44AF054 
 527      627995B8 
 527      3AEE
 528 0088 523B0C3B 		.ascii	"R;\014;kD\276\271^VY\327\334\001\323#\037Q{\334\035"
 528      6B44BEB9 
 528      5E5659D7 
 528      DC01D323 
 528      1F517BDC 
 529 009d E6F6710B 		.ascii	"\346\366q\013Wm7h\022\236\207K\001\034\037\321szE\006"
 529      576D3768 
 529      129E874B 
 529      011C1FD1 
 529      737A4506 
 530 00b1 70D7E92E 		.ascii	"p\327\351.TQ\011 \352@5\332\244\370^\200\034\321\220"
 530      54510920 
 530      EA4035DA 
 530      A4F85E80 
 530      1CD190
 531 00c4 4E26A7AF 		.ascii	"N&\247\257\275\325h\255\006\247AG\212\024_\334\016 "
 531      BDD568AD 
 531      06A74147 
 531      8A145FDC 
 531      0E20
 532 00d6 AFE90A01 		.ascii	"\257\351\012\001\026j\340\273j\364L\205j\374\216\211"
 532      166AE0BB 
 532      6AF44C85 
 532      6AFC8E89 
 533 00e6 119D0D56 		.ascii	"\021\235\015V\346,\213>\242_fj\352\305\360\330\026\356"
 533      E62C8B3E 
 533      A25F666A 
 533      EAC5F0D8 
 533      16EE
 534 00f8 A952329E 		.ascii	"\251R2\236_\352\362\206\307~\025\377a\346c\346\233e"
 534      5FEAF286 
 534      C77E15FF 
 534      61E663E6 
 534      9B65
 535 010a 8A7F3279 		.ascii	"\212\1772y\006\246\310\312\344\311\314w\313\224\206"
 535      06A6C8CA 
 535      E4C9CC77 
 535      CB9486
 536 0119 09CB2C24 		.ascii	"\011\313,$3\235\014Li\231\230a\026R\231N2\363\3032="
 536      339D0C4C 
 536      69999861 
ARM GAS  /tmp/ccRV1ReY.s 			page 41


 536      1652994E 
 536      32F3C332 
 537 012e C3649659 		.ascii	"\303d\226YLf\272\031\230\236e\262\031f1\225\351&3?-"
 537      4C66BA19 
 537      989E65B2 
 537      19663195 
 537      E926333F 
 538 0143 336F98DC 		.ascii	"3o\230\3342K\311L\221\201\231\267L>\303,\2452\305\034"
 538      324BC94C 
 538      918199B7 
 538      4C3EC32C 
 538      A532C51C 
 539 0157 5377E3C3 		.ascii	"Sw\343\303\205\227\324\215<\251\033\367\322\273\361"
 539      8597D48D 
 539      3CA91BF7 
 539      D2BBF1
 540 0166 895AE3FE 		.ascii	"\211Z\343\376\306w\245(\312\252\035T\323\353\367E\355"
 540      C677A528 
 540      CAAA1D54 
 540      D3EBF745 
 540      ED
 541 0177 E070D3A7 		.ascii	"\340p\323\247/8\232\367\223"
 541      2F389AF7 
 541      93
 542              		.text
 543              		.section	.gnu.lto_.symbol_nodes.7a37c4dc3dcc898e,"",%progbits
 544 0000 789C4DD0 		.ascii	"x\234M\320\313n\323@\024\006\3403\377\330\320\224\306"
 544      CB6ED340 
 544      1406E033 
 544      FFD8D094 
 544      C6
 545 0011 75EEBD25 		.ascii	"u\356\275%NAH]T\342yX\366IN\204!\275p+\227rQ/\204x\321"
 545      4E41485D 
 545      54E27958 
 545      F6494E84 
 545      21BD702B 
 546 002c 6EBB406A 		.ascii	"n\273@j\267\215(\273n\220@\002\011\265\312\012\211W"
 546      B78D28BB 
 546      6E904002 
 546      09B5CA0A 
 546      8957
 547 003e 0830631F 		.ascii	"\0100c\037u\306\233_\337\3579\343\031\203@\003M\305"
 547      75C69B5F 
 547      DFEF39E3 
 547      19834003 
 547      4DC5
 548 0050 838760A2 		.ascii	"\203\207`\242\355\013\"\346\275\3155<\002+\217\353`"
 548      ED0B22E6 
 548      BDCD353C 
 548      022B8FEB 
 548      60
 549 0061 78DC006B 		.ascii	"x\334\000k\217\237\025\007\302\375\2155\034\202\303"
 549      8F9F1507 
 549      C2FD8D35 
 549      1C82C3
 550 0070 6BAAF09F 		.ascii	"k\252\360\237B\300:\354\201B&\364\3017\274\321#\360"
 550      42C03AEC 
ARM GAS  /tmp/ccRV1ReY.s 			page 42


 550      814226F4 
 550      C137BCD1 
 550      23F0
 551 0082 4DB7165B 		.ascii	"M\267\026[\340)\341\201\031\335\2042\243x\014.\271\026"
 551      E029E181 
 551      19DD8432 
 551      A3780C2E 
 551      B916
 552 0094 4FC0D31E 		.ascii	"O\300\323\036\237\202oy|\006\236\361\370\034\\\366\270"
 552      9F826F79 
 552      7C069EF1 
 552      F81C5CF6 
 552      B8
 553 00a5 0D8E3CBE 		.ascii	"\015\216<\276\000\317z|\011\216=\276\002W<\276\006W"
 553      00CF7A7C 
 553      098E3DBE 
 553      02573CBE 
 553      0657
 554 00b7 3DEE806B 		.ascii	"=\356\200k\216\352\035\270^\260\327S\352=\270\341\264"
 554      8EEA1DB8 
 554      5EB0D753 
 554      EA3DB8E1 
 554      B4
 555 00c8 076E3ABD 		.ascii	"\007n:\275\005\267\234\336\200\347\234v\301\363N\373"
 555      05B79CDE 
 555      80E79C76 
 555      C1F34EFB 
 556 00d8 E005A703 		.ascii	"\340\005\247\003\360\242\323\000\274\344\364\001\334"
 556      F0A2D300 
 556      BCE4F401 
 556      DC
 557 00e5 76CAC01D 		.ascii	"v\312\300\035\247!8q\372\010\356^K\007s\224NZ:hQv\365"
 557      A7213871 
 557      FA08EE5E 
 557      4B077394 
 557      4E5A3A68 
 558 00fc 57E930A0 		.ascii	"W\3510\240\263\376\237DO\2054\274\274\253K\363\224\255"
 558      B3FE9F44 
 558      4F8534BC 
 558      BCAB4BF3 
 558      94AD
 559 010e C3C6F83C 		.ascii	"\303\306\370<\312\325_\315\365{6\327\361\275\\G\027"
 559      CAD55FCD 
 559      F57B36D7 
 559      F1BD5C47 
 559      17
 560 011f 2AE7A5D9 		.ascii	"*\347\245\331az\221F'\023\223\013\224\236\232\234Y*"
 560      617A9146 
 560      2713930B 
 560      949E9A9C 
 560      592A
 561 0131 FAB25937 		.ascii	"\372\262Y7h\352r\211\206\237\264\216du\324\246\364\353"
 561      68EA7289 
 561      869FB48E 
 561      6475D4A6 
 561      F4EB
 562 0143 64C5E638 		.ascii	"d\305\3468\317\016\215\276\025\316\276\027N\177\310"
ARM GAS  /tmp/ccRV1ReY.s 			page 43


 562      CF0E8DBE 
 562      15CEBE17 
 562      4E7FC8
 563 0152 7BC9D14F 		.ascii	"{\311\321O\223\361\035J\355||\233\262\223_\367u\274"
 563      93F11D4A 
 563      ED7C7C9B 
 563      B2935FF7 
 563      75BC
 564 0164 6CBE6AB3 		.ascii	"l\276j\263Lg\2476\273\224\236O::\216\350\301\027\233"
 564      4C67A736 
 564      BB949E4F 
 564      3A3A8EE8 
 564      C1179B
 565 0177 0965799A 		.ascii	"\011ey\232\323l\231\373U\272\305|\245]\234\243\222\320"
 565      D36C99FB 
 565      55BAC57C 
 565      A55D9CA3 
 565      92D0
 566 0189 C86655FA 		.ascii	"\310fU\372\252\364U\351k\322\327\244\257I_\227\276."
 566      AAF455E9 
 566      6BD2D7A4 
 566      AF495F97 
 566      BE2E
 567 019b 7D5DFA86 		.ascii	"}]\372\206\364\015\351\033\3227\245o\266\305\346\376"
 567      F40DE91B 
 567      D237A56F 
 567      B6C5E6FE 
 568 01ab 5762C9D4 		.ascii	"Wb\311\324\376\177\353<\023\032\233\244\377\015\236"
 568      FE7FEB3C 
 568      131A9BA4 
 568      FF0D9E
 569 01ba 2060     		.ascii	" `"
 570              		.text
 571              		.section	.gnu.lto_.refs.7a37c4dc3dcc898e,"",%progbits
 572 0000 789C4D8A 		.ascii	"x\234M\212K\022\2000\010C\323\320B\307n\374\337\326"
 572      4B128030 
 572      0843D3D0 
 572      42C76EFC 
 572      DFD6
 573 0012 BB2B8233 		.ascii	"\273+\2023\222\305{\231@\020\027\342Z\203B\251Ei\265"
 573      92C57B99 
 573      401017E2 
 573      5A8342A9 
 573      4569B5
 574 0025 7F5EA7A7 		.ascii	"\177^\247\247\273\2176\010\026\222\2352f\232\307\177"
 574      BB8F3608 
 574      16929D32 
 574      669AC77F 
 575 0035 DE35294B 		.ascii	"\3365)K\230\254\311-\271'\217\240\235\324\177p\003\316"
 575      98ACC92D 
 575      B9278FA0 
 575      9DD47F70 
 575      03CE
 576 0047 9E02DA   		.ascii	"\236\002\332"
 577              		.text
 578              		.section	.gnu.lto_.decls.7a37c4dc3dcc898e,"",%progbits
 579 0000 789CBD5D 		.ascii	"x\234\275]\011x\024E\276\357cf\222\020\204\200\342\342"
ARM GAS  /tmp/ccRV1ReY.s 			page 44


 579      09781445 
 579      BEEF6366 
 579      92108480 
 579      E2E2
 580 0012 DBDD677C 		.ascii	"\333\335g|\317\365\343s\237\006\002*\256\253\202\001"
 580      CFF5E373 
 580      9F06022A 
 580      AEAB8201 
 581 0022 81B75C9B 		.ascii	"\201\267\\\233\004\327\335o\327\241I\006\310\222\313"
 581      04D7DD6F 
 581      D7A14906 
 581      C892CB
 582 0031 9909C47D 		.ascii	"\231\011\304}\337\367l\256(\210\022\302\025\220#\034"
 582      DFF76CAE 
 582      288812C2 
 582      1590231C 
 583 0041 0A782004 		.ascii	"\012x \0049\344rP\010\001\204\020P\"W\022\221S\360\031"
 583      39E47250 
 583      08018410 
 583      50225712 
 583      9153F019 
 584 0055 406E21EF 		.ascii	"@n!\357_G\317t\327T\367tg}o>\252\246\272\272\352W\377"
 584      5F47CF74 
 584      D754F774 
 584      677D6F3E 
 584      AAA6BABA 
 585 006c ABFE754E 		.ascii	"\253\376uN\220\004I(M\020\204f\370\334\235'\010\376"
 585      90044928 
 585      4D108466 
 585      F8DC9D27 
 585      08FE
 586 007e 4441E820 		.ascii	"DA\350 \010\3023\020:BX\004\2415\204BQ\020^\206\020"
 586      08C23310 
 586      3A425804 
 586      A1358442 
 586      51105E86 
 587 0093 80301AC2 		.ascii	"\2000\032\302K\020\274\020\222%Ax\000\302\277Cx\020"
 587      4B10BC10 
 587      92254178 
 587      00C2BF43 
 587      7810
 588 00a5 C2EF20AC 		.ascii	"\302\357 \254\200\362\243\340\335S\220N\201\360{\010"
 588      80F2A3E0 
 588      DD53904E 
 588      81F07B08 
 589 00b5 8F41781A 		.ascii	"\217Ax\032\302o!\310\360^\205\367\360O\210GmA\336 \010"
 589      C26F21C8 
 589      F05E85F7 
 589      F04F8847 
 589      6D41DE20 
 590 00ca CB21FD28 		.ascii	"\313!\375(|\247B\350\006\341a\010\335\021>\344\377\021"
 590      7CA742E8 
 590      06E16108 
 590      DD113EE4 
 590      FF11
 591 00dc BE5F80F0 		.ascii	"\276_\200\360\027\010/A\310\2060\012B\001\204\"\010"
 591      17082F41 
ARM GAS  /tmp/ccRV1ReY.s 			page 45


 591      C886300A 
 591      42018422 
 591      08
 592 00ed 33205440 		.ascii	"3 T@x\037\302j\010\233 l\203P\015\241\006\302A\010u"
 592      781FC26A 
 592      089B206C 
 592      83500DA1 
 592      06C24108 
 593 0102 108E4268 		.ascii	"\020\216Bh\200p\012\302Y\010\027 \334\204\320\214\350"
 593      80700AC2 
 593      59081720 
 593      DC84D08C 
 593      E8
 594 0113 02C2DC10 		.ascii	"\002\302\334\020\332A\370\005\204\373 \374\022B2\204"
 594      DA41F805 
 594      84FB20FC 
 594      12423284 
 595 0123 076542F7 		.ascii	"\007eB\367C\020u\202\320\031=\350>\210>\355#2\317\332"
 595      43107582 
 595      D0193DE8 
 595      3E883EED 
 595      2332CFDA 
 596 0137 E705A6CC 		.ascii	"\347\005\246\314\013\2342\177a\312\374\205S\346%\246"
 596      0B9C327F 
 596      61CAFC85 
 596      53E625A6 
 597 0147 CC4B9C32 		.ascii	"\314K\2342H>w\301\267G :I\005z\253 \335U&\272A:ZL\365"
 597      483E77C1 
 597      B747203A 
 597      49057AAB 
 597      20DD5526 
 598 0161 FB18E49D 		.ascii	"\373\030\344\235\2032\217\303\367i\370FpH\027\177\207"
 598      83328FC3 
 598      F769F846 
 598      7048177F 
 598      87
 599 0172 722E8AF5 		.ascii	"r.\212\365\204L\344\205\344\206\332\034\311\264\211"
 599      844CE485 
 599      E486DA1C 
 599      C9B489
 600 0181 74D11EBE 		.ascii	"t\321\036\276\257\300\3136\002\261\031\244\343\251\220"
 600      AFC0CB36 
 600      02B119A4 
 600      E3A990
 601 0190 3F8BD641 		.ascii	"?\213\326AX\277\202\304Rx^\002\341)\300\354\003\337"
 601      58BF82C4 
 601      52785E02 
 601      E129C0EC 
 601      03DF
 602 01a2 CF43E800 		.ascii	"\317C\350\000\371\277\227\011=>j#\177\200\357\001\020"
 602      F9BF9709 
 602      3D3E6A23 
 602      7F80EF01 
 602      10
 603 01b3 7A4BA42E 		.ascii	"zK\244.j\343ix\221&\023\232\020\011H\017\0171\272@6"
 603      6AE36978 
 603      9126139A 
ARM GAS  /tmp/ccRV1ReY.s 			page 46


 603      1009480F 
 603      0F31BA40 
 604 01c8 D156206D 		.ascii	"\321V mk\264t\020#4\240\342} \312\225\314\351\341\265"
 604      6BB47410 
 604      2334A0E2 
 604      7D20CA95 
 604      CCE9E1B5 
 605 01dc 5F201969 		.ascii	"_ \031i@e^\206g\277\024m\017\310&[14 \2141\360\334W"
 605      40655E86 
 605      67BF146D 
 605      0FC8265B 
 605      3134208C 
 606 01f4 36F6A7EF 		.ascii	"6\366\247\357\251,%Z\357\002\225\3274F\306\310\306\241"
 606      A92C255A 
 606      EF0295D7 
 606      3446C6C8 
 606      C6A1
 607 0206 7B6279AA 		.ascii	"{by\252:\272\373\311\221\376\210\210\372O\231\364\321"
 607      3ABAFBC9 
 607      91FE8888 
 607      FA4F99F4 
 607      D1
 608 0217 5B544669 		.ascii	"[TFi\022\351c2\305h\2466\217\236\027P\332;1\364\243"
 608      12E96332 
 608      C568A636 
 608      8F9E1750 
 608      DA3B31F4 
 609 022c BEE4118C 		.ascii	"\276\344\021\214\355\334\206\364\177\213\021}\246Q\374"
 609      EDDC86F4 
 609      7F8B117D 
 609      A651FC
 610 023b 0ADA7750 		.ascii	"\012\332wP\336r\206\346\367)\377c\250\216\333S\233\232"
 610      DE7286E6 
 610      F729FF63 
 610      A88EDB53 
 610      9B9A
 611 024d 4A31905C 		.ascii	"J1\220\\\220<4?\242\311\343\017\210\007\212%S\234\013"
 611      903C343F 
 611      A2C9E30F 
 611      88078A25 
 611      539C0B
 612 0260 B4AFA37A 		.ascii	"\264\257\243z\0371\355\240>\237L\355K\223w\177\231\320"
 612      1F31EDA0 
 612      3E9F4CED 
 612      4B93777F 
 612      99D0
 613 0272 AA6F13D1 		.ascii	"\252o\023\321\200\374\020\362M\311\3247\361\364\201"
 613      80FC10F2 
 613      4DC9D437 
 613      F1F481
 614 0281 DA403EF0 		.ascii	"\332@>\360nH\014\224\211\337B\376\015\371\271A\360\354"
 614      6E480C94 
 614      89DF42FE 
 614      0DF9B941 
 614      F0EC
 615 0293 91896F1B 		.ascii	"\221\211o\033\014\337\355eB;\362qn\201\370-\315\217"
 615      0CDFED65 
ARM GAS  /tmp/ccRV1ReY.s 			page 47


 615      423BF271 
 615      6E81F82D 
 615      CD8F
 616 02a5 21FFD58D 		.ascii	"!\377\325\215\332\317j\312\203\346c\220}\254\203\347"
 616      DACF6ACA 
 616      83E66390 
 616      7DAC83E7 
 617 02b5 0D10FE08 		.ascii	"\015\020\376\010\317\351\0202 dB\030\002\341\005\010"
 617      CFE91032 
 617      20644218 
 617      02E10508 
 618 02c5 7F82F022 		.ascii	"\177\202\360\"\243\233MT7z^;\210\021\231\242\217H\313"
 618      A39B4D54 
 618      377A5E3B 
 618      881199A2 
 618      8F48CB
 619 02d8 A1EF4F19 		.ascii	"\241\357O\031Y!\277\370\033\370\356\242\253\377g\231"
 619      5921BFF8 
 619      1BF8EEA2 
 619      ABFF6799 
 620 02e8 D4FF87AE 		.ascii	"\324\377\207\256\257\"\335\377U6\372\364_\301\363\337"
 620      AF22DDFF 
 620      5536FAF4 
 620      5FC1F3DF 
 621 02f8 10BFB279 		.ascii	"\020\277\262y\337y\011\322\037HD\347\254mz\345\310X"
 621      DF7909D2 
 621      1F4844E7 
 621      AC6D7AE5 
 621      C858
 622 030a 51096128 		.ascii	"Q\011a(<\017\227#\266\025'\020\337\243\365;ml\310\226"
 622      3C0F9723 
 622      B6152710 
 622      DFA3F53B 
 622      6D6CC896 
 623 031e 89BDB5A1 		.ascii	"\211\275\265\241\364\217\240>\271\220\372\347\321\324"
 623      F48FA03E 
 623      B990FAE7 
 623      D1D4
 624 032c 57A37E89 		.ascii	"W\243~\211l\005\371n$o\344\3075\373Db\334!\021\177\301"
 624      6C05F96E 
 624      246FE4C7 
 624      35FB4462 
 624      DC21117F 
 625 0341 F657344E 		.ascii	"\366W4N\3000\030E/\322\2656\216!\232=\024G\243\353Q"
 625      C0301845 
 625      2FD2B536 
 625      8E219A3D 
 625      1447A3EB 
 626 0356 AADB6ADA 		.ascii	"\252\333j\332\246\233\216\035H\344_p\374BM\013\333I"
 626      A69B8E1D 
 626      48E45F70 
 626      FC424D0B 
 626      DB49
 627 0368 A5EDD470 		.ascii	"\245\355\324p\332\251\345\264s\320\242\035m<\346\265"
 627      DAA9E5B4 
 627      73D0A21D 
 627      6D3CE6B5 
ARM GAS  /tmp/ccRV1ReY.s 			page 48


 628 0378 A3D9EA41 		.ascii	"\243\331\352AN;_q\332\251\263hG\033\357y\355<L\333\251"
 628      4E3B5F71 
 628      DAA9B368 
 628      471BEF79 
 628      ED3C4CDB 
 629 038d E3B47398 		.ascii	"\343\264s\230\323\316Q\213v4\337\301k\247;m\347(\247"
 629      D3CE518B 
 629      7634DFC1 
 629      6BA73B6D 
 629      E728A7
 630 03a0 9DE39C76 		.ascii	"\235\343\234v\320\334 I \272@rz\232\372\011\266]MOz"
 630      D0DC2049 
 630      20BA4072 
 630      7A9AFA09 
 630      B65D4D4F 
 631 03b5 7FF018E5 		.ascii	"\177\360\030\345\027\321\022GixT\247?\375\234\306E\333"
 631      17D11247 
 631      697854A7 
 631      3FFD9CC6 
 631      45DB
 632 03c7 6269FA96 		.ascii	"bi\372\226CS\2420YU\307\251\025%j\337\3526\355\205i"
 632      4353A230 
 632      5955C7A9 
 632      15256ADF 
 632      EA36ED85 
 633 03dc 2A7C92AB 		.ascii	"*|\222\253\241'\274(*b\233\004a(N\264N\300\035\3717"
 633      A127BC28 
 633      2A629B04 
 633      61284EB4 
 633      4EC01DF9 
 634 03f1 C252552D 		.ascii	"\302RU-m<u\246\243\352R\304\305b{\200}B\024\036\026"
 634      6D3C75A6 
 634      A3EA52C4 
 634      C5627B80 
 634      7D42141E 
 635 0406 5640AD52 		.ascii	"V@\255RU\375\354!Q\210\376\304B\025\004E|\027\260\024"
 635      55FDEC21 
 635      5188FEC4 
 635      42150445 
 635      7C17B014 
 636 041a F11DF161 		.ascii	"\361\035\361a\322\206\032\332T\325\032\265\201\362\005"
 636      D2861ADA 
 636      54D51AB5 
 636      81F205
 637 0429 FA86F379 		.ascii	"\372\206\363y@\250@\205\267T\315\023\325\212\317D\233"
 637      40A84085 
 637      B754CD13 
 637      D58ACF44 
 637      9B
 638 043a F41FACDA 		.ascii	"\364\037\254\332,\253j\274\"\256\300\034L\024EC\013"
 638      2CAB6ABC 
 638      22AEC01C 
 638      4C144543 
 638      0B
 639 044b B1502461 		.ascii	"\261P$a\032\256\361\001K\363\321Eb2\311\216M\362\361"
 639      1AAEF101 
 639      4BF3D145 
ARM GAS  /tmp/ccRV1ReY.s 			page 49


 639      6232C98E 
 639      4DF2F1
 640 045e 53096A59 		.ascii	"S\011jYkNS=\264\246\342#\004_\233\274o\2328AU\341\305"
 640      6B4E533D 
 640      B4A6E223 
 640      045F9BBC 
 640      6F9A3841 
 641 0475 2A4CF297 		.ascii	"*L\362\227|\222+z\230\001I\302I\\e\015Cs\343\321\232"
 641      7C922B7A 
 641      980149C2 
 641      495C650D 
 641      4373E3D1 
 642 048a 2FC78A63 		.ascii	"/\307\212c1\364\032\033\204\217\013}U2\377>$\353X\206"
 642      31F41A1B 
 642      848F0B7D 
 642      5532FF3E 
 642      24EB5886 
 643 049e 53E1D2DA 		.ascii	"S\341\322\332\357\025a\344\352\344\355\"\226\374\006"
 643      EF1561E4 
 643      EAE4ED22 
 643      96FC06
 644 04ad CCC67B52 		.ascii	"\314\306{RL\311\033a$a\015\256\262)\212\215\251\365"
 644      4CC91B61 
 644      24610DAE 
 644      B2298A8D 
 644      A9F5
 645 04bf 1A1B9B6C 		.ascii	"\032\033\233l\261q\213\262\241\210\353\201\025I\330"
 645      B1718BB2 
 645      A188EB81 
 645      1549D8
 646 04ce 12C6A50D 		.ascii	"\022\306\245\015'k\355\242\336D\223\344C\013\030\361"
 646      276BEDA2 
 646      DE4493E4 
 646      430B18F1 
 647 04de EE54B52E 		.ascii	"\356T\265.U4\260\355\216\301\222\015`\323w\316\303\304"
 647      5534B0ED 
 647      8EC1920D 
 647      60D377CE 
 647      C3C4
 648 04f0 2508AF47 		.ascii	"%\010\257Gd,p\301\250`\327\037\332W+\216\307\374\177"
 648      642C70C1 
 648      A860D71F 
 648      DA572B8E 
 648      C7FC7F
 649 0503 0ED52461 		.ascii	"\016\325$a\206l\024\255}\250\033swl\023\307a\250*\014"
 649      866C14AD 
 649      7DA81B73 
 649      776C13C7 
 649      61A82A0C 
 650 0517 B5ADC550 		.ascii	"\265\255\305Pk\027l~\022\253{\027\006jf\200\0241.,\306"
 650      6B176C7E 
 650      12AB7B17 
 650      066A6680 
 650      14312E2C 
 651 052c F0B35600 		.ascii	"\360\263V\000\241\341\3274\201\026\221m\205\377\343"
 651      A1E1D734 
 651      8116916D 
ARM GAS  /tmp/ccRV1ReY.s 			page 50


 651      85FFE3
 652 053b E29230D9 		.ascii	"\342\2220\331eCu\361fv\2406\036\231zJ\234\243\206&\310"
 652      654375F1 
 652      6676A036 
 652      1E997A4A 
 652      9CA38626 
 653 0550 5A97F498 		.ascii	"Z\227\364\230\311\010\334\010nk\037k\313\227O\354\177"
 653      C908DC08 
 653      6E6B1F6B 
 653      CB974FEC 
 653      7F
 654 0561 A45C5593 		.ascii	"\244\\U\223\310\253\330\246\274~\317l{=\322\2435\237"
 654      C8ABD8A6 
 654      BC7ECF6C 
 654      7B3DD2A3 
 654      359F
 655 0573 8D9B3F88 		.ascii	"\215\233?\210\233?\3106\337|\372\3543\244\371\203\266"
 655      9B3FC836 
 655      DF7CFAEC 
 655      33A4F983 
 655      B6
 656 0584 9A6FA899 		.ascii	"\232o\250\231\021\335\274\">\323\301\3122.\237h\352"
 656      11DDBC22 
 656      3ED3C1CA 
 656      322E9F68 
 656      EA
 657 0595 B4103752 		.ascii	"\264\0207R\207{\314|7k\032\317&\032\225\007\317\272"
 657      877BCC7C 
 657      376B1ACF 
 657      261A9507 
 657      CFBA
 658 05a7 0292F0AE 		.ascii	"\002\222\360\256[\243\276E\035\026\330\014=\273\242"
 658      5BA3BE45 
 658      1D16D80C 
 658      3DBBA2
 659 05b6 52552779 		.ascii	"RU'y4\032\336s\214\230l\020\304\245\032\354\002\010"
 659      341ADE73 
 659      8C986C10 
 659      C4A51AEC 
 659      0208
 660 05c8 D84A3B60 		.ascii	"\330J;`\246v4.\364\243\036\254\3221\230\221\262\253"
 660      A676342E 
 660      F4A31EAC 
 660      D2319891 
 660      B2AB
 661 05da 7AB07576 		.ascii	"z\260uv\300\222\314)\273\256\007\333\350\030\314H\331"
 661      C092CC29 
 661      BBAE07DB 
 661      E818CC48 
 661      D9
 662 05eb 4D3DD856 		.ascii	"M=\330V;`\035\315)\373I\017\366\231c0#ew\364`Uv\300"
 662      3B601DCD 
 662      29FB490F 
 662      F6996330 
 662      236577F4 
 663 0603 92CD292B 		.ascii	"\222\315)+=\240\003\333\355\030\314HY\231\036l\237\035"
 663      3DA003DB 
ARM GAS  /tmp/ccRV1ReY.s 			page 51


 663      ED18CC48 
 663      59991E6C 
 663      9F1D
 664 0615 B04EE694 		.ascii	"\260N\346\224\315\320\203\035p\014f\244l\226\036\354"
 664      CDD0831D 
 664      700C66A4 
 664      6C961EEC 
 665 0625 901DB0CE 		.ascii	"\220\035\260\316\346\224\225\353\301\2168\0063R6W\017"
 665      E69495EB 
 665      C18E3806 
 665      33523657 
 665      0F
 666 0636 566F07AC 		.ascii	"Vo\007\254\2739e\363\364`'\034\203\031)[\245\007;m\007"
 666      BB3965F3 
 666      F460271C 
 666      8319295B 
 666      A5073B6D 
 667 064b AC873965 		.ascii	"\254\2079e\225z\260s\216\301\214\224}\254\007\273`\007"
 667      957AB073 
 667      8EC18C94 
 667      7DAC07BB 
 667      6007
 668 065d ACAF3965 		.ascii	"\254\2579e\353\364`?8\0063R\266A\017v\311\016\330`s"
 668      EBF4603F 
 668      38063352 
 668      B6410F76 
 668      C90ED860 
 669 0672 CA36EAC1 		.ascii	"\3126\352\301\2568\0063R\266Y\017v\335\016\330\213\346"
 669      AE380633 
 669      52B6590F 
 669      76DD0ED8 
 669      8BE6
 670 0684 946DD583 		.ascii	"\224m\325\203\375\344\030\314H\331~=\230\352\261\001"
 670      FDE418CC 
 670      48D97E3D 
 670      98EAB101 
 671 0694 36944359 		.ascii	"6\224CY\370\303\253\207\206\351\003bx\334\226\204\361"
 671      F8C3AB87 
 671      86E90362 
 671      78DC9684 
 671      F1
 672 06a5 1E6D82E3 		.ascii	"\036m\202\343p\214\026\"\030\257y\234N\310\014|\303"
 672      708C1622 
 672      18AF799C 
 672      4EC80C7C 
 672      C3
 673 06b6 CAE0F422 		.ascii	"\312\340\364\"q\372x\265\272\2636;\177\323\016\242\305"
 673      71FA78B5 
 673      BAB3363B 
 673      7FD30EA2 
 673      C5
 674 06c7 003877A7 		.ascii	"\0008w\247n\252?\3231\030c\312\010\3140u\242\323\353"
 674      6EAA3FD3 
 674      311863CA 
 674      08CC3075 
 674      A2D3EB
 675 06da C677421D 		.ascii	"\306wB\035\313#\223\267x\015\013\255\260\311L\015\026"
ARM GAS  /tmp/ccRV1ReY.s 			page 52


 675      CB2393B7 
 675      780D0BAD 
 675      B0C94C0D 
 675      16
 676 06eb DC52B8B0 		.ascii	"\334R\270\260\332\261#\277\254\"\316\220~\003\361L)"
 676      DAB123BF 
 676      AC22CE90 
 676      7E03F14C 
 676      29
 677 06fc 214C0549 		.ascii	"!L\005Ik\251f\021\311y\276\207\267v\307\000\326U\315"
 677      6BA96611 
 677      C979BE87 
 677      B776C700 
 677      D655CD
 678 070f 2CA14CD2 		.ascii	",\241L\322Y\302b;b\262\030\332\033v\316\373\205\332"
 678      59C2623B 
 678      62B218DA 
 678      1B76CEFB 
 678      85DA
 679 0721 181275FC 		.ascii	"\030\022u\374Z\012\007VD\263\366j+\2429\022Z}\254\360"
 679      5A0A0756 
 679      44B3F66A 
 679      2BA23912 
 679      5A7DACF0 
 680 0735 70973136 		.ascii	"p\22716\240n\314\375\360\267x\0313\017\003U\266\030"
 680      A06ECCFD 
 680      F0B77819 
 680      330F0355 
 680      B618
 681 0747 68ED8205 		.ascii	"h\355\202\005\3351\320B\014\264\221\001RD\221Y\017\211"
 681      DD31D042 
 681      0CB49101 
 681      52449159 
 681      0F89
 682 0759 C6158B98 		.ascii	"\306\025\213\230\020I4\033\325\365\263\226\205\025,"
 682      1049341B 
 682      D5F5B396 
 682      85152C
 683 0768 AB2F033B 		.ascii	"\253/\003;1gO\215GknO\023/\217S\313;;\320\330\241/4"
 683      31674F8D 
 683      476B6E4F 
 683      132F8F53 
 683      CB3B3BD0 
 684 0780 8D2DC5F2 		.ascii	"\215-\305\362\371\"J>\363$g\002\222\204/\0353\322\311"
 684      F9224A3E 
 684      F3246702 
 684      92842F1D 
 684      33D2C9
 685 0793 C8C8D4ED 		.ascii	"\310\310\324\355e\316\031\011\233\336\012\314\310\261"
 685      65CE1909 
 685      9BDE0ACC 
 685      C8B1
 686 07a1 9F819193 		.ascii	"\237\201\221\223\216\031\351\254c\004\355\220\\)#~\360"
 686      8E19E9AC 
 686      6304ED90 
 686      5C29237E 
 686      F0
ARM GAS  /tmp/ccRV1ReY.s 			page 53


 687 07b2 6EA1CC7A 		.ascii	"n\241\314ze\212\350Y)\335m\334\334:\274\033mn\241\354"
 687      658AE859 
 687      29DD6DDC 
 687      DC3ABC1B 
 687      6D6EA1EC 
 688 07c6 D89B5BD7 		.ascii	"\330\233[\327v\353\366/T["
 688      76EBF62F 
 688      545B
 689 07d0 FB17B36A 		.ascii	"\373\027\263j4\221\255\306\";\317\353d\266\240n\034"
 689      3491ADC6 
 689      223BCFEB 
 689      64B6A06E 
 689      1C
 690 07e1 D9BE9AEE 		.ascii	"\331\276\232\356_|\214\241.\266\030jm\375z\322_\327"
 690      5F7C8CA1 
 690      2EB6186A 
 690      6DFD7AD2 
 690      5FD7
 691 07f3 63A01B51 		.ascii	"c\240\033Qj\3640Z\364\030\265\010\217\250\245\353hw"
 691      6AF4305A 
 691      F418B508 
 691      8FA8A5EB 
 691      6877
 692 0805 417C95E6 		.ascii	"A|\225\346\240\2078\341\377\275\036\214\306q\"U\254"
 692      A08738E1 
 692      FFBD1E8C 
 692      C6712255 
 692      AC
 693 0816 C3D1386C 		.ascii	"\303\3218lA\247\312\264\221\224(i\362?\2058.\264\346"
 693      41A7CAB4 
 693      91942869 
 693      F23F8538 
 693      2EB4E6
 694 0829 0D6D13EE 		.ascii	"\015m\023\356Y4\226N\377'\341j\3678\3366\233\365\245"
 694      5934964E 
 694      FF27E16A 
 694      F738DE36 
 694      9BF5A5
 695 083c 667621CC 		.ascii	"fv!\314\321\3348V\305U\254O\266\263\213\364nK9\011\177"
 695      D1DC3856 
 695      C555AC4F 
 695      B6B38BF4 
 695      6E4B3909 
 696 0851 24E1C338 		.ascii	"$\341\3038\033Cf\262\205\272j\256Qu\305\334\212\322"
 696      1B4366B2 
 696      85BA6AAE 
 696      5175C5DC 
 696      8AD2
 697 0863 B6997757 		.ascii	"\266\231wW\215\245\333\314U\022\332\237]\315H\303\306"
 697      8DA5DBCC 
 697      5512DA9F 
 697      5DCD48C3 
 697      C6
 698 0874 9E560857 		.ascii	"\236V\010W\331%E\355\317\356\325\366g\321;\033\233Z"
 698      D92545ED 
 698      CFEED5F6 
 698      67D13B1B 
ARM GAS  /tmp/ccRV1ReY.s 			page 54


 698      9B5A
 699 0886 86FD5945 		.ascii	"\206\375YE\374T\224(nK%jPb\204@E\334\203\347G_H\017"
 699      FC549428 
 699      6E4B256A 
 699      50628440 
 699      45DC83E7 
 700 089e E8A5BFDF 		.ascii	"\350\245\277\337\261\364\223\365\322\017\335\332C\216"
 700      B1F493F5 
 700      D20FDDDA 
 700      438E
 701 08ac 24B41DFB 		.ascii	"$\264\035\373#,^\017\375\334\225&M\327\351j\250l\037"
 701      232C5E0F 
 701      FDDC9526 
 701      4DD7E96A 
 701      A86C1F
 702 08bf 9E74927E 		.ascii	"\236t\222~w\312\016q\026K\353\005\004\214\230\374y\307"
 702      77CA0E71 
 702      164BEB05 
 702      048C98FC 
 702      79C7
 703 08d1 60C906B0 		.ascii	"`\311\006\260-o\331;\020PE\375tX\022\256\342v\017\261"
 703      2D6FD93B 
 703      105045FD 
 703      745812AE 
 703      E2760FB1 
 704 08e5 9672A379 		.ascii	"\226r\243y\377k\324R\016\331\260\024\030l\360I\212&"
 704      FF6BD452 
 704      0ED9B014 
 704      186CF049 
 704      8A26
 705 08f7 E755F11A 		.ascii	"\347U\361\032\252\205\234yv\242\235\013\234\333%b82"
 705      AA859C79 
 705      76A29D0B 
 705      9CDB2562 
 705      3832
 706 0909 BDDFC0C2 		.ascii	"\275\337\300\302\305\\}\030\341\356\370\252;;\023\014"
 706      C55C7D18 
 706      E1EEF8AA 
 706      3B3B130C 
 707 0919 E98BA1A3 		.ascii	"\351\213\241\243\237\240\341\266\001w\303P<\353\224"
 707      9FA0E1B6 
 707      0177C350 
 707      3CEB94
 708 0928 886474F6 		.ascii	"\210dt\366|Hg\317_c{>\014\366\254\210Gq|\\o\333f#~\275"
 708      7C4867CF 
 708      5F637B3E 
 708      0CF6AC88 
 708      47717C5C 
 709 0942 7EBE5EED 		.ascii	"~\276^\355\230\357dF;f\315|\245o\246&\336\206\355\231"
 709      98EF6446 
 709      3B66CD7C 
 709      A56FA626 
 709      DE86ED99 
 710 0956 EFC4805B 		.ascii	"\357\304\200[\371j\2726$\221s\217\303\216\021\215\326"
 710      F96ABA36 
 710      2491738F 
 710      C38E118D 
ARM GAS  /tmp/ccRV1ReY.s 			page 55


 710      D6
 711 0967 7CF12DC3 		.ascii	"|\361-\303\220t\322\016\\\017\016\201\274\217\376\334"
 711      9074D20E 
 711      5C0F0E81 
 711      BC8FFEDC 
 712 0977 4A11B788 		.ascii	"J\021\267\210HM[E\244\240\020\216?\303\361^\034\277"
 712      484D5B45 
 712      A4A0108E 
 712      3FC3F15E 
 712      1CBF
 713 0989 89153715 		.ascii	"\211\0257\025\307\323p\\\216\343%8^\216\343\017q\274"
 713      C7D3705C 
 713      8EE32538 
 713      5E8EE30F 
 713      71BC
 714 099b 03C7FB70 		.ascii	"\003\307\373p\274\037\307\007p\374%\216O\342\370\264"
 714      BC1FC707 
 714      70FC258E 
 714      4FE2F8B4 
 715 09ab 1D03208E 		.ascii	"\035\003 \2166lf\232\317]\323\3423\261C\22131E\334\346"
 715      366C669A 
 715      CF5DD3E2 
 715      33B14391 
 715      333145DC 
 716 09c0 188CB528 		.ascii	"\030\214\265(\203$\327\350$\271\026Kr\035\226\333Y\243"
 716      8324D7E8 
 716      24B9164B 
 716      721D96DB 
 716      59A3
 717 09d2 1BBF10AF 		.ascii	"\033\277\020\257\235\324\266\304\035\250\215\007K6?"
 717      9DD4B6C4 
 717      1DA88D07 
 717      4B363F
 718 09e1 898F739C 		.ascii	"\211\217s\234Le\277\322\346\024\347\261\203\3751\252"
 718      4C65BFD2 
 718      E614E7B1 
 718      83FD31AA 
 719 09f1 FB7ECCCE 		.ascii	"\373~\314\316\376\035\315\343n\262<\331\365I|I~\240"
 719      FE1DCDE3 
 719      6EB23CD9 
 719      F5497C49 
 719      7EA0
 720 0a03 93E44A2C 		.ascii	"\223\344J,\311\217\260$\2773JRM@\255\276\033iu\250\326"
 720      C98FB024 
 720      BF334A52 
 720      4D40ADBE 
 720      1B6975A8 
 721 0a18 546B6B49 		.ascii	"TkkI\362[}W\327\3522\334\352r\321\206\215.\212l/\031"
 721      F25B7D57 
 721      D7EA32DC 
 721      EA72D186 
 721      8D2E8A6C 
 722 0a2e DC6A3BA1 		.ascii	"\334j;\241\024\253\247Gy\033\2623a\006pQj\207S\006}"
 722      14ABA747 
 722      791BB233 
 722      61067051 
 722      6A875306 
ARM GAS  /tmp/ccRV1ReY.s 			page 56


 723 0a43 92BD3393 		.ascii	"\222\2753\223\032\227t\273\037\255\023\"\0119\006\251"
 723      1A9774BB 
 723      1FAD1322 
 723      093906A9 
 724 0a53 4D114767 		.ascii	"M\021Gg\177B\272\360\275o~\367\021>\027\273L\266\010"
 724      7F42BAF0 
 724      BD6F7EF7 
 724      113E17BB 
 724      4CB608
 725 0a66 1258DB71 		.ascii	"\022X\333q3\246\3436\232\216;!\222\240\323\321\230\343"
 725      33A6E336 
 725      9A8E3B21 
 725      92A0D3D1 
 725      98E3
 726 0a78 8FA49FCF 		.ascii	"\217\244\237\317PB\246\257\334\365*1\342kx\014\232\324"
 726      5042A6AF 
 726      DCF52A31 
 726      E26B780C 
 726      9AD4
 727 0a8a 2AE651BD 		.ascii	"*\346Q\275\021\007\321v\223\031\334Cu\365\370V\307M"
 727      1107D176 
 727      9319DC43 
 727      75F5F856 
 727      C74D
 728 0a9c 5B53C086 		.ascii	"[S\300\206\372\005\321\023\213{\205\231To\252\0304="
 728      FA05D113 
 728      8B7B8599 
 728      546FAA18 
 728      343D
 729 0aae 6544E077 		.ascii	"eD\340w\244{qJ\306w_bJ\2411<\012\377*,\205\320\361\243"
 729      A47B714A 
 729      C6775F62 
 729      4AA1313C 
 729      0AFF2A2C 
 730 0ac6 BF46F48E 		.ascii	"\277F\364\216\225\221\010f\304\026\201\021D\021\307"
 730      95910866 
 730      C4168111 
 730      4411C7
 731 0ad5 CBC8E9A1 		.ascii	"\313\310\351\241\303`\203\030n/\304b@\371\261\3050\363"
 731      C3608318 
 731      6E2FC462 
 731      40F9B1C5 
 731      30F3
 732 0ae7 C45979B6 		.ascii	"\304Yy\266\032\032+\307\011%x\003b\342\270X\033\020"
 732      1A1A2BC7 
 732      09257803 
 732      62E2B858 
 732      1B10
 733 0af9 CD95E73A 		.ascii	"\315\225\347:\022\345\275\006\265$\341 C\271\015$D\327"
 733      12E5BD06 
 733      B524E120 
 733      43B90D24 
 733      44D7
 734 0b0b 64A86CA0 		.ascii	"d\250l\240{zI[D7\312\267\240\033\013\\\022\032Z\021"
 734      7B7A495B 
 734      4437CAB7 
 734      A01B0B5C 
ARM GAS  /tmp/ccRV1ReY.s 			page 57


 734      121A5A11 
 735 0b1f 61B81222 		.ascii	"a\270\022\"y\347#y\242\256\350\225H\266v\235\020=Zn"
 735      79E72379 
 735      A2AEE895 
 735      48B6769D 
 735      103D5A6E 
 736 0b33 61458853 		.ascii	"aE\210S\3047d\344@\246\3102\267\032\370\256D\221\252"
 736      C43764E4 
 736      40A6C832 
 736      B71AF8AE 
 736      4491AA
 737 0b46 81C76ACC 		.ascii	"\201\307j\314\201\014:\303\305\327\305\3323\023\325"
 737      810C3AC3 
 737      C5D7C5DA 
 737      3313D5
 738 0b55 55439D28 		.ascii	"UC\235(\341\342}D\0113\260\022J\022[\244\204\331\254"
 738      E1E27D44 
 738      0933B012 
 738      4A125BA4 
 738      84D9AC
 739 0b68 12D61225 		.ascii	"\022\326\022%\314\266\245\204\031\211\321JX\224\310"
 739      CCB6A584 
 739      1989D14A 
 739      5894C8
 740 0b77 55C2AA44 		.ascii	"U\302\252D\347J\230\255SB9V\302\034S%ls\254\204xF\011"
 740      E74A98AD 
 740      53423956 
 740      C21C5325 
 740      6C73AC84 
 741 0b8e B5935AA0 		.ascii	"\265\223Z\240\204\033\377B\224\260\010+aW\313\224\260"
 741      841BFF42 
 741      94B0082B 
 741      6157CB94 
 741      B0
 742 0b9f 9455421D 		.ascii	"\224UB\035Q\302R[J\250\343(\341$_\011\227[\240\204\245"
 742      51C2525B 
 742      4AA8E328 
 742      E1245F09 
 742      975BA084 
 743 0bb4 3A25BC83 		.ascii	":%\274\203\225\360\256\251\022&\264v\252\204$\266'L"
 743      95F0AEA9 
 743      1226B476 
 743      AA8424B6 
 743      274C
 744 0bc6 12BF5956 		.ascii	"\022\277YV\2422\207\026\332\316\000\210\332tDP\304\353"
 744      A2328716 
 744      DACE0088 
 744      DA744450 
 744      C4EB
 745 0bd8 78651219 		.ascii	"xe\022\031\025P\336Ov\246\246+e\335\242a\012\313\203"
 745      1550DE4F 
 745      76A6A62B 
 745      65DDA261 
 745      0ACB83
 746 0beb DD992475 		.ascii	"\335\231$u\250\307NT\243%^K\006\204\306\272\0237&\211"
 746      A8C74E54 
 746      A3255E4B 
ARM GAS  /tmp/ccRV1ReY.s 			page 58


 746      0684C6BA 
 746      13372689 
 747 0bff ABF100BD 		.ascii	"\253\361\000\275\006\017\0125\255\035\016\012\210\235"
 747      060F0A35 
 747      AD1D0E0A 
 747      889D
 748 0c0d 75EC8030 		.ascii	"u\354\2000\037\221\2046\032\327\305\036\022&\214\017"
 748      1F918436 
 748      1AD7C51E 
 748      12268C0F 
 749 0c1d AD3E512D 		.ascii	"\255>Q-Ef\245\343-'\026\212\270\023O\257\354l[\035\307"
 749      4566A5E3 
 749      2D27168A 
 749      B8134FAF 
 749      EC6C5B1D 
 750 0c32 CCAC7320 		.ascii	"\314\254s Y#]\225D\262\212\370\211\214\354\267\3211"
 750      59235D95 
 750      44B28AF8 
 750      898CECB7 
 750      D131
 751 0c44 5CB201EE 		.ascii	"\\\262\001\356c#\334\267v\340\314\326\342\000\267\316"
 751      6323DCB7 
 751      76E0CCD6 
 751      E200B7CE 
 752 0c54 0877C631 		.ascii	"\010w\3061\234\221\272\015F\270\363v\340\314N\025\001"
 752      9C91BA0D 
 752      46B8F376 
 752      E0CC4E15 
 752      01
 753 0c65 6EA311EE 		.ascii	"n\243\021\356\007\307pF\3526\033\341.\333\201\343\235"
 753      07C77046 
 753      EA361BE1 
 753      2EDB81E3 
 753      9D
 754 0c76 BFF13E7A 		.ascii	"\277\361>z\003\206\345\035v9\033d\264f\330\204\343-"
 754      0386E51D 
 754      76391B64 
 754      B466D884 
 754      E32D
 755 0c88 38FE14C7 		.ascii	"8\376\024\307\333p\3749\216w\3106\272z\245\276\253_"
 755      DB70FC39 
 755      8E77C836 
 755      BA7AA5BE 
 755      AB5F
 756 0c9a B7D3D5CD 		.ascii	"\267\323\325\315\267_\320\230\361\206X\213\335\225v"
 756      B75FD098 
 756      F186588B 
 756      DD9576
 757 0ca9 9BF18E63 		.ascii	"\233\361\216c\310d=d\350\366\211&\031\367=\033\376\317"
 757      C8643D64 
 757      E8F68926 
 757      19F73D1B 
 757      FECF
 758 0cbb B044A21E 		.ascii	"\260D\242\036d\376w\273~\217F\244X\267\214\025q/\010"
 758      64FE77BB 
 758      7E8F46A4 
 758      58B78C15 
ARM GAS  /tmp/ccRV1ReY.s 			page 59


 758      712F08
 759 0cce D6CEDDE9 		.ascii	"\326\316\335\351\032\326\233\\\331\207\247\2275\266"
 759      1AD69B5C 
 759      D987A797 
 759      35B6
 760 0cdc A697D76C 		.ascii	"\246\227\327ln\337\205D\275\231\204\335\341\256g\310"
 760      6EDF8544 
 760      BD9984DD 
 760      E1AE67C8 
 761 0cec F07A107B 		.ascii	"\360z\020{\303\275w\305\364\206F\034\274w\305\322\277"
 761      C3BD77C5 
 761      F486461C 
 761      BC77C5D2 
 761      BF
 762 0cfd A606D37F 		.ascii	"\246\006\323\177\310\226/\\O\257\037\206\235\016&\341"
 762      C8962F5C 
 762      4FAF1F86 
 762      9D0E26E1 
 763 0d0d 508B7DD8 		.ascii	"P\213}\330\006r\357\213\272\034\307`\311\006\260\215"
 763      0672EF8B 
 763      BA1CC760 
 763      C906B08D 
 764 0d1d 7AB0B376 		.ascii	"z\260\263v\300,\374\327f=\330\005\307`F\312\266\352"
 764      C02CFCD7 
 764      663DD805 
 764      C76046CA 
 764      B6EA
 765 0d2f C12EDA01 		.ascii	"\301.\332\001\263\360]\373\365`W\035\203%\363\324+D"
 765      B3F05DFB 
 765      F560571D 
 765      8325F3D4 
 765      2B44
 766 0d41 598722D6 		.ascii	"Y\207\"\326aW\3635v&Gp|\014\307\3658n\304\361\011;N"
 766      6157F335 
 766      76264770 
 766      7C0CC7F5 
 766      386EC4F1 
 767 0d58 E680DEC9 		.ascii	"\346\200\336\311\334\304\004\327\264\314b\300\311\314"
 767      DCC404D7 
 767      B4CC62C0 
 767      C9CC
 768 0d66 FFEE9BA7 		.ascii	"\377\356\233\2476\342\233\244\314\025X$\0173\012N\353"
 768      36E29BA4 
 768      CC155824 
 768      0F330A4E 
 768      EB
 769 0d77 2918DBC6 		.ascii	")\030\333\306)\005\311z\012B\267\366\221\333\021\332"
 769      2905C97A 
 769      0A42B7F6 
 769      91DB11DA 
 770 0d87 0D851216 		.ascii	"\015\205\022\026\2177\313\263\332\265\336\227\270j\250"
 770      8F37CBB3 
 770      DAB5DE97 
 770      B86AA8
 771 0d96 06F6A663 		.ascii	"\006\366\246c0\303\274=TZ\243\003\233\355\030,)\312"
 771      30C3BC3D 
 771      545AA303 
ARM GAS  /tmp/ccRV1ReY.s 			page 60


 771      9BED182C 
 771      29CA
 772 0da8 22882DEC 		.ascii	"\"\210-\354\307\266P\213u~\012\307gq\374\035\216/\350"
 772      C7B6508B 
 772      757E0AC7 
 772      6771FC1D 
 772      8E2FE8
 773 0dbb AD401216 		.ascii	"\255@\022\026\264a\267Q\210s\324\241F\274\250`\027\327"
 773      B461B751 
 773      8873D4A1 
 773      46BCA860 
 773      17D7
 774 0dcd 4CB77BF4 		.ascii	"L\267{\364\272]\335\306\306xc~\333\010\015aS\350\214"
 774      BA5DDDC6 
 774      C678637E 
 774      DB080D61 
 774      53E88C
 775 0de0 9B204BC2 		.ascii	"\233 K\302z\307\220:s\201\356:\377\333\263r\271\032"
 775      7AC7903A 
 775      7381EE3A 
 775      FFDBB372 
 775      B91A
 776 0df2 1AA74D1F 		.ascii	"\032\247M\037\325\022\265\323\3626:\211S\010\264\002"
 776      D512B5D3 
 776      F2363A89 
 776      5308B402 
 777 0e02 095F8159 		.ascii	"\011_\201Y\377\0370A\245\033YV\025\024\361G\254\031"
 777      FF1F3041 
 777      A51B5956 
 777      1514F147 
 777      AC19
 778 0e14 D938DF94 		.ascii	"\3318\337\224\023\"\211\346f\374\203\244-\214Rl\200"
 778      132289E6 
 778      66FC83A4 
 778      2D8C526C 
 778      80
 779 0e25 87EFD12C 		.ascii	"\207\357\321,#\277+\270\206=NU\224vef\223,\0261\216"
 779      23BF2BB8 
 779      863D4E55 
 779      94766566 
 779      932C1631 
 780 0e3a 0A4B422D 		.ascii	"\012KB-\253\000\003\221\216gS\023t.n\"\026^\0116\266"
 780      AB000391 
 780      8E675313 
 780      742E6E22 
 780      165E0936 
 781 0e4f E938AEC0 		.ascii	"\3518\256\300\361\2078^\215\343j\034\357\306q\023\216"
 781      F187385E 
 781      8DE36A1C 
 781      EFC67113 
 781      8E
 782 0e60 2FD9314B 		.ascii	"/\3311K5b\226\2128D\266,\037\336\005<W\260\034\257v"
 782      3562968A 
 782      3844B62C 
 782      1FDE053C 
 782      57B01CAF 
 783 0e75 6E4BC8F2 		.ascii	"nK\310\362\352\030I3\016\017m\271\231\265~[6\234.\030"
ARM GAS  /tmp/ccRV1ReY.s 			page 61


 783      EA184933 
 783      0E0F6DB9 
 783      99B57E5B 
 783      369C2E18 
 784 0e89 04C0BC83 		.ascii	"\004\300\274\203A\034\267s\323\371i\2576\251\241[\207"
 784      411CB773 
 784      D3F969AF 
 784      36A9A15B 
 784      87
 785 0e9a 1ADDDF39 		.ascii	"\032\335\3379\306K6\340\335\251\307\003\034\001\373"
 785      C64B36E0 
 785      DDA9C703 
 785      1C01FB
 786 0ea9 D10E9885 		.ascii	"\321\016\230\205w\235\325\300^\371\263\277\2519\321"
 786      779DD5C0 
 786      5EF9B3BF 
 786      A939D1
 787 0eb8 65D8D424 		.ascii	"e\330\324$J\015?\\!voS\273\241\267\027\334\203\267!"
 787      4A0D3F5C 
 787      21766F53 
 787      BBA1B717 
 787      DC83B721 
 788 0ecc 5D88ABDB 		.ascii	"]\210\253\333\326\252E\015\233\0215\331e\256Z\346\235"
 788      D6AA450D 
 788      9B1135D9 
 788      65AE5AE6 
 788      9D
 789 0edd 24BCD6D6 		.ascii	"$\274\326\326\251\364\214\252X\330\360O\355\012\277"
 789      A9F48CAA 
 789      58D8F04F 
 789      ED0ABF
 790 0eec 652140DB 		.ascii	"e!@\333\333\364\241\203ow@\222\233\206\267i\246\265"
 790      DBF4A183 
 790      6F774092 
 790      9B86B769 
 790      A6B5
 791 0efe FD19EE8C 		.ascii	"\375\031\356\2148P\333&\242\2667\261\332\346\267\265"
 791      3850DB26 
 791      A2B637B1 
 791      DAE6B7B5 
 792 0f0e 54DB5B16 		.ascii	"T\333[\026j\233e\241\266Y\254\332\226\331Q\233\305\245"
 792      6A9B65A1 
 792      B659ACDA 
 792      96D9519B 
 792      C5A5
 793 0f20 D94F1AB4 		.ascii	"\331O\032\264\036I\226a\253\034\343\031\315`\377\302"
 793      1E499661 
 793      AB1CE319 
 793      CD60FFC2 
 794 0f30 D6FB8712 		.ascii	"\326\373\207\022\213\227\204u,\230]\177L\301\276\326"
 794      8B978475 
 794      2C985D7F 
 794      4CC1BED6 
 795 0f40 836D740C 		.ascii	"\203mt\014f\330\"\0135\351\301\266:\006K\216\322\206"
 795      66D8220B 
 795      35E9C1B6 
 795      3A064B8E 
ARM GAS  /tmp/ccRV1ReY.s 			page 62


 795      D286
 796 0f52 4E2D3775 		.ascii	"N-7u\307\374\267\360f\332O\370|\267\031\217\002c](\036"
 796      C7FCB7F0 
 796      66DA4FF8 
 796      7CB7198F 
 796      02635D28 
 797 0f67 8FE32938 		.ascii	"\217\343)8.\307\361\\\034\317\303\361\002\227\215\221"
 797      2EC7F15C 
 797      1CCFC3F1 
 797      02978D91 
 798 0f77 E2AA6479 		.ascii	"\342\252dy\312\226\334\321p\306\326Q\253.\323\352\213"
 798      CA96DCD1 
 798      70C6D651 
 798      AB2ED3EA 
 798      8B
 799 0f88 5C4ECFD8 		.ascii	"\\N\317\330\026\273\370glR\014B+\\|B\265u\247nO\267"
 799      16BBF867 
 799      6C520C42 
 799      2B5C7C42 
 799      B575A76E 
 800 0f9e 54D6     		.ascii	"T\326"
 801 0fa0 2AA70AE1 		.ascii	"*\247\012\341\361m\346\235s\327\264+\247.\264\200\335"
 801      F16DE69D 
 801      73D7B42B 
 801      A72EB480 
 801      DD
 802 0fb1 C574A798 		.ascii	"\305t\247\230@0&\342*\313\\\354\217\201\225d\222\033"
 802      403026E2 
 802      2ACB5CEC 
 802      8F819564 
 802      921B
 803 0fc3 FB064BC3 		.ascii	"\373\006K\303\271x\265\2445_\270}\265\306\022(\313\357"
 803      B978B5A4 
 803      355FB87D 
 803      B5C61228 
 803      CBEF
 804 0fd5 3B16EE07 		.ascii	";\026\356\007&\302\245\323t`\341t\230\005^\253\261\206"
 804      26C2A5D3 
 804      7460E174 
 804      98055EAB 
 804      B186
 805 0fe7 5B35D4E4 		.ascii	"[5\324\344.\357\314'\277X\253\255\271\270\217\034\223"
 805      2EEFCC27 
 805      BF58ABAD 
 805      B9B88F1C 
 805      93
 806 0ff8 BFCA84FC 		.ascii	"\277\312\204\3746a\362\317"
 806      3661F2CF 
 807 1000 B3E41B5A 		.ascii	"\263\344\033Z\215\265BQC\227\200|B\031\014\356v\260"
 807      8DB54251 
 807      4397807C 
 807      42190CEE 
 807      76B0
 808 1012 4C5D891A 		.ascii	"L]\211\032\3721\"\212\212\036FY\3640\222\242\210k\035"
 808      FA31228A 
 808      8A1E4659 
 808      F43092A2 
ARM GAS  /tmp/ccRV1ReY.s 			page 63


 808      886B1D
 809 1025 CB629D89 		.ascii	"\313b\235\211,\264{\241\222p\207\245\337\320*M&\353"
 809      2CB47BA1 
 809      927087A5 
 809      DFD02A4D 
 809      26EB
 810 1037 E9EF6EA0 		.ascii	"\351\357n\240\377*\226\305\",\213\327\222\030,CO\247"
 810      FF2A96C5 
 810      222C8BD7 
 810      92182C43 
 810      4FA7
 811 1049 C94E1C2C 		.ascii	"\311N\034,\336G\337E\024q\205\0139\257\367\260KZ\211"
 811      DE47DF45 
 811      1471850B 
 811      39AFF7B0 
 811      4B5A89
 812 105c E34A1C7F 		.ascii	"\343J\034\177\214\343\015v\234\324\022\223\276O~\326"
 812      8CE30D76 
 812      9CD41293 
 812      BE4F7ED6 
 813 106c 6F566BA3 		.ascii	"oVk\243i-\244\177\263Z\233Lk\255\265\250\265\331\264"
 813      692DA47F 
 813      B35A9B4C 
 813      6BADB5A8 
 813      B5D9B4
 814 107f D6FB16B5 		.ascii	"\326\373\026\265\266Dj\321K(\265\213\217|.\202\037B"
 814      B6446AD1 
 814      4B28B58B 
 814      8F7C2E82 
 814      1F42
 815 1091 B79CC88D 		.ascii	"\267\234\310\215\260\331\240\031\336IC\033\015\354\202"
 815      B0D9A019 
 815      DE49431B 
 815      0DEC82
 816 10a0 88AD6111 		.ascii	"\210\255a\021\326`\210\365M\207\207&\223\334\330\333"
 816      D66088F5 
 816      4D878726 
 816      93DCD8DB 
 817 10b0 83C72BE8 		.ascii	"\203\307+\350}8\025/=?\014\003\266db\016\256\356\244"
 817      7D38152F 
 817      3D3F0C03 
 817      B664620E 
 817      AEEEA4
 818 10c3 C1D5F19D 		.ascii	"\301\325\361\235F\251[CJ\2472\331\351\270\247T\233\364"
 818      46A95B43 
 818      4AA732D9 
 818      E9B8A754 
 818      9BF4
 819 10d5 943F1AA9 		.ascii	"\224?\032\251\253h\245\275X\252\235\365U9nk\227I[\332"
 819      AB68A5BD 
 819      58AA9DF5 
 819      55396E6B 
 819      97495BDA 
 820 10e9 419D24AC 		.ascii	"A\235$\254e\305\306\264\033{\005r\261i\203\010\222\323"
 820      65C5C6B4 
 820      1B7B0572 
 820      B1698308 
ARM GAS  /tmp/ccRV1ReY.s 			page 64


 820      92D3
 821 10fb F65136B3 		.ascii	"\366Q6\263\200\274}\224\345\242\231\"\306\205.\375\025"
 821      80BC7D94 
 821      E5A29922 
 821      C6852EFD 
 821      15
 822 110c F5730256 		.ascii	"\365s\002V\355\034\314\350@\257,O\300\264\2211\364+"
 822      ED1CCCE8 
 822      40AF2C4F 
 822      C0B49131 
 822      F42B
 823 111e 16CE3862 		.ascii	"\026\3168br\361\350\024J\021\267r\272\276\361\202$M"
 823      72F1E814 
 823      4A11B772 
 823      BABEF182 
 823      244D
 824 1130 7E6DA84F 		.ascii	"~m\250O\205u\277\260@\335\337\024\332R\365\026L6\307"
 824      8575BFB0 
 824      40DDDF14 
 824      DA52F516 
 824      4C36C7
 825 1143 859A9B9F 		.ascii	"\205\232\233\237\025\310\252T\022\352\223\214#\373\203"
 825      15C8AA54 
 825      12EA938C 
 825      23FB83
 826 1152 C212552D 		.ascii	"\302\022U-S\337\366\365\325l\373;\\\242\326u?W\321\341"
 826      53DFF6F5 
 826      D56CFB3B 
 826      5CA2D675 
 826      3F57D1E1 
 827 1166 F5F343C2 		.ascii	"\365\363C\302;\310.6\251\203;\342\225\206@+\351>\212"
 827      3BC82E36 
 827      A9833BE2 
 827      9586402B 
 827      E93E8A
 828 1179 78C025E9 		.ascii	"x\300%\3513(]\307\252Z\227\216mln\276_#\252\211O\324"
 828      33285DC7 
 828      AA5A978E 
 828      6D6C6EBE 
 828      5F23AA89 
 829 118f 348D2845 		.ascii	"4\215(E\374\322\205n\220\034j\011Q\207X\242\352\270"
 829      FCD2856E 
 829      901C6A09 
 829      518758A2 
 829      EAB8
 830 11a1 446DDDC9 		.ascii	"Dm\335\311\020u\215O\324L\226\250#-!\352\010K\324Q."
 830      10758D4F 
 830      D44C96A8 
 830      232D21EA 
 830      084BD451 
 831 11b6 51F511A2 		.ascii	"Q\365\021\242\320\022F\022\324v\366\210\252\267&\212"
 831      D0124612 
 831      D476F688 
 831      AAB7268A 
 832 11c6 563B8AAA 		.ascii	"V;\212\252\221\325\333$\014l^m\032\351\334<^\352Y^\032"
 832      91D5DB24 
 832      0C6C5E6D 
ARM GAS  /tmp/ccRV1ReY.s 			page 65


 832      1AE9DC3C 
 832      5EEA595E 
 833 11db A2790935 		.ascii	"\242y\01155\236Zy\002\237\326\252\315\315\257&\333_"
 833      359E5A79 
 833      029FD6AA 
 833      CDCDAF26 
 833      DB5F
 834 11ed A99E6257 		.ascii	"\251\236bW\252\213\360=J\335\032Q\022\336\340K\005\263"
 834      AA8BF03D 
 834      4ADD1A51 
 834      12DEE04B 
 834      05B3
 835 11ff B7085F60 		.ascii	"\267\010_`.\307%N\232\262G/\324Q\366\016\353\331;\311"
 835      2EC7254E 
 835      9AB2472F 
 835      D451F60E 
 835      EBD93BC9 
 836 1213 B27786CB 		.ascii	"\262w\206\313^\355\342K\277\234_Y\241NR\3574\277*\332"
 836      5EEDE24B 
 836      BF9C5F59 
 836      A14E52EF 
 836      34BF2ADA 
 837 1227 E7EF02E5 		.ascii	"\347\357\002\345/\302\222$\314c\370\241\204\301 \261"
 837      2FC29224 
 837      CC63F8A1 
 837      84C120B1 
 838 1237 5C95C384 		.ascii	"\\\225\303\204\235g\011\373\236G\230Z\251\252\011 \363"
 838      9D6709FB 
 838      9E47985A 
 838      A9AA0920 
 838      F3
 839 1248 665522DB 		.ascii	"fU\"\333\0270z\361\3055\2335\242\037l\031Q\235\322I"
 839      17307AF1 
 839      C5359B35 
 839      A21F6C19 
 839      519DD249 
 840 125c 5BE6ADC7 		.ascii	"[\346\255\307\300\272j\314\226(\335\230\341\031\321"
 840      C0BA6ACC 
 840      9628DD98 
 840      E119D1
 841 126b 0F2C334D 		.ascii	"\017,3M<fB\233\336\230q\337\353\304\245\305\033dl\377"
 841      3C66429B 
 841      DE9871DF 
 841      EBC4A5C5 
 841      1B646CFF 
 842 127f 2ECCCC3B 		.ascii	".\314\314;\333\036\"\273\246.t\025\346\023F\0306\257"
 842      DB1E22BB 
 842      A62E7415 
 842      E6134618 
 842      36AF
 843 1291 C2DC7431 		.ascii	"\302\334t1Wa\346\273%\222\033\373\"Lu\273\350\2130\373"
 843      5761E6BB 
 843      25921BFB 
 843      224C75BB 
 843      E88B30FB 
 844 12a5 DB712FC2 		.ascii	"\333q/\302\034ng\274\010C\263\277\211d\313\272\354s"
 844      1C6E67BC 
ARM GAS  /tmp/ccRV1ReY.s 			page 66


 844      0843B3BF 
 844      8964CBBA 
 844      EC73
 845 12b7 916C972E 		.ascii	"\221l\227.\373R$\333\255\313\276\031\311\366\350\262"
 845      FB5224DB 
 845      ADCBBE19 
 845      C9F6E8B2 
 846 12c7 27B40F67 		.ascii	"'\264\017g\307\351\262'G\262\265\025\023z\264\274\222"
 846      C7E9B227 
 846      47B2B515 
 846      137AB4BC 
 846      92
 847 12d8 131112AC 		.ascii	"\023\021\022\254\323\361T\367'\027\377J\216Y\357\270"
 847      D3F154F7 
 847      2717FF4A 
 847      8E59EFB8 
 848 12e8 EA32BFBD 		.ascii	"\3522\277\275h}\303u\252\233\277\315+\011\245\355y\346"
 848      687DC375 
 848      AA9BBFCD 
 848      2B09A5ED 
 848      79E6
 849 12fa 0F1DF8BB 		.ascii	"\017\035\370\273GjPg!u%a9.w\305\264\023\320\026\260"
 849      476A5067 
 849      21752561 
 849      392E77C5 
 849      B413D016 
 850 130f 3597A9B5 		.ascii	"5\227\251\265\307\2205_\243\006\240\253\305\230\016"
 850      C790355F 
 850      A306A0AB 
 850      C5980E
 851 131e 7E5DEA8E 		.ascii	"~]\352\2162\356\212\306P\335\344)\341\361\332`\334t"
 851      32EE8AC6 
 851      50DDE429 
 851      E1F1DA60 
 851      DC74
 852 1330 0E66E737 		.ascii	"\016f\3477\272G>x\030\033\367,7\336^bX\265\017\264\266"
 852      BA473E78 
 852      181BF72C 
 852      37DE5E62 
 852      58B50FB4 
 853 1345 7E7E0A06 		.ascii	"~~\012\006\232\203\201\3263@\212(0{{\202qo\017\036\221"
 853      9A8381D6 
 853      33408A28 
 853      307B7B82 
 853      716F0F1E 
 854 135a D3698EDC 		.ascii	"\323i\216\334\335\206\234W\205\026\3251S\361L7g\023"
 854      DD869C57 
 854      8516D531 
 854      53F14C37 
 854      6713
 855 136c 935176C8 		.ascii	"\223Qv\310L\331G\036\336B\224M*m\307\036o\206\333\336"
 855      4CD9471E 
 855      DE42944D 
 855      2A6DC71E 
 855      6F86DBDE 
 856 1380 58BE1A2B 		.ascii	"X\276\032+{\026\276el\250\305S\366\374he76\205f\354"
 856      7B16BE65 
ARM GAS  /tmp/ccRV1ReY.s 			page 67


 856      6CA8C553 
 856      F6FC6865 
 856      37368566 
 857 1395 2143FBC2 		.ascii	"!C\373\302\036\314X\201P\3158^\344vv\231\327\270\020"
 857      1ECC5881 
 857      50CD385E 
 857      E4767699 
 857      D7B810
 858 13a8 A21BA7B7 		.ascii	"\242\033\247\267\232DX\367,u\343\215\236(\275\222\365"
 858      9A4458F7 
 858      2C75E38D 
 858      9E28BD92 
 858      F5
 859 13b9 904E4921 		.ascii	"\220NI!\335z\3653\334\211?\307\253\323\0358\336\203"
 859      DD7AF533 
 859      DC893FC7 
 859      ABD31D38 
 859      DE83
 860 13cb E3BD38AE 		.ascii	"\343\2758\256\3011o\352\032\275j5\355\235u\\\205\205"
 860      C1316FEA 
 860      1ABD6A35 
 860      ED9D755C 
 860      8585
 861 13dd 66EE5908 		.ascii	"f\356Y\010}C\"5%\241\001\227\2520U\327\022\267\271\272"
 861      7D432235 
 861      25A10197 
 861      AA3055D7 
 861      12B7B9BA 
 862 13f1 2AACD5B5 		.ascii	"*\254\325\265\214\253.4\360\220\276\371\251*\3063*C"
 862      8CAB2E34 
 862      F090BEF9 
 862      A92AC633 
 862      2A43
 863 1403 BDDE8CD3 		.ascii	"\275\336\214\323\017X#En\203\341\371[.\317\352B4 \223"
 863      0F582345 
 863      6E83E1F9 
 863      5B2ECFEA 
 863      42342093 
 864 1417 E2656E64 		.ascii	"\342end\236\357\233\362\253\367E\343\030_\364\2765\277"
 864      9EEF9BF2 
 864      ABF745E3 
 864      185FF4BE 
 864      35BF
 865 1429 2BF9FC4E 		.ascii	"+\371\374N5\361E\326\006Z\311\3436\374@\367*\030\356"
 865      35F145D6 
 865      065AC9E3 
 865      36FC40F7 
 865      2A18EE
 866 143c 7FE4737F 		.ascii	"\177\344s\177%\273\257\346\211\325\273Q\211\325\326"
 866      25BBAFE6 
 866      89D5BB51 
 866      89D5D6
 867 144b DCEB277D 		.ascii	"\334\353'}K\360\241\300\0331\252Qr\270F\262\332Zhk\271"
 867      4BF0A1C0 
 867      1B31AA51 
 867      72B846B2 
 867      DA5A686B 
ARM GAS  /tmp/ccRV1ReY.s 			page 68


 868 1460 0EBCE160 		.ascii	"\016\274\341`Xh\035\031\241\315\263\030\2526\3330\221"
 868      58681D19 
 868      A1CDB318 
 868      AA36DB30 
 868      91
 869 1471 A9777385 		.ascii	"\251ws\205\324\234\315\230\310&\233&\262\006sK~\177"
 869      D49CCD98 
 869      C8269B26 
 869      B206734B 
 869      7E7F
 870 1483 6FA8C5E3 		.ascii	"o\250\305\343v+\227\3339\207\366\210@\302O\3504\230"
 870      762B97DB 
 870      3987F688 
 870      40C24FE8 
 870      3498
 871 1495 E176B505 		.ascii	"\341v\265\005\267\237\261\334>\033\305\354B>\263\015"
 871      B79FB1DC 
 871      3E1BC5EC 
 871      423EB30D 
 872 14a5 8859FC7B 		.ascii	"\210Y\374{\264\025\270\3006S^\237\325+\366\243\222\211"
 872      B415B8C0 
 872      36535E9F 
 872      D52BF6A3 
 872      9289
 873 14b7 492E4293 		.ascii	"I.B\223`Q\213\222\267\235\313\353\355Y\246\274Z\314"
 873      60518B92 
 873      B79DCBEB 
 873      ED59A6BC 
 873      5ACC
 874 14c9 ED77D950 		.ascii	"\355w\331P\354\207|^\257E\254\1773.QmK\261\252\372\246"
 874      EC877C5E 
 874      AF45AC7F 
 874      332E516D 
 874      4BB1AAFA 
 875 14de 3A31490C 		.ascii	":1I\014O\253Q-\335\007\3745\227\275\312\272\360:\023"
 875      4FAB512D 
 875      DD07FC35 
 875      97BDCABA 
 875      F03A13
 876 14f1 D12C09DB 		.ascii	"\321,\011\333\370T\335\210\230\333^ln5-\242\252\206"
 876      F854DD88 
 876      98DB5E6C 
 876      6E352DA2 
 876      AA86
 877 1503 A56A3F97 		.ascii	"\245j?\227\252\257Y\252jc\310J\243\352`\213\250:\310"
 877      AAAF59AA 
 877      6A63C84A 
 877      A3EA608B 
 877      A83AC8
 878 1516 52F52597 		.ascii	"R\365%\227\252;,U\215\026\326\252\247\252\256ET\325"
 878      AA3B2C55 
 878      8D16D6AA 
 878      A7AAAE45 
 878      54D5
 879 1528 B1547DCD 		.ascii	"\261T}\315\245\352\343#\014U\347\371T\335b\251:\332"
 879      A5EAE323 
 879      0C55E7F9 
ARM GAS  /tmp/ccRV1ReY.s 			page 69


 879      54DD62A9 
 879      3ADA
 880 153a 22AA8EB2 		.ascii	"\"\252\216\262T\035\343RuD\243\312~\237id\373\314\022"
 880      541DE352 
 880      7544A3CA 
 880      7E9F6964 
 880      FBCC12
 881 154d 57549FF9 		.ascii	"WT\237\371\211\317\333\034\315\365k\2745\330t\375F\336"
 881      89CFDB1C 
 881      CDF56BBC 
 881      35D874FD 
 881      46DE
 882 155f 1A58DE4E 		.ascii	"\032X\336NpF\310\322\306\2435\373J\304i\343+\252\325"
 882      7046C8D2 
 882      C6A335FB 
 882      4AC469E3 
 882      2BAAD5
 883 1572 2674746D 		.ascii	"&ttm\237\303\323\356\350\025\377\033\367\260+~R\342"
 883      9FC3D3EE 
 883      E815FF1B 
 883      F7B02B7E 
 883      52E2
 884 1584 0CB7E903 		.ascii	"\014\267\351\003%\247\3059\352gx+\305A\303\347X\321"
 884      25A7C539 
 884      EA67782B 
 884      C541C3E7 
 884      58D1
 885 1596 6E8C16ED 		.ascii	"n\214\026\355<\023B\316s\010Y\325\270\346\333#\331\224"
 885      3C1342CE 
 885      730859D5 
 885      B8E6DB23 
 885      D994
 886 15a8 90E68E6A 		.ascii	"\220\346\216j\351:v\337\303\305\033\006\350\202r\337"
 886      E93A76DF 
 886      C3C51B06 
 886      E88272DF 
 887 15b8 3DBA11E6 		.ascii	"=\272\021\346{\2264\364g\223\014\017\372\227\227\245"
 887      7B9634F4 
 887      67930C0F 
 887      FA9797A5 
 888 15c8 E80B1E92 		.ascii	"\350\013\036\222p\310@:m\245\036\267B\037NkMj\277\303"
 888      70C8403A 
 888      6DA51EB7 
 888      421F4E6B 
 888      4D6ABFC3 
 889 15dc 8A90C0FB 		.ascii	"\212\220\300\373Pi7Wn\373uy\245:\301\351\316\316-\336"
 889      50693757 
 889      6EFB7579 
 889      A53AC1E9 
 889      CECE2DDE 
 890 15f0 F224FC40 		.ascii	"\362$\374@\177\313\301\360\320d\"\376;<;\250\270\336"
 890      7FCBC1F0 
 890      D06422FE 
 890      3B3C3BA8 
 890      B8DE
 891 1602 5C2DBEEE 		.ascii	"\\-\276\356xTR=\014]\350'\357\014\0357M\350\030\347"
 891      7854523D 
ARM GAS  /tmp/ccRV1ReY.s 			page 70


 891      0C5DE827 
 891      EF0C1D37 
 891      4DE818E7 
 892 1616 E1D9E39D 		.ascii	"\341\331\343\235\312]\277\016\333\243\266\177:\271\003"
 892      CA5DBF0E 
 892      DBA3B67F 
 892      3AB903
 893 1625 1F620207 		.ascii	"\037b\002\007bUc\345\267\227\344\210%\205*Y9#gdbJ\212"
 893      625563E5 
 893      B797E488 
 893      25852A59 
 893      39236764 
 894 163c F803960E 		.ascii	"\370\003\226\016U\352th\227\262\366\257\302\333\035"
 894      55EA7468 
 894      97B2F6AF 
 894      C2DB1D
 895 164b E6ABF102 		.ascii	"\346\253\361\002CA\011+\000\303$\225\032\033#\220\371"
 895      4341092B 
 895      00C32495 
 895      1A1B2390 
 895      F9
 896 165c 1DA28C0B 		.ascii	"\035\242\214\013V\371\221va\272mT\021\373!|\206~<\251"
 896      56F99176 
 896      61BA6D54 
 896      11FB217C 
 896      867E3CA9 
 897 1670 C6638F31 		.ascii	"\306c\2171U>!9\347\221rP\346\321\\\310\024O\330\207"
 897      553E2139 
 897      E7917250 
 897      E6D15CC8 
 897      144FD887 
 898 1684 2CFD5948 		.ascii	",\375YH,m\274\336|V\257Md.\222\360\276\2116\313y\006"
 898      2C6DBCDE 
 898      7C56AF4D 
 898      642E92F0 
 898      BE8936CB 
 899 169a 11AADC39 		.ascii	"\021\252\3349E\025\265\361\210\000\2547\001\230\313"
 899      4515B5F1 
 899      8800AC37 
 899      0198CB
 900 16a9 B5A80355 		.ascii	"\265\250\003U\365-\361p\363X\315\"\017\027~8\317u\033"
 900      F52DF170 
 900      F358CD22 
 900      0F177E38 
 900      CF751B
 901 16bc DB4C085B 		.ascii	"\333L\010[\310\345\254\271\012\246\370\213\270\353\""
 901      C8E5ACB9 
 901      0AA6F88B 
 901      B8EB22
 902 16cb AB49EF22 		.ascii	"\253I\357\"\036a\014!_\230\020\262\204K\310\215\222"
 902      1E610C21 
 902      5F9810B2 
 902      844BC88D 
 902      92
 903 16dc 08218471 		.ascii	"\010!\204q\360\200&\010\357\030\021\376MX\2446\356o"
 903      F0802608 
 903      EF1811FE 
ARM GAS  /tmp/ccRV1ReY.s 			page 71


 903      4D58A436 
 903      EE6F
 904 16ee AC5D7C73 		.ascii	"\254]|s\273X\246\252\325\252\012(\342\375\332\237\262"
 904      BB58A6AA 
 904      D5AA0A28 
 904      E2FDDA9F 
 904      B2
 905 16ff 3F1D46A1 		.ascii	"?\035F\241\334\014\325\270\321~j\261,\202\207\260B\373"
 905      DC0CD5B8 
 905      D17E6AB1 
 905      2C8287B0 
 905      42FB
 906 1711 43D377CF 		.ascii	"C\323w\317\024a\345\243\202\213l\026\265\037K\177\317"
 906      1461E5A3 
 906      828B6C16 
 906      B51F4B7F 
 906      CF
 907 1722 02A9513F 		.ascii	"\002\251Q?\215^A\221\272\011k\324\327C\2452\251J\356"
 907      8D5E4191 
 907      BA096BD4 
 907      D743A532 
 907      A94AEE
 908 1735 F3FC9770 		.ascii	"\363\374\227pS}]\015\315\334-jW#\351\371\022\271\350"
 908      537D5D0D 
 908      CDDC2D6A 
 908      5723E9F9 
 908      12B9E8
 909 1748 435FCF6A 		.ascii	"C_\317j\245\275=\244\275E\027\200\350\333\362\360\333"
 909      A5BD3DA4 
 909      BD451780 
 909      E8DBF2F0 
 909      DB
 910 1759 23DADBF1 		.ascii	"#\332\333\361\221\267s[i7\363~\320\336N\211\274\235"
 910      91B7735B 
 910      6937F37E 
 910      D0DE4E89 
 910      BC9D
 911 176b D74ABB00 		.ascii	"\327J\273\000V\257\275E\027\211\020\007q\300\313\037"
 911      56AFBD45 
 911      17891007 
 911      71C0CB1F 
 912 177b 0472A508 		.ascii	"\004r\245\010=\313di1\317\370\270@\377\030\021\325'"
 912      3DCB6469 
 912      31CFF8B8 
 912      40FF1811 
 912      D527
 913 178d 093057C1 		.ascii	"\0110W\301\223\006m\027\346\032+(f\343\006/H#27\373"
 913      93066D17 
 913      E61A2B28 
 913      66E3062F 
 913      48233237 
 914 17a2 95BF61B7 		.ascii	"\225\277a\267\035\257\306=\355hJ;\233\325\352&3U\273"
 914      1DAFC63D 
 914      ED684A3B 
 914      9BD5EA26 
 914      3355BB
 915 17b5 6B55E368 		.ascii	"kU\343h\2055\036\247\307\277\037{\370\307\277\036J5"
ARM GAS  /tmp/ccRV1ReY.s 			page 72


 915      85351EA7 
 915      C7BF1F7B 
 915      F8C7BF1E 
 915      4A35
 916 17c7 B3778B26 		.ascii	"\263w\213&#fPk="
 916      2366506B 
 916      3D
 917 17d0 6637064E 		.ascii	"f7\006N[\324Z\027\251E\317d&.\213\0349=@\216\222$\341"
 917      5BD45A17 
 917      A945CF64 
 917      262E8B1C 
 917      393D408E 
 918 17e7 5607EEE4 		.ascii	"V\007\356\344\361\270vX\004\244\341\275\300\365\236"
 918      F1B87658 
 918      04A4E1BD 
 918      C0F59E
 919 17f6 161C16A1 		.ascii	"\026\034\026\241J\206\256\267\301\330\365\030vvZ]\266"
 919      4A86AEB7 
 919      C1D8F518 
 919      76765A5D 
 919      B6
 920 1807 3015C229 		.ascii	"0\025\302)\213\333\214\233\243\204P\273x\3675\230\247"
 920      8BDB8C9B 
 920      A38450BB 
 920      78F73598 
 920      A7
 921 1818 AA649ECA 		.ascii	"\252d\236\312\236\274Ym\346le\235\0262\030\306iM\272"
 921      9EBC596D 
 921      E66C659D 
 921      163218C6 
 921      694DBA
 922 182b 977F96F4 		.ascii	"\227\177\226\364\267\216Z\361\313X\232[<\374\035\206"
 922      B78E5AF1 
 922      CB589A5B 
 922      3CFC1D86 
 923 183b F09FD5A4 		.ascii	"\360\237\325\244\322\374\324\260\013cV\213\022\030\212"
 923      D2FCD4B0 
 923      0B63568B 
 923      12188A
 924 184a F68CA1A6 		.ascii	"\366\214\241\246\320V\037\031`+T\227\255\001\226`m\367"
 924      D0561F19 
 924      602B5497 
 924      AD019660 
 924      6DF7
 925 185c 44CFCACB 		.ascii	"D\317\312\313\357e\375)\335=\251\\\256\035\023\240\012"
 925      EF65FD29 
 925      DD3DA95C 
 925      AE1D13A0 
 925      0A
 926 186d 9F9B580A 		.ascii	"\237\233X\012\305\333ai\002\027,\224\271\323\324\004"
 926      C5DB6169 
 926      02172C94 
 926      B9D3D404 
 927 187d BEB7E807 		.ascii	"\276\267\350\007\325\246\265\320Hl\272WaZ\353\226E["
 927      D5A6B5D0 
 927      486CBA57 
 927      615AEB96 
ARM GAS  /tmp/ccRV1ReY.s 			page 73


 927      455B
 928 188f BB4D6B5D 		.ascii	"\273Mk]\265\340kO\244\026\377\352\313\353\341\253\016"
 928      B5E06B4F 
 928      A416FFEA 
 928      CBEBE1AB 
 928      0E
 929 18a0 9A03FBC2 		.ascii	"\232\003\373\302\261?\332k\342\217\222\370\364\242\006"
 929      B13FDA6B 
 929      E28F92F8 
 929      F4A206
 930 18af CCA0F699 		.ascii	"\314\240\366\231rYb!\321\032\323Ze\026\265\366Gj%\013"
 930      72596221 
 930      D11AD35A 
 930      6516B5F6 
 930      476A250B 
 931 18c3 0B55B5B4 		.ascii	"\013U\265\264T\235(\205\375\313j\375\332\224\274\017"
 931      549D2885 
 931      FDCB6AFD 
 931      DA94BC0F 
 932 18d3 CD291B5F 		.ascii	"\315)\033_!&[\0269V\246\266\262\006\271\024\263\304"
 932      21265B16 
 932      3956A6B6 
 932      B206B914 
 932      B3C4
 933 18e5 F59825EE 		.ascii	"\365\230%\356\304,Q>=V\211J\363\022\361\302k\344dV\035"
 933      C42C513E 
 933      3D56894A 
 933      F312F1C2 
 933      6BE46456 
 934 18fa 2BBE6C71 		.ascii	"+\276lqx\205\377\"\260\"\036\366\304\243\355\265{M\226"
 934      7885FF22 
 934      B0221EF6 
 934      C4A3EDB5 
 934      7B4D96
 935 190d 78A400FA 		.ascii	"x\244\000\372\240\372$\255\245\304(\215\315\263\320"
 935      A0FA24AD 
 935      A5C4288D 
 935      CDB3D0
 936 191c D831533D 		.ascii	"\3301S=/\262\250u\334\264\326\007\026\375\255\336\264"
 936      2FB2A875 
 936      DCB4D607 
 936      16FDADDE 
 936      B4
 937 192d 56A545AD 		.ascii	"V\245E\255\206H\255\360\177\221\263\334\364\207\362"
 937      8648ADF0 
 937      7F91B3DC 
 937      F487F2
 938 193c DBF1DE49 		.ascii	"\333\361\336I\243\207\371\213t3\357\324v$\377!\006z"
 938      A387F98B 
 938      7433EFD4 
 938      7624FF21 
 938      067A
 939 194e 2570269A 		.ascii	"%p&\232\364C\257V\315)\231\332Q\255\330&j\227\003\326"
 939      F443AF56 
 939      CD2999DA 
 939      51ADD826 
 939      6A9703D6 
ARM GAS  /tmp/ccRV1ReY.s 			page 74


 940 1962 60678AEA 		.ascii	"`g\212\352\362\246+\341^\252i$\352\252\326\333%o\322"
 940      F2A62BE1 
 940      5EAA6924 
 940      EAAAD6DB 
 940      256FD2
 941 1975 5FF711CD 		.ascii	"_\367\021\315na\361\354\376\015\207\360\207\221\240"
 941      6E61F1EC 
 941      FE0D87F0 
 941      8791A0
 942 1984 0E2A7ACF 		.ascii	"\016*z\317&jX\335\321\334\030\231[\330_\241\234e\307"
 942      266A58DD 
 942      D1DC1899 
 942      5BD85FA1 
 942      9C65C7
 943 1997 54349908 		.ascii	"T4\231\010?P\223d\306\330\035\3741\3662;c9c=c\321\206"
 943      3F509364 
 943      C6D81DFC 
 943      31F6323B 
 943      6339633D 
 944 19ae E6AAC4CE 		.ascii	"\346\252\304\316\232\014\017a\3443\246c3\245\2077\323"
 944      9A0C0F61 
 944      E433A663 
 944      33A58737 
 944      D3
 945 19bf 39C3CE74 		.ascii	"9\303\316t\316s\007\343Ow\317\012\237\233=\340d\305"
 945      CE7307E3 
 945      4F77CF0A 
 945      9F9B3DE0 
 945      64C5
 946 19d1 74912728 		.ascii	"t\221'(F0\307\370\2029\314\012\246\311\346T\356\350"
 946      4630C7F8 
 946      8239CC0A 
 946      A6C9E654 
 946      EEE8
 947 19e3 C9C17D23 		.ascii	"\311\301}#\007\005f\265(\201\227\271\3746O\325\363K"
 947      070566B5 
 947      288197B9 
 947      FC364FD5 
 947      F34B
 948 19f5 F42D0967 		.ascii	"\364-\011gl\022z\325\226\006o\243\311\025R\215\"\376"
 948      6C127AD5 
 948      96066FA3 
 948      C915528D 
 948      22FE
 949 1a07 8F87A966 		.ascii	"\217\207\251f_\201WY\005^32$tK\031Y\220\347K\311*\310"
 949      5F815759 
 949      055E3332 
 949      24744B19 
 949      5990E74B 
 950 1a1e 7E2525DB 		.ascii	"~%%\3337:%kd\316\260\234\202@J\320_\224?*\005\022\376"
 950      373A256B 
 950      64CEB09C 
 950      82404AD0 
 950      5F943F2A 
 951 1a35 604A4E7E 		.ascii	"`JN~VnQ6\024\0329,\340\313{t\244\320~XN\276\342\177"
 951      566E5136 
 951      141A392C 
ARM GAS  /tmp/ccRV1ReY.s 			page 75


 951      E0CB7B74 
 951      A4D07E58 
 952 1a4d C50B4F4A 		.ascii	"\305\013OJ\341\310\002\277\317\033\364\364\0318$9M\350"
 952      E1C802BF 
 952      CF1BF4F4 
 952      19382439 
 952      4DE8
 953 1a5f EA088EA0 		.ascii	"\352\010\216\240%\352`\022\302\351\356\316\220^\011"
 953      25EA6012 
 953      C2E9EECE 
 953      905E09
 954 1a6e 045F29F4 		.ascii	"\004_)\364\005\000\256mp\244\337\247d\007\274/\027\371"
 954      0500AE6D 
 954      70A4DFA7 
 954      6407BC2F 
 954      17F9
 955 1a80 8A003229 		.ascii	"\212\0002)k\244\327\220\345\214\345@\326\310l@\215'"
 955      6BA4D790 
 955      E58CE540 
 955      D6C86C40 
 955      8D27
 956 1a92 10406118 		.ascii	"\020@a\030\316S\350\315\367\025\007\341\253\320\357"
 956      CE53E8CD 
 956      F71507E1 
 956      ABD0EF
 957 1aa1 1BDDD706 		.ascii	"\033\335\327\006ja\201?\030H\351\231> m@1\224\314+\314"
 957      6A61813F 
 957      1848E999 
 957      3E206D40 
 957      3194CC2B 
 958 1ab6 C9F5F903 		.ascii	"\311\365\371\003)}\322\322\240\270F\177\\\260\320\237"
 958      297DD2D2 
 958      A0B8467F 
 958      5CB0D09F 
 959 1ac6 53E00D3E 		.ascii	"S\340\015>\230R\024\360\247(\376\274G\362\013\362}\217"
 959      985214F0 
 959      A728FEBC 
 959      47F20BF2 
 959      7D8F
 960 1ad8 F8946139 		.ascii	"\370\224a9a\262\002\301\354\234\374 \"\253\010\276\273"
 960      61B202C1 
 960      EC9CFC20 
 960      22AB08BE 
 960      BB
 961 1ae9 A67A83DD 		.ascii	"\246z\203\335,J\347)@L\276/\305\233\355\033\256\024"
 961      2C4AE729 
 961      404CBE2F 
 961      C59BED1B 
 961      AE14
 962 1afb E506BD5A 		.ascii	"\345\006\275ZS\255\274^\255>\346\"\247 .\253 ?\010L"
 962      53ADBC5E 
 962      AD3EE622 
 962      A7202EAB 
 962      203F084C 
 963 1b0f 3DE9989B 		.ascii	"=\351\230\233\221Y\2404\244M\224\355\005\324\254`\361"
 963      9159A034 
 963      A44D94ED 
ARM GAS  /tmp/ccRV1ReY.s 			page 76


 963      05D4AC60 
 963      F1
 964 1b20 D32D43F1 		.ascii	"\323-C\361\216~\002\331E\274\3377\002\030\362\006\345"
 964      8E7E02D9 
 964      45BCDF37 
 964      0218F206 
 964      E5
 965 1b31 4097C721 		.ascii	"@\227\307!<\001\241;\204'\345@jg\010] \244B\350\012"
 965      3C01A13B 
 965      8427E540 
 965      6A67085D 
 965      20A442E8 
 966 1b46 A11B84C7 		.ascii	"\241\033\204\307 @\271T(\227\012\345R\241\\W(\327\265"
 966      2040B954 
 966      28970AE5 
 966      52A15C57 
 966      28D7B5
 967 1b59 8BE4EF26 		.ascii	"\213\344\357&\371\037\223\374\217K\376'$\177w\311\377"
 967      F91F93FC 
 967      8F4BFE27 
 967      247F77C9 
 967      FF
 968 1b6a A4ECEFD2 		.ascii	"\244\354\357\322\031B\027)\327\017_]\335\205^\2406\016"
 968      19421729 
 968      D70F5F5D 
 968      DD855EA0 
 968      360E
 969 1b7c E9738CCF 		.ascii	"\351s\214\317\017\337\005\271\331>\277+k\244\342GJV"
 969      0FDF05B9 
 969      D93EBF2B 
 969      6BA4E247 
 969      4A56
 970 1b8e F27CF1C1 		.ascii	"\362|\361\301@P\011\2025\305!\201u\0073 \242\203\024"
 970      40500982 
 970      35C52181 
 970      75073320 
 970      A28314
 971 1ba1 14C7EFE2 		.ascii	"\024\307\357\342\202y\005\331>\374<<W\031\021\210\013"
 971      827905D9 
 971      3EFC3C3C 
 971      57191188 
 971      0B
 972 1bb2 FA7DC303 		.ascii	"\372}\303\003X\262(\341\316\013\214\200\227T\334P]\023"
 972      58B228E1 
 972      CE0B8C80 
 972      9754DC50 
 972      5D13
 973 1bc4 BC3FFB15 		.ascii	"\274?\373\025x\025\357+\316\011\202\240|\2361\301\202"
 973      7815EF2B 
 973      CE0982A0 
 973      7C9E31C1 
 973      82
 974 1bd5 617F2F4C 		.ascii	"a\177/L\364\215\366\345\007\363\224\300((\342\033\203"
 974      F48DF6E5 
 974      07F394C0 
 974      2828E21B 
 974      83
ARM GAS  /tmp/ccRV1ReY.s 			page 77


 975 1be6 1272A1B7 		.ascii	"\022r\241\267\250\215f\311\2719\001\320c[\235m\243\234"
 975      A88D66C9 
 975      B93901D0 
 975      635B9D6D 
 975      A39C
 976 1bf8 8442EF18 		.ascii	"\204B\357\030%'\230\223?\242U\241\027P\261\275\273q"
 976      25279893 
 976      3FA255A1 
 976      1750B1BD 
 976      BB71
 977 1c0a 12327C85 		.ascii	"\0222|\205\276|\260\233\021\356\274\"\320\261\263\256"
 977      BE7CB09B 
 977      11EEBC22 
 977      D0B1B3AE 
 978 1c1a 9A172C46 		.ascii	"\232\027,F\266\231G\272\020|\027\214\311\007Qa$\240"
 978      B69947BA 
 978      107C178C 
 978      C9075161 
 978      24A0
 979 1c2c 300F7705 		.ascii	"0\017w\005h\036\312!BZ!\246\225\\lR\220YXP\220\033G"
 979      681ECA21 
 979      425A21A6 
 979      955C6C52 
 979      90595850 
 980 1c43 BB9F3B2B 		.ascii	"\273\237;+\037(w\007\274\360\355\031\026@N$\025\033"
 980      1F287707 
 980      BCF0ED19 
 980      16404E24 
 980      151B
 981 1c55 6F6ECEB0 		.ascii	"on\316\260\224\021YY\214\021w{\264\373\243\335\364\206"
 981      94115959 
 981      8C11777B 
 981      B4FBA3DD 
 981      F486
 982 1c67 0F460C94 		.ascii	"\017F\014\224x\0029\377\000a\367\211\305\304H%\227\232"
 982      780239FF 
 982      0061F789 
 982      C5C44825 
 982      979A
 983 1c79 5846E680 		.ascii	"XF\346\200\256\251)\375\373\367J\031\222\3213=st\227"
 983      AEA929FD 
 983      FBF74A19 
 983      92D1333D 
 983      737497
 984 1c8c 9422052C 		.ascii	"\224\"\005,57\027u\357VC +\255 \177x\316\010\234\354"
 984      35371775 
 984      EF564320 
 984      2BAD207F 
 984      78CE089C 
 985 1ca1 E5CF19ED 		.ascii	"\345\317\031\355\363\307\024\021B\327HCh\310\376\321"
 985      F3C71411 
 985      42D74843 
 985      68C8FED1 
 986 1cb1 37359644 		.ascii	"75\226D\004\345\0352\260\337\300~\231\0118\235\2219"
 986      04E51D32 
 986      B0DFC07E 
 986      9909389D 
ARM GAS  /tmp/ccRV1ReY.s 			page 78


 986      9139
 987 1cc3 68306EC0 		.ascii	"h0n\300\233\336\273g\257?\273q\301\273P\225`1\255\324"
 987      9BDEBB67 
 987      AF3FBB71 
 987      C1BB5095 
 987      6031ADD4 
 988 1cd7 1ABFCE7C 		.ascii	"\032\277\316|\321\333\257W\377\336m\264\207\236i\231"
 988      D1DBAF57 
 988      FFDE6DB4 
 988      879E6999 
 989 1ce7 FD5EE89D 		.ascii	"\375^\350\235\244=\246\015\0320\270\177\357\314\336"
 989      A43DA60D 
 989      1A30B87F 
 989      EFCCDE
 990 1cf6 71B41A86 		.ascii	"q\264\032\206\360\033!\322\365\020\351F\210t\035\004"
 990      F01B21D2 
 990      F510E946 
 990      88741D04 
 991 1d06 ADE6C9C2 		.ascii	"\255\346\311\302\354?\025\213g\320sJ\332\200\214~\031"
 991      EC3F158B 
 991      67D0734A 
 991      DA808C7E 
 991      19
 992 1d17 2051D047 		.ascii	" Q\320G^\327\324\341\335:w)F}\377.,Yo&\270\227^\276"
 992      5ED7D4E1 
 992      DD3A7729 
 992      467DFF2E 
 992      2C596F26 
 993 1d2f E15246BA 		.ascii	"\341RF\272\324+]~.=]NK\357\002!\025BWW\237\314\301\351"
 993      D42B5D7E 
 993      2E3D5D4E 
 993      4BEF0221 
 993      15425757 
 994 1d47 EEA200D0 		.ascii	"\356\242\000\320\033\227\235\247\240>\363\274S%\342"
 994      1B979DA7 
 994      A03EF3BC 
 994      5325E2
 995 1d56 F8F96EC5 		.ascii	"\370\371n\305\305\244}/\340\240Q\251\327\200\236\336"
 995      C5A47D2F 
 995      E0A051A9 
 995      D7809EDE 
 996 1d66 0CE8754A 		.ascii	"\014\350uJ^\230\204\264t\327\300^\231\351\362\340\236"
 996      5E9884B4 
 996      74D7C05E 
 996      99E9F2E0 
 996      9E
 997 1d77 E9AE019D 		.ascii	"\351\256\001\235Q\324\245g\272\374|Z\272'\200\013\272"
 997      51D4A567 
 997      BAFC7C5A 
 997      BA27800B 
 997      BA
 998 1d88 728667F9 		.ascii	"r\206g\371=9\201\2219\303\321\330\223;<'?\333W\354\031"
 998      3D398191 
 998      39C3D1D8 
 998      933B3C27 
 998      3FDB57EC 
 999 1d9d EDCB0A16 		.ascii	"\355\313\012\026\370\333\207\321\275\2444\230-<\370"
ARM GAS  /tmp/ccRV1ReY.s 			page 79


 999      F8DB87D1 
 999      BDA43498 
 999      2D3CF8
 1000 1dac 8B511C2C 		.ascii	"\213Q\034,\306\276\267\313\343\336 u\243(\351\366\027"
 1000      C6BEB7CB 
 1000      E3DE2075 
 1000      A328E9F6 
 1000      17
 1001 1dbd 0F2B1A1E 		.ascii	"\017+\032\036\217\264\2215\014\272y\260\030\272\\\027"
 1001      8FB49135 
 1001      0CBA79B0 
 1001      18BA5C17 
 1002 1dcd 6FD63092 		.ascii	"o\3260\222J\205T\274\037\245P\026.\205\213\371\213\221"
 1002      4A8554BC 
 1002      1FA55016 
 1002      2E858BF9 
 1002      8B91
 1003 1ddf AF813C6C 		.ascii	"\257\201<l=\330}@.J\373\320{T\305\217^\273\003\205>"
 1003      3DD87D40 
 1003      2E4AFBD0 
 1003      7B54C58F 
 1003      5EBB0385 
 1004 1df4 5FB69CE5 		.ascii	"_\266\234\345\357\002!\025BW\317\210B\344\311\357\202"
 1004      EF022115 
 1004      4257CF88 
 1004      42E4C9EF 
 1004      82
 1005 1e05 AFFE0559 		.ascii	"\257\376\005YJ0\247 \337\033l\243{\002\201\270\2029"
 1005      4A30A720 
 1005      DF1B6CA3 
 1005      7B0281B8 
 1005      8239
 1006 1e17 E0C172E1 		.ascii	"\340\301r\3411\010\206\232\220[\220?\002\247\342\225"
 1006      3108869A 
 1006      905B903F 
 1006      02A7E295 
 1007 1e27 5C92151F 		.ascii	"\\\222\025\037P\202i\005E\320\037\021Z\226\220\220\255"
 1007      50826905 
 1007      45D01F11 
 1007      5A969090 
 1007      AD
 1008 1e38 049501A8 		.ascii	"\004\225\001\250k'BF\272/\313\207zC\034\244\207\000"
 1008      6B274246 
 1008      BA2FCB87 
 1008      7A431CA4 
 1008      8700
 1009 1e4a 491EE070 		.ascii	"I\036\340p\270\317\237H\276p\275\326JV\020\212<\207"
 1009      B8CF9F48 
 1009      BE70BDD6 
 1009      4A56108A 
 1009      3C87
 1010 1e5c 73E27369 		.ascii	"s\342si\323\250r&\222G\357\374l7b\246\320\203s\322\342"
 1010      D3A87226 
 1010      9247EFFC 
 1010      6C3762A6 
 1010      D08373D2 
 1011 1e71 116A31E4 		.ascii	"\021j1\344\322\204\337/\372Zg\215|.\303\227\227\221"
ARM GAS  /tmp/ccRV1ReY.s 			page 80


 1011      D284DF2F 
 1011      FA5A678D 
 1011      7C2EC397 
 1011      9791
 1012 1e83 33225FC9 		.ascii	"3\"_\311\225\207\005\012\223\360\2734\220\313\243\205"
 1012      9587050A 
 1012      93F0BB34 
 1012      90CBA385 
 1013 1e93 A86B754E 		.ascii	"\250kuN\010g\210Ym\002\340\035}\371Y>\244hp\253}\006"
 1013      08678859 
 1013      6D02E01D 
 1013      7DF9593E 
 1013      A46870AB 
 1014 1ea9 67787BF6 		.ascii	"gx{\366\037\020\377|\277\027\275\275zf\366\214\353\323"
 1014      1F10FF7C 
 1014      BF17BDBD 
 1014      7A66F68C 
 1014      EBD3
 1015 1ebb 7B9077F0 		.ascii	"{\220w\360\240\21480zoF\317\314x\010\336\027\372\365"
 1015      A08C3830 
 1015      7A6F46CF 
 1015      CC7808DE 
 1015      17FAF5
 1016 1ece FE535C5F 		.ascii	"\376S\\_\350w\375\006\366I\200R\275\275\231\375\006"
 1016      E877FD06 
 1016      F6498052 
 1016      BDBD99FD 
 1016      06
 1017 1edf F4760FCA 		.ascii	"\364v\017\312\354\333;\335=d`\257\336\317\377\002\232"
 1017      ECDB3BDD 
 1017      3D6460AF 
 1017      DECFFF02 
 1017      9A
 1018 1ef0 18ACF803 		.ascii	"\030\254\370\003\276\201\003z\367D\320\244\351.q\371"
 1018      BE81037A 
 1018      F744D0A4 
 1018      E92E71F9 
 1019 1f00 793E0524 		.ascii	"y>\005$\351!.?\036{o\224\200\362\031A(r\227NN@\016\316"
 1019      E9212E3F 
 1019      1E7B6F94 
 1019      80F21941 
 1019      2872974E 
 1020 1f18 2E2894E1 		.ascii	".(\224\341;\211\205L\3242\236\317)n\205p\373\364\351"
 1020      3B89854C 
 1020      D4329ECF 
 1020      296E8570 
 1020      FBF4E9
 1021 1f2b 09D03248 		.ascii	"\011\3202H\255-\274B\305\322F\372\262F\005\212\362\020"
 1021      AD2DBC42 
 1021      C5D246FA 
 1021      B246058A 
 1021      F210
 1022 1f3d C799D8BD 		.ascii	"\307\231\330\275\313\212\177\004\322j\037_\260?\325"
 1022      CB8A7F04 
 1022      D26A1F5F 
 1022      B03FD5
 1023 1f4c A32BDB17 		.ascii	"\243+\333\027\010\266\245y\232Ji\231\236T\261\255\310"
ARM GAS  /tmp/ccRV1ReY.s 			page 81


 1023      08B6A579 
 1023      9A4A6999 
 1023      9E54B1AD 
 1023      C8
 1024 1f5d 6326E83F 		.ascii	"c&\350?\211$3\240\247\347\346\346\004}\001\015\216*"
 1024      892433A0 
 1024      A7E7E6E6 
 1024      047D010D 
 1024      8E2A
 1025 1f6f 0BA64919 		.ascii	"\013\246I\031Y#\323}0\337\361e\027\345\3722@!a}\364"
 1025      5923D37D 
 1025      30DFF165 
 1025      17E5FA32 
 1025      4021617D 
 1026 1f84 B39E8CF8 		.ascii	"\263\236\214\370aPA\243\003\274\313/\312\005O\037\364"
 1026      615041A3 
 1026      03BCCB2F 
 1026      CA054F1F 
 1026      F4
 1027 1f95 E767E515 		.ascii	"\347g\345\025\3023\014N\005c\\"
 1027      C2330C4E 
 1027      05635C
 1028 1fa0 B93E65B8 		.ascii	"\271>e\270\253\260\310\357\303&\215\005\006#\327\200"
 1028      ABB0C8EF 
 1028      C3268D05 
 1028      0623D780 
 1029 1fb0 60F1A061 		.ascii	"`\361\240a\177\207\236\326/?'\030O\336\024\024\306\015"
 1029      7F879ED6 
 1029      2F3F2718 
 1029      4FDE1414 
 1029      C60D
 1030 1fc2 CF4F062B 		.ascii	"\317O\006+\317\022\273\240.\232U\370\012\376R\202\211"
 1030      CF12BBA0 
 1030      2E9A55F8 
 1030      0AFE5282 
 1030      89
 1031 1fd3 B8C2907C 		.ascii	"\270\302\220|\020\323\250\004\234\006\312G\265\302D"
 1031      10D3A804 
 1031      9C06CA47 
 1031      B5C244
 1032 1fe2 02D53E34 		.ascii	"\002\325>41\203\344\237`\370k\213S\021ldu\220\001\375"
 1032      3183E49F 
 1032      60F86B8B 
 1032      53116C64 
 1032      759001FD 
 1033 1ff6 DBDFA730 		.ascii	"\333\337\2470\2206|\204\014\346"
 1033      90367C84 
 1033      0CE6
 1034 2000 7297DEDE 		.ascii	"r\227\336\336\372!a\364\314\316\316, &|\017\025#\266"
 1034      FA2161F4 
 1034      CCCECE2C 
 1034      20267C0F 
 1034      1523B6
 1035 2013 EAF46292 		.ascii	"\352\364b\222\351\366>\007\303XB \327\347+D\022\215"
 1035      E9F63E07 
 1035      C3584220 
 1035      D7E72B44 
ARM GAS  /tmp/ccRV1ReY.s 			page 82


 1035      128D
 1036 2025 03F7940F 		.ascii	"\003\367\224\017\234'\021\244H{\356\2402\312\227\337"
 1036      9C2711A4 
 1036      487BEEA0 
 1036      32CA97DF 
 1037 2035 8A642382 		.ascii	"\212d#\202\022I\022\223\371\277(!D\350"
 1037      12491293 
 1037      F9BF2821 
 1037      44E8
 1038              		.text
 1039              		.section	.gnu.lto_.symtab.7a37c4dc3dcc898e,"",%progbits
 1040 0000 67707353 		.ascii	"gpsSem\000\000\000\000\000\000\000\000\000\000\000\000"
 1040      656D0000 
 1040      00000000 
 1040      00000000 
 1040      0000
 1041 0012 26030000 		.ascii	"&\003\000\000gpsStart\000\000\000\000\000\000\000\000"
 1041      67707353 
 1041      74617274 
 1041      00000000 
 1041      00000000 
 1042 0026 00000000 		.ascii	"\000\000\000\000\224\002\000\000gpsStop\000\000\000"
 1042      94020000 
 1042      67707353 
 1042      746F7000 
 1042      0000
 1043 0038 00000000 		.ascii	"\000\000\000\000\000\000\000\000\000\240\002\000\000"
 1043      00000000 
 1043      00A00200 
 1043      00
 1044 0045 67707350 		.ascii	"gpsParseNMEAType\000\000\000\000\000\000\000\000\000"
 1044      61727365 
 1044      4E4D4541 
 1044      54797065 
 1044      00000000 
 1045 005e 000000AB 		.ascii	"\000\000\000\253\002\000\000gpsParseFix\000\000\000"
 1045      02000067 
 1045      70735061 
 1045      72736546 
 1045      69780000 
 1046 0073 00000000 		.ascii	"\000\000\000\000\000\000\000\000\000\261\002\000\000"
 1046      00000000 
 1046      00B10200 
 1046      00
 1047 0080 6770734E 		.ascii	"gpsNMEAChecksum\000\000\000\000\000\000\000\000\000"
 1047      4D454143 
 1047      6865636B 
 1047      73756D00 
 1047      00000000 
 1048 0098 000000BB 		.ascii	"\000\000\000\273\002\000\000gpsThread\000\000\000\000"
 1048      02000067 
 1048      70735468 
 1048      72656164 
 1048      00000000 
 1049 00ac 00000000 		.ascii	"\000\000\000\000\000\000\000\000\301\002\000\000gps"
 1049      00000000 
 1049      C1020000 
ARM GAS  /tmp/ccRV1ReY.s 			page 83


 1049      677073
 1050 00bb 4765744C 		.ascii	"GetLatitude\000\000\000\000\000\000\000\000\000\000"
 1050      61746974 
 1050      75646500 
 1050      00000000 
 1050      00000000 
 1051 00d0 0000C802 		.ascii	"\000\000\310\002\000\000gpsGetLongitude\000\000\000"
 1051      00006770 
 1051      73476574 
 1051      4C6F6E67 
 1051      69747564 
 1052 00e8 00000000 		.ascii	"\000\000\000\000\000\000\000\000\000\317\002\000\000"
 1052      00000000 
 1052      00CF0200 
 1052      00
 1053 00f5 67707347 		.ascii	"gpsGetAltitude\000\000\000\000\000\000\000\000\000\000"
 1053      6574416C 
 1053      74697475 
 1053      64650000 
 1053      00000000 
 1054 010d 0000D302 		.ascii	"\000\000\323\002\000\000gpsGetTime\000\000\000\000\000"
 1054      00006770 
 1054      73476574 
 1054      54696D65 
 1054      00000000 
 1055 0122 00000000 		.ascii	"\000\000\000\000\000\000\000\327\002\000\000gpsGetS"
 1055      000000D7 
 1055      02000067 
 1055      70734765 
 1055      7453
 1056 0134 6174656C 		.ascii	"atellites\000\000\000\000\000\000\000\000\000\000\000"
 1056      6C697465 
 1056      73000000 
 1056      00000000 
 1056      00000000 
 1057 0148 00DB0200 		.ascii	"\000\333\002\000\000gpsGetLocation\000\000\000\000\000"
 1057      00677073 
 1057      4765744C 
 1057      6F636174 
 1057      696F6E00 
 1058 0160 00000000 		.ascii	"\000\000\000\000\000\000\000\337\002\000\000chSchRe"
 1058      000000DF 
 1058      02000063 
 1058      68536368 
 1058      5265
 1059 0172 73636865 		.ascii	"scheduleS\000\000\002\000\000\000\000\000\000\000\000"
 1059      64756C65 
 1059      53000002 
 1059      00000000 
 1059      00000000 
 1060 0186 00E50200 		.ascii	"\000\345\002\000\000chSemSignalI\000\000\002\000\000"
 1060      00636853 
 1060      656D5369 
 1060      676E616C 
 1060      49000002 
 1061 019c 00000000 		.ascii	"\000\000\000\000\000\000\000\350\002\000\000uartSta"
 1061      000000E8 
ARM GAS  /tmp/ccRV1ReY.s 			page 84


 1061      02000075 
 1061      61727453 
 1061      7461
 1062 01ae 72740000 		.ascii	"rt\000\000\002\000\000\000\000\000\000\000\000\000\372"
 1062      02000000 
 1062      00000000 
 1062      0000FA
 1063 01bd 02000063 		.ascii	"\002\000\000chMtxObjectInit\000\000\002\000\000\000"
 1063      684D7478 
 1063      4F626A65 
 1063      6374496E 
 1063      69740000 
 1064 01d5 00000000 		.ascii	"\000\000\000\000\000\000\377\002\000\000uartStop\000"
 1064      0000FF02 
 1064      00007561 
 1064      72745374 
 1064      6F7000
 1065 01e8 00020000 		.ascii	"\000\002\000\000\000\000\000\000\000\000\000\003\003"
 1065      00000000 
 1065      00000003 
 1065      03
 1066 01f5 00006368 		.ascii	"\000\000chMtxUnlock\000\000\002\000\000\000\000\000"
 1066      4D747855 
 1066      6E6C6F63 
 1066      6B000002 
 1066      00000000 
 1067 020a 00000000 		.ascii	"\000\000\000\000\027\003\000\000chMtxLock\000\000\002"
 1067      17030000 
 1067      63684D74 
 1067      784C6F63 
 1067      6B000002 
 1068 021e 00000000 		.ascii	"\000\000\000\000\000\000\000\000\000\031\003\000\000"
 1068      00000000 
 1068      00190300 
 1068      00
 1069 022b 63685365 		.ascii	"chSemReset\000\000\002\000\000\000\000\000\000\000\000"
 1069      6D526573 
 1069      65740000 
 1069      02000000 
 1069      00000000 
 1070 0240 001B0300 		.ascii	"\000\033\003\000\000chSemWait\000\000\002\000\000\000"
 1070      00636853 
 1070      656D5761 
 1070      69740000 
 1070      02000000 
 1071 0254 00000000 		.ascii	"\000\000\000\000\000\000 \003\000\000chSemObjectIni"
 1071      00002003 
 1071      00006368 
 1071      53656D4F 
 1071      626A6563 
 1072 026c 74000002 		.ascii	"t\000\000\002\000\000\000\000\000\000\000\000\000$\003"
 1072      00000000 
 1072      00000000 
 1072      002403
 1073 027b 0000     		.ascii	"\000\000"
 1074              		.text
 1075              		.section	.gnu.lto_.opts,"",%progbits
ARM GAS  /tmp/ccRV1ReY.s 			page 85


 1076 0000 272D6D63 		.ascii	"'-mcpu=cortex-m4' '-mfloat-abi=hard' '-mfpu=fpv4-sp"
 1076      70753D63 
 1076      6F727465 
 1076      782D6D34 
 1076      2720272D 
 1077 0033 2D643136 		.ascii	"-d16' '-mno-thumb-interwork' '-mthumb' '-O2' '-fomi"
 1077      2720272D 
 1077      6D6E6F2D 
 1077      7468756D 
 1077      622D696E 
 1078 0066 742D6672 		.ascii	"t-frame-pointer' '-falign-functions=16' '-ffunction"
 1078      616D652D 
 1078      706F696E 
 1078      74657227 
 1078      20272D66 
 1079 0099 2D736563 		.ascii	"-sections' '-fdata-sections' '-fno-common' '-flto' "
 1079      74696F6E 
 1079      73272027 
 1079      2D666461 
 1079      74612D73 
 1080 00cc 272D6673 		.ascii	"'-fsingle-precision-constant'\000"
 1080      696E676C 
 1080      652D7072 
 1080      65636973 
 1080      696F6E2D 
 1081              		.text
 1082              		.section	.text.gpsTxbufEnd,"ax",%progbits
 1083              		.align	2
 1084              		.p2align 4,,15
 1085              		.thumb
 1086              		.thumb_func
 1087              		.type	gpsTxbufEnd, %function
 1088              	gpsTxbufEnd:
 1089              		@ args = 0, pretend = 0, frame = 0
 1090              		@ frame_needed = 0, uses_anonymous_args = 0
 1091              		@ link register save eliminated.
 1092 0000 7047     		bx	lr
 1093              		.size	gpsTxbufEnd, .-gpsTxbufEnd
 1094 0002 00BFAFF3 		.section	.text.gpsTxC,"ax",%progbits
 1094      0080AFF3 
 1094      0080AFF3 
 1094      0080
 1095              		.align	2
 1096              		.p2align 4,,15
 1097              		.thumb
 1098              		.thumb_func
 1099              		.type	gpsTxC, %function
 1100              	gpsTxC:
 1101              		@ args = 0, pretend = 0, frame = 0
 1102              		@ frame_needed = 0, uses_anonymous_args = 0
 1103              		@ link register save eliminated.
 1104 0000 7047     		bx	lr
 1105              		.size	gpsTxC, .-gpsTxC
 1106 0002 00BFAFF3 		.section	.text.gpsRxEnd,"ax",%progbits
 1106      0080AFF3 
 1106      0080AFF3 
 1106      0080
ARM GAS  /tmp/ccRV1ReY.s 			page 86


 1107              		.align	2
 1108              		.p2align 4,,15
 1109              		.thumb
 1110              		.thumb_func
 1111              		.type	gpsRxEnd, %function
 1112              	gpsRxEnd:
 1113              		@ args = 0, pretend = 0, frame = 0
 1114              		@ frame_needed = 0, uses_anonymous_args = 0
 1115              		@ link register save eliminated.
 1116 0000 7047     		bx	lr
 1117              		.size	gpsRxEnd, .-gpsRxEnd
 1118 0002 00BFAFF3 		.section	.text.gpsRxErr,"ax",%progbits
 1118      0080AFF3 
 1118      0080AFF3 
 1118      0080
 1119              		.align	2
 1120              		.p2align 4,,15
 1121              		.thumb
 1122              		.thumb_func
 1123              		.type	gpsRxErr, %function
 1124              	gpsRxErr:
 1125              		@ args = 0, pretend = 0, frame = 0
 1126              		@ frame_needed = 0, uses_anonymous_args = 0
 1127              		@ link register save eliminated.
 1128 0000 7047     		bx	lr
 1129              		.size	gpsRxErr, .-gpsRxErr
 1130 0002 00BFAFF3 		.section	.text.gpsRxChar,"ax",%progbits
 1130      0080AFF3 
 1130      0080AFF3 
 1130      0080
 1131              		.align	2
 1132              		.p2align 4,,15
 1133              		.thumb
 1134              		.thumb_func
 1135              		.type	gpsRxChar, %function
 1136              	gpsRxChar:
 1137              		@ args = 0, pretend = 0, frame = 0
 1138              		@ frame_needed = 0, uses_anonymous_args = 0
 1139 0000 10B5     		push	{r4, lr}
 1140 0002 174B     		ldr	r3, .L13
 1141 0004 0A29     		cmp	r1, #10
 1142 0006 93F8A820 		ldrb	r2, [r3, #168]	@ zero_extendqisi2
 1143 000a 0CD0     		beq	.L11
 1144 000c 512A     		cmp	r2, #81
 1145 000e 09D8     		bhi	.L5
 1146 0010 93F8A900 		ldrb	r0, [r3, #169]	@ zero_extendqisi2
 1147 0014 5224     		movs	r4, #82
 1148 0016 04FB0030 		mla	r0, r4, r0, r3
 1149 001a 0430     		adds	r0, r0, #4
 1150 001c 541C     		adds	r4, r2, #1
 1151 001e 83F8A840 		strb	r4, [r3, #168]
 1152 0022 8154     		strb	r1, [r0, r2]
 1153              	.L5:
 1154 0024 10BD     		pop	{r4, pc}
 1155              	.L11:
 1156 0026 512A     		cmp	r2, #81
 1157 0028 0AD8     		bhi	.L7
ARM GAS  /tmp/ccRV1ReY.s 			page 87


 1158 002a 93F8A910 		ldrb	r1, [r3, #169]	@ zero_extendqisi2
 1159 002e 5220     		movs	r0, #82
 1160 0030 00FB0131 		mla	r1, r0, r1, r3
 1161 0034 0431     		adds	r1, r1, #4
 1162 0036 541C     		adds	r4, r2, #1
 1163 0038 0020     		movs	r0, #0
 1164 003a 83F8A840 		strb	r4, [r3, #168]
 1165 003e 8854     		strb	r0, [r1, r2]
 1166              	.L7:
 1167 0040 2023     		movs	r3, #32
 1168              	@ 546 "/home/cody/dev/chibios/trunk/os/ext/CMSIS/include/core_cmFunc.h" 1
 1169 0042 83F31188 		MSR basepri, r3
 1170              	@ 0 "" 2
 1171              		.thumb
 1172 0046 0748     		ldr	r0, .L13+4
 1173 0048 8368     		ldr	r3, [r0, #8]
 1174 004a 002B     		cmp	r3, #0
 1175 004c 05DD     		ble	.L12
 1176              	.L8:
 1177 004e FFF7FEFF 		bl	chSchRescheduleS
 1178 0052 0023     		movs	r3, #0
 1179              	@ 546 "/home/cody/dev/chibios/trunk/os/ext/CMSIS/include/core_cmFunc.h" 1
 1180 0054 83F31188 		MSR basepri, r3
 1181              	@ 0 "" 2
 1182              		.thumb
 1183 0058 10BD     		pop	{r4, pc}
 1184              	.L12:
 1185 005a FFF7FEFF 		bl	chSemSignalI
 1186 005e F6E7     		b	.L8
 1187              	.L14:
 1188              		.align	2
 1189              	.L13:
 1190 0060 00000000 		.word	.LANCHOR0
 1191 0064 00000000 		.word	.LANCHOR1
 1192              		.size	gpsRxChar, .-gpsRxChar
 1193 0068 AFF30080 		.section	.text.gpsStart,"ax",%progbits
 1193      AFF30080 
 1194              		.align	2
 1195              		.p2align 4,,15
 1196              		.global	gpsStart
 1197              		.thumb
 1198              		.thumb_func
 1199              		.type	gpsStart, %function
 1200              	gpsStart:
 1201              		@ args = 0, pretend = 0, frame = 0
 1202              		@ frame_needed = 0, uses_anonymous_args = 0
 1203 0000 10B5     		push	{r4, lr}
 1204 0002 0346     		mov	r3, r0
 1205 0004 60B1     		cbz	r0, .L17
 1206 0006 074C     		ldr	r4, .L18
 1207 0008 2046     		mov	r0, r4
 1208 000a 40F8DC3B 		str	r3, [r0], #220
 1209 000e FFF7FEFF 		bl	chMtxObjectInit
 1210 0012 2068     		ldr	r0, [r4]
 1211 0014 0449     		ldr	r1, .L18+4
 1212 0016 FFF7FEFF 		bl	uartStart
 1213 001a 0020     		movs	r0, #0
ARM GAS  /tmp/ccRV1ReY.s 			page 88


 1214              	.L16:
 1215 001c 40B2     		sxtb	r0, r0
 1216 001e 10BD     		pop	{r4, pc}
 1217              	.L17:
 1218 0020 FF20     		movs	r0, #255
 1219 0022 FBE7     		b	.L16
 1220              	.L19:
 1221              		.align	2
 1222              	.L18:
 1223 0024 00000000 		.word	.LANCHOR0
 1224 0028 00000000 		.word	.LANCHOR2
 1225              		.size	gpsStart, .-gpsStart
 1226 002c AFF30080 		.section	.text.gpsStop,"ax",%progbits
 1227              		.align	2
 1228              		.p2align 4,,15
 1229              		.global	gpsStop
 1230              		.thumb
 1231              		.thumb_func
 1232              		.type	gpsStop, %function
 1233              	gpsStop:
 1234              		@ args = 0, pretend = 0, frame = 0
 1235              		@ frame_needed = 0, uses_anonymous_args = 0
 1236 0000 08B5     		push	{r3, lr}
 1237 0002 0068     		ldr	r0, [r0]
 1238 0004 FFF7FEFF 		bl	uartStop
 1239 0008 0020     		movs	r0, #0
 1240 000a 08BD     		pop	{r3, pc}
 1241              		.size	gpsStop, .-gpsStop
 1242 000c AFF30080 		.section	.text.gpsParseNMEAType,"ax",%progbits
 1243              		.align	2
 1244              		.p2align 4,,15
 1245              		.global	gpsParseNMEAType
 1246              		.thumb
 1247              		.thumb_func
 1248              		.type	gpsParseNMEAType, %function
 1249              	gpsParseNMEAType:
 1250              		@ args = 0, pretend = 0, frame = 0
 1251              		@ frame_needed = 0, uses_anonymous_args = 0
 1252 0000 10B5     		push	{r4, lr}
 1253 0002 0378     		ldrb	r3, [r0]	@ zero_extendqisi2
 1254 0004 242B     		cmp	r3, #36
 1255 0006 0446     		mov	r4, r0
 1256 0008 01D0     		beq	.L33
 1257 000a 0820     		movs	r0, #8
 1258 000c 10BD     		pop	{r4, pc}
 1259              	.L33:
 1260 000e 0130     		adds	r0, r0, #1
 1261 0010 2049     		ldr	r1, .L39
 1262 0012 0222     		movs	r2, #2
 1263 0014 FFF7FEFF 		bl	strncmp
 1264 0018 08B1     		cbz	r0, .L34
 1265 001a 0720     		movs	r0, #7
 1266              	.L22:
 1267 001c 10BD     		pop	{r4, pc}
 1268              	.L34:
 1269 001e 0334     		adds	r4, r4, #3
 1270 0020 2046     		mov	r0, r4
ARM GAS  /tmp/ccRV1ReY.s 			page 89


 1271 0022 1D49     		ldr	r1, .L39+4
 1272 0024 0322     		movs	r2, #3
 1273 0026 FFF7FEFF 		bl	strncmp
 1274 002a 0028     		cmp	r0, #0
 1275 002c F6D0     		beq	.L22
 1276 002e 2046     		mov	r0, r4
 1277 0030 1A49     		ldr	r1, .L39+8
 1278 0032 0322     		movs	r2, #3
 1279 0034 FFF7FEFF 		bl	strncmp
 1280 0038 38B1     		cbz	r0, .L27
 1281 003a 2046     		mov	r0, r4
 1282 003c 1849     		ldr	r1, .L39+12
 1283 003e 0322     		movs	r2, #3
 1284 0040 FFF7FEFF 		bl	strncmp
 1285 0044 18B9     		cbnz	r0, .L35
 1286 0046 0220     		movs	r0, #2
 1287 0048 10BD     		pop	{r4, pc}
 1288              	.L27:
 1289 004a 0120     		movs	r0, #1
 1290 004c 10BD     		pop	{r4, pc}
 1291              	.L35:
 1292 004e 2046     		mov	r0, r4
 1293 0050 1449     		ldr	r1, .L39+16
 1294 0052 0322     		movs	r2, #3
 1295 0054 FFF7FEFF 		bl	strncmp
 1296 0058 08B9     		cbnz	r0, .L36
 1297 005a 0320     		movs	r0, #3
 1298 005c 10BD     		pop	{r4, pc}
 1299              	.L36:
 1300 005e 2046     		mov	r0, r4
 1301 0060 1149     		ldr	r1, .L39+20
 1302 0062 0322     		movs	r2, #3
 1303 0064 FFF7FEFF 		bl	strncmp
 1304 0068 08B9     		cbnz	r0, .L37
 1305 006a 0420     		movs	r0, #4
 1306 006c 10BD     		pop	{r4, pc}
 1307              	.L37:
 1308 006e 2046     		mov	r0, r4
 1309 0070 0E49     		ldr	r1, .L39+24
 1310 0072 0322     		movs	r2, #3
 1311 0074 FFF7FEFF 		bl	strncmp
 1312 0078 08B9     		cbnz	r0, .L38
 1313 007a 0520     		movs	r0, #5
 1314 007c 10BD     		pop	{r4, pc}
 1315              	.L38:
 1316 007e 2046     		mov	r0, r4
 1317 0080 0B49     		ldr	r1, .L39+28
 1318 0082 0322     		movs	r2, #3
 1319 0084 FFF7FEFF 		bl	strncmp
 1320 0088 0028     		cmp	r0, #0
 1321 008a 14BF     		ite	ne
 1322 008c 0720     		movne	r0, #7
 1323 008e 0620     		moveq	r0, #6
 1324 0090 10BD     		pop	{r4, pc}
 1325              	.L40:
 1326 0092 00BF     		.align	2
 1327              	.L39:
ARM GAS  /tmp/ccRV1ReY.s 			page 90


 1328 0094 00000000 		.word	.LC0
 1329 0098 04000000 		.word	.LC1
 1330 009c 08000000 		.word	.LC2
 1331 00a0 0C000000 		.word	.LC3
 1332 00a4 10000000 		.word	.LC4
 1333 00a8 14000000 		.word	.LC5
 1334 00ac 18000000 		.word	.LC6
 1335 00b0 1C000000 		.word	.LC7
 1336              		.size	gpsParseNMEAType, .-gpsParseNMEAType
 1337 00b4 AFF30080 		.section	.text.gpsParseFix,"ax",%progbits
 1337      AFF30080 
 1337      AFF30080 
 1338              		.align	2
 1339              		.p2align 4,,15
 1340              		.global	gpsParseFix
 1341              		.thumb
 1342              		.thumb_func
 1343              		.type	gpsParseFix, %function
 1344              	gpsParseFix:
 1345              		@ args = 0, pretend = 0, frame = 24
 1346              		@ frame_needed = 0, uses_anonymous_args = 0
 1347 0000 2DE9F04F 		push	{r4, r5, r6, r7, r8, r9, r10, fp, lr}
 1348 0004 0322     		movs	r2, #3
 1349 0006 87B0     		sub	sp, sp, #28
 1350 0008 8246     		mov	r10, r0
 1351 000a 0E46     		mov	r6, r1
 1352 000c 0330     		adds	r0, r0, #3
 1353 000e 4A49     		ldr	r1, .L67
 1354 0010 FFF7FEFF 		bl	strncmp
 1355 0014 0028     		cmp	r0, #0
 1356 0016 40F08C80 		bne	.L62
 1357 001a 4FF00709 		mov	r9, #7
 1358 001e 4FF0020B 		mov	fp, #2
 1359 0022 1AF80930 		ldrb	r3, [r10, r9]	@ zero_extendqisi2
 1360 0026 0BF1FF31 		add	r1, fp, #-1
 1361 002a 2C2B     		cmp	r3, #44
 1362 002c 0746     		mov	r7, r0
 1363 002e 06F12F08 		add	r8, r6, #47
 1364 0032 C9B2     		uxtb	r1, r1
 1365 0034 32D0     		beq	.L64
 1366              	.L66:
 1367 0036 002B     		cmp	r3, #0
 1368 0038 78D0     		beq	.L65
 1369 003a 0DF10305 		add	r5, sp, #3
 1370 003e 0022     		movs	r2, #0
 1371              	.L60:
 1372 0040 0132     		adds	r2, r2, #1
 1373 0042 D2B2     		uxtb	r2, r2
 1374 0044 09EB0204 		add	r4, r9, r2
 1375 0048 E4B2     		uxtb	r4, r4
 1376 004a 05F8013F 		strb	r3, [r5, #1]!
 1377 004e 1AF80430 		ldrb	r3, [r10, r4]	@ zero_extendqisi2
 1378 0052 2C2B     		cmp	r3, #44
 1379 0054 02D0     		beq	.L45
 1380 0056 0BB1     		cbz	r3, .L45
 1381 0058 102A     		cmp	r2, #16
 1382 005a F1D1     		bne	.L60
ARM GAS  /tmp/ccRV1ReY.s 			page 91


 1383              	.L45:
 1384 005c 06AB     		add	r3, sp, #24
 1385 005e 1A44     		add	r2, r2, r3
 1386 0060 0134     		adds	r4, r4, #1
 1387 0062 0139     		subs	r1, r1, #1
 1388 0064 02F8147C 		strb	r7, [r2, #-20]
 1389 0068 5FFA84F9 		uxtb	r9, r4
 1390 006c 0829     		cmp	r1, #8
 1391 006e 18D8     		bhi	.L48
 1392 0070 DFE801F0 		tbb	[pc, r1]
 1393              	.L50:
 1394 0074 34       		.byte	(.L49-.L50)/2
 1395 0075 2E       		.byte	(.L51-.L50)/2
 1396 0076 28       		.byte	(.L52-.L50)/2
 1397 0077 22       		.byte	(.L53-.L50)/2
 1398 0078 1C       		.byte	(.L54-.L50)/2
 1399 0079 17       		.byte	(.L48-.L50)/2
 1400 007a 05       		.byte	(.L55-.L50)/2
 1401 007b 17       		.byte	(.L48-.L50)/2
 1402 007c 50       		.byte	(.L56-.L50)/2
 1403 007d 00       		.p2align 1
 1404              	.L55:
 1405 007e 4046     		mov	r0, r8
 1406 0080 01A9     		add	r1, sp, #4
 1407 0082 FFF7FEFF 		bl	strcpy
 1408              	.L61:
 1409 0086 0BF1010B 		add	fp, fp, #1
 1410 008a 1AF80930 		ldrb	r3, [r10, r9]	@ zero_extendqisi2
 1411 008e 5FFA8BFB 		uxtb	fp, fp
 1412 0092 0BF1FF31 		add	r1, fp, #-1
 1413 0096 2C2B     		cmp	r3, #44
 1414 0098 C9B2     		uxtb	r1, r1
 1415 009a CCD1     		bne	.L66
 1416              	.L64:
 1417 009c 4C46     		mov	r4, r9
 1418 009e 0022     		movs	r2, #0
 1419 00a0 DCE7     		b	.L45
 1420              	.L48:
 1421 00a2 BBF10A0F 		cmp	fp, #10
 1422 00a6 EED1     		bne	.L61
 1423 00a8 0020     		movs	r0, #0
 1424 00aa 39E0     		b	.L42
 1425              	.L54:
 1426 00ac 06F11800 		add	r0, r6, #24
 1427 00b0 01A9     		add	r1, sp, #4
 1428 00b2 FFF7FEFF 		bl	strcat
 1429 00b6 E6E7     		b	.L61
 1430              	.L53:
 1431 00b8 06F11800 		add	r0, r6, #24
 1432 00bc 01A9     		add	r1, sp, #4
 1433 00be FFF7FEFF 		bl	strcpy
 1434 00c2 E0E7     		b	.L61
 1435              	.L52:
 1436 00c4 06F10900 		add	r0, r6, #9
 1437 00c8 01A9     		add	r1, sp, #4
 1438 00ca FFF7FEFF 		bl	strcat
 1439 00ce DAE7     		b	.L61
ARM GAS  /tmp/ccRV1ReY.s 			page 92


 1440              	.L51:
 1441 00d0 06F10900 		add	r0, r6, #9
 1442 00d4 01A9     		add	r1, sp, #4
 1443 00d6 FFF7FEFF 		bl	strcpy
 1444 00da D4E7     		b	.L61
 1445              	.L49:
 1446 00dc 9DF80430 		ldrb	r3, [sp, #4]	@ zero_extendqisi2
 1447 00e0 13B3     		cbz	r3, .L57
 1448 00e2 9DF80550 		ldrb	r5, [sp, #5]	@ zero_extendqisi2
 1449 00e6 9DF80640 		ldrb	r4, [sp, #6]	@ zero_extendqisi2
 1450 00ea 9DF80700 		ldrb	r0, [sp, #7]	@ zero_extendqisi2
 1451 00ee 9DF80810 		ldrb	r1, [sp, #8]	@ zero_extendqisi2
 1452 00f2 9DF80920 		ldrb	r2, [sp, #9]	@ zero_extendqisi2
 1453 00f6 3370     		strb	r3, [r6]
 1454 00f8 3A23     		movs	r3, #58
 1455 00fa 3772     		strb	r7, [r6, #8]
 1456 00fc 7570     		strb	r5, [r6, #1]
 1457 00fe B370     		strb	r3, [r6, #2]
 1458 0100 7371     		strb	r3, [r6, #5]
 1459 0102 F470     		strb	r4, [r6, #3]
 1460 0104 3071     		strb	r0, [r6, #4]
 1461 0106 B171     		strb	r1, [r6, #6]
 1462 0108 F271     		strb	r2, [r6, #7]
 1463              	.L58:
 1464 010a 3046     		mov	r0, r6
 1465 010c 01A9     		add	r1, sp, #4
 1466 010e FFF7FEFF 		bl	strcpy
 1467 0112 B8E7     		b	.L61
 1468              	.L56:
 1469 0114 06F12700 		add	r0, r6, #39
 1470 0118 01A9     		add	r1, sp, #4
 1471 011a FFF7FEFF 		bl	strcpy
 1472 011e 0020     		movs	r0, #0
 1473              	.L42:
 1474 0120 40B2     		sxtb	r0, r0
 1475 0122 07B0     		add	sp, sp, #28
 1476              		@ sp needed
 1477 0124 BDE8F08F 		pop	{r4, r5, r6, r7, r8, r9, r10, fp, pc}
 1478              	.L57:
 1479 0128 3370     		strb	r3, [r6]
 1480 012a EEE7     		b	.L58
 1481              	.L65:
 1482 012c 1A46     		mov	r2, r3
 1483 012e 4C46     		mov	r4, r9
 1484 0130 94E7     		b	.L45
 1485              	.L62:
 1486 0132 FF20     		movs	r0, #255
 1487 0134 F4E7     		b	.L42
 1488              	.L68:
 1489 0136 00BF     		.align	2
 1490              	.L67:
 1491 0138 08000000 		.word	.LC2
 1492              		.size	gpsParseFix, .-gpsParseFix
 1493 013c AFF30080 		.section	.text.gpsNMEAChecksum,"ax",%progbits
 1494              		.align	2
 1495              		.p2align 4,,15
 1496              		.global	gpsNMEAChecksum
ARM GAS  /tmp/ccRV1ReY.s 			page 93


 1497              		.thumb
 1498              		.thumb_func
 1499              		.type	gpsNMEAChecksum, %function
 1500              	gpsNMEAChecksum:
 1501              		@ args = 0, pretend = 0, frame = 0
 1502              		@ frame_needed = 0, uses_anonymous_args = 0
 1503              		@ link register save eliminated.
 1504 0000 4378     		ldrb	r3, [r0, #1]	@ zero_extendqisi2
 1505 0002 421C     		adds	r2, r0, #1
 1506 0004 3BB1     		cbz	r3, .L72
 1507 0006 0020     		movs	r0, #0
 1508              	.L71:
 1509 0008 5840     		eors	r0, r0, r3
 1510 000a 12F8013F 		ldrb	r3, [r2, #1]!	@ zero_extendqisi2
 1511 000e C0B2     		uxtb	r0, r0
 1512 0010 002B     		cmp	r3, #0
 1513 0012 F9D1     		bne	.L71
 1514 0014 7047     		bx	lr
 1515              	.L72:
 1516 0016 1846     		mov	r0, r3
 1517 0018 7047     		bx	lr
 1518              		.size	gpsNMEAChecksum, .-gpsNMEAChecksum
 1519 001a 00BFAFF3 		.section	.text.gpsThread,"ax",%progbits
 1519      0080
 1520              		.align	2
 1521              		.p2align 4,,15
 1522              		.global	gpsThread
 1523              		.thumb
 1524              		.thumb_func
 1525              		.type	gpsThread, %function
 1526              	gpsThread:
 1527              		@ args = 0, pretend = 0, frame = 0
 1528              		@ frame_needed = 0, uses_anonymous_args = 0
 1529 0000 F8B5     		push	{r3, r4, r5, r6, r7, lr}
 1530 0002 184C     		ldr	r4, .L82
 1531 0004 0646     		mov	r6, r0
 1532 0006 0121     		movs	r1, #1
 1533 0008 1748     		ldr	r0, .L82+4
 1534 000a 2746     		mov	r7, r4
 1535 000c FFF7FEFF 		bl	chSemObjectInit
 1536 0010 0EE0     		b	.L79
 1537              	.L80:
 1538 0012 FFF7FEFF 		bl	chSemWait
 1539 0016 1448     		ldr	r0, .L82+4
 1540 0018 0121     		movs	r1, #1
 1541 001a FFF7FEFF 		bl	chSemReset
 1542 001e 94F8A900 		ldrb	r0, [r4, #169]	@ zero_extendqisi2
 1543 0022 05FB0040 		mla	r0, r5, r0, r4
 1544 0026 0430     		adds	r0, r0, #4
 1545 0028 FFF7FEFF 		bl	gpsParseNMEAType
 1546 002c 0128     		cmp	r0, #1
 1547 002e 09D0     		beq	.L81
 1548              	.L79:
 1549 0030 B378     		ldrb	r3, [r6, #2]	@ zero_extendqisi2
 1550 0032 0D48     		ldr	r0, .L82+4
 1551 0034 5225     		movs	r5, #82
 1552 0036 002B     		cmp	r3, #0
ARM GAS  /tmp/ccRV1ReY.s 			page 94


 1553 0038 EBD1     		bne	.L80
 1554 003a 2068     		ldr	r0, [r4]
 1555 003c FFF7FEFF 		bl	uartStop
 1556 0040 0020     		movs	r0, #0
 1557 0042 F8BD     		pop	{r3, r4, r5, r6, r7, pc}
 1558              	.L81:
 1559 0044 0948     		ldr	r0, .L82+8
 1560 0046 FFF7FEFF 		bl	chMtxLock
 1561 004a 97F8A900 		ldrb	r0, [r7, #169]	@ zero_extendqisi2
 1562 004e 0849     		ldr	r1, .L82+12
 1563 0050 05FB0070 		mla	r0, r5, r0, r7
 1564 0054 0430     		adds	r0, r0, #4
 1565 0056 FFF7FEFF 		bl	gpsParseFix
 1566 005a 0448     		ldr	r0, .L82+8
 1567 005c FFF7FEFF 		bl	chMtxUnlock
 1568 0060 E6E7     		b	.L79
 1569              	.L83:
 1570 0062 00BF     		.align	2
 1571              	.L82:
 1572 0064 00000000 		.word	.LANCHOR0
 1573 0068 00000000 		.word	.LANCHOR1
 1574 006c DC000000 		.word	.LANCHOR0+220
 1575 0070 AA000000 		.word	.LANCHOR0+170
 1576              		.size	gpsThread, .-gpsThread
 1577 0074 AFF30080 		.section	.text.gpsGetLatitude,"ax",%progbits
 1577      AFF30080 
 1577      AFF30080 
 1578              		.align	2
 1579              		.p2align 4,,15
 1580              		.global	gpsGetLatitude
 1581              		.thumb
 1582              		.thumb_func
 1583              		.type	gpsGetLatitude, %function
 1584              	gpsGetLatitude:
 1585              		@ args = 0, pretend = 0, frame = 0
 1586              		@ frame_needed = 0, uses_anonymous_args = 0
 1587 0000 70B5     		push	{r4, r5, r6, lr}
 1588 0002 084D     		ldr	r5, .L85
 1589 0004 05F1DC04 		add	r4, r5, #220
 1590 0008 0646     		mov	r6, r0
 1591 000a 2046     		mov	r0, r4
 1592 000c FFF7FEFF 		bl	chMtxLock
 1593 0010 3046     		mov	r0, r6
 1594 0012 05F1B301 		add	r1, r5, #179
 1595 0016 FFF7FEFF 		bl	strcpy
 1596 001a 2046     		mov	r0, r4
 1597 001c BDE87040 		pop	{r4, r5, r6, lr}
 1598 0020 FFF7FEBF 		b	chMtxUnlock
 1599              	.L86:
 1600              		.align	2
 1601              	.L85:
 1602 0024 00000000 		.word	.LANCHOR0
 1603              		.size	gpsGetLatitude, .-gpsGetLatitude
 1604 0028 AFF30080 		.section	.text.gpsGetLongitude,"ax",%progbits
 1604      AFF30080 
 1605              		.align	2
 1606              		.p2align 4,,15
ARM GAS  /tmp/ccRV1ReY.s 			page 95


 1607              		.global	gpsGetLongitude
 1608              		.thumb
 1609              		.thumb_func
 1610              		.type	gpsGetLongitude, %function
 1611              	gpsGetLongitude:
 1612              		@ args = 0, pretend = 0, frame = 0
 1613              		@ frame_needed = 0, uses_anonymous_args = 0
 1614 0000 70B5     		push	{r4, r5, r6, lr}
 1615 0002 084D     		ldr	r5, .L88
 1616 0004 05F1DC04 		add	r4, r5, #220
 1617 0008 0646     		mov	r6, r0
 1618 000a 2046     		mov	r0, r4
 1619 000c FFF7FEFF 		bl	chMtxLock
 1620 0010 3046     		mov	r0, r6
 1621 0012 05F1C201 		add	r1, r5, #194
 1622 0016 FFF7FEFF 		bl	strcpy
 1623 001a 2046     		mov	r0, r4
 1624 001c BDE87040 		pop	{r4, r5, r6, lr}
 1625 0020 FFF7FEBF 		b	chMtxUnlock
 1626              	.L89:
 1627              		.align	2
 1628              	.L88:
 1629 0024 00000000 		.word	.LANCHOR0
 1630              		.size	gpsGetLongitude, .-gpsGetLongitude
 1631 0028 AFF30080 		.section	.text.gpsGetAltitude,"ax",%progbits
 1631      AFF30080 
 1632              		.align	2
 1633              		.p2align 4,,15
 1634              		.global	gpsGetAltitude
 1635              		.thumb
 1636              		.thumb_func
 1637              		.type	gpsGetAltitude, %function
 1638              	gpsGetAltitude:
 1639              		@ args = 0, pretend = 0, frame = 0
 1640              		@ frame_needed = 0, uses_anonymous_args = 0
 1641 0000 70B5     		push	{r4, r5, r6, lr}
 1642 0002 084D     		ldr	r5, .L91
 1643 0004 05F1DC04 		add	r4, r5, #220
 1644 0008 0646     		mov	r6, r0
 1645 000a 2046     		mov	r0, r4
 1646 000c FFF7FEFF 		bl	chMtxLock
 1647 0010 3046     		mov	r0, r6
 1648 0012 05F1D101 		add	r1, r5, #209
 1649 0016 FFF7FEFF 		bl	strcpy
 1650 001a 2046     		mov	r0, r4
 1651 001c BDE87040 		pop	{r4, r5, r6, lr}
 1652 0020 FFF7FEBF 		b	chMtxUnlock
 1653              	.L92:
 1654              		.align	2
 1655              	.L91:
 1656 0024 00000000 		.word	.LANCHOR0
 1657              		.size	gpsGetAltitude, .-gpsGetAltitude
 1658 0028 AFF30080 		.section	.text.gpsGetTime,"ax",%progbits
 1658      AFF30080 
 1659              		.align	2
 1660              		.p2align 4,,15
 1661              		.global	gpsGetTime
ARM GAS  /tmp/ccRV1ReY.s 			page 96


 1662              		.thumb
 1663              		.thumb_func
 1664              		.type	gpsGetTime, %function
 1665              	gpsGetTime:
 1666              		@ args = 0, pretend = 0, frame = 0
 1667              		@ frame_needed = 0, uses_anonymous_args = 0
 1668 0000 70B5     		push	{r4, r5, r6, lr}
 1669 0002 084D     		ldr	r5, .L94
 1670 0004 05F1DC04 		add	r4, r5, #220
 1671 0008 0646     		mov	r6, r0
 1672 000a 2046     		mov	r0, r4
 1673 000c FFF7FEFF 		bl	chMtxLock
 1674 0010 3046     		mov	r0, r6
 1675 0012 05F1AA01 		add	r1, r5, #170
 1676 0016 FFF7FEFF 		bl	strcpy
 1677 001a 2046     		mov	r0, r4
 1678 001c BDE87040 		pop	{r4, r5, r6, lr}
 1679 0020 FFF7FEBF 		b	chMtxUnlock
 1680              	.L95:
 1681              		.align	2
 1682              	.L94:
 1683 0024 00000000 		.word	.LANCHOR0
 1684              		.size	gpsGetTime, .-gpsGetTime
 1685 0028 AFF30080 		.section	.text.gpsGetSatellites,"ax",%progbits
 1685      AFF30080 
 1686              		.align	2
 1687              		.p2align 4,,15
 1688              		.global	gpsGetSatellites
 1689              		.thumb
 1690              		.thumb_func
 1691              		.type	gpsGetSatellites, %function
 1692              	gpsGetSatellites:
 1693              		@ args = 0, pretend = 0, frame = 0
 1694              		@ frame_needed = 0, uses_anonymous_args = 0
 1695 0000 70B5     		push	{r4, r5, r6, lr}
 1696 0002 084D     		ldr	r5, .L97
 1697 0004 05F1DC04 		add	r4, r5, #220
 1698 0008 0646     		mov	r6, r0
 1699 000a 2046     		mov	r0, r4
 1700 000c FFF7FEFF 		bl	chMtxLock
 1701 0010 3046     		mov	r0, r6
 1702 0012 05F1D901 		add	r1, r5, #217
 1703 0016 FFF7FEFF 		bl	strcpy
 1704 001a 2046     		mov	r0, r4
 1705 001c BDE87040 		pop	{r4, r5, r6, lr}
 1706 0020 FFF7FEBF 		b	chMtxUnlock
 1707              	.L98:
 1708              		.align	2
 1709              	.L97:
 1710 0024 00000000 		.word	.LANCHOR0
 1711              		.size	gpsGetSatellites, .-gpsGetSatellites
 1712 0028 AFF30080 		.section	.text.gpsGetLocation,"ax",%progbits
 1712      AFF30080 
 1713              		.align	2
 1714              		.p2align 4,,15
 1715              		.global	gpsGetLocation
 1716              		.thumb
ARM GAS  /tmp/ccRV1ReY.s 			page 97


 1717              		.thumb_func
 1718              		.type	gpsGetLocation, %function
 1719              	gpsGetLocation:
 1720              		@ args = 0, pretend = 0, frame = 0
 1721              		@ frame_needed = 0, uses_anonymous_args = 0
 1722 0000 70B5     		push	{r4, r5, r6, lr}
 1723 0002 144C     		ldr	r4, .L100
 1724 0004 04F1DC06 		add	r6, r4, #220
 1725 0008 0546     		mov	r5, r0
 1726 000a 3046     		mov	r0, r6
 1727 000c FFF7FEFF 		bl	chMtxLock
 1728 0010 04F1B301 		add	r1, r4, #179
 1729 0014 05F10900 		add	r0, r5, #9
 1730 0018 FFF7FEFF 		bl	strcpy
 1731 001c 04F1C201 		add	r1, r4, #194
 1732 0020 05F11800 		add	r0, r5, #24
 1733 0024 FFF7FEFF 		bl	strcpy
 1734 0028 04F1D101 		add	r1, r4, #209
 1735 002c 05F12700 		add	r0, r5, #39
 1736 0030 FFF7FEFF 		bl	strcpy
 1737 0034 04F1AA01 		add	r1, r4, #170
 1738 0038 2846     		mov	r0, r5
 1739 003a FFF7FEFF 		bl	strcpy
 1740 003e 05F12F00 		add	r0, r5, #47
 1741 0042 04F1D901 		add	r1, r4, #217
 1742 0046 FFF7FEFF 		bl	strcpy
 1743 004a 3046     		mov	r0, r6
 1744 004c BDE87040 		pop	{r4, r5, r6, lr}
 1745 0050 FFF7FEBF 		b	chMtxUnlock
 1746              	.L101:
 1747              		.align	2
 1748              	.L100:
 1749 0054 00000000 		.word	.LANCHOR0
 1750              		.size	gpsGetLocation, .-gpsGetLocation
 1751              		.global	gpsSem
 1752 0058 AFF30080 		.section	.bss.gpsSem,"aw",%nobits
 1752      AFF30080 
 1753              		.align	2
 1754              		.set	.LANCHOR1,. + 0
 1755              		.type	gpsSem, %object
 1756              		.size	gpsSem, 12
 1757              	gpsSem:
 1758 0000 00000000 		.space	12
 1758      00000000 
 1758      00000000 
 1759              		.section	.bss.GPS,"aw",%nobits
 1760              		.align	2
 1761              		.set	.LANCHOR0,. + 0
 1762              		.type	GPS, %object
 1763              		.size	GPS, 236
 1764              	GPS:
 1765 0000 00000000 		.space	236
 1765      00000000 
 1765      00000000 
 1765      00000000 
 1765      00000000 
 1766              		.section	.rodata.str1.4,"aMS",%progbits,1
ARM GAS  /tmp/ccRV1ReY.s 			page 98


 1767              		.align	2
 1768              	.LC0:
 1769 0000 475000   		.ascii	"GP\000"
 1770 0003 00       		.space	1
 1771              	.LC1:
 1772 0004 414C4D00 		.ascii	"ALM\000"
 1773              	.LC2:
 1774 0008 47474100 		.ascii	"GGA\000"
 1775              	.LC3:
 1776 000c 474C4C00 		.ascii	"GLL\000"
 1777              	.LC4:
 1778 0010 47534100 		.ascii	"GSA\000"
 1779              	.LC5:
 1780 0014 47535600 		.ascii	"GSV\000"
 1781              	.LC6:
 1782 0018 48445400 		.ascii	"HDT\000"
 1783              	.LC7:
 1784 001c 5A444100 		.ascii	"ZDA\000"
 1785              		.section	.data.serGpsCfg,"aw",%progbits
 1786              		.align	2
 1787              		.set	.LANCHOR2,. + 0
 1788              		.type	serGpsCfg, %object
 1789              		.size	serGpsCfg, 32
 1790              	serGpsCfg:
 1791 0000 00000000 		.word	gpsTxbufEnd
 1792 0004 00000000 		.word	gpsTxC
 1793 0008 00000000 		.word	gpsRxEnd
 1794 000c 00000000 		.word	gpsRxChar
 1795 0010 00000000 		.word	gpsRxErr
 1796 0014 80250000 		.word	9600
 1797 0018 0000     		.short	0
 1798 001a 0000     		.short	0
 1799 001c 0000     		.short	0
 1800 001e 0000     		.space	2
 1801              		.comm	__gnu_lto_v1,1,1
 1802              		.ident	"GCC: (GNU Tools for ARM Embedded Processors) 4.8.4 20140526 (release) [ARM/embedded-4_8-br
ARM GAS  /tmp/ccRV1ReY.s 			page 99


DEFINED SYMBOLS
                            *ABS*:0000000000000000 gps.c
     /tmp/ccRV1ReY.s:1083   .text.gpsTxbufEnd:0000000000000000 $t
     /tmp/ccRV1ReY.s:1088   .text.gpsTxbufEnd:0000000000000000 gpsTxbufEnd
     /tmp/ccRV1ReY.s:1095   .text.gpsTxC:0000000000000000 $t
     /tmp/ccRV1ReY.s:1100   .text.gpsTxC:0000000000000000 gpsTxC
     /tmp/ccRV1ReY.s:1107   .text.gpsRxEnd:0000000000000000 $t
     /tmp/ccRV1ReY.s:1112   .text.gpsRxEnd:0000000000000000 gpsRxEnd
     /tmp/ccRV1ReY.s:1119   .text.gpsRxErr:0000000000000000 $t
     /tmp/ccRV1ReY.s:1124   .text.gpsRxErr:0000000000000000 gpsRxErr
     /tmp/ccRV1ReY.s:1131   .text.gpsRxChar:0000000000000000 $t
     /tmp/ccRV1ReY.s:1136   .text.gpsRxChar:0000000000000000 gpsRxChar
     /tmp/ccRV1ReY.s:1190   .text.gpsRxChar:0000000000000060 $d
     /tmp/ccRV1ReY.s:1194   .text.gpsStart:0000000000000000 $t
     /tmp/ccRV1ReY.s:1200   .text.gpsStart:0000000000000000 gpsStart
     /tmp/ccRV1ReY.s:1223   .text.gpsStart:0000000000000024 $d
     /tmp/ccRV1ReY.s:1227   .text.gpsStop:0000000000000000 $t
     /tmp/ccRV1ReY.s:1233   .text.gpsStop:0000000000000000 gpsStop
     /tmp/ccRV1ReY.s:1243   .text.gpsParseNMEAType:0000000000000000 $t
     /tmp/ccRV1ReY.s:1249   .text.gpsParseNMEAType:0000000000000000 gpsParseNMEAType
     /tmp/ccRV1ReY.s:1328   .text.gpsParseNMEAType:0000000000000094 $d
     /tmp/ccRV1ReY.s:1338   .text.gpsParseFix:0000000000000000 $t
     /tmp/ccRV1ReY.s:1344   .text.gpsParseFix:0000000000000000 gpsParseFix
     /tmp/ccRV1ReY.s:1394   .text.gpsParseFix:0000000000000074 $d
     /tmp/ccRV1ReY.s:1491   .text.gpsParseFix:0000000000000138 $d
     /tmp/ccRV1ReY.s:1494   .text.gpsNMEAChecksum:0000000000000000 $t
     /tmp/ccRV1ReY.s:1500   .text.gpsNMEAChecksum:0000000000000000 gpsNMEAChecksum
     /tmp/ccRV1ReY.s:1520   .text.gpsThread:0000000000000000 $t
     /tmp/ccRV1ReY.s:1526   .text.gpsThread:0000000000000000 gpsThread
     /tmp/ccRV1ReY.s:1572   .text.gpsThread:0000000000000064 $d
     /tmp/ccRV1ReY.s:1578   .text.gpsGetLatitude:0000000000000000 $t
     /tmp/ccRV1ReY.s:1584   .text.gpsGetLatitude:0000000000000000 gpsGetLatitude
     /tmp/ccRV1ReY.s:1602   .text.gpsGetLatitude:0000000000000024 $d
     /tmp/ccRV1ReY.s:1605   .text.gpsGetLongitude:0000000000000000 $t
     /tmp/ccRV1ReY.s:1611   .text.gpsGetLongitude:0000000000000000 gpsGetLongitude
     /tmp/ccRV1ReY.s:1629   .text.gpsGetLongitude:0000000000000024 $d
     /tmp/ccRV1ReY.s:1632   .text.gpsGetAltitude:0000000000000000 $t
     /tmp/ccRV1ReY.s:1638   .text.gpsGetAltitude:0000000000000000 gpsGetAltitude
     /tmp/ccRV1ReY.s:1656   .text.gpsGetAltitude:0000000000000024 $d
     /tmp/ccRV1ReY.s:1659   .text.gpsGetTime:0000000000000000 $t
     /tmp/ccRV1ReY.s:1665   .text.gpsGetTime:0000000000000000 gpsGetTime
     /tmp/ccRV1ReY.s:1683   .text.gpsGetTime:0000000000000024 $d
     /tmp/ccRV1ReY.s:1686   .text.gpsGetSatellites:0000000000000000 $t
     /tmp/ccRV1ReY.s:1692   .text.gpsGetSatellites:0000000000000000 gpsGetSatellites
     /tmp/ccRV1ReY.s:1710   .text.gpsGetSatellites:0000000000000024 $d
     /tmp/ccRV1ReY.s:1713   .text.gpsGetLocation:0000000000000000 $t
     /tmp/ccRV1ReY.s:1719   .text.gpsGetLocation:0000000000000000 gpsGetLocation
     /tmp/ccRV1ReY.s:1749   .text.gpsGetLocation:0000000000000054 $d
     /tmp/ccRV1ReY.s:1757   .bss.gpsSem:0000000000000000 gpsSem
     /tmp/ccRV1ReY.s:1753   .bss.gpsSem:0000000000000000 $d
     /tmp/ccRV1ReY.s:1760   .bss.GPS:0000000000000000 $d
     /tmp/ccRV1ReY.s:1764   .bss.GPS:0000000000000000 GPS
     /tmp/ccRV1ReY.s:1767   .rodata.str1.4:0000000000000000 $d
     /tmp/ccRV1ReY.s:1786   .data.serGpsCfg:0000000000000000 $d
     /tmp/ccRV1ReY.s:1790   .data.serGpsCfg:0000000000000000 serGpsCfg
                            *COM*:0000000000000001 __gnu_lto_v1
     /tmp/ccRV1ReY.s:1193   .text.gpsRxChar:0000000000000068 $t
ARM GAS  /tmp/ccRV1ReY.s 			page 100


     /tmp/ccRV1ReY.s:1226   .text.gpsStart:000000000000002c $t
     /tmp/ccRV1ReY.s:1337   .text.gpsParseNMEAType:00000000000000b4 $t
     /tmp/ccRV1ReY.s:1493   .text.gpsParseFix:000000000000013c $t
     /tmp/ccRV1ReY.s:1577   .text.gpsThread:0000000000000074 $t
     /tmp/ccRV1ReY.s:1604   .text.gpsGetLatitude:0000000000000028 $t
     /tmp/ccRV1ReY.s:1631   .text.gpsGetLongitude:0000000000000028 $t
     /tmp/ccRV1ReY.s:1658   .text.gpsGetAltitude:0000000000000028 $t
     /tmp/ccRV1ReY.s:1685   .text.gpsGetTime:0000000000000028 $t
     /tmp/ccRV1ReY.s:1712   .text.gpsGetSatellites:0000000000000028 $t
     /tmp/ccRV1ReY.s:1752   .text.gpsGetLocation:0000000000000058 $t
     /tmp/ccRV1ReY.s:1403   .text.gpsParseFix:000000000000007d $d
     /tmp/ccRV1ReY.s:1403   .text.gpsParseFix:000000000000007e $t

UNDEFINED SYMBOLS
chSchRescheduleS
chSemSignalI
chMtxObjectInit
uartStart
uartStop
strncmp
strcpy
strcat
chSemObjectInit
chSemWait
chSemReset
chMtxLock
chMtxUnlock
