ARM GAS  /tmp/ccsI8Mte.s 			page 1


   1              		.syntax unified
   2              		.cpu cortex-m4
   3              		.eabi_attribute 27, 3
   4              		.eabi_attribute 28, 1
   5              		.fpu fpv4-sp-d16
   6              		.eabi_attribute 20, 1
   7              		.eabi_attribute 21, 1
   8              		.eabi_attribute 23, 3
   9              		.eabi_attribute 24, 1
  10              		.eabi_attribute 25, 1
  11              		.eabi_attribute 26, 1
  12              		.eabi_attribute 30, 2
  13              		.eabi_attribute 34, 1
  14              		.eabi_attribute 18, 4
  15              		.thumb
  16              		.file	"hal.c"
  17              		.section	.gnu.lto_.jmpfuncs.abcac1c88c3c2f79,"",%progbits
  18 0000 789C6362 		.ascii	"x\234cb`b\300\006\344\2414#\\\204\221\251\232\341W\303"
  18      6062C006 
  18      E4A13423 
  18      5C8491A9 
  18      9AE157C3 
  19 0014 8C06814C 		.ascii	"\214\006\201LF\206\\\2300\000A\223\004\035"
  19      46865C98 
  19      30004193 
  19      041D
  20              		.text
  21              		.section	.gnu.lto_.inline.abcac1c88c3c2f79,"",%progbits
  22 0000 789C6362 		.ascii	"x\234cb`b\300\006\234\2414#\003\003\357] \011R\305\266"
  22      6062C006 
  22      9CA13423 
  22      0303EF5D 
  22      200952C5 
  23 0015 401EAC98 		.ascii	"@\036\254\230\221\213 \301\304\015\322\012f2\000\000"
  23      918B20C1 
  23      C40DD20A 
  23      66320000 
  24 0025 842D0263 		.ascii	"\204-\002c"
  25              		.text
  26              		.section	.gnu.lto_.pureconst.abcac1c88c3c2f79,"",%progbits
  27 0000 789C6362 		.ascii	"x\234cb`b`f\200\000F\006\011\000\000\203\000!"
  27      60626066 
  27      80004606 
  27      09000083 
  27      0021
  28              		.text
  29              		.section	.gnu.lto_halInit.abcac1c88c3c2f79,"",%progbits
  30 0000 789C6362 		.ascii	"x\234cb`b@\007\222@\274\207\221\201\301\000H32302M8"
  30      60624007 
  30      9240BC87 
  30      9181C100 
  30      48333233 
  31 0018 C7C0D0C8 		.ascii	"\307\300\320\310\301\304\310\010b002\32431\326G2\202"
  31      C1C4C808 
  31      62303032 
  31      D43331D6 
  31      473282
ARM GAS  /tmp/ccsI8Mte.s 			page 2


  32 002b D5AE673A 		.ascii	"\325\256g:\360\340\377\377u?6>\234\305(\304\015\024"
  32      F0E0FFFF 
  32      753F363E 
  32      9CC528C4 
  32      0D14
  33 003d 60656869 		.ascii	"`ehih\230\240\300\300\220\014V\020\002$A\272B\031\231"
  33      6898A0C0 
  33      C0900C56 
  33      10022441 
  33      BA421999 
  34 0051 4034F379 		.ascii	"@4\363y\206\346\007]\217\331\023\031\0272\262\002\245"
  34      86E6075D 
  34      8FD91319 
  34      1732B202 
  34      A5
  35 0062 AB197E35 		.ascii	"\253\031~5t4\010d2\002\225C\014\314\004\321\347\031"
  35      74340864 
  35      32029543 
  35      0CCC04D1 
  35      E719
  36 0074 5A1EF426 		.ascii	"Z\036\364&c(bJf\204\270\026$\"\221\311\310\234\313\310"
  36      6328624A 
  36      6684B816 
  36      242291C9 
  36      C89CCBC8 
  37 0088 005594C9 		.ascii	"\000U\224\311\310\002\322\326\374`\306a6l\2063#\033"
  37      C802D2D6 
  37      FC60C661 
  37      366C8633 
  37      231B
  38 009a DEFCE0F4 		.ascii	"\336\374\340\364b\254\252XPU\335\304n\026+\252\252;"
  38      62ACAA58 
  38      5055DDC4 
  38      6E162BAA 
  38      AA3B
  39 00ac 8FB1AA62 		.ascii	"\217\261\252bCU\365\012\273Y\354\250\252:[\261\006\015"
  39      4355F50A 
  39      BB59ECA8 
  39      AA3A5BB1 
  39      060D
  40 00be 07AAAA19 		.ascii	"\007\252\252\031K\261\232\305\211Pu\221\241\361\301"
  40      4BB19AC5 
  40      89507591 
  40      A1F1C1
  41 00cd 2C559822 		.ascii	",U\230\"\010\010\001J\000\243\000\024\202z\372\031\371"
  41      0808014A 
  41      00A30014 
  41      827AFA19 
  41      F9
  42 00de B9A9FAC9 		.ascii	"\271\251\372\311\371)\225\372)\251e\372\311\031\231"
  42      F92995FA 
  42      29A965FA 
  42      C91999
  43 00ed 4999F9C5 		.ascii	"I\231\371\305\372%E\245y\331\372@FFb\216~qQ2\210\326"
  43      FA2545A5 
  43      79D9FA40 
  43      4646628E 
ARM GAS  /tmp/ccsI8Mte.s 			page 3


  43      7E715132 
  44 0103 4B660000 		.ascii	"Kf\000\000\237\227~\255"
  44      9F977EAD 
  45              		.text
  46              		.section	.gnu.lto_.symbol_nodes.abcac1c88c3c2f79,"",%progbits
  47 0000 789C45C8 		.ascii	"x\234E\310\273\021\3020\020\204\341\325\312\362\203"
  47      BB11C230 
  47      1084E1D5 
  47      CAF283
  48 000f 26287505 		.ascii	"&(u\005\002c2* q)\316)\201\201qJ\015\2009\030\356\222"
  48      0263322A 
  48      207129CE 
  48      29818171 
  48      4A0D8039 
  49 0026 FFBE2588 		.ascii	"\377\276%\210+~\307W\020p\272\000\322y\010i\313\345"
  49      2B7EC757 
  49      1070BA00 
  49      D2790869 
  49      CBE5
  50 0038 433852E1 		.ascii	"C8R\341\273\346\034\302@\321u\240\242\253\247*\327\236"
  50      BBE61CC2 
  50      40D175A0 
  50      A2ABA72A 
  50      D79E
  51 004a 4AAE1D55 		.ascii	"J\256\035U\273\012\325\2706T\353\312T\367W\304\012\345"
  51      BB0AD5B8 
  51      3654EBCA 
  51      54F757C4 
  51      0AE5
  52 005c F65CDA61 		.ascii	"\366\\\332a\264\266\230\254\015fk\215r\3774a\264V\230"
  52      B4B698AC 
  52      0D666B8D 
  52      72FF3461 
  52      B45698
  53 006f AC11B395 		.ascii	"\254\021\263\225(\375c\2157\303\324A "
  53      28FD638D 
  53      37C3D441 
  53      20
  54              		.text
  55              		.section	.gnu.lto_.refs.abcac1c88c3c2f79,"",%progbits
  56 0000 789C6362 		.ascii	"x\234cb`b`e\200\000F\006&F\006\000\000\237\000\016"
  56      60626065 
  56      80004606 
  56      26460600 
  56      009F000E 
  57              		.text
  58              		.section	.gnu.lto_.decls.abcac1c88c3c2f79,"",%progbits
  59 0000 789C9596 		.ascii	"x\234\225\226_h\024G\034\307g\366\222K.IS\011T*\024"
  59      5F681447 
  59      1CC767F6 
  59      924B2E49 
  59      5309542A 
  60 0015 3C4BF541 		.ascii	"<K\365Aj\226&\266\264/\026\233X\225\306&`\005\337\226"
  60      6A9626B6 
  60      B42F169B 
  60      5895C626 
  60      6005DF96 
ARM GAS  /tmp/ccsI8Mte.s 			page 4


  61 0029 C9EDC65B 		.ascii	"\311\355\306[zw{\354\355\211>uL\213\011>\224\030Im\332"
  61      7A777BEC 
  61      ED893E75 
  61      4C8B093E 
  61      9418496D 
  62 003e A0976ADA 		.ascii	"\240\227j\332\010\366\017ADl\010\247\022\032\021\317"
  62      08F60F41 
  62      446C08A7 
  62      121A11CF 
  63 004e 98DAB45A 		.ascii	"\230\332\264Zc/$6\006\241\011\264\017Z\012\327\231\331"
  63      632F2436 
  63      06A109B4 
  63      0F5A0AD7 
  63      99D9
  64 0060 BDDCEEDD 		.ascii	"\275\334\356\335\256\331\035\370\315\314\355\376~\237"
  64      AED91DF8 
  64      CDCCEDFE 
  64      7E9F
  65 006e DF77667E 		.ascii	"\337wf~\273\267\034\340\300\005\000@\2164\261\032\200"
  65      BBB71CE0 
  65      C0050040 
  65      8E34B11A 
  65      80
  66 007f BD3E40AE 		.ascii	"\275>@\256\000\260\215\030$6\010\364VE,Cl\212\330\035"
  66      00B08D18 
  66      243608F4 
  66      56452C43 
  66      6C8AD81D 
  67 0093 62D3C47E 		.ascii	"b\323\304~#v\217\330}b\017\210e\211\315\033q\177\002"
  67      23768FD8 
  67      7D620F88 
  67      6589CD1B 
  67      717F02
  68 00a6 6BA3B1E5 		.ascii	"k\243\261\345\304\036\021\273El\321`\317\026\361\347"
  68      C41E11BB 
  68      456CD160 
  68      CF16F1E7 
  69 00b6 0DCE0383 		.ascii	"\015\316\003\203{\317\3103m\344\235r\340W\203c\030w"
  69      7BCFC833 
  69      6DE49D72 
  69      E0578363 
  69      1877
  70 00c8 E2D451BC 		.ascii	"\342\324Q\274k\242\266\016\034\307\244\2450\206\023"
  70      6BA2B60E 
  70      1CC7A4A5 
  70      308613
  71 00d7 B500EC87 		.ascii	"\265\000\354\207\010\326\006@\272\212\315j\002`\230"
  71      08D60640 
  71      BA8ACD6A 
  71      026098
  72 00e6 123682B3 		.ascii	"\0226\202\263\030\367d\307s\353p\231\021\020t\366F\360"
  72      18F764C7 
  72      73EB7099 
  72      111074F6 
  72      46F0
  73 00f8 0CDC0856 		.ascii	"\014\334\010V\367\243\236C\260\016l\006\347\210c\017"
  73      F7A39E43 
ARM GAS  /tmp/ccsI8Mte.s 			page 5


  73      B00E6C06 
  73      E788630F 
  74 0108 D1B4095A 		.ascii	"\321\264\011Z\204\262\2648\375w\246\006\227\351\256"
  74      84B2B438 
  74      FD77A606 
  74      97E9AE
  75 0117 34E46BB8 		.ascii	"4\344k\270\031\330\264\015 E\235\237f\006 N]\2056\351"
  75      19D8B40D 
  75      20459D9F 
  75      6606204E 
  75      5D8536E9 
  76 012b B3309FFE 		.ascii	"\2630\237\376\245\2255\245og`\020\301s\304\237\003\255"
  76      A59535A5 
  76      6F676010 
  76      C173C49F 
  76      03AD
  77 013d D0825F15 		.ascii	"\320\202_\025A\325\234'\221z\220\241\366\204\256\366"
  77      41D59C27 
  77      917A90A1 
  77      F684AEF6 
  78 014d BC0BB59D 		.ascii	"\274\013\265\235\351\223\231\201uTm\000t\027\216d%["
  78      E9939981 
  78      75546D00 
  78      74178E64 
  78      255B
  79 015f 309FACAC 		.ascii	"0\237\254\254p\006}]\343W`'9-\004\277'a\034\350\202"
  79      70067D5D 
  79      E3576027 
  79      392D04BF 
  79      27611CE8 
  80 0174 56D5EE51 		.ascii	"V\325\356Q\267\217\215\276\205q%\202#\0144^\004B\260"
  80      B78F8DBE 
  80      85712582 
  80      230C345E 
  80      0442B0
  81 0187 226096CC 		.ascii	"\"`\226\314~\347\035(\215\3356&\364\231x\036xu\347\300"
  81      7EE71D28 
  81      8DDD3626 
  81      F499781E 
  81      7875E7C0 
  82 019b 244B4A37 		.ascii	"$KJ7\313N\2501\325\233\341`\331\300\354\331\271\353"
  82      CB4EA831 
  82      D59BE160 
  82      D9C0ECD9 
  82      B9EB
  83 01ad 10F7D6E4 		.ascii	"\020\367\326\3447c\3323.h9\217S\231\232\036\224\207"
  83      3763DA33 
  83      2E68398F 
  83      53999A1E 
  83      9487
  84 01bf CDB88155 		.ascii	"\315\270\201U:jK\217\230a\017=\303\254\312.\232a\217"
  84      3A6A4B8F 
  84      98610F3D 
  84      C3ACCA2E 
  84      9A618F
  85 01d2 DDC0D638 		.ascii	"\335\300\3268+\273l\206-y\206Y\225\215\231a\377\270"
  85      2BBB6C86 
ARM GAS  /tmp/ccsI8Mte.s 			page 6


  85      2D798659 
  85      958D9961 
  85      FFB8
  86 01e4 81BD68A3 		.ascii	"\201\275h\243\314\256\231\237.\004\277%/\025\004\277"
  86      CCAE999F 
  86      2E04BF25 
  86      2F1504BF 
  87 01f4 831B487F 		.ascii	"\203\033H\177\221\365\227X\177\231\365\243\254\037c"
  87      91F59758 
  87      7F99F5A3 
  87      AC1F63
  88 0203 7D9AF42B 		.ascii	"}\232\364+\215\003O\231\246\241\202&\353S\274Z\221\341"
  88      8D034F99 
  88      A6A18226 
  88      EB53BC5A 
  88      91E1
  89 0215 744F2B5D 		.ascii	"tO+]\240\376\216\300\234\033\230e\205A\013\354s\023"
  89      A0FE8EC0 
  89      9C1B9865 
  89      85410BEC 
  89      7313
  90 0227 ACCB15EC 		.ascii	"\254\313\025\354Mge?\230`\237\272\202\2659+\273d\202"
  90      4D67653F 
  90      98609FBA 
  90      82B5392B 
  90      BB6482
  91 023a F5B982C5 		.ascii	"\365\271\202\305\235\225-\233`\003\256`\335\320F\232"
  91      9D952D9B 
  91      6003AE60 
  91      DDD0469A 
  92 024a A916F42A 		.ascii	"\251\026\364*\370\206U\3010;\347k\254\037g\375O\254"
  92      F88655C1 
  92      303BE76B 
  92      AC1F67FD 
  92      4FAC
  93 025c BFCEFA1B 		.ascii	"\277\316\372\033\326\363?\303\025\277\330\364\277\022"
  93      D6F33FC3 
  93      15BFD8F4 
  93      BF12
  94 026a 137B68A5 		.ascii	"\023{h\245\316\2007\272]\225S\304 \254\316\273\254\007"
  94      CE8037BA 
  94      5D9553C4 
  94      20ACCEBB 
  94      AC07
  95 027c A7702A9B 		.ascii	"\247p*\233\375\361\304\230\277\037\247?\301\271\334"
  95      FDF1C498 
  95      BF1FA73F 
  95      C1B9DC
  96 028b 47602DE8 		.ascii	"G`-\350c\377\272G\311\213\\Cp\333\013\216\240[p\255"
  96      63FFBA47 
  96      C98B5C43 
  96      70DB0B8E 
  96      A05B70AD 
  97 029f 31DBE7CB 		.ascii	"1\333\347\313/\350~\321\202\000\330\004\206(\017\017"
  97      2FE87ED1 
  97      8200D804 
  97      86280F0F 
ARM GAS  /tmp/ccsI8Mte.s 			page 7


  98 02af 631FA351 		.ascii	"c\037\243Q\377\014\\o]\344$\344\314\027\250\256lO\266"
  98      FF0C5C6F 
  98      5DE424E4 
  98      CC17A8AE 
  98      6C4FB6
  99 02c2 FFE4CC11 		.ascii	"\377\344\314\021x\374\343\324\004^\246\357d=#\007>\363"
  99      78FCE3D4 
  99      045EA6EF 
  99      643D2307 
  99      3EF3
 100 02d4 15E7D021 		.ascii	"\025\347\320!?\333B\376\375\342\346\253\375\370\252"
 100      3FDB42FE 
 100      FDE2E6AB 
 100      FDF8AA
 101 02e3 BEB83C62 		.ascii	"\276\270<b\330\001\361\213-\342\316\227K\\\011b\321"
 101      D801F18B 
 101      2DE2CE97 
 101      4B5C0962 
 101      D1
 102 02f4 01F1AB2D 		.ascii	"\001\361\253-b\352\364\002,A\014\225\331#\356\332\""
 102      62EAF402 
 102      2C410C95 
 102      D923EEDA 
 102      22
 103 0305 46E726DE 		.ascii	"F\347&\336+A\314: ~\267E\214,L\356)A\234.\267G\314\330"
 103      2B41CC3A 
 103      207EB745 
 103      8C2C4CEE 
 103      29419C2E 
 104 031d 22061E4F 		.ascii	"\"\006\036O\276]\202\270\353\200\370\303\0261\277t\003"
 104      BE5D82B8 
 104      EB80F8C3 
 104      1631BF74 
 104      03
 105 032e 76F7E2FF 		.ascii	"v\367\342\377r9\237\207j\2335\252\315\307>l\215:.\224"
 105      72399F87 
 105      6A9B35AA 
 105      CDC73E6C 
 105      8D3A2E94 
 106 0342 1EA0D537 		.ascii	"\036\240\3257\353\240c\316V\307\330\322\223'\260\267"
 106      EBA063CE 
 106      56C7D8D2 
 106      9327B0B7 
 107 0352 A4BC2EF8 		.ascii	"\244\274.\370\355!\017\255\220\227\301 ^&\037\236\177"
 107      ED210FAD 
 107      9097C120 
 107      5E261F9E 
 107      7F
 108 0363 5DF31DA1 		.ascii	"]\363\035\241\373A\327\003\211\344\257\330{\345\312"
 108      FB41D703 
 108      89E4AFD8 
 108      7BE5CA
 109 0372 0AC4F903 		.ascii	"\012\304\371\003s\241\000\264|\367\352B\234\366\341"
 109      73A100B4 
 109      7CF7EA42 
 109      9CF6E1
 110 0381 51E1F12D 		.ascii	"Q\341\361-\212\232}F\324b!\012\354\340\303JT\342C\212"
ARM GAS  /tmp/ccsI8Mte.s 			page 8


 110      8A9A7D46 
 110      D462210A 
 110      ECE0C34A 
 110      54E2438A 
 111 0395 789817A5 		.ascii	"x\230\027\245\203|(,\267\313J\202\327\324d\354C\236"
 111      837C282C 
 111      B7CB4A82 
 111      D7D464EC 
 111      439E
 112 03a7 4CC228C2 		.ascii	"L\302(\302\307\025UK\360{?\330\323\330\300\267\2644"
 112      C715554B 
 112      F07B3FD8 
 112      D3D8C0B7 
 112      B434
 113 03b9 F33BDB76 		.ascii	"\363;\333v\267\036l\340\343(\"D\"b}\030\370w\276\277"
 113      B71E6CE0 
 113      E3282244 
 113      22627D18 
 113      F877BEBF 
 114 03cd 2FD804EA 		.ascii	"/\330\004\352\022Z\264\261A8\020\227\025!!i\311\270"
 114      125AB4B1 
 114      41381097 
 114      15212169 
 114      C9B8
 115 03df A0BDC227 		.ascii	"\240\275\302'\023*\217\324\350\226\230\022\223\266H"
 115      132A8FD4 
 115      E8969812 
 115      93B648
 116 03ee A85DE6E5 		.ascii	"\250]\346\345X(\222\024%>\241\211rL#\341\225I2\222@"
 116      58289214 
 116      253EA189 
 116      724C23E1 
 116      95493292 
 117 0403 6DEB33BC 		.ascii	"m\3533\274\243\210h\213I\274 J\035(\031\321\004\355"
 117      A388688B 
 117      49BC204A 
 117      1D2819D1 
 117      04ED
 118 0415 705C4A90 		.ascii	"p\\J\220\350*A\310\307\227G\025QR\375\012\275\245V("
 118      E82A41C8 
 118      C7974715 
 118      5152FD0A 
 118      BDA55628 
 119 0429 89B82489 		.ascii	"\211\270$\211jy<\031\027U\237\"\252e\250C\215\320.\354"
 119      6A793C19 
 119      17559F22 
 119      AA65A843 
 119      8DD02EEC 
 120 043d 6FDBDE8C 		.ascii	"o\333\336\2144\344o{G\037\232\364\241Y\037v\350\303"
 120      34E46F7B 
 120      471F9AF4 
 120      A1591F76 
 120      E8C3
 121 044f 2E3A04DA 		.ascii	".:\004\332\266\2674)\261\016\371@\275\233\255J\250!"
 121      B6B73429 
 121      B10EF940 
 121      BD9BAD4A 
ARM GAS  /tmp/ccsI8Mte.s 			page 9


 121      A821
 122 0461 3AD68740 		.ascii	":\326\207@\005\031v\307d\35557a\205-\241\273\231\320"
 122      051976C7 
 122      64ED3537 
 122      61852DA1 
 122      BB99D0
 123 0474 6860553D 		.ascii	"h`U=\337\256 \225\356o\200M\350\3057\274\320\242\321"
 123      DFAE2095 
 123      EE6F804D 
 123      E8C537BC 
 123      D0A2D1
 124 0487 909088CB 		.ascii	"\220\220\210\313\004PA\2464\274\321Kx\022\251\372\351"
 124      045041A6 
 124      34BCD14B 
 124      7812A9FA 
 124      E9
 125 0498 90910637 		.ascii	"\220\221\0067xZ\211\236\227\0144\364uO\241\222*\223"
 125      785A899E 
 125      970C34F4 
 125      754FA192 
 125      2A93
 126 04aa 2DA41B21 		.ascii	"-\244\033!z\316\213\304\020\315K\006\032\372\234`\024"
 126      7ACE8BC4 
 126      10CD4B06 
 126      1AFA9C60 
 126      14
 127 04bb A920935F 		.ascii	"\251 \223_\315^\213\235\365\357n=t\210\3361j\275&l\""
 127      CD5E8B9D 
 127      F5EF6E3D 
 127      7488DE31 
 127      6ABD266C 
 128 04d0 D6517CBE 		.ascii	"\326Q|\276 C\254L\376\007\364\177pQ"
 128      2043AC4C 
 128      FE07F47F 
 128      7051
 129              		.text
 130              		.section	.gnu.lto_.symtab.abcac1c88c3c2f79,"",%progbits
 131 0000 68616C49 		.ascii	"halInit\000\000\000\000\000\000\000\000\000\000\000"
 131      6E697400 
 131      00000000 
 131      00000000 
 131      0000
 132 0012 00CE0000 		.ascii	"\000\316\000\000\000pal_default_config\000\000\002\000"
 132      0070616C 
 132      5F646566 
 132      61756C74 
 132      5F636F6E 
 133 002d 00000000 		.ascii	"\000\000\000\000\000\000\000\000\346\000\000\000stI"
 133      00000000 
 133      E6000000 
 133      737449
 134 003c 6E697400 		.ascii	"nit\000\000\002\000\000\000\000\000\000\000\000\000"
 134      00020000 
 134      00000000 
 134      000000
 135 004b D2000000 		.ascii	"\322\000\000\000boardInit\000\000\002\000\000\000\000"
 135      626F6172 
ARM GAS  /tmp/ccsI8Mte.s 			page 10


 135      64496E69 
 135      74000002 
 135      00000000 
 136 005f 00000000 		.ascii	"\000\000\000\000\000\324\000\000\000mmcInit\000\000"
 136      00D40000 
 136      006D6D63 
 136      496E6974 
 136      0000
 137 0071 02000000 		.ascii	"\002\000\000\000\000\000\000\000\000\000\326\000\000"
 137      00000000 
 137      0000D600 
 137      00
 138 007e 00756172 		.ascii	"\000uartInit\000\000\002\000\000\000\000\000\000\000"
 138      74496E69 
 138      74000002 
 138      00000000 
 138      000000
 139 0091 0000D800 		.ascii	"\000\000\330\000\000\000spiInit\000\000\002\000\000"
 139      00007370 
 139      69496E69 
 139      74000002 
 139      0000
 140 00a3 00000000 		.ascii	"\000\000\000\000\000\000\000\332\000\000\000sdInit\000"
 140      000000DA 
 140      00000073 
 140      64496E69 
 140      7400
 141 00b5 00020000 		.ascii	"\000\002\000\000\000\000\000\000\000\000\000\334\000"
 141      00000000 
 141      000000DC 
 141      00
 142 00c2 00006164 		.ascii	"\000\000adcInit\000\000\002\000\000\000\000\000\000"
 142      63496E69 
 142      74000002 
 142      00000000 
 142      0000
 143 00d4 000000DE 		.ascii	"\000\000\000\336\000\000\000_pal_lld_init\000\000\002"
 143      0000005F 
 143      70616C5F 
 143      6C6C645F 
 143      696E6974 
 144 00eb 00000000 		.ascii	"\000\000\000\000\000\000\000\000\000\340\000\000\000"
 144      00000000 
 144      00E00000 
 144      00
 145 00f8 68616C5F 		.ascii	"hal_lld_init\000\000\002\000\000\000\000\000\000\000"
 145      6C6C645F 
 145      696E6974 
 145      00000200 
 145      00000000 
 146 010e 0000E400 		.ascii	"\000\000\344\000\000\000"
 146      0000
 147              		.text
 148              		.section	.gnu.lto_.opts,"",%progbits
 149 0000 272D6D63 		.ascii	"'-mcpu=cortex-m4' '-mfloat-abi=hard' '-mfpu=fpv4-sp"
 149      70753D63 
 149      6F727465 
ARM GAS  /tmp/ccsI8Mte.s 			page 11


 149      782D6D34 
 149      2720272D 
 150 0033 2D643136 		.ascii	"-d16' '-mno-thumb-interwork' '-mthumb' '-O2' '-fomi"
 150      2720272D 
 150      6D6E6F2D 
 150      7468756D 
 150      622D696E 
 151 0066 742D6672 		.ascii	"t-frame-pointer' '-falign-functions=16' '-ffunction"
 151      616D652D 
 151      706F696E 
 151      74657227 
 151      20272D66 
 152 0099 2D736563 		.ascii	"-sections' '-fdata-sections' '-fno-common' '-flto' "
 152      74696F6E 
 152      73272027 
 152      2D666461 
 152      74612D73 
 153 00cc 272D6673 		.ascii	"'-fsingle-precision-constant'\000"
 153      696E676C 
 153      652D7072 
 153      65636973 
 153      696F6E2D 
 154              		.text
 155              		.section	.text.halInit,"ax",%progbits
 156              		.align	2
 157              		.p2align 4,,15
 158              		.global	halInit
 159              		.thumb
 160              		.thumb_func
 161              		.type	halInit, %function
 162              	halInit:
 163              		@ args = 0, pretend = 0, frame = 0
 164              		@ frame_needed = 0, uses_anonymous_args = 0
 165 0000 08B5     		push	{r3, lr}
 166 0002 FFF7FEFF 		bl	hal_lld_init
 167 0006 0948     		ldr	r0, .L2
 168 0008 FFF7FEFF 		bl	_pal_lld_init
 169 000c FFF7FEFF 		bl	adcInit
 170 0010 FFF7FEFF 		bl	sdInit
 171 0014 FFF7FEFF 		bl	spiInit
 172 0018 FFF7FEFF 		bl	uartInit
 173 001c FFF7FEFF 		bl	mmcInit
 174 0020 FFF7FEFF 		bl	boardInit
 175 0024 BDE80840 		pop	{r3, lr}
 176 0028 FFF7FEBF 		b	stInit
 177              	.L3:
 178              		.align	2
 179              	.L2:
 180 002c 00000000 		.word	pal_default_config
 181              		.size	halInit, .-halInit
 182              		.comm	__gnu_lto_v1,1,1
 183              		.ident	"GCC: (GNU Tools for ARM Embedded Processors) 4.8.4 20140526 (release) [ARM/embedded-4_8-br
ARM GAS  /tmp/ccsI8Mte.s 			page 12


DEFINED SYMBOLS
                            *ABS*:0000000000000000 hal.c
     /tmp/ccsI8Mte.s:156    .text.halInit:0000000000000000 $t
     /tmp/ccsI8Mte.s:162    .text.halInit:0000000000000000 halInit
     /tmp/ccsI8Mte.s:180    .text.halInit:000000000000002c $d
                            *COM*:0000000000000001 __gnu_lto_v1

UNDEFINED SYMBOLS
hal_lld_init
_pal_lld_init
adcInit
sdInit
spiInit
uartInit
mmcInit
boardInit
stInit
pal_default_config
