ARM GAS  /tmp/ccBpJNXB.s 			page 1


   1              		.syntax unified
   2              		.cpu cortex-m3
   3              		.fpu softvfp
   4              		.eabi_attribute 20, 1
   5              		.eabi_attribute 21, 1
   6              		.eabi_attribute 23, 3
   7              		.eabi_attribute 24, 1
   8              		.eabi_attribute 25, 1
   9              		.eabi_attribute 26, 1
  10              		.eabi_attribute 30, 2
  11              		.eabi_attribute 34, 1
  12              		.eabi_attribute 18, 4
  13              		.thumb
  14              		.file	"hal.c"
  15              		.section	.gnu.lto_.jmpfuncs.bf80c28f4c520542,"",%progbits
  16 0000 789C6362 		.ascii	"x\234cb`b\300\006\344\2404#L\200\221\251\232\341W\303"
  16      6062C006 
  16      E4A03423 
  16      4C8091A9 
  16      9AE157C3 
  17 0014 8C06814C 		.ascii	"\214\006\201LF\206\\\230(\000AH\004\034"
  17      46865C98 
  17      28004148 
  17      041C
  18              		.text
  19              		.section	.gnu.lto_.inline.bf80c28f4c520542,"",%progbits
  20 0000 789C6362 		.ascii	"x\234cb`b\300\006\354\2404#\003\003\317e \011R\305\266"
  20      6062C006 
  20      ECA03423 
  20      0303CF65 
  20      200952C5 
  21 0015 401EAC98 		.ascii	"@\036\254\230\221\013\037\301\304\015\322\005f2\000"
  21      910B1FC1 
  21      C40DD205 
  21      663200
  22 0024 00746402 		.ascii	"\000td\002H"
  22      48
  23              		.text
  24              		.section	.gnu.lto_.pureconst.bf80c28f4c520542,"",%progbits
  25 0000 789C6362 		.ascii	"x\234cb`b`f\200\000F\006\011\000\000\203\000!"
  25      60626066 
  25      80004606 
  25      09000083 
  25      0021
  26              		.text
  27              		.section	.gnu.lto_halInit.bf80c28f4c520542,"",%progbits
  28 0000 789C6362 		.ascii	"x\234cb`b@\007\222@<\225\221\201\301\000H32302M8\307"
  28      60624007 
  28      92403C95 
  28      9181C100 
  28      48333233 
  29 0019 C0D0C8C1 		.ascii	"\300\320\310\301\304\310\010b002\32431\326G2\202\325"
  29      C4C80862 
  29      303032D4 
  29      3331D647 
  29      3282D5
  30 002c AE673AF0 		.ascii	"\256g:\360\340\377\377u?6>\234\305(\304\005\024`ehi"
ARM GAS  /tmp/ccBpJNXB.s 			page 2


  30      E0FFFF75 
  30      3F363E9C 
  30      C528C405 
  30      14606568 
  31 0041 6898A0C0 		.ascii	"h\230\240\300\300\220\014V\020\002$A\272B\031\231@4"
  31      C0900C56 
  31      10022441 
  31      BA421999 
  31      4034
  32 0053 F37986E6 		.ascii	"\363y\206\346\007]\217\331\023\031\0272\262\002\245"
  32      075D8FD9 
  32      13191732 
  32      B202A5
  33 0062 AB197E35 		.ascii	"\253\031~5t4\010d2\002\225C\014\314\004\321\347\031"
  33      74340864 
  33      32029543 
  33      0CCC04D1 
  33      E719
  34 0074 5A1EF426 		.ascii	"Z\036\364&c(bJf\204\270\026$\"\221\311\310\234\313\310"
  34      6328624A 
  34      6684B816 
  34      242291C9 
  34      C89CCBC8 
  35 0088 005594C9 		.ascii	"\000U\224\311\310\002\322\326\374`\306a6l\2063#\033"
  35      C802D2D6 
  35      FC60C661 
  35      366C8633 
  35      231B
  36 009a DEFCE0F4 		.ascii	"\336\374\340\364b\254\252XPU\335\304n\026+\212\252\005"
  36      62ACAA58 
  36      5055DDC4 
  36      6E162B8A 
  36      AA05
  37 00ac AF98B129 		.ascii	"\257\230\261)bC5\252\263\025\253\237\331QU\315X\212"
  37      624335AA 
  37      B315AB9F 
  37      D95155CD 
  37      588A
  38 00be D5420E84 		.ascii	"\325B\016\204\252\213\014\215\017f\251\302\024A@\010"
  38      AA8B0C8D 
  38      0F66A9C2 
  38      14414008 
  39 00ce 500218B6 		.ascii	"P\002\030\266\240\240\321\323\317\310\317M\325O\316"
  39      A0A0D1D3 
  39      CFC8CF4D 
  39      D54FCE
  40 00dd 4FA9D44F 		.ascii	"O\251\324OI-\323O\316\310L\312\314/\326/)*\315\313\326"
  40      492DD34F 
  40      CEC84CCA 
  40      CC2FD62F 
  40      292ACDCB 
  41 00f2 07323212 		.ascii	"\00722\022s\364\213\213\222A\264^2\003\0004\247t0"
  41      73F48B8B 
  41      9241B45E 
  41      32030034 
  41      A77430
  42              		.text
ARM GAS  /tmp/ccBpJNXB.s 			page 3


  43              		.section	.gnu.lto_.symbol_nodes.bf80c28f4c520542,"",%progbits
  44 0000 789C45C8 		.ascii	"x\234E\310;\022\202@\020\204\341\356Y\026\360\324M\025"
  44      3B128240 
  44      1084E1EE 
  44      5916F0D4 
  44      4D15
  45 0012 89A12730 		.ascii	"\211\241'0\341(\004\342\013=\202\026\367\260\\\007\312"
  45      E12804E2 
  45      0B3D8216 
  45      F7B05C07 
  45      CA
  46 0023 99E49BBF 		.ascii	"\231\344\233\277\015\206\011\333\331\211\002\0163 \035"
  46      0D8609DB 
  46      D989020E 
  46      33201D
  47 0032 F7CC1796 		.ascii	"\367\314\027\226\017|R\\\327\256#\037\224E\315T\212"
  47      0F7C525C 
  47      D7AE231F 
  47      9445CD54 
  47      8A
  48 0043 BA5355D4 		.ascii	"\272SU\324\215\312QW\252\216:SM\324D\265\377J\330\241"
  48      8DCA5157 
  48      AA8E3A53 
  48      4DD444B5 
  48      FF4AD8A1 
  49 0057 7F7D8A2D 		.ascii	"\177}\212-\006\267\301\350\326X\334\214\376\375\263"
  49      06B7C1E8 
  49      D658DC8C 
  49      FEFDB3
  50 0066 C2E0268C 		.ascii	"\302\340&\214\256a)\342\013\234\343=>"
  50      AE6129E2 
  50      0B9CE33D 
  50      3E
  51              		.text
  52              		.section	.gnu.lto_.refs.bf80c28f4c520542,"",%progbits
  53 0000 789C6362 		.ascii	"x\234cb`b`e\200\000F\006&F\006\000\000\237\000\016"
  53      60626065 
  53      80004606 
  53      26460600 
  53      009F000E 
  54              		.text
  55              		.section	.gnu.lto_.decls.bf80c28f4c520542,"",%progbits
  56 0000 789C9596 		.ascii	"x\234\225\226]l\024U\024\200\317\235)mWJM\232H\360\211"
  56      5D6C1455 
  56      1480CF9D 
  56      296D574A 
  56      4D9A48F0 
  57 0015 C5080F44 		.ascii	"\305\010\017D:\375Q\023\243\301@\177\220Xh\2436\361"
  57      3AFD5113 
  57      A3C1407F 
  57      905868A3 
  57      36F1
  58 0027 6D9CEE0E 		.ascii	"m\234\356\016\354\304\375\313\316,\201'/U\201\220\230"
  58      ECC4FDCB 
  58      CE2C8127 
  58      2F558190 
  58      98
ARM GAS  /tmp/ccBpJNXB.s 			page 4


  59 0038 B40D6830 		.ascii	"\264\015h0\246\331\252\253\220\340\037F\203\210\260"
  59      A6D9AAAB 
  59      90E01F46 
  59      8388B0
  60 0047 346DB354 		.ascii	"4m\263T\305\005\251Vm\343\006\023M|\220\237\304\204"
  60      C505A956 
  60      6DE30613 
  60      4D7C909F 
  60      C484
  61 0059 07E27AEE 		.ascii	"\007\342z\356\235\231\335\235\356l;{\223s\357\335\331"
  61      9D99DD9D 
  61      EE6C3B7B 
  61      9373EFDD 
  61      D9
  62 006a 73BE73EE 		.ascii	"s\276s\3569\347NF\000\001N\003@\001G\324\007\360\210"
  62      39E74E46 
  62      00014E03 
  62      400147D4 
  62      07F088
  63 007d 08F80460 		.ascii	"\010\370\004`+\012A\231\000s\340_0\205\222E\231E\371"
  63      2B0A4199 
  63      0073E05F 
  63      30859245 
  63      9945F9
  64 0090 0EE50A4A 		.ascii	"\016\345\012J\016\345\032\312u\224y\313\346Wp\016f\267"
  64      0EE51ACA 
  64      759479CB 
  64      E657700E 
  64      66B7
  65 00a2 0A650165 		.ascii	"\012e\001e\032e\321\342\316-a\317[\234k\026\367\212"
  65      1A65D1E2 
  65      CE2D61CF 
  65      5B9C6B16 
  65      F78A
  66 00b4 E567D6F2 		.ascii	"\345g\326\362\353\306^\015G)\035\246\251C\364\231ls"
  66      EBC65E0D 
  66      47291DA6 
  66      A943F499 
  66      6C73
  67 00c6 0B8C521C 		.ascii	"\013\214R\034)JI\266\031\340E\242\220f\037\344E\276"
  67      294A49B6 
  67      19E045A2 
  67      90661FE4 
  67      45BE
  68 00d8 6BF2C153 		.ascii	"k\362\301Sh\260\021\336\247t$\237\276\271\216\326Y\372"
  68      68B011DE 
  68      A774249F 
  68      BEB98ED6 
  68      59FA
  69 00ea FEAACA0A 		.ascii	"\376\252\312\012y\217l\204\025\325\230b\232\264\300"
  69      798F6C84 
  69      15D59862 
  69      9AB4C0
  70 00f9 6638857A 		.ascii	"f8\205z#\030\320&\342\210\222;\245\231\317f\232h\235"
  70      2318D026 
  70      E288923B 
  70      A599CF66 
ARM GAS  /tmp/ccBpJNXB.s 			page 5


  70      9A689D
  71 010c A9CA4C3E 		.ascii	"\251\312L> \233\301el\200\024S\376b\346\035BS\223\304"
  71      209BC165 
  71      6C801453 
  71      FE62E61D 
  71      425393C4 
  72 0120 C5FB4BB6 		.ascii	"\305\373K\266\363\246\342\2012\2055\202BN\241\266\000"
  72      F3A6E281 
  72      32853582 
  72      424EA1B6 
  72      00
  73 0131 FDC4015F 		.ascii	"\375\304\001_\011\300B9\215\206\246\215\025\352m\325"
  73      09C04239 
  73      8D86A68D 
  73      15EA6DD5 
  74 0141 6F3E5D29 		.ascii	"o>])\320\341\314\277\351\313\204\216!\354H\251\022E"
  74      D0E1CCBF 
  74      E9CB848E 
  74      21EC48A9 
  74      1245
  75 0153 4F7EDB53 		.ascii	"O~\333S])\367\307\017O_\"\303X$\205|B|\030\360a\342"
  75      5D29F7C7 
  75      0F4F5F22 
  75      C3582485 
  75      7C427C18 
  76 016a 8CD83BEA 		.ascii	"\214\330;\352\352\321\363OP\332\250\2203\0344\275\004"
  76      EAD1F34F 
  76      50DAA890 
  76      331C34BD 
  76      04
  77 017b A490065F 		.ascii	"\244\220\006_y\304\374\267\255\300h\374ok\303\256\300"
  77      79C4FCB7 
  77      ADC068FC 
  77      6F6BC3AE 
  77      C0
  78 018c FD50ABBA 		.ascii	"\375P\253\272\0009\356\224\345\312-Pkk\016K\301\221"
  78      0039EE94 
  78      E5CA2D50 
  78      6B6B0E4B 
  78      C191
  79 019e BFFCEBBF 		.ascii	"\277\374\353\277\037{\220\025\332\316\306\365\232y~"
  79      1F7B9015 
  79      DACEC6F5 
  79      9A797E
  80 01ad 473DEEA9 		.ascii	"G=\356\251\3316\2335\357\205\325\350\022\233\333(o\023"
  80      D9369B35 
  80      EF85D5E8 
  80      129BDB28 
  80      6F13
  81 01bf 857C8437 		.ascii	"\205|\2047C!\037\223\0158\177\311\347\2638\027\207\000"
  81      43211F93 
  81      0D387FC9 
  81      E7B33817 
  81      8700
  82 01d1 0BDC77BA 		.ascii	"\013\334w\272\344\333\321u+\345\205f\276\262.\200\335"
  82      E4DBD175 
  82      2BE58566 
ARM GAS  /tmp/ccBpJNXB.s 			page 6


  82      BEB22E80 
  82      DD
  83 01e2 D67F78E1 		.ascii	"\326\177x\3419\316\342w\360\316\367\216(6\353o/\254"
  83      39CEE277 
  83      F0CEF78E 
  83      2836EB6F 
  83      2FAC
  84 01f4 75D563CB 		.ascii	"u\325c\313\225\261n{a\371\253\307\365S\031\353\256\027"
  84      95B16E7B 
  84      61F9ABC7 
  84      F55319EB 
  84      AE17
  85 0206 56DB72F5 		.ascii	"V\333r\365\262\313\363!/\317I^\230\257\371\374\015\237"
  85      B2CBF321 
  85      2FCF495E 
  85      98AFF9FC 
  85      0D9F
  86 0218 2FF2F992 		.ascii	"/\362\371\222\263T\205\212{c\276\243\312\250\351b\351"
  86      B354858A 
  86      7B63BEA3 
  86      CAA8E962 
  86      E9
  87 0229 C12BD7AD 		.ascii	"\301+\327\255\345\230\361\004Ym\253\254\207q\232\312"
  87      E598F104 
  87      596DABAC 
  87      87719ACA 
  88 0239 E73F1FBB 		.ascii	"\347?\037\273P\177\202f^\243\205\302+\260\026\216\363"
  88      507F8266 
  88      5EA385C2 
  88      2BB0168E 
  88      F3
  89 024a B7F8217C 		.ascii	"\267\370!|C\030\012\331\372@U\3204Yk\355\006E\373(g"
  89      43180AD9 
  89      FA4055D0 
  89      34596BED 
  89      0645FB28 
  90 025f 05E75100 		.ascii	"\005\347Q\0006A\232\361\350I*r\032\323\237\"\353\235"
  90      36419AF1 
  90      E8492A72 
  90      1AD39F22 
  90      EB9D
  91 0271 C79B2142 		.ascii	"\307\233!B\371\003\026W~$?\372\346\342A2\372j*Ko\261"
  91      F9031657 
  91      7E243FFA 
  91      E6E24132 
  91      FA6A2A4B 
  92 0287 CB6E7A14 		.ascii	"\313nz\024\340N\205\017\023r\331\025r\347\255\031\361"
  92      E04E850F 
  92      1372D915 
  92      72E7AD19 
  92      F1
  93 0298 049D340F 		.ascii	"\004\2354\017g#.\210\356\210o]\021\237\216\337\024*"
  93      67232E88 
  93      EE886F5D 
  93      119F8EDF 
  93      142A
  94 02aa 10852A88 		.ascii	"\020\205*\210\357]\021\3437\262\317V \316\325\271#~"
ARM GAS  /tmp/ccBpJNXB.s 			page 7


  94      EF5D11E3 
  94      37B2CF56 
  94      20CED5B9 
  94      237E
  95 02bc 70451CFB 		.ascii	"pE\034\3733\267\253\002q\267\012\342\252+\342\277\277"
  95      33B7AB02 
  95      71B70AE2 
  95      AA2BE2BF 
  95      BF
  96 02cd 724F5720 		.ascii	"rOW \316\254rG\374\350\212\230\2721K\216\214\321{\205"
  96      CEAC7247 
  96      FCE88A98 
  96      BA314B8E 
  96      8CD17B85 
  97 02e1 825843AB 		.ascii	"\202XC\253\314Y\255\"\362\257\033\253\011K}\003\254"
  97      CC59AD22 
  97      F2AF1BAB 
  97      094B7D03 
  97      AC
  98 02f2 75CE5589 		.ascii	"u\316U\211\343g\367\232\374\223y\262\342(o\324\273#"
  98      E367F79A 
  98      FC9379B2 
  98      E2286FD4 
  98      BB23
  99 0304 7E71221E 		.ascii	"~q\"\036\202\011z\013?B.N\212\007\031\202\235\206`\300"
  99      82097A0B 
  99      3F422E4E 
  99      8A071982 
  99      9D8660C0 
 100 0318 EFF297C0 		.ascii	"\357\362\227\300\333EH\325\257\215\337J<\307\027\220"
 100      DB4548D5 
 100      AF8DDF4A 
 100      3CC71790 
 101 0328 1947B524 		.ascii	"\031G\265$,\224.\336\022\253\271e\254\026KV\320#\205"
 101      2C942EDE 
 101      12ABB965 
 101      AC164B56 
 101      D02385
 102 033b 6211550A 		.ascii	"b\021U\012\304\202\007\244\240\272O\012\204\264!-\246"
 102      C48207A4 
 102      A0BA4F0A 
 102      84B4212D 
 102      A6
 103 034c 4B462219 		.ascii	"KF\"\031}Y\302MH\011K\361X\302\320\245\347_\330\325"
 103      7D59C24D 
 103      48094BF1 
 103      58C2D0A5 
 103      E75FD8D5 
 104 0360 D921F5F5 		.ascii	"\331!\365\365uK;\006v\366\357k\227\342JX\016\207\203"
 104      754B3B06 
 104      76F6EF6B 
 104      97E24A58 
 104      0E8783
 105 0373 AD21A8DF 		.ascii	"\255!\250\337\261{\320\337\005-\272\021\351\354\220"
 105      B17BD0DF 
 105      052DBA11 
 105      E9EC90
ARM GAS  /tmp/ccBpJNXB.s 			page 8


 106 0382 F7C6B598 		.ascii	"\367\306\265\230\254\253F2.\033\017KI=!)\211\310\226"
 106      ACAB4632 
 106      2E1B0F4B 
 106      493D2129 
 106      89C896
 107 0395 682CAA6E 		.ascii	"h,\252nQ\225!M\322\242\201p2\250J\272\021\324\242\006"
 107      5195214D 
 107      D2A28170 
 107      32A84ABA 
 107      11D4A206 
 108 03a9 9A372671 		.ascii	"\2327&qEC\343\321e\264#\012\306\026U%9\250\356Q\222"
 108      4543E3D1 
 108      65B4230A 
 108      C6165525 
 108      39A8EE51 
 109 03be 6143360E 		.ascii	"aC6\016\304U\035\255\357\223e\333^\214\005\023b \021"
 109      C4551DAD 
 109      EF9365DB 
 109      5E8C0513 
 109      622011
 110 03d1 4609D50F 		.ascii	"F\011\325\017l\353V\014\245~`\273\271t\231K\267\271"
 110      6CEB560C 
 110      A57E60BB 
 110      B974994B 
 110      B7B9
 111 03e3 F4B0C537 		.ascii	"\364\260\3057\260\255\257+\026\335\243\355m\365\222"
 111      B0ADAF2B 
 111      16DDA3ED 
 111      6DF592
 112 03f2 063D1160 		.ascii	"\006=\021`kk\000\032p\331\031\325\214v/f\245\343\262"
 112      6B6B001A 
 112      70D919D5 
 112      8C762F66 
 112      A5E3B2
 113 0405 4CE90633 		.ascii	"L\351\0063\354\366b8\024S\022A\226wy\367`W_O\277\334"
 113      ECF66238 
 113      14531241 
 113      967779F7 
 113      60575F4F 
 114 041b DBDED6F9 		.ascii	"\333\336\326\371\334v\3639\262||\303p\217\327\022G$"
 114      DC76F339 
 114      B27C7CC3 
 114      708FD712 
 114      4724
 115 042d 1290F5B8 		.ascii	"\022\220\365\270\206\200\006\3342\363\216\232\216a\232"
 115      868006DC 
 115      32F38E9A 
 115      8E619A
 116 043c E2C24C1F 		.ascii	"\342\302L\037\253\311TMh\230?\226\205`\315~\225`\200"
 116      ABC9544D 
 116      68983F96 
 116      8560CD7E 
 116      956080
 117 044f F9C58599 		.ascii	"\371\305\205\231\256\221\255\356\2235\257\351,\357b"
 117      AE91ADEE 
 117      9335AFE9 
 117      2CEF62
ARM GAS  /tmp/ccBpJNXB.s 			page 9


 118 045e 3EF7B6EF 		.ascii	">\367\266\357\337\317\376\261\232\270)TFlax\273\323"
 118      DFCFFEB1 
 118      9AB82954 
 118      466C6178 
 118      BBD3
 119 0470 02BC47FE 		.ascii	"\002\274G\376\007\301b\002\\"
 119      07C16202 
 119      5C
 120              		.text
 121              		.section	.gnu.lto_.symtab.bf80c28f4c520542,"",%progbits
 122 0000 68616C49 		.ascii	"halInit\000\000\000\000\000\000\000\000\000\000\000"
 122      6E697400 
 122      00000000 
 122      00000000 
 122      0000
 123 0012 00C40000 		.ascii	"\000\304\000\000\000pal_default_config\000\000\002\000"
 123      0070616C 
 123      5F646566 
 123      61756C74 
 123      5F636F6E 
 124 002d 00000000 		.ascii	"\000\000\000\000\000\000\000\000\332\000\000\000stI"
 124      00000000 
 124      DA000000 
 124      737449
 125 003c 6E697400 		.ascii	"nit\000\000\002\000\000\000\000\000\000\000\000\000"
 125      00020000 
 125      00000000 
 125      000000
 126 004b C8000000 		.ascii	"\310\000\000\000boardInit\000\000\002\000\000\000\000"
 126      626F6172 
 126      64496E69 
 126      74000002 
 126      00000000 
 127 005f 00000000 		.ascii	"\000\000\000\000\000\312\000\000\000mmcInit\000\000"
 127      00CA0000 
 127      006D6D63 
 127      496E6974 
 127      0000
 128 0071 02000000 		.ascii	"\002\000\000\000\000\000\000\000\000\000\314\000\000"
 128      00000000 
 128      0000CC00 
 128      00
 129 007e 00737069 		.ascii	"\000spiInit\000\000\002\000\000\000\000\000\000\000"
 129      496E6974 
 129      00000200 
 129      00000000 
 129      0000
 130 0090 0000CE00 		.ascii	"\000\000\316\000\000\000sdInit\000\000\002\000\000\000"
 130      00007364 
 130      496E6974 
 130      00000200 
 130      0000
 131 00a2 00000000 		.ascii	"\000\000\000\000\000\000\320\000\000\000adcInit\000"
 131      0000D000 
 131      00006164 
 131      63496E69 
 131      7400
ARM GAS  /tmp/ccBpJNXB.s 			page 10


 132 00b4 00020000 		.ascii	"\000\002\000\000\000\000\000\000\000\000\000\322\000"
 132      00000000 
 132      000000D2 
 132      00
 133 00c1 00005F70 		.ascii	"\000\000_pal_lld_init\000\000\002\000\000\000\000\000"
 133      616C5F6C 
 133      6C645F69 
 133      6E697400 
 133      00020000 
 134 00d8 00000000 		.ascii	"\000\000\000\000\324\000\000\000hal_lld_init\000\000"
 134      D4000000 
 134      68616C5F 
 134      6C6C645F 
 134      696E6974 
 135 00ee 02000000 		.ascii	"\002\000\000\000\000\000\000\000\000\000\330\000\000"
 135      00000000 
 135      0000D800 
 135      00
 136 00fb 00       		.ascii	"\000"
 137              		.text
 138              		.section	.gnu.lto_.opts,"",%progbits
 139 0000 272D6D63 		.ascii	"'-mcpu=cortex-m3' '-mno-thumb-interwork' '-mthumb' "
 139      70753D63 
 139      6F727465 
 139      782D6D33 
 139      2720272D 
 140 0033 272D4F32 		.ascii	"'-O2' '-fomit-frame-pointer' '-falign-functions=16'"
 140      2720272D 
 140      666F6D69 
 140      742D6672 
 140      616D652D 
 141 0066 20272D66 		.ascii	" '-ffunction-sections' '-fdata-sections' '-fno-comm"
 141      66756E63 
 141      74696F6E 
 141      2D736563 
 141      74696F6E 
 142 0099 6F6E2720 		.ascii	"on' '-flto'\000"
 142      272D666C 
 142      746F2700 
 143              		.text
 144              		.section	.text.halInit,"ax",%progbits
 145              		.align	2
 146              		.p2align 4,,15
 147              		.global	halInit
 148              		.thumb
 149              		.thumb_func
 150              		.type	halInit, %function
 151              	halInit:
 152              		@ args = 0, pretend = 0, frame = 0
 153              		@ frame_needed = 0, uses_anonymous_args = 0
 154 0000 08B5     		push	{r3, lr}
 155 0002 FFF7FEFF 		bl	hal_lld_init
 156 0006 0848     		ldr	r0, .L2
 157 0008 FFF7FEFF 		bl	_pal_lld_init
 158 000c FFF7FEFF 		bl	adcInit
 159 0010 FFF7FEFF 		bl	sdInit
 160 0014 FFF7FEFF 		bl	spiInit
ARM GAS  /tmp/ccBpJNXB.s 			page 11


 161 0018 FFF7FEFF 		bl	mmcInit
 162 001c FFF7FEFF 		bl	boardInit
 163 0020 BDE80840 		pop	{r3, lr}
 164 0024 FFF7FEBF 		b	stInit
 165              	.L3:
 166              		.align	2
 167              	.L2:
 168 0028 00000000 		.word	pal_default_config
 169              		.size	halInit, .-halInit
 170              		.comm	__gnu_lto_v1,1,1
 171 002c AFF30080 		.ident	"GCC: (GNU Tools for ARM Embedded Processors) 4.8.4 20140526 (release) [ARM/embedded-4_8-br
ARM GAS  /tmp/ccBpJNXB.s 			page 12


DEFINED SYMBOLS
                            *ABS*:0000000000000000 hal.c
     /tmp/ccBpJNXB.s:145    .text.halInit:0000000000000000 $t
     /tmp/ccBpJNXB.s:151    .text.halInit:0000000000000000 halInit
     /tmp/ccBpJNXB.s:168    .text.halInit:0000000000000028 $d
                            *COM*:0000000000000001 __gnu_lto_v1
     /tmp/ccBpJNXB.s:171    .text.halInit:000000000000002c $t

UNDEFINED SYMBOLS
hal_lld_init
_pal_lld_init
adcInit
sdInit
spiInit
mmcInit
boardInit
stInit
pal_default_config
