ARM GAS  /tmp/cceHJAJ5.s 			page 1


   1              		.syntax unified
   2              		.cpu cortex-m4
   3              		.eabi_attribute 27, 3
   4              		.eabi_attribute 28, 1
   5              		.fpu fpv4-sp-d16
   6              		.eabi_attribute 20, 1
   7              		.eabi_attribute 21, 1
   8              		.eabi_attribute 23, 3
   9              		.eabi_attribute 24, 1
  10              		.eabi_attribute 25, 1
  11              		.eabi_attribute 26, 1
  12              		.eabi_attribute 30, 2
  13              		.eabi_attribute 34, 1
  14              		.eabi_attribute 18, 4
  15              		.thumb
  16              		.file	"hal.c"
  17              		.section	.gnu.lto_.jmpfuncs.5ab4f3df77ac56a0,"",%progbits
  18 0000 789C6362 		.ascii	"x\234cb`b\300\006\344\2414#\\\204\221\251\232\341W\303"
  18      6062C006 
  18      E4A13423 
  18      5C8491A9 
  18      9AE157C3 
  19 0014 8C06814C 		.ascii	"\214\006\201LF\206\\\2300\000A\223\004\035"
  19      46865C98 
  19      30004193 
  19      041D
  20              		.text
  21              		.section	.gnu.lto_.inline.5ab4f3df77ac56a0,"",%progbits
  22 0000 789C6362 		.ascii	"x\234cb`b\300\006\234\2414#\003\003\357] \011R\305\266"
  22      6062C006 
  22      9CA13423 
  22      0303EF5D 
  22      200952C5 
  23 0015 401EAC98 		.ascii	"@\036\254\230\221\213 \301\304\015\322\012f2\000\000"
  23      918B20C1 
  23      C40DD20A 
  23      66320000 
  24 0025 842D0263 		.ascii	"\204-\002c"
  25              		.text
  26              		.section	.gnu.lto_.pureconst.5ab4f3df77ac56a0,"",%progbits
  27 0000 789C6362 		.ascii	"x\234cb`b`f\200\000F\006\011\000\000\203\000!"
  27      60626066 
  27      80004606 
  27      09000083 
  27      0021
  28              		.text
  29              		.section	.gnu.lto_halInit.5ab4f3df77ac56a0,"",%progbits
  30 0000 789C6362 		.ascii	"x\234cb`b@\007\222@\274\207\221\201\301\000H32302M8"
  30      60624007 
  30      9240BC87 
  30      9181C100 
  30      48333233 
  31 0018 C7C0D0C8 		.ascii	"\307\300\320\310\301\304\310\010b002\32431\326G2\202"
  31      C1C4C808 
  31      62303032 
  31      D43331D6 
  31      473282
ARM GAS  /tmp/cceHJAJ5.s 			page 2


  32 002b D5AE673A 		.ascii	"\325\256g:\360\340\377\377u?6>\234\305(\304\015\024"
  32      F0E0FFFF 
  32      753F363E 
  32      9CC528C4 
  32      0D14
  33 003d 60656869 		.ascii	"`ehih\230\240\300\300\220\014V\020\002$A\272B\031\231"
  33      6898A0C0 
  33      C0900C56 
  33      10022441 
  33      BA421999 
  34 0051 4034F379 		.ascii	"@4\363y\206\346\007]\217\331\023\031\0272\262\002\245"
  34      86E6075D 
  34      8FD91319 
  34      1732B202 
  34      A5
  35 0062 AB197E35 		.ascii	"\253\031~5t4\010d2\002\225C\014\314\004\321\347\031"
  35      74340864 
  35      32029543 
  35      0CCC04D1 
  35      E719
  36 0074 5A1EF426 		.ascii	"Z\036\364&c(bJf\204\270\026$\"\221\311\310\234\313\310"
  36      6328624A 
  36      6684B816 
  36      242291C9 
  36      C89CCBC8 
  37 0088 005594C9 		.ascii	"\000U\224\311\310\002\322\326\374`\306a6l\2063#\033"
  37      C802D2D6 
  37      FC60C661 
  37      366C8633 
  37      231B
  38 009a DEFCE0F4 		.ascii	"\336\374\340\364b\254\252XPU\335\304n\026+\252\252;"
  38      62ACAA58 
  38      5055DDC4 
  38      6E162BAA 
  38      AA3B
  39 00ac 8FB1AA62 		.ascii	"\217\261\252bCU\365\012\273Y\354\250\252:[\261\006\015"
  39      4355F50A 
  39      BB59ECA8 
  39      AA3A5BB1 
  39      060D
  40 00be 07AAAA19 		.ascii	"\007\252\252\031K\261\232\305\211Pu\221\241\361\301"
  40      4BB19AC5 
  40      89507591 
  40      A1F1C1
  41 00cd 2C559822 		.ascii	",U\230\"\010\010\001J\000\243\000\024\202z\372\031\371"
  41      0808014A 
  41      00A30014 
  41      827AFA19 
  41      F9
  42 00de B9A9FAC9 		.ascii	"\271\251\372\311\371)\225\372)\251e\372\311\031\231"
  42      F92995FA 
  42      29A965FA 
  42      C91999
  43 00ed 4999F9C5 		.ascii	"I\231\371\305\372%E\245y\331\372@FFb\216~qQ2\210\326"
  43      FA2545A5 
  43      79D9FA40 
  43      4646628E 
ARM GAS  /tmp/cceHJAJ5.s 			page 3


  43      7E715132 
  44 0103 4B660000 		.ascii	"Kf\000\000\237\227~\255"
  44      9F977EAD 
  45              		.text
  46              		.section	.gnu.lto_.symbol_nodes.5ab4f3df77ac56a0,"",%progbits
  47 0000 789C45C8 		.ascii	"x\234E\310\273\021\3020\020\204\341\325\312\362\203"
  47      BB11C230 
  47      1084E1D5 
  47      CAF283
  48 000f 26287505 		.ascii	"&(u\005\002c2* q)\316)\201\201qJ\015\2009\030\356\222"
  48      0263322A 
  48      207129CE 
  48      29818171 
  48      4A0D8039 
  49 0026 FFBE2588 		.ascii	"\377\276%\210+~\307W\020p\272\000\322y\010i\313\345"
  49      2B7EC757 
  49      1070BA00 
  49      D2790869 
  49      CBE5
  50 0038 433852E1 		.ascii	"C8R\341\273\346\034\302@\321u\240\242\253\247*\327\236"
  50      BBE61CC2 
  50      40D175A0 
  50      A2ABA72A 
  50      D79E
  51 004a 4AAE1D55 		.ascii	"J\256\035U\273\012\325\2706T\353\312T\367W\304\012\345"
  51      BB0AD5B8 
  51      3654EBCA 
  51      54F757C4 
  51      0AE5
  52 005c F65CDA61 		.ascii	"\366\\\332a\264\266\230\254\015fk\215r\3774a\264V\230"
  52      B4B698AC 
  52      0D666B8D 
  52      72FF3461 
  52      B45698
  53 006f AC11B395 		.ascii	"\254\021\263\225(\375c\2157\303\324A "
  53      28FD638D 
  53      37C3D441 
  53      20
  54              		.text
  55              		.section	.gnu.lto_.refs.5ab4f3df77ac56a0,"",%progbits
  56 0000 789C6362 		.ascii	"x\234cb`b`e\200\000F\006&F\006\000\000\237\000\016"
  56      60626065 
  56      80004606 
  56      26460600 
  56      009F000E 
  57              		.text
  58              		.section	.gnu.lto_.decls.5ab4f3df77ac56a0,"",%progbits
  59 0000 789C9596 		.ascii	"x\234\225\226\177l\024E\024\307g\356\332k\257\255h\232"
  59      7F6C1445 
  59      14C767EE 
  59      DA6BAFAD 
  59      689A
  60 0012 482421E1 		.ascii	"H$!\3410\302\037D\272\322V\243\377`\260-?b\241\215\332"
  60      30C21F44 
  60      BAD256A3 
  60      FF60B02D 
  60      3F62A18D 
ARM GAS  /tmp/cceHJAJ5.s 			page 4


  61 0027 C4FF36DB 		.ascii	"\304\3776\333\333-\267\361\356\366\262\273G\340/\207"
  61      DB2DB7F1 
  61      EEF6B2BB 
  61      47E02F87 
  62 0037 6A6843A2 		.ascii	"jhC\2429\332\024lh\360j\251\226\004\2254\246i\2204'"
  62      39DA146C 
  62      68F06AA9 
  62      96049534 
  62      A6699034 
  63 004c A4B18478 		.ascii	"\244\261\204x\024\324*\225\302\325\026\201\220\320&"
  63      14D42A95 
  63      C2D51681 
  63      90D026
  64 005b F807A8C9 		.ascii	"\370\007\250\31193\273\327\333\275\333\245\273\223\274"
  64      3933BBD7 
  64      DBBDDBA5 
  64      BB93BC
  65 006a 99B9DDF7 		.ascii	"\231\271\335\367>\357;3o\367\326\003<\340;\000@\026"
  65      3EEF3B33 
  65      6FF7D603 
  65      3CE03B00 
  65      4016
  66 007c 37BE1280 		.ascii	"7\276\022\200O\274\000_\001`;6\210m\020h\255\002[\032"
  66      4FBC005F 
  66      01603B36 
  66      886D1068 
  66      AD025B1A 
  67 0090 DB756CBF 		.ascii	"\333ul\277`\233\301\366;\266Yl7\261\335\302\226\301"
  67      609BC1F6 
  67      3BB6596C 
  67      37B1DDC2 
  67      96C1
  68 00a2 B6A8C7FD 		.ascii	"\266\250\307\375\005\314\215\304\226b\273\207\355*\266"
  68      05CC8DC4 
  68      9662BB87 
  68      ED2AB6
  69 00b1 FB3A7BBE 		.ascii	"\373:{\276\200\277\250sn\351\334Y=\317\214\236\367\272"
  69      80BFA873 
  69      6EE9DC59 
  69      3DCF8C9E 
  69      F7BA
  70 00c3 0DBF121C 		.ascii	"\015\277\022\034E\250\023%\217\240\335Sk\252\3011\204"
  70      45A81325 
  70      8FA0DD53 
  70      6BAAC131 
  70      84
  71 00d4 5B122138 		.ascii	"[\022!8\265\006\200\367!\007\327\370A\252\202\316\252"
  71      B50680F7 
  71      2107D7F8 
  71      41AA82CE 
  71      AA
  72 00e5 FC608410 		.ascii	"\374`\204\0206\201\323\010%2\223\331u\250D\017\010\330"
  72      3681D308 
  72      253293D9 
  72      75A8440F 
  72      08D8
  73 00f7 7B737008 		.ascii	"{sp\010n\002\253\373\021\317aX\015\266\2003\3301\201"
ARM GAS  /tmp/cceHJAJ5.s 			page 5


  73      6E02ABFB 
  73      11CF6158 
  73      0DB68033 
  73      D83181
  74 010a 356D8626 		.ascii	"5m\206&\2414-J=JW\241\022\315\225\204|\011\267\000\213"
  74      A1342D4A 
  74      3D4A57A1 
  74      12CD9584 
  74      7C09B700 
  75 011f B6112489 		.ascii	"\266\021$\211\363\223\364\000D\311\213\320\"}\006\346"
  75      F393F400 
  75      44C98BD0 
  75      227D06E6 
  76 012f D2AF5F59 		.ascii	"\322\257_YS\352Z\032\0068x\006\373{@\0134\341WE\020"
  76      53EA5A1A 
  76      06387806 
  76      FB7B400B 
  76      34E15745 
  77 0144 356771A4 		.ascii	"5gq\244\026\244\253\355\325\324\236u\240\2663u\"=\260"
  77      16A4ABED 
  77      D5D49E75 
  77      A0B63375 
  77      223DB0
  78 0157 8EA8F583 		.ascii	"\216\250\365\203\356\374\221\254d\013\344\222\225\344"
  78      EEFC91AC 
  78      640BE492 
  78      95E4
  79 0165 CFA0AF6B 		.ascii	"\317\240\257k\362\007\330\211O\213\203\337\3420\017"
  79      F207D889 
  79      4F8B83DF 
  79      E2300F
  80 0174 E88266D5 		.ascii	"\350\202f\325\316Q\327\216^x\003\241r\016\216R\320d"
  80      CE51D78E 
  80      5E7803A1 
  80      720E8E52 
  80      D064
  81 0186 01888365 		.ascii	"\001\210\203e~\243d\372;\347@h\364\266>!\317\304\263"
  81      7EA364FA 
  81      3BE74068 
  81      F4B63E21 
  81      CFC4B3
  82 0199 C0ADBB07 		.ascii	"\300\255\273\007L\323\244d\263\254\204\352S\255\351"
  82      4CD3A464 
  82      B3AC84EA 
  82      53ADE9
  83 01a8 0EA60DCC 		.ascii	"\016\246\015\314\234^\270\014QOUn3f\\\343\002\246\363"
  83      9C5EB80C 
  83      514F556E 
  83      33665CE3 
  83      02A6F3
  84 01bb 3895AE4A 		.ascii	"8\225\256Jp9\330\234\023X\271\255\266\324\250\021v\307"
  84      7039D89C 
  84      1358B9AD 
  84      B6D4A811 
  84      76C7
  85 01cd 35CCAC6C 		.ascii	"5\314\254l\314\010{\340\004\366\234\275\262\363F\330"
  85      CC087BE0 
ARM GAS  /tmp/cceHJAJ5.s 			page 6


  85      04F69CBD 
  85      B2F346D8 
  86 01dd 926B9859 		.ascii	"\222k\230Y\331\204\021\366\267\023\330\013\026\312\254"
  86      D98411F6 
  86      B713D80B 
  86      16CAAC
  87 01ec 9AF1E9E2 		.ascii	"\232\361\351\342\340\327\370\245\302\301o\340F\334\217"
  87      E0D7F8A5 
  87      C2C16FE0 
  87      46DC8F
  88 01fb D17E9CF6 		.ascii	"\321~\234\366\347i\177\201\366\023\264O\341~\245y\300"
  88      E7697F81 
  88      F613B44F 
  88      E17EA579 
  88      C0
  89 020c 13AA6938 		.ascii	"\023\252i8\257\311\374\024\257Vd(\225h!\013\324\336"
  89      AFC9FC14 
  89      AF566428 
  89      9568210B 
  89      D4DE
  90 021e 11C8E304 		.ascii	"\021\310\343\004fZa\300\004\373\314\000\353r\004{\335"
  90      665A61C0 
  90      04FBCC00 
  90      EB72047B 
  90      DD
  91 022f 5ED93903 		.ascii	"^\3319\003\354SG\260V{e\343\006X\237#X\314^\331\262"
  91      EC5347B0 
  91      567B65E3 
  91      06589F23 
  91      58CC5ED9 
  92 0244 0136E008 		.ascii	"\0016\340\010\326\015-\244\031jA\253\202\257h\025\214"
  92      D60D2DA4 
  92      196A41AB 
  92      82AF6815 
  92      8C
  93 0255 D073BE44 		.ascii	"\320s\276D\373I\332\377H\373\313\264\277b>\377!O\341"
  93      FB49DAFF 
  93      48FBCBB4 
  93      BF623EFF 
  93      214FE1
  94 0268 8B4DFB2B 		.ascii	"\213M\373+1\260\207W\352\014\270\243[U9A\014\302\312"
  94      31B08757 
  94      EA0CB8A3 
  94      5B553941 
  94      0CC2CA
  95 027b 9CCB0670 		.ascii	"\234\313\006p\012%3\231\357{'|\375(\3651\312f?\004k"
  95      0A253399 
  95      EF7B277C 
  95      FD28F531 
  95      CA663F04 
  96 0290 411FFDD7 		.ascii	"A\037\375\327=\202_\344*\007\267?o\013\272\012\327\352"
  96      3D825FE4 
  96      2A07B73F 
  96      6F0BBA0A 
  96      D7EA
  97 02a2 B3366F6E 		.ascii	"\2636onA7\013\026\004\300f0Lxh\004y)\215\370\247\341"
  97      41370B16 
ARM GAS  /tmp/cceHJAJ5.s 			page 7


  97      04C06630 
  97      4C786804 
  97      79298DF8 
  98 02b8 06F322A7 		.ascii	"\006\363\"\247\241\307x\201\350\312$2\375'\346\016\303"
  98      A1C77881 
  98      E8CA2432 
  98      FD27E60E 
  98      C3
  99 02c9 631F25A7 		.ascii	"c\037%\247\3202y'k\031=\340\270\2670\207\006\371\331"
  99      D0327927 
  99      6B193DE0 
  99      B8B73087 
  99      06F9D9
 100 02dc 12F2CFEC 		.ascii	"\022\362\317\354O/\367\243\213\332\342r\210?m\020\277"
 100      4F2FF7A3 
 100      8BDAE272 
 100      883F6D10 
 100      BF
 101 02ed 5A22C63F 		.ascii	"Z\"\306?_\362\024!\206J\254\021\277Y\"\306\026\226\327"
 101      5FF21421 
 101      864AAC11 
 101      BF5922C6 
 101      1696D7
 102 0300 17216EDB 		.ascii	"\027!n\333 nX\"\316\335\235z\273\010q\262\324\032\361"
 102      206E5822 
 102      CEDD9D7A 
 102      BB0871B2 
 102      D41AF1
 103 0313 8725E2F8 		.ascii	"\207%\342\370\203\351\275E\210\0336\2109KDbi\372\315"
 103      83E9BD45 
 103      881B3688 
 103      394B4462 
 103      69FACD
 104 0326 2244AFCF 		.ascii	"\"D\257\317\032q\333\022\261\270t\005v\367\240\377\262"
 104      1A71DB12 
 104      B1B87405 
 104      76F7A0FF 
 104      B2
 105 0337 59AF8B6A 		.ascii	"Y\257\213j\233\327\253\315K?l\365:\316\227\036 \325"
 105      9BD7ABCD 
 105      4B3F6CF5 
 105      3ACE971E 
 105      20D5
 106 0349 77D246C7 		.ascii	"w\322F\307\202\245\216\321G\217\037\303\236\242\362"
 106      82A58ED1 
 106      478F1FC3 
 106      9EA2F2
 107 0358 7A6803B9 		.ascii	"zh\003\271c\206\274\010\006\3212\376\360|x\311{\230"
 107      6386BC08 
 107      06D132FE 
 107      F07C78C9 
 107      7B98
 108 036a EC07590F 		.ascii	"\354\007Y\017\304\222\277\240\357\225\177W \366\037"
 108      C492BFA0 
 108      EF957F57 
 108      20F61F
 109 0379 9877F340 		.ascii	"\230w\363@\323w\257&\304n\037\356\345\037\337\202\250"
ARM GAS  /tmp/cceHJAJ5.s 			page 8


 109      D377AF26 
 109      C46E1FEE 
 109      E51FDF82 
 109      A8
 110 038a F9A744DD 		.ascii	"\371\247D\335\317G\201&&$E\004&(\361\207\030^8\300\004"
 110      CF478126 
 110      26244504 
 110      2628F187 
 110      185E38C0 
 111 039f 4362BB28 		.ascii	"Cb\273()\214*\307\243\0370x\022\342\302LL\222U\205y"
 111      298C2AC7 
 111      A31F3078 
 111      12E2C24C 
 111      4C925585 
 112 03b4 F7BDBD75 		.ascii	"\367\275\275u\265Lss#\263\253uO\313\201Z&\306\205\331"
 112      B54C7373 
 112      23B3AB75 
 112      4FCB815A 
 112      26C685D9 
 113 03c8 7098AF09 		.ascii	"p\230\257\011\001\337\256}m\201\006P\255\250\221\272"
 113      01DFAE7D 
 113      6D810650 
 113      ADA891BA 
 114 03d8 5A767F4C 		.ascii	"Zv\177L\224XEP\3431V}\211\211+2\303\311\221\255Q)*l"
 114      94584550 
 114      E331567D 
 114      89892B32 
 114      C3C991AD 
 115 03f0 15B87691 		.ascii	"\025\270v\221\021\243\301p\234\027\030E\345\305\250"
 115      11A3C170 
 115      9C171845 
 115      E5C5A8
 116 03ff 8AC3CBE3 		.ascii	"\212\303\313\343x\304\201j\375S\274#\034\326\026\025"
 116      78C4816A 
 116      FD53BC23 
 116      1CD61615 
 117 040f 1896173A 		.ascii	"\030\226\027:\270xXe\325C1A\301\321\025,\233\213/\215"
 117      B8785865 
 117      D5433141 
 117      C1D1152C 
 117      9B8B2F8D 
 118 0423 48BC20FB 		.ascii	"H\274 \373$rK.\223\224\230 \360ri,\036\343e\257\304"
 118      24724B2E 
 118      93949820 
 118      F072692C 
 118      1EE365AF 
 119 0438 CB255C87 		.ascii	"\313%\\\207\034&]\310\327\272\243\221S9_\353[\332\320"
 119      1C265DC8 
 119      D7BAA391 
 119      53395FEB 
 119      5BDAD0
 120 044b A00D8DDA 		.ascii	"\240\015\215\332\320\244\015\273\311\340o\335\321\334"
 120      D0A40DBB 
 120      C9E06FDD 
 120      D1DC
 121 0459 20453BC4 		.ascii	" E;\304\3755N\266J\221\203d\254\011\2022<\354\211\212"
 121      FD354EB6 
ARM GAS  /tmp/cceHJAJ5.s 			page 9


 121      4A918364 
 121      AC098232 
 121      3CEC898A 
 122 046d EA362761 		.ascii	"\3526'a\371-!\273\251\250$\260\321I`\273\304\311<9\033"
 122      F92D21BB 
 122      A9A824B0 
 122      D14960BB 
 122      C4C93C39 
 123 0482 765F5B43 		.ascii	"v_[CsS\013\273\263\376\225m\3574i\3271\313O'\004\367"
 123      73530BBB 
 123      B3FE956D 
 123      EF3469D7 
 123      31CB4F27 
 124 0498 9A1B1D91 		.ascii	"\232\033\035\221H\220Ub\"\006\224\341)\011\257s\023"
 124      48905562 
 124      220694E1 
 124      2909AF73 
 124      13
 125 04a9 1EE764ED 		.ascii	"\036\347d\355\\\361H\202k]\355\201\226\027\017$\364"
 125      5CF14882 
 125      6B5DED81 
 125      96170F24 
 125      F4
 126 04ba 5557A182 		.ascii	"UW\241\202,\342\315'[\310\273\316\313\361A\222\027\017"
 126      2CE2CD27 
 126      5BC8BBCE 
 126      CBF14192 
 126      170F
 127 04cc 24F41956 		.ascii	"$\364\031V/oVtz\026\306\307\204\366;\353\017\036$w\364"
 127      2F6F5674 
 127      7A16C6C7 
 127      84F63BEB 
 127      0F1E2477 
 128 04e1 A7A42A64 		.ascii	"\247\244*d V\023|\256\224\203\264\300\376\007\352_\205"
 128      2056137C 
 128      AE9483B4 
 128      C0FE07EA 
 128      5F85
 129 04f3 6B       		.ascii	"k"
 130              		.text
 131              		.section	.gnu.lto_.symtab.5ab4f3df77ac56a0,"",%progbits
 132 0000 68616C49 		.ascii	"halInit\000\000\000\000\000\000\000\000\000\000\000"
 132      6E697400 
 132      00000000 
 132      00000000 
 132      0000
 133 0012 00CE0000 		.ascii	"\000\316\000\000\000pal_default_config\000\000\002\000"
 133      0070616C 
 133      5F646566 
 133      61756C74 
 133      5F636F6E 
 134 002d 00000000 		.ascii	"\000\000\000\000\000\000\000\000\346\000\000\000stI"
 134      00000000 
 134      E6000000 
 134      737449
 135 003c 6E697400 		.ascii	"nit\000\000\002\000\000\000\000\000\000\000\000\000"
 135      00020000 
ARM GAS  /tmp/cceHJAJ5.s 			page 10


 135      00000000 
 135      000000
 136 004b D2000000 		.ascii	"\322\000\000\000boardInit\000\000\002\000\000\000\000"
 136      626F6172 
 136      64496E69 
 136      74000002 
 136      00000000 
 137 005f 00000000 		.ascii	"\000\000\000\000\000\324\000\000\000mmcInit\000\000"
 137      00D40000 
 137      006D6D63 
 137      496E6974 
 137      0000
 138 0071 02000000 		.ascii	"\002\000\000\000\000\000\000\000\000\000\326\000\000"
 138      00000000 
 138      0000D600 
 138      00
 139 007e 00756172 		.ascii	"\000uartInit\000\000\002\000\000\000\000\000\000\000"
 139      74496E69 
 139      74000002 
 139      00000000 
 139      000000
 140 0091 0000D800 		.ascii	"\000\000\330\000\000\000spiInit\000\000\002\000\000"
 140      00007370 
 140      69496E69 
 140      74000002 
 140      0000
 141 00a3 00000000 		.ascii	"\000\000\000\000\000\000\000\332\000\000\000sdInit\000"
 141      000000DA 
 141      00000073 
 141      64496E69 
 141      7400
 142 00b5 00020000 		.ascii	"\000\002\000\000\000\000\000\000\000\000\000\334\000"
 142      00000000 
 142      000000DC 
 142      00
 143 00c2 00006164 		.ascii	"\000\000adcInit\000\000\002\000\000\000\000\000\000"
 143      63496E69 
 143      74000002 
 143      00000000 
 143      0000
 144 00d4 000000DE 		.ascii	"\000\000\000\336\000\000\000_pal_lld_init\000\000\002"
 144      0000005F 
 144      70616C5F 
 144      6C6C645F 
 144      696E6974 
 145 00eb 00000000 		.ascii	"\000\000\000\000\000\000\000\000\000\340\000\000\000"
 145      00000000 
 145      00E00000 
 145      00
 146 00f8 68616C5F 		.ascii	"hal_lld_init\000\000\002\000\000\000\000\000\000\000"
 146      6C6C645F 
 146      696E6974 
 146      00000200 
 146      00000000 
 147 010e 0000E400 		.ascii	"\000\000\344\000\000\000"
 147      0000
 148              		.text
ARM GAS  /tmp/cceHJAJ5.s 			page 11


 149              		.section	.gnu.lto_.opts,"",%progbits
 150 0000 272D6D63 		.ascii	"'-mcpu=cortex-m4' '-mfloat-abi=hard' '-mfpu=fpv4-sp"
 150      70753D63 
 150      6F727465 
 150      782D6D34 
 150      2720272D 
 151 0033 2D643136 		.ascii	"-d16' '-mno-thumb-interwork' '-mthumb' '-O2' '-fomi"
 151      2720272D 
 151      6D6E6F2D 
 151      7468756D 
 151      622D696E 
 152 0066 742D6672 		.ascii	"t-frame-pointer' '-falign-functions=16' '-ffunction"
 152      616D652D 
 152      706F696E 
 152      74657227 
 152      20272D66 
 153 0099 2D736563 		.ascii	"-sections' '-fdata-sections' '-fno-common' '-flto' "
 153      74696F6E 
 153      73272027 
 153      2D666461 
 153      74612D73 
 154 00cc 272D6673 		.ascii	"'-fsingle-precision-constant'\000"
 154      696E676C 
 154      652D7072 
 154      65636973 
 154      696F6E2D 
 155              		.text
 156              		.section	.text.halInit,"ax",%progbits
 157              		.align	2
 158              		.p2align 4,,15
 159              		.global	halInit
 160              		.thumb
 161              		.thumb_func
 162              		.type	halInit, %function
 163              	halInit:
 164              		@ args = 0, pretend = 0, frame = 0
 165              		@ frame_needed = 0, uses_anonymous_args = 0
 166 0000 08B5     		push	{r3, lr}
 167 0002 FFF7FEFF 		bl	hal_lld_init
 168 0006 0948     		ldr	r0, .L2
 169 0008 FFF7FEFF 		bl	_pal_lld_init
 170 000c FFF7FEFF 		bl	adcInit
 171 0010 FFF7FEFF 		bl	sdInit
 172 0014 FFF7FEFF 		bl	spiInit
 173 0018 FFF7FEFF 		bl	uartInit
 174 001c FFF7FEFF 		bl	mmcInit
 175 0020 FFF7FEFF 		bl	boardInit
 176 0024 BDE80840 		pop	{r3, lr}
 177 0028 FFF7FEBF 		b	stInit
 178              	.L3:
 179              		.align	2
 180              	.L2:
 181 002c 00000000 		.word	pal_default_config
 182              		.size	halInit, .-halInit
 183              		.comm	__gnu_lto_v1,1,1
 184              		.ident	"GCC: (GNU Tools for ARM Embedded Processors) 4.8.4 20140526 (release) [ARM/embedded-4_8-br
ARM GAS  /tmp/cceHJAJ5.s 			page 12


DEFINED SYMBOLS
                            *ABS*:0000000000000000 hal.c
     /tmp/cceHJAJ5.s:157    .text.halInit:0000000000000000 $t
     /tmp/cceHJAJ5.s:163    .text.halInit:0000000000000000 halInit
     /tmp/cceHJAJ5.s:181    .text.halInit:000000000000002c $d
                            *COM*:0000000000000001 __gnu_lto_v1

UNDEFINED SYMBOLS
hal_lld_init
_pal_lld_init
adcInit
sdInit
spiInit
uartInit
mmcInit
boardInit
stInit
pal_default_config
