ARM GAS  /tmp/ccfQ3WE2.s 			page 1


   1              		.syntax unified
   2              		.cpu cortex-m4
   3              		.eabi_attribute 27, 3
   4              		.eabi_attribute 28, 1
   5              		.fpu fpv4-sp-d16
   6              		.eabi_attribute 20, 1
   7              		.eabi_attribute 21, 1
   8              		.eabi_attribute 23, 3
   9              		.eabi_attribute 24, 1
  10              		.eabi_attribute 25, 1
  11              		.eabi_attribute 26, 1
  12              		.eabi_attribute 30, 2
  13              		.eabi_attribute 34, 1
  14              		.eabi_attribute 18, 4
  15              		.thumb
  16              		.file	"hal.c"
  17              		.section	.gnu.lto_.jmpfuncs.6191c73f099c2f37,"",%progbits
  18 0000 789C6362 		.ascii	"x\234cb`b\300\006\344\2414#\\\204\221\251\232\341W\303"
  18      6062C006 
  18      E4A13423 
  18      5C8491A9 
  18      9AE157C3 
  19 0014 8C06814C 		.ascii	"\214\006\201LF\206\\\2300\000A\223\004\035"
  19      46865C98 
  19      30004193 
  19      041D
  20              		.text
  21              		.section	.gnu.lto_.inline.6191c73f099c2f37,"",%progbits
  22 0000 789C6362 		.ascii	"x\234cb`b\300\006\234\2414#\003\003\357] \011R\305\266"
  22      6062C006 
  22      9CA13423 
  22      0303EF5D 
  22      200952C5 
  23 0015 401EAC98 		.ascii	"@\036\254\230\221\213 \301\304\015\322\012f2\000\000"
  23      918B20C1 
  23      C40DD20A 
  23      66320000 
  24 0025 842D0263 		.ascii	"\204-\002c"
  25              		.text
  26              		.section	.gnu.lto_.pureconst.6191c73f099c2f37,"",%progbits
  27 0000 789C6362 		.ascii	"x\234cb`b`f\200\000F\006\011\000\000\203\000!"
  27      60626066 
  27      80004606 
  27      09000083 
  27      0021
  28              		.text
  29              		.section	.gnu.lto_halInit.6191c73f099c2f37,"",%progbits
  30 0000 789C6362 		.ascii	"x\234cb`b@\007\222@\274\207\221\201\301\000H32302M8"
  30      60624007 
  30      9240BC87 
  30      9181C100 
  30      48333233 
  31 0018 C7C0D0C8 		.ascii	"\307\300\320\310\301\304\310\010b002\32431\326G2\202"
  31      C1C4C808 
  31      62303032 
  31      D43331D6 
  31      473282
ARM GAS  /tmp/ccfQ3WE2.s 			page 2


  32 002b D5AE673A 		.ascii	"\325\256g:\360\340\377\377u?6>\234\305(\304\015\024"
  32      F0E0FFFF 
  32      753F363E 
  32      9CC528C4 
  32      0D14
  33 003d 60656869 		.ascii	"`ehih\230\240\300\300\220\014V\020\002$A\272B\031\231"
  33      6898A0C0 
  33      C0900C56 
  33      10022441 
  33      BA421999 
  34 0051 4034F379 		.ascii	"@4\363y\206\346\007]\217\331\023\031\0272\262\002\245"
  34      86E6075D 
  34      8FD91319 
  34      1732B202 
  34      A5
  35 0062 AB197E35 		.ascii	"\253\031~5t4\010d2\002\225C\014\314\004\321\347\031"
  35      74340864 
  35      32029543 
  35      0CCC04D1 
  35      E719
  36 0074 5A1EF426 		.ascii	"Z\036\364&c(bJf\204\270\026$\"\221\311\310\234\313\310"
  36      6328624A 
  36      6684B816 
  36      242291C9 
  36      C89CCBC8 
  37 0088 005594C9 		.ascii	"\000U\224\311\310\002\322\326\374`\306a6l\2063#\033"
  37      C802D2D6 
  37      FC60C661 
  37      366C8633 
  37      231B
  38 009a DEFCE0F4 		.ascii	"\336\374\340\364b\254\252XPU\335\304n\026+\252\252;"
  38      62ACAA58 
  38      5055DDC4 
  38      6E162BAA 
  38      AA3B
  39 00ac 8FB1AA62 		.ascii	"\217\261\252bCU\365\012\273Y\354\250\252:[\261\006\015"
  39      4355F50A 
  39      BB59ECA8 
  39      AA3A5BB1 
  39      060D
  40 00be 07AAAA19 		.ascii	"\007\252\252\031K\261\232\305\211Pu\221\241\361\301"
  40      4BB19AC5 
  40      89507591 
  40      A1F1C1
  41 00cd 2C559822 		.ascii	",U\230\"\010\010\001J\000\243\000\024\202z\372\031\371"
  41      0808014A 
  41      00A30014 
  41      827AFA19 
  41      F9
  42 00de B9A9FAC9 		.ascii	"\271\251\372\311\371)\225\372)\251e\372\311\031\231"
  42      F92995FA 
  42      29A965FA 
  42      C91999
  43 00ed 4999F9C5 		.ascii	"I\231\371\305\372%E\245y\331\372@FFb\216~qQ2\210\326"
  43      FA2545A5 
  43      79D9FA40 
  43      4646628E 
ARM GAS  /tmp/ccfQ3WE2.s 			page 3


  43      7E715132 
  44 0103 4B660000 		.ascii	"Kf\000\000\237\227~\255"
  44      9F977EAD 
  45              		.text
  46              		.section	.gnu.lto_.symbol_nodes.6191c73f099c2f37,"",%progbits
  47 0000 789C45C8 		.ascii	"x\234E\310\273\021\3020\020\204\341\325\312\362\203"
  47      BB11C230 
  47      1084E1D5 
  47      CAF283
  48 000f 26287505 		.ascii	"&(u\005\002c2* q)\316)\201\201qJ\015\2009\030\356\222"
  48      0263322A 
  48      207129CE 
  48      29818171 
  48      4A0D8039 
  49 0026 FFBE2588 		.ascii	"\377\276%\210+~\307W\020p\272\000\322y\010i\313\345"
  49      2B7EC757 
  49      1070BA00 
  49      D2790869 
  49      CBE5
  50 0038 433852E1 		.ascii	"C8R\341\273\346\034\302@\321u\240\242\253\247*\327\236"
  50      BBE61CC2 
  50      40D175A0 
  50      A2ABA72A 
  50      D79E
  51 004a 4AAE1D55 		.ascii	"J\256\035U\273\012\325\2706T\353\312T\367W\304\012\345"
  51      BB0AD5B8 
  51      3654EBCA 
  51      54F757C4 
  51      0AE5
  52 005c F65CDA61 		.ascii	"\366\\\332a\264\266\230\254\015fk\215r\3774a\264V\230"
  52      B4B698AC 
  52      0D666B8D 
  52      72FF3461 
  52      B45698
  53 006f AC11B395 		.ascii	"\254\021\263\225(\375c\2157\303\324A "
  53      28FD638D 
  53      37C3D441 
  53      20
  54              		.text
  55              		.section	.gnu.lto_.refs.6191c73f099c2f37,"",%progbits
  56 0000 789C6362 		.ascii	"x\234cb`b`e\200\000F\006&F\006\000\000\237\000\016"
  56      60626065 
  56      80004606 
  56      26460600 
  56      009F000E 
  57              		.text
  58              		.section	.gnu.lto_.decls.6191c73f099c2f37,"",%progbits
  59 0000 789C9596 		.ascii	"x\234\225\226_h\024G\034\307g\366\222K.I\323\022\250"
  59      5F681447 
  59      1CC767F6 
  59      924B2E49 
  59      D312A8
  60 0013 54287896 		.ascii	"T(x\226\352\203\324,&\266\264/\026\233X\225\306&`\205"
  60      EA83D42C 
  60      26B6B42F 
  60      169B5895 
  60      C6266085 
ARM GAS  /tmp/ccfQ3WE2.s 			page 4


  61 0027 BE2D93DB 		.ascii	"\276-\223\333\215\267\364\356\366\330\333\023}\352\230"
  61      8DB7F4EE 
  61      F6D8DB13 
  61      7DEA98
  62 0036 16137C28 		.ascii	"\026\023|(1\222\332\320\240\227j\332\010\366\017ADl"
  62      3192DAD0 
  62      A0976ADA 
  62      08F60F41 
  62      446C
  63 0048 08A7121A 		.ascii	"\010\247\022\032\021\317\230\332\264\246\306^Hl\014"
  63      11CF98DA 
  63      B4A6C65E 
  63      486C0C
  64 0057 4213681F 		.ascii	"B\023h\037\264\024\2563\263{\271\335\273]\263;\360\233"
  64      B414AE33 
  64      B37BB9DD 
  64      BB5DB33B 
  64      F09B
  65 0069 99DBFDFD 		.ascii	"\231\333\375\375>\277\357\314\374vo9\300\201\213\000"
  65      3EBFEFCC 
  65      FC766F39 
  65      C0818B00 
  66 0079 801C6962 		.ascii	"\200\034ib5\000\373}\200\\\001`\0071Hl\020\350\255\212"
  66      3500FB7D 
  66      805C0160 
  66      0731486C 
  66      10E8AD8A 
  67 008d 5886D814 		.ascii	"X\206\330\024\261\273\304\246\211\375Fl\206\330}b\017"
  67      B1BBC4A6 
  67      89FD466C 
  67      86D87D62 
  67      0F
  68 009e 8865892D 		.ascii	"\210e\211-\030q\177\002k\243\261\345\304\036\021\273"
  68      18717F02 
  68      6BA3B1E5 
  68      C41E11BB 
  69 00ae 4D6CC960 		.ascii	"Ml\311`\317\025\361\027\014\316\003\203;c\344\2316\362"
  69      CF15F117 
  69      0CCE0383 
  69      3B63E499 
  69      36F2
  70 00c0 4E39F0AB 		.ascii	"N9\360\253\301q\214;q\352\030\3363Q[\007N`\322R\030"
  70      C1718C3B 
  70      71EA18DE 
  70      33515B07 
  70      4E60D252 
  71 00d5 C3895A00 		.ascii	"\303\211Z\000>\204\010\326\006@\272\212\315j\002`\230"
  71      3E8408D6 
  71      0640BA8A 
  71      CD6A0260 
  71      98
  72 00e6 12368173 		.ascii	"\0226\201s\030\367d\307s\353q\231\021\020t\366F\360"
  72      18F764C7 
  72      73EB7199 
  72      111074F6 
  72      46F0
  73 00f8 2CDC04D6 		.ascii	",\334\004\326\366\243\236C\260\016l\001\347\211c\017"
ARM GAS  /tmp/ccfQ3WE2.s 			page 5


  73      F6A39E43 
  73      B00E6C01 
  73      E789630F 
  74 0108 D1B4195A 		.ascii	"\321\264\031Z\204\262\2648\375w\246\006\227\351\256"
  74      84B2B438 
  74      FD77A606 
  74      97E9AE
  75 0117 34E46BB8 		.ascii	"4\344k\270\005\330\264\215 E\235\237f\006 N]\2036\351"
  75      05D8B48D 
  75      20459D9F 
  75      6606204E 
  75      5D8336E9 
  76 012b B3309FFE 		.ascii	"\2630\237\376\345\3255\245\357d`\020\301\363\304\237"
  76      E5D535A5 
  76      EF646010 
  76      C1F3C49F 
  77 013b 03ADD082 		.ascii	"\003\255\320\202_\023A\325\\ \221z\220\241\366\244\256"
  77      5F1341D5 
  77      5C20917A 
  77      90A1F6A4 
  77      AE
  78 014c F6820BB5 		.ascii	"\366\202\013\265\235\351S\231\201\365Tm\000t\027\216"
  78      9DE95399 
  78      81F5546D 
  78      0074178E 
  79 015c 64355B30 		.ascii	"d5[0\237\254\254p\006}]\343Wa'9-\004\277'a\034\350\202"
  79      9FACAC70 
  79      067D5DE3 
  79      57612739 
  79      2D04BF27 
  80 0174 56D5EE51 		.ascii	"V\325\356Qw\216\217\276\205q%\202#\0144^\004B\260\""
  80      778E8FBE 
  80      85712582 
  80      230C345E 
  80      0442B022 
  81 0188 6096CC7E 		.ascii	"`\226\314~\347\035(\215\3356&\364\231x\036xu\347\300"
  81      E71D288D 
  81      DD3626F4 
  81      99781E78 
  81      75E7C0
  82 019b 244B4A37 		.ascii	"$KJ7\313N\2501\325\233\341`\331\300\354\271\371\033"
  82      CB4EA831 
  82      D59BE160 
  82      D9C0ECB9 
  82      F91B
  83 01ad 10F7D6E4 		.ascii	"\020\367\326\3447c\3323.h9\217\323\231\232\036\224\207"
  83      3763DA33 
  83      2E68398F 
  83      D3999A1E 
  83      9487
  84 01bf CDBA8155 		.ascii	"\315\272\201U:jK\217\230a\017=\303\254\312.\231a\217"
  84      3A6A4B8F 
  84      98610F3D 
  84      C3ACCA2E 
  84      99618F
  85 01d2 DDC05E70 		.ascii	"\335\300^pVv\305\014[\366\014\263*\0333\303\376q\003"
  85      5676C50C 
ARM GAS  /tmp/ccfQ3WE2.s 			page 6


  85      5BF60CB3 
  85      2A1B33C3 
  85      FE7103
  86 01e5 7BC94699 		.ascii	"{\311F\231]3?]\010~K^*\010~\0077\222\376\022\353/\263"
  86      5D333F5D 
  86      087E4B5E 
  86      2A087E07 
  86      3792FE12 
  87 01fc FE0AEB47 		.ascii	"\376\012\353GY?\306\3724\351W\033\007\2362MC\005M\326"
  87      593FC6FA 
  87      34E9571B 
  87      079E324D 
  87      43054DD6 
  88 0210 A778AD22 		.ascii	"\247x\255\"\303\351\236V\272@\375\035\201970\313\012"
  88      C3E99E56 
  88      BA40FD1D 
  88      81393730 
  88      CB0A
  89 0222 8316D817 		.ascii	"\203\026\330\027&X\227+\330\233\316\312~0\301>s\005"
  89      2658972B 
  89      D89BCECA 
  89      7E30C13E 
  89      7305
  90 0234 6B735676 		.ascii	"ksVv\331\004\353s\005\213;+[1\301\006\\\301\272\241"
  90      D904EB73 
  90      058B3B2B 
  90      5B31C106 
  90      5CC1BAA1 
  91 0248 8D34532D 		.ascii	"\2154S-\350U\360\015\253\202av\316\327Y?\316\372\237"
  91      E855F00D 
  91      AB826176 
  91      CED7593F 
  91      CEFA9F
  92 025b 587F83F5 		.ascii	"X\177\203\3657\255\347\177\226+~\261\351\177%&\366\320"
  92      37ADE77F 
  92      962B7EB1 
  92      E97F2526 
  92      F6D0
  93 026d 6A9D016F 		.ascii	"j\235\001ot\273*\247\210AX\235w\331\000N\343T6\373\343"
  93      74BB2AA7 
  93      8841589D 
  93      77D9004E 
  93      E35436FB 
  94 0282 C9317F3F 		.ascii	"\3111\177?N\177\212s\271\217\301:\320\307\376u\217\221"
  94      4E7F8A73 
  94      B98FC13A 
  94      D0C7FE75 
  94      8F91
  95 0294 17B986E0 		.ascii	"\027\271\206\340\216\027\035A\267\341:cv\300\227_\320"
  95      8E171D41 
  95      B7E13A63 
  95      76C0975F 
  95      D0
  96 02a5 FDA20501 		.ascii	"\375\242\005\001\260\031\014Q\036\036\306>F\243\376"
  96      B0190C51 
  96      1E1EC63E 
  96      46A3FE
ARM GAS  /tmp/ccfQ3WE2.s 			page 7


  97 02b4 19B8C1BA 		.ascii	"\031\270\301\272\310I\310\231/P]\331\236l\377\251\331"
  97      C849C899 
  97      2F505DD9 
  97      9E6CFFA9 
  97      D9
  98 02c5 A3F0C427 		.ascii	"\243\360\304'\251\011\274B\337\311zF\016|\356+\316\241"
  98      A909BC42 
  98      DFC97A46 
  98      0E7CEE2B 
  98      CEA1
  99 02d7 437EB685 		.ascii	"C~\266\205\374;s\353\265~|M_\\\0361\354\200\370\305"
  99      FC3B73EB 
  99      B57E7C4D 
  99      5F5C1E31 
  99      EC80F8C5 
 100 02eb 1671F7CB 		.ascii	"\026q\367\313e\256\004\261\344\200\370\325\0261uf\021"
 100      65AE04B1 
 100      E480F8D5 
 100      16317566 
 100      11
 101 02fc 962086CA 		.ascii	"\226 \206\312\354\021\367l\021\243\363\023\357\225 "
 101      EC11F76C 
 101      11A3F313 
 101      EF9520
 102 030b E61C10BF 		.ascii	"\346\034\020\277\333\"F\026'\367\225 \316\224\333#f"
 102      DB224616 
 102      27F79520 
 102      CE94DB23 
 102      66
 103 031c 6D11038F 		.ascii	"m\021\003\217'\337.A\334s@\374a\213XX\276\011\273{\361"
 103      27DF2E41 
 103      DC7340FC 
 103      618B5858 
 103      BE09BB7B 
 104 0331 7FB99CCF 		.ascii	"\177\271\234\317C\265\315\031\325\346c\037\266F\035"
 104      43B5CD19 
 104      D5E6631F 
 104      B6461D
 105 0340 174A0FD0 		.ascii	"\027J\017\320\352\233s\3201o\253cl\371\311\023\330["
 105      EA9B73D0 
 105      316FAB63 
 105      6CF9C913 
 105      D85B
 106 0352 525E17FD 		.ascii	"R^\027\375\366\220\207V\310+`\020\257\220\017\317\277"
 106      F6908756 
 106      C82B6010 
 106      AF900FCF 
 106      BF
 107 0363 AEFB8ED2 		.ascii	"\256\373\216\322\375\240\353\201D\362W\354\275ru\025"
 107      FDA0EB81 
 107      44F257EC 
 107      BD727515 
 108 0373 E2FC81B9 		.ascii	"\342\374\201\271X\000Z\276{u!N\373\360\250\360\370\026"
 108      58005ABE 
 108      7B75214E 
 108      FBF0A8F0 
 108      F816
ARM GAS  /tmp/ccfQ3WE2.s 			page 8


 109 0385 45CD3D23 		.ascii	"E\315=#j\251\020\005v\361a%*\361!E<\302\213\322!>\024"
 109      6AA91005 
 109      76F16125 
 109      2AF12145 
 109      3CC28BD2 
 110 039c 96DB6525 		.ascii	"\226\333e%\301kj2\366\021O&a\024\341\343\212\252%\370"
 110      C16B6A32 
 110      F6114F26 
 110      6114E1E3 
 110      8AAA25F8 
 111 03b0 FD1FEC6B 		.ascii	"\375\037\354kl\340[Z\232\371\335m{[\0175\360q\024\021"
 111      6CE05B5A 
 111      9AF9DD6D 
 111      7B5B0F35 
 111      F0711411 
 112 03c4 2211B13E 		.ascii	"\"\021\261>\014\374\273\337?\020l\002u\011-\332\330"
 112      0CFCBBDF 
 112      3F106C02 
 112      75092DDA 
 112      D8
 113 03d5 201C8CCB 		.ascii	" \034\214\313\212\220\220\264d\\\320^\345\223\011\225"
 113      8A9090B4 
 113      645CD05E 
 113      E5930995 
 114 03e5 476A746B 		.ascii	"GjtkL\211I[%\324.\363r,\024I\212\022\237\320D9\246\221"
 114      4C89495B 
 114      25D42EF3 
 114      722C1449 
 114      8A129FD0 
 115 03fd F0CA2419 		.ascii	"\360\312$\031I\240\266\375\031\336QD\264\305$^\020\245"
 115      49A0B6FD 
 115      19DE5144 
 115      B4C5245E 
 115      10A5
 116 040f 0E948C68 		.ascii	"\016\224\214h\202v$.%Ht\225 \344\343\313\243\212(\251"
 116      8276242E 
 116      25487495 
 116      20E4E3CB 
 116      A38A28A9 
 117 0423 7E85DE52 		.ascii	"~\205\336R+\224D\\\222D\265<\236\214\213\252O\021\325"
 117      2B94445C 
 117      9244B53C 
 117      9E8C8BAA 
 117      4F11D5
 118 0436 32D4A146 		.ascii	"2\324\241Fh\027\366\267\355lF\032\362\267\275\243\017"
 118      6817F6B7 
 118      ED6C461A 
 118      F2B7BDA3 
 118      0F
 119 0447 4DFAD0AC 		.ascii	"M\372\320\254\017\273\364a\017\035\002m;[\232\224X\207"
 119      0FBBF461 
 119      0F1D026D 
 119      3B5B9A94 
 119      5887
 120 0459 7CB0DECD 		.ascii	"|\260\336\315V%\324\020\035\353C\240\202\014{c\262\266"
 120      5625D410 
 120      1DEB43A0 
ARM GAS  /tmp/ccfQ3WE2.s 			page 9


 120      820C7B63 
 120      B2B6
 121 046b CD4D5861 		.ascii	"\315MXaK\350n&4\032XU\317\267+H\245\373\033`\023z\361"
 121      4BE86E26 
 121      341A5855 
 121      CFB72B48 
 121      A5FB1B60 
 122 0482 0D2FB468 		.ascii	"\015/\264h4$$\3422\001T\220)\015o\364\022\236D\252~"
 122      342424E2 
 122      32015490 
 122      290D6FF4 
 122      129E44AA 
 123 0497 3A64A4C1 		.ascii	":d\244\301\015\236V\242\347%\003\015}\335S\250\244\312"
 123      0D9E56A2 
 123      E725030D 
 123      7DDD53A8 
 123      A4CA
 124 04a9 640BE946 		.ascii	"d\013\351F\210\236\363\"1D\363\222\201\206>'\030E*\310"
 124      889EF322 
 124      3144F392 
 124      81863E27 
 124      18452AC8 
 125 04bd E457B3D7 		.ascii	"\344W\263\327bg\375\273\333\017\037\246w\214Z\257\011"
 125      6267FDBB 
 125      DB0F1FA6 
 125      778C5AAF 
 125      09
 126 04ce 9B887514 		.ascii	"\233\210u\024\237/\310\020+\223\377\001\215]p\221"
 126      9F2FC810 
 126      2B93FF01 
 126      8D5D7091 
 127              		.text
 128              		.section	.gnu.lto_.symtab.6191c73f099c2f37,"",%progbits
 129 0000 68616C49 		.ascii	"halInit\000\000\000\000\000\000\000\000\000\000\000"
 129      6E697400 
 129      00000000 
 129      00000000 
 129      0000
 130 0012 00CE0000 		.ascii	"\000\316\000\000\000pal_default_config\000\000\002\000"
 130      0070616C 
 130      5F646566 
 130      61756C74 
 130      5F636F6E 
 131 002d 00000000 		.ascii	"\000\000\000\000\000\000\000\000\346\000\000\000stI"
 131      00000000 
 131      E6000000 
 131      737449
 132 003c 6E697400 		.ascii	"nit\000\000\002\000\000\000\000\000\000\000\000\000"
 132      00020000 
 132      00000000 
 132      000000
 133 004b D2000000 		.ascii	"\322\000\000\000boardInit\000\000\002\000\000\000\000"
 133      626F6172 
 133      64496E69 
 133      74000002 
 133      00000000 
 134 005f 00000000 		.ascii	"\000\000\000\000\000\324\000\000\000mmcInit\000\000"
ARM GAS  /tmp/ccfQ3WE2.s 			page 10


 134      00D40000 
 134      006D6D63 
 134      496E6974 
 134      0000
 135 0071 02000000 		.ascii	"\002\000\000\000\000\000\000\000\000\000\326\000\000"
 135      00000000 
 135      0000D600 
 135      00
 136 007e 00756172 		.ascii	"\000uartInit\000\000\002\000\000\000\000\000\000\000"
 136      74496E69 
 136      74000002 
 136      00000000 
 136      000000
 137 0091 0000D800 		.ascii	"\000\000\330\000\000\000spiInit\000\000\002\000\000"
 137      00007370 
 137      69496E69 
 137      74000002 
 137      0000
 138 00a3 00000000 		.ascii	"\000\000\000\000\000\000\000\332\000\000\000sdInit\000"
 138      000000DA 
 138      00000073 
 138      64496E69 
 138      7400
 139 00b5 00020000 		.ascii	"\000\002\000\000\000\000\000\000\000\000\000\334\000"
 139      00000000 
 139      000000DC 
 139      00
 140 00c2 00006164 		.ascii	"\000\000adcInit\000\000\002\000\000\000\000\000\000"
 140      63496E69 
 140      74000002 
 140      00000000 
 140      0000
 141 00d4 000000DE 		.ascii	"\000\000\000\336\000\000\000_pal_lld_init\000\000\002"
 141      0000005F 
 141      70616C5F 
 141      6C6C645F 
 141      696E6974 
 142 00eb 00000000 		.ascii	"\000\000\000\000\000\000\000\000\000\340\000\000\000"
 142      00000000 
 142      00E00000 
 142      00
 143 00f8 68616C5F 		.ascii	"hal_lld_init\000\000\002\000\000\000\000\000\000\000"
 143      6C6C645F 
 143      696E6974 
 143      00000200 
 143      00000000 
 144 010e 0000E400 		.ascii	"\000\000\344\000\000\000"
 144      0000
 145              		.text
 146              		.section	.gnu.lto_.opts,"",%progbits
 147 0000 272D6D63 		.ascii	"'-mcpu=cortex-m4' '-mfloat-abi=hard' '-mfpu=fpv4-sp"
 147      70753D63 
 147      6F727465 
 147      782D6D34 
 147      2720272D 
 148 0033 2D643136 		.ascii	"-d16' '-mno-thumb-interwork' '-mthumb' '-O2' '-fomi"
 148      2720272D 
ARM GAS  /tmp/ccfQ3WE2.s 			page 11


 148      6D6E6F2D 
 148      7468756D 
 148      622D696E 
 149 0066 742D6672 		.ascii	"t-frame-pointer' '-falign-functions=16' '-ffunction"
 149      616D652D 
 149      706F696E 
 149      74657227 
 149      20272D66 
 150 0099 2D736563 		.ascii	"-sections' '-fdata-sections' '-fno-common' '-flto' "
 150      74696F6E 
 150      73272027 
 150      2D666461 
 150      74612D73 
 151 00cc 272D6673 		.ascii	"'-fsingle-precision-constant'\000"
 151      696E676C 
 151      652D7072 
 151      65636973 
 151      696F6E2D 
 152              		.text
 153              		.section	.text.halInit,"ax",%progbits
 154              		.align	2
 155              		.p2align 4,,15
 156              		.global	halInit
 157              		.thumb
 158              		.thumb_func
 159              		.type	halInit, %function
 160              	halInit:
 161              		@ args = 0, pretend = 0, frame = 0
 162              		@ frame_needed = 0, uses_anonymous_args = 0
 163 0000 08B5     		push	{r3, lr}
 164 0002 FFF7FEFF 		bl	hal_lld_init
 165 0006 0948     		ldr	r0, .L2
 166 0008 FFF7FEFF 		bl	_pal_lld_init
 167 000c FFF7FEFF 		bl	adcInit
 168 0010 FFF7FEFF 		bl	sdInit
 169 0014 FFF7FEFF 		bl	spiInit
 170 0018 FFF7FEFF 		bl	uartInit
 171 001c FFF7FEFF 		bl	mmcInit
 172 0020 FFF7FEFF 		bl	boardInit
 173 0024 BDE80840 		pop	{r3, lr}
 174 0028 FFF7FEBF 		b	stInit
 175              	.L3:
 176              		.align	2
 177              	.L2:
 178 002c 00000000 		.word	pal_default_config
 179              		.size	halInit, .-halInit
 180              		.comm	__gnu_lto_v1,1,1
 181              		.ident	"GCC: (GNU Tools for ARM Embedded Processors) 4.8.4 20140526 (release) [ARM/embedded-4_8-br
ARM GAS  /tmp/ccfQ3WE2.s 			page 12


DEFINED SYMBOLS
                            *ABS*:0000000000000000 hal.c
     /tmp/ccfQ3WE2.s:154    .text.halInit:0000000000000000 $t
     /tmp/ccfQ3WE2.s:160    .text.halInit:0000000000000000 halInit
     /tmp/ccfQ3WE2.s:178    .text.halInit:000000000000002c $d
                            *COM*:0000000000000001 __gnu_lto_v1

UNDEFINED SYMBOLS
hal_lld_init
_pal_lld_init
adcInit
sdInit
spiInit
uartInit
mmcInit
boardInit
stInit
pal_default_config
