ARM GAS  /tmp/cc8eBG8L.s 			page 1


   1              		.syntax unified
   2              		.cpu cortex-m3
   3              		.fpu softvfp
   4              		.eabi_attribute 20, 1
   5              		.eabi_attribute 21, 1
   6              		.eabi_attribute 23, 3
   7              		.eabi_attribute 24, 1
   8              		.eabi_attribute 25, 1
   9              		.eabi_attribute 26, 1
  10              		.eabi_attribute 30, 2
  11              		.eabi_attribute 34, 1
  12              		.eabi_attribute 18, 4
  13              		.thumb
  14              		.file	"hal_mmcsd.c"
  15              		.section	.gnu.lto_.jmpfuncs.3c76ed3622a56b6e,"",%progbits
  16 0000 789C6362 		.ascii	"x\234cb`b\300\006*\24043\003;##33\220U\306\310\300\024"
  16      6062C006 
  16      2AA03433 
  16      033B2323 
  16      33339055 
  17 0018 C198C9C8 		.ascii	"\301\230\311\310\340\311\000e\330\001\245Qd\014a2\372"
  17      E0C90065 
  17      D801A551 
  17      640C6132 
  17      FA
  18 0029 E832C130 		.ascii	"\3502\3010\231\000 \003\315<W\230\234\001\003\003#T"
  18      99002003 
  18      CD3C5798 
  18      9C010303 
  18      2354
  19 003b 860100BA 		.ascii	"\206\001\000\272\013\013\""
  19      0B0B22
  20              		.text
  21              		.section	.gnu.lto_.inline.3c76ed3622a56b6e,"",%progbits
  22 0000 789C6362 		.ascii	"x\234cb`b\300\006\372\24043\003\203\214\020#3\023#\220"
  22      6062C006 
  22      FAA03433 
  22      03838C10 
  22      23331323 
  23 0015 CD082218 		.ascii	"\315\010\"\030@\004\273\320\024G\006\266\005\362L\014"
  23      4004BBD0 
  23      144706B6 
  23      05F24C0C 
  24 0025 5C7F4C58 		.ascii	"\\\177LX\030x\346\204p0\260,\220\347a`\271\300/\302"
  24      1878E684 
  24      7030B02C 
  24      90E76160 
  24      B9C02FC2 
  25 0039 C0D4C326 		.ascii	"\300\324\303&\001Q)n\310\310\300\3045\301\017\242\026"
  25      0151296E 
  25      C8C8C0C4 
  25      35C10FA2 
  25      16
  26 004a 0858F980 		.ascii	"\010X\371\200F\002\371X\030L\014\242\374@\325\302=\216"
  26      4602F958 
  26      184C0CA2 
  26      FC40D5C2 
ARM GAS  /tmp/cc8eBG8L.s 			page 2


  26      3D8E
  27 005c 0CEC2DEA 		.ascii	"\014\354-\352\250\252\231y\200\246\001\031\000l\204"
  27      A8AA9979 
  27      80A60119 
  27      006C84
  28 006b 0FAD     		.ascii	"\017\255"
  29              		.text
  30              		.section	.gnu.lto_.pureconst.3c76ed3622a56b6e,"",%progbits
  31 0000 789C6362 		.ascii	"x\234cb`b`g\200\000f\006VF\026&V\000\001\013\000 "
  31      60626067 
  31      80006606 
  31      56461626 
  31      5600010B 
  32              		.text
  33              		.section	.gnu.lto_mmcsd_get_slice.3c76ed3622a56b6e,"",%progbits
  34 0000 789C8D54 		.ascii	"x\234\215TMh\023Q\020\236\331\2374M\323\206\376\377"
  34      4D681351 
  34      109ED99F 
  34      344DD386 
  34      FEFF
  35 0012 A549DA9B 		.ascii	"\245I\332\233\036\272\036\004A\004\301\2537\261\240"
  35      1EBA1E04 
  35      4104C1AB 
  35      37B1A0
  36 0021 789074D3 		.ascii	"x\220t\323\246A\323@REO\335\272E\264\246P\212\027\025"
  36      A641D340 
  36      52454FDD 
  36      BA45B4A6 
  36      508A1715 
  37 0035 C12A2AE2 		.ascii	"\301**\342O\221\242`\333C\004\205\036T\020z\021\024"
  37      4F91A260 
  37      DB430485 
  37      1E54107A 
  37      1114
  38 0047 725141A1 		.ascii	"rQA\241\365\007<Y\326\231\267\373\266&*v!\363\336\314"
  38      F5073C59 
  38      D699B7FB 
  38      B6262A76 
  38      21F3DECC 
  39 005b F7CDBC6F 		.ascii	"\367\315\274o\346\355F\001\005\252\237=\3643u\200AZ"
  39      E6ED4601 
  39      05AA9F3D 
  39      F4337580 
  39      415A
  40 006d 3100A8CC 		.ascii	"1\000\250\314\274\002\230\010*\212\272\034\003+\244"
  40      BC029808 
  40      2A8ABA1C 
  40      032BA4
  41 007c AD1A6085 		.ascii	"\255\032`\205U\324\335\260&7:\"o\000a\\Q5\035\307\017"
  41      55D4DDB0 
  41      26373A22 
  41      6F00615C 
  41      51351DC7 
  42 0091 2357D3FB 		.ascii	"#W\323\373`\316\262f\312\317?\224\325K\027K\223\327"
  42      60CEB266 
  42      CACF3F94 
  42      D54B174B 
ARM GAS  /tmp/cc8eBG8L.s 			page 3


  42      93D7
  43 00a3 AC9F8E83 		.ascii	"\254\237\216\203\230A:y\027\202\211p\210\034L\210E\321"
  43      98413A79 
  43      17828970 
  43      881C4C88 
  43      45D1
  44 00b5 2AA588DC 		.ascii	"*\245\210\334\331\322\306\327\025\264f\255\211/\216"
  44      D9D2C6D7 
  44      15B466AD 
  44      892F8E
  45 00c4 13C9A0AA 		.ascii	"\023\311\240\252\300\276\255%Z\357R+\326d\311q\366\212"
  45      C0BEAD25 
  45      5AEF522B 
  45      D664C971 
  45      F68A
  46 00d6 ACFD5BCC 		.ascii	"\254\375[\314\332\250\310:\260E\221N\205HM\201#\377"
  46      DAA8C83A 
  46      B045914E 
  46      85484D81 
  46      23FF
  47 00e8 4B9C574A 		.ascii	"K\234WJe\307y\273\376\261|\025\033\373\0208\013\263"
  47      65C779BB 
  47      FEB17C15 
  47      1BFB1038 
  47      0BB3
  48 00fa 082A24F1 		.ascii	"\010*$\361\006\366\201F\353mZu\012\322E$\361&95D\323"
  48      06F68146 
  48      EB6D5A75 
  48      0AD24524 
  48      F1263935 
  49 0110 836C6AC9 		.ascii	"\203lj\311@\210M\035\2330\021\356\020\241\236\034\265"
  49      40884D1D 
  49      9B3011EE 
  49      10A19E1C 
  49      B5
  50 0121 81529408 		.ascii	"\201R\224\010\355\002\215Lm\"l\216\260fvZ\230\320\312"
  50      ED028D4C 
  50      6D226C8E 
  50      B066765A 
  50      98D0CA
  51 0134 581BBBED 		.ascii	"X\033\273\355l:8\326\311e\272\330\355f-Q\216\3650/\306"
  51      6C3A38D6 
  51      C965BAD8 
  51      ED662D51 
  51      8EF5302F 
  52 0149 B1389B84 		.ascii	"\2618\233\204W\250\227\011|\2730I\227\233p\365\272\002"
  52      57A89709 
  52      7CBB3049 
  52      979B70F5 
  52      BA02
  53 015b 5DCDAE16 		.ascii	"]\315\256\026\340\011\320s\220,\277\034\003\250\360"
  53      E009D073 
  53      902CBF1C 
  53      03A8F0
  54 016a AABE047B 		.ascii	"\252\276\004{\332\236/F\223x\027uH\243\232F\205'D\365"
  54      DA9E2F46 
  54      93781775 
ARM GAS  /tmp/cc8eBG8L.s 			page 4


  54      48A39A46 
  54      852744F5 
  55 017e 01085CB2 		.ascii	"\001\010\\\262\037\206%\246y\230\032w\261i\373\221\217"
  55      1F8625A6 
  55      79981A77 
  55      B169FB91 
  55      8F
  56 018f 05D2A857 		.ascii	"\005\322\250W\346-\025wK\260F\202^\3429\373\272\"\261"
  56      E62D1577 
  56      4BB04682 
  56      5EE239FB 
  56      BA22B1
  57 01a2 20C10243 		.ascii	" \301\002C\201\235Y\263o\241\304j\011\026\011\367U\031"
  57      819D59B3 
  57      6FA1C46A 
  57      091609F7 
  57      5519
  58 01b4 0A3197DE 		.ascii	"\0121\227\336l\002\275R\213~\251:\011;\362\301q\257"
  58      6C02BD52 
  58      8B7EA93A 
  58      093BF2C1 
  58      71AF
  59 01c6 665E72C2 		.ascii	"f^r\302D\003X\201g\357\237.\234U\177\353:\260\3716\014"
  59      44035881 
  59      67EF9F2E 
  59      9C557FEB 
  59      3AB0F936 
  60 01db A00ACB31 		.ascii	"\240\012\3131\036\315\224\375\271\270M\222\352\211'"
  60      1ECD94FD 
  60      B9B84D92 
  60      EA8927
  61 01ea DAD7DC2E 		.ascii	"\332\327\334..\370\351\22146\020.\316Z\324e\264\361"
  61      2EF8E991 
  61      3436102E 
  61      CE5AD465 
  61      B4F1
  62 01fc 0A5C263A 		.ascii	"\012\\&:M-\302i\362\000\241\347\233\337cS\232\257\217"
  62      4D2DC269 
  62      F200A1E7 
  62      9BDF6353 
  62      9AAF8F
  63 020f CA3DF0CB 		.ascii	"\312=\360\3135S.\001\":e\257\027\267K\240\205d\376]"
  63      35532E01 
  63      223A65AF 
  63      17B74BA0 
  63      8564FE5D 
  64 0223 41AB50D0 		.ascii	"A\253P\320R\245\240\315W\320Z\251\200\256g\315W\320"
  64      52A5A0CD 
  64      57D05AA9 
  64      80AE67CD 
  64      57D0
  65 0235 4E441A8C 		.ascii	"ND\032\214\210\237\267\177\370\343\354\020G%\300\023"
  65      889FB77F 
  65      F8E3EC10 
  65      4725C013 
  66 0245 48AA3747 		.ascii	"H\2527G\335Ip\325\315t\211J\235\"\372\204\346\346\253"
  66      DD4970D5 
ARM GAS  /tmp/cc8eBG8L.s 			page 5


  66      CD74894A 
  66      9D22FA84 
  66      E6E6AB
  67 0258 E8161D75 		.ascii	"\350\026\035u\311\331j\260j\270\263\375^\214KN\364\237"
  67      C9D96AB0 
  67      6AB8B3FD 
  67      5E8C4B4E 
  67      F49F
  68 026a B3ED119D 		.ascii	"\263\355\021\235E\253:\213\371\235\365\374\321\331'"
  68      45AB3A8B 
  68      F99DF5FC 
  68      D1D927
  69 0279 BFB33811 		.ascii	"\277\2638\021\275\316H\375c_}\302\237\271\335 c\275"
  69      BDCE48FD 
  69      635F7DC2 
  69      9FB9DD20 
  69      63BD
  70 028b 829E902A 		.ascii	"\202\236\220*u\361u\274\246\177S P|:o\000\251\031\365"
  70      75F175BC 
  70      A67F5320 
  70      507C3A6F 
  70      00A919F5 
  71 029f DE025D43 		.ascii	"\336\002]C\257\366b!\314_\0232\217\377\271w\032#\271"
  71      AFF66221 
  71      CC5F1332 
  71      8FFFB977 
  71      1A23B9
  72 02b2 EC9061E6 		.ascii	"\354\220a\346R\247\215\324\320I\303\034\311\014fr\005"
  72      52A78DD4 
  72      D049C31C 
  72      C90C6672 
  72      05
  73 02c3 632C7F62 		.ascii	"c,\177b\364\230A\233\221\344q\243\2207y=\232\315\232"
  73      F498419B 
  73      91E471A3 
  73      9037793D 
  73      9ACD9A
  74 02d6 8554BF09 		.ascii	"\205T\277\011\241\302X2?\226\033\036\356\337\021\024"
  74      A1C25832 
  74      3F961B1E 
  74      EEDF1114 
  75 02e6 DB4CEA54 		.ascii	"\333L\352T`h4EKPB5\344g\223\205c\277\0004QWV"
  75      60683445 
  75      4B504235 
  75      E4679385 
  75      63BF0034 
  76              		.text
  77              		.section	.gnu.lto_mmcsdGetCapacity.part.0.3c76ed3622a56b6e,"",%progbits
  78 0000 789C8D91 		.ascii	"x\234\215\221?H\\A\020\306\347\333}\357\356<\017\265"
  78      3F485C41 
  78      10C6E7DB 
  78      7DEFEE3C 
  78      0FB5
  79 0012 B28DD806 		.ascii	"\262\215\330\006\362\010\004BH\210\265\235\240\202V"
  79      F2080442 
  79      4888B59D 
  79      A08256
ARM GAS  /tmp/cc8eBG8L.s 			page 6


  80 0021 E17C4FEE 		.ascii	"\341|O\356\036\311\345\300K\002!\205\033\357\020+\021"
  80      1EC9E5C0 
  80      4B022185 
  80      1BEF102B 
  80      11
  81 0032 3B3B4524 		.ascii	";;E$6\"\244P\254b\031b\376\226\351\016$M\212\244\024"
  81      3622A450 
  81      AC621962 
  81      FE96E90E 
  81      244D8AA4 
  82 0047 42C86666 		.ascii	"B\310ff\367\336\013\006D\027\336|\363f\36673\273\253"
  82      F7DE0B06 
  82      4417DE7C 
  82      F366F637 
  82      33BBAB
  83 005a 48D1FFEB 		.ascii	"H\321\377\353:\177\247\034\276\307\212\220\020\254}"
  83      3A7FA71C 
  83      BEC78A90 
  83      10AC7D
  84 0069 64278072 		.ascii	"d'\200r\252\240E_\2264 \016\201\026\003\245\2618\013"
  84      AAA0455F 
  84      9634200E 
  84      811603A5 
  84      B1380B
  85 007c 81F5286D 		.ascii	"\201\365(m\031\263\336\375\366\363\263\3320\307\235"
  85      19B3DEFD 
  85      F6F3B3DA 
  85      30C79D
  86 008b 4DF3DB5A 		.ascii	"M\363\333Z \0057\272\015\212A3\374\203\021'*8\337\331"
  86      200537BA 
  86      0D8A4133 
  86      FC831127 
  86      2A38DFD9 
  87 009f B3E64DF2 		.ascii	"\263\346M\362\326t\216\255\035s\324\235+RG\347\250\273"
  87      D6748EAD 
  87      1D73D49D 
  87      2B5247E7 
  87      A8BB
  88 00b1 9751FBCA 		.ascii	"\227Q\373\312t\255=:+\015\000\015!\252\330\301(i\326"
  88      74AD3D3A 
  88      2B0D000D 
  88      21AAD8C1 
  88      2869D6
  89 00c4 6DD68075 		.ascii	"m\326\200u\2135\244\024\272 \246\310&(\211\327'\246"
  89      8B35A414 
  89      BA20A6C8 
  89      262889D7 
  89      27A6
  90 00d6 2CBFFD6C 		.ascii	",\277\375l\250\"\206WH\035c\326FH\032\363\232b+\027"
  90      A8228657 
  90      481D63D6 
  90      46481AF3 
  90      9A622B17 
  91 00ea 34854054 		.ascii	"4\205@TOC9=\341\273\353m\365-}C\337\216X_\361\245\363"
  91      4F43393D 
  91      E1BBEB6D 
  91      F52D7D43 
ARM GAS  /tmp/cc8eBG8L.s 			page 7


  91      DF8E585F 
  92 0101 4AC0053E 		.ascii	"J\300\005>\321r\367\335)\252\330\345`\015\352\005\375"
  92      D172F7DD 
  92      29AAD8E5 
  92      600DEA05 
  92      FD
  93 0112 322B6628 		.ascii	"2+f(E\030\303u\341 \344x4\356NI\367y\230\202\3436Ot"
  93      4518C375 
  93      E120E478 
  93      34EE4E49 
  93      F7799882 
  94 012a 86E98BB1 		.ascii	"\206\351\213\261\233\036\213\376a\357s,\270\030\233"
  94      9B1E8BFE 
  94      61EF732C 
  94      B8189B
  95 0139 F4D884C7 		.ascii	"\364\330\204\307>P{\245}\270z-\003C\236T\362Z \227\374"
  95      3E507BA5 
  95      7DB87A2D 
  95      03439E54 
  95      F25A2097 
  96 014e 9E1FA1C0 		.ascii	"\236\037\241\300\343\270\234r\271\245\037\355\327y\256"
  96      E3B89C72 
  96      B9A51FED 
  96      D779AE
  97 015d 58EB55DB 		.ascii	"X\353U\333\313g(\271j\305^\231\003\225\305\373x<W\346"
  97      CB6728B9 
  97      6AC55E99 
  97      0395C5FB 
  97      783C57E6 
  98 0171 CC5A3B98 		.ascii	"\314Z;\230\225\372\223\227*\363\026_\252=\234\305\372"
  98      95FA9397 
  98      2AF3165F 
  98      AA3D9CC5 
  98      FA
  99 0182 5DB9B27F 		.ascii	"]\271\262\177\377i\350\3749\344\262y\234/\316\255\241"
  99      FF69E8FC 
  99      39E4B279 
  99      9C2FCEAD 
  99      A1
 100 0193 22F9AF54 		.ascii	"\"\371\257TaB\271\207\204\354\024\367VTo6\346\243\270"
 100      6142B987 
 100      84EC14F7 
 100      56546F36 
 100      E6A3B8
 101 01a6 993C8F92 		.ascii	"\231<\217\222\371gQ\\O\347\322f+z\262\360\364\361\303"
 101      F967515C 
 101      4FE7D266 
 101      2B7AB2F0 
 101      F4F1C3
 102 01b9 889D7AF5 		.ascii	"\210\235z\365Q\324Z\210E\0374\032q+\271\021\023b\314"
 102      51D45A88 
 102      451F341A 
 102      712BB911 
 102      1362CC
 103 01cc A1FA1774 		.ascii	"\241\372\027t\015\265\315"
 103      0DB5CD
 104              		.text
ARM GAS  /tmp/cc8eBG8L.s 			page 8


 105              		.section	.gnu.lto_mmcsdGetCapacity.3c76ed3622a56b6e,"",%progbits
 106 0000 789C5D51 		.ascii	"x\234]Q;K\003A\020\236\331\275M6b!\026\026)\202`\357"
 106      3B4B0341 
 106      109ED9BD 
 106      4D366221 
 106      16162982 
 107 0016 59888D95 		.ascii	"Y\210\215\225\205\377\300\200V\022/!94\006\022\025\304"
 107      85FFC080 
 107      56122F21 
 107      39340612 
 107      15C4
 108 0028 2217F320 		.ascii	"\"\027\363 \210\301\324>\012\233\024\026\021\304\312"
 108      88C1D43E 
 108      0A9B1416 
 108      11C4CA
 109 0037 2ABDC660 		.ascii	"*\275\306`\247`\021\360O\210\026qf\357.\004\027nfn\276"
 109      A76011F0 
 109      4F881671 
 109      66EF2E04 
 109      176E666E 
 110 004c FDE6F1AD 		.ascii	"\375\346\361\255\000\001\377\317\032}\013\224^!\217"
 110      0001FFCF 
 110      1A7D0B94 
 110      5E218F
 111 005b 1140D17E 		.ascii	"\021@\321~\005\250h!U=\016\236\226\306Z~\214\212A\264"
 111      05A86821 
 111      553D0E9E 
 111      96C65A7E 
 111      8C8A41B4 
 112 006f 7C5FD10A 		.ascii	"|_\321\012\221\003@(\013i),o\241\251y/z\303\321\250"
 112      91034028 
 112      0B69292C 
 112      6FA1A979 
 112      2F7AC3D1 
 113 0084 FBDDE87E 		.ascii	"\373\335\350~\342\215\230Bp\021\004\346\021,\212P\261"
 113      E28D9842 
 113      701104E6 
 113      112C8A50 
 113      B1
 114 0095 89B089B2 		.ascii	"\211\260\211\262\321\214\306\330\320QP\363\274\366<"
 114      D18CC6D8 
 114      D05150F3 
 114      BCF63C
 115 00a4 80637E37 		.ascii	"\200c~7\310r\207$\012\366\262\017\247O\365\337V\"\205"
 115      C8728724 
 115      0AF6B20F 
 115      A74FF5DF 
 115      562285
 116 00b7 B754268B 		.ascii	"\267T&\213\326\025\\\"1\263(6\311\213i\177\247>T\273"
 116      D6155C22 
 116      31B32836 
 116      C98B697F 
 116      A73E54BB 
 117 00cb D53B0C6F 		.ascii	"\325;\014o)\272\310\260L\020\366\002\265\236\034#-8"
 117      29BAC8B0 
 117      4C10F602 
 117      B59E1C23 
ARM GAS  /tmp/cc8eBG8L.s 			page 9


 117      2D38
 118 00dd AFD4BCDE 		.ascii	"\257\324\274\336C\324E\213\231i\3647\010\362m\3163\025"
 118      43D4458B 
 118      9969F437 
 118      08F26DCE 
 118      3315
 119 00ef 7C504C82 		.ascii	"|PL\202\327c\020\015('TM\322_=.\237Y\244p%\277iXg\000"
 119      D763100D 
 119      2827544D 
 119      D25F3D2E 
 119      9F59A470 
 120 0109 351D8E11 		.ascii	"5\035\216\021;\201\037\257\351\315\270\250\234`\000"
 120      3B811FAF 
 120      E9CDB8A8 
 120      9C6000
 121 0118 DAC82591 		.ascii	"\332\310%\221\202bVX,\205\035b\230^\003h\014\337\277"
 121      82625658 
 121      2C851D62 
 121      985E0368 
 121      0CDFBF
 122 012b 66FD4C16 		.ascii	"f\375L\026#\343\032Q'\2303P\005\326\301\270%\322X\033"
 122      23E31A51 
 122      27983350 
 122      05D6C1B8 
 122      25D2581B 
 123 013f 719AD50E 		.ascii	"q\232\325\016\206\274(Q\0316}\011;\253\316\205\220&"
 123      86BC2851 
 123      19367D09 
 123      3BABCE85 
 123      9026
 124 0151 D4409E1E 		.ascii	"\324@\236\036\257\245\340\202\336\201G\011\304z3a\326"
 124      AFA5E082 
 124      DE814709 
 124      C47A3361 
 124      D6
 125 0162 1FFB0390 		.ascii	"\037\373\003\220\266\221d\264\005\201n\342q\225\037"
 125      B69164B4 
 125      05816EE2 
 125      71951F
 126 0171 1299C873 		.ascii	"\022\231\310s-\333\271B>c;\205\364\261\235\316\034\331"
 126      2DDBB942 
 126      3E633B85 
 126      F4B19DCE 
 126      1CD9
 127 0183 4ECEDD71 		.ascii	"N\316\335q\013%\373\240x\270\277kS\220K\355\331\245"
 127      0B25FBA0 
 127      78B8BF6B 
 127      53904BED 
 127      D9A5
 128 0195 A2C37E3B 		.ascii	"\242\303~;\237wJ\351E\007\376\000\333\250\206\363"
 128      9F774AE9 
 128      4507FE00 
 128      DBA886F3 
 129              		.text
 130              		.section	.gnu.lto_.symbol_nodes.3c76ed3622a56b6e,"",%progbits
 131 0000 789C6362 		.ascii	"x\234cb`b\010e\200\002\246\343\214\365\014\014\023\316"
 131      60620865 
ARM GAS  /tmp/cc8eBG8L.s 			page 10


 131      8002A6E3 
 131      8CF50C0C 
 131      13CE
 132 0012 3130D4D7 		.ascii	"10\324\327\317\355Hd:\305X\317\010\34722\235`\254g\202"
 132      CFED4864 
 132      3AC558CF 
 132      08E73232 
 132      9D60AC67 
 133 0027 72E77530 		.ascii	"r\347u02320<z\360\017L\037\202\322\213@4\023#C\323W"
 133      32333230 
 133      3C7AF00F 
 133      4C1F82D2 
 133      8B403413 
 134 003f 1D6626A0 		.ascii	"\035f&\240\360W\035\006\000\230X\032\243"
 134      F0571D06 
 134      0098581A 
 134      A3
 135              		.text
 136              		.section	.gnu.lto_.refs.3c76ed3622a56b6e,"",%progbits
 137 0000 789C6362 		.ascii	"x\234cb`b`d\200\002\000\000F\000\006"
 137      60626064 
 137      80020000 
 137      460006
 138              		.text
 139              		.section	.gnu.lto_.decls.3c76ed3622a56b6e,"",%progbits
 140 0000 789C9554 		.ascii	"x\234\225TMO\023Q\024\275o\012\302\000\0016btC\027\250"
 140      4D4F1351 
 140      14BD6F0A 
 140      C2000136 
 140      62744317 
 141 0015 91840E51 		.ascii	"\221\204\016Q\326\270`\001+\343\206\304\335\34413\332"
 141      D6B86001 
 141      2BE386C4 
 141      DDE43133 
 141      DA
 142 0026 89ED9474 		.ascii	"\211\355\224t\246&]\371l\024\211\211\011\222\270 1\332"
 142      A6265DF9 
 142      6C148989 
 142      0992B820 
 142      31DA
 143 0038 46482018 		.ascii	"FH \030\015\032i\374\200\014A>\014K\177\000\365#q\353"
 143      0D1A69FC 
 143      800C413E 
 143      0C4B7F00 
 143      F52371EB 
 144 004c 861857F5 		.ascii	"\206\030W\365\276\351\033\240C[\312$'\363\346\335{\316"
 144      BEE91BA0 
 144      435BCA24 
 144      27F3E6DD 
 144      7BCE
 145 005e BDE7BE99 		.ascii	"\275\347\276\231\221@\202~\002P\304+\327\010\360\027"
 145      9140827E 
 145      0250C42B 
 145      D708F017 
 146 006e 001A1083 		.ascii	"\000\032\020\203\010\334\206\034\224\256\020b\036\261"
 146      08DC861C 
 146      94AE1062 
ARM GAS  /tmp/cc8eBG8L.s 			page 11


 146      1EB1
 147 007c 8C5881A3 		.ascii	"\214X\201\243\027\2175\011n;\242\015\321(\370|\177Q"
 147      178F3509 
 147      6E3BA20D 
 147      D128F87C 
 147      7F51
 148 008e E41191CB 		.ascii	"\344\021\221\313\365\336!\226\020o\002Z\313\202\223"
 148      F5DE2196 
 148      106F025A 
 148      CB8293
 149 009d 3BA4E56B 		.ascii	";\244\345k\257#\026D\236$r}\275\217\210/\210\215\200"
 149      AF231644 
 149      9E24727D 
 149      BD8F882F 
 149      888D80
 150 00b0 1EEF570E 		.ascii	"\036\357W\016\364\342{\334D\344\003\272!\301\361\265"
 150      F4E27BDC 
 150      44E403BA 
 150      21C1F1B5 
 151 00c0 79EE1A62 		.ascii	"y\356\032b\013\261\215\370\032\320\227a\222\261\014"
 151      0BB18DF8 
 151      1AD09761 
 151      92B10C
 152 00cf CB4EB091 		.ascii	"\313N\260\221m\354\367\006\241\244]\206\260\267h\223"
 152      6DECF706 
 152      A1A45D86 
 152      B0B76893 
 153 00df 3DFA7998 		.ascii	"=\372y\230el\252\260\361\243 1\326LI\216\310\330\376"
 153      656CAAB0 
 153      F1A32031 
 153      D64C498E 
 153      C8D8FE
 154 00f2 4502BDB0 		.ascii	"E\002\275\260\3000\202\374s\025\246Z\277\362\356\367"
 154      C03082FC 
 154      7315A65A 
 154      BFF2EEF7 
 155 0102 9D90A73C 		.ascii	"\235\220\247<\347)\307\010P2Kz\205\016%M\362a]\357\331"
 155      E729C708 
 155      50324B7A 
 155      850E254D 
 155      F2615DEF 
 156 0117 4FE0625E 		.ascii	"O\340b^X,\370\253\320\001'M\357\206\347\314\375S\330"
 156      582CF8AB 
 156      D001274D 
 156      EF86E7CC 
 156      FD53D8
 157 012a DD5ABD34 		.ascii	"\335Z\2754\303\334\373\254X\274\313:\273\340)\272\343"
 157      C3DCFBAC 
 157      58BCCB3A 
 157      BBE029BA 
 157      E3
 158 013b FD33E294 		.ascii	"\3753\342\224\\W\362\300+,\220.1|~\254\320\012\217\016"
 158      5C57F2C0 
 158      2B2C902E 
 158      317C7EAC 
 158      D00A8F0E 
 159 014f 9CD7662E 		.ascii	"\234\327f.\222V\277QA.\345Wx\246d4\264\357J\202W\244"
ARM GAS  /tmp/cc8eBG8L.s 			page 12


 159      9256BF51 
 159      412EE557 
 159      78A66434 
 159      B4EF4A82 
 160 0165 7C4C3DF0 		.ascii	"|L=\360\222\261i\2267FJ\252\022|\3662\346Iw\305\352"
 160      92B16996 
 160      37464AAA 
 160      127CF632 
 160      E64977C5 
 161 017a A2B6A0ED 		.ascii	"\242\266\240\355qZ\351`\327\216\241y\355\010\332\322"
 161      715AE960 
 161      D78EA179 
 161      ED08DAD2 
 162 018a 66DB14F1 		.ascii	"f\333\024\361\211\033\365\020\001.\300\034\237\316\267"
 162      891BF510 
 162      012EC01C 
 162      9FCEB7
 163 0199 5FD747FC 		.ascii	"_\327G\374\275\352,1\246\327D:|\246\336y\025\334\177"
 163      BDEA2C31 
 163      A6D7443A 
 163      7CA6DE79 
 163      15DC7F
 164 01ac 138FCF4E 		.ascii	"\023\217\317Nf3n\261x\265\371\004\247\225/?\255\322"
 164      66336EB1 
 164      78B5F904 
 164      A7952F3F 
 164      ADD2
 165 01be 2002D3DD 		.ascii	" \002\323\335\251<\335\231\203\351\376\3642\226kOW\270"
 165      A93CDD99 
 165      83E9FEF4 
 165      32966B4F 
 165      57B8
 166 01d0 9D66EFCB 		.ascii	"\235f\357\313\334Vc\211\006?\034u\233-\260\267\214\311"
 166      DC566389 
 166      063F1C75 
 166      9B2DB0B7 
 166      8CC9
 167 01e2 F8661659 		.ascii	"\370f\026Y&|\002\263\253u\230\375}\214YJ>aG\224\254"
 167      267C02B3 
 167      AB7598FD 
 167      7D8C594A 
 167      3E614794 
 168 01f7 D4653613 		.ascii	"\324e6\0230[\215%\032t\313\315\006\276\035\376eU\263"
 168      305B8D25 
 168      1A74CBCD 
 168      06BE1DFE 
 168      6555B3
 169 020a B67EF0ED 		.ascii	"\266~\360\355\204\341\005\376H\334'[\367\262$L\311\340"
 169      84E105FE 
 169      48DC275B 
 169      F7B2244C 
 169      C9E0
 170 021c E9FD3143 		.ascii	"\351\3751Cy\312\024{ U\216\007\012\347k\024\336\014"
 170      79CA147B 
 170      20558E07 
 170      0AE76B14 
 170      DE0C
ARM GAS  /tmp/cc8eBG8L.s 			page 13


 171 022e 162E535D 		.ascii	"\026.S]9Z\225\261\371\316Zq\367\331C\326RE\001z\224"
 171      395A95B1 
 171      F9CE5A71 
 171      F7D943D6 
 171      5245017A 
 172 0243 949D5468 		.ascii	"\224\235Th2\336g%,\243\317\240c\246bZZ,\245\033\212"
 172      32DE6725 
 172      2CA3CFA0 
 172      63A6625A 
 172      5A2CA51B 
 173 0258 EDE8A6E5 		.ascii	"\355\350\246\345D\242\320\234\302\373\225\313\252sj"
 173      44A2D09C 
 173      C2FB95CB 
 173      AA736A
 174 0267 F8DA6878 		.ascii	"\370\332hx\010\006j\220\342T\213\232\226\241\250\272"
 174      08066A90 
 174      E2548B9A 
 174      96A1A8BA 
 175 0277 7193A662 		.ascii	"q\223\246b\216\352\244\307\015\033EZT\325\227\031P\242"
 175      8EEAA4C7 
 175      0D1B455A 
 175      54D59719 
 175      50A2
 176 0289 89B8A168 		.ascii	"\211\270\241h\011=\255\350\306\035\005\031cf\302V\234"
 176      093DADE8 
 176      C61D0519 
 176      6366C256 
 176      9C
 177 029a 64CABAAD 		.ascii	"d\312\272\255\340\"Jc\212\235\324\370]\215\3075[\217"
 177      E0224A63 
 177      8A9DD4F8 
 177      5D8DC735 
 177      5B8F
 178 02ac 68D0E12D 		.ascii	"h\320\341-\324[\206\243\3321S3\032t\352\320\220a\351"
 178      D45B86A3 
 178      DA315333 
 178      1A74EAD0 
 178      9061E9
 179 02bf 8DB64393 		.ascii	"\215\266C\223\316\031/<l8Ct\234j\246\223\216\214\343"
 179      CE192F3C 
 179      6C384374 
 179      9C6AA693 
 179      8E8CE3
 180 02d2 6EA43F84 		.ascii	"n\244?\204\273\235\301\330\177(\006\200\322"
 180      BB9DC1D8 
 180      7F280680 
 180      D2
 181              		.text
 182              		.section	.gnu.lto_.symtab.3c76ed3622a56b6e,"",%progbits
 183 0000 6D6D6373 		.ascii	"mmcsdGetCapacity\000\000\000\000\000\000\000\000\000"
 183      64476574 
 183      43617061 
 183      63697479 
 183      00000000 
 184 0019 000000BD 		.ascii	"\000\000\000\275\000\000\000"
 184      000000
 185              		.text
ARM GAS  /tmp/cc8eBG8L.s 			page 14


 186              		.section	.gnu.lto_.opts,"",%progbits
 187 0000 272D6D63 		.ascii	"'-mcpu=cortex-m3' '-mno-thumb-interwork' '-mthumb' "
 187      70753D63 
 187      6F727465 
 187      782D6D33 
 187      2720272D 
 188 0033 272D4F32 		.ascii	"'-O2' '-fomit-frame-pointer' '-falign-functions=16'"
 188      2720272D 
 188      666F6D69 
 188      742D6672 
 188      616D652D 
 189 0066 20272D66 		.ascii	" '-ffunction-sections' '-fdata-sections' '-fno-comm"
 189      66756E63 
 189      74696F6E 
 189      2D736563 
 189      74696F6E 
 190 0099 6F6E2720 		.ascii	"on' '-flto'\000"
 190      272D666C 
 190      746F2700 
 191              		.text
 192              		.section	.text.mmcsdGetCapacity,"ax",%progbits
 193              		.align	2
 194              		.p2align 4,,15
 195              		.global	mmcsdGetCapacity
 196              		.thumb
 197              		.thumb_func
 198              		.type	mmcsdGetCapacity, %function
 199              	mmcsdGetCapacity:
 200              		@ args = 0, pretend = 0, frame = 0
 201              		@ frame_needed = 0, uses_anonymous_args = 0
 202              		@ link register save eliminated.
 203 0000 C368     		ldr	r3, [r0, #12]
 204 0002 9B0F     		lsrs	r3, r3, #30
 205 0004 0CD0     		beq	.L3
 206 0006 012B     		cmp	r3, #1
 207 0008 08D1     		bne	.L8
 208 000a 8268     		ldr	r2, [r0, #8]
 209 000c C388     		ldrh	r3, [r0, #6]
 210 000e 02F03F00 		and	r0, r2, #63
 211 0012 43EA0040 		orr	r0, r3, r0, lsl #16
 212 0016 0130     		adds	r0, r0, #1
 213 0018 8002     		lsls	r0, r0, #10
 214 001a 7047     		bx	lr
 215              	.L8:
 216 001c 0020     		movs	r0, #0
 217 001e 7047     		bx	lr
 218              	.L3:
 219 0020 4268     		ldr	r2, [r0, #4]
 220 0022 8368     		ldr	r3, [r0, #8]
 221 0024 910F     		lsrs	r1, r2, #30
 222 0026 C3F30900 		ubfx	r0, r3, #0, #10
 223 002a 41EA8000 		orr	r0, r1, r0, lsl #2
 224 002e C2F3C232 		ubfx	r2, r2, #15, #3
 225 0032 0232     		adds	r2, r2, #2
 226 0034 0130     		adds	r0, r0, #1
 227 0036 9040     		lsls	r0, r0, r2
 228 0038 C3F30343 		ubfx	r3, r3, #16, #4
ARM GAS  /tmp/cc8eBG8L.s 			page 15


 229 003c 093B     		subs	r3, r3, #9
 230 003e 9840     		lsls	r0, r0, r3
 231 0040 7047     		bx	lr
 232              		.size	mmcsdGetCapacity, .-mmcsdGetCapacity
 233              		.comm	__gnu_lto_v1,1,1
 234 0042 00BFAFF3 		.ident	"GCC: (GNU Tools for ARM Embedded Processors) 4.8.4 20140526 (release) [ARM/embedded-4_8-br
 234      0080AFF3 
 234      0080AFF3 
 234      0080
ARM GAS  /tmp/cc8eBG8L.s 			page 16


DEFINED SYMBOLS
                            *ABS*:0000000000000000 hal_mmcsd.c
     /tmp/cc8eBG8L.s:193    .text.mmcsdGetCapacity:0000000000000000 $t
     /tmp/cc8eBG8L.s:199    .text.mmcsdGetCapacity:0000000000000000 mmcsdGetCapacity
                            *COM*:0000000000000001 __gnu_lto_v1

NO UNDEFINED SYMBOLS
