ARM GAS  /tmp/ccULPwF1.s 			page 1


   1              		.syntax unified
   2              		.cpu cortex-m3
   3              		.fpu softvfp
   4              		.eabi_attribute 20, 1
   5              		.eabi_attribute 21, 1
   6              		.eabi_attribute 23, 3
   7              		.eabi_attribute 24, 1
   8              		.eabi_attribute 25, 1
   9              		.eabi_attribute 26, 1
  10              		.eabi_attribute 30, 2
  11              		.eabi_attribute 34, 1
  12              		.eabi_attribute 18, 4
  13              		.thumb
  14              		.file	"hal_lld.c"
  15              		.section	.gnu.lto_.jmpfuncs.48c4ebaefa4c2041,"",%progbits
  16 0000 789C6362 		.ascii	"x\234cb`b\300\006\330\2414H\226\221\201\001\000\001"
  16      6062C006 
  16      D8A13448 
  16      96918101 
  16      0001
  17 0012 39000F   		.ascii	"9\000\017"
  18              		.text
  19              		.section	.gnu.lto_.inline.48c4ebaefa4c2041,"",%progbits
  20 0000 789C6362 		.ascii	"x\234cb`b\300\006\014\2404PVX\232\221\201In\303+F\006"
  20      6062C006 
  20      0CA03450 
  20      56589A91 
  20      81496EC3 
  21 0017 B605F260 		.ascii	"\266\005\362`\325\214\\ \202A\365\030#P\306\245\341"
  21      D58C5C20 
  21      8241F518 
  21      2350C6A5 
  21      E1
  22 0028 B3385C86 		.ascii	"\2638\\\206\001\000\241V\006x"
  22      0100A156 
  22      0678
  23              		.text
  24              		.section	.gnu.lto_.pureconst.48c4ebaefa4c2041,"",%progbits
  25 0000 789C6362 		.ascii	"x\234cb`b`e\200\000&\006)F)\000\001\006\000A"
  25      60626065 
  25      80002606 
  25      29462900 
  25      01060041 
  26              		.text
  27              		.section	.gnu.lto_hal_lld_init.48c4ebaefa4c2041,"",%progbits
  28 0000 789CAD93 		.ascii	"x\234\255\223?L\023q\024\307\337\373]\217\026\251\261"
  28      3F4C1371 
  28      14C7DFFB 
  28      5D8F16A9 
  28      B1
  29 0011 8D0B6CA4 		.ascii	"\215\013l\244\216&\034\310\342b\342@4\016,P\023\235"
  29      8E261CC8 
  29      E262E240 
  29      340E2C50 
  29      139D
  30 0023 4CB9127A 		.ascii	"L\271\022z\261x\206B\003q\350\357h\207\306\030sq\"\300"
  30      B1788642 
ARM GAS  /tmp/ccULPwF1.s 			page 2


  30      0371E8EF 
  30      6887C618 
  30      737122C0 
  31 0037 003124C6 		.ascii	"\0001$\306\230t\345\317Bt\320E\215k]\216\204\301\215"
  31      9874E5CF 
  31      4274D045 
  31      8D6B5D8E 
  31      84C18D
  32 004a 8101E2C0 		.ascii	"\201\001\342\300\361\336\375\356\232\000\203\255\360"
  32      F1DEFDEE 
  32      9A0083AD 
  32      F0
  33 0057 927BEF77 		.ascii	"\222{\357ww\277\367}\237\357\375\021 \340|\364\321\261"
  33      77BFF77D 
  33      9FEFFD11 
  33      20E07CF4 
  33      D1B1
  34 0069 1A0318A3 		.ascii	"\032\003\030\243\212\032\240p\177\0008\011\201\310\013"
  34      8A1AA070 
  34      7F003809 
  34      81C80B
  35 0078 40A808AC 		.ascii	"@\250\010\254<E\336*2\260.\345;o\343p\251\357\365\332"
  35      3C45DE2A 
  35      32B02EE5 
  35      3B6FE370 
  35      A9EFF5DA 
  36 008c A22B4F7C 		.ascii	"\242+O|\037-$\321\207\010&\302\023:\301\376\240\210"
  36      1F2D24D1 
  36      870826C2 
  36      133AC1FE 
  36      A088
  37 009e D8D929AA 		.ascii	"\330\331)\252sw\365\353\233k\256S\227\276_\011\372F"
  37      7377F5EB 
  37      9B6BAE53 
  37      97BE5F09 
  37      FA46
  38 00b0 FFD5D710 		.ascii	"\377\325\327\020\273\236\357\177\332\332\337;\300\364"
  38      BB9EEF7F 
  38      DADADF3B 
  38      C0F4
  39 00be 4D01395C 		.ascii	"M\0019\\\307\014\350T\337SM\000\251ts\352\341\224\344"
  39      C70CE854 
  39      DF534D00 
  39      A97473EA 
  39      E194E4
  40 00d1 94E294E6 		.ascii	"\224\342\224\346D\241CMJ\267\037x\012E\2262\273z\214"
  40      44A1434D 
  40      4AB71F78 
  40      0A459632 
  40      BB7A8C
  41 00e4 82ABF61D 		.ascii	"\202\253\366\035>77\017{s\270\201:L\241\270\015\037"
  41      3E37370F 
  41      7B73B881 
  41      3A4CA1B8 
  41      0D1F
  42 00f6 65CD4959 		.ascii	"e\315IY\250\255\3002\321\304\030I\227ku\031\013\350"
  42      A8ADC032 
ARM GAS  /tmp/ccULPwF1.s 			page 3


  42      D1C41849 
  42      976B7519 
  42      0BE8
  43 0108 F4806902 		.ascii	"\364\200i\002#:\352\277\253\232;\353\344+\340S\334\270"
  43      233AEABF 
  43      AB9A3BEB 
  43      E42BE053 
  43      DCB8
  44 011a 28821D68 		.ascii	"(\202\035hh!D\363[)\362\240\267K\202\377\355\001\257"
  44      682144F3 
  44      5B29F2A0 
  44      B74B82FF 
  44      ED01AF
  45 012d C0035EF4 		.ascii	"\300\003^\364\360\241\034yH\264K\"Z\036\252[Z\324\335"
  45      F0A11C79 
  45      48B44B22 
  45      5A1EAA5B 
  45      5AD4DD
  46 0140 4D02019C 		.ascii	"M\002\001\234\244@%\376\2503\207J\227\244\302\247\333"
  46      A44025FE 
  46      A833874A 
  46      97A4C2A7 
  46      DB
  47 0151 22EBB914 		.ascii	"\"\353\271\024Y\222\004\"\262\373\227\002K*\260\343"
  47      59920422 
  47      B2FB9702 
  47      4B2AB0E3 
  48 0161 E6F5D617 		.ascii	"\346\365\326\027\256\026\362\350\355=\000%j\252\247"
  48      AE16F2E8 
  48      ED3D0025 
  48      6AAAA7
  49 0170 3C85A933 		.ascii	"<\205\2513\362\216+i\325\305\262q\3519\341\204x8A\343"
  49      F28E2B69 
  49      D5C5B271 
  49      E939E184 
  49      783841E3 
  50 0184 EE1D3590 		.ascii	"\356\0355\220\341\253\215\337\230\303\355\200?MR\212"
  50      E1AB8DDF 
  50      98C3ED80 
  50      3F4D528A 
  51 0194 5FB4E8B7 		.ascii	"_\264\350\267\317\323\267+Or\000?\241\352\375\371\322"
  51      CFD3B72B 
  51      4F72003F 
  51      A1EAFDF9 
  51      D2
  52 01a5 A578015E 		.ascii	"\245x\001^\301_Y\347\366\204\031Z\265\370\035\374\002"
  52      C15F59E7 
  52      F684195A 
  52      B5F81DFC 
  52      02
  53 01b6 C73BB815 		.ascii	"\307;\270\025mR\221%s\364\013\363\256\021\243`OO\032"
  53      6D529125 
  53      73F40BF3 
  53      AE11A360 
  53      4F4F1A
  54 01c9 A69D5F30 		.ascii	"\246\235_0\362\223e\303,X\023\226]2fg\346^<7hQ\310\025"
  54      F29365C3 
ARM GAS  /tmp/ccULPwF1.s 			page 4


  54      2C581396 
  54      5D326667 
  54      E65E3C37 
  55 01e1 8D97F6CC 		.ascii	"\215\227\366\314l\311\030\317\216\016\337Q\371\301\320"
  55      6CC918CF 
  55      8E0EDF51 
  55      F9C1D0
  56 01f0 FC3CDF79 		.ascii	"\374<\337yV,\346\007L\320\313vq`0\310C\247s\310!\207"
  56      562CE607 
  56      4CD0CB76 
  56      716030C8 
  56      43A773C8 
  57              		.text
  58              		.section	.gnu.lto_stm32_clock_init.48c4ebaefa4c2041,"",%progbits
  59 0000 789CA554 		.ascii	"x\234\245TMk\023Q\024\275\367M\346#\311\314\230\320"
  59      4D6B1351 
  59      14BDF74D 
  59      E623C9CC 
  59      98D0
  60 0012 4043E3C2 		.ascii	"@C\343\302\235\013\301\241\366\027\004\244\340\302\225"
  60      9D0BC1A1 
  60      F61704A4 
  60      E0C295
  61 0021 29E84ADA 		.ascii	")\350J\332\2444\301h\244\255RW}!Y\270\350\242\313\240"
  61      A434C168 
  61      A4AD5257 
  61      7D2159B8 
  61      E8A2CBA0 
  62 0035 50DA8554 		.ascii	"P\332\205T\262Pp\021R\013Z\212`\021*\270\253\335X\334"
  62      B2507011 
  62      520B5A8A 
  62      60112AB8 
  62      ABDD58DC 
  63 0049 48C14D77 		.ascii	"H\301Mw\355\252\276\217\2317\251\255\330f\006rf\346"
  63      EDAABE8F 
  63      9937A9AD 
  63      D8660672 
  63      66E6
  64 005b 9EF7CEDC 		.ascii	"\236\367\316\334w\356\275!@\340\357\353\025\373\375"
  64      77EEBD21 
  64      40E0EFEB 
  64      15FBFD
  65 006a 300046D9 		.ascii	"0\000F\331\035/\001\222\305\257\000u\213\240&\0374\342"
  65      1D2F0192 
  65      C5AF0075 
  65      8BA0261F 
  65      34E2
  66 007c 2E7C06A0 		.ascii	".|\006\240\211X\323\004j\2732\236\217\241.y\2358\222"
  66      8958D304 
  66      6ABB329E 
  66      8FA12E79 
  66      9D3892
  67 008f 3704EFC8 		.ascii	"7\004\357\310x\336@S\362&\261%o\011\336\226\361\274"
  67      78DE4053 
  67      F226B125 
  67      6F09DE96 
  67      F1BC
ARM GAS  /tmp/ccULPwF1.s 			page 5


  68 00a1 8571C9C7 		.ascii	"\205q\311\307IR\362\011\301'e<\237@\344w@\230'\232\033"
  68      4952F209 
  68      C127653C 
  68      9F40E477 
  68      4098279A 
  69 00b6 D31DC3B4 		.ascii	"\323\035\303\264\255x2\201\363\367P\344\375\226l\354"
  69      AD783281 
  69      F3F750E4 
  69      FD966CEC 
  70 00c6 1D1FBF59 		.ascii	"\035\037\277Y\372\262\264\200k\3442\201\012\202\306"
  70      FAB2B480 
  70      6BE43281 
  70      0A82C6
  71 00d5 41E76070 		.ascii	"A\347`p09X\034\222\034l\016\016\007\227C\212C\232\303"
  71      3039581C 
  71      921C6C0E 
  71      0E079743 
  71      8A439AC3 
  72 00e9 00870C87 		.ascii	"\000\207\014\207A\016Y\016C\034r\034\330\245C\223\322"
  72      410E590E 
  72      431C721C 
  72      D8A54393 
  72      D2
  73 00fa C52B0045 		.ascii	"\305+\000E\361Z`\310\222\035C\302n\3326l\356\266V\277"
  73      F15A60C8 
  73      921D43C2 
  73      6EDA366C 
  73      EEB656BF 
  74 010e E338AEA0 		.ascii	"\3438\256\240\016SH\256A\2336\353\251\012\342Kx\201"
  74      0E5348AE 
  74      419B36EB 
  74      A90AE24B 
  74      7881
  75 0120 15247719 		.ascii	"\025$w\031ht\3719\215\201x\024\371O`P\201mh\254i\301"
  75      6874F939 
  75      8D817814 
  75      F94F6050 
  75      816D68AC 
  76 0136 6E6D4AAE 		.ascii	"nmJ\256\007\024\314\346-I\\Ls\312\177g)j\300l\0249v"
  76      0714CCE6 
  76      2D495C4C 
  76      73CA7F67 
  76      296AC06C 
  77 014d 578F548E 		.ascii	"W\217T\216\272\320\303\213\244\270\336x\247\266\033"
  77      BAD0C38B 
  77      A4B8DE78 
  77      A7B61B
  78 015c 4C4124C9 		.ascii	"LA$\311\333i\013>\375\252\217(J\304{\257\002\272\300"
  78      DB690B3E 
  78      FDAA8F28 
  78      4AC47BAF 
  78      02BAC0
  79 016f 2A8C6318 		.ascii	"*\214c\030\013\354:\354\261\313\354\303\256ue\227\305"
  79      0BEC3AEC 
  79      B1CBECC3 
  79      AE756597 
  79      C5
ARM GAS  /tmp/ccULPwF1.s 			page 6


  80 0180 04C4178F 		.ascii	"\004\304\027\217\242\371e\211\315\335V{\037{\005\250"
  80      A2F96589 
  80      CDDD567B 
  80      1F7B05A8 
  81 0190 F35F0529 		.ascii	"\363_\005)\301#*\3031\266_\271\336>PGM\236\323u\354"
  81      C1232AC3 
  81      31B65FB9 
  81      DE3E5047 
  81      4D9ED375 
  82 01a5 3969A3A3 		.ascii	"9i\243\243\266\333LA\234\325\026\2567\177\207\256\333"
  82      B6DB4C41 
  82      9CD516AE 
  82      377F87AE 
  82      DB
  83 01b6 67B8EEF8 		.ascii	"g\270\356\370\256\033\252I;\373J\3139\257A=\271\204"
  83      AE1BAA49 
  83      3BFB4ACB 
  83      39AF413D 
  83      B984
  84 01c8 4DEA3201 		.ascii	"M\3522\001\361EJ\227\373\363\035}\337]\261y\367ux\312"
  84      F1454A97 
  84      FBF31D7D 
  84      DF5DB179 
  84      F77578CA 
  85 01dc 54A4F149 		.ascii	"T\244\361I3\001?3jE\352\210tPKS\325r\247\023N\320@\264"
  85      33013F33 
  85      6A45EA88 
  85      74504B53 
  85      D572A713 
  86 01f4 09CA3085 		.ascii	"\011\3120\205 \317\324\251!\312\234QN\333/\247\345\227"
  86      20CFD4A9 
  86      21CA9C51 
  86      4EDB2FA7 
  86      E597
  87 0206 B3DB7A1F 		.ascii	"\263\333z\037\245W\351\326\212&\375\351\356|88)4\254"
  87      A557E9D6 
  87      8A26FDE9 
  87      EE7C3838 
  87      2934AC
  88 0219 84627CAD 		.ascii	"\204b|\255N7\002!\335\027\"\241PZ\252\354\036~\014\273"
  88      4E370221 
  88      DD1722A1 
  88      505AAAEC 
  88      1E7E0CBB 
  89 022d 6B305277 		.ascii	"k0Rwe\231\200\372w\351\277\265\262A\001\343\252\200"
  89      659980FA 
  89      77E9BFB5 
  89      B24101E3 
  89      AA80
  90 023f AD9FE130 		.ascii	"\255\237\3410\016E\033\306\034S\370\3070\346D\334:Q"
  90      0E451BC6 
  90      1C53F8C7 
  90      30E644DC 
  90      3A51
  91 0251 BDA45FBD 		.ascii	"\275\244_\275\004\257\3367\250\357\265\256\312\345\341"
  91      04AFDE37 
  91      A8EFB5AE 
ARM GAS  /tmp/ccULPwF1.s 			page 7


  91      CAE5E1
  92 0260 1264143F 		.ascii	"\022d\024?\361M\257\\{8\351\025k\245g^i\362\251W,W&"
  92      F14DAF5C 
  92      7B38E915 
  92      6BA5675E 
  92      69F2A957 
  93 0277 2AB5196F 		.ascii	"*\265\031ov\372\311\243\007\036{(\217W\275\307\265\351"
  93      76FAC9A3 
  93      071E7B28 
  93      8F57BDC7 
  93      B5E9
  94 0289 D919EF4E 		.ascii	"\331\031\357N\341\366\310\015\211\243\303ss\234\271"
  94      E1F6C80D 
  94      89A3C373 
  94      739CB9
  95 0298 5FAD96AE 		.ascii	"_\255\226\256\027\341\017\363\016\236\240"
  95      17E10FF3 
  95      0E9EA0
  96              		.text
  97              		.section	.gnu.lto_.symbol_nodes.48c4ebaefa4c2041,"",%progbits
  98 0000 789C6362 		.ascii	"x\234cb`b0c\200\002\246\023\214\365\014\014\023\316"
  98      60623063 
  98      8002A613 
  98      8CF50C0C 
  98      13CE
  99 0012 3130D4D7 		.ascii	"10\324\327\317\353`d:\311X\317\210\3402\236b\254g\202"
  99      CFEB6064 
  99      3AC958CF 
  99      88E0329E 
  99      62AC6782 
 100 0026 701B1A18 		.ascii	"p\033\032\030\231\201\032\037\267\277\221g\000\000\311"
 100      99811A1F 
 100      B7BF9167 
 100      0000C9
 101 0035 28107C   		.ascii	"(\020|"
 102              		.text
 103              		.section	.gnu.lto_.refs.48c4ebaefa4c2041,"",%progbits
 104 0000 789C6362 		.ascii	"x\234cb`b`d\200\002\000\000F\000\006"
 104      60626064 
 104      80020000 
 104      460006
 105              		.text
 106              		.section	.gnu.lto_.decls.48c4ebaefa4c2041,"",%progbits
 107 0000 789C9D96 		.ascii	"x\234\235\226mL[U\030\307\317\271m\240@\367\222%.\316"
 107      6D4C5B55 
 107      18C7CFB9 
 107      6DA040F7 
 107      92252ECE 
 108 0014 0FD2259B 		.ascii	"\017\322%\233\321-\333\025\346\227}\231+\245\274D\267"
 108      D12DDB15 
 108      E6977D99 
 108      2BA5BC44 
 108      B7
 109 0025 915BE65C 		.ascii	"\221[\346\\\374\320\\\332\022\032\372Bhk\330\267kA4"
 109      FCD05CDA 
 109      121AFA42 
 109      686BD8B7 
ARM GAS  /tmp/ccULPwF1.s 			page 8


 109      6B4134
 110 0038 1A95F9F2 		.ascii	"\032\225\371\362\301h\260\0338\305i\\\230{\351\034\322"
 110      C168B01B 
 110      38C5695C 
 110      987BE91C 
 110      D2
 111 0049 C5106163 		.ascii	"\305\020ac\3019fP@\253\213\213Q3\011\232M\321X\237s"
 111      C1396650 
 111      40AB8B8B 
 111      5133099A 
 111      4DD1589F 
 112 005e EE6D7B4F 		.ascii	"\356m{Oi/\267\234\344y\356m\357y~\317\277\347\234\373"
 112      692FB79C 
 112      E479EE6D 
 112      EF797ECF 
 112      BFE79CFB 
 113 0072 3CE51087 		.ascii	"<\345\020\207\346\020B)\030\217\256A\250\234C\310\000"
 113      E6104229 
 113      188FAE41 
 113      A89C43C8 
 113      00
 114 0083 9FF7A0EC 		.ascii	"\237\367\240\354 \237\217\201\235\000\033B\313\007y"
 114      209F8F81 
 114      9D001B42 
 114      CB0779
 115 0092 560E560A 		.ascii	"V\016V\012\266\026\314\014v\022l\030\354\012\330$\330"
 115      B616CC0C 
 115      76126C18 
 115      EC0AD824 
 115      D8
 116 00a3 75B069B0 		.ascii	"u\260i\260\343`F\260Q\260\021\2601\260k\252\0347\012"
 116      E36046B0 
 116      51B011B0 
 116      31B06BAA 
 116      1C370A
 117 00b6 E420B94B 		.ascii	"\344 \271K\224\034j\366\014\330m%\376\034X\034l\036"
 117      941C6AF6 
 117      0CD86D25 
 117      FE1C581C 
 117      6C1E
 118 00c8 0C2B31B9 		.ascii	"\014+1\271\243\022\365K\261drl\361\324&)\026M\300\217"
 118      A312F54B 
 118      B164726C 
 118      F1D42629 
 118      164DC08F 
 119 00dc 461BD11B 		.ascii	"F\033\321\033\022\214X\257$\341\260\210\367\334\203"
 119      128C58AF 
 119      24E1B088 
 119      F7DC83
 120 00eb 9EC4225E 		.ascii	"\236\304\"^[\206,\364\306\\F\005#$\342\343x\243rw\320"
 120      5B862CF4 
 120      C65C4605 
 120      2324E2E3 
 120      78A37277 
 121 0100 20E33854 		.ascii	" \3438T\217\32164\004\361}\222\024\335\216\363\244D"
 121      8FD13634 
 121      04F17D92 
ARM GAS  /tmp/ccULPwF1.s 			page 9


 121      14DD8EF3 
 121      A444
 122 0112 E801F42E 		.ascii	"\350\001\364.\311 \275/\031(\237\020\216\341J\365\024"
 122      C920BD2F 
 122      19289F10 
 122      8EE14AF5 
 122      14
 123 0123 110F606E 		.ascii	"\021\017`n\271\320D\377es\3373\311T\252R\316\316\241"
 123      B9D044FF 
 123      6573DF33 
 123      C954AA52 
 123      CECEA1
 124 0136 A730CC1D 		.ascii	"\2470\314\035\304\3334\341'r\341\357-\207'\373\222\361"
 124      C4DB34E1 
 124      2772E1EF 
 124      2D8727FB 
 124      92F1
 125 0148 E7AEF6E2 		.ascii	"\347\256\366\342\243\335\261qi!\225Z\207\322)N\343\334"
 125      A3DDB171 
 125      6921955A 
 125      87D2294E 
 125      E3DC
 126 015a 1C32E403 		.ascii	"\0342\344\003\026R\206\236\227\244n\262n\015\343\260"
 126      1652869E 
 126      97A46EB2 
 126      6E0DE3B0 
 127 016a EDF9166D 		.ascii	"\355\371\026m+\032\204\205I\336}q\354\022\216\302\362"
 127      2B1A8485 
 127      49DE7D71 
 127      EC128EC2 
 127      F2
 128 017b D290A866 		.ascii	"\322\220\250f\210\210?\304[\301\227\226e4\220\247\360"
 128      88883FC4 
 128      5BC19796 
 128      653490A7 
 128      F0
 129 018c 317343CE 		.ascii	"1sC\316\352:\262\366\311\034\241:\360\212\242\323\257"
 129      EA3AB2F6 
 129      C91CA13A 
 129      F08AA2D3 
 129      AF
 130 019d 5CDC2D49 		.ascii	"\\\334-I&\021\177\014\2328\324\317\261 %\237\352\267"
 130      26117F0C 
 130      9A38D4CF 
 130      B120259F 
 130      EAB7
 131 01af AF2CA7C8 		.ascii	"\257,\247\310\351\033\320Q\262k\026\225\320\004\227"
 131      E91BD051 
 131      B26B1695 
 131      D00497
 132 01be 56FAA04A 		.ascii	"V\372\240J\351kW\037\352\206\245\023\3610\336\000Ro"
 132      E96B571F 
 132      EA86A513 
 132      F130DE00 
 132      526F
 133 01d0 E6485D91 		.ascii	"\346H]\221C\344\234\201P9\210R\245\3047\003\023\230"
 133      43E49C81 
ARM GAS  /tmp/ccULPwF1.s 			page 10


 133      50398852 
 133      A5C43703 
 133      1398
 134 01e2 FE7EF204 		.ascii	"\376~\362\004\345\331melF1\251\247;1?0\301\275)%z\340"
 134      E5D96D65 
 134      6C4631A9 
 134      A73B313F 
 134      30C1BD29 
 135 01f9 849DA40B 		.ascii	"\204\235\244\013\366;UA\202\363-\262r+\017e\002\013"
 135      F63B5541 
 135      82F32DB2 
 135      722B0F65 
 135      020B
 136 020b FC8EE47F 		.ascii	"\374\216\344\177\325\234\306-\026\215\2630\270\005\026"
 136      D59CC62D 
 136      168DB330 
 136      B80516
 137 021a 77570FCE 		.ascii	"wW\017\316TX\335\"\213\373\247h\034\253\356O\026\327"
 137      5458DD22 
 137      8BFBA768 
 137      1CABEE4F 
 137      16D7
 138 022c 63D0815B 		.ascii	"c\320\201[_X\335\035\026\367R\3218V\335_,\356u=\270"
 138      5F58DD1D 
 138      16F752D1 
 138      3856DD5F 
 138      2CEE753D 
 139 0241 7B0BAB5B 		.ascii	"{\013\253[bqo\027\215c\325\375\313\342\006\365\340,"
 139      62716F17 
 139      8D63D5FD 
 139      CBE206F5 
 139      E02C
 140 0253 85D5FDC7 		.ascii	"\205\325\375\307\342\206\212\306Y\362\275%\362P\277"
 140      E2868AC6 
 140      59F2BD25 
 140      F250BF
 141 0262 66223E4B 		.ascii	"f\">K\253\3309\274\031|\234\372O\251\037\241~\224\372"
 141      ABD839BC 
 141      197C9CFA 
 141      4FA91FA1 
 141      7E94FA
 142 0275 4BD47F4E 		.ascii	"K\324\177N\375\030\365_P?\001>3*\320\013\331\242&W\201"
 142      FD18F55F 
 142      503F013E 
 142      332AD00B 
 142      D9A22657 
 143 028a 42FDE90A 		.ascii	"B\375\351\012\256HG)e!\266WU\027\366\252\317\252\\^"
 143      AE484729 
 143      6521B657 
 143      5517F6AA 
 143      CFAA5C5E 
 144 029e 1223039B 		.ascii	"\022#\003\233$\243\210'im\371\310\220\267\266\024\206"
 144      24A38827 
 144      696DF9C8 
 144      90B7B614 
 144      86
 145 02af 90A453B9 		.ascii	"\220\244S\271\265\345L\272\266L\351\252-q\266\266\210"
ARM GAS  /tmp/ccULPwF1.s 			page 11


 145      B5E54CBA 
 145      B64CE9AA 
 145      2D71B6B6 
 145      88
 146 02c0 F83CB419 		.ascii	"\370<\264\0319xu\265\345\202z\217E|\271h\234\346\036"
 146      397875B5 
 146      E5827A8F 
 146      457CB968 
 146      9CE61E
 147 02d3 4FA9F6F8 		.ascii	"O\251\366\370K\272\307\327\350\236}\245\261g\223\032"
 147      4BBAC7D7 
 147      E89E7DA5 
 147      B167931A 
 148 02e3 7B763DBB 		.ascii	"{v=\273g9Q\244\031\027\212\232\316F\221^\236XH>\373"
 148      673951A4 
 148      19178A9A 
 148      CE46915E 
 148      9E58483E 
 149 02f8 EDCBCA3F 		.ascii	"\355\313\312?\232Q\011gZy\334\240\347\357\302\215\334"
 149      9A510967 
 149      5A79DCA0 
 149      E7EFC28D 
 149      DC
 150 0309 BF0B5FB3 		.ascii	"\277\013_\263\235>O\217\211ez\314\026\244\352Us\367"
 150      9D3E4F8F 
 150      89657ACC 
 150      16A4EA55 
 150      73F7
 151 031b CBBD6A86 		.ascii	"\313\275j\206\236\247\351\374\347\2510\207\344\236\315"
 151      9EA7E9FC 
 151      E7A93087 
 151      E49ECD
 152 032a 3D4F6F2D 		.ascii	"=Oo-\215\313\347iV\327yzgi\234\355U?R\025\263\253>O"
 152      8DCBE769 
 152      56D7797A 
 152      67699CED 
 152      553F5215 
 153 0342 A748FE6C 		.ascii	"\247H\376l\315\270U4\316\302\340\206Y\334\257zp\032"
 153      CDB85534 
 153      CEC2E086 
 153      59DCAF7A 
 153      701A
 154 0354 BDEA1316 		.ascii	"\275\352\023\026\367G\3218V\335Y5.\375.\256\200\323"
 154      F747D138 
 154      56DD5935 
 154      2EFD2EAE 
 154      80D3
 155 0366 E855E759 		.ascii	"\350U\347Yuw\364\250\323\350U\027X\334\337zp\032\275"
 155      7577F4A8 
 155      D3E85517 
 155      58DCDF7A 
 155      701ABD
 156 0379 EA228B8B 		.ascii	"\352\"\213\213\032\213\305\261\352>cq\275zp\226<\352"
 156      1A8BC5B1 
 156      EA3E6371 
 156      BD7A7096 
 156      3CEA
ARM GAS  /tmp/ccULPwF1.s 			page 12


 157 038b F20DF57B 		.ascii	"\362\015\365{!\3429Zx\346i\341\371\236\372\037\250\277"
 157      21E2395A 
 157      78E669E1 
 157      F99EFA1F 
 157      A8BF
 158 039d 49FD4FD4 		.ascii	"I\375O\324\337\242\376g\352\177\241\3767\215\0225\243"
 158      DFA2FE67 
 158      EA7FA1FE 
 158      378D1235 
 158      A3
 159 03ae 51A26E67 		.ascii	"Q\242ng\213\015\252\345\333\202~\017\357\012\272\217"
 159      8B0DAAE5 
 159      DB827E0F 
 159      EF0ABA8F 
 160 03be F06ECFD3 		.ascii	"\360n\317\323\274\253\315\333\342\015\206\370pg$\320"
 160      BCABCDDB 
 160      E20D86F8 
 160      706724D0 
 161 03ce CEC34D9B 		.ascii	"\316\303M\233\350\343;\202\235\341\020\357h\336\267"
 161      E8E33B82 
 161      9DE110EF 
 161      68DEB7
 162 03dd AB5AF675 		.ascii	"\253Z\366uU]]\344\211\323\347s\357t!\263r\353\364\006"
 162      555D5DE4 
 162      89D3E773 
 162      EF7421B3 
 162      72EBF406 
 163 03f1 BCE192FA 		.ascii	"\274\341\222\372\375\007-6\264>\024\366\357\252v\272"
 163      FD072D36 
 163      B43E14F6 
 163      EFAA76BA 
 164 0401 7C41573B 		.ascii	"|AW;\375\276n\365\231d\224\333/\356lC\245pi\004\334"
 164      FDBE6EF5 
 164      996494DB 
 164      2FEE6C43 
 164      A5706904 
 165 0416 163E12EA 		.ascii	"\026>\022\352\344\305N\377\216@0\340\331\341\021[\274"
 165      E4C54EFF 
 165      8E4030E0 
 165      D9E1115B 
 165      BC
 166 0427 BC37E0F2 		.ascii	"\2747\340\362E\334\036\230\357\366\006\3020\331\024"
 166      45DC1E98 
 166      EFF606C2 
 166      30D914
 167 0436 812B8486 		.ascii	"\201+\204\206\037\321\230\355\027AJ\300\303;\335\236"
 167      1FD198ED 
 167      17414AC0 
 167      C33BDD9E 
 168 0446 5631E20B 		.ascii	"V1\342\013;\303G:<!\210.w:\323\361\273W\022\357\351"
 168      3BC3473A 
 168      3C21882E 
 168      773AD3F1 
 168      BB5712EF 
 169 045b 0AF3B67D 		.ascii	"\012\363\266}\216F\007\310\226\365\266V=\334\005\220"
 169      8E4607C8 
 169      96F5B656 
ARM GAS  /tmp/ccULPwF1.s 			page 13


 169      3DDC0590 
 170 046b 0AC16673 		.ascii	"\012\301fs6\003\261\326\323\312\331\004\243\255\256"
 170      3603B1D6 
 170      D3CAD904 
 170      A3ADAE
 171 047a 5E30D81A 		.ascii	"^0\330\032\005\223\265\251\246Zp4\323\233*rSbm\250\261"
 171      0593B5A9 
 171      A65A7034 
 171      D39B2A72 
 171      53626DA8 
 172 048f EF174AC9 		.ascii	"\357\027J\311\003\345Z\005WcM\255\015\"\034BE\323!!"
 172      03E55A05 
 172      57634DAD 
 172      0D221C42 
 172      45D32121 
 173 04a3 4DBA2FBD 		.ascii	"M\272/\275\342-\242\253=\322\341t\007\375\2427@\327"
 173      E22DA2AB 
 173      3DD2E174 
 173      07FDA237 
 173      40D7
 174 04b5 794DDDE3 		.ascii	"yM\335\343VGCz\242\301\0129\037\263\037\026J\01745\223"
 174      5647437A 
 174      A2C10A39 
 174      1FB31F16 
 174      4A0F3435 
 175 04ca 2BE71038 		.ascii	"+\347\0208\253`\022\354\016\273\360\204\275\326p\240"
 175      AB6012EC 
 175      0EBBF084 
 175      BDD670A0 
 176 04da 46301E12 		.ascii	"F0\036\022\232\204\377\001K\323)\260"
 176      9A84FF01 
 176      4BD329B0 
 177              		.text
 178              		.section	.gnu.lto_.symtab.48c4ebaefa4c2041,"",%progbits
 179 0000 68616C5F 		.ascii	"hal_lld_init\000\000\000\000\000\000\000\000\000\000"
 179      6C6C645F 
 179      696E6974 
 179      00000000 
 179      00000000 
 180 0016 0000A100 		.ascii	"\000\000\241\000\000\000stm32_clock_init\000\000\000"
 180      00007374 
 180      6D33325F 
 180      636C6F63 
 180      6B5F696E 
 181 002f 00000000 		.ascii	"\000\000\000\000\000\000\000\000\000\246\000\000\000"
 181      00000000 
 181      00A60000 
 181      00
 182 003c 646D6149 		.ascii	"dmaInit\000\000\002\000\000\000\000\000\000\000\000"
 182      6E697400 
 182      00020000 
 182      00000000 
 182      0000
 183 004e 00A90000 		.ascii	"\000\251\000\000\000"
 183      00
 184              		.text
 185              		.section	.gnu.lto_.opts,"",%progbits
ARM GAS  /tmp/ccULPwF1.s 			page 14


 186 0000 272D6D63 		.ascii	"'-mcpu=cortex-m3' '-mno-thumb-interwork' '-mthumb' "
 186      70753D63 
 186      6F727465 
 186      782D6D33 
 186      2720272D 
 187 0033 272D4F32 		.ascii	"'-O2' '-fomit-frame-pointer' '-falign-functions=16'"
 187      2720272D 
 187      666F6D69 
 187      742D6672 
 187      616D652D 
 188 0066 20272D66 		.ascii	" '-ffunction-sections' '-fdata-sections' '-fno-comm"
 188      66756E63 
 188      74696F6E 
 188      2D736563 
 188      74696F6E 
 189 0099 6F6E2720 		.ascii	"on' '-flto'\000"
 189      272D666C 
 189      746F2700 
 190              		.text
 191              		.section	.text.hal_lld_init,"ax",%progbits
 192              		.align	2
 193              		.p2align 4,,15
 194              		.global	hal_lld_init
 195              		.thumb
 196              		.thumb_func
 197              		.type	hal_lld_init, %function
 198              	hal_lld_init:
 199              		@ args = 0, pretend = 0, frame = 0
 200              		@ frame_needed = 0, uses_anonymous_args = 0
 201              		@ link register save eliminated.
 202 0000 0C4B     		ldr	r3, .L2
 203 0002 4FF0FF31 		mov	r1, #-1
 204 0006 0022     		movs	r2, #0
 205 0008 1869     		ldr	r0, [r3, #16]
 206 000a 1961     		str	r1, [r3, #16]
 207 000c 1A61     		str	r2, [r3, #16]
 208 000e D868     		ldr	r0, [r3, #12]
 209 0010 D960     		str	r1, [r3, #12]
 210 0012 DA60     		str	r2, [r3, #12]
 211 0014 D969     		ldr	r1, [r3, #28]
 212 0016 084A     		ldr	r2, .L2+4
 213 0018 41F08051 		orr	r1, r1, #268435456
 214 001c D961     		str	r1, [r3, #28]
 215 001e D969     		ldr	r1, [r3, #28]
 216 0020 41F00061 		orr	r1, r1, #134217728
 217 0024 D961     		str	r1, [r3, #28]
 218 0026 1368     		ldr	r3, [r2]
 219 0028 43F48073 		orr	r3, r3, #256
 220 002c 1360     		str	r3, [r2]
 221 002e FFF7FEBF 		b	dmaInit
 222              	.L3:
 223 0032 00BF     		.align	2
 224              	.L2:
 225 0034 00100240 		.word	1073876992
 226 0038 00700040 		.word	1073770496
 227              		.size	hal_lld_init, .-hal_lld_init
 228 003c AFF30080 		.section	.text.stm32_clock_init,"ax",%progbits
ARM GAS  /tmp/ccULPwF1.s 			page 15


 229              		.align	2
 230              		.p2align 4,,15
 231              		.global	stm32_clock_init
 232              		.thumb
 233              		.thumb_func
 234              		.type	stm32_clock_init, %function
 235              	stm32_clock_init:
 236              		@ args = 0, pretend = 0, frame = 0
 237              		@ frame_needed = 0, uses_anonymous_args = 0
 238              		@ link register save eliminated.
 239 0000 194B     		ldr	r3, .L14
 240 0002 1A68     		ldr	r2, [r3]
 241 0004 1946     		mov	r1, r3
 242 0006 42F00102 		orr	r2, r2, #1
 243 000a 1A60     		str	r2, [r3]
 244              	.L6:
 245 000c 0B68     		ldr	r3, [r1]
 246 000e 164A     		ldr	r2, .L14
 247 0010 9807     		lsls	r0, r3, #30
 248 0012 FBD5     		bpl	.L6
 249 0014 1168     		ldr	r1, [r2]
 250 0016 0023     		movs	r3, #0
 251 0018 01F0F901 		and	r1, r1, #249
 252 001c 1160     		str	r1, [r2]
 253 001e 1146     		mov	r1, r2
 254 0020 5360     		str	r3, [r2, #4]
 255              	.L8:
 256 0022 4B68     		ldr	r3, [r1, #4]
 257 0024 104A     		ldr	r2, .L14
 258 0026 13F00C0F 		tst	r3, #12
 259 002a FAD1     		bne	.L8
 260 002c 5368     		ldr	r3, [r2, #4]
 261 002e 1146     		mov	r1, r2
 262 0030 43F42013 		orr	r3, r3, #2621440
 263 0034 5360     		str	r3, [r2, #4]
 264 0036 1368     		ldr	r3, [r2]
 265 0038 43F08073 		orr	r3, r3, #16777216
 266 003c 1360     		str	r3, [r2]
 267              	.L10:
 268 003e 0B68     		ldr	r3, [r1]
 269 0040 094A     		ldr	r2, .L14
 270 0042 9B01     		lsls	r3, r3, #6
 271 0044 FBD5     		bpl	.L10
 272 0046 094B     		ldr	r3, .L14+4
 273 0048 0948     		ldr	r0, .L14+8
 274 004a 1121     		movs	r1, #17
 275 004c 5060     		str	r0, [r2, #4]
 276 004e 1960     		str	r1, [r3]
 277 0050 5368     		ldr	r3, [r2, #4]
 278 0052 1146     		mov	r1, r2
 279 0054 43F00203 		orr	r3, r3, #2
 280 0058 5360     		str	r3, [r2, #4]
 281              	.L12:
 282 005a 4B68     		ldr	r3, [r1, #4]
 283 005c 03F00C03 		and	r3, r3, #12
 284 0060 082B     		cmp	r3, #8
 285 0062 FAD1     		bne	.L12
ARM GAS  /tmp/ccULPwF1.s 			page 16


 286 0064 7047     		bx	lr
 287              	.L15:
 288 0066 00BF     		.align	2
 289              	.L14:
 290 0068 00100240 		.word	1073876992
 291 006c 00200240 		.word	1073881088
 292 0070 00646800 		.word	6841344
 293              		.size	stm32_clock_init, .-stm32_clock_init
 294              		.comm	__gnu_lto_v1,1,1
 295 0074 AFF30080 		.ident	"GCC: (GNU Tools for ARM Embedded Processors) 4.8.4 20140526 (release) [ARM/embedded-4_8-br
 295      AFF30080 
 295      AFF30080 
ARM GAS  /tmp/ccULPwF1.s 			page 17


DEFINED SYMBOLS
                            *ABS*:0000000000000000 hal_lld.c
     /tmp/ccULPwF1.s:192    .text.hal_lld_init:0000000000000000 $t
     /tmp/ccULPwF1.s:198    .text.hal_lld_init:0000000000000000 hal_lld_init
     /tmp/ccULPwF1.s:225    .text.hal_lld_init:0000000000000034 $d
     /tmp/ccULPwF1.s:229    .text.stm32_clock_init:0000000000000000 $t
     /tmp/ccULPwF1.s:235    .text.stm32_clock_init:0000000000000000 stm32_clock_init
     /tmp/ccULPwF1.s:290    .text.stm32_clock_init:0000000000000068 $d
                            *COM*:0000000000000001 __gnu_lto_v1
     /tmp/ccULPwF1.s:228    .text.hal_lld_init:000000000000003c $t
     /tmp/ccULPwF1.s:295    .text.stm32_clock_init:0000000000000074 $t

UNDEFINED SYMBOLS
dmaInit
