ARM GAS  /tmp/ccBaOaNK.s 			page 1


   1              		.syntax unified
   2              		.cpu cortex-m3
   3              		.fpu softvfp
   4              		.eabi_attribute 20, 1
   5              		.eabi_attribute 21, 1
   6              		.eabi_attribute 23, 3
   7              		.eabi_attribute 24, 1
   8              		.eabi_attribute 25, 1
   9              		.eabi_attribute 26, 1
  10              		.eabi_attribute 30, 2
  11              		.eabi_attribute 34, 1
  12              		.eabi_attribute 18, 4
  13              		.thumb
  14              		.file	"nvic.c"
  15              		.section	.gnu.lto_.jmpfuncs.2495de19c475db40,"",%progbits
  16 0000 789C6362 		.ascii	"x\234cb`b\300\0068\24043\0033##\0233\003\000\001\203"
  16      6062C006 
  16      38A03433 
  16      03332323 
  16      13330300 
  17 0016 001A     		.ascii	"\000\032"
  18              		.text
  19              		.section	.gnu.lto_.inline.2495de19c475db40,"",%progbits
  20 0000 789C6362 		.ascii	"x\234cb`b\300\006R\24143\003\003\027'#\023##\210\003"
  20      6062C006 
  20      52A13433 
  20      03031727 
  20      23132323 
  21 0016 2258D83E 		.ascii	"\"X\330>\3501\260-\220gb`\272\300\317\302\000\344q\000"
  21      E831B02D 
  21      90676260 
  21      BAC0CFC2 
  21      00E47100 
  22 002a 45398072 		.ascii	"E9\200r\034\354@U %\314,\013\344!J\200\262, =@KXY\030"
  22      1CEC4055 
  22      2025CC2C 
  22      0BE4214A 
  22      80B22C20 
  23 0044 19C1A630 		.ascii	"\031\301\2460\003\365!\031\000\002\000\375\357\011\371"
  23      03F52119 
  23      000200FD 
  23      EF09F9
  24              		.text
  25              		.section	.gnu.lto_.pureconst.2495de19c475db40,"",%progbits
  26 0000 789C6362 		.ascii	"x\234cb`b`g\200\000f\006)F)&)\000\001\313\000`"
  26      60626067 
  26      80006606 
  26      29462926 
  26      290001CB 
  27              		.text
  28              		.section	.gnu.lto_nvicEnableVector.2495de19c475db40,"",%progbits
  29 0000 789C9D51 		.ascii	"x\234\235Q;O\002A\020\236\331\343\344\200\004KB%\261"
  29      3B4F0241 
  29      109ED9E3 
  29      E480044B 
  29      4225B1
  30 0013 35B27616 		.ascii	"5\262v\026\026F\215\205\005\215\301DK8\010\\\024\316"
ARM GAS  /tmp/ccBaOaNK.s 			page 2


  30      16468D85 
  30      058DC144 
  30      4B38085C 
  30      14CE
  31 0025 0012AD38 		.ascii	"\000\022\25588l\254\250Q\203\304\316\370h\2156\006+"
  31      386CACA8 
  31      5183C4CE 
  31      F8688D36 
  31      062B
  32 0037 0B34FE03 		.ascii	"\0134\376\003jM\264 \261\004g\227\207\221\020\0137\271"
  32      6A4DB420 
  32      B1046797 
  32      8791100B 
  32      37B9
  33 0049 9DD737DF 		.ascii	"\235\3277\337\314w\313\200\301\350\361\323\027\243\364"
  33      CC77CB80 
  33      C1E8F1D3 
  33      17A3F4
  34 0058 2A595400 		.ascii	"*YT\000Y\345\031\240\2501D\341\000B\201aa\013\005\024"
  34      59E519A0 
  34      A83144E1 
  34      00428161 
  34      610B0514 
  35 006c A7A16E59 		.ascii	"\247\241nY\225\326a\355\324\177tV\252X\235n\027\015"
  35      95D661ED 
  35      D47F7456 
  35      AA589D6E 
  35      170D
  36 007e 24D26504 		.ascii	"$\322e\004\035a\223\002\014H\303\034\277\247\334\260"
  36      1D619302 
  36      0C48C31C 
  36      BFA7DCB0 
  37 008e 8756B77B 		.ascii	"\207V\267{\362R\375\362y\021S\242\307@E\021\227J!:\311"
  37      F252FDF2 
  37      791153A2 
  37      C7404511 
  37      974A213A 
  38 00a3 736810C1 		.ascii	"sh\020\301:\015qQ\000nqyD\232\332U(\323\340\000\210"
  38      3A0D7151 
  38      006E7179 
  38      449ADA55 
  38      28D3E000 
  39 00b8 2974C274 		.ascii	")t\302t\213\3556\220\011\2534\241\364n\177\266Y\004"
  39      8BED3690 
  39      09AB34A1 
  39      F46E7FB6 
  39      5904
  40 00ca CF518504 		.ascii	"\317Q\205\004\262\004\022\242\011\366\2252H)\224\025"
  40      B20412A2 
  40      09F69532 
  40      48299415 
  41 00da 8BA982AE 		.ascii	"\213\251\202\256\011\215\265^a\026.\255r\321\232\247"
  41      098DB55E 
  41      61162EAD 
  41      72D19AA7 
  42 00ea C20C5C08 		.ascii	"\302\014\\\010w\322\300\211c\250\022\324)\360\232\325"
  42      77D2C089 
ARM GAS  /tmp/ccBaOaNK.s 			page 3


  42      63A812D4 
  42      29F09AD5 
  43 00fa B02DAFD4 		.ascii	"\260-\257\324\244I%Q\354)JP\367\300S\344\260k\273\375"
  43      A4492551 
  43      EC294A50 
  43      F7C053E4 
  43      B06BBBFD 
  44 010e 385CC149 		.ascii	"8\\\301Iu\321\004\252\234W\372\260\337pP\323d/u\334"
  44      75D104AA 
  44      9C57FAB0 
  44      DF7050D3 
  44      642F75DC 
  45 0122 0FD77351 		.ascii	"\017\327sQV\302\247`dq\267L\243\300\364\211\356\206"
  45      56C2A760 
  45      6471B74C 
  45      A3C0F489 
  45      EE86
  46 0134 441E2A8F 		.ascii	"D\036*\217Q\263`\240\353G\215\373o5\330\327\340\034"
  46      51B360A0 
  46      EB478DFB 
  46      6F35D8D7 
  46      E01C
  47 0146 AAF148CA 		.ascii	"\252\361H\312\247\333\232\357\377\254l\034\353+\024"
  47      A7DB9AEF 
  47      FFAC6C1C 
  47      EB2B14
  48 0155 5B9DFE1F 		.ascii	"[\235\376\037\032\2340-@O(\360\213<i\246\342\\7c\007"
  48      1A9C302D 
  48      404F28F0 
  48      8B3C69A6 
  48      E25C3763 
  49 016a 3C16CF73 		.ascii	"<\026\317s=iD\0153\313s\231\275\3646''\031\331\341\273"
  49      3D69440D 
  49      33CB7399 
  49      BDF43627 
  49      2719D9E1 
  50 017f 66269725 		.ascii	"f&\227%L*e\246\371\322zh%\264\317\323yC\017\352\240"
  50      4C2A65A6 
  50      F9D27A68 
  50      25B4CFD3 
  50      79430FEA 
  51 0194 A48373DF 		.ascii	"\244\203s\337P\236\235K"
  51      509E9D4B 
  52              		.text
  53              		.section	.gnu.lto_nvicDisableVector.2495de19c475db40,"",%progbits
  54 0000 789C7D90 		.ascii	"x\234}\220\277/CQ\024\307\317\367\276\367\3322\020\243"
  54      BF2F4351 
  54      14C7CFF7 
  54      BEF7DA32 
  54      10A3
  55 0012 49C32211 		.ascii	"I\303\"\021\2751\031\014\202\030\014]\244\022\306z\232"
  55      BD31190C 
  55      82180C5D 
  55      A412C67A 
  55      9A
  56 0023 F685F649 		.ascii	"\366\205\366I\2130\365\325\353h\350`P\026\215M\374\334"
  56      8B30F5D5 
ARM GAS  /tmp/ccBaOaNK.s 			page 4


  56      EB68E860 
  56      50168D4D 
  56      FCDC
  57 0035 8441D3BD 		.ascii	"\204A\323\275\302\314\320\020\006\203\370\003$u\356"
  57      C2CCD010 
  57      0683F803 
  57      2475EE
  58 0044 6B4B6A70 		.ascii	"kKjp\222{\317\271\337s\316\347\334\034A\202\376Z/\237"
  58      927BCFB9 
  58      DF73CEE7 
  58      DC1C4182 
  58      FE5A2F9F 
  59 0058 47104DB3 		.ascii	"G\020M\263\207F\020\205;\242\\@\000* PV \273\000U\212"
  59      87461085 
  59      3BA25C40 
  59      002A2050 
  59      5620BB00 
  60 006e 7E2A394E 		.ascii	"~*9N\241\366\372r\257\025w\313\371C\347\253^\007,0v"
  60      A1F6FA72 
  60      AF1577CB 
  60      F943E7AB 
  60      5E072C30 
  61 0083 126482E6 		.ascii	"\022d\202\346\371\201\240\347\204\336>\347\\\224k\365"
  61      F981A0E7 
  61      84DE3EE7 
  61      5C946BF5 
  62 0093 FAD3E5C5 		.ascii	"\372\323\345\305s\021=\235@RuY\3204\212\242\304d\235"
  62      73113D9D 
  62      40527559 
  62      D0348AA2 
  62      C4649D
  63 00a6 1F64A8CB 		.ascii	"\037d\250\313\247d\3560(\317\323\202\244\300l\021\276"
  63      A764EE30 
  63      28CFD382 
  63      A4C06C11 
  63      BE
  64 00b7 D597E620 		.ascii	"\325\227\346 \224\327\252\344\236\271\267;\203Q\034"
  64      94D7AAE4 
  64      9EB9B73B 
  64      83511C
  65 00c6 C1A03844 		.ascii	"\301\2408D\034P\203\271\217\250J\333\037\356;Z9\215"
  65      1C5083B9 
  65      8FA84ADB 
  65      1FEE3B5A 
  65      398D
  66 00d8 734A746F 		.ascii	"sJto\264\226\244\263\352\225\367y\345\356\351O\306\360"
  66      B496A4B3 
  66      EA95F779 
  66      E5EEE94F 
  66      C6F0
  67 00ea 64A89A26 		.ascii	"d\250\232&\350\372\007\344\343\264\022+3\015e\230N\234"
  67      E8FA07E4 
  67      E3B4122B 
  67      330D6598 
  67      4E9C
  68 00fc 7CCE19B3 		.ascii	"|\316\031\263\240\017\321\261\012\273-\030\007\264\317"
  68      A00FD1B1 
ARM GAS  /tmp/ccBaOaNK.s 			page 5


  68      0ABB2D18 
  68      07B4CF
  69 010b 089FE2F8 		.ascii	"\010\237\342\370\235\212\353ty\033\361{{XDc\037\374"
  69      9D8AEB74 
  69      791BF17B 
  69      7B584463 
  69      1FFC
  70 011d 616A453E 		.ascii	"ajE>\017y\265\367\366)\332\260\243\026\002\277\330\216"
  70      0F79B5F7 
  70      F629DAB0 
  70      A31602BF 
  70      D88E
  71 012f FFB168C2 		.ascii	"\377\261h\302\232|/\027P\301\003\345j\305\201\006\270"
  71      9A7C2F17 
  71      50C103E5 
  71      6AC58106 
  71      B8
  72 0140 65112EE3 		.ascii	"e\021.\343%\252/\214\313\204\235\214I\323^\332\222K"
  72      25AA2F8C 
  72      CB849D8C 
  72      49D35EDA 
  72      924B
  73 0152 B10D6926 		.ascii	"\261\015i&\254E\313\316\310\265\364zjYr\220\210\256"
  73      AC45CBCE 
  73      C8B5F47A 
  73      6A597290 
  73      88AE
  74 0164 C8553BBD 		.ascii	"\310U;\275\226\341\232d\322N\311\211\331\360TxS\246"
  74      96E19A64 
  74      D24EC989 
  74      D9F05478 
  74      53A6
  75 0176 362C3364 		.ascii	"6,3d\222\226\012\215|\003\347\006\203N"
  75      92960A8D 
  75      7C03E706 
  75      834E
  76              		.text
  77              		.section	.gnu.lto_nvicSetSystemHandlerPriority.2495de19c475db40,"",%progbits
  78 0000 789C5D50 		.ascii	"x\234]P\261J\003A\020}\263\233C\033\355\355\204\224"
  78      B14A0341 
  78      107DB39B 
  78      431BEDED 
  78      8494
  79 0012 12B7B494 		.ascii	"\022\267\264\224`e\221F\"h\231lBn\321\273\225$\006\255"
  79      60659146 
  79      2268996C 
  79      426ED1BB 
  79      952406AD 
  80 0026 B2E7053B 		.ascii	"\262\347\005;!\265V\266b\316\322V-\354\"hi\225^\374"
  80      21B556B6 
  80      62CED256 
  80      2DEC2268 
  80      69955EFC 
  81 003a 86387BC7 		.ascii	"\2068{\3075\016\314\314\333\2317\217\307\012\010\374"
  81      350ECCCC 
  81      DB99378F 
  81      C70A08FC 
ARM GAS  /tmp/ccBaOaNK.s 			page 6


  82 004a 8F0DCE5F 		.ascii	"\217\015\316_\316:'I\220\230~\000\311\252 \362\000\204"
  82      CE3A2749 
  82      90987E00 
  82      C9AA20F2 
  82      0084
  83 005c B1A0F131 		.ascii	"\261\240\3611\345\334'\361\262X.\263\257\353\367W\312"
  83      E5DC27F1 
  83      B2582EB3 
  83      AFEBF757 
  83      CA
  84 006d AA2B4411 		.ascii	"\252+D\021\261\242!H_\002~z^\200\211s\323M@\347WM\256"
  84      B1A22148 
  84      5F027E7A 
  84      5E808973 
  84      D34D40E7 
  85 0084 5EEA9084 		.ascii	"^\352\220\204\357r\216\253\237\364\371\246\326\242{"
  85      EF728EAB 
  85      9FF4F9A6 
  85      D6A27B
  86 0093 0AD023D1 		.ascii	"\012\320#\321\363Ws\2443Y\216$O\217\310\020U\3407o\373"
  86      F35773A4 
  86      33598E24 
  86      4F8FC810 
  86      55E0376F 
  87 00a8 C5A28647 		.ascii	"\305\242\206G7I\334\016/\266\360\340\341\232!q\207["
  87      3749DC0E 
  87      2FB6F0E0 
  87      E19A2171 
  87      875B
  88 00ba A64ACFAF 		.ascii	"\246J\317\257\270\357\324\255#\207\271\341v\341\233"
  88      B8EFD4AD 
  88      2387B9E1 
  88      76E19B
  89 00c9 25039448 		.ascii	"%\003\224H\002\237H\026Y\265\020-\243\311.\330\236\377"
  89      029F4816 
  89      59B5102D 
  89      A3C92ED8 
  89      9EFF
  90 00db A05D15DA 		.ascii	"\240]\025\332\250\253\264\355\\\252Nw\244th\332\306"
  90      A8ABB4ED 
  90      5CAA4E77 
  90      A47468DA 
  90      C6
  91 00ec 0ED4B07F 		.ascii	"\016\324\260\177\036\237(\006a\353T\235\331\376p\300"
  91      1E9F2806 
  91      61EB549D 
  91      D9FE70C0 
  92 00fc 9C28B2B1 		.ascii	"\234(\262\261\252\0374\366\032\027*\036\031\275\255"
  92      AA1F34F6 
  92      1A172A1E 
  92      19BDAD
  93 010b F107263F 		.ascii	"\361\007&?Nb"
  93      4E62
  94              		.text
  95              		.section	.gnu.lto_.symbol_nodes.2495de19c475db40,"",%progbits
  96 0000 789C6362 		.ascii	"x\234cb`b\320g\200\002\246\343\214\365\014\014\023\316"
  96      6062D067 
ARM GAS  /tmp/ccBaOaNK.s 			page 7


  96      8002A6E3 
  96      8CF50C0C 
  96      13CE
  97 0012 3130D4D7 		.ascii	"10\324\327\317\353`d:\301X\317\210\304=\311X\317\204"
  97      CFEB6064 
  97      3AC158CF 
  97      88C43DC9 
  97      58CF84
  98 0025 E0320000 		.ascii	"\3402\000\000]\243\016\236"
  98      5DA30E9E 
  99              		.text
 100              		.section	.gnu.lto_.refs.2495de19c475db40,"",%progbits
 101 0000 789C6362 		.ascii	"x\234cb`b`d\200\002\000\000F\000\006"
 101      60626064 
 101      80020000 
 101      460006
 102              		.text
 103              		.section	.gnu.lto_.decls.2495de19c475db40,"",%progbits
 104 0000 789CAD58 		.ascii	"x\234\255XmlSU\030>\347\266c+,c\020DHH\030\011\250\301"
 104      6D6C5355 
 104      183EE7B6 
 104      632B2C63 
 104      10444848 
 105 0018 401130A0 		.ascii	"@\0210\240\211\310\350\206\353\217\341\322\302\342\277"
 105      89C8E886 
 105      EB8FE1D2 
 105      C2E2BF
 106 0027 EDD255D7 		.ascii	"\355\322U\327\270\265K\327\021\366\357n\343K\005\035"
 106      B8B54BD7 
 106      11F6EF6E 
 106      E34B051D 
 107 0037 3022A22E 		.ascii	"0\"\242.\005\266\210\310\0241\300 \313\254$\303E\344"
 107      05B688C8 
 107      1431C020 
 107      CBAC24C3 
 107      45E4
 108 0049 C36D1404 		.ascii	"\303m\024\004t%\004\011Q\002L\220\311\207\363=\247\367"
 108      74250409 
 108      51024C90 
 108      C987F33D 
 108      A7F7
 109 005b DE9E7BDB 		.ascii	"\336\236{\333\323\335k\274\311y{n\357{\236\363<\357"
 109      D3DD6BBC 
 109      C9797B6E 
 109      EF7B9EF3 
 109      3CEF
 110 006d 79CFB96F 		.ascii	"y\317\271o+ \001\315\303\010\215\300\265h\012B\317\012"
 110      2B2001CD 
 110      C3088DC0 
 110      B5680A42 
 110      CF0A
 111 007f 08591142 		.ascii	"\010Y\021BKP\342\262@\333\015\355\020\264N\224|\221"
 111      4B50E2B2 
 111      40DB0DED 
 111      10B44E94 
 111      7C91
 112 0091 67E3507C 		.ascii	"g\343P|\\\016\264lh\000\2112\241uC\353\201\326\013\355"
ARM GAS  /tmp/ccBaOaNK.s 			page 8


 112      5C0EB46C 
 112      68008932 
 112      A17543EB 
 112      81D60BED 
 113 00a5 2EB4B3D0 		.ascii	".\264\263\320\316\310\2307\241\015B;-\373\023\034\230"
 113      CEC89837 
 113      A10D423B 
 113      2DFB131C 
 113      98
 114 00b6 1E7D05AD 		.ascii	"\036}\005\255C7\007\231{\254n\216L\006O\301W\346#8\027"
 114      43370799 
 114      7BAC6E8E 
 114      4C064FC1 
 114      57E62338 
 115 00cb E439B03C 		.ascii	"\3449\260<\236|\036\321\341\022=\031\36232v\010\332"
 115      9E7C1ED1 
 115      E1123D19 
 115      F2333276 
 115      08DA
 116 00dd 7D6873B0 		.ascii	"}hs\260\254A\376\354\2241\273\240\035\327aLG\255R8\026"
 116      AC41FEEC 
 116      9431BBA0 
 116      1DD7614C 
 116      47AD5238 
 117 00f2 6B6F3D85 		.ascii	"ko=\205\245m\322\343\221\021\013\232\214vHp\2057H\022"
 117      A56DD2E3 
 117      91110B9A 
 117      8C764870 
 117      85374812 
 118 0106 0E8978C9 		.ascii	"\016\211x\311S\350\015,\342\034\033\312\243\235l\033"
 118      53E80D2C 
 118      E21C1BCA 
 118      A39D6C1B 
 119 0116 15829088 		.ascii	"\025\202\220\210\367\340\311r\220\011<\262\241M\222"
 119      F7E0C972 
 119      90093CB2 
 119      A14D92
 120 0125 D4480616 		.ascii	"\324H\006\026\365\202\316T\243f\2416Ij\216\355\330\320"
 120      F582CE54 
 120      A366A136 
 120      496A8EED 
 120      D8D0
 121 0137 F31D6E04 		.ascii	"\363\035n\004|\021\267a\033\214~\013\243\331\350s\230"
 121      7C11B761 
 121      1B8C7E0B 
 121      A3D9E873 
 121      98
 122 0148 B519105E 		.ascii	"\265\031\020^\306)\026\3128\370\340\306\256\227$)K\304"
 122      C62916CA 
 122      38F8E0C6 
 122      AE972429 
 122      4BC4
 123 015a FB28F401 		.ascii	"\373(\364\001\214\201\352gx\266\014$\342L\033\013L\357"
 123      8C81EA67 
 123      78B60C24 
 123      E24C1B0B 
 123      4CEF
ARM GAS  /tmp/ccBaOaNK.s 			page 9


 124 016c 15078246 		.ascii	"\025\007\202F\037\313\035\222Z\343\221Yw9\036qq\264"
 124      1FCB1D92 
 124      5AE39159 
 124      77391E71 
 124      71B4
 125 017e B3CAA202 		.ascii	"\263\312\242\002\010\350\250\216\321L\264W\222\266\301"
 125      08E8A88E 
 125      D14CB457 
 125      92B6C1
 126 018d 1AB44D95 		.ascii	"\032\264M\225\302\202\022\222^\352\265\033OO\251U\306"
 126      C2821292 
 126      5EEAB51B 
 126      4F4FA955 
 126      C6
 127 019e 8E0F958E 		.ascii	"\216\017\225\216y\213\224a?\030\031\206\3203\250\235"
 127      798B9461 
 127      3F181986 
 127      D033A89D 
 128 01ae 2CF21669 		.ascii	",\362\026i}.\246k\214\344Q\032\251\007\260\220\234,"
 128      7D2EA66B 
 128      8CE4511A 
 128      A907B090 
 128      9C2C
 129 01c0 915D27B3 		.ascii	"\221]'\263\233\033b##\323\215g\3127\332L\211\323\320"
 129      9B1B6223 
 129      23D38D67 
 129      CA37DA4C 
 129      89D3D0
 130 01d3 85E56CCA 		.ascii	"\205\345l\312\260H\333\025m\"\376\022\350\210\370\320"
 130      B048DB15 
 130      6D22FE12 
 130      E888F8D0 
 131 01e3 7FD27648 		.ascii	"\177\322vH\257\355pJm}\212\266xv\013\350jjVL\304\377"
 131      AFED704A 
 131      6D7D8AB6 
 131      78760BE8 
 131      6A6A564C 
 132 01f9 A11E9D86 		.ascii	"\241\036\235\206\026\352IB\314A*f\224a\0341\235z1\307"
 132      16EA4942 
 132      CC412A66 
 132      94611C31 
 132      9D7A31C7 
 133 020d B462E866 		.ascii	"\264b\350fi\222b\355\322\224\235\211\315\222\245L@\366"
 133      699262ED 
 133      D2949D89 
 133      CD92A54C 
 133      40F6
 134 021f 97BA133B 		.ascii	"\227\272\023;\236\207\315\"\357\256t\003D\374-\236\005"
 134      9E87CD22 
 134      EFAE7403 
 134      44FC2D9E 
 134      05
 135 0230 166BD31F 		.ascii	"\026k\323\037\333\022\235\021L\326q\203\240\215\230"
 135      DB129D11 
 135      4CD67183 
 135      A08D98
 136 023f 016C75E7 		.ascii	"\001lu\347\266.\246;\367\004\015\354\373\202~\347b\335"
ARM GAS  /tmp/ccBaOaNK.s 			page 10


 136      B62EA63B 
 136      F7040DEC 
 136      FB827EE7 
 136      62DD
 137 0251 CE1D858B 		.ascii	"\316\035\205\213\031\337\011\250\231\3049og\216\210"
 137      19DF09A8 
 137      99C4396F 
 137      678E88
 138 0260 BBE13B99 		.ascii	"\273\341;\231\2464^\341y'\016\310\372E\322\370\211\370"
 138      A6345EE1 
 138      79270EC8 
 138      FA45D2F8 
 138      89F8
 139 0272 249E90D0 		.ascii	"$\236\220\320/\311'\027u\341\355\222\357e}\362\327j"
 139      2FC92717 
 139      75E1ED92 
 139      EF657DF2 
 139      D76A
 140 0284 E736D628 		.ascii	"\3476\326(Q\334\320D\264\225ra\016\304p\014+\243\326"
 140      51DCD044 
 140      B4957261 
 140      0EC4700C 
 140      2BA3D6
 141 0297 4D4B44F6 		.ascii	"MKD\366n\337\203\002\032\331^<\021\"\033\325E\326\000"
 141      6EDF8302 
 141      1AD95E3C 
 141      11221BD5 
 141      45D600
 142 02aa 1099F814 		.ascii	"\020\231\370\024\014\216\017\243\260R\344\353\376l\311"
 142      0C8E0FA3 
 142      B052E4EB 
 142      FE6CC9
 143 02b9 1AFF1E69 		.ascii	"\032\377\036i\0005\327\014\024\226\3265D\016\367\267"
 143      0035D70C 
 143      1496D635 
 143      440EF7B7 
 144 02c9 60297C02 		.ascii	"`)|\002+\021\354\315\221\3234\335\231.\342v\232u\243"
 144      2B11ECCD 
 144      91D334DD 
 144      992EE276 
 144      9A75A3
 145 02dc 1FBACA42 		.ascii	"\037\272\312B\010\312\360<\315z\221\320\2671\353\245"
 145      08CAF03C 
 145      CD7A91D0 
 145      B731EBA5 
 146 02ec 7313F139 		.ascii	"s\023\3619\323\313\365\023g\27125\253\245xA\330c4\354"
 146      D3CBF513 
 146      67B93235 
 146      ABA57841 
 146      D86334EC 
 147 0300 245A2959 		.ascii	"$Z)Y\2508\012h\216\232\356$\204\020\357#\356f\221'h"
 147      A8380A68 
 147      8E9AEE24 
 147      8410EF23 
 147      EE669127 
 148 0315 8C32BE5C 		.ascii	"\2142\276\\\236x\300\264\240\363\034AO#E\301\365$\005"
 148      9E78C0B4 
ARM GAS  /tmp/ccBaOaNK.s 			page 11


 148      A0F31C41 
 148      4F2345C1 
 148      F52405
 149 0328 9A693521 		.ascii	"\232i5!MV\000I\320\011\012D|\006\250\011\350\266\241"
 149      4D560049 
 149      D0090A44 
 149      7C06A809 
 149      E8B6A1
 150 033b 7048981F 		.ascii	"pH\230\037\217\343\024m\200\242\3353D-\314C\003n]\014"
 150      8FE3146D 
 150      80A2DD33 
 150      442DCC43 
 150      036E5D0C 
 151 034f B727C6B8 		.ascii	"\267'\306\270\011|n\335\014\267F\213!n<4\340v\216\341"
 151      097C6EDD 
 151      0CB7468B 
 151      216E3C34 
 151      E0768EE1 
 152 0363 B639092D 		.ascii	"\2669\011-%7\013\237[\037\303m\2531n<4\3406\300p\373"
 152      25370B9F 
 152      5B1FC36D 
 152      AB316E3C 
 152      34E036C0 
 153 0379 D818372B 		.ascii	"\330\0307+\237[4M\216\347(\0001\345\220\375\315t\222"
 153      9F5B344D 
 153      8EE72800 
 153      31E590FD 
 153      CD7492
 154 038c DFE024F9 		.ascii	"\337\340$\371\"5\311\303I\032\264\363*!\341\211\200"
 154      2235C9C3 
 154      491AB4F3 
 154      2A21E189 
 154      80
 155 039d 905C741F 		.ascii	"\220\\t\037,\027q\017\015\311\376$8\355\273B\211\311"
 155      2C17710F 
 155      0DC9FE24 
 155      38EDBB42 
 155      89C9
 156 03af 187E4C2E 		.ascii	"\030~L.\245\211\311n\365\234n\236$K\374\303tPnq\202"
 156      A589C96E 
 156      F59C6E9E 
 156      244BFCC3 
 156      74506E71 
 157 03c4 D294A146 		.ascii	"\322\224\241F\245#I\206nfES&/,M\221+\375\331$U\316\322"
 157      A5234986 
 157      6E664553 
 157      262F2C4D 
 157      912BFDD9 
 158 03dc D7FB513D 		.ascii	"\327\373Q=\240\206\225\022\225i)\320R]\354\333I\304"
 158      A0869512 
 158      956929D0 
 158      525DECDB 
 158      49C4
 159 03ee 3FD297C6 		.ascii	"?\322\227\306i<\003l?\265\027\250\375\231\332\313\324"
 159      693C036C 
 159      3FB517A8 
 159      FD99DACB 
ARM GAS  /tmp/ccBaOaNK.s 			page 12


 159      D4
 160 03ff FE42ED20 		.ascii	"\376B\355 \265W\251\275F\355ujoR\373;\265\267\301\252"
 160      B557A9BD 
 160      46ED756A 
 160      6F52FB3B 
 160      B5B7C1AA 
 161 0413 D738F46E 		.ascii	"\3278\364n\342\207H\374\205\312\213\352]<N\031\305)"
 161      E28748FC 
 161      85CA8BEA 
 161      5D3C4E19 
 161      C529
 162 0425 2FCA9521 		.ascii	"/\312\225!\331I^\021\256\227\210\3774\275\300\3678\013"
 162      D9495E11 
 162      AE9788FF 
 162      34BDC0F7 
 162      380B
 163 0437 AC12D478 		.ascii	"\254\022\324x\245*\010bj\305\2669Q\262EF\2428O\304\367"
 163      A52A0862 
 163      6AC5B639 
 163      51B24546 
 163      A2384FC4 
 164 044c 6955D165 		.ascii	"iU\321e\031\265\252\320\201\2209\207\223\212\212(-*"
 164      19B5AAD0 
 164      81903987 
 164      938A8A28 
 164      2D2A
 165 045e 86472F2A 		.ascii	"\206G/*Z\232\"\207\243-SIQ\241\226\022\221\377\241\224"
 165      5A9A2287 
 165      A32D5349 
 165      51A19612 
 165      91FFA194 
 166 0472 10500F95 		.ascii	"\020P\017\2252\234>7\021?\321\217D\231D?e\032,O\003"
 166      329C3E37 
 166      113FD18F 
 166      4499443F 
 166      651A2C4F 
 167 0487 D6C9829D 		.ascii	"\326\311\202\2353\002\226\305gv\234\005;o\032L\313\254"
 167      330296C5 
 167      67769C05 
 167      3B6F1A4C 
 167      CBAC
 168 0499 8B05BB6C 		.ascii	"\213\005\273l\004,\227\317\254\233\005\0334\015\306"
 168      042C97CF 
 168      AC9B051B 
 168      340DC6
 169 04a8 3283F765 		.ascii	"2\203\367e)9\200\207\350\001|M\217\245\331Orw\012\237"
 169      29398087 
 169      E8017C4D 
 169      8FA5D94F 
 169      72770A9F 
 170 04bc 581F4BEC 		.ascii	"X\037K\354\206\021by\374\220\015\260`\267\214\200=\307"
 170      86116279 
 170      FC900DB0 
 170      60B78C80 
 170      3DC7
 171 04ce 671665C1 		.ascii	"g\026e\301\206L\203i\231]d\301\036\030\001\233\307g"
 171      864C8369 
ARM GAS  /tmp/ccBaOaNK.s 			page 13


 171      995D64C1 
 171      1E18019B 
 171      C767
 172 04e0 7689057B 		.ascii	"v\211\005{l\032L\313\354\012\013\326h5\000\266\230\317"
 172      6C1A4CCB 
 172      EC0A0BD6 
 172      683500B6 
 172      98CF
 173 04f2 EC57166C 		.ascii	"\354W\026l\243i0\206YKC\344N\251\372b\016/%G\360\243"
 173      A3693086 
 173      594B43E4 
 173      4EA9FA62 
 173      0E2F2547 
 174 0508 C4A9BD54 		.ascii	"\304\251\275T\273\2014nm\\7\021\177$\230=\334w\011\251"
 174      BB81346E 
 174      6D5C3711 
 174      7F24983D 
 174      DC7709A9 
 175 051c 0F77EDCF 		.ascii	"\017w\355\317F\305\213T\220z\331\032\022rw)'\206p\352"
 175      46C58B54 
 175      907AD91A 
 175      12727729 
 175      278670EA 
 176 0530 0EC563F8 		.ascii	"\016\305c\370\210\306\260\331H\014\213\370`\367X\260"
 176      88C6B0D9 
 176      480C8BF8 
 176      60F758B0 
 177 0540 16D360DA 		.ascii	"\026\323`\332\005\371\253T[)1\353!\251\345J.\273 I\005"
 177      05F9AB54 
 177      5B2931EB 
 177      21A9E54A 
 177      2EBB2049 
 178 0555 95CE4DC4 		.ascii	"\225\316M\304{L/\310^\316\202$\376\356b\275@\366N\275"
 178      7B4C2FC8 
 178      5ECE8224 
 178      FEEE62BD 
 178      40F64EBD 
 179 0569 6C2D0BB9 		.ascii	"l-\013\271[\302\013bCd\230\257;\254BMJ\247[\357\006"
 179      5BC20B62 
 179      436498AF 
 179      3BAC424D 
 179      4AA75BEF 
 180 057e EF48D3BA 		.ascii	"\357H\323\272\367qt[5\272\367%t\177\252\327\255e!w\313"
 180      F771745B 
 180      35BAF725 
 180      747FAAD7 
 180      AD652177 
 181 0593 39BAA158 		.ascii	"9\272\241XxXJr\2070\025q\224\376\2436\032X\015'y\340"
 181      78584A72 
 181      87301571 
 181      94FEA336 
 181      1A580D27 
 182 05a9 6878CC1E 		.ascii	"hx\314\036\015{\214d\342\246T?'S]l\235#\342\277i!\362"
 182      0D7B8C64 
 182      E2A6543F 
 182      27535D6C 
 182      9D23E2BF 
ARM GAS  /tmp/ccBaOaNK.s 			page 14


 183 05c0 9016974F 		.ascii	"\220\026\227O\250\035\241\266A \266\211\332\365\324"
 183      A81DA1B6 
 183      4120B689 
 183      DAF5D4
 184 05cf 6EA4F61D 		.ascii	"n\244\366\035j\337\243v\013\265\037P\273\225\332\355"
 184      6ADFA376 
 184      0BB51F50 
 184      BB95DAED 
 185 05df D4EEA0F6 		.ascii	"\324\356\240\366Cj?\241\266\225\3320\265\355\324\356"
 185      436A3FA1 
 185      B695DA30 
 185      B5EDD4EE 
 186 05ef A7F60B81 		.ascii	"\247\366\013\201_\316\336OS\316v\010\211j\361U{e\240"
 186      5FCEDE4F 
 186      53CE7608 
 186      896AF155 
 186      7B65A0
 187 0602 DA6BF704 		.ascii	"\332k\367\004*\352\355\025\3365vO\245o\265/Pk\017\005"
 187      2AEAED15 
 187      DE35764F 
 187      A56FB52F 
 187      506B0F05 
 188 0616 EBFC6FDB 		.ascii	"\353\374o\333\241S)V\331k\002\301P-\370TW\007\374\366"
 188      A1532956 
 188      D96B02C1 
 188      502DF854 
 188      5707FCF6 
 189 062a 7C57B1A3 		.ascii	"|W\261\243x\255\335\277\306\347\231\353A3\355u\265A"
 189      78ADDDBF 
 189      C6E799EB 
 189      4133ED75 
 189      B541
 190 063c BB18AC9E 		.ascii	"\273\030\254\236\343\017\370\275s\274\342j\237\335\347"
 190      E30FF8BD 
 190      73BCE26A 
 190      9FDDE7
 191 064b F754D555 		.ascii	"\367T\325Ux\355\265\241\012\237?4\267\022e\325\301\347"
 191      78EDB5A1 
 191      0A9F3F34 
 191      B71265D5 
 191      C1E7
 192 065d 82F965A1 		.ascii	"\202\371e\2411\257\255X\225\347@\013\323\014\252\026"
 192      31AFAD58 
 192      95E7400B 
 192      D30CAA16 
 193 066d 8182DF6B 		.ascii	"\201\202\337k/\253\360\276)\326U\205\312B\3655\336Z"
 193      2FABF0BE 
 193      29D65585 
 193      CA42F535 
 193      DE5A
 194 067f 00195B56 		.ascii	"\000\031[V\246\300\344\222\311\013\375\342\352*o\251"
 194      A6C0E492 
 194      C90BFDE2 
 194      EA2A6FA9 
 195 068f D7130A04 		.ascii	"\327\023\012\004\261\337Z\023\364\005&\220\357\013|"
 195      B1DF5A13 
 195      F4052690 
ARM GAS  /tmp/ccBaOaNK.s 			page 15


 195      EF0B7C
 196 069e B58907D3 		.ascii	"\265\211\007\323\3107no\310]_\033\362V\027\211\376\212"
 196      C8376E6F 
 196      C85D5F1B 
 196      F2561789 
 196      FE8A
 197 06b0 2A6FB004 		.ascii	"*o\260\004\\\203\276P}fe\374>\223\340..\013\331\342"
 197      5C83BE50 
 197      7D6665FC 
 197      3E93E02E 
 197      2E0BD9E2 
 198 06c4 3340EF95 		.ascii	"3@\357\225\321\242\342]\033\262;\212\335N\267\312\333"
 198      D1A2E25D 
 198      1BB23B8A 
 198      DD4EB7CA 
 198      DB
 199 06d5 13087ACB 		.ascii	"\023\010z\313<\325\013\200\251mE\251\323Q\266\022x["
 199      3CD50B80 
 199      A96D45A9 
 199      D351B612 
 199      785B
 200 06e7 9DEE4297 		.ascii	"\235\356B\227\315U\010\266\264\260`\236\325\351(te\271"
 200      CD5508B6 
 200      B4B0609E 
 200      D5E92874 
 200      65B9
 201 06f9 E2772FC0 		.ascii	"\342w/\300\303\222\304\303\371\360\220\271]`u\346/K"
 201      C392C4C3 
 201      F9F090B9 
 201      5D6075E6 
 201      2F4B
 202 070b DC2E149C 		.ascii	"\334.\024\234%\352\315\213V\367J\247+\313\355XF'\311"
 202      25EACD8B 
 202      56F74AA7 
 202      2BCBED58 
 202      4627C9
 203 071e 7094AC72 		.ascii	"p\224\254r\026\300p\267\313Z\272\362uWF\276\323\345"
 203      16C070B7 
 203      CB5ABAF2 
 203      755746BE 
 203      D3E5
 204 0730 7059DCD0 		.ascii	"pY\334\320\034\344\263\250$\303]D\036:\226\203)\"\246"
 204      1CE4B3A8 
 204      24C35D44 
 204      1E3A9683 
 204      2922A6
 205 0743 004C4671 		.ascii	"\000LFq\361\362|\227u\0311\371po)Y\356\262\024@\313"
 205      F1F27C97 
 205      751931F9 
 205      706F2959 
 205      EEB21440 
 206 0758 2F7059E1 		.ascii	"/pY\341\231\013\370\345\273\000<\337\341\372\027-\316"
 206      990BF8E5 
 206      BB003CDF 
 206      E1FA172D 
 206      CE
 207 0769 F341     		.ascii	"\363A"
ARM GAS  /tmp/ccBaOaNK.s 			page 16


 208              		.text
 209              		.section	.gnu.lto_.symtab.2495de19c475db40,"",%progbits
 210 0000 6E766963 		.ascii	"nvicEnableVector\000\000\000\000\000\000\000\000\000"
 210      456E6162 
 210      6C655665 
 210      63746F72 
 210      00000000 
 211 0019 000000A1 		.ascii	"\000\000\000\241\000\000\000nvicDisableVector\000\000"
 211      0000006E 
 211      76696344 
 211      69736162 
 211      6C655665 
 212 0033 00000000 		.ascii	"\000\000\000\000\000\000\000\000\000\000\262\000\000"
 212      00000000 
 212      0000B200 
 212      00
 213 0040 006E7669 		.ascii	"\000nvicSetSystemHandlerPriority\000\000\000\000\000"
 213      63536574 
 213      53797374 
 213      656D4861 
 213      6E646C65 
 214 0062 00000000 		.ascii	"\000\000\000\000\000\000\000\270\000\000\000"
 214      000000B8 
 214      000000
 215              		.text
 216              		.section	.gnu.lto_.opts,"",%progbits
 217 0000 272D6D63 		.ascii	"'-mcpu=cortex-m3' '-mno-thumb-interwork' '-mthumb' "
 217      70753D63 
 217      6F727465 
 217      782D6D33 
 217      2720272D 
 218 0033 272D4F32 		.ascii	"'-O2' '-fomit-frame-pointer' '-falign-functions=16'"
 218      2720272D 
 218      666F6D69 
 218      742D6672 
 218      616D652D 
 219 0066 20272D66 		.ascii	" '-ffunction-sections' '-fdata-sections' '-fno-comm"
 219      66756E63 
 219      74696F6E 
 219      2D736563 
 219      74696F6E 
 220 0099 6F6E2720 		.ascii	"on' '-flto'\000"
 220      272D666C 
 220      746F2700 
 221              		.text
 222              		.section	.text.nvicEnableVector,"ax",%progbits
 223              		.align	2
 224              		.p2align 4,,15
 225              		.global	nvicEnableVector
 226              		.thumb
 227              		.thumb_func
 228              		.type	nvicEnableVector, %function
 229              	nvicEnableVector:
 230              		@ args = 0, pretend = 0, frame = 0
 231              		@ frame_needed = 0, uses_anonymous_args = 0
 232              		@ link register save eliminated.
 233 0000 00F01F03 		and	r3, r0, #31
ARM GAS  /tmp/ccBaOaNK.s 			page 17


 234 0004 0122     		movs	r2, #1
 235 0006 9A40     		lsls	r2, r2, r3
 236 0008 4309     		lsrs	r3, r0, #5
 237 000a 9B00     		lsls	r3, r3, #2
 238 000c 0901     		lsls	r1, r1, #4
 239 000e 00F16040 		add	r0, r0, #-536870912
 240 0012 03F16043 		add	r3, r3, #-536870912
 241 0016 03F56143 		add	r3, r3, #57600
 242 001a C9B2     		uxtb	r1, r1
 243 001c 00F56140 		add	r0, r0, #57600
 244 0020 80F80013 		strb	r1, [r0, #768]
 245 0024 C3F88021 		str	r2, [r3, #384]
 246 0028 1A60     		str	r2, [r3]
 247 002a 7047     		bx	lr
 248              		.size	nvicEnableVector, .-nvicEnableVector
 249 002c AFF30080 		.section	.text.nvicDisableVector,"ax",%progbits
 250              		.align	2
 251              		.p2align 4,,15
 252              		.global	nvicDisableVector
 253              		.thumb
 254              		.thumb_func
 255              		.type	nvicDisableVector, %function
 256              	nvicDisableVector:
 257              		@ args = 0, pretend = 0, frame = 0
 258              		@ frame_needed = 0, uses_anonymous_args = 0
 259              		@ link register save eliminated.
 260 0000 10B4     		push	{r4}
 261 0002 00F01F03 		and	r3, r0, #31
 262 0006 0124     		movs	r4, #1
 263 0008 9C40     		lsls	r4, r4, r3
 264 000a 064B     		ldr	r3, .L3
 265 000c 4109     		lsrs	r1, r0, #5
 266 000e 2031     		adds	r1, r1, #32
 267 0010 1844     		add	r0, r0, r3
 268 0012 0022     		movs	r2, #0
 269 0014 43F82140 		str	r4, [r3, r1, lsl #2]
 270 0018 80F80023 		strb	r2, [r0, #768]
 271 001c 5DF8044B 		ldr	r4, [sp], #4
 272 0020 7047     		bx	lr
 273              	.L4:
 274 0022 00BF     		.align	2
 275              	.L3:
 276 0024 00E100E0 		.word	-536813312
 277              		.size	nvicDisableVector, .-nvicDisableVector
 278 0028 AFF30080 		.section	.text.nvicSetSystemHandlerPriority,"ax",%progbits
 278      AFF30080 
 279              		.align	2
 280              		.p2align 4,,15
 281              		.global	nvicSetSystemHandlerPriority
 282              		.thumb
 283              		.thumb_func
 284              		.type	nvicSetSystemHandlerPriority, %function
 285              	nvicSetSystemHandlerPriority:
 286              		@ args = 0, pretend = 0, frame = 0
 287              		@ frame_needed = 0, uses_anonymous_args = 0
 288              		@ link register save eliminated.
 289 0000 0901     		lsls	r1, r1, #4
ARM GAS  /tmp/ccBaOaNK.s 			page 18


 290 0002 00F16040 		add	r0, r0, #-536870912
 291 0006 C9B2     		uxtb	r1, r1
 292 0008 00F56D40 		add	r0, r0, #60672
 293 000c 0176     		strb	r1, [r0, #24]
 294 000e 7047     		bx	lr
 295              		.size	nvicSetSystemHandlerPriority, .-nvicSetSystemHandlerPriority
 296              		.comm	__gnu_lto_v1,1,1
 297              		.ident	"GCC: (GNU Tools for ARM Embedded Processors) 4.8.4 20140526 (release) [ARM/embedded-4_8-br
ARM GAS  /tmp/ccBaOaNK.s 			page 19

