ARM GAS  /tmp/ccHF6EcP.s 			page 1


   1              		.syntax unified
   2              		.cpu cortex-m3
   3              		.fpu softvfp
   4              		.eabi_attribute 20, 1
   5              		.eabi_attribute 21, 1
   6              		.eabi_attribute 23, 3
   7              		.eabi_attribute 24, 1
   8              		.eabi_attribute 25, 1
   9              		.eabi_attribute 26, 1
  10              		.eabi_attribute 30, 2
  11              		.eabi_attribute 34, 1
  12              		.eabi_attribute 18, 4
  13              		.thumb
  14              		.file	"pal.c"
  15              		.section	.gnu.lto_.jmpfuncs.ac891550f4e8c249,"",%progbits
  16 0000 789C6362 		.ascii	"x\234cb`b\300\006D\24043\003##3\02333\204\315\300X\006"
  16      6062C006 
  16      44A03433 
  16      03232333 
  16      13333384 
  17 0018 A4010623 		.ascii	"\244\001\006#\000\243"
  17      00A3
  18              		.text
  19              		.section	.gnu.lto_.inline.ac891550f4e8c249,"",%progbits
  20 0000 789C6362 		.ascii	"x\234cb`b\300\006\276Cif\006\006N\016Ff\006F0\023D:"
  20      6062C006 
  20      BE436966 
  20      06064E0E 
  20      46660646 
  21 0018 8049050E 		.ascii	"\200I\005\016\266\017z\014l\013\344\231\030\030_\260"
  21      B60F7A0C 
  21      6C0BE499 
  21      18185FB0 
  22 0028 B3404810 		.ascii	"\263@H\020\301\001fr\200\010\0010S\000d\014#\003\037"
  22      C1016672 
  22      80080130 
  22      5300640C 
  22      23031F
  23 003b 2F230BC4 		.ascii	"/#\013\304\024FF\210\010\320\020\210\201\334L\027\370"
  23      14464688 
  23      08D01088 
  23      81DC4C17 
  23      F8
  24 004c 318C028A 		.ascii	"1\214\002\212\241\030\302\262@^\002\304R`b`\336!\256"
  24      A118C2B2 
  24      405E02C4 
  24      52606260 
  24      DE21AE
  25 005f C000B4DE 		.ascii	"\300\000\264\336\002d\016\023\003\2670\212\373\240\206"
  25      02640E13 
  25      03B7308A 
  25      FBA086
  26 006e 7202E588 		.ascii	"r\002\345\210s\036\320&\011\220I,\274@}\023\374@\220"
  26      731ED026 
  26      0990492C 
  26      BC407D13 
  26      FC4090
ARM GAS  /tmp/ccHF6EcP.s 			page 2


  27 0081 01003C62 		.ascii	"\001\000<b\037\210"
  27      1F88
  28              		.text
  29              		.section	.gnu.lto_.pureconst.ac891550f4e8c249,"",%progbits
  30 0000 789C6362 		.ascii	"x\234cb`b`g\200\000f\006)F)&I\000\001\312\000_"
  30      60626067 
  30      80006606 
  30      29462926 
  30      490001CA 
  31              		.text
  32              		.section	.gnu.lto_palReadBus.ac891550f4e8c249,"",%progbits
  33 0000 789C6D90 		.ascii	"x\234m\2201O\3030\020\205\337\235\223&\351\300\316\306"
  33      314FC330 
  33      1085DF9D 
  33      9326E9C0 
  33      CEC6
  34 0012 4CA59A1F 		.ascii	"L\245\232\037S$`K\323\252\211h\011j\001\211\251\241"
  34      5324604B 
  34      D3AA8968 
  34      096A0189 
  34      A9A1
  35 0024 A9C4DA95 		.ascii	"\251\304\332\2252\2610 TV$\026\304\300V\004+\023\023"
  35      32B13020 
  35      54562416 
  35      C4C05604 
  35      2B1313
  36 0037 237FA19C 		.ascii	"#\177\241\234]\022\004\252%\277;\333\367\275;\231\301"
  36      5D1204AA 
  36      25BF3BDB 
  36      F7BD3B99 
  36      C1
  37 0048 F8BFD665 		.ascii	"\370\277\326e\237\023\260%\221\024\210'/\300\231\317"
  37      9F13B025 
  37      91148827 
  37      2FC099CF 
  38 0058 44260161 		.ascii	"D&\001a\3104\334%[{\307\217\037\213\305l\372|}K\027"
  38      C834DC25 
  38      5B7BC78F 
  38      1F8BC56C 
  38      FA7C7D4B 
  39 006d 5C65EA11 		.ascii	"\\e\352\021\024\022\202#B\256\010WD\224g\216\276\221"
  39      14128223 
  39      42AE0857 
  39      4494678E 
  39      BE91
  40 007f 40C411D2 		.ascii	"@\304\021\322\3058\313&\033@d\235\032\242\306~\233\330"
  40      C538CB26 
  40      1B40649D 
  40      1AA2C67E 
  40      9BD8
  41 0091 4435C7E8 		.ascii	"D5\307\350\375\376\363\225B\272\022\233\016\251\032"
  41      FDFEF395 
  41      42BA129B 
  41      0EA91A
  42 00a0 3613722F 		.ascii	"6\023r/1\245\204*\035\342\035\211\236\235\241I\305\344"
  42      31A5842A 
  42      1DE21D89 
ARM GAS  /tmp/ccHF6EcP.s 			page 3


  42      9E9DA149 
  42      C5E4
  43 00b2 733CED15 		.ascii	"s<\355\025\200S\303M6\226\"\177\311\004\342a\030\367"
  43      8053C34D 
  43      3696227F 
  43      C904E261 
  43      18F7
  44 00c4 87A19219 		.ascii	"\207\241\222\031\225\214k\233TW7\341_\340K\025\204\024"
  44      958C6B9B 
  44      545737E1 
  44      5FE04B15 
  44      8414
  45 00d6 B9E62A9F 		.ascii	"\271\346*\237\225W\236\364\226\207\277\316\276uvV;\253"
  45      95579EF4 
  45      9687BFCE 
  45      BE757656 
  45      3BAB
  46 00e8 D2397FC8 		.ascii	"\3229\177\310\327\012$\260V>\360\206\362\027\202eaC"
  46      D70A24B0 
  46      563EF086 
  46      F2178265 
  46      6143
  47 00fa A6974F32 		.ascii	"\246\227O2\023\325u\234\366\332:J[\247\272\325>\321"
  47      13D5759C 
  47      F6DA3A4A 
  47      5BA7BAD5 
  47      3ED1
  48 010c 519C3493 		.ascii	"Q\2344\223t\240\217\372\307\007\373Z\2228\354\352A?"
  48      74A08FFA 
  48      C707FB5A 
  48      9238ECEA 
  48      413F
  49 011e D28761B7 		.ascii	"\322\207a\267\036\341\033!qZ\314"
  49      1EE11B21 
  49      715ACC
  50              		.text
  51              		.section	.gnu.lto_palWriteBus.ac891550f4e8c249,"",%progbits
  52 0000 789C6D51 		.ascii	"x\234mQ\277O\302P\020\276{\257\224\226\237\272\351f"
  52      BF4FC250 
  52      10BE7BAF 
  52      94969FBA 
  52      E966
  53 0012 E2602209 		.ascii	"\342`\"\011\317\177\303\035\023u\203B\240\021\304\200"
  53      CF7FC31D 
  53      13758342 
  53      A011C480 
  54 0022 9A3801CA 		.ascii	"\2328\001\312\340\310\254.\256&\352\342bd0\016.F\023"
  54      E0C8AC2E 
  54      AE26EAE2 
  54      6264300E 
  54      2E4613
  55 0035 37E3C45F 		.ascii	"7\343\304_\340\340l\202wW[\"\341%\375\356\372\275\373"
  55      E0E06C82 
  55      77575B22 
  55      E125FDEE 
  55      FABDFB
  56 0048 BEBB6B15 		.ascii	"\276\273k\025(\230>\213\364\254\020\275F\0215\240\032"
ARM GAS  /tmp/ccHF6EcP.s 			page 4


  56      28983E8B 
  56      F4AC10BD 
  56      461135A0 
  56      1A
  57 0059 BC01F41C 		.ascii	"\274\001\364\034\205\310\011 t\024v\266Pjo\325\343h"
  57      85C80920 
  57      741476B6 
  57      506A6FD5 
  57      E368
  58 006b 3CBEF979 		.ascii	"<\276\371y\276\033\342\205\232W\330@\320\340#X\224a"
  58      BE1BE285 
  58      9A57D840 
  58      D0E02358 
  58      9461
  59 007d 8C32B419 		.ascii	"\2142\264\031\342\014\016\201r\031\022\004:\311\\\212"
  59      E20C0E81 
  59      72191204 
  59      3AC95C8A 
  60 008d 21CDAF19 		.ascii	"!\315\257\031\316\262\014\344\033\203~\267;X\002\360"
  60      CEB20CE4 
  60      1B837EB7 
  60      3B5802F0 
  61 009d A44F8190 		.ascii	"\244O\201\220\233o\240\342\250_\341\370\363\343{\241"
  61      9B6FA0E2 
  61      A85FE1F8 
  61      F3E37BA1 
  62 00ad 8897D4A3 		.ascii	"\210\227\324\243\212:\007\253>Z\347p\206>\306\252\250"
  62      8A3A07AB 
  62      3E5AE770 
  62      863EC6AA 
  62      A8
  63 00be 3629DA32 		.ascii	"6)\3322`\011\303\265H3\324\241\202\212,\241\266C\306"
  63      6009C3B5 
  63      4833D4A1 
  63      828A2CA1 
  63      B643C6
  64 00d1 168FF86C 		.ascii	"\026\217\370l\017\214<N\036\"\217\270\330\330\377m\034"
  64      0F8C3C4E 
  64      1E228FB8 
  64      D8D8FF6D 
  64      1C
  65 00e2 B17166DB 		.ascii	"\261qf\333\250\211\315id\343\222\210\213\234\271`\310"
  65      A889CD69 
  65      64E39288 
  65      8B9CB960 
  65      C8
  66 00f3 AFE82641 		.ascii	"\257\350&A\227R|\035QIi\233\230\232$E\333\204\223L\344"
  66      97527C1D 
  66      5149699B 
  66      989A2445 
  66      DB84934C 
  67 0108 69329E92 		.ascii	"i2\236\222g\2446-\354}\304f\3057\303\354\323z@\346\340"
  67      67A4362D 
  67      EC7DC466 
  67      C537C3EC 
  67      D37A40E6 
  68 011d AADBA7A1 		.ascii	"\252\333\247\241\334`\021\232D\363\214\326\337\"Z\""
ARM GAS  /tmp/ccHF6EcP.s 			page 5


  68      DC60119A 
  68      44F38CD6 
  68      DF225A22 
  69 012d 2901DEA1 		.ascii	")\001\336\2417zY\016T\341)\320\007\243\337\304\353\346"
  69      377A590E 
  69      54E129D0 
  69      07A3DFC4 
  69      EBE6
  70 013f 4DADD9A8 		.ascii	"M\255\331\250\030\257Y>2\345\312\241\361j~\311o\266"
  70      18AF593E 
  70      32E5CAA1 
  70      F16A7EC9 
  70      6FB6
  71 0151 CD7EEB60 		.ascii	"\315~\353`w\307PR+\326M\273\345\231\275b=\357\301/\271"
  71      77C75052 
  71      2BD64DBB 
  71      E599BD62 
  71      3DEFC12F 
  72 0166 3D788D   		.ascii	"=x\215"
  73              		.text
  74              		.section	.gnu.lto_palSetBusMode.ac891550f4e8c249,"",%progbits
  75 0000 789C6D90 		.ascii	"x\234m\220\277N\0031\014\306?;\367\217N\214\260!\261"
  75      BF4E0331 
  75      0CC63F3B 
  75      F78F4E8C 
  75      B021B1
  76 0013 81D4F030 		.ascii	"\201\324\3600E\002\266kZ\335E\264\034j\001\0111\364"
  76      4502B66B 
  76      5ADD45B4 
  76      1C6A0109 
  76      31F4
  77 0025 0A0C8C9D 		.ascii	"\012\014\214\235a@\354@WF6&@\254\235\372\004<@\007\212"
  77      6140EC40 
  77      57463626 
  77      40AC9DFA 
  77      043C4007 
  78 003a 73C78184 		.ascii	"s\307\201\204j)\266\343\370\347/\011\203\361\337Ve\031"
  78      6A29B6E3 
  78      F8E72F09 
  78      83F1DF56 
  78      6519
  79 004c 02B62492 		.ascii	"\002\266$\222\002\361\350\015\030FL\344\022\020\006"
  79      02F1E80D 
  79      18464CE4 
  79      121006
  80 005b 4C835D2A 		.ascii	"L\203]*z\307\374<\235\317\037'/\343{\272\345\032S\227"
  80      7AC7FC3C 
  80      9DCF1F27 
  80      2FE37BBA 
  80      E51A5397 
  81 006f A060099E 		.ascii	"\240`\011\2368\362\305q N\205n\033\311\251\303|\\\346"
  81      38F2C571 
  81      204E856E 
  81      1BC9A9C3 
  81      7C5CE6
  82 0082 F968AD54 		.ascii	"\371h\255T\001\032\342\335\344mb\027\325+\316'O_+1\335"
  82      011AE2DD 
ARM GAS  /tmp/ccHF6EcP.s 			page 6


  82      E46D6217 
  82      D52BCE27 
  82      4F5F2B31 
  83 0097 C98084D4 		.ascii	"\311\200\204\324&6,y7\270&K~B\274#1(\324\233T\335Y\230"
  83      26362C79 
  83      37B8264B 
  83      7E42BC23 
  83      3128D49B 
  84 00af BD0AF00A 		.ascii	"\275\012\360\012 \\\014\320\002\300/\200h1\300\177\300"
  84      205C0CD0 
  84      02C02F80 
  84      6831C07F 
  84      C0
  85 00c0 A7AA8840 		.ascii	"\247\252\210@ W\272x\370-\205\"\2348\352\035AY\003\316"
  85      2057BA78 
  85      F82D8522 
  85      9C38EA1D 
  85      415903CE 
  86 00d4 30CBAFF2 		.ascii	"0\313\257\362eKK\346GX\236S\264F\226j\300\007\206\323"
  86      654B4BE6 
  86      47589E53 
  86      B446966A 
  86      C00786D3 
  87 00e8 D97AD55D 		.ascii	"\331z\325]ZC:\345\027\234l]\247Y\267\255M\326:\325\255"
  87      5A433AE5 
  87      179C6C5D 
  87      A759B7AD 
  87      4DD63AD5 
  88 00fd F68936A9 		.ascii	"\366\2116\251m\332\254\257\217z\307\007\373Z\2224\356"
  88      6DDAACAF 
  88      8F7AC707 
  88      FB5A9234 
  88      EE
  89 010e E87ECFE8 		.ascii	"\350~\317\350\303\270S7\370\006o\201U\206"
  89      C3B85337 
  89      F8066F81 
  89      5586
  90              		.text
  91              		.section	.gnu.lto_.symbol_nodes.ac891550f4e8c249,"",%progbits
  92 0000 789C6362 		.ascii	"x\234cb`bpe\200\002\246\343\214\365\014\014\023\316"
  92      60627065 
  92      8002A6E3 
  92      8CF50C0C 
  92      13CE
  93 0012 3130D4D7 		.ascii	"10\324\327\317\353`d:\301X\317\210\304=\311X\317\204"
  93      CFEB6064 
  93      3AC158CF 
  93      88C43DC9 
  93      58CF84
  94 0025 E0329E61 		.ascii	"\3402\236a\254g\206p\033\032\030\231\231\230\031\026"
  94      AC678670 
  94      1B1A1899 
  94      99981916 
  95 0035 3FFCC7C8 		.ascii	"?\374\307\310\000\000\364\031\025m"
  95      0000F419 
  95      156D
  96              		.text
ARM GAS  /tmp/ccHF6EcP.s 			page 7


  97              		.section	.gnu.lto_.refs.ac891550f4e8c249,"",%progbits
  98 0000 789C6362 		.ascii	"x\234cb`b`d\200\002\000\000F\000\006"
  98      60626064 
  98      80020000 
  98      460006
  99              		.text
 100              		.section	.gnu.lto_.decls.ac891550f4e8c249,"",%progbits
 101 0000 789CB556 		.ascii	"x\234\265V_l\024E\030\237\331\275J\257=\221` \230\230"
 101      5F6C1445 
 101      189FD9BD 
 101      4AAF3D91 
 101      60209898 
 102 0014 B444F0A1 		.ascii	"\264D\360\241\011]h}\200\027\036\332\032\332\330Zr\205"
 102      095D687D 
 102      80171EDA 
 102      1ADAD85A 
 102      7285
 103 0026 E8DBB2BD 		.ascii	"\350\333\262\275\333\363.\334\237\346v\017\341\311\241"
 103      DBF32EDC 
 103      9FE6760F 
 103      E1C9A1
 104 0035 05A21869 		.ascii	"\005\242\030i-!\206\304\230BE\254\301bZJ\371S\311\331"
 104      2D2186C4 
 104      984245AC 
 104      C1625A4A 
 104      F953C9D9 
 105 0049 A05CB0D6 		.ascii	"\240\\\260\326V\203Z\022\364RH\023\304\200\246\360@"
 105      56835A12 
 105      F4524813 
 105      C480A6F0 
 105      40
 106 005a B49EDFCC 		.ascii	"\264\236\337\314\356\366n\267{\377H\234\344\233\235"
 106      EEF66EB7 
 106      7BFF489C 
 106      E49B9D
 107 0069 D99DEFF7 		.ascii	"\331\235\357\367\375\276?3;\034\342\220\037#\224\202"
 107      FDBE3F33 
 107      3B1CE290 
 107      1F239482 
 108 0079 D6E342E8 		.ascii	"\326\343B\350Y\016!\007Bh+J7:?\0012\0032\013r\037-m"
 108      590E2107 
 108      42682B4A 
 108      373A3F01 
 108      3203320B 
 109 0091 F47B39C8 		.ascii	"\364{9\310\004\3102\220\022]\257\037d\004\344,\310 "
 109      04C83290 
 109      125DAF1F 
 109      6404E42C 
 109      C820
 110 00a3 C818C879 		.ascii	"\310\030\310y\220i\375\3739\2208\310\024\310$\010\326"
 110      9069FDFB 
 110      399038C8 
 110      14C82408 
 110      D6
 111 00b4 B1E8F327 		.ascii	"\261\350\363'\213\215\231,62\361\373ul\303\216acR\267"
 111      8B8D992C 
 111      3632F1FB 
ARM GAS  /tmp/ccHF6EcP.s 			page 8


 111      756CC38E 
 111      616352B7 
 112 00c8 7155C7A6 		.ascii	"qU\307\246X\340*\372\025\3447\213\235\331\"\354<\004"
 112      58E02AFA 
 112      15E4378B 
 112      9DD922EC 
 112      3C04
 113 00da 7900C25B 		.ascii	"y\000\302[\354p\031\261\242\343\337A\356Y\354T\240\217"
 113      EC7019B1 
 113      A2E3DF41 
 113      EE59EC54 
 113      A08F
 114 00ec 485F3279 		.ascii	"H_2y\352\366\237\3708\211\037 \251\324[h5:F\240\365"
 114      EAF69FF8 
 114      38891F20 
 114      A9D45B68 
 114      353A46A0 
 115 0101 1D2204AB 		.ascii	"\035\"\004\253N\3646!\235t\322\230X\216\320\353X\302"
 115      4EF43621 
 115      9D74D298 
 115      588ED0EB 
 115      58C2
 116 0113 CB9DA892 		.ascii	"\313\235\250\222\015\\N\306i=\372\230\220\236\344\217"
 116      0D5C4EC6 
 116      693DFA98 
 116      909EE48F 
 117 0123 8F8E5411 		.ascii	"\217\216T\021R*\341~\354\004{obT\205\006\000\247\007"
 117      522AE17E 
 117      EC047B6F 
 117      62548506 
 117      00A707
 118 0136 F45FE06C 		.ascii	"\364_\340l\362U8\364\350\341\257\277\302\235@G\302\247"
 118      F25538F4 
 118      E8E1AFBF 
 118      C29D4047 
 118      C2A7
 119 0148 19F81718 		.ascii	"\031\370\027\030#\011\177\202\253\212\206\232\177wl"
 119      23097F82 
 119      AB8A869A 
 119      7F776C
 120 0157 0B63F919 		.ascii	"\013c\371\031\003\272o\001\222\3602g&G67\026P4\366Y"
 120      03BA6F01 
 120      92F03267 
 120      26473637 
 120      165034F6 
 121 016c 1FD0827D 		.ascii	"\037\320\202}\006\375\317\313\355|\241\232'\361j6\342"
 121      06FDCFCB 
 121      ED7CA19A 
 121      27F16A36 
 121      E2
 122 017d 596EA158 		.ascii	"Yn\241X\016\247#\260\022\275O3X\231\021\213]\206\276"
 122      0EA723B0 
 122      12BD4F33 
 122      5899118B 
 122      5D86BE
 123 0190 2B2316DF 		.ascii	"+#\026\337O\326\260X\234\305+\001\345\014g\216E>\024"
 123      4FD6B058 
ARM GAS  /tmp/ccHF6EcP.s 			page 9


 123      9CC52B01 
 123      E50C678E 
 123      453E14
 124 01a3 CA620834 		.ascii	"\312b\01045\035\206I\342\013\327\\\304\241\275G&4S["
 124      351D8649 
 124      E20BD75C 
 124      C4A1BD47 
 124      2634535B 
 125 01b7 8BFA806D 		.ascii	"\213\372\200m\374\330\365\017\237#}\3438\037\371$6\354"
 125      FCD8F50F 
 125      9F237DE3 
 125      381FF924 
 125      36EC
 126 01c9 3E9F667F 		.ascii	">\237f\177\343\350\243\212.V\023\347\031\375?\362\323"
 126      E3E8A38A 
 126      2E5613E7 
 126      19FD3FF2 
 126      D3
 127 01da 37E3507E 		.ascii	"7\343P~\027\255\374\207S\011\314br1\277\007\007\272"
 127      17ADFC87 
 127      5309CC62 
 127      7231BF07 
 127      07BA
 128 01ec E2A3A904 		.ascii	"\342\243\251\004G7\016\317*\260+g\005J\370S\274\276"
 128      47370ECF 
 128      2AB02B67 
 128      054AF853 
 128      BCBE
 129 01fe A09C73E8 		.ascii	"\240\234s\3501s\206r\260C\322\207Z\323\027\230y]\240"
 129      31738672 
 129      B043D287 
 129      5AD31798 
 129      795DA0
 130 0211 6EF4BA24 		.ascii	"n\364\272$<\306\312|\241h\270J\023\334%3\334~\276\000"
 130      3CC6CA7C 
 130      A168B84A 
 130      13DC2533 
 130      DC7EBE00 
 131 0225 B8D2ECEC 		.ascii	"\270\322\354\354\306\314p\007\213\2063\263\273b\206"
 131      C6CC7007 
 131      8B8633B3 
 131      BB6286
 132 0234 7BA710B8 		.ascii	"{\247\020\270\025\331\331M\231\341\216\024\015gf\367"
 132      15D9D94D 
 132      99E18E14 
 132      0D6766F7 
 133 0244 8319AEB7 		.ascii	"\203\031\256\267\020\27056\354\354Zf\001K\370\022+\257"
 133      10B83536 
 133      ECEC5A66 
 133      014BF812 
 133      2BAF
 134 0256 CB782DF4 		.ascii	"\313x-\364WX\037g\3758\353\257\262\376\033\326'\240"
 134      57581F67 
 134      FD38EBAF 
 134      B2FE1BD6 
 134      27A0
 135 0268 5F6CB9CE 		.ascii	"_l\271\316\364\273\335\233\331n\030\201=\312\241\017"
ARM GAS  /tmp/ccHF6EcP.s 			page 10


 135      F4BBDD9B 
 135      D96E1881 
 135      3DCAA10F 
 136 0278 78F31633 		.ascii	"x\363\0263\355[m\037f;\256&\000\300~3-\371\306\241\223"
 136      ED5B6D1F 
 136      663BAE26 
 136      00C07E33 
 136      2DF9C6A1 
 137 028d CCCED093 		.ascii	"\314\316\320\223U?\351L\316wO\364\342\243]$\261\321"
 137      553FE94C 
 137      CE774FF4 
 137      E2A35D24 
 137      B1D1
 138 029f F81B0D14 		.ascii	"\370\033\015\024\215X\231\211\030\277p\335\325#\025"
 138      8D589989 
 138      18BF70DD 
 138      D52315
 139 02ae F3C3BAF3 		.ascii	"\363\303\272\363\027\326\016\247if\177\220\267\376g"
 139      17D60EA7 
 139      69667F90 
 139      B7FE67
 140 02bd 4A2CFF99 		.ascii	"J,\377\231\022\363\251P\342L\017\026O\205\313\205xa"
 140      12F3A950 
 140      E24C0F16 
 140      4F85CB85 
 140      7861
 141 02cf B7EFEC6B 		.ascii	"\267\357\354kg(\243v\206Y\355\234c\3251\311\372\251"
 141      6728A376 
 141      8659ED9C 
 141      63D531C9 
 141      FAA9
 142 02e1 7C354221 		.ascii	"|5B!\006qy\032o'\277\270\236C\343\026\217\327\241~B"
 142      0671791A 
 142      6F27BFB8 
 142      9E43E316 
 142      8FD7A17E 
 143 02f6 7AE1A611 		.ascii	"z\341\246\021w\300\201\351\320T9\364\035[v\002Wd92u"
 143      77C081E9 
 143      D05439F4 
 143      1D5B7602 
 143      57643932 
 144 030b 032FA253 		.ascii	"\003/\242S4\364_\336\331\336\250\245\024\345\320\322"
 144      34F45FDE 
 144      D9DEA8A5 
 144      14E5D0D2 
 145 031b E9DCC0A6 		.ascii	"\351\334\300\246[\207v\325\211/\034\372\026\266#\371"
 145      5B8776D5 
 145      892F1CFA 
 145      16B623F9 
 146 032b 2795E2CD 		.ascii	"'\225\342\3157\035\011o]\225\325\317\233\346\277\255"
 146      371D096F 
 146      5D95D5CF 
 146      9BE6BFAD 
 147 033b C66B71A2 		.ascii	"\306kq\242\021\262F`\3326\002d\336\333\250\251K\370"
 147      11B24660 
 147      DA360264 
 147      DEDBA8A9 
ARM GAS  /tmp/ccHF6EcP.s 			page 11


 147      4BF8
 148 034d 676028E1 		.ascii	"g`(\341\231\334\316\353j\243r\243Q\314\267\030pv5\235"
 148      99DCCEEB 
 148      6AA372A3 
 148      51CCB718 
 148      7076359D 
 149 0361 0E8B1921 		.ascii	"\016\213\031!\357\221\203+0s\016\351Z\246\"\270e\033"
 149      EF91832B 
 149      30730EE9 
 149      5AA622B8 
 149      651B
 150 0373 A59BD75C 		.ascii	"\245\233\327\\=\373\223\251TE\341!\272\235#DE\334\""
 150      3DFB93A9 
 150      5445E121 
 150      BA9D2344 
 150      45DC22
 151 0386 07BAB55B 		.ascii	"\007\272\265[\344\034suv\311\2769\215\237\344\202fI"
 151      E41C7375 
 151      76C9BE39 
 151      8D9FE482 
 151      6649
 152 0398 CDBD2CC5 		.ascii	"\315\275,\305\371\367/|\2728\215\374\314\026\224\237"
 152      F9F72F7C 
 152      BA388DFC 
 152      CC16949F 
 153 03a8 619A1F8D 		.ascii	"a\232\037\215\364c\206\236]m.G~f\255\371\271\2734?I"
 153      F463869E 
 153      5D6D2E47 
 153      7E66ADF9 
 153      B9BB343F 
 154 03bd 08D3E767 		.ascii	"\010\323\347g\326\034'\3436\027\366\2349z`\315\321\210"
 154      D61C27E3 
 154      3617F69C 
 154      397A60CD 
 154      D188
 155 03cf 4D192FCE 		.ascii	"M\031/\316\347l\313\372_K\354\014\242\363f\242\226\177"
 155      E76CCBFA 
 155      5F4BEC0C 
 155      A2F366A2 
 155      967F
 156 03e1 03B59C8D 		.ascii	"\003\265\234\215\325\303\364!\202\252\005\177$$\013"
 156      D5C3F421 
 156      82AA057F 
 156      24240B
 157 03f0 9E88779F 		.ascii	"\236\210w\237\340\225\367\010\036\177\240=\020Q\004"
 157      E095F708 
 157      1E7FA03D 
 157      105104
 158 03ff 351A0BEF 		.ascii	"5\032\013\357\026`\340\227\202\202\022\365\010\035R"
 158      1660E097 
 158      828212F5 
 158      081D52
 159 040e B0DA835E 		.ascii	"\260\332\203^.dyG$\252*B\333\216\226\332\032\241\271"
 159      2E647947 
 159      24AA2A42 
 159      DB8E96DA 
 159      1AA1B9
ARM GAS  /tmp/ccHF6EcP.s 			page 12


 160 0421 B941D8B6 		.ascii	"\271A\330\266\275\251u\317&\212 \006\203\336j?r\005"
 160      BDA975CF 
 160      268A2006 
 160      83DE6A3F 
 160      7205
 161 0433 22744D48 		.ascii	"\"tMHRv\213\352S\333^\335YY\217\326\0111%*H\321\320"
 161      52768BEA 
 161      53DB5EDD 
 161      59598FD6 
 161      0931252A 
 162 044a 8670242C 		.ascii	"\206p$,o\220\245\366\200\020\010{\2021\257,(\2527\020"
 162      6F90A5F6 
 162      8010087B 
 162      8231AF2C 
 162      28AA3710 
 163 045e 5641B134 		.ascii	"VA\2614\006\317\332\032Q})\307\352\220\004\254\302\262"
 163      06CFDA1A 
 163      517D29C7 
 163      EA9004AC 
 163      C2B2
 164 0470 207A659F 		.ascii	" ze\237\024\013\252\242\272\257CV@\273L\024\015\375"
 164      140BAAA2 
 164      BAAF4356 
 164      40BB4C14 
 164      0DFD
 165 0482 9A42FC30 		.ascii	"\232B\3740\000\251\353~T\322\324Z\027S\266\344S\224"
 165      00A9EB7E 
 165      54D2D45A 
 165      1753B6E4 
 165      5394
 166 0494 F7AA427D 		.ascii	"\367\252B}K[S\033\004\000\210\207jk|\2336\356\245N\323"
 166      4B5B531B 
 166      04008887 
 166      6A6B7C9B 
 166      36EEA54E 
 167 04a9 30883B80 		.ascii	"0\210;\200K\203\354\343\353\335\315 \215|S\203\233o"
 167      4B83ECE3 
 167      EBDDCD20 
 167      8D7C5383 
 167      9B6F
 168 04bb 6D703BEA 		.ascii	"mp;\352\332\334n\276\316\355v4\327\277\342.\323\342"
 168      DADC6EBE 
 168      CEED7634 
 168      D7BFE22E 
 168      D3E2
 169 04cd 13F04274 		.ascii	"\023\360Bt\264\201\203\306\312E\331\213>IQ7\303\207"
 169      B48183C6 
 169      CA45D98B 
 169      3E495137 
 169      C387
 170 04df 88CFA7C8 		.ascii	"\210\317\247\310j\031\220s\313\222\027\250\361\3551"
 170      6A199073 
 170      CB9217A8 
 170      F1ED31
 171 04ee A51CA6AF 		.ascii	"\245\034\246\257E\003\252\014sG{@UJ\003\221P\304+\213"
 171      4503AA0C 
 171      73477B40 
ARM GAS  /tmp/ccHF6EcP.s 			page 13


 171      554A0391 
 171      50C42B8B 
 172 0502 EAD3F0A5 		.ascii	"\352\323\360\245MV\341}\013\314\035\364\345*QO\211\010"
 172      4D56E17D 
 172      0BCC1DF4 
 172      E52A514F 
 172      8908
 173 0514 406F4423 		.ascii	"@oD#\261\016\372\366?.\2744="
 173      B10EFAF6 
 173      3F2EBC34 
 173      3D
 174              		.text
 175              		.section	.gnu.lto_.symtab.ac891550f4e8c249,"",%progbits
 176 0000 70616C52 		.ascii	"palReadBus\000\000\000\000\000\000\000\000\000\000\000"
 176      65616442 
 176      75730000 
 176      00000000 
 176      00000000 
 177 0015 00A10000 		.ascii	"\000\241\000\000\000palWriteBus\000\000\000\000\000"
 177      0070616C 
 177      57726974 
 177      65427573 
 177      00000000 
 178 002a 00000000 		.ascii	"\000\000\000\000\000\000\000\331\000\000\000palSetB"
 178      000000D9 
 178      00000070 
 178      616C5365 
 178      7442
 179 003c 75734D6F 		.ascii	"usMode\000\000\000\000\000\000\000\000\000\000\000\000"
 179      64650000 
 179      00000000 
 179      00000000 
 179      0000
 180 004e E2000000 		.ascii	"\342\000\000\000_pal_lld_setgroupmode\000\000\002\000"
 180      5F70616C 
 180      5F6C6C64 
 180      5F736574 
 180      67726F75 
 181 006b 00000000 		.ascii	"\000\000\000\000\000\000\000\000\356\000\000\000"
 181      00000000 
 181      EE000000 
 182              		.text
 183              		.section	.gnu.lto_.opts,"",%progbits
 184 0000 272D6D63 		.ascii	"'-mcpu=cortex-m3' '-mno-thumb-interwork' '-mthumb' "
 184      70753D63 
 184      6F727465 
 184      782D6D33 
 184      2720272D 
 185 0033 272D4F32 		.ascii	"'-O2' '-fomit-frame-pointer' '-falign-functions=16'"
 185      2720272D 
 185      666F6D69 
 185      742D6672 
 185      616D652D 
 186 0066 20272D66 		.ascii	" '-ffunction-sections' '-fdata-sections' '-fno-comm"
 186      66756E63 
 186      74696F6E 
 186      2D736563 
ARM GAS  /tmp/ccHF6EcP.s 			page 14


 186      74696F6E 
 187 0099 6F6E2720 		.ascii	"on' '-flto'\000"
 187      272D666C 
 187      746F2700 
 188              		.text
 189              		.section	.text.palReadBus,"ax",%progbits
 190              		.align	2
 191              		.p2align 4,,15
 192              		.global	palReadBus
 193              		.thumb
 194              		.thumb_func
 195              		.type	palReadBus, %function
 196              	palReadBus:
 197              		@ args = 0, pretend = 0, frame = 0
 198              		@ frame_needed = 0, uses_anonymous_args = 0
 199              		@ link register save eliminated.
 200 0000 0368     		ldr	r3, [r0]
 201 0002 8268     		ldr	r2, [r0, #8]
 202 0004 9968     		ldr	r1, [r3, #8]
 203 0006 4368     		ldr	r3, [r0, #4]
 204 0008 21FA02F0 		lsr	r0, r1, r2
 205 000c 1840     		ands	r0, r0, r3
 206 000e 7047     		bx	lr
 207              		.size	palReadBus, .-palReadBus
 208              		.section	.text.palWriteBus,"ax",%progbits
 209              		.align	2
 210              		.p2align 4,,15
 211              		.global	palWriteBus
 212              		.thumb
 213              		.thumb_func
 214              		.type	palWriteBus, %function
 215              	palWriteBus:
 216              		@ args = 0, pretend = 0, frame = 0
 217              		@ frame_needed = 0, uses_anonymous_args = 0
 218              		@ link register save eliminated.
 219 0000 4268     		ldr	r2, [r0, #4]
 220 0002 8368     		ldr	r3, [r0, #8]
 221 0004 30B4     		push	{r4, r5}
 222 0006 22EA0105 		bic	r5, r2, r1
 223 000a 03F11004 		add	r4, r3, #16
 224 000e 0A40     		ands	r2, r2, r1
 225 0010 02FA03F3 		lsl	r3, r2, r3
 226 0014 05FA04F2 		lsl	r2, r5, r4
 227 0018 30BC     		pop	{r4, r5}
 228 001a 0068     		ldr	r0, [r0]
 229 001c 1343     		orrs	r3, r3, r2
 230 001e 0361     		str	r3, [r0, #16]
 231 0020 7047     		bx	lr
 232              		.size	palWriteBus, .-palWriteBus
 233 0022 00BFAFF3 		.section	.text.palSetBusMode,"ax",%progbits
 233      0080AFF3 
 233      0080AFF3 
 233      0080
 234              		.align	2
 235              		.p2align 4,,15
 236              		.global	palSetBusMode
 237              		.thumb
ARM GAS  /tmp/ccHF6EcP.s 			page 15


 238              		.thumb_func
 239              		.type	palSetBusMode, %function
 240              	palSetBusMode:
 241              		@ args = 0, pretend = 0, frame = 0
 242              		@ frame_needed = 0, uses_anonymous_args = 0
 243              		@ link register save eliminated.
 244 0000 10B4     		push	{r4}
 245 0002 8368     		ldr	r3, [r0, #8]
 246 0004 4468     		ldr	r4, [r0, #4]
 247 0006 0A46     		mov	r2, r1
 248 0008 0068     		ldr	r0, [r0]
 249 000a 04FA03F1 		lsl	r1, r4, r3
 250 000e 5DF8044B 		ldr	r4, [sp], #4
 251 0012 FFF7FEBF 		b	_pal_lld_setgroupmode
 252              		.size	palSetBusMode, .-palSetBusMode
 253              		.comm	__gnu_lto_v1,1,1
 254 0016 00BFAFF3 		.ident	"GCC: (GNU Tools for ARM Embedded Processors) 4.8.4 20140526 (release) [ARM/embedded-4_8-br
 254      0080AFF3 
 254      0080
ARM GAS  /tmp/ccHF6EcP.s 			page 16

