ARM GAS  /tmp/cclxNKtz.s 			page 1


   1              		.syntax unified
   2              		.cpu cortex-m3
   3              		.fpu softvfp
   4              		.eabi_attribute 20, 1
   5              		.eabi_attribute 21, 1
   6              		.eabi_attribute 23, 3
   7              		.eabi_attribute 24, 1
   8              		.eabi_attribute 25, 1
   9              		.eabi_attribute 26, 1
  10              		.eabi_attribute 30, 2
  11              		.eabi_attribute 34, 1
  12              		.eabi_attribute 18, 4
  13              		.thumb
  14              		.file	"pal_lld.c"
  15              		.section	.gnu.lto_.jmpfuncs.d77ef892ed433d09,"",%progbits
  16 0000 789C6362 		.ascii	"x\234cb`b\300\006\330\2404\023\003##;\003\000\001/\000"
  16      6062C006 
  16      D8A03413 
  16      0323233B 
  16      0300012F 
  17 0015 16       		.ascii	"\026"
  18              		.text
  19              		.section	.gnu.lto_.inline.d77ef892ed433d09,"",%progbits
  20 0000 789C6D91 		.ascii	"x\234m\221\261\015\3020\020E\357.\006\"\032\\\321\022"
  20      B10DC230 
  20      1045EF2E 
  20      06221A5C 
  20      D112
  21 0012 894CC000 		.ascii	"\211L\300\000\310cP\322\001[\334\012T\210\012\217\222"
  21      C86350D2 
  21      015BDC0A 
  21      54880A8F 
  21      92
  22 0023 968E0128 		.ascii	"\226\216\001((\031\003\337}'\025)\336\377gK\317\226"
  22      281903DF 
  22      7D271529 
  22      DEFF674B 
  22      CF96
  23 0035 2324F4EF 		.ascii	"#$\364\357{0\262\354\366[^Q\031\033r&g\347<:3{(b\250"
  23      7B30B2EC 
  23      F65B5E51 
  23      191B7226 
  23      67E73C3A 
  24 004e 93787C30 		.ascii	"\223x|0\345:!\006\2046\230\020\271\351\372|\027\232"
  24      E53A2106 
  24      84369810 
  24      B9E9FA7C 
  24      179A
  25 0060 E74DD9FE 		.ascii	"\347M\331\376.\002hh\275\266\206\3505\032:\257\235!"
  25      2E026868 
  25      BDB686E8 
  25      351A3AAF 
  25      9D21
  26 0072 794D0665 		.ascii	"yM\006eA8\005\003\030j8\341T\227*\254\352Z\205W]\254"
  26      41380503 
  26      186A38E1 
  26      54972AAC 
ARM GAS  /tmp/cclxNKtz.s 			page 2


  26      EA5A8557 
  27 0088 302BD4A3 		.ascii	"0+\324\243\273\312G{\325\217\376r\000\331S\365W\346"
  27      BBCA477B 
  27      D58FFE72 
  27      00D953F5 
  27      57E6
  28 009a 999C0E7C 		.ascii	"\231\234\016|a{;9O\015kaZ\263f\357\335\356^\357H\313"
  28      617B3B39 
  28      4F0D6B61 
  28      5AB366EF 
  28      DDEE5EEF 
  29 00b0 612F14F2 		.ascii	"a/\024\362&Q\030\326\251\\\360\311\321nkA|\023;\246"
  29      265118D6 
  29      A95CF0C9 
  29      D16E6B41 
  29      7C133BA6 
  30 00c4 D07FCF0F 		.ascii	"\320\177\317\017\201\324D\242"
  30      81D444A2 
  31              		.text
  32              		.section	.gnu.lto_.pureconst.d77ef892ed433d09,"",%progbits
  33 0000 789C6362 		.ascii	"x\234cb`b`e\200\000&\006)F)\000\001\006\000A"
  33      60626065 
  33      80002606 
  33      29462900 
  33      01060041 
  34              		.text
  35              		.section	.gnu.lto__pal_lld_init.d77ef892ed433d09,"",%progbits
  36 0000 789CA596 		.ascii	"x\234\245\226\301k\023A\024\207\337\233\315n61\204\020"
  36      C16B1341 
  36      1487DF9B 
  36      CD6E3631 
  36      8410
  37 0012 42882184 		.ascii	"B\210!\204\020\275\011\016\265\377\202R\012-\012F\320"
  37      10BD090E 
  37      B5FF8252 
  37      0A2D0A46 
  37      D0
  38 0023 43913429 		.ascii	"C\2214)\311bjJ[\013=H7\232\203\307\034K\025\2517\361"
  38      C9626A4A 
  38      5B0B3D48 
  38      379A83C7 
  38      1C4B15A9 
  39 0039 503DC69B 		.ascii	"P=\306\233\344 x\210\350Mz\352U\005\025\275x\253\373"
  39      E4207888 
  39      E84D7AEA 
  39      550515BD 
  39      78ABFB
  40 004c 766792C1 		.ascii	"vg\222\301%\220I\007\3667\263\354\316\343\333\375\036"
  40      25904907 
  40      F637B3EC 
  40      CEE3DBFD 
  40      1E
  41 005d EC3260F0 		.ascii	"\3542`\360\3778\357\035+1\200\005oF\003\220\365>\002"
  41      FF38EF1D 
  41      2B318005 
  41      6F460390 
  41      F53E02
ARM GAS  /tmp/cclxNKtz.s 			page 3


  42 0070 746C8648 		.ascii	"tl\206H\013@\330c\270w\007\375{_\263w'\247\247G\375"
  42      0B40D863 
  42      B87707FD 
  42      7B5FB377 
  42      27A7A747 
  43 0085 F747CFF0 		.ascii	"\367G\317\3609\273\310\300A0(L\\G\260heS\304)\022\024"
  43      39BBC8C0 
  43      4130284C 
  43      5C47B068 
  43      6553C429 
  44 009b 498A1445 		.ascii	"I\212\024E\232\"C\221\245\310Q\344)\012\024E\212\022"
  44      9A224391 
  44      A5C851E4 
  44      290A1445 
  44      8A12
  45 00ad 4599C21B 		.ascii	"E\231\302\033&t]\267W\002\250\371\247\025/\011\350\026"
  45      26745DB7 
  45      5702A8F9 
  45      A7152F09 
  45      E816
  46 00bf 329A8D21 		.ascii	"2\232\215!\014\216\373\337rU|\201&4\220]\202Wn\267\223"
  46      0C8EFBDF 
  46      72557C81 
  46      2634905D 
  46      82576EB7 
  47 00d4 72109FC2 		.ascii	"r\020\237\302\001:\310n{a\270\207O\334\010\370K\377"
  47      013AC86E 
  47      7B61B887 
  47      4FDC08F8 
  47      4BFF
  48 00e6 0156513E 		.ascii	"\001VQ>\366\020\036\2775\344n\243\021\334\017\017\375"
  48      F6101EBF 
  48      35E46EA3 
  48      11DC0F0F 
  48      FD
  49 00f7 2B83C5E0 		.ascii	"+\203\305\340\202^\315\006\235\017\341\321\361\227\357"
  49      825ECD06 
  49      9D0FE1D1 
  49      F197EF
  50 0106 BF46952D 		.ascii	"\277F\225-\252\341U\210\320\334s\335\025\007\315\240"
  50      AAE15588 
  50      D0DC73DD 
  50      1507CDA0 
  51 0116 98D54093 		.ascii	"\230\325@\223\212DE\021\0243\033\001\016>|\212\252 "
  51      8A444511 
  51      14331B01 
  51      0E3E7C8A 
  51      AA20
  52 0128 EEDC88C4 		.ascii	"\356\334\210\304\246\2351\267\327\025$1\261\331\020"
  52      A69D31B7 
  52      D7152431 
  52      B1D910
  53 0137 245640F2 		.ascii	"$V@\362W!\261\265I\"g!1\005\211\035\220\354\377\030"
  53      5721B1B5 
  53      49226721 
  53      3105891D 
  53      90ECFF18 
ARM GAS  /tmp/cclxNKtz.s 			page 4


  54 014b 93C4B549 		.ascii	"\223\304\265I\254\263\220D\005I< \351+$\211\251I\354"
  54      ACB39044 
  54      05493C20 
  54      E92B2489 
  54      A949EC
  55 015e 19ECEC4F 		.ascii	"\031\354\354O\262\223\020}\242\220$\265It\354\204H\244"
  55      B293107D 
  55      A29024B5 
  55      4974EC84 
  55      48A4
  56 0170 9DA4E813 		.ascii	"\235\244\350\023\205$\245M\242c'D\"\355\244D\237\374"
  56      8524A54D 
  56      A2632744 
  56      22EDA444 
  56      9FFC
  57 0182 1C93A4A7 		.ascii	"\034\223\244\247&\221\305t\354\034N\262\223\026}\242"
  57      2691C574 
  57      EC1C4EB2 
  57      93167DA2 
  58 0192 9064B449 		.ascii	"\220d\264It\354\204H\244\235\214\350\023\205$\253M\242"
  58      74EC8448 
  58      A49D8CE8 
  58      138524AB 
  58      4DA2
  59 01a4 63274422 		.ascii	"c'D\"\355dE\237($\271\251I\3423\330y9\311NN\364\311"
  59      ED64459F 
  59      2824B9A9 
  59      49E233D8 
  59      7939C94E 
  60 01bb EF31495E 		.ascii	"\3571I^\233D\307N\210D\332\311\213>QH\012\332$:vB$\322"
  60      9B44C74E 
  60      8844DAC9 
  60      8B3E5148 
  60      0ADA243A 
  61 01d3 4E41D851 		.ascii	"NA\330QH\212S\223\234\233\301\316\233Iv\212\302\316"
  61      488A5393 
  61      9C9BC1CE 
  61      9B49768A 
  61      C2CE
  62 01e5 9F314949 		.ascii	"\2371II\233D\307N\210D\332)\011;\012IY\233D\307N\210"
  62      9B44C74E 
  62      8844DA29 
  62      093B0A49 
  62      599B44C7 
  63 01fb 44DA2903 		.ascii	"D\332)\003|\206\316\311\327\013\301~9*\336\327\315\373"
  63      7C86CEC9 
  63      D70BC17E 
  63      392ADED7 
  63      CDFB
  64 020d 91A1D77E 		.ascii	"\221\241\327~\2157\333\353k\274\326\256\357\362\372"
  64      8D37DBEB 
  64      6BBCD6AE 
  64      EFF2FA
  65 021c DA0EAF35 		.ascii	"\332\016\2575\235U\247\275\305\2677\037\334\277\307"
  65      9D55A7BD 
  65      C5B7371F 
  65      DCBFC7
ARM GAS  /tmp/cclxNKtz.s 			page 5


  66 022b BD45B3DA 		.ascii	"\275E\263\332\342\033\355\315\355-~\263\262<\177\205"
  66      E21BEDCD 
  66      ED2D7EB3 
  66      B23C7F85 
  67 023b 2F2D5DE5 		.ascii	"/-]\345\0137\026\257\357\314\361\215j\353n\253U\277"
  67      0B3716AF 
  67      EFCCF18D 
  67      6AEB6EAB 
  67      55BF
  68 024d 5C837F81 		.ascii	"\\\203\177\201V\024\251"
  68      5614A9
  69              		.text
  70              		.section	.gnu.lto__pal_lld_setgroupmode.d77ef892ed433d09,"",%progbits
  71 0000 789C9555 		.ascii	"x\234\225U]h\\E\024>g\356\377\356\335\335\2224i~\232"
  71      5D685C45 
  71      143E67EE 
  71      FFEEDDDD 
  71      9234697E 
  72 0015 9F2E4D14 		.ascii	"\237.M\024D/\265/\276\371\242\250\020\261b\002\372\244"
  72      442FB52F 
  72      BEF9A2A8 
  72      10B16202 
  72      FAA4
  73 0027 E9A6BDBB 		.ascii	"\351\246\275\273\2701%\255\005\361\241w\273\373P\212"
  73      B83125AD 
  73      05F1A177 
  73      BBFB508A 
  74 0037 48105CE2 		.ascii	"H\020\\\342\317C\252\024A\243QA\232\330\202IPhmZ\350"
  74      CF43AA14 
  74      41A35141 
  74      9AD88249 
  74      50686D5A 
  75 004c 535C5321 		.ascii	"S\\S!*(\230\240\202\010\251\266\256g\346\316\334\375"
  75      2A2898A0 
  75      8208A9B6 
  75      AE67E6CE 
  75      DCFD
  76 005e 5149BDB0 		.ascii	"QI\275\260s\346\236\357\234\363}sf\346.\003\006\315"
  76      73E69EEF 
  76      9CF37D73 
  76      66E62E03 
  76      06CD
  77 0070 CF27F4F3 		.ascii	"\317'\364\363,\200\307\311\342\016@6u\025\240`3\246"
  77      2C80C7C9 
  77      E20E4036 
  77      7515A060 
  77      33A6
  78 0082 FDDA0641 		.ascii	"\375\332\006AL\237\271\017\002WC3t\353\314\020nS\270"
  78      4C9FB90F 
  78      02574333 
  78      74EBCC10 
  78      6E53B8
  79 0095 0DE53631 		.ascii	"\015\34561\031N,f\237\272\203p\207\217\256\215\261\320"
  79      194E2C66 
  79      9FBA8370 
  79      878FAE8D 
  79      B1D0
ARM GAS  /tmp/cclxNKtz.s 			page 6


  80 00a7 EDA8498C 		.ascii	"\355\250I\214\305\005\356\012<\216\211\320\355\252I"
  80      C505EE0A 
  80      3C8E89D0 
  80      EDAA49
  81 00b6 222CB464 		.ascii	"\",\264d'\231\265\360\005Pdj\325\246\310\024\"\367\003"
  81      2799B5F0 
  81      0550646A 
  81      D5A6C814 
  81      22F703
  82 00c9 C209A6E9 		.ascii	"\302\011\246\351\206i\331N,\356&\222)<\361\024\362e"
  82      8669D94E 
  82      2CEE2692 
  82      293CF114 
  82      F265
  83 00db E8E30869 		.ascii	"\350\343\010i8\023\004\257\254\237\375\340\222\366Z"
  83      381304AF 
  83      AC9FFDE0 
  83      92F65A
  84 00ea B0589A09 		.ascii	"\260X\232\011nV\253\2109\244U?\214\220Ax\222^\260_\030"
  84      6E56AB88 
  84      39A4553F 
  84      8C904178 
  84      925EB05F 
  85 00ff A637B621 		.ascii	"\2467\266!\314\015n\215]\014J\213\325\352\375\"k\350"
  85      CC0D6E8D 
  85      5D0C4A8B 
  85      D5EAFD22 
  85      6BE8
  86 0111 F6B2167F 		.ascii	"\366\262\026\177?\375rg0sr*\370\213\010s\25018\260]"
  86      3FFD7267 
  86      3073722A 
  86      F88B0873 
  86      A83138B0 
  87 0126 E61C5B5C 		.ascii	"\346\034[\\\257VW\256m~\267\201-w\"\214#2\030\3053\230"
  87      AF5657AE 
  87      6D7EB781 
  87      2D77228C 
  87      233218C5 
  88 013c 064D5A5D 		.ascii	"\006MZ]ZCZSZKZ[ZG\332\030\331\263d]\034G\226\244AK\321"
  88      5A435A53 
  88      5A4B5A5B 
  88      5A47DA18 
  88      D9B3645D 
  89 0157 802D9043 		.ascii	"\200-\220C\275\225\260\267\011\333)c\333\244m\227v\227"
  89      BD95B0B7 
  89      09DB2963 
  89      DBA46D97 
  89      7697
  90 0169 B41D146C 		.ascii	"\264\035\024lt\312\227.i\273\271s\267|\351\221\266\227"
  90      74CA972E 
  90      69BBB973 
  90      B77CE991 
  90      B697
  91 017b 4BEE9394 		.ascii	"K\356\223\224\375<b\017\037\322|\330\313\207\001>\014"
  91      FD3C620F 
  91      1FD27CD8 
  91      CB87013E 
ARM GAS  /tmp/cclxNKtz.s 			page 7


  91      0C
  92 018c F281966B 		.ascii	"\362\201\226k@)\010\246\372i\223\302\354PM\230\014\274"
  92      402908A6 
  92      FA6993C2 
  92      EC504D98 
  92      0CBC
  93 019e 55F40CD3 		.ascii	"U\364\014\323H\233=B\215X\265\265\213\360\371\217K7"
  93      489B3D42 
  93      8D58B5B5 
  93      8BF0F98F 
  93      4B37
  94 01b0 4E6BA3F8 		.ascii	"Nk\243\370\016U\360\321\345]4\264\272\026\216\240\006"
  94      0E55F0D1 
  94      E55D34B4 
  94      BA168EA0 
  94      06
  95 01c1 E7987605 		.ascii	"\347\230v\005\226/\317\317-\2610\360.x7(\025\202\375"
  95      962FCFCF 
  95      2DB130F0 
  95      2E783728 
  95      1582FD
  96 01d4 3934DF80 		.ascii	"94\337\200\327)\305\3621\311Sm\221s\020\303\\\037S\252"
  96      D729C5F2 
  96      31C9536D 
  96      917310C3 
  96      5C1F53AA 
  97 01e8 880E3366 		.ascii	"\210\0163f\310v\353\313D#\233\336\300f\300:\012\266"
  97      C876EBCB 
  97      44239BDE 
  97      C066C03A 
  97      0AB6
  98 01fa ADB91B78 		.ascii	"\255\271\033x\233l\330\314f\362\265]\201\223\327\247"
  98      9B6CD8CC 
  98      66F2B55D 
  98      8193D7A7 
  99 020a 3F56457C 		.ascii	"?VE|l\271\033f\203\0359t\250Ha\212\317b/\302\037\301"
  99      6CB91B66 
  99      831D3974 
  99      A848618A 
  99      CF622FC2 
 100 0220 349FC5C7 		.ascii	"4\237\305\307E\015^4.\213\271\221(*\364s\261W\225i\245"
 100      450D5E34 
 100      2E8BB991 
 100      282AF473 
 100      B1579569 
 101 0235 4A8AC702 		.ascii	"J\212\307\002\272>DT|\2778W\356P\021;}4x%W\027\311\004"
 101      BA3E4454 
 101      7CBF3857 
 101      EE50113B 
 101      7D347825 
 102 024d 7ED4AEB0 		.ascii	"~\324\256\2606\037\265F\354\\\271S\201\355>:\215\340"
 102      361FB546 
 102      EC5CB953 
 102      81ED3E3A 
 102      8DE0
 103 025f 4294B8CB 		.ascii	"B\224\270\313G\253\036;_\374\254\334\247\300\016\037"
 103      47AB1E3B 
ARM GAS  /tmp/cclxNKtz.s 			page 8


 103      5FFCACDC 
 103      A7C00E1F 
 104 026f 51F432E0 		.ascii	"Q\3642\340\313\340m.\354\2130\001\324\337\212\021j\334"
 104      CBE06D2E 
 104      EC8B3001 
 104      D4DF8A11 
 104      6ADC
 105 0281 37692E7B 		.ascii	"7i.{\241\370}\271K\005v\222r\021\233\212\342\234(n\243"
 105      A1F87DB9 
 105      4B057692 
 105      72119B8A 
 105      E29C286E 
 106 0296 DCADE2BA 		.ascii	"\334\255\342\272\204\320V\025\023S=8_\374\245\246\250"
 106      84D05615 
 106      13533D38 
 106      5FFCA5A6 
 106      A8
 107 02a7 3B5214B0 		.ascii	";R\024\260\177H\352n\222T\001\235\350\355\227\326\262"
 107      7F48EA6E 
 107      9254019D 
 107      E8ED97D6 
 107      B2
 108 02b8 24C1B950 		.ascii	"$\301\271Py\246\0026\221\330\327+cD\347\314\256\345"
 108      79A60236 
 108      91D8D72B 
 108      6344E7CC 
 108      AEE5
 109 02ca 39513C12 		.ascii	"9Q<\022\363[M\364nji\223h7\212\373\263&\272Gt0\022\235"
 109      F35B4DF4 
 109      6E6A6993 
 109      68378AFB 
 109      B326BA47 
 110 02e2 A86D5CB5 		.ascii	"\250m\\\265V\254W\212v1\354\361\251\342{eO\201}>\306"
 110      56AC578A 
 110      7631ECF1 
 110      A9E27B65 
 110      4F817D3E 
 111 02f7 38A8A1D4 		.ascii	"8\250\241\324\314\210=\276\3025\267\271+\\\263I\034"
 111      CC883DBE 
 111      C235B7B9 
 111      2B5CB349 
 111      1C
 112 0308 F14DAEB9 		.ascii	"\361M\256\271\307\335\0145'\201>\250t\356K?,\275z9:"
 112      C7DD0C35 
 112      27813EA8 
 112      74EE4B3F 
 112      2CBD7A39 
 113 031d 89611DAB 		.ascii	"\211a\035\253n\375H\207\327\244\2417qs-[\001qD\0100"
 113      6EFD4887 
 113      D7A4A137 
 113      71732D5B 
 113      01714408 
 114 0332 DFACD0D6 		.ascii	"\337\254\320\326\262\004V\300P\256y\315G\235{,\345\231"
 114      B20456C0 
 114      50AE79CD 
 114      479D7B2C 
 114      E599
ARM GAS  /tmp/cclxNKtz.s 			page 9


 115 0344 367C34B9 		.ascii	"6|4\271\307Q\236-\362\330\334\0232\221g\266B:\373\022"
 115      C7519E2D 
 115      F2D8DC13 
 115      329167B6 
 115      423AFB12 
 116 0358 5B065795 		.ascii	"[\006W\225\012\257\307\362\327\363\237~\313\224\250"
 116      0AAFC7F2 
 116      D7F39F7E 
 116      CB94A8
 117 0367 7E71CDF0 		.ascii	"~q\315\360?/\231\372S\023;\375S\264\226=\224\351s\012"
 117      3F2F99FA 
 117      53133BFD 
 117      53B4963D 
 117      94E9730A 
 118 037b D1F1B7A2 		.ascii	"\321\361\267\242ri\001Y\334\277|\351C\253\341&\247\266"
 118      72690159 
 118      DCBF7CE9 
 118      43ABE126 
 118      A7B6
 119 038d 21F1F9F7 		.ascii	"!\361\371\367\212\353\373\252N\337\336m\364i\377\256"
 119      8AEBFBAA 
 119      4EDFDE6D 
 119      F469FFAE 
 120 039d 6F80327D 		.ascii	"o\2002}~\330\232\364\015\012\310\371\237\3724\251o\020"
 120      7ED89AF4 
 120      0D0AC8F9 
 120      9FFA34A9 
 120      6F10
 121 03af E01A14D6 		.ascii	"\340\032\024\3267\006\302<\365\014\323\247h\325\346"
 121      3706C23C 
 121      F50CD3A7 
 121      68D5E6
 122 03be 8B78D0CB 		.ascii	"\213x\320\313N\214\037\3622\023c/xc\207\216{\231l\356"
 122      4E8C1FF2 
 122      3213632F 
 122      7863878E 
 122      7B996CEE 
 123 03d2 606EE2A8 		.ascii	"`n\342\250wl\362\371\347\236\365h\222\035\315{G&&\217"
 123      776CF2F9 
 123      E79EF568 
 123      921DCD7B 
 123      4726268F 
 124 03e6 1DF59E18 		.ascii	"\035\365\236\030~t\377\275\336\320\320\003\336C\007"
 124      7E74FFBD 
 124      DED0D003 
 124      DE4307
 125 03f5 1E79ECF8 		.ascii	"\036y\354\370>\357\310h\376\351|~\354\236\014h\231\311"
 125      3EEFC868 
 125      FEE97C7E 
 125      EC9E0C68 
 125      99C9
 126 0407 BC9639EC 		.ascii	"\274\2269\354c\356o/\030\306\254"
 126      63EE6F2F 
 126      18C6AC
 127              		.text
 128              		.section	.gnu.lto_.symbol_nodes.d77ef892ed433d09,"",%progbits
 129 0000 789C6362 		.ascii	"x\234cb`bPg\200\002\246\343\214\365\014\014\023\316"
ARM GAS  /tmp/cclxNKtz.s 			page 10


 129      60625067 
 129      8002A6E3 
 129      8CF50C0C 
 129      13CE
 130 0012 3130D4D7 		.ascii	"10\324\327\317\353`d:\301X\317\210\340\262\236dd`\251"
 130      CFEB6064 
 130      3AC158CF 
 130      88E0B29E 
 130      646460A9 
 131 0026 67660000 		.ascii	"gf\000\000\354\007\013\033"
 131      EC070B1B 
 132              		.text
 133              		.section	.gnu.lto_.refs.d77ef892ed433d09,"",%progbits
 134 0000 789C6362 		.ascii	"x\234cb`b`e\200\000FF \007\000\000\237\000\016"
 134      60626065 
 134      80004646 
 134      20070000 
 134      9F000E
 135              		.text
 136              		.section	.gnu.lto_.decls.d77ef892ed433d09,"",%progbits
 137 0000 789CAD58 		.ascii	"x\234\255X}L\024G\024\237\331]\201\203\003?\022\214"
 137      7D4C1447 
 137      149FD95D 
 137      8183033F 
 137      128C
 138 0012 4DDA7236 		.ascii	"M\332r6\332V[]Q\333h\322\330\300\341W\212J\016M\372"
 138      DA565B5D 
 138      51DB68D2 
 138      D8C0E157 
 138      8A4A0E4D 
 139 0027 DF75E50E 		.ascii	"\337u\345\016\270\010\034\201\305\350\037MV\300\217"
 139      B8081C81 
 139      C5E81F4D 
 139      56C08F
 140 0036 42AC684B 		.ascii	"B\254hK\221\332\022\0201X5\212\324X\213![\252\026\304"
 140      91DA1210 
 140      3158358A 
 140      D4588B21 
 140      5BAA16C4 
 141 004a 0F42A1C6 		.ascii	"\017B\241\306\030\024\377065\375\260\255\237\261^\337"
 141      1814FF30 
 141      3635FDB0 
 141      AD9FB15E 
 141      DF
 142 005b CCEE1E37 		.ascii	"\314\356\0367\367\301\355\0317y3so\337\373\315\2337"
 142      F7C1ED19 
 142      37793373 
 142      6FDFFBCD 
 142      9B37
 143 006d 33EFBD3D 		.ascii	"3\357\275=\016q\350m\214\220\017\236\223\251\010}\314"
 143      0E71E86D 
 143      8C900F9E 
 143      93A9087D 
 143      CC
 144 007e 21C42384 		.ascii	"!\304#\204\226\000\001\033\305#\355\0016j\001\352\327"
 144      9600011B 
 144      C523ED01 
ARM GAS  /tmp/cclxNKtz.s 			page 11


 144      366A01EA 
 144      D7
 145 008f F90F10FB 		.ascii	"\371\017\020\373\220w\211\272\3740\220\000B\257\000"
 145      907789BA 
 145      FC309000 
 145      42AF00
 146 009e BD0A9406 		.ascii	"\275\012\224\006\324\006\274\003@W\200n\003Y\201R\201"
 146      D406BC03 
 146      4057806E 
 146      03598152 
 146      81
 147 00af 7F18FA0E 		.ascii	"\177\030\372\016\240\353@]@W\201N\003\015\001u\003\251"
 147      A0EB405D 
 147      4057814E 
 147      030D0175 
 147      03A9
 148 00c1 403D4067 		.ascii	"@=@g\365y[\364\2767h~bW2\320\011\240\024\035\177B\300"
 148      F5795BF4 
 148      BE37687E 
 148      625732D0 
 148      09A0141D 
 149 00d8 1A86F5B9 		.ascii	"\032\206\365\271/\003=\002z\010d\203\227\002\322h\004"
 149      2F033D02 
 149      7A086483 
 149      9702D268 
 149      04
 150 00e9 E8A63EFF 		.ascii	"\350\246>\377\220\256\327\257\277#k\275\007\364\017"
 150      90AED7AF 
 150      BF236BBD 
 150      07F40F
 151 00f8 D09F41F3 		.ascii	"\320\237A\363\246\241&\245ytt\353\235\343/)\315\225"
 151      A6A126A5 
 151      797474EB 
 151      9DE32F29 
 151      CD95
 152 010a AACFF73E 		.ascii	"\252\317\367>\232\212\352\025x\232\267)\012\226%\274"
 152      9A8AEA15 
 152      789AB729 
 152      0A9625BC 
 153 011a 24157D88 		.ascii	"$\025}\210%\234bA6:\260Z((B\022\336\217\247\322\021"
 153      259C6241 
 153      363AB05A 
 153      28284212 
 153      DE8FA7D2 
 154 012f 4FDD8B92 		.ascii	"O\335\213\222P\215\242T\022\305\025\275)S\320n\212\002"
 154      508DA254 
 154      12C515BD 
 154      2953D06E 
 154      8A02
 155 0141 20BDB020 		.ascii	" \275\260 \035b\22470\336\003\205\231\350\200\242\324"
 155      1D629437 
 155      30DE0385 
 155      99E880A2 
 155      D4
 156 0152 8D769CBF 		.ascii	"\215v\234\277\221\256(\011\272\206-\242\270\204\017"
 156      91AE2809 
 156      BA862DA2 
ARM GAS  /tmp/cclxNKtz.s 			page 12


 156      B8840F
 157 0161 E29928AA 		.ascii	"\342\231(\252\030\021l\307S\320lt\010\344\352\024\245"
 157      18116CC7 
 157      53D06C74 
 157      08E4EA14 
 157      A5
 158 0172 E70D8E59 		.ascii	"\347\015\216Y3\235VQ;\316[\025A\023%*\207\360l\024\346"
 158      339D5651 
 158      3BCE5B15 
 158      4113252A 
 158      87F06C14 
 159 0187 998E9A89 		.ascii	"\231\216\232\211\360\311\363_a\245\271\007\207\231\375"
 159      F0C9F35F 
 159      61A5B907 
 159      8799FD
 160 0196 236372AB 		.ascii	"#cr\253\177I\252/\231\223\360\021\220\346P=\306\014"
 160      7F49AA2F 
 160      9993F011 
 160      90E6503D 
 160      C60C
 161 01a8 7A340462 		.ascii	"z4\004b\3131\320\324tt[\357\271m\0327\232\245\225\352"
 161      CB31D0D4 
 161      74745BEF 
 161      B96D1A37 
 161      9AA595EA 
 162 01bc FDB63EAC 		.ascii	"\375\266>\254\354\001\260\035c\233\201\302n\241\341"
 162      EC01B01D 
 162      639B81C2 
 162      6EA1E1
 163 01cb FEDA733F 		.ascii	"\376\332s?\340J\330'\011\237\300\026\260\370R\220\305"
 163      E04AD827 
 163      099FC016 
 163      B0F85290 
 163      C5
 164 01dc E6A1463E 		.ascii	"\346\241F>=\263\030vR\302')P-\307\002I8\336\022h1\375"
 164      3DB31876 
 164      52C22729 
 164      502DC702 
 164      4938DE12 
 165 01f3 6D081034 		.ascii	"m\010\0204\372Z\037\220\033=\021\305*\316\241/\350\244"
 165      FA5A1F90 
 165      1B3D11C5 
 165      2ACEA12F 
 165      E8A4
 166 0205 C457E10C 		.ascii	"\304W\341\014\325\207\332\243\0130\376\033\355\330\326"
 166      D587DAA3 
 166      0B30FE1B 
 166      EDD8D6
 167 0214 3DAB5151 		.ascii	"=\253QQ\253y\303\035_\306\014hc6\344\251\273w\236\201"
 167      AB79C31D 
 167      5FC60C68 
 167      6336E4A9 
 167      BB779E81 
 168 0228 D564062B 		.ascii	"\325d\006+!\214q\341\236\300s\"\341\343p7$\334\201\247"
 168      218C71E1 
 168      9EC07322 
 168      E1E37037 
ARM GAS  /tmp/cclxNKtz.s 			page 13


 168      24DC81A7 
 169 023c 437B9AB6 		.ascii	"C{\232\266]\320\372\037\016\355\247s\267\217\315\315"
 169      5DD0FA1F 
 169      0EEDA773 
 169      B78FCDCD 
 170 024c 1CBB688E 		.ascii	"\034\273h\216Q\324\323\372\0250\016\366!3x\314Zl\014"
 170      51D4D3FA 
 170      15300EF6 
 170      213378CC 
 170      5A6C0C
 171 025f DE996575 		.ascii	"\336\231eu\222\201u\334\014\326\264\310\266\015\004"
 171      928175DC 
 171      0CD6B4C8 
 171      B60D04
 172 026e 609D3283 		.ascii	"`\2352\203e\213l\327/\001X\335f\260\346\215\267_\306"
 172      658B6CD7 
 172      2F0158DD 
 172      66B0E68D 
 172      B75FC6
 173 0281 F67C43B7 		.ascii	"\366|C\267\3470\335\230n\332\252\264\355\241\355Yv\253"
 173      E730DD98 
 173      6EDAAAB4 
 173      EDA1ED59 
 173      76AB
 174 0293 CE855C1C 		.ascii	"\316\205\\\034-J\005\240\266\373\267\036\231\305\215"
 174      2D4A05A0 
 174      B6FBB71E 
 174      99C58D
 175 02a2 14C60FE0 		.ascii	"\024\306\017\340\2441\334u|\200\035W\202\354\230\201"
 175      A431DC75 
 175      7C801D57 
 175      82EC9881 
 176 02b2 5A15650F 		.ascii	"Z\025e\017d\213_\005\270\"\202\246\312\241\021*\326"
 176      648B5F05 
 176      B82282A6 
 176      CAA1112A 
 176      D6
 177 02c3 82D3C24E 		.ascii	"\202\323\302N\341\237\340u\324F\"\337Ne\353$L\363\012"
 177      E19FE075 
 177      D44622DF 
 177      4E65EB24 
 177      4CF30A
 178 02d6 D2B59885 		.ascii	"\322\265\230\205\375\204\231h\255%(\365\363\013\326"
 178      FD849968 
 178      AD2528F5 
 178      F30BD6
 179 02e5 BA2DA33E 		.ascii	"\272-\243>_\232\371\354t1zvb\222\0106\000^F\376\200"
 179      5F9AF9EC 
 179      74317A76 
 179      62920836 
 179      005E46FE 
 180 02fa D6D8703F 		.ascii	"\326\330p?\255\212\206\306+\364<4\361Q\2039\213C\014"
 180      AD8A86C6 
 180      2BF43C34 
 180      F1518339 
 180      8B430C
 181 030d 190C8EE6 		.ascii	"\031\014\216\346\235\276^L\303\344`\364\210^]\245\236"
ARM GAS  /tmp/cclxNKtz.s 			page 14


 181      9DBE5E4C 
 181      C3E460F4 
 181      885E5DA5 
 181      9E
 182 031e F2F57234 		.ascii	"\362\365r4\"\321@\\5n \226p'=hf\"\345a\272\230\301\347"
 182      22D1405C 
 182      356E2096 
 182      70273D68 
 182      6622E561 
 183 0336 8B9460D7 		.ascii	"\213\224`\327wd\031{\254\022\036\246\261\355X\314p6"
 183      7764197B 
 183      AC121EA6 
 183      B1ED58CC 
 183      7036
 184 0348 06EE7B16 		.ascii	"\006\356{\026\256\323\014\\\270P\251\303\235a\341N\305"
 184      AED30C5C 
 184      B850A9C3 
 184      9D61E14E 
 184      C5
 185 0359 0CC75AD7 		.ascii	"\014\307Z\327\315\302u\231\201\233\024\331\272\001\026"
 185      CDC27599 
 185      819B14D9 
 185      BA0116
 186 0368 4E8D198E 		.ascii	"N\215\031\216\265n\220\205;k\006.\\8\015\367\004\036"
 186      B56E9085 
 186      3B6B062E 
 186      5C380DF7 
 186      041E
 187 037a 6009FF4C 		.ascii	"`\011\377L\217\327\020\215.Wi{\215\266\327i;B\333\233"
 187      8FD7108D 
 187      2E57697B 
 187      8DB6D769 
 187      3B42DB9B 
 188 038e B4BD152D 		.ascii	"\264\275\025-\366\030\365\307\266\377\266`\355\222]"
 188      F618F5C7 
 188      B6FFB660 
 188      ED925D
 189 039d A6E1A42F 		.ascii	"\246\341\244/\350\22217W\273\211\221\356\374m\000\010"
 189      E8923137 
 189      57BB8991 
 189      EEFC6D00 
 189      08
 190 03ae 7F9D42DE 		.ascii	"\177\235B\336\351a\301tq\243vmO%\365\342\035\352\341"
 190      E961C174 
 190      71A3766D 
 190      4F25F5E2 
 190      1DEAE1
 191 03c1 213E3842 		.ascii	"!>8B\223\004\317\314g\252\266\211\331\212\241x\250,"
 191      9304CFCC 
 191      67AAB689 
 191      D98AA178 
 191      A82C
 192 03d3 EF521B6E 		.ascii	"\357R\033n\275 \033\202\202\376o|\330\240\177n\377c"
 192      BD201B82 
 192      82FE6F7C 
 192      D8A07F6E 
 192      FF63
ARM GAS  /tmp/cclxNKtz.s 			page 15


 193 03e5 3DE86BBB 		.ascii	"=\350k\273\244\010D\254?b\320'R\272\256\332p\341\010"
 193      A40844AC 
 193      3F62D027 
 193      52BAAEDA 
 193      70E108
 194 03f8 7C5E7086 		.ascii	"|^p\206\363\266FQ%R\206j\343\205\203\232\252\266\346"
 194      F3B64651 
 194      2552866A 
 194      E385839A 
 194      AAB6E6
 195 040b 9A28AA77 		.ascii	"\232(\252w5\017h\251F\255\257\251j\306J\234?\331\364"
 195      350F68A9 
 195      46ADAFA9 
 195      6AC64A9C 
 195      3FD9F4
 196 041e 07279B3F 		.ascii	"\007'\233?\330d\363\032jQ\006\006\324}5\244\322\251"
 196      D864F31A 
 196      6A510606 
 196      D47D35A4 
 196      D2A9
 197 0430 AC539EF9 		.ascii	"\254S\236\371|x2\252\243!~o\212\276I\243m\352\264\275"
 197      7C7832AA 
 197      A3217E6F 
 197      8ABE49A3 
 197      6DEAB4BD 
 198 0444 639B9460 		.ascii	"c\233\224`\030\200\003\216t\355\321\267 \300\373\025"
 198      1880038E 
 198      74EDD1B7 
 198      20C0FB15 
 199 0454 94880A12 		.ascii	"\224\210\012\022~L/\024f7\012[\306\006>Lve\227\020\266"
 199      7E4C2F14 
 199      66370A5B 
 199      C6063E4C 
 199      76659710 
 200 0469 281F0FDB 		.ascii	"(\037\017\333_\2247-\242\331\346)\365`\203\020|j\202"
 200      5F94372D 
 200      A2D9E629 
 200      F5608310 
 200      7C6A82
 201 047c 0F4D145B 		.ascii	"\017M\024[b\221\325\315\252\363\347D\255\212\031\363"
 201      6291D5CD 
 201      AAF3E744 
 201      AD8A19F3 
 202 048c A9849F80 		.ascii	"\251\204\237\200h\0041\011\023\367\373W\253\370C\200"
 202      68043109 
 202      13F7FB57 
 202      ABF84380 
 203 049c D5123102 		.ascii	"\325\0221\002(\234\266\032\177\276\321\007\223\031\263"
 203      289CB61A 
 203      7FBED107 
 203      9319B3
 204 04ab 0D29F047 		.ascii	"\015)\360GK\360\211\012\266\202C\355\202\266\354\205"
 204      4BF0890A 
 204      B68243ED 
 204      82B6EC85 
 205 04bb A853D9A1 		.ascii	"\250S\331\2416O\220\360C\260\313\0379\365\365\012\006"
 205      364F90F0 
ARM GAS  /tmp/cclxNKtz.s 			page 16


 205      43B0CB1F 
 205      39F5F50A 
 205      06
 206 04cc 071B1CCE 		.ascii	"\007\033\034\316\340p!2\274\301I08B\010g\002\353R\340"
 206      E0702132 
 206      BCC14930 
 206      38420867 
 206      02EB52E0 
 207 04e0 C4191CDE 		.ascii	"\304\031\034\336\340\304\033\234x\366\010\004\342XB"
 207      E0C41B9C 
 207      78F60804 
 207      E25842
 208 04ef 3889219C 		.ascii	"8\211!\234\244\020\2165\204\223\034\302I\011\341L\014"
 208      A4108E35 
 208      84931CC2 
 208      4909E14C 
 208      0C
 209 0500 E14C3238 		.ascii	"\341L28I\006g\262\301!\341'L\005\245r\306\006\274\211"
 209      490667B2 
 209      C121E127 
 209      4C05A572 
 209      C606BC89 
 210 0514 022AB14B 		.ascii	"\002*\261K\263\264$Q\315\221J\354[!j%\306\342\220m\337"
 210      B3B42451 
 210      CD914AEC 
 210      5B216A25 
 210      C6E2906D 
 211 0529 CE055562 		.ascii	"\316\005Ub\327Z\373\264J\214\274\211^\211\215\264\366"
 211      D75AFBB4 
 211      4A8CBC89 
 211      5E898DB4 
 211      F6
 212 053a 71FAB7A1 		.ascii	"q\372\267\241\236\267\251\025D\371\371J\250\033\255"
 212      9EB7A915 
 212      44F9F94A 
 212      A81BAD
 213 0549 7D8179FB 		.ascii	"}\201y\373\307\230\341l\014\334_,\\\257\031\270qJ\250"
 213      C798E16C 
 213      0CDC5F2C 
 213      5CAF19B8 
 213      714AA8
 214 055c BF59B88B 		.ascii	"\277Y\270\2131\303\261\326\375\313\302\015\233\201\033"
 214      31C3B1D6 
 214      FDCBC20D 
 214      9B811B
 215 056b A7847AC0 		.ascii	"\247\204z\300\302\335\210\031\216\265\356\021\013w\333"
 215      C2DD8819 
 215      8EB5EE11 
 215      0B77DB
 216 057a 0C5CA42F 		.ascii	"\014\\\244/R\200{\302\302\375\0363\034k\335S\026\356"
 216      52807BC2 
 216      C2FD1E33 
 216      1C6BDD53 
 216      16EE
 217 058c BE19385B 		.ascii	"\276\0318[d\353\236\261pOb\206\263\205\273%\332\023"
 217      64EB9EB1 
 217      704F6286 
ARM GAS  /tmp/cclxNKtz.s 			page 17


 217      B385BB25 
 217      DA13
 218 059e 78CD24BC 		.ascii	"x\315$\274\203#\351\355\023\216T\204\265\264\335I\333"
 218      8323E9ED 
 218      138E5484 
 218      B5B4DD49 
 218      DB
 219 05af 5DB4DD4D 		.ascii	"]\264\335M\333\317h[O\333\006\3326\322v\037\027PA\006"
 219      DBCF685B 
 219      4FDB06DA 
 219      36D2761F 
 219      17504106 
 220 05c3 5581D511 		.ascii	"U\201\325\021\214%\363\177\315\371?h\375\205\225\372"
 220      8C25F37F 
 220      CDF93F68 
 220      FD8595FA 
 221 05d3 023E99C2 		.ascii	"\002>\231\302\377\247\311\374% \341\243\024\354\030"
 221      FFA7C9FC 
 221      2520E1A3 
 221      14EC18
 222 05e2 F3791EF1 		.ascii	"\363y\036\361_\231\240E\005\244\225\220E5\217-\012-"
 222      5F99A045 
 222      05A49590 
 222      45358F2D 
 222      0A2D
 223 05f4 150BBDC5 		.ascii	"\025\013\275\305n1\317\353\332,\272\334\033\305\274"
 223      6E31CFEB 
 223      DA2CBADC 
 223      1BC5BC
 224 0603 42CF7A8F 		.ascii	"B\317z\217\267\\\224\313*J6\2100(\224\212\304Ro\231"
 224      B75C94CB 
 224      2A4A3688 
 224      3028948A 
 224      C4526F99 
 225 0617 5C2EE6AE 		.ascii	"\\.\346\256]\265`\276\230\235\235%.\317Y\271fc\272X"
 225      5DB560BE 
 225      989D9D25 
 225      2ECF59B9 
 225      6663BA58 
 226 062b 2A15398B 		.ascii	"*\0259\213\212\\s\363^\010J!\212[\276z\235\315\216\246"
 226      8A5C73F3 
 226      5E084A21 
 226      8A5BBE7A 
 226      9DCD8EA6 
 227 063f 94CBC50B 		.ascii	"\224\313\305\013\346;\013J=^g\271[\256(u\3123\304\212"
 227      E63B0B4A 
 227      3D5E67B9 
 227      5BAE2875 
 227      CA33C48A 
 228 0653 F232512A 		.ascii	"\3622Q*+\236S\342-q\317qK\353=\242\247$\257\250\302"
 228      2B9E53E2 
 228      2D71CF71 
 228      4BEB3DA2 
 228      A724AFA8 
 229 0668 E516CB65 		.ascii	"\345\026\313e\227\247D\006\365\204\012\350AQ^8\216t"
 229      97A74406 
 229      F5840AE8 
ARM GAS  /tmp/cclxNKtz.s 			page 18


 229      41515E38 
 229      8E74
 230 067a B104B695 		.ascii	"\261\004\266\225\270E\247\313\235/U\024\311Nys\251\273"
 230      B845A7CB 
 230      9D2F5514 
 230      C94E7973 
 230      A9BB
 231 068c 1CB4139D 		.ascii	"\034\264\023\235NC\237\367\272\312\370\274\262\"\240"
 231      4E439FF7 
 231      BACAF8BC 
 231      B222A0
 232 069b C2B89C8C 		.ascii	"\302\270\234\214,I\226\342r2\265\316\256uYZ\267\224"
 232      2C4996E2 
 232      7232B5CE 
 232      AE75595A 
 232      B794
 233 06ad 74969C8C 		.ascii	"t\226\234\214l\273\267$\337S\220\354\324\027\343\364"
 233      6CBBB724 
 233      DF5390EC 
 233      D417E3F4 
 234 06bd 9478E4B8 		.ascii	"\224x\344\270<\312\\\034\3157\356M\262h_\225\2732\027"
 234      3CCA5C1C 
 234      CD37EE4D 
 234      B2685F95 
 234      BB3217
 235 06d0 7C23D2B5 		.ascii	"|#\322\265\347\247\317\333\004&Y\211\207\234k\301\300"
 235      E7A7CFDB 
 235      04265989 
 235      879C6BC1 
 235      C0
 236 06e1 2C773E6F 		.ascii	",w>owd\003\255\340Wf9\3705Y\016!3\327\341\3403\035\016"
 236      776403AD 
 236      E0576639 
 236      F835590E 
 236      2133D7E1 
 237 06f9 21DBFE81 		.ascii	"!\333\376\201#\321\343%\356\365\270\234\262U\033\026"
 237      23D1E325 
 237      EEF5B89C 
 237      B2551B16 
 238 0709 4BE51B9C 		.ascii	"K\345\033\234r\202\307[\354u\271\235r\252\3374piA\231"
 238      7282C75B 
 238      EC75B99D 
 238      72AADF34 
 238      70694199 
 239 071d B7A294F0 		.ascii	"\267\242\224\360\005\")\020Q\201\374\214'\036X\344\224"
 239      05222910 
 239      5181FC8C 
 239      271E58E4 
 239      94
 240 072e 2D9A2F60 		.ascii	"-\232/`\024\227\227_ K\353\223\264n\356\273\213\336"
 240      1497975F 
 240      204BEB93 
 240      B46EEEBB 
 240      8BDE
 241 0740 494F72D8 		.ascii	"IOr\330\355\206Q\234\335!\330\227-w\360\366\225\216"
 241      ED86519C 
 241      DD21D897 
ARM GAS  /tmp/cclxNKtz.s 			page 19


 241      2D77F0F6 
 241      958E
 242 0752 848C9CCC 		.ascii	"\204\214\234\314\371\216\334\265t\220N\006q\031+2\227"
 242      F98EDCB5 
 242      74904E06 
 242      71192B32 
 242      97
 243 0763 AE76C493 		.ascii	"\256v\304\223\027z\237\016\275\220\231e\007\215\\\307"
 243      177A9F0E 
 243      BD909965 
 243      078D5CC7 
 244 0773 FF2094B6 		.ascii	"\377 \224\266\203"
 244      83
 245              		.text
 246              		.section	.gnu.lto_.symtab.d77ef892ed433d09,"",%progbits
 247 0000 5F70616C 		.ascii	"_pal_lld_init\000\000\000\000\000\000\000\000\000\000"
 247      5F6C6C64 
 247      5F696E69 
 247      74000000 
 247      00000000 
 248 0017 0000A100 		.ascii	"\000\000\241\000\000\000_pal_lld_setgroupmode\000\000"
 248      00005F70 
 248      616C5F6C 
 248      6C645F73 
 248      65746772 
 249 0034 00000000 		.ascii	"\000\000\000\000\000\000\000\000\000\000\313\000\000"
 249      00000000 
 249      0000CB00 
 249      00
 250 0041 00       		.ascii	"\000"
 251              		.text
 252              		.section	.gnu.lto_.opts,"",%progbits
 253 0000 272D6D63 		.ascii	"'-mcpu=cortex-m3' '-mno-thumb-interwork' '-mthumb' "
 253      70753D63 
 253      6F727465 
 253      782D6D33 
 253      2720272D 
 254 0033 272D4F32 		.ascii	"'-O2' '-fomit-frame-pointer' '-falign-functions=16'"
 254      2720272D 
 254      666F6D69 
 254      742D6672 
 254      616D652D 
 255 0066 20272D66 		.ascii	" '-ffunction-sections' '-fdata-sections' '-fno-comm"
 255      66756E63 
 255      74696F6E 
 255      2D736563 
 255      74696F6E 
 256 0099 6F6E2720 		.ascii	"on' '-flto'\000"
 256      272D666C 
 256      746F2700 
 257              		.text
 258              		.section	.text._pal_lld_init,"ax",%progbits
 259              		.align	2
 260              		.p2align 4,,15
 261              		.global	_pal_lld_init
 262              		.thumb
 263              		.thumb_func
ARM GAS  /tmp/cclxNKtz.s 			page 20


 264              		.type	_pal_lld_init, %function
 265              	_pal_lld_init:
 266              		@ args = 0, pretend = 0, frame = 0
 267              		@ frame_needed = 0, uses_anonymous_args = 0
 268              		@ link register save eliminated.
 269 0000 154A     		ldr	r2, .L2
 270 0002 30B4     		push	{r4, r5}
 271 0004 9169     		ldr	r1, [r2, #24]
 272 0006 154B     		ldr	r3, .L2+4
 273 0008 41F07D01 		orr	r1, r1, #125
 274 000c 9161     		str	r1, [r2, #24]
 275 000e 0268     		ldr	r2, [r0]
 276 0010 134C     		ldr	r4, .L2+8
 277 0012 DA60     		str	r2, [r3, #12]
 278 0014 8268     		ldr	r2, [r0, #8]
 279 0016 1349     		ldr	r1, .L2+12
 280 0018 5A60     		str	r2, [r3, #4]
 281 001a 4568     		ldr	r5, [r0, #4]
 282 001c 124A     		ldr	r2, .L2+16
 283 001e 1D60     		str	r5, [r3]
 284 0020 C568     		ldr	r5, [r0, #12]
 285 0022 03F58053 		add	r3, r3, #4096
 286 0026 E560     		str	r5, [r4, #12]
 287 0028 4569     		ldr	r5, [r0, #20]
 288 002a 6560     		str	r5, [r4, #4]
 289 002c 0569     		ldr	r5, [r0, #16]
 290 002e 2560     		str	r5, [r4]
 291 0030 8469     		ldr	r4, [r0, #24]
 292 0032 CC60     		str	r4, [r1, #12]
 293 0034 046A     		ldr	r4, [r0, #32]
 294 0036 4C60     		str	r4, [r1, #4]
 295 0038 C469     		ldr	r4, [r0, #28]
 296 003a 0C60     		str	r4, [r1]
 297 003c 416A     		ldr	r1, [r0, #36]
 298 003e 30BC     		pop	{r4, r5}
 299 0040 D160     		str	r1, [r2, #12]
 300 0042 C16A     		ldr	r1, [r0, #44]
 301 0044 5160     		str	r1, [r2, #4]
 302 0046 816A     		ldr	r1, [r0, #40]
 303 0048 1160     		str	r1, [r2]
 304 004a 026B     		ldr	r2, [r0, #48]
 305 004c DA60     		str	r2, [r3, #12]
 306 004e 826B     		ldr	r2, [r0, #56]
 307 0050 5A60     		str	r2, [r3, #4]
 308 0052 426B     		ldr	r2, [r0, #52]
 309 0054 1A60     		str	r2, [r3]
 310 0056 7047     		bx	lr
 311              	.L3:
 312              		.align	2
 313              	.L2:
 314 0058 00100240 		.word	1073876992
 315 005c 00080140 		.word	1073809408
 316 0060 000C0140 		.word	1073810432
 317 0064 00100140 		.word	1073811456
 318 0068 00140140 		.word	1073812480
 319              		.size	_pal_lld_init, .-_pal_lld_init
 320 006c AFF30080 		.section	.text._pal_lld_setgroupmode,"ax",%progbits
ARM GAS  /tmp/cclxNKtz.s 			page 21


 321              		.align	2
 322              		.p2align 4,,15
 323              		.global	_pal_lld_setgroupmode
 324              		.thumb
 325              		.thumb_func
 326              		.type	_pal_lld_setgroupmode, %function
 327              	_pal_lld_setgroupmode:
 328              		@ args = 0, pretend = 0, frame = 0
 329              		@ frame_needed = 0, uses_anonymous_args = 0
 330              		@ link register save eliminated.
 331 0000 032A     		cmp	r2, #3
 332 0002 F0B4     		push	{r4, r5, r6, r7}
 333 0004 2BD0     		beq	.L15
 334 0006 042A     		cmp	r2, #4
 335 0008 08BF     		it	eq
 336 000a 4161     		streq	r1, [r0, #20]
 337              	.L6:
 338 000c 154C     		ldr	r4, .L16
 339 000e 0023     		movs	r3, #0
 340 0010 A75C     		ldrb	r7, [r4, r2]	@ zero_extendqisi2
 341 0012 1D46     		mov	r5, r3
 342 0014 1C46     		mov	r4, r3
 343 0016 1A46     		mov	r2, r3
 344 0018 0826     		movs	r6, #8
 345              	.L12:
 346 001a 11F0800F 		tst	r1, #128
 347 001e 4FEA0212 		lsl	r2, r2, #4
 348 0022 4FEA0313 		lsl	r3, r3, #4
 349 0026 4FEA0515 		lsl	r5, r5, #4
 350 002a 4FEA0414 		lsl	r4, r4, #4
 351 002e 0CBF     		ite	eq
 352 0030 42F00F02 		orreq	r2, r2, #15
 353 0034 3B43     		orrne	r3, r3, r7
 354 0036 11F4004F 		tst	r1, #32768
 355 003a 0CBF     		ite	eq
 356 003c 45F00F05 		orreq	r5, r5, #15
 357 0040 3C43     		orrne	r4, r4, r7
 358 0042 013E     		subs	r6, r6, #1
 359 0044 4FEA4101 		lsl	r1, r1, #1
 360 0048 E7D1     		bne	.L12
 361 004a 4168     		ldr	r1, [r0, #4]
 362 004c 0D40     		ands	r5, r5, r1
 363 004e 2C43     		orrs	r4, r4, r5
 364 0050 4460     		str	r4, [r0, #4]
 365 0052 0168     		ldr	r1, [r0]
 366 0054 F0BC     		pop	{r4, r5, r6, r7}
 367 0056 0A40     		ands	r2, r2, r1
 368 0058 1343     		orrs	r3, r3, r2
 369 005a 0360     		str	r3, [r0]
 370 005c 7047     		bx	lr
 371              	.L15:
 372 005e 0161     		str	r1, [r0, #16]
 373 0060 D4E7     		b	.L6
 374              	.L17:
 375 0062 00BF     		.align	2
 376              	.L16:
 377 0064 00000000 		.word	.LANCHOR0
ARM GAS  /tmp/cclxNKtz.s 			page 22


 378              		.size	_pal_lld_setgroupmode, .-_pal_lld_setgroupmode
 379 0068 AFF30080 		.section	.rodata.cfgtab.6851,"a",%progbits
 379      AFF30080 
 380              		.align	2
 381              		.set	.LANCHOR0,. + 0
 382              		.type	cfgtab.6851, %object
 383              		.size	cfgtab.6851, 18
 384              	cfgtab.6851:
 385 0000 04       		.byte	4
 386 0001 02       		.byte	2
 387 0002 04       		.byte	4
 388 0003 08       		.byte	8
 389 0004 08       		.byte	8
 390 0005 00       		.byte	0
 391 0006 03       		.byte	3
 392 0007 07       		.byte	7
 393 0008 08       		.byte	8
 394 0009 08       		.byte	8
 395 000a 08       		.byte	8
 396 000b 08       		.byte	8
 397 000c 08       		.byte	8
 398 000d 08       		.byte	8
 399 000e 08       		.byte	8
 400 000f 08       		.byte	8
 401 0010 0B       		.byte	11
 402 0011 0F       		.byte	15
 403              		.comm	__gnu_lto_v1,1,1
 404 0012 0000     		.ident	"GCC: (GNU Tools for ARM Embedded Processors) 4.8.4 20140526 (release) [ARM/embedded-4_8-br
ARM GAS  /tmp/cclxNKtz.s 			page 23


DEFINED SYMBOLS
                            *ABS*:0000000000000000 pal_lld.c
     /tmp/cclxNKtz.s:259    .text._pal_lld_init:0000000000000000 $t
     /tmp/cclxNKtz.s:265    .text._pal_lld_init:0000000000000000 _pal_lld_init
     /tmp/cclxNKtz.s:314    .text._pal_lld_init:0000000000000058 $d
     /tmp/cclxNKtz.s:321    .text._pal_lld_setgroupmode:0000000000000000 $t
     /tmp/cclxNKtz.s:327    .text._pal_lld_setgroupmode:0000000000000000 _pal_lld_setgroupmode
     /tmp/cclxNKtz.s:377    .text._pal_lld_setgroupmode:0000000000000064 $d
     /tmp/cclxNKtz.s:380    .rodata.cfgtab.6851:0000000000000000 $d
     /tmp/cclxNKtz.s:384    .rodata.cfgtab.6851:0000000000000000 cfgtab.6851
                            *COM*:0000000000000001 __gnu_lto_v1
     /tmp/cclxNKtz.s:320    .text._pal_lld_init:000000000000006c $t
     /tmp/cclxNKtz.s:379    .text._pal_lld_setgroupmode:0000000000000068 $t

NO UNDEFINED SYMBOLS
