ARM GAS  /tmp/cchgl6UF.s 			page 1


   1              		.syntax unified
   2              		.cpu cortex-m4
   3              		.eabi_attribute 27, 3
   4              		.eabi_attribute 28, 1
   5              		.fpu fpv4-sp-d16
   6              		.eabi_attribute 20, 1
   7              		.eabi_attribute 21, 1
   8              		.eabi_attribute 23, 3
   9              		.eabi_attribute 24, 1
  10              		.eabi_attribute 25, 1
  11              		.eabi_attribute 26, 1
  12              		.eabi_attribute 30, 2
  13              		.eabi_attribute 34, 1
  14              		.eabi_attribute 18, 4
  15              		.thumb
  16              		.file	"sdmmcsimple.c"
  17              		.section	.gnu.lto_.jmpfuncs.81b0c5be25e1dd64,"",%progbits
  18 0000 789C858F 		.ascii	"x\234\205\2171K\303@\024\307\377/i\215M\255\255:\025"
  18      314BC340 
  18      14C7FF2F 
  18      698D4DAD 
  18      AD3A15
  19 0013 E5B8C54D 		.ascii	"\345\270\305M\2508\211S!m\267(\244\213\202\213\330\014"
  19      A8388953 
  19      216DB728 
  19      A48B828B 
  19      D80C
  20 0025 0193408C 		.ascii	"\001\223@\214\005\351\222\261Sq,\202\237\307\325\317"
  20      05E992B1 
  20      53712C82 
  20      9FC7D5CF 
  21 0035 E3E4BBDC 		.ascii	"\343\344\273\334a\215D\314r\357\362\373\275\367\376"
  21      618D44CC 
  21      72EFF2FB 
  21      BDF7FE
  22 0044 67C142DD 		.ascii	"g\301B\335\367N\300\212O\0076W\266\315\345\234O\200"
  22      F74EC08A 
  22      4F073657 
  22      B6CDE59C 
  22      4F80
  23 0056 E60A7393 		.ascii	"\346\012s\223uM\021\251\232\370f;\352\317\002\237\305"
  23      754D11A9 
  23      9AF8663B 
  23      EACF029F 
  23      C5
  24 0067 BAE84544 		.ascii	"\272\350ED\002\364V\254\207\021\351\351\025h\013\034"
  24      02F456AC 
  24      8711E9E9 
  24      15680B1C 
  25 0077 6AD880EE 		.ascii	"j\330\200\356\257\362\246\300\271\346[%\267K\264T\310"
  25      AFF2A6C0 
  25      B9E65B25 
  25      B74BB454 
  25      C8
  26 0088 8949CFFB 		.ascii	"\211I\317\373\226\267\005n\264\334\322D\245rQF\335X"
  26      96B7056E 
  26      B4DCD244 
ARM GAS  /tmp/cchgl6UF.s 			page 2


  26      A5725146 
  26      DD58
  27 009a 6D815B6D 		.ascii	"m\201[m\355\230\367\361\034*\335\316G\367\327\376]\201"
  27      ED98F7F1 
  27      1C2ADDCE 
  27      47F7D7FE 
  27      5D81
  28 00ac 8596BB95 		.ascii	"\205\226\273\225\360e\202^L\346\321\234K\365\357\025"
  28      F065825E 
  28      4CE6D19C 
  28      4BF5EF15 
  29 00bc 0C1A6671 		.ascii	"\014\032fqgh\212\375\327f\275P\320\177\206\254\023^"
  29      67688AFD 
  29      D766BD50 
  29      D07F86AC 
  29      135E
  30 00ce 6A47C88D 		.ascii	"jG\310\215\260\254\013\321\007Z\344R\233\320\237\216"
  30      B0AC0BD1 
  30      075AE452 
  30      9BD09F8E 
  31 00de 06BEEF5D 		.ascii	"\006\276\357]\\\246r:\222\336]6\223\223\364)\231\271"
  31      5CA6723A 
  31      92DE5D36 
  31      9393F429 
  31      99B9
  32 00f0 38326412 		.ascii	"82d\022=\204r\372\374\230\207\261\364\031\345!C\371"
  32      3D8472FA 
  32      FC9887B1 
  32      F419E521 
  32      43F9
  33 0102 1794E32C 		.ascii	"\027\224\343,K3\027\326\000\3028\343 \270\012\244\227"
  33      4B3317D6 
  33      00C238E3 
  33      20B80AA4 
  33      97
  34 0113 2649789F 		.ascii	"&Ix\237\237\360\355\370\364\214G\034\030\374s\347\027"
  34      9FF0EDF8 
  34      F48C471C 
  34      18FC73E7 
  34      17
  35 0124 EEA17774 		.ascii	"\356\241wt"
  36              		.text
  37              		.section	.gnu.lto_.inline.81b0c5be25e1dd64,"",%progbits
  38 0000 789C8D91 		.ascii	"x\234\215\221\275\015\3020\020\205\337\235M\034\022"
  38      BD0DC230 
  38      1085DF9D 
  38      4D1C12
  39 000f 4041B448 		.ascii	"@A\264H\320Q\263\000b\202\324\224P\021\366\240\240\314"
  39      D051B300 
  39      6282D494 
  39      5011F6A0 
  39      A0CC
  40 0021 08E9E998 		.ascii	"\010\351\351\230\200)\230\201\0021\003\3473I\020\002"
  40      80299881 
  40      023103E7 
  40      33491002 
  41 0031 842DDDD9 		.ascii	"\204-\335\331\317\337=\3771\030\237ZE!;\330t\014\205"
ARM GAS  /tmp/cchgl6UF.s 			page 3


  41      CFDF3DFF 
  41      31189F5A 
  41      45213BD8 
  41      740C85
  42 0044 A26AD2B0 		.ascii	"\242j\322\260\204\316\0000e\356\273\351)@\210\035\201"
  42      84CE0030 
  42      65EEBBE9 
  42      2940881D 
  42      81
  43 0055 93326F50 		.ascii	"\2232oP\206\213D\212\317\213F2\270\340H\"\316o'\306"
  43      868B448A 
  43      CF8B4632 
  43      B8E04822 
  43      CE6F27C6 
  44 0069 F0BE09AA 		.ascii	"\360\276\011\252\267\220\302:s*~Og\231\352f\202\331"
  44      B790C23A 
  44      732A7E4F 
  44      6799EA66 
  44      82D9
  45 007b BE6E8AB0 		.ascii	"\276n\212\260\"\200r\337\252\225\256\253~\344\256?\245"
  45      228072DF 
  45      AA95AEAB 
  45      7EE4AE3F 
  45      A5
  46 008c 45B1A21D 		.ascii	"E\261\242\035\215DZc\333\016\251\211\210\352G\240\253"
  46      8D445A63 
  46      DB0EA989 
  46      88EA47A0 
  46      AB
  47 009d CB189DC3 		.ascii	"\313\030\235\303,\003\355\335\324rH\376\"\311\233W\321"
  47      2C03EDDD 
  47      D47248FE 
  47      22C99B57 
  47      D1
  48 00ae 7A15EA12 		.ascii	"z\025\352\022\342\362\037\257\024\326\310Ki\225}\341"
  48      E2F21FAF 
  48      14D6C84B 
  48      69957DE1 
  49 00be 6D88FA11 		.ascii	"m\210\372\021\017 a)\210"
  49      0F206129 
  49      88
  50              		.text
  51              		.section	.gnu.lto_.pureconst.81b0c5be25e1dd64,"",%progbits
  52 0000 789C6362 		.ascii	"x\234cb`b\340g\200\000v\006\011F)&)f)NV.VnV\000\007"
  52      6062E067 
  52      80007606 
  52      09462926 
  52      2966294E 
  53 001b 1400B4   		.ascii	"\024\000\264"
  54              		.text
  55              		.section	.gnu.lto_chprintf.81b0c5be25e1dd64,"",%progbits
  56 0000 789C8550 		.ascii	"x\234\205P\315J\002Q\024>\337\0355uc\333v\342\0034\213"
  56      CD4A0251 
  56      143EDF1D 
  56      357563DB 
  56      76E20334 
  57 0015 22E80D7A 		.ascii	"\"\350\015z\000\203Z\3058\216z\011\035\321Q\260\026"
ARM GAS  /tmp/cchgl6UF.s 			page 4


  57      00835AC5 
  57      388E7A09 
  57      1DD151B0 
  57      16
  58 0026 5EC1C245 		.ascii	"^\301\302E\013ig\021)\321:\244\027\030\202\332DI\273"
  58      0B696711 
  58      29D13AA4 
  58      171882DA 
  58      4449BB
  59 0039 162D2497 		.ascii	"\026-$\227\265h\321*\202\351\336\031\024\372\201\016"
  59      B568D12A 
  59      82E9DE19 
  59      14FA810E 
  60 0049 DC7B7EBE 		.ascii	"\334{~\276s\276\363\303\210\321OY\220o\010\2425\251"
  60      73BEF3C3 
  60      88D14F59 
  60      906F08A2 
  60      35A9
  61 005b A11158F7 		.ascii	"\241\021X\367\236\250\025e\2002\010\324dhnB\245\262"
  61      9EA81565 
  61      803208D4 
  61      64686E42 
  61      A5B2
  62 006d 140D84DB 		.ascii	"\024\015\204\333\035_O\036\321\023n\273/>=\017\340\220"
  62      1D5F4F1E 
  62      D1136EBB 
  62      2F3E3D0F 
  62      E090
  63 007f B42B2013 		.ascii	"\264+ \023\264!\035$}\305B\337\373\250Z\321uOon!\016"
  63      B4211D24 
  63      7DC542DF 
  63      FBA85AD1 
  63      754F6F6E 
  64 0095 45EBCDF3 		.ascii	"E\353\315\363\022\034\032\243\325\377\012/\230\373\354"
  64      121C1AA3 
  64      D5FF0A2F 
  64      98FBEC
  65 00a4 794FC3F7 		.ascii	"yO\303\367\203W\364XLC\021\024\222\037\"d\340\014)\225"
  65      8357F458 
  65      4C431114 
  65      921F2264 
  65      E00C2995 
  66 00b8 13A6B624 		.ascii	"\023\246\266$O\032\030H\177\0325\375\241\323\362W\233"
  66      4F1A1848 
  66      7F1A35FD 
  66      A1D3F257 
  66      9B
  67 00c9 AC8329AD 		.ascii	"\254\203)\255\215ho\3343\015\234#,\321]\372\020\035"
  67      8D686FDC 
  67      330D9C23 
  67      2CD15DFA 
  67      101D
  68 00db 31CF1132 		.ascii	"1\317\0212\341\247\313\310\016Gx\312\344g\251\2514\""
  68      E1A7CBC8 
  68      0E4778CA 
  68      E467A9A9 
  68      3422
ARM GAS  /tmp/cchgl6UF.s 			page 5


  69 00ed 2E3BD288 		.ascii	".;\322\210\366\307G\223x\200\344\021\231\021\314\231"
  69      F6C74793 
  69      7880E411 
  69      9911CC99 
  70 00fd 088E9B87 		.ascii	"\010\216\233\207\226G( \340\210\252\222\366\370\370"
  70      96472820 
  70      E088AA92 
  70      F6F8F8
  71 010c 77C798A9 		.ascii	"w\307\230\251H\377\356\310\021'\272\243\253\027\026"
  71      48FFEEC8 
  71      1127BAA3 
  71      AB1716
  72 011b 04027099 		.ascii	"\004\002p\231.EG\235[\312\003\265\372'\332l\214\340"
  72      2E45479D 
  72      5BCA03B5 
  72      FA27DA6C 
  72      8CE0
  73 012d 5469B983 		.ascii	"Ti\271\203\334Q\315\261\244\027\354\242\245\233v\266"
  73      DC51CDB1 
  73      A417ECA2 
  73      A59B76B6 
  74 013d A167ADBA 		.ascii	"\241g\255\272n\026x\206\333U\335\251\324J\333\2724\352"
  74      6E167886 
  74      DB55DDA9 
  74      D44ADBBA 
  74      34EA
  75 014f 4685DBB5 		.ascii	"F\205\333\265\252\004\312\025^rr\213\005bF9\221\263"
  75      AA04CA15 
  75      5E72728B 
  75      05624639 
  75      91B3
  76 0161 2B45C371 		.ascii	"+E\303q\254\354V\246\341X\325/\251H\201#"
  76      ACEC56A6 
  76      E158D52F 
  76      A9488123 
  77              		.text
  78              		.section	.gnu.lto_sd_is_card_inserted.81b0c5be25e1dd64,"",%progbits
  79 0000 789C5D50 		.ascii	"x\234]PKJ\003A\020}\257\253\333\210\004\365\000\"\356"
  79      4B4A0341 
  79      107DAFAB 
  79      DB8804F5 
  79      0022EE
  80 0013 05035EC4 		.ascii	"\005\003^\304M\002\272\324Q\302\200\003B\016\220\016"
  80      4D02BAD4 
  80      51C28003 
  80      420E900E 
  81 0023 8EE07296 		.ascii	"\216\340r\226\242\"\270\025I\016\240\013q\345&\202\220"
  81      A222B815 
  81      490EA00B 
  81      71E52682 
  81      90
  82 0034 8DC18507 		.ascii	"\215\301\205\007\360\016\261\252\207\004\261\241_\025"
  82      F00EB1AA 
  82      8704B1A1 
  82      5F15
  83 0042 F55E7D1D 		.ascii	"\365^}\035\034\376\277]\375\033\004\326\3252\200\256"
  83      1CFEBF5D 
ARM GAS  /tmp/cchgl6UF.s 			page 6


  83      FD1B04D6 
  83      D53280AE 
  84 0052 7A0706CB 		.ascii	"z\007\006\313\316\371\347M\304\025\231\264\020\233B"
  84      CEF9E74D 
  84      C41599B4 
  84      109B42
  85 0061 5F873D69 		.ascii	"_\207=i\016\210\276\023\317\376\001S\221\221{\371\236"
  85      0E88BE13 
  85      CFFE0153 
  85      91917BF9 
  85      9E
  86 0072 CD865F17 		.ascii	"\315\206_\027\323\306\022\221\023\242@o\020\014T\022"
  86      D3C61291 
  86      13A2406F 
  86      100C5412 
  87 0082 50C6586D 		.ascii	"P\306Xm\001YJi+Z\245\016\235Y\031\343uzu\327<\344\275"
  87      01594A69 
  87      2B5AA50E 
  87      9D5919E3 
  87      757A75D7 
  88 0099 667429DB 		.ascii	"ft)\333x\210%s\272\033\\\253\221}\005\037\253\313\350"
  88      78882573 
  88      BA1B5CAB 
  88      917D051F 
  88      ABCBE8
  89 00ac 91DCD4F6 		.ascii	"\221\334\324\366\210\363-\3068\037\312<\331wk}h\324"
  89      88F32DC6 
  89      381FCA3C 
  89      D9776B7D 
  89      68D4
  90 00be CCD38209 		.ascii	"\314\323\202\011J\032\223&zC\3713X[P)\376\3672m\012"
  90      4A1A9326 
  90      7A43F933 
  90      585B5029 
  90      FEF7326D 
  91 00d3 262DE968 		.ascii	"&-\351h3\233\360C\327\207\012\223\346\0234\275\336\301"
  91      339BF043 
  91      D7870A93 
  91      E61334BD 
  91      DEC1
  92 00e5 DDEE250F 		.ascii	"\335\356%\017\220\307\021-\213&\267C\257\366\216\213"
  92      90C7112D 
  92      8B26B743 
  92      AFF68E8B 
  93 00f5 22EBE5C5 		.ascii	"\"\353\345\305\331\351\311N\206_\306\036E\006"
  93      D9E9C94E 
  93      865FC61E 
  93      4506
  94              		.text
  95              		.section	.gnu.lto_sd_is_write_protected.81b0c5be25e1dd64,"",%progbits
  96 0000 789C6362 		.ascii	"x\234cb`b@\007\222@\374\015\210\005\200\230\221\231"
  96      60624007 
  96      9240FC0D 
  96      88058098 
  96      9199
  97 0012 819169C2 		.ascii	"\201\221i\3029\006\206F\016&FF\020\203\201\221\241\236"
  97      39068646 
ARM GAS  /tmp/cchgl6UF.s 			page 7


  97      0E264646 
  97      10838191 
  97      A19E
  98 0024 89B13E92 		.ascii	"\211\261>\222\021\254v=\323\201\007\377\377\257\233"
  98      11AC763D 
  98      D38107FF 
  98      FFAF9B
  99 0033 726C412F 		.ascii	"rlA/##\033\023C&#\0033\210`\001\021\254@\002\244\214"
  99      23231B13 
  99      43262303 
  99      33886001 
  99      11AC4002 
 100 0049 95A1A5A1 		.ascii	"\225\241\245\241a\202\002\003C2XS\010\220\004\231\024"
 100      61820203 
 100      43325853 
 100      08900499 
 100      14
 101 005a CAC804A2 		.ascii	"\312\310\004\242\231\3172\034\2725\343\361\003\306D"
 101      99CF321C 
 101      BA35E3F1 
 101      03C644
 102 0069 C6858CAC 		.ascii	"\306\205\214\254\014\351\214L\332\014\253\032Z\0303"
 102      0CE98C4C 
 102      DA0CAB1A 
 102      5A1833
 103 0078 19996633 		.ascii	"\031\231f3\314\002R\314\021@\202\245\241\241\243\201"
 103      CC0252CC 
 103      114082A5 
 103      A1A1A381 
 104 0088 8501CC04 		.ascii	"\205\001\314\004\333\234\304\010s\357Y\206\346u\314"
 104      DB9CC408 
 104      73EF5986 
 104      E675CC
 105 0097 30CDCC40 		.ascii	"0\315\314@\375 E\254\234\020\231\335p\031\226t\210I"
 105      FD2045AC 
 105      9C1099DD 
 105      70199674 
 105      8849
 106 00a9 0C8C1099 		.ascii	"\014\214\020\231\033\315b0)V\240,X\012\004.2\300]\302"
 106      1BCD6230 
 106      2956A02C 
 106      580A042E 
 106      32C05DC2 
 107 00bd 0AB12004 		.ascii	"\012\261 \004\350\013\240CA!\305W\234\222\233\233\\"
 107      E80BA043 
 107      4121C557 
 107      9C929B9B 
 107      5C
 108 00ce 9C995B90 		.ascii	"\234\231[\220\223\252\227\314\000\000\376\035;="
 108      93AA97CC 
 108      0000FE1D 
 108      3B3D
 109              		.text
 110              		.section	.gnu.lto_sdmmcInitialize.81b0c5be25e1dd64,"",%progbits
 111 0000 789CAD56 		.ascii	"x\234\255V[h\034e\024>gfw\366\226\346\326h\032\333L"
 111      5B681C65 
 111      143E6766 
ARM GAS  /tmp/cchgl6UF.s 			page 8


 111      77F696E6 
 111      D6681ADB 
 112 0015 C698189B 		.ascii	"\306\230\030\2334\327>y%P\333\267X{\011XTd\335\254\313"
 112      34D73E79 
 112      2550DBB7 
 112      587B0958 
 112      5464DDAC 
 113 002a 4036B19B 		.ascii	"@6\261\233\364A|\350\304DI\243m\327ja[\255\244J(\264"
 113      F4417CE8 
 113      C44449A3 
 113      6DD76A61 
 113      5BADA44A 
 114 0040 A5012B75 		.ascii	"\245\001+u\301\0077\305bJ\320\232\0075\211\012y\020"
 114      C10737C5 
 114      624AD09A 
 114      0735890A 
 114      7910
 115 0052 A4286210 		.ascii	"\244(b\0201\224\232\365\374\227\231\275$MR\350\300\376"
 115      31949AF5 
 115      FC9799BD 
 115      244D52E8 
 115      C0FE
 116 0064 97F39FEF 		.ascii	"\227\363\237\357\334\377\363\257\002\012\344\177G\350"
 116      DCFFF3AF 
 116      020AE47F 
 116      47E8
 117 0072 371700B8 		.ascii	"7\027\000\270B3\026\000*\361o\001\006\274\212\342\032"
 117      42331600 
 117      2AF16F01 
 117      06BC8AE2 
 117      1A
 118 0083 AE03CBAF 		.ascii	"\256\003\313\257\262\261@E\227 \273\024\2675\005D\367"
 118      B2B14045 
 118      9720BB14 
 118      B7350544 
 118      F7
 119 0094 C755A2BB 		.ascii	"\307U\242\273\025\355\353\"\332y\256?E;\015\003\202"
 119      15EDEB22 
 119      DA79AE3F 
 119      453B0D03 
 119      82
 120 00a5 CBA378D9 		.ascii	"\313\243x\331\261\337\307y\013\2746\335g/\374\366\""
 120      B1DFC779 
 120      0BBC36DD 
 120      672FFCF6 
 120      22
 121 00b6 80C81680 		.ascii	"\200\310\026\200pXQ]n\315\343\365\371\003x\370\0002"
 121      7058515D 
 121      6ECDE3F5 
 121      F90378F8 
 121      0032
 122 00c8 D3D46A38 		.ascii	"\323\324j8kY'\346\307.L\343\251\367SC\243\326\355t\032"
 122      6B5927E6 
 122      C72E4CE3 
 122      A9F75343 
 122      A3D6ED74 
 123 00dd D14472A3 		.ascii	"\321Dr\243\004!\204\360\034m\320\340\223\342\312\365"
ARM GAS  /tmp/cchgl6UF.s 			page 9


 123      042184F0 
 123      1C6DD0E0 
 123      93E2CAF5 
 124 00ed 8B63E3A9 		.ascii	"\213c\343\251\223#\307\312\255y+n-\021\324DU\001=\203"
 124      9323C7CA 
 124      AD792B6E 
 124      2D11D444 
 124      55013D83 
 125 0101 F40A24AE 		.ascii	"\364\012$\256\200<\221Z\0309\232\215t)P\273\026r\\I"
 125      803C915A 
 125      18399A8D 
 125      742950BB 
 125      16725C49 
 126 0115 CDA7D3EF 		.ascii	"\315\247\323\357|94\327\264\035\201\264\2710\212\240"
 126      7C3934D7 
 126      B41D81B4 
 126      B9308AA0 
 127 0125 D1801E1A 		.ascii	"\321\200\036\032\224R\242\271\313\330P\016A<\213\325"
 127      9452A2B9 
 127      CBD8500E 
 127      413C8BD5 
 128 0135 B0996D2A 		.ascii	"\260\231m*i\320t\242|B\224*yb\020\321SC\2331\332\324"
 128      69D074A2 
 128      7C42942A 
 128      796210D1 
 128      53439B31 
 129 014b 4A621D63 		.ascii	"Jb\035c\257\227\233F97\023\321\333\302\206V6\2641id"
 129      AF979B46 
 129      393713D1 
 129      DBC28656 
 129      36B43169 
 130 0160 8C1B8628 		.ascii	"\214\033\206(\000\206\220\012\314r\372\366\323\310\002"
 130      0086900A 
 130      CC72FAF6 
 130      D3C802
 131 016f DE890A9B 		.ascii	"\336\211\012\233\325o\340\215\251\344RJ\011\3429t\303"
 131      D56FE08D 
 131      A9E4524A 
 131      09E23974 
 131      C3
 132 0180 07707AC0 		.ascii	"\007pz\300\262\212)\300\257\303-k\230\255|QT\011\307"
 132      B28A29C0 
 132      AFC32D6B 
 132      98AD7C51 
 132      5409C7
 133 0193 BCF5711F 		.ascii	"\274\365q\037#H\201f\260\305\245\277P\300\032\340\274"
 133      23488166 
 133      B0C5A5BF 
 133      50C01AE0 
 133      BC
 134 01a4 455F11D9 		.ascii	"E_\021\331F\022\210\323\037A\215!\002\034\361\262\214"
 134      461288D3 
 134      1F418D21 
 134      021CF1B2 
 134      8C
 135 01b5 52043D1C 		.ascii	"R\004=\034yk\360\357\343z>\262`e\244\200\012k\254=\304"
 135      796BF0EF 
ARM GAS  /tmp/cchgl6UF.s 			page 10


 135      E37A3EB2 
 135      6065A480 
 135      0A6BAC3D 
 136 01ca 16459167 		.ascii	"\026E\221g\222\223L\246'\225|9\033V\226#\352\236Q6\330"
 136      92934CA6 
 136      27957C39 
 136      1B569623 
 136      EA9E5136 
 137 01df E89915D0 		.ascii	"\350\231\025\320\332\312h\325Ak\022=\225\370x\002\363"
 137      DACA68D5 
 137      416B123D 
 137      95F87802 
 137      F3
 138 01f0 82167082 		.ascii	"\202\026p\202V\030%\272\000\024J\327\011x\003\336\232"
 138      561825BA 
 138      00144AD7 
 138      097803DE 
 138      9A
 139 0201 3F3A2651 		.ascii	"?:&Q\220\011qQH\272\311\370\213\255\341a\313\305\227"
 139      90097151 
 139      48BAC9F8 
 139      8BADE161 
 139      CBC597
 140 0214 DE763E95 		.ascii	"\336v>\225TPBK9|\364\230{-t\334A[\242TK\214\014\374"
 140      5450424B 
 140      397CF498 
 140      7B2D74DC 
 140      415BA254 
 141 022c F89A70CB 		.ascii	"\370\232p\313\201\213[Ur\332\235\201'\356\002nk\317"
 141      818B5B55 
 141      72DA9D81 
 141      27EE026E 
 141      6BCF
 142 023e C69FBA0B 		.ascii	"\306\237\272\013|{.\234B>\267xnZ&,\202\245\015P/\312"
 142      7C7B2E9C 
 142      423EB778 
 142      6E5A262C 
 142      82A50D50 
 143 0254 8D626F3D 		.ascii	"\215bo=\177\247\222cz\207R\365\313\324n\014\311\212"
 143      7FA79263 
 143      7A8752F5 
 143      CBD46E0C 
 143      C98A
 144 0266 20492696 		.ascii	" I&\226\011\371\211\3637\321\226_\226#\177\317j\362"
 144      09F989F3 
 144      37D1965F 
 144      96237FCF 
 144      6AF2
 145 0278 DF4C552E 		.ascii	"\337LU.\223\177_H\326\014I\222\305{\320\304\373\243"
 145      937F5F48 
 145      D60C4992 
 145      C57BD0C4 
 145      FBA3
 146 028a A8495613 		.ascii	"\250IV\023\313\231\322\253s\211\217\012\344E\265o\254"
 146      CB99D2AB 
 146      73898F0A 
 146      E445B56F 
ARM GAS  /tmp/cchgl6UF.s 			page 11


 146      AC
 147 029b 357EF271 		.ascii	"5~\362q\000\301\027\022\325\036\301fV\243C\003\251\205"
 147      00C11712 
 147      D51EC166 
 147      56A34303 
 147      A985
 148 02ad A0899B98 		.ascii	"\240\211\233\230Uq\246\246\"/\347\305\3228\027\303_"
 148      5571A6A6 
 148      222FE7C5 
 148      D23817C3 
 148      5F
 149 02be E5269192 		.ascii	"\345&\221\222\301Kj\020'\270[-$\2111z<\342\344\013\347"
 149      C14B6A10 
 149      27B85B2D 
 149      2489317A 
 149      3CE2E40B 
 150 02d3 A4950E79 		.ascii	"\244\225\016y\340\231g\2230\364\307@\221s\304\351\331"
 150      E0996793 
 150      30F4C740 
 150      9173C4E9 
 150      D9
 151 02e4 7D6E3F79 		.ascii	"}n?y7\\\247v\222\"\326D\030\373\304\017~;vm\316E\021"
 151      375CA776 
 151      9222D644 
 151      18FBC40F 
 151      7E3B766D 
 152 02fb DF2C080A 		.ascii	"\337,\010\012\265\355\017w\3133\365\3428\262.\344\006"
 152      B5ED0F77 
 152      CB33F5E2 
 152      38B22EE4 
 152      06
 153 030c 7A225817 		.ascii	"z\"X\027\272\236\244&\357\264\2541\336\262\354\260\222"
 153      BA9EA426 
 153      EFB4AC31 
 153      DEB2ECB0 
 153      92
 154 031d CCF2F5B4 		.ascii	"\314\362\365\264&\226\015*\261k\271\271x $\2040)\214"
 154      26960D2A 
 154      B16BB9B9 
 154      78202484 
 154      30298C
 155 0330 98B0AC69 		.ascii	"\230\260\254i\202l\326a\353\031+\321n\342\026\220\030"
 155      826CD661 
 155      EB192BD1 
 155      6EE21690 
 155      18
 156 0341 132B7952 		.ascii	"\023+yR\2223\027J\004\211G\235\230u{Qe/\014\321)*\362"
 156      9233174A 
 156      0489479D 
 156      98757B51 
 156      652F0CD1 
 157 0358 EEAC9D01 		.ascii	"\356\254\235\001\267\23459{\234\"\177\260]T\345\350"
 157      B79C3539 
 157      7B9C227F 
 157      B05D54E5 
 157      E8
 158 0369 F87253AB 		.ascii	"\370rS\253C\022\300#\376]\021Y\364\220\250\315\344\245"
ARM GAS  /tmp/cchgl6UF.s 			page 12


 158      4312C023 
 158      FE5D1159 
 158      F490A8CD 
 158      E4A5
 159 037b 9B8A608F 		.ascii	"\233\212`\217\340\346\234\332<\270z\3557\332\250JGK"
 159      E0E69CDA 
 159      3CB87AED 
 159      37DAA84A 
 159      474B
 160 038d 4D489A43 		.ascii	"MH\232C\242L\254\345\012~\037|\305f\324#,\014\223\360"
 160      A24CACE5 
 160      0A7E1F7C 
 160      C566D423 
 160      2C0C93F0 
 161 03a1 D56F13FF 		.ascii	"\325o\023\377\2148Ju\246\340\341\354\367\256\223l\375"
 161      8C384A75 
 161      A6E0E1EC 
 161      F7AE936C 
 161      FD
 162 03b2 B790E72E 		.ascii	"\267\220\347.1\276\2006c\325\3722E\260?U\033cp\2257"
 162      31BE8036 
 162      63D5FA32 
 162      45B03F55 
 162      1B637095 
 163 03c7 405B2D79 		.ascii	"@[-yU2y\263$\245N\207'E\362\036\261\223GRx\376\204i"
 163      553279B3 
 163      24A54E87 
 163      2745F21E 
 163      B1934752 
 164 03df 1E38F284 		.ascii	"\0368\362\204\312\337\232\364I=\223K\372|k\274\021\231"
 164      CADF9AF4 
 164      493D934B 
 164      FA7C6BBC 
 164      1199
 165 03f1 B7664354 		.ascii	"\267fCT\306\2115\356\311k\216\2075\216u[C\362^\010J"
 165      C68935EE 
 165      C96B8E87 
 165      358E755B 
 165      43F25E08 
 166 0406 2A3D52E6 		.ascii	"*=R\346\300\204\265\251w\247t\023\353uxA\230\333`\233"
 166      C084B5A9 
 166      77A77413 
 166      EB757841 
 166      98DB609B 
 167 041a CB146F63 		.ascii	"\313\024oc%\327(\256\333\304{o;\261\256a\2079\177g:"
 167      25D728AE 
 167      DBC47B6F 
 167      3BB1AE61 
 167      87397F67 
 168 042f 49CF670A 		.ascii	"I\317g\012\217\365\342\247\231X\327\336\223[Q\233\025"
 168      8FF5E2A7 
 168      9958D7DE 
 168      935B519B 
 168      15
 169 0440 D8261D5E 		.ascii	"\330&\035^\022\2266\347\335\012\352\217\227g\035\023"
 169      129636E7 
 169      DD0AEA8F 
ARM GAS  /tmp/cchgl6UF.s 			page 13


 169      97671D13 
 170 0450 EB726AF0 		.ascii	"\353rj\360\305\325k\260a\231v*A\373\337D\235]\202\311"
 170      C5D56BB0 
 170      6199762A 
 170      41FBDF44 
 170      9D5D82C9 
 171 0464 E4E56925 		.ascii	"\344\345i%'U\255\353}\316E\210|\360\375\243\242\225"
 171      2755ADEB 
 171      7DCE4588 
 171      7CF0FDA3 
 171      A295
 172 0476 5CC984A8 		.ascii	"\\\311\204\250\376\236\204\250>+D-:X(b\324\232\037\243"
 172      FE9E84A8 
 172      3E2B442D 
 172      3A582862 
 172      D49A1FA3 
 173 048a E48CA33A 		.ascii	"\344\214\243:Snk\377\251@\307\007?\304U\356\303\314"
 173      536E6BFF 
 173      A940C707 
 173      3FC455EE 
 173      C3CC
 174 049c E7D3CE63 		.ascii	"\347\323\316c\324x\027>\234\273\243\017\215Y\315\257"
 174      D478173E 
 174      9CBBA30F 
 174      8D59CDAF 
 175 04ac 4D8733D2 		.ascii	"M\2073\322\207\355\340<I\316\355\011\360\266>M\377\317"
 175      87EDE03C 
 175      49CEED09 
 175      F0B63E4D 
 175      FFCF
 176 04be 19905B37 		.ascii	"\031\220[7\013HM@\373\371\307ML\245J\377\211\305\207"
 176      0B484D40 
 176      FBF9C74D 
 176      4CA54AFF 
 176      89C587
 177 04d1 87BDBF1E 		.ascii	"\207\275\277\036\340\244\3772$\377\355\237\274\234\006"
 177      E0A4FF32 
 177      24FFED9F 
 177      BC9C06
 178 04e0 E0BBF84B 		.ascii	"\340\273\370K\031{0\220\211di+\354\353\212FC}f\364\325"
 178      197B3090 
 178      8964692B 
 178      ECEB8A46 
 178      437D66F4 
 179 04f5 EE705308 		.ascii	"\356pS\010\012\372\30213\330\375lo\254\277\251E\353"
 179      0AFAC231 
 179      33D8FD6C 
 179      6FACBFA9 
 179      45EB
 180 0507 EB0FF61F 		.ascii	"\353\017\366\037\352S\303\261\330\306}O7wt\354xlG0\326"
 180      EA53C3B1 
 180      D8C67D4F 
 180      377774EC 
 180      786C4730 
 181 051c 65ECEA3D 		.ascii	"e\354\352=\324\323\345\007]\322v\356\335\273{\257\261"
 181      D4D3E507 
 181      5DD276EE 
ARM GAS  /tmp/cchgl6UF.s 			page 14


 181      DDBB7BAF 
 181      B1
 182 052d A3B7A727 		.ascii	"\243\267\247'\034\352\337F\273\332\2266:V\232\301\220"
 182      1CEADF46 
 182      BBDA9636 
 182      3A569AC1 
 182      90
 183 053e 1CBBCCEE 		.ascii	"\034\273\314\356\260\261\357\265\276\376p\324\350 p"
 183      B0B1EFB5 
 183      BEFE70D4 
 183      E82070
 184 054d BFB13316 		.ascii	"\277\2613\026\353\215\371a\313\235\030\302$\240B\036"
 184      EB8DF961 
 184      CB9D18C2 
 184      24A0421E 
 185 055d 3ED34B72 		.ascii	">\323Kr\214l\315\377\003V\327\005\330"
 185      8C6CCDFF 
 185      0356D705 
 185      D8
 186              		.text
 187              		.section	.gnu.lto_sdmmGetMMCDriver.81b0c5be25e1dd64,"",%progbits
 188 0000 789C6D50 		.ascii	"x\234mP=K\003A\020}ovO%\210\037`cg)\006\322X\344\217"
 188      3D4B0341 
 188      107D6F76 
 188      4F25881F 
 188      60636729 
 189 0019 78A0A539 		.ascii	"x\240\2459\3458\360@\310\017\310F\362\003R\206\330\230"
 189      E538F040 
 189      C80FC846 
 189      F2035286 
 189      D898
 190 002b 4E2CB4B5 		.ascii	"N,\264\265K*\021$\201\224I\223\224\026\251m\317\331"
 190      4B2A1124 
 190      81944993 
 190      9416A96D 
 190      CFD9
 191 003d 0D11230E 		.ascii	"\015\021#\016\354\316\314\356{o>\004\202\277v\252\347"
 191      ECCECCEE 
 191      7B6F3E04 
 191      82BF76AA 
 191      E7
 192 004e 90C09E7A 		.ascii	"\220\300\236zF\240\264G@sK\304<\276\001\256d?7\341\266"
 192      46A0B447 
 192      40734BC4 
 192      3CBE01AE 
 192      643F37E1 
 193 0063 0DEDF2DD 		.ascii	"\015\355\362\335\222>\000\321\020c\331\270`Py\221\301"
 193      923E00D1 
 193      1063D9B8 
 193      60507991 
 193      C1
 194 0074 BC289EBF 		.ascii	"\274(\236\277>\036\012\312\006\221\021\2069a5R\325,"
 194      3E1E0ACA 
 194      06911186 
 194      39613552 
 194      D52C
 195 0086 A022B49C 		.ascii	"\240\"\264\234k\037\001IH\317\364\366Z1\305{3\304\335"
ARM GAS  /tmp/cchgl6UF.s 			page 15


 195      6B1F0149 
 195      48CFF4F6 
 195      5A31C57B 
 195      33C4DD
 196 0099 B4D31FF3 		.ascii	"\264\323\037\363\222=\245\244\264e\234(\373\036]f\224"
 196      923DA5A4 
 196      B4659C28 
 196      FB1E5D66 
 196      94
 197 00aa 94E65CBD 		.ascii	"\224\346\\\275\011\345j\\\265\377\216\326\242\271\373"
 197      09E56A5C 
 197      B5FF8ED6 
 197      A2B9FB
 198 00b9 43F110FE 		.ascii	"C\361\020\376\036/V\206\016\022\304_\373\373+`T\306"
 198      1E2F5686 
 198      0E12C45F 
 198      FBFB2B60 
 198      54C6
 199 00cb 9353AB6A 		.ascii	"\223S\253jg\377\027\340\232\210\015\035\216u\001Pv\370"
 199      67FF17E0 
 199      9A880D1D 
 199      8E750150 
 199      76F8
 200 00dd 9B80AA63 		.ascii	"\233\200\252c\216=ISY\314\016\374L\364H\277\346\235"
 200      8E3D4953 
 200      59CC0EFC 
 200      4CF448BF 
 200      E69D
 201 00ef FA559E27 		.ascii	"\372U\236'\365,\277\275\271\256$\370\006\377sE\223"
 201      F52CBFBD 
 201      B9AE24F8 
 201      06FF7345 
 201      93
 202              		.text
 203              		.section	.gnu.lto_sdmmcGetFS.81b0c5be25e1dd64,"",%progbits
 204 0000 789C6D50 		.ascii	"x\234mP\273JCA\020=gf\257\212\210FHc\227R\014\244I\341"
 204      BB4A4341 
 204      103D6766 
 204      AF8A8846 
 204      48639752 
 205 0018 8F18D032 		.ascii	"\217\030\3202\336\204p!\027\204|@6\222\017H)\006D;\021"
 205      DE847021 
 205      17847C40 
 205      36920F48 
 205      2906443B 
 206 002d D1D6D24A 		.ascii	"\321\326\322Jl\014\244\324*UH\221.\037\020gW\"*\016"
 206      6C0CA4D4 
 206      2A554891 
 206      2E1F1067 
 206      57222A0E 
 207 0041 ECCECCEE 		.ascii	"\354\316\314\3569g\036\002\301_\253\332\331#P0\317\004"
 207      39671E02 
 207      C15FABDA 
 207      D9235030 
 207      CF04
 208 0053 94C108E8 		.ascii	"\224\301\010\350m\210\350\355\013\3407\335l\035~K\351"
 208      6D88E8ED 
ARM GAS  /tmp/cchgl6UF.s 			page 16


 208      0BE037DD 
 208      6C1D7E4B 
 208      E9
 209 0064 BEDE1D19 		.ascii	"\276\336\035\031\002\020]Q\307\356\011\243\312\243<"
 209      02105D51 
 209      C7EE09A3 
 209      CAA33C
 210 0073 4F96CB87 		.ascii	"O\226\313\207\253\321\365\220\272Fd\2042'\234E\246\232"
 210      ABD1F590 
 210      BA466484 
 210      32279C45 
 210      A69A
 211 0085 455482BE 		.ascii	"ET\202\276\367\203\022\220\306\364\310\356\240U\243"
 211      F7831290 
 211      C6F4C8EE 
 211      A055A3
 212 0094 04AF6F38 		.ascii	"\004\257o8\377\270\230\216Y\347\215QZte\034\030{\210"
 212      FFB8988E 
 212      59E78D51 
 212      5A74651C 
 212      187B88
 213 00a7 4B669416 		.ascii	"Kf\224\026\365\330\274\306r\247\\\265\377\212\376\274"
 213      F5D8BCC6 
 213      72A75CB5 
 213      FF8AFEBC 
 214 00b7 B7F34D09 		.ascii	"\267\363M\011\020\376\034\257f\014\033$\212?MwW\300"
 214      10FE1CAF 
 214      660C1B24 
 214      8A3F4D77 
 214      57C0
 215 00c9 A48C3B6F 		.ascii	"\244\214;ovh\235\375_\200\277D\\\354pl\013\200\261\343"
 215      76689DFD 
 215      5F80BF44 
 215      5CEC706C 
 215      0B80B1E3 
 216 00dd DF3B683A 		.ascii	"\337;h:\272\037H\226\312\375\242\030fb@\2065ow\032y"
 216      BA1F4896 
 216      CAFDA218 
 216      66624086 
 216      356F771A 
 217 00f2 9E76B2FC 		.ascii	"\236v\262\374\254\335\254\244\370\004c\272D\375"
 217      ACDDACA4 
 217      F80463BA 
 217      44FD
 218              		.text
 219              		.section	.gnu.lto_sdmmcFSMounted.81b0c5be25e1dd64,"",%progbits
 220 0000 789C6362 		.ascii	"x\234cb`b@\007\222@<\003\210\005\200\230\221\231\201"
 220      60624007 
 220      92403C03 
 220      88058098 
 220      919981
 221 0013 9169C239 		.ascii	"\221i\3029\006\206F\016&FF\020\203\201\221\241\236\211"
 221      0686460E 
 221      26464610 
 221      838191A1 
 221      9E89
 222 0025 B13E9211 		.ascii	"\261>\222\021\254v=\323\201\007\377\377\257\273vn\301"
ARM GAS  /tmp/cchgl6UF.s 			page 17


 222      AC763DD3 
 222      8107FFFF 
 222      AFBB766E 
 222      C1
 223 0036 5A466616 		.ascii	"ZFf\026&\306\\F\006f\206L\260\034+CKC\303\004\005\006"
 223      26C65C46 
 223      0666864C 
 223      B01C2B43 
 223      4B43C304 
 224 004c 86643037 		.ascii	"\206d07\004H\202\364\20722\201h\346\263\014M\267f\274"
 224      044882F4 
 224      87323281 
 224      68E6B30C 
 224      4DB766BC 
 225 0060 564C645C 		.ascii	"VLd\\\310\310\312\220\316\310\254\315\260\252\001\010"
 225      C8C8CA90 
 225      CEC8ACCD 
 225      B0AA0108 
 226 0070 AC819A67 		.ascii	"\254\201\232g3\314b\314ddLgd\212\000\322\020\007&1\302"
 226      33CC62CC 
 226      64644C67 
 226      648A00D2 
 226      10072631 
 227 0085 9C7791A1 		.ascii	"\234w\221\241\361\000\013\\\033D,\204\221\021d(H)_q"
 227      F1000B5C 
 227      1B442C84 
 227      91116428 
 227      48295F71 
 228 0099 4A6E6E72 		.ascii	"JnnrqfnAN\252^2\003\000\353B*\272"
 228      71666E41 
 228      4EAA5E32 
 228      0300EB42 
 228      2ABA
 229              		.text
 230              		.section	.gnu.lto_.symbol_nodes.81b0c5be25e1dd64,"",%progbits
 231 0000 789C4DCC 		.ascii	"x\234M\314KR\302@\024\205\341\323\247\323\340\023\360"
 231      4B52C240 
 231      1485E1D3 
 231      A7D3E013 
 231      F0
 232 0011 3DD02A37 		.ascii	"=\320*7\340\246\\\311E\032!\212 \006\2153\007f\035N"
 232      E0A65CC9 
 232      451A218A 
 232      20068D33 
 232      07661D4E 
 233 0025 4CC6BA05 		.ascii	"L\306\272\005\225r\346\032\304t'e\247'_\375\367V_\202"
 233      9572E61A 
 233      C4742765 
 233      A7275FFD 
 233      F7565F82 
 234 0039 7851A81E 		.ascii	"xQ\250\036WJ\200\371\033 2\215\3179\246\250:\237b\305"
 234      574A80F9 
 234      1B20328D 
 234      CF39A6A8 
 234      3A9F62C5 
 235 004d 98C2465E 		.ascii	"\230\302F^QtH3 #\321fJ\015\201\271`\344jD\345\260D\011"
 235      51744833 
ARM GAS  /tmp/cchgl6UF.s 			page 18


 235      2023D166 
 235      4A0D81B9 
 235      60E46A44 
 236 0065 AF2951E3 		.ascii	"\257)Q\343\300\204b\032yCi5\356\015i\334\327K\266J\324"
 236      C084621A 
 236      79436935 
 236      EE0D69DC 
 236      D74BB64A 
 237 007a 23A55D2D 		.ascii	"#\245]-\373}\245R\312Z\250\007\312z\250{\312F\250\005"
 237      FB7DA552 
 237      CA5AA807 
 237      CA7AA87B 
 237      CA46A805 
 238 008e 65335442 		.ascii	"e3TB\331\012uG\331\0165\247tB\335R\272\241f\224\336"
 238      D90A7547 
 238      D90E35A7 
 238      7442DD52 
 238      BAA16694 
 239 00a3 7F69F460 		.ascii	"\177i\364`?~K\273\310\274\035\344N}\204\374\263rYkG"
 239      3F7E4BBB 
 239      C8BC1DE4 
 239      4E7D84FC 
 239      B372596B 
 240 00b8 3FA7CEAC 		.ascii	"?\247\316\2546\367\036\302\216\235\007\310\275\300\363"
 240      36F71EC2 
 240      8E9D07C8 
 240      BDC0F3
 241 00c7 A428DDC7 		.ascii	"\244(\335\307\322\273\207lV\370\371\353\373\212Z\357"
 241      D2BB876C 
 241      56F8F9EB 
 241      FB8A5AEF 
 242 00d7 C226C589 		.ascii	"\302&\305\211\353\257\244\034\357 [\370\355 \375>\366"
 242      EBAFA41C 
 242      EF205BF8 
 242      ED20FD3E 
 242      F6
 243 00e8 D3F40C7F 		.ascii	"\323\364\014\177y\344|\017"
 243      79E47C0F 
 244              		.text
 245              		.section	.gnu.lto_.refs.81b0c5be25e1dd64,"",%progbits
 246 0000 789C25C5 		.ascii	"x\234%\305\301\015\000 \010\004\301c\001!Q\213\260\377"
 246      C10D0020 
 246      0804C163 
 246      0121518B 
 246      B0FF
 247 0012 268D713E 		.ascii	"&\215q>\203\320\3217\335\202\264A)\0244\375Vx\221,\266"
 247      83D0D137 
 247      DD82B441 
 247      291434FD 
 247      5678912C 
 248 0027 2E0E4800 		.ascii	".\016H\000\246"
 248      A6
 249              		.text
 250              		.section	.gnu.lto_.decls.81b0c5be25e1dd64,"",%progbits
 251 0000 789CBD7D 		.ascii	"x\234\275}\013t\024U\272nU\365+!\221\227\240\240(\355"
 251      0B741455 
 251      BA6E55F5 
ARM GAS  /tmp/cchgl6UF.s 			page 19


 251      2B219197 
 251      A0A028ED 
 252 0014 9D99BB5C 		.ascii	"\235\231\273\\g\215\006\220q\2349\347\250\220\0070\002"
 252      678D0690 
 252      719C39E7 
 252      A8900730 
 252      02
 253 0025 C9EDC499 		.ascii	"\311\355\304\231q\235un\333$\035\350c^vw\020\357=kM"
 253      719D756E 
 253      DB241DE8 
 253      635E7677 
 253      10EF3D6B 
 254 003a 41E4A128 		.ascii	"A\344\241(Bx\204g\010/\001Q\0200\362\306\306A\010D "
 254      42788467 
 254      082F0151 
 254      1030F2C6 
 254      C6410844 
 255 004f 80288840 		.ascii	"\200(\210@\004Q\001QBD0\010\271\377\376wU\367\256JU"
 255      04510151 
 255      42443008 
 255      B9FFFE77 
 255      55F7AE4A 
 256 0064 F7AE76E6 		.ascii	"\367\256v\346\366Z{\327\356\335\265\277\375\377\377"
 256      F65A7BD7 
 256      EEDDB5BF 
 256      FDFFFF
 257 0073 FEF7BFFF 		.ascii	"\376\367\277\377\375\250jI\220\204\006\233 \264\223"
 257      FDA86A49 
 257      9084069B 
 257      20B493
 258 0082 CF744148 		.ascii	"\317tAH\353*\010)\202 <\016\241\007\004;\204%\020\226"
 258      EB2A0829 
 258      82203C0E 
 258      A107043B 
 258      84251096 
 259 0096 42580561 		.ascii	"BX\005a5\2045\020\336\202\260\026\3029\010_B\250\207"
 259      35843510 
 259      DE82B016 
 259      C239085F 
 259      42A887
 260 00a9 F01584AF 		.ascii	"\360\025\204\257!\270 \\\200p\021\302\267\020<\242 "
 260      21B8205C 
 260      807011C2 
 260      B7103CA2 
 260      20
 261 00ba FC872408 		.ascii	"\374\207$\010\377\033\002\371t\203\340\203t\015\204"
 261      FF1B02F9 
 261      7483E083 
 261      740D84
 262 00c9 3608B721 		.ascii	"6\010\267!l\006\032vB\330\015a?\204F\010' |\006\341"
 262      6C061A76 
 262      42D80D61 
 262      3F844608 
 262      27207C06 
 263 00de 73083D80 		.ascii	"s\010=\200\220\273 \334\003\241/\204_\331i=\277\205"
 263      90BB20DC 
 263      03A12F84 
ARM GAS  /tmp/cchgl6UF.s 			page 20


 263      5FD9693D 
 263      BF85
 264 00f0 EBC310FE 		.ascii	"\353\303\020\376\035\302\000\010O@x\024\302\037\355"
 264      1DC20008 
 264      4F407814 
 264      C21FED
 265 00ff 82E643EA 		.ascii	"\202\346C\352K\203k\023`u\206k\272\302\333 \210\262"
 265      4B836B13 
 265      6075866B 
 265      BAC2DB20 
 265      88B2
 266 0111 210C8690 		.ascii	"!\014\206\220\003\341#\370}\010\\\207*\345\355J\331"
 266      03E123F8 
 266      7D085C87 
 266      2AE5ED4A 
 266      D9
 267 0122 130A4D84 		.ascii	"\023\012M\2046\302F5D\263$m\035\204\037\247@\371$\264"
 267      36C24635 
 267      44B3246D 
 267      1D841FA7 
 267      40F924B4 
 268 0136 3D007CDF 		.ascii	"=\000|\337+R\376\011\016\\\204\014\221^kte\311\247M"
 268      2B52FE09 
 268      0E5C840C 
 268      915E6B74 
 268      65C9A74D 
 269 014a 29EF5230 		.ascii	")\357R0\342\225o3(O\3448\020\256\275\031\036\005H\237"
 269      E2956F33 
 269      284FE438 
 269      10AEBD19 
 269      1E05489F 
 270 015e 86305F91 		.ascii	"\2060_\221\277]\301\377\023$R \337\005\241Ui\313\247"
 270      BF5DC1FF 
 270      13245220 
 270      DF05A155 
 270      69CBA7
 271 0171 206FB83D 		.ascii	" o\270=\326^\277\206\364\010\010n\010#\355\264-\357"
 271      D65EBF86 
 271      F408086E 
 271      0823EDB4 
 271      2DEF
 272 0183 B5C7E8CA 		.ascii	"\265\307\350\312\265\307\332y\024\334\237\007\337\377"
 272      B5C7DA79 
 272      14DC9F07 
 272      DFFF
 273 0191 17848122 		.ascii	"\027\204\201\"V+x }7\204|\010s\025zU\035)\260ku\347"
 273      562B7820 
 273      7D37847C 
 273      0873157A 
 273      551D29B0 
 274 01a8 942DA657 		.ascii	"\224-\246W\252\236\251zG\364\2613\374\336\005B7\010"
 274      AA9EA97A 
 274      47F4B133 
 274      FCDE0542 
 274      3708
 275 01ba 3D6D540E 		.ascii	"=mT\016\217@\370\003\204,\010\235\024\376\177\245\350"
 275      8F40F803 
ARM GAS  /tmp/cchgl6UF.s 			page 21


 275      842C089D 
 275      14FE7FA5 
 275      E8
 276 01cb 07D11322 		.ascii	"\007\321\023\"c\322vDo\210\376|\256\350\023\301\253"
 276      63D27644 
 276      6F88FE7C 
 276      AEE813C1 
 276      AB
 277 01dc 87EB7A08 		.ascii	"\207\353z\010\033mZ\335!\272\364[\235\356\020\335$Y"
 277      1B6D5ADD 
 277      21BAF45B 
 277      9DEE10DD 
 277      2459
 278 01ee AA0C55B9 		.ascii	"\252\014U\271\021\226\356\264Q\332D\345>r\335n\323\226"
 278      1196EEB4 
 278      51DA44E5 
 278      3E72DD6E 
 278      D396
 279 0200 DFA9945F 		.ascii	"\337\251\224_+t,\337S\341IT\356#\327\017t\345I\237\260"
 279      2B742CDF 
 279      53E14954 
 279      EE23D70F 
 279      74E5499F 
 280 0215 E9CA8A4A 		.ascii	"\351\312\212JYQ\371\235\\\033t\345\322\204Wdy\202\\"
 280      5951F99D 
 280      5C1B74E5 
 280      D2845764 
 280      79825C
 281 0228 37491EDA 		.ascii	"7I\036\332\320\271\2330]\206\217{n\347Ta\012\311n^!"
 281      D0B99B30 
 281      5D868F7B 
 281      6EE75461 
 281      0AC96E5E 
 282 023d F7EA2508 		.ascii	"\367\352%\010\177\025}\"d\245`\"=\025\201~#,\207[\341"
 282      7F157D22 
 282      64A56022 
 282      3D15817E 
 282      232C875B 
 283 0252 7EC9272E 		.ascii	"~\311'.\023S\201PI\354\250n\344C\177\377\027a5\275\377"
 283      13538150 
 283      49ECA86E 
 283      E4437FFF 
 283      176135BD 
 284 0267 ACFE3602 		.ascii	"\254\3766\002J\356\210\245\332\305h\235\015\242Zio\005"
 284      4AEE88A5 
 284      DAC5689D 
 284      0DA25A69 
 284      6F05
 285 0279 6CA9D80D 		.ascii	"l\251\330\015SH\242\254P\216w(E\334j\011\273Rb%\202"
 285      5348A2AC 
 285      508E7728 
 285      45DC6A09 
 285      BB526225 
 286 028e 0B6A7634 		.ascii	"\013jv4\321\213!\300\250\334\0221-\201\230(\271J\371"
 286      D18B21C0 
 286      A8DC1231 
 286      2D819828 
ARM GAS  /tmp/cchgl6UF.s 			page 22


 286      B94AF9
 287 02a1 E628A97D 		.ascii	"\346(\251}\024\200\325\226I}\323\204\324{\023\220\272"
 287      1480D596 
 287      497DD384 
 287      D47B1390 
 287      BA
 288 02b2 CA1AA9B2 		.ascii	"\312\032\251\262\244\002\270\025\200\267,\223\372\266"
 288      A402B815 
 288      80B72C93 
 288      FAB6
 289 02c0 09A97D13 		.ascii	"\011\251}\023\220\272\306\204\324\356\302\014$\265\241"
 289      90BAC684 
 289      D4EEC20C 
 289      24B5A1
 290 02cf 73B4ACFC 		.ascii	"s\264\254\374+\265\360;vU\345\2467\357\370v\232M\226"
 290      2BB5F03B 
 290      7655E5A6 
 290      37EFF876 
 290      9A4D96
 291 02e2 537CE23A 		.ascii	"S|\342:\261;\250\335`\021@\337\020\377E\301L\014C\210"
 291      B13BA8DD 
 291      601140DF 
 291      10FF45C1 
 291      4C0C4388 
 292 02f6 D8004569 		.ascii	"\330\000Ei)\252\307\221m{\322e;\315\0274x\232\317\003"
 292      29AAC791 
 292      6D7BD265 
 292      3BCD1734 
 292      789ACF03 
 293 030a 421D101C 		.ascii	"B\035\020\034\331\261g\233(OJg:\311\334\316qz\311\364"
 293      D9B1679B 
 293      284F4A67 
 293      3AC9DCCE 
 293      717AC9F4 
 294 031e E6F59366 		.ascii	"\346\365\223fe \311\365\330S\306\213Z\232}\242\"K\366"
 294      6520C9F5 
 294      D853C68B 
 294      5A9A7DA2 
 294      224BF6
 295 0331 BB7A0341 		.ascii	"\273z\003A\213\366\016\245sH\302$\204 \344\032U\033"
 295      8BF60EA5 
 295      7348C224 
 295      8420E41A 
 295      551B
 296 0343 6D13A621 		.ascii	"m\023\246!4,4\357\370\371UW\215\034\031oSi\232f\031"
 296      342C34EF 
 296      F8F95557 
 296      8D1C196F 
 296      53699A66 
 297 0358 30452393 		.ascii	"0E#\223\246=i\357<\253\202U[\006\353\252\001;\302\202"
 297      A63D69EF 
 297      3CAB8255 
 297      5B06EBAA 
 297      013BC282 
 298 036c CDB50CD6 		.ascii	"\315\265\014\326K\003\3661\013\266\3302\230[\003\366"
 298      4B03F631 
 298      0BB6D832 
ARM GAS  /tmp/cchgl6UF.s 			page 23


 298      985B03F6 
 299 037c 090BB6C2 		.ascii	"\011\013\266\3022\330\203\032\260\343\223\322\233\236"
 299      32D8831A 
 299      B0E393D2 
 299      9B9E
 300 038a 55B4489E 		.ascii	"U\264H\236$?\270\2523#\017\245\270\304j\321\234\307"
 300      243FB8AA 
 300      33230FA5 
 300      B8C46AD1 
 300      9CC7
 301 039c 508B7663 		.ascii	"P\213vc\355k;h\221M\247E6\255\026\331Rc\211\366v\034"
 301      ED6B3B68 
 301      914DA745 
 301      36AD16D9 
 301      526389F6 
 302 03b2 5C36EA39 		.ascii	"\\6\3529\320\324k\304A?\255\032\275\373\232k\256\034"
 302      D0D46BC4 
 302      413FAD1A 
 302      BDFB9A6B 
 302      AE1C
 303 03c4 99605389 		.ascii	"\231`S\211z\217\0070\305T/#7'\275\332[\256\373@T\244"
 303      7A8F0730 
 303      C5542F23 
 303      3727BDDA 
 303      5BAEFB40 
 304 03da 424D83B1 		.ascii	"BM\203\2611Q\245\262\247\226\366\255F$ \322A*.\235T"
 304      3151A5B2 
 304      A796F6AD 
 304      462420D2 
 304      412A2E9D 
 305 03ef 5C5AA9B8 		.ascii	"\\Z\251\270Rc\011\342\340v!r\331\243gCS\263\021\033"
 305      526309E2 
 305      E0762172 
 305      D9A36743 
 305      53B3111B 
 306 0403 1A3569DE 		.ascii	"\0325i\336q\343\265^\363\344\310K6\225\254\303<\200"
 306      71E3B55E 
 306      F3E4C84B 
 306      3695ACC3 
 306      3C80
 307 0415 5DCDE532 		.ascii	"]\315\3452go\372t\237\012\366\271e0\255\022\317e\301"
 307      676FFA74 
 307      9F0AF6B9 
 307      6530AD12 
 307      CF65C1
 308 0428 CEF380F5 		.ascii	"\316\363\200\3652\247l>\013v\3112\230\226\262\205,X"
 308      32A76C3E 
 308      0B76C932 
 308      9896B285 
 308      2C58
 309 043a 2B0F98DB 		.ascii	"+\017\230\333\234\262Z\026\354\246e0-e\357\260`U\022"
 309      9CB25A16 
 309      ECA66530 
 309      2D65EFB0 
 309      605512
 310 044d 07D883E6 		.ascii	"\007\330\203\346\224m`\301^\265\014\306R&G\352\367\246"
 310      946D60C1 
ARM GAS  /tmp/cchgl6UF.s 			page 24


 310      5EB50CC6 
 310      522647EA 
 310      F7A6
 311 045f C160C48E 		.ascii	"\301`\304\216\364\365\314H\037\005\223\325\261\257\331"
 311      F4F5CC48 
 311      1F0593D5 
 311      B1AFD9
 312 046e F250FF85 		.ascii	"\362P\377\205\311P\337\256:\223\022\314stL\350*V\322"
 312      C950DFAE 
 312      3A9312CC 
 312      73744CE8 
 312      2A56D2
 313 0481 FD0C6462 		.ascii	"\375\014db\364aGh\237\270Q\374\015\304\357\212\017@"
 313      F4614768 
 313      9FB851FC 
 313      0DC4EF8A 
 313      0F40
 314 0493 BC05E36D 		.ascii	"\274\005\343m\030\357\300\370}\214wa\374w\214\0330\336"
 314      18EFC0F8 
 314      7D8C7761 
 314      FC778C1B 
 314      30DE
 315 04a5 8FF1218C 		.ascii	"\217\361!\214\017c|\024\343c\030\177\212\361\011\214"
 315      0F637C14 
 315      E363187F 
 315      8AF1098C 
 316 04b5 4F627C0A 		.ascii	"Ob|\012\3433\020G?f\002Y\033\337\335\252{R\347oi\214"
 316      E3331047 
 316      3F660259 
 316      1BDFDDAA 
 316      7B52E76F 
 317 04cb 2001F8D2 		.ascii	" \001\370\322r\033\2347i\0031\001\251\347\254y\206W"
 317      721B9C37 
 317      69033101 
 317      A9E7AC79 
 317      8657
 318 04dd A24EECFD 		.ascii	"\242N\354\375\012\300\327\226I\375\306\204\324\373\022"
 318      0AC0D796 
 318      49FDC684 
 318      D4FB12
 319 04ec 90FA9535 		.ascii	"\220\372\2255R\347FI\275S\001\270h\231\324K&\244vO@"
 319      52E74649 
 319      BD5301B8 
 319      6899D44B 
 319      26A4764F 
 320 0501 EA057E27 		.ascii	"\352\005~'\366Y\265,\231j+cVK\365\351\3768f]F\027\366"
 320      F659B52C 
 320      996A2B63 
 320      564BF5E9 
 320      FE38665D 
 321 0518 9094D087 		.ascii	"\220\224\320\207\325\240\020\012\256\350=\330\367\251"
 321      D5A0100A 
 321      AEE83DD8 
 321      F7A9
 322 0526 077B85CB 		.ascii	"\007{\205\313\203\375t\322\"\034f\023z\3406\266\347"
 322      83FD74D2 
 322      221C6613 
ARM GAS  /tmp/cchgl6UF.s 			page 25


 322      7AE036B6 
 322      E7
 323 0537 2AD45F9D 		.ascii	"*\324_\235\363\251\023\251\377\001\251\257\265%\366"
 323      F3A913A9 
 323      FF01A9AF 
 323      B525F6
 324 0546 C035303E 		.ascii	"\30050>\361GQ\202\370\272\236\205k\013\220\205\353\\"
 324      F1475182 
 324      F8BA9E85 
 324      6B0B9085 
 324      EB5C
 325 0558 2CDC3A59 		.ascii	",\334:Y{\267\334\034\021]\302$\364\302'NH\350\205/\370"
 325      7BB7DC1C 
 325      115DC224 
 325      F4C2274E 
 325      48E8852F 
 326 056d 984ABD0D 		.ascii	"\230J\275\015\012I\302I\035\335\034@\204\252[PXCu\375"
 326      0A49C249 
 326      1DDD1C40 
 326      84AA5B50 
 326      584375FD 
 327 0581 A42E846A 		.ascii	"\244.\204j\222\037\207j\033\351\373\222\360\225\215"
 327      921F876A 
 327      1BE9FB92 
 327      F0958D
 328 0590 6AAD3D35 		.ascii	"j\255=5\226\327\022\313\023\231[\333b\331\022\223\375"
 328      96D712CB 
 328      13995BDB 
 328      62D91293 
 328      FD
 329 05a1 923D9A6D 		.ascii	"\222=\232mc\262_\217e\253K\023\344\253~\346\300|XV|"
 329      63B25F8F 
 329      65AB4B13 
 329      E4AB7EE6 
 329      C07C5856 
 330 05b6 E26DB4B1 		.ascii	"\342m\264\261\355\242\315\260\230$,\264\213J\223\361"
 330      EDA2CDB0 
 330      98242CB4 
 330      8B4A93F1 
 331 05c6 FABA9AE6 		.ascii	"\372\272\232\346jn\235\363\341\327\342\314*\271\241"
 331      6A6E9DF3 
 331      E1D7E2CC 
 331      2AB9A1
 332 05d5 9F91CEC1 		.ascii	"\237\221\316\301-b\374>\0239yRt'\352\030>\3615\3517"
 332      2D62FC3E 
 332      13397952 
 332      7427EA18 
 332      3EF135E9 
 333 05ea 5CDDE775 		.ascii	"\\\335\347uI\247{5'Q\367H~b\335[|\262\266c\367\271K"
 333      49A77B35 
 333      2751F748 
 333      7E62DD5B 
 333      7CB2B663 
 334 0601 98AD581D 		.ascii	"\230\255X\035Y\014\373\304\307{\232Z\217\231\322]1\235"
 334      590CFBC4 
 334      C77B9A5A 
 334      8F99D25D 
ARM GAS  /tmp/cchgl6UF.s 			page 26


 334      319D
 335 0613 2019AD80 		.ascii	" \031\255\200\344\023\237\216\255\315\230\373\273\221"
 335      E4139F8E 
 335      ADCD98FB 
 335      BB91
 336 0621 5BF37B10 		.ascii	"[\363{\020B\253\2454(\275\324\256\325a\015A\264\"3\""
 336      42ABA534 
 336      28BDD4AE 
 336      D5610D41 
 336      B4223322 
 337 0635 6AA43413 		.ascii	"j\2444\023>;\374&\301\304YT\204\026\307G1o\375\310\026"
 337      3E3BFC26 
 337      C1C45954 
 337      8416C747 
 337      316FFDC8 
 338 064a 238119B4 		.ascii	"#\201\031\264Ssta\342\267Q\216\233\317\234k\316\250"
 338      53737461 
 338      E2B7518E 
 338      9BCF9C6B 
 338      CEA8
 339 065c 02A1FAC4 		.ascii	"\002\241\372\304\005\02218\267\354\011\015\216\026\207"
 339      05123138 
 339      B7EC090D 
 339      8E1687
 340 066b B054AB6F 		.ascii	"\260T\253o\360\215\215\330\340\265\211\033\374\245\252"
 340      F08D8DD8 
 340      E0B5891B 
 340      FCA5AA
 341 067a C8A6C685 		.ascii	"\310\246\306\205\261iI\025\317\264\244\376bS\257\267"
 341      B1694915 
 341      CFB4A4FE 
 341      6253AFB7 
 342 068a 64B92BC7 		.ascii	"d\271+\307D\306'.\225~\30391Y\347\320\362\316?Oj\271"
 342      44C6272E 
 342      957EC339 
 342      3159E7D0 
 342      F2CE3F4F 
 343 06a0 14A911A9 		.ascii	"\024\251\021\251\030WH\304\244\\\326A%3S\262x\273$\334"
 343      185748C4 
 343      A45CD641 
 343      253353B2 
 343      78BB24DC 
 344 06b4 C04A6B93 		.ascii	"\300Jk\223S\244\227\252\232O\237k~H\231X-A.n[\006tk"
 344      53A497AA 
 344      9A4F9F6B 
 344      7E489958 
 344      2D412E6E 
 345 06cc 5A766B23 		.ascii	"Zvk#\272\342\024l\242\223\003\314l\366\012`\333Y\260"
 345      BAE2146C 
 345      A29303CC 
 345      6CF60A60 
 345      DB59B0
 346 06df D72C8369 		.ascii	"\327,\203i)\333\311\202\315\344\0013\233?\002X\023\013"
 346      29DBC982 
 346      CDE40133 
 346      9B3F0258 
 346      130B
ARM GAS  /tmp/cchgl6UF.s 			page 27


 347 06f1 5663198C 		.ascii	"Vc\031\214\245l|\344L\343~Q\256N\277S\250\226\345\361"
 347      A56C7CE4 
 347      4CE37E51 
 347      AE4EBF53 
 347      A896E5F1 
 348 0705 729DD34C 		.ascii	"r\235\323L\363\004\001o\221\343\336\002\323\025\351"
 348      F304016F 
 348      91E3DE02 
 348      D315E9
 349 0714 4E6DD73C 		.ascii	"Nm\327<:\2653\351\232$?\261->\246tM\360\015\221\271"
 349      3AB533E9 
 349      9A243FB1 
 349      2D3EA674 
 349      4DF00D91 
 350 0729 05C81C29 		.ascii	"\005\310\034)\233\214\251\222#\247\032\323\344W\322"
 350      9B8CA992 
 350      23A71AD3 
 350      E457D2
 351 0738 D571E9C9 		.ascii	"\325q\351\311Uq\010\337\252\267)\2376Jn\232\235\230"
 351      557108DF 
 351      AAB7299F 
 351      364A6E9A 
 351      9D98
 352 074a EE138D0B 		.ascii	"\356\023\215\013{\311u\273D\376\365\237\372\213W\366"
 352      7BC975BB 
 352      44FEF59F 
 352      FA8B57F6 
 353 075a 8813B007 		.ascii	"\210\023\260\007\357@V\0279\015\215\001\007T\313\245"
 353      EF405617 
 353      390D8D01 
 353      0754CBA5 
 354 076a 2BB31463 		.ascii	"+\263\024c\020A\2507\234zc`u1\311\322\315\222\260\036"
 354      1041A837 
 354      9C7A6360 
 354      7531C9D2 
 354      CD92B01E 
 355 077e 2BDC2AF1 		.ascii	"+\334*\361\257<i\304\007\206\340\233\207\225\225'*\214"
 355      AF3C69C4 
 355      0786E09B 
 355      87959527 
 355      2A8C
 356 0790 7ACB805D 		.ascii	"z\313\200]u\015#\011\333\222\325\035\206u\312\265O\334"
 356      750D2309 
 356      DB92D51D 
 356      8675CAB5 
 356      4FDC
 357 07a2 24E17455 		.ascii	"$\341tUz\200\255`\007O\3173[l\201n|\205\355\306\037"
 357      7A80AD60 
 357      074FCF33 
 357      5B6C816E 
 357      7C85EDC6 
 358 07b7 5806736B 		.ascii	"X\006sk\300\256\262`{y\300\334\346\224\375\300\202}"
 358      C0AEB260 
 358      7B79C0DC 
 358      E694FDC0 
 358      827D
 359 07c9 64194C4B 		.ascii	"d\031LK\331\217,"
ARM GAS  /tmp/cchgl6UF.s 			page 28


 359      D98F2C
 360 07d0 D8611E30 		.ascii	"\330a\0360\243\305\026\243\017\353\010\370\304\3058"
 360      A3C516A3 
 360      0FEB08F8 
 360      C4C538
 361 07df EED6614B 		.ascii	"\356\326aK\255\306x\015\306oc\274\016\343\365\030o\304"
 361      ADC6780D 
 361      C66F63BC 
 361      0EE3F518 
 361      6FC4
 362 07f1 B801E3FD 		.ascii	"\270\001\343\375\030\177\204\361A\266}\343xm\327\253"
 362      187F84F1 
 362      41B67DE3 
 362      786DD7AB 
 363 0801 FB109336 		.ascii	"\373\020\2236\037\275\266c\272\316\246\363\332\026\230"
 363      1FBDB663 
 363      BACEA6F3 
 363      DA1698
 364 0810 B04AA83F 		.ascii	"\260J\250?\022\307k;\242\367\332\232\235V\2756\246\031"
 364      12C76B3B 
 364      A2F7DA9A 
 364      9D56BD36 
 364      A619
 365 0822 D067FFE1 		.ascii	"\320g\377\341\023\261\252J^\325O\355d_\353\021-.\357"
 365      13B1AA4A 
 365      5ED54FED 
 365      645FEB11 
 365      2D2EEF
 366 0835 1E5F90DE 		.ascii	"\036_\220\336\364\254\012v\3312\230\276\307\252\355"
 366      F4AC0A76 
 366      D93298BE 
 366      C7AAED
 367 0844 381DDB71 		.ascii	"8\035\333q\006\266\310<\214?\306\370\023m\357k\351`"
 367      06B6C83C 
 367      8C3FC6F8 
 367      136DEF6B 
 367      E960
 368 0856 E4A8BBCF 		.ascii	"\344\250\273\317\340\305\346\005BbD\263F\232*EW\007"
 368      E0C5E605 
 368      426244B3 
 368      469A2A45 
 368      5707
 369 0868 24E1A653 		.ascii	"$\341\246S7q\262\326\010\221\332\323\320\027\022\371"
 369      3771B2D6 
 369      0891DAD3 
 369      D01712F9 
 370 0878 CD757615 		.ascii	"\315uv\025)+\252s\315\263\333\"\275\266\202\013\352"
 370      292BAA73 
 370      CDB3DB22 
 370      BDB6820B 
 370      EA
 371 0889 133F47BF 		.ascii	"\023?G\277y\233+\241\337\254\305\221\204\335X\344\214"
 371      799B2BA1 
 371      DFACC591 
 371      84DD58E4 
 371      8C
 372 089a 6E9C6BDE 		.ascii	"n\234k\336q\273\371\336\271\210|\206k\254\273i\264\334"
ARM GAS  /tmp/cchgl6UF.s 			page 29


 372      71BBF9DE 
 372      B9887C86 
 372      6BACBB69 
 372      B4DC
 373 08ac 40C93293 		.ascii	"@\3112\223\3419\2752W\245\250\244$7\005\271\275\007"
 373      E139BD32 
 373      57A5A8A4 
 373      243705B9 
 373      BD07
 374 08be 6DCA39EC 		.ascii	"m\3129\354\201\257X\006\3236\312\314\275\013-nS\034"
 374      81AF5806 
 374      D336CACC 
 374      BD0B2D6E 
 374      531C
 375 08d0 5D7AA1F7 		.ascii	"]z\241\367\016\024\3317\250\374\237\245\350u\221\270"
 375      0E14D937 
 375      A8FC9FA5 
 375      E87591B8 
 376 08e0 2F1A5DE4 		.ascii	"/\032]\344\361\247\317\3620b\332!IK6\365\331\262A\226"
 376      F1A7CFF2 
 376      3062DA21 
 376      494B36F5 
 376      D9B24196 
 377 08f4 5F76AA1E 		.ascii	"_v\252\036\217\251\253&\011\027\260\262\313zm8\272\362"
 377      8FA9AB26 
 377      0917B0B2 
 377      CB7A6D38 
 377      BAF2
 378 0906 F043541B 		.ascii	"\360CT\033.si\303\246\306\032\256\311`\235S\255\276"
 378      2E7369C3 
 378      A6C61AAE 
 378      C9609D53 
 378      ADBE
 379 0918 08AB5F93 		.ascii	"\010\253_\223J\252\277\252\257\376\314\232\013\217\323"
 379      4AAABFAA 
 379      AFFECC9A 
 379      0B8FD3
 380 0927 EAAF7255 		.ascii	"\352\257rU\177\346\320,#e4\231\257\253\315\267\262\345"
 380      7FE6D02C 
 380      23653499 
 380      AFABCDB7 
 380      B2E5
 381 0939 C1C558C9 		.ascii	"\301\305X\311\217\250@\327R\365\315\367D\032[\027~\327"
 381      8FA840D7 
 381      52F5CDF7 
 381      441A5B17 
 381      7ED7
 382 094b E8EFED28 		.ascii	"\350\357\355(\365I\351/\260\271\353\211\325\330R*\015"
 382      F549E92F 
 382      B0B9EB89 
 382      D5D8522A 
 382      0D
 383 095c 133A5945 		.ascii	"\023:YE\324*\361\325C\330#(\330$\036\2608\226\375\007"
 383      D42AF1D5 
 383      43D82328 
 383      D8241EB0 
 383      3896FD07 
ARM GAS  /tmp/cchgl6UF.s 			page 30


 384 0970 16EC15CB 		.ascii	"\026\354\025\313`Z\312~d\301\246\361\200\305\331:\273"
 384      605ACA7E 
 384      64C1A6F1 
 384      80C5D93A 
 384      BB
 385 0981 C182555B 		.ascii	"\301\202U[\006\323R\326\306\202\315\341\001\213\263"
 385      06D352D6 
 385      C682CDE1 
 385      018BB3
 386 0990 75F6330B 		.ascii	"u\3663\0136\3372\230\226\262\333,X-\017\230\333\234"
 386      36DF3298 
 386      96B2DB2C 
 386      582D0F98 
 386      DB9C
 387 09a2 B2E94718 		.ascii	"\262\351G\030\260\245\226\301\264\224U\263`o\360\200"
 387      B0A596C1 
 387      B49455B3 
 387      606FF080 
 388 09b2 C5D93A9B 		.ascii	"\305\331:\233\305\202\275i\031LK\331\034\026l-\017\230"
 388      C582BD69 
 388      194C4BD9 
 388      1C166C2D 
 388      0F98
 389 09c4 D10696BA 		.ascii	"\321\006\226\272\253\312\202m\260\014\246\245l>\013"
 389      ABCA826D 
 389      B00CA6A5 
 389      6C3E0B
 390 09d3 F61E0FD8 		.ascii	"\366\036\017\330c\346\224-d\301\266Z\006\323R\366\016"
 390      63E6942D 
 390      64C1B65A 
 390      06D352F6 
 390      0E
 391 09e4 0BB69307 		.ascii	"\013\266\223\007\354Is\3126\260`\273,\203i){\227\005"
 391      EC4973CA 
 391      36B060BB 
 391      2C836929 
 391      7B9705
 392 09f7 DBCD0336 		.ascii	"\333\315\0036\324\234\262\367X\260\275\226\301\264\224"
 392      D49CB2F7 
 392      58B0BD96 
 392      C1B494
 393 0a06 6D66C1F6 		.ascii	"mf\301\366\363\200\345\231S\266\225\005;`\031LK\331"
 393      F380E599 
 393      53B69505 
 393      3B60194C 
 393      4BD9
 394 0a18 7616AC89 		.ascii	"v\026\254\211\007\354\257\346\224\355d\301>\266\014"
 394      07ECAFE6 
 394      94ED64C1 
 394      3EB60C
 395 0a27 A6A5AC89 		.ascii	"\246\245\254\211\005;\316\003\366\254\001e\321\217\231"
 395      053BCE03 
 395      F6AC0165 
 395      D18F99
 396 0a36 9FD9C2FA 		.ascii	"\237\331\302\372\352';\251\016\216\3051Z\210a\234\351"
 396      EA273BA9 
 396      0E8EC531 
ARM GAS  /tmp/cchgl6UF.s 			page 31


 396      5A88619C 
 396      E9
 397 0a47 64D523D3 		.ascii	"d\325#\323\360M|\353>[\225q\236:\253\347y\020\343\014"
 397      F04D7CEB 
 397      3E5B9571 
 397      9E3AABE7 
 397      7910E30C 
 398 0a5b 80CA090D 		.ascii	"\200\312\011\015\012v\3312\230N\225\367\352\247#\321"
 398      0A76D932 
 398      984E95F7 
 398      EAA723D1 
 399 0a6b 637011D3 		.ascii	"cp\021\323}3\237\270\034\267\227\226\351\316\265\231"
 399      7D339FB8 
 399      1CB79796 
 399      E9CEB599 
 400 0a7b 1EFBECD0 		.ascii	"\036\373\354\320L\353mL3]\343\341!\316\270{f\357B\334"
 400      4CEB6D4C 
 400      335DE3E1 
 400      21CEB87B 
 400      66EF42DC 
 401 0a8f 3AE43FC0 		.ascii	":\344?\300wt\351a\305{\257\267\021\357\375\347N\206"
 401      7774E961 
 401      C57BAFB7 
 401      11EFFDE7 
 401      4E86
 402 0aa1 2B6F1C48 		.ascii	"+o\034H\365\027\233\352\225E\274\315\01051-Y\250\226"
 402      F5179BEA 
 402      9545BCCD 
 402      0835312D 
 402      59A896
 403 0ab4 4BCD55CA 		.ascii	"K\315U\312\"\3366\204zM\007e\371\\\341?\353^I\250I\323"
 403      22DE3684 
 403      7A4D0765 
 403      F95CE13F 
 403      EB5E49A8 
 404 0aca 3599D1F6 		.ascii	"5\231\321\366\241\271w\003\275\342x\337-ke\271\312i"
 404      A1B97703 
 404      BDE278DF 
 404      2D6B65B9 
 404      CA69
 405 0adc A5D1F629 		.ascii	"\245\321\366)\215\026A\361,\356 \236\315\372E\316\204"
 405      8D1641F1 
 405      2CEE209E 
 405      CDFA45CE 
 405      84
 406 0aed 7CACB4CC 		.ascii	"|\254\264\314\307\203:>\"\017Z\347\343\204\302\307\207"
 406      C7833A3E 
 406      220F5AE7 
 406      E384C2C7 
 406      87
 407 0afe C8C7BA7F 		.ascii	"\310\307\272\177\000\037\233,\363\301\036\374\303y\343"
 407      001F9B2C 
 407      F3C11EFC 
 407      C379E3
 408 0b0d C374DEC8 		.ascii	"\303t\336\310\265\304\277\337\246[\342?\261_t\323\354"
 408      B5C4BFDF 
 408      A65BE23F 
ARM GAS  /tmp/cchgl6UF.s 			page 32


 408      B15F74D3 
 408      EC
 409 0b1e 44133639 		.ascii	"D\02369r}?3\331\226\371&\333-\212\304\016\240\304v\032"
 409      727D3F33 
 409      D996F926 
 409      DB2D8AC4 
 409      0EA0C476 
 410 0b33 F5312EA4 		.ascii	"\3651.\244\372\213\015\275\326 R\023\"\355N\032\251"
 410      FA8B0DBD 
 410      D6205213 
 410      22ED4E1A 
 410      A9
 411 0b44 E5D28D49 		.ascii	"\345\322\215IJo=\212P\037uhF\247\256\025\235\332V\204"
 411      4A6F3D8A 
 411      501F7568 
 411      46A7AE15 
 411      9DDA5684 
 412 0b58 AFA4AE1B 		.ascii	"\257\244\256\033d\362/\376M\311!_\\\302\377\367r\222"
 412      64F22FFE 
 412      4DC9215F 
 412      5CC2FFF7 
 412      7292
 413 0b6a F009924F 		.ascii	"\360\011\222OZ\320\342X\031\323\240\337nQ\3069\332J"
 413      5AD0E258 
 413      19D3A0DF 
 413      6E51C639 
 413      DA4A
 414 0b7c A77E11E2 		.ascii	"\247~\021\342\204\310\306\251\213\224\235\240'\310H"
 414      84C8C6A9 
 414      8B949DA0 
 414      27C848
 415 0b8b F7D52F84 		.ascii	"\367\325/\204;\334h}\215g\327=T\355>G\206.wh\341\244"
 415      3BDC687D 
 415      8D67D73D 
 415      54ED3E47 
 415      862E7768 
 416 0ba1 D6787E4A 		.ascii	"\326x~J\226\221\350G\022\344t\216!\323\035\257\265n"
 416      9691E847 
 416      12E4748E 
 416      21D31DAF 
 416      B56E
 417 0bb3 3CCCB94E 		.ascii	"<\314\271N\024]}\374\246W\003\012\343\254\215\254>\276"
 417      145D7DFC 
 417      A657030A 
 417      E3AC8DAC 
 417      3EBE
 418 0bc5 946EB8FA 		.ascii	"\224n\270\372\030o\275i&\0269o\353\260\372\330\324\233"
 418      186FBD69 
 418      2616396F 
 418      EBB0FAD8 
 418      D49B
 419 0bd7 2EF8909F 		.ascii	".\370\220\2378\326\233&\251zA\027\025\277\224$\0056"
 419      38D69B26 
 419      A97A4117 
 419      15BF9424 
 419      0536
 420 0be9 59796A9A 		.ascii	"Yyj\2320F\237O\374\332F\334\234ol\232e\347e\226e\357"
ARM GAS  /tmp/cchgl6UF.s 			page 33


 420      30469F4F 
 420      FCDA46DC 
 420      9C6F6C9A 
 420      65E76596 
 421 0bff 66651FB9 		.ascii	"fe\037\271\331\270P$\364\033,\221=\311:\224Q\3017\367"
 421      D9B85024 
 421      F41B2C91 
 421      3DC93A94 
 421      51C137F7 
 422 0c13 DE87E2B9 		.ascii	"\336\207\342\271\204\202\177\333D\360O\232\341H\302"
 422      84827FDB 
 422      44F04F9A 
 422      E148C2
 423 0c22 0E2CF25D 		.ascii	"\016,\362]G\3017\334C\005\377\035\227\340\217\031\012"
 423      47C137DC 
 423      4305FF1D 
 423      97E08F19 
 423      0A
 424 0c33 FE3BEB82 		.ascii	"\376;\353\202\217\036\276\217:\262>\361+\313`\356x\255"
 424      8F1EBE8F 
 424      3AB23EF1 
 424      2BCB60EE 
 424      78AD
 425 0c45 F81DD38A 		.ascii	"\370\035\323\212W\260\025[ld\301\377\252\266-\017\352"
 425      57B0155B 
 425      6C64C1FF 
 425      AAB62D0F 
 425      EA
 426 0c56 DB522339 		.ascii	"\333R#9%i\272|!Gf\036Tw\253\251\315;\301\243\033q\026"
 426      2569BA7C 
 426      2147661E 
 426      5477ABA9 
 426      CD3BC1A3 
 427 0c6d 1D6A0FA2 		.ascii	"\035j\017\242H\250\2759c\031\314\255\001\3331\215\363"
 427      48A8BD39 
 427      6319CCAD 
 427      01DB318D 
 427      F3
 428 0c7e 5460F4E4 		.ascii	"T`\364\344eW\024\312E\254\267M\257.\207\277><Y\034\217"
 428      655714CA 
 428      45ACB74D 
 428      AF2E87BF 
 428      3E3C591C 
 429 0c93 235E1B87 		.ascii	"#^\033\207\276\300@\177>U\256NW\365v\371\035*j\034Q"
 429      BEC0407F 
 429      3E55AE4E 
 429      57F576F9 
 429      1D2A6A1C 
 430 0ca8 C7D1969B 		.ascii	"\307\321\226\233\027\366\211\010G'>o\351\341\022\316"
 430      17F68908 
 430      47273E6F 
 430      E9E112CE 
 431 0cb8 CBB470B7 		.ascii	"\313\264p\267\375\306G\327\314\005\243\036\\\333B\\"
 431      FDC647D7 
 431      CC05A31E 
 431      5CDB425C 
 432 0cc8 9D2A3BE1 		.ascii	"\235*;\341\351\335;\364#\002\225\014\243\210m\214\""
ARM GAS  /tmp/cchgl6UF.s 			page 34


 432      E9DD3BF4 
 432      2302950C 
 432      A3886D8C 
 432      22
 433 0cd9 FE8C8A78 		.ascii	"\376\214\212x\013\025\261\035\343\361v\216\375\247\011"
 433      0B15B11D 
 433      E3F1768E 
 433      FDA709
 434 0ce8 7666B2B4 		.ascii	"vf\262\264\3352\337n]\353\230U\363\023;'\373\373\035"
 434      DD32DF6E 
 434      5DEB9855 
 434      F3133B27 
 434      FBFB1D
 435 0cfb 1CBA67BE 		.ascii	"\034\272g\276FE\214\372\037Uw\200\356\220\034\260\214"
 435      46458CFA 
 435      1F557780 
 435      EE901CB0 
 435      8C
 436 0d0c A8D5E696 		.ascii	"\250\325\346\226i\032w\3408\017\334\223\006\004\032"
 436      691A77E0 
 436      380FDC93 
 436      06041A
 437 0d1b 7DD83D31 		.ascii	"}\330=1\237\370\005n?\236\305\015\302\363\030\177\215"
 437      9FF8056E 
 437      3F9EC50D 
 437      C2F3187F 
 437      8D
 438 0d2c F1B718BF 		.ascii	"\361\267\030\277\205\015\267\026\343w0~\027\343\367"
 438      850DB716 
 438      E377307E 
 438      17E3F7
 439 0d3b 31DE8DF1 		.ascii	"1\336\215\361>\214\277\300\370\"\306?`\374#\30670\236"
 439      3E8CBFC0 
 439      F822C63F 
 439      60FC23C6 
 439      37309E
 440 0d4e 6227F12B 		.ascii	"b'\361+\211\024@\031\005f|\177\242\317[h\253O\242\372"
 440      89144019 
 440      05667C7F 
 440      A2CF5B68 
 440      AB4FA2FA 
 441 0d62 CFEDACD7 		.ascii	"\317\355\254\327\274s\222n\307\242\303\226\333\232\316"
 441      BC73926E 
 441      C7A2C396 
 441      DB9ACE
 442 0d71 1C5B9771 		.ascii	"\034[\227q6\227Z?9\370\2518S\226\033\372Q\375\367\211"
 442      36975A3F 
 442      39F8A938 
 442      53961BFA 
 442      51FDF789 
 443 0d85 376D9216 		.ascii	"7m\222\026Q\333c\342h\243\322\250\247j\027\363\355\035"
 443      51DB63E2 
 443      68A3D2A8 
 443      A76A17F3 
 443      ED1D
 444 0d97 450F00FE 		.ascii	"E\017\000\376:&\223c\255'\376\233z\340\325\330\033\277"
 444      3A269363 
ARM GAS  /tmp/cchgl6UF.s 			page 35


 444      AD27FE9B 
 444      7AE0D5D8 
 444      1BBF
 445 0da9 D3C92421 		.ascii	"\323\311$!\016\221\322l\273\356\320O\313i<HH\362\023"
 445      0E91D26C 
 445      BBEED04F 
 445      CB693C48 
 445      48F213
 446 0dbc 1F24BC76 		.ascii	"\037$\274vz\226\242\224\364pC\033\222@\312&1$\222\223"
 446      7A96A294 
 446      F470431B 
 446      9240CA26 
 446      31249293 
 447 0dd0 12A79993 		.ascii	"\022\247\231\223\022\267-\203\2715`7X\260\011]8\300"
 447      12B72D83 
 447      B9356037 
 447      58B0095D 
 447      38C0
 448 0de2 E29C856B 		.ascii	"\342\234\205kc\301&Z\006\323R\3663\0136\205\007,\316"
 448      63C1265A 
 448      06D352F6 
 448      330B3685 
 448      072CCE
 449 0df5 59B8DB2C 		.ascii	"Y\270\333,\3304\313`Z\312\246\237a\300f\363\200\305"
 449      D834CB60 
 449      5ACAA69F 
 449      61C066F3 
 449      80C5
 450 0e07 39DE53CD 		.ascii	"9\336S\315\202-\264\014\246\245l\026\013\266\234\007"
 450      822DB40C 
 450      A6A56C16 
 450      0BB69C07 
 451 0e17 CC6D4099 		.ascii	"\314m@\231\321\207\355\004>q\216\235X\277\032\264N\363"
 451      D187ED04 
 451      3E718E9D 
 451      58BF1AB4 
 451      4EF3
 452 0e29 305E80F1 		.ascii	"0^\200\361\"\214\027c\274\004\343e\030\257\300x%\317"
 452      228C1763 
 452      BC04E365 
 452      18AFC078 
 452      25CF
 453 0e3b 4036831D 		.ascii	"@6\203\035\310\336\354\302a\215\342,!\265\3169\365\213"
 453      C8DEECC2 
 453      618DE22C 
 453      21B5CE39 
 453      F58B
 454 0e4d 4EA037EF 		.ascii	"N\2407\357\270\271\357\337\210\371H|\012\375m;\337)"
 454      B8B9EFDF 
 454      88F9487C 
 454      0AFD6D3B 
 454      DF29
 455 0e5f F4757A5B 		.ascii	"\364uz[r\355 \332\222u\211m\011\330\302\353\234\356"
 455      72ED20DA 
 455      9275896D 
 455      09D8C2EB 
 455      9CEE
ARM GAS  /tmp/cchgl6UF.s 			page 36


 456 0e71 5A4464A5 		.ascii	"ZDd\245\023\265\205\373\036\247\266p#\332\302k]\022"
 456      13B585FB 
 456      1EA7B670 
 456      23DAC26B 
 456      5D12
 457 0e83 DA422D0E 		.ascii	"\332B-\016\241\357==\375\033\017!\375\357q\331\302M"
 457      A1EF3D3D 
 457      FD1B0F21 
 457      FDEF71D9 
 457      C24D
 458 0e95 87B4B670 		.ascii	"\207\264\266pJWQ\301L\316\026n>\304(\374T\313`n\015"
 458      4A5751C1 
 458      4CCE166E 
 458      3EC428FC 
 458      54CB606E 
 459 0eaa D856166C 		.ascii	"\330V\026l:\017X\274s\301,\330,\313`Z\312v\262`\363"
 459      3A0F58BC 
 459      73C12CD8 
 459      2CCB605A 
 459      CA76B260 
 460 0ebf 78C0E29D 		.ascii	"x\300\342\235\013f\301j-\203\271\215\232W\350\240\035"
 460      0B66C16A 
 460      2D83B98D 
 460      9A57E8A0 
 460      1D
 461 0ed0 3E71131A 		.ascii	">q\023\032\211\315\330\365\267b\274\035\343\235\030"
 461      89CDD8F5 
 461      B762BC1D 
 461      E39D18
 462 0edf 4730FE80 		.ascii	"G0\376\200\307$l`M\302R$x]r\032C\234\316\233_\374+\335"
 462      C7246C60 
 462      4DC25224 
 462      785D721A 
 462      439CCE9B 
 463 0ef7 6BD11D06 		.ascii	"k\321\035\006!\3620\243`\017K\301j\313\024\270Y\012"
 463      21F230A3 
 463      600F4BC1 
 463      6ACB14B8 
 463      590A
 464 0f09 22370FD2 		.ascii	"\"7\017\322\255\010u7`\255\036\317h]6\336,\345 >\237"
 464      AD087537 
 464      60AD1ECF 
 464      685D36DE 
 464      2CE5203E 
 465 0f1e 4EC1EA2D 		.ascii	"N\301\352-\203i\237\351\237~\210\001{\3372\230\331i"
 465      83699FE9 
 465      9F7E8801 
 465      7BDF3298 
 465      D969
 466 0f30 BD775017 		.ascii	"\275wP\027\326c\233\177\210q\003\306\3731\376\210\325"
 466      D6639B7F 
 466      887103C6 
 466      FB31FE88 
 466      D5
 467 0f41 0249D8D3 		.ascii	"\002I\330\323U\357\267R\343\310\240\306\254\250\300"
 467      55EFB752 
 467      E3C8A0C6 
ARM GAS  /tmp/cchgl6UF.s 			page 37


 467      ACA8C0
 468 0f50 8B6BD6B6 		.ascii	"\213k\326\266k\330\266=\321\225c\300q\233kW\353\234"
 468      6BD8B63D 
 468      D19563C0 
 468      719B6B57 
 468      EB9C
 469 0f62 33CA8043 		.ascii	"3\312\200C\201a\202n\031Q\253-\263\317\324j\316\272"
 469      8161826E 
 469      1951AB2D 
 469      B3CFD46A 
 469      CEBA
 470 0f74 9FE7C18B 		.ascii	"\237\347\301\213s\230b!u\021(\330\367\226\301\334\202"
 470      73986221 
 470      751128D8 
 470      F796C1DC 
 470      82
 471 0f85 E9877DBA 		.ascii	"\351\207}\272\017&0\270\373\367\023>`\373\012N\212>"
 471      0F2630B8 
 471      FBF7133E 
 471      60FB0A4E 
 471      8A3E
 472 0f97 C3F8756C 		.ascii	"\303\370ul\231\351\030\277\211"
 472      99E918BF 
 472      89
 473 0fa0 7113C647 		.ascii	"q\023\306G0\376\230\247\305ZE\246\305~B\026\256X8k\251"
 473      30FE98A7 
 473      C55A45A6 
 473      C57E4216 
 473      AE58386B 
 474 0fb5 6DB19623 		.ascii	"m\261\226#\237.Q[l*N\233n[F\324\266\330\217t\311\212"
 474      9F2E515B 
 474      6C2A4E9B 
 474      6E5B46D4 
 474      B6D88F74 
 475 0fcb 82BDD48D 		.ascii	"\202\275\324\215\003\314\250s\033K\370\012#\341\026"
 475      03CCA873 
 475      1B4BF80A 
 475      23E116
 476 0fda 94F055FA 		.ascii	"\224\360U\372h3J\357\004\217\364\276\215I\217\177\231"
 476      68334AEF 
 476      048FF4BE 
 476      8D498F7F 
 476      99
 477 0feb FBCCB9E3 		.ascii	"\373\314\271\343\177z\223N-\361\331\304W\272\375\003"
 477      7F7A934E 
 477      2DF1D9C4 
 477      57BAFD03 
 478 0ffb 96B95384 		.ascii	"\226\271S\204\311"
 478      C9
 479 1000 F4E94B79 		.ascii	"\364\351Ky\274\370<c\217\030\033\303\276r\350\264=\205"
 479      BCF83C63 
 479      8F181BC3 
 479      BE72E8B4 
 479      3D85
 480 1012 2C1077D3 		.ascii	",\020w\323nD25\222\033T\316iZMA\221\276B\255\034\271"
 480      6E443235 
 480      921B54CE 
ARM GAS  /tmp/cchgl6UF.s 			page 38


 480      695A4D41 
 480      91BE42AD 
 481 1028 D2DCFAE6 		.ascii	"\322\334\372\346\305^k\210\371\227o\267\377m\374\004"
 481      C55E6B88 
 481      F9976FB7 
 481      FF6DFC04 
 482 1038 51F7049F 		.ascii	"Q\367\004\237\335|\0148k\327<\301g\350P&Z \337\266\366"
 482      DD7C0C38 
 482      6BD73CC1 
 482      67E85026 
 482      5A20DFB6 
 483 104d 6A6FEA81 		.ascii	"jo\352\201\235G\017lbw\213\013\344\370\254\265\336\003"
 483      9D470F6C 
 483      62778B0B 
 483      E4F8ACB5 
 483      DE03
 484 105f ABA78F01 		.ascii	"\253\247\217\001\177\303\345An\331\363\226\251\007\251"
 484      7FC3E541 
 484      6ED9F396 
 484      A907A9
 485 106e 7388F56B 		.ascii	"s\210\365k~\363\201\332\204+`>\361\262\035Wi\365T\316"
 485      7EF381DA 
 485      842B603E 
 485      F1B21D57 
 485      69F554CE 
 486 1082 9C84547E 		.ascii	"\234\204T~\307E\345\354=\270\220g\376\260%\277\352\036"
 486      C745E5EC 
 486      3DB89067 
 486      FEB025BF 
 486      EA1E
 487 1094 DB78F68F 		.ascii	"\333x\366\217\353Pu[Qu\317w\327\253\256C\247\271\016"
 487      EB50755B 
 487      5175CF77 
 487      D7ABAE43 
 487      A7B90E
 488 10a7 ADE63A52 		.ascii	"\255\346:Rc\011Es\315\232\346\252]\367\224\347\023i"
 488      63094573 
 488      CD9AE6AA 
 488      5DF794E7 
 488      1369
 489 10b9 86FAC275 		.ascii	"\206\372\302u~b\013\256\004&\330\3265\243\344\206\235"
 489      7E620BAE 
 489      0426D8D6 
 489      35A3E486 
 489      9D
 490 10ca 5DE9893D 		.ascii	"]\351\211=u\212\017!\013\011\037<\305c2\354\300\370"
 490      758A0F21 
 490      0B091F3C 
 490      C56332EC 
 490      C0F8
 491 10dc 2D4AEDBB 		.ascii	"-J\355\273\244\335\256mk\217\364\3528\021\323\365\276"
 491      A4DDAE6D 
 491      6B8FF4EA 
 491      3811D3F5 
 491      BE
 492 10ed D638DDEF 		.ascii	"\3268\335\3576\247h\251\357b\2062\336\361\213\305r\213"
 492      36A768A9 
ARM GAS  /tmp/cchgl6UF.s 			page 39


 492      EF628632 
 492      DEF18BC5 
 492      728B
 493 10ff 15CB55CB 		.ascii	"\025\313U\313bq\263b\221\301\022\245:\343\211\344@\034"
 493      6271B362 
 493      91C112A5 
 493      3AE389E4 
 493      401C
 494 1111 6626394C 		.ascii	"f&9LE\022=\037\300\305\322D\007\303\322u\036\226\314"
 494      45123D1F 
 494      C0C5D244 
 494      07C3D275 
 494      1E96CC
 495 1124 DDD15FC6 		.ascii	"\335\321_\306\322\253\006,q\2610\325\241[\310\274i\231"
 495      D2AB062C 
 495      71B130D5 
 495      A15BC8BC 
 495      6999
 496 1136 0DB7A0FD 		.ascii	"\015\267\240\375\304\374\313+8\272\376\214\361K\016"
 496      C4FCCB2B 
 496      38BAFE8C 
 496      F14B0E
 497 1145 F4681C1C 		.ascii	"\364h\034\034#\355%VS\332\221\236o\254w \243\017;\010"
 497      23ED2556 
 497      53DA919E 
 497      6FAC7720 
 497      A30F3B08 
 498 1159 F8C40BE8 		.ascii	"\370\304\013\350\\_\344\031\374\277\214\221\024\025"
 498      5C5FE419 
 498      FCBF8C91 
 498      1415
 499 1167 3173CE8A 		.ascii	"1s\316\212\222Zu\247\326B\376ZX&\313\3258t^$\255Ka$"
 499      925A75A7 
 499      D642FE5A 
 499      5826CBD5 
 499      38745E24 
 500 117f E155BCEF 		.ascii	"\341U\274\357\013{_\303\352\224\312ha\271\006\234\""
 500      0B7B5FC3 
 500      EA94CA68 
 500      61B9069C 
 500      22
 501 1190 91D60573 		.ascii	"\221\326\005s\353\004\005\025\212\376\247\260\202\350"
 501      EB040515 
 501      8AFEA7B0 
 501      82E8
 502 119e CDA75FE6 		.ascii	"\315\247_\346\015U\336\236`^H\341o\206C\363\002L2\350"
 502      0D55DE9E 
 502      605E48E1 
 502      6F8643F3 
 502      024C32E8 
 503 11b2 375F693E 		.ascii	"7_i>\261\365b1y\202Xno\377\233~\304'\356\201\231\264"
 503      B1F56231 
 503      7982586E 
 503      6FFF9B7E 
 503      C427EE81 
 504 11c8 E63A120E 		.ascii	"\346:\022\016\371\232\205\343\350+/\310\3536\243\357"
 504      F99A85E3 
ARM GAS  /tmp/cchgl6UF.s 			page 40


 504      E82B2FC8 
 504      EB36A3EF 
 505 11d8 FDD83D00 		.ascii	"\375\330=\000\337@\261\300AF\374ew\032\216\370\3460"
 505      DF40B1C0 
 505      4146FC65 
 505      771A8EF8 
 505      E630
 506 11ea F8FC9A43 		.ascii	"\370\374\232C7\226\036\333K\037dw\360\214\245\247&\233"
 506      37961EDB 
 506      4B1F6477 
 506      F08CA5A7 
 506      269B
 507 11fc AF9FEB47 		.ascii	"\257\237\353G|\315K\002%\341\355;\215G|\315m\340\373"
 507      7CCD4B02 
 507      25E1ED3B 
 507      8D477CCD 
 507      6DE0FB
 508 120f 39C888BF 		.ascii	"9\310\210\277\\O\345\306\311H\345r.*\353\367&\030\361"
 508      5C4FE5C6 
 508      C948E572 
 508      2E2AEBF7 
 508      2618F1
 509 1222 E337D5AA 		.ascii	"\3437\325\252d\015\307J\326\366m\305\326!\004'5\312"
 509      640DC74A 
 509      D6F66DC5 
 509      D6210427 
 509      35CA
 510 1234 51DB4731 		.ascii	"Q\333G1a\032k\031\314m\016v\224\007,\221UV\301NZ\006"
 510      611A6B19 
 510      CC6D0E76 
 510      94072C91 
 510      5556C14E 
 511 124a 33A02CD9 		.ascii	"3\240,\331\226\332\030o\324Rf\021\321\357\312x\255\377"
 511      96DA186F 
 511      D4526611 
 511      D1EFCA78 
 511      ADFF
 512 125c 9DAB6537 		.ascii	"\235\253e7\304Z\326'VEU4\016\313\346\007j\177\031\313"
 512      C45AD627 
 512      56455534 
 512      0ECBE607 
 512      6A7F19CB 
 513 1270 5BADB0AC 		.ascii	"[\255\260\254xnI\261\274\205e\371\246\335*\313q\364"
 513      786E49B1 
 513      BC8565F9 
 513      A6DD2ACB 
 513      71F4
 514 1282 EF2B1E95 		.ascii	"\357+\036\2251?\177\373\313\344\367ws\371\031\0325\323"
 514      313F7FFB 
 514      CBE4F777 
 514      73F9191A 
 514      35D3
 515 1294 632E8A4D 		.ascii	"c.\212M~\357\375\253.\264\311{\321&\277\321\303\342"
 515      7EEFFDAB 
 515      2EB4C97B 
 515      D126BFD1 
 515      C3E2
ARM GAS  /tmp/cchgl6UF.s 			page 41


 516 12a6 69193CDE 		.ascii	"i\031<\336\250\267v\327\375n\232\233\330\326\375\264"
 516      A8B776D7 
 516      FD6E9A9B 
 516      D8D6FDB4 
 517 12b6 4239A640 		.ascii	"B9\246@Wa\336\303\372\367'ku\"m~\262xA\261\336\267\214"
 517      5761DEC3 
 517      FAF7276B 
 517      75226D7E 
 517      B27841B1 
 518 12cd E5362254 		.ascii	"\3456\"T\325\241\030\227>\261\321A\334\214\217\320\377"
 518      D5A11897 
 518      3EB1D141 
 518      DC8C8FD0 
 518      FF
 519 12de 39C8E3FF 		.ascii	"9\310\343\377\354\3218\333\\\012\374\001k\215\367\366"
 519      ECD138DB 
 519      5C0AFC01 
 519      6B8DF7F6 
 520 12ee B0AA737A 		.ascii	"\260\252sz^b.\334\033H\366\032\214\337\306x\035\306"
 520      5E622EDC 
 520      1B48F61A 
 520      8CDFC678 
 520      1DC6
 521 1300 EB31DE8C 		.ascii	"\3531\336\214\361\373\030\357\342am\011\333\321^G\333"
 521      F1FB18EF 
 521      E2616D09 
 521      DBD15E47 
 521      DB
 522 1311 529B6CFB 		.ascii	"R\233l\3735\267\034\271\336\037_\314\312\377^+\320`"
 522      35B71CB9 
 522      DE1F5FCC 
 522      CAFF5E2B 
 522      D060
 523 1323 FA3EAE23 		.ascii	"\372>\256#\016\362^\253&\235\006s\276\327\352\230C\367"
 523      0EF25EAB 
 523      269D0673 
 523      BED7EA98 
 523      43F7
 524 1335 5EAB2D2F 		.ascii	"^\253-/\272in\034\035V^>u\262G\307\267Z}\325\303\360"
 524      BA696E1C 
 524      1D565E3E 
 524      75B247C7 
 524      B75A7DD5 
 525 134b AD56DFF7 		.ascii	"\255V\337\3670|\253U[\017\303\267Z\275\334S\373V+%{"
 525      307CAB55 
 525      5B0FC3B7 
 525      5ABDDC53 
 525      FB562B25 
 526 1360 412CDBC1 		.ascii	"A,\333\301d\257\210e;\231\354\365\261l\027\223\275#"
 526      64AF8865 
 526      3B99ECF5 
 526      B16C1793 
 526      BD23
 527 1372 969DC2B4 		.ascii	"\226\235\302\264H\334s\3561!\371\304O\260\013|\3520"
 527      48DC73EE 
 527      3121F9C4 
 527      4FB00B7C 
ARM GAS  /tmp/cchgl6UF.s 			page 42


 527      EA30
 528 1384 7E63964F 		.ascii	"~c\226O|Y\322i\202\245W\315\312\250\011\343\311\253"
 528      7C59D269 
 528      82A557CD 
 528      CAA809E3 
 528      C9AB
 529 1396 6ED4F7DF 		.ascii	"n\324\367\337\221\371\354\262\330\306\204v\251\205\324"
 529      91F9ECB2 
 529      D8C68476 
 529      A985D4
 530 13a5 78D161F9 		.ascii	"x\321a\371\375w\312rG\224\032%\021{\261\343\276\236"
 530      FD77CA72 
 530      47941A25 
 530      117BB1E3 
 530      BE9E
 531 13b7 A2968BC4 		.ascii	"\242\226\213\304'6X\205\306\367\221\220\221\203\320"
 531      27365885 
 531      C6F79190 
 531      9183D0
 532 13c6 260907B8 		.ascii	"&\011\007\270\320\022\015\035\252};\254G3\352kq\226"
 532      D0120D1D 
 532      AA7D3BAC 
 532      4733EA6B 
 532      7196
 533 13d8 BFAF4F36 		.ascii	"\277\257O6\337@\215\267\037\014SI\\n\215-\300\342z\217"
 533      DF408DB7 
 533      1F0C5349 
 533      5C6E8D2D 
 533      C0E27A8F 
 534 13ec D5C5D7AB 		.ascii	"\325\305\327\253\254\3358\241\327\226\204\274\2705\274"
 534      ACDD38A1 
 534      D79684BC 
 534      B835BC
 535 13fb B4EF5537 		.ascii	"\264\357U7\222\350\322\350gz\331\030i\037\377\3538k"
 535      92E8D2E8 
 535      677AD918 
 535      691FFFEB 
 535      386B
 536 140d 19DBBF18 		.ascii	"\031\333\277\030\025\277\016\015\344a\214/`|\031\343"
 536      15BF0E0D 
 536      E4618C2F 
 536      607C19E3 
 537 141d EF316EC1 		.ascii	"\3571n\301\370\007\036\3639\237\025\0033,H\302\305\236"
 537      F8071EF3 
 537      399F1503 
 537      332C48C2 
 537      C59E
 538 142f 86734F98 		.ascii	"\206sO\230\301}\"\316\252\222\207\322\262\222p\033\357"
 538      C17D22CE 
 538      AA9287D2 
 538      B292701B 
 538      EF
 539 1440 AB71984D 		.ascii	"\253q\230M!\225\032p\0129A\276<qbWQ]\024\326\024\323"
 539      21951A70 
 539      0A3941BE 
 539      3C716257 
 539      515D14D6 
ARM GAS  /tmp/cchgl6UF.s 			page 43


 540 1456 D944FCF9 		.ascii	"\331D\374\371\307\216\223\310\272\346H5\314`\3077\267"
 540      C78E93C8 
 540      BAE64835 
 540      CC60C737 
 540      B7
 541 1467 B7F7A5F3 		.ascii	"\267\367\245\363B\230&\337eD\252\274\330\257\020\011"
 541      429826DF 
 541      6544AABC 
 541      D8AF1009 
 542 1477 AE1C0E0C 		.ascii	"\256\034\016\014m\311\021\331\026\237\310\233\206D\236"
 542      6DC911D9 
 542      169FC89B 
 542      86449E
 543 1486 994CDEA5 		.ascii	"\231L\336\245\014\252\321\376\204\320q\275T\346{Z\251"
 543      0CAAD1FE 
 543      84D071BD 
 543      54E67B5A 
 543      A9
 544 1497 6185F2B4 		.ascii	"a\205\362\264\222\354\304\375f\035\237\374P-\227\216"
 544      92ECC4FD 
 544      661D9FFC 
 544      502D978E 
 545 14a7 B72A5055 		.ascii	"\267*PU\010U\247\203\362\211\202n\355U\320.w\302W\271"
 545      0855A783 
 545      F289826E 
 545      ED55D02E 
 545      77C257B9 
 546 14bb 5DF9D0E7 		.ascii	"]\371\320\347\021 \347oBRe\314\224\261\335\332,\337"
 546      1120E76F 
 546      425265CC 
 546      94B1DDDA 
 546      2CDF
 547 14cd E8C067F3 		.ascii	"\350\300g\363\306\326\375\347\025N\2478\211O\271\371"
 547      C6D6FDE7 
 547      154EA738 
 547      894FB9F9 
 548 14dd 2E439F32 		.ascii	".C\2372\336\221\332\010\026\231\352\324\371\2253|n\232"
 548      DE91DA08 
 548      1699EAD4 
 548      F995337C 
 548      6E9A
 549 14ef CBB16ABE 		.ascii	"\313\261j\276D\361+Y\365#E\223\363+\347\240_Iv\333`"
 549      44F12B59 
 549      F5234593 
 549      F32BE7A0 
 549      5F4976DB 
 550 1504 321B25CE 		.ascii	"2\033%\316\242_\251`\315ki\240\244\255E\270F\036\270"
 550      A25FA960 
 550      CD6B69A0 
 550      A4AD45B8 
 550      461EB8
 551 1517 387BDE0B 		.ascii	"8{\336\013.l&\257\343W-\337Q=\\\302\215j-u\013\377s"
 551      2E6C26AF 
 551      E3572DDF 
 551      513D5CC2 
 551      8D6A2D75 
 552 152e 6E3F15EB 		.ascii	"n?\025\353s\313X\017\0325\211\252\234\261\366\364\211"
ARM GAS  /tmp/cchgl6UF.s 			page 44


 552      73CB580F 
 552      1A3589AA 
 552      9CB1F6F4 
 552      89
 553 153f AF398915 		.ascii	"\2579\211\025\235\346\304}P\214g`<\023\343\331N\016"
 553      9DE6C47D 
 553      508C6760 
 553      3C13E3D9 
 553      4E0E
 554 1551 CB39D9D9 		.ascii	"\3139\331\331q\001o\276f\222\234\360hP\266\212y\234"
 554      71016FBE 
 554      66929CF0 
 554      6850B68A 
 554      799C
 555 1563 9912CDBB 		.ascii	"\231\022\315\273~\244\017}\216e>\352\357\374\273\023"
 555      7EA40F7D 
 555      8E653EEA 
 555      EFFCBB13 
 556 1573 9F0DD202 		.ascii	"\237\015\322\002\371\304\205N\242o\213\364\012\374\023"
 556      F9C4854E 
 556      A26F8BF4 
 556      0AFC13
 557 1582 5D065AC4 		.ascii	"]\006Z\304\245\302\267\366.Ov\261j\345\335\\\213UK\221"
 557      A5C2B7F6 
 557      2E4F76B1 
 557      6AE5DD5C 
 557      8B554B91 
 558 1596 CA657A2A 		.ascii	"\312ez*\217R*\227qQyl\257\322\321\310\036\211:\323^"
 558      8F522A97 
 558      7151796C 
 558      AFD2D1C8 
 558      1E893AD3 
 559 15ab 966C4753 		.ascii	"\226lGS=\234[\010FW*\254\200\271\215\300&\242\011x\231"
 559      3D9C5B08 
 559      46572AAC 
 559      80B98DC0 
 559      26A20978 
 560 15c0 072CF1B2 		.ascii	"\007,\361\262\021]]\237f\031\314\200\262dw\006\3268"
 560      115D5D9F 
 560      6619CC80 
 560      B2647706 
 560      D638
 561 15d2 136F7628 		.ascii	"\023ov(\337\371\367\006g\2675\277\241\230\355u8@m\272"
 561      DFF9F706 
 561      67B735BF 
 561      A198ED75 
 561      38406DBA 
 562 15e6 5B3F4025 		.ascii	"[?@%\261\257-pNv\337t2\223\335]Xs\002\341\232/P\221"
 562      B1AF2D70 
 562      4E76DF74 
 562      3293DD5D 
 562      587302E1 
 563 15fe 0E7C7FC2 		.ascii	"\016|\177\302\015\266x\002\256\217'\340uN\376E\250w"
 563      0DB67802 
 563      AE8F27E0 
 563      754EFE45 
 563      A877
ARM GAS  /tmp/cchgl6UF.s 			page 45


 564 1610 59B6F658 		.ascii	"Y\266\366Xf\313\242\316\304\3333\334\026\217%\375:\233"
 564      66CBA2CE 
 564      C4DB33DC 
 564      168F25FD 
 564      3A9B
 565 1622 B2079814 		.ascii	"\262\007\230\024\313[Y\226\033yX\376%Ke\361X\376{<\226"
 565      CB5B5996 
 565      1B7958FE 
 565      254B65F1 
 565      58FE7B3C 
 566 1637 F5ABA9BF 		.ascii	"\365\253\251\277\204\345\017X\226\217Xf\331-h?\2619"
 566      84E50F58 
 566      968F5866 
 566      D92D683F 
 566      B139
 567 1649 D50A1C0C 		.ascii	"\325\012\034\014\337\300x%\306\2530^\215\361F\214\267"
 567      DFC07825 
 567      C6AB305E 
 567      8DF1468C 
 567      B7
 568 165a 60BC8B67 		.ascii	"`\274\213g\300\254svX\251Y\224\244\241\226#\267\311"
 568      C0AC7376 
 568      58A95994 
 568      A4A19623 
 568      B7C9
 569 166c 9B10780F 		.ascii	"\233\020x\017{\\\271\335\326\033\327h\366\343\210\372"
 569      7B5CB9DD 
 569      D61BD768 
 569      F6E388FA 
 570 167c 7A2F8B67 		.ascii	"z/\213g=$\241\026\213\034\320\017U\233&\341\353\240"
 570      3D24A116 
 570      8B1CD00F 
 570      559B26E1 
 570      EBA0
 571 168e 0F700D55 		.ascii	"\017p\015U[8_\373^\027\365F{\010\261\347\230n\211\340"
 571      5B385FFB 
 571      5E17F546 
 571      7B08B1E7 
 571      986E89E0 
 572 16a2 7C1E41FA 		.ascii	"|\036A\372\327\030\323o\216!\011\333\261\3101=\375\327"
 572      D718D36F 
 572      8E2109DB 
 572      B1C8313D 
 572      FDD7
 573 16b4 88477B8C 		.ascii	"\210G{\214\213\372\353\352\003]\207\235\3506F\001\223"
 573      8BFAEBEA 
 573      035D879D 
 573      E8364601 
 573      93
 574 16c5 F3687F46 		.ascii	"\363h\177F\217\226>\034v\3242\226[\2035c\217\372X\237"
 574      8F963E1C 
 574      76D43296 
 574      5B833563 
 574      8FFA589F 
 575 16d9 F2241E0F 		.ascii	"\362$\036\017^\034\227v\02696f\345\301\343}\312\203"
 575      5E1C9776 
 575      16393666 
ARM GAS  /tmp/cchgl6UF.s 			page 46


 575      E5C1E37D 
 575      CA83
 576 16eb C76770E4 		.ascii	"\307gp\344\272\320\353\0370rI\302\217\226\271\320H\245"
 576      BAD0EB1F 
 576      307249C2 
 576      8F96B9D0 
 576      48A5
 577 16fd B9E5F6D9 		.ascii	"\271\345\366\331^\3523]\224\260v\036D\243\201\315\350"
 577      5EEA335D 
 577      94B0761E 
 577      44A381CD 
 577      E8
 578 170e C36A934F 		.ascii	"\303j\223O\374\024\375\351\343h\014>\303\370s\214Oc"
 578      FC14FDE9 
 578      E3680C3E 
 578      C3F8738C 
 578      4F63
 579 1720 7C8EC73C 		.ascii	"|\216\307<\034f\315\330\313\275\325\376fQ\275\214I="
 579      1C66CDD8 
 579      CBBDD5FE 
 579      6651BD8C 
 579      493D
 580 1732 C0907A08 		.ascii	"\300\220z\010ImbI\222\204\031X\237\025s\244\025\366"
 580      496D6249 
 580      92841958 
 580      9F1573A4 
 580      15F6
 581 1744 BCEB6D7D 		.ascii	"\274\353m}['\310s\373q/\034G\332\234\222O\374\306I\026"
 581      5B27C873 
 581      FB712F1C 
 581      47DA9C92 
 581      4FFCC649 
 582 1759 8D6B7A27 		.ascii	"\215kz'\265h|\311\251[4n\245\177\206@\362\023/\033/"
 582      B5687CC9 
 582      A95B346E 
 582      A57F8640 
 582      F2132F1B 
 583 176e E9DD71D9 		.ascii	"\351\335q\331xMo\303e\343\215\275\265\313\306\212\024"
 583      784D6FC3 
 583      65E38DBD 
 583      B5CBC68A 
 583      14
 584 177f E22ED6C6 		.ascii	"\342.\326\306\210\363\211\337\242\310/;\343/\326.\262"
 584      88F389DF 
 584      A2C82F3B 
 584      E32FD62E 
 584      B2
 585 1790 30D11318 		.ascii	"0\321\023\030\351\313\221\366\275\344\321U\336\007\321"
 585      E9CB91F6 
 585      BDE4D155 
 585      DE07D1
 586 179f 7E5A7349 		.ascii	"~ZsIy8\357\0074\247\255\275\023\233S\003\0340;\370V"
 586      7938EF07 
 586      34A7ADBD 
 586      139B5303 
 586      1C303BF8 
 587 17b4 D9EB0832 		.ascii	"\331\353\0102\376\036\213 \222\360*\026i\323\333\344"
ARM GAS  /tmp/cchgl6UF.s 			page 47


 587      FE1E8B20 
 587      92F02A16 
 587      69D3DBE4 
 588 17c4 1DF4745E 		.ascii	"\035\364t^\033\207U&\377;B\237"
 588      1B875526 
 588      FF3B429F 
 589 17d0 4E571FDB 		.ascii	"NW\037\333\235\035\305T*}\222\025_b\263\334DO\314\322"
 589      9D1DC554 
 589      2A7D9215 
 589      5F62B3DC 
 589      444FCCD2 
 590 17e4 F3798BF5 		.ascii	"\363y\213\365`\026\355\350\321\350\023\350\343q\245"
 590      6016EDE8 
 590      D1E813E8 
 590      E371A5
 591 17f3 70B5653C 		.ascii	"p\265e<M'\213|L\211\243`\033x\300\342\274\227\3518\013"
 591      4D278B7C 
 591      4C89A360 
 591      1B78C0E2 
 591      BC97E938 
 592 1808 B6D93298 		.ascii	"\266\3312\230\226\262\317X\260\010\017X\234\027$\235"
 592      96B2CF58 
 592      B0080F58 
 592      9C17249D 
 593 1818 5286B324 		.ascii	"R\206\263$\377\337b\252\313|\021\215j\253Y\311\327\\"
 593      FFDF62AA 
 593      CB7C118D 
 593      6AAB59C9 
 593      D75C
 594 182a C66BC1E6 		.ascii	"\306k\301\346c_\244\206:@\257\270\010\343\015\272>\240"
 594      635FA486 
 594      3A40AFB8 
 594      08E30DBA 
 594      3EA0
 595 183c AB9A1066 		.ascii	"\253\232\020fV\365t\227\371\233\225u\277\201\217kY\300"
 595      56F57497 
 595      F99B9575 
 595      BF818F6B 
 595      59C0
 596 184e DAD63A33 		.ascii	"\332\326:3I\363l\362I\0368\267A{\031}\330\016\355\023"
 596      49F36CF2 
 596      491E38B7 
 596      417B197D 
 596      D80EED13 
 597 1862 7F46C377 		.ascii	"\177F\303w\013\007\301v\214\307\273H\\\205\361D\214"
 597      0B07C176 
 597      8CC7BB48 
 597      5C85F144 
 597      8C
 598 1873 2763FC32 		.ascii	"'c\3742\306\325\256\007\376\331\250\222p\366\036\335"
 598      C6D5AE07 
 598      FED9A892 
 598      70F61EDD 
 599 1883 58A7354C 		.ascii	"X\2475L\211\372\241\214\203\035>X\314oq\217\336O-\356"
 599      89FAA18C 
 599      831D3E58 
 599      CC6F718F 
ARM GAS  /tmp/cchgl6UF.s 			page 48


 599      DE4F2DEE 
 600 1897 1C17B152 		.ascii	"\034\027\261R\027t\212B\325\362\237\305\357\015.~M_"
 600      17748A42 
 600      D5F29FC5 
 600      EF0D2E7E 
 600      4D5F
 601 18a9 F310E577 		.ascii	"\363\020\345wn?\366\277\260\230\263\255rTadU\237\027"
 601      6E3FF6BF 
 601      B098B3AD 
 601      72546164 
 601      559F17
 602 18bc B8BA2929 		.ascii	"\270\272))\365\357\333\210\377\245'DWPI\233\2760\020"
 602      F5EFDB88 
 602      FFA52744 
 602      5750499B 
 602      BE3010
 603 18cf B7F36C4E 		.ascii	"\267\363lN\212.\011\023\356\345\202k\262\233\341\031"
 603      8A2E0913 
 603      EEE5826B 
 603      B29BE119 
 604 18df 4D708DFE 		.ascii	"Mp\215\376\316E\363\327\272J\223~\334\372\323\313\312"
 604      CE45F3D7 
 604      BA4A937E 
 604      DCFAD3CB 
 604      CA
 605 18f0 EB259660 		.ascii	"\353%\226`\233N\2747\341\000\330\361?z\227\273t\203"
 605      9B4EBC37 
 605      E100D8F1 
 605      3F7A97BB 
 605      7483
 606 1902 DFA2B30D 		.ascii	"\337\242\263\015\"\316\324\310/\011\206\277\227\252"
 606      22CED4C8 
 606      2F0986BF 
 606      97AA
 607 1910 22EBCF36 		.ascii	"\"\353\3176H\314\037\222\370\304\205\364\244\215+\331"
 607      48CC1F92 
 607      F8C485F4 
 607      A48D2BD9 
 608 1920 A718379C 		.ascii	"\247\0307\234U\026\307)\\\255e8\267\006\356]-\334!\211"
 608      5516C729 
 608      5CAD6538 
 608      B706EE5D 
 608      2DDC2189 
 609 1934 032ECE93 		.ascii	"\003.\316\223\214\357i\341\346\362P\027\347Y\306\315"
 609      8CEF69E1 
 609      E6F25017 
 609      E759C6CD 
 610 1944 5AB8F93C 		.ascii	"Z\270\371<pq\236f\334\312\302I\302LT\010+pZ\352\266"
 610      70719E66 
 610      DCCAC249 
 610      C24C5408 
 610      2B705AEA 
 611 1959 6BE16A78 		.ascii	"k\341jx\340\214FU\243\017\253y>q\205\213\330\2277\320"
 611      E08C4655 
 611      A30FAB79 
 611      3E71858B 
 611      D89737D0 
ARM GAS  /tmp/cchgl6UF.s 			page 49


 612 196d 76ACC478 		.ascii	"v\254\304x\025\306\2531~\023\3435\030\277\315Z\026\263"
 612      15C6AB31 
 612      7E13E335 
 612      18BFCD5A 
 612      16B3
 613 197f B1ACCEC5 		.ascii	"\261\254\316\305Ld\026\352;\251\021\331MqO?k\350^\304"
 613      4C6416EA 
 613      3BA911D9 
 613      4D714F3F 
 613      6BE85EC4 
 614 1993 D8C55AB4 		.ascii	"\330\305Z\264\213\213\321\"\356\303\370k\214[\351&\006"
 614      8B8BD122 
 614      EEC3F86B 
 614      8C5BE926 
 614      06
 615 19a4 523C1FE3 		.ascii	"R<\037\343E\030/\346\241~\236\323\364\250\220$,\325"
 615      45182FE6 
 615      A17E9ED3 
 615      F4A89024 
 615      2CD5
 616 19b6 75F2E89E 		.ascii	"u\362\350\236p\333\375\373\350y\344\311\270:\260\001"
 616      70DBFDFB 
 616      E879E4C9 
 616      B83AB001 
 617 19c6 EFBB6DBA 		.ascii	"\357\273m\272\335\212{'\312.\355a\177t+\271>A1\334^"
 617      DD8A7B27 
 617      CA2EED61 
 617      7F742BB9 
 617      3E4131DC 
 618 19db D11E639E 		.ascii	"\321\036c\236\207\365mIPPaJ9\306\274\376\363\274^tK"
 618      87F56D49 
 618      5050614A 
 618      39C6BCFE 
 618      F3BC5E74 
 619 19f0 55D09632 		.ascii	"U\320\2262\332\335}\307e\264\273{\255q\232\272\273\233"
 619      DADD7DC7 
 619      65B4BB7B 
 619      AD719ABA 
 619      BB9B
 620 1a02 A273CD08 		.ascii	"\242s\315\010\221f\302\335\342\322\255\011\022A\350"
 620      9166C2DD 
 620      E2D2AD09 
 620      1241E8
 621 1a11 64BCDD50 		.ascii	"d\274\335P\306t3\233\336\276\301E:\352fW\\\351F7\263"
 621      C674339B 
 621      DEBEC145 
 621      3AEA6657 
 621      5CE94637 
 622 1a26 B7E1A16D 		.ascii	"\267\341\241m\2723e^J!p\233!\267\213\016\276j\306-\331"
 622      BA33655E 
 622      4A21709B 
 622      21B78B0E 
 622      BE6AC62D 
 623 1a3b 4434E3F6 		.ascii	"D4\343\366}\016n\017\030s{\263H\307\355NNn7\"\267\364"
 623      7D0E6E0F 
 623      18737BB3 
 623      48C7ED4E 
ARM GAS  /tmp/cchgl6UF.s 			page 50


 623      4E6E3722 
 624 1a51 2F42CD4B 		.ascii	"/B\315K)\004\3562\344\366\330\264F0<\362\317\355\355"
 624      2904EE32 
 624      E4F6D8B4 
 624      46303CF2 
 624      CFEDED
 625 1a64 E40131C1 		.ascii	"\344\0011\301\302\351\310\0179\030>n\314\360-=\303\273"
 625      C2E9C80F 
 625      39183E6E 
 625      CCF02D3D 
 625      C3BB
 626 1a76 3919D69D 		.ascii	"9\031\326\235U`\212\031i\363^-\307\177\021m5vz6\177"
 626      55608A19 
 626      69F35E2D 
 626      C77F116D 
 626      35767A36 
 627 1a8b 7A73EB9B 		.ascii	"zs\353\233\037T\316\223?\300\263\371z\256\343\254s\177"
 627      1F54CE93 
 627      3FC0B3F9 
 627      7AAEE3AC 
 627      737F
 628 1a9d A4679A3C 		.ascii	"\244g\232<l\240\177\244A\371\316\273`\273\370\375\243"
 628      6CA07FA4 
 628      41F9CEBB 
 628      60BBF8FD 
 628      A3
 629 1aae 7D36D317 		.ascii	"}6\323\027?\242s1\277\217\305\025[ez\262\3762Y5=\212"
 629      3FA27331 
 629      BF8FC515 
 629      5B657AB2 
 629      FE325935 
 630 1ac4 184B7518 		.ascii	"\030Ku\030>1G\347s\346\350\377Z\341\234M\236\236\202"
 630      3E3147E7 
 630      73E6E8FF 
 630      5AE19C4D 
 630      9E9E82
 631 1ad7 F992B0A3 		.ascii	"\371\222\260\243\217v\205\203)7\304\314i\317\211\331"
 631      8F768583 
 631      2937C4CC 
 631      69CF89D9 
 632 1ae7 EA4F708C 		.ascii	"\352Op\214\321\335\251S\215\275:\012\325\233\216wh\264"
 632      D1DDA953 
 632      8DBD3A0A 
 632      D59B8E77 
 632      68B4
 633 1af9 B9D1466B 		.ascii	"\271\321Fk9rm\2028\243\252\256A\276B\326\015\325\023"
 633      39726D82 
 633      38A3AAAE 
 633      41BE42D6 
 633      0DD513
 634 1b0c 31874DA0 		.ascii	"1\207M\240Nv\324x\000\331\261\275\266\267q\313\363/"
 634      4E76D478 
 634      00D9B1BD 
 634      B6B771CB 
 634      F32F
 635 1b1e 676D3C48 		.ascii	"gm<HD}\332E\326\263\316\350j\347\\\317\372\302\245["
 635      447DDA45 
ARM GAS  /tmp/cchgl6UF.s 			page 51


 635      D6B3CEE8 
 635      6AE75CCF 
 635      FAC2A55B 
 636 1b32 CF3A3115 		.ascii	"\317:1\025\327\263H~\342\365\254\257\373t\\\317\272"
 636      D7B3487E 
 636      E2F5ACAF 
 636      FB745CCF 
 636      BA
 637 1b43 DCC7703D 		.ascii	"\334\307p=\353\247>\206\307 _\272\317\360\030\344\214"
 637      EBA73E86 
 637      C7205FBA 
 637      CFF018E4 
 637      8C
 638 1b54 FB0C8F41 		.ascii	"\373\014\217A.\274\317\360\030\344\312\373\014\217A"
 638      2EBCCFF0 
 638      18E4CAFB 
 638      0C8F41
 639 1b63 6EBACFF0 		.ascii	"n\272\317\360\030\344\256\373\264\307 \225\354\375\261"
 639      18E4AEFB 
 639      B4C72095 
 639      ECFDB1
 640 1b72 EC5426FB 		.ascii	"\354T&\373\363Xv'&\373\373Xv\032\223-\337\037\315Ng"
 640      F3587627 
 640      26FBFB58 
 640      761A932D 
 640      DF1FCD4E 
 641 1b87 B25F8F65 		.ascii	"\262_\217e\337\301d\327\305\262;3\331\357\304\262\273"
 641      DFC164D7 
 641      C5B23B33 
 641      D9EFC4B2 
 641      BB
 642 1b98 30D9DB62 		.ascii	"0\331\333b\331]\231\354\017c\331\335\230\354\343\261"
 642      D95D99EC 
 642      0F63D9DD 
 642      98ECE3B1 
 643 1ba8 ECEE2CDD 		.ascii	"\354\356,\335\261\354;\225\266$_\343.+\306t\304'\236"
 643      B1EC3B95 
 643      B6245FE3 
 643      2E2BC674 
 643      C4279E
 644 1bbb C53E75CE 		.ascii	"\305>u\316e\274\254hf\257N\351\355\025\031,\222|4T\321"
 644      65BCAC68 
 644      66AF4EE9 
 644      ED15192C 
 644      927C3454 
 645 1bd0 FD594E89 		.ascii	"\375YN\211\343\205\302>\361\365\024\276\367p\203*\366"
 645      E385C23E 
 645      F1F514BE 
 645      F770832A 
 645      F6
 646 1be1 EDB087A0 		.ascii	"\355\260\207\240\177\233t\362\257\363~-\305\360\321"
 646      7F9B74F2 
 646      AFF37E2D 
 646      C5F0D1
 647 1bf0 CB7AB1E3 		.ascii	"\313z\261\343\236\243$\274\322\327\330\222\314L1\262"
 647      9EA324BC 
 647      D2D7D892 
ARM GAS  /tmp/cchgl6UF.s 			page 52


 647      CC4C31B2 
 648 1c00 242DD586 		.ascii	"$-\325\206\346\250\332\004d\266!\310\364\357/<a6\020"
 648      E6A8DA04 
 648      64B621C8 
 648      F4EF2F3C 
 648      613610
 649 1c13 C559F8AA 		.ascii	"\305Y\370\252I\3215\354:|\245\256\206\233E&\204\314"
 649      49D135EC 
 649      3A7CA5AE 
 649      869B4526 
 649      84CC
 650 1c25 3324E44A 		.ascii	"3$\344J\365\017R\022\204,\320\023B\234\257\350\027\345"
 650      F50F5212 
 650      842CD013 
 650      429CAFE8 
 650      17E5
 651 1c37 E0A98EB0 		.ascii	"\340\251\216\260U&\204\325\032\021\026\331\331\370\252"
 651      552684D5 
 651      1A1116D9 
 651      D9F8AA
 652 1c46 2CD23390 		.ascii	",\3223\220\374d\325\031\221\245#c\275\011\031K\015\345"
 652      FC64D519 
 652      91A52363 
 652      BD09194B 
 652      0DE5
 653 1c58 73FA5CE4 		.ascii	"s\372\\\344\277\223\220\317\362\016\204HQ\371po\273"
 653      BF9390CF 
 653      F20E8448 
 653      51F9706F 
 653      BB
 654 1c69 457654F7 		.ascii	"EvT\367$\203\303\312\024|\330\242c\177I\352\264H\224"
 654      2483C3CA 
 654      147CD8A2 
 654      637F49EA 
 654      B44894
 655 1c7c A49306CF 		.ascii	"\244\223\006\317!K\302G&\342Y\243\025\317\377\020\226"
 655      214BC247 
 655      26E259A3 
 655      15CFFF10 
 655      96
 656 1c8d C8912698 		.ascii	"\310\221&\230\026]=+\202\243\322@\266(\332\305\276\240"
 656      165D3D2B 
 656      82A3D240 
 656      B628DAC5 
 656      BEA0
 657 1c9f 91F89FDD 		.ascii	"\221\370\237\335g\243(\352\302\315\257T\376\336Qe\364"
 657      67A328EA 
 657      C2CDAF54 
 657      FEDE5165 
 657      F4
 658 1cb0 760C91A2 		.ascii	"v\014\221\242E\352W\247\202\237\210\375J\375\353\362"
 658      45EA57A7 
 658      829F88FD 
 658      4AFDEBF2 
 659 1cc0 F37AA067 		.ascii	"\363z\240gU\234\350;\256\024\230\201\302FyJ\244\037"
 659      559CE83B 
 659      AE149881 
ARM GAS  /tmp/cchgl6UF.s 			page 53


 659      C246794A 
 659      A41F
 660 1cd2 2D484F4B 		.ascii	"-HOK\377_\241M\236\"G\266\364\244\007\013I-\304\011"
 660      FF5FA14D 
 660      9E2247B6 
 660      F4A4070B 
 660      492DC409 
 661 1ce6 9C736DA5 		.ascii	"\234sm\245X-\327\305h\246\3773\376m\007\2325\377*N\352"
 661      582DD7C5 
 661      68A6FF33 
 661      FE6D079A 
 661      35FF2A4E 
 662 1cfb DAA81102 		.ascii	"\332\250\021\002=\214M+!\207\206\237\326\255\006O\213"
 662      3D8C4D2B 
 662      2187869F 
 662      D6AD064F 
 662      8B
 663 1d0c F3F763F5 		.ascii	"\363\367c\3651\003\2450\337\272\212a~\032\376\241\332"
 663      3103A530 
 663      DFBA8A61 
 663      7E1AFEA1 
 663      DA
 664 1d1d D584CC6F 		.ascii	"\325\204\314o\3220\377$-H\377W\216\334Y#\321I\302<\345"
 664      D230FF24 
 664      2D48FF57 
 664      8EDC5923 
 664      D149C23C 
 665 1d32 3BF9073F 		.ascii	";\371\007?y\312\024\331.\320\377\233#y62\212\323?\236"
 665      79CA14D9 
 665      2ED0FF9B 
 665      23793632 
 665      8AD33F9E 
 666 1d46 53BEF653 		.ascii	"S\276\366S\331;\021e/\262\243'\245Y!v\366\352\016\304"
 666      D93B1165 
 666      2FB2A327 
 666      A5592176 
 666      F6EA0EC4 
 667 1d5a DE4848EC 		.ascii	"\336HH\354\266\177\006\261\032\215\224\217DNl&\233\370"
 667      B67F06B1 
 667      1A8D948F 
 667      444E6C26 
 667      9BF8
 668 1d6c 2A6974EE 		.ascii	"*it\356|[OZ\207\346\330\251\325E\3009\266\234\305\241"
 668      7C5B4F5A 
 668      87E6D8A9 
 668      D545C039 
 668      B69CC5A1 
 669 1d80 73FE97DD 		.ascii	"s\376\227\335\211p\"1\234$\3676>\320Z\216ta*\253R9\346"
 669      89702231 
 669      9C24F736 
 669      3ED05A8E 
 669      74612AAB 
 670 1d97 1AB53B25 		.ascii	"\032\265;%]\320}\314n\335\025S>\235\3126\231,>\341\324"
 670      5DD07DCC 
 670      6EDD1553 
 670      3E9DCA36 
 670      992C3EE1 
ARM GAS  /tmp/cchgl6UF.s 			page 54


 671 1dac CFB4D447 		.ascii	"\317\264\324Gq\266=\366\230\224\342\227H\203\336\226"
 671      71B63DF6 
 671      9894E297 
 671      4883DE96 
 672 1dbc 124EB98E 		.ascii	"\022N\271\216\015\3555\245\230\350\205Y\251\375\246"
 672      0DED35A5 
 672      98E88559 
 672      A9FDA6
 673 1dcb A526C729 		.ascii	"\245&\307)\325hZ\212\214\005\2463K\323RuqJ\0350-\265"
 673      D5685A8A 
 673      8C05A633 
 673      4BD35275 
 673      714A1D30 
 674 1de1 204EA983 		.ascii	" N\251\203\246\245\310\333f\314J\035\212\225R\376\234"
 674      A6A5C8DB 
 674      66CC4A1D 
 674      8A9552FE 
 674      9C
 675 1df2 3CDEDFFF 		.ascii	"<\336\337\377BO\302w\325&\372\177^\234\335\216\347\376"
 675      424FC277 
 675      D526FA7F 
 675      5E9CDD8E 
 675      E7FE
 676 1e04 FB63F26D 		.ascii	"\373c\362m;\276\321i7\373\377\230:6j\3420\177\304\224"
 676      3BBED169 
 676      37FBFF98 
 676      3A366AE2 
 676      307FC494 
 677 1e18 79E2BE99 		.ascii	"y\342\276\231\225:jZ\352T\034\225\377\230q>\355\205"
 677      953A6A5A 
 677      EA541C95 
 677      FF98713E 
 677      ED85
 678 1e2a 637C41E7 		.ascii	"c|A\347\220\221O\2733\205G2\306\224\227\3723\012\313"
 678      90914FBB 
 678      33854732 
 678      C69497FA 
 678      330ACB
 679 1e3d 8B5ECC28 		.ascii	"\213^\314(\362\217\315(\034\023\030\025(\017e\204\203"
 679      F28FCD28 
 679      1C131815 
 679      280F6584 
 679      83
 680 1e4e 9565CF65 		.ascii	"\225e\317e@\302?.\234Q\354\013\027\2072B\301\302\214"
 680      40C23F2E 
 680      9C51EC0B 
 680      17873242 
 680      C1C28C
 681 1e61 E2E287C7 		.ascii	"\342\342\207\307\010\216\234A\0059\371\217Y+\031(\013"
 681      088E9C41 
 681      0539F98F 
 681      592B1928 
 681      0B
 682 1e72 FB47FB83 		.ascii	"\373G\373\203P\334>\370\231\202lWq\310\033~\261\302"
 682      50DC3EF8 
 682      99826C57 
 682      71C81B7E 
ARM GAS  /tmp/cchgl6UF.s 			page 55


 682      B1C2
 683 1e84 6F2B0A8E 		.ascii	"o+\012\216u\024\206\002\377\307\357,\363\302\335!\307"
 683      75148602 
 683      FFC7EF2C 
 683      F3C2DD21 
 683      C7
 684 1e95 0BC525BE 		.ascii	"\013\305%\276\321)\305\241\200\227$\354\177\311\365"
 684      D129C5A1 
 684      809724EC 
 684      7FC9F5
 685 1ea4 644981A2 		.ascii	"dI\201\242\3242o\260\274<\\\024\010:\262HV\247\022_"
 685      D4326FB0 
 685      BC3C5C14 
 685      083AB248 
 685      56A7125F 
 686 1eb8 28EC2D2C 		.ascii	"(\354-,\251\014\205;\025\007\375~\232LA\014\177Y\330"
 686      A90C853B 
 686      1507FD7E 
 686      9A4C410C 
 686      7F59D8
 687 1ecb 514C205D 		.ascii	"QL ]c\313KF\371B~\027d\342\025\212\223kJ\221/\354\303"
 687      63CB4B46 
 687      F9427E17 
 687      64E2158A 
 687      936B4A91 
 688 1ee2 8C170265 		.ascii	"\214\027\002e!\177a\330\006\327G\023\3613\306W\002\\"
 688      217F61D8 
 688      06D74713 
 688      F133C657 
 688      025C
 689 1ef4 403D45FE 		.ascii	"@=E\376\214\322\322Bo\250\"\000\334\244\216\030\221"
 689      8CD2D242 
 689      6FA82200 
 689      DCA48E18 
 689      91
 690 1f05 99595E56 		.ascii	"\231Y^V\034\030\235\305\003PQ\036\014\2072\362\013F"
 690      1C189DC5 
 690      0350511E 
 690      0C8732F2 
 690      0B46
 691 1f17 3C322063 		.ascii	"<2 c\370\360\254\214\374\274ac\373g\000\224\267\244"
 691      F8F0AC8C 
 691      FCBC6163 
 691      FB670094 
 691      B7A4
 692 1f29 A488C041 		.ascii	"\244\210\300AFV00\326\037\034`\205\036JK'\270\204\302"
 692      46563030 
 692      D61F1C60 
 692      851E4A4B 
 692      27B884C2 
 693 1f3d 20006FB8 		.ascii	" \000o\270\023\340x\237\0369l\344\260\202\024\222\314"
 693      13E0789F 
 693      1E396CE4 
 693      B0821492 
 693      CC
 694 1f4e 2FC8CD23 		.ascii	"/\310\315#\330^O\366\240\254g\360\327A\231\005\303\376"
 694      D85E4FF6 
ARM GAS  /tmp/cchgl6UF.s 			page 56


 694      A0AC67F0 
 694      D7419905 
 694      C3FE
 695 1f60 9C9D4E92 		.ascii	"\234\235N\222\231\271#\362\206g\027d;\260\364\035\000"
 695      99B923F2 
 695      86671764 
 695      3BB0F41D 
 695      00
 696 1f71 53E82B01 		.ascii	"S\350+\001\321\025>\347\015;\375eE\336\302Q\331\311"
 696      D1153EE7 
 696      0D3BFD65 
 696      45DEC251 
 696      D9C9
 697 1f83 7037246F 		.ascii	"p7$oX\356\330\001\031\025\276\022\205\275\364P\270\364"
 697      58EED801 
 697      1915BE12 
 697      85BDF450 
 697      B8F4
 698 1f95 9101DED1 		.ascii	"\221\001\336\321\025\201ro\370\327\031"
 698      1581726F 
 698      F8D719
 699 1fa0 95A16086 		.ascii	"\225\241`\206/X\372PYy\231\377!\277oT \306\0204uY\030"
 699      2F58FA50 
 699      597999FF 
 699      21BF6F54 
 699      20C61034 
 700 1fb7 4AA454C2 		.ascii	"J\244T\302\025\212\204\007\306\271\273\324\007\344\224"
 700      158A8407 
 700      C6B9BBD4 
 700      07E494
 701 1fc6 F933BC45 		.ascii	"\3713\274E\376b_eI\030U+D$\342\365\252\345\035#r\263"
 701      FE625F65 
 701      4918552B 
 701      4424E2F5 
 701      AAE51D23 
 702 1fdc B23DCEDC 		.ascii	"\262=\316\334\202g\362\262=\256\334\374\274\354\354"
 702      8267F2B2 
 702      3DAEDCFC 
 702      BCECEC
 703 1feb 2C8F23EF 		.ascii	",\217#\357\351\274,\217m\030\204\334,\217\370\027\254"
 703      E9BC2C8F 
 703      6D1884DC 
 703      2C8FF817 
 703      AC
 704 1ffc ADFFA320 		.ascii	"\255\377\243 "
 705 2000 3F5A9024 		.ascii	"?Z\220$m!\177\330QX\342\367\005\305\241\366\301\371"
 705      6D217FD8 
 705      5158E2F7 
 705      05C5A1F6 
 705      C1F9
 706 2012 1E8F7D78 		.ascii	"\036\217}x\346S\036\373\240\034\317p\022\015\265\015"
 706      E6531EFB 
 706      A01CCF70 
 706      120DB50D 
 707 2022 F6783A05 		.ascii	"\366x:\005\312\011\357\201\"\220W(D\222\016\270\370"
 707      CA09EF81 
 707      22905728 
ARM GAS  /tmp/cchgl6UF.s 			page 57


 707      44920EB8 
 707      F8
 708 2033 8A6C85C1 		.ascii	"\212l\205\301\376D\354TC\234\205xI\330s\202\341(g\205"
 708      FE44EC54 
 708      439C8578 
 708      49D87382 
 708      E1286785 
 709 2047 63422F86 		.ascii	"cB/\206TnR\302c\202~\037\324\221Z8\306K\323\003\255"
 709      546E52C2 
 709      63827E1F 
 709      D4915A38 
 709      C64BD303 
 710 205c 61158E21 		.ascii	"a\025\216!\255\340\254\360\226A\357\204KE\320?v(\007"
 710      ADE0ACF0 
 710      9641EF84 
 710      4B45D03F 
 710      762807
 711 206f 046DD841 		.ascii	"\004m\330A\236\021\231#\306\301\235\245\025\201\022"
 711      9E119923 
 711      C6C19DA5 
 711      158112
 712 207e 7F309431 		.ascii	"\1770\2241$3\023nW\311s\205+\202\244]\0217P\356\002"
 712      2433136E 
 712      57C97385 
 712      2B82A45D 
 712      113750EE 
 713 2093 6EC350CD 		.ascii	"n\303P\315\037,\343\217),\017\372\0010\215d{\241\031"
 713      1F2CE38F 
 713      292C0FFA 
 713      01308D64 
 713      7BA119
 714 20a6 0AC3E3FE 		.ascii	"\012\303\343\376=9\024\357\330\337\227\022\311\005\375"
 714      3D3914EF 
 714      D8DF9712 
 714      C905FD
 715 20b5 A3417548 		.ascii	"\243AuHc\366\177\024\302\357!<\006\341\017\266\320\200"
 715      63F67F14 
 715      C2EF213C 
 715      06E10FB6 
 715      D080
 716 20c7 7E10FA43 		.ascii	"~\020\372C\030\000\341\021\010\003!\374\016\002\334"
 716      1800E111 
 716      080321FC 
 716      0E02DC
 717 20d6 3700EE1B 		.ascii	"7\000\356\033\000\367\015\200\373\036\201\373\036\351"
 717      00F70D80 
 717      FB1E81FB 
 717      1EE9
 718 20e4 2F05074A 		.ascii	"/\005\007J\301\337I\301G\245\340\357\245\340cR\360\017"
 718      C1DF49C1 
 718      47A5E0EF 
 718      A5E06352 
 718      F00F
 719 20f6 B660FF7E 		.ascii	"\266`\377~\020\372K%A\270<\342\250\360\002\265.\"\341"
 719      10FA4B25 
 719      41B83CE2 
 719      A8F002B5 
ARM GAS  /tmp/cchgl6UF.s 			page 58


 719      2E22E1
 720 2109 17FC41B8 		.ascii	"\027\374A\270\226\227\024\371\203D\342\276R\177JX\351"
 720      969714F9 
 720      8344E2BE 
 720      527F4A58 
 720      E9
 721 211a 9E2EA25C 		.ascii	"\236.\242\\\217ACR5\203\024\334\211\277\271\302\245"
 721      8F414352 
 721      358314DC 
 721      89BFB9C2 
 721      A5
 722 212b E5457EFC 		.ascii	"\345E~\374N\354_\310\025\016\372\211\255\004\004\222"
 722      4EEC5FC8 
 722      150EFA89 
 722      AD040492 
 723 213b 70948646 		.ascii	"p\224\206F\303\217\212NCq%\345\014\026\275\010?\245"
 723      C38F8A4E 
 723      437125E5 
 723      0C16BD08 
 723      3FA5
 724 214d F8C705C2 		.ascii	"\370\307\005\302 #\277\363\205p\371\250\377\252H\363"
 724      2023BFF3 
 724      8570F9A8 
 724      FFAA48F3 
 725 215d 8F056B58 		.ascii	"\217\005kX\352\013aG~\201$l\025\336\312\316TyB\336\022"
 725      EA0B6147 
 725      7E81246C 
 725      15DECACE 
 725      547942DE 
 726 2172 B017DE70 		.ascii	"\260\027\336p\227\250:\321\234\324\012\357\013\276@"
 726      97A83AD1 
 726      9CD40AEF 
 726      0BBE40
 727 2181 385036BA 		.ascii	"8P6\272\213\232\375|\245\277\022\250\352\312\334\211"
 727      8B9AFD7C 
 727      A5BF12A8 
 727      EACADC89 
 728 2191 599D2ABC 		.ascii	"Y\235*\274P-&\035\230\204\014\177\005\230\014(\354("
 728      502D261D 
 728      98840C7F 
 728      05980C28 
 728      EC28
 729 21a3 AD84F64F 		.ascii	"\255\204\366O8\302h4\2644<\216hR)E\207k\371\013e FD"
 729      38C26834 
 729      B4343C8E 
 729      68522945 
 729      876BF90B 
 730 21bb 02164A51 		.ascii	"\002\026JQq\201>\270\217P\332\211H\305W\202\352\006"
 730      71813EB8 
 730      8F50DA89 
 730      48C55782 
 730      EA06
 731 21cd 9915E5E5 		.ascii	"\231\025\345\345%\277\267T\237\302\014\324\331]\351"
 731      25BFB754 
 731      9FC20CD4 
 731      D95DE9
 732 21dc 5C20657F 		.ascii	"\\ e\177\320_V\010\334:i\326\277\362\214t\231#\362\207"
ARM GAS  /tmp/cchgl6UF.s 			page 59


 732      D05F5608 
 732      DC3A69D6 
 732      BFF28C74 
 732      9923F287 
 733 21f0 E583E9CB 		.ascii	"\345\203\351\313@\013W<\260_\377q\250\302\304\274\026"
 733      400B573C 
 733      B05FFF71 
 733      A8C2C4BC 
 733      16
 734 2201 4007C9F2 		.ascii	"@\007\311\362\027\3332=\375!\014\220\362=\022\230\236"
 734      17DB323D 
 734      FD210C90 
 734      F23D1298 
 734      9E
 735 2212 4C4F669E 		.ascii	"LOf\236\307\351\371+\\=\316\002\274\270\206\015\310"
 735      C7E9F92B 
 735      5C3DCE02 
 735      BCB8860D 
 735      C8
 736 2223 CFCC19E2 		.ascii	"\317\314\031\342q\3005\317c\003;\234c\325\354b\2343"
 736      71C035CF 
 736      63033B9C 
 736      63D5EC62 
 736      9C33
 737 2235 70DC384A 		.ascii	"p\3348J\210\267\250\324G\230\313\0321\310\233\017\252"
 737      88B7A8D4 
 737      4798CB1A 
 737      31C89B0F 
 737      AA
 738 2246 E42B55A9 		.ascii	"\344+U\251\2212=\366\221Y\005\036[\336 \217}D?\022\365"
 738      91323DF6 
 738      9159051E 
 738      5BDE208F 
 738      7D443F12 
 739 225b 1FE4B1E5 		.ascii	"\037\344\261\345\0001!\274\321\036(.\014:\003\2411\201"
 739      003121BC 
 739      D11E282E 
 739      0C3A03A1 
 739      3181
 740 226d E2706AC8 		.ascii	"\342pj\310_R\034(+\362\217s\216\205\361\262<\330=\212"
 740      5F521C28 
 740      2BF28F73 
 740      8E85F1B2 
 740      3CD83D8A 
 741 2281 EEA57783 		.ascii	"\356\245w\203\201\205/\301q$\016\217K\015\216\203+\321"
 741      81852FC1 
 741      71240E8F 
 741      4B0D8E83 
 741      2BD1
 742 2293 E4D4B09A 		.ascii	"\344\324\260\232\262\003;\025\216\222Pa\361h\307\030"
 742      B2033B15 
 742      8E925061 
 742      F168C718 
 743 22a3 12A704CA 		.ascii	"\022\247\004\312\251\256;\274\203\241\341\022*\312X"
 743      A9AE3BBC 
 743      83A1E112 
 743      2ACA58
ARM GAS  /tmp/cchgl6UF.s 			page 60


 744 22b2 1F347365 		.ascii	"\0374se\010~\200\366.\013\023W\304ZcSJIc\367\030\014"
 744      087E80F6 
 744      2E0B1357 
 744      C45A6353 
 744      4A4963F7 
 745 22c8 A37FBE1F 		.ascii	"\243\177\276\037\224\254,\034\360\225P\311\334m\224"
 745      94AC2C1C 
 745      F09550C9 
 745      DC6D94
 746 22d7 F9E71105 		.ascii	"\371\347\021\005\003p\344)\011\214\312\030]X\250\033"
 746      0370E429 
 746      098CCA18 
 746      5D58A81B 
 747 22e7 81063EFC 		.ascii	"\201\006>\374\330\303\003\331Q\013F ba\211\373\001\214"
 747      D8C303D9 
 747      510B4620 
 747      626189FB 
 747      018C
 748 22f9 BD100C84 		.ascii	"\275\020\014\204\375v\242D\266\212\312\260m\264?l\033"
 748      FD76A244 
 748      B68ACAB0 
 748      6DB43F6C 
 748      1B
 749 230a 5B1A4E51 		.ascii	"[\032NQ9\260A\302V\\\032\356\034*\002\217\"\024(\255"
 749      39B041C2 
 749      565C1AEE 
 749      1C2A028F 
 749      221428AD 
 750 231e 28F13F5C 		.ascii	"(\361?\\\210>\005u\002\322\243)\240#-\020\362\022\177"
 750      883E0575 
 750      02D2A329 
 750      A0232D10 
 750      F2127F
 751 2331 2518F617 		.ascii	"%\030\366\027\245C\272\"X\036\206\306\360\027\021K["
 751      A543BA22 
 751      581E86C6 
 751      F017114B 
 751      5B
 752 2342 06A94E45 		.ascii	"\006\251NE\201\220\222\264\207^,+\374\243\025\027\002"
 752      819092B4 
 752      875E2C2B 
 752      FCA31517 
 752      02
 753 2353 D2DE40F9 		.ascii	"\322\336@\371\250\222\362\302\347\200\201.\203I\"\313"
 753      A892F2C2 
 753      E780812E 
 753      834922CB 
 754 2363 3F3650E8 		.ascii	"?6P\350\037VV\\\2362\252\3449/\372T$QVY\232\002\274"
 754      1F56565C 
 754      9E32AAE4 
 754      392FFA54 
 754      24515659 
 755 237a 0035C5E5 		.ascii	"\0005\305\345\235 Cu:\006\017\177Ju:H\2228\035\230G"
 755      9D204375 
 755      3A060F7F 
 755      4A753A48 
 755      92381D98 
ARM GAS  /tmp/cchgl6UF.s 			page 61


 756 238f 5D8DCE24 		.ascii	"]\215\316$\231\231;rd6|\0359\244\033\371\2325,?\226"
 756      99993B72 
 756      64367C1D 
 756      39A41BF9 
 756      9A352C3F 
 757 23a4 934A72D0 		.ascii	"\223Jr\320AISS\220\213\351\277x\206\025\250\351\374"
 757      41495353 
 757      908BE9BF 
 757      788615A8 
 757      E9FC
 758 23b6 67466642 		.ascii	"gFfB\332V\030\200\3615T\224R\350\253\360\025\006\302"
 758      DA561880 
 758      F1355494 
 758      52E8ABF0 
 758      1506C2
 759 23c9 2F7641E2 		.ascii	"/vA\342\275\276\242\242\240?\024\362\207\356\014\025"
 759      BDBEA2A2 
 759      A03F14F2 
 759      87EE0C15 
 760 23d9 79414C85 		.ascii	"yAL\205\276`QTnv\220sQO\372\0036NL\212Nj\210S\320\246"
 760      BE605154 
 760      6E769073 
 760      514FFA03 
 760      364E4C8A 
 761 23f3 4242D328 		.ascii	"BB\323(`\223\360+\264)^\2112\027\271\212a\030\204\361"
 761      6093F02B 
 761      B4295E89 
 761      3217B98A 
 761      611884F1 
 762 2407 3905323C 		.ascii	"9\0052<\320\306/\202W\213\327\337Y\362\335\374A\320"
 762      D0C62F82 
 762      578BD7DF 
 762      59F2DDFC 
 762      41D0
 763 2419 36E21CE5 		.ascii	"6\342\034\345c\212\266w\027\366\0134~*\361\003\002\245"
 763      638AB677 
 763      17F60B34 
 763      7E2AF103 
 763      02A5
 764 242b 20653B68 		.ascii	" e;hR\330\016\342\017;\221\203\260\203\350W8\241\377"
 764      52D80EE2 
 764      0F3B9183 
 764      B083E857 
 764      38A1FF
 765 243e AAE90A38 		.ascii	"\252\351\0128.\220\236\320\031S\336Pye\220\230\274t"
 765      2E909ED0 
 765      1953DE50 
 765      79659098 
 765      BC74
 766 2450 F66B57FA 		.ascii	"\366kW\372\205\030Z?Xa\020\2116\303\345/A{\234\006W"
 766      85185A3F 
 766      58611089 
 766      36C3E52F 
 766      417B9C06 
 767 2465 352F15D2 		.ascii	"5/\025\322\024\234B\341 \006R\205lL\222\337_\240#\233"
 767      149C42E1 
 767      20065285 
ARM GAS  /tmp/cchgl6UF.s 			page 62


 767      6C4C92DF 
 767      5FA0239B 
 768 2479 3F84A51D 		.ascii	"?\204\245\035x_j\250H\321\242\324\374,E\211\\\220\""
 768      785F6AA8 
 768      48D1A2D4 
 768      FC2C4589 
 768      5C9022
 769 248c 3A940257 		.ascii	":\224\002WT\013k<\342\020Bx\274#P\0062S\3070\360\325"
 769      540B6B3C 
 769      E2104278 
 769      BC235006 
 769      3253C730 
 770 24a2 D4648A9A 		.ascii	"\324d\212\232L}^\035\361 UX^\011\216K0\345y\357\250"
 770      4C7D5E1D 
 770      F1205558 
 770      5E098E4B 
 770      30E579EF 
 771 24b7 CA62180C 		.ascii	"\312b\030\014\034\317{\303\345\025.\270%X\021\016\302"
 771      1CCF7BC3 
 771      E5152EB8 
 771      2558110E 
 771      C2
 772 24c8 355804D7 		.ascii	"5X\004\327\324\347\313\312\303\201\342\027\001\345y"
 772      D4E7CBCA 
 772      C381E217 
 772      01E579
 773 24d7 2F4D3A9F 		.ascii	"/M:\237\0071\224=\347\014 f\347\362\3120S\255\263\034"
 773      0731943D 
 773      E70C2066 
 773      E7F2CA30 
 773      53ADB31C 
 774 24eb 13526094 		.ascii	"\023R`\224T>\352\216\247\363\007y\012\230\201\341\021"
 774      543EEA8E 
 774      A7F30779 
 774      0A9881E1 
 774      11
 775 24fc FB90823C 		.ascii	"\373\220\202<\217\2432\344\013\206\273\240\206\015+"
 775      8FA332E4 
 775      0B86BBA0 
 775      860D2B
 776 250b 0B102B04 		.ascii	"\013\020+\004]N\012\025\331JK\212\244PEW\362\313\020"
 776      5D4E0A15 
 776      D94A4B8A 
 776      A4504557 
 776      F2CB10
 777 251e 7F386A15 		.ascii	"\1778j\025:\341\255\220\223\223O\3255'\177\004R_d\311"
 777      3AE1AD90 
 777      93934FD5 
 777      35277F04 
 777      525F64C9 
 778 2532 68F982A3 		.ascii	"h\371\202\243\211\206\217\365a3v\366zG\227U\026z\225"
 778      89868FF5 
 778      613376F6 
 778      7A479755 
 778      167A95
 779 2545 AF69FF36 		.ascii	"\257i\3776\2522P\022~(P\366\270\000\016\207\222\013"
 779      AA325012 
ARM GAS  /tmp/cchgl6UF.s 			page 63


 779      7E2850F6 
 779      B8000E87 
 779      920B
 780 2557 2EE8586A 		.ascii	".\350Xj\304\356\200j\263\242\206\307\225\343\311\316"
 780      C4EE806A 
 780      B3A286C7 
 780      95E3C9CE 
 781 2567 7F7A7881 		.ascii	"\177zx\201#\307\343\315}*\015b\350\342Oy\263\301G\206"
 781      23C7E3CD 
 781      7D2A0D62 
 781      E8E24F79 
 781      B3C14786 
 782 257b F4B09105 		.ascii	"\364\260\221\005$\231\016\311\221\271\005\312d\004\277"
 782      24990EC9 
 782      91B905CA 
 782      6404BF
 783 258a 7873860D 		.ascii	"xs\206\015\317V\222y\203\012\206v\301\273\377<h\370"
 783      CF569279 
 783      830A8676 
 783      C1BBFF3C 
 783      68F8
 784 259c B02CEFC8 		.ascii	"\260,\357\310A#\262S\011R\366\310a\331Y)\220\312\376"
 784      4123B253 
 784      0952F6C8 
 784      61D95929 
 784      90CAFE
 785 25af EBB0FC82 		.ascii	"\353\260\374\202n\314-\271\203\377\0046\244;\344\020"
 785      6ECC2DB9 
 785      83FF0436 
 785      A43BE410 
 786 25bf 4B91EDCD 		.ascii	"K\221\355\315\363\344\026@FvVW\346\246,\017\261BJ\335"
 786      F3E41640 
 786      46765657 
 786      E6A62C0F 
 786      B1424ADD 
 787 25d3 D923070D 		.ascii	"\331#\007\015\036N\177Wj\317\177&\277 {\004\251x\304"
 787      1E4E7F57 
 787      6ACF7F26 
 787      BF207B04 
 787      A978C4
 788 25e6 5339F9DE 		.ascii	"S9\371\336A\203s=\000@h*\0306\";\367\351\002B\303\360"
 788      4183733D 
 788      0040682A 
 788      1836223B 
 788      F7E90242 
 789 25fc DCCCA7B2 		.ascii	"\334\314\247\262\263\272GAr\237\0362\024\214\232'\373"
 789      B3BA4741 
 789      729F1E32 
 789      148C9A27 
 789      FB
 790 260d 2E725F6E 		.ascii	".r_n\256w\304\240\221\317xs\363\262GR\314\036L\3750"
 790      AE77C4A0 
 790      91CF7873 
 790      F3B24752 
 790      CC1E4CFD 
 791 2622 D2022705 		.ascii	"\322\002'\005\331\036GA\346\320A\036W\261\267\2244V"
 791      D91E4741 
ARM GAS  /tmp/cchgl6UF.s 			page 64


 791      E6D0411E 
 791      57B1B794 
 791      3456
 792 2634 271060A6 		.ascii	"'\020`\246b\301\013\307\024\214)\312/\361\373+\210Q"
 792      62C10BC7 
 792      148C29CA 
 792      2FF1FB2B 
 792      8851
 793 2646 C90F833A 		.ascii	"\311\017\203:\020\371\346\216\372/\370\225\250D:\235"
 793      10F9E68E 
 793      FA2FF895 
 793      A8443A9D 
 794 2656 695097AE 		.ascii	"iP\227\256\247W\231Zya\2162:X^YA\006T)'\337I a\234%"
 794      A757995A 
 794      79618E32 
 794      3A585E59 
 794      41065429 
 795 2671 B3C9FE30 		.ascii	"\263\311\3760\346f\342\230\013q'jm\362\000B\312\317"
 795      E666E298 
 795      0B71276A 
 795      6DF20042 
 795      CACF
 796 2683 FA7F2789 		.ascii	"\372\177'\211\340\230"
 796      E098
 797              		.text
 798              		.section	.gnu.lto_.symtab.81b0c5be25e1dd64,"",%progbits
 799 0000 73645F69 		.ascii	"sd_is_card_inserted\000\000\000\000\000\000\000\000"
 799      735F6361 
 799      72645F69 
 799      6E736572 
 799      74656400 
 800 001b 00000000 		.ascii	"\000\000\000\000\227\002\000\000sd_is_write_protect"
 800      97020000 
 800      73645F69 
 800      735F7772 
 800      6974655F 
 801 0036 65640000 		.ascii	"ed\000\000\000\000\000\000\000\000\000\000\000\000\372"
 801      00000000 
 801      00000000 
 801      0000FA
 802 0045 02000073 		.ascii	"\002\000\000sdmmcInitialize\000\000\000\000\000\000"
 802      646D6D63 
 802      496E6974 
 802      69616C69 
 802      7A650000 
 803 005d 00000000 		.ascii	"\000\000\000\000\000\000\376\002\000\000sdmmGetMMCD"
 803      0000FE02 
 803      00007364 
 803      6D6D4765 
 803      744D4D43 
 804 0072 72697665 		.ascii	"river\000\000\000\000\000\000\000\000\000\000\000\000"
 804      72000000 
 804      00000000 
 804      00000000 
 804      00
 805 0083 B8030000 		.ascii	"\270\003\000\000sdmmcGetFS\000\000\000\000\000\000\000"
 805      73646D6D 
ARM GAS  /tmp/cchgl6UF.s 			page 65


 805      63476574 
 805      46530000 
 805      00000000 
 806 0098 00000000 		.ascii	"\000\000\000\000\000\276\003\000\000sdmmcFSMounted\000"
 806      00BE0300 
 806      0073646D 
 806      6D634653 
 806      4D6F756E 
 807 00b0 00000000 		.ascii	"\000\000\000\000\000\000\000\000\000\000\000\304\003"
 807      00000000 
 807      000000C4 
 807      03
 808 00bd 00005350 		.ascii	"\000\000SPID1\000\000\002\000\000\000\000\000\000\000"
 808      49443100 
 808      00020000 
 808      00000000 
 808      00
 809 00ce 00003204 		.ascii	"\000\0002\004\000\000chvprintf\000\000\002\000\000\000"
 809      00006368 
 809      76707269 
 809      6E746600 
 809      00020000 
 810 00e3 00000000 		.ascii	"\000\000\000\000\000\000\313\003\000\000mmcDisconne"
 810      0000CB03 
 810      00006D6D 
 810      63446973 
 810      636F6E6E 
 811 00f8 63740000 		.ascii	"ct\000\000\002\000\000\000\000\000\000\000\000\000\332"
 811      02000000 
 811      00000000 
 811      0000DA
 812 0107 03000066 		.ascii	"\003\000\000f_mount\000\000\002\000\000\000\000\000"
 812      5F6D6F75 
 812      6E740000 
 812      02000000 
 812      0000
 813 0119 00000000 		.ascii	"\000\000\000\000\334\003\000\000mmcConnect\000\000\002"
 813      DC030000 
 813      6D6D6343 
 813      6F6E6E65 
 813      63740000 
 814 012e 00000000 		.ascii	"\000\000\000\000\000\000\000\000\000\024\004\000\000"
 814      00000000 
 814      00140400 
 814      00
 815 013b 63685468 		.ascii	"chThdSleep\000\000\002\000\000\000\000\000\000\000\000"
 815      64536C65 
 815      65700000 
 815      02000000 
 815      00000000 
 816 0150 00160400 		.ascii	"\000\026\004\000\000mmcStart\000\000\002\000\000\000"
 816      006D6D63 
 816      53746172 
 816      74000002 
 816      000000
 817 0163 00000000 		.ascii	"\000\000\000\000\000\000\032\004\000\000mmcObjectIn"
 817      00001A04 
ARM GAS  /tmp/cchgl6UF.s 			page 66


 817      00006D6D 
 817      634F626A 
 817      65637449 
 818 0178 69740000 		.ascii	"it\000\000\002\000\000\000\000\000\000\000\000\000\037"
 818      02000000 
 818      00000000 
 818      00001F
 819 0187 0400005F 		.ascii	"\004\000\000_pal_lld_setgroupmode\000\000\002\000\000"
 819      70616C5F 
 819      6C6C645F 
 819      73657467 
 819      726F7570 
 820 01a4 00000000 		.ascii	"\000\000\000\000\000\000\000#\004\000\000"
 820      00000023 
 820      040000
 821              		.text
 822              		.section	.gnu.lto_.opts,"",%progbits
 823 0000 272D6D63 		.ascii	"'-mcpu=cortex-m4' '-mfloat-abi=hard' '-mfpu=fpv4-sp"
 823      70753D63 
 823      6F727465 
 823      782D6D34 
 823      2720272D 
 824 0033 2D643136 		.ascii	"-d16' '-mno-thumb-interwork' '-mthumb' '-O2' '-fomi"
 824      2720272D 
 824      6D6E6F2D 
 824      7468756D 
 824      622D696E 
 825 0066 742D6672 		.ascii	"t-frame-pointer' '-falign-functions=16' '-ffunction"
 825      616D652D 
 825      706F696E 
 825      74657227 
 825      20272D66 
 826 0099 2D736563 		.ascii	"-sections' '-fdata-sections' '-fno-common' '-flto' "
 826      74696F6E 
 826      73272027 
 826      2D666461 
 826      74612D73 
 827 00cc 272D6673 		.ascii	"'-fsingle-precision-constant'\000"
 827      696E676C 
 827      652D7072 
 827      65636973 
 827      696F6E2D 
 828              		.text
 829              		.section	.text.chprintf,"ax",%progbits
 830              		.align	2
 831              		.p2align 4,,15
 832              		.thumb
 833              		.thumb_func
 834              		.type	chprintf, %function
 835              	chprintf:
 836              		@ args = 4, pretend = 12, frame = 8
 837              		@ frame_needed = 0, uses_anonymous_args = 1
 838 0000 0EB4     		push	{r1, r2, r3}
 839 0002 00B5     		push	{lr}
 840 0004 82B0     		sub	sp, sp, #8
 841 0006 03AA     		add	r2, sp, #12
 842 0008 52F8041B 		ldr	r1, [r2], #4
ARM GAS  /tmp/cchgl6UF.s 			page 67


 843 000c 0192     		str	r2, [sp, #4]
 844 000e FFF7FEFF 		bl	chvprintf
 845 0012 02B0     		add	sp, sp, #8
 846              		@ sp needed
 847 0014 5DF804EB 		ldr	lr, [sp], #4
 848 0018 03B0     		add	sp, sp, #12
 849 001a 7047     		bx	lr
 850              		.size	chprintf, .-chprintf
 851 001c AFF30080 		.section	.text.sd_is_card_inserted,"ax",%progbits
 852              		.align	2
 853              		.p2align 4,,15
 854              		.global	sd_is_card_inserted
 855              		.thumb
 856              		.thumb_func
 857              		.type	sd_is_card_inserted, %function
 858              	sd_is_card_inserted:
 859              		@ args = 0, pretend = 0, frame = 0
 860              		@ frame_needed = 0, uses_anonymous_args = 0
 861              		@ link register save eliminated.
 862 0000 024B     		ldr	r3, .L3
 863 0002 1869     		ldr	r0, [r3, #16]
 864 0004 C0F3C010 		ubfx	r0, r0, #7, #1
 865 0008 7047     		bx	lr
 866              	.L4:
 867 000a 00BF     		.align	2
 868              	.L3:
 869 000c 00080240 		.word	1073874944
 870              		.size	sd_is_card_inserted, .-sd_is_card_inserted
 871              		.section	.text.sd_is_write_protected,"ax",%progbits
 872              		.align	2
 873              		.p2align 4,,15
 874              		.global	sd_is_write_protected
 875              		.thumb
 876              		.thumb_func
 877              		.type	sd_is_write_protected, %function
 878              	sd_is_write_protected:
 879              		@ args = 0, pretend = 0, frame = 0
 880              		@ frame_needed = 0, uses_anonymous_args = 0
 881              		@ link register save eliminated.
 882 0000 024B     		ldr	r3, .L6
 883 0002 1869     		ldr	r0, [r3, #16]
 884 0004 C0F34020 		ubfx	r0, r0, #9, #1
 885 0008 7047     		bx	lr
 886              	.L7:
 887 000a 00BF     		.align	2
 888              	.L6:
 889 000c 00000240 		.word	1073872896
 890              		.size	sd_is_write_protected, .-sd_is_write_protected
 891              		.section	.text.sdmmcInitialize,"ax",%progbits
 892              		.align	2
 893              		.p2align 4,,15
 894              		.global	sdmmcInitialize
 895              		.thumb
 896              		.thumb_func
 897              		.type	sdmmcInitialize, %function
 898              	sdmmcInitialize:
 899              		@ args = 0, pretend = 0, frame = 0
ARM GAS  /tmp/cchgl6UF.s 			page 68


 900              		@ frame_needed = 0, uses_anonymous_args = 0
 901 0000 F8B5     		push	{r3, r4, r5, r6, r7, lr}
 902 0002 0446     		mov	r4, r0
 903 0004 354D     		ldr	r5, .L22
 904 0006 364F     		ldr	r7, .L22+4
 905 0008 DFF804E1 		ldr	lr, .L22+52
 906 000c 3548     		ldr	r0, .L22+8
 907 000e 364E     		ldr	r6, .L22+12
 908 0010 2160     		str	r1, [r4]
 909 0012 0023     		movs	r3, #0
 910 0014 A360     		str	r3, [r4, #8]
 911 0016 6373     		strb	r3, [r4, #13]
 912 0018 6060     		str	r0, [r4, #4]
 913 001a 2A60     		str	r2, [r5]
 914 001c 3846     		mov	r0, r7
 915 001e 4021     		movs	r1, #64
 916 0020 1922     		movs	r2, #25
 917 0022 CEF80040 		str	r4, [lr]
 918 0026 FFF7FEFF 		bl	_pal_lld_setgroupmode
 919 002a 3046     		mov	r0, r6
 920 002c 8021     		movs	r1, #128
 921 002e 2022     		movs	r2, #32
 922 0030 FFF7FEFF 		bl	_pal_lld_setgroupmode
 923 0034 2D48     		ldr	r0, .L22+16
 924 0036 2021     		movs	r1, #32
 925 0038 40F29A22 		movw	r2, #666
 926 003c FFF7FEFF 		bl	_pal_lld_setgroupmode
 927 0040 2A48     		ldr	r0, .L22+16
 928 0042 8021     		movs	r1, #128
 929 0044 40F29A22 		movw	r2, #666
 930 0048 FFF7FEFF 		bl	_pal_lld_setgroupmode
 931 004c 4021     		movs	r1, #64
 932 004e 40F29A22 		movw	r2, #666
 933 0052 2648     		ldr	r0, .L22+16
 934 0054 FFF7FEFF 		bl	_pal_lld_setgroupmode
 935 0058 2068     		ldr	r0, [r4]
 936 005a FFF7FEFF 		bl	mmcObjectInit
 937 005e 2068     		ldr	r0, [r4]
 938 0060 2349     		ldr	r1, .L22+20
 939 0062 FFF7FEFF 		bl	mmcStart
 940 0066 3369     		ldr	r3, [r6, #16]
 941 0068 1B06     		lsls	r3, r3, #24
 942 006a 1FD5     		bpl	.L19
 943 006c 2149     		ldr	r1, .L22+24
 944 006e 2868     		ldr	r0, [r5]
 945 0070 FFF7FEFF 		bl	chprintf
 946 0074 4023     		movs	r3, #64
 947 0076 7B83     		strh	r3, [r7, #26]	@ movhi
 948 0078 4FF4FA60 		mov	r0, #2000
 949 007c FFF7FEFF 		bl	chThdSleep
 950 0080 2068     		ldr	r0, [r4]
 951 0082 FFF7FEFF 		bl	mmcConnect
 952 0086 0746     		mov	r7, r0
 953 0088 B8B9     		cbnz	r0, .L20
 954 008a 1B48     		ldr	r0, .L22+28
 955 008c A060     		str	r0, [r4, #8]
 956 008e 1B49     		ldr	r1, .L22+32
ARM GAS  /tmp/cchgl6UF.s 			page 69


 957 0090 3A46     		mov	r2, r7
 958 0092 FFF7FEFF 		bl	f_mount
 959 0096 0646     		mov	r6, r0
 960 0098 2868     		ldr	r0, [r5]
 961 009a B6B9     		cbnz	r6, .L21
 962 009c 1849     		ldr	r1, .L22+36
 963 009e FFF7FEFF 		bl	chprintf
 964 00a2 0123     		movs	r3, #1
 965 00a4 3046     		mov	r0, r6
 966 00a6 6373     		strb	r3, [r4, #13]
 967              	.L11:
 968 00a8 40B2     		sxtb	r0, r0
 969 00aa F8BD     		pop	{r3, r4, r5, r6, r7, pc}
 970              	.L19:
 971 00ac 2868     		ldr	r0, [r5]
 972 00ae 1549     		ldr	r1, .L22+40
 973 00b0 FFF7FEFF 		bl	chprintf
 974 00b4 FD20     		movs	r0, #253
 975 00b6 40B2     		sxtb	r0, r0
 976 00b8 F8BD     		pop	{r3, r4, r5, r6, r7, pc}
 977              	.L20:
 978 00ba 2868     		ldr	r0, [r5]
 979 00bc 1249     		ldr	r1, .L22+44
 980 00be 0122     		movs	r2, #1
 981 00c0 FFF7FEFF 		bl	chprintf
 982 00c4 0120     		movs	r0, #1
 983 00c6 40B2     		sxtb	r0, r0
 984 00c8 F8BD     		pop	{r3, r4, r5, r6, r7, pc}
 985              	.L21:
 986 00ca 1049     		ldr	r1, .L22+48
 987 00cc FFF7FEFF 		bl	chprintf
 988 00d0 2068     		ldr	r0, [r4]
 989 00d2 FFF7FEFF 		bl	mmcDisconnect
 990 00d6 A760     		str	r7, [r4, #8]
 991 00d8 FE20     		movs	r0, #254
 992 00da E5E7     		b	.L11
 993              	.L23:
 994              		.align	2
 995              	.L22:
 996 00dc 00000000 		.word	.LANCHOR0
 997 00e0 00040240 		.word	1073873920
 998 00e4 00000000 		.word	SPID1
 999 00e8 00080240 		.word	1073874944
 1000 00ec 00000240 		.word	1073872896
 1001 00f0 00000000 		.word	.LANCHOR2
 1002 00f4 7C000000 		.word	.LC5
 1003 00f8 00000000 		.word	.LANCHOR3
 1004 00fc 20000000 		.word	.LC1
 1005 0100 44000000 		.word	.LC3
 1006 0104 60000000 		.word	.LC4
 1007 0108 00000000 		.word	.LC0
 1008 010c 24000000 		.word	.LC2
 1009 0110 00000000 		.word	.LANCHOR1
 1010              		.size	sdmmcInitialize, .-sdmmcInitialize
 1011 0114 AFF30080 		.section	.text.sdmmGetMMCDriver,"ax",%progbits
 1011      AFF30080 
 1011      AFF30080 
ARM GAS  /tmp/cchgl6UF.s 			page 70


 1012              		.align	2
 1013              		.p2align 4,,15
 1014              		.global	sdmmGetMMCDriver
 1015              		.thumb
 1016              		.thumb_func
 1017              		.type	sdmmGetMMCDriver, %function
 1018              	sdmmGetMMCDriver:
 1019              		@ args = 0, pretend = 0, frame = 0
 1020              		@ frame_needed = 0, uses_anonymous_args = 0
 1021              		@ link register save eliminated.
 1022 0000 037B     		ldrb	r3, [r0, #12]	@ zero_extendqisi2
 1023 0002 0BB1     		cbz	r3, .L26
 1024 0004 0068     		ldr	r0, [r0]
 1025 0006 7047     		bx	lr
 1026              	.L26:
 1027 0008 1846     		mov	r0, r3
 1028 000a 7047     		bx	lr
 1029              		.size	sdmmGetMMCDriver, .-sdmmGetMMCDriver
 1030 000c AFF30080 		.section	.text.sdmmcGetFS,"ax",%progbits
 1031              		.align	2
 1032              		.p2align 4,,15
 1033              		.global	sdmmcGetFS
 1034              		.thumb
 1035              		.thumb_func
 1036              		.type	sdmmcGetFS, %function
 1037              	sdmmcGetFS:
 1038              		@ args = 0, pretend = 0, frame = 0
 1039              		@ frame_needed = 0, uses_anonymous_args = 0
 1040              		@ link register save eliminated.
 1041 0000 437B     		ldrb	r3, [r0, #13]	@ zero_extendqisi2
 1042 0002 0BB1     		cbz	r3, .L29
 1043 0004 8068     		ldr	r0, [r0, #8]
 1044 0006 7047     		bx	lr
 1045              	.L29:
 1046 0008 1846     		mov	r0, r3
 1047 000a 7047     		bx	lr
 1048              		.size	sdmmcGetFS, .-sdmmcGetFS
 1049 000c AFF30080 		.section	.text.sdmmcFSMounted,"ax",%progbits
 1050              		.align	2
 1051              		.p2align 4,,15
 1052              		.global	sdmmcFSMounted
 1053              		.thumb
 1054              		.thumb_func
 1055              		.type	sdmmcFSMounted, %function
 1056              	sdmmcFSMounted:
 1057              		@ args = 0, pretend = 0, frame = 0
 1058              		@ frame_needed = 0, uses_anonymous_args = 0
 1059              		@ link register save eliminated.
 1060 0000 407B     		ldrb	r0, [r0, #13]	@ zero_extendqisi2
 1061 0002 7047     		bx	lr
 1062              		.size	sdmmcFSMounted, .-sdmmcFSMounted
 1063 0004 AFF30080 		.section	.data.hsCfg,"aw",%progbits
 1063      AFF30080 
 1063      AFF30080 
 1064              		.align	2
 1065              		.type	hsCfg, %object
 1066              		.size	hsCfg, 12
ARM GAS  /tmp/cchgl6UF.s 			page 71


 1067              	hsCfg:
 1068 0000 00000000 		.word	0
 1069 0004 00040240 		.word	1073873920
 1070 0008 0600     		.short	6
 1071 000a 0000     		.short	0
 1072              		.section	.data.mmcCfg,"aw",%progbits
 1073              		.align	2
 1074              		.set	.LANCHOR2,. + 0
 1075              		.type	mmcCfg, %object
 1076              		.size	mmcCfg, 12
 1077              	mmcCfg:
 1078 0000 00000000 		.word	SPID1
 1079 0004 00000000 		.word	lsCfg
 1080 0008 00000000 		.word	hsCfg
 1081              		.section	.bss.serialPort,"aw",%nobits
 1082              		.align	2
 1083              		.set	.LANCHOR0,. + 0
 1084              		.type	serialPort, %object
 1085              		.size	serialPort, 4
 1086              	serialPort:
 1087 0000 00000000 		.space	4
 1088              		.section	.bss.SD,"aw",%nobits
 1089              		.align	2
 1090              		.set	.LANCHOR1,. + 0
 1091              		.type	SD, %object
 1092              		.size	SD, 4
 1093              	SD:
 1094 0000 00000000 		.space	4
 1095              		.section	.rodata.str1.4,"aMS",%progbits,1
 1096              		.align	2
 1097              	.LC0:
 1098 0000 53442F4D 		.ascii	"SD/MMC:ERROR Connect,ERR%02d\012\000"
 1098      4D433A45 
 1098      52524F52 
 1098      20436F6E 
 1098      6E656374 
 1099 001e 0000     		.space	2
 1100              	.LC1:
 1101 0020 2F00     		.ascii	"/\000"
 1102 0022 0000     		.space	2
 1103              	.LC2:
 1104 0024 53442F4D 		.ascii	"SD/MMC:File System Mount Error\012\000"
 1104      4D433A46 
 1104      696C6520 
 1104      53797374 
 1104      656D204D 
 1105              	.LC3:
 1106 0044 53442F4D 		.ascii	"SD/MMC:File System Mounted\012\000"
 1106      4D433A46 
 1106      696C6520 
 1106      53797374 
 1106      656D204D 
 1107              	.LC4:
 1108 0060 53442F4D 		.ascii	"SD/MMC:No SD Card Found\012\000"
 1108      4D433A4E 
 1108      6F205344 
 1108      20436172 
ARM GAS  /tmp/cchgl6UF.s 			page 72


 1108      6420466F 
 1109 0079 000000   		.space	3
 1110              	.LC5:
 1111 007c 53442F4D 		.ascii	"SD/MMC:Card Found\012\000"
 1111      4D433A43 
 1111      61726420 
 1111      466F756E 
 1111      640A00
 1112 008f 00       		.section	.data.lsCfg,"aw",%progbits
 1113              		.align	2
 1114              		.type	lsCfg, %object
 1115              		.size	lsCfg, 12
 1116              	lsCfg:
 1117 0000 00000000 		.word	0
 1118 0004 00040240 		.word	1073873920
 1119 0008 0600     		.short	6
 1120 000a 3000     		.short	48
 1121              		.section	.bss.FS,"aw",%nobits
 1122              		.align	2
 1123              		.set	.LANCHOR3,. + 0
 1124              		.type	FS, %object
 1125              		.size	FS, 560
 1126              	FS:
 1127 0000 00000000 		.space	560
 1127      00000000 
 1127      00000000 
 1127      00000000 
 1127      00000000 
 1128              		.comm	__gnu_lto_v1,1,1
 1129              		.ident	"GCC: (GNU Tools for ARM Embedded Processors) 4.8.4 20140526 (release) [ARM/embedded-4_8-br
ARM GAS  /tmp/cchgl6UF.s 			page 73


DEFINED SYMBOLS
                            *ABS*:0000000000000000 sdmmcsimple.c
     /tmp/cchgl6UF.s:830    .text.chprintf:0000000000000000 $t
     /tmp/cchgl6UF.s:835    .text.chprintf:0000000000000000 chprintf
     /tmp/cchgl6UF.s:852    .text.sd_is_card_inserted:0000000000000000 $t
     /tmp/cchgl6UF.s:858    .text.sd_is_card_inserted:0000000000000000 sd_is_card_inserted
     /tmp/cchgl6UF.s:869    .text.sd_is_card_inserted:000000000000000c $d
     /tmp/cchgl6UF.s:872    .text.sd_is_write_protected:0000000000000000 $t
     /tmp/cchgl6UF.s:878    .text.sd_is_write_protected:0000000000000000 sd_is_write_protected
     /tmp/cchgl6UF.s:889    .text.sd_is_write_protected:000000000000000c $d
     /tmp/cchgl6UF.s:892    .text.sdmmcInitialize:0000000000000000 $t
     /tmp/cchgl6UF.s:898    .text.sdmmcInitialize:0000000000000000 sdmmcInitialize
     /tmp/cchgl6UF.s:996    .text.sdmmcInitialize:00000000000000dc $d
     /tmp/cchgl6UF.s:1012   .text.sdmmGetMMCDriver:0000000000000000 $t
     /tmp/cchgl6UF.s:1018   .text.sdmmGetMMCDriver:0000000000000000 sdmmGetMMCDriver
     /tmp/cchgl6UF.s:1031   .text.sdmmcGetFS:0000000000000000 $t
     /tmp/cchgl6UF.s:1037   .text.sdmmcGetFS:0000000000000000 sdmmcGetFS
     /tmp/cchgl6UF.s:1050   .text.sdmmcFSMounted:0000000000000000 $t
     /tmp/cchgl6UF.s:1056   .text.sdmmcFSMounted:0000000000000000 sdmmcFSMounted
     /tmp/cchgl6UF.s:1064   .data.hsCfg:0000000000000000 $d
     /tmp/cchgl6UF.s:1067   .data.hsCfg:0000000000000000 hsCfg
     /tmp/cchgl6UF.s:1073   .data.mmcCfg:0000000000000000 $d
     /tmp/cchgl6UF.s:1077   .data.mmcCfg:0000000000000000 mmcCfg
     /tmp/cchgl6UF.s:1116   .data.lsCfg:0000000000000000 lsCfg
     /tmp/cchgl6UF.s:1082   .bss.serialPort:0000000000000000 $d
     /tmp/cchgl6UF.s:1086   .bss.serialPort:0000000000000000 serialPort
     /tmp/cchgl6UF.s:1089   .bss.SD:0000000000000000 $d
     /tmp/cchgl6UF.s:1093   .bss.SD:0000000000000000 SD
     /tmp/cchgl6UF.s:1096   .rodata.str1.4:0000000000000000 $d
     /tmp/cchgl6UF.s:1113   .data.lsCfg:0000000000000000 $d
     /tmp/cchgl6UF.s:1122   .bss.FS:0000000000000000 $d
     /tmp/cchgl6UF.s:1126   .bss.FS:0000000000000000 FS
                            *COM*:0000000000000001 __gnu_lto_v1
     /tmp/cchgl6UF.s:1011   .text.sdmmcInitialize:0000000000000114 $t

UNDEFINED SYMBOLS
chvprintf
_pal_lld_setgroupmode
mmcObjectInit
mmcStart
chThdSleep
mmcConnect
f_mount
mmcDisconnect
SPID1
