ARM GAS  /tmp/ccvaPxlS.s 			page 1


   1              		.syntax unified
   2              		.cpu cortex-m3
   3              		.fpu softvfp
   4              		.eabi_attribute 20, 1
   5              		.eabi_attribute 21, 1
   6              		.eabi_attribute 23, 3
   7              		.eabi_attribute 24, 1
   8              		.eabi_attribute 25, 1
   9              		.eabi_attribute 26, 1
  10              		.eabi_attribute 30, 2
  11              		.eabi_attribute 34, 1
  12              		.eabi_attribute 18, 4
  13              		.thumb
  14              		.file	"sdmmcsimple.c"
  15              		.section	.gnu.lto_.jmpfuncs.985219db486779b,"",%progbits
  16 0000 789C7590 		.ascii	"x\234u\220?O\3030\020\305\357\354B\332\360/\205\011"
  16      3F4FC330 
  16      10C5EFEC 
  16      42DAF02F 
  16      8509
  17 0012 812C2F6C 		.ascii	"\201,/lHEL\210\251R\332nah\026\220X\020\311\020\211"
  17      48454C88 
  17      A952DA6E 
  17      61681690 
  17      5810C910 
  18 0027 26522895 		.ascii	"&R(\225P\027\017\014L\2101\013\022\337\201o\307\324"
  18      50170F0C 
  18      4C88310B 
  18      12DF816F 
  18      C7D4
  19 0039 73EC88A6 		.ascii	"s\354\210\2462^\374\354\337{wg3`\340Z?\010\360A\273"
  19      325EFCEC 
  19      DF7B7767 
  19      3360E05A 
  19      3F08F041 
  20 004e 079C14E7 		.ascii	"\007\234\024\347$\027\264\003\340Bc\012\261[\314Pk\244"
  20      2417B403 
  20      E042630A 
  20      B15BCC50 
  20      6BA4
  21 0060 13F7F4CD 		.ascii	"\023\367\364\315\022~U\245\202\014Q\000~\251j\230\241"
  21      127E55A5 
  21      820C5100 
  21      7EA96A98 
  21      A1
  22 0071 A9DE825C 		.ascii	"\251\336\202\\\300\211\201\0350\3716\337\022pe\370v"
  22      C089811D 
  22      30F936DF 
  22      127065F8 
  22      76
  23 0082 CDF93AF4 		.ascii	"\315\371:\364\004\334\031\3305\225\365\024\275M\227"
  23      04DC19D8 
  23      3595F514 
  23      BD4D97
  24 0091 2FE0DEB8 		.ascii	"/\340\336\270v\354{\250\011\326\336\335d\243\335\236"
  24      76EC7BA8 
  24      09D6DEDD 
ARM GAS  /tmp/ccvaPxlS.s 			page 2


  24      64A3DD9E 
  25 00a1 80A5F1EE 		.ascii	"\200\245\361\356\267f}\327\360`\206M\234\327\361@}\276"
  25      B7667DD7 
  25      F060864D 
  25      9CD7F140 
  25      7DBE
  26 00b3 A98EEDDB 		.ascii	"\251\216\355\333\037Zq\310\334\\ac\010\334\006\351\340"
  26      1F5A71C8 
  26      DC5C6163 
  26      08DC06E9 
  26      E0
  27 00c4 DFCE02FC 		.ascii	"\337\316\002\374\317P\271&\240\277\352b\017}\204\343"
  27      CF50B926 
  27      A0BFEA62 
  27      0F7D84E3 
  28 00d4 783488A2 		.ascii	"x4\210\242\360\372\246\220\361H\206\017e\"'\305K\236"
  28      F0FAA690 
  28      F148860F 
  28      652227C5 
  28      4B9E
  29 00e6 F8706AC9 		.ascii	"\370pj\311${Je\374\372<Og2\"4O\011\312\377\240\034\227"
  29      247B4A65 
  29      FCFA3C4F 
  29      67322234 
  29      4F09CAFF 
  30 00fd 6551FAC0 		.ascii	"eQ\372\300\006 \254',\362<}\264\344|<\235\236]\\R\211"
  30      0620AC27 
  30      2CF23C7D 
  30      B4E47C3C 
  30      9D9E5D5C 
  31 0113 A306AFF5 		.ascii	"\243\006\257\365\\\001G\236q\312"
  31      5C01479E 
  31      71CA
  32              		.text
  33              		.section	.gnu.lto_.inline.985219db486779b,"",%progbits
  34 0000 789C6362 		.ascii	"x\234cb`b\300\006\0262Bhv\006\026n\031\006\260\"\266"
  34      6062C006 
  34      16324268 
  34      7606166E 
  34      1906B022 
  35 0015 05F270B5 		.ascii	"\005\362p\265\214\014\254|\014\014\314\023\374@\220"
  35      8C0CAC7C 
  35      0C0CCC13 
  35      FC4090
  36 0024 9907AC80 		.ascii	"\231\007\254\200\221\201\235\215\221\201\211\343\200"
  36      91819D8D 
  36      918189E3 
  36      80
  37 0031 1D5C2913 		.ascii	"\035\\)\023\246\0203\303e\206\225\214@A\235u\223\231"
  37      A61033C3 
  37      6586958C 
  37      40419D75 
  37      9399
  38 0043 18042E24 		.ascii	"\030\004.$BDAFL\360\203\323L\334@\363\240&\003\271P"
  38      42444146 
  38      4CF083D3 
  38      4CDC40F3 
ARM GAS  /tmp/ccvaPxlS.s 			page 3


  38      A02603B9 
  39 0058 CB181858 		.ascii	"\313\030\030Xx!\014\210\024P\005X!.\355`\325\014P]x"
  39      78210C88 
  39      14500558 
  39      212EED60 
  39      D50C505D 
  40 006d 680E9033 		.ascii	"h\016\2203Y\0302\"\0303\031\205\201B\011\014\351\010"
  40      59183222 
  40      18331985 
  40      8142090C 
  40      E908
  41 007f 26239C64 		.ascii	"&#\234d`\203\205\002\343\013v\001&\006\326\016u\001"
  41      60838502 
  41      E30B7601 
  41      2606D60E 
  41      7501
  42 0091 06C61676 		.ascii	"\006\306\026v\005\026&\010\005\362\011'\232Y\031\010"
  42      05162608 
  42      05F20927 
  42      9A591908 
  43 00a1 B332C0A6 		.ascii	"\2632\300\246@H\007b\314\342b`a\006\006\025X\027\013"
  43      40480762 
  43      CCE26260 
  43      61060615 
  43      58170B
  44 00b4 927A1608 		.ascii	"\222z\026\010\011\216\011\000\240\005)\372"
  44      098E0900 
  44      A00529FA 
  45              		.text
  46              		.section	.gnu.lto_.pureconst.985219db486779b,"",%progbits
  47 0000 789C6362 		.ascii	"x\234cb`b\340g\200\000v\006\011F)&)f)\016VNV.V\000\007"
  47      6062E067 
  47      80007606 
  47      09462926 
  47      2966290E 
  48 001b 0800B1   		.ascii	"\010\000\261"
  49              		.text
  50              		.section	.gnu.lto_chprintf.985219db486779b,"",%progbits
  51 0000 789C8550 		.ascii	"x\234\205P\315J\002Q\024>\337\0355uc\333v\342\0034\213"
  51      CD4A0251 
  51      143EDF1D 
  51      357563DB 
  51      76E20334 
  52 0015 22E80D7A 		.ascii	"\"\350\015z\000\203Z\3058\216z\011\035\321Q\260\026"
  52      00835AC5 
  52      388E7A09 
  52      1DD151B0 
  52      16
  53 0026 5EC1C245 		.ascii	"^\301\302E\013ig\021)\321:\244\027\030\202\332DI\273"
  53      0B696711 
  53      29D13AA4 
  53      171882DA 
  53      4449BB
  54 0039 162D2497 		.ascii	"\026-$\227\265h\321*\202\351\336\031\024\372\201\016"
  54      B568D12A 
  54      82E9DE19 
  54      14FA810E 
ARM GAS  /tmp/ccvaPxlS.s 			page 4


  55 0049 DC7B7EBE 		.ascii	"\334{~\276s\276\363\303\210\321OY\220o\010\2425\251"
  55      73BEF3C3 
  55      88D14F59 
  55      906F08A2 
  55      35A9
  56 005b A11158F7 		.ascii	"\241\021X\367\236\250\025e\2002\010\324dhnB\245\262"
  56      9EA81565 
  56      803208D4 
  56      64686E42 
  56      A5B2
  57 006d 140D84DB 		.ascii	"\024\015\204\333\035_O\036\321\023n\273/>=\017\340\220"
  57      1D5F4F1E 
  57      D1136EBB 
  57      2F3E3D0F 
  57      E090
  58 007f B42B2013 		.ascii	"\264+ \023\264!\035$}\305B\337\373\250Z\321uOon!\016"
  58      B4211D24 
  58      7DC542DF 
  58      FBA85AD1 
  58      754F6F6E 
  59 0095 45EBCDF3 		.ascii	"E\353\315\363\022\034\032\243\325\377\012/\230\373\354"
  59      121C1AA3 
  59      D5FF0A2F 
  59      98FBEC
  60 00a4 794FC3F7 		.ascii	"yO\303\367\203W\364XLC\021\024\222\037\"d\340\014)\225"
  60      8357F458 
  60      4C431114 
  60      921F2264 
  60      E00C2995 
  61 00b8 13A6B624 		.ascii	"\023\246\266$O\032\030H\177\0325\375\241\323\362W\233"
  61      4F1A1848 
  61      7F1A35FD 
  61      A1D3F257 
  61      9B
  62 00c9 AC8329AD 		.ascii	"\254\203)\255\215ho\3343\015\234#,\321]\372\020\035"
  62      8D686FDC 
  62      330D9C23 
  62      2CD15DFA 
  62      101D
  63 00db 31CF1132 		.ascii	"1\317\0212\341\247\313\310\016Gx\312\344g\251\2514\""
  63      E1A7CBC8 
  63      0E4778CA 
  63      E467A9A9 
  63      3422
  64 00ed 2E3BD288 		.ascii	".;\322\210\366\307G\223x\200\344\021\231\021\314\231"
  64      F6C74793 
  64      7880E411 
  64      9911CC99 
  65 00fd 088E9B87 		.ascii	"\010\216\233\207\226G( \340\210\252\222\366\370\370"
  65      96472820 
  65      E088AA92 
  65      F6F8F8
  66 010c 77C798A9 		.ascii	"w\307\230\251H\377\356\310\021'\272\243\253\027\026"
  66      48FFEEC8 
  66      1127BAA3 
  66      AB1716
  67 011b 04027099 		.ascii	"\004\002p\231.EG\235[\312\003\265\372'\332l\214\340"
ARM GAS  /tmp/ccvaPxlS.s 			page 5


  67      2E45479D 
  67      5BCA03B5 
  67      FA27DA6C 
  67      8CE0
  68 012d 5469B983 		.ascii	"Ti\271\203\334Q\315\261\244\027\354\242\245\233v\266"
  68      DC51CDB1 
  68      A417ECA2 
  68      A59B76B6 
  69 013d A167ADBA 		.ascii	"\241g\255\272n\026x\206\333U\335\251\324J\333\2724\352"
  69      6E167886 
  69      DB55DDA9 
  69      D44ADBBA 
  69      34EA
  70 014f 4685DBB5 		.ascii	"F\205\333\265\252\004\312\025^rr\213\005bF9\221\263"
  70      AA04CA15 
  70      5E72728B 
  70      05624639 
  70      91B3
  71 0161 2B45C371 		.ascii	"+E\303q\254\354V\246\341X\325/\251H\201#"
  71      ACEC56A6 
  71      E158D52F 
  71      A9488123 
  72              		.text
  73              		.section	.gnu.lto_mmc_lld_is_card_inserted.985219db486779b,"",%progbits
  74 0000 789C6362 		.ascii	"x\234cb`b@\007\222@\374\031\210\005\200\230\221\231"
  74      60624007 
  74      9240FC19 
  74      88058098 
  74      9199
  75 0012 819169C2 		.ascii	"\201\221i\3029\006\206F\016&FF\020\203\201\221\241\236"
  75      39068646 
  75      0E264646 
  75      10838191 
  75      A19E
  76 0024 89B13E92 		.ascii	"\211\261>\222\021\254v=\323\201\007\377\377\257\273"
  76      11AC763D 
  76      D38107FF 
  76      FFAFBB
  77 0033 D6FA8A8D 		.ascii	"\326\372\212\215\215\211!\223\221\201\031D\260\200\010"
  77      8D892193 
  77      91811944 
  77      B08008
  78 0042 56200152 		.ascii	"V \001R\304\312\320\322\3200A\201\201!\031\254%\004"
  78      C4CAD0D2 
  78      D0304181 
  78      812119AC 
  78      2504
  79 0054 4882CC09 		.ascii	"H\202\314\011ed\002\321\314g\031\016\335\2321\233/\221"
  79      656402D1 
  79      CC67190E 
  79      DD9A319B 
  79      2F91
  80 0066 7121232B 		.ascii	"q!#+C:#\2236\303\252\206\026\306LF\246\331\014\263\200"
  80      433A2393 
  80      36C3AA86 
  80      16C64C46 
  80      A6D90CB3 
ARM GAS  /tmp/ccvaPxlS.s 			page 6


  81 007b 14730490 		.ascii	"\024s\004\220`iX\320\322\300\302\000f\202\255Mb\204"
  81      606958D0 
  81      D2C0C200 
  81      6682AD4D 
  81      6284
  82 008d 39F62C43 		.ascii	"9\366,C\363:f\230ff\240~\220\"Vv\210\314n\270\014K:"
  82      F33A6698 
  82      6666A07E 
  82      90225676 
  82      88CC6EB8 
  83 00a4 C4240646 		.ascii	"\304$\006F\210\314\215f1\230\024+P\026,\005\002\027"
  83      88CC8D66 
  83      3198142B 
  83      50162C05 
  83      0217
  84 00b6 1918E1E2 		.ascii	"\031\030\341\342\020\013B\200\236\000\272\023\024L|"
  84      100B4280 
  84      9E00BA13 
  84      144C7C
  85 00c5 C529B9B9 		.ascii	"\305)\271\271\311\305\231\271\0059\251z\311\014\000"
  85      C9C599B9 
  85      0539A97A 
  85      C90C00
  86 00d4 D43139FB 		.ascii	"\32419\373"
  87              		.text
  88              		.section	.gnu.lto_mmc_lld_is_write_protected.985219db486779b,"",%progbits
  89 0000 789C6362 		.ascii	"x\234cb`b@\007\222@\374\031\210\005\200\230\221\231"
  89      60624007 
  89      9240FC19 
  89      88058098 
  89      9199
  90 0012 819169C2 		.ascii	"\201\221i\3029\006\206F\016&FF\020\203\201\221\241\236"
  90      39068646 
  90      0E264646 
  90      10838191 
  90      A19E
  91 0024 89B13E92 		.ascii	"\211\261>\222\021\254v=\323\201\007\377\377\257\373"
  91      11AC763D 
  91      D38107FF 
  91      FFAFFB
  92 0033 D6FA8A9D 		.ascii	"\326\372\212\235\215\211!\223\221\201\031D\260\200\010"
  92      8D892193 
  92      91811944 
  92      B08008
  93 0042 56200152 		.ascii	"V \001R\304\312\320\322\3200A\201\201!\031\254%\004"
  93      C4CAD0D2 
  93      D0304181 
  93      812119AC 
  93      2504
  94 0054 4882CC09 		.ascii	"H\202\314\011ed\002\321\314g\031\016\335\232q\237/\221"
  94      656402D1 
  94      CC67190E 
  94      DD9A719F 
  94      2F91
  95 0066 7121232B 		.ascii	"q!#+C:#\2236\303\252\206\026\306LF\246\331\014\263\200"
  95      433A2393 
  95      36C3AA86 
ARM GAS  /tmp/ccvaPxlS.s 			page 7


  95      16C64C46 
  95      A6D90CB3 
  96 007b 14730490 		.ascii	"\024s\004\220`i\230\320\322\300\302\000f\202\255Mb\204"
  96      606998D0 
  96      D2C0C200 
  96      6682AD4D 
  96      6284
  97 008d 39F62C43 		.ascii	"9\366,C\363:f\230ff\240~\220\"VN\210\314n\270\014K:"
  97      F33A6698 
  97      6666A07E 
  97      9022564E 
  97      88CC6EB8 
  98 00a4 C4240646 		.ascii	"\304$\006F\210\314\371f1\230\024+P\026,\005\002\027"
  98      88CCF966 
  98      3198142B 
  98      50162C05 
  98      0217
  99 00b6 1918E1E2 		.ascii	"\031\030\341\342\020\013B\200\236\000\272\023\024L|"
  99      100B4280 
  99      9E00BA13 
  99      144C7C
 100 00c5 C529B9B9 		.ascii	"\305)\271\271\311\305\231\271\0059\251z\311\014\000"
 100      C9C599B9 
 100      0539A97A 
 100      C90C00
 101 00d4 190C3A49 		.ascii	"\031\014:I"
 102              		.text
 103              		.section	.gnu.lto_sdmmcInitialize.985219db486779b,"",%progbits
 104 0000 789CAD56 		.ascii	"x\234\255V[h\034e\024>gfw\366\3224\267F\323\232f\262"
 104      5B681C65 
 104      143E6766 
 104      77F6D234 
 104      B746D39A 
 105 0016 C6AC31F7 		.ascii	"\306\2541\367\3257E\245P[|I\261\255\213\212\212\304"
 105      D53745A5 
 105      505B7C49 
 105      B1AD8B8A 
 105      8AC4
 106 0028 C9BA0C64 		.ascii	"\311\272\014d\223v7}\220>dbVmK\325\245\364a\265\024"
 106      9376377D 
 106      903E6462 
 106      566D4BD5 
 106      A5F461B5 
 107 003d 53420CB4 		.ascii	"SB\014\264\220\202\025]\020aS*\246\015Z\366!\220\324"
 107      9082155D 
 107      1061532A 
 107      A60D5AF6 
 107      2190D4
 108 0050 3EE44D8A 		.ascii	">\344M\212\242\366A\214\321&\236\3772\263\227\\\013"
 108      A2F6418C 
 108      D1269EFF 
 108      32B3975C 
 108      0B
 109 0061 1DD87F66 		.ascii	"\035\330\177f\316\177\276s\371\316\371\317\216\002\012"
 109      CE7FBE73 
 109      F9CEF9CF 
 109      8E020A
ARM GAS  /tmp/ccvaPxlS.s 			page 8


 110 0070 945E47E8 		.ascii	"\224^G\350\267}\033\300\327tG?\240\222\372\011`\330"
 110      B77D1BC0 
 110      D774473F 
 110      A092FA09 
 110      60D8
 111 0082 AB28AA35 		.ascii	"\253(\2525\003`\371\275)\025\2542Uq\375PAo\356\353\317"
 111      0360F9BD 
 111      2915AC32 
 111      5571FD50 
 111      416FEEEB 
 112 0097 D39B0B7D 		.ascii	"\323\233\013}B\313\255hl\333\357\341\272e\232-\367\330"
 112      42CBAD68 
 112      6CDBEFE1 
 112      BA659A2D 
 112      F7D8
 113 00a9 0F5EFBC1 		.ascii	"\017^\373\301\207\310\036\000aHQ]n\315C\222\241\327"
 113      87C81E00 
 113      6148515D 
 113      6ECD4392 
 113      A1D7
 114 00bb 9045A036 		.ascii	"\220E\2406\302\005\313:\2630>\221\303O\317f\223\243"
 114      C205CB3A 
 114      B3303E91 
 114      C34FCF66 
 114      93A3
 115 00cd D67F2B2B 		.ascii	"\326\177++\210&R\264U\010\006\302\253\364\202\001~S"
 115      882652B4 
 115      550806C2 
 115      ABF48201 
 115      7E53
 116 00df 5CC5E173 		.ascii	"\\\305\341sl*\373\327\207\037\327Z\013V\312Z&\250\211"
 116      6C2AFBD7 
 116      871FD75A 
 116      0B56CA5A 
 116      26A889
 117 00f2 AA027A1E 		.ascii	"\252\002z\036\351\025H\\\003y&\233;\365Q!\322\245@p"
 117      E915485C 
 117      0379269B 
 117      3BF55121 
 117      D2A54070 
 118 0106 33E46525 		.ascii	"3\344e%\273\260\262r\372\273\344\215\216'\021\310\233"
 118      BBB0B272 
 118      FABBE48D 
 118      8E2711C8 
 118      9B
 119 0117 0B63081A 		.ascii	"\013c\010\032-\350\241E\251&\231\273\206-\265\320\203"
 119      2DE8A145 
 119      A92699BB 
 119      862DB5D0 
 119      83
 120 0128 17B011EA 		.ascii	"\027\260\021\352\330K=-\232N\2221\2224\310\235\000\011"
 120      D84B3D2D 
 120      9A4E9231 
 120      9234C89D 
 120      0009
 121 013a 3D8DB478 		.ascii	"=\215\264x\233H2N\222\240\334if\230\026\371\322.\357"
 121      9B48324E 
ARM GAS  /tmp/ccvaPxlS.s 			page 9


 121      92A0DC69 
 121      669816F9 
 121      D22EEF
 122 014d 9D24F475 		.ascii	"\235$\364u\261%\304\026\012\306\015I\"  \254\002\213"
 122      B125C416 
 122      0AC60D49 
 122      222020AC 
 122      028B
 123 015f 9CAE9769 		.ascii	"\234\256\227iet\207Qaw\365Gxo&\263\224Uzp\002\335p\016"
 123      65748751 
 123      6177F547 
 123      786F26B3 
 123      94557A70 
 124 0177 3E1BB6AC 		.ascii	">\033\266\254J\"\3708,Y'\330\223?\206*\341X\266~\236"
 124      4A22F838 
 124      2C5927D8 
 124      933F862A 
 124      E158B67E 
 125 018c 63148968 		.ascii	"c\024\211h\006[\\\372\023\005\254\015.ZtUPXd\2014\267"
 125      065B5CFA 
 125      1305AC0D 
 125      2E5A7455 
 125      50586481 
 126 01a2 45516388 		.ascii	"EQc\2102\216x[\262\024E\017G.\215\\\371D/En_\033)\240"
 126      328E785B 
 126      B214450F 
 126      472E8D5C 
 126      F9442F45 
 127 01bb 221AEB20 		.ascii	"\"\032\353 \251\305P\324\231\354d2\377N+\245v\274k\333"
 127      A9C550D4 
 127      99EC6432 
 127      FF4E2BA5 
 127      76BC6BDB 
 128 01cf 11EDCD24 		.ascii	"\021\355\315$^\033=\267\006Z[\033\255:hM\242g\322\313"
 128      5E1B3DB7 
 128      065A5B1B 
 128      AD3A684D 
 128      A267D2CB 
 129 01e3 592C21AD 		.ascii	"Y,!\255\314!\255<Fr\001(\227\251\023\360&|\260poL\242"
 129      CC21AD3C 
 129      46720128 
 129      97A913F0 
 129      267CB070 
 130 01fa 204F7185 		.ascii	" Oq\205!\323d\372\225V:i\271\370\243o\017\277UiT\320"
 130      21D364FA 
 130      95563A69 
 130      B9F8A36F 
 130      0FBF5569 
 131 0210 6A0E1F5D 		.ascii	"j\016\037]V7C\217:hK\264j\225\232\207\257l\012O9pq\252"
 131      5637438F 
 131      3A684BB4 
 131      6A959A87 
 131      AF6C0A4F 
 132 0228 AA2AF3E8 		.ascii	"\252*\363\350\023\356\255\243m\347\005\360\223\367\001"
 132      13EEADA3 
 132      6DE705F0 
 132      93F701
ARM GAS  /tmp/ccvaPxlS.s 			page 10


 133 0237 97992B02 		.ascii	"\227\231+\002M|\337Z\034\313\311jE\261\272\015ZE\257"
 133      4D7CDF5A 
 133      1CCBC96A 
 133      45B1BA0D 
 133      5A45AF
 134 024a 11F1D6EB 		.ascii	"\021\361\326\353\353\365\033s\233\314\266\256\362\272"
 134      EBF51B73 
 134      9BCCB6AE 
 134      F2BA
 135 0258 C390ED40 		.ascii	"\303\220\355@\226L\254\021\366\323_\334A\333~M\221\375"
 135      964CAC11 
 135      F6D35FDC 
 135      41DB7E4D 
 135      91FD
 136 026a 831BD97F 		.ascii	"\203\033\331\177?[\277\312\376C\206l\030\262$;\367\250"
 136      3F5BBFCA 
 136      FE43866C 
 136      18B2243B 
 136      F7A8
 137 027c 890FC750 		.ascii	"\211\017\307P\223\252&\3262\247Wo\245\317\225\313Sj"
 137      93AA26D6 
 137      32A7576F 
 137      A5CF95CB 
 137      536A
 138 028e 1F57EB8F 		.ascii	"\037W\353\217\263/\002\010=C\264z\024;Y\203&\207\263"
 138      B32F0208 
 138      3D43B47A 
 138      143B5983 
 138      2687B3
 139 02a1 F3646627 		.ascii	"\363df'\213*\305\334\354*)x\245\014\316\305\360WyH\344"
 139      8B2AC5DC 
 139      EC2A2978 
 139      A50CCEC5 
 139      F0577948 
 140 02b6 6464926A 		.ascii	"dd\222j>\305\323\352\"KL\321\343\021;\337:;!\332\344"
 140      3EC5D3EA 
 140      224B4CD1 
 140      E3113BDF 
 140      3A3B21DA 
 141 02cb BCB3CCA6 		.ascii	"\274\263\314\246!\371\333\32477T\233\215\020\337)\034"
 141      21F9DBD4 
 141      3737549B 
 141      8D10DF29 
 141      1C
 142 02dc 7361CA8F 		.ascii	"sa\312\217\346:\033\036\32734\233\235I3\316'\215M\010"
 142      E63A1B1E 
 142      D733349B 
 142      9D4933CE 
 142      278D4D08 
 143 02f0 616BB732 		.ascii	"ak\2672Q\030\217\324\033\337\027\263\370\210!\2140+"
 143      51188FD4 
 143      1BDF17B3 
 143      F888218C 
 143      302B
 144 0302 4C98B6AC 		.ascii	"L\230\266\254\034A\352th9o\245\367\230\270\033$\306"
 144      1C41EA74 
 144      68396FA5 
ARM GAS  /tmp/ccvaPxlS.s 			page 11


 144      F798B81B 
 144      24C6
 145 0314 C47A4E67 		.ascii	"\304zNgfn\242J\2108_(\310B\207\251t)Sn\247\367\250\341"
 145      666EA24A 
 145      88385F28 
 145      C84287A9 
 145      7429536E 
 146 032c 78B78C7E 		.ascii	"x\267\214~\276:\020\335\020\247\236+6\364\222\273\200"
 146      BE3A10DD 
 146      10A79E2B 
 146      36F492BB 
 146      80
 147 033d 6899CCC5 		.ascii	"h\231\314\305;\212\320\216b]Q\313\034\335\270%;lT\275"
 147      3B8AD08E 
 147      625D51CB 
 147      1CDDB825 
 147      3B6C54BD 
 148 0351 E3E45183 		.ascii	"\343\344Q\203\015G\236m\235\311X$\007\277\216\274c+"
 148      0D479E6D 
 148      9DC95824 
 148      07BF8EBC 
 148      632B
 149 0363 EA5196E3 		.ascii	"\352Q\226\3434\\\373ej\366\224\343Tg\016\036+\374\017"
 149      345CFB65 
 149      6AF694E3 
 149      54670E1E 
 149      2BFC0F
 150 0376 0A53F5FF 		.ascii	"\012S\365\377.\347\205I_\272\213\266b\303\326\312@\260"
 150      2EE78549 
 150      5FBA8BB6 
 150      62C3D6CA 
 150      40B0
 151 0388 DF551B13 		.ascii	"\337U\033\023\340.o\202\266Qe\032de\346\311J\223\016"
 151      E02E6F82 
 151      B651651A 
 151      6465E6C9 
 151      4A930E
 152 039b CF89CA04 		.ascii	"\317\211\312\004\355\312\220\025^\034\021\232\033N>"
 152      EDCA9015 
 152      5E1C119A 
 152      1B4E3E
 153 03aa ABF2B37C 		.ascii	"\253\362\263|\351\037'\264FN\234W\022\027^or\363\021"
 153      E91F27B4 
 153      464E9C57 
 153      12175E6F 
 153      72F311
 154 03bd 92D56C54 		.ascii	"\222\325lT\223\023\314\343\206\230\350\314\224\014\346"
 154      9313CCE3 
 154      8698E8CC 
 154      940CE6
 155 03cc B889CD3A 		.ascii	"\270\211\315:\274!by\302\216\205\331la\315\322*[\374"
 155      BC216279 
 155      C28E85D9 
 155      6C61CDD2 
 155      2A5BFC
 156 03df 6E9EC826 		.ascii	"n\236\310&\266Y\364\375\020\246\232\177\245p\"\347&"
 156      B659F4FD 
ARM GAS  /tmp/ccvaPxlS.s 			page 12


 156      10A69A7F 
 156      A57022E7 
 156      26
 157 03f0 F344061F 		.ascii	"\363D\006\037H?\007\013Xk\323\341-\021i{I?\023O\223"
 157      483F070B 
 157      586BD3E1 
 157      2D11697B 
 157      493F134F 
 158 0405 F34E88CD 		.ascii	"\363N\210\315E\015\366\346\306\015\326\266\312;\365"
 158      450DF6E6 
 158      C60DD6B6 
 158      CA3BF5
 159 0414 974F7A6F 		.ascii	"\227Ozo\346\375%\222\364\300\354\323<\311\305\313\371"
 159      E6FD2592 
 159      F4C0ECD3 
 159      3CC9C5CB 
 159      F9
 160 0425 245B1E48 		.ascii	"$[\036H\222-\005Iv\350`\241\310\262\2634\313L\372K\333"
 160      922D0549 
 160      76E860A1 
 160      C8B2B334 
 160      CB4CFA4B 
 161 043a B5FC1FF6 		.ascii	"\265\374\037\366m\345\177\330\3167L\345O\251\242\343"
 161      6DE57FD8 
 161      CE374CE5 
 161      4FA9A2E3 
 162 044a AFE49C11 		.ascii	"\257\344\234\021\336~\0379L\254\233C{\301\340\351\322"
 162      DE7E1F39 
 162      4CAC9B43 
 162      7BC1E0E9 
 162      D2
 163 045b E1BCCC21 		.ascii	"\341\274\314!\004\316 w\232\333\307?\247r\364A\313\200"
 163      04CE2077 
 163      9ADBC73F 
 163      A772F441 
 163      CB80
 164 046d 3CBA7940 		.ascii	"<\272y@:\243\256\333\263;\231K\225>#\305\205C\332\265"
 164      3AA3AEDB 
 164      B33B994B 
 164      953E23C5 
 164      8543DAB5 
 165 0481 57B8E85E 		.ascii	"W\270\350^^\344\275=\357\3452\000\317\351\237k\330\227"
 165      5EE4BD3D 
 165      EFE53200 
 165      CFE99F6B 
 165      D897
 166 0493 1A3293AC 		.ascii	"\0322\223\254\375\313\023\275\261\230\2210cG\372\"\235"
 166      FDCB13BD 
 166      B1989130 
 166      6347FA22 
 166      9D
 167 04a4 06942522 		.ascii	"\006\224%\"q\263\247\357\245\201\370`gHK\014\366\014"
 167      71B3A7EF 
 167      A581F860 
 167      67484B0C 
 167      F60C
 168 04b6 1E4BA891 		.ascii	"\036K\250\221x|\307\341\027\272\272\273\367>\263\267"
ARM GAS  /tmp/ccvaPxlS.s 			page 13


 168      787CC7E1 
 168      17BABABB 
 168      F73EB3B7 
 169 04c6 27DE1BD8 		.ascii	"'\336\033\330?p\254\277\327\017\272-\033\350\357\217"
 169      3F70ACBF 
 169      D70FBA2D 
 169      1BE8EF8F 
 170 04d6 1883817D 		.ascii	"\030\203\201}\361\370@\274}\337\241C\301\320S\264\255"
 170      F1F840BC 
 170      7DDFA143 
 170      C1D053B4 
 170      AD
 171 04e7 7441406A 		.ascii	"tA@j\3547\373\"\201\303\357&\006#\261@7\201\245\256"
 171      EC37FB22 
 171      81C3EF26 
 171      0623B140 
 171      3781A5AE 
 172 04fb 1F76AFA7 		.ascii	"\037v\257\247\020!\003\273\344\346\201\001\262\023("
 172      102103BB 
 172      E4E68101 
 172      B21328
 173 050a F4FC3FF7 		.ascii	"\364\374?\367\320\323\276"
 173      D0D3BE
 174              		.text
 175              		.section	.gnu.lto_sdmmGetMMCDriver.985219db486779b,"",%progbits
 176 0000 789C6D50 		.ascii	"x\234mP\277K\202Q\024=\347\276\367U\204\224AK[c$\264"
 176      BF4B8251 
 176      143DE7BE 
 176      F7558494 
 176      414B5B63 
 177 0016 38F48F24 		.ascii	"8\364\217$\350X\237!\037\370A\340\037\340S\374\003\234"
 177      E8589F21 
 177      1FF841E0 
 177      1FE053FC 
 177      039C
 178 0028 73A94D1C 		.ascii	"s\251M\034twr\012\241\014l\312 ht\320\275M\357{aTt\341"
 178      7477720A 
 178      A10C6CCA 
 178      206874D0 
 178      BD4DEF7B 
 179 0040 BD7BEF7B 		.ascii	"\275{\357{\347\234\373C \370ky=G\004\262\352\031\201"
 179      E79CFB43 
 179      20F86B79 
 179      3D4704B2 
 179      EA1981
 180 0053 D27E061A 		.ascii	"\322~\006\032;\"\246\373\000\270];\337\206\313\030\332"
 180      3B22A6FB 
 180      00B85D3B 
 180      DF86CB18 
 180      DA
 181 0064 AF774BFA 		.ascii	"\257wK\372\000D]\214e\275\304\2402\220\321\307j\325"
 181      00445D8C 
 181      65BDC4A0 
 181      3290D1C7 
 181      6AD5
 182 0076 7F79BC5B 		.ascii	"\177y\274[R\266\210\2040L\011\253\221\252&\001\025\241"
 182      52B68884 
ARM GAS  /tmp/ccvaPxlS.s 			page 14


 182      304C09AB 
 182      91AA2601 
 182      15A1
 183 0088 E55CFB18 		.ascii	"\345\\\373\030\210Cz\241\267\327*P\2747\0234\337^\207"
 183      88437AA1 
 183      B7D72A50 
 183      BC371334 
 183      DF5E87
 184 009b 535EF25E 		.ascii	"S^\362^)\025\332\034N\225\335\301-\023J\205\246\250"
 184      2915DA1C 
 184      4E95DDC1 
 184      2D134A85 
 184      A6A8
 185 00ad DE847257 		.ascii	"\336\204rW\334\264?Fk\321\330\377\246x\010\177\216W"
 185      DCB43F46 
 185      6BD1D8FF 
 185      A678087F 
 185      8E57
 186 00bf 50860E12 		.ascii	"P\206\016\022\304?\207\007\033`\224C\317\251\235kg\377"
 186      C43F8707 
 186      1B609443 
 186      CFA99D6B 
 186      67FF
 187 00d1 17E02F11 		.ascii	"\027\340/\021\033:\234\352\002\240\354\3607\003U\307"
 187      1B3A9CEA 
 187      02A0ECF0 
 187      370355C7 
 188 00e1 9C7892A6 		.ascii	"\234x\222\246\362\364~\350g\242G\3725\357\325\312i\032"
 188      F2F47EE8 
 188      67A247FA 
 188      35EFD5CA 
 188      691A
 189 00f3 D792F4A6 		.ascii	"\327\222\364\246z}\026c\015\017\001E\261"
 189      7A7D1663 
 189      0D0F0145 
 189      B1
 190              		.text
 191              		.section	.gnu.lto_sdmmcGetFS.985219db486779b,"",%progbits
 192 0000 789C6D50 		.ascii	"x\234mP=KCA\020\234\331\275\247\"\242\021l\354R\212"
 192      3D4B4341 
 192      109CD9BD 
 192      A722A211 
 192      6CEC528A 
 193 0014 813416FE 		.ascii	"\2014\026\376\021\003Z\352\213\204\007y\020\310\017"
 193      11035AEA 
 193      8B840779 
 193      10C80F
 194 0023 C845D208 		.ascii	"\310E\322\010\026\251\265\321N,\364'\304J\204\240\220"
 194      16A9B5D1 
 194      4E2CF427 
 194      C44A84A0 
 194      90
 195 0034 2E5A59A6 		.ascii	".ZY\246Hc\027l\222\275\223\210J\026\356v\367nf\366C"
 195      4863176C 
 195      92BD9388 
 195      4A16EE76 
 195      F76E66F6 
ARM GAS  /tmp/ccvaPxlS.s 			page 15


 196 0049 20F86F7B 		.ascii	" \370o{v\266\011\024\3143\001\245\373\012\264WD\364"
 196      76B60914 
 196      CC3301A5 
 196      FB0AB457 
 196      44F4
 197 005b F609F0AB 		.ascii	"\366\011\360\253n\264\014\277\246t\337\357\216\014\001"
 197      6EB40CBF 
 197      A674DFEF 
 197      8E0C01
 198 006a 8896A863 		.ascii	"\210\226\250c\353\210Q\345A\036?\246\323\373\257\376"
 198      EB8851E5 
 198      411E3FA6 
 198      D3FBAFFE 
 199 007a F5397589 		.ascii	"\3659u\211\310\010eN8\213L5\213\250\004\035\357\273"
 199      C808654E 
 199      388B4C35 
 199      8BA8041D 
 199      EFBB
 200 008c 45208DE9 		.ascii	"E \215\351\201\335A\253B\011^_p\366>\354\015x\314\033"
 200      81DD41AB 
 200      42095E5F 
 200      70F63EEC 
 200      0D78CC1B 
 201 00a0 A3D4E84A 		.ascii	"\243\324\350J\3305\366\025.\231Qj\324C\363\032\313\235"
 201      D835F615 
 201      2E99516A 
 201      D443F31A 
 201      CB9D
 202 00b2 70DEFE33 		.ascii	"p\336\3763:\343\366\306\017%@\370{\274\2121l\220(>\351"
 202      3AE3F6C6 
 202      0F2540F8 
 202      7BBC8A31 
 202      6C90283E 
 203 00c7 6DCE8149 		.ascii	"m\316\201I\011w\336l\337:[\\\200\177D\\\354p`\013\200"
 203      0977DE6C 
 203      DF3A5B5C 
 203      807F445C 
 203      EC70600B 
 204 00dc B1E3DF1B 		.ascii	"\261\343\337\033h:\272\023H\226\312\305\347V\230\211"
 204      683ABA13 
 204      4896CAC5 
 204      E7569889 
 205 00ec 0119D6BC 		.ascii	"\001\031\326\274\336\254\346y\332\314\362F\375\264\234"
 205      DEACE679 
 205      DACCF246 
 205      FDB49C
 206 00fb 6206D021 		.ascii	"b\006\320!ET"
 206      4554
 207              		.text
 208              		.section	.gnu.lto_sdmmcFSMounted.985219db486779b,"",%progbits
 209 0000 789C6362 		.ascii	"x\234cb`b@\007\222@<\003\210\005\200\230\221\231\201"
 209      60624007 
 209      92403C03 
 209      88058098 
 209      919981
 210 0013 9169C239 		.ascii	"\221i\3029\006\206F\016&FF\020\203\201\221\241\236\211"
 210      0686460E 
ARM GAS  /tmp/ccvaPxlS.s 			page 16


 210      26464610 
 210      838191A1 
 210      9E89
 211 0025 B13E9211 		.ascii	"\261>\222\021\254v=\323\201\007\377\377\257\333tn\301"
 211      AC763DD3 
 211      8107FFFF 
 211      AFDB746E 
 211      C1
 212 0036 6C466616 		.ascii	"lFf\026&\306\\F\006f\206L\260\034+CKC\303\004\005\006"
 212      26C65C46 
 212      0666864C 
 212      B01C2B43 
 212      4B43C304 
 213 004c 86643037 		.ascii	"\206d07\004H\202\364\20722\201h\346\263\014M\267n<S"
 213      044882F4 
 213      87323281 
 213      68E6B30C 
 213      4DB76E3C 
 214 0061 4C645CC8 		.ascii	"Ld\\\310\310\312\220\316\310\254\315\260\252\001\010"
 214      C8CA90CE 
 214      C8ACCDB0 
 214      AA0108
 215 0070 AC819A67 		.ascii	"\254\201\232g3\314b\314ddLgd\212\000\322\020\007&1\302"
 215      33CC62CC 
 215      64644C67 
 215      648A00D2 
 215      10072631 
 216 0085 9C7791A1 		.ascii	"\234w\221\241\361\000\013\\\033D,\204\221\021d(H)_q"
 216      F1000B5C 
 216      1B442C84 
 216      91116428 
 216      48295F71 
 217 0099 4A6E6E72 		.ascii	"JnnrqfnAN\252^2\003\000\341\322*\277"
 217      71666E41 
 217      4EAA5E32 
 217      0300E1D2 
 217      2ABF
 218              		.text
 219              		.section	.gnu.lto_.symbol_nodes.985219db486779b,"",%progbits
 220 0000 789C4DCC 		.ascii	"x\234M\314IJ\003A\030\305\361\367\252\272\23538n\024"
 220      494A0341 
 220      18C5F1F7 
 220      AABA9D33 
 220      386E14
 221 0013 BC8097F2 		.ascii	"\274\200\227\362$/\330\240\001q\300\200K\027\346\016"
 221      242FD8A0 
 221      0171C080 
 221      4B17E60E 
 222 0023 1E20DD20 		.ascii	"\036 \335 N\211\363\254(\301\235gP\273\252\033\253k"
 222      4E89F3AC 
 222      28C19D67 
 222      50BBAA1B 
 222      AB6B
 223 0035 F3E7F77D 		.ascii	"\363\347\367}Ue`pD\024\307\034S\300n\037\220\266\332"
 223      55656070 
 223      4414C71C 
 223      53C06E1F 
ARM GAS  /tmp/ccvaPxlS.s 			page 17


 223      90B6DA
 224 0048 ABA64FB1 		.ascii	"\253\246O\261\344A\233f@\231\012/)\033\030\237\222\221"
 224      E4419B66 
 224      40990A2F 
 224      291B189F 
 224      9291
 225 005a 6C7C4B03 		.ascii	"l|K\003!>\241u\272 \362\230+*\252\274\274\246\342\012"
 225      213EA175 
 225      BA20F298 
 225      2B2AAABC 
 225      BCA6E20A 
 226 006e 6FA891CA 		.ascii	"o\250\221\312Gg\214\334\323s\306y\370N\215\026\313V"
 226      47678CDC 
 226      D373C679 
 226      F84E8D16 
 226      CB56
 227 0080 8B7CA3C6 		.ascii	"\213|\243\306\202^\251\361\240\027j\"\350\231\232\014"
 227      825EA9F1 
 227      A0176A22 
 227      E8999A0C 
 228 0090 7AA2A682 		.ascii	"z\242\246\202\036\251Z\320\003U\017\272\247\032AwT\363"
 228      1EA95AD0 
 228      03550FBA 
 228      A71A4177 
 228      54F3
 229 00a2 5F160D24 		.ascii	"_\026\015$\037?y\353\350\372\326\220\272\332\005\244"
 229      1F3F79EB 
 229      E8FAD690 
 229      BADA05A4 
 230 00b2 9F458765 		.ascii	"\237E\207e\223\365\357e\327n\331\324w\036\311\206\353"
 230      93F5EF65 
 230      D76ED9D4 
 230      771EC986 
 230      EB
 231 00c3 1C525F60 		.ascii	"\034R_`m3\313;\213\324w\006\311v\346\347\207\203_c\355"
 231      6D33CB3B 
 231      8BD47706 
 231      C976E6E7 
 231      87835F63 
 232 00d8 34863BD9 		.ascii	"4\206;\331\222so/\0377\221t\374\266\327\371Z\364\267"
 232      92736F2F 
 232      1F379174 
 232      FCB6D7F9 
 232      5AF4B7
 233 00eb F657F007 		.ascii	"\366W\360\007\3163\200L"
 233      CE33804C 
 234              		.text
 235              		.section	.gnu.lto_.refs.985219db486779b,"",%progbits
 236 0000 789C6362 		.ascii	"x\234cb`b\220e\200\000NfF\026&VF6&v\006\026\030dfgb"
 236      60629065 
 236      80004E66 
 236      46162656 
 236      46362676 
 237 001b 65E266E2 		.ascii	"e\342f\342a\000\000\012\274\000\212"
 237      6100000A 
 237      BC008A
 238              		.text
ARM GAS  /tmp/ccvaPxlS.s 			page 18


 239              		.section	.gnu.lto_.decls.985219db486779b,"",%progbits
 240 0000 789CBD7D 		.ascii	"x\234\275}yx\024U\326wU\365\032\022Y\325\001E\311\274"
 240      79781455 
 240      D67755F5 
 240      1A1259D5 
 240      0145C9BC 
 241 0014 DFCCFBF9 		.ascii	"\337\314\373\371\370\216\006\320\231q\346\231o\024\222"
 241      F88E06D0 
 241      9971E699 
 241      6F1492
 242 0023 80F904C2 		.ascii	"\200\371\004\302\223\304\231\361\217\357i\233N\007\372"
 242      93C499F1 
 242      8FEF699B 
 242      4E07FA
 243 0032 359BDD1D 		.ascii	"5\233\335\035\226\357\373c\212\004\203\340\306\276\013"
 243      96EFFB63 
 243      8A0483E0 
 243      C6BE0B
 244 0041 615F65DF 		.ascii	"a_e\337B$4(I\004E\026\021\021\220\014*\012#\310\036"
 244      42243428 
 244      49044516 
 244      1111900C 
 244      2A0A23C8 
 245 0056 B690EFDC 		.ascii	"\266\220\357\334s\253\272\252n\252\272\252\232w\336"
 245      73ABBAAA 
 245      6EAABAAA 
 245      9A77DE
 246 0065 7E9E3A55 		.ascii	"~\236:U}\273\356\257\3169\367\334s\317]\352\266\300"
 246      7DBBEEAF 
 246      CE39F7DC 
 246      73CF5DEA 
 246      B6C0
 247 0077 09DC1A07 		.ascii	"\011\334\032\007\307\265\301g\310;\034w\247\023\307"
 247      C7B5C167 
 247      C83B1C77 
 247      A713C7
 248 0086 79398EFB 		.ascii	"y9\216\3733\034\017\302\341\204c!\034\213\340X\001\307"
 248      331C0FC2 
 248      E1846321 
 248      1C8BE058 
 248      01C7
 249 0098 4A3856C3 		.ascii	"J8V\303\261\006\216\265p\254\203c\003\034\233\341\330"
 249      B1068EB5 
 249      70AC8363 
 249      031C9BE1 
 249      D8
 250 00a9 02074071 		.ascii	"\002\007@q\333\340\330\016\307\0168\\<\307yH\272\300"
 250      DBE0D80E 
 250      C70E385C 
 250      3CC77948 
 250      BAC0
 251 00bb 716E38C8 		.ascii	"qn8\310\247\013\034)p\375<\034\213\340X\006\307\034"
 251      A70B1C29 
 251      70FD3C1C 
 251      8BE05806 
 251      C71C
 252 00cd C85803C7 		.ascii	"\310X\003\30728\010?\037\300Q\007\307\207p\324\303q"
ARM GAS  /tmp/ccvaPxlS.s 			page 19


 252      3238083F 
 252      1FC05107 
 252      C78770D4 
 252      C371
 253 00df 038E9B70 		.ascii	"\003\216\233p\334\205\203\007\246\\p\270\001\247#\234"
 253      DC858307 
 253      A65C70B8 
 253      01A7239C 
 254 00ef 1F83A32B 		.ascii	"\037\203\243+\034\275\340x\030\216G\234\234\346C\236"
 254      1CBDE078 
 254      188E479C 
 254      9CE6439E 
 255 00ff 950AE78D 		.ascii	"\225\012\347\215\220\267#\234\323$\271~\011\344\327"
 255      90B7239C 
 255      D324B97E 
 255      09E4D7
 256 010e 70FC1B1C 		.ascii	"p\374\033\034\377\016\307Z\370\375\177\302\371\011)"
 256      FF0EC75A 
 256      F8FD7FC2 
 256      F90929
 257 011d BF53CA5B 		.ascii	"\277S\312['\361C\370\"\"\374\021\310\237\004\3553\210"
 257      27F143F8 
 257      2222FC11 
 257      C89F04ED 
 257      3388
 258 012f 2C841F22 		.ascii	",\204\037\"+\221\363g8\237\223\344'8p\342nI\347\347"
 258      2B91F367 
 258      389F93E4 
 258      273870E2 
 258      6E49E7E7 
 259 0143 99BCE4B3 		.ascii	"\231\274\344\263\310F\376E:\371\211\016\373\300\371"
 259      C846FE45 
 259      3AF9890E 
 259      FBC0F9
 260 0152 AAA0C8B8 		.ascii	"\252\240\310\270\002\256c\300s\177I\367\004g\207@\237"
 260      02AE63C0 
 260      737F49F7 
 260      04678740 
 260      9F
 261 0163 F1247C59 		.ascii	"\361$|Y\017\327\353\340\330\015\337\377\003\276\377"
 261      0FD7EBE0 
 261      D80DDFFF 
 261      03BEFF
 262 0172 C6499F87 		.ascii	"\306I\237\207e\005\327O\301!\300\361\264\223\226e\253"
 262      6505D74F 
 262      C121C0F1 
 262      B4939665 
 262      AB
 263 0183 43E12BC3 		.ascii	"C\341+\303\251\224s\007\270\277\267\223\226\375- }\340"
 263      A9947307 
 263      B8BFB793 
 263      96FD2D20 
 263      7DE0
 264 0195 FA058947 		.ascii	"\372\005\211G\331.\372:\265\366\262\313\241\330\221"
 264      D92EFA3A 
 264      B5F6B2CB 
 264      A1D891
ARM GAS  /tmp/ccvaPxlS.s 			page 20


 265 01a4 6C57B29D 		.ascii	"lW\262\235\021=l\205\374\333\340\250%\272\020\250\354"
 265      113D6C85 
 265      FCDBE0A8 
 265      25BA10A8 
 265      EC
 266 01b5 6DE45992 		.ascii	"m\344Y\222\254\244\374\211\035\020{ \372$\345tS\262"
 266      ACA4FC89 
 266      1D107B20 
 266      FA24E574 
 266      53B2
 267 01c7 937AC96E 		.ascii	"\223z\311n\210\2343\341<\025\216\351\016\255\235tdl"
 267      889C33E1 
 267      3C158EE9 
 267      0EAD9D74 
 267      646C
 268 01d9 84D81F49 		.ascii	"\204\330\037I\222u%\353\206\210qA\240\374\360\322}\344"
 268      927525EB 
 268      86887141 
 268      A0FCF0D2 
 268      7DE4
 269 01eb 3CDFA1CD 		.ascii	"<\337\241\315_\343P\364\313\346\377Y\222\203\227\356"
 269      5FE350F4 
 269      CBE6FF59 
 269      928397EE 
 270 01fb 23E7254C 		.ascii	"#\347%L~b\367\016N\233\227\227\362\362\322\357\344\274"
 270      7E62F70E 
 270      4E9B9797 
 270      F2F2D2EF 
 270      E4BC
 271 020d 8AC997CA 		.ascii	"\212\311\227\312M\024\305J\261\246Z|\261\251c\027n\222"
 271      4D14C54A 
 271      B1A65A7C 
 271      B1A96317 
 271      6E92
 272 021f 089FF459 		.ascii	"\010\237\364Y\035S\2707Ir\363R\261{w\216\373\033\357"
 272      1D53B837 
 272      4972F352 
 272      B17B778E 
 272      FB1BEF
 273 0232 E721C98B 		.ascii	"\347!\311\213\027i)\010\364kn\011\334\012\367\013~~"
 273      17692908 
 273      F46B6E09 
 273      DC0AF70B 
 273      7E7E
 274 0244 319F028C 		.ascii	"1\237\002\214\012|{\263\"\037\372\373\223\334Jz\377"
 274      0A7C7BB3 
 274      221FFAFB 
 274      93DC4A7A 
 274      FF
 275 0255 19F63602 		.ascii	"\031\3666\002J\356P\256\332\370\3703\233x\371\241=$"
 275      4AEE50AE 
 275      DAF8F833 
 275      9B78F9A1 
 275      3D24
 276 0267 B0457C17 		.ascii	"\260E|\027\274B\026E\211s\274C\312\222.\347pJ9\226#"
 276      BC421645 
 276      8973BC43 
ARM GAS  /tmp/ccvaPxlS.s 			page 21


 276      CA922EE7 
 276      704A3996 
 277 027c 382727C7 		.ascii	"8''\307/\272\253\030\320\313\267\220O5Q\023eW\312\337"
 277      2FBAAB18 
 277      D0CBB790 
 277      4F355113 
 277      6557CADF 
 278 0290 1C67B5A7 		.ascii	"\034g\265\247\004\260\3226\253\253\014X}\324\204\325"
 278      04B0D236 
 278      ABAB0C58 
 278      7DD484D5 
 279 02a0 15F65815 		.ascii	"\025\366X\025\005\031 ]\002Xc\233\325\017\014X\355e"
 279      0519205D 
 279      0258639B 
 279      D50F0C58 
 279      ED65
 280 02b2 C2EAEAC4 		.ascii	"\302\352\352\304\254\326\274\300\360\332Y\006\020$\200"
 280      ACD6BCC0 
 280      F0DA5906 
 280      102480
 281 02c1 75B6595D 		.ascii	"u\266Y]o\300*o\302\352Z\205UU\205\230\3251A\215\230"
 281      6FC02A6F 
 281      C2EA5A85 
 281      55558598 
 281      D531418D 
 282 02d6 D4BCB3E6 		.ascii	"\324\274\263\346\226 \212^?\277\001k\305@\036\200\226"
 282      96208A5E 
 282      3FBF016B 
 282      C5401E80 
 282      96
 283 02e7 F14F4A38 		.ascii	"\361OJ8~^\342E\375]\276\201\200\305+\202T\017\254\024"
 283      7E5EE245 
 283      FD5DBE81 
 283      80C52B82 
 283      540FAC14 
 284 02fb E7A5B8E5 		.ascii	"\347\245\270\345=.\201n\261\255\243\255\006:z\314DG"
 284      3D2E816E 
 284      B1ADA3AD 
 284      063A7ACC 
 284      4447
 285 030d 9BED59DE 		.ascii	"\233\355Y\336\2548\253\335$\200\355\266Y\2555`\265\253"
 285      AC38ABDD 
 285      2480EDB6 
 285      59AD3560 
 285      B5AB
 286 031f 09ABDB0C 		.ascii	"\011\253\333\014X\355\312MFV\233\224\202}U\316\233\246"
 286      58EDCA4D 
 286      46569B94 
 286      827D55CE 
 286      9BA6
 287 0331 146C6DF5 		.ascii	"\024lm\3657}\260`\353\370\256P\260U\274\266d\315P\010"
 287      377DB060 
 287      EBF8AE50 
 287      B055BCB6 
 287      64CD5008 
 288 0345 07F59093 		.ascii	"\007\365\220\223\346\241\3563\266\253!Mt\322tN\203\246"
 288      E6A1EE33 
ARM GAS  /tmp/ccvaPxlS.s 			page 22


 288      B6AB214D 
 288      74D2744E 
 288      83A6
 289 0357 F9FC92AB 		.ascii	"\371\374\222\253\001nc\307\252\337\357!\326\354\341"
 289      016E63C7 
 289      AADFEF21 
 289      D6ECE1
 290 0366 CD98171D 		.ascii	"\315\230\027\035\362s{+\334\357\230x\314\215\334\357"
 290      F2737B2B 
 290      DCEF9878 
 290      CC8DDCEF 
 291 0376 41EE0F9B 		.ascii	"A\356\017\233s\257\205\361\363\037\363\002\320\275\254"
 291      73AF85F1 
 291      F31FF302 
 291      D0BDAC
 292 0385 08D7E7A2 		.ascii	"\010\327\347\242\010{-\211\320zb\376/\304\346\030\357"
 292      087B2D89 
 292      D07A62FE 
 292      2FC4E618 
 292      EF
 293 0396 E1AAB13A 		.ascii	"\341\252\261:\275QiV\235n\275\373\005\325z\023d\022"
 293      BD516956 
 293      9D6EBDFB 
 293      05D57A13 
 293      6412
 294 03a8 B8F7042D 		.ascii	"\270\367\004-\337\026\200\010W\373!\263\206\353-\325"
 294      DF168008 
 294      57FB21B3 
 294      86EB2DD5 
 295 03b8 9D08D724 		.ascii	"\235\010\327$=\001\327\016\016\233\3409\002\265Zg\212"
 295      3D01D70E 
 295      0E9BE039 
 295      02B55A67 
 295      8A
 296 03c9 92B65449 		.ascii	"\222\266TI\343U\267\256U\222\005U\362v%\331\241J\376"
 296      E355B7AE 
 296      55920555 
 296      F27625D9 
 296      A14AFE
 297 03dc 484996E3 		.ascii	"HI\226\343\011=\037\240\372\250E\361\363\237\362\277"
 297      093D1FA0 
 297      FAA845F1 
 297      F39FF2BF 
 298 03ec 06FA19EF 		.ascii	"\006\372\031\357\320\315&p\007Q[\244h\364\024\023\257"
 298      D0CD2670 
 298      07515BA4 
 298      68F41413 
 298      AF
 299 03fd 3FAA4AA3 		.ascii	"?\252J\243)\256\346\272\211{\177\340\247V\211M\275\365"
 299      29AEE6BA 
 299      897B7FE0 
 299      A756894D 
 299      BDF5
 300 040f 6C0E6EE1 		.ascii	"l\016n\341\023\327\231\330\211\023|\272Y\305\360\363"
 300      13D799D8 
 300      89137CBA 
 300      59C5F0F3 
ARM GAS  /tmp/ccvaPxlS.s 			page 23


 301 041f 27400C2B 		.ascii	"'@\014+\325\347\024k{3O\240\355\235\262d{\013N\314o"
 301      D5E7146B 
 301      7B334FA0 
 301      ED9DB264 
 301      7B0B4ECC 
 302 0434 5F7D1EE6 		.ascii	"_}\036\346\246K^G\344\243~\376\317\017\031z\217\177"
 302      A64B5E47 
 302      E4A37EFE 
 302      CF0F197A 
 302      8F7F
 303 0446 F00F2B36 		.ascii	"\360\017+6A\022v\003\222\237\177Y\011\250\364rJzh\235"
 303      41127603 
 303      929F7F59 
 303      09A8F472 
 303      4A7A689D 
 304 045a F32061B4 		.ascii	"\363 a\264\031\262\010\334\227\214\015k\030\242\017"
 304      19B208DC 
 304      978C0D6B 
 304      18A20F
 305 0469 3262E27B 		.ascii	"2b\342{|\246\236\234\355~\023\270\357\3609\247\224\322"
 305      7CA69E9C 
 305      ED7E13B8 
 305      EFF039A7 
 305      94D2
 306 047b D7C09996 		.ascii	"\327\300\231\226~\254VOa:\345\244\015|\244z\273m\346"
 306      7EAC564F 
 306      613AE5A4 
 306      0D7CA47A 
 306      BB6DE6
 307 048e F55E55A0 		.ascii	"\365^U\240T?\177\016\035\316R\207\251\303i\037@\375"
 307      543F7F0E 
 307      1DCE5287 
 307      A9C3691F 
 307      40FD
 308 04a0 C416F8A6 		.ascii	"\304\026\370\246\266&\036\275\301O\346E>\256*\266\255"
 308      B6261EBD 
 308      C14FE645 
 308      3EAE2AB6 
 308      AD
 309 04b1 AD49982D 		.ascii	"\255I\230-\306\3069\260q\251\222DHTR\315G\347\356\335"
 309      C6C639B0 
 309      71A99244 
 309      485452CD 
 309      47E7EEDD 
 310 04c5 CD5702E3 		.ascii	"\315W\002\343R\213\237(\213\237\277\204\025\320\243"
 310      528B9F28 
 310      8B9FBF84 
 310      15D0A3
 311 04d4 6DC23D29 		.ascii	"m\302=)\312\005\351\027w\"\205q\214\221\337\002\274"
 311      CA05E917 
 311      77228571 
 311      8C91DF02 
 311      BC
 312 04e5 C4D1E405 		.ascii	"\304\321\344\005\037\376\001e\276\212\001\305t'\033"
 312      1FFE0165 
 312      BE8A01C5 
 312      74271B
ARM GAS  /tmp/ccvaPxlS.s 			page 24


 313 04f4 51789888 		.ascii	"Qx\230\210\302\234\035\233\267\013\\\015>\364\247\344"
 313      C29C1D9B 
 313      B70B5C0D 
 313      3EF4A7E4 
 314 0504 4C695C15 		.ascii	"Li\\\025X\303\305^+7\212\342\004\267\237\377\031\305"
 314      58C3C55E 
 314      2B378AE2 
 314      04B79FFF 
 314      19C5
 315 0516 58621B31 		.ascii	"Xb\0331]S\264;\210%LI\223\341VX\201\363\0322\030\373"
 315      5D53B43B 
 315      88254C49 
 315      93E15658 
 315      81F31A32 
 316 052c 500BB7C6 		.ascii	"P\013\267\3066\234\226\273z-\334z+p\235\215\271;\250"
 316      369C96BB 
 316      7A2DDC7A 
 316      2B709D8D 
 316      B93BA8
 317 053f 85DB621B 		.ascii	"\205\333b\033N\313\335a-\\\255\025\270\356:\334\351"
 317      4ECBDD61 
 317      2D5CAD15 
 317      B8EE3ADC 
 317      E9
 318 0550 7DD495D6 		.ascii	"}\324\225\326\317_\300\372q\221\377%\320\026\244\267"
 318      CF5FC0FA 
 318      7191FF25 
 318      D016A4B7 
 319 0560 90DE41DA 		.ascii	"\220\336A\332\212\264\015\351X\341\227\012H\202\332"
 319      8AB40DE9 
 319      58E1970A 
 319      4882DA
 320 056f D0FAEDC1 		.ascii	"\320\372\355\301^\333E\261\263\237\377\021\235\3518"
 320      5EDB45B1 
 320      B39FFF11 
 320      9DE938
 321 057e 5742677A 		.ascii	"WBgz\316@*\302\350\033\202\2613e~\203\300\303e\327\231"
 321      CE402AC2 
 321      E81B82B1 
 321      33657E83 
 321      C0C365D7 
 322 0593 AA748E4D 		.ascii	"\252t\216M\351\265/\371\252*qEo\251\346\213\325\342"
 322      E9B52FF9 
 322      AA2A7145 
 322      6FA9E68B 
 322      D5E2
 323 05a5 132B949A 		.ascii	"\023+\224\232\257\351\346\304}\321\266\337`\315\177"
 323      AFE9E6C4 
 323      7DD1B6DF 
 323      60CD7F
 324 05b4 5320E933 		.ascii	"S \3513\\\272.\304\002\320\344\005\313\251\013y\013"
 324      5CBA2EC4 
 324      02D0E405 
 324      CBA90B79 
 324      0B
 325 05c5 8116B858 		.ascii	"\201\026\270X\027\342`\\\210C\353\023\034)\312E[\233"
 325      17E2605C 
ARM GAS  /tmp/ccvaPxlS.s 			page 25


 325      8843EB13 
 325      1C29CA45 
 325      5B9B
 326 05d7 7608C1FC 		.ascii	"v\010\301\374f\201[\305*O\303\244I\355D\345\335\220"
 326      66815BC5 
 326      2A4FC3A4 
 326      49ED44E5 
 326      DD90
 327 05e9 9427EB62 		.ascii	"\224'\353b\275m\304\316\355\312\230\232\3507h\242\247"
 327      BD6DC4CE 
 327      EDCA989A 
 327      E83768A2 
 327      A7
 328 05fa D1087F40 		.ascii	"\321\010\177@:^ \364=\265A\012\334\346v:\243Q\207\012"
 328      3A5E20F4 
 328      3DB5410A 
 328      DCE6763A 
 328      A351870A 
 329 060e 4F094F38 		.ascii	"O\011O8sD#\243<\256tR\004\256\336\305\304o\366\214."
 329      734423A3 
 329      3CAE7452 
 329      04AEDEC5 
 329      C46FF68C 
 330 0623 36FF9BB4 		.ascii	"6\377\233\264I~\263\346\273\306)#e)\0263\367b\254\373"
 330      497EB3E6 
 330      BBC62923 
 330      65291633 
 330      F762ACFB 
 331 0637 0EAC66D3 		.ascii	"\016\254f\323\005\322|\337s\2316\337Z\034\201\033\357"
 331      05D27CDF 
 331      739936DF 
 331      5A1C811B 
 331      EF
 332 0648 26596609 		.ascii	"&Yf\011\332&\274\371\310\225\346Gg!2\371\311<l\273\243"
 332      DA26BCF9 
 332      C895E647 
 332      672132F9 
 332      C93C6CBB 
 333 065d D7EBA16C 		.ascii	"\327\353\241l\031\351p\036[y\033\342\254$\027\011\335"
 333      19E9701E 
 333      5B791BE2 
 333      AC241709 
 333      DD
 334 066e 6B003D52 		.ascii	"k\000=R\\\201\373\3146\230\266P\2466\316C\201\254G\000"
 334      5C81FBCC 
 334      3698B650 
 334      A636CE43 
 334      81AC4700 
 335 0682 C76FFCD8 		.ascii	"\307o\374\330c'\252l!\032\377\373\036\326\026/\263\243"
 335      6327AA6C 
 335      211AFFFB 
 335      1ED6162F 
 335      B3A3
 336 0694 0A561AF5 		.ascii	"\012V\032\365\245\036\013\202\030\326JR\222\007{\326"
 336      A51E0B82 
 336      18D64A52 
 336      92077BD6 
ARM GAS  /tmp/ccvaPxlS.s 			page 26


 337 06a4 62A32E77 		.ascii	"b\243.w\010\334F\202@\213Jyf\255\341\370\235\203OQk"
 337      08DC4682 
 337      408B4A79 
 337      66ADE1F8 
 337      9D834F51 
 338 06b9 5866C91A 		.ascii	"Xf\311\032\266\355\237i)&\255\211\217p\375\012\037\177"
 338      B6ED9F69 
 338      2926AD89 
 338      8F70FD0A 
 338      1F7F
 339 06cb 111FBF9A 		.ascii	"\021\037\277\232}\374\365\266\037\377L\037\277\332\322"
 339      7DFCF5B6 
 339      1FFF4C1F 
 339      BFDAD2
 340 06da E3371C9E 		.ascii	"\3437\034\236\246g\214\006\335\006\271\370\356\\zb\001"
 340      A6678C06 
 340      DD06B9F8 
 340      EE5C7A62 
 340      01
 341 06eb 3E641D1A 		.ascii	">d\035\032\320v/[|\317\247\252\237\205\3375\366\273"
 341      D0762F5B 
 341      7CCFA7AA 
 341      9F85DF35 
 341      F6BB
 342 06fd DB2B739F 		.ascii	"\333+s\237\224\375\202\230M9r\370Ey\370\3306\242\326"
 342      94FD8298 
 342      4D3972F8 
 342      4579F8D8 
 342      36A2D6
 343 0710 88371FC6 		.ascii	"\2107\037\306\032A\301\032\255\200\031\273\367\330V"
 343      1A41C11A 
 343      AD8019BB 
 343      F7D856
 344 071f 35D83EDB 		.ascii	"5\330>\333`Z\316\266\253\301>\263\002f\024x\001\330"
 344      605ACEB6 
 344      ABC13EB3 
 344      02661478 
 344      01D8
 345 0731 0E35D841 		.ascii	"\0165\330A\333`Z\316>T\203\035\261\002\246\027tI`\365"
 345      DB605ACE 
 345      3E54831D 
 345      B102A617 
 345      744960F5 
 346 0745 6AB063B6 		.ascii	"j\260c\266\301\264\234\035T\203\235\260\002\226\256"
 346      C1B49C1D 
 346      54839DB0 
 346      0296AE
 347 0754 C359FC63 		.ascii	"\303Y\374c\344\227W\011\252\266\355\033\257\354\020"
 347      E4975709 
 347      AAB6ED1B 
 347      AFEC10
 348 0763 6CDA34A7 		.ascii	"l\3324\247`\234\361\332\365`\032\271I[\324s\207T/\250"
 348      609CF1DA 
 348      F5601AB9 
 348      495BD473 
 348      87542FA8 
 349 0777 73FFD10A 		.ascii	"s\377\321\012b\002\203\231\323\250j).\331\006cL\271"
ARM GAS  /tmp/ccvaPxlS.s 			page 27


 349      62028399 
 349      D3A86A29 
 349      2ED90663 
 349      4CB9
 350 0789 916DBEE3 		.ascii	"\221m\276\343\303\3201\303\341.?\277\004#\232\305\314"
 350      C3D031C3 
 350      E12E3FBF 
 350      04239AC5 
 350      CC
 351 079a C0B2E114 		.ascii	"\300\262\341\024K\273b\332\247.\246\233VdH`\247\247"
 351      4BBB62DA 
 351      A72EA69B 
 351      56644860 
 351      A7A7
 352 07ac 1BE7E188 		.ascii	"\033\347\341\210\237\365\001\364\3437\016J\255\335\001"
 352      9FF501F4 
 352      E3370E4A 
 352      ADDD01
 353 07bb 6CEDDA18 		.ascii	"l\355\332\030wi\035\351\350\334\017\376\003\303\336"
 353      77691DE9 
 353      E8DC0FFE 
 353      03C3DE
 354 07ca 4308F466 		.ascii	"C\010\364fJ\262"
 354      4AB2
 355 07d0 409317CC 		.ascii	"@\223\027\314\177\016\201\276@\240I)\254\003\2679\250"
 355      7F0E81BE 
 355      40A04929 
 355      AC03B739 
 355      A8
 356 07e1 FFAFBA57 		.ascii	"\377\257\272W\340\346\2440\305\2457\342g\354\011\240"
 356      E0E6A430 
 356      C5A537E2 
 356      67EC09A0 
 357 07f1 467CD5AB 		.ascii	"F|\325\253v\255(V\271\355\024X\223T`\307Q=\213\332\251"
 357      76AD2856 
 357      B9ED1458 
 357      935460C7 
 357      513D8BDA 
 358 0806 87E8DF9E 		.ascii	"\207\350\337\236\034\253l\313\361\004#G\354\011\373"
 358      1CAB6CCB 
 358      F1042347 
 358      EC09FB
 359 0815 727C25C9 		.ascii	"r|%\311\361\015\312\261\361\277@\216\035\266\345\350"
 359      F10DCAB1 
 359      F1BF408E 
 359      1DB6E5E8 
 360 0825 AD920363 		.ascii	"\255\222\003c\254\247i\214\325\215\233\2228\306\"\374"
 360      ACA7698C 
 360      D58D9B92 
 360      38C622FC 
 361 0835 7C2B74D3 		.ascii	"|+t\323\016\230\035\337\307\247\323d\263\340F\214\265"
 361      0E981DDF 
 361      C7A7D364 
 361      B3E0468C 
 361      B5
 362 0846 EC5305A6 		.ascii	"\354S\005\246\242\265\300\364\222\244\261\263\250\261"
 362      A2B5C0F4 
ARM GAS  /tmp/ccvaPxlS.s 			page 28


 362      92A4B1B3 
 362      A8B1
 363 0854 DD7A35CC 		.ascii	"\335z5\314\022\322\321\023\037o\300a7\350\262#Tc\322"
 363      12D2D113 
 363      1F6FC061 
 363      37E8B223 
 363      5463D2
 364 0867 50934F6F 		.ascii	"P\223Oo\243\225\365'\004\372\274])\272\231Btk\013\021"
 364      A395F527 
 364      04FABC5D 
 364      29BA9942 
 364      746B0B11 
 365 087b BE9227DD 		.ascii	"\276\222'\335$q2\377w)\205|\361p\377\355\371\004\356"
 365      247132FF 
 365      7729857C 
 365      F170FFED 
 365      F904EE
 366 088e 38B24F0A 		.ascii	"8\262O\0120\231\320\017\015\3507\265R\023G\013\251\371"
 366      3099D00F 
 366      0DE837B5 
 366      5213470B 
 366      A9F9
 367 08a0 BE102B63 		.ascii	"\276\020+c\233\336\242\0352\014S\005\356\334}\302\035"
 367      9BDEA21D 
 367      320C5305 
 367      EEDC7DC2 
 367      1D
 368 08b1 DA6FBF3B 		.ascii	"\332o\277;\024{\204Z\335u\024\350R\273\022N\252;t7Y"
 368      147B845A 
 368      DD7514E8 
 368      52BB124E 
 368      AA3B7437 
 369 08c6 41E21F81 		.ascii	"A\342\037\201\253\352`\241\265LOTZ7\237\266\330\245"
 369      ABEA60A1 
 369      B54C4F54 
 369      5A379FB6 
 369      D8A5
 370 08d8 8A77D47F 		.ascii	"\212w\324\177\354\336\204\312\270\203\035\365\361\035"
 370      ECDE84CA 
 370      B8831DF5 
 370      F11D
 371 08e6 743BEA89 		.ascii	"t;\352\211\272f30\313\275\366\035\365\203=h\337\350"
 371      BA663330 
 371      CBBDF61D 
 371      F5833D68 
 371      DFE8
 372 08f8 9EB5AE59 		.ascii	"\236\265\256Y\265l\027\264\377\375\276 H\260\311\352"
 372      B56C17B4 
 372      FFFDBE20 
 372      48B0C9EA 
 373 0908 5353840A 		.ascii	"SS\204\012\177~^t\220\010g\254C3B\263\314\266\356\323"
 373      7F7E5E74 
 373      900867AC 
 373      433342B3 
 373      CCB6EED3 
 374 091c D5BA8FDD 		.ascii	"\325\272\217\335\331?\217'\374\353\364&_P\307\222q\305"
 374      D93F8F27 
ARM GAS  /tmp/ccvaPxlS.s 			page 29


 374      FCEBF426 
 374      5F50C792 
 374      71C5
 375 092e 37F7F804 		.ascii	"7\367\370\004\3253\316A\024\277\336@\361/\030\341\010"
 375      D533CE41 
 375      14BFDE40 
 375      F12F18E1 
 375      08
 376 093f 5C0CB38C 		.ascii	"\\\014\263\214w\264S|\323#T\361\344's\305\037\325U<"
 376      77B4537C 
 376      D32354F1 
 376      E42773C5 
 376      1FD5553C 
 377 0953 C99B5C8D 		.ascii	"\311\233\\\215\374R\031\355\360\363\013l\203\245'*E"
 377      FC5219ED 
 377      F0F30B6C 
 377      83A5272A 
 377      45
 378 0964 45583F3F 		.ascii	"EX??\001Kq\242\203\214\215\275\245-\313ClYj4']>a$\202"
 378      014B71A2 
 378      838C8DBD 
 378      A52DCB43 
 378      6C596A34 
 379 097e 189B7A60 		.ascii	"\030\233z`\236\244\022\352\363NZ\261\215\336\306*\231"
 379      9EA412EA 
 379      F34E5AB1 
 379      8DDEC62A 
 379      99
 380 098f 7F005542 		.ascii	"\177\000UB\375\315\031\333`\351\032\260\235\357Z\234"
 380      FDCD19DB 
 380      60E91AB0 
 380      9DEF5A9C 
 381 099f C78FCF87 		.ascii	"\307\217\317\207uF\245\\\300\347Ne\315\345\330\266C"
 381      7546A55C 
 381      C0E74E65 
 381      CDE5D8B6 
 381      43
 382 09b0 E3F9B1D8 		.ascii	"\343\371\261\330tN\265`/\320\316\177\237\202\243\377"
 382      744EB560 
 382      2FD0CE7F 
 382      9F82A3FF 
 383 09c0 D46E97A7 		.ascii	"\324n\227\247\312\250\011T\235\300Z\356\234\373\204"
 383      CAA80954 
 383      9DC05AEE 
 383      9CFB84
 384 09cf 4E26D03E 		.ascii	"N&\320>\317:\026\316\346X\300\275\240\376d\263\261b"
 384      CF3A16CE 
 384      E658C0BD 
 384      A0FE64B3 
 384      B162
 385 09e1 E4A9E65A 		.ascii	"\344\251\346Z\022\351\314C\231\266\245\262-\002\325"
 385      12E9CC43 
 385      99B6A5B2 
 385      2D02D5
 386 09f0 8CCA10A7 		.ascii	"\214\312\020\247\252\014q:\032\342\0144\304YH\347\250"
 386      AA0C713A 
 386      1AE20C34 
ARM GAS  /tmp/ccvaPxlS.s 			page 30


 386      C45948E7 
 386      A8
 387 0a01 CDD128D8 		.ascii	"\315\321(\330\232\353P\365\223v\331\226;\235)\035\243"
 387      9AEB50F5 
 387      9376D996 
 387      3B9D291D 
 387      A3
 388 0a12 C74C513F 		.ascii	"\307LQ?\246!\325\202\355=g\250^\342\324\377(\207\003"
 388      A621D582 
 388      ED3D67A8 
 388      5EE2D4FF 
 388      288703
 389 0a25 7430F1A0 		.ascii	"t0\361\240mD\2555_~W\023\016\234\260\002\367\202\016"
 389      6D44AD35 
 389      5F7E5713 
 389      0E9CB002 
 389      F7820E
 390 0a38 837A1FF5 		.ascii	"\203z\037\365\3601\024\212@\212i.\216\245\317GZ\203"
 390      F031148A 
 390      408A692E 
 390      8EA5CF47 
 390      5A83
 391 0a4a 7429D2BD 		.ascii	"t)\322\275H\033\221~\202\3643\244_!=\205\364\014\322"
 391      481B917E 
 391      82F433A4 
 391      5F213D85 
 391      F40CD2
 392 0a5d DB48ABB0 		.ascii	"\333H\253\260\240\337A\372\036\322\311H\027\"]lf\000"
 392      A0DF41FA 
 392      1ED2C948 
 392      17225D6C 
 392      6600
 393 0a6f 522B3073 		.ascii	"R+0s\327\361\236k\320WOC\363\237\233\306Z\336<\201\031"
 393      D7F19E6B 
 393      D0574F43 
 393      F39F9BC6 
 393      5ADE3C81 
 394 0a84 DC6B373A 		.ascii	"\334k7:\2756\315\302(\177\202q\330\272}\007\216\361"
 394      BD36CDC2 
 394      287F8271 
 394      D8BA7D07 
 394      8EF1
 395 0a96 5345B1A9 		.ascii	"SE\261\2517\265\177\340\305!h\021\2655&\2015J\205zj"
 395      37B57FE0 
 395      C5216811 
 395      B5352681 
 395      354A857A 
 396 0aab FE026317 		.ascii	"\376\002c\027\265\302h\2305>\365\377\315\223t\352\177"
 396      B5C26898 
 396      353EF5FF 
 396      CD9374EA 
 396      7F
 397 0abc 35D6C62D 		.ascii	"5\326\306-\214NLqp\355\035\343\346b\033V}B\247\376\327"
 397      8C4E4C71 
 397      70ED1DE3 
 397      E6621B56 
 397      7D42A7FE 
ARM GAS  /tmp/ccvaPxlS.s 			page 31


 398 0ad1 9A3BB971 		.ascii	"\232;\271qU\261-\253>\021f\211\261Jy\352?\321,\0314"
 398      55B12DAB 
 398      3E116689 
 398      B14A79EA 
 398      3FD12C19 
 399 0ae6 45685AE6 		.ascii	"EhZ\346\023Y\273Q\224\265J-\327\233v\322\030\215\272"
 399      1359BB51 
 399      94B54A2D 
 399      D79B76D2 
 399      188DBA
 400 0af9 A820465A 		.ascii	"\250 FZu\216G\256\344y\254\275\266\001;k\304\254\225"
 400      758E47AE 
 400      E479ACBD 
 400      B6013B6B 
 400      C4AC95
 401 0b0c C5F4F31B 		.ascii	"\305\364\363\033\034\330\335\261\015\250-\371:\226\303"
 401      1CD8DDB1 
 401      0DA82DF9 
 401      3A96C3
 402 0b1b 23B6017B 		.ascii	"#\266\001{k8\334\311rx\312\012`\202\026b\027\313a\263"
 402      6B38DCC9 
 402      7278CA0A 
 402      60821662 
 402      17CB61B3 
 403 0b2f 6D40AD0E 		.ascii	"m@\255\016\017\261\034\236\267\015\250\325\341\021\226"
 403      0FB11C9E 
 403      B70DA8D5 
 403      E11196
 404 0b3e C30BB601 		.ascii	"\303\013\266\001\265:<\312r\330b\0050\3010\3451\226"
 404      B53A3CCA 
 404      72D86205 
 404      30C130E5 
 404      3196
 405 0b50 C356DB80 		.ascii	"\303V\333\200Z\035\036g9\034\377\200]@\255\016O\260"
 405      5A1D1E67 
 405      391CFF80 
 405      5D40AD0E 
 405      4FB0
 406 0b62 1CBE6B1B 		.ascii	"\034\276k\033P\253\303S,\207\263\254\000&\032\331d9"
 406      50ABC353 
 406      2C87B3AC 
 406      00261AD9 
 406      6439
 407 0b74 5C601B50 		.ascii	"\\`\033P\253\303\313,\207+m\003jux\225\345p\203m@\255"
 407      ABC3CB2C 
 407      872B6D03 
 407      6A757895 
 407      E570836D 
 408 0b8a 0EAFB31C 		.ascii	"\016\257\263\034\326Y\001L7\326a\013\313\341n\333\200"
 408      D659014C 
 408      37D6610B 
 408      CBE16EDB 
 408      80
 409 0b9b ECBCBEEA 		.ascii	"\354\274\276\352\243nE\374\374:\214\362\326c\363\276"
 409      A36E45FC 
 409      FC3A8CF2 
 409      D663F3BE 
ARM GAS  /tmp/ccvaPxlS.s 			page 32


 410 0bab 09E916A4 		.ascii	"\011\351\026\244\333\220\326\"\255C\272\023\351.\244"
 410      DB90D622 
 410      AD43BA13 
 410      E92EA4
 411 0bba BB917E84 		.ascii	"\273\221~\204t/\322F\244\237 \335\217\3643\244\237#"
 411      742FD246 
 411      A49F20DD 
 411      8FF433A4 
 411      9F23
 412 0bcc 3D84F488 		.ascii	"=\204\364\210\225\370q\225:\260\333\377\200\205  \301"
 412      95F87195 
 412      3AB0DBFF 
 412      80852020 
 412      C1
 413 0bdd C06DDDC4 		.ascii	"\300m\335\304S\367\265T\263y\327\305\335\177 \255\266"
 413      53F7B554 
 413      B379D7C5 
 413      DD7F20AD 
 413      B6
 414 0bee F972CDE3 		.ascii	"\371r\315\343\016k\3135O\260M\370\324\003\270\\\363"
 414      0E6BCB35 
 414      4FB04DF8 
 414      D403B85C 
 414      F3
 415 0bff 84A55EED 		.ascii	"\204\245^\355\364\244zI\361\020\344lO\032\202\234\306"
 415      F4A47A49 
 415      F110E46C 
 415      4F1A829C 
 415      C6
 416 0c10 10644647 		.ascii	"\020dFG\323\345\013Z\034\302\337\031\226\377\326+\322"
 416      D3E50B5A 
 416      1CC2DF19 
 416      96FFD62B 
 416      D2
 417 0c21 EAC33396 		.ascii	"\352\3033\226B\220\311W\245\325\207\362B\253U\310\305"
 417      4290C957 
 417      A5D587F2 
 417      42AB55C8 
 417      C5
 418 0c32 99E43AE6 		.ascii	"\231\344:\346\0008\345\252f\335\326Z\333p\351\032\270"
 418      0038E5AA 
 418      66DDD65A 
 418      DB70E91A 
 418      B8
 419 0c43 695AB8CD 		.ascii	"iZ\270\315V\340\022,\241\233\241\205\253\265\015\227"
 419      56E0122C 
 419      A19BA185 
 419      ABB50D97 
 420 0c53 AEA74BAE 		.ascii	"\256\247K\256]a\370\371o\261&\177\2075\355,\322\037"
 420      5D61F8F9 
 420      6FB1267F 
 420      8735ED2C 
 420      D21F
 421 0c65 919EB752 		.ascii	"\221\236\267R\353\276Q\327\272zd\362D\262C%Pi\216?G"
 421      EBBE51D7 
 421      BA7A64F2 
 421      44B24325 
ARM GAS  /tmp/ccvaPxlS.s 			page 33


 421      50698E3F 
 422 0c7a 27109915 		.ascii	"'\020\231\025\001?\363\306\357/\\\324t\350ls\220\256"
 422      013FF3C6 
 422      EF2F5CD4 
 422      74E86C73 
 422      90AE
 423 0c8c E62036FB 		.ascii	"\346 6\373\000\235_\223'\271\366\263xz\023\016\011\242"
 423      009D5F93 
 423      27B9F6B3 
 423      787A130E 
 423      09A2
 424 0c9e AB790752 		.ascii	"\253y\007R\327\277*\203\035\266\015\346\325\200\315"
 424      D7BF2A83 
 424      1DB60DE6 
 424      D580CD
 425 0cad 57839DB4 		.ascii	"W\203\235\264\015f\264d\353$\226\377),\363\013H/!\275"
 425      0D66B464 
 425      EB2496FF 
 425      292CF30B 
 425      482F21BD 
 426 0cc1 82F49A76 		.ascii	"\202\364\232v(\351[\246\352\313\376G\205\2528*\316*"
 426      28E95BA6 
 426      EACBFE47 
 426      85AA382A 
 426      CE2A
 427 0cd3 AE51D91E 		.ascii	"\256Q\331\036S\227\355\215\216\026|z\272\261u\325M<"
 427      5397ED8D 
 427      8E167C7A 
 427      BAB175D5 
 427      4D3C
 428 0ce5 2DF9740A 		.ascii	"-\371t\012,pwm#j\255e\372\351\371Rg\3752V\322\312N\026"
 428      2C70776D 
 428      236AAD65 
 428      FAE9F952 
 428      67FD3256 
 429 0cfd F00CC7D9 		.ascii	"\360\014\307\331\300ZN\343\270\030\005{\3336X:g\370"
 429      C05A4EE3 
 429      B818057B 
 429      DB36583A 
 429      67F8
 430 0d0f 51BF69E2 		.ascii	"Q\277i\342\347\033pJ\273\021\027\323}\205t*v\342W`\311"
 430      E71B704A 
 430      BB1117D3 
 430      7D85742A 
 430      76E25760 
 431 0d24 AC44FA25 		.ascii	"\254D\372%\322\233Ho#\275k\245\304v\253\027\334\315"
 431      D29B486F 
 431      23BD6BA5 
 431      C476AB17 
 431      DCCD
 432 0d36 4011EA93 		.ascii	"@\021\352\223]2\337\\\333pl\241\\b\307q}\352\\\333\210"
 432      5D32DF5C 
 432      DB706CA1 
 432      5C62C771 
 432      7DEA5CDB 
 433 0d4b DA12BB41 		.ascii	"\332\022\273A\007c)\330B+`z\225[_\303\365*\015\357B"
 433      076329D8 
ARM GAS  /tmp/ccvaPxlS.s 			page 34


 433      422B607A 
 433      955B5FC3 
 433      F52A0DEF 
 434 0d60 0DC7E88A 		.ascii	"\015\307\350\212\\\324\336X\247\005\355\355h\367\212"
 434      5CD4DE58 
 434      A705EDED 
 434      68F78A
 435 0d6f 9C85099C 		.ascii	"\234\205\011\234\326o\017>\276\012\007M\252\360=\231"
 435      D66F0F3E 
 435      BE0A074D 
 435      AAF03D99 
 436 0d7f E59DFE0B 		.ascii	"\345\235\376\013&p\274\334x\372&\2208\226\177]\345\217"
 436      2670BCDC 
 436      78FA2690 
 436      38967F5D 
 436      E58F
 437 0d91 543E46FD 		.ascii	"T>F\375\316j\265\323K\006\355;ig\330UO$7\310\222\323"
 437      CE6AB5D3 
 437      4B06ED3B 
 437      6967D855 
 437      4F2437C8 
 438 0da7 6BF90AB2 		.ascii	"k\371\012\262\364\342\346\213\261K\315\247\356\234\353"
 438      F4E2E68B 
 438      B14BCDA7 
 438      EE9CEB
 439 0db6 BE9AB87F 		.ascii	"\276\232\270\177\361^\333\337\307V\362\314\333$N\343"
 439      F15EDBDF 
 439      C756F2CC 
 439      DB244EE3 
 440 0dc6 3660A253 		.ascii	"6`\242S\3636\211n\314f6\365\263\245\355r\017\032\344"
 440      F336896E 
 440      CC6636F5 
 440      B3A5ED72 
 440      0F1AE4
 441 0dd9 BCE32441 		.ascii	"\274\343$A\316\242\3166\247~\010#\223\234L\220\263\205"
 441      CEA2CE36 
 441      A77E0823 
 441      939C4C90 
 441      B385
 442 0deb BE9246D2 		.ascii	"\276\222F\322\315\203\264\332\2065\206A\032\023s\262"
 442      CD83B4DA 
 442      86358641 
 442      1A1373B2 
 443 0dfb A3D9DB80 		.ascii	"\243\331\333\200[\3230\314\317Ow\222\241\254\031,\227"
 443      5BD330CC 
 443      CF4F7792 
 443      A1AC192C 
 443      97
 444 0e0c 53AB91CB 		.ascii	"S\253\221\313\031\226\270\234\336\200C\324\306/\376"
 444      1996B89C 
 444      DE8043D4 
 444      C62FFE
 445 0e1b 5837DD5D 		.ascii	"X7\335]\313\316\374q\035\232\356\\4\335\312.\254\351"
 445      CBCEFC71 
 445      1D9AEE5C 
 445      34DDCA2E 
 445      ACE9
ARM GAS  /tmp/ccvaPxlS.s 			page 35


 446 0e2d BA18CB75 		.ascii	"\272\030\313ui-\327\225\242\\H\226kT4s\234\314\033G"
 446      692DD795 
 446      A25C4896 
 446      6B543473 
 446      9CCC1B47 
 447 0e41 CFA7EADA 		.ascii	"\317\247\352\332\213\245EA\207q\204\313d\275\202\021"
 447      8BA54541 
 447      877184CB 
 447      64BD8211 
 448 0e51 27354EF5 		.ascii	"'5N\365\030f\234\237\271\370B\034g\372\022\024\271e"
 448      18669C9F 
 448      B9F8421C 
 448      67FA1214 
 448      B965
 449 0e63 B653E566 		.ascii	"\266S\345f'\240\326H\341%\347f\267\264\035\352\336\276"
 449      27A0D648 
 449      E125E766 
 449      B7B41DEA 
 449      DEBE
 450 0e75 AFC3D4BE 		.ascii	"\257\303\324\276\271\011\252\3372\213\252\245\261\213"
 450      B909AADF 
 450      328BAAA5 
 450      B18B
 451 0e83 11CACAFB 		.ascii	"\021\312\312\373W\313R\265Z\336\263\255\226t\265ZD\360"
 451      57CB52B5 
 451      5ADEB3AD 
 451      9674B55A 
 451      44F0
 452 0e95 4429EE44 		.ascii	"D)\356D*9\233@\230\265\306*\211/|\261$\322\007j\221"
 452      2A399B40 
 452      98B5C62A 
 452      892F7CB1 
 452      24D2076A 
 453 0eaa A65911C9 		.ascii	"\246Y\021\3118\034\275?\2216\353\210dI\204MNf\210~\226"
 453      381CBD3F 
 453      9136EB88 
 453      6449844D 
 453      4E66887E 
 454 0ebf 6D31D239 		.ascii	"m1\3229\355G\211/g9I\353\272\004\351\032\244\033\255"
 454      ED47892F 
 454      673949EB 
 454      BA04E91A 
 454      A41BAD
 455 0ed2 B4B453D5 		.ascii	"\264\264S\325j\235\207\374L\262_\201\364>\352F\300\317"
 455      6A9D87FC 
 455      4CB25F81 
 455      F43EEA46 
 455      C0CF
 456 0ee4 4F761247 		.ascii	"Ov\022G1\305\012Ko+,\305U\274O;\335!p5\214\207\374\025"
 456      31C50A4B 
 456      6F2B2CC5 
 456      55BC4F3B 
 456      DD217035 
 457 0efc B75814A7 		.ascii	"\267X\024\247`\323y\236\224.\205\021\270\225x\337\004"
 457      60D3799E 
 457      942E8511 
 457      B89578DF 
ARM GAS  /tmp/ccvaPxlS.s 			page 36


 457      04
 458 0f0d 672FDDC7 		.ascii	"g/\335\307I\017\243\231\305\231\020\024\361\364Y\002"
 458      490FA399 
 458      C5991014 
 458      F1F45902 
 459 0f1d F7814946 		.ascii	"\367\201IF\211\243\177\347\226\022\2739\366\335\320"
 459      89A37FE7 
 459      9612BB39 
 459      F6DDD0
 460 0f2c 17A53779 		.ascii	"\027\2457y\2153I\362\325:5;\245\220F\277\371R\363\221"
 460      8D3349F2 
 460      D53A353B 
 460      A59046BF 
 460      F952F391 
 461 0f40 D5878B48 		.ascii	"\325\207\213H\267^lk\373;\333\342\223\360\300H[1\363"
 461      B75E6C6B 
 461      FB3BDBE2 
 461      93F0C048 
 461      5B31F3
 462 0f53 265FB382 		.ascii	"&_\263\202=\376\372\365\263\234\352\035\364\217\373"
 462      3DFEFAF5 
 462      B39CEA1D 
 462      F48FFB
 463 0f62 E208C447 		.ascii	"\342\010\304G\330\342\307\272\350\266\370\3060\204\217"
 463      D8E2C7BA 
 463      E8B6F8C6 
 463      30848F
 464 0f71 06B62D3D 		.ascii	"\006\266-=\332\210mi\203\245\266\364\324x\343\231!\266"
 464      DA886D69 
 464      83A5B6F4 
 464      D478E399 
 464      21B6
 465 0f83 C5D7EC32 		.ascii	"\305\327\3542!p\373\272\350\267\370\232\333\374\374"
 465      2170FBBA 
 465      E8B7F89A 
 465      DBFCFC
 466 0f92 7E6CF13F 		.ascii	"~l\361?e\271\3344\036\271\374\324\022\227"
 466      65B9DC34 
 466      1EB9FCD4 
 466      1297
 467 0fa0 5B1A4D5A 		.ascii	"[\032MZ\374\304Eu0Y\307\361\271\272\222\036\303\322"
 467      FCC44575 
 467      3059C7F1 
 467      B9BA921E 
 467      C3D2
 468 0fb2 F934D956 		.ascii	"\3714\331V\216\372>\212\011\335X\333`\351\306`\227\254"
 468      8EFA3E8A 
 468      09DD58DB 
 468      60E9C660 
 468      97AC
 469 0fc4 80997965 		.ascii	"\200\231ye\031\354\246m0\035\316\222-\251\023\211Z-"
 469      19ECA66D 
 469      301DCE92 
 469      2DA91389 
 469      5A2D
 470 0fd6 A91711FF 		.ascii	"\251\027\021\377.\265\327\354\357\226J\366k\245d\375"
 470      2EB5D7EC 
ARM GAS  /tmp/ccvaPxlS.s 			page 37


 470      EF964AF6 
 470      6BA564FD 
 471 0fe6 FCEAB889 		.ascii	"\374\352\270\211&\020\331x\372\345\376D>cG\344\232\373"
 471      2610D978 
 471      FAE5FE44 
 471      3E6347E4 
 471      9AFB
 472 0ff8 10F91F6A 		.ascii	"\020\371\037j\221\027\333\026"
 472      9117DB16 
 473 1000 3981FD55 		.ascii	"9\201\375Uu\265`2\306S/\367\247\277\177Z\214\375L\027"
 473      75B56032 
 473      C6532FF7 
 473      A7BF7F5A 
 473      8CFD4C17 
 474 1014 70493E79 		.ascii	"pI>y\375\306+\036\364\311?\243O\376\250\253~/\314\020"
 474      FDC62B1E 
 474      F4C93FA3 
 474      4FFEA8AB 
 474      7E2FCC10 
 475 1028 86B07085 		.ascii	"\206\260p\205\365v-\301t\232j\356\353n-\225\026\340"
 475      F5762DC1 
 475      749A6AEE 
 475      EB6E2D95 
 475      16E0
 476 103a D0519823 		.ascii	"\320Q\230#\370\374+\311z\235\330\355 \031\274\240X'"
 476      F8FC2BC9 
 476      7A9DD8ED 
 476      2019BCA0 
 476      5827
 477 104c 6D63A5EB 		.ascii	"mc\245\3531*\333\320\025U\230q\025\303\214k\030\377"
 477      312ADBD0 
 477      15559871 
 477      15C38C6B 
 477      18FF
 478 105e DCB0126C 		.ascii	"\334\260\022l\\\324\004\333\226\014\370\274\332\033"
 478      5CD404DB 
 478      960CF8BC 
 478      DA1B
 479 106c 7F67DBE6 		.ascii	"\177g\333\346XY\224\020\356\000\262}\004\351Q\244\307"
 479      58599410 
 479      EE00B27D 
 479      04E951A4 
 479      C7
 480 107d 901E47DA 		.ascii	"\220\036G\332\214\364\007\244\347\254\210\366\211\272"
 480      8CF407A4 
 480      E7AC88F6 
 480      89BA
 481 108b A26DC38A 		.ascii	"\242m\303\212\326\220t\337\250\266\241\245\317L16\326"
 481      D69074DF 
 481      A8B6A1A5 
 481      CF4C3136 
 481      D6
 482 109c 617D8F15 		.ascii	"a}\217\025\260`\2727\314m'\331c\345\002c\301\026\367"
 482      B060BA37 
 482      CC6D27D9 
 482      63E50263 
 482      C116F7
ARM GAS  /tmp/ccvaPxlS.s 			page 38


 483 10af 58697532 		.ascii	"Xiu2{\254\324\216I\247\251\011lX\332\010\345f\327\366"
 483      7BACD48E 
 483      49A7A909 
 483      6C58DA08 
 483      E566D7F6 
 484 10c3 3BAC5475 		.ascii	";\254Tu\323\335a\345\355n\272;\254\314\354\246\273\303"
 484      D3DD61E5 
 484      ED6EBA3B 
 484      ACCCECA6 
 484      BBC3
 485 10d5 CAB26EDA 		.ascii	"\312\262n\332\035V\344\375X\224d\227*y\217\222\354V"
 485      1D56E4FD 
 485      58946497 
 485      2A798F92 
 485      EC56
 486 10e7 251F5092 		.ascii	"%\037P\222=\252\344\257\225d\257\252D\022\276\300\241"
 486      3DAAE4AF 
 486      9564AFAA 
 486      4412BEC0 
 486      A1
 487 10f8 28C9CFDF 		.ascii	"(\311\317\337\303*\320\346\324\337\275\005l\212g,\301"
 487      C32AD0E6 
 487      D4DFBD05 
 487      6C8A672C 
 487      C1
 488 1109 74F79674 		.ascii	"t\367\226t\225%\210h\011c\311\374\223\274\027\023\351"
 488      95258868 
 488      0963C9FC 
 488      93BC1713 
 488      E9
 489 111a CF5E56ED 		.ascii	"\317^V\355\002\326n\306k\212\313\356^LS\245\341\216"
 489      02D66EC6 
 489      6B8ACBEE 
 489      5E4C53A5 
 489      E18E
 490 112c 3837D285 		.ascii	"87\322\205\\9\005\356l7^+\205\371Z$\265A\343\033\356"
 490      5C3905EE 
 490      6C375E2B 
 490      85F95A24 
 490      B541E31B 
 491 1141 A4E520BC 		.ascii	"\244\345 \274\011\334yKhfM\207\354\337.\262hzu-\301"
 491      09DC794B 
 491      68664D87 
 491      ECDF2EB2 
 491      687A752D 
 492 1156 F077CB78 		.ascii	"\360w\313x\3439\312DS\256~\376C\034n\255\327\2741n{"
 492      E339CA44 
 492      53AE7EFE 
 492      431C6EAD 
 492      D7BC316E 
 493 116b F0758E4B 		.ascii	"\360u\216K\3457\246\010\026\374\206\336\350\273$K[\243"
 493      E537A608 
 493      16FC86DE 
 493      E8BB244B 
 493      5BA3
 494 117d 3C914487 		.ascii	"<\221D\207F[X\335\350Y\237\336\222Y\275\217\272\327"
 494      465B58DD 
ARM GAS  /tmp/ccvaPxlS.s 			page 39


 494      E8599FDE 
 494      9259BD8F 
 494      BAD7
 495 118f E1E71BD1 		.ascii	"\341\347\033\321\360\233\320A\336B:\331E\350t\2443\221"
 495      F09BD041 
 495      DE423AD9 
 495      45E874A4 
 495      3391
 496 11a1 CE463ACF 		.ascii	"\316F:\317eA\015{\324\356S\325,\010\334\370\007u\372"
 496      65410D7B 
 496      D4EE53D5 
 496      2C08DCF8 
 496      0775FA
 497 11b4 9E95A407 		.ascii	"\236\225\244\007\267\214\237^%\276H\363B\037\025\357"
 497      B78C9F5E 
 497      25BE48F3 
 497      421F15EF 
 498 11c4 DB65D885 		.ascii	"\333e\330\205\224\236\200]\310J\361\302\033ot\346\345"
 498      949E805D 
 498      C84AF1C2 
 498      1B6F74E6 
 498      E5
 499 11d5 41614D36 		.ascii	"AaM6\306'\342\317\363]\355:\2215\315\261k\301&\361R"
 499      C627E2CF 
 499      F35DED3A 
 499      9135CDB1 
 499      6BC126F1 
 500 11ea 5B5B27DA 		.ascii	"[['\332-\024\270\245\272\234\212\265A\211G\210\344\\"
 500      2D14B8A5 
 500      BA9C8AB5 
 500      41894788 
 500      E45C
 501 11fc A47C17B9 		.ascii	"\244|\027\271\222\342Q\225M\217\307\305\272<\356\032"
 501      92E25195 
 501      4D8FC7C5 
 501      BA3CEE1A 
 502 120c FF365837 		.ascii	"\3776X7XF\333\363\\\373\341R\321\322\033x'\326<\211"
 502      5846DBF3 
 502      5CFBE152 
 502      D1D21B78 
 502      27D63C89 
 503 1220 2DCB0A17 		.ascii	"-\313\012\027\251o1FJ\353@\223O\277\237\201@\253\021"
 503      A96F3146 
 503      4AEB4093 
 503      4FBF9F81 
 503      40AB11
 504 1233 A89101F2 		.ascii	"\250\221\001\362\363\0343\354\312iG:\341\253\330&}\350"
 504      F31C33EC 
 504      CA69473A 
 504      E1ABD826 
 504      7DE8
 505 1245 4B3690F2 		.ascii	"K6\220\362w.\251<Fv\270\334e\253\203\257\273p\341\320"
 505      772EA93C 
 505      4676B8DC 
 505      65AB83AF 
 505      BB70E1D0 
 506 1259 D97DDF4B 		.ascii	"\331}\337K\357A\255w\221p\362\364\203\272\341d\242u"
ARM GAS  /tmp/ccvaPxlS.s 			page 40


 506      EF41AD77 
 506      9170F2F4 
 506      83BAE164 
 506      A275
 507 126b E23F6096 		.ascii	"\342?`\226M.&\244\234\354O\247\251\026\006\314\027J"
 507      4D2E26A4 
 507      9CEC4FA7 
 507      A91606CC 
 507      174A
 508 127d 21A5DAF4 		.ascii	"!\245\332\364H\326\344B\312\031\030R\356\306)\254\013"
 508      48D6E442 
 508      CA191852 
 508      EEC629AC 
 508      0B
 509 128e 71E66C86 		.ascii	"q\346l\206\224\362|\367\345\246v={=\235\374\017\031"
 509      94F27CF7 
 509      E5A6763D 
 509      7B3D9DFC 
 509      0F19
 510 12a0 6BBDFA2D 		.ascii	"k\275\372-\263\037\276~\214\316\230\324\241r\227=d\256"
 510      B31FBE7E 
 510      8CCE98D4 
 510      A172973D 
 510      64AE
 511 12b2 5C2D104E 		.ascii	"\\-\020N\233\261\232\255\223v\361\263\244\333\235\015"
 511      9BB19AAD 
 511      9376F1B3 
 511      A4DB9D0D 
 512 12c2 75BC589D 		.ascii	"u\274X\235&\357\017\271\006Y\250wYo\344\265p\365\015"
 512      26EF0FB9 
 512      0659A877 
 512      596FE4B5 
 512      70F50D
 513 12d5 38C54EC1 		.ascii	"8\305N\3016\333\006\323\316\327\037T\203m\267\015\326"
 513      36DB06D3 
 513      CED71F54 
 513      836DB70D 
 513      D6
 514 12e6 59037658 		.ascii	"Y\003vX\015Vo\033\254\273\006\354\0135\330^\333`Z\033"
 514      0D566F1B 
 514      ACBB06EC 
 514      0B35D85E 
 514      DB605A1B 
 515 12fa FA520DB6 		.ascii	"\372R\015\266\3376\230\346M\323\330W\325i\007_\265\276"
 515      DF3698E6 
 515      4DD3D857 
 515      D569075F 
 515      B5BE
 516 130c 15CFCEF5 		.ascii	"\025\317\316\365\273\035\350\310>CG\366\305C\254#\263"
 516      BB1DE8C8 
 516      3E4347F6 
 516      C543AC23 
 516      B3
 517 131d BB158FC0 		.ascii	"\273\025\217\300\035g%\260\263B\027\232\303\243?\234"
 517      1D6725B0 
 517      B342179A 
 517      C3A33F9C 
ARM GAS  /tmp/ccvaPxlS.s 			page 41


 518 132d 7F643CDD 		.ascii	"\177d<\335\\\2072u\322\012`\2025$w\252\337\266\371J"
 518      5C873275 
 518      D20A6082 
 518      352477AA 
 518      DFB6F94A 
 519 1341 DFCE6BD2 		.ascii	"\337\316k\322\246\251_ \003g\333i\305\376\036g\002\367"
 519      A6A95F20 
 519      0367DB69 
 519      C5FE1E67 
 519      02F7
 520 1353 132B86BD 		.ascii	"\023+\206\275\201)\320\313\225GgI\357JP\276Z\254 &X"
 520      8129D0CB 
 520      95476749 
 520      EF4A50BE 
 520      5AAC2026 
 521 1368 763B83EE 		.ascii	"v;\203\356\016@\301*\037\266\013\246\265\342Yj\260\267"
 521      0E40C12A 
 521      1FB60BA6 
 521      B5E2596A 
 521      B0B7
 522 137a AC802558 		.ascii	"\254\200%X\314:G\0156\3316\230\226\263yj\260\331V\300"
 522      CC3A470D 
 522      36D93698 
 522      96B3796A 
 522      B0D956C0 
 523 138e D28D399B 		.ascii	"\322\2159\233\257\006[h\033L\313\331z5\330J+`\011\242"
 523      AF065B68 
 523      1B4CCBD9 
 523      7A35D84A 
 523      2B6009A2 
 524 13a2 FF8D6AB0 		.ascii	"\377\215j\260\215\266\301\324\234\211\261-\215\251\320"
 524      8DB6C1D4 
 524      9C89B12D 
 524      8DA9D0
 525 13b1 2AA877CD 		.ascii	"*\250w\315\335\240\352\251\305\301D\271\021:g\273\253"
 525      DDA0EAA9 
 525      C5C144B9 
 525      113A67BB 
 525      AB
 526 13c2 76DEA0AB 		.ascii	"v\336\240\253\326\246\364\325v\260B0\017\266\035\365"
 526      D6A6F4D5 
 526      76B04230 
 526      0FB61DF5 
 527 13d2 2B4D25C4 		.ascii	"+M%\304\311.\\a\202q\375\036\244\037#m@\332\204t\037"
 527      C92E5C61 
 527      8271FD1E 
 527      A41F236D 
 527      40DA8474 
 528 13e7 D24F911E 		.ascii	"\322O\221\036Bz\004\351WH\277Fz\022\3517H\233\221\236"
 528      427A04E9 
 528      5748BF46 
 528      7A12E937 
 528      489B919E 
 529 13fb 41FA1DD2 		.ascii	"A\372\035\322\263H\177\264\322o\330\341R\257\004|\330"
 529      B3487FB4 
 529      D26FD8E1 
 529      52AF047C 
ARM GAS  /tmp/ccvaPxlS.s 			page 42


 529      D8
 530 140c 425C9260 		.ascii	"B\\\222`\213\262Cg\317/\341/W\212\263z\313\035\250\006"
 530      8BB24367 
 530      CF2FE12F 
 530      578AB37A 
 530      CB1DA806 
 531 1420 16D174BD 		.ascii	"\026\321t\275\033S\213\376\217\202\365\271m\254'\022"
 531      1B538BFE 
 531      8F82F5B9 
 531      6DAC2712 
 532 1430 15CB2655 		.ascii	"\025\313&U\261l\301b\331\212j\333\206\264\026\351\005"
 532      B16CC162 
 532      D98A6ADB 
 532      86B416E9 
 532      05
 533 1441 A43F5B51 		.ascii	"\244?[Q\344:W\373y\300=\232\201g\263p-\346\2211Gs\361"
 533      E43A57FB 
 533      79C03D9A 
 533      8167B370 
 533      2DE69131 
 534 1458 46E1F48D 		.ascii	"F\341\364\215\303=\351{\336\3270Z{\347\027\246\321\232"
 534      C33DE97B 
 534      DED7305A 
 534      7BE717A6 
 534      D19A
 535 146a 16C7CFDF 		.ascii	"\026\307\317\337\300\310\265\205\015\330n\321\271\244"
 535      C0C8B585 
 535      0DD86ED1 
 535      B9A4
 536 1478 164B015B 		.ascii	"\026K\001[k\343\222dg\274\346\374\302\322\214\327]\344"
 536      6BE39264 
 536      67BCE6FC 
 536      C2D28CD7 
 536      5DE4
 537 148a B295E5F2 		.ascii	"\262\225\345\362\010\345\262\325\022\227G\033\245\220"
 537      08E5B2D5 
 537      1297471B 
 537      A590
 538 1498 7D3686EC 		.ascii	"}6\206\354t\270\2765\331\220]\036&Y\212`\253m\203\245"
 538      74B8BE35 
 538      D9905D1E 
 538      26598A60 
 538      AB6D83A5 
 539 14ac EB817D80 		.ascii	"\353\201}\200`\033\254\200\231\317=\321)\372\255\266"
 539      601BAC80 
 539      99CF3DD1 
 539      29FAADB6 
 540 14bc C174384B 		.ascii	"\301t8Kvy\301\033n\363\025\023\322w\353\361\341\334"
 540      7679C11B 
 540      6EF31513 
 540      D277EBF1 
 540      E1DC
 541 14ce 8B979649 		.ascii	"\213\227\226I\035\300\011n\\4\316X=}SB\365\261\264["
 541      1DC0096E 
 541      5C34CE58 
 541      3D7D5342 
 541      F5B1B45B 
ARM GAS  /tmp/ccvaPxlS.s 			page 43


 542 14e2 A3A5F1F2 		.ascii	"\243\245\361\362qn\225C\334\214\3175Q\255q\254Cj\357"
 542      716E9543 
 542      DC8CCF35 
 542      51AD71AC 
 542      436AEF
 543 14f5 E3A66B74 		.ascii	"\343\246kt\022\251\367\275D\352\235\340\266>\217\365"
 543      12A9F7BD 
 543      44EA9DE0 
 543      B63E8FF5 
 544 1505 AE5AAC5A 		.ascii	"\256Z\254Z\333b\331\264\230D\313\216\246'\022\211\235"
 544      DB62D9B4 
 544      9844CB8E 
 544      A6271289 
 544      9D
 545 1516 AA939611 		.ascii	"\252\223\226\021%%\3624\265\310\365VD\276\237\331\266"
 545      2525F234 
 545      B5C8F556 
 545      44BE9FD9 
 545      B6
 546 1527 4422BF9F 		.ascii	"D\"\277\237HdvB\366~D\236\247\026y\257m\221\3239\355"
 546      48647642 
 546      F67E449E 
 546      A71679AF 
 546      6D91D339 
 547 153c 4719966D 		.ascii	"G\031\226m\303\206Pt\343\260,\322J\244UH\337A:\025\351"
 547      C3865074 
 547      E3B02CD2 
 547      4AA45548 
 547      DF413A15 
 548 1551 5CB785C6 		.ascii	"\\\267\205\306\362\266\253\335dOK\222nZ\214\335#!\250"
 548      F2B6ABDD 
 548      644F4B92 
 548      6E5A8CDD 
 548      2321A8
 549 1564 D5F5A25B 		.ascii	"\325\365\242[\357\335\356\201\235\254%n\322\234Vv\267"
 549      EFDDEE81 
 549      9DAC256E 
 549      D29C5676 
 549      B7
 550 1575 B95C143A 		.ascii	"\271\\\024:\006\230e\271\233i\250\266U\343\356\346$"
 550      069865B9 
 550      9B69A8B6 
 550      55E3EEE6 
 550      24
 551 1586 DDBCA1AA 		.ascii	"\335\274\241\252\265\370/\0065\361Q\255\0079\345%\377"
 551      B5F82F06 
 551      35F151AD 
 551      0739E525 
 551      FF
 552 1597 563EDDCF 		.ascii	"V>\335\317\257A\376\347\353\363o\214!p\3530\313:\226"
 552      AF41FEE7 
 552      EBF36F8C 
 552      2170EB30 
 552      CB3A96
 553 15aa FFEB6464 		.ascii	"\377\353ddl\235%\356[\344\335\016V\273\311hV}\0340\251"
 553      6C9D25EE 
 553      5BE4DD0E 
ARM GAS  /tmp/ccvaPxlS.s 			page 44


 553      56BBC968 
 553      567D1C30 
 554 15bf 66367617 		.ascii	"f6v\027G\306\350\316\011\015\266\261\3225X\223\033\344"
 554      47C6E8CE 
 554      090DB6B1 
 554      D2355893 
 554      1BE4
 555 15d1 3D2FE836 		.ascii	"=/\3506\025\207\255\340%\350\305O#+\317\355\354\312"
 555      1587ADE0 
 555      25E8C54F 
 555      232BCFED 
 555      ECCA
 556 15e3 D324EDCA 		.ascii	"\323$\355\312S\213\355\326\311\356l\273\225\324\256"
 556      538BEDD6 
 556      C9EE6CBB 
 556      95D4AE
 557 15f2 3CE76C4B 		.ascii	"<\347lK\241\321J\363\266{g\272\313\033\036P\306\256"
 557      A1D14AF3 
 557      B67B67BA 
 557      CB1B1E50 
 557      C6AE
 558 1604 5841D46B 		.ascii	"XA\324k\330\364>jk\202\330\306Mb\351\215\350\0146#\335"
 558      D8F43E6A 
 558      6B82D8C6 
 558      4D62E98D 
 558      E80C3623 
 559 1619 8A743BD2 		.ascii	"\212t;\322\235V\334\303j\265\033\273\033\257o6\315K"
 559      9D56DCC3 
 559      6AB51BBB 
 559      1BAF6F36 
 559      CD4B
 560 162b 9FD5E52A 		.ascii	"\237\325\345*VW\"\253\253\324,\011\334\270\036\274M"
 560      565722AB 
 560      ABD42C09 
 560      DCB81EBC 
 560      4D
 561 163c 77A455F6 		.ascii	"w\244U\366\351\033\267{]%} \313s\317\261\333n\001:\013"
 561      E91BB77B 
 561      5D257D20 
 561      CB73CFB1 
 561      DB6E013A 
 562 1651 6E32EF3C 		.ascii	"n2\357<\261GR\363\316{\335\314\274\363U\372\337\036"
 562      B14752F3 
 562      CE7BDDCC 
 562      BCF355FA 
 562      DF1E
 563 1663 24DD7CE6 		.ascii	"$\335|\346yZ\217\3663\317\363{\350\316</\353\241\235"
 563      795A8FF6 
 563      33CFF37B 
 563      E8CE3C2F 
 563      EBA19D
 564 1676 7996B490 		.ascii	"y\226\264\220p\276Wa\016:\272\250\362Fw\342\371\336"
 564      70BE5761 
 564      0E3ABAA8 
 564      F24677E2 
 564      F9DE
 565 1688 161B9D3C 		.ascii	"\026\033\235<N\245}1\326\326H\366u1\335\014W^\311\276"
ARM GAS  /tmp/ccvaPxlS.s 			page 45


 565      4EA57D31 
 565      D6D648F6 
 565      7531DD0C 
 565      575EC9BE 
 566 169c FA9FD2CE 		.ascii	"\372\237\322\316\025\007\320\235\236\355a\356Nup\300"
 566      1507D09D 
 566      9EED61EE 
 566      4E7570C0 
 567 16ac EDF424DA 		.ascii	"\355\364$\332>\204 \327\354\202\010\\\033f\371\202\365"
 567      3E8420D7 
 567      EC82085C 
 567      1B66F982 
 567      F5
 568 16bd C93BE902 		.ascii	"\311;\351\002\377/,xe\3627:t\353&yO\2337\037\2211\245"
 568      FF2F2C78 
 568      65F2373A 
 568      74EB2679 
 568      4F9B371F 
 569 16d4 87BEA056 		.ascii	"\207\276\240V\237\271[>H_\272\241K\374\247\260`6\375"
 569      9FB95B3E 
 569      485FBAA1 
 569      4BFCA7B0 
 569      6036FD
 570 16e7 E891F8F6 		.ascii	"\350\221\370\366L+q\262q\236m<M%\213}A\231\243`K\255"
 570      4C2B71B2 
 570      719E6D3C 
 570      4D258B7D 
 570      4199A360 
 571 16fd 80251891 		.ascii	"\200%\030\221\374J\015\266\3326\230\226\263\257\325"
 571      FC4A0DB6 
 571      DA369896 
 571      B3AFD5
 572 170c 609BAC80 		.ascii	"`\233\254\200%\030\221<%5gI\376]\313\367n\343\3118j"
 572      2518913C 
 572      25356749 
 572      FE5DCBF7 
 572      6EE3C938 
 573 1721 AD46397F 		.ascii	"\255F9\177p\353O'\033\267}\261\2314\000\372\016c\202"
 573      70EB4F27 
 573      1BB77DB1 
 573      993400FA 
 573      0E6382
 574 1734 BA47B475 		.ascii	"\272G\264u\200y4a\314\350\321\347\335\306\377H\300\374"
 574      80793461 
 574      CCE8D1E7 
 574      DDC6FF48 
 574      C0FC
 575 1746 0631AE6D 		.ascii	"\0061\256m\005kK\353t\265f\343\236\003V\340\322u\312"
 575      056B4BEB 
 575      74B566E3 
 575      9E0356E0 
 575      D275CA
 576 1759 4BEFA3AE 		.ascii	"K\357\243\256\320~\376Kt|\307\260\021<\216\364\004\322"
 576      D07EFE4B 
 576      747CC7B0 
 576      113C8EF4 
 576      04D2
ARM GAS  /tmp/ccvaPxlS.s 			page 46


 577 176b 53484F23 		.ascii	"SHO#\375\007\322o\221\376\244n\225\3765\250\002w\364"
 577      FD07D26F 
 577      91FEA46E 
 577      95FE35A8 
 577      0277F4
 578 177e 11A6ADD3 		.ascii	"\021\246\255\323:&\263z(bc\207\273\356X\367\270G\036"
 578      3A26B37A 
 578      28626387 
 578      BBEE58F7 
 578      B8471E
 579 1791 A71EF712 		.ascii	"\247\036\367\022:\313\223\214\241P\263\374W\311\373"
 579      3ACB938C 
 579      A150B3FC 
 579      57C9FB
 580 17a0 4F4BF21A 		.ascii	"OK\362\032\356\201\026\227wVo\365 \265\352\365\230\366"
 580      EE811697 
 580      77566FF5 
 580      20B5EAF5 
 580      98F6
 581 17b2 CB89AEBB 		.ascii	"\313\211\256\273\355\216Q\337p\353\217Qw\212\213q\205"
 581      ED8E51DF 
 581      70EB8F51 
 581      778A8B71 
 581      85
 582 17c3 15437701 		.ascii	"\025Cw\001\320P\303b#\2430\0167"
 582      D050C362 
 582      23A3300E 
 582      37
 583 17d0 E54DE0AE 		.ascii	"\345M\340\256[B{\325\010M\257o\254\263\273\221\356\037"
 583      5B427BD5 
 583      084DAF6F 
 583      ACB3BB91 
 583      EE1F
 584 17e2 246D9DF9 		.ascii	"$m\235\371=\335\234\370.\032\303M\306\030La\260k\312"
 584      3DDD9CF8 
 584      2E1AC34D 
 584      C6184C61 
 584      B06BCA
 585 17f5 B69A47D7 		.ascii	"\266\232G\327J\233$\265\231\267\233d\327\226\265\232"
 585      4A9B24B5 
 585      99B79B64 
 585      D796B59A 
 586 1805 FD3CFCFC 		.ascii	"\375<\374\374\016\3348\252Mq\0026\3677:\261V\263\237"
 586      0EDC38AA 
 586      4D710236 
 586      F7373AB1 
 586      56B39F
 587 1818 0744C1B6 		.ascii	"\007D\301\266\001\265{\242\234b9\254\267\015\250)\260"
 587      01B57BA2 
 587      9C6239AC 
 587      B70DA829 
 587      B0
 588 1829 D86996C3 		.ascii	"\330i\226\303\355\266\001\265{\242\\f9\024\005\013\200"
 588      EDB601B5 
 588      7BA25C66 
 588      3914050B 
 588      80
ARM GAS  /tmp/ccvaPxlS.s 			page 47


 589 183a 09E285AB 		.ascii	"\011\342\205\253,\207\037Z\3410\301\376F\327Y\0167\332"
 589      2C871F5A 
 589      E130C1FE 
 589      46D7590E 
 589      37DA
 590 184c 06D4EAB0 		.ascii	"\006\324\352\260\205\3450f\033P\253\303[,\207[\255\000"
 590      85E53066 
 590      1B50ABC3 
 590      5B2C875B 
 590      AD00
 591 185e 26086BEE 		.ascii	"&\010k\356\260\034~l\033P\253\303\326\265\314\3167\325"
 591      B01C7E6C 
 591      1B50ABC3 
 591      D6B5CCCE 
 591      37D5
 592 1870 8FF23601 		.ascii	"\217\3626\001\265:lc9l\262\315\241V\207\223\3271\034"
 592      B53A6C63 
 592      396CB2CD 
 592      A1568793 
 592      D7311C
 593 1883 4EB4C261 		.ascii	"N\264\302a\202\000l\352:\206\303O\255p\250\267\277\221"
 593      82006CEA 
 593      3A86C34F 
 593      AD70A8B7 
 593      BF91
 594 1895 DE47EDBC 		.ascii	"\336G\355\274\240\316xpCW\017\216\256!\255B:\016\351"
 594      A0CE7870 
 594      43570F8E 
 594      AE21AD42 
 594      3A0EE9
 595 18a8 1B48AB91 		.ascii	"\033H\253\221\216G\372&\322\011H'\"}\013\351;H\337E"
 595      8E47FA26 
 595      D2094827 
 595      227D0BE9 
 595      3B48DF45 
 596 18bc 3AC963A1 		.ascii	":\311c\241\273}G\335\335~\357Q\013\335\337r\2352\325"
 596      BB7D47DD 
 596      DD7EEF51 
 596      0BDDDF72 
 596      9D32D5
 597 18cf 17B04535 		.ascii	"\027\260E5\313v\023g\331n\341P\342bl\236w#\375\014\351"
 597      CB761367 
 597      D96EE150 
 597      E2626C9E 
 597      7723FD0C 
 598 18e4 CF48AF21 		.ascii	"\317H\257!\275\211\364\266\225\261\202\253.\303%\361"
 598      BD89F4B6 
 598      95B182AB 
 598      2EC325F1 
 599 18f4 0237FD51 		.ascii	"\0027\375Qm\203\"\275wwd\365\355\307>\241\357\335\221"
 599      6D8322BD 
 599      777764F5 
 599      EDC73EA1 
 599      EFDD91
 600 1907 693BE841 		.ascii	"i;\350A\320\373\014\327\025\342\344\236\364\336\335"
 600      D0FB0CD7 
 600      15E2E49E 
ARM GAS  /tmp/ccvaPxlS.s 			page 48


 600      F4DEDD
 601 1916 A1607CC9 		.ascii	"\241`|\311\344\012\223l{\332\277\256w\025\237\267\306"
 601      E40A936C 
 601      7BDABFAE 
 601      77159FB7 
 601      C6
 602 1927 24A32494 		.ascii	"$\243$\224\364\272\336\206\223C\273\323\325\203\234"
 602      F4BADE86 
 602      9343BBD3 
 602      D5839C
 603 1936 3697DE32 		.ascii	"6\227\3362\306)\036\275e\214\207\366\277+/c\3642\375"
 603      C6291EBD 
 603      658C87F6 
 603      BF2B2F63 
 603      F432FD
 604 1949 07C2A491 		.ascii	"\007\302\244\221r\347z\230\201k\242\010F\307\353tu,"
 604      72E77A98 
 604      816BA208 
 604      46C7EB74 
 604      752C
 605 195b 2E206AA2 		.ascii	". j\242\267O\363\220:3\307\223P\273\361U\233u\370r\""
 605      B74FF390 
 605      3A33C793 
 605      50BBF155 
 605      9B75F872 
 606 1970 9D3A35CE 		.ascii	"\235:5\316%1\370\276\256\264\267\336\232&I\273KLg\345"
 606      2531F8BE 
 606      AEB4B7DE 
 606      9A2649BB 
 606      4B4C67E5 
 607 1984 2533DE46 		.ascii	"%3\336F\362.\264 oL_\336\331\254\2745\026\345=\204\362"
 607      F22EB420 
 607      6F4C5FDE 
 607      D9ACBC35 
 607      16E53D84 
 608 1999 D27978E3 		.ascii	"\322yx\343\\\022\203\213u\345\335p\340]cy\023\275\006"
 608      5C12838B 
 608      75E5DD70 
 608      E05D6379 
 608      13BD06
 609 19ac B4DC82BC 		.ascii	"\264\334\202\274\373\365\345\235\313\312\273\314j\371"
 609      FBF5E59D 
 609      CBCABBCC 
 609      6AF9
 610 19ba A235CB8B 		.ascii	"\2425\313\213rU\271\364\254y\245V\336\277\362\216\231"
 610      7255B9F4 
 610      AC79A556 
 610      DEBFF28E 
 610      99
 611 19cb 4EFA0EEA 		.ascii	"N\372\016\352\244\346SwvW\314\026\367\340;\250\234\365"
 611      A4E65377 
 611      7657CC16 
 611      F7E03BA8 
 611      9CF5
 612 19dd 5D27D6B2 		.ascii	"]'\326\2622\223\227j\331Ww\245\357Vg\025\256\327\037"
 612      3293976A 
 612      D95777A5 
ARM GAS  /tmp/ccvaPxlS.s 			page 49


 612      EF566715 
 612      AED71F
 613 19f0 E949FF90 		.ascii	"\351I\377\220o\243\007g\351{\332\234V\220\372\320\033"
 613      6FA30767 
 613      E97BDA9C 
 613      5690FAD0 
 613      1B
 614 1a01 2E90A1FD 		.ascii	".\220\241\375-\2101\235\301\360\363\003\230\216\321"
 614      2D88319D 
 614      C1F0F303 
 614      988ED1
 615 1a10 006613E4 		.ascii	"\000f\023\344\331\337:\304I^L\027\270\365=\265\303p"
 615      D9DF3AC4 
 615      495E4C17 
 615      B8F53DB5 
 615      C370
 616 1a22 AA7C038D 		.ascii	"\252|\003\215z\226\003\024_\275\035\033#\346N\3062v"
 616      7A960314 
 616      5FBD1D1B 
 616      23E64EC6 
 616      3276
 617 1a34 301CCA37 		.ascii	"0\034\3127\355hWh\263\342\205V\333p\275\222\237\\UC"
 617      ED685768 
 617      B3E28556 
 617      DB70BD92 
 617      9F5C5543 
 618 1a48 577E73F2 		.ascii	"W~s\362\322\357\217\015\240v\266\267\367f\262\204\365"
 618      D2EF8F0D 
 618      A076B6B7 
 618      F766B284 
 618      F5
 619 1a59 F69F666F 		.ascii	"\366\237fo\024\307\341\226#\332\327\217\255\017\272"
 619      14C7E196 
 619      23DAD78F 
 619      AD0FBA
 620 1a68 6E3A4074 		.ascii	"n:@t\035\363\220Q\327\303\314\343-\216\272~\344aF]\217"
 620      1DF39051 
 620      D7C3CCE3 
 620      2D8EBA7E 
 620      E461465D 
 621 1a7d BF85A3AE 		.ascii	"\277\205\243\256$\335|\324\365\353\236\355G]\233{\352"
 621      24DD7CD4 
 621      F5EB9EED 
 621      475D9B7B 
 621      EA
 622 1a8e 8EBAFED4 		.ascii	"\216\272\376\324S\367}\237\226\236\272\357\373\214{"
 622      53F77D9F 
 622      969EBAEF 
 622      FB8C7B
 623 1a9d 4CF77D9F 		.ascii	"L\367}\237\367\036\323}\337g\316c\272\357\373\254zL"
 623      F71ED37D 
 623      DF67CE63 
 623      BAEFFBAC 
 623      7A4C
 624 1aaf F77D9FCD 		.ascii	"\367}\237\315\217i\337\367\221\222w*\311)\252\344\317"
 624      8F69DFF7 
 624      9192772A 
ARM GAS  /tmp/ccvaPxlS.s 			page 50


 624      C929AAE4 
 624      CF
 625 1ac0 95E40EAA 		.ascii	"\225\344\016\252\3443Jr\252*\371\252\222\234\246J\256"
 625      E4334A72 
 625      AA2AF9AA 
 625      929CA64A 
 625      AE
 626 1ad1 7C3C9EFC 		.ascii	"|<\236\374\200*y\252\222\334Q\225\274XI\356\244J^\253"
 626      802A79AA 
 626      92DC5195 
 626      BC5849EE 
 626      A44A5EAB 
 627 1ae5 24775625 		.ascii	"$wV%oW\222\273\250\222\367+\311]\325|+\311\335\244\262"
 627      6F5792BB 
 627      A892F72B 
 627      C95DD57C 
 627      2BC9DDA4 
 628 1afa 245F130E 		.ascii	"$_\023\016~+6\002\0018V\252\275\036\375\301o#\207\265"
 628      7E2B3602 
 628      013856AA 
 628      BD1EFDC1 
 628      6F2387B5 
 629 1b0e 8B7558A4 		.ascii	"\213uX\244\255Hr\017\024\311\366\247\271\005\013\177"
 629      AD48720F 
 629      14C9F6A7 
 629      B9050B7F 
 630 1b1e 09E3E72F 		.ascii	"\011\343\347/{\254\375\213\022\230\342\343\254\267Z"
 630      7BACFD8B 
 630      1298E2E3 
 630      ACB75A
 631 1b2d CCCE7425 		.ascii	"\314\316t%\377gL?{t\367\030\331\240\363\036\257\300"
 631      FF674C3F 
 631      7B74F718 
 631      D9A0F31E 
 631      AFC0
 632 1b3f B53EAEEF 		.ascii	"\265>\256\357J\256\353\272\222\332j]\177\364F/}\220"
 632      4AAEEBBA 
 632      92DA6A5D 
 632      7FF4462F 
 632      7D90
 633 1b51 165D9019 		.ascii	"\026]\220\031\273\316=o\324\022%\030\236\275\305\026"
 633      BBCE3D6F 
 633      D4122518 
 633      9EBDC516 
 634 1b61 EC04FC57 		.ascii	"\354\004\374W\024\2154\223\014\030\271\243\313\310\366"
 634      148D3493 
 634      0C18B9A3 
 634      CBC8F6
 635 1b70 EA6B4212 		.ascii	"\352kB\022\214\264\262\214\354Q7\211\322\033V\014cs"
 635      8CB4B28C 
 635      EC513789 
 635      D21B560C 
 635      6373
 636 1b82 0D1813BD 		.ascii	"\015\030\023\275:\214\305\352\367\277-\362\223\3066"
 636      3A8CC5EA 
 636      F7BF2DF2 
 636      93C636
ARM GAS  /tmp/ccvaPxlS.s 			page 51


 637 1b91 B7B5F5B2 		.ascii	"\267\265\365\262\316V\245W\207-\206\215%\006l\214\323"
 637      CE56A557 
 637      872D868D 
 637      25066C8C 
 637      D3
 638 1ba2 63A3F9EE 		.ascii	"c\243\371\356\267_\375-\011\375T\263\214\220\277\335"
 638      B75FFD2D 
 638      09FD54B3 
 638      8C90BFDD 
 639 1bb2 D5AE6A32 		.ascii	"\325\256j2\237\034\216\325\215\177\2104\016\023\274"
 639      9F1C8ED5 
 639      8D7F8834 
 639      0E13BC
 640 1bc1 B854B617 		.ascii	"\270T\266\027[_\222\230\031V\263T\245\263\341\216\300"
 640      5B5F9298 
 640      1956B354 
 640      A5B3E18E 
 640      C0
 641 1bd2 ED3250CF 		.ascii	"\3552P\317;Z\365\374\033\267P\214\035l>\274z\217\213"
 641      3B5AF5FC 
 641      1BB7508C 
 641      1D6C3EBC 
 641      7A8F8B
 642 1be5 BC2C298A 		.ascii	"\274,)\212w\333\332xxT\035\376m\371\3218\210$\335\253"
 642      77DBDA78 
 642      78541DFE 
 642      6DF9D138 
 642      8824DDAB 
 643 1bf9 B274F22E 		.ascii	"\262t\362.\247\357Ip\317r\233\3047c\275iF\3722\337\377"
 643      A7EF4970 
 643      CF729BC4 
 643      3763BD69 
 643      46FA32DF 
 644 1c0e E36E8B6F 		.ascii	"\343n\213o\212\261-\017\321\227_\310\223\240 \352&^"
 644      8AB12D0F 
 644      D1975FC8 
 644      93A020EA 
 644      265E
 645 1c20 5FCE4F11 		.ascii	"_\316O\021\241\332\211\020\265\362\275\240l\361Q'\331"
 645      A1DA8910 
 645      B5F2BDA0 
 645      6CF15127 
 645      D9
 646 1c31 4789F1AD 		.ascii	"G\211\361\255;zK\317\232\252a\235\276+H\037\002\375"
 646      3B7A4BCF 
 646      9AAA619D 
 646      BE2B481F 
 646      02FD
 647 1c43 BAAF5F66 		.ascii	"\272\257_ff\032N&\370\357\343\351\336T\255\002b\247"
 647      661A4E26 
 647      F8EFE3E9 
 647      DE54AD02 
 647      62A7
 648 1c55 57A44068 		.ascii	"W\244@h+\275\224v\0229:c*\374L\215\360/\320\214\364"
 648      2BBD9476 
 648      12393A63 
 648      2AFC4C8D 
ARM GAS  /tmp/ccvaPxlS.s 			page 52


 648      F02FD08C 
 649 1c6a BF6FC99D 		.ascii	"\277o\311\235\337\3634\262\377A\372N\376UY\2345Ntr\364"
 649      DFF334B2 
 649      FF41FA4E 
 649      FE55599C 
 649      354E7472 
 650 1c7f 3F71499A 		.ascii	"?qI\232\203\264\275\364\317q\245\257\275e\361\310K\220"
 650      83B4BDF4 
 650      CF71A5AF 
 650      BD65F1C8 
 650      4B90
 651 1c91 920E6B1F 		.ascii	"\222\016k\037\242<K\314N^\331\216\331\037M\231\235\373"
 651      A23C4BCC 
 651      4E5ED98E 
 651      D91F4D99 
 651      9DFB
 652 1ca3 AF605663 		.ascii	"\257`VcG\342\341\330\361\355d\201\210\314\032\355\362"
 652      47E2E1D8 
 652      F1ED6481 
 652      88CC1AED 
 652      F2
 653 1cb4 5E64596B 		.ascii	"^dYkW\034\363\225\202\225p\216.Q\343\320\256\372-S\234"
 653      571CF395 
 653      8295708E 
 653      2E51E3D0 
 653      AEFA2D53 
 654 1cc9 1A0527C9 		.ascii	"\032\005'\311y\263E\332\372\236\306\275\2456\251\001"
 654      79B345DA 
 654      FA9EC6BD 
 654      A536A901 
 655 1cd9 C616B5C4 		.ascii	"\306\026\265\304\233\3061\037\303\256\246b|\214\311"
 655      9BC6311F 
 655      C3AEA662 
 655      7C8CC9
 656 1ce8 922E8451 		.ascii	"\222.\204Q\256\245\206\271H\267\306(\3272\203\\\326"
 656      AEA586B9 
 656      48B7C628 
 656      D732835C 
 656      D6
 657 1cf9 35B282F5 		.ascii	"5\262\202\365\200DRKK\322\226\033r|5AG|\225a\256u\011"
 657      8044524B 
 657      4BD2961B 
 657      727C3541 
 657      477C9561 
 658 1d10 72AD36CC 		.ascii	"r\2556\314E<\270Q\2565\206\271*\023\344\372\3000Wk\202"
 658      453CB851 
 658      AE3586B9 
 658      2A13E4FA 
 658      C030576B 
 659 1d25 92586B98 		.ascii	"\222Xk\230\213l\206h\224k\235a\256[\011\236\265\336"
 659      8B6C8668 
 659      946B9D61 
 659      AE5B099E 
 659      B5DE
 660 1d37 30572CC1 		.ascii	"0W,\301\2636\030\346\332\225\340Y\033\225\\\23430\302"
 660      B33618E6 
 660      DA95E059 
ARM GAS  /tmp/ccvaPxlS.s 			page 53


 660      1B955C9C 
 660      3330C2
 661 1d4a 1F760F1C 		.ascii	"\037v\017\034\362rz&\367\\\306\210\262\222`F\240\254"
 661      F2727A26 
 661      F75CC688 
 661      B2926046 
 661      A0AC
 662 1d5c 704C4661 		.ascii	"pLFapdF`DhX\250,\222\021\015W\224\276\226\001\027\301"
 662      70644660 
 662      446858A8 
 662      2C92110D 
 662      5794BE96 
 663 1d73 D1D18C22 		.ascii	"\321\321\214\"\177\264(\222\021\011\0072B\245\321\340"
 663      7FB42892 
 663      11090732 
 663      42A5D1E0 
 664 1d83 F060F8E9 		.ascii	"\360`\370\351\021\234\263\377+\005\331\2773\313=\302"
 664      119CB3FF 
 664      2B05D9BF 
 664      33CB3DC2 
 665 1d93 5F0C7902 		.ascii	"_\014y\002\305\025\205\301\214\222\222\200/R\036\202"
 665      C51585C1 
 665      8C929280 
 665      2F521E82 
 666 1da3 BC298307 		.ascii	"\274)\203\007gf\226\225\026\205\206gY\001(/\013G#\031"
 666      67669695 
 666      16858667 
 666      5901282F 
 666      0B472319 
 667 1db7 F905839F 		.ascii	"\371\005\203\237\351\2331hPVF\376\320\234\221}2\000"
 667      E99B3168 
 667      505646FE 
 667      D09C917D 
 667      3200
 668 1dc9 CA575C5C 		.ascii	"\312W\\\\H\340 !+\034\032\031\014\367\265\303\017\345"
 668      48E02021 
 668      2B1C1A19 
 668      0CF7B5C3 
 668      0FE5
 669 1ddb A5039C22 		.ascii	"\245\003\234\"Q\1774\350\213v\000\034\337\313Cr\206"
 669      517F34E8 
 669      8B76001C 
 669      DFCB4372 
 669      86
 670 1dec E41478C9 		.ascii	"\344\024x\311e~A\356P\202\355\313\313\356\227\365\012"
 670      657E41EE 
 670      5082EDCB 
 670      CBEE97F5 
 670      0A
 671 1dfd FEDA2FB3 		.ascii	"\376\332/\263 \347/\331i\34423w\360\320A\331\005\331"
 671      20E72FD9 
 671      69E43233 
 671      77F0D041 
 671      D905D9
 672 1e10 2ECCFD00 		.ascii	".\314\375\000\300\004\374\305\305\303\374\201\327|Q"
 672      C004FCC5 
 672      C5C3FC81 
ARM GAS  /tmp/ccvaPxlS.s 			page 54


 672      D77C51
 673 1e1f 77B0B4D0 		.ascii	"w\260\264\320\027\030\366\007+\312\315\034\234\237\223"
 673      1718F607 
 673      2BCACD1C 
 673      9C9F93
 674 1e2e 0FD26544 		.ascii	"\017\322eD\242%\317\364-\352\323{4p\2256phN\256\257"
 674      A225CFF4 
 674      2DEAD37B 
 674      34709536 
 674      70684EAE 
 675 1e43 604C7930 		.ascii	"`Ly0+X\364\253\214\212H8\303\037.y\252\264\2544\370"
 675      2B58F4AB 
 675      8C8A4838 
 675      C31F2E79 
 675      AAB4AC34 
 676 1e58 54D03F2C 		.ascii	"T\320?,\244\010\021-\2042\201\034\336\0128?\323\327"
 676      A408112D 
 676      8432811C 
 676      DE0A383F 
 676      D3D7
 677 1e6a 177D36C1 		.ascii	"\027}6\301\335%~`\2414\230\341+\014\026\371+\212\243"
 677      DD257E60 
 677      A13498E1 
 677      2B0C16F9 
 677      2B8AA3
 678 1e7d BE283C21 		.ascii	"\276(<!B\264\340\363\311\371\035\231y\203\340x\321\221"
 678      42B4E0F3 
 678      C9F91D99 
 678      7983E078 
 678      D191
 679 1e8f 9395E7C8 		.ascii	"\223\225\347\310\315\312s\366\317\317\313s\364\317\313"
 679      CDCA73F6 
 679      CFCFCB73 
 679      F4CFCB
 680 1e9e 730ECA7C 		.ascii	"s\016\312|)/;\231\002#\302@\211\225\373\213\245\022"
 680      292F3B99 
 680      0223C240 
 680      8995FB8B 
 680      A512
 681 1eb0 EB102A23 		.ascii	"\353\020*#\367\204\012AU\221\010\271D\366\373\374\016"
 681      F7840A41 
 681      559108B9 
 681      44F6FBFC 
 681      0E
 682 1ec1 0A817242 		.ascii	"\012\201rB.]\360\223\277\320\021\010\367!\245@\015\306"
 682      2E5DF093 
 682      BFD01108 
 682      F721A540 
 682      0DC6
 683 1ed3 1DC093A9 		.ascii	"\035\300\223\251\331\206\243q\241\003#\"c\"\262\240"
 683      D986A371 
 683      A1032322 
 683      6322B2A0 
 684 1ee3 DEE88870 		.ascii	"\336\350\210p\320\017\317M\011\214\360\321\353g\355"
 684      D00FCF4D 
 684      098CF0D1 
 684      EB67ED
ARM GAS  /tmp/ccvaPxlS.s 			page 55


 685 1ef2 61054610 		.ascii	"a\005F\020\011\334\345\276R(=8\225\207\203#_\264\000"
 685      09DCE5BE 
 685      52283D38 
 685      95878323 
 685      5FB400
 686 1f05 4195D22F 		.ascii	"A\225\322/op\346\340\321pgIy\2508\030\216d\014\314\314"
 686      6F70E6E0 
 686      D1706749 
 686      79A83818 
 686      8E640CCC 
 687 1f1a 84DB65F6 		.ascii	"\204\333e\366<\321\362p\250\314GqCe\036\2206\012\217"
 687      3CD1F270 
 687      A8CC4771 
 687      43651E90 
 687      360A8F
 688 1f2d 3135A476 		.ascii	"15\244v\370#\002e\341 \000\246\222d\037(4\020\035\375"
 688      F8230265 
 688      E12000A6 
 688      92641F28 
 688      34101DFD 
 689 1f41 BF9243F1 		.ascii	"\277\222C\361\215\374}\011\321\\88\034\254\312\027\025"
 689      8DFC7D09 
 689      D15C3838 
 689      1CACCA17 
 689      15
 690 1f52 C2CF0AE1 		.ascii	"\302\317\012\341\337\012\341\337\011\341\337\013\341"
 690      DF0AE1DF 
 690      09E1DF0B 
 690      E1
 691 1f5f E784F01F 		.ascii	"\347\204\360\037\034\341>\275\341\350#\024\207\341\364"
 691      1CE13EBD 
 691      E1E82314 
 691      87E1F4
 692 1f6e 8CABDC07 		.ascii	"\214\253\334\007O\363\020\015\215\012\206\341\\V\\\030"
 692      4FF3100D 
 692      8D0A86E1 
 692      5C565C18 
 693 1f7e 0C138DF9 		.ascii	"\014\023\215\371K\202\336\250T\333<\244\230\237\203"
 693      4B82DEA8 
 693      54DB3CA4 
 693      989F83
 694 1f8d 82A0050E 		.ascii	"\202\240\005\016Wp'\376\346\211\226\224\025\006\361"
 694      577027FE 
 694      E6899694 
 694      1506F1
 695 1f9c 7B51B17F 		.ascii	"{Q\261\177"
 696 1fa0 78C4130D 		.ascii	"x\304\023\015\007\213\"\250\024r\341*\211\014\207\037"
 696      078B22A8 
 696      1472E12A 
 696      890C871F 
 697 1fb0 257385EC 		.ascii	"%s\205\354\322\225;\\8\006~\362\006G\207\242 c\320="
 697      D2953B5C 
 697      38067EF2 
 697      064787A2 
 697      2063D03D 
 698 1fc4 2A5A36EC 		.ascii	"*Z6\354?\313S\203#\203\245\321\022\177\004\353\345("
 698      3FCB5383 
ARM GAS  /tmp/ccvaPxlS.s 			page 56


 698      2383A5D1 
 698      127F04EB 
 698      E528
 699 1fd6 72E128F7 		.ascii	"r\341(\367Ut\244\205\037\361\025C\365\367E;\305\315"
 699      5574A485 
 699      1FF11543 
 699      F5F7453B 
 699      C5CD
 700 1fe8 81A6A494 		.ascii	"\201\246\244\224\373F\371C\321P\351\360Nr\362\353\025"
 700      FB46F943 
 700      D150E9F0 
 700      4E72F2EB 
 700      15
 701 1ff9 C10AE0AA 		.ascii	"\301\012\340\252\263\352N"
 701      B3EA4E
 702 2000 4CEA50EE 		.ascii	"L\352P\356\203\307\342\245\013/!!X\016\036\0002\273"
 702      83C7E2A5 
 702      0B2F2121 
 702      580E1E00 
 702      32BB
 703 2012 4A2AA0FC 		.ascii	"J*\240\374\236\261ea%Q\342\001<%\024\035\316e\243JA"
 703      9EB16561 
 703      2551E201 
 703      3C25141D 
 703      CE65A34A 
 704 2027 8D880422 		.ascii	"\215\210\004\"\224\240\341\001\177p\037\341\264\003"
 704      94A0E101 
 704      7F701FE1 
 704      B403
 705 2035 D18ABF18 		.ascii	"\321\212\277\030\315\005\022\313\313\312\212\177o\353"
 705      CD0512CB 
 705      CBCA8A7F 
 705      6FEB
 706 2043 799230F0 		.ascii	"y\2220\360\314\256R\345\000-\007\303\301\322\000H\353"
 706      CCAE52E5 
 706      002D07C3 
 706      C1D20048 
 706      EB
 707 2054 A649A9C4 		.ascii	"\246I\251\304\343I\356\010\234C\237\224\274\354\374"
 707      E349EE08 
 707      9C439F94 
 707      BCECFC
 708 2063 ECBCBF64 		.ascii	"\354\274\277dg\365\206o}\343\337\372\010\371y\361/}"
 708      67F5866F 
 708      7DE3DFFA 
 708      08F979F1 
 708      2F7D
 709 2075 852CE5CB 		.ascii	"\205,\345\3133\256\314\274\314\241\312\367g\335y\177"
 709      33AECCBC 
 709      CCA1CAF7 
 709      67DD797F 
 710 2085 831425E1 		.ascii	"\203\024%\341\267\356\002m\302\357<9}\3633\007\014T"
 710      B7EE026D 
 710      C2EF3C39 
 710      7DF33307 
 710      0C54
 711 2097 527EEF82 		.ascii	"R~\357\202\024\025\306s\016p\272\003\354:$\244\003\372"
ARM GAS  /tmp/ccvaPxlS.s 			page 57


 711      1415C673 
 711      0E70BA03 
 711      EC3A24A4 
 711      03FA
 712 20a9 8C1E4D1D 		.ascii	"\214\036M\035\256\257\260\304\017\242w\313\032\334\317"
 712      AEAFB0C4 
 712      0FA277CB 
 712      1ADCCF
 713 20b8 9739C25F 		.ascii	"\2279\302_Z\032,V\004\315\314se\016\311*\310sf\016\355"
 713      5A1A2C56 
 713      04CDCC73 
 713      650EC92A 
 713      C873660E 
 714 20cd 076470BF 		.ascii	"\007dp\277<O\200\336\343\014\025\005\302\356PdD\250"
 714      3C4F80DE 
 714      E30C1505 
 714      C2EE5064 
 714      44A8
 715 20df 289A1209 		.ascii	"(\232\022\011\026\027\205J\013\203\243\335#\203\201"
 715      1617854A 
 715      0B83A3DD 
 715      238381
 716 20ee 6859B86B 		.ascii	"hY\270k\034\031\014\032\324\007\225\306\005_\302\243"
 716      1C190C1A 
 716      D40795C6 
 716      055FC2A3 
 717 20fe 098D8E4E 		.ascii	"\011\215\216N\011\217\2063\261\361\224\250|\345\004"
 717      098F8633 
 717      B1F194A8 
 717      7CE504
 718 210d 51CA5DC5 		.ascii	"Q\312]\305\221@\321p\327\010B\275\2412Z\013\\\276\376"
 718      9140D170 
 718      D70842BD 
 718      A1325A0B 
 718      5CBEFE
 719 2120 50A4A626 		.ascii	"P\244\246&4\322\017\006P\021\201\037\300\022J\243E "
 719      34D20F06 
 719      5011811F 
 719      C0124AA3 
 719      4520
 720 2132 933D33A0 		.ascii	"\223=3\240\234\0223x\260\277?\022\314\017\202\371\225"
 720      9C123378 
 720      B0BF3F12 
 720      CC0F82F9 
 720      95
 721 2143 4643FEE2 		.ascii	"FC\376\342|\374\341\027z\211\177\031\\\320\027\233\233"
 721      7CFCE117 
 721      7A897F19 
 721      5CD0179B 
 721      9B
 722 2154 E2D0B08C 		.ascii	"\342\320\260\214\341\201\000\323\354<\373\364sO?\253"
 722      E18100D3 
 722      EC3CFBF4 
 722      734F3FAB 
 723 2164 6EAAA0D9 		.ascii	"n\252\240\331!\2763\022\372\277D\260Q\341P4\350$\346"
 723      21BE3312 
 723      FABF44B0 
ARM GAS  /tmp/ccvaPxlS.s 			page 58


 723      51E15034 
 723      E824E6
 724 2177 E528AF88 		.ascii	"\345(\257\210:\206\007\243\216\221%Q\257,\201\003.\034"
 724      3A8607A3 
 724      8E912551 
 724      AF2C8103 
 724      2E1C
 725 2189 4525D18E 		.ascii	"E%\321\216\221B\010\035\"\241\222\362\342\340\323\001"
 725      9142081D 
 725      22A192F2 
 725      E2E0D301 
 726 2199 0C1E686B 		.ascii	"\014\036hk\237\026\277\002>RC\021p\004\221`8\032,L\203"
 726      9F16BF02 
 726      3E524311 
 726      70049160 
 726      381A2C4C 
 727 21ae EBF27059 		.ascii	"\353\362pY\024\012#XH|h)\\u(\014E\244KgdLi\340\217v"
 727      140A2358 
 727      487C6829 
 727      5C75280C 
 727      45A44B67 
 728 21c8 6205B8F6 		.ascii	"b\005\270\366\205\312\206\025\227\005^\003\001:\365"
 728      85CA8615 
 728      97055E03 
 728      013AF5
 729 21d7 271759C1 		.ascii	"'\027Y\301\221\241@0\247\264\250\314;\254\3705\037\021"
 729      91A14030 
 729      A7B4A8CC 
 729      3BACF835 
 729      1F11
 730 21e9 CA432E4A 		.ascii	"\312C.J+J\274 \013pST\326\001\022\344\350\242\377\240"
 730      2B4ABC20 
 730      0B705354 
 730      D60112E4 
 730      E8A2FFA0 
 731 21fd 97E4E882 		.ascii	"\227\344\350\202\\\222\350\002\323hL\321\221\\f\346"
 731      5C92E802 
 731      D3684CD1 
 731      915C66E6 
 732 220d 0E19920D 		.ascii	"\016\031\222\015_\207\014\354B\276f\345\344+))$\005"
 732      5F870CEC 
 732      42BE66E5 
 732      E42B2929 
 732      2405
 733 221f 239154F9 		.ascii	"#\221T\371\012R\361\372\257y9\005\362u\376+C2\341\332"
 733      0A52F1FA 
 733      AF793905 
 733      F275FE2B 
 733      4332E1DA 
 734 2233 110841CB 		.ascii	"\021\010A\313\031)\364\006\374\345\376@(:\246\0232\357"
 734      1929F406 
 734      FCE5FE40 
 734      283AA613 
 734      32EF
 735 2245 F3171686 		.ascii	"\363\027\026\206\203\221H0\322\235\204c\320\032\373"
 735      83914830 
 735      D29D8463 
ARM GAS  /tmp/ccvaPxlS.s 			page 59


 735      D01AFB
 736 2254 4057017F 		.ascii	"@W\001\177\2700\256<'\374P\370\210\352W,&E\237n\352"
 736      B830AE3C 
 736      27FC50F8 
 736      88EA572C 
 736      26459F6E 
 737 2269 ACBDE877 		.ascii	"\254\275\350w\341BS<\340\267\360+i\274\311\231\230u"
 737      E142533C 
 737      E0B7F02B 
 737      69BCC999 
 737      9875
 738 227b A1A9ED6A 		.ascii	"\241\251\355jc\314\"b#\256\001\375\012\006\344{\210"
 738      63CC2262 
 738      23AE01FD 
 738      0A06E47B 
 738      88
 739 228c DB87CAE8 		.ascii	"\333\207\312\350(\014\217t\005\210\206\335\245>\270"
 739      280C8F74 
 739      058886DD 
 739      A53EB8
 740 229b 33E21A45 		.ascii	"3\342\032EZ\006oQ$\204M\204\363\257\271yYB\2500\245"
 740      5A066F51 
 740      24844D84 
 740      F3AFB979 
 740      5942A830 
 741 22b0 D4172E2B 		.ascii	"\324\027.+\203\220(\354\312\"I\035\212\375\340\334\241"
 741      839028EC 
 741      CA22491D 
 741      8AFDE0DC 
 741      A1
 742 22c1 08C14D16 		.ascii	"\010\301M\026\205\203Az\351E\014\260cW\021\026\332\310"
 742      8583417A 
 742      E9450CB0 
 742      63571116 
 742      DAC8
 743 22d3 3208DB22 		.ascii	"2\010\333\"A\017$\342\031\262\223\263\267\320\037\365"
 743      410F24E2 
 743      19B293B3 
 743      B7D01FF5 
 744 22e3 63C228A2 		.ascii	"c\302(\242\233@\324\001gO\0214\333\020OxA\270<\260\334"
 744      9B40D401 
 744      674F1134 
 744      DB104F78 
 744      41B83CB0 
 745 22f8 31C0229E 		.ascii	"1\300\"\236\177k+\364\014\206\241\016\2218/\037\257"
 745      7F6B2BF4 
 745      0C86A10E 
 745      91382F1F 
 745      AF
 746 2309 A8157752 		.ascii	"\250\025wR\177\001\223N!qK\250\004l\307\011\365#\352"
 746      7F01934E 
 746      21714BA8 
 746      046CC709 
 746      F523EA
 747 231c 04A38ABA 		.ascii	"\004\243\212\272\2614\242.Rk\242\246\341\267\246\202"
 747      B134A22E 
 747      526BA2A6 
ARM GAS  /tmp/ccvaPxlS.s 			page 60


 747      E1B7A682 
 748 232c 633B48EA 		.ascii	"c;H\352wG\274\362E\312*\302\304\305\247\251\277v\246"
 748      7747BCF2 
 748      45CA2AC2 
 748      C4C5A7A9 
 748      BF76A6
 749 233f 5F48C312 		.ascii	"_H\303\022\204V\007\212W\233\340\001\367H\332\237T8"
 749      8456078A 
 749      579BE001 
 749      F748DA9F 
 749      5438
 750 2351 CB692970 		.ascii	"\313i)pM\301)\0246\332`!\220\214\227\344\367Q\264%\017"
 750      4DC12914 
 750      36DA6021 
 750      908C97E4 
 750      F751B425 
 751 2366 4630B70B 		.ascii	"F0\267\013\357K\211\024Ju#%?K\252\032\036\270\"5\303"
 751      EF4B8914 
 751      4A752325 
 751      3F4BAA1A 
 751      1EB82235 
 752 237b 0B673476 		.ascii	"\013g4v{2b\223Id| T\012:\223\333l\2107\345K\257|\231"
 752      7B326293 
 752      49647C20 
 752      540A3A93 
 752      DB6C8837 
 753 2394 F2BADCC2 		.ascii	"\362\272\334\302\303U\240\254\002\002\255\260\367u\337"
 753      C355A0AC 
 753      0202ADB0 
 753      F775DF
 754 23a3 B08A2268 		.ascii	"\260\212\"h\374\\\257\373\242e\345\036\270%\\\036\015"
 754      FC5CAFFB 
 754      A265E51E 
 754      B8255C1E 
 754      0D
 755 23b4 C3395C08 		.ascii	"\3039\\\010\347\224\327K\313\242\241\2421\200\362\272"
 755      E794D74B 
 755      CBA2A1A2 
 755      3180F2BA 
 756 23c4 8F5EBA5F 		.ascii	"\217^\272_\0075\224\276\346\016!f\307\262\212\250\352"
 756      073594BE 
 756      E60E2166 
 756      C7B28AA8 
 756      EA
 757 23d5 B1EE32BC 		.ascii	"\261\3562\274\020B\303\204\262a\017\274\234\337/\257"
 757      1042C384 
 757      B2610FBC 
 757      9CDF2FAF 
 758 23e5 40D5883E 		.ascii	"@\325\210>\343\034X04\317U\021\361\207\243\235\260\266"
 758      E31C5830 
 758      34CF5511 
 758      F187A39D 
 758      B0B6
 759 23f7 E4948688 		.ascii	"\344\224\206\210o\005\233\024\"\205\216\222\342B!R\336"
 759      6F059B14 
 759      22858E92 
 759      E2422152 
ARM GAS  /tmp/ccvaPxlS.s 			page 61


 759      DE
 760 2408 99FC3230 		.ascii	"\231\37420\030\215\373\272\016x+\244\014\310\247Uo@"
 760      188DFBBA 
 760      0E782BA4 
 760      0CC8A755 
 760      6F40
 761 241a FE60E4BE 		.ascii	"\376`\344\276\320\226+\366\207\207\223\332:\322\217"
 761      D0962BF6 
 761      878793DA 
 761      3AD28F
 762 2429 C5D8D1E7 		.ascii	"\305\330\321\347\033^Z\021\360I_S\3774\254\"T\034}*"
 762      1B5E5A11 
 762      F0495F53 
 762      FF34AC22 
 762      541C7D2A 
 763 243d 54FA670E 		.ascii	"T\372g\016\002,)\025B\346\221\3245?\000\217\315\212"
 763      022C2915 
 763      42E691D4 
 763      353F008F 
 763      CD8A
 764 244f BB53CF00 		.ascii	"\273S\317\000h\221_\036T\340\032\220\347\313})\025("
 764      68915F1E 
 764      54E01A90 
 764      E7CB7D29 
 764      1528
 765 2461 38AE977C 		.ascii	"8\256\227|\331yy\035\340:gH\001\271L\203\313!\271\005"
 765      D979791D 
 765      E03A6748 
 765      01B94C83 
 765      CB21B905 
 766 2475 525F0ABF 		.ascii	"R_\012\277\370\006\344\014\312\226.\207\366+x\261\023"
 766      F806E40C 
 766      CA962E87 
 766      F62B78B1 
 766      13
 767 2486 DEFD977E 		.ascii	"\336\375\227~\203r\262|C\372\015\316N!H\331Cr\262\263"
 767      8372B27C 
 767      43FA0DCE 
 767      4E2148D9 
 767      4372B2B3 
 768 249a BC7095FD 		.ascii	"\274p\225\375\267\234\374\202.\252[r\373\377o\360\214"
 768      B79CFC82 
 768      2EAA5B72 
 768      FBFF6FF0 
 768      8C
 769 24ab 5D2185F8 		.ascii	"]!\205\370\277l\337\320\274\334\002H\310\316\352\254"
 769      BF6CDFD0 
 769      BCDC0248 
 769      C8CEEAAC 
 770 24bb BA292B8F 		.ascii	"\272)+\217\370V\351\331\331C\372\365\037D\177\227\236"
 770      F856E9D9 
 770      D943FAF5 
 770      1F447F97 
 770      9E
 771 24cc 9EFF4A7E 		.ascii	"\236\377J~A\366`\362\340\301/\015\310\367\365\353\237"
 771      41F660F2 
 771      E0C12F0D 
ARM GAS  /tmp/ccvaPxlS.s 			page 62


 771      C8F7F5EB 
 771      9F
 772 24dd 9B070084 		.ascii	"\233\007\000\204\247\202\234\301\331\271/\027\020\036"
 772      A7829CC1 
 772      D9B92F17 
 772      101E
 773 24eb 06E566BE 		.ascii	"\006\345f\276\224\235\3255\016\222\373\362\300\027\301"
 773      949DD535 
 773      0E92FBF2 
 773      C017C1
 774 24fa 55E7653F 		.ascii	"U\347e?L\356\313\315\365\015\3567\344\025_\356\320\354"
 774      4CEECBCD 
 774      F50DEE37 
 774      E4155FEE 
 774      D0EC
 775 250c 2114F341 		.ascii	"!\024\363A\325\363!n\000I\012\262\363\\\005\231/B\370"
 775      D5F3216E 
 775      00490AB2 
 775      F35C0599 
 775      2F42F8
 776 251f 50E42B21 		.ascii	"P\344+!\205\325\001\024\230)\265K\201\021\005#\012\363"
 776      85D50114 
 776      9829B54B 
 776      81110523 
 776      0AF3
 777 2531 8B83C172 		.ascii	"\213\203\301r\342T\362\243`\016D\277\271\303\376\023"
 777      E254F2A3 
 777      600E44BF 
 777      B9C3FE13 
 778 2541 7E252691 		.ascii	"~%&\221F{K4\204}\310'u\243|\221`tx\270\254\242\234\204"
 778      467B4B34 
 778      847DC827 
 778      75A37C91 
 778      607478B8 
 779 2559 096E8207 		.ascii	"\011n\202\007\241\003\351\011\367\2010\"\023\303\010"
 779      A103E909 
 779      F7813022 
 779      13C308
 780 2568 A01DA8AB 		.ascii	"\240\035\250\253\031\012\371\205\374\254\377\017\245"
 780      190AF985 
 780      FCACFF0F 
 780      A5
 781 2575 DF657B   		.ascii	"\337e{"
 782              		.text
 783              		.section	.gnu.lto_.symtab.985219db486779b,"",%progbits
 784 0000 6D6D635F 		.ascii	"mmc_lld_is_card_inserted\000\000\000\000\000\000\000"
 784      6C6C645F 
 784      69735F63 
 784      6172645F 
 784      696E7365 
 785 001f 00000000 		.ascii	"\000\000\000\000\000?\002\000\000mmc_lld_is_write_p"
 785      003F0200 
 785      006D6D63 
 785      5F6C6C64 
 785      5F69735F 
 786 003a 726F7465 		.ascii	"rotected\000\000\000\000\000\000\000\000\000\000\000"
 786      63746564 
ARM GAS  /tmp/ccvaPxlS.s 			page 63


 786      00000000 
 786      00000000 
 786      000000
 787 004d 00A20200 		.ascii	"\000\242\002\000\000sdmmcInitialize\000\000\000\000"
 787      0073646D 
 787      6D63496E 
 787      69746961 
 787      6C697A65 
 788 0065 00000000 		.ascii	"\000\000\000\000\000\000\000\000\246\002\000\000sdm"
 788      00000000 
 788      A6020000 
 788      73646D
 789 0074 6D476574 		.ascii	"mGetMMCDriver\000\000\000\000\000\000\000\000\000\000"
 789      4D4D4344 
 789      72697665 
 789      72000000 
 789      00000000 
 790 008b 00009A03 		.ascii	"\000\000\232\003\000\000sdmmcGetFS\000\000\000\000\000"
 790      00007364 
 790      6D6D6347 
 790      65744653 
 790      00000000 
 791 00a0 00000000 		.ascii	"\000\000\000\000\000\000\000\240\003\000\000sdmmcFS"
 791      000000A0 
 791      03000073 
 791      646D6D63 
 791      4653
 792 00b2 4D6F756E 		.ascii	"Mounted\000\000\000\000\000\000\000\000\000\000\000"
 792      74656400 
 792      00000000 
 792      00000000 
 792      0000
 793 00c4 00A60300 		.ascii	"\000\246\003\000\000SPID1\000\000\002\000\000\000\000"
 793      00535049 
 793      44310000 
 793      02000000 
 793      00
 794 00d5 00000000 		.ascii	"\000\000\000\000\000\022\004\000\000chvprintf\000\000"
 794      00120400 
 794      00636876 
 794      7072696E 
 794      74660000 
 795 00e9 02000000 		.ascii	"\002\000\000\000\000\000\000\000\000\000\255\003\000"
 795      00000000 
 795      0000AD03 
 795      00
 796 00f6 006D6D63 		.ascii	"\000mmcDisconnect\000\000\002\000\000\000\000\000\000"
 796      44697363 
 796      6F6E6E65 
 796      63740000 
 796      02000000 
 797 010d 000000BC 		.ascii	"\000\000\000\274\003\000\000f_mount\000\000\002\000"
 797      03000066 
 797      5F6D6F75 
 797      6E740000 
 797      0200
 798 011f 00000000 		.ascii	"\000\000\000\000\000\000\000\000\276\003\000\000mmc"
ARM GAS  /tmp/ccvaPxlS.s 			page 64


 798      00000000 
 798      BE030000 
 798      6D6D63
 799 012e 436F6E6E 		.ascii	"Connect\000\000\002\000\000\000\000\000\000\000\000"
 799      65637400 
 799      00020000 
 799      00000000 
 799      0000
 800 0140 00F60300 		.ascii	"\000\366\003\000\000chThdSleep\000\000\002\000\000\000"
 800      00636854 
 800      6864536C 
 800      65657000 
 800      00020000 
 801 0155 00000000 		.ascii	"\000\000\000\000\000\000\370\003\000\000mmcStart\000"
 801      0000F803 
 801      00006D6D 
 801      63537461 
 801      727400
 802 0168 00020000 		.ascii	"\000\002\000\000\000\000\000\000\000\000\000\374\003"
 802      00000000 
 802      000000FC 
 802      03
 803 0175 00006D6D 		.ascii	"\000\000mmcObjectInit\000\000\002\000\000\000\000\000"
 803      634F626A 
 803      65637449 
 803      6E697400 
 803      00020000 
 804 018c 00000000 		.ascii	"\000\000\000\000\001\004\000\000_pal_lld_setgroupmo"
 804      01040000 
 804      5F70616C 
 804      5F6C6C64 
 804      5F736574 
 805 01a7 64650000 		.ascii	"de\000\000\002\000\000\000\000\000\000\000\000\000\005"
 805      02000000 
 805      00000000 
 805      000005
 806 01b6 040000   		.ascii	"\004\000\000"
 807              		.text
 808              		.section	.gnu.lto_.opts,"",%progbits
 809 0000 272D6D63 		.ascii	"'-mcpu=cortex-m3' '-mno-thumb-interwork' '-mthumb' "
 809      70753D63 
 809      6F727465 
 809      782D6D33 
 809      2720272D 
 810 0033 272D4F32 		.ascii	"'-O2' '-fomit-frame-pointer' '-falign-functions=16'"
 810      2720272D 
 810      666F6D69 
 810      742D6672 
 810      616D652D 
 811 0066 20272D66 		.ascii	" '-ffunction-sections' '-fdata-sections' '-fno-comm"
 811      66756E63 
 811      74696F6E 
 811      2D736563 
 811      74696F6E 
 812 0099 6F6E2720 		.ascii	"on' '-flto'\000"
 812      272D666C 
 812      746F2700 
ARM GAS  /tmp/ccvaPxlS.s 			page 65


 813              		.text
 814              		.section	.text.chprintf,"ax",%progbits
 815              		.align	2
 816              		.p2align 4,,15
 817              		.thumb
 818              		.thumb_func
 819              		.type	chprintf, %function
 820              	chprintf:
 821              		@ args = 4, pretend = 12, frame = 8
 822              		@ frame_needed = 0, uses_anonymous_args = 1
 823 0000 0EB4     		push	{r1, r2, r3}
 824 0002 00B5     		push	{lr}
 825 0004 82B0     		sub	sp, sp, #8
 826 0006 03AB     		add	r3, sp, #12
 827 0008 53F8041B 		ldr	r1, [r3], #4
 828 000c 1A46     		mov	r2, r3
 829 000e 0193     		str	r3, [sp, #4]
 830 0010 FFF7FEFF 		bl	chvprintf
 831 0014 02B0     		add	sp, sp, #8
 832              		@ sp needed
 833 0016 5DF804EB 		ldr	lr, [sp], #4
 834 001a 03B0     		add	sp, sp, #12
 835 001c 7047     		bx	lr
 836              		.size	chprintf, .-chprintf
 837 001e 00BF     		.section	.text.mmc_lld_is_card_inserted,"ax",%progbits
 838              		.align	2
 839              		.p2align 4,,15
 840              		.global	mmc_lld_is_card_inserted
 841              		.thumb
 842              		.thumb_func
 843              		.type	mmc_lld_is_card_inserted, %function
 844              	mmc_lld_is_card_inserted:
 845              		@ args = 0, pretend = 0, frame = 0
 846              		@ frame_needed = 0, uses_anonymous_args = 0
 847              		@ link register save eliminated.
 848 0000 024B     		ldr	r3, .L3
 849 0002 9868     		ldr	r0, [r3, #8]
 850 0004 C0F3C010 		ubfx	r0, r0, #7, #1
 851 0008 7047     		bx	lr
 852              	.L4:
 853 000a 00BF     		.align	2
 854              	.L3:
 855 000c 00100140 		.word	1073811456
 856              		.size	mmc_lld_is_card_inserted, .-mmc_lld_is_card_inserted
 857              		.section	.text.mmc_lld_is_write_protected,"ax",%progbits
 858              		.align	2
 859              		.p2align 4,,15
 860              		.global	mmc_lld_is_write_protected
 861              		.thumb
 862              		.thumb_func
 863              		.type	mmc_lld_is_write_protected, %function
 864              	mmc_lld_is_write_protected:
 865              		@ args = 0, pretend = 0, frame = 0
 866              		@ frame_needed = 0, uses_anonymous_args = 0
 867              		@ link register save eliminated.
 868 0000 034B     		ldr	r3, .L6
 869 0002 9868     		ldr	r0, [r3, #8]
ARM GAS  /tmp/ccvaPxlS.s 			page 66


 870 0004 C0F34020 		ubfx	r0, r0, #9, #1
 871 0008 80F00100 		eor	r0, r0, #1
 872 000c 7047     		bx	lr
 873              	.L7:
 874 000e 00BF     		.align	2
 875              	.L6:
 876 0010 00080140 		.word	1073809408
 877              		.size	mmc_lld_is_write_protected, .-mmc_lld_is_write_protected
 878 0014 AFF30080 		.section	.text.sdmmcInitialize,"ax",%progbits
 878      AFF30080 
 878      AFF30080 
 879              		.align	2
 880              		.p2align 4,,15
 881              		.global	sdmmcInitialize
 882              		.thumb
 883              		.thumb_func
 884              		.type	sdmmcInitialize, %function
 885              	sdmmcInitialize:
 886              		@ args = 0, pretend = 0, frame = 0
 887              		@ frame_needed = 0, uses_anonymous_args = 0
 888 0000 F8B5     		push	{r3, r4, r5, r6, r7, lr}
 889 0002 DFF8F4C0 		ldr	ip, .L16+44
 890 0006 314D     		ldr	r5, .L16
 891 0008 314F     		ldr	r7, .L16+4
 892 000a 0023     		movs	r3, #0
 893 000c DFF8ECE0 		ldr	lr, .L16+48
 894 0010 304E     		ldr	r6, .L16+8
 895 0012 80E80210 		stmia	r0, {r1, ip}
 896 0016 8360     		str	r3, [r0, #8]
 897 0018 4373     		strb	r3, [r0, #13]
 898 001a 0446     		mov	r4, r0
 899 001c 2A60     		str	r2, [r5]
 900 001e 3846     		mov	r0, r7
 901 0020 4021     		movs	r1, #64
 902 0022 0622     		movs	r2, #6
 903 0024 CEF80040 		str	r4, [lr]
 904 0028 FFF7FEFF 		bl	_pal_lld_setgroupmode
 905 002c 3046     		mov	r0, r6
 906 002e 8021     		movs	r1, #128
 907 0030 0322     		movs	r2, #3
 908 0032 FFF7FEFF 		bl	_pal_lld_setgroupmode
 909 0036 2848     		ldr	r0, .L16+12
 910 0038 2021     		movs	r1, #32
 911 003a 1022     		movs	r2, #16
 912 003c FFF7FEFF 		bl	_pal_lld_setgroupmode
 913 0040 2548     		ldr	r0, .L16+12
 914 0042 8021     		movs	r1, #128
 915 0044 1022     		movs	r2, #16
 916 0046 FFF7FEFF 		bl	_pal_lld_setgroupmode
 917 004a 4021     		movs	r1, #64
 918 004c 0222     		movs	r2, #2
 919 004e 2248     		ldr	r0, .L16+12
 920 0050 FFF7FEFF 		bl	_pal_lld_setgroupmode
 921 0054 2068     		ldr	r0, [r4]
 922 0056 FFF7FEFF 		bl	mmcObjectInit
 923 005a 2068     		ldr	r0, [r4]
 924 005c 1F49     		ldr	r1, .L16+16
ARM GAS  /tmp/ccvaPxlS.s 			page 67


 925 005e FFF7FEFF 		bl	mmcStart
 926 0062 B368     		ldr	r3, [r6, #8]
 927 0064 2868     		ldr	r0, [r5]
 928 0066 1B06     		lsls	r3, r3, #24
 929 0068 23D5     		bpl	.L9
 930 006a 1D49     		ldr	r1, .L16+20
 931 006c FFF7FEFF 		bl	chprintf
 932 0070 4023     		movs	r3, #64
 933 0072 6420     		movs	r0, #100
 934 0074 7B61     		str	r3, [r7, #20]
 935 0076 FFF7FEFF 		bl	chThdSleep
 936 007a 2068     		ldr	r0, [r4]
 937 007c FFF7FEFF 		bl	mmcConnect
 938 0080 78B9     		cbnz	r0, .L14
 939 0082 0246     		mov	r2, r0
 940 0084 1749     		ldr	r1, .L16+24
 941 0086 A068     		ldr	r0, [r4, #8]
 942 0088 FFF7FEFF 		bl	f_mount
 943 008c 0646     		mov	r6, r0
 944 008e 2868     		ldr	r0, [r5]
 945 0090 A6B9     		cbnz	r6, .L15
 946 0092 1549     		ldr	r1, .L16+28
 947 0094 FFF7FEFF 		bl	chprintf
 948 0098 0123     		movs	r3, #1
 949 009a 3046     		mov	r0, r6
 950 009c 6373     		strb	r3, [r4, #13]
 951              	.L11:
 952 009e 40B2     		sxtb	r0, r0
 953 00a0 F8BD     		pop	{r3, r4, r5, r6, r7, pc}
 954              	.L14:
 955 00a2 2868     		ldr	r0, [r5]
 956 00a4 1149     		ldr	r1, .L16+32
 957 00a6 0122     		movs	r2, #1
 958 00a8 FFF7FEFF 		bl	chprintf
 959 00ac 0120     		movs	r0, #1
 960 00ae 40B2     		sxtb	r0, r0
 961 00b0 F8BD     		pop	{r3, r4, r5, r6, r7, pc}
 962              	.L9:
 963 00b2 0F49     		ldr	r1, .L16+36
 964 00b4 FFF7FEFF 		bl	chprintf
 965 00b8 FD20     		movs	r0, #253
 966 00ba F0E7     		b	.L11
 967              	.L15:
 968 00bc 0D49     		ldr	r1, .L16+40
 969 00be FFF7FEFF 		bl	chprintf
 970 00c2 2068     		ldr	r0, [r4]
 971 00c4 FFF7FEFF 		bl	mmcDisconnect
 972 00c8 FE20     		movs	r0, #254
 973 00ca E8E7     		b	.L11
 974              	.L17:
 975              		.align	2
 976              	.L16:
 977 00cc 00000000 		.word	.LANCHOR0
 978 00d0 000C0140 		.word	1073810432
 979 00d4 00100140 		.word	1073811456
 980 00d8 00080140 		.word	1073809408
 981 00dc 00000000 		.word	.LANCHOR2
ARM GAS  /tmp/ccvaPxlS.s 			page 68


 982 00e0 00000000 		.word	.LC0
 983 00e4 34000000 		.word	.LC2
 984 00e8 58000000 		.word	.LC4
 985 00ec 14000000 		.word	.LC1
 986 00f0 74000000 		.word	.LC5
 987 00f4 38000000 		.word	.LC3
 988 00f8 00000000 		.word	SPID1
 989 00fc 00000000 		.word	.LANCHOR1
 990              		.size	sdmmcInitialize, .-sdmmcInitialize
 991              		.section	.text.sdmmGetMMCDriver,"ax",%progbits
 992              		.align	2
 993              		.p2align 4,,15
 994              		.global	sdmmGetMMCDriver
 995              		.thumb
 996              		.thumb_func
 997              		.type	sdmmGetMMCDriver, %function
 998              	sdmmGetMMCDriver:
 999              		@ args = 0, pretend = 0, frame = 0
 1000              		@ frame_needed = 0, uses_anonymous_args = 0
 1001              		@ link register save eliminated.
 1002 0000 037B     		ldrb	r3, [r0, #12]	@ zero_extendqisi2
 1003 0002 0BB1     		cbz	r3, .L20
 1004 0004 0068     		ldr	r0, [r0]
 1005 0006 7047     		bx	lr
 1006              	.L20:
 1007 0008 1846     		mov	r0, r3
 1008 000a 7047     		bx	lr
 1009              		.size	sdmmGetMMCDriver, .-sdmmGetMMCDriver
 1010 000c AFF30080 		.section	.text.sdmmcGetFS,"ax",%progbits
 1011              		.align	2
 1012              		.p2align 4,,15
 1013              		.global	sdmmcGetFS
 1014              		.thumb
 1015              		.thumb_func
 1016              		.type	sdmmcGetFS, %function
 1017              	sdmmcGetFS:
 1018              		@ args = 0, pretend = 0, frame = 0
 1019              		@ frame_needed = 0, uses_anonymous_args = 0
 1020              		@ link register save eliminated.
 1021 0000 437B     		ldrb	r3, [r0, #13]	@ zero_extendqisi2
 1022 0002 0BB1     		cbz	r3, .L23
 1023 0004 8068     		ldr	r0, [r0, #8]
 1024 0006 7047     		bx	lr
 1025              	.L23:
 1026 0008 1846     		mov	r0, r3
 1027 000a 7047     		bx	lr
 1028              		.size	sdmmcGetFS, .-sdmmcGetFS
 1029 000c AFF30080 		.section	.text.sdmmcFSMounted,"ax",%progbits
 1030              		.align	2
 1031              		.p2align 4,,15
 1032              		.global	sdmmcFSMounted
 1033              		.thumb
 1034              		.thumb_func
 1035              		.type	sdmmcFSMounted, %function
 1036              	sdmmcFSMounted:
 1037              		@ args = 0, pretend = 0, frame = 0
 1038              		@ frame_needed = 0, uses_anonymous_args = 0
ARM GAS  /tmp/ccvaPxlS.s 			page 69


 1039              		@ link register save eliminated.
 1040 0000 407B     		ldrb	r0, [r0, #13]	@ zero_extendqisi2
 1041 0002 7047     		bx	lr
 1042              		.size	sdmmcFSMounted, .-sdmmcFSMounted
 1043 0004 AFF30080 		.section	.data.hsCfg,"aw",%progbits
 1043      AFF30080 
 1043      AFF30080 
 1044              		.align	2
 1045              		.type	hsCfg, %object
 1046              		.size	hsCfg, 12
 1047              	hsCfg:
 1048 0000 00000000 		.word	0
 1049 0004 000C0140 		.word	1073810432
 1050 0008 0600     		.short	6
 1051 000a 0000     		.short	0
 1052              		.section	.data.mmcCfg,"aw",%progbits
 1053              		.align	2
 1054              		.set	.LANCHOR2,. + 0
 1055              		.type	mmcCfg, %object
 1056              		.size	mmcCfg, 12
 1057              	mmcCfg:
 1058 0000 00000000 		.word	SPID1
 1059 0004 00000000 		.word	lsCfg
 1060 0008 00000000 		.word	hsCfg
 1061              		.section	.bss.serialPort,"aw",%nobits
 1062              		.align	2
 1063              		.set	.LANCHOR0,. + 0
 1064              		.type	serialPort, %object
 1065              		.size	serialPort, 4
 1066              	serialPort:
 1067 0000 00000000 		.space	4
 1068              		.section	.bss.SD,"aw",%nobits
 1069              		.align	2
 1070              		.set	.LANCHOR1,. + 0
 1071              		.type	SD, %object
 1072              		.size	SD, 4
 1073              	SD:
 1074 0000 00000000 		.space	4
 1075              		.section	.rodata.str1.4,"aMS",%progbits,1
 1076              		.align	2
 1077              	.LC0:
 1078 0000 53442F4D 		.ascii	"SD/MMC:Card Found\012\000"
 1078      4D433A43 
 1078      61726420 
 1078      466F756E 
 1078      640A00
 1079 0013 00       		.space	1
 1080              	.LC1:
 1081 0014 53442F4D 		.ascii	"SD/MMC:Connect Error,ERR%02d\012\000"
 1081      4D433A43 
 1081      6F6E6E65 
 1081      63742045 
 1081      72726F72 
 1082 0032 0000     		.space	2
 1083              	.LC2:
 1084 0034 2F00     		.ascii	"/\000"
 1085 0036 0000     		.space	2
ARM GAS  /tmp/ccvaPxlS.s 			page 70


 1086              	.LC3:
 1087 0038 53442F4D 		.ascii	"SD/MMC:File System Mount Error\012\000"
 1087      4D433A46 
 1087      696C6520 
 1087      53797374 
 1087      656D204D 
 1088              	.LC4:
 1089 0058 53442F4D 		.ascii	"SD/MMC:File System Mounted\012\000"
 1089      4D433A46 
 1089      696C6520 
 1089      53797374 
 1089      656D204D 
 1090              	.LC5:
 1091 0074 53442F4D 		.ascii	"SD/MMC:No SD Card Found\012\000"
 1091      4D433A4E 
 1091      6F205344 
 1091      20436172 
 1091      6420466F 
 1092 008d 000000   		.section	.data.lsCfg,"aw",%progbits
 1093              		.align	2
 1094              		.type	lsCfg, %object
 1095              		.size	lsCfg, 12
 1096              	lsCfg:
 1097 0000 00000000 		.word	0
 1098 0004 000C0140 		.word	1073810432
 1099 0008 0600     		.short	6
 1100 000a 3000     		.short	48
 1101              		.comm	__gnu_lto_v1,1,1
 1102              		.ident	"GCC: (GNU Tools for ARM Embedded Processors) 4.8.4 20140526 (release) [ARM/embedded-4_8-br
ARM GAS  /tmp/ccvaPxlS.s 			page 71


DEFINED SYMBOLS
                            *ABS*:0000000000000000 sdmmcsimple.c
     /tmp/ccvaPxlS.s:815    .text.chprintf:0000000000000000 $t
     /tmp/ccvaPxlS.s:820    .text.chprintf:0000000000000000 chprintf
     /tmp/ccvaPxlS.s:838    .text.mmc_lld_is_card_inserted:0000000000000000 $t
     /tmp/ccvaPxlS.s:844    .text.mmc_lld_is_card_inserted:0000000000000000 mmc_lld_is_card_inserted
     /tmp/ccvaPxlS.s:855    .text.mmc_lld_is_card_inserted:000000000000000c $d
     /tmp/ccvaPxlS.s:858    .text.mmc_lld_is_write_protected:0000000000000000 $t
     /tmp/ccvaPxlS.s:864    .text.mmc_lld_is_write_protected:0000000000000000 mmc_lld_is_write_protected
     /tmp/ccvaPxlS.s:876    .text.mmc_lld_is_write_protected:0000000000000010 $d
     /tmp/ccvaPxlS.s:879    .text.sdmmcInitialize:0000000000000000 $t
     /tmp/ccvaPxlS.s:885    .text.sdmmcInitialize:0000000000000000 sdmmcInitialize
     /tmp/ccvaPxlS.s:977    .text.sdmmcInitialize:00000000000000cc $d
     /tmp/ccvaPxlS.s:992    .text.sdmmGetMMCDriver:0000000000000000 $t
     /tmp/ccvaPxlS.s:998    .text.sdmmGetMMCDriver:0000000000000000 sdmmGetMMCDriver
     /tmp/ccvaPxlS.s:1011   .text.sdmmcGetFS:0000000000000000 $t
     /tmp/ccvaPxlS.s:1017   .text.sdmmcGetFS:0000000000000000 sdmmcGetFS
     /tmp/ccvaPxlS.s:1030   .text.sdmmcFSMounted:0000000000000000 $t
     /tmp/ccvaPxlS.s:1036   .text.sdmmcFSMounted:0000000000000000 sdmmcFSMounted
     /tmp/ccvaPxlS.s:1044   .data.hsCfg:0000000000000000 $d
     /tmp/ccvaPxlS.s:1047   .data.hsCfg:0000000000000000 hsCfg
     /tmp/ccvaPxlS.s:1053   .data.mmcCfg:0000000000000000 $d
     /tmp/ccvaPxlS.s:1057   .data.mmcCfg:0000000000000000 mmcCfg
     /tmp/ccvaPxlS.s:1096   .data.lsCfg:0000000000000000 lsCfg
     /tmp/ccvaPxlS.s:1062   .bss.serialPort:0000000000000000 $d
     /tmp/ccvaPxlS.s:1066   .bss.serialPort:0000000000000000 serialPort
     /tmp/ccvaPxlS.s:1069   .bss.SD:0000000000000000 $d
     /tmp/ccvaPxlS.s:1073   .bss.SD:0000000000000000 SD
     /tmp/ccvaPxlS.s:1076   .rodata.str1.4:0000000000000000 $d
     /tmp/ccvaPxlS.s:1093   .data.lsCfg:0000000000000000 $d
                            *COM*:0000000000000001 __gnu_lto_v1
     /tmp/ccvaPxlS.s:878    .text.mmc_lld_is_write_protected:0000000000000014 $t

UNDEFINED SYMBOLS
chvprintf
_pal_lld_setgroupmode
mmcObjectInit
mmcStart
chThdSleep
mmcConnect
f_mount
mmcDisconnect
SPID1
