ARM GAS  /tmp/ccc8slsr.s 			page 1


   1              		.syntax unified
   2              		.cpu cortex-m3
   3              		.fpu softvfp
   4              		.eabi_attribute 20, 1
   5              		.eabi_attribute 21, 1
   6              		.eabi_attribute 23, 3
   7              		.eabi_attribute 24, 1
   8              		.eabi_attribute 25, 1
   9              		.eabi_attribute 26, 1
  10              		.eabi_attribute 30, 2
  11              		.eabi_attribute 34, 1
  12              		.eabi_attribute 18, 4
  13              		.thumb
  14              		.file	"sdmmcsimple.c"
  15              		.section	.gnu.lto_.jmpfuncs.cd467036563494e4,"",%progbits
  16 0000 789C7590 		.ascii	"x\234u\220\277K\303@\024\307\337\313UcS\177D;\211r\334"
  16      BF4BC340 
  16      14C7DFCB 
  16      5563537F 
  16      443B8972 
  17 0015 E226549C 		.ascii	"\342&T\234\304\251\220\266[\034\232E\301EL\206\200I"
  17      C4A990B6 
  17      5B1C9A45 
  17      C1454C86 
  17      8049
  18 0027 20D68274 		.ascii	" \326\202t\271\301\301\2518f\021\374_\374\257\234|\367"
  18      B9C1C1A9 
  18      386611FC 
  18      5FFCAF9C 
  18      7CF7
  19 0039 A3D6C899 		.ascii	"\243\326\310\231\345^\362\371\274\367\276\027\017<p"
  19      E55EF2F9 
  19      BCF7BE17 
  19      0F3C70
  20 0048 3D9F08B0 		.ascii	"=\237\010\260\244\323\007F\025cT\316\351\004\300\271"
  20      A4D30746 
  20      156354CE 
  20      E904C0B9 
  21 0058 C2D4E45D 		.ascii	"\302\324\344]c\216\252Fzc\276\372\262\200/\331\3100"
  21      638EAA46 
  21      7A63BEFA 
  21      B2802FD9 
  21      C830
  22 006a 47E480EF 		.ascii	"G\344\200\357\262\031\346h\246\267 \343pd`\007L\177"
  22      B219E668 
  22      A6B720E3 
  22      70646007 
  22      4C7F
  23 007c 9B6F70B8 		.ascii	"\233op\2700|Ss\246\321\253B~\201f\336\217\274\305\341"
  23      307C5373 
  23      A6D1AB42 
  23      7E8166DE 
  23      8FBCC5E1 
  24 0090 C6C85D43 		.ascii	"\306\310]CT\252\000t\324\265\325\343pk\254m{?\232\203"
  24      54AA0074 
  24      D4B5D5E3 
  24      706BAC6D 
ARM GAS  /tmp/ccc8slsr.s 			page 2


  24      7B3F9A83 
  25 00a4 DADD49FF 		.ascii	"\332\335I\377\254\337\345\2600\356^+\273\016\020\026"
  25      ACDFE5B0 
  25      30EE5E2B 
  25      BB0E1016 
  26 00b4 68EF4CB1 		.ascii	"h\357L\261T\373\276|{\221\035\273\367`h\213\276\347"
  26      54FBBE7C 
  26      7B911DBB 
  26      F760688B 
  26      BEE7
  27 00c6 E6125742 		.ascii	"\346\022WB\350\026\204\203\1778\007\260\265\320\270"
  27      E8168483 
  27      7F3807B0 
  27      B5D0B8
  28 00d5 12D0BFEB 		.ascii	"\022\320\277\353b\200=\204\303d4\210\343\350\362\252"
  28      62803D84 
  28      C3643488 
  28      E3E8F2AA 
  29 00e5 12C94844 		.ascii	"\022\311HDwu*&\325S\231\006pl\311$\177\310D\362\374"
  29      77752A26 
  29      D5539906 
  29      706CC924 
  29      7FC844F2 
  30 00fa 38CB0A11 		.ascii	"8\313\012\021\023\232e\004\305\177P\214\353\272\252"
  30      139A6504 
  30      C57F508C 
  30      EBBAAA
  31 0109 03F006C0 		.ascii	"\003\360\006\300\255\023Ue\231\335[r:\236NO\316\316"
  31      AD135565 
  31      99DD5B72 
  31      3A9E4E4F 
  31      CECE
  32 011b 69447F85 		.ascii	"iD\177\205\177\355\374\006\3459u\344"
  32      7FEDFC06 
  32      E53975E4 
  33              		.text
  34              		.section	.gnu.lto_.inline.cd467036563494e4,"",%progbits
  35 0000 789C6362 		.ascii	"x\234cb`b\300\006\0260Bhv\006\026n\031\006\260\"\266"
  35      6062C006 
  35      16304268 
  35      7606166E 
  35      1906B022 
  36 0015 05F270B5 		.ascii	"\005\362p\265\214\014\254|\014\014\314\023\374@\220"
  36      8C0CAC7C 
  36      0C0CCC13 
  36      FC4090
  37 0024 9907AC80 		.ascii	"\231\007\254\200\221\201\235\215\221\201\211\343\200"
  37      91819D8D 
  37      918189E3 
  37      80
  38 0031 1D5C2913 		.ascii	"\035\\)\023\246\0203\303\025\206\225\214@A\3353\223"
  38      A61033C3 
  38      1586958C 
  38      4041DD33 
  38      93
  39 0042 991804DF 		.ascii	"\231\030\004\337%BDAFL\360\203\323L\334@\363\240&\003"
  39      25424441 
ARM GAS  /tmp/ccc8slsr.s 			page 3


  39      464CF083 
  39      D34CDC40 
  39      F3A02603 
  40 0056 B960CB80 		.ascii	"\271`\313\200\312Xx\301\2262@d\200\012\300\352p\351"
  40      CA5878C1 
  40      96324064 
  40      800AC0EA 
  40      70E9
  41 0068 06AB86E9 		.ascii	"\006\253\206\351\302Cs\202\\\311\302\220\021\301\230"
  41      C2437382 
  41      5CC9C290 
  41      11C198
  42 0077 C9280214 		.ascii	"\311(\002\024J`HG0\031\341$\003\033,\020\030_\260\013"
  42      4A604847 
  42      3019E124 
  42      031B2C10 
  42      185FB00B 
  43 008b 3031B076 		.ascii	"01\260v\250\01300\266\260+\2600A(\220G\270\320\314\312"
  43      A80B3030 
  43      B6B02BB0 
  43      30412890 
  43      47B8D0CC 
  44 00a0 40989501 		.ascii	"@\230\225\0016\005B:\020c\0267\003\01330\244\300\272"
  44      3605423A 
  44      10631637 
  44      030B3330 
  44      A4C0BA
  45 00b3 5890D4B3 		.ascii	"X\220\324\263@HpD\000\000\360/)a"
  45      40487044 
  45      0000F02F 
  45      2961
  46              		.text
  47              		.section	.gnu.lto_.pureconst.cd467036563494e4,"",%progbits
  48 0000 789C6362 		.ascii	"x\234cb`b\340g\200\000v\006\011F)&)f)NV.VnV\000\007"
  48      6062E067 
  48      80007606 
  48      09462926 
  48      2966294E 
  49 001b 1400B4   		.ascii	"\024\000\264"
  50              		.text
  51              		.section	.gnu.lto_chprintf.cd467036563494e4,"",%progbits
  52 0000 789C8550 		.ascii	"x\234\205P\315J\002Q\024>\337\0355uc\333v\342\0034\213"
  52      CD4A0251 
  52      143EDF1D 
  52      357563DB 
  52      76E20334 
  53 0015 22E80D7A 		.ascii	"\"\350\015z\000\203Z\3058\216z\011\035\321Q\260\026"
  53      00835AC5 
  53      388E7A09 
  53      1DD151B0 
  53      16
  54 0026 5EC1C245 		.ascii	"^\301\302E\013ig\021)\321:\244\027\030\202\332DI\273"
  54      0B696711 
  54      29D13AA4 
  54      171882DA 
  54      4449BB
  55 0039 162D2497 		.ascii	"\026-$\227\265h\321*\202\351\336\031\024\372\201\016"
ARM GAS  /tmp/ccc8slsr.s 			page 4


  55      B568D12A 
  55      82E9DE19 
  55      14FA810E 
  56 0049 DC7B7EBE 		.ascii	"\334{~\276s\276\363\303\210\321OY\220o\010\2425\251"
  56      73BEF3C3 
  56      88D14F59 
  56      906F08A2 
  56      35A9
  57 005b A11158F7 		.ascii	"\241\021X\367\236\250\025e\2002\010\324dhnB\245\262"
  57      9EA81565 
  57      803208D4 
  57      64686E42 
  57      A5B2
  58 006d 140D84DB 		.ascii	"\024\015\204\333\035_O\036\321\023n\273/>=\017\340\220"
  58      1D5F4F1E 
  58      D1136EBB 
  58      2F3E3D0F 
  58      E090
  59 007f B42B2013 		.ascii	"\264+ \023\264!\035$}\305B\337\373\250Z\321uOon!\016"
  59      B4211D24 
  59      7DC542DF 
  59      FBA85AD1 
  59      754F6F6E 
  60 0095 45EBCDF3 		.ascii	"E\353\315\363\022\034\032\243\325\377\012/\230\373\354"
  60      121C1AA3 
  60      D5FF0A2F 
  60      98FBEC
  61 00a4 794FC3F7 		.ascii	"yO\303\367\203W\364XLC\021\024\222\037\"d\340\014)\225"
  61      8357F458 
  61      4C431114 
  61      921F2264 
  61      E00C2995 
  62 00b8 13A6B624 		.ascii	"\023\246\266$O\032\030H\177\0325\375\241\323\362W\233"
  62      4F1A1848 
  62      7F1A35FD 
  62      A1D3F257 
  62      9B
  63 00c9 AC8329AD 		.ascii	"\254\203)\255\215ho\3343\015\234#,\321]\372\020\035"
  63      8D686FDC 
  63      330D9C23 
  63      2CD15DFA 
  63      101D
  64 00db 31CF1132 		.ascii	"1\317\0212\341\247\313\310\016Gx\312\344g\251\2514\""
  64      E1A7CBC8 
  64      0E4778CA 
  64      E467A9A9 
  64      3422
  65 00ed 2E3BD288 		.ascii	".;\322\210\366\307G\223x\200\344\021\231\021\314\231"
  65      F6C74793 
  65      7880E411 
  65      9911CC99 
  66 00fd 088E9B87 		.ascii	"\010\216\233\207\226G( \340\210\252\222\366\370\370"
  66      96472820 
  66      E088AA92 
  66      F6F8F8
  67 010c 77C798A9 		.ascii	"w\307\230\251H\377\356\310\021'\272\243\253\027\026"
  67      48FFEEC8 
ARM GAS  /tmp/ccc8slsr.s 			page 5


  67      1127BAA3 
  67      AB1716
  68 011b 04027099 		.ascii	"\004\002p\231.EG\235[\312\003\265\372'\332l\214\340"
  68      2E45479D 
  68      5BCA03B5 
  68      FA27DA6C 
  68      8CE0
  69 012d 5469B983 		.ascii	"Ti\271\203\334Q\315\261\244\027\354\242\245\233v\266"
  69      DC51CDB1 
  69      A417ECA2 
  69      A59B76B6 
  70 013d A167ADBA 		.ascii	"\241g\255\272n\026x\206\333U\335\251\324J\333\2724\352"
  70      6E167886 
  70      DB55DDA9 
  70      D44ADBBA 
  70      34EA
  71 014f 4685DBB5 		.ascii	"F\205\333\265\252\004\312\025^rr\213\005bF9\221\263"
  71      AA04CA15 
  71      5E72728B 
  71      05624639 
  71      91B3
  72 0161 2B45C371 		.ascii	"+E\303q\254\354V\246\341X\325/\251H\201#"
  72      ACEC56A6 
  72      E158D52F 
  72      A9488123 
  73              		.text
  74              		.section	.gnu.lto_mmc_lld_is_card_inserted.cd467036563494e4,"",%progbits
  75 0000 789C5D50 		.ascii	"x\234]P=k\002A\020}o\366VS\211\225`g/\370k\014$e\274"
  75      3D6B0241 
  75      107D6FF6 
  75      56538995 
  75      60672FF8 
  76 0019 881C7820 		.ascii	"\210\034x \370\003\\\361\322[\307&iS\350\017H\023\354"
  76      F8035CF1 
  76      D25BC726 
  76      6953E80F 
  76      4813EC
  77 002c 0DD88995 		.ascii	"\015\330\211\225\377\301\316Fg\3668\013\007\346\315"
  77      FFC1CE46 
  77      67F6380B 
  77      07E6CD
  78 003b B0EFCDD7 		.ascii	"\260\357\315\327\012\004\217\326V?\2537\325\351@Y\376"
  78      0A048FD6 
  78      563FAB37 
  78      D5E94059 
  78      FE
  79 004c 03F32721 		.ascii	"\003\363'!-\0011\023\316^\031\265\033\371;]\257\353"
  79      2D013113 
  79      CE5E19B5 
  79      1BF93B5D 
  79      AFEB
  80 005e E3C7A556 		.ascii	"\343\307\245V\023d\2043H\014\274\202\211<\212\020\226"
  80      13648433 
  80      480CBC82 
  80      893C8A10 
  80      96
  81 006f 1D208D25 		.ascii	"\035 \215%}E\353\363L\261\350v\330\036\017\253\306\033"
ARM GAS  /tmp/ccc8slsr.s 			page 6


  81      7D45EBF3 
  81      4CB1E876 
  81      D81E0FAB 
  81      C61B
  82 0081 BFE931A2 		.ascii	"\277\3511\242t\361\023\012f\224\025>5\270\027\205$|"
  82      74F1130A 
  82      6694153E 
  82      35B81785 
  82      247C
  83 0093 1521414C 		.ascii	"\025!AL\343\330\001\253ewX\254]U\354\264\336D\276^2"
  83      E3D801AB 
  83      657758AC 
  83      5D55ECB4 
  83      DE44BE5E 
  84 00a8 BF772619 		.ascii	"\277w&\031\225\235\300\2229,Z\025\345\225\215\224\331"
  84      959DC092 
  84      392C5A15 
  84      E5958D94 
  84      D9
  85 00b9 1EBCBF97 		.ascii	"\036\274\277\227\003\372z\204\356i\337\324\230\276\347"
  85      03FA7A84 
  85      EE69DFD4 
  85      98BEE7
  86 00c8 793ACDF2 		.ascii	"y:\315\362\311x\330Kq\003\024\304:O"
  86      C978D84B 
  86      710314C4 
  86      3A4F
  87              		.text
  88              		.section	.gnu.lto_mmc_lld_is_write_protected.cd467036563494e4,"",%progbits
  89 0000 789C5D50 		.ascii	"x\234]P=k\002A\020}o\3666j#V\201t\351\003\376\032\005"
  89      3D6B0241 
  89      107D6FF6 
  89      366A2356 
  89      8174E903 
  90 0017 2DCD2972 		.ascii	"-\315)r\220\203\200?\300\015\236\375\325Z\245M\241?"
  90      9083803F 
  90      C00D9EFD 
  90      D55AA54D 
  90      A13F
  91 0029 C046D29B 		.ascii	"\300F\322\233\220.\330$\377!\235\215\231\331\343,\034"
  91      902ED824 
  91      FF219D8D 
  91      99D9E32C 
  91      1C
  92 003a 9837C3BE 		.ascii	"\2307\303\2767_+\020\\\333\235\372\237zG\235\016\224"
  92      375F2B10 
  92      5CDB9DFA 
  92      9F7A479D 
  92      0E94
  93 004c F2037869 		.ascii	"\362\003xi\012i\011\210\271p>d\324ne\377{>oN\313S\343"
  93      0A690988 
  93      B9703E64 
  93      D46E65FF 
  93      7B3E6F4E 
  94 0063 469011CE 		.ascii	"F\220\021\316 1\360\012&\362(B(\357\2014\226\364\024"
  94      2031F00A 
  94      26F22842 
ARM GAS  /tmp/ccc8slsr.s 			page 7


  94      28EF8134 
  94      96F414
  95 0076 AD4F9F62 		.ascii	"\255O\237b\321\035\360~\374\376i\217\370J\217)\345\001"
  95      D11DF07E 
  95      FCFE698F 
  95      F84A8F29 
  95      E501
  96 0088 6FA16046 		.ascii	"o\241`FYc\245\301\015\024\222P\026!AL\343\330G\326\313"
  96      5963A5C1 
  96      0D149250 
  96      1621414C 
  96      E3D847D6 
  97 009d 1EB0D8B8 		.ascii	"\036\260\330\270\272\330i\275\211|\253bv\027&\231V\235"
  97      BAD869BD 
  97      897CAB62 
  97      76172699 
  97      569D
  98 00af C08AF95C 		.ascii	"\300\212\371\\\334\326\224W6Rf_\340\345\275\032\320"
  98      DCD69457 
  98      3652665F 
  98      E0E5BD1A 
  98      D0
  99 00c0 D323744F 		.ascii	"\323#tO\373\246\366l\234\347\351,\313\237\237&\335\024"
  99      FBA6F66C 
  99      9CE7E92C 
  99      CB9F9F26 
  99      DD14
 100 00d2 FF59903A 		.ascii	"\377Y\220:\235"
 100      9D
 101              		.text
 102              		.section	.gnu.lto_sdmmcInitialize.cd467036563494e4,"",%progbits
 103 0000 789CAD56 		.ascii	"x\234\255V[h\034e\024>gfwv7\367\244\321\264\246\231"
 103      5B681C65 
 103      143E6766 
 103      777637F7 
 103      A4D1B4A6 
 104 0015 AC356B6C 		.ascii	"\2545kl\322\334\372\246\250\024j\213/\025\333\032\260"
 104      D2DCFAA6 
 104      A8146A8B 
 104      2F15DB1A 
 104      B0
 105 0026 A8C83A59 		.ascii	"\250\310:Y\227\201l\322n\322\007\361!\023\263j\033Q"
 105      97816CD2 
 105      6ED207F1 
 105      2113B36A 
 105      1B51
 106 0038 975261B5 		.ascii	"\227Ra\265\026RJ\033\032\305\200JY\014\302\246XL\033"
 106      16524A1B 
 106      1AC5804A 
 106      590CC2A6 
 106      584C1B
 107 004b B5EC4320 		.ascii	"\265\354C i\021\362\"\245*\242\210$\2465\361\374\227"
 107      6911F222 
 107      A52AA288 
 107      24A635F1 
 107      FC97
 108 005d 99BDE40E 		.ascii	"\231\275\344\016]\330\177\346?\377\371\316\345;g\316"
ARM GAS  /tmp/ccc8slsr.s 			page 8


 108      5DD87FE6 
 108      3FFFF9CE 
 108      E53B67CE 
 109 006d 8C020AE4 		.ascii	"\214\002\012\344\377\216\322\337,\004\270LW,\000T\342"
 109      FF8ED2DF 
 109      2C04B84C 
 109      572C0054 
 109      E2
 110 007e 3F01F47B 		.ascii	"?\001\364{\025E\265&\001\254\002o\\\005\253HU\\\337"
 110      1545B526 
 110      01AC026F 
 110      5C05AB48 
 110      555CDF
 111 0091 97D2CE7D 		.ascii	"\227\322\316}\355i\332\271\320'\264\334\212\306\216"
 111      ED69DAB9 
 111      D027B4DC 
 111      8AC68E
 112 00a0 0B3C5CB7 		.ascii	"\013<\\\267H\263\345\036\373\306k\337\370\020\331\015"
 112      48B3E51E 
 112      FBC66BDF 
 112      F810D90D 
 113 00b0 20F429AA 		.ascii	" \364)\252\313\255yH\322w\004Y\004\352\0168gY\247f\177"
 113      CBAD7948 
 113      D2770459 
 113      04EA0E38 
 113      6759A766 
 114 00c5 194EE3C7 		.ascii	"\031N\343\307\247S\261!\353\336\322\022\242\211\024"
 114      A753B121 
 114      EBDED212 
 114      A28914
 115 00d4 6D398281 		.ascii	"m9\202\201\360\"m\320\317/\212+7|\216\215\247\376}\367"
 115      F0226DD0 
 115      CF2F8A2B 
 115      377C8E8D 
 115      A7FE7DF7 
 116 00e8 832A6BD6 		.ascii	"\203*k\326\212[\213\0045QU@\317 \275\002\211+ O\245"
 116      8A5B8B04 
 116      35515540 
 116      CF20BD02 
 116      892B204F 
 117 00fd A606DFCF 		.ascii	"\246\006\337\317F\272\024\010\254\207\034UR\263KK\237"
 117      46BA1408 
 117      AC871C55 
 117      52B34B4B 
 117      9F
 118 010e 7F1BFBB5 		.ascii	"\177\033\373\265i7\002ysa\004A\243\005=\264(\025$sW"
 118      69370279 
 118      73610441 
 118      A3053DB4 
 118      28152473 
 119 0123 B2A50A82 		.ascii	"\262\245\012\202x\016w@5\333\324\320\242\351$9O\222"
 119      780E7740 
 119      35DBD4D0 
 119      A2E92439 
 119      4F92
 120 0135 5A79E227 		.ascii	"Zy\342'\241\247\2166\027h\023\220\302z\246\336 7M\362"
 120      A1A78E36 
ARM GAS  /tmp/ccc8slsr.s 			page 9


 120      17681390 
 120      C27AA6DE 
 120      20374DF2 
 121 0149 DA42426F 		.ascii	"\332BBo+[\332\330Bq\270!F\271\373\205A`A\323\357\005"
 121      2B5BDAD8 
 121      4271B821 
 121      46B9FB85 
 121      416041D3 
 122 015f 5A19D3ED 		.ascii	"Z\031\323\355\250\260\253\372#\27459\277\220R\2028\214"
 122      A8B0ABFA 
 122      23BC3539 
 122      BF905282 
 122      388C
 123 0171 6E38039F 		.ascii	"n8\003\237\364[V\031q\373&,X'\330\235/\202*\341X\242"
 123      F45B5619 
 123      71FB262C 
 123      5827D89D 
 123      2F822AE1 
 124 0187 3E9E5E18 		.ascii	">\236^\030\211c\006K\336\375\023\005\254\021F,\372\225"
 124      8963064B 
 124      DEFD1305 
 124      AC11462C 
 124      FA95
 125 0199 52586481 		.ascii	"RXd\2014\013\302\2501D!G\274&\011\012\243\207#\027\006"
 125      340BC2A8 
 125      31442147 
 125      BC26090A 
 125      A3872317 
 126 01ae C63ED4F3 		.ascii	"\306>\324\363\221E+#\005TDc\035$\265\010\212\022\223"
 126      91452B23 
 126      05544463 
 126      1D24B508 
 126      8A1293
 127 01c1 9DE4FCDD 		.ascii	"\235\344\374\335\011%\337N\361\312vDg3I\261\215N,.G"
 127      0925DF4E 
 127      F1CA7644 
 127      673349B1 
 127      8D4E2C2E 
 128 01d6 6B2BA355 		.ascii	"k+\243U\007\255I\364\344\364b\012\363H+tH+\211\220\\"
 128      07AD49F4 
 128      E4F4620A 
 128      F3482B74 
 128      482B8990 
 129 01eb 004A64EA 		.ascii	"\000Jd\352\004\274\001\357\314.\235\227(\310P\\j\310"
 129      04BC01EF 
 129      CC2E9D97 
 129      28C8505C 
 129      6AC8
 130 01fd 34997E99 		.ascii	"4\231~\231\225\210Y.~\353\335\303/\345\032\025\264\202"
 130      9588592E 
 130      7EEBDDC3 
 130      2FE51A15 
 130      B482
 131 020f C3874EB8 		.ascii	"\303\207N\270\327C\0179hKti\271\232\201\237\\\027\036"
 131      D7430F39 
 131      684B7469 
 131      B99A819F 
ARM GAS  /tmp/ccc8slsr.s 			page 10


 131      5C171E
 132 0222 77E0E281 		.ascii	"w\340\342\201*/\313\240\0077\201\266\235g\301\337\333"
 132      2A2FCBA0 
 132      073781B6 
 132      9D67C1DF 
 132      DB
 133 0233 045C66AE 		.ascii	"\004\\f\256\0104\361}3y1-\253\025\306\212Fh\020\275"
 133      0834F17D 
 133      3379312D 
 133      AB15C68A 
 133      466810BD 
 134 0247 46C45B2F 		.ascii	"F\304[/\255\326o\314m,\325\260\314\353\026C\266\003"
 134      ADD66FCC 
 134      6D2CD5B0 
 134      CCEB1643 
 134      B603
 135 0259 5932B152 		.ascii	"Y2\261R\330\237\276x\007m\373\2259\366\017\256e\377"
 135      D89FBE78 
 135      076DFB95 
 135      39F60FAE 
 135      65FF
 136 026b ED54CD32 		.ascii	"\355T\3152\373\017\030\262a\310\222\354\334c&>\030A"
 136      FB0F18B2 
 136      61C892EC 
 136      DC63263E 
 136      1841
 137 027d 4DAA9A58 		.ascii	"M\252\232X\305\234^\2719}\246D>\245\366\343j\315\235"
 137      C59C5EB9 
 137      397DA644 
 137      3EA5F6E3 
 137      6ACD9D
 138 0290 7E1640E8 		.ascii	"~\026@\350\031\242\325\303\330\302\0324\326\237\372"
 138      19A2D5C3 
 138      D8C21A34 
 138      D69FFA
 139 029f 99CC6C65 		.ascii	"\231\314leQ\305\231\233my\005/\223\301\271\030\376\012"
 139      51C5999B 
 139      6D79052F 
 139      93C1B918 
 139      FE0A
 140 02b1 0F899C0C 		.ascii	"\017\211\234\014|\241\006q\234\247\325J\226\230\242"
 140      7CA10671 
 140      9CA7D54A 
 140      9698A2
 141 02c0 C7234EC6 		.ascii	"\307#N\306\234\2236:\344\274\263\314& \366\373\370\330"
 141      9C93363A 
 141      E4BCB3CC 
 141      2620F6FB 
 141      F8D8
 142 02d2 75D566A3 		.ascii	"u\325f\243\215\237dO\270v\312\217F:\033\036\327\346"
 142      8D9F644F 
 142      B876CA8F 
 142      463A1B1E 
 142      D7E6
 143 02e4 692C3B93 		.ascii	"i,;\223\346\002\23746!\204\255\332\310Da<Ro\\\315e\361"
 143      E6029F34 
 143      362184AD 
ARM GAS  /tmp/ccc8slsr.s 			page 11


 143      DAC84461 
 143      3C526F5C 
 144 02fb 21431861 		.ascii	"!C\030aV\2300aYi\202T\353\260\363\254\225\330c\342v"
 144      56983061 
 144      59698254 
 144      EBB0F3AC 
 144      95D863E2 
 145 0310 9018136B 		.ascii	"\220\030\023k8\235\311\304H\271\020q\276P\220\205\016"
 145      389DC9C4 
 145      48B91071 
 145      BE509085 
 145      0E
 146 0321 53897CA6 		.ascii	"S\211|\246\334N\357Q\303\361n\031\272\264<\020\335\020"
 146      DC4EEF51 
 146      C3F16E19 
 146      BAB43C10 
 146      DD10
 147 0333 4F3D57AC 		.ascii	"O=W\254\355 w~\3212\363#w\024\241\035\306\352\234\226"
 147      ED20777E 
 147      D132F323 
 147      7714A11D 
 147      C6EA9C96 
 148 0347 39B6764B 		.ascii	"9\266vK6\331\250\032\307\311\303\006\033\216<\333j\223"
 148      36D9A81A 
 148      C7C9C306 
 148      1B8E3CDB 
 148      6A93
 149 0359 B1480E7E 		.ascii	"\261H\016~\033x\335V\324\303,\307\011\370\356\366\370"
 149      1B78DD56 
 149      D4C32CC7 
 149      09F8EEF6 
 149      F8
 150 036a CCA0E354 		.ascii	"\314\240\343Tg\016\036\311~\375\264S\365\347Jxa\246"
 150      670E1EC9 
 150      7EFDB453 
 150      F5E74A78 
 150      61A6
 151 037c 3FFB0B6D 		.ascii	"?\373\013m\305\332\215\225\201`\177\2506\306\317]\336"
 151      C5DA8D95 
 151      81607FA8 
 151      36C6CF5D 
 151      DE
 152 038d 006DADCA 		.ascii	"\000m\255\312\324\312\312\314\220\225:\035\236\022\225"
 152      D4CACACC 
 152      90953A1D 
 152      9E1295
 153 039c 09D89521 		.ascii	"\011\330\225!+\2748\"47\234|R\345\363\377\366Gz\246"
 153      2BBC3822 
 153      34379C7C 
 153      52E5F3FF 
 153      F6477AA6 
 154 03b0 50F4F3AD 		.ascii	"P\364\363\2553\2673\363\2778\"yb\303\364\233\253N\206"
 154      33B733F3 
 154      BF382279 
 154      62C3F49B 
 154      AB4E86
 155 03c3 754E748F 		.ascii	"uNt\217\032\262Y\205$\365\367`\245\003\023\321\246\376"
ARM GAS  /tmp/ccc8slsr.s 			page 12


 155      1AB25985 
 155      24F5F760 
 155      A50313D1 
 155      A6FE
 156 03d5 B9AE9B58 		.ascii	"\271\256\233X\257\303\313\"\334\307\354p\231\343\235"
 156      AFC3CB22 
 156      DCC7EC70 
 156      99E39D
 157 03e4 AC9F1AE4 		.ascii	"\254\237\032\344S0\227\341\272\216\035\346|]\264S[|"
 157      533097E1 
 157      BA8E1DE6 
 157      7C5DB453 
 157      5B7C
 158 03f6 AD70AE93 		.ascii	"\255p\256\223\243\031\256\003\367\245\345\003Y\3046"
 158      A319AE03 
 158      F7A5E503 
 158      59C436
 159 0405 EAF0AA88 		.ascii	"\352\360\252\210tW^\313\323\330\032\235qB\254\317\351"
 159      74575ECB 
 159      D3D81A9D 
 159      7142ACCF 
 159      E9
 160 0416 C157D6EE 		.ascii	"\301W\326\356\301\306e\336\251\005\3557|\275\335\202"
 160      C1C665DE 
 160      A905ED37 
 160      7CBDDD82 
 161 0426 C9F9D1B4 		.ascii	"\311\371\321\264\222S\252\266\215\276b\005E\036\230"
 161      9253AAB6 
 161      8DBE6205 
 161      451E98
 162 0435 7A5CCC89 		.ascii	"z\\\314\211/3\0245\334\027\212\032\262(j\322\301B\301"
 162      2F331435 
 162      DC178A1A 
 162      B2286AD2 
 162      C142C1
 163 0448 51733E47 		.ascii	"Qs>G\311\304W\266\353L\273\255\377\242G'\007/\304U\236"
 163      C9C457B6 
 163      EB4CBBAD 
 163      FFA24727 
 163      072FC455 
 164 045d 43E272DA 		.ascii	"C\342r\332yG4m\"\207\341Ush\312\232l-:\234\2259\264"
 164      7947346D 
 164      2287E155 
 164      7368CA9A 
 164      6C2D3A9C 
 165 0474 82F3A670 		.ascii	"\202\363\246p\236\036\037\377^K\323\3072\003\362\350"
 165      9E1E1FFF 
 165      5E4BD3C7 
 165      3203F2E8 
 166 0484 66006908 		.ascii	"f\000i\010\270\356Mme.U\372D\025?\354\323bG\270\350"
 166      B8EE4D6D 
 166      652E55FA 
 166      44153FEC 
 166      D36247B8 
 167 0499 BF8CC8FB 		.ascii	"\277\214\310\373\351-/\227\001x~\270U\311>\005\221\231"
 167      E92D2F97 
 167      01787EB8 
ARM GAS  /tmp/ccc8slsr.s 			page 13


 167      55C93E05 
 167      9199
 168 04ab 64652BE9 		.ascii	"de+\351\351\210D\214\0363r\2643\324l@QO(j\006;\237\357"
 168      E988448C 
 168      1E3372B4 
 168      33D46C40 
 168      514F286A 
 169 04c3 8EF636B7 		.ascii	"\216\3666\267j=\275\301\336\343=j(\032\335r\370\231"
 169      6A3DBDC1 
 169      DEE33D6A 
 169      281ADD72 
 169      F899
 170 04d5 960307F6 		.ascii	"\226\003\007\366>\2617\030\355\360\357\357>\336\325"
 170      3EB13718 
 170      EDF0EFEF 
 170      3EDED5
 171 04e4 5100BA2D 		.ascii	"Q\000\272-\353\356\352\012\031\275\376}\321hwt\327\276"
 171      EBEEEA0A 
 171      19BDFE7D 
 171      D1687774 
 171      D7BE
 172 04f6 438702AD 		.ascii	"C\207\002\255\273\351Xi\001\277\324\330ov\206\374\207"
 172      BBE95869 
 172      01BFD4D8 
 172      6F7686FC 
 172      87
 173 0507 DFE8E90D 		.ascii	"\337\350\351\015E\374\007\010,u\013`\373j\012!2\260"
 173      45FC0708 
 173      2C750B60 
 173      FB6A0A21 
 173      32B0
 174 0519 4D1E3ED7 		.ascii	"M\036>\327Mv\374\331\236\377\007\"0\3566"
 174      4D76FCD9 
 174      9EFF0722 
 174      30EE36
 175              		.text
 176              		.section	.gnu.lto_sdmmGetMMCDriver.cd467036563494e4,"",%progbits
 177 0000 789C6D50 		.ascii	"x\234mP=K\202Q\024~\236s\357k\021\242\011-m\216\221"
 177      3D4B8251 
 177      147E9E73 
 177      EF6B11A2 
 177      092D6D8E 
 178 0015 D0D2D01F 		.ascii	"\320\322\320\037Q\320\261^C^\360\205\300\037\3405\034"
 178      51D0B15E 
 178      435EF085 
 178      C01FE035 
 178      1C
 179 0026 1B9C6BA9 		.ascii	"\033\234k\251-\034\352\007\2704\205 \005n\346R\243\203"
 179      2D1CEA07 
 179      B8348520 
 179      056EE652 
 179      A383
 180 0038 3F20273D 		.ascii	"? '=\367\212Q\322\201{\3179\367>\317s>\004\202m;\325"
 180      F78A51D2 
 180      817BCF39 
 180      F73ECF73 
 180      3E04826D 
ARM GAS  /tmp/ccc8slsr.s 			page 14


 181 004e 7348605F 		.ascii	"sH`_=#Pz\357@gW\304<\276\002n\317\316v\340\262\206v"
 181      3D23507A 
 181      EF406757 
 181      C43CBE02 
 181      6ECFCE76 
 182 0066 FD6E491F 		.ascii	"\375nI\037\200h\213\261l\327\030T\236\345\345k\271|"
 182      80688BB1 
 182      6CD71854 
 182      9EE5E56B 
 182      B97C
 183 0078 9A8EEE17 		.ascii	"\232\216\356\027\224\014\221\020\206)a5R\325$\240\""
 183      940C9110 
 183      86296135 
 183      52D524A0 
 183      22
 184 0089 749DEB15 		.ascii	"t\235\353\025\2018\244e\275\275V\205\342\275y\303\365"
 184      8138A465 
 184      BDBD5685 
 184      E2BD79C3 
 184      F5
 185 009a 743218F3 		.ascii	"t2\030\363\234\017Ji\320\226p\254\354;\3342\2414h\252"
 185      9C0F4A69 
 185      D09670AC 
 185      EC3BDC32 
 185      A13468AA 
 186 00ae EA4D2877 		.ascii	"\352M(w\301M\373Ct\347\235\374\017\305C\370{\274\212"
 186      C14DFB43 
 186      74E79DFC 
 186      0FC543F8 
 186      7BBC8A
 187 00c1 32749020 		.ascii	"2t\220 \376=(l\200Q\011}\247v\246\235\375_\200\177D"
 187      FE3D286C 
 187      8051097D 
 187      A776A69D 
 187      FD5F807F 
 188 00d6 6CE870AC 		.ascii	"l\350p\254\013\200\262\303\337\007\250:\346\310\223"
 188      0B80B2C3 
 188      DF07A83A 
 188      E6C893
 189 00e5 34959BCF 		.ascii	"4\225\233\317\003?\023=\322\2579\327\252\247i\334J\322"
 189      033F133D 
 189      D2AF39D7 
 189      AAA769DC 
 189      4AD2
 190 00f7 ABE6E549 		.ascii	"\253\346\345I\214\025\036\312E\211"
 190      8C151ECA 
 190      4589
 191              		.text
 192              		.section	.gnu.lto_sdmmcGetFS.cd467036563494e4,"",%progbits
 193 0000 789C6D50 		.ascii	"x\234mP\273JCA\020=gf\257\212\004\037\220\306.\245\030"
 193      BB4A4341 
 193      103D6766 
 193      AF8A041F 
 193      90C62EA5 
 194 0015 B049E18F 		.ascii	"\260I\341\217\030\320RoB\270\220\013\201|@6\222V\010"
 194      18D0526F 
 194      42B8900B 
ARM GAS  /tmp/ccc8slsr.s 			page 15


 194      817C4036 
 194      925608
 195 0028 2993463B 		.ascii	")\223F;\261\320_\260\022\013\015\244S+I\225\302\306"
 195      B1D05FB0 
 195      120B0DA4 
 195      532B4995 
 195      C2C6
 196 003a CE2ECEAE 		.ascii	"\316.\316\256$\2508\260;3\273\347\234y\010\004\177\255"
 196      24A838B0 
 196      3B33BBE7 
 196      9C790804 
 196      7FAD
 197 004c 626787C0 		.ascii	"bg\207\300\226y&\240\364\307@wMD\257\356\001\277\356"
 197      967926A0 
 197      F4C74077 
 197      4D44AFEE 
 197      01BFEE
 198 005f 66ABF005 		.ascii	"f\253\360\005\245\373~wd\010@tD\035;\307\214*\267r\367"
 198      A5FB7E77 
 198      64084074 
 198      441D3BC7 
 198      8C2AB772 
 199 0074 369FDF0C 		.ascii	"6\237\337\014\306\027\347\324\025\"#\2249\341,2\325"
 199      C617E7D4 
 199      15222394 
 199      39E12C32 
 199      D5
 200 0085 2CA212F4 		.ascii	",\242\022\364\274\357\227\2004\246\207v\007\255*%x}"
 200      BCEF9780 
 200      34A68776 
 200      07AD2A25 
 200      787D
 201 0097 C2D9EBF3 		.ascii	"\302\331\353\363t\302\023^\032\245AW\306\236\261G\030"
 201      74C2135E 
 201      1AA54157 
 201      C69EB147 
 201      18
 202 00a8 32A334A8 		.ascii	"2\2434\250G\3465\226;\345\242\375\007\364\336\273\233"
 202      47E63596 
 202      3BE5A2FD 
 202      07F4DEBB 
 202      9B
 203 00b9 4B4A80F0 		.ascii	"KJ\200\360\347xUc\330 Q\374s\272\275\000&e\\{\263\003"
 203      E7785563 
 203      D82051FC 
 203      73BABD00 
 203      26655C7B 
 204 00cf EBECFF02 		.ascii	"\353\354\377\002\374%\342b\207\023[\000\214\035\377"
 204      FC25E262 
 204      87135B00 
 204      8C1DFF
 205 00de 5E40D3D1 		.ascii	"^@\323\321\335@\262T\036?\212a&\006dX\363F\273\226\347"
 205      DD40B254 
 205      1E3F8A61 
 205      26066458 
 205      F346BB96 
 206 00f3 693BCB5B 		.ascii	"i;\313[\315\372~\212/\2336Ey"
ARM GAS  /tmp/ccc8slsr.s 			page 16


 206      CDFA7E8A 
 206      2F9B3645 
 206      79
 207              		.text
 208              		.section	.gnu.lto_sdmmcFSMounted.cd467036563494e4,"",%progbits
 209 0000 789C6362 		.ascii	"x\234cb`b@\007\222@<\003\210\005\200\230\221\231\201"
 209      60624007 
 209      92403C03 
 209      88058098 
 209      919981
 210 0013 9169C239 		.ascii	"\221i\3029\006\206F\016&FF\020\203\201\221\241\236\211"
 210      0686460E 
 210      26464610 
 210      838191A1 
 210      9E89
 211 0025 B13E9211 		.ascii	"\261>\222\021\254v=\323\201\007\377\377\257\333un\301"
 211      AC763DD3 
 211      8107FFFF 
 211      AFDB756E 
 211      C1
 212 0036 7C466616 		.ascii	"|Ff\026&\306\\F\006f\206L\260\034+CKC\303\004\005\006"
 212      26C65C46 
 212      0666864C 
 212      B01C2B43 
 212      4B43C304 
 213 004c 86643037 		.ascii	"\206d07\004H\202\364\20722\201h\346\263\014M\267n<W"
 213      044882F4 
 213      87323281 
 213      68E6B30C 
 213      4DB76E3C 
 214 0061 4C645CC8 		.ascii	"Ld\\\310\310\312\220\316\310\254\315\260\252\001\010"
 214      C8CA90CE 
 214      C8ACCDB0 
 214      AA0108
 215 0070 AC819A67 		.ascii	"\254\201\232g3\314b\314ddLgd\212\000\322\020\007&1\302"
 215      33CC62CC 
 215      64644C67 
 215      648A00D2 
 215      10072631 
 216 0085 9C7791A1 		.ascii	"\234w\221\241\361\000\013\\\033D,\204\221\021d(H)_q"
 216      F1000B5C 
 216      1B442C84 
 216      91116428 
 216      48295F71 
 217 0099 4A6E6E72 		.ascii	"JnnrqfnAN\252^2\003\000\351`*\314"
 217      71666E41 
 217      4EAA5E32 
 217      0300E960 
 217      2ACC
 218              		.text
 219              		.section	.gnu.lto_.symbol_nodes.cd467036563494e4,"",%progbits
 220 0000 789C4DCC 		.ascii	"x\234M\314\311J\003A\024\205\341s\252\272\343\234\304"
 220      C94A0341 
 220      1485E173 
 220      AABAE39C 
 220      C4
 221 0011 79A1E00B 		.ascii	"y\241\340\013\370R>\311\0116h@\0340\340\322\205y\016"
ARM GAS  /tmp/ccc8slsr.s 			page 17


 221      F8523EC9 
 221      09366840 
 221      1C30E0D2 
 221      85790E
 222 0024 37768338 		.ascii	"7v\2038%\316\363\034\334\371\014jW\245\261\2726\037"
 222      25CEF31C 
 222      DCF90C6A 
 222      57A5B1BA 
 222      361F
 223 0036 FFBDD435 		.ascii	"\377\275\32450\330'\372\317\034R\300V\007\220\326\233"
 223      30D827FA 
 223      CF1C52C0 
 223      560790D6 
 223      9B
 224 0047 4BA64BB1 		.ascii	"K\246K\261\310\335&\3159eJyA\331\220\3611M$\033\337"
 224      C8DD26CD 
 224      39654A79 
 224      41D990F1 
 224      314D241B 
 225 005c D042888F 		.ascii	"\320B\210\217\030\271\352\220\216\023\"\307\\RQ\351"
 225      18B9EA90 
 225      8E1322C7 
 225      5C5251E9 
 226 006c C0151597 		.ascii	"\300\025\025\227\362\232\252\224\356\2352v_\317X\311"
 226      F29AAA94 
 226      EE9D3276 
 226      5FCF58C9 
 227 007c E11B35D0 		.ascii	"\341\0335\320_6\032\344+5\030\352\205\032\012\365L\015"
 227      5F361AE4 
 227      2B3518EA 
 227      851A0AF5 
 227      4C0D
 228 008e 877AA246 		.ascii	"\207z\242FB=R\243\241\036\250\261P\367T5\324\035U\013"
 228      423D52A3 
 228      A11EA8B1 
 228      50F75435 
 228      D41D550B 
 229 00a2 754BD5FF 		.ascii	"uK\325\377\313\242\216\344\375'\267\206\266\267\212"
 229      CBA28EE4 
 229      FD27B786 
 229      B6B78A
 230 00b1 D4696791 		.ascii	"\324ig\221~\364\355\025&+\337\013\316va\352\235A\262"
 230      7EF4ED15 
 230      262BDF0B 
 230      CE7661EA 
 230      9D41B2
 231 00c4 EA9C46EA 		.ascii	"\352\234F\352\005\226\327\262\334)\244\336I$\033\231"
 231      0596D7B2 
 231      DC29A4DE 
 231      49241B99 
 232 00d4 9FEF757F 		.ascii	"\237\357u\177\215\265\023\350mf\363\256\017\266\363"
 232      8DB513E8 
 232      6D66F3AE 
 232      0FB6F3
 233 00e3 F1389296 		.ascii	"\3618\222\226\337~\266\276\346\374tg\021\177\216j\202"
 233      DF7EB6BE 
 233      E6FC7467 
ARM GAS  /tmp/ccc8slsr.s 			page 18


 233      117F8E6A 
 233      82
 234 00f4 12       		.ascii	"\022"
 235              		.text
 236              		.section	.gnu.lto_.refs.cd467036563494e4,"",%progbits
 237 0000 789C25C5 		.ascii	"x\234%\305\301\015\000 \010\004\301c\001!Q\213\260\377"
 237      C10D0020 
 237      0804C163 
 237      0121518B 
 237      B0FF
 238 0012 268D713E 		.ascii	"&\215q>\203\320\3217\335\202\264A)\0244\375Vx\221,\266"
 238      83D0D137 
 238      DD82B441 
 238      291434FD 
 238      5678912C 
 239 0027 2E0E4800 		.ascii	".\016H\000\246"
 239      A6
 240              		.text
 241              		.section	.gnu.lto_.decls.cd467036563494e4,"",%progbits
 242 0000 789CBD7D 		.ascii	"x\234\275}{|\024U\366gU\3653\017\001\0214(Jfgf\327\235"
 242      7B7C1455 
 242      F66755F5 
 242      330F0111 
 242      34284A66 
 243 0018 FD690099 		.ascii	"\375i\000\231\221\231\375\355\214\220\004\314\012\204"
 243      9199FDED 
 243      8C9004CC 
 243      0A84
 244 0026 4F1267C6 		.ascii	"O\022g\306?\366\323\026\235\016\364\317\274\350\356"
 244      3FF6D316 
 244      9D0EF4CF 
 244      BCE8EE
 245 0035 F0D8FD63 		.ascii	"\360\330\375c\012\002AE\220\367\333\200\362\220\227"
 245      0A024145 
 245      90F7DB80 
 245      F29097
 246 0044 BCA38467 		.ascii	"\274\243\204g\253<\002\214\310S@d\010 \"FGB\200\360"
 246      AB3C028C 
 246      C8534064 
 246      08202246 
 246      474280F0 
 247 0058 0AD973CF 		.ascii	"\012\331s\317\255\352\256\272]\325]\325\354l\177>u\352"
 247      ADEAAEBA 
 247      5DD55DD5 
 247      EC6C7F3E 
 247      75EA
 248 006a F6EDBADF 		.ascii	"\366\355\272\337:\347\334s\317=\367Q\325\002'p[m\034"
 248      3AE7DC73 
 248      CF3DF751 
 248      D5022770 
 248      5B6D1C
 249 007d D70E9FD5 		.ascii	"\327\016\237\325S8\356AG\216ss\034\367G8\272\302a\207"
 249      5338EE41 
 249      478E7373 
 249      1CF74738 
 249      BAC26187 
 250 0091 E37D383E 		.ascii	"\343}8>\200c%\034\253\340X\003\307Z8\326\301q\011\216"
ARM GAS  /tmp/ccc8slsr.s 			page 19


 250      8063251C 
 250      ABE05803 
 250      C75A38D6 
 250      C171098E 
 251 00a5 6FE1A883 		.ascii	"o\341\250\203\343;8\256\300\001p\334U8~\200\343G8^\344"
 251      E33B38AE 
 251      C00170DC 
 251      55387E80 
 251      E347385E 
 252 00ba 39CE05E7 		.ascii	"9\316\005\347\337\012\034\327\027\016\362y\024\216\377"
 252      DF0A1CD7 
 252      170EF279 
 252      148EFF
 253 00c9 0EE99170 		.ascii	"\016\351\221p\234\200\3434\034\013\240\340\0228V\300"
 253      9C80E334 
 253      1C0BA0E0 
 253      123856C0 
 254 00d9 B1168E8F 		.ascii	"\261\026\216\217\340\330\016\307\0168v\301q\013\216"
 254      E0D80EC7 
 254      0E3876C1 
 254      710B8E
 255 00e8 DB70DC87 		.ascii	"\333p\334\207\203\007\306\034v\212\333\001\316\235\340"
 255      8307C61C 
 255      768ADB01 
 255      CE9DE0
 256 00f7 E8014717 		.ascii	"\350\001G\0278~\001G\006\034\335\355\234\346C\356\227"
 256      387E0147 
 256      061CDDED 
 256      9CE643EE 
 256      97
 257 0108 06E74D50 		.ascii	"\006\347MP\276\003\234\323e\371~\011\344\277\300\361"
 257      BE039CD3 
 257      65F97E09 
 257      E4BFC0F1 
 258 0118 2B389E85 		.ascii	"+8\236\205c\035\374\376_\341\374\033\271\274].\273]"
 258      631DFCFE 
 258      5FE1FC1B 
 258      B9BC5D2E 
 258      BB5D
 259 012a E689F046 		.ascii	"\346\211\360F\304(\005R.h\357A\344qr\224/\"\353/@\366"
 259      C4280552 
 259      2E68EF41 
 259      E4717294 
 259      2F22EB2F 
 260 0140 A778AA03 		.ascii	"\247x\252\003\202\003'\356\277\361\364<\222)K>',\224"
 260      820327EE 
 260      BFF1F43C 
 260      92294B3E 
 260      272C94
 261 0153 3FA1539E 		.ascii	"?\241S\236\350\261\027\234[\204\250\214_C:\014<\207"
 261      E8B1179C 
 261      5B84A88C 
 261      5F433A0C 
 261      3C87
 262 0165 64FDDB65 		.ascii	"d\375\333e\374\177\203\304E\370~\001\216\026\271>\237"
 262      FC7F83C4 
 262      45F87E01 
ARM GAS  /tmp/ccc8slsr.s 			page 20


 262      8E16B93E 
 262      9F
 263 0176 83BCE7ED 		.ascii	"\203\274\347\355\364~\244\276\234\220\316\202C\200\243"
 263      F47EA4BE 
 263      9C90CE82 
 263      4380A3
 264 0185 A79DD667 		.ascii	"\247\235\326g\233-\312W/{\264\256\377\035\256\357m\247"
 264      9B2DCA57 
 264      2F7BB4AE 
 264      FF1DAEEF 
 264      6DA7
 265 0197 F57F07C8 		.ascii	"\365\177\007\310\013\220\016\310<*\266\321\307\256\265"
 265      0B900EC8 
 265      3C2AB6D1 
 265      C7AEB5
 266 01a6 99DDB6A8 		.ascii	"\231\335\266\250=)\366\245\330\033\321\303\367P\376"
 266      3D29F6A5 
 266      D81BD1C3 
 266      F750FE
 267 01b5 2A1C4D70 		.ascii	"*\034Mp\374,P\331{\301\221*\313Jl\200\330\002\261\011"
 267      FC2C50D9 
 267      7BC1912A 
 267      CB4A6C80 
 267      D802B109 
 268 01c9 A24F524F 		.ascii	"\242ORO\267e[\331%\333\016\261\347\271p\236\011\307"
 268      B7655BD9 
 268      25DB0EB1 
 268      E7B9709E 
 268      09C7
 269 01db 6C9BD64E 		.ascii	"l\233\326N\210\335t`\354\204\330!\311R\364\245\350\210"
 269      88DD7460 
 269      EC84D821 
 269      C952F4A5 
 269      E888
 270 01ed 88F29340 		.ascii	"\210\362\223@y\342\345\353\310\271\326\246-\277D.\277"
 270      79E2E5EB 
 270      C8B9D6A6 
 270      2DBF442E 
 270      BF
 271 01fe 8E8B2DFF 		.ascii	"\216\213-\377\263,\013/_G\316\313\230\362\304\376mL"
 271      B32C0B2F 
 271      5F47CECB 
 271      98F2C4FE 
 271      6D4C
 272 0210 595E2ECB 		.ascii	"Y^.\313\313\277\223\363j\246\\\032\367\266$\215\227"
 272      CBBF93F3 
 272      6AA65C1A 
 272      F7B6248D 
 272      97
 273 0221 96D4482F 		.ascii	"\226\324H/7tx\224\233&\301's^\207\024\356M\222\335\270"
 273      37747894 
 273      9B26C127 
 273      735E8714 
 273      EE4D92DD 
 274 0236 5CCAC8E0 		.ascii	"\\\312\310\340\270\277\362\"\017YnL\244\247 \320\257"
 274      B8BFF222 
 274      0F596E4C 
ARM GAS  /tmp/ccc8slsr.s 			page 21


 274      A4A720D0 
 274      AF
 275 0247 B9657029 		.ascii	"\271ep)\\/\210\374R>\005\030\025\370X\323\"\037\372"
 275      5C2F88FC 
 275      523E0518 
 275      15F858D3 
 275      221FFA
 276 025a FB6FB855 		.ascii	"\373o\270U\364\372\213\354e\004\224\\\021M\265\363\221"
 276      F4FA8BEC 
 276      6504945C 
 276      114DB5F3 
 276      91
 277 026b 7B36F0CA 		.ascii	"{6\360\312M\273\311`\037\360\217b\012Y\224d\316\361"
 277      4DBBC960 
 277      1FF08F62 
 277      0A599464 
 277      CEF1
 278 027d 0AB948A6 		.ascii	"\012\271H\246R\302.\227\370\020\3019%;\222\310P1\240"
 278      52C22E97 
 278      F810C139 
 278      253B92C8 
 278      5031A0
 279 0290 57EE7D3E 		.ascii	"W\356}>-\201\232(\273r\371\306\010\253\335e\200U\226"
 279      2D819A28 
 279      BB72F9C6 
 279      08ABDD65 
 279      805596
 280 02a3 595D6DC0 		.ascii	"Y]m\300\352S\011X]i\215UIP\0002e\200\265\226Y\375\310"
 280      EA530958 
 280      5D698D55 
 280      49500032 
 280      6580B596 
 281 02ba 80D51E09 		.ascii	"\200\325\036\011X]c\300jgn:\262\332\320!RV\372\245R"
 281      585D63C0 
 281      6A676E3A 
 281      B2DAD021 
 281      5256FAA5 
 282 02cf 78835D31 		.ascii	"x\203]1\271i\215;\177\234j\223$\267\310\257\347;\203"
 282      B9698D3B 
 282      7F9C6A93 
 282      24B7C8AF 
 282      E73B83
 283 02e2 D9F5E701 		.ascii	"\331\365\347\001t\005\377\033\03131\014ab\023\024\245"
 283      7405FF1B 
 283      1933310C 
 283      61621314 
 283      A5
 284 02f3 A5A81D87 		.ascii	"\245\250\035\207\267\357K\227\3544\237\323\340i>\277"
 284      B7EF4B97 
 284      EC349FD3 
 284      E0693EBF 
 285 0303 E09600C3 		.ascii	"\340\226\000\303\341\235\373\266\363RM\272\252\221\314"
 285      E19DFBB6 
 285      F3524DBA 
 285      AA91CC
 286 0312 EB10A795 		.ascii	"\353\020\247\225Lk\334X3+\013Y\256\303\2262\216\327"
 286      4C6BDC58 
ARM GAS  /tmp/ccc8slsr.s 			page 22


 286      332B0B59 
 286      AEC39632 
 286      8ED7
 287 0324 F22CF2B2 		.ascii	"\362,\362\262.\325\337\225\013\010Z\244u\310\215C\340"
 287      2ED5DF95 
 287      0B085AA4 
 287      75C88D43 
 287      E0
 288 0335 6A1082B0 		.ascii	"j\020\202\260\253w\333H\235\250*B#B\343\316\373\357"
 288      AB77DB48 
 288      9DA82A42 
 288      2342E3CE 
 288      FBEF
 289 0347 B8E64AE1 		.ascii	"\270\346J\341q6\205\247\251\226\001\335\032\235\034"
 289      713685A7 
 289      A99601DD 
 289      1A9D1C
 290 0356 D997B6E1 		.ascii	"\331\227\266\341u\005l\206e\260N\032\260cj\260y\226"
 290      75056C86 
 290      65B04E1A 
 290      B0636AB0 
 290      7996
 291 0368 C1323460 		.ascii	"\30124`'\324`\213-\203ej\300\276R\203-\267\014\366\254"
 291      27D4608B 
 291      2D83656A 
 291      C0BE5283 
 291      2DB70CF6 
 292 037d 06EC744D 		.ascii	"\006\354tM\372\221\327e+\222j\244gWvP\351C..\250\255"
 292      FA91D765 
 292      2B926AA4 
 292      67577650 
 292      E9432E2E 
 293 0393 684E5FB4 		.ascii	"hN_\264\242=x\367u1Vdc\254\310\246\265\"[J4\321\336"
 293      A23D78F7 
 293      75315664 
 293      63ACC8A6 
 293      B5225B4A 
 294 03aa 8E01C966 		.ascii	"\216\001\311fV\002\315}\365$\350\2515\243-S\\\363\244"
 294      5602CD7D 
 294      F524E8A9 
 294      35A32D53 
 294      5CF3A4
 295 03bd F0789BC2 		.ascii	"\360x\233\302\324\307f\000\335\206v\031\276W\363N7i"
 295      D4C76600 
 295      DD867619 
 295      BE57F34E 
 295      3769
 296 03cf C967BCAC 		.ascii	"\311g\274\254\025\352\032\364\235\211\242\225}\265\264"
 296      15EA1AF4 
 296      9D89A295 
 296      7DB5B4
 297 03de 6D1D4206 		.ascii	"m\035B\006\3021Zq1Zqi\265\342J\211&HD\333\221\350e\037"
 297      C2315A71 
 297      315A7169 
 297      B5E24A89 
 297      264844DB 
 298 03f6 2B86E6CE 		.ascii	"+\206\346\316zbh\314\244q\347\355)\031\363\245\360\004"
ARM GAS  /tmp/ccc8slsr.s 			page 23


 298      7A6268CC 
 298      A471E7ED 
 298      2919F3A5 
 298      F004
 299 0408 9BC2D651 		.ascii	"\233\302\326Q3\200\235\214\3652g\177\3724Q\001\373\306"
 299      33809D8C 
 299      F532677F 
 299      FA345101 
 299      FBC6
 300 041a 3298D688 		.ascii	"2\230\326\210\347\251\301.\233\001\3130\346l\201\032"
 300      E7A9C12E 
 300      9B01CB30 
 300      E66C811A 
 301 042a ACC93298 		.ascii	"\254\3112\230\226\263Ej\260\0263`\231\306\234\325\252"
 301      96B3456A 
 301      B0163360 
 301      99C69CD5 
 301      AA
 302 043b C1EE5906 		.ascii	"\301\356Y\006\323r\266A\015V-\230\000{\326\230\263M"
 302      D372B641 
 302      0D562D98 
 302      007BD698 
 302      B34D
 303 044d 6AB0772C 		.ascii	"j\260w,\203\2519\223\302u\373\323\2403R\367\364u\252"
 303      83A93993 
 303      C275FBD3 
 303      A03352F7 
 303      F475AA
 304 0460 9E3E0226 		.ascii	"\236>\002&)}_\243\345\256\376\202AW\337\256\004\223"
 304      297D5FA3 
 304      E5AEFE82 
 304      4157DFAE 
 304      0493
 305 0472 02378B15 		.ascii	"\0027\213\025\202\271\261\234\356\251\243\023\275\217"
 305      82B9B19C 
 305      EEA9A313 
 305      BD8F
 306 0480 BA8716F9 		.ascii	"\272\207\026\371\315\374\257\201n\341\177\001\264\036"
 306      CDFCAF81 
 306      6EE17F01 
 306      B41E
 307 048e E976A43B 		.ascii	"\351v\244;\221\356F\372)\322\317\2216 =\210\364K\244"
 307      91EE46FA 
 307      29D2CF91 
 307      36203D88 
 307      F44BA4
 308 04a1 47911E47 		.ascii	"G\221\036Gz\022\351)\244g\220\236Ez\016\351y\240\221"
 308      7A12E929 
 308      A467909E 
 308      457A0EE9 
 308      79A091
 309 04b4 8F9142D6 		.ascii	"\217\221B\326\305\017\267\226\274\304\304[\032'H\000"
 309      C50FB796 
 309      BCC4C45B 
 309      1A274800 
 310 04c4 BEB55C07 		.ascii	"\276\265\\\007\227\015\352\200O\300\352%k\221\341\265"
 310      970DEA80 
ARM GAS  /tmp/ccc8slsr.s 			page 24


 310      4FC0EA25 
 310      6B91E1B5 
 311 04d4 4810FB8C 		.ascii	"H\020\373\214\014p\3052\253\337\033\260\372t\002V\277"
 311      0C70C532 
 311      ABDF1BB0 
 311      FA740256 
 311      BF
 312 04e5 B3C6EABC 		.ascii	"\263\306\352\274\010\253\217\311\000?Xf\265\311\200"
 312      08AB8FC9 
 312      003F5866 
 312      B5C980
 313 04f4 D5CE0958 		.ascii	"\325\316\011X\275j>\210}])K\206\325r\237\325<\343\037"
 313      BD6A3E88 
 313      7D5D294B 
 313      86D5729F 
 313      D53CE31F 
 314 0508 BDB0CFFA 		.ascii	"\275\260\317\372\011C\330/\205\2041\254\006\205pp\215"
 314      0943D82F 
 314      858431AC 
 314      06857070 
 314      8D
 315 0519 8D6077D3 		.ascii	"\215`w\323\010\366\232\251\010\366T\315{\330\315&\214"
 315      08F69AA9 
 315      08F654CD 
 315      7BD8CD26 
 315      8C
 316 052a C06DEA96 		.ascii	"\300m\352\226+s\177}\316)'r\177\003\271\257\265%\216"
 316      2B737F7D 
 316      CE292772 
 316      7F03B9AF 
 316      B5258E
 317 053d C0353022 		.ascii	"\30050\"\177\213\027\200\266\262\"\334\\\210\"\264\232"
 317      7F8B1780 
 317      B6B222DC 
 317      5C8822B4 
 317      9A
 318 054e 12A1ED6C 		.ascii	"\022\241\355l\355\023Rc\230wq5\030\205O\034\2370\012"
 318      ED135263 
 318      98777135 
 318      18854F1C 
 318      9F300A
 319 0561 5F78826A 		.ascii	"_x\202j\375.\024\022\270\263\014\337&\200\010WmPX\303"
 319      FD2E1412 
 319      B8B30CDF 
 319      26800857 
 319      6D5058C3 
 320 0575 755D4D47 		.ascii	"u]MG\3025\311\217\303\265\215\303\321\374w6j\265\366"
 320      C235C98F 
 320      C3B58DC3 
 320      D1FC7736 
 320      6AB5F6
 321 0588 94685E73 		.ascii	"\224h^s4\217W]z7\232-\250\262'\330#\3316U\366\273\321"
 321      348F575D 
 321      7A379A2D 
 321      A8B227D8 
 321      23D93655 
 322 059f 6C656A82 		.ascii	"lej\202|eG\016\252\217Z\024\221\177\200>\266\235\267"
ARM GAS  /tmp/ccc8slsr.s 			page 25


 322      7C65470E 
 322      AA8F5A14 
 322      917F803E 
 322      B69DB7
 323 05b2 E91613B8 		.ascii	"\351\026\023\270Ev^\2562\263\261\256\246\272\032[\346"
 323      45765EAE 
 323      32B3B1AE 
 323      A6BA1A5B 
 323      E6
 324 05c3 ECBDC2CF 		.ascii	"\354\275\302\317\254\226\032z\352\331\034\\\302\307"
 324      AC961A7A 
 324      EAD91C5C 
 324      C2C7
 325 05d1 6F33E1B3 		.ascii	"o3\341\263g\371\314D\015C\344\247\010\2776\325|\336"
 325      67F9CC44 
 325      0D43E4A7 
 325      08BF36D5 
 325      7CDE
 326 05e3 1518DB9B 		.ascii	"\025\030\333\233{\026m\217\344'\266\275\305gkc\233\317"
 326      7B166D8F 
 326      E427B6BD 
 326      C5676B63 
 326      9BCF
 327 05f5 E3DC6CD9 		.ascii	"\343\334l\331\353H|H\344\377\330\325\320{\314\024\036"
 327      EB487C48 
 327      E4FFD8D5 
 327      D07BCC14 
 327      1E
 328 0606 8FDA04C9 		.ascii	"\217\332\004\311h\001$\221\1775:7c\034\357\206\333\026"
 328      68012491 
 328      7F353A37 
 328      631CEF86 
 328      DB16
 329 0618 74218CCE 		.ascii	"t!\214\316\020\322\240\364\007v\255\015k\030\24272b"
 329      10D2A0F4 
 329      0776AD0D 
 329      6B18A237 
 329      3262
 330 062a 62AE9066 		.ascii	"b\256\220f g\314o\002\014\234yYiqb\024\343\332\017\327"
 330      2067CC6F 
 330      020C9C79 
 330      59697162 
 330      14E3DA0F 
 331 063f EB294CA7 		.ascii	"\353)L\247\236\264s(r\273=\177\351\310\003~\243$u\022"
 331      9EB47328 
 331      72BB3D7F 
 331      E9C8037E 
 331      A3247512 
 332 0653 F98502F1 		.ascii	"\371\205\002\3618\315\366\204\036'v2\246\226\255\361"
 332      38CDF684 
 332      1E277632 
 332      A696ADF1 
 333 0663 CDED0D3C 		.ascii	"\315\355\015<\272\203\332\304u>\241:\374I{\203\200!"
 333      BA83DAC4 
 333      753EA13A 
 333      FC497B83 
 333      8021
ARM GAS  /tmp/ccc8slsr.s 			page 26


 334 0675 3DF62ED5 		.ascii	"=\366.\325f\206&mW\216d\254\005\276M\014fD\376\003\341"
 334      6686266D 
 334      578E64AC 
 334      05BE4D0C 
 334      6644FE03 
 335 068a D7260727 		.ascii	"\327&\007'K\035Z\361\315\217\225\352\233\302s\371j\260"
 335      4B1D5AF1 
 335      CD8F95EA 
 335      9BC273F9 
 335      6AB0
 336 069c 4F915F2E 		.ascii	"O\221_.\020\267r\201\201Jf\264d\361r\201\373\021oZ\233"
 336      10B77281 
 336      814A66B4 
 336      64F17281 
 336      FB116F5A 
 337 06b1 9C314DA8 		.ascii	"\2341M\250\006{hl\343\247/\257\221H\014\375>\312q\315"
 337      067B686C 
 337      E3A72FAF 
 337      91480CFD 
 337      3ECA71CD 
 338 06c5 3264A6A6 		.ascii	"2d\246\246r\267\021[\230\221\256\300\3350\003g4\212"
 338      72B7115B 
 338      9891AEC0 
 338      DD300367 
 338      348A
 339 06d7 05B81D5A 		.ascii	"\005\270\035Z\270\333\226\341\264\334\355\322\302\335"
 339      B8DB96E1 
 339      B4DCEDD2 
 339      C2DD
 340 06e5 37036734 		.ascii	"7\003g4\226\004\270#Z\270qN\253pZ\356\216i\341&\232"
 340      9604B823 
 340      5AB8714E 
 340      AB705AEE 
 340      8E69E126 
 341 06fa 81D31B4F 		.ascii	"\201\323\033O\352}\324\315V\344\027c\023Y\"\2208}\025"
 341      EA7DD4CD 
 341      56E41763 
 341      13592290 
 341      387D15
 342 070d D235483F 		.ascii	"\3225H?B\272\036\351F\244\233\205\004Q\274\334 \352"
 342      42BA1EE9 
 342      46A49B85 
 342      0451BCDC 
 342      20EA
 343 071f AE1FE9B1 		.ascii	"\256\037\351\261\025=\313\002\364\247G\234q\375\351"
 343      153DCB02 
 343      F4A7479C 
 343      71FDE9
 344 072e 4203A908 		.ascii	"B\003\251\010\243\237\304\361\247\237\260\376\364\254"
 344      A39FC4F1 
 344      A79FB0FE 
 344      F4AC
 345 073c D3AA3F55 		.ascii	"\323\252?U\351\034{\323\033_\361\325\325\322\312\236"
 345      E91C7BD3 
 345      1B5FF1D5 
 345      D5D2CA9E 
 346 074c E6A78FDA 		.ascii	"\346\247\217\332\256\\\333\307\217\307\306\277\015k"
ARM GAS  /tmp/ccc8slsr.s 			page 27


 346      AE5CDBC7 
 346      8FC7C6BF 
 346      0D6B
 347 075a EAA253D7 		.ascii	"\352\242S\327\217\230\200\252o\2726K\366#;\021\252\311"
 347      8F9880AA 
 347      6FBA364B 
 347      F6233B11 
 347      AAC9
 348 076c C9FA11AB 		.ascii	"\311\372\021\253sQ\226.\026\270[\254\002\255\3153\201"
 348      7351962E 
 348      16B85BAC 
 348      02ADCD33 
 348      81
 349 077d 026FC90A 		.ascii	"\002o\311\012T\264q\3372b\247\230z\246f:\015\315t:\032"
 349      54B471DF 
 349      3262A798 
 349      7AA6663A 
 349      0DCD743A 
 350 0792 E27CA4F5 		.ascii	"\342|\244\365H?U\033\245\300I.Vg4\370P\341E\243\024"
 350      483F551B 
 350      A5C0492E 
 350      566734F8 
 350      50E145A3 
 351 07a7 2E31A291 		.ascii	".1\242\221aN\026\"c\025\201{\333\305\204q\326\014/\\"
 351      614E1622 
 351      6315817B 
 351      DBC58471 
 351      D60C2F5C 
 352 07bb FB8FF469 		.ascii	"\373\217\364ib\242^|\211]A\312\211\332\314\361\273\341"
 352      62A25E7C 
 352      895D41CA 
 352      89DACCF1 
 352      BBE1
 353 07cd 8C6DD8   		.ascii	"\214m\330"
 354 07d0 D4F66327 		.ascii	"\324\366c'~\320\225\260\023\327\342\010\334q,r\220\351"
 354      7ED095B0 
 354      13D7E208 
 354      DC712C72 
 354      90E9
 355 07e2 C81BEF3D 		.ascii	"\310\033\357=h|j\036\"\0374\025\275\335\323\033\374"
 355      687C6A1E 
 355      221F3415 
 355      BDDDD31B 
 355      FC
 356 07f3 50B68C74 		.ascii	"P\266\214tx\230m\3003\334\012+\311\005D\017\366\341"
 356      78986DC0 
 356      33DC0A2B 
 356      C905440F 
 356      F6E1
 357 0805 0CD061F4 		.ascii	"\014\320a\364:\363-\203i+e\346\376E\026'M\247/\275\332"
 357      3AF32D83 
 357      692B65E6 
 357      FE451627 
 357      4DA72FBD 
 358 081a 6D27AAEC 		.ascii	"m'\252\3548\032\377U7k\213K\205$\246M\233\315\010b\330"
 358      381AFF55 
 358      376B8B4B 
ARM GAS  /tmp/ccc8slsr.s 			page 28


 358      8524A64D 
 358      9BCD0862 
 359 082f 2A494D1E 		.ascii	"*IM\036\351^\277I\222\336r*\343\002\247\221 \320\253"
 359      E95EBF49 
 359      92DE722A 
 359      E302A791 
 359      20D0AB
 360 0842 E2CD4EB3 		.ascii	"\342\315N\263\3260}\365\321\347\2505\2346e\015\237\034"
 360      D6307DF5 
 360      D1E7A835 
 360      9C36650D 
 360      9F1C
 361 0854 9A6B2A34 		.ascii	"\232k*4]\022Y3\373\025\336~[\012\271\3759\366\366\357"
 361      5D125933 
 361      FB15DE7E 
 361      5B0AB9FD 
 361      39F6F6EF 
 362 0868 ADBBFA47 		.ascii	"\255\273\372Gz\373s\246n\277\361\330,=c4\030=(\325\267"
 362      7AFB73A6 
 362      6EBFF1D8 
 362      2C3D6334 
 362      183D28D5 
 363 087d BAF9D9C5 		.ascii	"\272\371\331\305x\223\013h@\023R\331\352\373S\232\372"
 363      78930B68 
 363      401352D9 
 363      EAFB539A 
 363      FA
 364 088e 5EF85D63 		.ascii	"^\370]c\277SR\025\356\223\262_\020\363@\336*\254)\205"
 364      BF535215 
 364      EE93B25F 
 364      10F340DE 
 364      2AAC2985 
 365 08a2 87699611 		.ascii	"\207i\226\021\265F\274\345\030\266\010\0126\323\014"
 365      B546BCE5 
 365      18B6080A 
 365      36D30C
 366 08b1 589C6584 		.ascii	"X\234e\204\217\325`s,\203i9\333\252\006\233o\006,\316"
 366      8FD56073 
 366      2C836939 
 366      DBAA069B 
 366      6F062CCE 
 367 08c5 44FE3635 		.ascii	"D\37665\330\"\313`Z\316v\250\301\026\233\001\2133\221"
 367      D822CB60 
 367      5ACE76A8 
 367      C1169B01 
 367      8B3391
 368 08d8 BF4B0DB6 		.ascii	"\277K\015\266\3242\230\226\263#j\260\017\315\200e\352"
 368      D4329896 
 368      B3236AB0 
 368      0FCD8065 
 368      EA
 369 08e9 7016F918 		.ascii	"p\026\371\030\371\345o\324}\333\352T\305!X\264i.\212"
 369      F9E56FD4 
 369      7DDBEA54 
 369      C52158B4 
 369      692E8A
 370 08fc B12ED5AA 		.ascii	"\261.\325\252\007\323\310M\372\242\356\333\344vA\235"
ARM GAS  /tmp/ccc8slsr.s 			page 29


 370      07D3C84D 
 370      FAA2EEDB 
 370      E476419D 
 371 090c FB163388 		.ascii	"\373\0263\210q\014F^_\241`;,\2031\246\274\237\355\276"
 371      710C465E 
 371      5FA1603B 
 371      2C8331A6 
 371      BC9FEDBE 
 372 0920 238BD861 		.ascii	"#\213\330a\303Y/\221_\206\223CK\231Ui\303M\0331\325"
 372      C3592F91 
 372      5F869343 
 372      4B995569 
 372      C34D1B31 
 373 0935 745F5D4D 		.ascii	"t_]M{\314\310\020\307N\317\357_\204\023\177\346\227"
 373      7BCCC810 
 373      C74ECFEF 
 373      5F84137F 
 373      E697
 374 0947 DFA72F3D 		.ascii	"\337\247/=*\367v\222\215\364v\207\030wi\036\011F\364"
 374      2AF77692 
 374      8DF47687 
 374      1877691E 
 374      0946F4
 375 095a 75720C5D 		.ascii	"ur\014]\215P'\222\206\252oj\254\226c\350\032\204\372"
 375      8D502792 
 375      86AA6F6A 
 375      AC9663E8 
 375      1A84FA
 376 096d 26C6895B 		.ascii	"&\306\211[\334\025\360\257\272V\340\276c\253Lo\362\317"
 376      DC15F0AF 
 376      BA56E0BE 
 376      63AB4C6F 
 376      F2CF
 377 097f D81B40AB 		.ascii	"\330\033@\2538\335\243~\235$U;\255T\332\001\271\322"
 377      38DDA37E 
 377      9D24553B 
 377      AD54DA01 
 377      B9D2
 378 0991 26A37AFE 		.ascii	"&\243z\376\031\243\236jv\214\221P\216[\226\345x\226"
 378      19A39E6A 
 378      768C9150 
 378      8E5B96E5 
 378      7896
 379 09a3 9123FCAC 		.ascii	"\221#\374\254u9\316\310rLC9\036\374?\220\243&\315\252"
 379      7539CEC8 
 379      724C4339 
 379      1EFC3F90 
 379      A326CDAA 
 380 09b7 1CEA657B 		.ascii	"\034\352e{\214\263\236\247q\326c\334\214\370q\026\341"
 380      8CB39EA7 
 380      71D663DC 
 380      8CF87116 
 380      E1
 381 09c8 67B6ED31 		.ascii	"g\266\3551\355\324\331\231\203|&\315N\024\340H\341\326"
 381      EDD4D999 
 381      837C26CD 
 381      4E14E048 
ARM GAS  /tmp/ccc8slsr.s 			page 30


 381      E1D6
 382 09da 83AAE054 		.ascii	"\203\252\340T2\027\2346\313\032\233\207\032\233\222"
 382      32179C36 
 382      CB1A9B87 
 382      1A9B92
 383 09e9 A6D3C64C 		.ascii	"\246\323\306L!\265]i\310XC'\016\021if\322H\365M\267"
 383      21B55D69 
 383      C8584327 
 383      0E116966 
 383      D248F54D 
 384 09fe 6BE4D65A 		.ascii	"k\344\326Z\213P\013\323\330jt2\265\350\324\326\"|%\367"
 384      8B500BD3 
 384      D86A7432 
 384      B5E8D4D6 
 384      227C25F7 
 385 0a12 BA4D8265 		.ascii	"\272M\202e\376or\016\371\342\342\376\277\227\023\270"
 385      FE6F720E 
 385      F9E2E2FE 
 385      BF9713B8 
 386 0a22 E5C83EA9 		.ascii	"\345\310>\251\301d\342?\264\240\177\253\227\3739ZKk"
 386      C164E23F 
 386      B4A07FAB 
 386      97FB395A 
 386      4B6B
 387 0a34 1F0A717C 		.ascii	"\037\012q|x\363d:*\303XU\340\352\036\022\356\350!\353"
 387      78F3643A 
 387      2AC35855 
 387      E0EA1E12 
 387      EEE821EB 
 388 0a48 63A24F9F 		.ascii	"c\242O\237\244f\367!\012\264#\246\206\223\032\0235$"
 388      A466F721 
 388      0AB423A6 
 388      86931A13 
 388      3524
 389 0a5a 2B48E423 		.ascii	"+H\344#p_\262\355\335l\000\025\251\255\333\317\233\034"
 389      705FB2ED 
 389      DD6C0015 
 389      A9ADDBCF 
 389      9B1C
 390 0a6c 574546EB 		.ascii	"WEF\353\337g4\2402>\262\221\321\372qF\031&\306g\027"
 390      DF6734A0 
 390      323EB291 
 390      D1FA7146 
 390      1926C667 
 391 0a81 B1C8065B 		.ascii	"\261\310\006[\314h\375H7:@\"?\231\030\237\325(vA\007"
 391      CC68FD48 
 391      373A4022 
 391      3F99189F 
 391      D5287641 
 392 0a96 E15F0A82 		.ascii	"\341_\012\202\014\233\254>5U\030\345O\3447\331H\230"
 392      0C9BAC3E 
 392      355518E5 
 392      4FE437D9 
 392      4898
 393 0aa8 B3D9A699 		.ascii	"\263\331\246\231\246\271nY\367\231j\335\207\357\035"
 393      A6B96E59 
 393      F7996ADD 
ARM GAS  /tmp/ccc8slsr.s 			page 31


 393      87EF1D
 394 0ab7 5AC413FE 		.ascii	"Z\304\023\376u\206\224/\251\003\312\210\342\033\273"
 394      7586942F 
 394      A903CA88 
 394      E21BBB
 395 0ac6 1D40F57C 		.ascii	"\035@\365|\214\212\277o\240\370\227\214p\004\356\235"
 395      8C8ABF6F 
 395      A0F8978C 
 395      7004EE9D 
 396 0ad6 7452A43E 		.ascii	"tR\244>V\361\015OR\305\327\233R\374I]\305\327[W|d\353"
 396      56F10D4F 
 396      52C5D79B 
 396      52FC495D 
 396      C5D75B57 
 397 0aed 5C249015 		.ascii	"\\$\220\025\371\243\226\3012\343\325b\275\252\026\267"
 397      F9A396C1 
 397      32E3D562 
 397      BDAA16B7 
 398 0afd 632DEEB0 		.ascii	"c-\356\260\341\016\021m]\276\227\316\324\245Fsr\322"
 398      E10E116D 
 398      5DBE97CE 
 398      D4A54673 
 398      72D2
 399 0b0f 70DF8E14 		.ascii	"p\337\216\024\236yx\221\254\022\352\363V\262xzR\350"
 399      9E797891 
 399      AC12EAF3 
 399      56B2787A 
 399      52E8
 400 0b21 ED795166 		.ascii	"\355yQf\323\016\243J\250\277Yg\031,S\003\266s\252\311"
 400      D30EA34A 
 400      A8BF5967 
 400      192C5303 
 400      B673AAC9 
 401 0b35 35FDC8D2 		.ascii	"5\375\310\322X'TJ=\336w/k.\355\227\216N\342\307a\217"
 401      5827544A 
 401      3DDE772F 
 401      6B2EED97 
 401      8E4EE2C7 
 402 0b4b B7D784BD 		.ascii	"\267\327\204\275@G\1779\005\227\001\250\335\266DP\343"
 402      40477F39 
 402      059701A8 
 402      DDB64450 
 402      E3
 403 0b5c A83A8EB5 		.ascii	"\250:\216\265\334\273z\200\256*\320\201\317=\026\316"
 403      DCBB7A80 
 403      AE2AD081 
 403      CF3D16CE 
 404 0b6c E284C003 		.ascii	"\342\204\300\003\237\376\302\263\261b\224e\347z\022"
 404      9FFEC2B3 
 404      B1629465 
 404      E77A12
 405 0b7b EA1C4699 		.ascii	"\352\034F\231\252\037a{\004\252\031\225!\356U\031\342"
 405      AA1F617B 
 405      04AA1995 
 405      21EE5519 
 405      E2
 406 0b8c 7E34C406 		.ascii	"~4\304\0064\304\203H\377\2566G\243h\353\013\233j\260"
ARM GAS  /tmp/ccc8slsr.s 			page 32


 406      34C48348 
 406      FFAE3647 
 406      A368EB0B 
 406      9B6AB0
 407 0b9f 34F911AB 		.ascii	"4\371\021\253rg2\265ct\233=\352\333\314x\304\204\355"
 407      726732B5 
 407      63749B3D 
 407      EADBCC78 
 407      C484ED
 408 0bb2 F535542F 		.ascii	"\3655T/q\352\177P\302\001:\243\270\3102\242\326\232"
 408      71EA7F50 
 408      C2013AA3 
 408      B8C832A2 
 408      D69A
 409 0bc4 9BA76AC2 		.ascii	"\233\247j\302\201\017\315\300\275\244\303\240\336G="
 409      810FCDC0 
 409      BDA4C3A0 
 409      DE473D
 410 0bd3 870C9582 		.ascii	"\207\014\225\202\323\365_\340\204\372\021\244\307\220"
 410      D3F55FE0 
 410      84FA11A4 
 410      C790
 411 0be1 9E42DA8A 		.ascii	"\236B\332\212\364\016\322{H\333\221\276\215\025\372"
 411      F40ED27B 
 411      48DB91BE 
 411      8D15FA
 412 0bf0 2ED25948 		.ascii	".\322YH\327\"\255C\272\033\351\247H?Gz\034\351\311D"
 412      D722AD43 
 412      BA1BE9A7 
 412      483F477A 
 412      1CE9C944 
 413 0c04 0620F702 		.ascii	"\006 \367\002\273\233\316t_\213\276z\037\232\377\225"
 413      BB9BCE74 
 413      5F8BBE7A 
 413      1F9AFF95 
 414 0c14 18CB3B2C 		.ascii	"\030\313;,03|1S\324w\03711\325\037g2\266\345\253\303"
 414      30337C31 
 414      53D4771F 
 414      3131D51F 
 414      6732B6E5 
 415 0c2a A7F89992 		.ascii	"\247\370\231\222\324\320\223\332?\360b\023\264\210\332"
 415      D4D093DA 
 415      3FF06213 
 415      B488DA
 416 0c39 1613C71A 		.ascii	"\026\023\307\032\345J=W\273\330\330E\2554\232k\215l"
 416      E54A3D57 
 416      BBD8D845 
 416      AD349A6B 
 416      8D6C
 417 0c4b 03685CC3 		.ascii	"\003h\\\303o\242S\253\330\034\307u\320_A0\004\302\335"
 417      6FA253AB 
 417      D81CC775 
 417      D05F4130 
 417      04C2DD
 418 0c5e 8F8C9F0B 		.ascii	"\217\214\237\013o\\}\200n\003hL\354\345&T\207\353V\037"
 418      6F5C7D80 
 418      6E03684C 
ARM GAS  /tmp/ccc8slsr.s 			page 33


 418      ECE52654 
 418      87EB561F 
 419 0c72 1070C7B3 		.ascii	"\020p\307\263\274\015 \336j\031\364Eh[\211\227\263\246"
 419      BC0D20DE 
 419      6A19F445 
 419      685B8997 
 419      B3A6
 420 0c84 A0288DD1 		.ascii	"\240(\215\321f\236p\037\266\272\256 HZ}\225\227\367"
 420      669E701F 
 420      B6BAAE20 
 420      485A7D95 
 420      97F7
 421 0c96 61D3D5AC 		.ascii	"a\323\325\254\351\226\001;i\304\254W\304\024\371Kt\274"
 421      E996013B 
 421      69C4AC57 
 421      C414F94B 
 421      74BC
 422 0ca8 6319505B 		.ascii	"c\031P[\365\333Y\016\027[\006\354\251\341p'\313\341"
 422      F5DB590E 
 422      175B06EC 
 422      A9E17027 
 422      CBE1
 423 0cba 2A338071 		.ascii	"*3\200q\272\210\335,\207k-\003jux\224\345\360c\313\200"
 423      BA88DD2C 
 423      876B2D03 
 423      6A757894 
 423      E5F063CB 
 424 0ccf 5A1D1E67 		.ascii	"Z\035\036g9\254\267\014\250\325\341I\226\303\317\315"
 424      39ACB70C 
 424      A8D5E149 
 424      96C3CFCD 
 425 0cdf 00C699AC 		.ascii	"\000\306\231\254<\305rx\3002\240V\207gX\016\217[\006"
 425      3CC57278 
 425      C032A056 
 425      8767580E 
 425      8F5B06
 426 0cf2 D4EAF02C 		.ascii	"\324\352\360,\313\341\327\226\001\265:<\307r\370\255"
 426      CBE1D796 
 426      01B53A3C 
 426      C772F8AD 
 427 0d02 19C078F3 		.ascii	"\031\300x\363\233,\207M\226\001\265:lf9\274i\031P\253"
 427      9B2C874D 
 427      9601B53A 
 427      6C6639BC 
 427      691950AB 
 428 0d16 C31696C3 		.ascii	"\303\026\226\3036\313\200Z\035\336d9\234\324\321\004"
 428      36CB805A 
 428      1DDE6439 
 428      9CD4D104 
 429 0d26 60A6B10E 		.ascii	"`\246\261\016[Y\016\247X\006dW\367U\037u/\"\362\027"
 429      5B590EA7 
 429      58066457 
 429      F7551F75 
 429      2F22F217 
 430 0d3a 30CCBB88 		.ascii	"0\314\273\210\375\373e\244W\220^E\332\204\364'\244?"
 430      FDFB65A4 
 430      57905E45 
ARM GAS  /tmp/ccc8slsr.s 			page 34


 430      DA84F427 
 430      A43F
 431 0d4c 236D46DA 		.ascii	"#mF\332\202\364&\322V\244w\220\336C\332\206\264\035"
 431      82F426D2 
 431      56A47790 
 431      DE43DA86 
 431      B41D
 432 0d5e E9383BA1 		.ascii	"\3518;\241\325H'\332M\004\220\337\250#\273\271\035M"
 432      D54827DA 
 432      4D0490DF 
 432      A823BBB9 
 432      1D4D
 433 0d70 440171A6 		.ascii	"D\001q\246n[\346\234{\250}\233\215\255w?\375=\2318K"
 433      6E5BE69C 
 433      7BA87D9B 
 433      8DAD773F 
 433      FD3D9938 
 434 0d85 BC7773B2 		.ascii	"\274ws\262\335\334\336\315)v\246\013\237y\030\367n\222"
 434      DDDCDECD 
 434      2976A60B 
 434      9F7918F7 
 434      6E92
 435 0d97 FCC4C3DA 		.ascii	"\374\304\303\332\331I\015\223\2421\310\337\345\255\210"
 435      D9490D93 
 435      A231C8DF 
 435      E5AD88
 436 0da6 D3ED2406 		.ascii	"\323\355$\006\271\3301\341.\006-\020ap\026+@\333uy+"
 436      B9D831E1 
 436      2E062D10 
 436      6170162B 
 436      40DB7579 
 437 0dbb E2ACC422 		.ascii	"\342\254\304\"@s\231\336\"oET\366\\\335B.H\3418\225"
 437      407399DE 
 437      226F4554 
 437      F65CDD42 
 437      2E48E138 
 438 0dd0 AC311A2D 		.ascii	"\2541\032-\340\214\026\315\026\256\273\226\34125p\263"
 438      E08C16CD 
 438      16AEBB96 
 438      E1323570 
 438      B3
 439 0de1 B4705227 		.ascii	"\264pR'\023pqv\323\315\321\302M\264\014\227\251\247"
 439      13707176 
 439      D3CDD1C2 
 439      4DB40C97 
 439      A9A7
 440 0df3 4B2EA632 		.ascii	"K.\2462D~\266\2354\3459\330\324\346!]\200t\221\231f"
 440      447EB69D 
 440      34E539D8 
 440      D4E6215D 
 440      80749199 
 441 0e08 37CDAEDE 		.ascii	"7\315\256\336g\203LNI\256F\240\331\265\336=\323\227"
 441      67834C4E 
 441      49AE46A0 
 441      D9B5DE3D 
 441      D397
 442 0e1a AE23321B 		.ascii	"\256#2\033\003\210\016\2148X\242\346`\206e\0162\325"
ARM GAS  /tmp/ccc8slsr.s 			page 35


 442      03880E8C 
 442      3858A2E6 
 442      6086650E 
 442      32D5
 443 0e2c 1C84E71F 		.ascii	"\034\204\347\037\246\313l\312J\327\\\026Oo\315!Nx\265"
 443      A6CB6CCA 
 443      4AD75C16 
 443      4F6FCD21 
 443      4E78B5
 444 0e3f E8303E39 		.ascii	"\3500>9I\301j-\203i\2376\255U\203\255\264\014f\264s"
 444      49C16A2D 
 444      83699F36 
 444      AD5583AD 
 444      B40C66B4 
 445 0e54 6B2AD6FF 		.ascii	"k*\326\377\273X\347\213\221~\200t\031\322\025j+\020"
 445      BB58E78B 
 445      917E8074 
 445      19D2156A 
 445      2B10
 446 0e66 B8F59DD8 		.ascii	"\270\365\235\3301\031u@*\324\250\247\342\314\342\032"
 446      31197540 
 446      2AD4A8A7 
 446      E2CCE21A 
 447 0e76 D5ED5BEA 		.ascii	"\325\355[\352\272\375\254\223\011\247\236il]-s\316\313"
 447      BAFDAC93 
 447      09A79E69 
 447      6C5D2D73 
 447      CECB
 448 0e88 4E9D020B 		.ascii	"N\235\002\013\\\203eD\255\265\314>_+\017\327\227b#="
 448      5C836544 
 448      ADB5CC3E 
 448      5F2B0FD7 
 448      9762233D 
 449 0e9c 6C062FCE 		.ascii	"l\006/\316\023r\213\316\343\314\030\005;m\031,\2233"
 449      13728BCE 
 449      E3CC1805 
 449      3B6D192C 
 449      9333
 450 0eae FCA89F3B 		.ascii	"\374\250\237;\021\371\333\270\262}\007\037\375z\033"
 450      11F9DBB8 
 450      B27D071F 
 450      FD7A1B
 451 0ebd 07F67B91 		.ascii	"\007\366{\221~\215]\357Y\244ob-\255F\272\026\351:35"
 451      7E8D5DEF 
 451      59A46F62 
 451      2DAD46BA 
 451      16E93A33 
 452 0ed2 D6C2AB6A 		.ascii	"\326\302\253j\354\"\212p\315\302\276;m\2155\037;\365"
 452      EC228A70 
 452      CDC2BE3B 
 452      6D8D351F 
 452      3BF5
 453 0ee4 BE526393 		.ascii	"\276Rc\223\351\224\200eDm\215\335\242\323\261\024\354"
 453      E9948065 
 453      446D8DDD 
 453      A2D3B114 
 453      EC
ARM GAS  /tmp/ccc8slsr.s 			page 36


 454 0ef5 2733607A 		.ascii	"'3`z\215[_\303\327T\032nF\015_G\015oD\355m6\243\275"
 454      8D5B5FC3 
 454      D7541A6E 
 454      460D5F47 
 454      0D6F44ED 
 455 0f0d 1FA3DA33 		.ascii	"\037\243\3323\277\204Sw\375\3103\253\261w\256\303\247"
 455      BF845377 
 455      FDC833AB 
 455      B177AEC3 
 455      A7
 456 0f1e 665A629A 		.ascii	"fZb\232h\022K8nn\022}.H\032\307\217T\371#\225\217Q\277"
 456      68124B38 
 456      6E6E127D 
 456      2E481AC7 
 456      8F54F923 
 457 0f36 0C63ABDD 		.ascii	"\014c\253\335M\246\355;i\027\331Uw$\027(\222\323\264"
 457      4DA6ED3B 
 457      6917D955 
 457      77241728 
 457      92D3B4
 458 0f49 9282223D 		.ascii	"\222\202\"=\270Z)|\255q\366\352\0372\326\020\367/=h"
 458      B85A297C 
 458      AD71F6EA 
 458      1F32D610 
 458      F72F3D68 
 459 0f5d FFDBB8F1 		.ascii	"\377\333\270\361<\363l\211\335\270\017\330a\327<[\242"
 459      3CF36C89 
 459      DDB80FD8 
 459      61D73C5B 
 459      A2
 460 0f6e 1BB4255A 		.ascii	"\033\264%Z\3749\267\346z7\272\326\271\033\203\234\177"
 460      FC39B7E6 
 460      7A37BAD6 
 460      B91B839C 
 460      7F
 461 0f7f 3E6A71F1 		.ascii	">jq\361\2070\362\031\033\344\324\321\007\324>3\025\245"
 461      8730F219 
 461      1BE4D4D1 
 461      07D43E33 
 461      15A5
 462 0f91 D5EF5B6B 		.ascii	"\325\357[k\030\2451A';\237]\335\231O"
 462      18A53141 
 462      273B9F5D 
 462      DD994F
 463 0fa0 1C8689FC 		.ascii	"\034\206\211\374~;\231\314j\210\211%k\220\313\006s\261"
 463      7E3B99CC 
 463      6A888925 
 463      6B90CB06 
 463      73B1
 464 0fb2 E43E9CA4 		.ascii	"\344>\234\2446~\014\310\274\351\266n\272\370\207\365"
 464      367E0CC8 
 464      BCE9B66E 
 464      BAF887F5 
 465 0fc2 68BA5FA0 		.ascii	"h\272_\240\351\036\356\314\232\256\203\261\\\207\326"
 465      E91EEECC 
 465      9AAE83B1 
 465      5C87D6
ARM GAS  /tmp/ccc8slsr.s 			page 37


 466 0fd1 721D29D1 		.ascii	"r\035)\321\204l\271FU\363w;\363\374\321\237\322t\355"
 466      846CB946 
 466      55F3773B 
 466      F3FCD19F 
 466      D274ED
 467 0fe4 C5D4DEA0 		.ascii	"\305\324\336\240\0118\374I\260e\301\210\223cv\365,f"
 467      0938FC49 
 467      B065C188 
 467      936376F5 
 467      2C66
 468 0ff6 849F2FF0 		.ascii	"\204\237/\360\3618.\341#Q"
 468      F1382EE1 
 468      2351
 469 1000 E49243EA 		.ascii	"\344\222C\352\216\361$j\255!\351\260\353\334\232c\031"
 469      8EF1246A 
 469      AD21E9B0 
 469      EBDC9A63 
 469      19
 470 1011 B1831DA6 		.ascii	"\261\203\035\246\365}\021\247\371\2356\251Z\032\273"
 470      F57D11A7 
 470      F99D36A9 
 470      5A1ABB
 471 1020 18A19C7D 		.ascii	"\030\241\234}x\265\234R\253\345\254e\265d\252\325\""
 471      78B59C52 
 471      ABE5AC65 
 471      B564AAD5 
 471      22
 472 1031 81274A71 		.ascii	"\201'Jq\306S\311\2748\3024\032\253$\262\367\305\224"
 472      C653C9BC 
 472      38C2341A 
 472      AB24B2F7 
 472      C594
 473 1043 48E7D522 		.ascii	"H\347\325\"5\232\021\3118\034}8\221\276\323\021\311"
 473      359A11C9 
 473      381C7D38 
 473      91BED311 
 473      C9
 474 1054 940897ED 		.ascii	"\224\010\227\355\314$\375\267\226\305\310\344\264\237"
 474      CC24FDB7 
 474      96C5C8E4 
 474      B49F
 475 1062 687C7910 		.ascii	"h|y\020{\327\257\220\376\003\351\267fz\332\275j\265"
 475      7BD7AF90 
 475      FE03E9B7 
 475      667ADABD 
 475      6AB5
 476 1074 7E8FFC7C 		.ascii	"~\217\374|f\275\001\351}\324\235\200\310\177\216\301"
 476      66BD01E9 
 476      7DD49D80 
 476      C87F8EC1 
 477 1084 F51E332C 		.ascii	"\365\0363,\355\212\262\024Q\361}\355\202\207\300\375"
 477      ED8AB214 
 477      51F17DED 
 477      8287C0FD 
 478 1094 C878C85F 		.ascii	"\310x\310_qK%i\006v\235?\220\332\2450\002w\023\257\333"
 478      714B2569 
 478      06769D3F 
ARM GAS  /tmp/ccc8slsr.s 			page 38


 478      90DAA530 
 478      027713AF 
 479 10a9 6EEFA17B 		.ascii	"n\357\241{;\371f\264\2604\027\202\"\236\336K\340\356"
 479      3BF966B4 
 479      B0341782 
 479      229EDE4B 
 479      E0EE
 480 10bb 24282873 		.ascii	"$((s\364\237\271\345\304nN};\364e\371\271^\343B\262"
 480      F49FB9E5 
 480      C46E4E7D 
 480      3BF465F9 
 480      B95EE342 
 481 10d0 7C4D76CD 		.ascii	"|Mv\315k\330H\247\337x\255\361\336'\027K\310\260^jo"
 481      6BD848A7 
 481      DF78ADF1 
 481      DE27174B 
 481      C8B05E6A 
 482 10e5 FF1BDBE3 		.ascii	"\377\033\333\343\223\360\300H[\327\023w\371\232\215"
 482      93F0C048 
 482      5BD71377 
 482      F99A8D
 483 10f4 EC9187B1 		.ascii	"\354\221\207\261\373p\252'\322\367\364\306\031\210\233"
 483      FB70AA27 
 483      D2F7F4C6 
 483      19889B
 484 1103 D8E3BFF3 		.ascii	"\330\343\277\363X\302i\015-\014\341\3436\333\227\236"
 484      58C2690D 
 484      2D0CE1E3 
 484      36DB979E 
 485 1113 DC8F7DE9 		.ascii	"\334\217}\351mS}\351\271I\306kCl\217\257y}\225\300\315"
 485      6D537DE9 
 485      B949C66B 
 485      436C8FAF 
 485      797D95C0 
 486 1128 794CBFC7 		.ascii	"yL\277\307\327\\&\362m\330\343?`\271\334<\011\271|`"
 486      D75C26F2 
 486      6DD8E33F 
 486      60B9DC3C 
 486      09B97C60 
 487 113c 8ACBBAFD 		.ascii	"\212\313\272\375\011z\374\370U5\336\221\244\343\030"
 487      097AFCF8 
 487      5535DE91 
 487      A4E318
 488 114b E75035D2 		.ascii	"\347P5\322\245X;\017\222\355\345\250\357\243\2300\214"
 488      A5583B0F 
 488      92EDE5A8 
 488      EFA39830 
 488      8C
 489 115c B50C9669 		.ascii	"\265\014\226i\014\266\303\014X\"\257\254\200\355\261"
 489      0CB6C30C 
 489      5822AFAC 
 489      80EDB1
 490 116b 0CA6C359 		.ascii	"\014\246\303Y\26255E\247\246\"iy\024\021\371.\367\327"
 490      B2353545 
 490      A7A62269 
 490      791411F9 
 490      2EF7D7
ARM GAS  /tmp/ccc8slsr.s 			page 39


 491 117e ECEFA66A 		.ascii	"\354\357\246j\366\235h\315\212\374\271\210\211\306\021"
 491      F69D68CD 
 491      8AFCB988 
 491      89C611
 492 118d D978FDE5 		.ascii	"\331x\375\345\341D\236eE\344c\017!\362L\265\310'-\213"
 492      E1449E65 
 492      45E4630F 
 492      21F24CB5 
 492      C8272D8B 
 493 11a1 1CC7FEBE 		.ascii	"\034\307\376\2764c2\306k/\017\247\277\367\214\365\247"
 493      346332C6 
 493      6B2F0FA7 
 493      BFF78CF5 
 493      A7
 494 11b2 EBD40CB7 		.ascii	"\353\324\014\267p\311>\371\364\256\353.\364\311\357"
 494      70C93EF9 
 494      F4AEEB2E 
 494      F4C9EF
 495 11c1 3B884F7E 		.ascii	";\210O~\267\213\376(\314\020\006w\356;\030o\327\352"
 495      B78BFE28 
 495      CC100677 
 495      EE3B186F 
 495      D7EA
 496 11d3 CBA4B989 		.ascii	"\313\244\271\211}\335\235\345\362\026\034:\013\263\030"
 496      7DDD9DE5 
 496      F2161C3A 
 496      0BB318
 497 11e2 EF4F8A26 		.ascii	"\357O\212&\345u\302w}d\362\202b\255\264\214\225\251"
 497      E575C277 
 497      7D64F282 
 497      62ADB48C 
 497      95A9
 498 11f4 C7A86243 		.ascii	"\307\250bCQ)E~\271\203\204\031+\034$\376Y\3510\021l"
 498      5129457E 
 498      B9838419 
 498      2B1C24FE 
 498      59E93011 
 499 1209 2C71A469 		.ascii	",q\244i\300L\030\360\"\2657\336\320\305\252\315\261"
 499      C04C18F0 
 499      22B537DE 
 499      D0C5AACD 
 499      B1
 500 121a B2444338 		.ascii	"\262DC8\011\331\236\210t\022\322\267\220NF:\003\351"
 500      09D99E88 
 500      7412D2B7 
 500      904E463A 
 500      03E9
 501 122c 7CA40BCD 		.ascii	"|\244\013\315\210v\317\256jhW\261\241\335Nzl\324|\254"
 501      8876CFAE 
 501      6A6857B1 
 501      A1DD4E7A 
 501      6CD47CAC 
 502 1240 B517BE32 		.ascii	"\265\027\2762\320\374\033W\300\202\351\233b\326:\310"
 502      D0FC1B57 
 502      C082E99B 
 502      62D63AC8 
 503 1250 1B57EA19 		.ascii	"\033W\352\031\0136\371\306\225\365\016\346\215+\365"
ARM GAS  /tmp/ccc8slsr.s 			page 40


 503      0B36F9C6 
 503      95F50EE6 
 503      8D2BF5
 504 125f 6333696E 		.ascii	"c3in\034\033\226_\213\262\247K\354\373V\276\354\242"
 504      1C1B965F 
 504      8BB2A74B 
 504      ECFB56BE 
 504      ECA2
 505 1271 FBBE95D3 		.ascii	"\373\276\225\323]t\337\267r\251\213\356\373V\256w\321"
 505      5D74DFB7 
 505      72A98BEE 
 505      FB56AE77 
 505      D1
 506 1282 BE6F4579 		.ascii	"\276oEy;K\327H\266C\225=5\232\355Te/\210f\273T\331+"
 506      3B4BD748 
 506      B643953D 
 506      359AED54 
 506      652F8866 
 507 129a A2D96E55 		.ascii	"\242\331nU\215\304}\206#\252$\221\337\200M`\243C\377"
 507      8DC47D86 
 507      23AA2491 
 507      DF804D60 
 507      A343FF
 508 12ad 5D2E6053 		.ascii	"].`S\002c\011\226^\202(\241%\214#\353O\312\233\231\310"
 508      02630996 
 508      5E8228A1 
 508      258C23EB 
 508      4FCA9B99 
 509 12c2 78766974 		.ascii	"xvita\"v\305k\217\303\352\233\231\366\312\323\035\021"
 509      612276C5 
 509      6B8FC3EA 
 509      9B99F6CA 
 509      D31D11
 510 12d5 6EE444F4 		.ascii	"n\344D\364\225c\233\272\362Z)\022\357FR\0334>\352Nz"
 510      95639BBA 
 510      F25A2912 
 510      EF46521B 
 510      343EEA4E 
 511 12ea 0EC29BC0 		.ascii	"\016\302\233\300}l\012-Q\327\241\370\267m,\232^[\213"
 511      7D6C0A2D 
 511      51D7A1F8 
 511      B76D2C9A 
 511      5E5B8B
 512 12fd 33FDDD3A 		.ascii	"3\375\335:\311x\2212\336\232\253\310\377\023\247[\243"
 512      C9789132 
 512      DE9AABC8 
 512      FF13A75B 
 512      A3
 513 130e 13B03840 		.ascii	"\023\2608@\260:\371\372wu\007\275\207\265\226\204\262"
 513      B03AF9FA 
 513      777507BD 
 513      87B59684 
 513      B2
 514 131f 646A6469 		.ascii	"djdi\337\257,$\321\251\321\317Y\335\350Y\237\371\027"
 514      DFAF2C24 
 514      D1A9D1CF 
 514      59DDE859 
ARM GAS  /tmp/ccc8slsr.s 			page 41


 514      9FF917
 515 1332 C5DD560D 		.ascii	"\305\335V\0151\357\340\020\363.\012\272\006\335\344"
 515      31EFE010 
 515      F32E0ABA 
 515      06DDE4
 516 1341 E748F723 		.ascii	"\347H\367#=\200\364\020\322\303f\334\347\015\265\373"
 516      3D80F410 
 516      D2C366DC 
 516      E70DB5FB 
 517 1351 54750B02 		.ascii	"Tu\013\002w\274\253\316\330s<\031\301\255\340gWK/\323"
 517      77BCABCE 
 517      D8733C19 
 517      C1ADE067 
 517      574B2FD3 
 518 1365 B23046C5 		.ascii	"\2620F\305\353\232\015\207\220\362\035p\0109^\372i\342"
 518      EB9A0D87 
 518      90F21D70 
 518      08395EFA 
 518      69E2
 519 1377 C44EBC32 		.ascii	"\304N\2742)\254)\306\370D\374\371\210#f\020\271\244"
 519      29AC29C6 
 519      F844FCF9 
 519      88236610 
 519      B9A4
 520 1389 317CDBD7 		.ascii	"1|\333\327 ]ko\357H\207\205\002\327\254\313\251T\357"
 520      205D6B6F 
 520      EF488785 
 520      02D7ACCB 
 520      A954EF
 521 139c 93798448 		.ascii	"\223y\204H\316A\352\367\204#)\036U\305\364x<\251\313"
 521      CE41EAF7 
 521      8423291E 
 521      55C5F478 
 521      3CA9CB
 522 13af E3F149E4 		.ascii	"\343\361I\344%\237`\031\355\177\342b\247K%s\017\342"
 522      259F6019 
 522      ED7FE262 
 522      A74B2573 
 522      0FE2
 523 13c1 352C971F 		.ascii	"5,\227\037\304\373\332\201oQ|\\+\247y\250\372\246\323"
 523      C4FBDA81 
 523      6F517C5C 
 523      2BA779A8 
 523      FAA6D3
 524 13d4 2D32D439 		.ascii	"-2\3249\204\232\311@\211<\307L\275r\332\331N\370*\265"
 524      849AC940 
 524      893CC74C 
 524      BD72DAD9 
 524      4EF82AB5 
 525 13e8 CB1FFAA8 		.ascii	"\313\037\372\250\015\344\374\215K\252\214\221-\236q"
 525      0DE4FC8D 
 525      4BAA8C91 
 525      2D9E71
 526 13f7 581AE4EB 		.ascii	"X\032\344\353\356^\270s\375\340eY\322\213\030R\256y"
 526      EE5EB873 
 526      FDE06559 
 526      D28B1852 
ARM GAS  /tmp/ccc8slsr.s 			page 42


 526      AE79
 527 1409 5C37A48C 		.ascii	"\\7\244\214\267[|3\026\271\314\206\225\323\305L\232"
 527      B75B7C33 
 527      16B9CC86 
 527      95D3C54C 
 527      9A
 528 141a 6B62D2FC 		.ascii	"kb\322\374}9\254T\233\337\345\244\303\3129\030V\222"
 528      7D39AC54 
 528      9BDFE5A4 
 528      C3CA3918 
 528      5692
 529 142c C5360830 		.ascii	"\3056\0100\"\314Y\014+\2255\357fy\247\301:\204\333e"
 529      22CC590C 
 529      2B9535EF 
 529      6679A7C1 
 529      3A84DB65 
 530 1440 062ECE92 		.ascii	"\006.\316\222\367\302\253[\311{\242\025\307\267\217"
 530      F7C2AB5B 
 530      C97BA215 
 530      C7B78F
 531 144f 854BB84E 		.ascii	"\205K\270N\255\345n\321\377\232\327S\301\372\3222\326"
 531      ADE56ED1 
 531      FF9AD753 
 531      C1FAD232 
 531      D6
 532 1460 B37A55A2 		.ascii	"\263zU\242\030\347eU\000}\005\243\207\357\321M^E\332"
 532      18E76555 
 532      007D05A3 
 532      87EFD14D 
 532      5E45DA
 533 1473 84F427A4 		.ascii	"\204\364'\244?\233q\234\027\034\261\363w74\003\306D"
 533      3F9B719C 
 533      171CB1F3 
 533      77373403 
 533      C644
 534 1485 F61B7629 		.ascii	"\366\033v)\230c\242\366{\376\326\261\356\364\011\255"
 534      9863A2F6 
 534      7BFED6B1 
 534      EEF409AD 
 535 1495 1B68BE53 		.ascii	"\033h\276S\236Hh\276Z\034\221\277\205\326\326\312\232"
 535      9E4868BE 
 535      5A1C91BF 
 535      85D6D6CA 
 535      9A
 536 14a6 EF1D3A07 		.ascii	"\357\035:\007\324j\312\200\333\366/Kv\246j\301\023\246"
 536      D46ACA80 
 536      DBF62F4B 
 536      76A66AC1 
 536      13A6
 537 14b8 66AAEE23 		.ascii	"f\252\356#\227m,\227\307)\227m\246\270<\271_nf\207\260"
 537      976D2C97 
 537      C729976D 
 537      A6B83CB9 
 537      5F6E6687 
 538 14cd 99D16176 		.ascii	"\231\321av[\262\315L\011oN!\3309\313`\231z`\347\021"
 538      5BB2CD4C 
 538      096F4E21 
ARM GAS  /tmp/ccc8slsr.s 			page 43


 538      D839CB60 
 538      997A60E7 
 539 14e2 EC9219B0 		.ascii	"\354\222\031\260\304sFtj\375{\313`:\234%\273,0\321\231"
 539      C4734674 
 539      6AFD7BCB 
 539      603A9C25 
 539      BB2C30D1 
 540 14f7 78A543FE 		.ascii	"x\245C\376n\376]K\307\357^[!;\355\267\234\344\227\325"
 540      6EFE5D4B 
 540      C7EF5E5B 
 540      213BEDB7 
 540      9CE497D5 
 541 150b 4FB0DDD3 		.ascii	"O\260\335\3236vQ\333\304\313\226L\215s'8U\343\334-x"
 541      367651DB 
 541      C4CB964C 
 541      8D732738 
 541      55E3DC2D 
 542 1520 DF04AA35 		.ascii	"\337\004\2525\236\233\"\255\367\231\204kk\361\324\373"
 542      9E9B22AD 
 542      F799846B 
 542      6BF1D4FB 
 543 1530 6E3CF5BE 		.ascii	"n<\365\276\3454?\3774U-V\275e\261,ZL\274\345\302\331"
 543      E5343FFF 
 543      34552D56 
 543      BD65B12C 
 543      5A4CBCE5 
 544 1546 F14462A7 		.ascii	"\361Db\247\330\344\345\277\244D\236\245\026y\227\031"
 544      D8E4E5BF 
 544      A4449EA5 
 544      16799719 
 545 1556 911F6696 		.ascii	"\221\037f\226,\236\310\357\305\023\231\235H}\030\221"
 545      2C9EC8EF 
 545      C513999D 
 545      487D1891 
 546 1566 17A945DE 		.ascii	"\027\251E\336kY\344LN\373\211\016\247\332\261#\224\234"
 546      6B59E44C 
 546      4EFB890E 
 546      A7DAB123 
 546      949C
 547 1578 B83917E9 		.ascii	"\2709\027\351x\244\325H\247 \235\211t\241\323Dgy\327"
 547      78A4D548 
 547      A7209D89 
 547      74A1D344 
 547      6779D7
 548 158b 113349D3 		.ascii	"\0213I\323\232\244\233\226\302\017\310\013>\314\356"
 548      9AA49B96 
 548      C20FC80B 
 548      3ECCEE
 549 159a F3F8F8C1 		.ascii	"\363\370\370\301\335n8=\263\314I\272\323\361\031\026"
 549      DD6E383D 
 549      B3CC49BA 
 549      D3F11916 
 550 15aa B77908DC 		.ascii	"\267y\010\334t,\362\241\223\351\250>\251\301w\224\222"
 550      742CF2A1 
 550      93E9A83E 
 550      A9C17794 
 550      92
ARM GAS  /tmp/ccc8slsr.s 			page 44


 551 15bb FCC41D55 		.ascii	"\374\304\035U\275\311w\021/\211D\242]\270\350\343ym"
 551      BDC97711 
 551      2F8944A2 
 551      5DB8E8E3 
 551      796D
 552 15cd 3C049E6B 		.ascii	"<\004\236k\221\377Z}\376\2151\004n=\026Y\317\362\177"
 552      91FF5A7D 
 552      FE8D3104 
 552      6E3D1659 
 552      CFF27F
 553 15e0 9344B3EB 		.ascii	"\223D\263\353Mq\337\252<\247\270\306\211!c\0040\271"
 553      4D71DFAA 
 553      3CA7B8C6 
 553      89216304 
 553      30B9
 554 15f2 68F63E46 		.ascii	"h\366>F\263\364\231\307}\226\26125X\323\367)O\253\322"
 554      B3F499C7 
 554      7D96B132 
 554      3558D3F7 
 554      294FABD2 
 555 1606 074C8F99 		.ascii	"\007L\217\231\301\213\023\316\316\";\306\254<O\177@"
 555      C18B13CE 
 555      CE223BC6 
 555      AC3C4F7F 
 555      40
 556 1617 7E9EBE1E 		.ascii	"~\236\276\036\373\255o2\330~+\251\347\351\257Z\226B"
 556      FBAD6F32 
 556      D87E2BA9 
 556      E7E9AF5A 
 556      9642
 557 1629 A395C64F 		.ascii	"\243\225\306O\036\\\314P\036U\244\214]7\203\250\327"
 557      1E5CCC50 
 557      1E55A48C 
 557      5D3783A8 
 557      D7
 558 163a B1E97DD4 		.ascii	"\261\351}\324\326$\362\033\235$\226\336\204\316`\013"
 558      D624F21B 
 558      9D2496DE 
 558      84CE600B 
 559 164a D28F916E 		.ascii	"\322\217\221nE\272\323\214{X\243vc\367#\355\315\242"
 559      45BAD38C 
 559      7B58A376 
 559      63F723ED 
 559      CDA2
 560 165c 79E9B3FA 		.ascii	"y\351\263\372\241\212\325U\310\352j5K\0027\241\033o"
 560      A18AD555 
 560      C8EA6A35 
 560      4B0237A1 
 560      1B6F
 561 166e D11D6995 		.ascii	"\321\035i\225}\376\326\335\036-\343\245y=M\317\031\207"
 561      7DFED6DD 
 561      1E2DE3A5 
 561      793D4DCF 
 561      1987
 562 1680 EF3A0591 		.ascii	"\357:\005\221\377\314I\346\213\337\356\226\324|\361"
 562      FFCC49E6 
 562      8BDFEE96 
ARM GAS  /tmp/ccc8slsr.s 			page 45


 562      D47CF1
 563 168f 5E27335F 		.ascii	"^'3_\334B\337\320M\362\023\317\030\317\352\026;c\\\333"
 563      DC42DFD0 
 563      4DF213CF 
 563      18CFEA16 
 563      3B635CDB 
 564 16a3 4D77C678 		.ascii	"Mw\306xE7\355\214\261\254\205\270\363\264Q\346D~\037"
 564      4537ED8C 
 564      B1AC85B8 
 564      F3B451E6 
 564      447E1F
 565 16b6 AA7CBF33 		.ascii	"\252|\2773\376<m\253\205A\036\247\322\276\024n\337O"
 565      FE3C6DAB 
 565      85411EA7 
 565      D2BE146E 
 565      DF4F
 566 16c8 9EC84EF8 		.ascii	"\236\310N\370.;\345\231\3235M\3623\247\207\321\235~"
 566      2E3BE599 
 566      D3354DF2 
 566      33A787D1 
 566      9D7E
 567 16da D72DB13B 		.ascii	"\327-\261;\325\301\001\267\323\235h\373(\202\334\260"
 567      D5C101B7 
 567      D39D68FB 
 567      2882DCB0 
 568 16ea 0A2270ED 		.ascii	"\012\"p\355X\344\004\353\223w\322\215y'Lxe\3622|\372"
 568      58E404EB 
 568      9377D28D 
 568      79274C78 
 568      65F2327C 
 569 16ff D205E569 		.ascii	"\322\005\345i\3647\237T0\345\233\276\244V_b\267|\204"
 569      F4379F54 
 569      30E59BBE 
 569      A4565F62 
 569      B77C84
 570 1712 6E96A55B 		.ascii	"n\226\245[\363f\260`\026\375\350\361\310\213\025\316"
 570      F366B060 
 570      16FDE8F1 
 570      C88B15CE 
 571 1722 E224E122 		.ascii	"\342$\341\"\313x\232F\026>A\231\243`\313\315\200\305"
 571      CB789A46 
 571      163E4199 
 571      A360CBCD 
 571      80C5
 572 1734 7982EFB4 		.ascii	"y\202\357\264\032l\215e0-g_\253\3016\233\001\213\363"
 572      1A6C8D65 
 572      302D675F 
 572      ABC1369B 
 572      018BF3
 573 1747 5CDC39B9 		.ascii	"\\\3349\271;K\362\245\353\227\235\306\023h\324Z\215"
 573      3B4BF2A5 
 573      EB979DC6 
 573      1368D45A 
 573      8D
 574 1758 4A5E71EA 		.ascii	"J^q\352O\003\033\367}\341\2714\000\372\026c\202\355"
 574      4F031BF7 
 574      7DE1B934 
ARM GAS  /tmp/ccc8slsr.s 			page 46


 574      00FA1663 
 574      82ED
 575 176a 4F6ADB00 		.ascii	"Oj\333\000sk\302\230\321\255\177p\032\277T\230\371\015"
 575      736BC298 
 575      D1AD7F70 
 575      1ABF5498 
 575      F90D
 576 177c 625CCB0A 		.ascii	"b\\\313\012\326\326\326\371\032\315#\367\207\315\300"
 576      D6D6D6F9 
 576      1ACD23F7 
 576      87CDC0
 577 178b 65EAD497 		.ascii	"e\352\324\227\336G\335\240E\376+t|\247\260\023<\203"
 577      DE47DDA0 
 577      45FE2B74 
 577      7CA7B013 
 577      3C83
 578 179d F42CD273 		.ascii	"\364,\322sH\317#\275\200\364\022\322\037\325\275\322"
 578      48CF23BD 
 578      80F412D2 
 578      1FD5BDD2 
 579 17ad BF0655E0 		.ascii	"\277\006U\340N>\311\364uZ\307\224\250\035J\330\331\341"
 579      4E3EC9F4 
 579      755AC794 
 579      A81D4AD8 
 579      D9E1
 580 17bf F3F2E63D 		.ascii	"\363\362\346=\356\361g\250\307\275\206\316\362\033\306"
 580      EEF167A8 
 580      C7BD86CE 
 580      F21BC6
 581 17ce 50A8     		.ascii	"P\250"
 582 17d0 59FEABE4 		.ascii	"Y\376\253\344m2%\257\341\333K\"\362\316\353\251\376"
 582      6D3225AF 
 582      E1DB4B22 
 582      F2CEEBA9 
 582      FE
 583 17e1 8316D5B6 		.ascii	"\203\026\325\266\326\330e\300\233N\253\313\200\267\234"
 583      D6D865C0 
 583      9B4EABCB 
 583      80B79C
 584 17f0 FACB801D 		.ascii	"\372\313\200\035#b\\g\305\320]\270\033jXmd\026\306\346"
 584      23625C67 
 584      C5D05DB8 
 584      1B6A586D 
 584      6416C6E6 
 585 1804 A4BC09DC 		.ascii	"\244\274\011\334MSh\257\033\241\351\215\215u^K\240\373"
 585      4D5368AF 
 585      1BA1E98D 
 585      8D755E4B 
 585      A0FB
 586 1816 3707FFB8 		.ascii	"7\007\377\270td\207<\321s\037\315\3416c\016\011\201"
 586      7464873C 
 586      D1731FCD 
 586      E136630E 
 586      0981
 587 1828 7070CAF6 		.ascii	"pp\312\366\233'\327\311\3577hO\334s\222\007\256\327"
 587      9B27D7C9 
 587      EF37684F 
ARM GAS  /tmp/ccc8slsr.s 			page 47


 587      DC739207 
 587      AED7
 588 183a 691EC505 		.ascii	"i\036\305\005\253\301\227>\264G\335\200\305W\023\234"
 588      ABC1973E 
 588      B447DD80 
 588      C557139C 
 589 184a 5DA77914 		.ascii	"]\247y\024W\344\277\263\014\250}\234\371\034\313\341"
 589      57E4BFB3 
 589      0CA87D9C 
 589      F91CCBE1 
 590 185a 35CB809A 		.ascii	"5\313\200\232*\013\237g9\374\3012\240\366q\346f\226"
 590      2A0B9F67 
 590      39FCC132 
 590      A0F671E6 
 590      6696
 591 186c C34D8209 		.ascii	"\303M\202\011\3008\021C\013\313\341?\315p\030\347\325"
 591      C0381143 
 591      0BCBE13F 
 591      CD7018E7 
 591      D5
 592 187d 0437590E 		.ascii	"\0047Y\016\277\265\014\250\325a+\313\341u\313\200Z\035"
 592      BFB50CA8 
 592      D5612BCB 
 592      E175CB80 
 592      5A1D
 593 188f DE6139FC 		.ascii	"\336a9\374\336\014`\234\300\346\036\313\341-\313\200"
 593      DE0C609C 
 593      C0E61ECB 
 593      E12DCB80 
 594 189f 5A1DB6AD 		.ascii	"Z\035\266\255c\036Z\257y\212\267\010\250\325a;\313\341"
 594      631E5AAF 
 594      798AB708 
 594      A8D5613B 
 594      CBE1
 595 18b1 5DCB1C6A 		.ascii	"]\313\034ju8}=\303\341\333f8\214\023\202\315\\\317p"
 595      75387D3D 
 595      C3E1DB66 
 595      388C1382 
 595      CD5CCF70 
 596 18c5 F8C00C87 		.ascii	"\370\300\014\207z\257&\320\373\250\235\227\310K.\322"
 596      7AAF26D0 
 596      FBA89D97 
 596      C84B2ED2 
 597 18d5 BB8D73E1 		.ascii	"\273\215s\341\374\032\322j\244\023\220NDZ\203t\022\322"
 597      FC1AD26A 
 597      A413904E 
 597      445A8374 
 597      12D2
 598 18e7 3791BE85 		.ascii	"7\221\276\205\364m\244\223\221NA:\025\3514\227\231M"
 598      F46DA493 
 598      914E413A 
 598      15E93497 
 598      994D
 599 18f9 53EA01F7 		.ascii	"S\352\001\367\273O\231\030\000W\352\324\251\276\200"
 599      BB4F9918 
 599      0057EAD4 
 599      A9BE80
ARM GAS  /tmp/ccc8slsr.s 			page 48


 600 1908 ADAA75B6 		.ascii	"\255\252u\266\333\270\316v\007'\023\227b\007\375)\322"
 600      DBB8CE76 
 600      07271397 
 600      6207FD29 
 600      D2
 601 1919 2F90FE8C 		.ascii	"/\220\376\214\364\006\322\333H\357\232\231-h1\336\314"
 601      F406D2DB 
 601      48EF9A99 
 601      2D6831DE 
 601      CC
 602 192a 2670B39F 		.ascii	"&p\263\237\322\331\0130\243\361\336'\007\2379@w\314"
 602      D2D90B30 
 602      A3F1DE27 
 602      079F3940 
 602      77CC
 603 193c 5FC05D94 		.ascii	"_\300]\224\313\361\272\323\206;\002pyO\3361\177\324"
 603      CBF1BAD3 
 603      863B0270 
 603      794FDE31 
 603      7FD4
 604 194e 17D9ECB0 		.ascii	"\027\331\354\2602A\261\033\261\033\355[\360~k\023\024"
 604      3241B11B 
 604      B11BED5B 
 604      F07E6B13 
 604      14
 605 195f 94859237 		.ascii	"\224\205\2227\332o\374fh\006]\365\347\264\245\3646 "
 605      DA6FFC66 
 605      68065DF5 
 605      E7B4A5F4 
 605      3620
 606 1971 CC70E96D 		.ascii	"\314p\351m@8sh\252\262\001\301\315\214 \010\223F\312"
 606      40387368 
 606      AAB201C1 
 606      CD8C2008 
 606      9346CA
 607 1984 5DE862A6 		.ascii	"]\350b\246\256\211\"\030\035\257\327\325\261\264\230"
 607      AE892218 
 607      1DAFD7D5 
 607      B1B498
 608 1993 A8895E3E 		.ascii	"\250\211^>\313E\332\314\002W\\\355F\366[l\307\307\012"
 608      CB45DACC 
 608      02575CED 
 608      46F65B6C 
 608      C7C70A
 609 19a6 E8E2A971 		.ascii	"\350\342\251q)\231\301\367t\245\235>u\226,\355n)\223"
 609      2999C1F7 
 609      74A59D3E 
 609      75962CED 
 609      6E2993
 610 19b9 9597AC74 		.ascii	"\225\227\254t\033\311\373\276\011y\303\372\362\316g"
 610      1BC9FBBE 
 610      0979C3FA 
 610      F2CE67
 611 19c8 E55D6252 		.ascii	"\345]bR\336\243(/\375\203E\343R2\203Ku\345\255?<\325"
 611      DEA3282F 
 611      FD8345E3 
 611      5232834B 
ARM GAS  /tmp/ccc8slsr.s 			page 49


 611      75E5AD3F 
 612 19de 58DE781B 		.ascii	"X\336x\033x?4!\357!}y\027\262\362\2560[\277h\315\312"
 612      783F3421 
 612      EF217D79 
 612      17B2F2AE 
 612      305BBF68 
 613 19f4 761A5529 		.ascii	"v\032U)=k^\245\225\367/\274m\256\235>=2\255q\366\352"
 613      3D6B5EA5 
 613      95F72FBC 
 613      6DAE9D3E 
 613      3D32AD71 
 614 1a0a CFAAE64B 		.ascii	"\317\252\346K\237\341\323#\234\371\347E\327\2612\223"
 614      9FE1D323 
 614      9CF9E745 
 614      D7B13293 
 615 1a1a C761D887 		.ascii	"\307a\330\207n\344\357f\327\025n\356:\336\235\376\253"
 615      6EE4EF66 
 615      D7156EEE 
 615      3ADE9DFE 
 615      AB
 616 1a2b CE2617AE 		.ascii	"\316&\027\256\323w\267\270\260 \217\2427\376D&\367\353"
 616      D377B7B8 
 616      B0208FA2 
 616      37FE4426 
 616      F7EB
 617 1a3d 10633683 		.ascii	"\020c6\203!\362\003\230\241\321\000\346\005\206\363"
 617      21F20398 
 617      A1D100E6 
 617      0586F3
 618 1a4c 2FD9A469 		.ascii	"/\331\244in\314\027\270\015\335\265\023q\252r\003\215"
 618      6ECC17B8 
 618      0DDDB513 
 618      71AA7203 
 618      8D
 619 1a5d C69603A2 		.ascii	"\306\226\003\242\276z+vF\314\225\214elc8T.\332\026S"
 619      BE7A2B76 
 619      46CC958C 
 619      656C6338 
 619      542EDA16 
 620 1a72 69F32295 		.ascii	"i\363\"\225\326|\354\346x~z\365\022\272g\213S6m\355"
 620      D67CECE6 
 620      787E7AF5 
 620      12BA678B 
 620      53366DED 
 621 1a86 3180DA19 		.ascii	"1\200\332\031k\357\000\262sGm7\375\2327?\353\272\371"
 621      6BEF00B2 
 621      73476D37 
 621      FD9A373F 
 621      EBBAF9
 622 1a99 305175D8 		.ascii	"0Qu\330E\246]\2171w79\355\372\271\213\231v=3\031\247"
 622      45A65D8F 
 622      31773739 
 622      EDFAB98B 
 622      99763D33 
 623 1aaf 5D497EE2 		.ascii	"]I~\342i\327\257\273\307N\2736v\327\235v\375\261\273"
 623      69D7AFBB 
 623      C74EBB36 
ARM GAS  /tmp/ccc8slsr.s 			page 50


 623      76D79D76 
 623      FDB1BB
 624 1ac2 EE46DDD6 		.ascii	"\356F\335\326\356\272\033u'<\255\273Q\367\335\247u7"
 624      EEBA1B75 
 624      273CADBB 
 624      51F7DDA7 
 624      7537
 625 1ad4 EA2E785A 		.ascii	"\352.xZw\243\356\352\247u7\352nyZ\273QW\316\336\031"
 625      77A3EEEA 
 625      A77537EA 
 625      6E795ABB 
 625      5157CEDE 
 626 1ae9 CD4E5165 		.ascii	"\315NQe\177\031\315NUe_\214f\247\251\262[\242\331\351"
 626      7F19CD4E 
 626      55655F8C 
 626      66A7A9B2 
 626      5BA2D9E9 
 627 1afd AAECF1CF 		.ascii	"\252\354\361\317D\262\037Qe\317\214fwPe/\215fwTe\257"
 627      44B21F51 
 627      65CF8C66 
 627      7750652F 
 627      8D667754 
 628 1b13 8B667752 		.ascii	"\213fwReo\215f?\252\312>\024\315\356\254\346;\232\375"
 628      656F8D66 
 628      3FAACA3E 
 628      14CDEEAC 
 628      E63B9AFD 
 629 1b27 985C97E4 		.ascii	"\230\\\227\344k\334\331\357\250\215\210\374\036lS{]"
 629      6BDCD9EF 
 629      A88D88FC 
 629      1E6C537B 
 629      5D
 630 1b38 FAB3DF46 		.ascii	"\372\263\337F\376j7\353\257HW\221\344\303\313\262\355"
 630      FE6A37EB 
 630      AF485791 
 630      E4C3CBB2 
 630      ED
 631 1b49 CF720A26 		.ascii	"\317r\012&^\347.\362\315.s\377\202\000\246\370L\314"
 631      5EE72EF2 
 631      CD2E73FF 
 631      8200A6F8 
 631      4CCC
 632 1b5b 5217FB2E 		.ascii	"R\027\373.\377\344\377L\341g\227\356\303\301u|\354\322"
 632      FFE4FF4C 
 632      E16797EE 
 632      C3C1757C 
 632      ECD2
 633 1b6d B8C0B53D 		.ascii	"\270\300\265=\243\357In\352z\222\346\031\272\356hb\017"
 633      A3EF496E 
 633      EA7A92E6 
 633      19BAEE68 
 633      620F
 634 1b7f 7D90565D 		.ascii	"}\220V]\220]MW\377d\324\021\305\231\237\275\303V\354"
 634      905D4D57 
 634      FF64D411 
 634      C5999FBD 
 634      C356EC
ARM GAS  /tmp/ccc8slsr.s 			page 51


 635 1b92 5BF84273 		.ascii	"[\370Bs\2154\323\014\030\271\247\313\310\265\0317\204"
 635      8D34D30C 
 635      18B9A7CB 
 635      C8B51937 
 635      84
 636 1ba3 24186963 		.ascii	"$\030ic\031\271\241\356\021\345\255\321\014c\013\015"
 636      19B9A1EE 
 636      11E5ADD1 
 636      0C630B0D 
 637 1bb3 1893DC3A 		.ascii	"\030\223\334:\214\205w\035zG\342\247\215klo\357a\236"
 637      8C85771D 
 637      7A47E2A7 
 637      8D6B6C6F 
 637      EF619E
 638 1bc6 ADF16E1D 		.ascii	"\255\361n\035\266\0306\226\031\2601A\217\215\306-\327"
 638      B6183696 
 638      19B03141 
 638      8F8DC62D 
 638      D7
 639 1bd7 4FFF3509 		.ascii	"O\3775\011\375\324\260\214\220\277\316\323nkJ\274:\034"
 639      FDD4B08C 
 639      90BFCED3 
 639      6E6B4ABC 
 639      3A1C
 640 1be9 DE3EA92B 		.ascii	"\336>\251+\351\034\336r\023'\276\251GL{\261\2764\254"
 640      E91CDE72 
 640      1327BEA9 
 640      474C7BB1 
 640      BE34AC
 641 1bfc 66A94EE7 		.ascii	"f\251N\347Iy\201\333m\240\236)Z\365\374'\356})|\004"
 641      497981DB 
 641      6DA09E29 
 641      5AF5FC27 
 641      EE7D297C 
 642 1c11 8645D72F 		.ascii	"\206E\327/\362\020\2504\220\225\264v\276\207\310\257"
 642      F210A834 
 642      9095B476 
 642      BE87C8AF 
 643 1c21 C7FF3B3E 		.ascii	"\307\377;>\031A\221\305\223~\251\310\267!\262U)\212"
 643      194191C5 
 643      937EA9C8 
 643      B721B255 
 643      298A
 644 1c33 48D1C275 		.ascii	"H\321\302u\253R L\224\267f\323\277}>\315\002\275\256"
 644      AB52204C 
 644      94B766D3 
 644      BF7D3ECD 
 644      02BDAE
 645 1c46 E0286F3A 		.ascii	"\340(o:\233.\303\364\3416Ko\206{\322\202t?\377\377\341"
 645      9B2EC3F4 
 645      E1364B6F 
 645      867BD282 
 645      743FFFFF 
 646 1c5b EE4A6F4A 		.ascii	"\356JoJ\341\372\256t\357+\271\013Ti\313\234\233\037"
 646      E1FAAE74 
 646      EF2BB90B 
 646      5469CB9C 
ARM GAS  /tmp/ccc8slsr.s 			page 52


 646      9B1F
 647 1c6d F233A425 		.ascii	"\3623\244%Q\236\351\1774\237\217\341Y\363\217\314\270"
 647      519EE97F 
 647      349F8FE1 
 647      59F38FCC 
 647      B8
 648 1c7e 1549A304 		.ascii	"\025I\243\004\372\270\000\275\011h\342\207W\231E\213"
 648      FAB800BD 
 648      0968E287 
 648      5799458B 
 649 1c8e A971FE2C 		.ascii	"\251q\376,m\256;\215\021\276e\245J\370\251\370\367o"
 649      6DAE3B8D 
 649      11BE65A5 
 649      4AF8A9F8 
 649      F76F
 650 1ca0 97130A3F 		.ascii	"\227\023\012?_#\374K\264 \375\027<r\345\\\201\016\021"
 650      5F23FC4B 
 650      B420FD17 
 650      3C72E55C 
 650      810E11
 651 1cb3 E6CBDFC9 		.ascii	"\346\313\337\311\177,J\363&Hv\216\376;\036\311\263\221"
 651      7F2C4AF3 
 651      2648768E 
 651      FE3B1EC9 
 651      B391
 652 1cc5 5E9CFE4D 		.ascii	"^\234\376M\236\374\265\247\"\336\346\210x\341\235])"
 652      9EFCB5A7 
 652      22DEE688 
 652      78E19D5D 
 652      29
 653 1cd6 CF32B3B3 		.ascii	"\3172\263\263W\3050\333\224\220\331\367\376\025\314"
 653      57C530DB 
 653      9490D9F7 
 653      FE15CC
 654 1ce5 6A2C523A 		.ascii	"j,R:\026>\263\225\3545QX\243c\347f\226\265\230\352X"
 654      163EB395 
 654      EC355158 
 654      A363E766 
 654      96B598EA 
 655 1cfa A2B545C0 		.ascii	"\242\265E\3009\271L\215C\307\374\367\023\342|\020\305"
 655      39B94C8D 
 655      43C7FCF7 
 655      13E27C10 
 655      C5
 656 1d0b 4972096E 		.ascii	"Ir\011n\231\326s\244s\223\325&5\300\330\242V\270\323"
 656      99D673A4 
 656      7393D526 
 656      35C0D8A2 
 656      56B8D3
 657 1d1e 39E66374 		.ascii	"9\346ct\351\322\250\3611&K\306\"\206#?\303Rd|dTj\245"
 657      E9D2A8F1 
 657      31264BC6 
 657      2286233F 
 657      C352647C 
 658 1d36 4129F31A 		.ascii	"A)\363\032Y\315\372R\"\251\251\335m\253\0149&vaTj\255"
 658      59CDFA52 
 658      22A9A9DD 
ARM GAS  /tmp/ccc8slsr.s 			page 53


 658      6DAB0C39 
 658      26766154 
 659 1d4c 61A90B71 		.ascii	"a\251\013qJ}dX\212\364\005\206#K\303R\343\343\224Zo"
 659      4A7D6458 
 659      8AF40586 
 659      234BC352 
 659      E3E3945A 
 660 1d61 58AA2D4E 		.ascii	"X\252-NMl0,E\336\207dTj\243a\251;q\356\265\311\260\324"
 660      4D6C302C 
 660      45DE8764 
 660      546AA361 
 660      A93B71EE 
 661 1d79 F538F7DA 		.ascii	"\3658\367\332lXjw\234{m\211\226\342\354\336\021b\300"
 661      6C586A77 
 661      9C7B6D89 
 661      96E2ECDE 
 661      1162C0
 662 1d8c 3970C8AB 		.ascii	"9p\310\253\231\331\334\013Y#*\312|Y\336\212\342\261"
 662      99D9DC0B 
 662      59232ACA 
 662      7C59DE8A 
 662      E2B1
 663 1d9e 59C5BE51 		.ascii	"Y\305\276QY\336\021\376a\376\212`V(PU\376F\026$|cBY"
 663      59DE11FE 
 663      61FE8A60 
 663      56285055 
 663      FE461624 
 664 1db6 2562A824 		.ascii	"%b\250$\230\025\014x\263JJ\236\037\3019\006\364+\032"
 664      98150C78 
 664      B34A4A9E 
 664      1FC13906 
 664      F42B1A
 665 1dc9 50D8D75A 		.ascii	"P\330\327ZI\177y\3107\334\027\200\342\366\376\257\025"
 665      497F79C8 
 665      37DC1780 
 665      E2F6FEAF 
 665      15
 666 1dda E5BA4A82 		.ascii	"\345\272J\202\236\320\330J\237\25580\312\341\015\372"
 666      9ED0D84A 
 666      9FAD3830 
 666      CAE10DFA 
 667 1dea FFB7CF59 		.ascii	"\377\267\317Y\356\201\253\203\216\321%\245\342pwI\320"
 667      EE81AB83 
 667      8ED125A5 
 667      E2707749 
 667      D0
 668 1dfb EF2109FB 		.ascii	"\357!\011\373_\362\013r\004\177qJ\271'PQ\021*\366\007"
 668      5FF20B72 
 668      047F714A 
 668      B9275051 
 668      112AF607 
 669 1e0f 1C39242B 		.ascii	"\0349$+\265T\014\206<\336\322\252`(\265$\340\363\321"
 669      B5540C86 
 669      3CDED2AA 
 669      6028B524 
 669      E0F3D1
 670 1e22 A41B317C 		.ascii	"\244\0331|\345!G\011\201t\215\252(\035&\006}.\310\304"
ARM GAS  /tmp/ccc8slsr.s 			page 54


 670      E5214709 
 670      81748DAA 
 670      281D2606 
 670      7D2EC8C4 
 671 1e36 33142767 		.ascii	"3\024'gw\261\030\0221c\264\277<\350\363\206lp\376]\""
 671      77B11812 
 671      3163B4BF 
 671      3CE8F386 
 671      6C70FE5D 
 672 1e4b 794688A5 		.ascii	"yF\210\245 \005\334\247\330\227UV\346\365\004+\375 "
 672      2005DCA7 
 672      D8975556 
 672      E6F5042B 
 672      FD20
 673 1e5d 4DCAE0C1 		.ascii	"M\312\340\301\331\331\025\345%\376\3419f\000*+\002\241"
 673      D9D915E5 
 673      25FEE139 
 673      66002A2B 
 673      02A1
 674 1e6f 605661D1 		.ascii	"`Va\321\340\027zg\015\032\224\223U84oT\257,\200\362"
 674      E0177A67 
 674      0D1A9493 
 674      5538346F 
 674      54AF2C80 
 675 1e84 94961613 		.ascii	"\224\226\026\0238\310\310\011\370G\371\002\275\255\360"
 675      38C8C809 
 675      F847F902 
 675      BDADF0
 676 1e93 43794985 		.ascii	"CyI\205S0\004\012\360\204R\001\307\363\352\220\274!"
 676      5330040A 
 676      F0845201 
 676      C7F3EA90 
 676      BC21
 677 1ea5 79456E92 		.ascii	"yEn\222,,\312\037J\260=\005\271\375r^\303_\373e\027"
 677      2C2CCA1F 
 677      4AB03D05 
 677      B9FD725E 
 677      C35FFB65 
 678 1eba E5FD3937 		.ascii	"\345\37597\235$\263\363\007\017\035\224[\224\353\300"
 678      9D24B3F3 
 678      070F1D94 
 678      5B94EBC0 
 679 1eca D28F008C 		.ascii	"\322\217\000\214W,\005\325y\337\360\204\234\276\362"
 679      572C05D5 
 679      79DFF084 
 679      9CBEF2
 680 1ed9 628F77D8 		.ascii	"b\217w\330\357\315Tw\366\340\302\274B\220.+\030*{\241"
 680      EFCD5477 
 680      F6E0C2BC 
 680      42902E2B 
 680      182A7BA1 
 681 1eed 7749AF9E 		.ascii	"wI\257\236c\200\253\364\201C\363\362=EP\3319\276\222"
 681      6380ABF4 
 681      8143F3F2 
 681      3D4550D9 
 681      39BE92
 682 1f00 5F655505 		.ascii	"_eU\005\003Yb\240\354\271\362\212r\337s>q\230?*\004"
ARM GAS  /tmp/ccc8slsr.s 			page 55


 682      035962A0 
 682      ECB9F28A 
 682      72DF733E 
 682      71983F2A 
 683 1f15 546F7908 		.ascii	"Toy\010J\270\253\340\374BoO\250O\234\253\313D`\241\334"
 683      4AB8ABE0 
 683      FC426F4F 
 683      A84F9CAB 
 683      CB4460A1 
 684 1f2a 97E529F6 		.ascii	"\227\345)\366\225\210U\245!4\247 \321\202\307\243\224"
 684      958855A5 
 684      2134A720 
 684      D182C7A3 
 684      94
 685 1f3b B765170C 		.ascii	"\267e\027\014\202\343e[^N\201-?\247\300\336\277\260"
 685      82E3655B 
 685      5E4E812D 
 685      3FA7C0DE 
 685      BFB0
 686 1f4d A0C0D6BF 		.ascii	"\240\300\326\277\240\300>(\373\225\202\334d*\214\010"
 686      A0C03E28 
 686      FB9582DC 
 686      642A8C08 
 687 1f5d 03355629 		.ascii	"\0035V)\226\3125\226\352\257 \327\370\213AU\301 I\""
 687      96CA3596 
 687      EAAF20D7 
 687      F88B4155 
 687      C1204922 
 688 1f71 FBBD7E07 		.ascii	"\373\275~\007\225@9!I\007\374$\026\333\274\201^\244"
 688      95403921 
 688      4907FC24 
 688      16DBBC81 
 688      5EA4
 689 1f83 16A8C138 		.ascii	"\026\250\3018\275xJ\330\220\002\241\210\320\336\021"
 689      BD784AD8 
 689      9002A188 
 689      D0DE11
 690 1f92 C1B14145 		.ascii	"\301\261AEPwhD\300'\302}S\274"
 690      50776844 
 690      C027C27D 
 690      53BC
 691 1fa0 233C34DD 		.ascii	"#<4\335\307\032\226w\004\221\300Y\351)\207\332\203S"
 691      C71A9677 
 691      0491C059 
 691      E92987DA 
 691      8353
 692 1fb2 65C037EA 		.ascii	"e\3007\352e\023\020T)\375\012\006g\017\036\003W\226"
 692      65131054 
 692      29FD0A06 
 692      670F1E03 
 692      5796
 693 1fc4 55FA4B7D 		.ascii	"U\372K}\201`\326\300\354l\270\\a\317\025\252\014\370"
 693      8160D6C0 
 693      EC6CB85C 
 693      61CF15AA 
 693      0CF8
 694 1fd6 2B3C14D7 		.ascii	"+<\024\327_\341\002iCp\233\204\206\024\203?\302[\021"
ARM GAS  /tmp/ccc8slsr.s 			page 56


 694      5FE10269 
 694      43709B84 
 694      8614833F 
 694      C25B11
 695 1fe9 F001601A 		.ascii	"\360\001`\032\311\366\200B\275\2411\377#9\024\317\250"
 695      C9F68042 
 695      BDA131FF 
 695      233914CF 
 695      A8
 696 1ffa 17CB88E6 		.ascii	"\027\313\210\346\002\276"
 696      02BE
 697 2000 E160559E 		.ascii	"\341`U\236\220\020\350#\004~+\004~'\004^\024\002}\205"
 697      9010E823 
 697      047E2B04 
 697      7E27045E 
 697      14027D85 
 698 2014 C0EF6D81 		.ascii	"\300\357m\201^=\341\350%\224\006\340\364\202\243\322"
 698      5E3DE1E8 
 698      259406E0 
 698      F482A3D2 
 699 2024 03777311 		.ascii	"\003ws\021\015\215\366\005\340\\QZ\354\013\020\215\211"
 699      0D8DF605 
 699      E05C515A 
 699      EC0B108D 
 699      89
 700 2035 653E7748 		.ascii	"e>wHnm.R\315}\241\"h\205C\012\256\304\337\\\241\262"
 700      6E6D2E52 
 700      CD7DA122 
 700      6885430A 
 700      AEC4DF5C 
 701 204b 8A621F7E 		.ascii	"\212b\037~'\356,\350\012\005|\304\365\001\002I8\312"
 701      27EE2CE8 
 701      0A057CC4 
 701      F5010249 
 701      38CA
 702 205d 82C3E147 		.ascii	"\202\303\341G\331\\\241\270\234r\006\212\307\302On\337"
 702      D95CA1B8 
 702      9C72068A 
 702      C7C24F6E 
 702      DF
 703 206e 187F0864 		.ascii	"\030\177\010d\3649G\207*\206\375Ge\232o\0248\26721\210"
 703      F4394787 
 703      2A86FD47 
 703      659A6F14 
 703      38B73231 
 704 2083 ED723449 		.ascii	"\355r4I\330*=U\035h\345\007=\245\320\374=\241\216\021"
 704      D82A3D55 
 704      1D68E507 
 704      3DA5D0FC 
 704      3DA18E11 
 705 2097 73A03929 		.ascii	"s\2409)\225\236\321\242?\344/\037\336Q\311\036Y\345"
 705      959ED1A2 
 705      3FE42F1F 
 705      DE51C91E 
 705      59E5
 706 20a9 AB02AE3A 		.ascii	"\253\002\256:\251\256\304\254\324J\017\334\026\223\016"
 706      A9AEC4AC 
ARM GAS  /tmp/ccc8slsr.s 			page 57


 706      D44A0FDC 
 706      16930E
 707 20b8 4C4286AF 		.ascii	"LB\206\257\022<\000\024v\224UA\375%\35404\026V\026\""
 707      123C0014 
 707      76945541 
 707      FD25EC30 
 707      34165616 
 708 20cd 1EC05546 		.ascii	"\036\300UF\321\341\\1\272\034\324\210H B\031\032\036"
 708      D1E15C31 
 708      BA1CD488 
 708      48204219 
 708      1A1E
 709 20df F007D711 		.ascii	"\360\007\327\021NS\211V\304R4\027\310\254\254\250(}"
 709      4E538956 
 709      C4523417 
 709      C8ACACA8 
 709      287D
 710 20f1 D1D2FD64 		.ascii	"\321\322\375da\340\236\235\345\306\001Z\366\005|\345"
 710      61E09E9D 
 710      E5C6015A 
 710      F6057CE5 
 711 2101 5E90D649 		.ascii	"^\220\326I\263\322\210\307\223\335\0218\207^)\005\271"
 711      B3D288C7 
 711      93DD1138 
 711      875E2905 
 711      B9
 712 2112 85B9057F 		.ascii	"\205\271\005\177\316\315\351\011\337zG\276\365\022\012"
 712      CECDE909 
 712      DF7A47BE 
 712      F5120A
 713 2121 0B225F7A 		.ascii	"\013\"_z\0139\321//8\262\013\262\207F\277\367q\026\374"
 713      0B39D12F 
 713      2F38B20B 
 713      B28746BF 
 713      F77116FC 
 714 2135 1572A219 		.ascii	"\025r\242\031\277u\026i3~\347\312\353]\230=``4\347E"
 714      BF751669 
 714      337EE7CA 
 714      EB5D983D 
 714      606034E7 
 715 214a 07E4A830 		.ascii	"\007\344\2500\372\332\300\351\016\260\352\220\220\016"
 715      FADAC0E9 
 715      0EB0EA90 
 715      900E
 716 2158 E835660C 		.ascii	"\3505f\014u\270\236\3422\021D\177,gp?O\366\010\261\274"
 716      75B89EE2 
 716      3211447F 
 716      2C67703F 
 716      4FF608B1 
 717 216d DC571A15 		.ascii	"\334W\032\0254\273\300\221=$\247\250\300\236=\264\037"
 717      34BBC091 
 717      3D24A7A8 
 717      C09E3DB4 
 717      1F
 718 217e 90C1FD0A 		.ascii	"\220\301\375\012\\^z\215\335_\342\0158\375\301\021\376"
 718      5C5E7A8D 
 718      DD5FE20D 
ARM GAS  /tmp/ccc8slsr.s 			page 58


 718      38FDC111 
 718      FE
 719 218f 92504AD0 		.ascii	"\222PJ\320WZ\342//\366\215q\216\202\216\261\"\3209\202"
 719      575AE22F 
 719      2FF68D71 
 719      8E828EB1 
 719      22D03982 
 720 21a3 0C060DEA 		.ascii	"\014\006\015\352\203F\343\200/\2011\204\206\306\244"
 720      8346E380 
 720      2F813184 
 720      86C6A4
 721 21b2 04C6C099 		.ascii	"\004\306\300\231\330xJHI\331A\224JGi\320[2\3341\202"
 721      D8784A48 
 721      49D94194 
 721      4A4769D0 
 721      5B32DC31 
 722 21c7 50B7BF82 		.ascii	"P\267\277\202\266\002\207\247?TiB\023\032%\202\001T"
 722      B60287A7 
 722      3F546942 
 722      131A2582 
 722      0154
 723 21d9 05E107B0 		.ascii	"\005\341\007\260\204\362\020\2119\254\231\001\345\224"
 723      84F21089 
 723      39AC9901 
 723      E594
 724 21e7 984197FE 		.ascii	"\230A\227\376\320\315\027\372\300\374\312C~\261\264"
 724      D0CD17FA 
 724      C0FCCA43 
 724      7EB1B4
 725 21f6 107F7842 		.ascii	"\020\177xB/\363\317\203\213zcwS\352\037\2265\334\353"
 725      2FF3CF83 
 725      8B7A6377 
 725      53EA1F96 
 725      35DCEB
 726 2209 65BA9D3E 		.ascii	"e\272\235>\317\367}\276\217\272\253\202n\207\370N\022"
 726      CFF77DBE 
 726      8FBAAB82 
 726      6E87F84E 
 726      12
 727 221a 678060A3 		.ascii	"g\200`\243\003\376\220\317N\314\313VY\025\262\015\367"
 727      03FE90CF 
 727      4ECCCB56 
 727      5915B20D 
 727      F7
 728 222b 856CA3CA 		.ascii	"\205l\243\312BnE\002\033$l%e\241\016\301b\010\035\202"
 728      426E4502 
 728      1B246C25 
 728      65A10EC1 
 728      62081D82 
 729 223f FEB2CA52 		.ascii	"\376\262\312R\337\363^\014\036ho\237\036I\001\037i\376"
 729      DFF35E0C 
 729      1E686F9F 
 729      1E49011F 
 729      69FE
 730 2251 A0870426 		.ascii	"\240\207\004&\201\220\2578\035\322\225\201\212\020T"
 730      8190AF38 
 730      1DD29581 
ARM GAS  /tmp/ccc8slsr.s 			page 59


 730      8A1054
 731 2260 86AF98F8 		.ascii	"\206\257\230\370\320rH\245\026\373\203r\322\036\034"
 731      D07248A5 
 731      16FB8372 
 731      D21E1C
 732 226f 5BEEFD83 		.ascii	"[\356\375\203\225X\001\322\036\177\305\260\322\012\357"
 732      955801D2 
 732      1E7FC5B0 
 732      D20AEF
 733 227e 1B2040C7 		.ascii	"\033 @\307\376$\221\343\033\345\367\372\362\312K*\334"
 733      FE2491E3 
 733      1BE5F7FA 
 733      F2CA4B2A 
 733      DC
 734 228f C34ADFF0 		.ascii	"\303J\337\360`\360D\022\345Uen\220\005\270)\251H\205"
 734      60F04412 
 734      E555656E 
 734      9005B829 
 734      A94885
 735 22a2 0C25BAE8 		.ascii	"\014%\272\350?\350\025%\272 I\022]`\036\215):\220dv"
 735      3FE81525 
 735      BA204912 
 735      5D601E8D 
 735      293A9064 
 736 22b7 FE9021B9 		.ascii	"\376\220!\271\360u\310\300G\311\327\234\274\302hN\012"
 736      F075C8C0 
 736      47C9D79C 
 736      BCC2684E 
 736      0A
 737 22c8 C9C14824 		.ascii	"\311\301H$MIA.\246\377R\220W\244\244\013_\033\222\015"
 737      4D49412E 
 737      A6FF5290 
 737      57A4A40B 
 737      5F1B920D 
 738 22dc 699BD70F 		.ascii	"i\233\327\017=g\260\330\355\025+E\257?4\266#2\357\021"
 738      3D67B0D8 
 738      ED152B45 
 738      AF3F34B6 
 738      2332EF11 
 739 22f0 8B8B03BE 		.ascii	"\213\213\003\276`\320\027\314 \341\030\364\306\036\320"
 739      60D017CC 
 739      20E118F4 
 739      C61ED0
 740 22ff 95570C14 		.ascii	"\225W\014\024G\224g\207\037\212\237T\375\212\325\024"
 740      47946787 
 740      1F8A9F54 
 740      FD8AD514 
 741 230f D5A7933A 		.ascii	"\325\247\223:k7\372]Hh\252\007\374\026~%\23579\023\263"
 741      6B37FA5D 
 741      4868AA07 
 741      FC167E25 
 741      9D373913 
 742 2324 2E769540 		.ascii	".v\225@W\007}\260\0332\012\240\266\307B \213\347\337"
 742      57077DB0 
 742      1B320AA0 
 742      B6C74220 
 742      8BE7DF
ARM GAS  /tmp/ccc8slsr.s 			page 60


 743 2337 5A0AD77C 		.ascii	"Z\012\327|\001\260;\022\033\025b\212\326|G\365\0270"
 743      01B03B12 
 743      1B15628A 
 743      D67C47F5 
 743      1730
 744 2349 8314D2D7 		.ascii	"\203\024\322\327\373\313@\337v\260\251\220\035*\"\344"
 744      FBCB40DF 
 744      76B0A990 
 744      1D2A22E4 
 745 2359 4409420E 		.ascii	"D\011B\016bi\241\204!\253\246Q`\337A\332D\007Ly\202"
 745      6269A184 
 745      21ABA651 
 745      60DF41DA 
 745      44074C79 
 746 236e 155501E2 		.ascii	"\025U\001\342\026\323\325_;\321/\304\031\373\300S\203"
 746      16D3D55F 
 746      3BD12FC4 
 746      19FBC053 
 746      83
 747 237f 4AB4192E 		.ascii	"J\264\031.p)\304g\247\301Y\311K\2014\005\247P\330\321"
 747      7029C467 
 747      A7C159C9 
 747      4B813405 
 747      A750D8D1 
 748 2393 8156211B 		.ascii	"\201V!\033\223\344\367\321\264\367\363\005\261\264\003"
 748      93E4F7D1 
 748      B4F7F305 
 748      B1B403
 749 23a2 AF4B0916 		.ascii	"\257K\011\026\313\366\224R\230#\233\223\013R\304\232"
 749      CBF69452 
 749      98239B93 
 749      0B52C49A 
 750 23b2 DC704603 		.ascii	"\334pF\003\261&#v3D\306G\374\345\2403\245\237\203\030"
 750      B1262376 
 750      3344C647 
 750      FCE5A033 
 750      A59F8318 
 751 23c6 4D49BA95 		.ascii	"MI\272\225d\312H\245W\204\224\267\242\012\202\223\200"
 751      64CA48A5 
 751      578494B7 
 751      A20A8293 
 751      80
 752 23d7 7BA46758 		.ascii	"{\244gXU\011t\030\216\221\236PE\245\013.\011T\206\002"
 752      55097418 
 752      8E919E50 
 752      45A50B2E 
 752      09548602 
 753 23eb 700E14C3 		.ascii	"p\016\024\3039edyE\310_2\026PFzh\3229\022\324P\376\206"
 753      39656479 
 753      45C85F32 
 753      1650467A 
 753      68D23912 
 754 2403 D38F981D 		.ascii	"\323\217\230\035*\252B\252\333:+0!\370\207\011\025\303"
 754      2AAA42AA 
 754      DB3A2B30 
 754      21F88709 
 754      15C3
ARM GAS  /tmp/ccc8slsr.s 			page 61


 755 2415 1E79B5B0 		.ascii	"\036y\265\260_A\221\252\343y\301>\260hh\201\243*(\006"
 755      5F4191AA 
 755      E379C13E 
 755      B0686881 
 755      A32A2806 
 756 2429 421DD1C2 		.ascii	"B\035\321\302\362\312\375\304\037A\343\023\202\305\266"
 756      F2CAFDC4 
 756      1F41E313 
 756      82C5B6
 757 2438 B2D26221 		.ascii	"\262\322b!X\331\211\3742\320\027\212\370\207T\274\024"
 757      58D989FC 
 757      32D0178A 
 757      F88754BC 
 757      14
 758 2449 72061452 		.ascii	"r\006\024Rs\035P8\030\271/\266\344\276\304\300pb\341"
 758      731D5038 
 758      18B92FB6 
 758      E4BEC4C0 
 758      7062E1
 759 245c A344ACC6 		.ascii	"\243D\254\306\016\036\317\360\362*\257G\376\232\366"
 759      0E1ECFF0 
 759      F22AAF47 
 759      FE9AF6
 760 246b EFC3AAFC 		.ascii	"\357\303\252\374\245\241\347\374\345\177\344 (\221s"
 760      A5A1E7FC 
 760      E57FE420 
 760      289173
 761 247a 21CC1C45 		.ascii	"!\314\034E\335\331#p\333\234\210\013r\015\200^\354\325"
 761      DDD92370 
 761      DB9C880B 
 761      720D805E 
 761      ECD5
 762 248c 41458E01 		.ascii	"AE\216\001\005\236\374W\322\200Bc\177\305\223[P\220"
 762      059EFC57 
 762      D2804263 
 762      7FC5935B 
 762      5090
 763 249e 0AE9BC21 		.ascii	"\012\351\274!E$\231\016\311!\371E\362\370\003\277x\006"
 763      4524990E 
 763      C921F945 
 763      F2F803BF 
 763      7806
 764 24b0 E40DCA95 		.ascii	"\344\015\312\225\223C\373\025\275\334\021\257\376s\277"
 764      9343FB15 
 764      BDDC11AF 
 764      FE73BF
 765 24bf 4179399E 		.ascii	"Ay9\236!\375\006\347\246\020\244\334!y\2719nH\345\376"
 765      21FD06E7 
 765      A610A4DC 
 765      2179B939 
 765      6E48E5FE 
 766 24d3 35AFB0E8 		.ascii	"5\257\260\350Q\325%\371\375\377'x\223\316\220C|F\256"
 766      51D525F9 
 766      FDFF2778 
 766      93CE9043 
 766      7C46AE
 767 24e6 6768417E 		.ascii	"ghA~\021d\344\346tR]\224S@\374\221|\357\334!\375\372"
ARM GAS  /tmp/ccc8slsr.s 			page 62


 767      1164E4E6 
 767      74525D94 
 767      5340FC91 
 767      7CEFDC21 
 768 24fc 0FA2BFCB 		.ascii	"\017\242\277\313w/|\255\260(w0\271\361\340W\006\024"
 768      772F7CAD 
 768      B0287730 
 768      B9F1E057 
 768      0614
 769 250e 7AFAF5CF 		.ascii	"z\372\365\317/\000\000\302SQ\336\340\334\374W\213\010"
 769      2F0000C2 
 769      5351DEE0 
 769      DCFC578B 
 769      08
 770 251f 0F83F2B3 		.ascii	"\017\203\362\263_\311\315\351\034\001\311\177u\340\313"
 770      5FC9CDE9 
 770      1C01C97F 
 770      75E0CB
 771 252e E0DE0A72 		.ascii	"\340\336\012r\037'\327\345\347{\006\367\033\362\232"
 771      1F27D7E5 
 771      E77B06F7 
 771      1BF29A
 772 253d 277F68EE 		.ascii	"'\177h\356\020\212\331Eu\177\350kA\222\242\334\002G"
 772      108AD945 
 772      757FE86B 
 772      4192A2DC 
 772      0247
 773 254f 51F6CBD0 		.ascii	"Q\366\313\320\345\226x\312He\245\202\002\263e_\356\035"
 773      E59678CA 
 773      4865A582 
 773      02B3655F 
 773      EE1D
 774 2561 5134A2B8 		.ascii	"Q4\242\270\260\324\347\253$N\2450\004\346@\364\233?"
 774      B0D4E7AB 
 774      244EA530 
 774      04E640F4 
 774      9B3F
 775 2573 EC3FE057 		.ascii	"\354?\340Wb\022\351t\204A\303\276\256\036y\350\341\011"
 775      6212E974 
 775      8441C3BE 
 775      AE1E79E8 
 775      E109
 776 2585 FA42C303 		.ascii	"\372B\303\003\025U\225\244k\025\006\024:\011$\364\270"
 776      155595A4 
 776      6B150614 
 776      3A0924F4 
 776      B8
 777 2596 6400D90B 		.ascii	"d\000\331\013z\337l\354}\201\246Ro3\024 \204\302\234"
 777      7ADF6CEC 
 777      7D81A652 
 777      6F331420 
 777      84C29C
 778 25a9 FF0B9D64 		.ascii	"\377\013\235d\241\374"
 778      A1FC
 779              		.text
 780              		.section	.gnu.lto_.symtab.cd467036563494e4,"",%progbits
 781 0000 6D6D635F 		.ascii	"mmc_lld_is_card_inserted\000\000\000\000\000\000\000"
ARM GAS  /tmp/ccc8slsr.s 			page 63


 781      6C6C645F 
 781      69735F63 
 781      6172645F 
 781      696E7365 
 782 001f 00000000 		.ascii	"\000\000\000\000\000q\002\000\000mmc_lld_is_write_p"
 782      00710200 
 782      006D6D63 
 782      5F6C6C64 
 782      5F69735F 
 783 003a 726F7465 		.ascii	"rotected\000\000\000\000\000\000\000\000\000\000\000"
 783      63746564 
 783      00000000 
 783      00000000 
 783      000000
 784 004d 00D40200 		.ascii	"\000\324\002\000\000sdmmcInitialize\000\000\000\000"
 784      0073646D 
 784      6D63496E 
 784      69746961 
 784      6C697A65 
 785 0065 00000000 		.ascii	"\000\000\000\000\000\000\000\000\330\002\000\000sdm"
 785      00000000 
 785      D8020000 
 785      73646D
 786 0074 6D476574 		.ascii	"mGetMMCDriver\000\000\000\000\000\000\000\000\000\000"
 786      4D4D4344 
 786      72697665 
 786      72000000 
 786      00000000 
 787 008b 00009A03 		.ascii	"\000\000\232\003\000\000sdmmcGetFS\000\000\000\000\000"
 787      00007364 
 787      6D6D6347 
 787      65744653 
 787      00000000 
 788 00a0 00000000 		.ascii	"\000\000\000\000\000\000\000\240\003\000\000sdmmcFS"
 788      000000A0 
 788      03000073 
 788      646D6D63 
 788      4653
 789 00b2 4D6F756E 		.ascii	"Mounted\000\000\000\000\000\000\000\000\000\000\000"
 789      74656400 
 789      00000000 
 789      00000000 
 789      0000
 790 00c4 00A60300 		.ascii	"\000\246\003\000\000SPID1\000\000\002\000\000\000\000"
 790      00535049 
 790      44310000 
 790      02000000 
 790      00
 791 00d5 00000000 		.ascii	"\000\000\000\000\000\024\004\000\000chvprintf\000\000"
 791      00140400 
 791      00636876 
 791      7072696E 
 791      74660000 
 792 00e9 02000000 		.ascii	"\002\000\000\000\000\000\000\000\000\000\255\003\000"
 792      00000000 
 792      0000AD03 
 792      00
ARM GAS  /tmp/ccc8slsr.s 			page 64


 793 00f6 006D6D63 		.ascii	"\000mmcDisconnect\000\000\002\000\000\000\000\000\000"
 793      44697363 
 793      6F6E6E65 
 793      63740000 
 793      02000000 
 794 010d 000000BC 		.ascii	"\000\000\000\274\003\000\000f_mount\000\000\002\000"
 794      03000066 
 794      5F6D6F75 
 794      6E740000 
 794      0200
 795 011f 00000000 		.ascii	"\000\000\000\000\000\000\000\000\276\003\000\000mmc"
 795      00000000 
 795      BE030000 
 795      6D6D63
 796 012e 436F6E6E 		.ascii	"Connect\000\000\002\000\000\000\000\000\000\000\000"
 796      65637400 
 796      00020000 
 796      00000000 
 796      0000
 797 0140 00F60300 		.ascii	"\000\366\003\000\000chThdSleep\000\000\002\000\000\000"
 797      00636854 
 797      6864536C 
 797      65657000 
 797      00020000 
 798 0155 00000000 		.ascii	"\000\000\000\000\000\000\370\003\000\000mmcStart\000"
 798      0000F803 
 798      00006D6D 
 798      63537461 
 798      727400
 799 0168 00020000 		.ascii	"\000\002\000\000\000\000\000\000\000\000\000\374\003"
 799      00000000 
 799      000000FC 
 799      03
 800 0175 00006D6D 		.ascii	"\000\000mmcObjectInit\000\000\002\000\000\000\000\000"
 800      634F626A 
 800      65637449 
 800      6E697400 
 800      00020000 
 801 018c 00000000 		.ascii	"\000\000\000\000\001\004\000\000_pal_lld_setgroupmo"
 801      01040000 
 801      5F70616C 
 801      5F6C6C64 
 801      5F736574 
 802 01a7 64650000 		.ascii	"de\000\000\002\000\000\000\000\000\000\000\000\000\005"
 802      02000000 
 802      00000000 
 802      000005
 803 01b6 040000   		.ascii	"\004\000\000"
 804              		.text
 805              		.section	.gnu.lto_.opts,"",%progbits
 806 0000 272D6D63 		.ascii	"'-mcpu=cortex-m3' '-mno-thumb-interwork' '-mthumb' "
 806      70753D63 
 806      6F727465 
 806      782D6D33 
 806      2720272D 
 807 0033 272D4F32 		.ascii	"'-O2' '-fomit-frame-pointer' '-falign-functions=16'"
 807      2720272D 
ARM GAS  /tmp/ccc8slsr.s 			page 65


 807      666F6D69 
 807      742D6672 
 807      616D652D 
 808 0066 20272D66 		.ascii	" '-ffunction-sections' '-fdata-sections' '-fno-comm"
 808      66756E63 
 808      74696F6E 
 808      2D736563 
 808      74696F6E 
 809 0099 6F6E2720 		.ascii	"on' '-flto'\000"
 809      272D666C 
 809      746F2700 
 810              		.text
 811              		.section	.text.chprintf,"ax",%progbits
 812              		.align	2
 813              		.p2align 4,,15
 814              		.thumb
 815              		.thumb_func
 816              		.type	chprintf, %function
 817              	chprintf:
 818              		@ args = 4, pretend = 12, frame = 8
 819              		@ frame_needed = 0, uses_anonymous_args = 1
 820 0000 0EB4     		push	{r1, r2, r3}
 821 0002 00B5     		push	{lr}
 822 0004 82B0     		sub	sp, sp, #8
 823 0006 03AB     		add	r3, sp, #12
 824 0008 53F8041B 		ldr	r1, [r3], #4
 825 000c 1A46     		mov	r2, r3
 826 000e 0193     		str	r3, [sp, #4]
 827 0010 FFF7FEFF 		bl	chvprintf
 828 0014 02B0     		add	sp, sp, #8
 829              		@ sp needed
 830 0016 5DF804EB 		ldr	lr, [sp], #4
 831 001a 03B0     		add	sp, sp, #12
 832 001c 7047     		bx	lr
 833              		.size	chprintf, .-chprintf
 834 001e 00BF     		.section	.text.mmc_lld_is_card_inserted,"ax",%progbits
 835              		.align	2
 836              		.p2align 4,,15
 837              		.global	mmc_lld_is_card_inserted
 838              		.thumb
 839              		.thumb_func
 840              		.type	mmc_lld_is_card_inserted, %function
 841              	mmc_lld_is_card_inserted:
 842              		@ args = 0, pretend = 0, frame = 0
 843              		@ frame_needed = 0, uses_anonymous_args = 0
 844              		@ link register save eliminated.
 845 0000 024B     		ldr	r3, .L3
 846 0002 9868     		ldr	r0, [r3, #8]
 847 0004 C0F3C010 		ubfx	r0, r0, #7, #1
 848 0008 7047     		bx	lr
 849              	.L4:
 850 000a 00BF     		.align	2
 851              	.L3:
 852 000c 00100140 		.word	1073811456
 853              		.size	mmc_lld_is_card_inserted, .-mmc_lld_is_card_inserted
 854              		.section	.text.mmc_lld_is_write_protected,"ax",%progbits
 855              		.align	2
ARM GAS  /tmp/ccc8slsr.s 			page 66


 856              		.p2align 4,,15
 857              		.global	mmc_lld_is_write_protected
 858              		.thumb
 859              		.thumb_func
 860              		.type	mmc_lld_is_write_protected, %function
 861              	mmc_lld_is_write_protected:
 862              		@ args = 0, pretend = 0, frame = 0
 863              		@ frame_needed = 0, uses_anonymous_args = 0
 864              		@ link register save eliminated.
 865 0000 034B     		ldr	r3, .L6
 866 0002 9868     		ldr	r0, [r3, #8]
 867 0004 C0F34020 		ubfx	r0, r0, #9, #1
 868 0008 80F00100 		eor	r0, r0, #1
 869 000c 7047     		bx	lr
 870              	.L7:
 871 000e 00BF     		.align	2
 872              	.L6:
 873 0010 00080140 		.word	1073809408
 874              		.size	mmc_lld_is_write_protected, .-mmc_lld_is_write_protected
 875 0014 AFF30080 		.section	.text.sdmmcInitialize,"ax",%progbits
 875      AFF30080 
 875      AFF30080 
 876              		.align	2
 877              		.p2align 4,,15
 878              		.global	sdmmcInitialize
 879              		.thumb
 880              		.thumb_func
 881              		.type	sdmmcInitialize, %function
 882              	sdmmcInitialize:
 883              		@ args = 0, pretend = 0, frame = 0
 884              		@ frame_needed = 0, uses_anonymous_args = 0
 885 0000 F8B5     		push	{r3, r4, r5, r6, r7, lr}
 886 0002 DFF800C1 		ldr	ip, .L16+48
 887 0006 334D     		ldr	r5, .L16
 888 0008 334F     		ldr	r7, .L16+4
 889 000a 0023     		movs	r3, #0
 890 000c DFF8F8E0 		ldr	lr, .L16+52
 891 0010 324E     		ldr	r6, .L16+8
 892 0012 80E80210 		stmia	r0, {r1, ip}
 893 0016 8360     		str	r3, [r0, #8]
 894 0018 4373     		strb	r3, [r0, #13]
 895 001a 0446     		mov	r4, r0
 896 001c 2A60     		str	r2, [r5]
 897 001e 3846     		mov	r0, r7
 898 0020 4021     		movs	r1, #64
 899 0022 0622     		movs	r2, #6
 900 0024 CEF80040 		str	r4, [lr]
 901 0028 FFF7FEFF 		bl	_pal_lld_setgroupmode
 902 002c 3046     		mov	r0, r6
 903 002e 8021     		movs	r1, #128
 904 0030 0322     		movs	r2, #3
 905 0032 FFF7FEFF 		bl	_pal_lld_setgroupmode
 906 0036 2A48     		ldr	r0, .L16+12
 907 0038 2021     		movs	r1, #32
 908 003a 1022     		movs	r2, #16
 909 003c FFF7FEFF 		bl	_pal_lld_setgroupmode
 910 0040 2748     		ldr	r0, .L16+12
ARM GAS  /tmp/ccc8slsr.s 			page 67


 911 0042 8021     		movs	r1, #128
 912 0044 1022     		movs	r2, #16
 913 0046 FFF7FEFF 		bl	_pal_lld_setgroupmode
 914 004a 4021     		movs	r1, #64
 915 004c 0222     		movs	r2, #2
 916 004e 2448     		ldr	r0, .L16+12
 917 0050 FFF7FEFF 		bl	_pal_lld_setgroupmode
 918 0054 2068     		ldr	r0, [r4]
 919 0056 FFF7FEFF 		bl	mmcObjectInit
 920 005a 2068     		ldr	r0, [r4]
 921 005c 2149     		ldr	r1, .L16+16
 922 005e FFF7FEFF 		bl	mmcStart
 923 0062 B368     		ldr	r3, [r6, #8]
 924 0064 2868     		ldr	r0, [r5]
 925 0066 1B06     		lsls	r3, r3, #24
 926 0068 25D5     		bpl	.L9
 927 006a 1F49     		ldr	r1, .L16+20
 928 006c FFF7FEFF 		bl	chprintf
 929 0070 4023     		movs	r3, #64
 930 0072 7B61     		str	r3, [r7, #20]
 931 0074 6420     		movs	r0, #100
 932 0076 FFF7FEFF 		bl	chThdSleep
 933 007a 2068     		ldr	r0, [r4]
 934 007c FFF7FEFF 		bl	mmcConnect
 935 0080 0646     		mov	r6, r0
 936 0082 80B9     		cbnz	r0, .L14
 937 0084 1948     		ldr	r0, .L16+24
 938 0086 1A49     		ldr	r1, .L16+28
 939 0088 A060     		str	r0, [r4, #8]
 940 008a 3246     		mov	r2, r6
 941 008c FFF7FEFF 		bl	f_mount
 942 0090 0746     		mov	r7, r0
 943 0092 2868     		ldr	r0, [r5]
 944 0094 A7B9     		cbnz	r7, .L15
 945 0096 1749     		ldr	r1, .L16+32
 946 0098 FFF7FEFF 		bl	chprintf
 947 009c 0123     		movs	r3, #1
 948 009e 3846     		mov	r0, r7
 949 00a0 6373     		strb	r3, [r4, #13]
 950              	.L11:
 951 00a2 40B2     		sxtb	r0, r0
 952 00a4 F8BD     		pop	{r3, r4, r5, r6, r7, pc}
 953              	.L14:
 954 00a6 2868     		ldr	r0, [r5]
 955 00a8 1349     		ldr	r1, .L16+36
 956 00aa 0122     		movs	r2, #1
 957 00ac FFF7FEFF 		bl	chprintf
 958 00b0 0120     		movs	r0, #1
 959 00b2 40B2     		sxtb	r0, r0
 960 00b4 F8BD     		pop	{r3, r4, r5, r6, r7, pc}
 961              	.L9:
 962 00b6 1149     		ldr	r1, .L16+40
 963 00b8 FFF7FEFF 		bl	chprintf
 964 00bc FD20     		movs	r0, #253
 965 00be F0E7     		b	.L11
 966              	.L15:
 967 00c0 0F49     		ldr	r1, .L16+44
ARM GAS  /tmp/ccc8slsr.s 			page 68


 968 00c2 FFF7FEFF 		bl	chprintf
 969 00c6 2068     		ldr	r0, [r4]
 970 00c8 FFF7FEFF 		bl	mmcDisconnect
 971 00cc A660     		str	r6, [r4, #8]
 972 00ce FE20     		movs	r0, #254
 973 00d0 E7E7     		b	.L11
 974              	.L17:
 975 00d2 00BF     		.align	2
 976              	.L16:
 977 00d4 00000000 		.word	.LANCHOR0
 978 00d8 000C0140 		.word	1073810432
 979 00dc 00100140 		.word	1073811456
 980 00e0 00080140 		.word	1073809408
 981 00e4 00000000 		.word	.LANCHOR2
 982 00e8 00000000 		.word	.LC0
 983 00ec 00000000 		.word	.LANCHOR3
 984 00f0 34000000 		.word	.LC2
 985 00f4 58000000 		.word	.LC4
 986 00f8 14000000 		.word	.LC1
 987 00fc 74000000 		.word	.LC5
 988 0100 38000000 		.word	.LC3
 989 0104 00000000 		.word	SPID1
 990 0108 00000000 		.word	.LANCHOR1
 991              		.size	sdmmcInitialize, .-sdmmcInitialize
 992 010c AFF30080 		.section	.text.sdmmGetMMCDriver,"ax",%progbits
 993              		.align	2
 994              		.p2align 4,,15
 995              		.global	sdmmGetMMCDriver
 996              		.thumb
 997              		.thumb_func
 998              		.type	sdmmGetMMCDriver, %function
 999              	sdmmGetMMCDriver:
 1000              		@ args = 0, pretend = 0, frame = 0
 1001              		@ frame_needed = 0, uses_anonymous_args = 0
 1002              		@ link register save eliminated.
 1003 0000 037B     		ldrb	r3, [r0, #12]	@ zero_extendqisi2
 1004 0002 0BB1     		cbz	r3, .L20
 1005 0004 0068     		ldr	r0, [r0]
 1006 0006 7047     		bx	lr
 1007              	.L20:
 1008 0008 1846     		mov	r0, r3
 1009 000a 7047     		bx	lr
 1010              		.size	sdmmGetMMCDriver, .-sdmmGetMMCDriver
 1011 000c AFF30080 		.section	.text.sdmmcGetFS,"ax",%progbits
 1012              		.align	2
 1013              		.p2align 4,,15
 1014              		.global	sdmmcGetFS
 1015              		.thumb
 1016              		.thumb_func
 1017              		.type	sdmmcGetFS, %function
 1018              	sdmmcGetFS:
 1019              		@ args = 0, pretend = 0, frame = 0
 1020              		@ frame_needed = 0, uses_anonymous_args = 0
 1021              		@ link register save eliminated.
 1022 0000 437B     		ldrb	r3, [r0, #13]	@ zero_extendqisi2
 1023 0002 0BB1     		cbz	r3, .L23
 1024 0004 8068     		ldr	r0, [r0, #8]
ARM GAS  /tmp/ccc8slsr.s 			page 69


 1025 0006 7047     		bx	lr
 1026              	.L23:
 1027 0008 1846     		mov	r0, r3
 1028 000a 7047     		bx	lr
 1029              		.size	sdmmcGetFS, .-sdmmcGetFS
 1030 000c AFF30080 		.section	.text.sdmmcFSMounted,"ax",%progbits
 1031              		.align	2
 1032              		.p2align 4,,15
 1033              		.global	sdmmcFSMounted
 1034              		.thumb
 1035              		.thumb_func
 1036              		.type	sdmmcFSMounted, %function
 1037              	sdmmcFSMounted:
 1038              		@ args = 0, pretend = 0, frame = 0
 1039              		@ frame_needed = 0, uses_anonymous_args = 0
 1040              		@ link register save eliminated.
 1041 0000 407B     		ldrb	r0, [r0, #13]	@ zero_extendqisi2
 1042 0002 7047     		bx	lr
 1043              		.size	sdmmcFSMounted, .-sdmmcFSMounted
 1044 0004 AFF30080 		.section	.data.hsCfg,"aw",%progbits
 1044      AFF30080 
 1044      AFF30080 
 1045              		.align	2
 1046              		.type	hsCfg, %object
 1047              		.size	hsCfg, 12
 1048              	hsCfg:
 1049 0000 00000000 		.word	0
 1050 0004 000C0140 		.word	1073810432
 1051 0008 0600     		.short	6
 1052 000a 0000     		.short	0
 1053              		.section	.data.mmcCfg,"aw",%progbits
 1054              		.align	2
 1055              		.set	.LANCHOR2,. + 0
 1056              		.type	mmcCfg, %object
 1057              		.size	mmcCfg, 12
 1058              	mmcCfg:
 1059 0000 00000000 		.word	SPID1
 1060 0004 00000000 		.word	lsCfg
 1061 0008 00000000 		.word	hsCfg
 1062              		.section	.bss.serialPort,"aw",%nobits
 1063              		.align	2
 1064              		.set	.LANCHOR0,. + 0
 1065              		.type	serialPort, %object
 1066              		.size	serialPort, 4
 1067              	serialPort:
 1068 0000 00000000 		.space	4
 1069              		.section	.bss.SD,"aw",%nobits
 1070              		.align	2
 1071              		.set	.LANCHOR1,. + 0
 1072              		.type	SD, %object
 1073              		.size	SD, 4
 1074              	SD:
 1075 0000 00000000 		.space	4
 1076              		.section	.rodata.str1.4,"aMS",%progbits,1
 1077              		.align	2
 1078              	.LC0:
 1079 0000 53442F4D 		.ascii	"SD/MMC:Card Found\012\000"
ARM GAS  /tmp/ccc8slsr.s 			page 70


 1079      4D433A43 
 1079      61726420 
 1079      466F756E 
 1079      640A00
 1080 0013 00       		.space	1
 1081              	.LC1:
 1082 0014 53442F4D 		.ascii	"SD/MMC:Connect Error,ERR%02d\012\000"
 1082      4D433A43 
 1082      6F6E6E65 
 1082      63742045 
 1082      72726F72 
 1083 0032 0000     		.space	2
 1084              	.LC2:
 1085 0034 2F00     		.ascii	"/\000"
 1086 0036 0000     		.space	2
 1087              	.LC3:
 1088 0038 53442F4D 		.ascii	"SD/MMC:File System Mount Error\012\000"
 1088      4D433A46 
 1088      696C6520 
 1088      53797374 
 1088      656D204D 
 1089              	.LC4:
 1090 0058 53442F4D 		.ascii	"SD/MMC:File System Mounted\012\000"
 1090      4D433A46 
 1090      696C6520 
 1090      53797374 
 1090      656D204D 
 1091              	.LC5:
 1092 0074 53442F4D 		.ascii	"SD/MMC:No SD Card Found\012\000"
 1092      4D433A4E 
 1092      6F205344 
 1092      20436172 
 1092      6420466F 
 1093 008d 000000   		.section	.data.lsCfg,"aw",%progbits
 1094              		.align	2
 1095              		.type	lsCfg, %object
 1096              		.size	lsCfg, 12
 1097              	lsCfg:
 1098 0000 00000000 		.word	0
 1099 0004 000C0140 		.word	1073810432
 1100 0008 0600     		.short	6
 1101 000a 3000     		.short	48
 1102              		.section	.bss.FS,"aw",%nobits
 1103              		.align	2
 1104              		.set	.LANCHOR3,. + 0
 1105              		.type	FS, %object
 1106              		.size	FS, 560
 1107              	FS:
 1108 0000 00000000 		.space	560
 1108      00000000 
 1108      00000000 
 1108      00000000 
 1108      00000000 
 1109              		.comm	__gnu_lto_v1,1,1
 1110              		.ident	"GCC: (GNU Tools for ARM Embedded Processors) 4.8.4 20140526 (release) [ARM/embedded-4_8-br
ARM GAS  /tmp/ccc8slsr.s 			page 71


DEFINED SYMBOLS
                            *ABS*:0000000000000000 sdmmcsimple.c
     /tmp/ccc8slsr.s:812    .text.chprintf:0000000000000000 $t
     /tmp/ccc8slsr.s:817    .text.chprintf:0000000000000000 chprintf
     /tmp/ccc8slsr.s:835    .text.mmc_lld_is_card_inserted:0000000000000000 $t
     /tmp/ccc8slsr.s:841    .text.mmc_lld_is_card_inserted:0000000000000000 mmc_lld_is_card_inserted
     /tmp/ccc8slsr.s:852    .text.mmc_lld_is_card_inserted:000000000000000c $d
     /tmp/ccc8slsr.s:855    .text.mmc_lld_is_write_protected:0000000000000000 $t
     /tmp/ccc8slsr.s:861    .text.mmc_lld_is_write_protected:0000000000000000 mmc_lld_is_write_protected
     /tmp/ccc8slsr.s:873    .text.mmc_lld_is_write_protected:0000000000000010 $d
     /tmp/ccc8slsr.s:876    .text.sdmmcInitialize:0000000000000000 $t
     /tmp/ccc8slsr.s:882    .text.sdmmcInitialize:0000000000000000 sdmmcInitialize
     /tmp/ccc8slsr.s:977    .text.sdmmcInitialize:00000000000000d4 $d
     /tmp/ccc8slsr.s:993    .text.sdmmGetMMCDriver:0000000000000000 $t
     /tmp/ccc8slsr.s:999    .text.sdmmGetMMCDriver:0000000000000000 sdmmGetMMCDriver
     /tmp/ccc8slsr.s:1012   .text.sdmmcGetFS:0000000000000000 $t
     /tmp/ccc8slsr.s:1018   .text.sdmmcGetFS:0000000000000000 sdmmcGetFS
     /tmp/ccc8slsr.s:1031   .text.sdmmcFSMounted:0000000000000000 $t
     /tmp/ccc8slsr.s:1037   .text.sdmmcFSMounted:0000000000000000 sdmmcFSMounted
     /tmp/ccc8slsr.s:1045   .data.hsCfg:0000000000000000 $d
     /tmp/ccc8slsr.s:1048   .data.hsCfg:0000000000000000 hsCfg
     /tmp/ccc8slsr.s:1054   .data.mmcCfg:0000000000000000 $d
     /tmp/ccc8slsr.s:1058   .data.mmcCfg:0000000000000000 mmcCfg
     /tmp/ccc8slsr.s:1097   .data.lsCfg:0000000000000000 lsCfg
     /tmp/ccc8slsr.s:1063   .bss.serialPort:0000000000000000 $d
     /tmp/ccc8slsr.s:1067   .bss.serialPort:0000000000000000 serialPort
     /tmp/ccc8slsr.s:1070   .bss.SD:0000000000000000 $d
     /tmp/ccc8slsr.s:1074   .bss.SD:0000000000000000 SD
     /tmp/ccc8slsr.s:1077   .rodata.str1.4:0000000000000000 $d
     /tmp/ccc8slsr.s:1094   .data.lsCfg:0000000000000000 $d
     /tmp/ccc8slsr.s:1103   .bss.FS:0000000000000000 $d
     /tmp/ccc8slsr.s:1107   .bss.FS:0000000000000000 FS
                            *COM*:0000000000000001 __gnu_lto_v1
     /tmp/ccc8slsr.s:875    .text.mmc_lld_is_write_protected:0000000000000014 $t
     /tmp/ccc8slsr.s:992    .text.sdmmcInitialize:000000000000010c $t

UNDEFINED SYMBOLS
chvprintf
_pal_lld_setgroupmode
mmcObjectInit
mmcStart
chThdSleep
mmcConnect
f_mount
mmcDisconnect
SPID1
