ARM GAS  /tmp/ccBJVcRX.s 			page 1


   1              		.syntax unified
   2              		.cpu cortex-m3
   3              		.fpu softvfp
   4              		.eabi_attribute 20, 1
   5              		.eabi_attribute 21, 1
   6              		.eabi_attribute 23, 3
   7              		.eabi_attribute 24, 1
   8              		.eabi_attribute 25, 1
   9              		.eabi_attribute 26, 1
  10              		.eabi_attribute 30, 2
  11              		.eabi_attribute 34, 1
  12              		.eabi_attribute 18, 4
  13              		.thumb
  14              		.file	"sdmmcsimple.c"
  15              		.section	.gnu.lto_.jmpfuncs.8801a71fe2dd437f,"",%progbits
  16 0000 789C6362 		.ascii	"x\234cb`b\300\006\276\00013\020\2631002012\202yL\325"
  16      6062C006 
  16      BE003133 
  16      10B33130 
  16      30323031 
  17 0019 0CBF1A66 		.ascii	"\014\277\032f4\010d22\31010\316m\230\341\220\011\222"
  17      34086432 
  17      32C83130 
  17      CE6D98E1 
  17      900992
  18 002c 0102A608 		.ascii	"\001\002\246\010\306LF\220I@.\023Ta\007H!s.D\001\310"
  18      C64C4690 
  18      49402E13 
  18      54610748 
  18      21732E44 
  19 0042 00B02296 		.ascii	"\000\260\"\226\206\011-\015,P\035\254\016P\006\033\023"
  19      86092D0D 
  19      2C501DAC 
  19      0E50061B 
  19      13
  20 0053 76F90646 		.ascii	"v\371\006F\230\002\001\354\012\024\260\310/\300j\000"
  20      980201EC 
  20      0A14B0C8 
  20      2FC06A00 
  21 0063 3342C10C 		.ascii	"3B\301\014l.\000\372\224\235\221\203\221\023\350]}\006"
  21      6C2E00FA 
  21      949D9183 
  21      9113E85D 
  21      7D06
  22 0075 00CFA524 		.ascii	"\000\317\245$U"
  22      55
  23              		.text
  24              		.section	.gnu.lto_.inline.8801a71fe2dd437f,"",%progbits
  25 0000 789C6362 		.ascii	"x\234cb`b\300\006\334\030!4\033\003\003;\033#\003\023"
  25      6062C006 
  25      DC182134 
  25      1B03033B 
  25      1B230313 
  26 0014 C7013B06 		.ascii	"\307\001;\006\266\005\362`\305\214\230BL\014\326\357"
  26      B605F260 
  26      C58C9842 
  26      4C0CD6EF 
ARM GAS  /tmp/ccBJVcRX.s 			page 2


  27 0024 81E24C0A 		.ascii	"\201\342L\012\177W02\010\034\016\206\010r\003\325N\360"
  27      7F573032 
  27      081C0E86 
  27      087203D5 
  27      4EF0
  28 0036 63E56360 		.ascii	"c\345c``\236\340\007$x\300|\020\305\004\344C\245Yx\201"
  28      609EE007 
  28      2478C07C 
  28      10C504E4 
  28      43A55978 
  29 004b 3240D584 		.ascii	"2@\325\204hv\220\255,\014\031\021\214\231\214\354@\241"
  29      687690AD 
  29      2C0C1911 
  29      8C998CEC 
  29      40A1
  30 005d 04867404 		.ascii	"\004\206t\004\223\021N\202\\\014q\026\343\013v\001&"
  30      93114E82 
  30      5C0C7116 
  30      E30B7601 
  30      26
  31 006e 06D60E75 		.ascii	"\006\326\016u\001\006\306\026v\005\026&\010\005r\031"
  31      0106C616 
  31      76051626 
  31      08057219 
  32 007e 079A5919 		.ascii	"\007\232Y\031\010\2632\300\246@H\007b\314\342d`afd\204"
  32      08B332C0 
  32      A6404807 
  32      62CCE264 
  32      60616664 
  33 0093 E8624152 		.ascii	"\350bAR\317\002!\301\241\010\000(8 \001"
  33      CF0221C1 
  33      A1080028 
  33      382001
  34              		.text
  35              		.section	.gnu.lto_.pureconst.8801a71fe2dd437f,"",%progbits
  36 0000 789C6362 		.ascii	"x\234cb`b\340e\200\0006\006)F)&)vV\016VNV\000\0059\000"
  36      6062E065 
  36      80003606 
  36      29462926 
  36      2976560E 
  37 001b 90       		.ascii	"\220"
  38              		.text
  39              		.section	.gnu.lto_mmc_lld_is_card_inserted.8801a71fe2dd437f,"",%progbits
  40 0000 789C6362 		.ascii	"x\234cb`b@\007\222@\374\031\210\005\200\230\221\231"
  40      60624007 
  40      9240FC19 
  40      88058098 
  40      9199
  41 0012 819169C2 		.ascii	"\201\221i\3029\006\206F\016&FF\020\203\201\221\241\236"
  41      39068646 
  41      0E264646 
  41      10838191 
  41      A19E
  42 0024 89B13E92 		.ascii	"\211\261>\222\021\254v=\323\201\007\377\377\257\273"
  42      11AC763D 
  42      D38107FF 
  42      FFAFBB
ARM GAS  /tmp/ccBJVcRX.s 			page 3


  43 0033 D6FA8A8D 		.ascii	"\326\372\212\215\215\211!\223\221\201\031D\260\200\010"
  43      8D892193 
  43      91811944 
  43      B08008
  44 0042 56200152 		.ascii	"V \001R\304\312\320\322\3200A\201\201!\031\254%\004"
  44      C4CAD0D2 
  44      D0304181 
  44      812119AC 
  44      2504
  45 0054 4882CC09 		.ascii	"H\202\314\011ed\002\321\314g\031\016\335\2321\233/\221"
  45      656402D1 
  45      CC67190E 
  45      DD9A319B 
  45      2F91
  46 0066 7121232B 		.ascii	"q!#+C:#\2236\303\252\206\026\306LF\246\331\014\263\200"
  46      433A2393 
  46      36C3AA86 
  46      16C64C46 
  46      A6D90CB3 
  47 007b 14730490 		.ascii	"\024s\004\220`iX\320\322\300\302\000f\202\255Mb\204"
  47      606958D0 
  47      D2C0C200 
  47      6682AD4D 
  47      6284
  48 008d 39F62C43 		.ascii	"9\366,C\363:f\230ff\240~\220\"Vv\210\314n\270\014K:"
  48      F33A6698 
  48      6666A07E 
  48      90225676 
  48      88CC6EB8 
  49 00a4 C4240646 		.ascii	"\304$\006F\210\314\215f1\230\024+P\026,\005\002\027"
  49      88CC8D66 
  49      3198142B 
  49      50162C05 
  49      0217
  50 00b6 1918E1E2 		.ascii	"\031\030\341\342\020\013B\200\236\000\272\023\024L|"
  50      100B4280 
  50      9E00BA13 
  50      144C7C
  51 00c5 C529B9B9 		.ascii	"\305)\271\271\311\305\231\271\0059\251z\311\014\000"
  51      C9C599B9 
  51      0539A97A 
  51      C90C00
  52 00d4 D43139FB 		.ascii	"\32419\373"
  53              		.text
  54              		.section	.gnu.lto_mmc_lld_is_write_protected.8801a71fe2dd437f,"",%progbits
  55 0000 789C6362 		.ascii	"x\234cb`b@\007\222@\374\031\210\005\200\230\221\231"
  55      60624007 
  55      9240FC19 
  55      88058098 
  55      9199
  56 0012 819169C2 		.ascii	"\201\221i\3029\006\206F\016&FF\020\203\201\221\241\236"
  56      39068646 
  56      0E264646 
  56      10838191 
  56      A19E
  57 0024 89B13E92 		.ascii	"\211\261>\222\021\254v=\323\201\007\377\377\257\373"
  57      11AC763D 
ARM GAS  /tmp/ccBJVcRX.s 			page 4


  57      D38107FF 
  57      FFAFFB
  58 0033 D6FA8A9D 		.ascii	"\326\372\212\235\215\211!\223\221\201\031D\260\200\010"
  58      8D892193 
  58      91811944 
  58      B08008
  59 0042 56200152 		.ascii	"V \001R\304\312\320\322\3200A\201\201!\031\254%\004"
  59      C4CAD0D2 
  59      D0304181 
  59      812119AC 
  59      2504
  60 0054 4882CC09 		.ascii	"H\202\314\011ed\002\321\314g\031\016\335\232q\237/\221"
  60      656402D1 
  60      CC67190E 
  60      DD9A719F 
  60      2F91
  61 0066 7121232B 		.ascii	"q!#+C:#\2236\303\252\206\026\306LF\246\331\014\263\200"
  61      433A2393 
  61      36C3AA86 
  61      16C64C46 
  61      A6D90CB3 
  62 007b 14730490 		.ascii	"\024s\004\220`i\230\320\322\300\302\000f\202\255Mb\204"
  62      606998D0 
  62      D2C0C200 
  62      6682AD4D 
  62      6284
  63 008d 39F62C43 		.ascii	"9\366,C\363:f\230ff\240~\220\"VN\210\314n\270\014K:"
  63      F33A6698 
  63      6666A07E 
  63      9022564E 
  63      88CC6EB8 
  64 00a4 C4240646 		.ascii	"\304$\006F\210\314\371f1\230\024+P\026,\005\002\027"
  64      88CCF966 
  64      3198142B 
  64      50162C05 
  64      0217
  65 00b6 1918E1E2 		.ascii	"\031\030\341\342\020\013B\200\236\000\272\023\024L|"
  65      100B4280 
  65      9E00BA13 
  65      144C7C
  66 00c5 C529B9B9 		.ascii	"\305)\271\271\311\305\231\271\0059\251z\311\014\000"
  66      C9C599B9 
  66      0539A97A 
  66      C90C00
  67 00d4 190C3A49 		.ascii	"\031\014:I"
  68              		.text
  69              		.section	.gnu.lto_sdmmcInitialize.8801a71fe2dd437f,"",%progbits
  70 0000 789C9555 		.ascii	"x\234\225U\315KTQ\024?\347\276\017g\374\236r\322\234"
  70      CD4B5451 
  70      143FE7BE 
  70      0F67FC9E 
  70      72D29C
  71 0013 1CA7960A 		.ascii	"\034\247\226\012\365\027\004.\335\012\012}\320\302^"
  71      F517042E 
  71      DD0A0A7D 
  71      D0C25E
  72 0022 110F1A28 		.ascii	"\021\017\032([\272\360NM\022\021$\0214d\221&\030(\344"
ARM GAS  /tmp/ccBJVcRX.s 			page 5


  72      5BBAF04E 
  72      4D121124 
  72      11346491 
  72      261828E4 
  73 0036 2A183469 		.ascii	"*\0304i\222\026QTXP\351\312M\213@\210v~\024\3239\367"
  73      92165154 
  73      5850E9CA 
  73      4D8B4088 
  73      767E14D3 
  74 004c DEF774C6 		.ascii	"\336\367t\306\257|0\367\236w\357\371\375\316\357\236"
  74      AF7C30F7 
  74      9E77EFF9 
  74      FDCEEF9E 
  75 005c 73DE1D01 		.ascii	"s\336\035\001\002\312\2373\364\353\254\000h\244\031"
  75      02CA9F33 
  75      F4EBAC00 
  75      68A419
  76 006b A38062E8 		.ascii	"\243\200b\350#@&\"\2045\235\004Y\031\371z\002d\265%"
  76      23402622 
  76      84359D04 
  76      5919F97A 
  76      0264B525 
  77 007f D45C69F3 		.ascii	"\324\\i\363Z\265-\234\007\365\364\346\256\236\2447\007"
  77      5AB52D9C 
  77      07F5F4E6 
  77      AE9EA437 
  77      07
  78 0090 231AE206 		.ascii	"#\032\342\006F\004\221\015@\030\020\226\355\270\021"
  78      4604910D 
  78      40181096 
  78      EDB811
  79 009f 1C388D1C 		.ascii	"\0348\215\034\013\217\301\250\224\367\226~\214\317\343"
  79      0B8FC1A8 
  79      94F7967E 
  79      8CCFE3
  80 00ae 0359C88C 		.ascii	"\003Y\310\214\310?\305\"\242\217\244+\206\340!\234\242"
  80      C83FC522 
  80      A28FA42B 
  80      86E0219C 
  80      A2
  81 00bf 178CA849 		.ascii	"\027\214\250I`\251\320)QX*\026\357\314f?\267\037E\360"
  81      60A9D029 
  81      51582A16 
  81      EFCC663F 
  81      B71F45F0 
  82 00d3 D1B2318D 		.ascii	"\321\2621\215PG\226\035\343!\316C#o4\321\3404C/\216"
  82      5047961D 
  82      E321CE43 
  82      236F34D1 
  82      E034432F 
  83 00e8 52C0042F 		.ascii	"R\300\004/'ip[yH\361@l\016d\245\034J\001\007\245\247"
  83      2769705B 
  83      7948F140 
  83      6C0E64A5 
  83      1C4A0107 
  84 00fe 9B46D6DC 		.ascii	"\233F\326\334\203\202g\353\003\\_\2731y7\331\213c\350"
  84      838267EB 
ARM GAS  /tmp/ccBJVcRX.s 			page 6


  84      035C5FBB 
  84      317937D9 
  84      8B63E8
  85 0111 403B4C48 		.ascii	"@;LHz\352\210i\030\036\222\266\212Kh\263\306\210Rv\336"
  85      7AEA8869 
  85      181E92B6 
  85      8A4B68B3 
  85      C6885276 
  86 0126 28ED8735 		.ascii	"(\355\2075yK\312.rK\243^S<S[y\242\333\363`\031O4\215"
  86      794BCA2E 
  86      724BA35E 
  86      533C535B 
  86      79A2DBF3 
  87 013f 22E0C9E7 		.ascii	"\"\340\311\347\326\337\212r\036g{\036\015\342\025'@"
  87      D6DF8A72 
  87      1E677B1E 
  87      0DE21527 
  87      40
  88 0150 E7B7415B 		.ascii	"\347\267A[\333\243\255\020m\031\364\373\225\365\002"
  88      DBA3AD10 
  88      6D19F4FB 
  88      95F502
  89 015f 6A344132 		.ascii	"j4A2R\326\223\267\226IVeZ92\240RA\211\017\340\023\014"
  89      52D693B7 
  89      96495665 
  89      5A3932A0 
  89      5241890F 
  90 0176 2EAD8E19 		.ascii	".\255\216\031Tp(\362\256\362\3141\331\277Z\346\262\322"
  90      547028F2 
  90      AEF2CC31 
  90      D9BF5AE6 
  90      B2D2
  91 0188 56A6DBA1 		.ascii	"V\246\333\241\246\032\227*T\253\340#k\326^\350\221\020"
  91      A61A972A 
  91      54ABE023 
  91      6BD65EE8 
  91      9110
  92 019a 2D75F3D4 		.ascii	"-u\363\324X\033\360\365=\341C!<\245\321\365\033\350"
  92      581BF0F5 
  92      3DE14321 
  92      3CA5D1F5 
  92      1BE8
  93 01ac 3FFB4007 		.ascii	"?\373@\007\3017\301\377\356\003nN.4\232\362\275\270"
  93      C137C1FF 
  93      EE036E4E 
  93      2E349AF2 
  93      BDB8
  94 01be F274DE54 		.ascii	"\362t\336T\353\022\326\265C\233\356<J\274<\273S\367"
  94      EB12D6B5 
  94      439BEE3C 
  94      4ABC3CBB 
  94      53F7
  95 01d0 71D86CA1 		.ascii	"q\330l\241mK\324:\317\264\0031\371X\257\371sc?1\340"
  95      6D4BD43A 
  95      CFB40331 
  95      F958AFF9 
  95      73633F31 
ARM GAS  /tmp/ccBJVcRX.s 			page 7


  96 01e5 8F95F077 		.ascii	"\217\225\360w\355\306\177\263\320\262\205?\346\231\206"
  96      EDC67FB3 
  96      D0B2853F 
  96      E69986
  97 01f4 2126D3B9 		.ascii	"!&\323\271W}<\220F\333\270\372x\220\203\316-\346\206"
  97      577D3C90 
  97      46DBB8FA 
  97      789083CE 
  97      2DE686
  98 0207 6BC3CF4E 		.ascii	"k\303\317N\033\362\325\375N\000\355\347q\3230K\222\033"
  98      1BF2D5FD 
  98      4E00EDE7 
  98      71D3304B 
  98      921B
  99 0219 349B292C 		.ascii	"4\233),\020M\003\253\032\3420\361\262\202W\033q6\343"
  99      104D03AB 
  99      1AE230F1 
  99      B282571B 
  99      7136E3
 100 022c 67833EBF 		.ascii	"g\203>\277\361\234\322\376R\035\253\225\230\330\361"
 100      F19CD2FE 
 100      521DAB95 
 100      98D8F1
 101 023b 5085DE99 		.ascii	"P\205\336\231\011wR\264\251\362\316'{\013\331\345\327"
 101      097752B4 
 101      A9F2CE27 
 101      7B0BD9E5 
 101      D7
 102 024c 4FDE5941 		.ascii	"O\336YA6Rjg\363\305\323C\347\233N\322\2250\227\317\217"
 102      36526A67 
 102      F3C5D343 
 102      E79B4ED2 
 102      953097CF 
 103 0261 C7CC09F4 		.ascii	"\307\314\011\364\345\022h\247G\211F\255\030C\271\271"
 103      E51268A7 
 103      478946AD 
 103      1843B9B9 
 104 0271 72B94ED8 		.ascii	"r\271N\330\000TuS\213g\253T\213\202\212\036/\251E\317"
 104      00547553 
 104      8B67AB54 
 104      8B828A1E 
 104      2FA945CF 
 105 0285 EEB56E0D 		.ascii	"\356\265n\015P\215a1\032=\023\201\250|l\322\307\313"
 105      508D6131 
 105      1A3D1381 
 105      A87C6CD2 
 105      C7CB
 106 0297 4443C7F0 		.ascii	"DC\307\360\243\3368\234\015\277\252,\245cbCG\223\322"
 106      A3DE389C 
 106      0DBFAA2C 
 106      A5636243 
 106      4793D2
 107 02aa E1ECAC43 		.ascii	"\341\354\254C\204:\006\013n\200j\016u\034\366L\016\211"
 107      843A060B 
 107      6E806A0E 
 107      751CF64C 
 107      0E89
ARM GAS  /tmp/ccBJVcRX.s 			page 8


 108 02bc 8A177352 		.ascii	"\212\027sR\366\373\330\234\204\370c\231\353\3601\001"
 108      F6FBD89C 
 108      84F86399 
 108      EBF03101 
 109 02cc 1AA33271 		.ascii	"\032\2432q\204{\244\305\224\342\313m\021\322\361&\224"
 109      847BA4C5 
 109      94E2CB6D 
 109      11D2F126 
 109      94
 110 02dd AA756046 		.ascii	"\252u`F(\265+\023\013\241c\242$k\347v\317Z\273\211\014"
 110      28B52B13 
 110      0BA163A2 
 110      246BE776 
 110      CF5ABB89 
 111 02f2 9B935661 		.ascii	"\233\223Va\304&T\322t(\027^D9T\376\373\344o\223\030"
 111      C42654D2 
 111      7428175E 
 111      443954FE 
 111      FBE46F93 
 112 0307 737546FF 		.ascii	"suF\377\347\352\304PsD\375\245\314\323?#\207P\353\013"
 112      E7EAC450 
 112      7344FDA5 
 112      CCD33F23 
 112      8750EB0B 
 113 031b 80A614D6 		.ascii	"\200\246\024\326\362\227&c:oz\014\322}\364\255\301\230"
 113      F2972663 
 113      3A6F7A0C 
 113      D27DF4AD 
 113      C198
 114 032d 9CE86E02 		.ascii	"\234\350n\002\021\005\233\265\327.\244\323\3365?}\345"
 114      11059BB5 
 114      D72EA4D3 
 114      DE353F7D 
 114      E5
 115 033e F2C5E31E 		.ascii	"\362\305\343\036X\027\373\372\304\011\370\007\205*\246"
 115      5817FBFA 
 115      C409F807 
 115      852AA6
 116 034d 9E       		.ascii	"\236"
 117              		.text
 118              		.section	.gnu.lto_sdmmGetMMCDriver.8801a71fe2dd437f,"",%progbits
 119 0000 789C6D50 		.ascii	"x\234mP=K\003A\020}ovOE$*\330\330\245\024\0036\026\376"
 119      3D4B0341 
 119      107D6F76 
 119      4F45242A 
 119      D8D8A514 
 120 0018 911C68A9 		.ascii	"\221\034h\251\0279\016r \344\007d#\367\003RX\2106\246"
 120      17390E72 
 120      20E40764 
 120      23F70352 
 120      588836A6 
 121 002c 0B2912D0 		.ascii	"\013)\022\320?`%\202\030Hyba\231\302\037\220.\231]\211"
 121      3F602582 
 121      18487962 
 121      6199C21F 
 121      902E995D 
 122 0041 A838B03B 		.ascii	"\2508\260;3\273\357\275\371\020\010\376\332\241\236"
ARM GAS  /tmp/ccBJVcRX.s 			page 9


 122      33BBEFBD 
 122      F91008FE 
 122      DAA19E
 123 0050 5D025BEA 		.ascii	"]\002[\352\031\201\322\035\003\2355\021\323\177\002"
 123      1981D21D 
 123      039D3511 
 123      D37F02
 124 005f DCBA9DAE 		.ascii	"\334\272\235\256\302m\030\332\257wK\372\000D[\214e\373"
 124      C26D18DA 
 124      AF774BFA 
 124      00445B8C 
 124      65FB
 125 0071 84416524 		.ascii	"\204Ae$\217\037\363\371\360\352\345nLY!2\3020'\254F"
 125      8F1FF3F9 
 125      F0EAE56E 
 125      4C592132 
 125      C23027AC 
 126 0086 AA9A0554 		.ascii	"\252\232\005T\204\302\271n\025HBZ\327\333k\305\024\357"
 126      84C2B96E 
 126      1548425A 
 126      D7DB6BC5 
 126      14EF
 127 0098 CD2B2EDF 		.ascii	"\315+.\337f\367\023\236\262\247\224\224\266\206}e\337"
 127      66F7139E 
 127      B2A79494 
 127      B6867D65 
 127      DF
 128 00a9 E2861925 		.ascii	"\342\206\031%\2459VoB\2713.\333\177F\361\331\331\374"
 128      A539566F 
 128      42B9332E 
 128      DB7F46F1 
 128      D9D9FC
 129 00bc A678087F 		.ascii	"\246x\010\177\216\027+C\007\011\342\327\017\333K`T\303"
 129      8E172B43 
 129      0709E2D7 
 129      0FDB4B60 
 129      54C3
 130 00ce C0A91D69 		.ascii	"\300\251\035ig\377\027\340/\021\033:\234\350\002\240"
 130      67FF17E0 
 130      2F111B3A 
 130      9CE802A0 
 131 00de ECF05782 		.ascii	"\354\360W\202\252c\366<ISy/w\374L\364H\277\346J\253"
 131      AA63F63C 
 131      4953792F 
 131      77FC4CF4 
 131      48BFE64A 
 132 00f3 91E7492B 		.ascii	"\221\347I+\313/\232\347\007\011\026\214,E\021"
 132      CB2F9AE7 
 132      0709168C 
 132      2C4511
 133              		.text
 134              		.section	.gnu.lto_sdmmcGetFS.8801a71fe2dd437f,"",%progbits
 135 0000 789C6D50 		.ascii	"x\234mP\315J\202A\024=\347\316|\025\021V\320\246]\313"
 135      CD4A8241 
 135      143DE7CE 
 135      7C151156 
 135      D0A65DCB 
ARM GAS  /tmp/ccBJVcRX.s 			page 10


 136 0014 4868D3A2 		.ascii	"Hh\323\242\027Q\310e}\206|\340\007\201\017\340\030>"
 136      1751C865 
 136      7D867CE0 
 136      07810FE0 
 136      183E
 137 0026 804BC916 		.ascii	"\200K\311\026\272\213\026\265\014\302E\253\010B\301"
 137      BA8B16B5 
 137      0CC245AB 
 137      0842C1
 138 0035 6542E052 		.ascii	"eB\340R\304\007p\247w&\214\022/\314\334{g\3169\367G"
 138      C40770A7 
 138      77268C12 
 138      2FCCDC7B 
 138      67CE39F7 
 139 004a 2058B533 		.ascii	" X\2653=\207\004\366\3243\002\245\321\007j[\"\346\341"
 139      3D8704F6 
 139      D43302A5 
 139      D1076A5B 
 139      22E6E1
 140 005d 1D70DB76 		.ascii	"\035p\333v\274\011\267ch\177\336-\351\003\020U1\226"
 140      BC09B763 
 140      687FDE2D 
 140      E9031055 
 140      3196
 141 006f D50283CA 		.ascii	"\325\002\203\312\263\274\215\346\363\247\356g{B\331"
 141      B3BC8DE6 
 141      F3A7EE67 
 141      7B42D9
 142 007e 2012C230 		.ascii	" \022\3020%\254F\252\232\004T\204\272s\215# \016iNo"
 142      25AC46AA 
 142      9A045484 
 142      BA738D23 
 142      200E694E 
 143 0093 AF95A778 		.ascii	"\257\225\247xoz\270\035\316^\006\274dG)%\332,N\224\335"
 143      6F7AB81D 
 143      CE5E06BC 
 143      64472925 
 143      DA2C4E94 
 144 00a8 C21D134A 		.ascii	"\302\035\023J\211\346B\275\011\345\256\270l\377\003"
 144      89E642BD 
 144      09E5AEB8 
 144      6CFF03
 145 00b7 F5696DF7 		.ascii	"\365im\367\227\342!\374;^^\031:H\020o\276\356/\201Q"
 145      97E221FC 
 145      3B5E5E19 
 145      3A48106F 
 145      BEEE2F81 
 146 00cc 168F4EED 		.ascii	"\026\217N\355\\;[_\200\377Dl\350p\240\013\200\262\303"
 146      5C3B5B5F 
 146      80FF446C 
 146      E870A00B 
 146      80B2C3
 147 00df DF17A83A 		.ascii	"\337\027\250:\346\330\2234\225\373\357\003?\023=\322"
 147      E6D89334 
 147      95FBEF03 
 147      3F133DD2 
 148 00ef AF395329 		.ascii	"\2579S)\246i\\I\322\233\362\365i\214\005\327]E%"
ARM GAS  /tmp/ccBJVcRX.s 			page 11


 148      A6695C49 
 148      D29BF2F5 
 148      698C05D7 
 148      5D4525
 149              		.text
 150              		.section	.gnu.lto_sdmmcFSMounted.8801a71fe2dd437f,"",%progbits
 151 0000 789C6362 		.ascii	"x\234cb`b@\007\222@<\003\210\005\200\230\221\231\201"
 151      60624007 
 151      92403C03 
 151      88058098 
 151      919981
 152 0013 9169C239 		.ascii	"\221i\3029\006\206F\016&FF\020\203\201\221\241\236\211"
 152      0686460E 
 152      26464610 
 152      838191A1 
 152      9E89
 153 0025 B13E9211 		.ascii	"\261>\222\021\254v=\323\201\007\377\377\257\373rz\301"
 153      AC763DD3 
 153      8107FFFF 
 153      AFFB727A 
 153      C1
 154 0036 1F462616 		.ascii	"\037F&\026&\306\\F\006f\206L\260\034+CKC\303\004\005"
 154      26C65C46 
 154      0666864C 
 154      B01C2B43 
 154      4B43C304 
 155 004b 06866430 		.ascii	"\006\206d07\004H\202\364\20722\201h\346\263\014M\267"
 155      37044882 
 155      F4873232 
 155      8168E6B3 
 155      0C4DB7
 156 005e 7EEC534C 		.ascii	"~\354SLd\\\310\310\312\220\316\310\254\315\260\252\001"
 156      645CC8C8 
 156      CA90CEC8 
 156      ACCDB0AA 
 156      01
 157 006f 08AC819A 		.ascii	"\010\254\201\232g3\314b\314ddLgd\212\000\322\020\007"
 157      6733CC62 
 157      CC64644C 
 157      67648A00 
 157      D21007
 158 0082 2631C29C 		.ascii	"&1\302\234w\221\241\361\000\013\\\033D,\204\221\021"
 158      7791A1F1 
 158      000B5C1B 
 158      442C8491 
 158      11
 159 0093 64284829 		.ascii	"d(H)_qJnnrqfnAN\252^2\003\000=|+V"
 159      5F714A6E 
 159      6E727166 
 159      6E414EAA 
 159      5E320300 
 160              		.text
 161              		.section	.gnu.lto_.symbol_nodes.8801a71fe2dd437f,"",%progbits
 162 0000 789C4DCC 		.ascii	"x\234M\314I\012\302@\020\205\341\367\252\323q\236N\340"
 162      490AC240 
 162      1085E1F7 
 162      AAD3719E 
ARM GAS  /tmp/ccBJVcRX.s 			page 12


 162      4EE0
 163 0012 DA539610 		.ascii	"\332S\226\020P\227\236\300\215G\011\210\032\215\263"
 163      50979EC0 
 163      8D470988 
 163      1A8DB3
 164 0021 D1A564EB 		.ascii	"\321\245d\353\031\304\014b\2476?\037E\225@0\"\312\221"
 164      19C40C62 
 164      A7363F1F 
 164      45954030 
 164      22CA91
 165 0034 3D1598C7 		.ascii	"=\025\230\307\200\352bF\211\251\254\360@\025G\273&="
 165      80EA6246 
 165      89A9ACF0 
 165      401547BB 
 165      263D
 166 0046 35F64281 		.ascii	"5\366B\201\302nhr\355\210,r\244\232\312\345\211\352"
 166      C26E6872 
 166      ED882C72 
 166      A49ACAE5 
 166      89EA
 167 0058 5578A6DA 		.ascii	"Ux\246\332\312\243-\275\3744\242\315\302'\325/\227\343"
 167      CAA32DBD 
 167      FC34A2CD 
 167      C227D52F 
 167      97E3
 168 006a 31F9A0D6 		.ascii	"1\371\240\326\234\022j\335\351Nm8\335\250M\247+\265"
 168      9C126ADD 
 168      E94E6D38 
 168      DDA84DA7 
 168      2BB5
 169 007c F5979101 		.ascii	"\365\227\221\001\226\257O\321\360\327\364\327`\362\036"
 169      96AF4FD1 
 169      F0D7F4D7 
 169      60F21E
 170 008b 16FBA27D 		.ascii	"\026\373\242}\244E{XN\363v\021D+\337H\007i\224\210\221"
 170      A4457B58 
 170      4EF37611 
 170      442BDF48 
 170      07699488 
 171 00a0 36C27888 		.ascii	"6\302x\210/\352\323V\272"
 171      2FEAD356 
 171      BA
 172              		.text
 173              		.section	.gnu.lto_.refs.8801a71fe2dd437f,"",%progbits
 174 0000 789C6362 		.ascii	"x\234cb`b\020f\200\000\026&&f&\026FV&6f6&\026&.&n\006"
 174      60621066 
 174      80001626 
 174      26662616 
 174      46562636 
 175 001d 00050A00 		.ascii	"\000\005\012\000_"
 175      5F
 176              		.text
 177              		.section	.gnu.lto_.decls.8801a71fe2dd437f,"",%progbits
 178 0000 789CBD5C 		.ascii	"x\234\275\\yt\024U\272\257\252^\262\032\002\032E\307"
 178      79741455 
 178      BAAFAA5E 
 178      B21A021A 
ARM GAS  /tmp/ccBJVcRX.s 			page 13


 178      45C7
 179 0012 79F4CC38 		.ascii	"y\364\3148s<\363f\014\240\2438\347\275QH\002\344I\022"
 179      733CF366 
 179      0CA0A338 
 179      E7BD5148 
 179      02E44912 
 180 0026 4E2738FA 		.ascii	"N'8\372\307;m\321]\201\036\263Mw\263\275\367\307\024"
 180      C73B6DD1 
 180      5D811EB3 
 180      4D77B3BD 
 180      F7C714
 181 0039 04832022 		.ascii	"\004\203 \"\213\354H\202\200 * {\010\204\006\025\002"
 181      8BEC4882 
 181      80202A20 
 181      7B088406 
 181      1502
 182 004b 28069025 		.ascii	"(\006\220%`$\003\316\014\342\310\000\262\207\220\367"
 182      602403CE 
 182      0CE2C800 
 182      B28790F7 
 183 005b DDEF5675 		.ascii	"\335\357Vu-\251\352\256\2123\257\317\251\257\252n\327"
 183      2DA9EAAE 
 183      8A33AFCF 
 183      A9AFAA6E 
 183      D7
 184 006c FDDD6FBB 		.ascii	"\375\335o\273\337\375\356\255\205c8f5\3070\235\360c"
 184      DFFDEEAD 
 184      85633866 
 184      35C7309D 
 184      F063
 185 007e 79867936 		.ascii	"y\206y6\235a\222\030\206\371\035l\311\260-\203\355m"
 185      9D619218 
 185      86F91D6C 
 185      C9B02D83 
 185      ED6D
 186 0090 D856C3F6 		.ascii	"\330V\303\366\036l\327\031\372\377U\226an\300F~P\205"
 186      1E6CD719 
 186      FAFF5596 
 186      616EC046 
 186      7E5085
 187 00a3 B90DC77E 		.ascii	"\271\015\307~\300\031\005\333z\330\266\300\266\003\266"
 187      C01905DB 
 187      7AD8B6C0 
 187      B603B6
 188 00b2 286C7B60 		.ascii	"(l{`\273\015\333\035\330X\007\303\270`sC\235\014\330"
 188      BB0DDB1D 
 188      D85807C3 
 188      B8607343 
 188      9D0CD8
 189 00c5 FF18B65E 		.ascii	"\377\030\266^\260\365\201\355~\330\036r0\232\037\301"
 189      B0F581ED 
 189      7ED81E72 
 189      309A1FC1 
 190 00d5 754B6D92 		.ascii	"uKm\222\366\332`\177J\342\303\011\033a\341\202\264\277"
 190      F6DA607F 
 190      4AE2C309 
 190      1B61E182 
ARM GAS  /tmp/ccBJVcRX.s 			page 14


 190      B4BF
 191 00e7 CD325D7E 		.ascii	"\3152]~\204'\253\365\311\265\372\037\221\347\337`\377"
 191      8427ABF5 
 191      C9B5FA1F 
 191      91E7DF60 
 191      FF
 192 00f8 31EC3324 		.ascii	"1\3543$Y\011N\007lc8\212\3732\354\377\000\333\0068\376"
 192      59094E07 
 192      6C63388A 
 192      FB32ECFF 
 192      00DB0638 
 193 010d 09F0FF53 		.ascii	"\011\360\377S\007\305':r\303\361\317`\343`{\304Au\330"
 193      07C5273A 
 193      72C3F1CF 
 193      60E3607B 
 193      C44175D8 
 194 0121 C1297C10 		.ascii	"\301)|\020\036~\016\345\355p\355/\034Z}\177$\361\376"
 194      1E7E0EE5 
 194      ED70ED2F 
 194      1C5A7D7F 
 194      24F1FE
 195 0134 47D88760 		.ascii	"G\330\207`\213\300\266\206\243\374^\222\354C\370#\372"
 195      8BC0B686 
 195      A3FC5E92 
 195      EC43F823 
 195      FA
 196 0145 247A25FA 		.ascii	"$z%\372%:\270-\351\234\350\336\005\327|\300i\365\234"
 196      253AB82D 
 196      E99CE8DE 
 196      05D77CC0 
 196      69F59C
 197 0158 A1D331B1 		.ascii	"\241\3231\261\027\341\243C\262\251,\017Q\007\361\015"
 197      17E1A343 
 197      B2A92C0F 
 197      5107F10D 
 198 0168 D23E2B5D 		.ascii	"\322>+]G\366\233tz\332\"\325'\372\320\327_#\361\315"
 198      47F69B74 
 198      7ADA22D5 
 198      27FAD0D7 
 198      5F23F1CD 
 199 017c 4AD791FD 		.ascii	"J\327\221\375v]}\342'\016F[\227\225\352\262\322\377"
 199      765D7DE2 
 199      270E465B 
 199      9795EAB2 
 199      D2FF
 200 018e 64DFA8AB 		.ascii	"d\337\250\253\227\306L\023\305Ib]\2158\264)\243'3S\204"
 200      97C64C13 
 200      C549625D 
 200      8D38B429 
 200      A3273353 
 201 01a3 5FDDB30B 		.ascii	"_\335\263\0132R\230WIy\333J\261wo\206y\201\345Y(J\306"
 201      32529857 
 201      4979DB4A 
 201      B1776F86 
 201      7981E559 
 202 01ba 83F41444 		.ascii	"\203\364\024D\3729\263\002\256\205\012\034\317.gS\200"
 202      FA39B302 
ARM GAS  /tmp/ccBJVcRX.s 			page 15


 202      AE850A1C 
 202      CF2E6753 
 202      80
 203 01cb 53CEC077 		.ascii	"S\316\300w\310\217\376\377K\346]z\375Y\375e\004\224"
 203      C88FFEFF 
 203      4BE65D7A 
 203      FD59FD65 
 203      0494
 204 01dd 5CA11C75 		.ascii	"\\\241\034u\262\26163\34569\011\353m\266'\036!\207\242"
 204      B2B13633 
 204      E5363909 
 204      EB6DB627 
 204      1E2187A2 
 205 01f1 C4395E21 		.ascii	"\3049^!\325\360\3105\234R\215U\210\315\310\305\214Z"
 205      D5F0C835 
 205      9C528D55 
 205      88CDC8C5 
 205      8C5A
 206 0203 0AB9DCA8 		.ascii	"\012\271\334\250\33626MfQ\245\216\005\031q\3641\263"
 206      DE32364D 
 206      6651A58E 
 206      051971F4 
 206      31B3
 207 0215 6D67DD2D 		.ascii	"mg\335-N\024\223yv5\352d\010\013@\357\260\277\214\251"
 207      4E149379 
 207      7635EA64 
 207      080B40EF 
 207      B0BF8CA9 
 208 0229 42E2457D 		.ascii	"B\342E}._@\300bj\220\264\240\261O/f\026\021\331\323"
 208      2E5F40C0 
 208      626A90B4 
 208      A0B14F2F 
 208      661611D9 
 209 023e A4B0F092 		.ascii	"\244\260\360\222\314B\272\302B}\315W\375\220\205\367"
 209      CC42BAC2 
 209      427DCD57 
 209      FD9085F7 
 210 024e D95EC042 		.ascii	"\331^\300B5\253\345!\021\012\341j\035\324\244u\250\231"
 210      35ABE521 
 210      110AE16A 
 210      1DD4A475 
 210      A899
 211 0260 A3BBF6A6 		.ascii	"\243\273\366\246\213NZ\316h\3204\277\2370u\300m\364"
 211      8B4E5ACE 
 211      68D034BF 
 211      9F3075C0 
 211      6DF4
 212 0272 44CD5B0F 		.ascii	"D\315[\017\212u{\330D\314\213\016\271\335\276\012\367"
 212      8A757BD8 
 212      44CC8B0E 
 212      B9DDBE0A 
 212      F7
 213 0283 DBA79D70 		.ascii	"\333\247\235p#\367\033\221\373#\211\271\327\302\360"
 213      23F71B91 
 213      FB2389B9 
 213      D7C2F0
 214 0292 EC669603 		.ascii	"\354f\226\003\272E/\302\265\305(\302\026K\"t\234^\372"
ARM GAS  /tmp/ccBJVcRX.s 			page 16


 214      BA452FC2 
 214      B5C528C2 
 214      164B2274 
 214      9C5EFA
 215 02a5 80D81665 		.ascii	"\200\330\026e\223\230\0324\374+\223\022\031\376\326"
 215      93981A34 
 215      FC2B9312 
 215      19FED6
 216 02b4 8C2FA8D6 		.ascii	"\214/\250\326\353\241\022\307\274\301i\371\266\000D"
 216      EBA112C7 
 216      BCC169F9 
 216      B60044
 217 02c3 B8DA0195 		.ascii	"\270\332\001\2255\\o\256\351A\270&\345q\270v0\030+\026"
 217      355C6FAE 
 217      E941B826 
 217      E571B876 
 217      30182B16 
 218 02d7 41A304D0 		.ascii	"A\243\004\320\231\242\224\255T\312X\325\245k\225bNU"
 218      99A294AD 
 218      54CA58D5 
 218      A56B9562 
 218      4E55
 219 02e9 BC4D2976 		.ascii	"\274M)v\250\212?R\212\235\252^\243\367V\215g+\242\360"
 219      A88A3F52 
 219      8A9DAA5E 
 219      A3F7568D 
 219      672BA2F0 
 220 02fd EC4EF6E7 		.ascii	"\354N\366\347@\033Y\207a5\216iFm\021\323\030)&\326q"
 220      401B5987 
 220      61358E69 
 220      466D11D3 
 220      182926D6 
 221 0312 E5763362 		.ascii	"\345v3b\235\210\232\253\255a\332'\177c\347T\213M}\215"
 221      9D889AAB 
 221      AD61DA27 
 221      7F63E754 
 221      8B4D7D8D 
 222 0326 7C0E2E61 		.ascii	"|\016.a\343\367\231\350\351\323\254'Q\307\340\331OA"
 222      E3F799E8 
 222      E9D3AC27 
 222      51C7E0D9 
 222      4F41
 223 0338 0C2BDDE7 		.ascii	"\014+\335\347\220\336\367\346\237F\337;d\311\367jO/"
 223      90DEF7E6 
 223      9F46DF3B 
 223      64C9F76A 
 223      4F2F
 224 034a EDDA7DEE 		.ascii	"\355\332}\356g\346J\341Nd#<\373\273,\323\260u\204\275"
 224      67E64AE1 
 224      4E64233C 
 224      FBBB2CD3 
 224      B07584BD 
 225 035e 5FF10952 		.ascii	"_\361\011R\260\001\220xv\2042b\031\325\224\364\320\261"
 225      B0019078 
 225      76843262 
 225      19D594F4 
 225      D0B1
ARM GAS  /tmp/ccBJVcRX.s 			page 17


 226 0370 E83EC2E8 		.ascii	"\350>\302\350a\250\3021\307u>\254a\2106d\306\304ql\323"
 226      61A8C231 
 226      C7753EAC 
 226      61883664 
 226      C6C4716C 
 227 0385 48CE2EFF 		.ascii	"H\316.\377q\314\327\330\316!\305\372\032\270\204\326"
 227      71CCD7D8 
 227      CE21C5FA 
 227      1AB884D6 
 228 0395 8FD61B29 		.ascii	"\217\326\033)\314\300Nm\254\014\366pL\342\266\255\363"
 228      CCC04E6D 
 228      AC0CF670 
 228      4CE2B6AD 
 228      F3
 229 03a6 AFF5A906 		.ascii	"\257\365\251\006\245\362\354)\0148+\035\011\003\216"
 229      A5F2EC29 
 229      0C382B1D 
 229      09038E
 230 03b5 168788D4 		.ascii	"\026\207\210\324\2527\370\306\316&\026\243Akb\223O\256"
 230      AA37F8C6 
 230      CE2616A3 
 230      416B6293 
 230      4FAE
 231 03c7 8E6EED6C 		.ascii	"\216n\355l\342\026\212\321\311\016\034h\252%\021\342"
 231      E2168AD1 
 231      C90E1C68 
 231      AA2511E2 
 232 03d7 59AAEDD8 		.ascii	"Y\252\355\330\342Ov\263\223\200qil\212W\205g\377\214"
 232      E24F76B3 
 232      93807169 
 232      6C8A5785 
 232      67FF8C
 233 03ea 1D30493B 		.ascii	"\0350I;\330$\245(\007$y\355A\214qB'\277\005x\211\243"
 233      D824A528 
 233      072479ED 
 233      418C7142 
 233      27BF0578 
 234 0400 59B53B9E 		.ascii	"Y\265;\236F\231\277\306\241o\256S?\366%\351\306\276"
 234      4699BFC6 
 234      A16FAE53 
 234      3FF625E9 
 234      C6BE
 235 0412 C4ECD8BC 		.ascii	"\304\354\330\274\234c\352\260\321\326\356\271\322\344"
 235      9C63EAB0 
 235      D1D6EEB9 
 235      D2E4
 236 0420 6AF0868B 		.ascii	"j\360\206\213}\336\335 \212S\335<\333\206b\254\260\215"
 236      7DDEDD20 
 236      8A53DD3C 
 236      DB8662AC 
 236      B08D
 237 0432 E8D19876 		.ascii	"\350\321\230v;\361\204\331\3512\334j+p\311\246\014F"
 237      3BF184D9 
 237      E932DC6A 
 237      2B70C9A6 
 237      0C46
 238 0444 7768E1DE 		.ascii	"wh\341\336\267\015\247\345\256Q\013\267\336\012\\\246"
ARM GAS  /tmp/ccBJVcRX.s 			page 18


 238      B70DA7E5 
 238      AE510BB7 
 238      DE0A5CA6 
 239 0454 3977CD5A 		.ascii	"9w\315Z\270\315\266\341\264\334\035\321\302\325[\201"
 239      B8CDB6E1 
 239      B4DC1DD1 
 239      C2D55B81 
 240 0464 EB6DC09D 		.ascii	"\353m\300\235\321O\335iy\366+\354\037g\330\237\000="
 240      D14FDD69 
 240      79F62BEC 
 240      1F67D89F 
 240      003D
 241 0476 8FF402D2 		.ascii	"\217\364\002\322\277#\275\210\364\022\322+@c\2778\275"
 241      BF23BD88 
 241      F412D22B 
 241      4063BF38 
 241      BD
 242 0487 A1E35C73 		.ascii	"\241\343\\s\237m\242\230\311\263-\030L'\273\342\006"
 242      9F6DA298 
 242      C9B32D18 
 242      4C27BBE2 
 242      06
 243 0498 D3532652 		.ascii	"\323S&R\021F\257\307\011\246\327\365\301\364\015\227"
 243      1146AFC7 
 243      09A6D7F5 
 243      C1F40D97 
 244 04a8 DD60AAD2 		.ascii	"\335`\252\3229\016\245W\217\263\325\325\342\352\276"
 244      390EA557 
 244      8FB3D5D5 
 244      E2EABE
 245 04b7 52CF176B 		.ascii	"R\317\027k\304GW+=_\223\220\307b\321\326_a\317\277\205"
 245      C447572B 
 245      3D5F9390 
 245      C762D1D6 
 245      5F61CFBF 
 246 04cc 769AE732 		.ascii	"v\232\3472\014!\026\200f\325\256\242!\344\016\002\325"
 246      0C211680 
 246      66D5AEA2 
 246      21E40E02 
 246      D5
 247 04dd BAF421C4 		.ascii	"\272\364!\304\241\013!\016mLp\244(\007\235\235\3329"
 247      A10B210E 
 247      6D4C70A4 
 247      28079D9D 
 247      DA39
 248 04ef 5AE28B39 		.ascii	"Z\342\2139f\215^y\032&\023\364NT\336uIy\262.\326\333"
 248      668D5E79 
 248      1A2613F4 
 248      4E54DE75 
 248      4979B22E 
 249 0505 46CCEC62 		.ascii	"F\314\354bc\352\242\237\243\2136\243\023\236Dz\023\251"
 249      63EAA29F 
 249      A38B36A3 
 249      139E447A 
 249      13A9
 250 0517 C8A91C92 		.ascii	"\310\251\034\222c6u\321\031\315:TxJz\302$F4s\312\003"
 250      633675D1 
ARM GAS  /tmp/ccBJVcRX.s 			page 19


 250      19CD3A54 
 250      784A7AC2 
 250      24463473 
 251 052d CAEC8863 		.ascii	"\312\354\210c\032]\272\374\315\236\323E\227~\225>\223"
 251      1A5DBAFC 
 251      CD9ED345 
 251      977E953E 
 251      93
 252 053e 4F347CD7 		.ascii	"O4|\3279e\244\\\305c\026_\214\366\336\216\335\254\206"
 252      3965A45C 
 252      C563165F 
 252      8CF6DE8E 
 252      DDAC86
 253 0551 23C3F75D 		.ascii	"#\303\367]W\302\341[\213\3031S\334\244\312TN;\204\267"
 253      57C2E15B 
 253      8BC33153 
 253      DCA4CA54 
 253      4E3B84B7 
 254 0565 1DBDD2F6 		.ascii	"\035\275\322\366\243\005\210L\376J\234\266\265\033\315"
 254      A305884C 
 254      FE4A9CB6 
 254      B51BCD
 255 0574 7A285B66 		.ascii	"z([f:|\235\323u\336\2751V\272\227\011\335\335\013z\244"
 255      3A7C9DD3 
 255      75DEBD31 
 255      56BA9709 
 255      DDDD0B7A 
 256 0589 B81CF399 		.ascii	"\270\034\363\231m0\255Q\346\354[\202\002Y\317\000Z\256"
 256      6D30AD51 
 256      E6EC5B82 
 256      0259CF00 
 256      5AAE
 257 059b 9F7F7027 		.ascii	"\237\177p'\252l6G\034\374\255$\275/\236\325\317\177"
 257      AA6C3647 
 257      1CFCAD24 
 257      BD2F9ED5 
 257      CF7F
 258 05ad AD0CEA2B 		.ascii	"\255\014\352+\223,\010b\332+\211%\233\037\256\307A]"
 258      932C0862 
 258      DA2B8925 
 258      9B1FAEC7 
 258      415D
 259 05bf 9E10B8CD 		.ascii	"\236\020\270\315\004\201\021\025\033\233\257\367\206"
 259      04811115 
 259      1B9BAFF7 
 259      86
 260 05cc 96F6E65F 		.ascii	"\226\366\346_So\230o\311\033\266\036\234o)'\255\343"
 260      536F986F 
 260      C91BB61E 
 260      9C6F2927 
 260      ADE3
 261 05de E4E61FC1 		.ascii	"\344\346\037\301\346/b\363K\364\315_\353<\377;\332\374"
 261      E62F62F3 
 261      4BF4CD5F 
 261      EB3CFF3B 
 261      DAFC
 262 05f0 124BCD7F 		.ascii	"\022K\315\177x\344M#g4\2316\310\346k\277\364h-6R\207"
ARM GAS  /tmp/ccBJVcRX.s 			page 20


 262      78E44D23 
 262      67349936 
 262      C8E66BBF 
 262      F4682D36 
 263 0606 0EB42D59 		.ascii	"\016\264-Yo\276g\322\324m\341\271\306\177w'\313\334"
 263      6FBE67D2 
 263      D46DE1B9 
 263      C67F7727 
 263      CBDC
 264 0618 77CB7F41 		.ascii	"w\313\177A\314\246|9\375\242<|l\033Q\353\304\233\216"
 264      CCA67C39 
 264      FDA23C7C 
 264      6C1B51EB 
 264      C49B8E
 265 062b 608FA060 		.ascii	"`\217\240`\373\254\200\231\207\367\350\0265\330\001"
 265      FBAC8099 
 265      87F7E816 
 265      35D801
 266 063a DB605ACE 		.ascii	"\333`Z\316\266\251\301>\263\002f\226x\001\330v5X\263"
 266      B6A9C13E 
 266      B3026696 
 266      7801D876 
 266      3558B3
 267 064d 6D302D67 		.ascii	"m0-g;\324`G\255\200\031%]\022X\243\032\354\204m0-g\315"
 267      3BD46047 
 267      AD801925 
 267      5D1258A3 
 267      1AEC846D 
 268 0665 6AB0D356 		.ascii	"j\260\323V\300<\006\234\305~fqy1\247\032\333\276J\226"
 268      C03C069C 
 268      C57E6671 
 268      7931A71A 
 268      DBBE4A96 
 269 0679 03824D9F 		.ascii	"\003\202M\237f\024\214\263\311v#\230Fn2\026=\274]\352"
 269      66148CB3 
 269      C9762398 
 269      466E3216 
 269      3DBC5DEA 
 270 068d 1734B89F 		.ascii	"\0274\270\237\267\202\030\307a\026\355S\215\024\227"
 270      B78218C7 
 270      6116ED53 
 270      8D1497
 271 069c 6C83E95C 		.ascii	"l\203\351\\y\237~\370\216-\230FM\227\273xv\005f4\313"
 271      799F7EF8 
 271      8E2D9846 
 271      4D97BB78 
 271      76056634 
 272 06b1 754BA0A6 		.ascii	"uK\240\246K\301]\314\324\2406\323M+2\304\361\3233\373"
 272      4BC15DCC 
 272      D4A036D3 
 272      4D2B32C4 
 272      F1D333FB 
 273 06c5 96E08A9F 		.ascii	"\226\340\212\237\365\245\336\226\353\315\322h\267\013"
 273      F5A5DE96 
 273      EBCDD268 
 273      B70B
 274 06d3 47BB4E5D 		.ascii	"G\273N]\270\264\216tl\361\007\377\216i\357\036\004z"
ARM GAS  /tmp/ccBJVcRX.s 			page 21


 274      B8B48E74 
 274      6CF107FF 
 274      8E69EF1E 
 274      047A
 275 06e5 35A5BB40 		.ascii	"5\245\273@\263j\227\016@\240O\020hf\212>\200\333\\~"
 275      B36A970E 
 275      40A04F10 
 275      68668A3E 
 275      80DB5C7E 
 276 06f9 FE575DCB 		.ascii	"\376W]\3131\213Rt\3462Z\3613\217\004\320#N\366\251_"
 276      318B5274 
 276      E6325AF1 
 276      338F04D0 
 276      234EF6A9 
 277 070e 2B8AD56E 		.ascii	"+\212\325n;\006k\222\014v\000\325\363v\027\365\020\375"
 277      3B066B92 
 277      0C7600D5 
 277      F37617F5 
 277      10FD
 278 0720 DB93638D 		.ascii	"\333\223c\215m9\036\325\311\021}\324\276\034'%9>G96"
 278      6D391ED5 
 278      C9117DD4 
 278      BE1C2725 
 278      393E4739 
 279 0735 FC13E4D8 		.ascii	"\374\023\344\330n[\216\276*90\307z\214\346X\3672\263"
 279      6E5B8EBE 
 279      2A3930C7 
 279      7A8CE658 
 279      F732B3
 280 0748 E3E75884 		.ascii	"\343\347X\204\237/\270{\265\013f-\007X\017-N\224\334"
 280      9F2FB87B 
 280      B50B662D 
 280      07580F2D 
 280      4E94DC
 281 075b 88D11B07 		.ascii	"\210\321\033\007T\211\251h-1\275$i\354\004jl\267Q\017"
 281      5489A968 
 281      2D31BD24 
 281      69EC046A 
 281      6CB7510F 
 282 076f B38474EC 		.ascii	"\263\204t\354\364\307\037\342\262\033L\331\021j_\267"
 282      F4C71FE2 
 282      B21B4CD9 
 282      116A5FB7 
 283 077f A1669DD9 		.ascii	"\241f\235\331J;k+\002}\336\305\212n\235\021\335Z#\302"
 283      4A3B6B2B 
 283      027DDEC5 
 283      8A6E9D11 
 283      DD5A23C2 
 284 0793 2969E926 		.ascii	")i\351&\336w\376\223TBN\222\230\377\367z\034\323\202"
 284      DE77FE93 
 284      54424E92 
 284      98FFF77A 
 284      1CD382
 285 07a6 EC130376 		.ascii	"\354\023\003v'\365C\007\372U\2754\304Q#\265\375 \304"
 285      27F54307 
 285      FA55BD34 
 285      C45123B5 
ARM GAS  /tmp/ccBJVcRX.s 			page 22


 285      FD20C4
 286 07b9 49D18DAF 		.ascii	"I\321\215\257\321\011\031\246\251\034\363\315\017\204"
 286      D10919A6 
 286      A91CF3CD 
 286      0F84
 287 07c7 3B7CD0FE 		.ascii	";|\320\376t(\372\020\365"
 287      7428FA10 
 287      F5
 288 07d0 BABFA240 		.ascii	"\272\277\242@\227\272X\270[\323\241;\335\025$\366\343"
 288      97BA58B8 
 288      5BD3A13B 
 288      DD1524F6 
 288      E3
 289 07e1 98EA540B 		.ascii	"\230\352T\013\243\245'\236\265n>fqJ\025\233\250\237"
 289      A3A5279E 
 289      B56E3E66 
 289      714A159B 
 289      A89F
 290 07f3 EFDD84CA 		.ascii	"\357\335\204\312\370;N\324\247\244\032N\324\343M\315"
 290      F83B4ED4 
 290      A7A41A4E 
 290      D4E34DCD 
 291 0803 E661957F 		.ascii	"\346a\225\177t\235\2507?H\347F\377\26065\253\221\375"
 291      749DA837 
 291      3F48E746 
 291      FFB03635 
 291      AB91FD
 292 0816 82CEBF67 		.ascii	"\202\316\277gp\234\004\333]}jL\250\360\307\263\2279"
 292      709C04DB 
 292      5D7D6A4C 
 292      A8F0C7B3 
 292      9739
 293 0828 92E15CD1 		.ascii	"\222\341\\\321\256\320\274c[\367\036\265\356\243\355"
 293      AED0BC63 
 293      5BF71EB5 
 293      EEA3ED
 294 0837 0797B084 		.ascii	"\007\227\260\204\177\203\331\344\263\352\\2\246\370"
 294      7F83D9E4 
 294      B3EA5C32 
 294      A6F8
 295 0845 B607F7A3 		.ascii	"\266\007\367\243z\256\241\342\327\233(\376Y3\034\216"
 295      7AAEA1E2 
 295      D79B28FE 
 295      59331C8E 
 296 0855 8962959B 		.ascii	"\211b\225\233]\025\337\364\020U\374MK\212?f\250\370"
 296      5D15DFF4 
 296      1055FC4D 
 296      4B8A3F66 
 296      A8F8
 297 0867 9BDD5EED 		.ascii	"\233\335^\3558\256\254v\360\354L\333`\236xV\274\251"
 297      38AEAC76 
 297      F0EC4CDB 
 297      609E7856 
 297      BCA9
 298 0879 B2E26DB4 		.ascii	"\262\342m\264b;G\326\306\356hmyXoK\215\346\244\303G"
 298      623B47D6 
 298      C6EE686D 
ARM GAS  /tmp/ccBJVcRX.s 			page 23


 298      79586F4B 
 298      8DE6A4C3 
 299 088e CD4410A3 		.ascii	"\315D\020\243s\016-\221TBc\336\227V|\243\257\271J\226"
 299      730E2D91 
 299      544263DE 
 299      97567CA3 
 299      AFB94A96 
 300 08a2 1E4295D0 		.ascii	"\036B\225\320xs\3266\230G\003\266s\206\305\373\370\261"
 300      7873D636 
 300      984703B6 
 300      7386C5FB 
 300      F8B1
 301 08b4 FB6199A8 		.ascii	"\373a\231\250\224\357\260\335\311\016\235\273\234\330"
 301      94EFB0DD 
 301      C90E9DBB 
 301      9CD8
 302 08c2 7A780A3B 		.ascii	"zx\012;\021\207N\362\237\205q\376/)\270\372O\375vU\232"
 302      11874EF2 
 302      9F8571FE 
 302      2F29B8FA 
 302      4FFD7655 
 303 08d7 8C1A47D5 		.ascii	"\214\032G\325q\274\245\375\233\375\364f\002\235\363"
 303      71BCA5FD 
 303      9BFDF466 
 303      029DF3
 304 08e6 ACD3C3D9 		.ascii	"\254\323\303\331\\\013\270+\030\337l6W\214|\253\271"
 304      5C0BB82B 
 304      18DF6C36 
 304      578C7CAB 
 304      B9
 305 08f7 9E643AAF 		.ascii	"\236d:\257;\210L[\323\364#\002\325\214\312\021\0255"
 305      3B884C5B 
 305      D3F42302 
 305      D58CCA11 
 305      1535
 306 0909 F26C8D83 		.ascii	"\362l\215\2038\342\024\007q\304\251H_sXX\252\235\356"
 306      38E21407 
 306      71C4A948 
 306      5F735858 
 306      AA9DEE
 307 091c 50CD9376 		.ascii	"P\315\223v\331\226\333\243\263\216Y3\325\352f\366\246"
 307      D996DBA3 
 307      B38E5933 
 307      D5EA66F6 
 307      A6
 308 092d 59F0BD01 		.ascii	"Y\360\275\001\246\352%A\375\267r:@\027\023\233m#j\275"
 308      A6EA2541 
 308      FDB7723A 
 308      4017139B 
 308      6D236ABD 
 309 0941 F9F20C4D 		.ascii	"\371\362\014M:p\332\012\334\263\006\014\032\375\324"
 309      3A70DA0A 
 309      DCB3060C 
 309      1AFDD4
 310 0950 CBC76014 		.ascii	"\313\307`\024\214\027\3231^\274\201t\026\322yH\267 "
 310      8C17D331 
 310      5EBC8174 
ARM GAS  /tmp/ccBJVcRX.s 			page 24


 310      16D27948 
 310      B720
 311 0962 DD86743B 		.ascii	"\335\206t;\322F\244\373\221\036Bz\024\351\267H\257\""
 311      D246A4FB 
 311      911E427A 
 311      14E9B748 
 311      AF22
 312 0974 BD8B5444 		.ascii	"\275\213TD\243OB:\033\351\233\211\034@\032\005\346\357"
 312      A34F423A 
 312      1BE99B89 
 312      1C401A05 
 312      E6EF
 313 0986 6A79F87D 		.ascii	"jy\370}\214\325\257\240\373/N\327{\336\353\234nq\257"
 313      8CD5AFA0 
 313      FB2F4ED7 
 313      7BDEEB9C 
 313      6E71AF
 314 0999 CBEAF4DA 		.ascii	"\313\352\364\332t\013\253\374q\326a\033\016\034:\301"
 314      740BABFC 
 314      71D6611B 
 314      0E1C3AC1 
 315 09a9 CE11C5A6 		.ascii	"\316\021\305\246\276\324\377\201\027\007\247E\324\366"
 315      BED4FF81 
 315      1707A745 
 315      D4F6
 316 09b7 9838DE28 		.ascii	"\2308\336(\031\265ui\255y\210Zm\266\314\032\273\365"
 316      19B57569 
 316      AD79885A 
 316      6DB6CC1A 
 316      BBF5
 317 09c9 FFD52FE9 		.ascii	"\377\325/\351\255\377%\330\0337\353t\222\020\207h\251"
 317      ADFF25D8 
 317      1B37EB74 
 317      92108768 
 317      A9
 318 09da 5617E6A2 		.ascii	"V\027\346\242\037\256\331Oo\375\327&\016r\223\253\243"
 318      1FAED94F 
 318      6FFDD726 
 318      0E7293AB 
 318      A3
 319 09eb 9BD7ECE7 		.ascii	"\233\327\354\347\026\210\321I\362\255\377xw\311`(\302"
 319      1688D149 
 319      F2ADFF78 
 319      77C96028 
 319      C2
 320 09fc 2593C437 		.ascii	"%\223\3047\262v\243(\265J/7\272\355\244q\032\265\251"
 320      B276A328 
 320      B54A2F37 
 320      BAEDA471 
 320      1AB5A9
 321 0a0f 20475AF3 		.ascii	" GZ\363\015\213\\\311\367\261>\261\015\230\251\021\263"
 321      0D8B5CC9 
 321      F7B13EB1 
 321      0D98A911 
 321      B3
 322 0a20 5E169367 		.ascii	"^\026\223g\337v\340t\3076\240\326\362\015z\016\217\332"
 322      DF76E074 
ARM GAS  /tmp/ccBJVcRX.s 			page 25


 322      C736A0D6 
 322      F20D7A0E 
 322      8FDA
 323 0a32 06ECABE1 		.ascii	"\006\354\253\341p\247\236\303V+\200qF\210]z\016\333"
 323      70A79EC3 
 323      562B8071 
 323      46885D7A 
 323      0EDB
 324 0a44 6C036A75 		.ascii	"l\003juxX\317\341\005\333\200Z\035\036\325s\370\235"
 324      7858CFE1 
 324      05DB805A 
 324      1D1ED573 
 324      F89D
 325 0a56 6D40AD0E 		.ascii	"m@\255\016\217\3519\274a\0050\3162\345\011=\207\035"
 325      8FE939BC 
 325      610530CE 
 325      32E5093D 
 325      871D
 326 0a68 B601B53A 		.ascii	"\266\001\265:l\321s8\345\036\273\200Z\035\236\326s8"
 326      6CD17338 
 326      E51EBB80 
 326      5A1D9ED6 
 326      7338
 327 0a7a C336A056 		.ascii	"\3036\240V\207\255z\016\027X\001\214\267\262\251\347"
 327      87AD7A0E 
 327      1758018C 
 327      B7B2A9E7 
 328 0a8a B0D636A0 		.ascii	"\260\3266\240V\207\227\365\034\276k\033P\253\303\357"
 328      568797F5 
 328      1CBE6B1B 
 328      50ABC3EF 
 329 0a9a F51C7E68 		.ascii	"\365\034~h\033P\253\303kz\016\033\254\000z\314uxC\317"
 329      1B50ABC3 
 329      6B7A0E1B 
 329      AC007ACC 
 329      757843CF 
 330 0aae E16EDB80 		.ascii	"\341n\333\200\372\373\372\252\237z\024\341\331:\314"
 330      FAFBFAAA 
 330      9F7A14E1 
 330      D93ACC
 331 0abd F296E1F0 		.ascii	"\362\226\341\360\276\002\351;HW#]\203\364}\244k\221"
 331      BE02E93B 
 331      4857235D 
 331      83F47DA4 
 331      6B91
 332 0acf AE47BA01 		.ascii	"\256G\272\001\351&\244[\220nC\272\035\351\016\244\215"
 332      E926A45B 
 332      906E43BA 
 332      1DE90EA4 
 332      8D
 333 0ae0 48A348F7 		.ascii	"H\243H\367 \375\330J\376\270X\235\330\035\274\307B\022"
 333      20FDD84A 
 333      FEB8589D 
 333      D81DBCC7 
 333      4212
 334 0af2 1067E1B6 		.ascii	"\020g\341\266aZ\353\017zT\263m\327\305\335O\223Q;\361"
 334      615AEB0F 
ARM GAS  /tmp/ccBJVcRX.s 			page 26


 334      7A54B36D 
 334      D7C5DD4F 
 334      93513BF1 
 335 0b06 E39A071C 		.ascii	"\343\232\007\034\326\036\327\374T?\204\3179\204\217"
 335      D61ED7FC 
 335      543F84CF 
 335      39848F
 336 0b15 6B7E6A61 		.ascii	"k~ja\2262):\267[\263\244X\012\362\327\207i\012\322\214"
 336      9632293A 
 336      B75BB3A4 
 336      580AF2D7 
 336      87690AD2 
 337 0b2a 29C8BC8C 		.ascii	")\310\274\214\204\217/hq\010\177G\365\374w\\\221\236"
 337      848F2F68 
 337      71087F47 
 337      F5FC775C 
 337      919E
 338 0b3c 3E3C6A29 		.ascii	"><j)\005\231\365\275\364\364\241\374\240\325\032\344"
 338      0599F5BD 
 338      F4F4A1FC 
 338      A0D51AE4 
 339 0b4c E268FC39 		.ascii	"\342h\3749\202\306g\264\200\263\277\327<\267\265\326"
 339      82C667B4 
 339      80B3BFD7 
 339      3CB7B5D6 
 340 0b5c 369C4703 		.ascii	"6\234G\003\367\246\026n\223\025\2708\217\320\315\323"
 340      F7A6166E 
 340      9315B838 
 340      8FD0CDD3 
 341 0b6c C2D5DB86 		.ascii	"\302\325\333\206\363\030\351\222\351b\014\236\375\002"
 341      F318E992 
 341      E9620C9E 
 341      FD02
 342 0b7a 7BF231EC 		.ascii	"{\3621\354i'\220\266 =m\245\327}\256\356u\215\310\344"
 342      692790B6 
 342      203D6DA5 
 342      D77DAEEE 
 342      758DC8E4 
 343 0b8e A7DDB308 		.ascii	"\247\335\263\010\364\272]\027[\006\320\033\210\272'"
 343      F4BA5D17 
 343      5B06D01B 
 343      88BA27
 344 0b9d 02880ECC 		.ascii	"\002\210\016\31488\243\231\320\331\346\300\243\346 "
 344      3838A399 
 344      D0D9E6C0 
 344      A3E620
 345 0bac BAF010BD 		.ascii	"\272\360\020\275\277&\337\344:\250\3073\272\341\020"
 345      BF26DFE4 
 345      3AA8C733 
 345      BAE110
 346 0bbb 27BB5A72 		.ascii	"'\273Zr(m\375K2\330\021\333`\311\032\260\245j\260/m"
 346      286DFD4B 
 346      32D811DB 
 346      60C91AB0 
 346      A56AB02F 
 347 0bd0 83993DB2 		.ascii	"\203\231=\262\365\031\332\377\020\332\374+\244\177F"
 347      F519DAFF 
ARM GAS  /tmp/ccBJVcRX.s 			page 27


 347      10DAFC2B 
 347      A47F46
 348 0bdf 7A0EE95F 		.ascii	"z\016\351_\324^\3001\347t]_\216?*T%P1Vq\315l\333\244"
 348      D45EC031 
 348      E7745D5F 
 348      8E3F2A54 
 348      25503156 
 349 0bf8 B6EDF50C 		.ascii	"\266\355\365\014\0131\335c\356]\015\323\316H1\235\002"
 349      0B31DD63 
 349      EE5D0DD3 
 349      CE48319D 
 349      02
 350 0c09 73CC1DDB 		.ascii	"s\314\035\333\210Zo\231{f\2514Y?\213\235tR\017\013x"
 350      885A6F99 
 350      7B66A934 
 350      593F8B9D 
 350      74520F0B 
 351 0c1e A6EB6CE0 		.ascii	"\246\353l\340-gp]\214\202M\267\015\346aL\177\3527Mx"
 351      2D67705D 
 351      8C824DB7 
 351      0DE6614C 
 351      7FEA374D 
 352 0c33 762BCECF 		.ascii	"v+\316\317\266\341ct\373\221N\306\211\373B\264\314\""
 352      B6E16374 
 352      FB914EC6 
 352      89FB42B4 
 352      CC22
 353 0c45 A4FB907E 		.ascii	"\244\373\220~\203\364[\244\337Y\261\330\006\365\003"
 353      83F45BA4 
 353      DF59B1D8 
 353      06F503
 354 0c54 77F35084 		.ascii	"w\363P\204u\335}d\276\255~\357\211e\262\305\016\340"
 354      75DD7D64 
 354      BEAD7EEF 
 354      8965B2C5 
 354      0EE0
 355 0c66 F3A98B6D 		.ascii	"\363\251\213m#j-v\235.\306R\260eV\300\214:\267\261\206"
 355      236A2D76 
 355      9D2EC652 
 355      B06556C0 
 355      8C3AB7B1 
 356 0c7b D7A934BC 		.ascii	"\327\2514\274\0365\374!}\"\027\265w\305\212\366\336"
 356      1E35FC21 
 356      7D2217B5 
 356      77C58AF6 
 356      DE
 357 0c8c EBF23297 		.ascii	"\353\3622\227\205\0338\035\347\232\377m\015.\232\\\305"
 357      851B381D 
 357      E79AFF6D 
 357      0D2E9A5C 
 357      C5
 358 0c9d 2C72558F 		.ascii	",rU\217\177\302\015\234df\012}\023H\234\310\376Q\025"
 358      7FC20D9C 
 358      64660A7D 
 358      13489CC8 
 358      FE5115
 359 0cb0 8F543146 		.ascii	"\217T1F\375n\335\015G2Y\264\357\241\275\303\256j\221"
ARM GAS  /tmp/ccBJVcRX.s 			page 28


 359      FD6EDD0D 
 359      473259B4 
 359      EFA1BDC3 
 359      AE6A91
 360 0cc3 5C204B4E 		.ascii	"\\ KN\217\345#\250\322\207Y*\266]jkm?\\JFx\261\263\363"
 360      8FE523A8 
 360      D287592A 
 360      B65D6A6B 
 360      6D3F5C4A 
 361 0cdc 4FACEE55 		.ascii	"O\254\356U\022r\245\231\326\332\035\232wI\022>\314\026"
 361      1272A599 
 361      D6DA1D9A 
 361      7749123E 
 361      CC16
 362 0cee 7B13EB09 		.ascii	"{\023\353\011F\365:\332\307\3751\031\271\213\031\316"
 362      46F53ADA 
 362      C7FD3119 
 362      B98B19CE 
 363 0cfe 273A1D26 		.ascii	"':\035&\204!|Lt\3522\234c\3730C#\345\2113\264\326)\346"
 363      84217C4C 
 363      74EA329C 
 363      63FB3043 
 363      23E58933 
 364 0d16 8B44BA84 		.ascii	"\213D\272\204S\214\255\357x\030\322\317>\007n\215r0"
 364      538CADEF 
 364      7818D2CF 
 364      3E076E8D 
 364      7230
 365 0d28 CD653C5B 		.ascii	"\315e<[\343$\353XS\364\\n\234\202\\N\261\304\345\346"
 365      E324EB58 
 365      53F45C6E 
 365      9C825C4E 
 365      B1C4E5E6 
 366 0d3c 7DB83E1D 		.ascii	"}\270>\035\357\255\237x\246z\315\251{\355\347\031\013"
 366      EFAD9F78 
 366      A67ACDA9 
 366      7BEDE719 
 366      0B
 367 0d4d 6FFD90EB 		.ascii	"o\375\220\353\2469Uq\345K\264\016a\270[qE\204\024#\305"
 367      A6395571 
 367      E54BB40E 
 367      61B85B71 
 367      45841423 
 368 0d62 4D3139E6 		.ascii	"M19\346\274m0\2179\3305+`\346\371\202\026\254\3036\230"
 368      BC6D308F 
 368      39D8352B 
 368      60E6F982 
 368      16ACC336 
 369 0d77 0167DDB5 		.ascii	"\001g\335\265\324<\003K\305\216\245\200b\324\341h~b"
 369      D43C034B 
 369      C58EA580 
 369      62D4E168 
 369      7E62
 370 0d89 86BAC8A9 		.ascii	"\206\272\310\251^\276\325\343Y\362\204\271jOx5\323\202"
 370      5EBED5E3 
 370      59F284B9 
 370      6A4F7835 
ARM GAS  /tmp/ccBJVcRX.s 			page 29


 370      D382
 371 0d9b 8ACC576E 		.ascii	"\212\314Wn~\230\212j\273\251\"K\217\235}\204\313\363"
 371      7E988A6A 
 371      BBA9224B 
 371      8F9D7D84 
 371      CBF3
 372 0dad 099E8831 		.ascii	"\011\236\2101\343l\371\017W\363R\265\232_\267\255f\003"
 372      E36CF90F 
 372      57F352B5 
 372      9A5FB7AD 
 372      6603
 373 0dbf 4F94DD7A 		.ascii	"O\224\335z\216\0250\363\225\242\037f\263\367\314mf\030"
 373      8E1530F3 
 373      95A21F66 
 373      B3F7CC6D 
 373      6618
 374 0dd1 784DEF37 		.ascii	"xM\3577K\343\306\245\267\257$\341\270\261\316I\306\215"
 374      4BE3C6A5 
 374      B7AF24E1 
 374      B8B1CE49 
 374      C68D
 375 0de3 A399366F 		.ascii	"\243\2316o[c\316\244\217\3107\004\017-M\034\217o\255"
 375      5B63CEA4 
 375      8FC83704 
 375      0F2D4D1C 
 375      8F6FAD
 376 0df6 94EE17D2 		.ascii	"\224\356\027\322\244\361\034\266\277\241\273\2211z["
 376      A4F11CB6 
 376      BFA1BB91 
 376      317A5B
 377 0e05 20B916C5 		.ascii	" \271\026\305\372\273m,\217\021\243L\027)yv\243\223"
 377      FABB6D2C 
 377      8F11A34C 
 377      17297976 
 377      A393
 378 0e17 38F72627 		.ascii	"8\367&'.\0039-$Fk5\016m\311\201\327\250\035\370\252"
 378      2E03392D 
 378      24466B35 
 378      0E6DC981 
 378      D7A81DF8 
 379 0e2c 6D9FD3CB 		.ascii	"m\237\323\313\242\314h\246\"\3333\220\316D:\033\351"
 379      A2CC68A6 
 379      22DB3390 
 379      CE443A1B 
 379      E9
 380 0e3d 9B48DF42 		.ascii	"\233H\337B\272\012\351\273VD\233\254\346\263\003\371"
 380      BA0AE9BB 
 380      56449BAC 
 380      E6B303F9 
 381 0e4d 9CD85DFB 		.ascii	"\234\330]\373A\306|\243\337|1:\321a\375\225p\360`\372"
 381      41C67CA3 
 381      DF7C313A 
 381      D161FD95 
 381      70F060FA 
 382 0e61 2A7B8393 		.ascii	"*{\203\223\274\022>\261\247\326\203-\276\022\336\350"
 382      BC123EB1 
 382      A7D6832D 
ARM GAS  /tmp/ccBJVcRX.s 			page 30


 382      BE12DEE8 
 383 0e71 D4BD125E 		.ascii	"\324\275\022^?\301CK\343\370\260\364\336\366\364\236"
 383      3FC1434B 
 383      E3F8B0F4 
 383      DEF6F49E 
 384 0e81 5D5F089F 		.ascii	"]_\010\237\337\323\360\205\360\272\236\206/\204\277"
 384      DFD3F085 
 384      F0BA9E86 
 384      2F84BF
 385 0e90 D7D3F085 		.ascii	"\327\323\360\205\360\355=\265/\204K\305\237*\305.U\361"
 385      F0ED3DB5 
 385      2F844BC5 
 385      9F2AC52E 
 385      55F1
 386 0ea2 71A5D8AD 		.ascii	"q\245\330\255*>\253\024'\251\212/*\305\311*\213\304"
 386      2A3EAB14 
 386      27A98A2F 
 386      2AC5C92A 
 386      8BC4
 387 0eb4 7DDE5451 		.ascii	"}\336TQ\022\317\356\302.\020u\032\277l\0163T\374>\200"
 387      12CFEEC2 
 387      2E10751A 
 387      BF6C0E33 
 387      54FC3E80 
 388 0ec8 CA1312BE 		.ascii	"\312\023\022\276l\356Qy\202\210\2360\221,\227I\337\313"
 388      6CEE5179 
 388      82889E30 
 388      912C9749 
 388      DFCB
 389 0eda F090A1F9 		.ascii	"\360\220\241\371\254\262\216b\260@\347\264\373\315\212"
 389      ACB28E62 
 389      B040E7B4 
 389      FBCD8A
 390 0ee9 2F9CC6DF 		.ascii	"/\234\306\337\254\220;'\307\334\356\251\363\347\304"
 390      AC903B27 
 390      C7DCEEA9 
 390      F3E7C4
 391 0ef8 B74ED50E 		.ascii	"\267N\325\016\215/\344\221\221\203\360\3061w-\241%\032"
 391      8D2FE491 
 391      9183F0C6 
 391      31772DA1 
 391      251A
 392 0f0a 3A62B3F5 		.ascii	":b\263\365^\026\372Z\234\331\372\215)\346K\252\361V"
 392      5E16FA5A 
 392      9CD9FA8D 
 392      29E64BAA 
 392      F156
 393 0f1c 8879F603 		.ascii	"\210y\366\003\234\035\256\323\274\340f{\256xZ\211\033"
 393      9C1DAED3 
 393      BCE0667B 
 393      AE785A89 
 393      1B
 394 0f2d 3C5BCD71 		.ascii	"<[\315q6e\361hd\351\334'\257{\321\231\334kz\335\030"
 394      3665F168 
 394      64E9DC27 
 394      AF7BD199 
 394      DC6B7ADD 
ARM GAS  /tmp/ccBJVcRX.s 			page 31


 395 0f42 799FD113 		.ascii	"y\237\321\023>F?\365\314\210g'\241\343Wc\200\334\216"
 395      3E463FF5 
 395      CC886727 
 395      A1E35763 
 395      80DC8E
 396 0f55 F408D2E3 		.ascii	"\364\010\322\343HO\"=\205\264\325J\370\354p\250\324"
 396      484F223D 
 396      85B4D54A 
 396      F8EC70A8 
 396      D4
 397 0f66 A01A1638 		.ascii	"\240\032\0268fq/m${\204YNB$\3142\337a\347V\213Ci]\216"
 397      66712F6D 
 397      247B8459 
 397      4E4224CC 
 397      32DF61E7 
 398 0f80 D984D7DD 		.ascii	"\331\204\327\335v\3641l#\326\302/\230\225\304\314\337"
 398      76F4316C 
 398      23D6C22F 
 398      9895C4CC 
 398      DF
 399 0f91 BDF24A26 		.ascii	"\275\362J&+\317a5\325t1\021\377>\343"
 399      2BCF6135 
 399      D5743111 
 399      FF3EE3
 400 0fa0 D47CCA86 		.ascii	"\324|\312\206Lt\353\332\242W\205&\361\022L\263\351\324"
 400      4C74EBDA 
 400      A2578526 
 400      F1124CB3 
 400      E9D4
 401 0fb2 9563EA0D 		.ascii	"\225c\352\0159\025\353\005\211G\236\3753N\335\3169\273"
 401      3915EB05 
 401      89479EFD 
 401      334EDDCE 
 401      39BB
 402 0fc4 C5A3AA9A 		.ascii	"\305\243\252\232\021\217_\033\362\330\270/}\346\304"
 402      118F5F1B 
 402      F2D8B82F 
 402      7DE6C4
 403 0fd3 B6CECE3E 		.ascii	"\266\316\316>6\222\253\363N[\023q\303{\015-[n\177-="
 403      3692ABF3 
 403      4E5B1371 
 403      C37B0D2D 
 403      5B6E7F2D 
 404 0fe8 BAFC2DA6 		.ascii	"\272\374-\246T\347z\031\246T\361\036\355\372\026\253"
 404      54E77A19 
 404      A654F11E 
 404      EDFA16AB 
 405 0ff8 5CD4A755 		.ascii	"\\\324\247U\035/yh"
 405      1D2F7968 
 406 1000 69E2B46A 		.ascii	"i\342\264j\3262)\255R\253\377b\267\323\252\331\230V"
 406      D63229AD 
 406      52ABFF62 
 406      B7D3AAD9 
 406      9856
 407 1012 6DC055A7 		.ascii	"m\300U\247\3131\346l\246U\362\242\343\345\246.3p#\235"
 407      CB31E66C 
 407      A655F2A2 
ARM GAS  /tmp/ccBJVcRX.s 			page 32


 407      E3E5A62E 
 407      3370239D 
 408 1026 FC4CC65A 		.ascii	"\374L\306Z\257Z+j\335z\352\307\364N\316uT\356\232{\023"
 408      AF5A2B6A 
 408      DD7AEAC7 
 408      F44ECE75 
 408      54EE9A7B 
 409 103b 2B570B44 		.ascii	"+W\013DtwK\257\331\006\372\341\235[\226t\273so\003+"
 409      74774BAF 
 409      D906FAE1 
 409      9D5B9674 
 409      BB736F03 
 410 1050 D6A4CB1F 		.ascii	"\326\244\313\037\037Z\217,\334\2621\320i\341\032\367"
 410      1F5A8F2C 
 410      DCB231D0 
 410      69E11AF7 
 411 1060 E2AA3805 		.ascii	"\342\2528\005\333f\033L\273\304\336\254\006\333a\033"
 411      DB661B4C 
 411      BBC4DEAC 
 411      06DB611B 
 412 1070 2C530376 		.ascii	",S\003vD\015\266\3076Xo\015\330\027j\260\375\266\301"
 412      440DB6C7 
 412      36586F0D 
 412      D8176AB0 
 412      FDB6C1
 413 1083 B43E745C 		.ascii	"\264>t\\\015\366\271m0\315\313!\321\2235\351\315/Y\177"
 413      0DF6B96D 
 413      30CDCB21 
 413      D19335E9 
 413      CD2F597F 
 414 1097 7B7EE7FA 		.ascii	"{~\347\372\335\016\3147_u\221\362\223:\017\264\377\366"
 414      DD0ECC37 
 414      5F7591F2 
 414      933A0FB4 
 414      FFF6
 415 10a9 3CC7B4EA 		.ascii	"<\307\264\352%\260\363P\015\031\022\266^xh\012}\037"
 415      25B0F350 
 415      0D1912B6 
 415      5E78680A 
 415      7D1F
 416 10bb 9E32D566 		.ascii	"\2362\325f\0050\316m\237\366\232\3516\237\302\337yU"
 416      0530CE6D 
 416      9FF69AE9 
 416      369FC2DF 
 416      7955
 417 10cd FA22D71B 		.ascii	"\372\"\327\033\310\300\205.Z\261\377Y\022\216\271\244"
 417      C8C0852E 
 417      5AB1FF59 
 417      128EB9A4 
 418 10dd 17C3DE02 		.ascii	"\027\303\336\002\022\350\345\312\217\026H\2177R\276"
 418      12E8E5CA 
 418      8F16488F 
 418      3752BE
 419 10ec DAAD20C6 		.ascii	"\332\255 \306yRf\036}\241\217\202\325\334g\027L\353"
 419      7952661E 
 419      7DA18F82 
 419      D5DC6717 
ARM GAS  /tmp/ccBJVcRX.s 			page 33


 419      4CEB
 420 10fe C50BD460 		.ascii	"\305\013\324`oX\001\213\363\374\311\"5\330\\\333`Z\316"
 420      6F58018B 
 420      F3FCC922 
 420      35D85CDB 
 420      605ACE
 421 1111 96A8C1DE 		.ascii	"\226\250\301\336\262\002\3461\347l\251\032l\245m0-g"
 421      B202E631 
 421      E76CA91A 
 421      6CA56D30 
 421      2D67
 422 1123 EBD5601F 		.ascii	"\353\325`\037X\001\213\223\001oP\203m\261\015\246\346"
 422      58018B93 
 422      016F5083 
 422      6DB10DA6 
 422      E6
 423 1134 4C8C6EDE 		.ascii	"L\214n\336\227\006\243\202<[Y\220A\303\223<\010\305"
 423      9706A382 
 423      3C5B5990 
 423      41C3933C 
 423      08C5
 424 1146 C0447910 		.ascii	"\300Dy\020Z\341\262;]Y\3512\236\256t*\363\225F\275\020"
 424      5AE1B23B 
 424      5D59E932 
 424      9EAE742A 
 424      F39546BD 
 425 115b BA866D67 		.ascii	"\272\206mg\276\267T\231\357m\314|\3331\267\355@\332"
 425      BEB75499 
 425      EF6DCC7C 
 425      DB31B7ED 
 425      40DA
 426 116d 8974A28B 		.ascii	"\211t\242\213\320j\244\257 \235\202t:\322\031H\347 "
 426      D06AA4AF 
 426      209D8274 
 426      3AD21948 
 426      E720
 427 117f 9D8B743E 		.ascii	"\235\213t>\322\205H\027#}\013i-\322eH\227\273,\344\316"
 427      D2854817 
 427      237D0B69 
 427      2DD26548 
 427      97BB2CE4 
 428 1194 D7D44B0F 		.ascii	"\327\324K\017{\356\263\220\227\304\371\252H\313\226"
 428      7BEEB390 
 428      97C4F9AA 
 428      48CB96
 429 11a3 532BD8CB 		.ascii	"S+\330\313\223\304\005}\345I\304\001=b\302[\324Z_]\360"
 429      93C4057D 
 429      E549C401 
 429      3D62C25B 
 429      D45A5F5D 
 430 11b8 DF0AD651 		.ascii	"\337\012\326Q\333X\217\3063\313E\225Y.\241Y.\243)\256"
 430      DB588FC6 
 430      33CB4595 
 430      592EA159 
 430      2EA329AE 
 431 11cc 20BD8A74 		.ascii	" \275\212t5*r\215\025E^p\232MBN\337g\220\332\317\206"
 431      352A728D 
ARM GAS  /tmp/ccBJVcRX.s 			page 34


 431      15455E70 
 431      9A4D424E 
 431      DF6790DA 
 432 11e2 49C8AD1F 		.ascii	"I\310\255\037\357\"\263QZ\027RV\274\356o\246\011\276"
 432      EF22B351 
 432      5A175256 
 432      BCEE6FA6 
 432      09BE
 433 11f4 D4827182 		.ascii	"\324\202q\202\377\267\370\011\376\373.\243\004\177\316"
 433      FFB7F809 
 433      FEFB2EA3 
 433      047FCE
 434 1203 C1193046 		.ascii	"\301\0310F\301\324\257\363\231d]\216O\222^3Q?t\351\026"
 434      C1D4AFF3 
 434      99645D8E 
 434      4F925E33 
 434      513F74E9 
 435 1218 5009673A 		.ascii	"P\011g:\241/\032\012-\326\222\371\014\275|\255\213$"
 435      A12F1A0A 
 435      2DD692F9 
 435      0CBD7CAD 
 435      8B24
 436 122a D4EB5DD6 		.ascii	"\324\353]\326\304m\370z\370Py\216c^Kbp\243\241\264\015"
 436      C46DF87A 
 436      F850798E 
 436      635E4B62 
 436      70A3A1B4 
 437 123f AFBD2949 		.ascii	"\257\275)I\273K\364\350\345%\375\300L\336\255\026\344"
 437      BB4BF4E8 
 437      E525FDC0 
 437      4CDEAD16 
 437      E4
 438 1250 ED349677 		.ascii	"\3554\226w\241^\336-\026\345=\214\362\322\336i^Kb\260"
 438      A15EDE2D 
 438      16E53D8C 
 438      F2D2DE69 
 438      5E4B62B0 
 439 1264 DE50DEEF 		.ascii	"\336P\336\357c\326%\362\322\251\031\307L\3132dt\261"
 439      63D625F2 
 439      D2A919C7 
 439      4CCB3264 
 439      74B1
 440 1276 9ED11D56 		.ascii	"\236\321\035V\015\363\345\360\336\212\033\252j\031\271"
 440      0DF3E5F0 
 440      DE8A1BAA 
 440      6A19B9
 441 1285 E1CEAE8C 		.ascii	"\341\316\256\214\266\315l\253\337{m\022;\253\272\216"
 441      B6CD6CAB 
 441      DF7B6D12 
 441      3BABBA8E 
 442 1295 CE881979 		.ascii	"\316\210\031yJ\274P\307\251\014\262\333\020\244u\353"
 442      4ABC50C7 
 442      A90CB2DB 
 442      10A475EB 
 443 12a5 EDFF58B8 		.ascii	"\355\377X\270A\234<U\274\253\277uly!4\272\361\020y\345"
 443      419C3C55 
 443      BCABBF75 
ARM GAS  /tmp/ccBJVcRX.s 			page 35


 443      6C792134 
 443      BAF11079 
 444 12ba E5631759 		.ascii	"\345c\027Y\005]\245k\336\342*\350>\227n\025\264\345"
 444      055DA56B 
 444      DEE22AE8 
 444      3E976E15 
 444      B4E5
 445 12cc 35FC3026 		.ascii	"5\3740&)O\274\016\272.\253\353:\350\346,\303u\320\335"
 445      294FBC0E 
 445      BA2EABEB 
 445      3AE8E62C 
 445      C375D0DD 
 446 12e0 5986EBA0 		.ascii	"Y\206\353\240\237f\031\256\203\266d\031\256\203~\235"
 446      9F6619AE 
 446      83B66419 
 446      AE837E9D 
 447 12f0 65B80EFA 		.ascii	"e\270\016\372\217,\303u\320\316,\303u\320\251\367k\327"
 447      8F2CC375 
 447      D0CE2CC3 
 447      75D0A9F7 
 447      6BD7
 448 1302 41A5E2D9 		.ascii	"A\245\342\331Jq\212\252x\205R\234\252*\336\252\024\247"
 448      4A718AAA 
 448      7885529C 
 448      AA2ADEAA 
 448      14A7
 449 1314 A98A9B94 		.ascii	"\251\212\233\224\342tU\361\011\245\370\036U\361y\245"
 449      E27455F1 
 449      09A5F81E 
 449      55F179A5 
 450 1324 3843557C 		.ascii	"8CU|S)\356\241*\256~ V\234\251*~])\356\251*\256S\212"
 450      5329EEA1 
 450      2AAE7E20 
 450      569CA92A 
 450      7E5D29EE 
 451 133d 7BA9F956 		.ascii	"{\251\371V\212\357\225lIN\343.\002+>\302\263M.2\364"
 451      8AEF956C 
 451      494EE32E 
 451      022B3EC2 
 451      B34D2E32 
 452 1352 EC77192F 		.ascii	"\354w\031/\002\233\205\244\217\364!\211D\212n\336h\224"
 452      029B85A4 
 452      8FF42189 
 452      448A6EDE 
 452      6894
 453 1364 7CFF4D37 		.ascii	"|\377M7g\341\315~h\311e\355c\030\340\212\017\350g0\313"
 453      67E1CD7E 
 453      68C965ED 
 453      6318E08A 
 453      0FE86730 
 454 1379 F54FA174 		.ascii	"\365O\241t\377\233\032\337\273\014\357o\2566\270\277"
 454      FF9B1ADF 
 454      BB0CEF6F 
 454      AE36B8BF 
 455 1389 C931471E 		.ascii	"\3111G\0360\016%\267\214\343Q\215a<:e\002\322n\004\022"
 455      300E25B7 
 455      8CE3518D 
ARM GAS  /tmp/ccBJVcRX.s 			page 36


 455      613C3A65 
 455      02D26E04 
 456 139e 6D3E385D 		.ascii	"m>8]d\015\227\317\342|\022\265CoV2\340\305N\244\345"
 456      640D97CF 
 456      E27C12B5 
 456      436F5632 
 456      E0C54EA4 
 457 13b3 5E9D6C7F 		.ascii	"^\235l\1771aKt\033\261\325\330\035\266&\271\015\330"
 457      31614B74 
 457      1BB1D5D8 
 457      1DB626B9 
 457      0DD8
 458 13c5 D20FF826 		.ascii	"\322\017\370&lL6b\243\355\316\271\223/,\024\367\340"
 458      6C4C3662 
 458      A3EDCEB9 
 458      932F2C14 
 458      F7E0
 459 13d7 733E8C75 		.ascii	"s>\214uFj\364\214\220O\026J'\226'\332\321\206)Y$\"O"
 459      466AF48C 
 459      904F164A 
 459      279627DA 
 459      D1862959 
 460 13ee 7593C879 		.ascii	"u\223\310y\247\213\223v\343Q)5KW\035F\0368\265\267\261"
 460      A78B9376 
 460      E3512935 
 460      4B571D46 
 460      1E38B5B7 
 461 1403 7A5ED7AA 		.ascii	"z^\327\252\347\247\31421\332\334\366e\373n\027\271s"
 461      E7A7CC32 
 461      31DADCF6 
 461      65FB6E17 
 461      B973
 462 1415 238A773A 		.ascii	"#\212w:;YV\376Bvm\014D\222NsS\201\300\275!\301=\301"
 462      3B5956FE 
 462      42766D0C 
 462      44924E73 
 462      5381C0BD 
 463 142d 6C145F8D 		.ascii	"l\024_\215\366\245\025\351\235\205\377en\213\257\302"
 463      F6A515E9 
 463      9D85FF65 
 463      6E8BAFC2 
 464 143d 1C2B8BAE 		.ascii	"\034+\213\256B\222\226\300\020\015\323\256\255bg\213"
 464      429296C0 
 464      100DD3AE 
 464      AD62678B 
 465 144d E0EB2224 		.ascii	"\340\353\"$\012l\037\371s\326\357\350\233\322~\274\232"
 465      0A6C1FF9 
 465      73D6EFE8 
 465      9BD27EBC 
 465      9A
 466 145e B43547C3 		.ascii	"\2645G\303:\275qA\033\201\334\266e\204\356\221\220\317"
 466      3ABD7141 
 466      1B81DCB6 
 466      6584EE91 
 466      90CF
 467 1470 E27C3772 		.ascii	"\342|7r\256;M\253\200\350\231\325)\220\224H+\344\237"
 467      AE3B4DAB 
ARM GAS  /tmp/ccBJVcRX.s 			page 37


 467      80E899D5 
 467      29909448 
 467      2BE49F
 468 1483 2147EF27 		.ascii	"!G\357'\024~\276F\370giE\372\335@r\345q\226&S'\245s"
 468      147EBE46 
 468      F8676945 
 468      FADD4072 
 468      E5719626 
 469 149b F2454A71 		.ascii	"\362EJq\301d\230\324\321\357\011\2222\007\031\360x\374"
 469      C16498D4 
 469      D1EF0992 
 469      320719F0 
 469      78FC
 470 14ad B0A074DA 		.ascii	"\260\240t\332W\026\357JL\274h}\026\345Ybv\326\273]\230"
 470      5716EF4A 
 470      4CBC687D 
 470      16E55962 
 470      76D6BB5D 
 471 14c2 DD9090D9 		.ascii	"\335\220\220\331\305\377\012fu~\024\375\302I\355\372"
 471      C5FF0A66 
 471      757E14FD 
 471      C249EDFA 
 472 14d2 8CFC50DB 		.ascii	"\214\374P\3336=_]\037a[\252\230\225\240\210G\242-+\310"
 472      363D5F5D 
 472      1F615BAA 
 472      9895A088 
 472      47A22D2B 
 473 14e7 4AB82C20 		.ascii	"J\270, \235\2544\352\201\272\030\265N\301\321\271\302"
 473      9DAC34EA 
 473      81BA18B5 
 473      4EC1D1B9 
 473      C2
 474 14f8 8538B9F6 		.ascii	"\2058\271\3662\305\025\364\337't\233\177\305\371m\323"
 474      32C515F4 
 474      DF27749B 
 474      7FC5F96D 
 474      D3
 475 1509 5A93E2D4 		.ascii	"Z\223\342\324ZnZ\213\304a\263Z+Lk\221a\302t\341\301"
 475      5A6E5A8B 
 475      C461B35A 
 475      2B4C6B91 
 475      61C274E1 
 476 151e B4D64771 		.ascii	"\264\326Gq\332zG\251\3058\375\243\371\220{H\341\010"
 476      DA7A47A9 
 476      C538FDA3 
 476      F9907B48 
 476      E108
 477 1530 4F0E3320 		.ascii	"O\0163 {te\271\220\355\257\014L\310\016\010c\263\375"
 477      7B7465B9 
 477      90EDAF0C 
 477      4CC80E08 
 477      63B3FD
 478 1543 A3832383 		.ascii	"\243\203#\203\225\341\354HhL\305\313\331p \214\217d"
 478      95E1EC48 
 478      684CC5CB 
 478      D970208C 
 478      8F64
ARM GAS  /tmp/ccBJVcRX.s 			page 38


 479 1555 97F291D2 		.ascii	"\227\362\221\322pv8\344\317\016VD\204QB\350\261\321"
 479      707638E4 
 479      CF0E5644 
 479      845142E8 
 479      B1D1
 480 1567 8C73D08B 		.ascii	"\214s\320\213%yO&\252=\232/\203:\376\2621\001!\273\274"
 480      25794F26 
 480      AA3D9A2F 
 480      833AFEB2 
 480      310121BB 
 481 157c DCEF0B57 		.ascii	"\334\357\013W\005\241nJAANNeEipT\256\025\200\252\312"
 481      05A16E4A 
 481      41414E4E 
 481      65456970 
 481      54AE1580 
 482 1592 50249C5D 		.ascii	"P$\234]\\R\360x\377\354a\303r\263\213\207\347\217\355"
 482      5C52F078 
 482      FFEC61C3 
 482      72B38B87 
 482      E78FED
 483 15a5 970D50BE 		.ascii	"\227\015P\276\262\262\000\201\203\202\334Pp\254\020"
 483      B2B20081 
 483      8382DC50 
 483      70AC10
 484 15b4 EA6F871F 		.ascii	"\352o\207\037\312K*\354\302\021>\"\370\"\251\200\343"
 484      CA4B2AEC 
 484      C2113E22 
 484      F822A980 
 484      E3
 485 15c5 1B51985F 		.ascii	"\033Q\230_\230_\222L\016\213K\212\206\023l\2377o`\356"
 485      985F924C 
 485      0E8B4B8A 
 485      86136C9F 
 485      376F60EE 
 486 15d9 8BF8EFC0 		.ascii	"\213\370\357\300\234\222\374\347\363\322\311aNQ\301"
 486      9C92FCE7 
 486      F3D2C961 
 486      4E51C1
 487 15e8 F0617925 		.ascii	"\360ay%y.\254}\017\300\370\371\262\262\221\274\377e"
 487      792EAC7D 
 487      0FC0F8F9 
 487      B2B291BC 
 487      FF65
 488 15fa 5FC42D54 		.ascii	"_\304-T\004|\376\221O[QnNAq~1H\227\035\216\224?\336"
 488      047CFE91 
 488      4F5B516E 
 488      4E41717E 
 488      3148971D 
 489 1612 BFB45FDF 		.ascii	"\277\264_\337\361\300U\372\220\341\371E\276\222\011"
 489      F1C055FA 
 489      90E1F945 
 489      BE9209
 490 1621 5542AE50 		.ascii	"UB\256P\372H\366\230p(\233\017\225\377\272\242\262B"
 490      FA48F698 
 490      70289B0F 
 490      95FFBAA2 
 490      B242
ARM GAS  /tmp/ccBJVcRX.s 			page 39


 491 1633 F8B5C08F 		.ascii	"\370\265\300\217\014*BD\002`\023\250\221<\006\366\217"
 491      0C2A4244 
 491      026013A8 
 491      913C06F6 
 491      8F
 492 1644 F7F7459E 		.ascii	"\367\367E\236\210su9\017,T\010\331\276\200P\312\217"
 492      88737539 
 492      0F2C5408 
 492      D9BE8050 
 492      CA8F
 493 1656 298BF822 		.ascii	")\213\370\"\320B\230h\301\347\223\353;r\274\303`\033"
 493      D0429868 
 493      C1E793EB 
 493      3B72BCC3 
 493      601B
 494 1668 EAC8CFF5 		.ascii	"\352\310\317\365:\212r\275\316A\305^\257c\220\327\353"
 494      3A8A72BD 
 494      CE41C55E 
 494      AF6390D7 
 494      EB
 495 1679 1C96F39C 		.ascii	"\034\226\363\2347\257;\006#\302\200\305\252\3702\311"
 495      37AF3B06 
 495      23C280C5 
 495      AAF832C9 
 496 1689 62A9C14A 		.ascii	"b\251\301JrM0\000\252\012\207\311!\262\337\357I0\002"
 496      724D3000 
 496      AA0A87C9 
 496      21B2DFEF 
 496      493002
 497 169c E5841CBA 		.ascii	"\345\204\034\272\340/>\340\360\207\372\021+P\207q\373"
 497      E02F3EE0 
 497      F087FA11 
 497      2B508771 
 497      FB
 498 16ad 7197D06D 		.ascii	"q\227\320mC\221\230\320\376\321\341\011aY\320\344\310"
 498      439198D0 
 498      FED1E109 
 498      6159D0E4 
 498      C8
 499 16be E890C043 		.ascii	"\350\220\300C\273)\376\321>z\374\204=,\377h\"\201\273"
 499      BB29FED1 
 499      3E7AFC84 
 499      3D2CFF68 
 499      2281BB
 500 16d1 CA5701D6 		.ascii	"\312W\001\326\203]UH\030;\324\002\004U\312@oAN\301x"
 500      835D5548 
 500      183BD402 
 500      0455CA40 
 500      6F414EC1 
 501 16e6 B8B2BC2A 		.ascii	"\270\262\274*X&\204\302\331Crr\340r\231\275\244HU(X"
 501      582684C2 
 501      D9437272 
 501      E07299BD 
 501      A4485528 
 502 16fb E9A3B8C1 		.ascii	"\351\243\270\301\312$\2206\002\315$t\244.\370\243\375"
 502      CA249036 
 502      02CD2474 
ARM GAS  /tmp/ccBJVcRX.s 			page 40


 502      A42EF8A3 
 502      FD
 503 170c 95210100 		.ascii	"\225!\001\000\323H\261\017\024\352\217\214\377\317\356"
 503      D348B10F 
 503      14EA8F8C 
 503      FFCFEE
 504 171b A1F8C63E 		.ascii	"\241\370\306>UN4\027\022F\201W\371\"\\\350\011.\364"
 504      554E3417 
 504      12468157 
 504      F9225CE8 
 504      092EF4
 505 172e 1B2EF424 		.ascii	"\033.\364$\027z\212\013\015\340BO;B\375\372\302\326"
 505      177A8A0B 
 505      0DE0424F 
 505      3B42FDFA 
 505      C2D6
 506 1740 8F2B0BC1 		.ascii	"\217+\013\301\356qW\225\017ZK\"\032\032'\204`_Y\026"
 506      EE715795 
 506      0F5A4B22 
 506      1A1A2784 
 506      605F5916 
 507 1754 10424463 		.ascii	"\020BDc|\271\220\034\221z[\0221\363\0000\00458\034\301"
 507      7CB9901C 
 507      917A5B12 
 507      31F30030 
 507      0435381C 
 508 1769 95F85F52 		.ascii	"\225\370_R\244\2742 \340yi\031?*\234\024\011\011\245"
 508      A4BC3220 
 508      E0796919 
 508      3F2A9C14 
 508      0909A5
 509 177c 61540A39 		.ascii	"aT\0129p\225\207G\301\237\222\273Bu\351\310\035\012"
 509      70958747 
 509      C19F92BB 
 509      4275E9C8 
 509      1D0A
 510 178e 4C80BF92 		.ascii	"L\200\277\222\205\361\301\010\310(\270\307E*G\376\241"
 510      85F1C108 
 510      C828B8C7 
 510      452A47FE 
 510      A1
 511 179f 2A4D182B 		.ascii	"*M\030+TD\312\3710\366\313q\344\300Q\345\033\223A\215"
 511      5444CAF9 
 511      30F6CB71 
 511      E4C051E5 
 511      1B93418D 
 512 17b3 1FF69541 		.ascii	"\037\366\225A\367\367Ez\304\334\201\226\244T\371\306"
 512      F7F7457A 
 512      C4DC8196 
 512      A454F9C6 
 513 17c3 F1C148B0 		.ascii	"\361\301H\260bT\017\271\370\217c\2041"
 513      62540FB9 
 513      F88F6384 
 513      31
 514 17d0 C055A6EA 		.ascii	"\300U\246\352J,J\255\362A\263x\350\302C(\020\252 \002"
 514      4A2C4AAD 
 514      F241B378 
ARM GAS  /tmp/ccBJVcRX.s 			page 41


 514      E8C24328 
 514      10AA2002 
 515 17e4 406557F9 		.ascii	"@eW\371\030\260\337\343\266<\254<B\"@R9E\207}\345\270"
 515      18B0DFE3 
 515      B63CAC3C 
 515      42224052 
 515      3945877D 
 516 17fa 0A502322 		.ascii	"\012P#\"\201\010\345\350x\300\037\\G8M%Z\341\313\320"
 516      8108E5E8 
 516      78C01F5C 
 516      47384D25 
 516      5AE1CBD0 
 517 180e 5DA0B0AA 		.ascii	"]\240\260\252\262\262\354)[\355I\302@\233\275\244\316"
 517      B2B2EC29 
 517      5BED49C2 
 517      409BBDA4 
 517      CE
 518 181f 015A1642 		.ascii	"\001Z\026BB\205\037\244u\323\2424\022\361\244p\004\301"
 518      42851FA4 
 518      75D3A234 
 518      12F1A470 
 518      04C1
 519 1831 A15F8A37 		.ascii	"\241_\2127\2578\317\373|^n_8\353\037;\353\307\025{c"
 519      AF38CFFB 
 519      7C5E6E5F 
 519      38EB1F3B 
 519      EBC7157B 
 520 1846 27FDB95C 		.ascii	"'\375\271\\\345\344qW\2167g\270r\376\204\333\373\002"
 520      E5E47157 
 520      8E3767B8 
 520      72FE84DB 
 520      FB02
 521 1858 942805BF 		.ascii	"\224(\005\277q\227h\013\236L\312\357_\2343x\210R\362"
 521      7197680B 
 521      9E4CCAEF 
 521      5F9C3378 
 521      8852F2
 522 186b 940B4A54 		.ascii	"\224\013JT\030\003\034\020t\007\333\015HH\007\367\033"
 522      18031C10 
 522      7407DB0D 
 522      484807F7 
 522      1B
 523 187c 3F9E065C 		.ascii	"?\236\006\\_\240\234\007\321\357\315-\030\350\313\031"
 523      5FA09C07 
 523      D1EFCD2D 
 523      18E8CB19 
 524 188c CD575408 		.ascii	"\315WT\010e\212\2409^WNan\211\327\2313| \220\202\201"
 524      658AA039 
 524      5E574E61 
 524      6E89D799 
 524      337C2090 
 525 18a2 DE243FBD 		.ascii	"\336$?\275\306\031,\365\207\334\301\360\350`i$%,\224"
 525      C6192CF5 
 525      87DCC1F0 
 525      E8606924 
 525      252C94
 526 18b5 95062B02 		.ascii	"\225\006+\002\302x\367X\301\037\251\014\365\212!\203"
ARM GAS  /tmp/ccBJVcRX.s 			page 42


 526      C278F758 
 526      C11FA90C 
 526      F58A2183 
 527 18c5 4383FAA0 		.ascii	"C\203\372\240\323\270\340$4\236\320\310\370\224\320"
 527      D3B8E024 
 527      349ED0C8 
 527      F894D0
 528 18d4 78D8131F 		.ascii	"x\330\023\037O\211\310GN\020\245\312U\026\366\227\216"
 528      4F89C847 
 528      4E10A5CA 
 528      5516F697 
 528      8E
 529 18e5 728D2634 		.ascii	"r\215&49XI{\201\3137\010L\232\021\016\300\370\031\016"
 529      3958497B 
 529      81CB3708 
 529      4C9A110E 
 529      C0F8190E 
 530 18f9 96579509 		.ascii	"\226W\225\011\217\371q\004\245C^z\354\350\371\202\222"
 530      8FF97104 
 530      A5435E7A 
 530      ECE8F982 
 530      92
 531 190a B460187A 		.ascii	"\264`\030zCX\010E\204@:\034W\205*#\300\221\020 \201"
 531      43580845 
 531      84403A1C 
 531      57852A23 
 531      C0911020 
 532 191f A4028E52 		.ascii	"\244\002\216R\003\301\260t\350$vu\215\013\005#\320\370"
 532      03C1B074 
 532      E8247675 
 532      8D0B0523 
 532      D0F8
 533 1931 840AFF6F 		.ascii	"\204\012\377o\355\214\235p\354\013V\216,\253\364\277"
 533      ED8C9D70 
 533      EC0B568E 
 533      2CABF4BF 
 534 1941 0CCAEB31 		.ascii	"\014\312\3531\210\034\344\012c\203~!\277\242\2642yd"
 534      881CE40A 
 534      63837E21 
 534      BFA2B432 
 534      7964
 535 1953 D9CBBE70 		.ascii	"\331\313\276p\360\177\204$rP1\246<y\224@\202Pi\245c"
 535      F07F8424 
 535      725031A6 
 535      3C799440 
 535      825069A5 
 536 1968 6C792415 		.ascii	"ly$\025\012\345\021w\320\260\347\344\021\227\034\222"
 536      0AE51177 
 536      D0B0E7E4 
 536      11971C92 
 537 1978 1117CBE8 		.ascii	"\021\027\313\3508\233A\016s\212\012\013\363\340\264"
 537      389B410E 
 537      738A0A0B 
 537      F3E0B4
 538 1987 70484F72 		.ascii	"pHOr\232\233_\254\224\244\220\022\034\235\323\344#("
 538      9A9B5FAC 
 538      94A49012 
ARM GAS  /tmp/ccBJVcRX.s 			page 43


 538      1C9DD3E4 
 538      2328
 539 1999 C5E3DF7B 		.ascii	"\305\343\337{\363K\344\343\342\027\013s\340\330\341"
 539      F34BE4E3 
 539      E2170B73 
 539      E0D8E1
 540 19a8 0FC26812 		.ascii	"\017\302h\022\016$\373\371*\336\037\214L\350\201\002"
 540      0E24FBF9 
 540      2ADE1F8C 
 540      4CE88102 
 541 19b8 F8F84020 		.ascii	"\370\370@ $\204\303B\2707IQ`\204\362\201\352\374|(\020"
 541      2484C342 
 541      B8374951 
 541      6084F281 
 541      EAFC7C28 
 542 19cd D3A513FE 		.ascii	"\323\245\023\376\010<\244\372\027\325\246\250Wc\035"
 542      083CA4FA 
 542      17D5A6A8 
 542      57631D
 543 19dc E8BB784A 		.ascii	"\350\273xJ\0060\262'\246\015$\014\001\332<\253\264\024"
 543      0630B227 
 543      A60D240C 
 543      01DA3CAB 
 543      B414
 544 19ee 605C8307 		.ascii	"`\\\203\007\226\014.N\"\241\017\034\322\021\010\215"
 544      960C2E4E 
 544      22A10F1C 
 544      D211088D 
 545 19fe 75F98956 		.ascii	"u\371\211V\335\025>\2702\354\032G\242cri8\210a\322\371"
 545      DD153EB8 
 545      32EC1A47 
 545      A2637269 
 545      388861D2 
 546 1a13 FB226F2E 		.ascii	"\373\"o.\027\014\244T\370B\225\225\220\026\204\\\271"
 546      170CA454 
 546      F8429595 
 546      9016845C 
 546      B9
 547 1a24 A428B58C 		.ascii	"\244(\265\214\207\000\007f\203PQ\032\022\004z\230\214"
 547      87000766 
 547      8350511A 
 547      12047A98 
 547      8C
 548 1a35 1810185D 		.ascii	"\030\020\030]\245h\250\261\225\220\272\204\205$(\304"
 548      A568A8B1 
 548      9590BA84 
 548      852428C4 
 549 1a45 3D5427FB 		.ascii	"=T'\373\344\000\037\341\261`\034\321\205?\342\200}R"
 549      E4001FE1 
 549      B1601CD1 
 549      853FE280 
 549      7D52
 550 1a57 290C5D30 		.ascii	")\014]0\246&\203p^p\242\011\300\"\356{\240\274\371\025"
 550      A6268370 
 550      5E70A209 
 550      C022EE7B 
 550      A0BCF915 
ARM GAS  /tmp/ccBJVcRX.s 			page 44


 551 1a6b 1037F932 		.ascii	"\0207\3712@\345\302\201LR4D\210\304\2744\025\257\201"
 551      40E5C281 
 551      4C523444 
 551      88C4BC34 
 551      15AF81
 552 1a7e 92C1C554 		.ascii	"\222\301\305Tk\203\213\013*\307\300(\027\270\007Nrc"
 552      6B838B0B 
 552      2AC7C028 
 552      17B8074E 
 552      7263
 553 1a90 EE993418 		.ascii	"\356\2314\030\272\371\210a%\256\301^_\321si@\301\362"
 553      BAF98861 
 553      25AEC15E 
 553      5FD17369 
 553      40C1F2
 554 1aa3 CFF9F2BC 		.ascii	"\317\371\362\274\336T8\316/,!\207\351pXXT\"%hx\342\033"
 554      DE5438CE 
 554      2F2C2187 
 554      E9705858 
 554      54222568 
 555 1aba 9C3F2C4F 		.ascii	"\234?,O:\034>\260dh\017\274\372\371\201\303\362s}\205"
 555      3A1C3EB0 
 555      64680FBC 
 555      FAF981C3 
 555      F2737D85 
 556 1ace 030BF252 		.ascii	"\003\013\362R\010R^a~^n2\034\345\275\220_\\\322SuI\321"
 556      08525E61 
 556      7E5E6E32 
 556      1CE5BD90 
 556      5F5CD253 
 557 1ae5 A0FF02D7 		.ascii	"\240\377\002\327\352\005%\304\201\362|\303\275E%P\220"
 557      EA0525C4 
 557      81F27CC3 
 557      BD452550 
 557      90
 558 1af6 979BA9BA 		.ascii	"\227\233\251\272(\327K\234Sj;\257p\340\240a\364\177"
 558      28D74B9C 
 558      536A3BAF 
 558      70E0A061 
 558      F47F
 559 1b08 A9F5E217 		.ascii	"\251\365\342\027\213K\362\012H\303\005\317\015.\366"
 559      8B4BF20A 
 559      48C305CF 
 559      0D2EF6
 560 1b17 0D1C54E4 		.ascii	"\015\034T\344\005\000\302SI~A^\321\210\022\302\303\260"
 560      0500C253 
 560      497E415E 
 560      D18812C2 
 560      C3B0
 561 1b29 A29CE7F2 		.ascii	"\242\234\347\362r{\305@\212F\014\031\012\276\356\315"
 561      727BC540 
 561      8A460C19 
 561      0ABEEECD 
 562 1b39 BB9F5C57 		.ascii	"\273\237\\WT\344+\030X\370\242\257hx^!\305\274O\325"
 562      54E42B18 
 562      58F8A2AF 
 562      68785E21 
ARM GAS  /tmp/ccBJVcRX.s 			page 45


 562      C5BC4FD5 
 563 1b4d 3E042390 		.ascii	">\004#\220\244$\317\353*\311\031\0121\251\324WNT\230"
 563      A424CFEB 
 563      2AC9190A 
 563      31A9D457 
 563      4E5498
 564 1b60 0A0ACCA1 		.ascii	"\012\012\314\241\332#\246)\216\360\241\010Qj\321\310"
 564      DA23A629 
 564      8EF0A108 
 564      516AD1C8 
 565 1b70 3F401131 		.ascii	"?@\0211K:\315\273\350`\230\345\223\0222_X\210\214\012"
 565      4B3ACDBB 
 565      E86098E5 
 565      9312325F 
 565      58888C0A 
 566 1b84 558EA922 		.ascii	"U\216\251\"\001\307M@ \010\221\234\272\037\004\244\034"
 566      01C74D40 
 566      2008919C 
 566      BA1F04A4 
 566      1C
 567 1b95 0C488412 		.ascii	"\014H\204\022\023B\200\317\375?\2358u\311"
 567      134280CF 
 567      FD3F9D38 
 567      75C9
 568              		.text
 569              		.section	.gnu.lto_.symtab.8801a71fe2dd437f,"",%progbits
 570 0000 6D6D635F 		.ascii	"mmc_lld_is_card_inserted\000\000\000\000\000\000\000"
 570      6C6C645F 
 570      69735F63 
 570      6172645F 
 570      696E7365 
 571 001f 00000000 		.ascii	"\000\000\000\000\000\372\001\000\000mmc_lld_is_writ"
 571      00FA0100 
 571      006D6D63 
 571      5F6C6C64 
 571      5F69735F 
 572 0037 655F7072 		.ascii	"e_protected\000\000\000\000\000\000\000\000\000\000"
 572      6F746563 
 572      74656400 
 572      00000000 
 572      00000000 
 573 004c 00006302 		.ascii	"\000\000c\002\000\000sdmmcInitialize\000\000\000\000"
 573      00007364 
 573      6D6D6349 
 573      6E697469 
 573      616C697A 
 574 0065 00000000 		.ascii	"\000\000\000\000\000\000\000\000g\002\000\000sdmmGe"
 574      00000000 
 574      67020000 
 574      73646D6D 
 574      4765
 575 0077 744D4D43 		.ascii	"tMMCDriver\000\000\000\000\000\000\000\000\000\000\000"
 575      44726976 
 575      65720000 
 575      00000000 
 575      00000000 
 576 008c 00B00200 		.ascii	"\000\260\002\000\000sdmmcGetFS\000\000\000\000\000\000"
ARM GAS  /tmp/ccBJVcRX.s 			page 46


 576      0073646D 
 576      6D634765 
 576      74465300 
 576      00000000 
 577 00a1 00000000 		.ascii	"\000\000\000\000\000\000\266\002\000\000sdmmcFSMoun"
 577      0000B602 
 577      00007364 
 577      6D6D6346 
 577      534D6F75 
 578 00b6 74656400 		.ascii	"ted\000\000\000\000\000\000\000\000\000\000\000\000"
 578      00000000 
 578      00000000 
 578      000000
 579 00c5 BC020000 		.ascii	"\274\002\000\000SPID1\000\000\002\000\000\000\000\000"
 579      53504944 
 579      31000002 
 579      00000000 
 579      00
 580 00d6 00000000 		.ascii	"\000\000\000\000\022\003\000\000mmcDisconnect\000\000"
 580      12030000 
 580      6D6D6344 
 580      6973636F 
 580      6E6E6563 
 581 00ed 02000000 		.ascii	"\002\000\000\000\000\000\000\000\000\000\300\002\000"
 581      00000000 
 581      0000C002 
 581      00
 582 00fa 00665F6D 		.ascii	"\000f_mount\000\000\002\000\000\000\000\000\000\000"
 582      6F756E74 
 582      00000200 
 582      00000000 
 582      0000
 583 010c 0000C202 		.ascii	"\000\000\302\002\000\000mmcConnect\000\000\002\000\000"
 583      00006D6D 
 583      63436F6E 
 583      6E656374 
 583      00000200 
 584 0121 00000000 		.ascii	"\000\000\000\000\000\000\000\372\002\000\000mmcStar"
 584      000000FA 
 584      0200006D 
 584      6D635374 
 584      6172
 585 0133 74000002 		.ascii	"t\000\000\002\000\000\000\000\000\000\000\000\000\374"
 585      00000000 
 585      00000000 
 585      00FC
 586 0141 0200006D 		.ascii	"\002\000\000mmcObjectInit\000\000\002\000\000\000\000"
 586      6D634F62 
 586      6A656374 
 586      496E6974 
 586      00000200 
 587 0158 00000000 		.ascii	"\000\000\000\000\000\001\003\000\000_pal_lld_setgro"
 587      00010300 
 587      005F7061 
 587      6C5F6C6C 
 587      645F7365 
 588 0170 75706D6F 		.ascii	"upmode\000\000\002\000\000\000\000\000\000\000\000\000"
ARM GAS  /tmp/ccBJVcRX.s 			page 47


 588      64650000 
 588      02000000 
 588      00000000 
 588      0000
 589 0182 05030000 		.ascii	"\005\003\000\000"
 590              		.text
 591              		.section	.gnu.lto_.opts,"",%progbits
 592 0000 272D6D63 		.ascii	"'-mcpu=cortex-m3' '-mno-thumb-interwork' '-mthumb' "
 592      70753D63 
 592      6F727465 
 592      782D6D33 
 592      2720272D 
 593 0033 272D4F32 		.ascii	"'-O2' '-fomit-frame-pointer' '-falign-functions=16'"
 593      2720272D 
 593      666F6D69 
 593      742D6672 
 593      616D652D 
 594 0066 20272D66 		.ascii	" '-ffunction-sections' '-fdata-sections' '-fno-comm"
 594      66756E63 
 594      74696F6E 
 594      2D736563 
 594      74696F6E 
 595 0099 6F6E2720 		.ascii	"on' '-flto'\000"
 595      272D666C 
 595      746F2700 
 596              		.text
 597              		.section	.text.mmc_lld_is_card_inserted,"ax",%progbits
 598              		.align	2
 599              		.p2align 4,,15
 600              		.global	mmc_lld_is_card_inserted
 601              		.thumb
 602              		.thumb_func
 603              		.type	mmc_lld_is_card_inserted, %function
 604              	mmc_lld_is_card_inserted:
 605              		@ args = 0, pretend = 0, frame = 0
 606              		@ frame_needed = 0, uses_anonymous_args = 0
 607              		@ link register save eliminated.
 608 0000 024B     		ldr	r3, .L2
 609 0002 9868     		ldr	r0, [r3, #8]
 610 0004 C0F3C010 		ubfx	r0, r0, #7, #1
 611 0008 7047     		bx	lr
 612              	.L3:
 613 000a 00BF     		.align	2
 614              	.L2:
 615 000c 00100140 		.word	1073811456
 616              		.size	mmc_lld_is_card_inserted, .-mmc_lld_is_card_inserted
 617              		.section	.text.mmc_lld_is_write_protected,"ax",%progbits
 618              		.align	2
 619              		.p2align 4,,15
 620              		.global	mmc_lld_is_write_protected
 621              		.thumb
 622              		.thumb_func
 623              		.type	mmc_lld_is_write_protected, %function
 624              	mmc_lld_is_write_protected:
 625              		@ args = 0, pretend = 0, frame = 0
 626              		@ frame_needed = 0, uses_anonymous_args = 0
 627              		@ link register save eliminated.
ARM GAS  /tmp/ccBJVcRX.s 			page 48


 628 0000 034B     		ldr	r3, .L5
 629 0002 9868     		ldr	r0, [r3, #8]
 630 0004 C0F34020 		ubfx	r0, r0, #9, #1
 631 0008 80F00100 		eor	r0, r0, #1
 632 000c 7047     		bx	lr
 633              	.L6:
 634 000e 00BF     		.align	2
 635              	.L5:
 636 0010 00080140 		.word	1073809408
 637              		.size	mmc_lld_is_write_protected, .-mmc_lld_is_write_protected
 638 0014 AFF30080 		.section	.text.sdmmcInitialize,"ax",%progbits
 638      AFF30080 
 638      AFF30080 
 639              		.align	2
 640              		.p2align 4,,15
 641              		.global	sdmmcInitialize
 642              		.thumb
 643              		.thumb_func
 644              		.type	sdmmcInitialize, %function
 645              	sdmmcInitialize:
 646              		@ args = 0, pretend = 0, frame = 0
 647              		@ frame_needed = 0, uses_anonymous_args = 0
 648 0000 F8B5     		push	{r3, r4, r5, r6, r7, lr}
 649 0002 2449     		ldr	r1, .L16
 650 0004 244A     		ldr	r2, .L16+4
 651 0006 254F     		ldr	r7, .L16+8
 652 0008 254B     		ldr	r3, .L16+12
 653 000a 0025     		movs	r5, #0
 654 000c 254E     		ldr	r6, .L16+16
 655 000e 0446     		mov	r4, r0
 656 0010 80E82600 		stmia	r0, {r1, r2, r5}
 657 0014 4573     		strb	r5, [r0, #13]
 658 0016 4021     		movs	r1, #64
 659 0018 3846     		mov	r0, r7
 660 001a 0622     		movs	r2, #6
 661 001c 1C60     		str	r4, [r3]
 662 001e FFF7FEFF 		bl	_pal_lld_setgroupmode
 663 0022 3046     		mov	r0, r6
 664 0024 8021     		movs	r1, #128
 665 0026 0322     		movs	r2, #3
 666 0028 FFF7FEFF 		bl	_pal_lld_setgroupmode
 667 002c 1E48     		ldr	r0, .L16+20
 668 002e 2021     		movs	r1, #32
 669 0030 1022     		movs	r2, #16
 670 0032 FFF7FEFF 		bl	_pal_lld_setgroupmode
 671 0036 1C48     		ldr	r0, .L16+20
 672 0038 8021     		movs	r1, #128
 673 003a 1022     		movs	r2, #16
 674 003c FFF7FEFF 		bl	_pal_lld_setgroupmode
 675 0040 4021     		movs	r1, #64
 676 0042 0222     		movs	r2, #2
 677 0044 1848     		ldr	r0, .L16+20
 678 0046 FFF7FEFF 		bl	_pal_lld_setgroupmode
 679 004a 2068     		ldr	r0, [r4]
 680 004c FFF7FEFF 		bl	mmcObjectInit
 681 0050 2068     		ldr	r0, [r4]
 682 0052 1649     		ldr	r1, .L16+24
ARM GAS  /tmp/ccBJVcRX.s 			page 49


 683 0054 FFF7FEFF 		bl	mmcStart
 684 0058 B368     		ldr	r3, [r6, #8]
 685 005a 1B06     		lsls	r3, r3, #24
 686 005c 02D4     		bmi	.L13
 687 005e 0126     		movs	r6, #1
 688              	.L8:
 689 0060 3046     		mov	r0, r6
 690 0062 F8BD     		pop	{r3, r4, r5, r6, r7, pc}
 691              	.L13:
 692 0064 4023     		movs	r3, #64
 693 0066 7B61     		str	r3, [r7, #20]
 694 0068 2068     		ldr	r0, [r4]
 695 006a FFF7FEFF 		bl	mmcConnect
 696 006e 0646     		mov	r6, r0
 697 0070 10B1     		cbz	r0, .L14
 698 0072 2E46     		mov	r6, r5
 699 0074 3046     		mov	r0, r6
 700 0076 F8BD     		pop	{r3, r4, r5, r6, r7, pc}
 701              	.L14:
 702 0078 A068     		ldr	r0, [r4, #8]
 703 007a 0D49     		ldr	r1, .L16+28
 704 007c 3246     		mov	r2, r6
 705 007e FFF7FEFF 		bl	f_mount
 706 0082 18B9     		cbnz	r0, .L15
 707 0084 0126     		movs	r6, #1
 708 0086 6673     		strb	r6, [r4, #13]
 709 0088 3046     		mov	r0, r6
 710 008a F8BD     		pop	{r3, r4, r5, r6, r7, pc}
 711              	.L15:
 712 008c 2068     		ldr	r0, [r4]
 713 008e FFF7FEFF 		bl	mmcDisconnect
 714 0092 E5E7     		b	.L8
 715              	.L17:
 716              		.align	2
 717              	.L16:
 718 0094 00000000 		.word	.LANCHOR0
 719 0098 00000000 		.word	SPID1
 720 009c 000C0140 		.word	1073810432
 721 00a0 00000000 		.word	.LANCHOR1
 722 00a4 00100140 		.word	1073811456
 723 00a8 00080140 		.word	1073809408
 724 00ac 00000000 		.word	.LANCHOR2
 725 00b0 00000000 		.word	.LC0
 726              		.size	sdmmcInitialize, .-sdmmcInitialize
 727 00b4 AFF30080 		.section	.text.sdmmGetMMCDriver,"ax",%progbits
 727      AFF30080 
 727      AFF30080 
 728              		.align	2
 729              		.p2align 4,,15
 730              		.global	sdmmGetMMCDriver
 731              		.thumb
 732              		.thumb_func
 733              		.type	sdmmGetMMCDriver, %function
 734              	sdmmGetMMCDriver:
 735              		@ args = 0, pretend = 0, frame = 0
 736              		@ frame_needed = 0, uses_anonymous_args = 0
 737              		@ link register save eliminated.
ARM GAS  /tmp/ccBJVcRX.s 			page 50


 738 0000 037B     		ldrb	r3, [r0, #12]	@ zero_extendqisi2
 739 0002 0BB1     		cbz	r3, .L20
 740 0004 0068     		ldr	r0, [r0]
 741 0006 7047     		bx	lr
 742              	.L20:
 743 0008 1846     		mov	r0, r3
 744 000a 7047     		bx	lr
 745              		.size	sdmmGetMMCDriver, .-sdmmGetMMCDriver
 746 000c AFF30080 		.section	.text.sdmmcGetFS,"ax",%progbits
 747              		.align	2
 748              		.p2align 4,,15
 749              		.global	sdmmcGetFS
 750              		.thumb
 751              		.thumb_func
 752              		.type	sdmmcGetFS, %function
 753              	sdmmcGetFS:
 754              		@ args = 0, pretend = 0, frame = 0
 755              		@ frame_needed = 0, uses_anonymous_args = 0
 756              		@ link register save eliminated.
 757 0000 437B     		ldrb	r3, [r0, #13]	@ zero_extendqisi2
 758 0002 0BB1     		cbz	r3, .L23
 759 0004 8068     		ldr	r0, [r0, #8]
 760 0006 7047     		bx	lr
 761              	.L23:
 762 0008 1846     		mov	r0, r3
 763 000a 7047     		bx	lr
 764              		.size	sdmmcGetFS, .-sdmmcGetFS
 765 000c AFF30080 		.section	.text.sdmmcFSMounted,"ax",%progbits
 766              		.align	2
 767              		.p2align 4,,15
 768              		.global	sdmmcFSMounted
 769              		.thumb
 770              		.thumb_func
 771              		.type	sdmmcFSMounted, %function
 772              	sdmmcFSMounted:
 773              		@ args = 0, pretend = 0, frame = 0
 774              		@ frame_needed = 0, uses_anonymous_args = 0
 775              		@ link register save eliminated.
 776 0000 407B     		ldrb	r0, [r0, #13]	@ zero_extendqisi2
 777 0002 7047     		bx	lr
 778              		.size	sdmmcFSMounted, .-sdmmcFSMounted
 779 0004 AFF30080 		.section	.data.hsCfg,"aw",%progbits
 779      AFF30080 
 779      AFF30080 
 780              		.align	2
 781              		.type	hsCfg, %object
 782              		.size	hsCfg, 12
 783              	hsCfg:
 784 0000 00000000 		.word	0
 785 0004 000C0140 		.word	1073810432
 786 0008 0600     		.short	6
 787 000a 0000     		.short	0
 788              		.section	.data.mmcCfg,"aw",%progbits
 789              		.align	2
 790              		.set	.LANCHOR2,. + 0
 791              		.type	mmcCfg, %object
 792              		.size	mmcCfg, 12
ARM GAS  /tmp/ccBJVcRX.s 			page 51


 793              	mmcCfg:
 794 0000 00000000 		.word	SPID1
 795 0004 00000000 		.word	lsCfg
 796 0008 00000000 		.word	hsCfg
 797              		.section	.bss.MMCD1,"aw",%nobits
 798              		.align	2
 799              		.set	.LANCHOR0,. + 0
 800              		.type	MMCD1, %object
 801              		.size	MMCD1, 52
 802              	MMCD1:
 803 0000 00000000 		.space	52
 803      00000000 
 803      00000000 
 803      00000000 
 803      00000000 
 804              		.section	.bss.SD,"aw",%nobits
 805              		.align	2
 806              		.set	.LANCHOR1,. + 0
 807              		.type	SD, %object
 808              		.size	SD, 4
 809              	SD:
 810 0000 00000000 		.space	4
 811              		.section	.rodata.str1.4,"aMS",%progbits,1
 812              		.align	2
 813              	.LC0:
 814 0000 2F00     		.ascii	"/\000"
 815 0002 0000     		.section	.data.lsCfg,"aw",%progbits
 816              		.align	2
 817              		.type	lsCfg, %object
 818              		.size	lsCfg, 12
 819              	lsCfg:
 820 0000 00000000 		.word	0
 821 0004 000C0140 		.word	1073810432
 822 0008 0600     		.short	6
 823 000a 3000     		.short	48
 824              		.comm	__gnu_lto_v1,1,1
 825              		.ident	"GCC: (GNU Tools for ARM Embedded Processors) 4.8.4 20140526 (release) [ARM/embedded-4_8-br
ARM GAS  /tmp/ccBJVcRX.s 			page 52


DEFINED SYMBOLS
                            *ABS*:0000000000000000 sdmmcsimple.c
     /tmp/ccBJVcRX.s:598    .text.mmc_lld_is_card_inserted:0000000000000000 $t
     /tmp/ccBJVcRX.s:604    .text.mmc_lld_is_card_inserted:0000000000000000 mmc_lld_is_card_inserted
     /tmp/ccBJVcRX.s:615    .text.mmc_lld_is_card_inserted:000000000000000c $d
     /tmp/ccBJVcRX.s:618    .text.mmc_lld_is_write_protected:0000000000000000 $t
     /tmp/ccBJVcRX.s:624    .text.mmc_lld_is_write_protected:0000000000000000 mmc_lld_is_write_protected
     /tmp/ccBJVcRX.s:636    .text.mmc_lld_is_write_protected:0000000000000010 $d
     /tmp/ccBJVcRX.s:639    .text.sdmmcInitialize:0000000000000000 $t
     /tmp/ccBJVcRX.s:645    .text.sdmmcInitialize:0000000000000000 sdmmcInitialize
     /tmp/ccBJVcRX.s:718    .text.sdmmcInitialize:0000000000000094 $d
     /tmp/ccBJVcRX.s:728    .text.sdmmGetMMCDriver:0000000000000000 $t
     /tmp/ccBJVcRX.s:734    .text.sdmmGetMMCDriver:0000000000000000 sdmmGetMMCDriver
     /tmp/ccBJVcRX.s:747    .text.sdmmcGetFS:0000000000000000 $t
     /tmp/ccBJVcRX.s:753    .text.sdmmcGetFS:0000000000000000 sdmmcGetFS
     /tmp/ccBJVcRX.s:766    .text.sdmmcFSMounted:0000000000000000 $t
     /tmp/ccBJVcRX.s:772    .text.sdmmcFSMounted:0000000000000000 sdmmcFSMounted
     /tmp/ccBJVcRX.s:780    .data.hsCfg:0000000000000000 $d
     /tmp/ccBJVcRX.s:783    .data.hsCfg:0000000000000000 hsCfg
     /tmp/ccBJVcRX.s:789    .data.mmcCfg:0000000000000000 $d
     /tmp/ccBJVcRX.s:793    .data.mmcCfg:0000000000000000 mmcCfg
     /tmp/ccBJVcRX.s:819    .data.lsCfg:0000000000000000 lsCfg
     /tmp/ccBJVcRX.s:798    .bss.MMCD1:0000000000000000 $d
     /tmp/ccBJVcRX.s:802    .bss.MMCD1:0000000000000000 MMCD1
     /tmp/ccBJVcRX.s:805    .bss.SD:0000000000000000 $d
     /tmp/ccBJVcRX.s:809    .bss.SD:0000000000000000 SD
     /tmp/ccBJVcRX.s:812    .rodata.str1.4:0000000000000000 $d
     /tmp/ccBJVcRX.s:816    .data.lsCfg:0000000000000000 $d
                            *COM*:0000000000000001 __gnu_lto_v1
     /tmp/ccBJVcRX.s:638    .text.mmc_lld_is_write_protected:0000000000000014 $t
     /tmp/ccBJVcRX.s:727    .text.sdmmcInitialize:00000000000000b4 $t

UNDEFINED SYMBOLS
_pal_lld_setgroupmode
mmcObjectInit
mmcStart
mmcConnect
f_mount
mmcDisconnect
SPID1
