ARM GAS  /tmp/ccnQiFEw.s 			page 1


   1              		.syntax unified
   2              		.cpu cortex-m4
   3              		.eabi_attribute 27, 3
   4              		.eabi_attribute 28, 1
   5              		.fpu fpv4-sp-d16
   6              		.eabi_attribute 20, 1
   7              		.eabi_attribute 21, 1
   8              		.eabi_attribute 23, 3
   9              		.eabi_attribute 24, 1
  10              		.eabi_attribute 25, 1
  11              		.eabi_attribute 26, 1
  12              		.eabi_attribute 30, 2
  13              		.eabi_attribute 34, 1
  14              		.eabi_attribute 18, 4
  15              		.thumb
  16              		.file	"serial_lld.c"
  17              		.section	.gnu.lto_.jmpfuncs.1a25707fab025e31,"",%progbits
  18 0000 789C6D4D 		.ascii	"x\234mM\253\025\200@\014K\332\343\361y\010F@1\023\036"
  18      AB158040 
  18      0C4BDAE3 
  18      F1790846 
  18      4031131E 
  19 0014 75820930 		.ascii	"u\202\0110'\231\210\341P\224\036\234\201\2126i\322T"
  19      279988E1 
  19      50941E9C 
  19      818A3669 
  19      D254
  20 0026 20F8ABE3 		.ascii	" \370\253\343\231-@\2250F\0320.4\277\314\214\344\000"
  20      992D4095 
  20      30461A30 
  20      2E34BFCC 
  20      8CE400
  21 0039 14DCB8EA 		.ascii	"\024\334\270\352Qo\313B\012\200j\000\235\312\004Tf\225"
  21      516FCB42 
  21      0A806A00 
  21      9DCA0454 
  21      6695
  22 004b 0D67DAD3 		.ascii	"\015g\332\323\020\251+\375O\015\375.\375&\334\240H\325"
  22      10A92BFD 
  22      4F0DFD2E 
  22      FD26DCA0 
  22      48D5
  23 005d 92A546F3 		.ascii	"\222\245F\363\237\022\233A\017tf\270\000f\203\023\266"
  23      9F129B41 
  23      0F7466B8 
  23      00668313 
  23      B6
  24              		.text
  25              		.section	.gnu.lto_.inline.1a25707fab025e31,"",%progbits
  26 0000 789C6D52 		.ascii	"x\234mR\277K[Q\024>\347\276\233\367n4\322T\024Q\304"
  26      BF4B5B51 
  26      143EE7BE 
  26      9BF76E34 
  26      D2541451 
  27 0015 B849176F 		.ascii	"\270I\027om\377\201't\261h\206\252\320Mb\022|\301\330"
  27      6DFF8127 
  27      74B16886 
ARM GAS  /tmp/ccnQiFEw.s 			page 2


  27      AAD04D62 
  27      127CC1D8 
  28 0029 94C40AE2 		.ascii	"\224\304\012\342r\007\207\214\241\177@\211:\324\335"
  28      7207878C 
  28      A17F4089 
  28      3AD4DD
  29 0038 455CCC56 		.ascii	"E\\\314VJ\027\021G\005\207R\034;\013\202\347\334\373"
  29      4A171147 
  29      0587521C 
  29      3B0B82E7 
  29      DCFB
  30 004a 92F8C440 		.ascii	"\222\370\304@\316\371\316\217\233|\337w\257\000\001"
  30      CEF9CE8F 
  30      9B7CDF77 
  30      AF0001
  31 0059 2F7DFE51 		.ascii	"/}\376Q\373#\3454\200\237B\020\376\377Y\360\3339\273"
  31      FB23E534 
  31      809F4210 
  31      FEFF59F0 
  31      DB39BB
  32 006c 8C303A89 		.ascii	"\2140:\211\002\321a\000\217\276v6uu\205\222\273^\006"
  32      02D16100 
  32      8FBE7636 
  32      75758592 
  32      BB5E06
  33 007f 40B4F2AD 		.ascii	"@\264\362\255\274\200_\360]\240\340=\257\035\330u\271"
  33      BC805FF0 
  33      5DA0E03D 
  33      AF1DD875 
  33      B9
  34 0090 F6FB2103 		.ascii	"\366\373!\003\351\3637\324\275\013\244\213ON%2\266\362"
  34      E9F337D4 
  34      BD0BA48B 
  34      4F4E2532 
  34      B6F2
  35 00a2 5E86FEFF 		.ascii	"^\206\376\377&\210\301\345\004\203x\001\306\2470\015"
  35      2688C1E5 
  35      04837801 
  35      C6A7300D 
  36 00b2 1B9FB182 		.ascii	"\033\237\261\202\276i\357\033\376\231(Q\305\263\343"
  36      BE69EF1B 
  36      FE992851 
  36      C5B3E3
  37 00c1 C42CAE98 		.ascii	"\304,\256\230\014\253\360\\|kch\343\3640\013\316\260"
  37      0CABF05C 
  37      7C6B6368 
  37      E3F4300B 
  37      CEB0
  38 00d3 00D9CE85 		.ascii	"\000\331\316\205 \233\223\241\002\374\351\033\234V\002"
  38      209B93A1 
  38      02FCE91B 
  38      9C5602
  39 00e2 BC937D64 		.ascii	"\274\223}d\304\035\256m\002\354Ps\204\246\235\034e."
  39      C41DAE6D 
  39      02EC5073 
  39      84A69D1C 
  39      652E
ARM GAS  /tmp/ccnQiFEw.s 			page 3


  40 00f4 A9E0C80A 		.ascii	"\251\340\310\012\215\240\301\351\230\261r\215t\205\264"
  40      8DA0C1E9 
  40      98B1728D 
  40      7485B4
  41 0103 85728562 		.ascii	"\205r\205b\017$\250\3543\273\305 SM\201?\206\366\262"
  41      0F24A8EC 
  41      33BBC520 
  41      534D813F 
  41      86F6B2
  42 0116 7AD730D0 		.ascii	"z\3270\320\033\006\356\224\270x\325\233\312!w1\012F"
  42      1B06EE94 
  42      B878D59B 
  42      CA217731 
  42      0A46
  43 0128 46318DD6 		.ascii	"F1\215\326\207\200OE]\344\274QH\232\2351\016n\354\301"
  43      87804F45 
  43      5DE4BC51 
  43      489A9D31 
  43      0E6EECC1 
  44 013c BD699ADB 		.ascii	"\275i\232\333\243\263?\324\363\266\320=\210\250\200"
  44      A3B33FD4 
  44      F3B6D03D 
  44      88A880
  45 014b 07B8E70C 		.ascii	"\007\270\347\014\263\326\321*\303\200\024@\320\234\261"
  45      B3D6D12A 
  45      C3801440 
  45      D09CB1
  46 015a 46F5D5A5 		.ascii	"F\365\325\245\2323\244N\336\015\032\225\005\377/\206"
  46      9A33A44E 
  46      DE0D1A95 
  46      05FF2F86 
  47 016a D9C4BB20 		.ascii	"\331\304\273 @\035\":\000C\212\3308*\242OE<\241\322"
  47      401D223A 
  47      00438AD8 
  47      382AA24F 
  47      453CA1D2 
  48 017e F9914B12 		.ascii	"\371\221K\0229d\"}\016\335\207\245\272\346\020\207\320"
  48      3964227D 
  48      0EDD87A5 
  48      BAE61087 
  48      D0
  49 018f 52A0F1BD 		.ascii	"R\240\361\2750\310o\314f\360\257_;VB\306\026f\031,\350"
  49      30C86FCC 
  49      66F0AF5F 
  49      3B5642C6 
  49      1666192C 
  50 01a4 A8B655D6 		.ascii	"\250\266U\326\305ZiW\227\312;\272\030U\326+\265\206"
  50      C55A6957 
  50      97CA3BBA 
  50      1855D62B 
  50      B586
  51 01b6 DEAE7FFB 		.ascii	"\336\256\177\373\262\251\011D\205\252\376Z\253o7\364"
  51      B2A90944 
  51      85AAFE5A 
  51      AB6F37F4 
  52 01c6 F2CAD2FB 		.ascii	"\362\312\322\373wzq\361\203^]\236\377\264\2623\247\033"
  52      777A71F1 
ARM GAS  /tmp/ccnQiFEw.s 			page 4


  52      835E5D9E 
  52      FFB4B233 
  52      A71B
  53 01d8 E57AA550 		.ascii	"\345z\245P]\253VK\263Ex\004\322\356\206\374"
  53      5DAB564B 
  53      B3457804 
  53      D2EE86FC 
  54              		.text
  55              		.section	.gnu.lto_.pureconst.1a25707fab025e31,"",%progbits
  56 0000 789C6362 		.ascii	"x\234cb`b\020f\200\000N\006)F\011&+f)\026)V\011v\011"
  56      60621066 
  56      80004E06 
  56      29460926 
  56      2B662916 
  57 0019 0E292E29 		.ascii	"\016).)\000\015\345\001M"
  57      000DE501 
  57      4D
  58              		.text
  59              		.section	.gnu.lto_notify2.1a25707fab025e31,"",%progbits
  60 0000 789C6362 		.ascii	"x\234cb`b@\007\222@\374\023\210\275\201\230\221\231"
  60      60624007 
  60      9240FC13 
  60      88BD8198 
  60      9199
  61 0012 819169C2 		.ascii	"\201\221i\3029\006\206F\016&FF\020\203\201\221\241\236"
  61      39068646 
  61      0E264646 
  61      10838191 
  61      A19E
  62 0024 89B13E92 		.ascii	"\211\261>\222\021\254v=\323\201\007\377\377\257\273"
  62      11AC763D 
  62      D38107FF 
  62      FFAFBB
  63 0033 766ED91F 		.ascii	"vn\331\037\306]L\254L\014\231\214\014\314 \002\010X"
  63      C65D4CAC 
  63      4C0C998C 
  63      0CCC2002 
  63      0858
  64 0045 195A1A1A 		.ascii	"\031Z\032\032&(00$\203\271!@\022d@(#\023\210f>\313p"
  64      26283030 
  64      2483B921 
  64      40126440 
  64      28231388 
  65 005d E8D68DD7 		.ascii	"\350\326\215\327?\031\023\031\0272\2622\24432i3\254"
  65      3F191319 
  65      1732B232 
  65      A4333269 
  65      33AC
  66 006f 6A686914 		.ascii	"jhi\024\310dd\234\3150\2131\223\221)\002H07t46\2600"
  66      C864649C 
  66      CD308B31 
  66      93912902 
  66      48303774 
  67 0087 8099601B 		.ascii	"\200\231`\033\223\030a\356<\313\320\274\223\031\246"
  67      931861EE 
  67      3CCBD0BC 
  67      9319A6
ARM GAS  /tmp/ccnQiFEw.s 			page 5


  68 0096 9B391DA2 		.ascii	"\2339\035\242\236\241\201\021,u\310\023\"C\232\241\351"
  68      9EA18111 
  68      2C75C813 
  68      22439AA1 
  68      E9
  69 00a7 20FE4586 		.ascii	" \376E\206\306\007\353\325!\332a \204\221\021\344hP"
  69      C607EBD5 
  69      21DA6120 
  69      849111E4 
  69      6850
  70 00b9 6079EA67 		.ascii	"`y\352g\344\347\246\352'\347\247T\352\247\244\226\351"
  70      E4E7A6EA 
  70      27E7A754 
  70      EAA7A496 
  70      E9
  71 00ca 27676426 		.ascii	"'gd&e\346\027\353\227\024\225\346e\353\003\031\031\211"
  71      65E617EB 
  71      971495E6 
  71      65EB0319 
  71      1989
  72 00dc 39FA05F9 		.ascii	"9\372\005\371E%\305\372\301!\276\306F\372>>.\372\241"
  72      4525C5FA 
  72      C121BEC6 
  72      46FA3E3E 
  72      2EFAA1
  73 00ef C18E4121 		.ascii	"\301\216A!e\206\372\305\251E\231\2119\36199)z\311\014"
  73      6586FAC5 
  73      A9459989 
  73      39F13939 
  73      297AC90C 
  74 0103 00D3E555 		.ascii	"\000\323\345UD"
  74      44
  75              		.text
  76              		.section	.gnu.lto_set_error.1a25707fab025e31,"",%progbits
  77 0000 789C8D52 		.ascii	"x\234\215RMkSA\024\275w\346}'\005[t\343B\202 \005\205"
  77      4D6B5341 
  77      14BD77E6 
  77      7D27055B 
  77      74E34282 
  78 0017 0EB67F40 		.ascii	"\016\266\177@\301\215\02076A]I\372\022\222\207\251\221"
  78      C18D1037 
  78      36415D49 
  78      FA129287 
  78      A991
  79 0029 BC58D022 		.ascii	"\274X\320\"}1\021\262\020)\242\013u\323\020\320R\004"
  79      7D3111B2 
  79      1029A20B 
  79      75D310D0 
  79      5204
  80 003b D7621771 		.ascii	"\327b\027q'\370E0.\334\005D\334\004\324\225X\012\361"
  80      27F84530 
  80      2EDC0544 
  80      DC04D495 
  80      580AF1
  81 004e CEFBC8AB 		.ascii	"\316\373\310\253\315\306\201\314\2359w\3569\347\346"
  81      CDC681CC 
  81      9D3977EE 
ARM GAS  /tmp/ccnQiFEw.s 			page 6


  81      39E7E6
  82 005d 5D060CF6 		.ascii	"]\006\014\366\257[\364\273\300\001\032\0241\001\310"
  82      AF5BF4BB 
  82      C0011A14 
  82      3101C8
  83 006c D63F00D4 		.ascii	"\326?\000\324\015\306xk\026<K\221{\222\243\022\300\012"
  83      0DC6786B 
  83      163C4B91 
  83      7B92A312 
  83      C00A
  84 007e 537D58F3 		.ascii	"S}X\363a\025\265\000\326\230\356\303\206\017\353h\004"
  84      6115B500 
  84      D698EEC3 
  84      860FEB68 
  84      04
  85 008f B0C1CCBE 		.ascii	"\260\301\314\276 \330\332>B\260\211V\000[\210\362\000"
  85      20D8DA3E 
  85      42B08956 
  85      005B88F2 
  85      00
  86 00a0 086B8C2B 		.ascii	"\010k\214+\252\246\033\246\205k\227P\332\301\243\320"
  86      AAA61BA6 
  86      856B9750 
  86      DAC1A3D0 
  87 00b0 F6BCFB83 		.ascii	"\366\274\373\203o\235\327\354\221\327mnx\273\243\021"
  87      6F9DD7EC 
  87      91D76D6E 
  87      78BBA311 
  88 00c0 A283643D 		.ascii	"\242\203d=\215`#\\\244\013\246\374\300\224\177{y\301"
  88      8D60235C 
  88      A40BA6FC 
  88      C0947F7B 
  88      79C1
  89 00d2 BA83D168 		.ascii	"\272\203\321h\330\333\376\272\20533\0109l\023\037\013"
  89      D8DBFEBA 
  89      85333308 
  89      396C131F 
  89      0B
  90 00e3 230FA312 		.ascii	"#\017\243\022F\025\227\0214p\220\353r3B\330\224\027"
  90      46159711 
  90      347090EB 
  90      723342D8 
  90      9417
  91 00f5 2BBC24C2 		.ascii	"+\274$\302\230\244\2678E\031eZ\246IK\205\246\347\255"
  91      98A4B738 
  91      4519655A 
  91      A6494B85 
  91      A6E7AD
  92 0108 A7823448 		.ascii	"\247\2024Hc\2642\264\313\326\262\310d\344\357\241\361"
  92      63B432B4 
  92      CBD6B2C8 
  92      64E4EFA1 
  92      F1
  93 0119 AAF1FDC1 		.ascii	"\252\361\375\301\341\034vP\205\"N\027Q\225\306I\014"
  93      E11C7650 
  93      85224E17 
  93      5195C649 
ARM GAS  /tmp/ccnQiFEw.s 			page 7


  93      0C
  94 012a E00D3487 		.ascii	"\340\0154\207\365\251q\312\307\367v\223\241kk\226gQ"
  94      F5A971CA 
  94      C7F77693 
  94      A16B6B96 
  94      6751
  95 013c 89B97EC4 		.ascii	"\211\271~\304\\Z\304\205\023\\\332>\256/\200\022\241"
  95      5C5AC485 
  95      135CDA3E 
  95      AE2F8012 
  95      A1
  96 014d 13DBED6D 		.ascii	"\023\333\355m\004g\017\201?\377\224\227^U)C\364/\033"
  96      04670F81 
  96      3FFF9497 
  96      5E552943 
  96      F42F1B
  97 0160 BF0E4614 		.ascii	"\277\016F\024F\021\375wj*\344\310\242\026\333\370\035"
  97      4611FD77 
  97      6A2AE4C8 
  97      A216DBF8 
  97      1D
  98 0171 DBD0231B 		.ascii	"\333\320#\033l\302\206>a\203\021\253\202\304\256\276"
  98      6CC2863E 
  98      618311AB 
  98      82C4AEBE 
  99 0181 0BA4F5B1 		.ascii	"\013\244\365\261\364\237\261\264UD\346K\237\032K\033"
  99      F49FB1B4 
  99      5544E64B 
  99      9F1A4B1B 
 100 0191 B1F42896 		.ascii	"\261\364(\2266#ieB\332\234\220\346\304\252\221\264\245"
 100      36236965 
 100      42DA9C90 
 100      E6C4AA91 
 100      B4A5
 101 01a3 0F036913 		.ascii	"\017\003i\023\372\"\220n\037\212\312\022E\344\276\264"
 101      FA22906E 
 101      1F8ACA12 
 101      45E4BEB4 
 102 01b3 C7C6DA56 		.ascii	"\307\306\332V\250}{\247\361\354!\217^N\255\302M\232"
 102      A87D7BA7 
 102      F1EC218F 
 102      5E4EADC2 
 102      4D9A
 103 01c5 861370DC 		.ascii	"\206\023p\334A\355\011<\246\"\372'\222\262\330\360\013"
 103      41ED093C 
 103      A622FA27 
 103      92B2D8F0 
 103      0B
 104 01d6 9770CFA7 		.ascii	"\227p\317\247\374\010w~nv\236\336\023\341\324D\343\323"
 104      FC08777E 
 104      6E769EDE 
 104      13E1D444 
 104      E3D3
 105 01e8 7DDB9F07 		.ascii	"}\333\237\007\0108m\014+Va\307ky\007\0344md9\334\244"
 105      08386D0C 
 105      2B5661C7 
 105      6B79071C 
ARM GAS  /tmp/ccnQiFEw.s 			page 8


 105      346D6439 
 106 01fe 1C2D922C 		.ascii	"\034-\222,\242\342\220\035\350A}\260u,\250\212\332S"
 106      A2E2901D 
 106      E8417DB0 
 106      752CA88A 
 106      DA53
 107 0210 C8B941ED 		.ascii	"\310\271A\355%\314\273\237\363rvP\332\226]\234\025\245"
 107      25CCBB9F 
 107      F3727650 
 107      DA965D9C 
 107      15A5
 108 0222 CA7241D8 		.ascii	"\312rA\330\225\374\015\221/\254\010\273\344,9\025W\324"
 108      95FC0D91 
 108      2FAC08BB 
 108      E42C3915 
 108      57D4
 109 0234 AAD7AF5E 		.ascii	"\252\327\257^\021t(\345\312\342Z\245Zs\305b\346\334"
 109      117428E5 
 109      CAE25AA5 
 109      5A73C562 
 109      E6DC
 110 0246 C2BC48A7 		.ascii	"\302\274H\247\317\210\354\342\351\363\231\225\223\302"
 110      CF88ECE2 
 110      E9F39995 
 110      93C2
 111 0254 2D549D5C 		.ascii	"-T\235\\\371r\271\234\237\263\201\2735w\341\177\330"
 111      F972B99C 
 111      9FB381BB 
 111      3577E17F 
 111      D8
 112 0265 2A2E6DD5 		.ascii	"*.m\325\232\037\347J\360\027$\306\365\203"
 112      9A1FE74A 
 112      F01724C6 
 112      F583
 113              		.text
 114              		.section	.gnu.lto_serve_interrupt.1a25707fab025e31,"",%progbits
 115 0000 789CB556 		.ascii	"x\234\265VklTE\024>\347\336\335\356v\337}mii\351\246"
 115      6B6C5445 
 115      143EE7DE 
 115      DDEE76DF 
 115      7D6D6969 
 116 0016 A1428AE9 		.ascii	"\241B\212\351\266\002-\376\253\021MH 1}$\342\037l\267"
 116      B6022DFE 
 116      AB114D48 
 116      20317D24 
 116      E21F6CB7 
 117 002a 6BBBB1A5 		.ascii	"k\273\261\245u\267%\"?\270}@\010 iP\036\276b\011\001"
 117      75B72522 
 117      3FB87D40 
 117      08206950 
 117      1EBE6209 
 118 003f A2462088 		.ascii	"\242F \210\001\225Hi)b\020\012\206\010-\030\253H\300"
 118      01954869 
 118      2962100A 
 118      86082D18 
 118      AB48C0
 119 0052 D44791E0 		.ascii	"\324G\221\340\203 \353\231\231\235\273\333\262\260\255"
ARM GAS  /tmp/ccnQiFEw.s 			page 9


 119      8320EB99 
 119      999DBBDB 
 119      B2B0AD
 120 0061 C1FD313B 		.ascii	"\301\3751;\217\363}s\346\233s\316\035\005\024\230\370"
 120      8FF37D73 
 120      E69B73CE 
 120      1D051498 
 120      F8
 121 0072 7323C087 		.ascii	"s#\300\207v\200G\350\0373\001\225\3563\000\355fEQ\317"
 121      768047E8 
 121      1F330195 
 121      EE3300ED 
 121      664551CF 
 122 0086 BB41B318 		.ascii	"\273A\263\030\216\224\201fS\321 \246\015h\026\035\243"
 122      8E948166 
 122      53D120A6 
 122      0D68161D 
 122      A3
 123 0097 92C4D74D 		.ascii	"\222\304\327M|=\011Mb\332$\326\217\231\315\212q\343"
 123      7C3D094D 
 123      62DA24D6 
 123      8F99CD8A 
 123      71E3
 124 00a9 174006C9 		.ascii	"\027@\006\311]&2HV,\353f\321\310\311Z\233E\261r\260"
 124      5D263248 
 124      562CEB66 
 124      D1C8C95A 
 124      9B45B172 
 125 00be 9383AD8A 		.ascii	"\223\203\255\212\255\307B#\373X?\001l6t\010.\273\354"
 125      ADC74223 
 125      FB583F01 
 125      6C367408 
 125      2EBBEC
 126 00d1 38D0293A 		.ascii	"8\320):N\305u\336K\226\356#3\310\320\245\244\\\266\322"
 126      4EC575DE 
 126      4B96EE23 
 126      33C8D0A5 
 126      A45CB6D2 
 127 00e5 28F5601F 		.ascii	"(\365`\037\303\245(i|\213T\276E*\246\011L\232\222\316"
 127      C3A52869 
 127      7C8B54BE 
 127      452AA609 
 127      4C9A92CE 
 128 00f9 F7CAE07B 		.ascii	"\367\312\340{\245c\206\230\316@\267\350\270\021Y\007"
 128      A5638698 
 128      CE40B7E8 
 128      B8115907 
 129 0109 10562BAA 		.ascii	"\020V+\252\301\230d2'[\2546\273\303\351JIMK\317p\343"
 129      C1986432 
 129      275BAC36 
 129      BBC3E94A 
 129      494D4BCF 
 130 011f EAA5C874 		.ascii	"\352\245\310t2\346\303\016M\333<r\365\363\237\360\215"
 130      32E6C30E 
 130      4DDB3C72 
 130      F5F39FF0 
 130      8D
ARM GAS  /tmp/ccnQiFEw.s 			page 10


 131 0130 D77BBB7A 		.ascii	"\327{\273z\264;\3410b\000I\323\305\010>\204gi\200\036"
 131      B43BE130 
 131      620049D3 
 131      C5083E84 
 131      6769801E 
 132 0144 FEA718C6 		.ascii	"\376\247\030\306\213,\260\275\267\326o\311\322z:\272"
 132      8B2CB0BD 
 132      B7D66FC9 
 132      D27A3ABA 
 133 0154 B5BB040D 		.ascii	"\265\273\004\015\240\252\3003\223D\376\275~\3234\255"
 133      A0AAC033 
 133      9344FEBD 
 133      7ED334AD 
 134 0164 A75D220D 		.ascii	"\247]\"\015\012TD\221.\201T\342 \273{/\234z5vO\243\002"
 134      0A544491 
 134      2E8154E2 
 134      20BB7B2F 
 134      9C7A3576 
 135 017b D593DAB3 		.ascii	"\325\223\332\263{\344\273\265'\326\342\326\376\216\223"
 135      7BE4BBB5 
 135      27D6E2D6 
 135      FE8E93
 136 018a 5A572F61 		.ascii	"ZW/a\363\002\230\244\300&L\204\336\247\364\216\204\303"
 136      F30298A4 
 136      C0264C84 
 136      DEA7F48E 
 136      84C3
 137 019c BB7F5F7F 		.ascii	"\273\177_\177\342q|\012\241\006wa>X\260\011\301J\203"
 137      E2717C0A 
 137      A1067761 
 137      3E58B009 
 137      C14A83
 138 01af 9D34B001 		.ascii	"\2354\260\001\251fg\215#\262\354d\203\024jLnj\014\231"
 138      A966678D 
 138      23B2EC64 
 138      83146A4C 
 138      6E6A0C99 
 139 01c3 ACC96273 		.ascii	"\254\311bs\331\324\230sX/7b\232\307\006\036f\220OM\362"
 139      D9D49873 
 139      582F3762 
 139      9AC7061E 
 139      66904F4D 
 140 01d8 4C9ADE43 		.ascii	"L\232\336C\323\005\014<\213\255\315fM!M\357\240\351"
 140      D3050C3C 
 140      8BADCD66 
 140      4D214DEF 
 140      A0E9
 141 01ea 22365DCC 		.ascii	"\"6]\314f\346Qc\231\317\232Rj\254ed\360\036\031,\240"
 141      66E65163 
 141      99CF9A52 
 141      6AAC6564 
 141      F01E192C 
 142 01ff 816D21A3 		.ascii	"\201m!\243cw\014]tp\217\360Rl\007\354\264\364\253\242"
 142      63770C5D 
 142      74708FF0 
 142      526C07EC 
 142      B4F4ABA2 
ARM GAS  /tmp/ccnQiFEw.s 			page 11


 143 0213 9622B91A 		.ascii	"\226\"\271\032\025\372SOC\307\360\305\275\347\224\032"
 143      15FA534F 
 143      43C7F0C5 
 143      BDE7941A 
 144 0223 FC008D50 		.ascii	"\374\000\215P\217\3269\360\276F\277\020]\352[\360&\251"
 144      8FD639F0 
 144      BE46BF10 
 144      5DEA5BF0 
 144      26A9
 145 0235 62AF470B 		.ascii	"b\257G\013S\307\3015\251E\251\316i\350\033\376k\357"
 145      53C7C135 
 145      A945A9CE 
 145      69E81BFE 
 145      6BEF
 146 0247 908EB431 		.ascii	"\220\216\2641d\027\031:\005\316Ed\014\247Fp\030\203"
 146      6417193A 
 146      05CE4564 
 146      0CA74670 
 146      1883
 147 0259 DBBE2FBA 		.ascii	"\333\276/\272\243=\001N\321q\035\243\235A\211r\020\220"
 147      A33D014E 
 147      D1711DA3 
 147      9D418972 
 147      1090
 148 026b CD757ED6 		.ascii	"\315u~\326\031\336\222-g\2354\313\260\2401\324I\350"
 148      19DE922D 
 148      679D34CB 
 148      B0A031D4 
 148      49E8
 149 027d FAB9DDAE 		.ascii	"\372\271\335\256\257\361\205\330_5\355\261FQ\317@\307"
 149      AFF185D8 
 149      5F35EDB1 
 149      4651CF40 
 149      C7
 150 028e 8DBD0307 		.ascii	"\215\275\003\0076\252\021\321\000\004\204\247\022\302"
 150      36AA11D1 
 150      000484A7 
 150      12C2
 151 029c 05B22236 		.ascii	"\005\262\"6UT\234\031p\035\337\321\266\227\0070\205"
 151      55549C19 
 151      701DDFD1 
 151      B6970730 
 151      85
 152 02ad 0D1967AA 		.ascii	"\015\031g\252\207\365\364\365\321\310z\232\356\366\355"
 152      87F5F4F5 
 152      D1C87A9A 
 152      EEF6ED
 153 02bc FE533F56 		.ascii	"\376S?VH7RV\301+t\223s\2400\200\351\361\025V\243.\016"
 153      48375256 
 153      C12B7493 
 153      73A03080 
 153      E9F11556 
 154 02d3 C29AB1D1 		.ascii	"\302\232\261\321=\2737yu\337D\247\227\030\245\237>)"
 154      3DBB3779 
 154      75DF44A7 
 154      9718A59F 
 154      3E29
ARM GAS  /tmp/ccnQiFEw.s 			page 12


 155 02e5 ED2AB8AD 		.ascii	"\355*\270\255\255\323\\\001\314\360!\311{D\234\201\266"
 155      ADD35C01 
 155      CCF021C9 
 155      7B449C81 
 155      B6
 156 02f6 64E46ECD 		.ascii	"d\344n\315@\261\221\311\365?|\361\300\020\0120\027\277"
 156      40B191C9 
 156      F53F7CF1 
 156      C0100A30 
 156      17BF
 157 0308 5DB32790 		.ascii	"]\263'\220\237k\027\376'\034v\322`r\202\325\340A\352"
 157      9F6B17FE 
 157      271C76D2 
 157      607282D5 
 157      E041EA
 158 031b 70812046 		.ascii	"p\201 F\240\032<\2043b\357\300\300\302\220(q\262l\236"
 158      A01A3C84 
 158      3362EFC0 
 158      C0C29028 
 158      71B26C9E 
 159 032f 07B11981 		.ascii	"\007\261\031\201\212\265\312\342\242\177\303/}\252T"
 159      8AB5CAE2 
 159      A27FC32F 
 159      7DAA54
 160 033e 7D613D22 		.ascii	"}a=\"\003\033\2342.J\364%>?>.\222`0]%\355G.\255\261"
 160      031B9C32 
 160      2E4AF425 
 160      3E3F3E2E 
 160      9260305D 
 161 0358 486F7475 		.ascii	"Hotu\247\371\"\342\320\265\325\263\272\231%a\246\310"
 161      A7F922E2 
 161      D0B5D5B3 
 161      BA992561 
 161      A6C8
 162 036a E614E087 		.ascii	"\346\024\340\207\206\364\275\263\022\004\270\334\233"
 162      86F4BDB3 
 162      1204B8DC 
 162      9B
 163 0377 07F80194 		.ascii	"\007\370\001\224\260\354zF<\010\306{\034\310\366E0\334"
 163      B0EC7A46 
 163      3C08C67B 
 163      1CC8F645 
 163      30DC
 164 0389 81EC004E 		.ascii	"\201\354\000N\027Yu\370\320\220\216\316\231JV\325JT"
 164      175975F8 
 164      D0908ECE 
 164      994A56D5 
 164      4A54
 165 039b 2E01E561 		.ascii	".\001\345a\314@_\023\256d\347\225\255\271\322\"S\012"
 165      CC405F13 
 165      AE64E795 
 165      ADB9D222 
 165      530A
 166 03ad E99142CE 		.ascii	"\351\221B\316\325\227&\0109\004Hyj\370\352B\013\021"
 166      D5972608 
 166      39044879 
 166      6AF8EA42 
ARM GAS  /tmp/ccnQiFEw.s 			page 13


 166      0B11
 167 03bf 9B2E5F7A 		.ascii	"\233._z\236\261&Gn\373\241\004\220\270\346[\321k\316"
 167      9EB12647 
 167      6EFBA104 
 167      90B8E65B 
 167      D16BCE
 168 03d2 A33224F2 		.ascii	"\2432$\362\037ab\376\347\305\311\177\013\364\251\342"
 168      1F6162FE 
 168      E7C5C97F 
 168      0BF4A9E2 
 169 03e2 889FEAF5 		.ascii	"\210\237\352\365\310-O\030\345X\255\257\305\211\025"
 169      C82D4F18 
 169      E558ADAF 
 169      C58915
 170 03f1 2B856E9C 		.ascii	"+\205n\234\023\351\025x\017\257\275\372\001\247\032"
 170      13E91578 
 170      0FAFBDFA 
 170      01A71A
 171 0400 D6A27EFC 		.ascii	"\326\242~\374\261\231\316x\226\373\220\317\013H2/ 9"
 171      B199CE78 
 171      96FB90CF 
 171      0B48322F 
 171      2039
 172 0412 F10B8831 		.ascii	"\361\013\2101\352\337 t\365\232$t\246\036B\271\276\210"
 172      EADF2074 
 172      F59A2474 
 172      A61E42B9 
 172      BE88
 173 0424 11F105D8 		.ascii	"\021\361\005\330V'\341\370\325c\337n\260\351\246\214"
 173      5627E1F8 
 173      D563DF6E 
 173      B0E9A68C 
 174 0434 2F6FFC49 		.ascii	"/o\374Im\220\302\276\027\267;\217n\323)\013\036R9\373"
 174      6D90C2BE 
 174      17B73B8F 
 174      6ED3290B 
 174      1E5239FB 
 175 0448 33C84E7D 		.ascii	"3\310N}\366\001\345\354\222,g\005\274\234\231e5c\361"
 175      F601E5EC 
 175      922C6705 
 175      BC9C9965 
 175      3563F1
 176 045b B96DA9F4 		.ascii	"\271m\251\364g\226\214\200\243wU\021!\237\350\312\315"
 176      67968C80 
 176      A3775511 
 176      219FE8CA 
 176      CD
 177 046c A665BE56 		.ascii	"\246e\276V\316W\372\276<\0339F\244\010\226$\370v\021"
 177      CE57FABE 
 177      3C1B3946 
 177      A4089624 
 177      F87611
 178 047f 8394C20E 		.ascii	"\203\224\302\0167Xnt\374\332\371\333\266\\\311_H\262"
 178      37586E74 
 178      FCDAF9DB 
 178      B65CC95F 
 178      48B2
ARM GAS  /tmp/ccnQiFEw.s 			page 14


 179 0491 71E24593 		.ascii	"q\342E\223\244\225Y\\(i\035\361cI\320M5;\004\245S|\345"
 179      A495595C 
 179      28691DF1 
 179      6349D04D 
 179      353B04A5 
 180 04a8 59A21CDF 		.ascii	"Y\242\034\337\251'\212G\006y\371=y\342\211\023\343."
 180      A9278A47 
 180      0679F93D 
 180      79E28913 
 180      E32E
 181 04ba D865987A 		.ascii	"\330e\230z\326\336?\242\207\357\214\216\\\177nb\020"
 181      D6DE3FA2 
 181      87EF8C8E 
 181      5C7F6E62 
 181      10
 182 04cb 6C18784D 		.ascii	"l\030xM\215~\324\222\2046\363\304\203\204\275\341\276"
 182      8D7ED492 
 182      8436F3C4 
 182      8384BDE1 
 182      BE
 183 04dc 41851E3D 		.ascii	"A\205\036=$e\273\306\302\"'\022g\311\305B\315$\206\275"
 183      2465BBC6 
 183      C2222712 
 183      67C9C542 
 183      CD2486BD 
 184 04f0 2E1C627B 		.ascii	".\034b{\354O\253\301k\374H\363yx\336\037i\212AR\"\\"
 184      EC4FABC1 
 184      6BFC48F3 
 184      7978DE1F 
 184      698A4152 
 185 0506 6B3F8712 		.ascii	"k?\207\022:\217\320\261J\244\300\327\374\342\207\307"
 185      3A8FD0B1 
 185      4AA4C0D7 
 185      FCE287C7 
 186 0516 A64B9352 		.ascii	"\246K\223R\316\356\271/\273y\034;I\035e/ev\236X\255"
 186      CEEEB92F 
 186      BB791C3B 
 186      491D652F 
 186      65769E58 
 187 052b ABE83AEF 		.ascii	"\253\350:\357\250j5=\037Hr\036a\016i\275\240\036\313"
 187      A86A353D 
 187      1F48721E 
 187      610E69BD 
 187      A01ECB
 188 053e 04C5F703 		.ascii	"\004\305\367\003?\034\323K\375\002Fb\213R\014A\031\233"
 188      3F1CD34B 
 188      FD024662 
 188      8B520C41 
 188      199B
 189 0550 49A277E8 		.ascii	"I\242w\350\335\217\367\037l\340\003\200T\356\177:\274"
 189      DD8FF71F 
 189      6CE00380 
 189      54EE7F3A 
 189      BC
 190 0561 8BAAA829 		.ascii	"\213\252\250)\003!\311P\364\220\222x \224\350MrS&q\021"
 190      0321C950 
 190      F4909278 
ARM GAS  /tmp/ccnQiFEw.s 			page 15


 190      2094E84D 
 190      72532671 
 191 0576 4F629748 		.ascii	"Ob\227Hb!m\20681\345\363Go\027J\327\212\365|\016\253"
 191      62216D86 
 191      3831E5F3 
 191      476F174A 
 191      D78AF57C 
 192 058c 91ACED36 		.ascii	"\221\254\3556M\362\351\"\263\266X<z\016_\371/\217\236"
 192      4DF2E922 
 192      B3B6583C 
 192      7A0E5FF9 
 192      2F8F9E
 193 059f A3E1FFE3 		.ascii	"\243\341\377\343\321\343fYy\016\332\307:n\032b?\015"
 193      D1E36659 
 193      790EDAC7 
 193      3A6E1A62 
 193      3F0D
 194 05b1 2C0090D6 		.ascii	",\000\220\326\030j\221\267\241\271\311\357\3655\327"
 194      186A91B7 
 194      A1B9C9EF 
 194      F535D7
 195 05c0 ADF4D6F9 		.ascii	"\255\364\326\371Wx}\015\201\332@s\310\333\032l[\376"
 195      57787D0D 
 195      81DA4073 
 195      C8DB1A6C 
 195      5BFE
 196 05d2 A2973A0D 		.ascii	"\242\227:\0155\215\336\226\346`k\310[Y\265d\356c\336"
 196      358DDE96 
 196      E6606BC8 
 196      5B59B564 
 196      EE63DE
 197 05e5 C58B177A 		.ascii	"\305\213\027z\253+\237\250\250ZQ\342\015\371\203\201"
 197      AB2B9FA8 
 197      A85A51E2 
 197      0DF98381 
 198 05f5 9AC6658D 		.ascii	"\232\306e\215\215uE>Pk\213\212\261M\011\005\261\266"
 198      8D75453E 
 198      506B8B8A 
 198      B14D0905 
 198      B1B6
 199 0607 341169B0 		.ascii	"4\021i\260\325\033X\356kl\253#\243\206\227\332\374m"
 199      D51B58EE 
 199      6B6CAB23 
 199      A38697DA 
 199      FC6D
 200 0619 FE505103 		.ascii	"\376PQ\003\230\002/\2646\265\024\225\224'\202\373_n"
 200      98022FB4 
 200      36B51495 
 200      942782FB 
 200      5F6E
 201 062b F53EB9A4 		.ascii	"\365>\271\244rQe\224\2459\350_\346kz\272m\271\217\210"
 201      72516594 
 201      A539E85F 
 201      E66B7ABA 
 201      6DB98F88 
 202 063f 5C4B2A2B 		.ascii	"\\K*+<\2655!\177K0\360\250\247\240\030\224 \230\232"
 202      3CB53521 
ARM GAS  /tmp/ccnQiFEw.s 			page 16


 202      7F4B30F0 
 202      A8A7A018 
 202      9420989A 
 203 0653 FC4DCDC1 		.ascii	"\374M\315\301\2250w2\007n\016QCN\262\177\342\373\027"
 203      95307732 
 203      076E0E51 
 203      434EB27F 
 203      E2FB17
 204 0666 C7C676F3 		.ascii	"\307\306v\363"
 205              		.text
 206              		.section	.gnu.lto_usart_init.isra.0.1a25707fab025e31,"",%progbits
 207 0000 789C9D92 		.ascii	"x\234\235\222MH\024a\030\307\237g\276wu\335U:\004v\020"
 207      4D481461 
 207      18C79F67 
 207      BE7775DD 
 207      553A0476 
 208 0015 BB048143 		.ascii	"\273\004\201CJ\347>\350\022X\207\\#O\261\256\242Ck\033"
 208      4AE73EE8 
 208      1258875C 
 208      234FB1AE 
 208      A2436B1B 
 209 0029 7E4141F8 		.ascii	"~AA\370\256\273V\320\007\233'\263\213\022QD\320U\017"
 209      AEBB56D0 
 209      079B27B3 
 209      8B125144 
 209      D0550F
 210 003c 8549A442 		.ascii	"\205I\244B\206\336\304\223t\211:T \250H0=\317\2743\353"
 210      86DEC493 
 210      74893A54 
 210      20A84830 
 210      3DCFBC33 
 211 0051 BA54AB0E 		.ascii	"\272T\253\016\314\3631\357\363\377\277\277\231w\024"
 211      CCF331EF 
 211      F3FFBFBF 
 211      997714
 212 0060 50A0F4BA 		.ascii	"P\240\364\272L\367'\035\240\2152Z\200f\3763@\3062Q\341"
 212      4CF7271D 
 212      A08D325A 
 212      8066FE33 
 212      40C63251 
 213 0075 021545DB 		.ascii	"\002\025E\3330A\204\325\361\217\000\242R\365[]\266\032"
 213      304184D5 
 213      F18F00A2 
 213      52F55B5D 
 213      B61A
 214 0087 1A725C0F 		.ascii	"\032r\\\017\012\003\221\013@\0302\025U\323\015\034j"
 214      0A03910B 
 214      40183215 
 214      55D30D1C 
 214      6A
 215 0098 43DE47AD 		.ascii	"C\336G\255\207I!F\327F~.)O\304LnB\374v]D\007\211\251"
 215      87492146 
 215      D7467E2E 
 215      294FC44C 
 215      6E42FC76 
 216 00b1 19218970 		.ascii	"\031!\211p\205\032\254\363\222\242\355\206\224\332\231"
 216      851AACF3 
ARM GAS  /tmp/ccnQiFEw.s 			page 17


 216      92A2ED86 
 216      94DA99
 217 00c0 E5B98549 		.ascii	"\345\271\205I\024\243\"\363\313u\243\016\252\012\\\334"
 217      14A322F3 
 217      CB75A30E 
 217      AA0A5CDC 
 218 00d0 A3F2DDDC 		.ascii	"\243\362\335\334\203p>sO\270\356\220\247\213\227\323"
 218      83703E73 
 218      4FB8EE90 
 218      A78B97D3 
 219 00e0 BD51C49A 		.ascii	"\275Q\304\232\353No[G\020{\2301\201\223X\017*5\250\001"
 219      EB4E6F5B 
 219      47107B98 
 219      31819358 
 219      0F2A35A8 
 220 00f5 79E81C0C 		.ascii	"y\350\034\014\016&\007\213\202\026\342\020\346\266\202"
 220      0E26078B 
 220      8216E210 
 220      E6B682
 221 0104 AB4A0E11 		.ascii	"\253J\016\021n\253\270\212r\210q[Mn\317\311\255\206"
 221      6EABB88A 
 221      7288715B 
 221      4D6ECFC9 
 221      AD86
 222 0116 F233CAB5 		.ascii	"\3623\312\265\344\312'\243CN\210|\235\334\012\230\220"
 222      E4CA27A3 
 222      434E887C 
 222      9DDC0A98 
 222      90
 223 0127 2E4205FE 		.ascii	".B\005\376\244q49\253\2554\312y\021\206W\307\350c&\360"
 223      A4713439 
 223      ABAD34CA 
 223      79118657 
 223      C7E86326 
 224 013c 05EAD085 		.ascii	"\005\352\320\205J\027\326\002\314\303\207\257\357\037"
 224      4A17D602 
 224      CCC387AF 
 224      EF1F
 225 014a DF550B4F 		.ascii	"\337U\013O\371\345@L\344D\361\013\266\242\012t\202*"
 225      F9E5404C 
 225      E444F10B 
 225      B6A20A74 
 225      822A
 226 015c 4F676E97 		.ascii	"Ogn\227\314\276,\235\325`$*\267[_\322\202a\3558\274"
 226      CCBE2C9D 
 226      D560242A 
 226      B75B5FD2 
 226      8261ED38 
 227 0171 123107F5 		.ascii	"\0221\007\365\2470\236\021\\\031]\250\262\203\351\311"
 227      A7309E11 
 227      5C195DA8 
 227      B283E9C9 
 228 0181 DA313058 		.ascii	"\33210X\204\354\303\354w\014\204:\317\250b\373\3161"
 228      84ECC3EC 
 228      770C843A 
 228      CFA862FB 
 228      CE31
ARM GAS  /tmp/ccnQiFEw.s 			page 18


 229 0193 76E1E5D9 		.ascii	"v\341\345\331\205\274)W\3313\227\021\021\007\255\202"
 229      85BC2957 
 229      D9339711 
 229      1107AD82 
 230 01a3 6D2800F3 		.ascii	"m(\000\363meA>\001\236\016\367Oyx+Ex\306A\361L\211\367"
 230      6D65413E 
 230      019E0EF7 
 230      4F79782B 
 230      4578C641 
 231 01bb 367B885D 		.ascii	"6{\210]\016\216g\006xF\341\264\2466vN\313\362\371\302"
 231      0E8E6706 
 231      7846E1B4 
 231      A636764E 
 231      CBF2F9C2 
 232 01cf FFE45376 		.ascii	"\377\344Sv\370\246\263_\012|\264\237\305c\332iom\370"
 232      F8A6B35F 
 232      0A7CB49F 
 232      C563DA69 
 232      6F6DF8
 233 01e2 47E1A8C3 		.ascii	"G\341\250\303\264(y\227\214]\274\241\377\361\252>o\330"
 233      B4287997 
 233      8C5DBCA1 
 233      FFF1AA3E 
 233      6FD8
 234 01f4 735B5D29 		.ascii	"s[])b\254(\313\250\375\235\261\222\264\036#\2262Fhq"
 234      62AC28CB 
 234      A8FD9DB1 
 234      92B41E23 
 234      96324668 
 235 0209 FF8CBACF 		.ascii	"\377\214\272\317\030\221\214[E\214Ue\031\215b\306\365"
 235      18918C5B 
 235      458C5565 
 235      198D62C6 
 235      F5
 236 021a 47B70265 		.ascii	"G\267\002e\224\304\036\344\353\263\245\2241Z\225\224"
 236      94C41EE4 
 236      EBB3A594 
 236      315A9594 
 237 022a B415EE9D 		.ascii	"\264\025\356\235\323\3649c\236xjes~\037b\313\313\374"
 237      D3F43963 
 237      9E786A65 
 237      737E1F62 
 237      CBCBFC
 238 023d C492B8B3 		.ascii	"\304\222\270\263\253[\233\207\003\244j\337\342dy\013"
 238      AB5B9B87 
 238      03A46ADF 
 238      E264790B 
 239 024d A91DDB2E 		.ascii	"\251\035\333.hk\366\242\015\371\332e\310\254};*\245"
 239      686BF6A2 
 239      0DF9DA65 
 239      C8AC7D3B 
 239      2AA5
 240 025f C115A7BF 		.ascii	"\301\025\247\277\232~b\376#\317\333\335\351\236N;\231"
 240      9A7E62FE 
 240      23CFDBDD 
 240      E99E4E3B 
 240      99
ARM GAS  /tmp/ccnQiFEw.s 			page 19


 241 0270 EEB86977 		.ascii	"\356\270iwt\016\332\311n\247\335I\367\331\375\275\003"
 241      740EDAC9 
 241      6EA7DD49 
 241      F7D9FDBD 
 241      03
 242 0281 D7AFD954 		.ascii	"\327\257\331Tt'R\366\215to\177\237\335\022\277\320\324"
 242      742752F6 
 242      8D746F7F 
 242      9FDD12BF 
 242      D0D4
 243 0293 6837379F 		.ascii	"h77\237\263[[\316\\\212\017\236\260\373:{\235D\352j"
 243      B35B5BCE 
 243      5C8A0F9E 
 243      B0FB3A7B 
 243      9D44EA6A 
 244 02a7 2AD5D190 		.ascii	"*\325\321\220\004\034\320\007\323\251\206&/6\376\001"
 244      041CD007 
 244      D3A98626 
 244      2F36FE01 
 245 02b7 7A3D747C 		.ascii	"z=t|"
 246              		.text
 247              		.section	.gnu.lto_sd_lld_stop.part.1.1a25707fab025e31,"",%progbits
 248 0000 789C9551 		.ascii	"x\234\225Q1H\303@\024\375\377.\255uQW\267\342\340R\360"
 248      3148C340 
 248      14FDFF2E 
 248      AD755157 
 248      B7E2E052 
 249 0015 504727C1 		.ascii	"PG'\301\245P\021l\012:I\232\024\033\214\2464\265 \016"
 249      A550116C 
 249      0A3A499A 
 249      141B8CA6 
 249      34B5200E 
 250 0029 BD68870E 		.ascii	"\275h\207\016\202\301It\261\010\016.\016\216n\335\253"
 250      82C14974 
 250      B1080E2E 
 250      0E8E6EDD 
 250      AB
 251 003a 38B65316 		.ascii	"8\266S\026WuRp0\376K\350\240\233\037\356\336\277\373"
 251      57755270 
 251      30FE4BE8 
 251      A09B1FEE 
 251      DEBFFB
 252 004d F7DEFB77 		.ascii	"\367\336\373w\307\200\301\337\310\321h!\300\032!\246"
 252      C780C1DF 
 252      C8D16821 
 252      C01A21A6 
 253 005d 00B5E091 		.ascii	"\000\265\340\221\022\015Y\214\014\271B?\303\021U\002"
 253      120D598C 
 253      0CB9423F 
 253      C3115502 
 254 006d 082D8D71 		.ascii	"\010-\215qlm\242\"\343\014t\245<\013_^\357\247\345\325"
 254      6C6DA222 
 254      E30C74A5 
 254      3C0B5F5E 
 254      EFA7E5D5 
 255 0081 5120BFA3 		.ascii	"Q \277\243\010m$\233\002\202\211\260A\013\314\306\300"
 255      086D249B 
ARM GAS  /tmp/ccnQiFEw.s 			page 20


 255      028289B0 
 255      410BCCC6 
 255      C0
 256 0092 B4DFBE77 		.ascii	"\264\337\276wL\206Q4\2709\3014\202\215\234\251\211\366"
 256      4C865134 
 256      B839C134 
 256      828D9CA9 
 256      89F6
 257 00a4 53D09632 		.ascii	"S\320\2262\310\032\330%qP\"\024:\315\312^GM!/!\213\261"
 257      C81AD825 
 257      71502214 
 257      3ACDCA5E 
 257      474D212F 
 258 00bb 0FBDE1F9 		.ascii	"\017\275\341\371\307\222\201\327\324\3726b\016ne\333"
 258      C79281D7 
 258      D4FA3662 
 258      0E6E65DB 
 259 00cb 9FB251BB 		.ascii	"\237\262Q\273\204\013?\220\224\245\224yZ\276w\244\026"
 259      840B3F90 
 259      94A59479 
 259      5ABE77A4 
 259      16
 260 00dc F7918EDD 		.ascii	"\367\221\216\335\3138\352\243\017\307\017|$\300HC\035"
 260      CB38EAA3 
 260      0FC70F7C 
 260      24C04843 
 260      1D
 261 00ed E251F419 		.ascii	"\342Q\364\031M\306\325^>)\376[\232\324\000\236\240\035"
 261      4DC6D55E 
 261      3E29FE5B 
 261      9AD4009E 
 261      A01D
 262 00ff 0E4E2712 		.ascii	"\016N'\022\011\200C\370\222\035E\035319\246x\231Y\272"
 262      098043F8 
 262      921D451D 
 262      333139A6 
 262      789959BA 
 263 0113 FB78C22A 		.ascii	"\373x\302*\321#\250\233=\203\037\016\337pDLB'\022\025"
 263      D123A89B 
 263      3D831F0E 
 263      DF70444C 
 263      42271215 
 264 0127 D527E645 		.ascii	"\325'\346E\325\335\255\010\323\265\016\204Ui\012\263"
 264      D5DDAD08 
 264      D3B50E84 
 264      55690AB3 
 265 0137 6A976DD7 		.ascii	"j\227m\327\023\215\372\376\336\216\240\244j8\242\346"
 265      138DFAFE 
 265      DE8EA0A4 
 265      6A38A2E6 
 266 0147 D61B9E28 		.ascii	"\326\033\236(\352\253\213\013\242PX\021\245\342\362"
 266      EAAB8B0B 
 266      A2505811 
 266      A5E2F2
 267 0156 BADE9C17 		.ascii	"\272\336\234\027^\245n\033\316\226\343Xs&p\317\252\375"
 267      5EA56E1B 
 267      CE96E358 
ARM GAS  /tmp/ccnQiFEw.s 			page 21


 267      732670CF 
 267      AAFD
 268 0168 004C6E7A 		.ascii	"\000Lnz\306"
 268      C6
 269              		.text
 270              		.section	.gnu.lto_VectorD8.1a25707fab025e31,"",%progbits
 271 0000 789C6362 		.ascii	"x\234cb`b@\007\222@\274\031\210\275\201\230\221\231"
 271      60624007 
 271      9240BC19 
 271      88BD8198 
 271      9199
 272 0012 819169C2 		.ascii	"\201\221i\3029\006\206F\016&FF\020\203\201\221\241\236"
 272      39068646 
 272      0E264646 
 272      10838191 
 272      A19E
 273 0024 89B13E92 		.ascii	"\211\261>\222\021\254v=\323\201\007\377\377\257\373"
 273      11AC763D 
 273      D38107FF 
 273      FFAFFB
 274 0033 3269CD1C 		.ascii	"2i\315\034\3063L,@\021V\206\226\206\206\011\012\014"
 274      C6334C2C 
 274      40115686 
 274      96868609 
 274      0A0C
 275 0045 0CC96015 		.ascii	"\014\311`\025!@\022\244-\224\221\011D3\237ghy\260\357"
 275      214012A4 
 275      2D949109 
 275      44339F67 
 275      6879B0EF 
 276 0059 245722E3 		.ascii	"$W\"\343BFV\240t5\303\257\206\216\006\201LF\240r\210"
 276      424656A0 
 276      7435C3AF 
 276      868E0681 
 276      4C46A072 
 277 006e 8920118E 		.ascii	"\211 \021\216LF\306\\F\006\250\242L\240V\206\363\014"
 277      4C46C65C 
 277      4606A8A2 
 277      4CA05686 
 277      F30C
 278 0080 CD0F4E64 		.ascii	"\315\017NdbhcNf\204x \223\021h\371E\206\306\007'5a\212"
 278      6268634E 
 278      66847820 
 278      931168F9 
 278      4586C607 
 279 0098 20200468 		.ascii	"  \004h.\320b\220*O\375\214\374\334T\375\344\374\224"
 279      2ED06290 
 279      2A4FFD8C 
 279      FCDC54FD 
 279      E4FC94
 280 00ab 4AFD94D4 		.ascii	"J\375\224\3242\375\344\214\314\244\314\374b\375\222"
 280      32FDE48C 
 280      CCA4CCFC 
 280      62FD92
 281 00ba A2D2BC6C 		.ascii	"\242\322\274l} ##1G\277 \277\250\244X?8\304\327\330"
 281      7D202323 
 281      3147BF20 
ARM GAS  /tmp/ccnQiFEw.s 			page 22


 281      BFA8A458 
 281      3F38C4D7 
 282 00cf 48DFC7C7 		.ascii	"H\337\307\307E?4\3301(\244\314P\2778\265(31'>''E/\231"
 282      453F34D8 
 282      3128A4CC 
 282      50BF38B5 
 282      28333127 
 283 00e9 0100BFC1 		.ascii	"\001\000\277\301I\217"
 283      498F
 284              		.text
 285              		.section	.gnu.lto_sd_lld_init.1a25707fab025e31,"",%progbits
 286 0000 789C6362 		.ascii	"x\234cb`b@\007\222@\374\023\210\275\201\230\221\231"
 286      60624007 
 286      9240FC13 
 286      88BD8198 
 286      9199
 287 0012 819169C2 		.ascii	"\201\221i\3029\006\206F\016&FF\020\203\201\221\241\236"
 287      39068646 
 287      0E264646 
 287      10838191 
 287      A19E
 288 0024 89B13E92 		.ascii	"\211\261>\222\021\254v=\323\201\007\377\377\257\373"
 288      11AC763D 
 288      D38107FF 
 288      FFAFFB
 289 0033 347D4E0F 		.ascii	"4}N\017\343k&\026\240\010+CKC\303\004\005\006\206d\260"
 289      E36B2616 
 289      A0082B43 
 289      4B43C304 
 289      05068664 
 290 0048 8A102009 		.ascii	"\212\020 \011\322\026\312\310\004\242\231\3173\264="
 290      D216CAC8 
 290      04A299CF 
 290      33B43D
 291 0057 E87CCB9E 		.ascii	"\350|\313\236\310\270\220\221\025(]\315\360\253\241"
 291      C8B89091 
 291      15285DCD 
 291      F0ABA1
 292 0066 A3412093 		.ascii	"\243A \223\021\250\034b\"H\204#\223\2211\227\221\001"
 292      11A81C62 
 292      22488423 
 292      93913197 
 292      9101
 293 0078 AA288231 		.ascii	"\252(\2021\023\250\031&\301\234\314\310\004\225\310"
 293      13A81926 
 293      C19CCCC8 
 293      0495C8
 294 0087 64045A78 		.ascii	"d\004Zx\226\241i\307\215E\257\031!b\332\014\253\032"
 294      96A169C7 
 294      8D45AF19 
 294      2162DA0C 
 294      AB1A
 295 0099 80803793 		.ascii	"\200\2007\223\221u6\303\254\306\006\220\321lpK@\206"
 295      917536C3 
 295      ACC60690 
 295      D16C704B 
 295      4086
ARM GAS  /tmp/ccnQiFEw.s 			page 23


 296 00ab 32400C84 		.ascii	"2@\014\204X\226\004\241\300\"\254\015\035\215\015 \037"
 296      589604A1 
 296      C022AC0D 
 296      1D8D0D20 
 296      1F
 297 00bc 5C64687C 		.ascii	"\\dh|\260C\027\346B\010\010\001j\000:\037\024X\236\372"
 297      B04317E6 
 297      42080801 
 297      6A003A1F 
 297      14589EFA 
 298 00d0 19F9B9A9 		.ascii	"\031\371\271\251\372\311\371)\225\372)\251e\372\311"
 298      FAC9F929 
 298      95FA29A9 
 298      65FAC9
 299 00df 19994999 		.ascii	"\031\231I\231\371\305\372%E\245y\331\372@FFb\216~A~"
 299      F9C5FA25 
 299      45A579D9 
 299      FA404646 
 299      628E7E41 
 300 00f4 5149B17E 		.ascii	"QI\261~p\210\257\261\221\276\217\217\213~h\260cPH\231"
 300      7088AFB1 
 300      91BE8F8F 
 300      8B7E68B0 
 300      63504899 
 301 0108 A17E716A 		.ascii	"\241~qjQfbN|NN\212^2\003\000\224.Y}"
 301      5166624E 
 301      7C4E4E8A 
 301      5E320300 
 301      942E597D 
 302              		.text
 303              		.section	.gnu.lto_sd_lld_start.1a25707fab025e31,"",%progbits
 304 0000 789C9551 		.ascii	"x\234\225Q\315k\023A\024\177ofgg\355&\326\177\240\340"
 304      CD6B1341 
 304      147F6F66 
 304      6767ED26 
 304      D67FA0E0 
 305 0014 C9830547 		.ascii	"\311\203\005G\355\321\223\340%\330^l\002\025\004I7!"
 305      EDD193E0 
 305      25D85E6C 
 305      02150449 
 305      3721
 306 0026 594C8C24 		.ascii	"YL\214$\261 \036:\351\007\364\330cq\221\342\255\364"
 306      B1201E3A 
 306      E907F4D8 
 306      637191E2 
 306      ADF4
 307 0038 600F4AD1 		.ascii	"`\017J\321\236\332\240\241\010U\244\027-=\344\346A\004"
 307      9EDAA0A1 
 307      0855A417 
 307      2D3DE4E6 
 307      4104
 308 004a 2F5EBCC4 		.ascii	"/^\274\3047;\231\340\307\311\205}\363\361~_3\303\200"
 308      373B99E0 
 308      C7C9857D 
 308      F3F17E5F 
 308      33C380
 309 005d C1DFDF1D 		.ascii	"\301\337\337\035\372\027i\373&\215\030\000\262\365\367"
ARM GAS  /tmp/ccnQiFEw.s 			page 24


 309      FA1769FB 
 309      268D1800 
 309      B2F5F7
 310 006c 009D8031 		.ascii	"\000\235\2001~\032\202\036\363^v\001t\206\243g\367="
 310      7E1A821E 
 310      F35E7601 
 310      7486A367 
 310      F73D
 311 007e 267A13B4 		.ascii	"&z\023\264/\337]\246m\301\374\037\322\254\222\236A\371"
 311      2FDF5DA6 
 311      6DC1FC1F 
 311      D2AC929E 
 311      41F9
 312 0090 282D4A22 		.ascii	"(-J\"\232\011 IsO\370\022\027ocj\267\303\366\373\203"
 312      9A092049 
 312      734FF812 
 312      176F636A 
 312      B7C3F6FB 
 313 00a5 C1F38DE4 		.ascii	"\301\363\215\344\355\001n\251,B\035\201#\025A\005}\210"
 313      ED016EA9 
 313      2C421D81 
 313      23154105 
 313      7D88
 314 00b7 1124154A 		.ascii	"\021$\025JB%\244b\022\013X\321z\375<@\224\212\344\251"
 314      4225A462 
 314      120B58D1 
 314      7AFD3C40 
 314      948AE4A9 
 315 00cb 1AF90235 		.ascii	"\032\371\0025i\344\207\360\346\313\301\323\204\027\361"
 315      69E487F0 
 315      E6CBC1D3 
 315      8417F1
 316 00da 190AA820 		.ascii	"\031\012\250 \237\303\030\371\357\207\314\323\3624\344"
 316      9FC318F9 
 316      EF87CCD3 
 316      F234E4
 317 00e9 05F452C2 		.ascii	"\005\364R\302\021,\235\274\332=FG\360'\341b\214^\002"
 317      112C9DBC 
 317      DA3D4647 
 317      F027E162 
 317      8C5E02
 318 00fc 4F88282A 		.ascii	"O\210(*(\214\200\2372\347\321i\030\227NvD1\020o\324"
 318      288C809F 
 318      32E7D169 
 318      18974E76 
 318      4431106F 
 319 0111 84CF8064 		.ascii	"\204\317\200d\314\3601\374\324\033z\1773\031\247\010"
 319      CCF031FC 
 319      D41B7A7F 
 319      3319A708 
 320 0121 F5343D3F 		.ascii	"\3654=?\344&\253\200\336\204\215z\234d\234\2140\370"
 320      E426AB80 
 320      DE848D7A 
 320      9C649C8C 
 320      30F8
 321 0133 35ADA7C8 		.ascii	"5\255\247\310\257\376gf\242\3700`\024\266{\362i\357"
 321      AFFE6766 
ARM GAS  /tmp/ccnQiFEw.s 			page 25


 321      A2F83060 
 321      14B67BF2 
 321      69EF
 322 0145 9A63C849 		.ascii	"\232c\310I\330\326+\235s1J\23370I\316\350\357k\332\203"
 322      D8D62B9D 
 322      73314A9B 
 322      373049CE 
 322      E8EF6BDA 
 323 015a 743ACCED 		.ascii	"t:\314\355\262\035\301\362\353\321\325\004$`@\250u\220"
 323      B21DC1F2 
 323      EBD1D504 
 323      246040A8 
 323      7590
 324 016c F6BA39DB 		.ascii	"\366\2729\333\372?U\022\002\370\000\253\375\257\337"
 324      FA3F5512 
 324      02F800AB 
 324      FDAFDF
 325 017b 42CB07B0 		.ascii	"B\313\007\260'!\205\261h\2102\274\360\202\0352\364\224"
 325      272185B1 
 325      688832BC 
 325      F0821D32 
 325      F494
 326 018d 19772EE9 		.ascii	"\031w.\351^ao\365\305n\316\310\205\326\225\271\273o"
 326      5E616FF5 
 326      C56ECEC8 
 326      85D695B9 
 326      BB6F
 327 019f 5BA8B1D8 		.ascii	"[\250\261\330\334\221\377Xd#d\303 a\005\211p\026\340"
 327      DC91FF58 
 327      642364C3 
 327      20610589 
 327      7016E0
 328 01b2 2374FA5B 		.ascii	"#t\372[\312A\335\273\243\2612\330\234\2526\352e\025"
 328      CA41DDBB 
 328      A3B132D8 
 328      9CAA36EA 
 328      6515
 329 01c4 354A8F54 		.ascii	"5J\217T\251\274\240\242j<\0377Z\252\335|x\377\236\242"
 329      A9BCA0A2 
 329      6A3C1F37 
 329      5AAADD7C 
 329      78FF9EA2 
 330 01d8 49B55853 		.ascii	"I\265XS\017\032\315vK\315\346g\246\256\252\351\351\033"
 330      0F1ACD76 
 330      4BCDE667 
 330      A6AEAAE9 
 330      E91B
 331 01ea AA307BFD 		.ascii	"\2520{\375V~\341\212j\225\233q\261v\267V+]\212\340\027"
 331      567EE18A 
 331      6A959B71 
 331      B176B756 
 331      2B5D8AE0 
 332 01ff 3A7FB2BB 		.ascii	":\177\262\273"
 333              		.text
 334              		.section	.gnu.lto_sd_lld_stop.1a25707fab025e31,"",%progbits
 335 0000 789C9591 		.ascii	"x\234\225\221\301kSA\020\306\277\231}\333F\255\340?"
 335      C16B5341 
ARM GAS  /tmp/ccnQiFEw.s 			page 26


 335      10C6BF99 
 335      7DDB46AD 
 335      E03F
 336 0012 50103C69 		.ascii	"P\020<i\301\255\366/(xQ\353\305&\240x\220\364%4\213"
 336      C1ADF62F 
 336      287851EB 
 336      C526A078 
 336      90F42534 
 337 0027 4953925A 		.ascii	"IS\222Z\020\017\335\247\005\365\326ci\017\305K\005\021"
 337      100FDDA7 
 337      05F5D663 
 337      690FC54B 
 337      0511
 338 0039 BDE62254 		.ascii	"\275\346\"T\221 J\265\322K\351\241\364\3461'\333\242"
 338      91204AB5 
 338      D24BE9A1 
 338      F4E63127 
 338      DBA2
 339 004b D038FBD6 		.ascii	"\3208\373\326\027\304\212\340\302\333\331\235\375\276"
 339      17C48AE0 
 339      C2DBD99D 
 339      FDBE
 340 0059 DFBC9D65 		.ascii	"\337\274\235e0\376\034\243\362]\221\364U\211\324\007"
 340      30FE1CA3 
 340      F25D91F4 
 340      5589D407 
 341 0069 E2854F40 		.ascii	"\342\205O@\222cV\355A\270\343\372\3030\334\200\342\350"
 341      926356ED 
 341      41B8E3FA 
 341      C330DC80 
 341      E2E8
 342 007b 5BBFDF2D 		.ascii	"[\277\337-\267!\333\210\264W\221&\362\021\2049V\221"
 342      B721DB88 
 342      B4579126 
 342      F2118439 
 342      5691
 343 008d A6B99B94 		.ascii	"\246\271\233\2242_\361\332n\267\373rog\365\005=9s\202"
 343      325FF1DA 
 343      6EB7FB72 
 343      6F67F505 
 343      3D397382 
 344 00a1 A94650B0 		.ascii	"\251FP\260\204H&/\321\230wn\3414\020\247\206\274\314"
 344      8448262F 
 344      D198776E 
 344      E13410A7 
 344      86BCCC
 345 00b4 1E5420F6 		.ascii	"\036T \366Q\255\343\301v\253\263IEzJ\032\223\244\206"
 345      51ADE3C1 
 345      76ABB349 
 345      457A4A1A 
 345      93A486
 346 00c7 70CE122F 		.ascii	"p\316\022/c\211,\251I\342\033\022\243\264\324\004e\027"
 346      63892CA9 
 346      49E21B12 
 346      A3B4D404 
 346      6517
 347 00d9 798F775F 		.ascii	"y\217w_\223\223=\213\227\360\357\327-\220B{0eou>r&\214"
ARM GAS  /tmp/ccnQiFEw.s 			page 27


 347      93933D8B 
 347      97F0EFD7 
 347      2D90427B 
 347      30656F75 
 348 00f1 5236093B 		.ascii	"R6\011;q\316\335:\312\317\012\254\343m\353\340p\203"
 348      71CEDD3A 
 348      CACF0AAC 
 348      E36DEBE0 
 348      7083
 349 0103 7AFF1E16 		.ascii	"z\377\036\026\356\307\353\263@\240\305A<\204\347n>Y"
 349      EEC7EBB3 
 349      40A0C541 
 349      3C84E76E 
 349      3E59
 350 0115 DB7FC496 		.ascii	"\333\177\304\226t\000\237\262\324'\265<\227~q\331\273"
 350      74009FB2 
 350      D427B53C 
 350      977E71D9 
 350      BB
 351 0126 9E890B3E 		.ascii	"\236\211\013>\253\263\022\213\335\015\271\367\252$\002"
 351      ABB3128B 
 351      DD0DB9F7 
 351      AA2402
 352 0135 C61DFB17 		.ascii	"\306\035\373\027D\375\035\322\372/Ht\024\342\233\371"
 352      44FD1DD2 
 352      FA2F4874 
 352      14E29BF9 
 353 0145 66656520 		.ascii	"fee \353\022\337\307w\367\330\271\021\351K\255\327\222"
 353      EB12DFC7 
 353      77F7D8B9 
 353      11E94BAD 
 353      D792
 354 0157 ACB111BA 		.ascii	"\254\261\021\272\254>\343a.\310\201\240\226R\3751\205"
 354      AC3EE361 
 354      2EC881A0 
 354      9652FD31 
 354      85
 355 0168 37B094CB 		.ascii	"7\260\224\313\324:}\343/Hv\267;\2249\302\310\013Z\016"
 355      D43A7DE3 
 355      2F4876B7 
 355      3B9439C2 
 355      C80B5A0E 
 356 017c BDE5B2A9 		.ascii	"\275\345\262\251\324ke\023\327K\367L\251<k\342\212\235"
 356      D46B6513 
 356      D74BF74C 
 356      A93C6BE2 
 356      8A9D
 357 018e B0F5A699 		.ascii	"\260\365\246\231i\334\235\272cdQ)V\315t\2751\3234\343"
 357      69DC9DBA 
 357      63645129 
 357      56CD74BD 
 357      31D334E3 
 358 01a2 F96B2317 		.ascii	"\371k#\027\315\330\330%S\030\037\275\236\237\275`\232"
 358      CDD8D825 
 358      53181FBD 
 358      9E9FBD60 
 358      9A
ARM GAS  /tmp/ccnQiFEw.s 			page 28


 359 01b3 E5862D56 		.ascii	"\345\206-VoW\253\245\3631~\0029D\247\277"
 359      6F57ABA5 
 359      F3317E02 
 359      3944A7BF 
 360              		.text
 361              		.section	.gnu.lto_.symbol_nodes.1a25707fab025e31,"",%progbits
 362 0000 789C4DCC 		.ascii	"x\234M\314;N\303`\020\205\321;wlb\362\204\202\232\225"
 362      3B4EC360 
 362      1085D13B 
 362      776C62F2 
 362      84829A95 
 363 0014 51A46219 		.ascii	"Q\244b\031\327\302`;\274\022\245D\201\002\257\"\005"
 363      D7C2603B 
 363      BC12A544 
 363      8102AF22 
 363      05
 364 0025 0D741454 		.ascii	"\015t\024T,\000\021\321Q\"JB\234D\371=\315\2473\032"
 364      2C0011D1 
 364      51224A42 
 364      9C44F93D 
 364      CDA7331A 
 365 0039 0D419C1A 		.ascii	"\015A\234\0326\303\013\012\230\274\001\322l4dF\331\226"
 365      36C30B0A 
 365      98BC01D2 
 365      6C346446 
 365      D996
 366 004b F7E590E7 		.ascii	"\367\345\220\347\024\033\234R\276\243qFE\015\346T\274"
 366      141B9C52 
 366      BEA37146 
 366      450DE654 
 366      BC
 367 005c E54369F1 		.ascii	"\345Ci\361\322\020\013,\250\275\260eI\265\032G)-\222"
 367      D2100B2C 
 367      A8BDB065 
 367      49B51A47 
 367      292D92
 368 006f 73442561 		.ascii	"sD%ak7\324\376\206ijvM\265\203\256\250N\320\204\352"
 368      6B37D4FE 
 368      86696A76 
 368      4DB583AE 
 368      A84ED084 
 369 0084 065D52BD 		.ascii	"\006]R\275\240[\252\0374\246\006;\271u\220\025\337\307"
 369      A05BAA1F 
 369      34A6063B 
 369      B9759015 
 369      DFC7
 370 0096 CE55F3AF 		.ascii	"\316U\363\257\310ix.~O\234=T\257\313\247\330\331E5~"
 370      C869782E 
 370      7E4F9C3D 
 370      54AFCBA7 
 370      D8D94535 
 371 00ab E7FA607A 		.ascii	"\347\372`zT\347\345\356\207\036\365\261\370\3703\217"
 371      54E7E5EE 
 371      871EF5B1 
 371      F8F8338F 
 372 00bb 89B37507 		.ascii	"\211\263u\007\250\352\266\016\220\325M\016\261\230\323"
 372      A8EAB60E 
ARM GAS  /tmp/ccnQiFEw.s 			page 29


 372      90D54D0E 
 372      B198D3
 373 00ca 13C763BE 		.ascii	"\023\307c\276z\337\216\3609'\376\001\373\203h\336"
 373      7ADF8EF0 
 373      3927FE01 
 373      FB8368DE 
 374              		.text
 375              		.section	.gnu.lto_.refs.1a25707fab025e31,"",%progbits
 376 0000 789C6362 		.ascii	"x\234cb`b\020g\200\000FV&6fv&6&\006F6&\016&N&6F.&6\006"
 376      60621067 
 376      80004656 
 376      26366676 
 376      26362606 
 377 0021 00077800 		.ascii	"\000\007x\000u"
 377      75
 378              		.text
 379              		.section	.gnu.lto_.decls.1a25707fab025e31,"",%progbits
 380 0000 789CBD5C 		.ascii	"x\234\275\\\015t\024E\266\356\356\231\311d B\374y\273"
 380      0D741445 
 380      B6EEEE99 
 380      C9642042 
 380      FC79BB
 381 0013 EC799E25 		.ascii	"\354y\236%\276\263\353\361\350\223\374\241\242\373V"
 381      BEB3EBF1 
 381      E893FCA1 
 381      A2FB56
 382 0022 C184C5EC 		.ascii	"\301\204\305\354\023\345%\350\376\27636ICf7\311\014"
 382      13E525E8 
 382      FEBE3336 
 382      49436637 
 382      C90C
 383 0034 331DC077 		.ascii	"3\035\300w\336>\233\010\301\237\025C\210\220 ?AE\201"
 383      DE3E9B08 
 383      C19F1543 
 383      8890203F 
 383      414581
 384 0047 0585C003 		.ascii	"\005\205\300\003\215\340\016($\300\032\302\277\240@"
 384      8DE00E28 
 384      24C01AC2 
 384      BFA040
 385 0056 40600145 		.ascii	"@`\001E\021\005\021\224\274[\267\177\246\252\323=\323"
 385      11051194 
 385      BC5BB77F 
 385      A6AAD33D 
 385      D3
 386 0067 1DD9D787 		.ascii	"\035\331\327\207\272]\323]\365\325\275\267n\335\252"
 386      BA5DD35D 
 386      F5D5BDB7 
 386      6EDDAA
 387 0076 BAD541E0 		.ascii	"\272\325A\340\004\256\302\313q\335pu\374\216\343~\323"
 387      04AEC2CB 
 387      71DD7075 
 387      FC8EE37E 
 387      D3
 388 0087 87E3E01F 		.ascii	"\207\343\340\037w/\244\000\244\205\220\"<\307m\204\373"
 388      772FA400 
 388      A4859022 
ARM GAS  /tmp/ccnQiFEw.s 			page 30


 388      3CC76D84 
 388      FB
 389 0098 44B89F82 		.ascii	"D\270\237\202\3649$\250\306\375\000\322f\222\207+\023"
 389      F43924A8 
 389      C6FD00D2 
 389      6692872B 
 389      13
 390 00a9 D26DF03B 		.ascii	"\322m\360;\007\322=\220\206B\372%\244\207 \025Cz\004"
 390      07D23D90 
 390      8642FA25 
 390      A4872015 
 390      437A04
 391 00bc D27F4212 		.ascii	"\322\177B\022!\215\203T\001i<\244jH\023!\375I@H\256"
 391      218D8354 
 391      01693CA4 
 391      6A481321 
 391      FD494048 
 392 00d1 06C81481 		.ascii	"\006\310\024\201c.\202\013,r~\222 \317\013j\373\244"
 392      632E820B 
 392      2C727E92 
 392      20CF0B6A 
 392      FBA4
 393 00e3 E96BB4FB 		.ascii	"\351k\264\373m\246:\344\"\274\364\325\370\357\007\367"
 393      6DA63AE4 
 393      22BCF4D5 
 393      F8EF07F7 
 394 00f3 0C4803E1 		.ascii	"\014H\003\341Y\231\240b\021\331&\361\252\\\323\340\331"
 394      5999A062 
 394      11D926F1 
 394      AA5CD3E0 
 394      D9
 395 0104 180DEB5D 		.ascii	"\030\015\353] \036\255\376S\032\317\004\376. w\230\332"
 395      201EADFE 
 395      531ACF04 
 395      FE2E2077 
 395      98DA
 396 0116 21B2DEA4 		.ascii	"!\262\336\244\361\246\267A\012\223vn\347U\276\3134\334"
 396      F1A6B741 
 396      0A93766E 
 396      E755BECB 
 396      34DC
 397 0128 3FC0BD01 		.ascii	"?\300\275\0012>\310?/$\332\326e\252\027T=7\010*o\204"
 397      323EC83F 
 397      2F24DAD6 
 397      65AA1754 
 397      3D37082A 
 398 013e 27C23BE1 		.ascii	"'\302;\341k\026\244\\H\263!UB:\017\317\033\341^\016"
 398      6B16A45C 
 398      48B32155 
 398      423A0FCF 
 398      1BE15E0E 
 399 0152 290DCAD6 		.ascii	")\015\312\326\362j\177u\363\252N\322\004U\216\000\334"
 399      F26A7F75 
 399      F3AA4ED2 
 399      04558E00 
 399      DC
 400 0163 BF82FB31 		.ascii	"\277\202\3731H' \035\342U^\357\241d\313\321\372\203"
ARM GAS  /tmp/ccnQiFEw.s 			page 31


 400      4827201D 
 400      E2555EEF 
 400      A164CBD1 
 400      FA83
 401 0175 F44B93C6 		.ascii	"\364K\223\306\353\275&9\207j\272$\262\351r\022\034\242"
 401      EBBD2639 
 401      876ABA24 
 401      B2E97212 
 401      1CA2
 402 0187 A76678F6 		.ascii	"\247fx\366C\315\036tY\026\012\252\035\335H\352A\272"
 402      43CD1E74 
 402      59160AAA 
 402      1DDD48EA 
 402      41BA
 403 0199 19527F48 		.ascii	"\031R\177H\267@\272\026\322\217\205\004\237\001\255"
 403      B740BA16 
 403      D28F8504 
 403      9F01AD
 404 01a8 4DD206C1 		.ascii	"M\322\006\301{\011\356# \0157\361\360K\015s\"\317\362"
 404      7B09EE23 
 404      200D37F1 
 404      F04B0D73 
 404      22CFF2
 405 01bb 40DA7C19 		.ascii	"@\332|\031\322qH'4\035F5\3146\255\357~\251\331\233\371"
 405      D2714827 
 405      341D4635 
 405      CC36ADEF 
 405      7EA9D99B 
 406 01d0 22F649FA 		.ascii	"\"\366I\372\343\357\202\212\3733\270\237\204\364\260"
 406      E3EF828A 
 406      FB33B89F 
 406      84F4B0
 407 01df 56D6A395 		.ascii	"V\326\243\225\271G\263U\202Yc\302)\326\354\351\224\300"
 407      B947B355 
 407      825963C2 
 407      29D6ECE9 
 407      94C0
 408 01f1 8E91499A 		.ascii	"\216\221I\232\235\222~\346\265\276\361h\345\211\315"
 408      9D927EE6 
 408      B5BEF168 
 408      E589CD
 409 0200 DF668347 		.ascii	"\337f\203G\306J\177\270o\321\372\212\036k\264\315\350"
 409      C64A7FB8 
 409      6FD1FA8A 
 409      1E6BB4CD 
 409      E8
 410 0211 329FD664 		.ascii	"2\237\326d\376\037\270\177\002i\230&\363&^\225\337\243"
 410      FE1FB87F 
 410      02699826 
 410      F3265E95 
 410      DFA3
 411 0223 61FE491B 		.ascii	"a\376I\033\227\304&\177\007\367\337jc\315\334>\031\247"
 411      97C4267F 
 411      07F7DF6A 
 411      63CDDC3E 
 411      19A7
 412 0235 01AD7DCE 		.ascii	"\001\255}\316\242]\322\277\237B\372wMw\244\035\335\356"
ARM GAS  /tmp/ccnQiFEw.s 			page 32


 412      A25DD2BF 
 412      9F42FA77 
 412      4D77A41D 
 412      DDEE
 413 0247 FA6BFDEB 		.ascii	"\372k\375\353\321p\316\010\252\356I\023A\213\266\256"
 413      D170CE08 
 413      AAEE4913 
 413      418BB6AE 
 414 0257 E3662870 		.ascii	"\343f(p5\247\265C\217\376\232\027\371~\001.\0133\031"
 414      35A7B543 
 414      8FFE9A17 
 414      F97E012E 
 414      0B3319
 415 026a 0164F4A7 		.ascii	"\001d\364\247\334+\212R\327u\374\357\003\024\257\310"
 415      DC2B8A52 
 415      D775FCEF 
 415      0314AFC8 
 416 027a 2FE4AF03 		.ascii	"/\344\257\003\250\273y\356Vn\011T\253S\224\232\233\371"
 416      A8BB79EE 
 416      566E0954 
 416      AB53949A 
 416      9BF9
 417 028c 9EBD9A1A 		.ascii	"\236\275\232\032V\340\036\3469\221_\004x\"\377\012\177"
 417      56E01EE6 
 417      39915F04 
 417      7822FF0A 
 417      7F
 418 029d ABDA8E12 		.ascii	"\253\332\216\022_[{\003i\207<\347\2647\026\327M\\3\264"
 418      5F5B7B03 
 418      69873CE7 
 418      B43716D7 
 418      4D5C33B4 
 419 02b1 1C7FAB76 		.ascii	"\034\177\253v\336\217\224\346\215|_\356\031\370\251"
 419      DE8F94E6 
 419      8D7C5FEE 
 419      19F8A9
 420 02c0 34D72A0F 		.ascii	"4\327*\017\264\367\323\232\316\242Zn\346\365\246o0$"
 420      B4F7D39A 
 420      CEA25A6E 
 420      E6F5A66F 
 420      3024
 421 02d2 8A7FF81D 		.ascii	"\212\177\370\035\237%\362KQ\240\337\363L[)!\004\256"
 421      9F25F24B 
 421      51A0DFF3 
 421      4C5B2921 
 421      04AE
 422 02e4 92D4586E 		.ascii	"\222\324Xn\346\376\274\230\245>M\315\373\327\247\266"
 422      E6FEBC98 
 422      A53E4DCD 
 422      FBD7A7B6 
 423 02f4 F04A7D86 		.ascii	"\360J}\206\310/\001\366\005\356\277u<+eiY\365\322\012"
 423      C82F01F6 
 423      05EEBF75 
 423      3C2B6569 
 423      59F5D20A 
 424 0308 B068DF4A 		.ascii	"\260h\337J\3559)\265\340\325\201\012\023\375\332\370"
 424      ED3929B5 
ARM GAS  /tmp/ccnQiFEw.s 			page 33


 424      E0D5810A 
 424      13FDDAF8 
 425 0318 CC7BBCA2 		.ascii	"\314{\274\242\244\213\374jT\304z>\265&\030\030\001\254"
 425      A48BFC6A 
 425      54C47A3E 
 425      B5261818 
 425      01AC
 426 032a 9354596B 		.ascii	"\223TYkRE\327\216\351\207&\363\223\025\205W\337\245"
 426      5245D78E 
 426      E98726F3 
 426      93158557 
 426      DFA5
 427 033c 56C865AD 		.ascii	"V\310e\2553E~\025jd\252\240\343\366N%W6g\324\211:\330"
 427      33457E15 
 427      6A64AAA0 
 427      E3F64E25 
 427      573667D4 
 428 0353 9F5D8365 		.ascii	"\237]\203e1`3\333\346\"s\001\356\251\204\216\223\016"
 428      316033DB 
 428      E6227301 
 428      EEA9848E 
 428      930E
 429 0365 987D3B3B 		.ascii	"\230};;v\360O\242\374\177\205j\002\367\221\300\252\326"
 429      76F04FA2 
 429      FC7F856A 
 429      02F791C0 
 429      AAD6
 430 0377 3954D3EC 		.ascii	"9T\323\354M\033\370\032\204\332\210PO{z\013\265g\316"
 430      4D1BF81A 
 430      84DA8850 
 430      4F7B7A0B 
 430      B567CE
 431 038a BABBB1BB 		.ascii	"\272\273\261\2737!P\233\011H\344\375\206\032\215\337"
 431      3721509B 
 431      0948E4FD 
 431      861A8DDF 
 432 039a 7A018286 		.ascii	"z\001\202\206\257\265\014Y\262\364\347\376\301\305\005"
 432      AFB50C59 
 432      B2F4E7FE 
 432      C1C505
 433 03a9 6EA7C741 		.ascii	"n\247\307A\327\245\333\331\201\322\3259\3758\337\244"
 433      D7A5DBD9 
 433      81D2D539 
 433      FD38DFA4 
 434 03b9 C4A7781C 		.ascii	"\304\247x\034\370\244\375\330\326V\263-\317\\p\246F"
 434      F8A4FDD8 
 434      D656B32D 
 434      CF5C70A6 
 434      46
 435 03ca B3E5AD8E 		.ascii	"\263\345\255\216ly\355\266\331\316\034S\232\336~\031"
 435      6C79EDB6 
 435      D9CE1C53 
 435      9ADE7E19 
 436 03da B6FFA297 		.ascii	"\266\377\242\227\264\277\335\334\376\202\217O\336\333"
 436      B4BFDDDC 
 436      FE828F4F 
 436      DEDB
ARM GAS  /tmp/ccnQiFEw.s 			page 34


 437 03e8 A82899EA 		.ascii	"\250(\231\352\253\324\315\037\336\336\320\263y\221\277"
 437      ABD4CD1F 
 437      DEDED0B3 
 437      7991BF
 438 03f7 F79F9299 		.ascii	"\367\237\222\231\306\314\005m\3474!w\341\2309\3565\033"
 438      C6CC056D 
 438      E7342177 
 438      E19839EE 
 438      351B
 439 0409 C77D7DD9 		.ascii	"\307}}\331\356\203\337T\001\201\373\314`\277WC\026\344"
 439      EE83DF54 
 439      0181FBCC 
 439      60BF5743 
 439      16E4
 440 041b 8CDFB7A4 		.ascii	"\214\337\267\244EQ\236N\323y8\347\0321\213\321\304\271"
 440      45519E4E 
 440      D37938E7 
 440      1A318BD1 
 440      C4B9
 441 042d EDE80454 		.ascii	"\355\350\004T\260\013N\300l-\251&\376\025\015v\3115"
 441      B00B4EC0 
 441      6C2DA926 
 441      FE150D76 
 441      C935
 442 043f 18CBD905 		.ascii	"\030\313\331\005\032\354\212\023\260L{\316.\322`5>\267"
 442      1AEC8A13 
 442      B04C7BCE 
 442      2ED26035 
 442      3EB7
 443 0451 602C6797 		.ascii	"`,g\227h\260Z'`\003\3549\373\226\006{\3065\030\313\331"
 443      68B05A27 
 443      6003EC39 
 443      FB96067B 
 443      C63518CB 
 444 0466 151A6CBA 		.ascii	"\025\032l\272\023\260,{\316\352vR`\365\256\301X\316"
 444      13B02C7B 
 444      CEEA7652 
 444      60F5AEC1 
 444      58CE
 445 0478 EA69B059 		.ascii	"\352i\260YN\300n\261\347\254\201\006\233\343\032\214"
 445      4EC06EB1 
 445      E7AC8106 
 445      9BE31A8C 
 446 0488 E56C160D 		.ascii	"\345l\026\0156\337\011X\216=g\2154\330K\256\301X\316"
 446      36DF0958 
 446      8E3D678D 
 446      34D84BAE 
 446      C158CE
 447 049b E6D060AF 		.ascii	"\346\320`\257:\001\033b\317\331\\\032l\251k0\226\263"
 447      3A011B62 
 447      CFD95C1A 
 447      6CA96B30 
 447      96B3
 448 04ad 1534D8EB 		.ascii	"\0254\330\353N\300\206\332s\326B\203\255t\015\306r\266"
 448      4EC086DA 
 448      73D64283 
 448      AD740DC6 
ARM GAS  /tmp/ccnQiFEw.s 			page 35


 448      72B6
 449 04bf 9A065BED 		.ascii	"\232\006[\355\004\354\001{\316\326\320`k]\203\261\234"
 449      04EC017B 
 449      CED6D060 
 449      6B5D83B1 
 449      9C
 450 04d0 BD4983B5 		.ascii	"\275I\203\265:\001\033e\317Y+\015\266\3365\030\313\331"
 450      3A011B65 
 450      CF592B0D 
 450      B6DE3518 
 450      CBD9
 451 04e2 3A1A2CEE 		.ascii	":\032,\356\004\354\327\366\234\275C\203\275\347\032"
 451      04ECD7F6 
 451      9CBD4383 
 451      BDE71A
 452 04f1 8CE5AC93 		.ascii	"\214\345\254\223\006kw\002\366\230\005g\306eU\217L\323"
 452      066B7702 
 452      F6980567 
 452      C665558F 
 452      4CD3
 453 0503 1DBC316F 		.ascii	"\035\2741o\013\3346\237\276\304q9Gs\011\214\355>\267"
 453      0BDC369F 
 453      BEC47139 
 453      4773098C 
 453      ED3EB7
 454 0516 4B32466E 		.ascii	"K2Fn\330\033\234X\310\317|Ri\317\321\327\347{\234 &"
 454      D81B9C58 
 454      C8CF7C52 
 454      69CFD1D7 
 454      E77B9C20 
 455 052b 9900E7B4 		.ascii	"\231\000\347\264Q\213\375\203\256\301L\246L\300\230"
 455      518BFD83 
 455      AEC14CA6 
 455      4CC098
 456 053a B593B6C0 		.ascii	"\265\223\266\300\356Z\024\037\320\230X\275\245\353X"
 456      EE5A141F 
 456      D09858BD 
 456      A5EB58
 457 0549 6407AC2E 		.ascii	"d\007\254.\325`C,\030\205\225\001\003\254\313\212|\235"
 457      D560432C 
 457      18859501 
 457      03ACCB8A 
 457      7C9D
 458 055b F053A033 		.ascii	"\360S\2403\204\200\301\205\232\327sd;\017+0\237\325"
 458      8480C185 
 458      9AD77364 
 458      3B0F2B30 
 458      9FD5
 459 056d DE1A0192 		.ascii	"\336\032\001\222W\265\263\204\351\002e\011\247\235\250"
 459      57B5B384 
 459      E9026509 
 459      A79DA8
 460 057c 29C9D47E 		.ascii	")\311\324~\270m\356\017\225\2568O\311\233T9\260'\252"
 460      B86DEE0F 
 460      95AE384F 
 460      C99B5439 
 460      B027AA
ARM GAS  /tmp/ccnQiFEw.s 			page 36


 461 058f 7F5FDF13 		.ascii	"\177_\337\023\275 \220\375\307\027>\313\215\214\003"
 461      BD2090FD 
 461      C7173ECB 
 461      8D8C03
 462 059e A8A6D9CB 		.ascii	"\250\246\331\313o\303\215L#\002]\3525\320\2369\363\207"
 462      6FC38D4C 
 462      23025DEA 
 462      35D09E39 
 462      F387
 463 05b0 20D08B08 		.ascii	" \320\213\010T\223f^\364\362\246\035\021\317\356Y\370"
 463      5493665E 
 463      F4F2A61D 
 463      11CFEE59 
 463      F8
 464 05c1 4022D3CD 		.ascii	"@\"\323\315v\327U-\013{\3304S\1771\342\244\\=u\355\350"
 464      76D7552D 
 464      0B7BD834 
 464      537F31E2 
 464      A45C3D75 
 465 05d7 F86E06FF 		.ascii	"\370n\006\377e\215\322\230\343\242\307v\376M\357\261"
 465      658DD298 
 465      E3A2C776 
 465      FE4DEFB1 
 466 05e7 66D44F43 		.ascii	"f\324OC\017\3754\012\356\024$ps]\013r\013+\310\364\367"
 466      0FFD340A 
 466      EE142470 
 466      735D0B72 
 466      0B2BC8F4 
 467 05fc EADD0B62 		.ascii	"\352\335\013b\230\336\"\024\344\225\253 \3102\327\202"
 467      98DE2214 
 467      E495AB20 
 467      C832D782 
 468 060c E4508290 		.ascii	"\344P\202\220\030\311\371z\325\017^\317\325'\337\233"
 468      18C9F97A 
 468      D50F5ECF 
 468      D527DF9B 
 469 061c 127E960A 		.ascii	"\022~\226\012\327\263\341\246\375[1\204\005\217S\355"
 469      D7B3E1A6 
 469      FD5B3184 
 469      058F53ED 
 470 062c 0995F8D7 		.ascii	"\011\225\370\327[\251\010\206\342(\202Q\277]W\331rT"
 470      5BA90886 
 470      E2288251 
 470      BF5D57D9 
 470      7254
 471 063e D9AA348B 		.ascii	"\331\2524\213A\346\010\252i\337{+\265\010\306\012\204"
 471      41E608AA 
 471      69DF7B2B 
 471      B508C60A 
 471      84
 472 064f 7AABD750 		.ascii	"z\253\327P{\016\254U\307\353*\004\332\320\243\033\323"
 472      7B0EAC55 
 472      C7EB2A04 
 472      DAD0A31B 
 472      D3
 473 0660 4CBD98C6 		.ascii	"L\275\230\306\366\"\374$-]$\361\005\376\011\355\011"
 473      F622FC24 
ARM GAS  /tmp/ccnQiFEw.s 			page 37


 473      2D5D24F1 
 473      05FE09ED 
 473      09
 474 0671 F9E1E7FE 		.ascii	"\371\341\347\376\337\353\301l\214\354\223\036t9\033"
 474      DFEBC16C 
 474      8CEC931E 
 474      74391B
 475 0680 1B1674BC 		.ascii	"\033\026t\274^\237I\325N\332\371\275\020k\342\253\236"
 475      5E9F49D5 
 475      4EDAF9BD 
 475      106BE2AB 
 475      9E
 476 0691 D5C370F7 		.ascii	"\325\303p\367\221\271\364\303\357\011\267c\233\353\300"
 476      91B9F4C3 
 476      EF09B763 
 476      9BEBC0
 477 06a0 59FD6EDD 		.ascii	"Y\375n\335\354\326\241DG{t\361F\263Ov\022G\372\254\267"
 477      ECD6A144 
 477      477B74F1 
 477      46B34F76 
 477      1247FAAC 
 478 06b5 921897C0 		.ascii	"\222\030\227\300\2357\017xW{N\350\256\216\257\265\356"
 478      9D370F78 
 478      577B4EE8 
 478      AE8EAFB5 
 478      EE
 479 06c6 721A776F 		.ascii	"r\032wo\332\272y2?E\215\375\011$B\373\215I\033\016\242"
 479      DABA7932 
 479      3F458DFD 
 479      092442FB 
 479      8D491B0E 
 480 06db 5A4FF949 		.ascii	"ZO\371I\225MB\217\010\355\373z\204\226\274s\020\325"
 480      954D428F 
 480      08EDFB7A 
 480      8496BC73 
 480      10D5
 481 06ed 6222B422 		.ascii	"b\"\264\"\3776/h\270\275\325(\323\211\011\006E\276\015"
 481      FF362F68 
 481      B8BDD528 
 481      D3890906 
 481      45BE0D
 482 0700 D747EDC2 		.ascii	"\327G\355\302M\264\366\033\375n\265\237Ek?~y\333\\\236"
 482      4DB4F61B 
 482      FD6EB59F 
 482      456B3F7E 
 482      79DB5C9E 
 483 0714 F06F1188 		.ascii	"\360o\021\210\033J\257Zu\325?\3231CS\3756T\375K~k\325"
 483      1B4AAF5A 
 483      75D53FD3 
 483      314353FD 
 483      3654FD4B 
 484 072b 0FB50312 		.ascii	"\017\265\003\022\270\026\254\322\321C\365\035\273u\325"
 484      B816ACD2 
 484      D143F51D 
 484      BB75D5
 485 073a 773852FD 		.ascii	"w8R\375\036K\325w\270W\275\206\2677\021\034\027\371"
 485      1E4BD577 
ARM GAS  /tmp/ccnQiFEw.s 			page 38


 485      B857BD86 
 485      B737111C 
 485      17F9
 486 074c F5AEC1B2 		.ascii	"\365\256\301\262\222\365c\007\325\217\235\330\217;\240"
 486      92F56307 
 486      D58F9DD8 
 486      8F3BA0
 487 075b 1F457E27 		.ascii	"\037E~'\333\233\357\232{\223Q\235\226\265\215\222(\361"
 487      DB9BEF9A 
 487      7B93519D 
 487      96B58D92 
 487      28F1
 488 076d 991D7335 		.ascii	"\231\035s5\225\250\216\257\303\211u$\211m\314\357@\225"
 488      95A88EAF 
 488      C3897524 
 488      896DCCEF 
 488      4095
 489 077f A83E67B7 		.ascii	"\250>g\267k\260,\006l\375tg'S\212q\254\224\211J9\214"
 489      6BB02C06 
 489      6CFD7467 
 489      27538A71 
 489      AC94894A 
 490 0795 ED1E30DB 		.ascii	"\355\0360\333\313\213\335\235\3234{9\340\300^`\266?"
 490      CB8BDD9D 
 490      D3347B39 
 490      E0C05E60 
 490      B63F
 491 07a7 1EC0C325 		.ascii	"\036\300\303%\325p\233\322u\324$\252Nb-\227\365\263"
 491      D5709BD2 
 491      75D424AA 
 491      4E622D97 
 491      F5B3
 492 07b9 2A757FB5 		.ascii	"*u\177\265\320\014\227r\373\307\302]qpX\305*F?\262{"
 492      D00C9772 
 492      FBC7C25D 
 492      717058C5 
 492      2A463FB2 
 493 07ce 8BAC     		.ascii	"\213\254"
 494 07d0 773E4699 		.ascii	"w>F\231\226\244\233g\005U3\224!\036\240\014\361#4\304"
 494      96A49B67 
 494      05553394 
 494      211EA00C 
 494      F12334C4 
 495 07e4 83688887 		.ascii	"\203h\210\207\221\036\241\315\321n\311u\224\3360\255"
 495      911EA1CD 
 495      D16EC975 
 495      94DE30AD 
 496 07f4 742D7796 		.ascii	"t-w\226\251w\354\232\331O7\363f\272\003\333\263\017"
 496      A977EC9A 
 496      D94F37F3 
 496      66BA03DB 
 496      B30F
 497 0806 85815FDF 		.ascii	"\205\201_\3373S_\023\250GO\033]#\262\326\374\305tfM"
 497      33535F13 
 497      A8474F1B 
 497      5D23B2D6 
 497      FCC57466 
ARM GAS  /tmp/ccnQiFEw.s 			page 39


 498 081b F0BE13B8 		.ascii	"\360\276\023\270\241\026\014Z]\364\321\241\310\277\305"
 498      A1160C5A 
 498      5DF4D1A1 
 498      C8BFC5
 499 082a 936E6AE5 		.ascii	"\223nj\345I\007\255C\372\016\322-H\237\306\216{\026"
 499      4907AD43 
 499      FA0ED22D 
 499      489FC68E 
 499      7B16
 500 083c E973481B 		.ascii	"\351sH\033\220.@\372\012\322%H7 \335\212t7\322\275H"
 500      902E40FA 
 500      0AD22548 
 500      3720DD8A 
 500      7437D2BD 
 501 0851 3F407A12 		.ascii	"?@z\022\351i'\006\240zH\352\214cO\272\333\223ZF\227"
 501      E9692706 
 501      A07A48EA 
 501      8C634FBA 
 501      DB935A46 
 502 0866 5D538FB6 		.ascii	"]S\217\266{\3608Jw5G\234\000&\031M\015\304\225\2739"
 502      7BF0384A 
 502      7735479C 
 502      0026194D 
 502      0DC495BB 
 503 087b 97349657 		.ascii	"\2274\226Wg\261\375Oz\014\244^-\257.\272\026\303\244"
 503      67B1FD4F 
 503      7A0CA45E 
 503      2DAF2EBA 
 503      16C3A4
 504 088e 978F0DBD 		.ascii	"\227\217\015\275\250|M\0168\000\264\012\011Y[\331r\312"
 504      A87C4D0E 
 504      3800B40A 
 504      09595BD9 
 504      72CA
 505 08a0 CADE402B 		.ascii	"\312\336@+[\2016\325\202\364\014Z\304\347H\277rb\027"
 505      5B8136D5 
 505      82F40C5A 
 505      C4E748BF 
 505      726217
 506 08b3 4BE898DA 		.ascii	"K\350\230\332\263\001\375[\206\253\262\020ZD\261\372"
 506      B301FD5B 
 506      86ABB210 
 506      5A44B1FA 
 507 08c3 1AB2BA98 		.ascii	"\032\262\272\230\247XJ\345:\343~\275\311IT\267/\335"
 507      A7584AE5 
 507      3AE37EBD 
 507      C94954B7 
 507      2FDD
 508 08d5 71E37A3C 		.ascii	"q\343z<B\274\210\356sK \345A?\213#\362\227\004\262L"
 508      42BC88EE 
 508      734B20E5 
 508      413F8B23 
 508      F29704B2 
 509 08ea B86C9A9B 		.ascii	"\270l\232\233\342\337L\313 _l\\v\264\216\371\256\355"
 509      E2DF4CCB 
 509      205F6C5C 
 509      76B48EF9 
ARM GAS  /tmp/ccnQiFEw.s 			page 40


 509      AEED
 510 08fc 15DB7911 		.ascii	"\025\333y\021\012\360\364\014 \320K:\201\333\013\034"
 510      0AF0F40C 
 510      20D04B3A 
 510      81DB0B1C 
 511 090c 5B4D144C 		.ascii	"[M\024L1\221W<\204\313\311\036\023\227\273T.\311s\007"
 511      3191573C 
 511      84CBC91E 
 511      1397BB54 
 511      2EC97307 
 512 0920 ABAD369C 		.ascii	"\253\2556\234\357\030&\177\300\275\240\355P\025^v>\334"
 512      EF18267F 
 512      C0BDA0ED 
 512      50155E76 
 512      3EDC
 513 0932 E6BD71E4 		.ascii	"\346\275q\344\2367P\357\265\036b\325M}\314\243\315g"
 513      9E3750EF 
 513      B51E62D5 
 513      4D7DCCA3 
 513      CD67
 514 0944 1A6C3E76 		.ascii	"\032l>v\260\371\002\211\2146\330\354lr\252\347\007\230"
 514      B0F90289 
 514      8C36D8EC 
 514      6C72AAE7 
 514      0798
 515 0956 F3E0D73E 		.ascii	"\363\340\327>\034zk-\3576\232)\362M8a\246\010\201\330"
 515      1C7A6B2D 
 515      EF369A29 
 515      F24D3861 
 515      A60881D8 
 516 096a 71F2AC87 		.ascii	"q\362\254\207>)6\370!*\300\314#\036\343\245\035\304"
 516      3E2936F8 
 516      212AC0CC 
 516      231EE3A5 
 516      1DC4
 517 097c 140F35C0 		.ascii	"\024\0175\300\232Qk\244\363z\265\334%\326\377c\234\021"
 517      9A516BA4 
 517      F37AB5DC 
 517      25D6FF63 
 517      9C11
 518 098e EDBB54E5 		.ascii	"\355\273T\345\316\216\233\031\016U\253F\221\354P\032"
 518      CE8E9B19 
 518      0E55AB46 
 518      91EC501A 
 519 099e BEBF5AEA 		.ascii	"\276\277Z\352h\265\274\352Z-Y\264Z\224\026E\011\244"
 519      68B5BCEA 
 519      5A2D59B4 
 519      5A941645 
 519      09A4
 520 09b0 2553C9F2 		.ascii	"%S\311\362$\3024\331\253\304\210\2459\022\251\221\026"
 520      24C234D9 
 520      ABC488A5 
 520      3912A991 
 520      16
 521 09c1 E92F4E44 		.ascii	"\351/ND\262\237\015\277\237H\013,Dr$\302|\217i\225\360"
 521      B29F0DBF 
 521      9F480B2C 
ARM GAS  /tmp/ccnQiFEw.s 			page 41


 521      447224C2 
 521      7C8F6995 
 522 09d6 866B31AE 		.ascii	"\206k1\256b\317\274\342\240g\264\337.>Bzf\315\255\030"
 522      62CFBCE2 
 522      A067B4DF 
 522      2E3E427A 
 522      66CDAD18 
 523 09ea 775B8C7E 		.ascii	"w[\214~lU\017?\326\213U\203S\013y\231\266\220\365NT"
 523      6C550F3F 
 523      D68B5583 
 523      530B7999 
 523      B690F54E 
 524 09ff 6B7F54E4 		.ascii	"k\177T\344\314\027$S\357\353\311\324\273\330\305X^N"
 524      CC172453 
 524      EFEBC9D4 
 524      BBD8C558 
 524      5E4E
 525 0a11 8BB5D1B5 		.ascii	"\213\265\321\265X.-&\231{[\235L$\315\231\233\335U\257"
 525      582E2D26 
 525      997B5B9D 
 525      4C24CD99 
 525      9BDD55AF 
 526 0a25 445E458B 		.ascii	"D^E\213\334\346Dd\373\003\250\357'\362\272d\"7\\E\221"
 526      DCE64464 
 526      FB03A8EF 
 526      27F2BA64 
 526      22375C45 
 527 0a3a DFA645EE 		.ascii	"\337\246E\356p-r\026\307^\372\220\022\371'=d\265\372"
 527      702D7216 
 527      C75EFA90 
 527      12F9273D 
 527      64B5FA
 528 0a4d 3CD2D948 		.ascii	"<\322\331H\347!}\011\3512\244-H[=\016V\264W\350=\350"
 528      E7217D09 
 528      E932A42D 
 528      485B3D0E 
 528      56B457E8 
 529 0a63 6EE4F372 		.ascii	"n\344\363r/\343KJ\374\212z\036\253~.\374\201k\260,\246"
 529      2FE34B4A 
 529      FC8A7A1E 
 529      AB7E2EFC 
 529      816BB02C 
 530 0a78 9F5F5714 		.ascii	"\237_W\024O\232\237\253\305E\313\324\232\024G=\361K"
 530      4F9A9FAB 
 530      C545CBD4 
 530      9A14473D 
 530      F14B
 531 0a8a 6982C86F 		.ascii	"i\202\310o\366\370\241\345C&/\345\000\204\250b\013T"
 531      F6F8A1E5 
 531      43262FE5 
 531      0084A862 
 531      0B54
 532 0a9c 66568F5F 		.ascii	"fV\217_\326\366'\253G\362<\311\352\021\315C\340N\366"
 532      D6F627AB 
 532      47F23CC9 
 532      EA11CD43 
 532      E04EF6
ARM GAS  /tmp/ccnQiFEw.s 			page 42


 533 0aaf 516317DE 		.ascii	"Qc\027\336@\342\331\271\3043\236*z)\361X\377.\333j\231"
 533      40E2D9B9 
 533      C4339E2A 
 533      7A29F158 
 533      FF2EDB6A 
 534 0ac4 C5747F82 		.ascii	"\305t\177\2029\330\340z\310\"m\233\307cYM\340\236\354"
 534      39D8E07A 
 534      C8226D9B 
 534      C763594D 
 534      E09EEC
 535 0ad7 6BD2BCD5 		.ascii	"k\322\274\325\001\225\375\267\223\361\3566\022F\262"
 535      0195FDB7 
 535      93F1EE36 
 535      1246B2
 536 0ae6 FA70D158 		.ascii	"\372p\321Xu\377\304P|\327\252\326S7.\303\265\356.\017"
 536      75FFC450 
 536      7CD7AAD6 
 536      53372EC3 
 536      B5EE2E0F 
 537 0afa E9F778DF 		.ascii	"\351\367x\337\324\037\023[\340\304gl\276\221h{/\202"
 537      D41F135B 
 537      E0C4676C 
 537      BE91687B 
 537      2F82
 538 0b0c 74B80511 		.ascii	"t\270\005\021\270\375Xe\277y\013\260\276\026\267\000"
 538      B8FD5865 
 538      BF790BB0 
 538      BE16B700 
 539 0b1c FB1D6C01 		.ascii	"\373\035l\001\224\370_7\253\261b=\204v\324\300\324\032"
 539      94F85F37 
 539      ABB1623D 
 539      8476D4C0 
 539      D41A
 540 0b2e 1D4AAB2F 		.ascii	"\035J\253/\345\0124\336\251\006\\\325M\300\247f0\227"
 540      E50A34DE 
 540      A9065CD5 
 540      4DC0A766 
 540      3097
 541 0b40 5BFE5D46 		.ascii	"[\376]F4\2308*\201\273\340\032\217\031`\361\335*s*X"
 541      3498382A 
 541      81BBE01A 
 541      8F1960F1 
 541      DD2A732A 
 542 0b55 B713B024 		.ascii	"\267\023\260$\237b|@\203M\315p\013\306rv\200\006{\316"
 542      9F627C40 
 542      834DCD70 
 542      0BC67276 
 542      80067BCE 
 543 0b69 0958920F 		.ascii	"\011X\222\017\026\016n\236\333s\363i\2322l\276\221%"
 543      160E6E9E 
 543      DB73F369 
 543      9A326CBE 
 543      9125
 544 0b7b 06739A9D 		.ascii	"\006s\232\2351L\353\376\2756l\221\232\237&\246\200\224"
 544      314CEBFE 
 544      BD366C91 
 544      9A9F26A6 
ARM GAS  /tmp/ccnQiFEw.s 			page 43


 544      8094
 545 0b8d 53863606 		.ascii	"S\2066\006f\253\177\007q\012\005\177!\203\035\003\246"
 545      66AB7F07 
 545      710A057F 
 545      21831D03 
 545      A6
 546 0b9e A6096376 		.ascii	"\246\011cvM\177\316\256L\251\253\307;\201[\340Z\301"
 546      4D7FCEAE 
 546      4CA9ABC7 
 546      3B815BE0 
 546      5AC1
 547 0bb0 6C6F1DAE 		.ascii	"lo\035\256e\342\204\213\235\300eY\364\227\325E\017h"
 547      65E2848B 
 547      9DC06559 
 547      F497D545 
 547      0F68
 548 0bc2 91FF101D 		.ascii	"\221\377\020\035\337G8\273\035B\332\205\364(\322cHO"
 548      DF4738BB 
 548      1D42DA85 
 548      F428D263 
 548      484F
 549 0bd4 203D89F4 		.ascii	" =\211\364\013z\006\374\307\240\302\242?\303\344mY\307"
 549      0B7A06FC 
 549      C7A0C2A2 
 549      3FC3E46D 
 549      59C7
 550 0be6 946A1C2A 		.ascii	"\224j\034*\2604\375f\340L%q:\350\300\343\356\370\261"
 550      B034FD66 
 550      E04C2571 
 550      3AE8C0E3 
 550      EEF8B1
 551 0bf9 EA71CFA3 		.ascii	"\352q\317\243\263\\c2\024\325,\377Q\362nr$\257\355\221"
 551      B35C6332 
 551      14D52CFF 
 551      51F26E72 
 551      24AFED91 
 552 0c0d 8B216F63 		.ascii	"\213!oc\316\265\\\035\312\333\310n\240\331C\000\214"
 552      CEB55C1D 
 552      CADBC86E 
 552      A0D94300 
 552      8C
 553 0c1e 4179AEC5 		.ascii	"Ay\256\305\034\363\275\000\226\260\033\000\227=\211"
 553      1CF3BD00 
 553      96B01B00 
 553      973D89
 554 0c2d 0FA53202 		.ascii	"\017\2452\002\211L\177C\214\277\231\305`\233\325\262"
 554      894C7F43 
 554      8CBF99C5 
 554      609BD5B2 
 555 0c3d B61F1892 		.ascii	"\266\037\030\222\221\010\353\023\2257\201\333\356\010"
 555      9108EB13 
 555      953781DB 
 555      EE08
 556 0c4b ED313B34 		.ascii	"\3551;4\253U\255\2055t\031\2407&\254a\367\211o\236\326"
 556      AB55AD85 
 556      357419A0 
 556      3726AC61 
ARM GAS  /tmp/ccnQiFEw.s 			page 44


 556      F7896F9E 
 557 0c60 4E89267B 		.ascii	"N\211&{\2119L\277&\345\334\311\002a\340\305k\2327\347"
 557      89394CBF 
 557      26E5DCC9 
 557      0261E0C5 
 557      6B9A37E7 
 558 0c74 1D6D57FF 		.ascii	"\035mW\377D\210\274I1sNy2\276\362h\273\200\201\\\354"
 558      4488BC49 
 558      31734E79 
 558      32BEF268 
 558      BB80815C 
 559 0c89 A32793EE 		.ascii	"\243'\223\356-E\376]\214o:\0110\317Ea\010\017\275X\222"
 559      2D45FE5D 
 559      8C6F3A09 
 559      30CF4561 
 559      080FBD58 
 560 0c9e 025F2D44 		.ascii	"\002_-D\014r\2105\015W[\013\\\303e1p\253Y\270\227\234"
 560      0C728835 
 560      0D575B0B 
 560      5CC36531 
 560      70AB59B8 
 561 0cb4 C0D94DE9 		.ascii	"\300\331M\351\000\267\206\205{\3255\034\313\335\233"
 561      00B78685 
 561      7BD5351C 
 561      CBDD9B
 562 0cc3 2CDC5227 		.ascii	",\334R'pvs:\300\265\262p\257\273\206c\271[\307\302\265"
 562      7076733A 
 562      C0B5B270 
 562      AFBB8663 
 562      B95BC7C2 
 563 0cd8 3881B39A 		.ascii	"8\201\263\232\327\255.\332\200E~\252\227\230W\255\027"
 563      D7AD2EDA 
 563      80457EAA 
 563      979857AD 
 563      17
 564 0ce9 4F8F903E 		.ascii	"O\217\220>\213\3649\244\317#\235\201t\246\327\301\036"
 564      8BF439A4 
 564      CF239D81 
 564      74A6D7C1 
 564      1E
 565 0cfa 49F1527B 		.ascii	"I\361R{\244\265\3278\330\326D,\264`\315\366e\352\264"
 565      A4B5D738 
 565      D8D6442C 
 565      B460CDF6 
 565      65EAB4
 566 0d0d F25B0CBE 		.ascii	"\362[\014\276~\207\307\021\357\242\353\335\204t'\322"
 566      7E87C711 
 566      EFA2EBDD 
 566      847427D2 
 567 0d1d AF907E83 		.ascii	"\257\220~\203\364;\244\335N6x_'6x\016\302\357\217\351"
 567      F43BA4DD 
 567      4E36785F 
 567      2736780E 
 567      C2EF8FE9 
 568 0d31 D5C95FF9 		.ascii	"\325\311_\371j\016\346\362'[~N\216\216,\374\010S\034"
 568      6A0EE6F2 
 568      275B7E4E 
ARM GAS  /tmp/ccnQiFEw.s 			page 45


 568      8E8E2CFC 
 568      08531C
 569 0d44 9C38E83D 		.ascii	"\2348\350=U)Rn\216\331\331\034\356\300E\372\234\324"
 569      5529526E 
 569      8ED9D91C 
 569      EEC045FA 
 569      9CD4
 570 0d56 AE06D61B 		.ascii	"\256\006\326\033_w\314\327\326\033\352\337\305M\353"
 570      5F77CCD7 
 570      D61BEADF 
 570      C54DEB
 571 0d65 C76B98BD 		.ascii	"\307k\230\275p\021\200W\367|F\347cZHL\251UnY\234\340"
 571      70118057 
 571      F77C46E7 
 571      635A484C 
 571      A9556E59 
 572 0d7b 3C53AF2E 		.ascii	"<S\257.p\3247\250k\377\025\035\343\0024\343\347\372"
 572      70D437A8 
 572      6BFF151D 
 572      E30234E3 
 572      E7FA
 573 0d8d B1DED639 		.ascii	"\261\336\3269\320\2369\257\251\177\225\367\022\002\315"
 573      D09E39AF 
 573      A97F95F7 
 573      1202CD
 574 0d9c 320189BC 		.ascii	"2\001\211\274\307\024Z\363\260\376\322\023Hd\272\273"
 574      C7145AF3 
 574      B0FED213 
 574      4864BABB 
 575 0dac 3D9CBBC2 		.ascii	"=\234\273\302\002\267\320\2547\206\311\024\276P\251"
 575      02B7D0AC 
 575      3786C914 
 575      BE50A9
 576 0dbb 01BB38F2 		.ascii	"\001\2738\362o\353W(\312\3244]\027\213\\#\322_F\326"
 576      6FEB5728 
 576      CAD4345D 
 576      178B5C23 
 576      D25F46D6 
 577 0dcf C457909E 		.ascii	"\304W\220\236\320\301\2268\001\263\362\255\224\022\324"
 577      D0C19638 
 577      01B3F2AD 
 577      9412D4
 578 0dde 71F522BA 		.ascii	"q\365\"\272\203\2718\340\347#}\025\351b/\263\260Y\336"
 578      83B938E0 
 578      E7237D15 
 578      E9622FB3 
 578      B059DE
 579 0df1 A303547B 		.ascii	"\243\003T{\244\360\022\206\313\245F\264\033\221\263"
 579      A4F01286 
 579      CBA546B4 
 579      1B91B3
 580 0e00 12EE6420 		.ascii	"\022\356d 7_\211\237\355:\377\345\376{\346\221\277\200"
 580      375F899F 
 580      ED3AFFE5 
 580      FE7BE691 
 580      BF80
 581 0e12 53AE743F 		.ascii	"S\256t?\301\253K{\201\233\322\237\345\347'\334\313\212"
ARM GAS  /tmp/ccnQiFEw.s 			page 46


 581      C1AB4B7B 
 581      819BD29F 
 581      E5E727DC 
 581      CB8A
 582 0e24 52AFCC94 		.ascii	"R\257\314\224\036P\367\026\002\367g,\361\027\357@\233"
 582      1E50F716 
 582      02F7672C 
 582      F117EF40 
 582      9B
 583 0e35 6956DB81 		.ascii	"iV\333\201\334\314-\"C\362me\324\000\334\352pZ%F\264"
 583      DCCC2D22 
 583      43F26D65 
 583      D400DCEA 
 583      705A2546 
 584 0e4a 655EE66F 		.ascii	"e^\346o\304U\316\342s\267f\324M\356\352\356\036\350"
 584      C455CEE2 
 584      73B766D4 
 584      4DEEEAEE 
 584      1EE8
 585 0e5c 7CC3B4D2 		.ascii	"|\303\264\322k\012\261\021\017d\374X\340\355\031C\023"
 585      6B0AB111 
 585      0F64FC58 
 585      E0ED1943 
 585      13
 586 0e6d B8E7AD45 		.ascii	"\270\347\255E}\221\210J\252\013\\\023\226Xa+*\2729\255"
 586      7D91884A 
 586      AA0B5C13 
 586      9658612B 
 586      2ABA39AD 
 587 0e81 DA3EF116 		.ascii	"\332>\361\026\335\210\346\231\2531Fd\260c\245\241\025"
 587      DD88E699 
 587      AB314664 
 587      B063A5A1 
 587      15
 588 0e92 660DADB6 		.ascii	"f\015\255\266\324\3209\367\032z\333JC&\2154[kd\255\256"
 588      D4D039F7 
 588      1A7ADB4A 
 588      43268D34 
 588      5B6B64AD 
 589 0ea7 11915FE3 		.ascii	"\021\221_\343%G\236\255\3115b-Z\253Y\264\365\226\242"
 589      25479EAD 
 589      C935622D 
 589      5AAB59B4 
 589      F596A2
 590 0eba 5DD8FCE7 		.ascii	"]\330\374\347t\267\262m0\313F&O\343\207f\372&YWX\312"
 590      74B7B26D 
 590      30CB4626 
 590      4FE38766 
 590      FA265957 
 591 0ed0 BAA2766A 		.ascii	"\272\242vj\035\257\326\027\270\215X$n+,N\321\232\216"
 591      1DAFD617 
 591      B88D5824 
 591      6E2B2C4E 
 591      D19A8E
 592 0ee3 BA898E66 		.ascii	"\272\211\216fa\265\255)\252i\374\240\216\352X\035\305"
 592      61B5AD29 
 592      AA69FCA0 
ARM GAS  /tmp/ccnQiFEw.s 			page 47


 592      8EEA581D 
 592      C5
 593 0ef4 CD3A7ACF 		.ascii	"\315:z\317BG]\361\257\347o\233\014\253\032\345[\342"
 593      42475DF1 
 593      AFE76F9B 
 593      0CAB1AE5 
 593      5BE2
 594 0f06 549DAB69 		.ascii	"T\235\253i\233\246\246\204&\004n\207I\015\006_\312b"
 594      9BA6A684 
 594      26046E87 
 594      490D065F 
 594      CA62
 595 0f18 C563F0B5 		.ascii	"\305c\360\265\325\314\327\337z\362\325\334\025?\277"
 595      D5CCD7DF 
 595      7AF2D5DC 
 595      153FBF
 596 0f27 B3BD176C 		.ascii	"\263\275\027lm\267`\353\2305[\012\313V\207\231\255N"
 596      6DB760EB 
 596      98355B0A 
 596      CB568799 
 596      AD4E
 597 0f39 4BB6BE9C 		.ascii	"K\266\276\234\275\315`KmN\340\3168j`\247\271\201]\226"
 597      BDCD604B 
 597      6D4EE0CE 
 597      386A60A7 
 597      B9815D96 
 598 0f4d 0D347EE8 		.ascii	"\0154~\350z8\356M\352\260\254M\366\233$\276\231\036"
 598      7A38EE4D 
 598      EAB0AC4D 
 598      F69B24BE 
 598      991E
 599 0f5f 9E7B1C39 		.ascii	"\236{\0349\254\363\272\305\212|{\212j\264\305*\312s"
 599      ACF3BAC5 
 599      8A7C7B8A 
 599      6AB4C52A 
 599      CA73
 600 0f71 CAD44CDE 		.ascii	"\312\324L\336P\321\036\263\212\366[\252\350\302!UE\013"
 600      50D11EB3 
 600      8AF65BAA 
 600      E8C22155 
 600      450B
 601 0f83 86AAAE48 		.ascii	"\206\252\256H\340j3-\245\231a\226\346\240Cg\303\262"
 601      E06A332D 
 601      A5996196 
 601      E6A04367 
 601      C3B2
 602 0f95 75D0CCD6 		.ascii	"u\320\314\326\241\236lu\325uM"
 602      A19E6C75 
 602      D5754D
 603 0fa0 7D7503DF 		.ascii	"}u\003\337\244l\234\242tw?\341\302d\217z\223\305\347"
 603      A46C9CA2 
 603      74773FE1 
 603      C2648F7A 
 603      93C5E7
 604 0fb3 16DA7C9D 		.ascii	"\026\332|\235Cj\036K\314\303Fo\237\2658\301\026\270"
 604      436A1E4B 
 604      CCC3466F 
ARM GAS  /tmp/ccnQiFEw.s 			page 48


 604      9FB538C1 
 604      16B8
 605 0fc5 FA4CB385 		.ascii	"\372L\263\205\252\205NX\012\262\252u\303}M-\312\024"
 605      AA854E58 
 605      0AB2AA75 
 605      C37D4D2D 
 605      CA14
 606 0fd7 75367771 		.ascii	"u6wq\304x2\251(\347\223\204\032O{\255C\215\002\367\232"
 606      C47832A9 
 606      28E79384 
 606      1A4F7BAD 
 606      438D02F7 
 607 0fec 0DEB9F58 		.ascii	"\015\353\237X\262\276o\351\027#\033\355XO\322\011g\222"
 607      B2BE6FE9 
 607      17231BED 
 607      584FD209 
 607      6792
 608 0ffe 0E21     		.ascii	"\016!"
 609 1000 ABCF02C0 		.ascii	"\253\317\002\300\353\333pv\326\222\263\272W/\375\250"
 609      EBDB7076 
 609      D692B3BA 
 609      572FFDA8 
 610 1010 17D671CE 		.ascii	"\027\326q\316\314\330F\374\266\205aD\271\326\232\221"
 610      CCD846FC 
 610      B6856144 
 610      B9D69A91 
 611 1020 AF2C1999 		.ascii	"\257,\031\231\377\361\331\337\033\214\350.\254\336\006"
 611      FFF1D9DF 
 611      1B8CE82E 
 611      ACDE06
 612 102f E28225C4 		.ascii	"\342\202%\304\336\245\373G\366B\226\213I\225|\312tx"
 612      DEA5FB47 
 612      F642968B 
 612      49957CCA 
 612      7478
 613 1041 A9FD36C9 		.ascii	"\251\3756\311\272\310\206\321om\224~\2567J\277b\245"
 613      BAC886D1 
 613      6F6D947E 
 613      AE374ABF 
 613      62A5
 614 1053 74E6474F 		.ascii	"t\346GO\306Zl\030\233\354c\030\373\027n\241\322\325"
 614      C65A6C18 
 614      9BEC6318 
 614      FB176EA1 
 614      D2D5
 615 1065 090BE623 		.ascii	"\011\013\346#\307y\330g\266\223\323\252n~\240\376}\333"
 615      C779D867 
 615      B693D3AA 
 615      6E7EA0FE 
 615      7DDB
 616 1077 BB068AC6 		.ascii	"\273\006\212\306\033\3735\033\236\237&\000\011Xgg|\345"
 616      1BFB351B 
 616      9E9F2600 
 616      09586767 
 616      7CE5
 617 1089 E679BCD2 		.ascii	"\346y\274\322\014[\266+\000%\362\2631\210\326fF\352"
 617      0C5BB62B 
ARM GAS  /tmp/ccnQiFEw.s 			page 49


 617      0025F2B3 
 617      3188D666 
 617      46EA
 618 109b B1899DAA 		.ascii	"\261\211\235\252\001\015\346V)O\305\207\252\025\325"
 618      010DE656 
 618      294FC587 
 618      AA15D5
 619 10aa 4D8116C4 		.ascii	"M\201\026\304R\226\011\332\376\300\330\201\251\033\005"
 619      529609DA 
 619      FEC0D881 
 619      A91B05
 620 10b9 ED272852 		.ascii	"\355'(R\3333\030\357{\214z\342\336\354\364<\315g\336"
 620      DB3318EF 
 620      7B8C7AE2 
 620      DEECF43C 
 620      CD67DE
 621 10cc 481C7CFD 		.ascii	"H\034|\375\\;\277aQ\255B\034\374\023\013\342\231*\200"
 621      5C3BBF61 
 621      51AD421C 
 621      FC130BE2 
 621      992A80
 622 10df C03D739D 		.ascii	"\300=s\235\245\207\277L<\3741\\*\275\214%\236\362\331"
 622      A587BF4C 
 622      3CFC315C 
 622      2ABD8C25 
 622      9EF2D9
 623 10f2 79F86389 		.ascii	"y\370c\211\025V|\301\271N\177\223\022\367\352\037m\276"
 623      15567CC1 
 623      B94E7F93 
 623      12F7EA1F 
 623      6DBE
 624 1104 96A2AEE6 		.ascii	"\226\242\256\346U\325\331!>\357\\\227\2404\304\023\023"
 624      55D5D921 
 624      3EEF5C97 
 624      A034C413 
 624      13
 625 1115 04A9C874 		.ascii	"\004\251\310t\372\323l\247\247s\323\324\363[e2?\336"
 625      FAD36CA7 
 625      A773D3D4 
 625      F35B6532 
 625      3FDE
 626 1127 D857D9FC 		.ascii	"\330W\331\374\035\256\310?\357K'\273\271\353\330#T\012"
 626      1DAEC83F 
 626      EF4B27BB 
 626      B9EBD823 
 626      540A
 627 1139 9E142017 		.ascii	"\236\024 \027\251\257\346\365\034T\321\202\322\315C"
 627      A9AFE6F5 
 627      1C54D182 
 627      D2CD43
 628 1148 49547A46 		.ascii	"ITzF\302[3\033\007\202R\357s\033\224\236\351\263\016"
 628      C25B331B 
 628      078252EF 
 628      731B949E 
 628      E9B30E
 629 115b 4AEB8CD2 		.ascii	"J\353\214\322\361p\252\345!z9\277\206\323\340\272\345"
 629      F170AAE5 
ARM GAS  /tmp/ccnQiFEw.s 			page 50


 629      217A39BF 
 629      86D3E0BA 
 629      E5
 630 116c 176C5A4E 		.ascii	"\027lZN\323Z6\031\335\312$F7\313g\035OR'\001\273Z\263"
 630      D35A3619 
 630      DDCA2446 
 630      37CB671D 
 630      4F522701 
 631 1183 6D6B9D4C 		.ascii	"mk\235LR\253\261\207\201\267\264n('af\342\221\026f\232"
 631      52ABB187 
 631      81B7B46E 
 631      28276166 
 631      E2911666 
 632 1198 5C12E941 		.ascii	"\\\022\351A;\2509>\223O:\355\355\261\347Ze=Hv\221Ar"
 632      3BA8393E 
 632      934F3AED 
 632      EDB1E75A 
 632      653D4876 
 633 11af 1A07491C 		.ascii	"\032\007I\034K4\331\032\372ijuV\243\354\377\210\354"
 633      4B34D91A 
 633      FA696A75 
 633      56A3ECFF 
 633      88EC
 634 11c1 27540B63 		.ascii	"'T\013cj\245\233{\236\370\015\326\346\215O\264\342W"
 634      6AA59B7B 
 634      9EF80DD6 
 634      E68D4FB4 
 634      E257
 635 11d3 218C6EC4 		.ascii	"!\214n\304\244\342\2661)\221o\306(I\252\260\221\252"
 635      A4E2B631 
 635      29916FC6 
 635      2849AAB0 
 635      91AA
 636 11e5 1312B1F8 		.ascii	"\023\022\261\370\347\016rf\301.\020\355wZ\270@\264\372"
 636      E70E7266 
 636      C12E10ED 
 636      775AB840 
 636      B4FA
 637 11f7 DCD8D0C5 		.ascii	"\334\330\320\305S\211\2179\272\366\2348U\256~\255\376"
 637      53898F39 
 637      BAF69C38 
 637      55AE7EAD 
 637      FE
 638 1208 B28F78E3 		.ascii	"\262\217x\343\367L=\223\032\010]\255\317\024fl\332\207"
 638      F74C3D93 
 638      1A085DAD 
 638      CF14666C 
 638      DA87
 639 121a 6146F23C 		.ascii	"aF\362<\365\211\306\274}\015Z\230Q\215Ww\"\017\244n"
 639      F589C6BC 
 639      7D0D5A98 
 639      518D5777 
 639      220FA46E 
 640 122e 2FC28C80 		.ascii	"/\302\214\2007\177\037\036j\253`\273\\\203e1`+h\260"
 640      377F1F1E 
 640      6AAB60BB 
 640      5C836531 
ARM GAS  /tmp/ccnQiFEw.s 			page 51


 640      602B68B0 
 641 1242 0F9D8025 		.ascii	"\017\235\200%9\205h\241\301\272\\\203\261\234\255\246"
 641      398568A1 
 641      C1BA5C83 
 641      B19CADA6 
 642 1252 C18E3901 		.ascii	"\301\2169\001Kr\002\261\206\006;\343\032\214\345\354"
 642      4B7202B1 
 642      86063BE3 
 642      1A8CE5EC 
 643 1262 4D1AEC82 		.ascii	"M\032\354\202\023\260$_\025\264\252`j\004\272\3335\030"
 643      13B0245F 
 643      15B4AA60 
 643      6A04BADB 
 643      3518
 644 1274 CBD93A9A 		.ascii	"\313\331:\232\263\247\257w\000\226e\257\263wh\260z\327"
 644      B3A7AF77 
 644      009665AF 
 644      B37768B0 
 644      7AD7
 645 1286 60146730 		.ascii	"`\024g0b:\177U'\0323\"q\327D`\255\344P\326\032D~\275"
 645      623A7F55 
 645      271A3322 
 645      71D74460 
 645      ADE450D6 
 646 129e 362F2566 		.ascii	"6/%f:\340\340E3\007L5-k\367\007\177 \316NZ\234EN\304"
 646      3AE0E045 
 646      33074C35 
 646      2D6BF707 
 646      7F20CE4E 
 647 12b7 B13B7A06 		.ascii	"\261;z\006\260\3354\330r\327`l\257\355\245\301\376\327"
 647      B0DD34D8 
 647      72D7606C 
 647      AFEDA5C1 
 647      FED7
 648 12c9 095892FF 		.ascii	"\011X\222\377\311\350\003\332\236\326\273\006c9;@s\326"
 648      C9E803DA 
 648      9ED6BB06 
 648      63393B40 
 648      73D6
 649 12db E6046CA8 		.ascii	"\346\004l\250\275\316>\242\301\266\273\006c\355\351"
 649      BDCE3EA2 
 649      C1B6BB06 
 649      63EDE9
 650 12ea D0AF0816 		.ascii	"\320\257\010\0261\024\201\333\347\3042\354\376##`\354"
 650      311481DB 
 650      E7C432EC 
 650      FE232360 
 650      EC
 651 12fb 2CCDD811 		.ascii	",\315\330\021'\214\331\375\337C\000v\216\006\373\304"
 651      278CD9FD 
 651      DF430076 
 651      8E06FBC4 
 652 130b 3518ABFF 		.ascii	"5\030\253\377\257h\260\363N\300\222\374\337C\027\030"
 652      AF68B0F3 
 652      4EC092FC 
 652      DF431718 
 653 131b 4FE31A8C 		.ascii	"O\343\032\214\345\354\"\343inp\000\366\230\275\316."
ARM GAS  /tmp/ccnQiFEw.s 			page 52


 653      E5EC22E3 
 653      696E7000 
 653      F698BDCE 
 653      2E
 654 132c D160335D 		.ascii	"\321`3]\203\261\226\361-e\031\363\314XV\226Qn\317\330"
 654      83B196F1 
 654      2D6519F3 
 654      CC585696 
 654      516ECFD8 
 655 1340 159AB1D7 		.ascii	"\025\232\261\327\2340\026\261\007\253;@\201-s\015\306"
 655      9C3016B1 
 655      07AB3B40 
 655      812D730D 
 655      C6
 656 1351 4A59FFDB 		.ascii	"JY\377\333\204\224+\234H9\311\236\261\006\232\261V'"
 656      84942B9C 
 656      4839C99E 
 656      B1069AB1 
 656      5627
 657 1363 8C29BC3D 		.ascii	"\214)\274=\332,\032-\356\036-\213\263\275\350\225\230"
 657      DA2C1A2D 
 657      EE1E2D8B 
 657      B3BDE895 
 657      98
 658 1374 C8BFE6C3 		.ascii	"\310\277\346\303\277m\363\221\363\262\245H\227!}\035"
 658      BF6DF391 
 658      F3B2A548 
 658      97217D1D 
 659 1384 E90AA42D 		.ascii	"\351\012\244-HW#]\203\364M\244\255H\327!\375+\322\015"
 659      4857235D 
 659      83F44DA4 
 659      AD48D721 
 659      FD2BD20D 
 660 1398 48DF45BA 		.ascii	"H\337E\272\011i\033\322-H\267!}\037\351v\244;\220\356"
 660      09691BD2 
 660      2D48B721 
 660      7D1FE976 
 660      A43B90EE 
 661 13ac 42BA07E9 		.ascii	"B\272\007\351>\244\373\221~\210\364 \322\303H\217 \375"
 661      3EA4FB91 
 661      7E88F420 
 661      D2C3488F 
 661      20FD
 662 13be D8479DEB 		.ascii	"\330G\235\353\23160/\333h\211\310}\334v\333s.\311\266"
 662      9936302F 
 662      DB6889C8 
 662      7DDC76DB 
 662      732EC9B6 
 663 13d2 E7846DAD 		.ascii	"\347\204m\255\267\223\324\372\273m\255\355Ij\235\264"
 663      B793D4FA 
 663      BB6DADED 
 663      496A9DB4 
 664 13e2 AD753149 		.ascii	"\255u1I\255S\266\265\256$\251u\332\266\326\206$\265"
 664      AD53B6B5 
 664      AE24A975 
 664      DAB6D686 
 664      24B5
ARM GAS  /tmp/ccnQiFEw.s 			page 53


 665 13f4 3EB1ADB5 		.ascii	">\261\255\265-I\255O{l\035\317\177\271e\240q\310:\331"
 665      2D49AD4F 
 665      7B6C1DCF 
 665      7FB965A0 
 665      71C83AD9 
 666 1408 EB3C9CF5 		.ascii	"\353<\234\365\231y\353\250\364\334:n\273\301r\353\270"
 666      9979EBA8 
 666      F4DC3A6E 
 666      BBC172EB 
 666      B8
 667 1419 8A6C1DD5 		.ascii	"\212l\035\325\023\254\017\260\304\031\333\255\243\342"
 667      13AC0FB0 
 667      C419DBAD 
 667      A3E2
 668 1427 B53DAE3B 		.ascii	"\265=\256;c\216\217\234e\367\212\334\235\331\345\341"
 668      638E8F9C 
 668      65F78ADC 
 668      9DD9E5E1 
 669 1437 4A29BB34 		.ascii	"J)\2734\\\366xv\2314!\273\264<4&\024\216e\313\321\352"
 669      5CF67876 
 669      993421BB 
 669      B43C3426 
 669      148E65CB 
 670 144d AA3F6643 		.ascii	"\252?fC&*g\207\252J+\252\313\240P\2714A\252\222c\203"
 670      262A6787 
 670      AA4A2BAA 
 670      CBA050B9 
 670      3441AA92 
 671 1463 CAB97E98 		.ascii	"\312\271~\230\013\306\302\325\321R)(\247\215x\350\221"
 671      0BC6C2D5 
 671      D1522928 
 671      A78D78E8 
 671      91
 672 1474 AC022E83 		.ascii	"\254\002.\203~\232\251\376\250\010\305d\251J\212\006"
 672      7E9AA9FE 
 672      A808C564 
 672      A94A8A06 
 673 1484 E57EEC03 		.ascii	"\345~\354\003\277T\021\254\222&\311C\\q\020{<&?\036"
 673      BF5411AC 
 673      9226C943 
 673      5C71107B 
 673      3C263F1E 
 674 1498 91080FE9 		.ascii	"\221\010\017\351ryT\022\313\202r\240\264<\250\346\007"
 674      72795412 
 674      CB8272A0 
 674      B43CA8E6 
 674      07
 675 14a9 BBC32A2D 		.ascii	"\273\303*-/\003\234\264\010\362\001\267HT\232\360\200"
 675      2F039CB4 
 675      08F201B7 
 675      48549AF0 
 675      80
 676 14ba 03884838 		.ascii	"\003\210H8*\307\262\207\025\217,\0309\011JVFB\025R4"
 676      2AC7B287 
 676      158F2C18 
 676      39094A56 
 676      46421552 
ARM GAS  /tmp/ccnQiFEw.s 			page 54


 677 14cf 963DA2A0 		.ascii	"\226=\242\240\000\212\353\354\371\345H4\024\016\312"
 677      008AEBEC 
 677      F9E54834 
 677      140ECA
 678 14de 3FC9AE8E 		.ascii	"?\311\256\216E\263\305h\345\355U\341*\351vI\034\023"
 678      45B3C568 
 678      E5ED55E1 
 678      2AE97649 
 678      1C13
 679 14f0 327888C9 		.ascii	"2x\210\311e\241*\231\310R\015\367\374\274\240<8I\351"
 679      65A12A99 
 679      C8520DF7 
 679      FCBCA03C 
 679      3849E9
 680 1503 4A1198A9 		.ascii	"J\021\230\251\222\262\203e\322X\261\272B\016\352M\365"
 680      92B28365 
 680      D258B1BA 
 680      420EEA4D 
 680      F5
 681 1514 0906F5FA 		.ascii	"\011\006\365\372(E(\354/\015W\311 \324\335\256\245)"
 681      284528EC 
 681      2F0D57C9 
 681      20D4DDAE 
 681      A529
 682 1526 2F0D4725 		.ascii	"/\015G%\300\354K\036\007\001\265T\236\364\363\336\241"
 682      C0EC4B1E 
 682      0701B554 
 682      9EF4F3DE 
 682      A1
 683 1537 0427DC55 		.ascii	"\004'\334UId\213J\343@\240\240\354\211\345\336\011\351"
 683      49648B4A 
 683      E340A0A0 
 683      EC89E5DE 
 683      09E9
 684 1549 2E484320 		.ascii	".HC \335\355\211\345\345@\312\205\224\007)\037\322`"
 684      DDED89E5 
 684      E540CA85 
 684      9407291F 
 684      D260
 685 155b 48774082 		.ascii	"Hw@\202ryP.\017\312\345A\271|(\227\237+D\007\013\321"
 685      7279502E 
 685      0FCAE541 
 685      B97C2897 
 685      9F2B4407 
 686 1571 3B84E89D 		.ascii	";\204\350\235B\364.!:D\210\336\355\211\346\346@\312"
 686      42F42E21 
 686      3A4488DE 
 686      ED89E6E6 
 686      40CA
 687 1583 152AA270 		.ascii	"\025*\242p\313\367E\202\300\255\237\364\347D0\260H0"
 687      CBF74582 
 687      C0AD9FF4 
 687      E74430B0 
 687      4830
 688 1595 5C512645 		.ascii	"\\Q&E\275\245\345b\224t\262X)\245\3131Y\224\301b\375"
 688      BDA5E562 
 688      9474B258 
ARM GAS  /tmp/ccnQiFEw.s 			page 55


 688      29A5CB31 
 688      5994C162 
 689 15aa 446143C0 		.ascii	"DaC\300vT\325A\016\212\343;\277\\\031.\223\360\367\330"
 689      7654D541 
 689      0E8AE33B 
 689      BF5C192E 
 689      93F0F7D8 
 690 15be 0A715CCC 		.ascii	"\012q\\\314/G\245\2611\324,\311\370*c\343\340\245\246"
 690      2F47A5B1 
 690      31D42CC9 
 690      F82A63E3 
 690      E0A5A6
 691 15d1 6EA8AE2B 		.ascii	"n\250\256+>Z\3668\274J\227&\205dP\224\2246Q\016\217"
 691      3E5AF638 
 691      BC4A9726 
 691      85645094 
 691      9436510E 
 692 15e6 F943A42F 		.ascii	"\371C\244/\032}\245\030\373#\024\221&\222\214'\022\254"
 692      1A7DA518 
 692      FB231491 
 692      26928C27 
 692      12AC
 693 15f8 EEA7DA6B 		.ascii	"\356\247\332k\014GCP\356oX\260\372$\020\011N\024Cr\250"
 693      0C474350 
 693      EE6F58B0 
 693      FA241009 
 693      4E144372 
 694 160d 6A5C7FFD 		.ascii	"j\\\177\375\361\370j\251\032\270\312\244J\342\243>\221"
 694      F1F86AA9 
 694      1AB8CAA4 
 694      4AE2A33E 
 694      91
 695 161e 20348B59 		.ascii	" 4\213Y\037f\341\201\024\221\252\300\260\306\371*\253"
 695      1F66E181 
 695      1491AAC0 
 695      B0C6F92A 
 695      AB
 696 162f C108F25D 		.ascii	"\301\010\362]\015\212Jy\0221\336J\025\035\356\341\211"
 696      0D8A4A79 
 696      1231DE4A 
 696      151DEEE1 
 696      89
 697 1640 64B02212 		.ascii	"d\260\"\022\210P\211c\005\370\203r\204\323>D+b\005\332"
 697      88508963 
 697      05F88372 
 697      84D33E44 
 697      2B6205DA 
 698 1654 1C3C8C84 		.ascii	"\034<\214\204\303\025}a`\353\203<\000y\325i\250\276"
 698      C3157D61 
 698      60EB833C 
 698      0079D569 
 698      A8BE
 699 1666 01351A94 		.ascii	"\0015\032\224\323\3411f\311\373\211\252\232\245\030"
 699      D3E13166 
 699      C9FB89AA 
 699      9AA518
 700 1675 42DF918A 		.ascii	"B\337\221\212\333r\261\"1~\244hH\254\000~3J0W\030\015"
ARM GAS  /tmp/ccnQiFEw.s 			page 56


 700      DB72B122 
 700      317EA468 
 700      48AC007E 
 700      334A3057 
 701 168b 4D90A2FD 		.ascii	"M\220\242\375\351\037\217\216\034\235\207c\252\"4&{"
 701      E91F8F8E 
 701      1C9D8763 
 701      AA223426 
 701      7B
 702 169c 5C69A969 		.ascii	"\\i\251il\015\0364d\320`z<\302\330\">!\026\372/\320"
 702      6C0D1E34 
 702      64D0607A 
 702      3CC2D822 
 702      3E2116FA 
 703 16b2 B66F6234 		.ascii	"\266ob4$K^\242nO\244Z\366\214\223\344\000\361@\241J"
 703      244B5EA2 
 703      6E4FA45A 
 703      F68C93E4 
 703      00F140A1 
 704 16c7 78E98527 		.ascii	"x\351\205'\262\027\036\311iXL\366\221r\262gB\245\354"
 704      B2171EC9 
 704      69584CF6 
 704      9172B267 
 704      42A5EC
 705 16da 436103B1 		.ascii	"Ca\003\2612\315\332\002%\205\301G\036*z\250h\264\037"
 705      32CDDA02 
 705      2585C147 
 705      1E2A7AA8 
 705      68B41F
 706 16ed 7225A31F 		.ascii	"r%\243\037\036\225\016\367\342\341\303\012\177\343\303"
 706      1E950EF7 
 706      E2E1C30A 
 706      7FE3C3
 707 16fc 22EEDC30 		.ascii	"\"\356\3340v\015\031\370\327\204\252\200\011\3356\372"
 707      760D19F8 
 707      D784AA80 
 707      09DD36FA 
 708 170c 80BBD1B2 		.ascii	"\200\273\321\262\351z60^\267$\310\225\206\253\301+D"
 708      E97A3630 
 708      5EB724C8 
 708      9586ABC1 
 708      2B44
 709 171e D3C707C7 		.ascii	"\323\307\007\307T\217\035+E}\343\203r8\342\207\"\321"
 709      548F1D2B 
 709      457DE383 
 709      7238E287 
 709      22D1
 710 1730 881C857B 		.ascii	"\210\034\205{\264\014\356\201\361Ua94\366q@\031\037"
 710      B40CEE81 
 710      F1556139 
 710      34F67140 
 710      191F
 711 1742 54B369E3 		.ascii	"T\263i\343\241G\253\376\230\026B\314~\341j\231j6-\214"
 711      A147ABFE 
 711      981642CC 
 711      7EE16A99 
 711      6A362D8C 
ARM GAS  /tmp/ccnQiFEw.s 			page 57


 712 1756 19213446 		.ascii	"\031!4F\010\217\371Y*A\240\213\263\013F\226\024\225"
 712      088FF959 
 712      2A41A08B 
 712      B30B4696 
 712      1495
 713 1768 64978C06 		.ascii	"d\227\214\006}W\346\347\215\035\234\223;\211\270\234"
 713      7D57E6E7 
 713      8D1D9C93 
 713      3B89B89C 
 714 1778 6B1E2919 		.ascii	"k\036)\031V<:8\032\274Z\2414V()\026\012\213=\367\027"
 714      563C3A38 
 714      1ABC5AA1 
 714      34562829 
 714      160A8B3D 
 715 178e 177B0A8A 		.ascii	"\027{\012\212s!\345A\312\367\216\030=\252\330W\035\023"
 715      7321E541 
 715      CAF78E18 
 715      3DAAD857 
 715      1D13
 716 17a0 A3729113 		.ascii	"\243r\221\023KQ\335R\311\350\221\371y\331\017>X\230"
 716      4B51DD52 
 716      C9E891F9 
 716      79D90F3E 
 716      5898
 717 17b2 8D4D4CC8 		.ascii	"\215ML\310\325,'XQAf\000_,\"Ie\350\203s\357\004=\252"
 717      D52C2758 
 717      51416600 
 717      5F2C2249 
 717      65E88373 
 718 17ca 3E81643D 		.ascii	">\201d=\245\321"
 718      A5D1
 719 17d0 5C487990 		.ascii	"\\Hy\220\3625\033+\010W\215\015\215\273Z\215\227r~U"
 719      F2351B2B 
 719      08578D0D 
 719      8DBB5A8D 
 719      97727E55 
 720 17e4 C579C2F8 		.ascii	"\305y\302\370H &\311A)\032\015G=\261\262\210\020\213"
 720      482026C9 
 720      41291A0D 
 720      473DB1B2 
 720      88108B
 721 17f7 F6879213 		.ascii	"\366\207\222\023$\342b\340iuD\276\026\005\207\337!y"
 721      24E262E0 
 721      697544BE 
 721      160587DF 
 721      2179
 722 1809 50281615 		.ascii	"P(\026\025\007\345\370\213J\212\207\015\312\275#\255"
 722      07E5F88B 
 722      4A8A870D 
 722      CABD23AD 
 723 1819 14D9BA2E 		.ascii	"\024\331\272.VF`\301\223\205#\203\"PvPn\372\243R\251"
 723      564660C1 
 723      93852383 
 723      22507650 
 723      6EFAA352 
 724 182e 1C8E160E 		.ascii	"\034\216\026\016\351\253\275#\2653\214rP\246/U\351\206"
 724      E9ABBD23 
ARM GAS  /tmp/ccnQiFEw.s 			page 58


 724      B5338C72 
 724      50A62F55 
 724      E986
 725 1840 D2F2E113 		.ascii	"\322\362\341\023\344\373\243a\261\254T\214\311\277 "
 725      E4FBA361 
 725      B1AC548C 
 725      C9BF20
 726 184f 43B328BD 		.ascii	"C\263(\275\264\374\341\377\030!\311E\375ceEU0\341\201"
 726      B4FCE1FF 
 726      1821C945 
 726      FD636545 
 726      5530E181 
 727 1863 39158AB2 		.ascii	"9\025\212\262Xt\237s-@\255\312p\225>ATM\010\225\202"
 727      58749F73 
 727      2D40ADCA 
 727      70953E41 
 727      544D0895 
 728 1878 E2AF25F7 		.ascii	"\342\257%\367\302PL\034S!\251l^\027T\347\235\350x\360"
 728      C2504C1C 
 728      5321A96C 
 728      5E1754E7 
 728      9DE878F0 
 729 188c 62A18AF0 		.ascii	"b\241\212\360\270j\011x}x\314\037\340m\0210\236Ij\014"
 729      B86A0978 
 729      7D78CC1F 
 729      E06D1130 
 729      9E496A0C 
 730 18a0 AF4A54F0 		.ascii	"\257JT\360\224\024\346\365\323'DU\011)\035\036\341*"
 730      9414E6F5 
 730      D3274455 
 730      09291D1E 
 730      E12A
 731 18b2 1C0302A3 		.ascii	"\034\003\002\243\212\334\201\223\001\344>\234\214Z\223"
 731      8ADC8193 
 731      01E43E9C 
 731      8C5A93
 732 18c1 EC1E2916 		.ascii	"\354\036)\026\361\241\207\362\005\357\007\357\226At"
 732      F1A187F2 
 732      05EF07EF 
 732      964174
 733 18d0 51141B5E 		.ascii	"Q\024\033^\031\221\037/\362\204\307G\372\026\027\024"
 733      19911F2F 
 733      F284C747 
 733      FA161714 
 734 18e0 18365B50 		.ascii	"\0306[P\354\037\365\340\203\005\277\030Q\354%\304SP"
 734      EC1FF5E0 
 734      8305BF18 
 734      51EC25C4 
 734      5350
 735 18f2 549C3EEC 		.ascii	"T\234>\354\201\373s\213KFc&O\317\344\223L\240xx\311"
 735      81FB738B 
 735      4B466326 
 735      4FCFE493 
 735      4CA07878 
 736 1907 F0E24787 		.ascii	"\360\342G\207\027\346\244\017\033\245\027\032\245\026"
 736      17E6A40F 
 736      1BA5171A 
ARM GAS  /tmp/ccnQiFEw.s 			page 59


 736      A516
 737 1915 32DEE5FA 		.ascii	"2\336\345\372\011\300\360\207\212\311=O\273\347\303"
 737      09C0F087 
 737      8AC93D4F 
 737      BBE7C3
 738 1924 DD2891E7 		.ascii	"\335(\221\347'\265\361\315(,a\274\311\017\220\272\017"
 738      27B5F1CD 
 738      282C61BC 
 738      C90F90BA 
 738      0F
 739 1935 8E22CF48 		.ascii	"\216\"\317Hm#\227\257\346\364r\203\003\004A{;J/\247"
 739      6D2397AF 
 739      E6F47283 
 739      0304417B 
 739      3B4A2FA7 
 740 1949 BFBDC37B 		.ascii	"\277\275\303{\177a\001\310R\222xt\247\257\244\244`D"
 740      7F6101C8 
 740      52927874 
 740      A7AFA4A4 
 740      6044
 741 195b 711F10B6 		.ascii	"q\037\020\266(\257\204\210\232\241\232f\231D\314\213"
 741      28AF8488 
 741      9AA19A66 
 741      9944CC8B 
 742 196b AFFE3F0A 		.ascii	"\257\376?\0123\362\346"
 742      33F2E6
 743              		.text
 744              		.section	.gnu.lto_.symtab.1a25707fab025e31,"",%progbits
 745 0000 56656374 		.ascii	"VectorD8\000\000\000\000\000\000\000\000\000\000\000"
 745      6F724438 
 745      00000000 
 745      00000000 
 745      000000
 746 0013 004E0200 		.ascii	"\000N\002\000\000SD2\000\000\000\000\000\000\000\000"
 746      00534432 
 746      00000000 
 746      00000000 
 747 0023 00000000 		.ascii	"\000\000\000\000\202\002\000\000sd_lld_init\000\000"
 747      82020000 
 747      73645F6C 
 747      6C645F69 
 747      6E697400 
 748 0038 00000000 		.ascii	"\000\000\000\000\000\000\000\000\000\000R\002\000\000"
 748      00000000 
 748      00005202 
 748      0000
 749 0046 73645F6C 		.ascii	"sd_lld_start\000\000\000\000\000\000\000\000\000\000"
 749      6C645F73 
 749      74617274 
 749      00000000 
 749      00000000 
 750 005c 00005502 		.ascii	"\000\000U\002\000\000sd_lld_stop\000\000\000\000\000"
 750      00007364 
 750      5F6C6C64 
 750      5F73746F 
 750      70000000 
 751 0072 00000000 		.ascii	"\000\000\000\000\000\000\000]\002\000\000chEvtBroad"
ARM GAS  /tmp/ccnQiFEw.s 			page 60


 751      0000005D 
 751      02000063 
 751      68457674 
 751      42726F61 
 752 0087 63617374 		.ascii	"castFlagsI\000\000\002\000\000\000\000\000\000\000\000"
 752      466C6167 
 752      73490000 
 752      02000000 
 752      00000000 
 753 009c 00610200 		.ascii	"\000a\002\000\000chOQGetI\000\000\002\000\000\000\000"
 753      0063684F 
 753      51476574 
 753      49000002 
 753      00000000 
 754 00b0 00000000 		.ascii	"\000\000\000\000\000g\002\000\000sdIncomingDataI\000"
 754      00670200 
 754      00736449 
 754      6E636F6D 
 754      696E6744 
 755 00c9 00020000 		.ascii	"\000\002\000\000\000\000\000\000\000\000\000l\002\000"
 755      00000000 
 755      0000006C 
 755      0200
 756 00d7 006E7669 		.ascii	"\000nvicDisableVector\000\000\002\000\000\000\000\000"
 756      63446973 
 756      61626C65 
 756      56656374 
 756      6F720000 
 757 00f1 00000000 		.ascii	"\000\000\000\000q\002\000\000_port_irq_epilogue\000"
 757      71020000 
 757      5F706F72 
 757      745F6972 
 757      715F6570 
 758 010c 00020000 		.ascii	"\000\002\000\000\000\000\000\000\000\000\000u\002\000"
 758      00000000 
 758      00000075 
 758      0200
 759 011a 0073644F 		.ascii	"\000sdObjectInit\000\000\002\000\000\000\000\000\000"
 759      626A6563 
 759      74496E69 
 759      74000002 
 759      00000000 
 760 0130 00000077 		.ascii	"\000\000\000w\002\000\000nvicEnableVector\000\000\002"
 760      0200006E 
 760      76696345 
 760      6E61626C 
 760      65566563 
 761 014a 00000000 		.ascii	"\000\000\000\000\000\000\000\000\000}\002\000\000"
 761      00000000 
 761      007D0200 
 761      00
 762              		.text
 763              		.section	.gnu.lto_.opts,"",%progbits
 764 0000 272D6D63 		.ascii	"'-mcpu=cortex-m4' '-mfloat-abi=hard' '-mfpu=fpv4-sp"
 764      70753D63 
 764      6F727465 
 764      782D6D34 
ARM GAS  /tmp/ccnQiFEw.s 			page 61


 764      2720272D 
 765 0033 2D643136 		.ascii	"-d16' '-mno-thumb-interwork' '-mthumb' '-O2' '-fomi"
 765      2720272D 
 765      6D6E6F2D 
 765      7468756D 
 765      622D696E 
 766 0066 742D6672 		.ascii	"t-frame-pointer' '-falign-functions=16' '-ffunction"
 766      616D652D 
 766      706F696E 
 766      74657227 
 766      20272D66 
 767 0099 2D736563 		.ascii	"-sections' '-fdata-sections' '-fno-common' '-flto' "
 767      74696F6E 
 767      73272027 
 767      2D666461 
 767      74612D73 
 768 00cc 272D6673 		.ascii	"'-fsingle-precision-constant'\000"
 768      696E676C 
 768      652D7072 
 768      65636973 
 768      696F6E2D 
 769              		.text
 770              		.section	.text.notify2,"ax",%progbits
 771              		.align	2
 772              		.p2align 4,,15
 773              		.thumb
 774              		.thumb_func
 775              		.type	notify2, %function
 776              	notify2:
 777              		@ args = 0, pretend = 0, frame = 0
 778              		@ frame_needed = 0, uses_anonymous_args = 0
 779              		@ link register save eliminated.
 780 0000 024B     		ldr	r3, .L2
 781 0002 DA68     		ldr	r2, [r3, #12]
 782 0004 42F08002 		orr	r2, r2, #128
 783 0008 DA60     		str	r2, [r3, #12]
 784 000a 7047     		bx	lr
 785              	.L3:
 786              		.align	2
 787              	.L2:
 788 000c 00440040 		.word	1073759232
 789              		.size	notify2, .-notify2
 790              		.section	.text.VectorD8,"ax",%progbits
 791              		.align	2
 792              		.p2align 4,,15
 793              		.global	VectorD8
 794              		.thumb
 795              		.thumb_func
 796              		.type	VectorD8, %function
 797              	VectorD8:
 798              		@ args = 0, pretend = 0, frame = 0
 799              		@ frame_needed = 0, uses_anonymous_args = 0
 800 0000 F8B5     		push	{r3, r4, r5, r6, r7, lr}
 801 0002 3E4E     		ldr	r6, .L55
 802 0004 756F     		ldr	r5, [r6, #116]
 803 0006 EF68     		ldr	r7, [r5, #12]
 804 0008 2B68     		ldr	r3, [r5]
ARM GAS  /tmp/ccnQiFEw.s 			page 62


 805 000a D805     		lsls	r0, r3, #23
 806 000c 9CB2     		uxth	r4, r3
 807 000e 45D4     		bmi	.L51
 808              	.L5:
 809 0010 2023     		movs	r3, #32
 810              	@ 546 "/home/cody/dev/chibios/trunk/os/ext/CMSIS/include/core_cmFunc.h" 1
 811 0012 83F31188 		MSR basepri, r3
 812              	@ 0 "" 2
 813              		.thumb
 814 0016 A106     		lsls	r1, r4, #26
 815 0018 21D5     		bpl	.L6
 816 001a 08E0     		b	.L12
 817              	.L7:
 818 001c 6968     		ldr	r1, [r5, #4]
 819 001e 3748     		ldr	r0, .L55
 820 0020 C9B2     		uxtb	r1, r1
 821 0022 FFF7FEFF 		bl	sdIncomingDataI
 822 0026 2C68     		ldr	r4, [r5]
 823 0028 A4B2     		uxth	r4, r4
 824 002a A006     		lsls	r0, r4, #26
 825 002c 17D5     		bpl	.L6
 826              	.L12:
 827 002e 2207     		lsls	r2, r4, #28
 828 0030 F4D0     		beq	.L7
 829 0032 14F0080F 		tst	r4, #8
 830 0036 14BF     		ite	ne
 831 0038 8021     		movne	r1, #128
 832 003a 0021     		moveq	r1, #0
 833 003c 14F0010F 		tst	r4, #1
 834 0040 18BF     		it	ne
 835 0042 41F02001 		orrne	r1, r1, #32
 836 0046 A307     		lsls	r3, r4, #30
 837 0048 48BF     		it	mi
 838 004a 41F04001 		orrmi	r1, r1, #64
 839 004e 6407     		lsls	r4, r4, #29
 840 0050 2B48     		ldr	r0, .L55+4
 841 0052 48BF     		it	mi
 842 0054 41F48071 		orrmi	r1, r1, #256
 843 0058 FFF7FEFF 		bl	chEvtBroadcastFlagsI
 844 005c DEE7     		b	.L7
 845              	.L6:
 846 005e 0023     		movs	r3, #0
 847              	@ 546 "/home/cody/dev/chibios/trunk/os/ext/CMSIS/include/core_cmFunc.h" 1
 848 0060 83F31188 		MSR basepri, r3
 849              	@ 0 "" 2
 850              		.thumb
 851 0064 3906     		lsls	r1, r7, #24
 852 0066 01D5     		bpl	.L13
 853 0068 2206     		lsls	r2, r4, #24
 854 006a 26D4     		bmi	.L52
 855              	.L13:
 856 006c 6306     		lsls	r3, r4, #25
 857 006e 11D5     		bpl	.L16
 858 0070 2023     		movs	r3, #32
 859              	@ 546 "/home/cody/dev/chibios/trunk/os/ext/CMSIS/include/core_cmFunc.h" 1
 860 0072 83F31188 		MSR basepri, r3
 861              	@ 0 "" 2
ARM GAS  /tmp/ccnQiFEw.s 			page 63


 862              		.thumb
 863 0076 726C     		ldr	r2, [r6, #68]
 864 0078 B36C     		ldr	r3, [r6, #72]
 865 007a 2048     		ldr	r0, .L55
 866 007c 9A42     		cmp	r2, r3
 867 007e 29D0     		beq	.L53
 868              	.L17:
 869 0080 4FF6BF73 		movw	r3, #65471
 870 0084 3B40     		ands	r3, r3, r7
 871 0086 6FF04002 		mvn	r2, #64
 872 008a EB60     		str	r3, [r5, #12]
 873 008c 0023     		movs	r3, #0
 874 008e 2A60     		str	r2, [r5]
 875              	@ 546 "/home/cody/dev/chibios/trunk/os/ext/CMSIS/include/core_cmFunc.h" 1
 876 0090 83F31188 		MSR basepri, r3
 877              	@ 0 "" 2
 878              		.thumb
 879              	.L16:
 880 0094 BDE8F840 		pop	{r3, r4, r5, r6, r7, lr}
 881 0098 FFF7FEBF 		b	_port_irq_epilogue
 882              	.L51:
 883 009c 2023     		movs	r3, #32
 884              	@ 546 "/home/cody/dev/chibios/trunk/os/ext/CMSIS/include/core_cmFunc.h" 1
 885 009e 83F31188 		MSR basepri, r3
 886              	@ 0 "" 2
 887              		.thumb
 888 00a2 4FF40071 		mov	r1, #512
 889 00a6 301D     		adds	r0, r6, #4
 890 00a8 FFF7FEFF 		bl	chEvtBroadcastFlagsI
 891 00ac 6FF48073 		mvn	r3, #256
 892 00b0 2B60     		str	r3, [r5]
 893 00b2 0023     		movs	r3, #0
 894              	@ 546 "/home/cody/dev/chibios/trunk/os/ext/CMSIS/include/core_cmFunc.h" 1
 895 00b4 83F31188 		MSR basepri, r3
 896              	@ 0 "" 2
 897              		.thumb
 898 00b8 AAE7     		b	.L5
 899              	.L52:
 900 00ba 2023     		movs	r3, #32
 901              	@ 546 "/home/cody/dev/chibios/trunk/os/ext/CMSIS/include/core_cmFunc.h" 1
 902 00bc 83F31188 		MSR basepri, r3
 903              	@ 0 "" 2
 904              		.thumb
 905 00c0 1048     		ldr	r0, .L55+8
 906 00c2 FFF7FEFF 		bl	chOQGetI
 907 00c6 0028     		cmp	r0, #0
 908 00c8 0CDB     		blt	.L54
 909 00ca 6860     		str	r0, [r5, #4]
 910              	.L15:
 911 00cc 0023     		movs	r3, #0
 912              	@ 546 "/home/cody/dev/chibios/trunk/os/ext/CMSIS/include/core_cmFunc.h" 1
 913 00ce 83F31188 		MSR basepri, r3
 914              	@ 0 "" 2
 915              		.thumb
 916 00d2 CBE7     		b	.L13
 917              	.L53:
 918 00d4 836B     		ldr	r3, [r0, #56]
ARM GAS  /tmp/ccnQiFEw.s 			page 64


 919 00d6 002B     		cmp	r3, #0
 920 00d8 D2D0     		beq	.L17
 921 00da 0430     		adds	r0, r0, #4
 922 00dc 1021     		movs	r1, #16
 923 00de FFF7FEFF 		bl	chEvtBroadcastFlagsI
 924 00e2 CDE7     		b	.L17
 925              	.L54:
 926 00e4 0648     		ldr	r0, .L55+4
 927 00e6 0821     		movs	r1, #8
 928 00e8 FFF7FEFF 		bl	chEvtBroadcastFlagsI
 929 00ec 4FF63F73 		movw	r3, #65343
 930 00f0 3B40     		ands	r3, r3, r7
 931 00f2 43F04003 		orr	r3, r3, #64
 932 00f6 EB60     		str	r3, [r5, #12]
 933 00f8 E8E7     		b	.L15
 934              	.L56:
 935 00fa 00BF     		.align	2
 936              	.L55:
 937 00fc 00000000 		.word	.LANCHOR0
 938 0100 04000000 		.word	.LANCHOR0+4
 939 0104 30000000 		.word	.LANCHOR0+48
 940              		.size	VectorD8, .-VectorD8
 941 0108 AFF30080 		.section	.text.sd_lld_init,"ax",%progbits
 941      AFF30080 
 942              		.align	2
 943              		.p2align 4,,15
 944              		.global	sd_lld_init
 945              		.thumb
 946              		.thumb_func
 947              		.type	sd_lld_init, %function
 948              	sd_lld_init:
 949              		@ args = 0, pretend = 0, frame = 0
 950              		@ frame_needed = 0, uses_anonymous_args = 0
 951 0000 10B5     		push	{r4, lr}
 952 0002 044C     		ldr	r4, .L58
 953 0004 044A     		ldr	r2, .L58+4
 954 0006 2046     		mov	r0, r4
 955 0008 0021     		movs	r1, #0
 956 000a FFF7FEFF 		bl	sdObjectInit
 957 000e 034B     		ldr	r3, .L58+8
 958 0010 6367     		str	r3, [r4, #116]
 959 0012 10BD     		pop	{r4, pc}
 960              	.L59:
 961              		.align	2
 962              	.L58:
 963 0014 00000000 		.word	.LANCHOR0
 964 0018 00000000 		.word	notify2
 965 001c 00440040 		.word	1073759232
 966              		.size	sd_lld_init, .-sd_lld_init
 967              		.section	.text.sd_lld_start,"ax",%progbits
 968              		.align	2
 969              		.p2align 4,,15
 970              		.global	sd_lld_start
 971              		.thumb
 972              		.thumb_func
 973              		.type	sd_lld_start, %function
 974              	sd_lld_start:
ARM GAS  /tmp/ccnQiFEw.s 			page 65


 975              		@ args = 0, pretend = 0, frame = 0
 976              		@ frame_needed = 0, uses_anonymous_args = 0
 977 0000 38B5     		push	{r3, r4, r5, lr}
 978 0002 1F4C     		ldr	r4, .L68
 979 0004 037A     		ldrb	r3, [r0, #8]	@ zero_extendqisi2
 980 0006 0029     		cmp	r1, #0
 981 0008 18BF     		it	ne
 982 000a 0C46     		movne	r4, r1
 983 000c 012B     		cmp	r3, #1
 984 000e 0546     		mov	r5, r0
 985 0010 22D0     		beq	.L67
 986              	.L62:
 987 0012 6B6F     		ldr	r3, [r5, #116]
 988 0014 1B4A     		ldr	r2, .L68+4
 989 0016 9342     		cmp	r3, r2
 990 0018 2BD0     		beq	.L63
 991 001a 02F58062 		add	r2, r2, #1024
 992 001e 9342     		cmp	r3, r2
 993 0020 27D0     		beq	.L63
 994 0022 2268     		ldr	r2, [r4]
 995 0024 1849     		ldr	r1, .L68+8
 996 0026 B1FBF2F2 		udiv	r2, r1, r2
 997 002a 9A60     		str	r2, [r3, #8]
 998              	.L65:
 999 002c A288     		ldrh	r2, [r4, #4]
 1000 002e E188     		ldrh	r1, [r4, #6]
 1001 0030 2089     		ldrh	r0, [r4, #8]
 1002 0032 42F40452 		orr	r2, r2, #8448
 1003 0036 41F04004 		orr	r4, r1, #64
 1004 003a 42F02C02 		orr	r2, r2, #44
 1005 003e 40F00100 		orr	r0, r0, #1
 1006 0042 92B2     		uxth	r2, r2
 1007 0044 A4B2     		uxth	r4, r4
 1008 0046 80B2     		uxth	r0, r0
 1009 0048 0021     		movs	r1, #0
 1010 004a 1C61     		str	r4, [r3, #16]
 1011 004c 5861     		str	r0, [r3, #20]
 1012 004e DA60     		str	r2, [r3, #12]
 1013 0050 1960     		str	r1, [r3]
 1014 0052 1A68     		ldr	r2, [r3]
 1015 0054 5B68     		ldr	r3, [r3, #4]
 1016 0056 38BD     		pop	{r3, r4, r5, pc}
 1017              	.L67:
 1018 0058 0C4B     		ldr	r3, .L68+12
 1019 005a 9842     		cmp	r0, r3
 1020 005c D9D1     		bne	.L62
 1021 005e 0C4B     		ldr	r3, .L68+16
 1022 0060 1A6C     		ldr	r2, [r3, #64]
 1023 0062 42F40032 		orr	r2, r2, #131072
 1024 0066 1A64     		str	r2, [r3, #64]
 1025 0068 2620     		movs	r0, #38
 1026 006a 0C21     		movs	r1, #12
 1027 006c FFF7FEFF 		bl	nvicEnableVector
 1028 0070 CFE7     		b	.L62
 1029              	.L63:
 1030 0072 2268     		ldr	r2, [r4]
 1031 0074 0749     		ldr	r1, .L68+20
ARM GAS  /tmp/ccnQiFEw.s 			page 66


 1032 0076 B1FBF2F2 		udiv	r2, r1, r2
 1033 007a 9A60     		str	r2, [r3, #8]
 1034 007c D6E7     		b	.L65
 1035              	.L69:
 1036 007e 00BF     		.align	2
 1037              	.L68:
 1038 0080 00000000 		.word	.LANCHOR1
 1039 0084 00100140 		.word	1073811456
 1040 0088 80DE8002 		.word	42000000
 1041 008c 00000000 		.word	.LANCHOR0
 1042 0090 00380240 		.word	1073887232
 1043 0094 00BD0105 		.word	84000000
 1044              		.size	sd_lld_start, .-sd_lld_start
 1045 0098 AFF30080 		.section	.text.sd_lld_stop,"ax",%progbits
 1045      AFF30080 
 1046              		.align	2
 1047              		.p2align 4,,15
 1048              		.global	sd_lld_stop
 1049              		.thumb
 1050              		.thumb_func
 1051              		.type	sd_lld_stop, %function
 1052              	sd_lld_stop:
 1053              		@ args = 0, pretend = 0, frame = 0
 1054              		@ frame_needed = 0, uses_anonymous_args = 0
 1055              		@ link register save eliminated.
 1056 0000 037A     		ldrb	r3, [r0, #8]	@ zero_extendqisi2
 1057 0002 022B     		cmp	r3, #2
 1058 0004 00D0     		beq	.L74
 1059              	.L70:
 1060 0006 7047     		bx	lr
 1061              	.L74:
 1062 0008 0749     		ldr	r1, .L75
 1063 000a 436F     		ldr	r3, [r0, #116]
 1064 000c 0022     		movs	r2, #0
 1065 000e 8842     		cmp	r0, r1
 1066 0010 DA60     		str	r2, [r3, #12]
 1067 0012 1A61     		str	r2, [r3, #16]
 1068 0014 5A61     		str	r2, [r3, #20]
 1069 0016 F6D1     		bne	.L70
 1070 0018 044B     		ldr	r3, .L75+4
 1071 001a 1A6C     		ldr	r2, [r3, #64]
 1072 001c 22F40032 		bic	r2, r2, #131072
 1073 0020 1A64     		str	r2, [r3, #64]
 1074 0022 2620     		movs	r0, #38
 1075 0024 FFF7FEBF 		b	nvicDisableVector
 1076              	.L76:
 1077              		.align	2
 1078              	.L75:
 1079 0028 00000000 		.word	.LANCHOR0
 1080 002c 00380240 		.word	1073887232
 1081              		.size	sd_lld_stop, .-sd_lld_stop
 1082              		.global	SD2
 1083              		.section	.rodata.default_config,"a",%progbits
 1084              		.align	2
 1085              		.set	.LANCHOR1,. + 0
 1086              		.type	default_config, %object
 1087              		.size	default_config, 12
ARM GAS  /tmp/ccnQiFEw.s 			page 67


 1088              	default_config:
 1089 0000 00960000 		.word	38400
 1090 0004 0000     		.short	0
 1091 0006 0040     		.short	16384
 1092 0008 0000     		.short	0
 1093 000a 0000     		.space	2
 1094              		.section	.bss.SD2,"aw",%nobits
 1095              		.align	2
 1096              		.set	.LANCHOR0,. + 0
 1097              		.type	SD2, %object
 1098              		.size	SD2, 120
 1099              	SD2:
 1100 0000 00000000 		.space	120
 1100      00000000 
 1100      00000000 
 1100      00000000 
 1100      00000000 
 1101              		.comm	__gnu_lto_v1,1,1
 1102              		.ident	"GCC: (GNU Tools for ARM Embedded Processors) 4.8.4 20140526 (release) [ARM/embedded-4_8-br
ARM GAS  /tmp/ccnQiFEw.s 			page 68


DEFINED SYMBOLS
                            *ABS*:0000000000000000 serial_lld.c
     /tmp/ccnQiFEw.s:771    .text.notify2:0000000000000000 $t
     /tmp/ccnQiFEw.s:776    .text.notify2:0000000000000000 notify2
     /tmp/ccnQiFEw.s:788    .text.notify2:000000000000000c $d
     /tmp/ccnQiFEw.s:791    .text.VectorD8:0000000000000000 $t
     /tmp/ccnQiFEw.s:797    .text.VectorD8:0000000000000000 VectorD8
     /tmp/ccnQiFEw.s:937    .text.VectorD8:00000000000000fc $d
     /tmp/ccnQiFEw.s:942    .text.sd_lld_init:0000000000000000 $t
     /tmp/ccnQiFEw.s:948    .text.sd_lld_init:0000000000000000 sd_lld_init
     /tmp/ccnQiFEw.s:963    .text.sd_lld_init:0000000000000014 $d
     /tmp/ccnQiFEw.s:968    .text.sd_lld_start:0000000000000000 $t
     /tmp/ccnQiFEw.s:974    .text.sd_lld_start:0000000000000000 sd_lld_start
     /tmp/ccnQiFEw.s:1038   .text.sd_lld_start:0000000000000080 $d
     /tmp/ccnQiFEw.s:1046   .text.sd_lld_stop:0000000000000000 $t
     /tmp/ccnQiFEw.s:1052   .text.sd_lld_stop:0000000000000000 sd_lld_stop
     /tmp/ccnQiFEw.s:1079   .text.sd_lld_stop:0000000000000028 $d
     /tmp/ccnQiFEw.s:1099   .bss.SD2:0000000000000000 SD2
     /tmp/ccnQiFEw.s:1084   .rodata.default_config:0000000000000000 $d
     /tmp/ccnQiFEw.s:1088   .rodata.default_config:0000000000000000 default_config
     /tmp/ccnQiFEw.s:1095   .bss.SD2:0000000000000000 $d
                            *COM*:0000000000000001 __gnu_lto_v1
     /tmp/ccnQiFEw.s:941    .text.VectorD8:0000000000000108 $t
     /tmp/ccnQiFEw.s:1045   .text.sd_lld_start:0000000000000098 $t

UNDEFINED SYMBOLS
sdIncomingDataI
chEvtBroadcastFlagsI
_port_irq_epilogue
chOQGetI
sdObjectInit
nvicEnableVector
nvicDisableVector
