ARM GAS  /tmp/ccRNm400.s 			page 1


   1              		.syntax unified
   2              		.cpu cortex-m3
   3              		.fpu softvfp
   4              		.eabi_attribute 20, 1
   5              		.eabi_attribute 21, 1
   6              		.eabi_attribute 23, 3
   7              		.eabi_attribute 24, 1
   8              		.eabi_attribute 25, 1
   9              		.eabi_attribute 26, 1
  10              		.eabi_attribute 30, 2
  11              		.eabi_attribute 34, 1
  12              		.eabi_attribute 18, 4
  13              		.thumb
  14              		.file	"serial.c"
  15              		.section	.gnu.lto_.jmpfuncs.196e7101741f228,"",%progbits
  16 0000 789C7551 		.ascii	"x\234uQ[\022\302 \014\334M\240\350\370<\202G\361\030"
  16      5B12C220 
  16      0CDC4DA0 
  16      E8F83C82 
  16      47F118
  17 0013 7EFACB05 		.ascii	"~\372\313\005\372\335\333x\314\032\250T\250\222a\330"
  17      FADDDB78 
  17      CC1AA854 
  17      A89261D8 
  18 0023 49B2D92C 		.ascii	"I\262\331,\203@\360/^\\\360\214\213s\317h\031\241v\215"
  18      8340F02F 
  18      5E5CF08C 
  18      8B73CF68 
  18      19A1768D 
  19 0037 19644402 		.ascii	"\031dD\0025`\350\364\345\301H\316sJMc\322H\351\211h"
  19      3560E8F4 
  19      E5C148CE 
  19      734A4D63 
  19      D248E989 
  20 004c E8112A15 		.ascii	"\350\021*\025\247\322l\002<\327J\305\033\202\266b(b"
  20      A7D26C02 
  20      3CD74AC5 
  20      1B82B662 
  20      2862
  21 005e 417F3AD5 		.ascii	"A\177:\325\334\016\330\007\377!\244\310=\275\2422\213"
  21      DC0ED807 
  21      FF21A4C8 
  21      3DBDA232 
  21      8B
  22 006f B475D9B9 		.ascii	"\264u\331\271epe\220\367Tw\304A\263\322\221\310&\323"
  22      65706590 
  22      F75477C4 
  22      41B3D291 
  22      C826D3
  23 0082 39D92B6E 		.ascii	"9\331+n\221\276L\017\223\025\245H\026W-\305\331?pS3"
  23      91BE4C0F 
  23      9315A548 
  23      16572DC5 
  23      D93F7053 
  24 0097 B7FC7A7D 		.ascii	"\267\374z}\003f\365'\272"
  24      0366F527 
  24      BA
ARM GAS  /tmp/ccRNm400.s 			page 2


  25              		.text
  26              		.section	.gnu.lto_.inline.196e7101741f228,"",%progbits
  27 0000 789C8550 		.ascii	"x\234\205P;\022\2020\020}\371\021b\370(\21536\024\026"
  27      3B128230 
  27      107DF911 
  27      62F8288D 
  27      33361416 
  28 0014 B4561EC1 		.ascii	"\264V\036\301\222sQr\004J\216\340Q<\216\233@P\234\214"
  28      92735172 
  28      044A8EE0 
  28      513C8E9B 
  28      40509C8C 
  29 0028 4966F6F7 		.ascii	"If\366\367\336\276\315\206\203#v\304Z\256\000sb\014"
  29      DEBECD86 
  29      832376C4 
  29      5AAE0073 
  29      620C
  30 003a 8C6257CA 		.ascii	"\214bW\312\246\326#Y\015\310\261_.Kr\250\236\226\021"
  30      A6D62359 
  30      0DC8B15F 
  30      2E4B72A8 
  30      9E9611
  31 004d 6919095D 		.ascii	"i\031\011]G(\262\244\334\021\324_\034\031\362c\004V"
  31      4728B2A4 
  31      DC11D45F 
  31      1C19F263 
  31      0456
  32 005f B4A55826 		.ascii	"\264\245X&\350\004\0039d\301v\030;\2201h\256\241O<\317"
  32      E8040339 
  32      64C17618 
  32      3B903168 
  32      AEA14F3C 
  33 0074 30AFFBF6 		.ascii	"0\257\373\366x\345\033\235\331g\326\355\013\256\206"
  33      78E51B9D 
  33      D967D6ED 
  33      0BAE86
  34 0083 0E7AE83C 		.ascii	"\016z\350<]\024\353\"\005\312[\320\373&\370a\334R0\366"
  34      5D14EB22 
  34      05CA5BD0 
  34      FB26F861 
  34      DC5230F6 
  35 0097 7B57A2B9 		.ascii	"{W\242\271\204\0163?~%?\177\024\012\025l\023\032\344"
  35      840E333F 
  35      7E253F7F 
  35      140A156C 
  35      131AE4
  36 00aa D46EFB04 		.ascii	"\324n\373\004\334y\322\305\033P\2376|"
  36      DC79D2C5 
  36      1B509F36 
  36      7C
  37              		.text
  38              		.section	.gnu.lto_.pureconst.196e7101741f228,"",%progbits
  39 0000 789C6362 		.ascii	"x\234cb`b\220e\200\000>\006\011F\011&\011f\011\026\011"
  39      60629065 
  39      80003E06 
  39      09460926 
  39      09660916 
ARM GAS  /tmp/ccRNm400.s 			page 3


  40 0015 56093609 		.ascii	"V\0116\011v\011\016\011N)n+\036+^I>\011\000\036?\002"
  40      76090E09 
  40      4E296E2B 
  40      1E2B5E49 
  40      3E09001E 
  41 002b 26       		.ascii	"&"
  42              		.text
  43              		.section	.gnu.lto_readt.196e7101741f228,"",%progbits
  44 0000 789C5D50 		.ascii	"x\234]P\275J\003A\030\234\331\373\341\354l\265\022\354"
  44      BD4A0341 
  44      189CD9FB 
  44      E1EC6CB5 
  44      12EC
  45 0012 14B288AF 		.ascii	"\024\262\210\257\022A\313\313\346\330[L<\270SAS\344"
  45      1241CBCB 
  45      E6D85B4C 
  45      3CB85341 
  45      53E4
  46 0024 FC416D84 		.ascii	"\374Am\204\324Z\371\002\372\006\022++\025\337@_\302"
  46      D45AF902 
  46      FA06122B 
  46      2B15DF40 
  46      5FC2
  47 0036 409AF8ED 		.ascii	"@\232\370\355\005E\\\230\371\206ef\366c\025\024\376"
  47      05455C98 
  47      F9866566 
  47      F6631514 
  47      FE
  48 0047 9F25C1A7 		.ascii	"\237%\301\247`S\300\000T\243W\340$Q\244\027 \206\212"
  48      6053C000 
  48      54A357E0 
  48      2451A417 
  48      20868A
  49 005a C31D36DE 		.ascii	"\303\0356\336\0075\376\230\315\356\277.\236\237\370"
  49      0735FE98 
  49      CDEEBF2E 
  49      9E9FF8
  50 0069 B8BA40F6 		.ascii	"\270\272@\366)\215\216\010E1\022R\261P\220\310\235O"
  50      298D8E08 
  50      45311252 
  50      B15090C8 
  50      9D4F
  51 007b 4438AFEB 		.ascii	"D8\257\353\321\012`\232|[\330\227nQ\371\031\274\340"
  51      D10A609A 
  51      7C5BD897 
  51      6E51F919 
  51      BCE0
  52 008d 747A36B9 		.ascii	"tz6\271^Ny\307\010\226j\200c)[\307\232\243\272\305\015"
  52      5E4E79C7 
  52      08966A80 
  52      63295BC7 
  52      9AA3BAC5 
  53 00a2 1D034B6E 		.ascii	"\035\003Kn\313\014\233\367;\374\263\370\033.\307\301"
  53      CB0C9BF7 
  53      3BFCB3F8 
  53      1B2EC7C1 
  54 00b2 4F341960 		.ascii	"O4\031`Z_\325\213\216\221\341\334%}\226\241ed\031;\306"
ARM GAS  /tmp/ccRNm400.s 			page 4


  54      5A5FD58B 
  54      8E91E1DC 
  54      257D96A1 
  54      6564193B 
  55 00c7 C03BF86B 		.ascii	"\300;\370k\237W\264\305*\213\370O\331\320y\321\317\264"
  55      9F57B4C5 
  55      2A8BF84F 
  55      D9D079D1 
  55      CFB4
  56 00d9 29BA47BA 		.ascii	")\272G\272\233\035j\223\273\216+*\275_\036\354\355j"
  56      9B1D6A93 
  56      BB8E2B2A 
  56      BD5F1EEC 
  56      ED6A
  57 00eb 1179DAD3 		.ascii	"\021y\332\323Uit\225\225.\355\265\014\276\001\316kB"
  57      55697495 
  57      952EEDB5 
  57      0CBE01CE 
  57      6B42
  58 00fd 40       		.ascii	"@"
  59              		.text
  60              		.section	.gnu.lto_read.196e7101741f228,"",%progbits
  61 0000 789C5D50 		.ascii	"x\234]P\313J\003A\020\254\232\331qs\324\2437\317\012"
  61      CB4A0341 
  61      10AC9AD9 
  61      7173D4A3 
  61      37CF0A
  62 0013 0EE2AF44 		.ascii	"\016\342\257D\320\343f\262\354\016&.\354\252\2409d}"
  62      D0E366B2 
  62      EC0E262E 
  62      ECAAA039 
  62      647D
  63 0025 8039E6AC 		.ascii	"\2009\346\254'\177@O\336\363\003*\342\017(\376\204\304"
  63      277F404F 
  63      DEF3032A 
  63      E20F28FE 
  63      84C4
  64 0037 C3DAB341 		.ascii	"\303\332\263A\021\007\252\273\006\272\252\213VP\370"
  64      1107AABB 
  64      06BAAA8B 
  64      5650F8
  65 0046 FF5605EF 		.ascii	"\377V\005\357\202m\0015\250\246O\300YG\221\201\200\030"
  65      826D0135 
  65      A8A64FC0 
  65      59479181 
  65      8018
  66 0058 2B8EF7D8 		.ascii	"+\216\367\330\316\336\253\331[\323\334}>|L\270\322!"
  66      CEDEABD9 
  66      5BD3DC7D 
  66      3E7C4CB8 
  66      D221
  67 006a 8714434F 		.ascii	"\207\024COD\302h\244\250X\276a\326\340\262\256\247k"
  67      44C268A4 
  67      A858BE61 
  67      D6E0B2AE 
  67      A76B
  68 007c 806B955D 		.ascii	"\200k\225]\251\301n\207*t\375\210\363\371\305\327+\023"
ARM GAS  /tmp/ccRNm400.s 			page 5


  68      A9C16E87 
  68      2A74FD88 
  68      F3F9C5D7 
  68      2B13
  69 008e DED220A3 		.ascii	"\336\322 \243\032\341T|6\260\356\251npMO\235\221\273"
  69      1AE1547C 
  69      36B0EEA9 
  69      6E704D4F 
  69      9D91BB
  70 00a1 D2A37673 		.ascii	"\322\243vs\217\177\"?\343j\246\177\244\361\010\363z"
  70      8F7F223F 
  70      E36AA67F 
  70      A4F108F3 
  70      7A
  71 00b2 522F7B1A 		.ascii	"R/{\032\307\305\224\370e\2142\232\240_j\032-\241b\340"
  71      C7C594F8 
  71      658C329A 
  71      A05F6A1A 
  71      2DA162E0 
  72 00c6 05BFFBE2 		.ascii	"\005\277\373\342\205QW\004\022'\034e\313\346\3050\265"
  72      85515704 
  72      12271C65 
  72      CBE6C530 
  72      B5
  73 00d7 AEE89FD8 		.ascii	"\256\350\237\330~zl]\356{\276\250\354ayt\260o\205\344"
  73      7E7A6C5D 
  73      EE7BBEA8 
  73      EC617974 
  73      B06F85E4 
  74 00eb C9C056A5 		.ascii	"\311\300V\245\263UZ\372d\260\351\360\015:*C\226"
  74      B3555AFA 
  74      64B0E9F0 
  74      0D3A2A43 
  74      96
  75              		.text
  76              		.section	.gnu.lto_writet.196e7101741f228,"",%progbits
  77 0000 789C5D50 		.ascii	"x\234]P\275J\003A\030\234\331\273=\316\316V+\301N!\213"
  77      BD4A0341 
  77      189CD9BB 
  77      3DCECE56 
  77      2BC14E21 
  78 0015 F82A11B4 		.ascii	"\370*\021\264\274l\216\273\305$\007w*h\212\234?\240"
  78      BC6C8EBB 
  78      C5240777 
  78      2A688A9C 
  78      3FA0
  79 0027 8D905A2B 		.ascii	"\215\220Z+_@k\273\330\330\031\261\267P|\2134\361\333"
  79      5F406BBB 
  79      D8D819B1 
  79      B7507C8B 
  79      34F1DB
  80 003a 0B8AB830 		.ascii	"\013\212\2700\363\015\313\314\354\307*(\374?+\202O\301"
  80      F30DCBCC 
  80      ECC72A28 
  80      FC3F2B82 
  80      4FC1
  81 004c B68001A8 		.ascii	"\266\200\001\250\306S\3404V\244\027 F\212\243=6\336"
ARM GAS  /tmp/ccRNm400.s 			page 6


  81      C653E034 
  81      56A41720 
  81      468AA33D 
  81      36DE
  82 005e 0735F998 		.ascii	"\0075\371\230\317\357\337\237\247O|\\_\"\373\224FG\204"
  82      CFEFDF9F 
  82      A74F7C5C 
  82      5F22FB94 
  82      464784
  83 0071 A2A88554 		.ascii	"\242\250\205T$\024\304r\347\023\032\027u=^\003l\223"
  83      2414C472 
  83      E7131A17 
  83      753D5E03 
  83      6C93
  84 0083 6F0BFBD2 		.ascii	"o\013\373\322\035*?\203\027\234\315\316\277\256W\023"
  84      1D2A3F83 
  84      179CCDCE 
  84      BFAE5713 
  85 0093 DE5123A3 		.ascii	"\336Q#\243\032\342D\3126\261\341\250nqC\307 #we\206"
  85      1AE244CA 
  85      36B1E1A8 
  85      6E7143C7 
  85      20237765 
  86 00a8 CDFB1DFE 		.ascii	"\315\373\035\376Y\374\025\227\223\340'\032\0171\253"
  86      59FC1597 
  86      93E0271A 
  86      0F31AB
  87 00b7 AFEA6547 		.ascii	"\257\352eGm\271pI_\3060\243\316\0309F\300\033\370k_"
  87      6DB97049 
  87      5FC630A3 
  87      CE183946 
  87      C01BF86B 
  88 00cc 54B4C52A 		.ascii	"T\264\305*\213\370O\3312y\321O\215-\272\307\246\233"
  88      8BF84FD9 
  88      3279D14F 
  88      8D2DBAC7 
  88      A69B
  89 00de 1E199BBB 		.ascii	"\036\031\233\273\216+*sP\036\016\366\215\210<\351\231"
  89      8E2B2A73 
  89      501E0EF6 
  89      8D883CE9 
  89      99
  90 00ef AAB4A64A 		.ascii	"\252\264\246JK\227\364Z\026\337\350\262BT"
  90      4B97F45A 
  90      16DFE8B2 
  90      4254
  91              		.text
  92              		.section	.gnu.lto_write.196e7101741f228,"",%progbits
  93 0000 789C5D50 		.ascii	"x\234]P=K\003A\024\234\331\275\365R\332\332Y+\270\210"
  93      3D4B0341 
  93      149CD9BD 
  93      F552DADA 
  93      592BB888 
  94 0014 7F258296 		.ascii	"\177%\202\226\227\315q\267\230xp\247\202I\221\363\003"
  94      97CD71B7 
  94      987870A7 
  94      824991F3 
ARM GAS  /tmp/ccRNm400.s 			page 7


  94      03
  95 0025 B44CAD95 		.ascii	"\264L\255\225\177@\377B\376\200\212\330\246\010\344"
  95      7F40FF42 
  95      FE808AD8 
  95      A608E4
  96 0034 17D8A639 		.ascii	"\027\330\2469\337^P\304\205yo\026\336\314\033\236\202"
  96      DF5E50C4 
  96      85796F16 
  96      DECC1B9E 
  96      82
  97 0045 C2FFB725 		.ascii	"\302\377\267%X\010\016\004\324\240\232\276\001W\035"
  97      58080E04 
  97      D4A09ABE 
  97      01571D
  98 0054 45060262 		.ascii	"E\006\002b\24289f;\373\242f\213\246y\236\177-G\354\220"
  98      A2383966 
  98      3BFBA266 
  98      8BA6799E 
  98      7F2D47EC 
  99 0069 438A9F27 		.ascii	"C\212\237'\"a4RT,\3370jp[\327\323m\300\265\302\256\324"
  99      22613452 
  99      542CDF30 
  99      6A705BD7 
  99      D36DC0B5 
 100 0080 E0764815 		.ascii	"\340vH\025\272~\305\365\352f\371\311\204O4\310\250\306"
 100      BA7EC5F5 
 100      EA66F9C9 
 100      844F34C8 
 100      A8C6
 101 0092 1889CF2E 		.ascii	"\030\211\317.v<\325#\036\350\2513\362Hz\324.\356\361"
 101      763CD523 
 101      1EE8A933 
 101      F2487AD4 
 101      2EEEF1
 102 00a5 4FE277DC 		.ascii	"O\342w\334\315\364\2174\036cU\337\327\233\236\306q="
 102      CDF48F34 
 102      1E6355DF 
 102      D79B9EC6 
 102      713D
 103 00b7 257E19A3 		.ascii	"%~\031\243\214&\3507\232FK\250\030\370\300\357\276x"
 103      8C26E837 
 103      9A464BA8 
 103      18F8C0EF 
 103      BE78
 104 00c9 6DD41581 		.ascii	"m\324\025\201\304\0117\331\267y1L\255+\372\227\266\237"
 104      C40937D9 
 104      B779314C 
 104      AD2BFA97 
 104      B69F
 105 00db 5E5897FB 		.ascii	"^X\227\373\236/*{V\236\237\236X!y2\260U\351l\225\226"
 105      9E2F2A7B 
 105      569E9F9E 
 105      58217932 
 105      B055E96C 
 106 00f1 3E19EC39 		.ascii	">\031\3549|\003\032QC~"
 106      7C031A51 
 106      437E
ARM GAS  /tmp/ccRNm400.s 			page 8


 107              		.text
 108              		.section	.gnu.lto_gett.196e7101741f228,"",%progbits
 109 0000 789C5D50 		.ascii	"x\234]P;N\303@\024\234y\266\003%-T\324 \261B\\%HP:\033"
 109      3B4EC340 
 109      149C79B6 
 109      03252D54 
 109      D420B142 
 110 001a CB5E25C1 		.ascii	"\313^%\301\222M\"\205\0241_\321 \245\016\025\027 \015"
 110      924D2285 
 110      14315FD1 
 110      20A50E15 
 110      17200D
 111 002d 07C80180 		.ascii	"\007\310\001\200\010N\3009\322\204\267\216@\210\225"
 111      084EC039 
 111      D284B78E 
 111      408895
 112 003c 66DF1433 		.ascii	"f\337\0243\363fW \370\177\266\025\037\212#\005\003P"
 112      F3665720 
 112      F87FB615 
 112      1F8A2305 
 112      0350
 113 004e 26EFC0E5 		.ascii	"&\357\300\345\246\220\236\200\030\013\307\247\254\265"
 113      A6909E80 
 113      180BC7A7 
 113      ACB5
 114 005c 33997FAD 		.ascii	"3\231\177\255V\317\237w/\257\234\312\006\331\243&:\""
 114      56CF9F77 
 114      2FAF9CCA 
 114      06D9A326 
 114      3A22
 115 006e 54C68632 		.ascii	"T\306\2062\257\213pSU\223]\300\326\256\246\336>\352"
 115      AF8B7053 
 115      55935DC0 
 115      D6AEA6DE 
 115      3EEA
 116 0080 98E267F0 		.ascii	"\230\342g\360\206\253\345\365\354a'\346\023#\244\224"
 116      86ABE5F5 
 116      EC6127E6 
 116      1323A494 
 117 0090 112E3462 		.ascii	"\021.4b\037{\216\362\210)\035\203\224<\321\031\326["
 117      1F7B8EF2 
 117      88291D83 
 117      943CD119 
 117      D65B
 118 00a2 5BFC5377 		.ascii	"[\374Sw\201\333y\360cm\214\260\254\356\253-\307\310"
 118      81DB79F0 
 118      636D8CB0 
 118      ACEEAB2D 
 118      C7C8
 119 00b4 72ADD2BC 		.ascii	"r\255\322\274\224\241\3232\372*\376\012\327\346\246"
 119      94A1D332 
 119      FA2AFE0A 
 119      D7E6A6
 120 00c3 8AB482FF 		.ascii	"\212\264\202\377\204C\223\345\275\304\330\274=4\355"
 120      844393E5 
 120      BDC4D8BC 
 120      3D34ED
ARM GAS  /tmp/ccRNm400.s 			page 9


 121 00d2 64606CE6 		.ascii	"d`l\346Z./\315y\321?\353\030%Y\3345eaM\231\024.\356"
 121      5A2E2FCD 
 121      79D13FEB 
 121      182559DC 
 121      3565614D 
 122 00ea 1E587C03 		.ascii	"\036X|\003U{?\244"
 122      557B3FA4 
 123              		.text
 124              		.section	.gnu.lto_get.196e7101741f228,"",%progbits
 125 0000 789C5D50 		.ascii	"x\234]P\273J\003Q\020=g\326\233X\332je\255\340E\374"
 125      BB4A0351 
 125      103D67D6 
 125      9B58DA6A 
 125      65ADE045 
 126 0015 95085A6E 		.ascii	"\225\010Znn\226\354%\217\205]\0254E\326'\026\026iU\010"
 126      6E96EC25 
 126      8F855D15 
 126      3445D627 
 126      16166955 
 127 002a D88BFE42 		.ascii	"\330\213\376B~@E\277\300\316\177H\263\316\335\240\210"
 127      7E4045BF 
 127      C0CE7F48 
 127      B3CEDDA0 
 127      88
 128 003b 0367668A 		.ascii	"\003gf\212s\316\034F \370_\253\212\017\305\216\202\021"
 128      73CE1C46 
 128      20F85FAB 
 128      8A0FC58E 
 128      8211
 129 004d 289357E0 		.ascii	"(\223W\340tY\310\260\200\030\013\307\373\254\271\317"
 129      7459C8B0 
 129      80180BC7 
 129      FBACB9CF 
 130 005d 32FBACAA 		.ascii	"2\373\254\252\247\351\325\364\221\267\322 \007TGO\030"
 130      A7E9D5F4 
 130      91B7D220 
 130      0754474F 
 130      18
 131 006e 6D816270 		.ascii	"m\201bpQ\226\223u\300\325\202\226\366\340\262K\0113"
 131      51969375 
 131      C0D58296 
 131      F6E0B24B 
 131      0933
 132 0080 7AC1D9FC 		.ascii	"z\301\331\374\374\353f-\346\003\015\272\224\021NT\275"
 132      FCEB662D 
 132      E6030DBA 
 132      94114E54 
 132      BD
 133 0091 890D4FB9 		.ascii	"\211\015O\271\307\035=\243.\271\247s\251>\330\346\237"
 133      C71D3DA3 
 133      2EB9A773 
 133      A93ED8E6 
 133      9F
 134 00a2 A46FB89C 		.ascii	"\244o\270\234E?R3\302\274\274.W<\215\343\202\245~A\331"
 134      453F5233 
 134      C2BCBC2E 
 134      573C8DE3 
ARM GAS  /tmp/ccRNm400.s 			page 10


 134      82A57E41 
 135 00b7 A8AA48E3 		.ascii	"\250\252H\3434\201w\360\227\276\260h)U\203\204/l\333"
 135      348177F0 
 135      97BEB068 
 135      29558384 
 135      2F6CDB
 136 00ca 341B24D6 		.ascii	"4\033$\326e\235c\333I\216\254K}\333g\205=\310\017\207"
 136      659D63DB 
 136      498EAC4B 
 136      7DDB6785 
 136      3DC80F87 
 137 00de 3DAB4B1A 		.ascii	"=\253K\032\367m\221;[$\271\217\373[\016\337(rAX"
 137      F76D913B 
 137      5B24B98F 
 137      FB5B0EDF 
 137      28724158 
 138              		.text
 139              		.section	.gnu.lto_putt.196e7101741f228,"",%progbits
 140 0000 789C5D50 		.ascii	"x\234]P=K\003Q\020\234\331\273gR\332je\255\340C\374"
 140      3D4B0351 
 140      109CD9BB 
 140      6752DA6A 
 140      65ADE043 
 141 0015 2B11B4BC 		.ascii	"+\021\264\274\274\034w\217|\034\334\251\240)r~ \026"
 141      BC1C778F 
 141      7C1CDCA9 
 141      A029727E 
 141      2016
 142 0027 1669D5CA 		.ascii	"\026i\325\312?\240\255\215\220\312N\305\322\316\337"
 142      3FA0AD8D 
 142      90CA4EC5 
 142      D2CEDF
 143 0036 110371EF 		.ascii	"\021\003q\357\202\".\314\356,\314\314[\236@\360\277"
 143      82222ECC 
 143      EE2CCCCC 
 143      5B9E40F0 
 143      BF
 144 0047 56141F8A 		.ascii	"V\024\037\212m\005\003P\306\257\300IS\310\212\200\030"
 144      6D050350 
 144      C6AFC049 
 144      53C88A80 
 144      18
 145 0058 09477BAC 		.ascii	"\011G{\254\265\0172\371\234\317\357\037\237\237f\274"
 145      B50F32F9 
 145      9CCFEF1F 
 145      9F9F66BC 
 146 0068 9626D9A7 		.ascii	"\226&\331\247&z\"TF\243M\032\272Vb\203\363\262\034\257"
 146      267A2254 
 146      46A34D1A 
 146      BA566283 
 146      F3B21CAF 
 147 007c 01AEB6B6 		.ascii	"\001\256\266\266\264Wy;\224j\006/8\235\236}]\255F\274"
 147      B457793B 
 147      946A062F 
 147      389D9E7D 
 147      5DAD46BC 
 148 0090 A3414219 		.ascii	"\243AB\031\342Xs6\260\356)\267\270\241g\220\220\273"
ARM GAS  /tmp/ccRNm400.s 			page 11


 148      E2587336 
 148      B0EE29B7 
 148      B8A16790 
 148      90BB
 149 00a2 3AC3FAE9 		.ascii	":\303\372\3516\377\334\374\206\213I\360cm\0141-/\313"
 149      36FFDCFC 
 149      868B49F0 
 149      636D0C31 
 149      2D2FCB
 150 00b5 654FE3B8 		.ascii	"eO\343\270Pi^\3020\241\361\\\002\336\301_\355\302\337"
 150      50695EC2 
 150      30A1F15C 
 150      02DEC15F 
 150      EDC2DF
 151 00c8 529D5E51 		.ascii	"R\235^Q}\306\226M\263~l]\3269\262\235\370\320\272\324"
 151      7DC6964D 
 151      B37E6C5D 
 151      D639B29D 
 151      F8D0BAD4 
 152 00dc B77D56D8 		.ascii	"\267}V\330\375\374`\320\265J\322\250g\213\334\331\""
 152      FDFC60D0 
 152      B54AD2A8 
 152      678BDCD9 
 152      22
 153 00ed CE7DD4DB 		.ascii	"\316}\324\333t\370\006L\015A="
 153      74F8064C 
 153      0D413D
 154              		.text
 155              		.section	.gnu.lto_put.196e7101741f228,"",%progbits
 156 0000 789C5D50 		.ascii	"x\234]P=K\304@\024\234\331Mr\226\266ZY+\270\210\177"
 156      3D4BC440 
 156      149CD94D 
 156      7296B65A 
 156      592BB888 
 157 0015 E5042D73 		.ascii	"\345\004-s{!Y\356#\220\250\240W\\\374@,,\256\260\020"
 157      7B2159EE 
 157      2390A8A0 
 157      575CFC40 
 157      2C2CAEB0 
 158 002a ADACECB4 		.ascii	"\255\254\354\264\360\017\\e\247b+W\370;\256\211os(\342"
 158      F00F5C65 
 158      A7622B57 
 158      F83BAE89 
 158      6F7328E2 
 159 003e 83796F8A 		.ascii	"\203yo\212\231\331a\025\024\376\317\212\340S\260-\240"
 159      99D96115 
 159      14FECF8A 
 159      E053B02D 
 159      A0
 160 004f 06D5E40D 		.ascii	"\006\325\344\0158YR\244' \306\212\343=6\332'5\375\252"
 160      385952A4 
 160      2720C68A 
 160      E33D36DA 
 160      2735FDAA 
 161 0063 EBC7EB97 		.ascii	"\353\307\353\227\207\031oT\213\034P\022\035\021\010"
 161      87196F54 
 161      8B1C5012 
ARM GAS  /tmp/ccRNm400.s 			page 12


 161      1D1108
 162 0072 6324CCEB 		.ascii	"c$\314\353B\234W\325d\015\260\215\253-\333G\355P\371"
 162      429C57D5 
 162      640DB08D 
 162      AB2DDB47 
 162      ED50F9
 163 0085 AB5F713A 		.ascii	"\253_q:?{\276Z\215y\317\020)\325\010\307\022\261\201"
 163      3F7BBE5A 
 163      8D79CF10 
 163      29D508C7 
 163      12B181
 164 0098 75477587 		.ascii	"uGu\207[:\352\224\334\225\0334\257v\370\247\356;.\246"
 164      5B3AEA94 
 164      DC951B34 
 164      AF76F8A7 
 164      EE3B2EA6 
 165 00ac FAC71A8D 		.ascii	"\372\307\032\2150\257.\253e\307\320r\241\222\274\224"
 165      30AF2EAB 
 165      65C7D072 
 165      A192BC94 
 166 00bc 81374775 		.ascii	"\2017Gu\255\245Q\013\370\000\177\035\213\224\266\250"
 166      ADA5510B 
 166      F8007F1D 
 166      8B94B6A8 
 167 00cc A58BFF8D 		.ascii	"\245\213\377\215-\223\345\203\304\330\274{d\272\311"
 167      2D93E583 
 167      C4D8BC7B 
 167      64BAC9
 168 00db A1B199EB 		.ascii	"\241\261\231\353\270\2744\373\305\301\260g\204dq\337"
 168      B8BC34FB 
 168      C5C1B067 
 168      846471DF 
 169 00eb 94853565 		.ascii	"\224\2055eR\270\270\277i\361\015\320\243B\177"
 169      52B8B8BF 
 169      69F10DD0 
 169      A3427F
 170              		.text
 171              		.section	.gnu.lto_sdInit.196e7101741f228,"",%progbits
 172 0000 789C6362 		.ascii	"x\234cb`b@\007\222@\\\003\304\306@\314\310\314\300\310"
 172      60624007 
 172      92405C03 
 172      C4C640CC 
 172      C8CCC0C8 
 173 0014 34E11C03 		.ascii	"4\341\034\003C#\007\023##\210\301\300\310P\317\304X"
 173      43230713 
 173      232388C1 
 173      C0C850CF 
 173      C458
 174 0026 1FC90856 		.ascii	"\037\311\010V\273\236\351\300\203\377\377\327]8>u\017"
 174      BB9EE9C0 
 174      83FFFFD7 
 174      5D383E75 
 174      0F
 175 0037 E33C2666 		.ascii	"\343<&f\240\010+CKC\303\004\005\006\206d\260\212\020"
 175      A0082B43 
 175      4B43C304 
 175      05068664 
ARM GAS  /tmp/ccRNm400.s 			page 13


 175      B08A10
 176 004a 2009D216 		.ascii	" \011\322\026\312\310\004\242\231\31734?xu\230=\221"
 176      CAC804A2 
 176      99CF3334 
 176      3F787598 
 176      3D91
 177 005c 7121232B 		.ascii	"q!#+P\272\232\341WCG\203@&#P9\304\304L\020}\221\241"
 177      50BA9AE1 
 177      57434783 
 177      40262350 
 177      39C4C44C 
 178 0074 F1C16B65 		.ascii	"\361\301ke\230\"\010\010\001J\000M\000\271\327P?#?7"
 178      98220808 
 178      014A004D 
 178      00B9D750 
 178      3F233F37 
 179 0088 553F393F 		.ascii	"U?9?\245R?%\265L?9#3)3\277X\277\244\2504/[\037\310\310"
 179      A5523F25 
 179      B54C3F39 
 179      23332933 
 179      BF58BFA4 
 180 00a3 48CCD12F 		.ascii	"H\314\321/.J\326/N-\312L\314\321Kf\000\000\376\2125"
 180      2E4AD62F 
 180      4E2DCA4C 
 180      CCD14B66 
 180      0000FE8A 
 181 00b8 34       		.ascii	"4"
 182              		.text
 183              		.section	.gnu.lto_sdObjectInit.196e7101741f228,"",%progbits
 184 0000 789C8D52 		.ascii	"x\234\215R\277K#A\024~o6\233lLrF8\360\016Dll\0242\034"
 184      BF4B2341 
 184      147E6F36 
 184      9B6C4C72 
 184      4638F00E 
 185 001a 0776FE17 		.ascii	"\007v\376\027\012Z\306\311\222\035\314\017\310F\017"
 185      0A5AC6C9 
 185      921DCC0F 
 185      C8460F
 186 0029 CFC28D67 		.ascii	"\317\302\215g!\026b\021D\214\010\226^q\327\012\026z"
 186      21166211 
 186      448C0896 
 186      5E71D70A 
 186      167A
 187 003b B5E86129 		.ascii	"\265\350a)Z\244\023A\264\262I\243of\222\210\262\247"
 187      5AA41341 
 187      B4B249A3 
 187      6F669288 
 187      B2A7
 188 004d F760E7BD 		.ascii	"\367`\347\275\331\235\357{\337\367v\0300x\035\237\351"
 188      D99DEF7B 
 188      DFF77618 
 188      30781D9F 
 188      E9
 189 005e 895A00BB 		.ascii	"\211Z\000\273\224\321\002d\033g\0005\207!\252\002\020"
 189      94D10264 
 189      1B670035 
 189      8721AA02 
ARM GAS  /tmp/ccRNm400.s 			page 14


 189      10
 190 006f 96182E4D 		.ascii	"\226\030.M\243>\373\233\0357\037\037\177m\255\235\375"
 190      A33EFB9B 
 190      1D371F1F 
 190      7F6DAD9D 
 190      FD
 191 0080 C1C6709A 		.ascii	"\301\306p\232a\021!\002\022!F\013:\264\2608\275\303"
 191      61112102 
 191      1221460B 
 191      3AB4B038 
 191      BDC3
 192 0092 04555652 		.ascii	"\004UVRmS\264U=mX\011\202\215!\000\241\231&hU\364\223"
 192      6D53B455 
 192      3D6D5809 
 192      828D2100 
 192      A1992668 
 193 00a9 F491B275 		.ascii	"\364\221\262u\012\313\255\037\207\365\201,\356\241\015"
 193      0ACBAD1F 
 193      87F5812C 
 193      EEA10D
 194 00b8 A3F033A0 		.ascii	"\243\3603\240HI\2144`\033%\332ydS\224\243Z\305\214\021"
 194      48498C34 
 194      601B25DA 
 194      79645394 
 194      A35AC58C 
 195 00cd 038BD00A 		.ascii	"\003\213\320\012\266\202`\234\216\025I\271\012\315s"
 195      B682609C 
 195      8E1549B9 
 195      0ACD73
 196 00dc 54CF189E 		.ascii	"T\317\030\236<F\026\341;\311k\023~\223\030\013'\304"
 196      3C4616E1 
 196      3BC96B13 
 196      7E93180B 
 196      27C4
 197 00ee E77910C5 		.ascii	"\347y\020\305\311\316\345\335\262\335\225l\212\343\373"
 197      C9CEE5DD 
 197      B2DD956C 
 197      8AE3FB
 198 00fd F5DBFE3D 		.ascii	"\365\333\376=\033\300p\013\2031\314\315\213\207\315"
 198      1BC0700B 
 198      8331CCCD 
 198      8B87CD
 199 010c A84487C8 		.ascii	"\250D\207\310kA\220\2466m~\232\216\346g\012\266O0\245"
 199      6B4190A6 
 199      366D7E9A 
 199      8EE6670A 
 199      B64F30A5 
 200 0120 49F738B8 		.ascii	"I\3678\270j\326\007_\333\215\207\2533\336\324\2338v"
 200      6AD6075F 
 200      DB8D87AB 
 200      33DED49B 
 200      3876
 201 0132 4C5ED7AD 		.ascii	"L^\327\255\216\311\2306\211\2430\"\261'\234!\362\302"
 201      8EC99836 
 201      89A33022 
 201      B1279C21 
 201      F2C2
ARM GAS  /tmp/ccRNm400.s 			page 15


 202 0144 5FAB0B75 		.ascii	"_\253\013u4\224ih\"\034j?C\377\302'\0034\263_UN\223"
 202      34946968 
 202      221C6A3F 
 202      43FFC227 
 202      0334B35F 
 203 015b 02CD9DCA 		.ascii	"\002\315\235\312+\323\216B\246\322\264\211\023\215\304"
 203      2BD38E42 
 203      A6D2B489 
 203      138DC4
 204 016a 0F6DB537 		.ascii	"\017m\2657\037;\035\023\272\243\245;\366\206w\214\376"
 204      1F3B1D13 
 204      BAA3A53B 
 204      F686778C 
 204      FE
 205 017b 436CF27D 		.ascii	"Cl\362}\261\261\267\305\246E{\226\244\203\370\272bS"
 205      B1B1B7C5 
 205      A6457B96 
 205      A483F8BA 
 205      6253
 206 018d 5A6C1FC0 		.ascii	"Zl\037\3009\324\232\215\341\016\316\304\004\375i\272"
 206      39D49A8D 
 206      E10ECEC4 
 206      04FD69BA 
 207 019d A3CAE517 		.ascii	"\243\312\345\027\356\225\213.\027\345\334\002\317\271"
 207      EE958B2E 
 207      17E5DC02 
 207      CFB9
 208 01ab F35C7872 		.ascii	"\363\\xrF\226}^\255\314\225f9\025^\266\300\375\212\340"
 208      46967D5E 
 208      ADCC9566 
 208      39155EB6 
 208      C0FD8AE0 
 209 01bf BE5B91D9 		.ascii	"\276[\221\331BF\300\330{\210J\225\313\222(\314\345\350"
 209      4246C0D8 
 209      7B884A95 
 209      CB9228CC 
 209      E5E8
 210 01d1 90E7CEBB 		.ascii	"\220\347\316\273\245\252\237\361\340\353\3774*\373\264"
 210      A5AA9FF1 
 210      E0EBFF34 
 210      2AFBB4
 211 01e0 105E65C2 		.ascii	"\020^e\302<\001\231\236\326\276"
 211      3C01999E 
 211      D6BE
 212              		.text
 213              		.section	.gnu.lto_sdStart.196e7101741f228,"",%progbits
 214 0000 789C8D50 		.ascii	"x\234\215P\275K\303@\024\177\357\222X\021\204\216\272"
 214      BD4BC340 
 214      147FEF92 
 214      5811848E 
 214      BA
 215 0011 942C4E4A 		.ascii	"\224,NJO\377\203\202 8t\261\012:Iz\015\315a\323H\322"
 215      4FFF8382 
 215      203874B1 
 215      0A3A497A 
 215      0DCD61D3 
 216 0027 8845A169 		.ascii	"\210E\241iQ\321\255\210\203\3701\010\202 bW'q\026\254"
ARM GAS  /tmp/ccRNm400.s 			page 16


 216      51D1AD88 
 216      83F83108 
 216      82206257 
 216      277116AC 
 217 003b 38898B88 		.ascii	"8\211\213\210\256\016\355&.\365.\251E\\\364\340\356"
 217      AE0EED26 
 217      2EF52EA9 
 217      455CF4E0 
 217      EE
 218 004c 3D78BFAF 		.ascii	"=x\277\257{\004\010\374>\303\342\332\010P\027\025\025"
 218      7B0408FC 
 218      3EC3E2DA 
 218      08501715 
 218      15
 219 005d 40526F02 		.ascii	"@Ro\002T\373\011\242l\000\241B\260\262\200!\266An^:"
 219      54FB09A2 
 219      6C00A142 
 219      B0B28021 
 219      B6416E5E 
 220 0072 9DCBE7DB 		.ascii	"\235\313\347\333\353#\274 \003\012\012\242*\0369\325"
 220      EB23BC20 
 220      030A0AA2 
 220      2A1E39D5 
 221 0082 602308EA 		.ascii	"`#\010\352:\000\013\261\263RR\010\314!\221UiB\255\375"
 221      3A000BB1 
 221      B3525208 
 221      CC219155 
 221      6942ADFD 
 222 0096 BEF736D4 		.ascii	"\276\3676\324\203\031x\202\032\204\016\010\276\"\223"
 222      83197882 
 222      1A840E08 
 222      BE2293
 223 00a5 2951BC04 		.ascii	")Q\274\004l\341q\260\237\342\221\351<rD]v\275\371Nw"
 223      6CE171B0 
 223      9FE291E9 
 223      3C72445D 
 223      76BDF94E 
 224 00ba DEFDCD3D 		.ascii	"\336\375\315=l\266^\037\327\277\025\327\3403\330\016"
 224      6CB65E1F 
 224      D7BF15D7 
 224      E033D80E 
 225 00ca E21C1586 		.ascii	"\342\034\025\206\221D\036\225<\252\034U\200;\250]}4"
 225      91441E95 
 225      3CAA1C55 
 225      803BA85D 
 225      7D34
 226 00dc DA188147 		.ascii	"\332\030\201G\341<\020g\220\243v\010\007\302\250O@\245"
 226      E13C1067 
 226      90A37608 
 226      07C2A84F 
 226      40A5
 227 00ee 612CE465 		.ascii	"a,\344e#z\030A\223f\377\371\205\201\247b\217aj\370\221"
 227      237A1841 
 227      9366FFF9 
 227      8581A762 
 227      8F616AF8 
 228 0103 DAC0334C 		.ascii	"\332\3003LDr\017Pm\355>\251=.D\013C\271(\211\235\240"
ARM GAS  /tmp/ccRNm400.s 			page 17


 228      44720F50 
 228      6DED3EA9 
 228      3D2E440B 
 228      43B92889 
 229 0119 96639B94 		.ascii	"\226c\233\2249\2712\315\231+\224Y<\313\035\217\226\\"
 229      39B932CD 
 229      992B9459 
 229      3CCB1D8F 
 229      965C
 230 012b BFB84445 		.ascii	"\277\270DEc\031\005\352\271\214z\246\313\215B\222A\352"
 230      631905EA 
 230      B98C7AA6 
 230      CB8D4292 
 230      41EA
 231 013d 2F86B95A 		.ascii	"/\206\271Z\242\223\351\314t\206\362\"+\3709\211u\315"
 231      A293E9CC 
 231      7486F222 
 231      2BF83989 
 231      75CD
 232 014f 45664FF9 		.ascii	"EfO\371E\226\264 \236\316\314\350Y\3033\227]>\246\217"
 232      4596B420 
 232      9ECECCE8 
 232      59C33397 
 232      5D3EA68F 
 233 0163 8C037121 		.ascii	"\214\003q!f\233\266\343\226\341\013\\\237\177t"
 233      669BB6E3 
 233      96E10B5C 
 233      9F7F74
 234              		.text
 235              		.section	.gnu.lto_sdStop.196e7101741f228,"",%progbits
 236 0000 789C8D92 		.ascii	"x\234\215\222\315k\324@\030\306\337g\322\354\246j\355"
 236      CD6BD440 
 236      18C6DF67 
 236      D2ECA66A 
 236      ED
 237 0011 7A522F65 		.ascii	"zR/e/^\\\351(\376\003\005A\360\320K\267B=Iv6t\207n6"
 237      2F5E5CE9 
 237      28FE0305 
 237      41F0D04B 
 237      B7423D49 
 238 002b 92EC4A6B 		.ascii	"\222\354Jk\205\246\037H\245\036\212\010J\265\007\241"
 238      85A61F48 
 238      A51E8A08 
 238      4AB507A1 
 239 003b 222A5810 		.ascii	"\"*X\020\301\212\227\"\336\244-\376\001\242\340\325"
 239      C18A9722 
 239      DEA42DFE 
 239      01A2E0D5 
 240 004b C37A127A 		.ascii	"\303z\022z\251\363\321\215E\213v 3o2\317\373\376\336"
 240      A9F3D18D 
 240      458B7620 
 240      336F32CF 
 240      FBFEDE
 241 005e 99278C18 		.ascii	"\231'\214\030\3759N\252\347\246\372\374A\255p\010lq"
 241      FD394EAA 
 241      E7A6FAFC 
 241      41AD7008 
ARM GAS  /tmp/ccRNm400.s 			page 18


 241      6C71
 242 0070 9368DA63 		.ascii	"\223h\332c\200\016\0104\3050u\005F\273\312\326\277\356"
 242      800E0834 
 242      C5307505 
 242      46BBCAD6 
 242      BFEE
 243 0082 ECBC5C5B 		.ascii	"\354\274\\[Xy\204U\326\353 \004\345H\202<5i\211Ksi\272"
 243      58798455 
 243      D6EB2004 
 243      E548823C 
 243      3569894B 
 244 0099 58241226 		.ascii	"X$\022&aX\315\272\312e0\275:\2334\363\343\373\275o'"
 244      6158CDBA 
 244      CA6530BD 
 244      3A9B34F3 
 244      E3FBBD6F 
 245 00ae 32998FC7 		.ascii	"2\231\217\307p\311`@-G\267\347\330\036\373\350\026\226"
 245      70C96040 
 245      2D47B7E7 
 245      D81EFBE8 
 245      1696
 246 00c0 D3070312 		.ascii	"\323\007\003\022\346u\004\022NQG\331\376\355\335\375"
 246      E6750412 
 246      4E5147D9 
 246      FEEDDDFD 
 247 00d0 2E7B8E2D 		.ascii	".{\216-\232k\277\372<\336\2518I\333\351|Z\220p\005l"
 247      9A6BBFFA 
 247      3CDEA938 
 247      49DBE97C 
 247      5A907005 
 248 00e5 F3A37024 		.ascii	"\363\243p$rD\0334\2636\377\016VX\242\347\251\032=\022"
 248      72441B34 
 248      B336FF0E 
 248      5658A2E7 
 248      A91A3D12 
 249 00f9 F987B4A4 		.ascii	"\371\207\264\244 \236\222iX\267\311\251\330T\203\317"
 249      209E9269 
 249      58B7C9A9 
 249      D85483CF 
 250 0109 EB58256F 		.ascii	"\353X%o\317\276\271\357\330\354Q\344&\351\206:\177\211"
 250      CFBEB9EF 
 250      D8EC51E4 
 250      26E9863A 
 250      7F89
 251 011b 4E4B1CDA 		.ascii	"NK\034\332\277\002~\337\365\026u\375\325\337aaO\250"
 251      BF027EDF 
 251      F51675FD 
 251      D5DF6161 
 251      4FA8
 252 012d 8B491CD9 		.ascii	"\213I\034\331E\274=\336!x\206\000C\350\331\237\300\376"
 252      45BC3DDE 
 252      21788600 
 252      43E8D99F 
 252      C0FE
 253 013f 4D382A94 		.ascii	"M8*\224\257\226\340I\364j\321l\373\331\223\027wJ\231"
 253      AF96E049 
 253      F46AD16C 
ARM GAS  /tmp/ccRNm400.s 			page 19


 253      FBD99317 
 253      774A99
 254 0152 0F3658FF 		.ascii	"\0176X\377\370\363\275\3331Et.6\253S\020p}\274\266\206"
 254      F8F3BDDB 
 254      3145742E 
 254      36AB5310 
 254      707DBCB6 
 255 0167 491C233A 		.ascii	"I\034#:\210\237>V\024\336\370G{\374\363\361\024}\026"
 255      889F3E56 
 255      14DEF847 
 255      7BFCF3F1 
 255      147D16
 256 017a F089A6DB 		.ascii	"\360\211\246\333w\277d}\3331\254\356M\3752Z{\216\327"
 256      77BF647D 
 256      DB31ACEE 
 256      4DFD325A 
 256      7B8ED7
 257 018d A230E022 		.ascii	"\2420\340\"\252N\360jp\235\213\232\254\310(\341\315"
 257      AA4EF06A 
 257      709D8B9A 
 257      ACC828E1 
 257      CD
 258 019e B8D518E3 		.ascii	"\270\325\030\343*\250\371u\236\304\202'A,\375z\277\240"
 258      2AA8F975 
 258      9EC48227 
 258      412CFD7A 
 258      BFA0
 259 01b0 81FF6504 		.ascii	"\201\377e\004\343M~a\260|\251\314eC\324[U\255\215\203"
 259      E34D7E61 
 259      B07CA9CC 
 259      6543D45B 
 259      55AD8D83 
 260 01c4 AB22BCD8 		.ascii	"\253\"\274\330j\210\376\032\025\006\313C\305\212\237"
 260      6A88FE1A 
 260      1506CB43 
 260      C58A9F
 261 01d3 04D76279 		.ascii	"\004\327by\246x\352,\261\230\362a\020F\361\004\235?"
 261      A678EA2C 
 261      B198F261 
 261      1046F104 
 261      9D3F
 262 01e5 483B51A2 		.ascii	"H;Q\242\246\270iVU\357\0272\214\306\341"
 262      A6B86956 
 262      55EF1732 
 262      8CC6E1
 263              		.text
 264              		.section	.gnu.lto_sdIncomingDataI.196e7101741f228,"",%progbits
 265 0000 789CAD52 		.ascii	"x\234\255R=K\003A\020\235\331\275\335\\\314)\026\222"
 265      3D4B0341 
 265      109DD9BD 
 265      DD5CCC29 
 265      1692
 266 0012 DA4E50F0 		.ascii	"\332NP\360\020\013K\177\200\245\006\264L.!9L\014$*\250"
 266      100B4B7F 
 266      80A506B4 
 266      4C2E2139 
 266      4C0C242A 
ARM GAS  /tmp/ccRNm400.s 			page 20


 267 0027 85173F40 		.ascii	"\205\027?@,\304V%\205X\244P\024-,\304\302\302B\360\013"
 267      2CC45625 
 267      8558A450 
 267      142D2CC4 
 267      C2C242F0 
 268 003c 21F63662 		.ascii	"!\3666bc!6J\032\235\335\363b\024A\013\027nfx\263\363"
 268      6321364A 
 268      1A9DDDF3 
 268      6214410B 
 268      176E6678 
 269 0052 F6CDE318 		.ascii	"\366\315\343\0300\370~\006\350[&8M\031C\200l\365\012"
 269      30F87E06 
 269      E85B2638 
 269      4D194380 
 269      6CF50A
 270 0065 A06432C6 		.ascii	"\240d2\306\253Q\360\232\214\343>\360,\216\206\017\033"
 270      AB51F09A 
 270      8CE33EF0 
 270      2C8E860F 
 270      1B
 271 0076 4CBCB410 		.ascii	"L\274\264\020,\327\372\011\026(}X\"\252\002\020f\031"
 271      2CD7FA09 
 271      16287D58 
 271      22AA0210 
 271      6619
 272 0088 3784C4D9 		.ascii	"7\204\304\331\021\324\354{\354\344\356\355m\367p\345"
 272      11D4EC7B 
 272      ECE4EEED 
 272      6DF770E5 
 273 0098 F0028F58 		.ascii	"\360\002\217X+\307\034\202\000\027AR@\223\002\013\023"
 273      2BC71C82 
 273      00174152 
 273      4093020B 
 273      13
 274 00a9 8611AAB8 		.ascii	"\206\021\252\270\2450\032\022\260\340y\253\355\000\216"
 274      A5301A12 
 274      B0E079AB 
 274      ED008E
 275 00b8 2619A2A8 		.ascii	"&\031\242\250\330c\310T\346\2270w\264\270U\016\221f"
 275      D863C854 
 275      E6973077 
 275      B4B8550E 
 275      9166
 276 00ca 141BB08E 		.ascii	"\024\033\260\216.\032i\344\303\224Y\233\277\324\031"
 276      2E1A69E4 
 276      C394599B 
 276      BFD419
 277 00d9 9C3E949A 		.ascii	"\234>\224\232\343\270\211B]R-\243q\351\030r\250F\025"
 277      E3B88942 
 277      5D522DA3 
 277      71E91872 
 277      A84615
 278 00ec 536DBE52 		.ascii	"Sm\276R\026\301E9\003\323$\241\013:\335\200Y~0\207\364"
 278      16C14539 
 278      03D324A1 
 278      0B3ADD80 
 278      597E3087 
ARM GAS  /tmp/ccRNm400.s 			page 21


 279 0101 5C021B48 		.ascii	"\\\002\033H\256a\361\351\361\340\371\225\325\365\372"
 279      AE61F1E9 
 279      F1E0F995 
 279      D5F5FA
 280 0110 C5C97975 		.ascii	"\305\311yu\020\300\347t\360cb\006j\336\222\327\352\242"
 280      10C0E774 
 280      F0636206 
 280      6ADE92D7 
 280      EAA2
 281 0122 E9208B63 		.ascii	"\351 \213c\205z\240\026\220\212<l\320\346M\2014#\330"
 281      857AA016 
 281      908A3C6C 
 281      D0E64D81 
 281      3423D8
 282 0135 B236BF5D 		.ascii	"\2626\277]\016\005\332L\255\215im\221\237\265a\243\266"
 282      0E05DA4C 
 282      AD8D696D 
 282      919FB561 
 282      A3B6
 283 0147 FA5291FA 		.ascii	"\372R\221\372\323\226Ck\373\317\232i\014\273\330\254"
 283      D396436B 
 283      FBCF9A69 
 283      0CBBD8AC 
 284 0157 9DBAFF74 		.ascii	"\235\272\377t*\242\350\370W\247\004\274\264\370j\366"
 284      2AA2E8F8 
 284      57A704BC 
 284      B4F86AF6 
 285 0167 3E9DB2FE 		.ascii	">\235\262\376\311\251\333_\235\332\017\234\262\264S"
 285      C9A9DB5F 
 285      9DDA0F9C 
 285      B2B453
 286 0176 1E365A25 		.ascii	"\0366Z%\265U7P\272\333\351\360i\2023Dt\324S\377{\217"
 286      B5553750 
 286      BADBE9F0 
 286      69823344 
 286      74D453FF 
 287 018c 9DC9E752 		.ascii	"\235\311\347R\266\223ON\331\311\324\244\355d\334\204"
 287      B6934F4E 
 287      D9C9D4A4 
 287      ED64DC84 
 288 019c 9B2FDAE3 		.ascii	"\233/\332\343\205\211\261Q\233\212L<k\027\013\216]L"
 288      8589B151 
 288      9B8A4C3C 
 288      6B170B8E 
 288      5D4C
 289 01ae 15DC78B6 		.ascii	"\025\334x\266\333\201\336\277L\344\213\024\012\343:"
 289      DB81DEBF 
 289      4CE48B14 
 289      0AE33A
 290 01bd 7767E01D 		.ascii	"wg\340\035\366\300\266\260"
 290      F6C0B6B0 
 291              		.text
 292              		.section	.gnu.lto_sdRequestDataI.196e7101741f228,"",%progbits
 293 0000 789C8D91 		.ascii	"x\234\215\221OK[A\024\305\317\231y\311\213\251\015\202"
 293      4F4B5B41 
 293      14C5CF99 
 293      79C98BA9 
ARM GAS  /tmp/ccRNm400.s 			page 22


 293      0D82
 294 0012 5F405CB6 		.ascii	"_@\\\266\340\303?\373~\210*\264\313\344\031\222\241"
 294      E0C33FFB 
 294      7E882AB4 
 294      CBE41992 
 294      A1
 295 0023 6A208982 		.ascii	"j \211\202f\341\263M\241\273f\233\026\202\301\255 t"
 295      66E1B34D 
 295      A1BB669B 
 295      1682C1AD 
 295      2074
 296 0035 D75D0A15 		.ascii	"\327]\012\025\012E\213\333R4\210nc\251\213\264AH\357"
 296      0A458BDB 
 296      5234886E 
 296      63A98BB4 
 296      4148EF
 297 0048 BC674294 		.ascii	"\274gB\224.:0sg\346\316=\367w\357((\334\037s2\277\023"
 297      2E3A3073 
 297      67E6CE3D 
 297      F777EF28 
 297      28DC1F73 
 298 005f 30621903 		.ascii	"0b\031\003U\355\030\330I(\245\273)\004I\247\376\004"
 298      55ED18D8 
 298      4928A5BB 
 298      290449A7 
 298      FE04
 299 0071 C1B8A613 		.ascii	"\301\270\246\023];\244\335\200\330V\332\341\366sZ\015"
 299      5D3BA4DD 
 299      80D856DA 
 299      E1F6735A 
 299      0D
 300 0082 4EA31904 		.ascii	"N\243\031\004\265\366\341\365\011\353A\253\272\033\334"
 300      B5F6E1F5 
 300      09EB41AB 
 300      BA1BDC
 301 0091 F4FBA4A1 		.ascii	"\364\373\244\241\344[ |\342\231\0348\025\032\345\334"
 301      E45B207C 
 301      E2991C38 
 301      151AE5DC 
 302 00a1 053850AD 		.ascii	"\0058P\255v\277\377\343\317\305\371\031'\223\212\253"
 302      76BFFFE3 
 302      CFC5F919 
 302      27938AAB 
 303 00b1 8486A18E 		.ascii	"\204\206\241\216#\315\246(\273r\260!1T%\307Tt\011+*"
 303      23CDA628 
 303      BB72B021 
 303      315425C7 
 303      5474092B 
 304 00c6 6351560B 		.ascii	"cQV\013\264De\255>\302\313\336\253\253\206\233\346\236"
 304      B44465AD 
 304      3EC2CBDE 
 304      ABAB869B 
 304      E69E
 305 00d8 1493A3AE 		.ascii	"\024\223\243\256`K\264\036\343\221a\354=\336I\376x\216"
 305      604BB41E 
 305      E39161EC 
 305      3DDE49FE 
ARM GAS  /tmp/ccRNm400.s 			page 23


 305      788E
 306 00ea CA72B861 		.ascii	"\312r\270a\366\014GP\276\241\332\212\015B\343\025\364"
 306      F60C4750 
 306      BEA1DA8A 
 306      0D42E315 
 306      F4
 307 00fb 8237C184 		.ascii	"\2027\301\204a\302g\364J\364\014\307\200/\370|\371\351"
 307      61C267F4 
 307      4AF40CC7 
 307      802FF87C 
 307      F9E9
 308 010d E35B3D7C 		.ascii	"\343[=|j\365\222\243E-Q\243\233\212p\272\215\241\246"
 308      6AF592A3 
 308      452D51A3 
 308      9B8A70BA 
 308      8DA1A6
 309 0120 1BE23821 		.ascii	"\033\3428!\316\203\177\343p\024\347\365\317\316\207"
 309      CE837FE3 
 309      7014E7F5 
 309      CFCE87
 310 012f 5FBFD56D 		.ascii	"_\277\325m\351\203\036\264\276v\236\002\221\246\317"
 310      E9831EB4 
 310      BE769E02 
 310      91A6CF
 311 013e DB2F1DD2 		.ascii	"\333/\035\322\216\373\024\260}\361\205\304\256\025\177"
 311      8EFB14B0 
 311      7DF185C4 
 311      AE157F
 312 014d 989026A6 		.ascii	"\230\220&\246\006hN\330\252\023\354\264Os\303\022\""
 312      06684ED8 
 312      AA13ECB4 
 312      4F73C312 
 312      22
 313 015e E7A2E417 		.ascii	"\347\242\344\027\247\325\234\365\362\205\325\254\347"
 313      A7D59CF5 
 313      F285D5AC 
 313      E7
 314 016b 179637BD 		.ascii	"\027\2267\275\345\354\206\347\347M\306\024J^\271\270"
 314      E5EC86E7 
 314      E74DC614 
 314      4A5EB9B8 
 315 017b BEF6C293 		.ascii	"\276\366\302\223M>\275\342\225\212\276W\312\026Mze\306"
 315      4D3EBDE2 
 315      958ABE57 
 315      CA164D7A 
 315      65C6
 316 018d 0733F3FF 		.ascii	"\0073\363\377\023S(\311R,\207v&\217\277\341\321\226"
 316      135328C9 
 316      522C8776 
 316      268FBFE1 
 316      D196
 317 019f 15       		.ascii	"\025"
 318              		.text
 319              		.section	.gnu.lto_.symbol_nodes.196e7101741f228,"",%progbits
 320 0000 789C4DCB 		.ascii	"x\234M\313IJCA\020\306\361\372\2723\232\3672\317\211"
 320      494A4341 
 320      10C6F1FA 
ARM GAS  /tmp/ccRNm400.s 			page 24


 320      BA339AF7 
 320      32CF89
 321 0013 B8F3429E 		.ascii	"\270\363B\236\300\223|\201\200\350\316\003\210\233l"
 321      C0937C81 
 321      80E8CE03 
 321      889B6C
 322 0022 BC87E06C 		.ascii	"\274\207\340l\234\215#$F\321\205Wpztcum\376\374\250"
 322      9C8D2324 
 322      46D18557 
 322      707A7463 
 322      756DFEFC 
 323 0037 2A234656 		.ascii	"*#FV\214\2701cPds,Bnm\254\232\003\020\001OA\023p\037"
 323      8CB83163 
 323      5064732C 
 323      426E6DAC 
 323      9A031001 
 324 0050 B4014FC0 		.ascii	"\264\001O\300T\300#0\035\360\030\314\004<\004\263\001"
 324      54C02330 
 324      1DF018CC 
 324      043C04B3 
 324      01
 325 0061 CFC19CE7 		.ascii	"\317\301\234\347\366:\314\005\230W\246\317 )Zs\011."
 325      F63ACC05 
 325      9857A6CF 
 325      20295A73 
 325      092E
 326 0073 04475760 		.ascii	"\004GW`!\3405\030\005\274\001c%\356\301\242\343`\000"
 326      21E03518 
 326      05BC0163 
 326      25EEC1A2 
 326      E36000
 327 0086 3C8025D5 		.ascii	"<\200%\325#XV=\201\025\325-XU\335\2015\325\004\254\253"
 327      2358563D 
 327      8115D52D 
 327      5855DD81 
 327      35D504AC 
 328 009b 9EC186EA 		.ascii	"\236\301\206\352\025l\252^\300\226j\006\266US\260\243"
 328      156CAA5E 
 328      C0966A06 
 328      B65553B0 
 328      A3
 329 00ac 7A07BBAA 		.ascii	"z\007\273\2527\260\247\372\000\373\377\262R\222\321"
 329      37B0A7FA 
 329      00FBFFB2 
 329      5292D1
 330 00bb F41B16BE 		.ascii	"\364\033\026\276\246\354j}S\025\327\264o\246\352\232"
 330      A6EC6A7D 
 330      5315D7B4 
 330      6FA6EA9A 
 331 00cb F5CDD564 		.ascii	"\365\315\325d\2304\337\220\335Y\322\272\214\326>\227"
 331      9834DF90 
 331      DD59D2BA 
 331      8CD63E97 
 332 00db 6CA1E9F6 		.ascii	"l\241\351\366Q\327\267#\303d\037\265\335]\324\222y\322"
 332      51D7B723 
 332      C3641FB5 
 332      DD5DD492 
ARM GAS  /tmp/ccRNm400.s 			page 25


 332      79D2
 333 00ed B827F39D 		.ascii	"\270'\363\235e\033\367e\3449\334\3731\266\270\350\336"
 333      651BF765 
 333      E439DCFB 
 333      31B6B8E8 
 333      DE
 334 00fe 8A7FFE6A 		.ascii	"\212\177\376j\311/\270\177\276\306"
 334      C92FB87F 
 334      BEC6
 335              		.text
 336              		.section	.gnu.lto_.refs.196e7101741f228,"",%progbits
 337 0000 789C25C1 		.ascii	"x\234%\301G\001\000 \000\004\240\023\267\005\354\337"
 337      47010020 
 337      0004A013 
 337      B705ECDF 
 338 0010 D4872072 		.ascii	"\324\207 r\363\225\355\254\243*\246nhH\036\010C\000"
 338      F395EDAC 
 338      A32AA66E 
 338      68481E08 
 338      4300
 339 0022 70       		.ascii	"p"
 340              		.text
 341              		.section	.gnu.lto_.decls.196e7101741f228,"",%progbits
 342 0000 789CBD5C 		.ascii	"x\234\275\\\013p\024\325\232\356\356\231\311\203\304"
 342      0B7014D5 
 342      9AEEEE99 
 342      C983C4
 343 000f 80E8BA58 		.ascii	"\200\350\272X\327-sw\275[\256\273\032^zq\253\256\242"
 343      D72D7377 
 343      BD5BAEBB 
 343      1A5E7A71 
 343      ABAEA2
 344 0022 C002552A 		.ascii	"\300\002U*H\360\356Zw\267\306&i`4\311\204\231\016\340"
 344      48F0EE5A 
 344      77B7C626 
 344      696034C9 
 344      84990EE0 
 345 0036 BAB53621 		.ascii	"\272\2656!\204\227`\022\340& o\310\362\020\011 \310"
 345      84976012 
 345      E026206F 
 345      C8F21009 
 345      20C8
 346 0048 431E0385 		.ascii	"C\036\003\205$\020\011\201\020\336\222\000\202\027X"
 346      24100981 
 346      10DE9200 
 346      821758
 347 0057 2C20BC5F 		.ascii	", \274_\331\377\374}z\246\373\244\273\247;\367\272S"
 347      D9FFFC7D 
 347      7AA6FBA4 
 347      BBA73BF7 
 347      BA53
 348 0069 754E9FEE 		.ascii	"uN\237\356>\377w\376\327\371\317\253\023\201\023\270"
 348      3EFF77FE 
 348      D7F9CFAB 
 348      138113B8 
 349 0079 D4048E6B 		.ascii	"\324\004\216k\205_\321\373\034\367O\311\034\327\221"
 349      855FD1FB 
ARM GAS  /tmp/ccRNm400.s 			page 26


 349      1CF74FC9 
 349      1CD791
 350 0088 E3B8D720 		.ascii	"\343\270\327 %BZ\004\311\003\311\317s\\\177H\303 \345"
 350      25425A04 
 350      C903C9CF 
 350      735C7F48 
 350      C320E5
 351 009b 422A8444 		.ascii	"B*\204D~\177\003i2\224\027CZ\005i\013\244\335\220\366"
 351      7E7F0369 
 351      32941743 
 351      5A05690B 
 351      A4DD90F6 
 352 00af 436A8074 		.ascii	"Cj\200t\032\322\005H\227\010\275\0008\220$H\271\220"
 352      1AD20548 
 352      9708BD00 
 352      38902448 
 352      B990
 353 00c1 C2903E81 		.ascii	"\302\220>\2014\036\322$H\323!\225@\252\200\264\020\322"
 353      341ED224 
 353      48D32195 
 353      40AA80B4 
 353      10D2
 354 00d3 62484B21 		.ascii	"bHK!-\207\264\012\322jH\353!m\206D\232\337&p\206\037"
 354      2D87B40A 
 354      D26A48EB 
 354      216D8644 
 354      9ADF2670 
 355 00e9 E183F03C 		.ascii	"\341\203\360<ZPy%\274\377\014\327+\220\252\341\231L"
 355      5A507925 
 355      BCFF0CD7 
 355      2B90AAE1 
 355      994C
 356 00fb E9D2E02A 		.ascii	"\351\322\340*\320\372\204\007/\224gC\371\013H\363 -"
 356      D0FA8407 
 356      2F946743 
 356      F90B48F3 
 356      202D
 357 010d E08DB844 		.ascii	"\340\215\270D\266$\033\\\242\037\026{1\305&\357\226"
 357      B6241B5C 
 357      A21F167B 
 357      31C526EF 
 357      96
 358 011e 437905A4 		.ascii	"Cy\005\244\225\014\356*\312\357\177S\\\242c\015\267"
 358      950CEE2A 
 358      CAEF7F53 
 358      5CA2630D 
 358      B7
 359 012f 069EFD17 		.ascii	"\006\236\375\027\305\354D1I\375O(\277\033\240\374\015"
 359      C5EC4431 
 359      49FD4F28 
 359      BF1BA0FC 
 359      0D
 360 0140 A48D9036 		.ascii	"\244\215\22061\270[(\277V\270\204'\026{\013\305&\357"
 360      31B85B28 
 360      BF56B884 
 360      27167B0B 
 360      C526EF
ARM GAS  /tmp/ccRNm400.s 			page 27


 361 0153 2250DE09 		.ascii	"\"P\336\011i\027\203\273[\247\337\307\030=\354\205g"
 361      691783BB 
 361      5BA7DFC7 
 361      183DEC85 
 361      67
 362 0164 458C0E48 		.ascii	"E\214\016H\375\361\264\274\027\312\373\030\274\375:"
 362      FDF1B4BC 
 362      17CAFB18 
 362      BCFD3A
 363 0173 BD9AE111 		.ascii	"\275\232\341\021^X\314\375\024\223<;\310\3405\350\364"
 363      5E58CCFD 
 363      14933C3B 
 363      C8E035E8 
 363      F4
 364 0184 F91823F7 		.ascii	"\371\030#\367>x6\231\221\231\324\237D\3339\016\345\023"
 364      3E783699 
 364      9199D49F 
 364      44DB390E 
 364      E513
 365 0196 904E3198 		.ascii	"\220N1\230\247u\2724\303$\264,\356i\212K\312\347\240"
 365      A775BA34 
 365      C324B42C 
 365      EE698A4B 
 365      CAE7A0
 366 01a9 FC238349 		.ascii	"\374#\203I\372\003yW\013\331O\364\235@\237Og|\232\374"
 366      FA037957 
 366      0BD94FF4 
 366      9D409F4F 
 366      677C9AFC 
 367 01bd 48DFE90C 		.ascii	"H\337\351\014\327\265\202\252\253\357\005\225\237\033"
 367      D7B582AA 
 367      ABEF0595 
 367      9F1B
 368 01cb 3A5E489F 		.ascii	":^H\237\224i\377$z|\002\336\357\247\366\237-\250|\327"
 368      9469FF24 
 368      7A7C02DE 
 368      EFA7F69F 
 368      2DA87CD7 
 369 01df C1B55450 		.ascii	"\301\265TP\345i\201\373\016\244\017\3025UP\365\333Y"
 369      E56981FB 
 369      0EA40FC2 
 369      355550F5 
 369      DB59
 370 01f1 5065788A 		.ascii	"Pex\212\372\030i\367\000\355\217%\364Yo\270\276\011"
 370      FA1869F7 
 370      00ED8F25 
 370      F4596FB8 
 370      BE09
 371 0203 A9AFD0B6 		.ascii	"\251\257\320\266\377\365\247\330G\340\272\013\256\307"
 371      FFF5A7D8 
 371      47E0BA0B 
 371      AEC7
 372 0211 E07A02D2 		.ascii	"\340z\002\322\000A\345K\343\225\210\234J\365\323\237"
 372      0041E54B 
 372      E395889C 
 372      4AF5D39F 
 373 0221 F67552FE 		.ascii	"\366uR\376\003d\377\316`\222x\321\231\352\237\310\256"
ARM GAS  /tmp/ccRNm400.s 			page 28


 373      0364FFCE 
 373      609278D1 
 373      99EA9FC8 
 373      AE
 374 0232 C73E09E9 		.ascii	"\307>\011\351\003\006\233\310y\012\236\255\020T=\374"
 374      03069BC8 
 374      790A9EAD 
 374      10543DFC 
 375 0242 00D74A21 		.ascii	"\000\327J!\246k\017m\273\023\2259\201\266\261\212\306"
 375      A66B0F6D 
 375      BB139539 
 375      81B6B18A 
 375      C6
 376 0253 19126F4E 		.ascii	"\031\022oN\323\330C\370\314b\370!\261+\015\256>\235"
 376      D3D843F8 
 376      CC62F821 
 376      B12B0DAE 
 376      3E9D
 377 0265 3D08467F 		.ascii	"=\010F\177j\003\215\2173\202\032#\253(\037g\341\272"
 377      6A038D8F 
 377      33821A23 
 377      AB281F67 
 377      E1BA
 378 0277 81CAD981 		.ascii	"\201\312\331\201\266\355\245x\347t\261\215\274\377\020"
 378      B6EDA578 
 378      E774B18D 
 378      BCFF10
 379 0286 B28F9876 		.ascii	"\262\217\230vI\274$q\231\370 i?\225\352d\255`\364\311"
 379      49BC2471 
 379      99F82069 
 379      3F95EA64 
 379      AD60F4C9 
 380 029a 8B70BF85 		.ascii	"\213p\277\205\362\224\313\360!P\037\355@\333&\230\233"
 380      F294CBF0 
 380      21501FED 
 380      40DB2698 
 380      9B
 381 02ab 75ED1379 		.ascii	"u\355\023yG1\355v\346J\025\370\245\327@\243\377\306"
 381      4731ED76 
 381      E64A15F8 
 381      A5D740A3 
 381      FFC6
 382 02bd 8B7C5A32 		.ascii	"\213|Z21\027)\245&s\317A\205\337pK\025\245\244\271\262"
 382      311729A5 
 382      2673CF41 
 382      85DF704B 
 382      15A5A4B9 
 383 02d2 A5595094 		.ascii	"\245YP\224$\221_\304w\206\206^\345\271\027\270\025@"
 383      24915FC4 
 383      7786865E 
 383      E5B917B8 
 383      1540
 384 02e4 58A22867 		.ascii	"X\242(g\377\216\361\1777\300\221\322=\317(^\221\257"
 384      FF8EF17F 
 384      37C091D2 
 384      3DCF285E 
 384      91AF
ARM GAS  /tmp/ccRNm400.s 			page 29


 385 02f6 44D87778 		.ascii	"D\330wxN\344\227\362/8\305\020\270\367\011\305r V\351"
 385      4EE497F2 
 385      2F38C510 
 385      B8F709C5 
 385      722056E9 
 386 030a 1054896C 		.ascii	"\020T\211l+N%\240\3449g@4\374~\315-$\225w\354\231\313"
 386      2B4E25A0 
 386      E4396740 
 386      34FC7ECD 
 386      2D249577 
 387 0321 2B0B77F1 		.ascii	"+\013w\361&\255\365\326\032K\212ib\326\304\272R\276"
 387      26ADF5D6 
 387      1A4B8A69 
 387      62D6C4BA 
 387      52BE
 388 0333 4851E0C5 		.ascii	"HQ\340\305*d\372\013\336\224\353\205\275\255\200\004"
 388      2A64FA0B 
 388      DE94EB85 
 388      BDAD8004 
 389 0343 EE4B24A9 		.ascii	"\356K$\251b\330n\276[{x\034?\016\241\253\034\260^\030"
 389      62D86EBE 
 389      5B7B781C 
 389      3F0EA1AB 
 389      1CB05E18 
 390 0357 692C9EF7 		.ascii	"i,\236\3674a=\205\233\002\267\312\302be@M\232\231\326"
 390      34613D85 
 390      9B02B7CA 
 390      C2626540 
 390      4D9A99D6 
 391 036b BC5AFB7D 		.ascii	"\274Z\373}c\202\314\234\270\233G\223\256G1\256\231\213"
 391      6382CC9C 
 391      B89B4793 
 391      AE4731AE 
 391      998B
 392 037d 610D2370 		.ascii	"a\015#p\367\220dc\0331\246\236\326\304\330\350H\214"
 392      F7906463 
 392      1B31A69E 
 392      D6C4D8E8 
 392      488C
 393 038f FB540C91 		.ascii	"\373T\014\221\377\032D\021`P\320pi\303\351Z\273\304"
 393      FF1A4411 
 393      6050D070 
 393      69C3E95A 
 393      BBC4
 394 03a1 AD6951FD 		.ascii	"\255iQ\375\321\012F\274G{RKD\015l\252k\260t\003\330"
 394      D10A46BC 
 394      477B524B 
 394      440D6CAA 
 394      6BB07403 
 395 03b6 8CEAB9C8 		.ascii	"\214\352\271\310\\27)\246c\316\024\214*\266\361P\335"
 395      5C323729 
 395      A663CE14 
 395      8C2AB6F1 
 395      50DD
 396 03c8 417E3CCA 		.ascii	"A~<\312\277\003\310\004\010dF\325:\207*/\377n'_\210"
 396      BF03C804 
 396      086446D5 
ARM GAS  /tmp/ccRNm400.s 			page 30


 396      3A872A2F 
 396      FF6E275F 
 397 03dd 50BB106A 		.ascii	"P\273\020j\222\247\275P\015s\266\276\212\346\376\016"
 397      92A7BD50 
 397      0D73B6BE 
 397      8AE6FE0E 
 398 03ed 81F63040 		.ascii	"\201\3660@\"\237\030Uc\364^\253@\320\3605-\220\331d"
 398      229F1855 
 398      63F45EAB 
 398      40D0F035 
 398      2D90D964 
 399 0401 47EE17AE 		.ascii	"G\356\027\256.p\007=\016L\227d\345\007J\363\235\251"
 399      2E70073D 
 399      0E4C9764 
 399      E5074AF3 
 399      9DA9
 400 0413 E7F9D94A 		.ascii	"\347\371\331J\244\310\243u\311\004+\035\011\3341lk\037"
 400      A4C8A375 
 400      C9042B1D 
 400      09DC316C 
 400      6B1F
 401 0425 EBCBA50B 		.ascii	"\353\313\245\013\256\024R_\336\347\310\2277\326\226"
 401      AE14525F 
 401      DEE7C897 
 401      37D696
 402 0434 3BEB924C 		.ascii	";\353\222L \233\343%\355\037`\333\237w\356O\257U(J'"
 402      209BE325 
 402      ED1F60DB 
 402      9F77EE4F 
 402      AF55284A 
 403 0449 F555FCE6 		.ascii	"\365U\374\346\327\036\232\331\266y\221\177\355\257\354"
 403      D71E9AD9 
 403      B679917F 
 403      EDAFEC
 404 0458 5CA37441 		.ascii	"\\\243tA\365u*d\003\366\231\037\275\254s\274\236b4\037"
 404      F5752A64 
 404      03F6991F 
 404      BDAC73BC 
 404      9E62341F 
 405 046c DCEB2A08 		.ascii	"\334\353*\010\334\225(\373\355\352\262 g\315\300\025"
 405      DC9528FB 
 405      EDEAB220 
 405      67CDC015 
 406 047c EB146572 		.ascii	"\353\024er\202\306\303U\327\210\351\006M\254?\204A@"
 406      82C6C355 
 406      D788E906 
 406      4DAC3F84 
 406      4140
 407 048e 056B7102 		.ascii	"\005kq\002f\351I\205\221o\364`\267\\\203\0319\333\244"
 407      66E94985 
 407      916FF460 
 407      B75C8319 
 407      39DBA4
 408 04a1 07BBEB04 		.ascii	"\007\273\353\004\254\2235g[\364`\017\\\203\0319\333"
 408      AC933567 
 408      5BF4600F 
 408      5C831939 
ARM GAS  /tmp/ccRNm400.s 			page 31


 408      DB
 409 04b2 AA076B75 		.ascii	"\252\007ku\002\326\305\232\263\355z\260\361>\267`F\316"
 409      02D6C59A 
 409      B3ED7AB0 
 409      F13EB760 
 409      46CE
 410 04c4 EAF56013 		.ascii	"\352\365`\023\235\200\245\233p\026\375\231\321\021\267"
 410      9D80A59B 
 410      7016FD99 
 410      D111B7
 411 04d3 AEE3A37E 		.ascii	"\256\343\243~.pS|ZHp\351\323\\\014c\272\317m\0103\310"
 411      2E70537C 
 411      5A4870E9 
 411      D35C0C63 
 411      BACF6D08 
 412 04e9 0D63E985 		.ascii	"\015c\351\205E\374\214\361JMWm<\233\351\004\321\306"
 412      45FC8CF1 
 412      4A4D576D 
 412      3C9BE904 
 412      D1C6
 413 04fb 61E654EB 		.ascii	"a\346T\353\006\307\271\256\301\030W&`\206XC\007\244"
 413      06C7B9AE 
 413      C1185726 
 413      60865843 
 413      07A4
 414 050d E6CA4897 		.ascii	"\346\312H\227\212X\264K\322\260\310TQ\015m0s\024\242"
 414      8A58B44B 
 414      D2B0C854 
 414      510D6D30 
 414      7314A2
 415 0520 95952E5D 		.ascii	"\225\225.]\314\353\212\374U\3767\220_\343\223\243\\"
 415      CCEB8AFC 
 415      55FE3790 
 415      5FE393A3 
 415      5C
 416 0531 A865ADD4 		.ascii	"\250e\255\324\212\253\255\245>\263I(\002\330\223Zy\302"
 416      8AABADA5 
 416      3EB34928 
 416      02D8935A 
 416      79C2
 417 0543 CF7A4F58 		.ascii	"\317zOX\341DM6]\241\251z\356_+\315\021^'\257\255r`\016"
 417      E1444D36 
 417      5DA1A97A 
 417      EE5F2BCD 
 417      115E27AF 
 418 055b 51B65F9B 		.ascii	"Q\266_\233C\334\304\361z\215\317t\340w\000U^\376\325"
 418      43DCC4F1 
 418      7A8DCF74 
 418      E0770055 
 418      5EFED5
 419 056e 3FE2C07F 		.ascii	"?\342\300\177\007\2016\267\033\250a\316\374^\010t\037"
 419      078136B7 
 419      1BA861CE 
 419      FC5E0874 
 419      1F
 420 057f 8176FAD8 		.ascii	"\201v\372\330A\202gf\020\274q\214\217\352\236\252\376"
 420      41826766 
ARM GAS  /tmp/ccRNm400.s 			page 32


 420      10BC718C 
 420      8FEA9EAA 
 420      FE
 421 0590 97AA2B70 		.ascii	"\227\252+p\265\254\275\014\342\304\21560\021\177X\312"
 421      B5ACBD0C 
 421      E2C48D36 
 421      30117F58 
 421      CA
 422 05a1 B7142A15 		.ascii	"\267\024*\025]]X\354\320\367\232\305\210c\013\\C\033"
 422      5D5D58EC 
 422      D0F79AC5 
 422      88630B5C 
 422      431B
 423 05b3 FDDC71A9 		.ascii	"\375\334q\251 \2309\272\026\344y\243 Sw\227\271\027"
 423      209839BA 
 423      16E479A3 
 423      20537797 
 423      B917
 424 05c5 24EA7A13 		.ascii	"$\352z\023P\220s\177\001A.\273\026\244\253N\020\262"
 424      5090737F 
 424      01412EBB 
 424      16A4AB4E 
 424      10B2
 425 05d7 A6B859A6 		.ascii	"\246\270Y\246\306\301'\2702\373\271\034\341g\212\360"
 425      C6C127B8 
 425      32FBB91C 
 425      E1678AF0 
 426 05e7 84714578 		.ascii	"\204qEx|\037\237\256>\216\277 \274\275O7\343W\034\315"
 426      7C1F9FAE 
 426      3E8EBF20 
 426      BCBD4F37 
 426      E3571CCD 
 427 05fb F8CB0E68 		.ascii	"\370\313\016h*\233\206*\273n\326\311\034A\225\037\335"
 427      2A9B862A 
 427      BB6ED6C9 
 427      1C41951F 
 427      DD
 428 060c BD96CEF8 		.ascii	"\275\226\316\370K\020\352N\273\241\032NlT\373\353\014"
 428      4B10EA4E 
 428      BBA11A4E 
 428      6C54FBEB 
 428      0C
 429 061d 04521258 		.ascii	"\004R\022X3&0VL0Z\021nIKw\310|\234\377\224>!7\211\334"
 429      33263056 
 429      4C305A11 
 429      6E494B77 
 429      C87C9CFF 
 430 0637 FF3B1D8C 		.ascii	"\377;\035\214\306\310>\261`{f\230\304\203\316\227i#"
 430      C6C83EB1 
 430      607B6698 
 430      C483CE97 
 430      6923
 431 0649 A96AA4D2 		.ascii	"\251j\244\322?\013\2610\362\365Tm\331\372:\031K\347"
 431      3F0BB130 
 431      F2F5546D 
 431      D9FA3A19 
 431      4BE7
ARM GAS  /tmp/ccRNm400.s 			page 33


 432 065b FC997007 		.ascii	"\374\231p\007k]/4\313\016kn7\027%Z\324\306\304\273\330"
 432      6B5D2F34 
 432      CB0E6B6E 
 432      3717255A 
 432      D4C6C4BB 
 433 0670 9EEA64DD 		.ascii	"\236\352d\335\365U{%\211\376\004n}\202\203!3\335\306"
 433      F5557B25 
 433      89FE046E 
 433      7D828321 
 433      33DDC6
 434 0683 5CB5B7A9 		.ascii	"\\\265\267\251\271\342.\336\264\215\231\352=\343\350"
 434      B9E22EDE 
 434      B48D99EA 
 434      3DE3E8
 435 0692 C6CC6281 		.ascii	"\306\314b\201\354hlb\264\341`\025X\215$\225B\233\035"
 435      EC686C62 
 435      B4E16015 
 435      588D2495 
 435      429B1D
 436 06a5 8DFDDA8E 		.ascii	"\215\375\332\216\006y\347`\025h\330\321\020\371oy\201"
 436      0679E760 
 436      1568D8D1 
 436      10F96F79 
 436      81
 437 06b6 E2B657A3 		.ascii	"\342\266W\243\006#\306\030\024\371e\002\231\037-\027"
 437      0623C618 
 437      14F96502 
 437      991F2D17 
 438 06c6 7EADD7FE 		.ascii	"~\255\327\376Q\327\332O\327k?r\277V\335\023\323\366"
 438      51D7DA4F 
 438      D76B3F72 
 438      BF56DD13 
 438      D3F6
 439 06d8 B8CEB078 		.ascii	"\270\316\260x\275\365sWZ|\336\322\232\221\262:\234t"
 439      BDF57357 
 439      5A7CDED2 
 439      9A91B23A 
 439      9C74
 440 06ea AAFDEE7F 		.ascii	"\252\375\356\177\2350\327\325\012\25402_\005S]\376\272"
 440      9D30D7D5 
 440      0AAC3032 
 440      5F05535D 
 440      FEBA
 441 06fc 6BB07403 		.ascii	"k\260t\003\330\266\351\316\266\320\024^?\035\026\270"
 441      D8B6E9CE 
 441      B6D0145E 
 441      3F1D16B8 
 442 070c 87D8EE3A 		.ascii	"\207\330\356:\326S\312\357\325O\244\236\262\316\201"
 442      D653CAEF 
 442      D54FA49E 
 442      B2CE81
 443 071b A7C06073 		.ascii	"\247\300`s>Y)K\325\364\2741QC\265\321\263\231\237h;"
 443      3E59294B 
 443      D5F4BC31 
 443      5143B5D1 
 443      B3999F68 
 444 0730 6917F7F2 		.ascii	"i\027\367\362\010\247N\357w\260p.\227\275\217\244\232"
ARM GAS  /tmp/ccRNm400.s 			page 34


 444      08A74EEF 
 444      77B0702E 
 444      97BD8FA4 
 444      9A
 445 0741 AEEE1443 		.ascii	"\256\356\024CwuOn&\303\355\267\330\015\253\023\331\240"
 445      77754F6E 
 445      26C3EDB7 
 445      D80DAB13 
 445      D9A0
 446 0753 A46A46E7 		.ascii	"\244jF\347\317\353t\376\274\036\375y\003\3703\230\025"
 446      CFEB74FE 
 446      BC1EFD79 
 446      03F83398 
 446      15
 447 0764 F3CD7ADF 		.ascii	"\363\315z\337\266\032\361\267\010\272\371\372\001\327"
 447      B61AF1B7 
 447      08BAF9FA 
 447      01D7
 448 0772 72A733D6 		.ascii	"r\2473\326\261jf\255\276\231#\211\016|\257\227\245z"
 448      B16A66AD 
 448      BE992389 
 448      0E7CAF97 
 448      A57A
 449 0784 21AC34CE 		.ascii	"!\2544\316\320\206$u\247\260\3315\242\321\233\257M7"
 449      D0862475 
 449      A7B0D935 
 449      A2D19BAF 
 449      4D37
 450 0796 0C49979D 		.ascii	"\014I\227\235\300\3656a\320\354\247\337\351\005\243"
 450      C0F53661 
 450      D0ECA7DF 
 450      E905A3
 451 07a5 E0B26C0B 		.ascii	"\340\262l\013O\014\264\025\363\355\230\357\305\374\""
 451      4F0CB415 
 451      F3ED98EF 
 451      C5FC22
 452 07b4 E69731BF 		.ascii	"\346\2271\277\202\371\015\314[1/B\263N\306|\021\346"
 452      82F90DCC 
 452      5B312F42 
 452      B34EC67C 
 452      11E6
 453 07c6 2B315F85 		.ascii	"+1_\205\371j\314\327`\036"
 453      F96ACCD7 
 453      601E
 454 07d0 C17C9713 		.ascii	"\301|\227\023\007P\003m\324\315\264\230[\325\356]\344"
 454      0750036D 
 454      D4CDB498 
 454      5BD5EE5D 
 454      E4
 455 07e1 23B15D64 		.ascii	"#\261]d\221\337\346\032\214\365(\203&\253t\232\\\213"
 455      91DFE61A 
 455      8CF52883 
 455      26AB749A 
 455      5C8B
 456 07f3 9A5C879A 		.ascii	"\232\\\207\232\331m\014\343-\211\332\361F\273\302A\363"
 456      D96D0CE3 
 456      2D89DAF1 
ARM GAS  /tmp/ccRNm400.s 			page 35


 456      46BBC241 
 456      F3
 457 0804 844B351E 		.ascii	"\204K5\036\334\000u>\247\270\337\332\374\317U\270\341"
 457      DC00753E 
 457      A7B8DFDA 
 457      FCCF55B8 
 457      E1
 458 0815 588DF175 		.ascii	"X\215\361uM\022\333{}\314\214\302g\234Q\370\222c\205"
 458      4D12DB7B 
 458      7DCC8CC2 
 458      679C51F8 
 458      926385
 459 0828 E88C6263 		.ascii	"\350\214bc\022#\210\273@\324\\y\251^\025\204\331\327"
 459      122388BB 
 459      40D45C79 
 459      A95E1584 
 459      D9D7
 460 083a 240B112B 		.ascii	"$\013\021+\207\370^\337Uw\272f \335\340\014\207Ug \230"
 460      87F85EDF 
 460      5577BA66 
 460      20DDE00C 
 460      87556720 
 461 084f 02B7CF09 		.ascii	"\002\267\317\011\230\315\026\3141=X\275k0#g'\364`\307"
 461      98CD16CC 
 461      313D58BD 
 461      6B302367 
 461      27F460C7 
 462 0863 9C80D96C 		.ascii	"\234\200\331lT\374\260gn\333\321\360)n\026]q(\274l\271"
 462      54FCB067 
 462      6EDBD1F0 
 462      296E165D 
 462      7128BC6C 
 463 0878 974C547E 		.ascii	"\227LT~Dx\012K\036<\213\344\030cUZ\260E(\217\305\214"
 463      44780A4B 
 463      1E3C8BE4 
 463      1863555A 
 463      B045288F 
 464 088e 25F2EF79 		.ascii	"%\362\357y\242\356e\355\251\221\362\342'\311!_#\012"
 464      A2EE65ED 
 464      A991F2E2 
 464      27C9215F 
 464      230A
 465 08a0 DECCB829 		.ascii	"\336\314\270)\3234a\314\252\351\223\202!p\030|\233y"
 465      D33461CC 
 465      AAE99382 
 465      2170187C 
 465      9B79
 466 08b2 2770975C 		.ascii	"'p\227\\+\330h\255\246bC\200nq\002\227nb/\263\237\376"
 466      2BD868AD 
 466      A6624380 
 466      6E710297 
 466      6E622FB3 
 467 08c8 2014422A 		.ascii	" \024B*\206\225/1\254\354\3010Z\213y\035\346\365\230"
 467      86952F31 
 467      ACECC130 
 467      5A8B791D 
 467      E6F598
ARM GAS  /tmp/ccRNm400.s 			page 36


 468 08db 1FC2FC30 		.ascii	"\037\302\3740\346?\350C\317/\203\352\364L\270q\342S"
 468      E63FE843 
 468      CF2F83EA 
 468      F44CB871 
 468      E253
 469 08ed C4B24D38 		.ascii	"\304\262M8}\270\327&\000U\362\235\177!\006\023\271b"
 469      7DB8D726 
 469      0055F29D 
 469      7F210613 
 469      B962
 470 08ff DC249950 		.ascii	"\334$\231P\030o\223\344\353\225\027\177\245\256\274"
 470      186F93E4 
 470      EB95177F 
 470      A5AEBC
 471 090e CE0A8964 		.ascii	"\316\012\211d\246\225l\344\322\001\022\341\374<\020"
 471      A6956CE4 
 471      D20112E1 
 471      FC3C10
 472 091d 1BF6295A 		.ascii	"\033\366)Z\212;\022\321\311s\233\271#\366/\201\333\233"
 472      8A3B12D1 
 472      C9739BB9 
 472      23F62F81 
 472      DB9B
 473 092f ACCEBDBC 		.ascii	"\254\316\275\274\311\261g\015\261g\274\256\352\311\330"
 473      C9B1670D 
 473      B167BCAE 
 473      EAC9D8
 474 093e 63ED0B00 		.ascii	"c\355\013\000rk\273\315\026cN\344/\340\254\354'\301"
 474      726BBBCD 
 474      16634EE4 
 474      2FE0ACEC 
 474      27C1
 475 0950 634AE674 		.ascii	"cJ\346t\2116\273\352\356\323\252\326\256\240m\277\350"
 475      8936BBEA 
 475      EED3AAD6 
 475      AEA06DBF 
 475      E8
 476 0961 E07A85B6 		.ascii	"\340z\205\266\022I\2562\363nXpa0\270\352hu\266\331\351"
 476      1249AE32 
 476      F36E5870 
 476      6130B8EA 
 476      6875B6D9 
 477 0976 B179746A 		.ascii	"\261ytj\373d\3149O>$S\333\233\310\377Fs\376\2551\004"
 477      FB64CC39 
 477      4F3E2453 
 477      DB9BC8FF 
 477      4673FEAD 
 478 098c AE0649EE 		.ascii	"\256\006I\356\260\374\337\024\323\325\247\361\271\277"
 478      B0FCDF14 
 478      D3D5A7F1 
 478      B9BF
 479 099a ADCDF16F 		.ascii	"\255\315\361o`\344;\032\005l\3374\347\201\024;[hr\215"
 479      60E43B1A 
 479      056CDF34 
 479      E781143B 
 479      5B68728D 
 480 09ae 956EC02A 		.ascii	"\225n\300*\245\303\207\2668\273\354\004\317f\3751\223"
ARM GAS  /tmp/ccRNm400.s 			page 37


 480      A5C387B6 
 480      38BBEC04 
 480      CF66FD31 
 480      93
 481 09bf 8C6D6E0E 		.ascii	"\214mn\016\336\243\373!\205\036\322\376\315\016l\354"
 481      DEA3FB21 
 481      851ED2FE 
 481      CD0E6CEC 
 482 09cf 68D77E48 		.ascii	"h\327~Ha\212[1\014j\001\267?\323e3=\334T\031\233\352"
 482      618A5B31 
 482      0C6A01B7 
 482      3FD36533 
 482      3DDC5419 
 483 09e5 04D16C06 		.ascii	"\004\321l\006a\366\323\273\223\310\337\303\236z\037"
 483      61F6D3BB 
 483      93C8DFC3 
 483      9E7A1F
 484 09f4 83DB43CC 		.ascii	"\203\333C\314[1\037\347!y\261\307\301T\372\206~\346"
 484      5B311FE7 
 484      2179B1C7 
 484      C154FA86 
 484      7EE6
 485 0a06 342B45EB 		.ascii	"4+E\353p.\375\313\234\325\253:V\257#\253-\372\010\374"
 485      702EFDCB 
 485      9CD5AB3A 
 485      56AF23AB 
 485      2DFA08FC 
 486 0a1a 2C375F89 		.ascii	",7_\211\\m\276\277\345\370\257\026\020\215)\217Z?\345"
 486      5C6DBEBF 
 486      E5F8AF16 
 486      108D298F 
 486      5A3FE5
 487 0a2d 99090899 		.ascii	"\231\011\010\231\230Z\261>\305c\230\201\3400\033-\323"
 487      985AB13E 
 487      C5639881 
 487      E0301B2D 
 487      D3
 488 0a3e 1961F49E 		.ascii	"\031a\364\236\000\305\356\251\237)\305\312\363\313c"
 488      00C5EEA9 
 488      9F29C5CA 
 488      F3CB63
 489 0a4d 7ED6496B 		.ascii	"~\326Ik\201\324\211~\002\264\361\005\334X\375\034\215"
 489      81D4897E 
 489      02B4F105 
 489      DC58FD1C 
 489      8D
 490 0a5e 7920C5F4 		.ascii	"y \305\364D%>\320\302\362r\034\350\312\020\346x{a\232"
 490      44253ED0 
 490      C2F2721C 
 490      E8CA10E6 
 490      787B619A 
 491 0a72 1BE62C53 		.ascii	"\033\346,S?\355\230\205@gSX\257\3670N\3571:\275'9Vh"
 491      3FED9885 
 491      40675358 
 491      AFF7304E 
 491      EF313ABD 
 492 0a8a 6DF570BF 		.ascii	"m\365p\277le\303\374N\340\2560\334>\307-Q\2242\364\200"
ARM GAS  /tmp/ccRNm400.s 			page 38


 492      6C65C3FC 
 492      4EE0AE30 
 492      DC3EC72D 
 492      519432F4 
 493 0a9f 6FC10392 		.ascii	"o\301\003\222\265\231\022V\233\354y\326\324\364\352"
 493      B5991256 
 493      9BEC79D6 
 493      D4F4EA
 494 0aae 070A2AA9 		.ascii	"\007\012*\251\262V\032\240\315\207o\305\241B\217\240"
 494      B2561AA0 
 494      CD876FC5 
 494      A1428FA0 
 495 0abe 64470999 		.ascii	"dG\011\231\272\350\271\033\207\014\035\207\222\225\026"
 495      BAE8B91B 
 495      870C1D87 
 495      929516
 496 0acd A70ED63C 		.ascii	"\247\016\326<\341>Kg\260\226Z\013~\177\317U\022\313"
 496      E13E4B67 
 496      B0965A0B 
 496      7E7FCF55 
 496      12CB
 497 0adf EEF871F0 		.ascii	"\356\370q\360\000\315\011\255[\243:\253\360\030\276"
 497      00CD09AD 
 497      5BA33AAB 
 497      F018BE
 498 0aee DC53FB49 		.ascii	"\334S\373I\344\216T\243\\\205(\345\242\207,iG\017aL"
 498      E48E54A3 
 498      5C8528E5 
 498      A2872C69 
 498      470F614C 
 499 0b02 A6A49A99 		.ascii	"\246\244\232\231L\271\231=\200~\0302\307CV\313\213\235"
 499      4CB9993D 
 499      807E1832 
 499      C74356CB 
 499      8B9D
 500 0b14 186B8166 		.ascii	"\030k\201f,\0303\342P\351\215\325\250\031K\344\347\307"
 500      2C1833E2 
 500      50E98DD5 
 500      A8194BE4 
 500      E7C7
 501 0b26 21A33298 		.ascii	"!\2432\230*\335\212\212\352j\231\251\322O\301\2504\256"
 501      2ADD8A8A 
 501      EA6A99A9 
 501      D24FC1A8 
 501      34AE
 502 0b38 B9B5F559 		.ascii	"\271\265\365Y\027Z\377\312Z\353n\217\317E\376.\316q"
 502      175AFFCA 
 502      5AEB6E8F 
 502      CF45FE2E 
 502      CE71
 503 0b4a E39CB959 		.ascii	"\343\234\271Yq\262\306\243\377\224\307\"\026F]\225\261"
 503      71B2C6A3 
 503      FF94C722 
 503      16465D95 
 503      B1
 504 0b5b FC0473CB 		.ascii	"\374\004s\313\337e,\277\312\211\345w\020\023\022n4\313"
 504      DF652CBF 
ARM GAS  /tmp/ccRNm400.s 			page 39


 504      CA89E577 
 504      1013126E 
 504      34CB
 505 0b6d 5B5321CF 		.ascii	"[S!\317\232\227\261\226\267&\323w\323\005\321n*\362"
 505      9A97B196 
 505      B726D377 
 505      D305D16E 
 505      2AF2
 506 0b7f 0B593A17 		.ascii	"\013Y:\027\335\324\2525\252\335\365\346\036\343\276"
 506      DDD4AA35 
 506      AADDF5E6 
 506      1EE3BE
 507 0b8e 9B7E6BD7 		.ascii	"\233~k\327M\251\015\343t\323\317\314\215u\2331\326\026"
 507      4DA90DE3 
 507      74D3CFCC 
 507      8D759B31 
 507      D616
 508 0ba0 27C6DAC6 		.ascii	"'\306\332\306\032\313\232Jo\254\026\326X\326dv\335\324"
 508      1ACB9A4A 
 508      6FAC16D6 
 508      58D66476 
 508      DDD4
 509 0bb2 8A8AEA6A 		.ascii	"\212\212\352j\207\251\322\033\212?\207\311ha\244\265"
 509      87A9D21B 
 509      8A3F87C9 
 509      6861A4B5 
 510 0bc2 F5758E51 		.ascii	"\365u\216Q\3744\033\305\177g\247x\363^Qf\256\350\026"
 510      FC341BC5 
 510      7F67A778 
 510      F35E5166 
 510      AEE816
 511 0bd5 46D1BB1D 		.ascii	"F\321\273\035\305C\361ym4)G\330\335\216\334TQ\266\241"
 511      C543F179 
 511      6D342947 
 511      D8DD8EDC 
 511      5451B6A1 
 512 0be9 C6A6518D 		.ascii	"\306\246Q\215Y\265E\205\2541\325\330|\213\300f\247\256"
 512      59B54585 
 512      AC31D5D8 
 512      7C8BC066 
 512      A7AE
 513 0bfb 3A137531 		.ascii	":\023u1\352Y`\256\236k\214z\366\333\252\307BN+\"\312"
 513      EA5960AE 
 513      9E6B8C7A 
 513      F6DBAAC7 
 513      424E2B22 
 514 0c10 5DBDA99C 		.ascii	"]\275\251\234\233\332!\347a;\267\240\337C\304q\223%"
 514      9BDA21E7 
 514      613BB7A0 
 514      DF43C471 
 514      9325
 515 0c22 CEDCA4C1 		.ascii	"\316\334\244\301\211\233|\361\037]\264\017z\226#\254"
 515      899B7CF1 
 515      1F5DB40F 
 515      7A9623AC 
 516 0c32 8E8A192D 		.ascii	"\216\212\031-\2209m\330\324\274K\344k\331\306\\x\227"
 516      90396DD8 
ARM GAS  /tmp/ccRNm400.s 			page 40


 516      D4BC4BE4 
 516      6BD9C65C 
 516      7897
 517 0c44 158B5457 		.ascii	"\025\213TW\307L\265>\263\035Zor\240uF\313+\235y\333"
 517      C74CB53E 
 517      B31D5A6F 
 517      72A07546 
 517      CB2B9D79 
 518 0c59 69275A9E 		.ascii	"i'Z\236\255iY\344O\262TfZ\266P\227U[T\310\263m\325\265"
 518      AD6959E4 
 518      4FB25466 
 518      5AB65097 
 518      555B54C8 
 519 0c71 B0397270 		.ascii	"\2609rpb-,\363\225\007d\332\354|\007\366'\252\260\230"
 519      622D2CF3 
 519      950764DA 
 519      EC7C07F6 
 519      27AAB098 
 520 0c85 52046E35 		.ascii	"R\004n5\243\221(\227\312r\305\203h\244\376\005`R\367"
 520      A3912897 
 520      CA72C583 
 520      68A4FE05 
 520      6052F7
 521 0c98 13F93F99 		.ascii	"\023\371?\231\262U\261\317\334\2126<]\366X\357\012\233"
 521      B255B1CF 
 521      DC8A363C 
 521      5DF658EF 
 521      0A9B
 522 0caa EC984412 		.ascii	"\354\230D\0225\200\261\234n\277\355\3403\333\360X\342"
 522      3580B19C 
 522      6EBFEDE0 
 522      33DBF058 
 522      E2
 523 0cbb 670FD979 		.ascii	"g\017\331y\331\220\032w\347\305\210\003+O\264\3405\017"
 523      D9901A77 
 523      E7C58803 
 523      2B4FB4E0 
 523      350F
 524 0ccd B3F37277 		.ascii	"\263\363rw\"\376\255\010y\036\177\357\345a\365R\313"
 524      22FEAD08 
 524      791E7FEF 
 524      E561F552 
 524      CB
 525 0cde 9D23A8C0 		.ascii	"\235#\250\300\353\317E\243;\233\351h\205]\300\261\331"
 525      EBCF45A3 
 525      3B9BE968 
 525      855DC0B1 
 525      D9
 526 0cef F1A9A19A 		.ascii	"\361\251\241\232\310\337B.o\263\\6\250\\\336v\304ec"
 526      C8DF422E 
 526      6FB35C36 
 526      A85CDE76 
 526      C46563
 527 0d02 35EE1031 		.ascii	"5\356\0201{\340dFae\242{\036\335\366\373\216(\013.W"
 527      7BE06446 
 527      6165A27B 
 527      1EDDF6FB 
ARM GAS  /tmp/ccRNm400.s 			page 41


 527      8E280B2E 
 528 0d17 FC6AF30A 		.ascii	"\374j\363\012Y\265%0\215/\261i\374\201\276\361e\256"
 528      59B52530 
 528      8D2FB169 
 528      FC81BEF1 
 528      65AE
 529 0d29 1B4F8FDB 		.ascii	"\033O\217\333x\223M\343\217\364\215\237u\322\270\365"
 529      78934DE3 
 529      8FF48D9F 
 529      75D2B8F5 
 530 0d39 7E9569E3 		.ascii	"~\225i\343u6\215+^\346\314\262\3365\003\361\245?l\303"
 530      75368D2B 
 530      5EE6CCB2 
 530      DE3503F1 
 530      A53F6CC3 
 531 0d4d 40A15727 		.ascii	"@\241W'\3751'\215[\037k\2316\376\235M\343E\372\306k"
 531      FD31278D 
 531      5B1F6B99 
 531      36FE9D4D 
 531      E345FAC6 
 532 0d62 5C371E5F 		.ascii	"\\7\036_\362\257l\032/\3267\276\336I\343\326\307f\246"
 532      F2AF6C1A 
 532      2FD637BE 
 532      DE49E3D6 
 532      C766A6
 533 0d75 8D4FB169 		.ascii	"\215O\261i|\222\276\361\012\327\215\247s\306\237\346"
 533      7C92BEF1 
 533      0AD78DA7 
 533      73C69FE6 
 534 0d85 42B032C4 		.ascii	"B\2602\304M\276\373\230?\304\274\025\363q^\222\217\307"
 534      4DBEFB98 
 534      3FC4BC15 
 534      F3715E92 
 534      8FC7
 535 0d97 7C02E613 		.ascii	"|\002\346\023\275N6\002=\272\215\300C\030r\257\2653"
 535      BD4E3602 
 535      3DBA8DC0 
 535      431872AF 
 535      B533
 536 0da9 2C289147 		.ascii	",(\221G\352\207\347\352\316\377\021\327`Fs\257V\024"
 536      EA87E7EA 
 536      CEFF11D7 
 536      604673AF 
 536      5614
 537 0dbb 4F8276F8 		.ascii	"O\202v\370r\212\0053\373\270\324\372\357\204\310&[r"
 537      728A0533 
 537      FBB8D4FA 
 537      EF84C826 
 537      5B72
 538 0dcd 82F6A78D 		.ascii	"\202\366\247\215gY0\343\021U\274>\030ESO\257.:B\263"
 538      675930E3 
 538      1155BC3E 
 538      1845534F 
 538      AF2E3A42 
 539 0de2 FCD809D1 		.ascii	"\374\330\011\321<\011\217s%8nT\030\217\274\215\237\336"
 539      3C098F73 
 539      25386E54 
ARM GAS  /tmp/ccRNm400.s 			page 42


 539      188FBC8D 
 539      9FDE
 540 0df4 1083CDF0 		.ascii	"\020\203\315\360>\216%\303G\242X\303\312\3043\275\261"
 540      3E8E25C3 
 540      47A258C3 
 540      CAC433BD 
 540      B1
 541 0e05 AFE35393 		.ascii	"\257\343S\223c\005\355\357\265\004\356*+\202\261YZ\034"
 541      6305EDEF 
 541      B504EE2A 
 541      2B82B159 
 541      5A1C
 542 0e17 6CAB1062 		.ascii	"l\253\020b+\302\233\300\2658B\373\300\332\362m\373\232"
 542      2BC29BC0 
 542      B53842FB 
 542      C0DAF26D 
 542      FB9A
 543 0e29 36AAEA76 		.ascii	"6\252\352vI\233\243\240\317p\3219\304\251\237\016n\245"
 543      499BA3A0 
 543      CF70D139 
 543      C4A99F0E 
 543      6EA5
 544 0e3b 9FD6CEF1 		.ascii	"\237\326\316\361\022\343\254y\314|\022a\011D\0246\317"
 544      12E3AC79 
 544      CC7C1261 
 544      09441436 
 544      CF
 545 0e4c CB0CCD8D 		.ascii	"\313\014\315\215\253\367\252\177GI\336\304\031\234\213"
 545      ABF7AA7F 
 545      4749DEC4 
 545      199C8B
 546 0e5b C6478EAF 		.ascii	"\306G\216\257\336+T(\221B\365\233\214\361\266\373\273"
 546      DE2B5428 
 546      9142F59B 
 546      8CF1B6FB 
 546      BB
 547 0e6c A0340FD9 		.ascii	"\2404\017\331\352\211\267\253*p\333Q\024\302\201\031"
 547      EA89B7AB 
 547      2A70DB51 
 547      14C28119 
 548 0e7c 4EDC313B 		.ascii	"N\3341;rr\365E\036\271\322v\243w\272\006\354d\020\363"
 548      7272F545 
 548      1EB9D276 
 548      A377BA06 
 548      EC6410F3 
 549 0e90 074D4C91 		.ascii	"\007ML\221_\210\207\216\265\256\001\015v\2174\261\034"
 549      5F88878E 
 549      B5AE010D 
 549      768F34B1 
 549      1C
 550 0ea1 D6B906EC 		.ascii	"\326\271\006\354j\340\360\032\313\3411'\2006\247U-,"
 550      6AE0F01A 
 550      CBE13127 
 550      8036A755 
 550      2D2C
 551 0eb3 87A75C03 		.ascii	"\207\247\\\003\032ux\223\345\360\202k@\243\016o\263"
 551      1A757893 
ARM GAS  /tmp/ccRNm400.s 			page 43


 551      E5F0826B 
 551      40A30E6F 
 551      B3
 552 0ec4 1C5E720D 		.ascii	"\034^r\015h\324\341]\226\303\033N\000m>\215\271\317"
 552      68D4E15D 
 552      96C31B4E 
 552      006D3E8D 
 552      B9CF
 553 0ed6 7278C735 		.ascii	"rx\3075\240Q\207\017Y\016\013\323\334\002\032u\330\312"
 553      A051870F 
 553      590E0BD3 
 553      DC021A75 
 553      D8CA
 554 0ee8 7258EC1A 		.ascii	"rX\354\032\320\250\303\322*\206\303\022'\2006\037\361"
 554      D0A8C3D2 
 554      2A86C312 
 554      2780361F 
 554      F1
 555 0ef9 CCA86238 		.ascii	"\314\250b8\234\345\032\260\023g\371\323G@\221\237\357"
 555      9CE51AB0 
 555      1367F9D3 
 555      4740919F 
 555      EF
 556 0f0a 25F16901 		.ascii	"%\361i\001N)\026c\276\024\363\377\301|9\346+1_\205\371"
 556      4E291663 
 556      BE14F3FF 
 556      C17C39E6 
 556      2B315F85 
 557 0f1f 6ACCD760 		.ascii	"j\314\327`\276\016\363\365\230\177\203\371&\314\267"
 557      BE0EF3F5 
 557      987F83F9 
 557      26CCB7
 558 0f2e 38999ACC 		.ascii	"8\231\232\314\366\352\246&\013\322\034\314&\362Mlj."
 558      F6EAA626 
 558      0BD21CCC 
 558      26F24D6C 
 558      6A2E
 559 0f40 606C8D28 		.ascii	"`l\215(\362\3271\000\267\340,j\012\262\367\031\346\323"
 559      F2D73100 
 559      B7E02C6A 
 559      0AB2F719 
 559      E6D3
 560 0f52 312FC1BC 		.ascii	"1/\301\274\014\363?b^\341\204\371+\261yUt7\243\2219"
 560      0CF33F62 
 560      5EE184F9 
 560      2BB17955 
 560      7437A391 
 561 0f67 7AA1F7CC 		.ascii	"z\241\367\314\356Fe\232\305i\331\231\347\367\252\247"
 561      EE46659A 
 561      C569D999 
 561      E7F7AAA7 
 562 0f77 65045BE0 		.ascii	"e\004[\340\326a\275K\226\233\034Wt\233\264\007\311&"
 562      D661BD4B 
 562      969B1C57 
 562      749BB407 
 562      C926
 563 0f89 ADFA19D5 		.ascii	"\255\372\031\3257q\310\032uG0\345{RKx\215p\273\023\302"
ARM GAS  /tmp/ccRNm400.s 			page 44


 563      3771C81A 
 563      754730E5 
 563      7B524B78 
 563      8D70BB13 
 564 0f9e E8C6     		.ascii	"\350\306"
 565 0fa0 C3346542 		.ascii	"\3034eB'>\272\363p\211\335y\330\3415\333y8\355~\347"
 565      273EBAF3 
 565      7089DD79 
 565      D8E135DB 
 565      7938ED7E 
 566 0fb5 A1C6CB6C 		.ascii	"\241\306\313l\037\021\261m\266!\230%\374\007\032\036"
 566      1F11B16D 
 566      B6219825 
 566      FC071A1E 
 567 0fc5 F96F1C74 		.ascii	"\371o\034t\0221\357\326\336\337\221O\014L\226\362\206"
 567      1231EFD6 
 567      DEDF914F 
 567      0C4C96F2 
 567      86
 568 0fd6 EA22BF1F 		.ascii	"\352\"\277\037\272F\274Z\244\336\001vB\321T\207k\375"
 568      BA46BC5A 
 568      A4DE0176 
 568      42D15487 
 568      6BFD
 569 0fe8 03F1A713 		.ascii	"\003\361\247\023$\244\327\315\247\237\\\250\377 \240"
 569      24A4D7CD 
 569      A79F5CA8 
 569      FF20A0
 570 0ff7 A4234F31 		.ascii	"\244#O1\3333K/\214"
 570      DB334B2F 
 570      8C
 571 1000 947C9E5A 		.ascii	"\224|\236Z\377\201\0268\376\310\202\271\034\263+\364"
 571      FF811638 
 571      FEC882B9 
 571      1CB32BF4 
 572 1010 60735C83 		.ascii	"`s\\\203u5\200\255\321\203\315w\002f6V\353\334L\355"
 572      753580AD 
 572      D183CD77 
 572      02663656 
 572      EBDC4CED 
 573 1024 E0F518C1 		.ascii	"\340\365\030\301\016b\347m\300\274\021\363\243\372\216"
 573      0E62E76D 
 573      C0BC11F3 
 573      A3FA8E
 574 1033 2C708B3B 		.ascii	",p\213;\262\207\352\252}tx1Cr\361\021\255\\\266\326"
 574      B287EAAA 
 574      7D747831 
 574      4372F111 
 574      AD5CB6D6 
 575 1047 9B620035 		.ascii	"\233b\0005\364\376\252\216\026\275\377\356\013[c\275"
 575      F4FEAA8E 
 575      16BDFFEE 
 575      0B5B63BD 
 576 1057 5FE4777A 		.ascii	"_\344wz\311\222\262\332\353\244\367\237$\275\237\264"
 576      C992B2DA 
 576      EBA4F79F 
 576      24BD9FB4 
ARM GAS  /tmp/ccRNm400.s 			page 45


 577 1067 2A701B11 		.ascii	"*p\033\021\336\232\214\362f\332\211\011\225\201\361"
 577      DE9A8CF2 
 577      66DA8909 
 577      9581F1
 578 1076 13A69D78 		.ascii	"\023\246\235xS\255\353N\334l\326\211\031\305l7U\214"
 578      53ADEB4E 
 578      DC6CD689 
 578      19C56C37 
 578      558C
 579 1088 7AD4A557 		.ascii	"z\324\245WI\223\275J,dkbe;k*\3337u\256e\273`\023\240"
 579      4993BD4A 
 579      2C646B62 
 579      653B6B2A 
 579      DB3775AE 
 580 10a1 AC36B8BF 		.ascii	"\2546\270\2773\227u\266\304\310z\336\221\371\033\330"
 580      339775B6 
 580      C4C87ADE 
 580      91F91BD8 
 581 10b1 2D6E1D99 		.ascii	"-n\035\231\355\026\267QE\347Y\025]4U\321\027\007,7\265"
 581      ED16B751 
 581      45E75915 
 581      5D3455D1 
 581      17072C37 
 582 10c6 ED8E017E 		.ascii	"\355\216\001~v\340\002\215\016\325r\305\241\013T\025"
 582      76E0028D 
 582      0ED572C5 
 582      A10B5415 
 583 10d6 4FE8E48D 		.ascii	"O\350\344\215\355\341[\221Q\016\257\266\025\267\271"
 583      EDE15B91 
 583      510EAFB6 
 583      15B7B9
 584 10e5 A4B9F2DE 		.ascii	"\244\271\362\336A~\266\262\253Him\375\224\225\327\356"
 584      417EB6B2 
 584      AB48696D 
 584      FD9495D7 
 584      EE
 585 10f6 F0F786D7 		.ascii	"\360\367\206\327\356;\352E6\337Q\337\362\266\235Y\330"
 585      EE3BEA45 
 585      36DF51DF 
 585      F2B69D59 
 585      D8
 586 1107 7FF66475 		.ascii	"\177\366duZ\365#\243OM\322{f\222F\256\037\370L\341]"
 586      5AF523A3 
 586      4F4DD27B 
 586      669246AE 
 586      1FF84CE1 
 587 111c 7F15F1C0 		.ascii	"\177\025\361\300V\316&\213o\316p\333\326DN\213S\361"
 587      56CE268B 
 587      6FCE70DB 
 587      D6444E8B 
 587      53F1
 588 112e 3872DEB0 		.ascii	"8r\336\260\220\263\320g&\347\301\003\237=\255,r}\250"
 588      90B3D067 
 588      26E7C103 
 588      9F3DAD2C 
 588      727DA8
 589 1141 5CE4631C 		.ascii	"\\\344c\034\230\330)\336\267\026\235\314\031\233h\312"
ARM GAS  /tmp/ccRNm400.s 			page 46


 589      98D829DE 
 589      B7169DCC 
 589      199B68CA 
 590 1151 D8694B03 		.ascii	"\330iK\003\330\3615\231\345\353\221\327\365\261\346"
 590      D8F13599 
 590      E5EB91D7 
 590      F5B1E6
 591 1160 4C0B3EA7 		.ascii	"L\013>\247\231\361\011\363\2473oU\254S\212\324/\373"
 591      99F109F3 
 591      A7336F55 
 591      AC538AD4 
 591      2FFB
 592 1172 D4032B81 		.ascii	"\324\003+\201[b\201\361\271)F\321\375\275\374$\327G"
 592      5B6281F1 
 592      B92946D1 
 592      FDBDFC24 
 592      D747
 593 1184 63A5B6B2 		.ascii	"c\245\266\262\306\353$\354\364\374u\263\331y\225\205"
 593      C6EB24EC 
 593      F4FC75B3 
 593      D9799585 
 594 1194 18E5A626 		.ascii	"\030\345\246&\333di2\033)f\333z\322_D\212\355\026R,"
 594      DB646932 
 594      1B2966DB 
 594      7AD25F44 
 594      8AED1652 
 595 11a9 3035C6DC 		.ascii	"05\306\334[\027\337\212\3068u\312-p\373- \026\231B\334"
 595      5B17DF8A 
 595      C63875CA 
 595      2D70FB2D 
 595      20169942 
 596 11be A9AD4BD0 		.ascii	"\251\255K\320A\250.q\302\002b\211)\304\356\333\355q"
 596      41A82E71 
 596      C2026289 
 596      29C4EEDB 
 596      ED71
 597 11d0 894A3365 		.ascii	"\211J3e2\332\270l\301\3072S\233\236j\217MW\230y&\303"
 597      32DAB86C 
 597      C1C73253 
 597      9B9E6A8F 
 597      4D579879 
 598 11e6 C62D0B36 		.ascii	"\306-\0136\276\2640\3125\275Q\232\321(\343\0367\207"
 598      BEB430CA 
 598      35BD519A 
 598      D128E31E 
 598      3787
 599 11f8 F8CA14A2 		.ascii	"\370\312\024\242\242j\347?X\215]6\262T\371\354B\372"
 599      A26AE73F 
 599      588D5D36 
 599      B254F9EC 
 599      42FA
 600 120a 159B90BE 		.ascii	"\025\233\220\276\326\3276\244\027\232F\234i\026\202"
 600      D6D736A4 
 600      179A469C 
 600      691682
 601 1219 7C6D2AC8 		.ascii	"|m*\310yp\015+A\354b\343\006\333\236f>7[l\301\331&S"
 601      79700D2B 
ARM GAS  /tmp/ccRNm400.s 			page 47


 601      41EC62E3 
 601      06DB9E66 
 601      3E375B6C 
 602 1231 67B9DAAE 		.ascii	"g\271\332\256\230\275\305\201\267|i\301\307V#\037\177"
 602      98BDC581 
 602      B77C69C1 
 602      C756231F 
 602      7F
 603 1242 CB2D52EA 		.ascii	"\313-R\352\353a\375\260\363\231\375\205\344kk\345N+"
 603      EB61FDB0 
 603      F399FD85 
 603      E46B6BE5 
 603      4E2B
 604 1254 DFEA11F9 		.ascii	"\337\352\021\371\233\270\0032\031'L\004\205\362b<\254"
 604      9BB80332 
 604      19274C04 
 604      85F2623C 
 604      AC
 605 1265 E66815F2 		.ascii	"\346h\025\362\353\311}\255L\212(QRr\020\365\011wO\231"
 605      EBC97DAD 
 605      4C8A2851 
 605      527210F5 
 605      09774F99 
 606 1279 A4446654 		.ascii	"\244DfT\363\352\001\263\372\035\027\222\335\217\276"
 606      F3EA01B3 
 606      FA1D1792 
 606      DD8FBE
 607 1288 565E560F 		.ascii	"V^V\017\200\325o1\361\345\303\330\313w\325\003Z\365"
 607      80D56F31 
 607      F1E5C3D8 
 607      CB77D503 
 607      5AF5
 608 129a 130A7CD9 		.ascii	"\023\012|\331\032{\371\007\355\000u\277\366\222\034"
 608      1A7BF907 
 608      ED0075BF 
 608      F6921C
 609 12a9 73D15667 		.ascii	"s\321Vg\221V\013\361u\203\366z|\364\265\322C=~T?\224"
 609      91560BF1 
 609      7583F67A 
 609      7CF4B5D2 
 609      433D7E54 
 610 12bf C2971362 		.ascii	"\302\227\023b/_W\217\007\325\217\375\360\345\304\330"
 610      2F5F578F 
 610      07D58FFD 
 610      F0E5C4D8 
 611 12cf 4BBF7A7C 		.ascii	"K\277z|\247~\260\213?\306\307\311\344\315\312v\3251"
 611      A77EB08B 
 611      3FC6C7C9 
 611      E4CDCA76 
 611      D531
 612 12e1 1F67A81E 		.ascii	"\037g\250\036\330P\325XR\221y\205\025\325^K\252\311"
 612      D850D558 
 612      52917985 
 612      15D55E4B 
 612      AAC9
 613 12f3 3654FB2C 		.ascii	"6T\373,\251~\2629\320\254\265\244\"\247>VT\337[R\315"
 613      A97EB239 
ARM GAS  /tmp/ccRNm400.s 			page 48


 613      D0ACB5A4 
 613      22A73E56 
 613      54DF5B52 
 614 1308 B6E170BF 		.ascii	"\266\341p\277%U\251\015U]\214\212\376\215\301\354\252"
 614      2555A90D 
 614      555D8C8A 
 614      FE8DC1EC 
 614      AA
 615 1319 E32FAED2 		.ascii	"\343/\256\322\376\306`\\\021\373W\00661\256\236\355"
 615      FEC6605C 
 615      11FB5706 
 615      3631AE9E 
 615      ED
 616 132a 81247431 		.ascii	"\201$t1=p\375\343\246\313\221\343d9B\252\013\334n\254"
 616      3D70FDE3 
 616      A6CB91E3 
 616      643942AA 
 616      0BDC6EAC 
 617 133e 71C067B5 		.ascii	"q\300g\265\034\241\361\220.G\216+\203\273DW[\204H\367"
 617      1CA1F190 
 617      2E478E2B 
 617      83BB4457 
 617      5B8448F7 
 618 1352 13F943C6 		.ascii	"\023\371C\306~M\317\013\027\366&\007\206\327b\007\206"
 618      7E4DCF0B 
 618      17F62607 
 618      86D76207 
 618      86
 619 1363 864D1242 		.ascii	"\206M\022Bw\304\347\366\274\360\250\317\374\274\220"
 619      77C4E7F6 
 619      BCF0A8CF 
 619      FCBC90
 620 1372 37369DCE 		.ascii	"76\235\316\264\334K\253\227Hq\216\271n\371\270E\313"
 620      B4DC4BAB 
 620      9748718E 
 620      B96EF9B8 
 620      45CB
 621 1384 09E6CE50 		.ascii	"\011\346\316Pc\323\241NX\272P\263\015\325IK\252\025"
 621      63D3A14E 
 621      58BA50B3 
 621      0DD5494B 
 621      AA15
 622 1396 368E77CA 		.ascii	"6\216w\312\222\252\322\206\352\2076\356\272f\365\211"
 622      92AAD286 
 622      EA8736EE 
 622      BA66F589 
 623 13a6 297CE978 		.ascii	")|\351xE\375\222xa\2226Oz\320&\324\233}\335u\232\365"
 623      45FD9278 
 623      6192364F 
 623      7AD026D4 
 623      9B7DDD75 
 624 13bc 9826A3C7 		.ascii	"\230&\243\3070\254U\331\260v\306R\240\0156TgY\201\""
 624      30AC55D9 
 624      B076C652 
 624      A00D3654 
 624      67598122 
 625 13d0 73AFD7D0 		.ascii	"s\257\327\320\275\200\361\223\004:s\020\270\351\235"
ARM GAS  /tmp/ccRNm400.s 			page 49


 625      BD80F193 
 625      043A7310 
 625      B8E99D
 626 13df 4DFBCD7D 		.ascii	"M\373\315}\255\337\210\374a\037\251}\316\276\337\250"
 626      ADDF88FC 
 626      611FA97D 
 626      CEBEDFA8 
 627 13ef 649105D7 		.ascii	"d\221\005\327\353\023g+\021\257\366wW\313\020\335\232"
 627      EB13672B 
 627      11AFF677 
 627      57CB10DD 
 627      9A
 628 1400 B650FFD1 		.ascii	"\266P\377\321cd\336\365fA\231\031\211\355r\234c\265"
 628      6364DEF5 
 628      66419919 
 628      89ED729C 
 628      63B5
 629 1412 F8A3AD16 		.ascii	"\370\243\255\026\267\330\350\343bL\037\334+\031#\203"
 629      B7D8E8E3 
 629      624C1FDC 
 629      2B192383 
 630 1422 B9524656 		.ascii	"\271RFV0\373\343\214litF\326\310\300\260@0\234!\207"
 630      30FBE38C 
 630      6C697446 
 630      D6C8C0B0 
 630      40309C21 
 631 1437 0AF23ECA 		.ascii	"\012\362>\312\200BH\316\010\344e\345\024dC\245\221\243"
 631      804248CE 
 631      08E465E5 
 631      146443A5 
 631      91A3
 632 1449 0AA40229 		.ascii	"\012\244\002)\374\322H\356\261@^~\201\354\307{\277\234"
 632      FCD248EE 
 632      B1405E7E 
 632      81ECC77B 
 632      BF9C
 633 145b D0FF9DF7 		.ascii	"\320\377\235\367\322\373p\035\002A\355I\222V\354\345"
 633      D2FB701D 
 633      0241ED49 
 633      9256ECE5 
 634 146b 0A3FFC71 		.ascii	"\012?\374qX\3768\037[\350(\217\014IbvXC\354\2245\322"
 634      58FE381F 
 634      5BE8288F 
 634      0C496276 
 634      5843EC94 
 635 1481 6F78D4D3 		.ascii	"ox\324\323\035r\326\310l@MR!\374rr\024.!\337\237'\215"
 635      1D72D6C8 
 635      6C404D52 
 635      21FC7272 
 635      142E21DF 
 636 1498 95E1921F 		.ascii	"\225\341\222\037\222F\017p\200\232\037\014\311\341\214"
 636      92460F70 
 636      809A1F0C 
 636      C9E18C
 637 14a7 3786BCDD 		.ascii	"7\206\274\335\347\355\261P37?\220#\205\302\031\375\373"
 637      E7EDB150 
 637      33373F90 
ARM GAS  /tmp/ccRNm400.s 			page 50


 637      2385C219 
 637      FDFB
 638 14b9 F481EA1A 		.ascii	"\364\201\352\032\377\211r~\010\224 ?\227Q\020\016e\210"
 638      FF89727E 
 638      0894203F 
 638      9751100E 
 638      6588
 639 14cb A1DC17F3 		.ascii	"\241\334\027\363\202y\322\213\2228,\020e+,g\007\362"
 639      8279D28B 
 639      92382C10 
 639      652B2C67 
 639      07F2
 640 14dd 64C25601 		.ascii	"d\302V\001\\{t\367\313=mj\347\212\300L\236\224\341\317"
 640      5C7B74F7 
 640      CB3D6D6A 
 640      E78AC04C 
 640      9E94E1CF 
 641 14f1 96868B05 		.ascii	"\226\206\213\0059\262_k\252\203\337\257\321\243\024"
 641      39B25F6B 
 641      AA83DFAF 
 641      D1A314
 642 1500 81606256 		.ascii	"\201`bV0O\006\241^u-\315\310\254`H\002\314\024\362\330"
 642      304F06A1 
 642      5E752DCD 
 642      C8AC6048 
 642      02CC14F2 
 643 1515 0FA859F2 		.ascii	"\017\250Y\362\330\337\265\017\305?\372\267\271D\266"
 643      D8DFB50F 
 643      C53FFAB7 
 643      B944B6
 644 1524 90340204 		.ascii	"\2204\002\004\362\313B\250\247\020zY\010\275\"\204~"
 644      F2CB42A8 
 644      A7107A59 
 644      08BD2284 
 644      7E
 645 1535 2B847A09 		.ascii	"+\204z\011\241W=\241n]!u\023rBp\351\341\313\367Ck\211"
 645      A1573DA1 
 645      6E5D2175 
 645      13724270 
 645      E9E1CBF7 
 646 154c C41E63A4 		.ascii	"\304\036c\244\020\\\2039\331R\310\2335R\014\021#\211"
 646      105C8339 
 646      D952C89B 
 646      35520C11 
 646      2389
 647 155e B952921C 		.ascii	"\271R\222\034\226E\031\274!\221\010\334\013\314\250"
 647      964519BC 
 647      219108DC 
 647      0BCCA8
 648 156d 8A0E25A8 		.ascii	"\212\016%\250\216\357\022\345\334`\266\204\367\303s"
 648      8EEF12E5 
 648      DC60B684 
 648      F7C373
 649 157c C411E144 		.ascii	"\304\021\341D9$\015\017\243fH\301\227\033\036\001/\251"
 649      39240D0F 
 649      A36648C1 
 649      971B1E01 
ARM GAS  /tmp/ccRNm400.s 			page 51


 649      2FA9
 650 158e BA805C53 		.ascii	"\272\200\\S\\(\373cx\225$\215\015\310 \250\2240F\016"
 650      5C28FB63 
 650      7895248D 
 650      0DC820A8 
 650      9430460E 
 651 15a2 0EFB303F 		.ascii	"\016\3730?E\032-\345\311\271b\370#\250\"\215!\005O\276"
 651      451A2DE5 
 651      C9B962F8 
 651      23A8228D 
 651      21054FBE 
 652 15b6 BF204DF3 		.ascii	"\277 M\363\304\234@\030\354\320Q\347\233\344Ir\276\177"
 652      C49C4018 
 652      ECD051E7 
 652      9BE44972 
 652      BE7F
 653 15c8 8C189003 		.ascii	"\214\030\220\003y#:\344\373\001\025\375\325\207Ex \345"
 653      79233AE4 
 653      FB0115FD 
 653      D5874578 
 653      20E5
 654 15da 4B7960F7 		.ascii	"Ky`\367\021\276\334\002\260Q\017Wn\234+\217%\276\225"
 654      11BEDC02 
 654      B0510F57 
 654      6E9C2B8F 
 654      25BE95
 655 15ed AB7601B8 		.ascii	"\253v\001\270\006\307\344\201\252\020\0118\314EW\206"
 655      06C7E481 
 655      AA100938 
 655      CC455786 
 656 15fd E6A11E61 		.ascii	"\346\241\036a\244\003\021Z\314A\227\200\207\371\301"
 656      A403115A 
 656      CC419780 
 656      87F9C1
 657 160c 604EF228 		.ascii	"`N\362(\215\267\356\350k9\201a\031#\262\262\030\237"
 657      8DB7EEE8 
 657      6B398161 
 657      1923B2B2 
 657      189F
 658 161e EBF952AF 		.ascii	"\353\371R\257\227z\352\375\024|\016\032N\010\007\376"
 658      977AEAFD 
 658      147C0E1A 
 658      4E0807FE 
 659 162e 13740B18 		.ascii	"\023t\013\030Y\301\002\360\260P\322(\377\260\202\341"
 659      59C102F0 
 659      B050D228 
 659      FFB082E1 
 660 163e C3A5906F 		.ascii	"\303\245\220o\224_\016\346'\002x(_\016\3015\224\015"
 660      945F0EE6 
 660      27027828 
 660      5F0EC135 
 660      940D
 661 1650 D7E45179 		.ascii	"\327\344QyA90\374c\010\010\243\374j1a\024\250(\357\243"
 661      413930FC 
 661      630808A3 
 661      FC6A3161 
 661      14A828EF 
ARM GAS  /tmp/ccRNm400.s 			page 52


 662 1665 B46081AC 		.ascii	"\264`\201\254\213 /\307\323\302H1'\306\216\024\012\210"
 662      8B202FC7 
 662      D3C24831 
 662      27C68E14 
 662      0A88
 663 1677 39C04E72 		.ascii	"9\300Nr8\233\372Crf_\377{\357\014|g\340\320D(e\016\035"
 663      389BFA43 
 663      72665FFF 
 663      7BEF0C7C 
 663      67E0D044 
 664 168f 343809AE 		.ascii	"48\011\256C\372\275\321\367}w\021\016\355M:U\032\226"
 664      43FABDD1 
 664      F77D7711 
 664      0EED4D3A 
 664      551A96
 665 16a2 FCE16041 		.ascii	"\374\341`A(\013\032H\325\337vRo\210\206%P\277_N3>H\224"
 665      280B1A48 
 665      D5DF7652 
 665      6F888625 
 665      50BF5F4E 
 666 16ba 72D01029 		.ascii	"r\320\020)p\325\236%CY\005W\241\3209A/\360\030\213\344"
 666      70D59E25 
 666      43590557 
 666      A1D03941 
 666      2FF0188B 
 667 16cf FD18D563 		.ascii	"\375\030\325c\2450Rws\242\223p(K\323G\026\350\003\342"
 667      A5305277 
 667      73A29370 
 667      284BD347 
 667      16E803E2 
 668 16e3 672097C4 		.ascii	"g \227\304_\322+\272\275\342\227il E\037qPY\010\344"
 668      5FD22BBA 
 668      BDE29769 
 668      6C20451F 
 668      71505908 
 669 16f8 0BC3F2F9 		.ascii	"\013\303\362\371</\251\350\305\0008&\024\220%\331\207"
 669      3C2FA9E8 
 669      C5003826 
 669      149025D9 
 669      87
 670 1709 17EF0849 		.ascii	"\027\357\010I\226\023\311;0\220\007n\274`%\231\037\346"
 670      9613C93B 
 670      3090076E 
 670      BC602599 
 670      1FE6
 671 171b 814B4238 		.ascii	"\201KB8{`^@N\315\304\366\372\206\002\243\245PG\375\315"
 671      7B605E40 
 671      4ECDC4F6 
 671      FA8602A3 
 671      A55047FD 
 672 1730 EFDF1EEA 		.ascii	"\357\337\036\352\031\235+\373P@\037\232&!\200\026N\010"
 672      199D2BFB 
 672      50401F9A 
 672      26218016 
 672      4E08
 673 1742 E245080C 		.ascii	"\342E\010\014\023\202\303\342F%\020>\243\317\333\231"
 673      1382C3E2 
ARM GAS  /tmp/ccRNm400.s 			page 53


 673      4625103E 
 673      A3CFDB99 
 674 1752 03333332 		.ascii	"\003332\207\202\363\345\366\350>\274[W\342\370\217\275"
 674      8782F3E5 
 674      F6E83EBC 
 674      5B57E2F8 
 674      8FBD
 675 1764 97F9C690 		.ascii	"\227\371\306\220\241\376\241\020\370\372J\303\205\314"
 675      A1FEA110 
 675      F8FA4AC3 
 675      85CC
 676 1772 21C943FA 		.ascii	"!\311C\372e\366\033\362\373~}\273\012}c7\335<o\016\211"
 676      65F61BF2 
 676      FB7E7DBB 
 676      0A7D6337 
 676      DD3C6F0E 
 677 1787 DD75F7F4 		.ascii	"\335u\367\364\031\322-z\327\003\356\272G\357z\302]\217"
 677      19D22D7A 
 677      D703EEBA 
 677      47EF7AC2 
 677      5D8F
 678 1799 E8DDCBDE 		.ascii	"\350\335\313\336\376C\007\307\010_\361\025\204\305\220"
 678      FE4307C7 
 678      085FF115 
 678      84C590
 679 17a8 9C1ACE1E 		.ascii	"\234\032\316\0364\354C)K&\302{\302\331\371\020=\320"
 679      34EC4329 
 679      4B26C27B 
 679      C2D9F910 
 679      3DD0
 680 17ba 951383EA 		.ascii	"\225\023\203\352u\240\023C\251\0012s\350\333=\272g\274"
 680      75A01343 
 680      A9013273 
 680      E8DB3DBA 
 680      67BC
 681 17cc F556DF0C 		.ascii	"\365V\337\014"
 682 17d0 94647437 		.ascii	"\224dt7j<\177N\016\031\236|\341|I\312\366d\205\272A"
 682      6A3C7F4E 
 682      0E199E7C 
 682      E17C49CA 
 682      F66485BA 
 683 17e5 EA0EA907 		.ascii	"\352\016\251\007Uv\237`\336\360\300\210\304pv\246\014"
 683      55769F60 
 683      DEF0C088 
 683      C47076A6 
 683      0C
 684 17f6 1C2564E1 		.ascii	"\034%d\341m\002\271\015\346w$f\201a\010\272t_Q\026\007"
 684      6D02B90D 
 684      E6772466 
 684      816108BA 
 684      745F5116 
 685 180b A685B387 		.ascii	"\246\205\263\207H\240\356\260\214\267\020\234\006\276"
 685      48A0EEB0 
 685      8CB7109C 
 685      06BE
 686 1819 3B04EC3C 		.ascii	";\004\354<T5*\014\244\203\336\375Wbk\372 \215T\350/"
 686      54352A0C 
ARM GAS  /tmp/ccRNm400.s 			page 54


 686      A483DEFD 
 686      57626BFA 
 686      208D54E8 
 687 182e C9B1DB41 		.ascii	"\311\261\333A\357\016.\320nS\302\331\2049\210\223\001"
 687      EF0E2ED0 
 687      6E53C2D9 
 687      84398893 
 687      01
 688 183f F5554C17 		.ascii	"\365UL\027H\030\273M\2455\303\204Eh%3k\344\020\011\306"
 688      4818BB4D 
 688      A535C384 
 688      45682533 
 688      6BE41009 
 689 1854 5D29BB20 		.ascii	"])\273 G\312\354\240\262\021\226\344\201\035\010\214"
 689      47CAECA0 
 689      B21196E4 
 689      811D088C 
 690 1864 5A4C89D2 		.ascii	"ZL\211\322\004\363\237\314\032\331o\264\374f((fg\211"
 690      04F39FCC 
 690      1AD96FB4 
 690      FC662828 
 690      666789
 691 1877 61F95F48 		.ascii	"a\371_H_\030\230D\310\200\033R\030D\270$\362@5\235E"
 691      5F189844 
 691      C8801B52 
 691      1844B824 
 691      F240359D 
 692 188c A4707EDC 		.ascii	"\244p~\334 J,\020\014C\006\235\235\\A\327\217\223\353"
 692      204A2C10 
 692      0C43069D 
 692      9D5C41D7 
 692      8F93EB
 693 189f A0B08EC5 		.ascii	"\240\260\216\305.\344I?\342\273\014\023>\354\227\377"
 693      2EE4493F 
 693      E2BB0C13 
 693      3EEC97FF 
 694 18af 07CBCCEB 		.ascii	"\007\313\314\353\267"
 694      B7
 695              		.text
 696              		.section	.gnu.lto_.symtab.196e7101741f228,"",%progbits
 697 0000 7364496E 		.ascii	"sdInit\000\000\000\000\000\000\000\000\000\000\000\000"
 697      69740000 
 697      00000000 
 697      00000000 
 697      0000
 698 0012 E6010000 		.ascii	"\346\001\000\000sdObjectInit\000\000\000\000\000\000"
 698      73644F62 
 698      6A656374 
 698      496E6974 
 698      00000000 
 699 0028 00000000 		.ascii	"\000\000\000\000\000\000\352\001\000\000sdStart\000"
 699      0000EA01 
 699      00007364 
 699      53746172 
 699      7400
 700 003a 00000000 		.ascii	"\000\000\000\000\000\000\000\000\000\000\000G\002\000"
 700      00000000 
ARM GAS  /tmp/ccRNm400.s 			page 55


 700      00000047 
 700      0200
 701 0048 00736453 		.ascii	"\000sdStop\000\000\000\000\000\000\000\000\000\000\000"
 701      746F7000 
 701      00000000 
 701      00000000 
 701      0000
 702 005a 005F0200 		.ascii	"\000_\002\000\000sdIncomingDataI\000\000\000\000\000"
 702      00736449 
 702      6E636F6D 
 702      696E6744 
 702      61746149 
 703 0073 00000000 		.ascii	"\000\000\000\000\000\000\000e\002\000\000sdRequestD"
 703      00000065 
 703      02000073 
 703      64526571 
 703      75657374 
 704 0088 61746149 		.ascii	"ataI\000\000\000\000\000\000\000\000\000\000\000\000"
 704      00000000 
 704      00000000 
 704      00000000 
 705 0098 6D020000 		.ascii	"m\002\000\000chIQReadTimeout\000\000\002\000\000\000"
 705      63684951 
 705      52656164 
 705      54696D65 
 705      6F757400 
 706 00b1 00000000 		.ascii	"\000\000\000\000\000\000s\002\000\000chOQWriteTimeo"
 706      00007302 
 706      00006368 
 706      4F515772 
 706      69746554 
 707 00c9 75740000 		.ascii	"ut\000\000\002\000\000\000\000\000\000\000\000\000{"
 707      02000000 
 707      00000000 
 707      00007B
 708 00d8 02000063 		.ascii	"\002\000\000chIQGetTimeout\000\000\002\000\000\000\000"
 708      68495147 
 708      65745469 
 708      6D656F75 
 708      74000002 
 709 00f0 00000000 		.ascii	"\000\000\000\000\000\203\002\000\000chOQPutTimeout\000"
 709      00830200 
 709      0063684F 
 709      51507574 
 709      54696D65 
 710 0108 00020000 		.ascii	"\000\002\000\000\000\000\000\000\000\000\000\210\002"
 710      00000000 
 710      00000088 
 710      02
 711 0115 00007364 		.ascii	"\000\000sd_lld_init\000\000\002\000\000\000\000\000"
 711      5F6C6C64 
 711      5F696E69 
 711      74000002 
 711      00000000 
 712 012a 00000000 		.ascii	"\000\000\000\000\216\002\000\000chOQObjectInit\000\000"
 712      8E020000 
 712      63684F51 
ARM GAS  /tmp/ccRNm400.s 			page 56


 712      4F626A65 
 712      6374496E 
 713 0142 02000000 		.ascii	"\002\000\000\000\000\000\000\000\000\000\220\002\000"
 713      00000000 
 713      00009002 
 713      00
 714 014f 00636849 		.ascii	"\000chIQObjectInit\000\000\002\000\000\000\000\000\000"
 714      514F626A 
 714      65637449 
 714      6E697400 
 714      00020000 
 715 0167 00000098 		.ascii	"\000\000\000\230\002\000\000sd_lld_start\000\000\002"
 715      02000073 
 715      645F6C6C 
 715      645F7374 
 715      61727400 
 716 017d 00000000 		.ascii	"\000\000\000\000\000\000\000\000\000\240\002\000\000"
 716      00000000 
 716      00A00200 
 716      00
 717 018a 63685363 		.ascii	"chSchRescheduleS\000\000\002\000\000\000\000\000\000"
 717      68526573 
 717      63686564 
 717      756C6553 
 717      00000200 
 718 01a3 000000A2 		.ascii	"\000\000\000\242\002\000\000chIQResetI\000\000\002\000"
 718      02000063 
 718      68495152 
 718      65736574 
 718      49000002 
 719 01b8 00000000 		.ascii	"\000\000\000\000\000\000\000\000\244\002\000\000chO"
 719      00000000 
 719      A4020000 
 719      63684F
 720 01c7 51526573 		.ascii	"QResetI\000\000\002\000\000\000\000\000\000\000\000"
 720      65744900 
 720      00020000 
 720      00000000 
 720      0000
 721 01d9 00A80200 		.ascii	"\000\250\002\000\000sd_lld_stop\000\000\002\000\000"
 721      0073645F 
 721      6C6C645F 
 721      73746F70 
 721      00000200 
 722 01ee 00000000 		.ascii	"\000\000\000\000\000\000\000\254\002\000\000chEvtBr"
 722      000000AC 
 722      02000063 
 722      68457674 
 722      4272
 723 0200 6F616463 		.ascii	"oadcastFlagsI\000\000\002\000\000\000\000\000\000\000"
 723      61737446 
 723      6C616773 
 723      49000002 
 723      00000000 
 724 0217 0000AE02 		.ascii	"\000\000\256\002\000\000chIQPutI\000\000\002\000\000"
 724      00006368 
 724      49515075 
ARM GAS  /tmp/ccRNm400.s 			page 57


 724      74490000 
 724      020000
 725 022a 00000000 		.ascii	"\000\000\000\000\000\000\000\264\002\000\000chOQGet"
 725      000000B4 
 725      02000063 
 725      684F5147 
 725      6574
 726 023c 49000002 		.ascii	"I\000\000\002\000\000\000\000\000\000\000\000\000\271"
 726      00000000 
 726      00000000 
 726      00B9
 727 024a 020000   		.ascii	"\002\000\000"
 728              		.text
 729              		.section	.gnu.lto_.opts,"",%progbits
 730 0000 272D6D63 		.ascii	"'-mcpu=cortex-m3' '-mno-thumb-interwork' '-mthumb' "
 730      70753D63 
 730      6F727465 
 730      782D6D33 
 730      2720272D 
 731 0033 272D4F32 		.ascii	"'-O2' '-fomit-frame-pointer' '-falign-functions=16'"
 731      2720272D 
 731      666F6D69 
 731      742D6672 
 731      616D652D 
 732 0066 20272D66 		.ascii	" '-ffunction-sections' '-fdata-sections' '-fno-comm"
 732      66756E63 
 732      74696F6E 
 732      2D736563 
 732      74696F6E 
 733 0099 6F6E2720 		.ascii	"on' '-flto'\000"
 733      272D666C 
 733      746F2700 
 734              		.text
 735              		.section	.text.readt,"ax",%progbits
 736              		.align	2
 737              		.p2align 4,,15
 738              		.thumb
 739              		.thumb_func
 740              		.type	readt, %function
 741              	readt:
 742              		@ args = 0, pretend = 0, frame = 0
 743              		@ frame_needed = 0, uses_anonymous_args = 0
 744              		@ link register save eliminated.
 745 0000 0C30     		adds	r0, r0, #12
 746 0002 FFF7FEBF 		b	chIQReadTimeout
 747              		.size	readt, .-readt
 748 0006 00BFAFF3 		.section	.text.read,"ax",%progbits
 748      0080AFF3 
 748      0080
 749              		.align	2
 750              		.p2align 4,,15
 751              		.thumb
 752              		.thumb_func
 753              		.type	read, %function
 754              	read:
 755              		@ args = 0, pretend = 0, frame = 0
 756              		@ frame_needed = 0, uses_anonymous_args = 0
ARM GAS  /tmp/ccRNm400.s 			page 58


 757              		@ link register save eliminated.
 758 0000 0C30     		adds	r0, r0, #12
 759 0002 4FF6FF73 		movw	r3, #65535
 760 0006 FFF7FEBF 		b	chIQReadTimeout
 761              		.size	read, .-read
 762 000a 00BFAFF3 		.section	.text.writet,"ax",%progbits
 762      0080
 763              		.align	2
 764              		.p2align 4,,15
 765              		.thumb
 766              		.thumb_func
 767              		.type	writet, %function
 768              	writet:
 769              		@ args = 0, pretend = 0, frame = 0
 770              		@ frame_needed = 0, uses_anonymous_args = 0
 771              		@ link register save eliminated.
 772 0000 3030     		adds	r0, r0, #48
 773 0002 FFF7FEBF 		b	chOQWriteTimeout
 774              		.size	writet, .-writet
 775 0006 00BFAFF3 		.section	.text.write,"ax",%progbits
 775      0080AFF3 
 775      0080
 776              		.align	2
 777              		.p2align 4,,15
 778              		.thumb
 779              		.thumb_func
 780              		.type	write, %function
 781              	write:
 782              		@ args = 0, pretend = 0, frame = 0
 783              		@ frame_needed = 0, uses_anonymous_args = 0
 784              		@ link register save eliminated.
 785 0000 3030     		adds	r0, r0, #48
 786 0002 4FF6FF73 		movw	r3, #65535
 787 0006 FFF7FEBF 		b	chOQWriteTimeout
 788              		.size	write, .-write
 789 000a 00BFAFF3 		.section	.text.gett,"ax",%progbits
 789      0080
 790              		.align	2
 791              		.p2align 4,,15
 792              		.thumb
 793              		.thumb_func
 794              		.type	gett, %function
 795              	gett:
 796              		@ args = 0, pretend = 0, frame = 0
 797              		@ frame_needed = 0, uses_anonymous_args = 0
 798              		@ link register save eliminated.
 799 0000 0C30     		adds	r0, r0, #12
 800 0002 FFF7FEBF 		b	chIQGetTimeout
 801              		.size	gett, .-gett
 802 0006 00BFAFF3 		.section	.text.get,"ax",%progbits
 802      0080AFF3 
 802      0080
 803              		.align	2
 804              		.p2align 4,,15
 805              		.thumb
 806              		.thumb_func
 807              		.type	get, %function
ARM GAS  /tmp/ccRNm400.s 			page 59


 808              	get:
 809              		@ args = 0, pretend = 0, frame = 0
 810              		@ frame_needed = 0, uses_anonymous_args = 0
 811              		@ link register save eliminated.
 812 0000 0C30     		adds	r0, r0, #12
 813 0002 4FF6FF71 		movw	r1, #65535
 814 0006 FFF7FEBF 		b	chIQGetTimeout
 815              		.size	get, .-get
 816 000a 00BFAFF3 		.section	.text.putt,"ax",%progbits
 816      0080
 817              		.align	2
 818              		.p2align 4,,15
 819              		.thumb
 820              		.thumb_func
 821              		.type	putt, %function
 822              	putt:
 823              		@ args = 0, pretend = 0, frame = 0
 824              		@ frame_needed = 0, uses_anonymous_args = 0
 825              		@ link register save eliminated.
 826 0000 3030     		adds	r0, r0, #48
 827 0002 FFF7FEBF 		b	chOQPutTimeout
 828              		.size	putt, .-putt
 829 0006 00BFAFF3 		.section	.text.put,"ax",%progbits
 829      0080AFF3 
 829      0080
 830              		.align	2
 831              		.p2align 4,,15
 832              		.thumb
 833              		.thumb_func
 834              		.type	put, %function
 835              	put:
 836              		@ args = 0, pretend = 0, frame = 0
 837              		@ frame_needed = 0, uses_anonymous_args = 0
 838              		@ link register save eliminated.
 839 0000 3030     		adds	r0, r0, #48
 840 0002 4FF6FF72 		movw	r2, #65535
 841 0006 FFF7FEBF 		b	chOQPutTimeout
 842              		.size	put, .-put
 843 000a 00BFAFF3 		.section	.text.sdInit,"ax",%progbits
 843      0080
 844              		.align	2
 845              		.p2align 4,,15
 846              		.global	sdInit
 847              		.thumb
 848              		.thumb_func
 849              		.type	sdInit, %function
 850              	sdInit:
 851              		@ args = 0, pretend = 0, frame = 0
 852              		@ frame_needed = 0, uses_anonymous_args = 0
 853              		@ link register save eliminated.
 854 0000 FFF7FEBF 		b	sd_lld_init
 855              		.size	sdInit, .-sdInit
 856 0004 AFF30080 		.section	.text.sdObjectInit,"ax",%progbits
 856      AFF30080 
 856      AFF30080 
 857              		.align	2
 858              		.p2align 4,,15
ARM GAS  /tmp/ccRNm400.s 			page 60


 859              		.global	sdObjectInit
 860              		.thumb
 861              		.thumb_func
 862              		.type	sdObjectInit, %function
 863              	sdObjectInit:
 864              		@ args = 0, pretend = 0, frame = 0
 865              		@ frame_needed = 0, uses_anonymous_args = 0
 866 0000 70B5     		push	{r4, r5, r6, lr}
 867 0002 0E4D     		ldr	r5, .L11
 868 0004 0446     		mov	r4, r0
 869 0006 82B0     		sub	sp, sp, #8
 870 0008 40F8045B 		str	r5, [r0], #4
 871 000c 0126     		movs	r6, #1
 872 000e 0094     		str	r4, [sp]
 873 0010 0B46     		mov	r3, r1
 874 0012 1546     		mov	r5, r2
 875 0014 6060     		str	r0, [r4, #4]
 876 0016 04F15401 		add	r1, r4, #84
 877 001a 04F10C00 		add	r0, r4, #12
 878 001e 2672     		strb	r6, [r4, #8]
 879 0020 1022     		movs	r2, #16
 880 0022 FFF7FEFF 		bl	chIQObjectInit
 881 0026 0094     		str	r4, [sp]
 882 0028 2B46     		mov	r3, r5
 883 002a 04F13000 		add	r0, r4, #48
 884 002e 04F16401 		add	r1, r4, #100
 885 0032 1022     		movs	r2, #16
 886 0034 FFF7FEFF 		bl	chOQObjectInit
 887 0038 02B0     		add	sp, sp, #8
 888              		@ sp needed
 889 003a 70BD     		pop	{r4, r5, r6, pc}
 890              	.L12:
 891              		.align	2
 892              	.L11:
 893 003c 00000000 		.word	.LANCHOR0
 894              		.size	sdObjectInit, .-sdObjectInit
 895              		.section	.text.sdStart,"ax",%progbits
 896              		.align	2
 897              		.p2align 4,,15
 898              		.global	sdStart
 899              		.thumb
 900              		.thumb_func
 901              		.type	sdStart, %function
 902              	sdStart:
 903              		@ args = 0, pretend = 0, frame = 0
 904              		@ frame_needed = 0, uses_anonymous_args = 0
 905 0000 10B5     		push	{r4, lr}
 906 0002 2023     		movs	r3, #32
 907 0004 0446     		mov	r4, r0
 908              	@ 546 "/home/cody/dev/chibios/trunk/os/ext/CMSIS/include/core_cmFunc.h" 1
 909 0006 83F31188 		MSR basepri, r3
 910              	@ 0 "" 2
 911              		.thumb
 912 000a FFF7FEFF 		bl	sd_lld_start
 913 000e 0223     		movs	r3, #2
 914 0010 2372     		strb	r3, [r4, #8]
 915 0012 0023     		movs	r3, #0
ARM GAS  /tmp/ccRNm400.s 			page 61


 916              	@ 546 "/home/cody/dev/chibios/trunk/os/ext/CMSIS/include/core_cmFunc.h" 1
 917 0014 83F31188 		MSR basepri, r3
 918              	@ 0 "" 2
 919              		.thumb
 920 0018 10BD     		pop	{r4, pc}
 921              		.size	sdStart, .-sdStart
 922              		.section	.text.sdStop,"ax",%progbits
 923              		.align	2
 924              		.p2align 4,,15
 925              		.global	sdStop
 926              		.thumb
 927              		.thumb_func
 928              		.type	sdStop, %function
 929              	sdStop:
 930              		@ args = 0, pretend = 0, frame = 0
 931              		@ frame_needed = 0, uses_anonymous_args = 0
 932 0000 10B5     		push	{r4, lr}
 933 0002 2023     		movs	r3, #32
 934 0004 0446     		mov	r4, r0
 935              	@ 546 "/home/cody/dev/chibios/trunk/os/ext/CMSIS/include/core_cmFunc.h" 1
 936 0006 83F31188 		MSR basepri, r3
 937              	@ 0 "" 2
 938              		.thumb
 939 000a FFF7FEFF 		bl	sd_lld_stop
 940 000e 0123     		movs	r3, #1
 941 0010 2372     		strb	r3, [r4, #8]
 942 0012 04F13000 		add	r0, r4, #48
 943 0016 FFF7FEFF 		bl	chOQResetI
 944 001a 04F10C00 		add	r0, r4, #12
 945 001e FFF7FEFF 		bl	chIQResetI
 946 0022 FFF7FEFF 		bl	chSchRescheduleS
 947 0026 0023     		movs	r3, #0
 948              	@ 546 "/home/cody/dev/chibios/trunk/os/ext/CMSIS/include/core_cmFunc.h" 1
 949 0028 83F31188 		MSR basepri, r3
 950              	@ 0 "" 2
 951              		.thumb
 952 002c 10BD     		pop	{r4, pc}
 953              		.size	sdStop, .-sdStop
 954 002e 00BF     		.section	.text.sdIncomingDataI,"ax",%progbits
 955              		.align	2
 956              		.p2align 4,,15
 957              		.global	sdIncomingDataI
 958              		.thumb
 959              		.thumb_func
 960              		.type	sdIncomingDataI, %function
 961              	sdIncomingDataI:
 962              		@ args = 0, pretend = 0, frame = 0
 963              		@ frame_needed = 0, uses_anonymous_args = 0
 964 0000 38B5     		push	{r3, r4, r5, lr}
 965 0002 4369     		ldr	r3, [r0, #20]
 966 0004 0446     		mov	r4, r0
 967 0006 0D46     		mov	r5, r1
 968 0008 3BB1     		cbz	r3, .L19
 969 000a 2946     		mov	r1, r5
 970 000c 04F10C00 		add	r0, r4, #12
 971 0010 FFF7FEFF 		bl	chIQPutI
 972 0014 0028     		cmp	r0, #0
ARM GAS  /tmp/ccRNm400.s 			page 62


 973 0016 0BDB     		blt	.L20
 974              	.L15:
 975 0018 38BD     		pop	{r3, r4, r5, pc}
 976              	.L19:
 977 001a 0430     		adds	r0, r0, #4
 978 001c 0421     		movs	r1, #4
 979 001e FFF7FEFF 		bl	chEvtBroadcastFlagsI
 980 0022 2946     		mov	r1, r5
 981 0024 04F10C00 		add	r0, r4, #12
 982 0028 FFF7FEFF 		bl	chIQPutI
 983 002c 0028     		cmp	r0, #0
 984 002e F3DA     		bge	.L15
 985              	.L20:
 986 0030 201D     		adds	r0, r4, #4
 987 0032 8021     		movs	r1, #128
 988 0034 BDE83840 		pop	{r3, r4, r5, lr}
 989 0038 FFF7FEBF 		b	chEvtBroadcastFlagsI
 990              		.size	sdIncomingDataI, .-sdIncomingDataI
 991 003c AFF30080 		.section	.text.sdRequestDataI,"ax",%progbits
 992              		.align	2
 993              		.p2align 4,,15
 994              		.global	sdRequestDataI
 995              		.thumb
 996              		.thumb_func
 997              		.type	sdRequestDataI, %function
 998              	sdRequestDataI:
 999              		@ args = 0, pretend = 0, frame = 0
 1000              		@ frame_needed = 0, uses_anonymous_args = 0
 1001 0000 38B5     		push	{r3, r4, r5, lr}
 1002 0002 0446     		mov	r4, r0
 1003 0004 3030     		adds	r0, r0, #48
 1004 0006 FFF7FEFF 		bl	chOQGetI
 1005 000a 051E     		subs	r5, r0, #0
 1006 000c 01DB     		blt	.L23
 1007 000e 2846     		mov	r0, r5
 1008 0010 38BD     		pop	{r3, r4, r5, pc}
 1009              	.L23:
 1010 0012 201D     		adds	r0, r4, #4
 1011 0014 0821     		movs	r1, #8
 1012 0016 FFF7FEFF 		bl	chEvtBroadcastFlagsI
 1013 001a 2846     		mov	r0, r5
 1014 001c 38BD     		pop	{r3, r4, r5, pc}
 1015              		.size	sdRequestDataI, .-sdRequestDataI
 1016 001e 00BF     		.section	.rodata.vmt,"a",%progbits
 1017              		.align	2
 1018              		.set	.LANCHOR0,. + 0
 1019              		.type	vmt, %object
 1020              		.size	vmt, 32
 1021              	vmt:
 1022 0000 00000000 		.word	write
 1023 0004 00000000 		.word	read
 1024 0008 00000000 		.word	put
 1025 000c 00000000 		.word	get
 1026 0010 00000000 		.word	putt
 1027 0014 00000000 		.word	gett
 1028 0018 00000000 		.word	writet
 1029 001c 00000000 		.word	readt
ARM GAS  /tmp/ccRNm400.s 			page 63


 1030              		.comm	__gnu_lto_v1,1,1
 1031              		.ident	"GCC: (GNU Tools for ARM Embedded Processors) 4.8.4 20140526 (release) [ARM/embedded-4_8-br
ARM GAS  /tmp/ccRNm400.s 			page 64


DEFINED SYMBOLS
                            *ABS*:0000000000000000 serial.c
     /tmp/ccRNm400.s:736    .text.readt:0000000000000000 $t
     /tmp/ccRNm400.s:741    .text.readt:0000000000000000 readt
     /tmp/ccRNm400.s:749    .text.read:0000000000000000 $t
     /tmp/ccRNm400.s:754    .text.read:0000000000000000 read
     /tmp/ccRNm400.s:763    .text.writet:0000000000000000 $t
     /tmp/ccRNm400.s:768    .text.writet:0000000000000000 writet
     /tmp/ccRNm400.s:776    .text.write:0000000000000000 $t
     /tmp/ccRNm400.s:781    .text.write:0000000000000000 write
     /tmp/ccRNm400.s:790    .text.gett:0000000000000000 $t
     /tmp/ccRNm400.s:795    .text.gett:0000000000000000 gett
     /tmp/ccRNm400.s:803    .text.get:0000000000000000 $t
     /tmp/ccRNm400.s:808    .text.get:0000000000000000 get
     /tmp/ccRNm400.s:817    .text.putt:0000000000000000 $t
     /tmp/ccRNm400.s:822    .text.putt:0000000000000000 putt
     /tmp/ccRNm400.s:830    .text.put:0000000000000000 $t
     /tmp/ccRNm400.s:835    .text.put:0000000000000000 put
     /tmp/ccRNm400.s:844    .text.sdInit:0000000000000000 $t
     /tmp/ccRNm400.s:850    .text.sdInit:0000000000000000 sdInit
     /tmp/ccRNm400.s:857    .text.sdObjectInit:0000000000000000 $t
     /tmp/ccRNm400.s:863    .text.sdObjectInit:0000000000000000 sdObjectInit
     /tmp/ccRNm400.s:893    .text.sdObjectInit:000000000000003c $d
     /tmp/ccRNm400.s:896    .text.sdStart:0000000000000000 $t
     /tmp/ccRNm400.s:902    .text.sdStart:0000000000000000 sdStart
     /tmp/ccRNm400.s:923    .text.sdStop:0000000000000000 $t
     /tmp/ccRNm400.s:929    .text.sdStop:0000000000000000 sdStop
     /tmp/ccRNm400.s:955    .text.sdIncomingDataI:0000000000000000 $t
     /tmp/ccRNm400.s:961    .text.sdIncomingDataI:0000000000000000 sdIncomingDataI
     /tmp/ccRNm400.s:992    .text.sdRequestDataI:0000000000000000 $t
     /tmp/ccRNm400.s:998    .text.sdRequestDataI:0000000000000000 sdRequestDataI
     /tmp/ccRNm400.s:1017   .rodata.vmt:0000000000000000 $d
     /tmp/ccRNm400.s:1021   .rodata.vmt:0000000000000000 vmt
                            *COM*:0000000000000001 __gnu_lto_v1

UNDEFINED SYMBOLS
chIQReadTimeout
chOQWriteTimeout
chIQGetTimeout
chOQPutTimeout
sd_lld_init
chIQObjectInit
chOQObjectInit
sd_lld_start
sd_lld_stop
chOQResetI
chIQResetI
chSchRescheduleS
chIQPutI
chEvtBroadcastFlagsI
chOQGetI
