ARM GAS  /tmp/cccn1nd4.s 			page 1


   1              		.syntax unified
   2              		.cpu cortex-m4
   3              		.eabi_attribute 27, 3
   4              		.eabi_attribute 28, 1
   5              		.fpu fpv4-sp-d16
   6              		.eabi_attribute 20, 1
   7              		.eabi_attribute 21, 1
   8              		.eabi_attribute 23, 3
   9              		.eabi_attribute 24, 1
  10              		.eabi_attribute 25, 1
  11              		.eabi_attribute 26, 1
  12              		.eabi_attribute 30, 2
  13              		.eabi_attribute 34, 1
  14              		.eabi_attribute 18, 4
  15              		.thumb
  16              		.file	"serial.c"
  17              		.section	.gnu.lto_.jmpfuncs.b1f509b035e3fc14,"",%progbits
  18 0000 789C7551 		.ascii	"x\234uQ\333\021\3020\014\223\354\264\201\343\321\216"
  18      DB11C230 
  18      0C93ECB4 
  18      81E3D18E 
  19 0010 C0288CC1 		.ascii	"\300(\214\301'\277Y\240\337\335\210\021\301II\301\205"
  19      27BF59A0 
  19      DFDD8811 
  19      C14949C1 
  19      85
  20 0021 F872D1D9 		.ascii	"\370r\321\331\226e\345\"\020\374\213\007\027<c\010\341"
  20      9665E522 
  20      10FC8B07 
  20      173C6308 
  20      E1
  21 0032 9E2C23D4 		.ascii	"\236,#\324\256\251\200L\310\240\006\214\215\276\334"
  21      AEA9804C 
  21      C8A0068C 
  21      8DBEDC
  22 0041 98C8A7C5 		.ascii	"\230\310\247\305`\211\251\314\232(-\031\215-\202\323"
  22      6089A9CC 
  22      9A282D19 
  22      8D2D82D3 
  23 0051 092A6E1B 		.ascii	"\011*n\033\320q\2558f\037\325\013\242\012F\375\351\270"
  23      D071AD38 
  23      661FD50B 
  23      A20A46FD 
  23      E9B8
  24 0063 C91DB08F 		.ascii	"\311\035\260\217\335\233\222\243tu\304\227e\344\315"
  24      DD9B92A3 
  24      7475C497 
  24      65E4CD
  25 0072 CBDE2D83 		.ascii	"\313\336-\203+\203\274\346z \016Z\224\216D1\232\317"
  25      2B83BCE6 
  25      7A200E5A 
  25      948E4431 
  25      9ACF
  26 0084 C95E7249 		.ascii	"\311^rI\354\352t?[Q\252d\365\345)\301\376\203\233\232"
  26      ECEA743F 
  26      5B51AA64 
  26      F5E529C1 
ARM GAS  /tmp/cccn1nd4.s 			page 2


  26      FE839B9A 
  27 0098 B9E5C7EB 		.ascii	"\271\345\307\353\013\300\226/\352"
  27      0BC0962F 
  27      EA
  28              		.text
  29              		.section	.gnu.lto_.inline.b1f509b035e3fc14,"",%progbits
  30 0000 789C8550 		.ascii	"x\234\205P;\022\2020\020}\371\021b\370(\21536\024\026"
  30      3B128230 
  30      107DF911 
  30      62F8288D 
  30      33361416 
  31 0014 B4561EC1 		.ascii	"\264V\036\301\222sQr\004J\216\340Q<\216\233@P\234\214"
  31      92735172 
  31      044A8EE0 
  31      513C8E9B 
  31      40509C8C 
  32 0028 4966F6F7 		.ascii	"If\366\367\336\276\315\206\203#v\304Z\256\000sb\014"
  32      DEBECD86 
  32      832376C4 
  32      5AAE0073 
  32      620C
  33 003a 8C6257CA 		.ascii	"\214bW\312\246\326#Y\015\310\261_.Kr\250\236\226\021"
  33      A6D62359 
  33      0DC8B15F 
  33      2E4B72A8 
  33      9E9611
  34 004d 6919095D 		.ascii	"i\031\011]G(\262\244\334\021\324_\034\031\362c\004V"
  34      4728B2A4 
  34      DC11D45F 
  34      1C19F263 
  34      0456
  35 005f B4A55826 		.ascii	"\264\245X&\350\004\0039d\301v\030;\2201h\256\241O<\317"
  35      E8040339 
  35      64C17618 
  35      3B903168 
  35      AEA14F3C 
  36 0074 30AFFBF6 		.ascii	"0\257\373\366x\345\033\235\331g\326\355\013\256\206"
  36      78E51B9D 
  36      D967D6ED 
  36      0BAE86
  37 0083 0E7AE83C 		.ascii	"\016z\350<]\024\353\"\005\312[\320\373&\370a\334R0\366"
  37      5D14EB22 
  37      05CA5BD0 
  37      FB26F861 
  37      DC5230F6 
  38 0097 7B57A2B9 		.ascii	"{W\242\271\204\0163?~%?\177\024\012\025l\023\032\344"
  38      840E333F 
  38      7E253F7F 
  38      140A156C 
  38      131AE4
  39 00aa D46EFB04 		.ascii	"\324n\373\004\334y\322\305\033P\2376|"
  39      DC79D2C5 
  39      1B509F36 
  39      7C
  40              		.text
  41              		.section	.gnu.lto_.pureconst.b1f509b035e3fc14,"",%progbits
  42 0000 789C6362 		.ascii	"x\234cb`b\220e\200\000>\006\011F\011&\011f\011\026\011"
ARM GAS  /tmp/cccn1nd4.s 			page 3


  42      60629065 
  42      80003E06 
  42      09460926 
  42      09660916 
  43 0015 56093609 		.ascii	"V\0116\011v\011\016\011N)n+\036+^I>\011\000\036?\002"
  43      76090E09 
  43      4E296E2B 
  43      1E2B5E49 
  43      3E09001E 
  44 002b 26       		.ascii	"&"
  45              		.text
  46              		.section	.gnu.lto_readt.b1f509b035e3fc14,"",%progbits
  47 0000 789C5D50 		.ascii	"x\234]P\275J\003A\030\234\331\373\341\354l\265\022\354"
  47      BD4A0341 
  47      189CD9FB 
  47      E1EC6CB5 
  47      12EC
  48 0012 14B288AF 		.ascii	"\024\262\210\257\022A\313\313\346\330[L<\270SAS\344"
  48      1241CBCB 
  48      E6D85B4C 
  48      3CB85341 
  48      53E4
  49 0024 FC416D84 		.ascii	"\374Am\204\324Z\371\002\372\006\022++\025\337@_\302"
  49      D45AF902 
  49      FA06122B 
  49      2B15DF40 
  49      5FC2
  50 0036 409AF8ED 		.ascii	"@\232\370\355\005E\\\230\371\206ef\366c\025\024\376"
  50      05455C98 
  50      F9866566 
  50      F6631514 
  50      FE
  51 0047 9F25C1A7 		.ascii	"\237%\301\247`S\300\000T\243W\340$Q\244\027 \206\212"
  51      6053C000 
  51      54A357E0 
  51      2451A417 
  51      20868A
  52 005a C31D36DE 		.ascii	"\303\0356\336\0075\376\230\315\356\277.\236\237\370"
  52      0735FE98 
  52      CDEEBF2E 
  52      9E9FF8
  53 0069 B8BA40F6 		.ascii	"\270\272@\366)\215\216\010E1\022R\261P\220\310\235O"
  53      298D8E08 
  53      45311252 
  53      B15090C8 
  53      9D4F
  54 007b 4438AFEB 		.ascii	"D8\257\353\321\012`\232|[\330\227nQ\371\031\274\340"
  54      D10A609A 
  54      7C5BD897 
  54      6E51F919 
  54      BCE0
  55 008d 747A36B9 		.ascii	"tz6\271^Ny\307\010\226j\200c)[\307\232\243\272\305\015"
  55      5E4E79C7 
  55      08966A80 
  55      63295BC7 
  55      9AA3BAC5 
  56 00a2 1D034B6E 		.ascii	"\035\003Kn\313\014\233\367;\374\263\370\033.\307\301"
ARM GAS  /tmp/cccn1nd4.s 			page 4


  56      CB0C9BF7 
  56      3BFCB3F8 
  56      1B2EC7C1 
  57 00b2 4F341960 		.ascii	"O4\031`Z_\325\213\216\221\341\334%}\226\241ed\031;\306"
  57      5A5FD58B 
  57      8E91E1DC 
  57      257D96A1 
  57      6564193B 
  58 00c7 C03BF86B 		.ascii	"\300;\370k\237W\264\305*\213\370O\331\320y\321\317\264"
  58      9F57B4C5 
  58      2A8BF84F 
  58      D9D079D1 
  58      CFB4
  59 00d9 29BA47BA 		.ascii	")\272G\272\233\035j\223\273\216+*\275_\036\354\355j"
  59      9B1D6A93 
  59      BB8E2B2A 
  59      BD5F1EEC 
  59      ED6A
  60 00eb 1179DAD3 		.ascii	"\021y\332\323Uit\225\225.\355\265\014\276\001\316kB"
  60      55697495 
  60      952EEDB5 
  60      0CBE01CE 
  60      6B42
  61 00fd 40       		.ascii	"@"
  62              		.text
  63              		.section	.gnu.lto_read.b1f509b035e3fc14,"",%progbits
  64 0000 789C5D50 		.ascii	"x\234]PMK\303@\024\234\331dMo\352\321\233g\205.\342"
  64      4D4BC340 
  64      149CD964 
  64      4D6FEAD1 
  64      9B67852E 
  65 0015 5FA9A0C7 		.ascii	"_\251\240\307t\033\222\305\326@\242\202\366\320\370"
  65      741B92C5 
  65      D640A282 
  65      F6D0F8
  66 0024 01F6D8B3 		.ascii	"\001\366\330\263\236\374\003z\362\336?\240R\374\003"
  66      9EFC037A 
  66      F2DE3FA0 
  66      52FC03
  67 0033 42FF84D4 		.ascii	"B\377\204\324C\3726E\021\037\314{\263\360f\336\260\012"
  67      43FA3645 
  67      111FCC7B 
  67      B3F066DE 
  67      B00A
  68 0045 0AFF6B4B 		.ascii	"\012\377kK0\027\354\013\030\200j\362\006\\\265\024\351"
  68      3017EC0B 
  68      18806AF2 
  68      065CB514 
  68      E9
  69 0056 098891E2 		.ascii	"\011\210\221\342\350\210\315\356\263\232~\326\365\323"
  69      E888CDEE 
  69      B39A7ED6 
  69      F5D3
  70 0064 D7CB7CCC 		.ascii	"\327\313|\314\315\0269\240\030:\"\024F-ME\362\364\273"
  70      CD1639A0 
  70      183A2214 
  70      462D4D45 
ARM GAS  /tmp/cccn1nd4.s 			page 5


  70      F2F4BB
  71 0077 1AB75535 		.ascii	"\032\267U5\331\006l\243\354H\367v\007T~\006\257\270"
  71      D9066CA3 
  71      EC48F776 
  71      07547E06 
  71      AFB8
  72 0089 5EDC7C7F 		.ascii	"^\334|\1770\346#5R\252!.\305g\027;\216\352\001\367t"
  72      30E62335 
  72      52AA212E 
  72      C567173B 
  72      8EEA01F7 
  73 009e 0C52F250 		.ascii	"\014R\362Pf\330\\\356\362O\344w\334M\203\037i4\304\242"
  73      66D85CEE 
  73      F24FE477 
  73      DC4D831F 
  73      6934C4A2 
  74 00b2 1A571B8E 		.ascii	"\032W\033\216\332r\265%~)\303\224\332\353\327j\251u"
  74      DA72B525 
  74      7E29C394 
  74      DAEBD76A 
  74      A975
  75 00c4 89150133 		.ascii	"\211\025\0013\374^\214VV\035\221H \377-{&\313\007\211"
  75      FC5E8C56 
  75      561D9148 
  75      20FF2D7B 
  75      26CB0789 
  76 00d8 B179EFC2 		.ascii	"\261y\357\302\364\222sc3\327uyiN\213\263\223c#$\213"
  76      F4927363 
  76      33D77579 
  76      694E8BB3 
  76      93632324 
  77 00ed FBA62CAC 		.ascii	"\373\246,\254)\223\302\305\375\266\305\022I\\E\242"
  77      2993C2C5 
  77      FDB6C512 
  77      495C45A2 
  78              		.text
  79              		.section	.gnu.lto_writet.b1f509b035e3fc14,"",%progbits
  80 0000 789C5D50 		.ascii	"x\234]P\275J\003A\030\234\331\273=\316\316V+\301N!\213"
  80      BD4A0341 
  80      189CD9BB 
  80      3DCECE56 
  80      2BC14E21 
  81 0015 F82A11B4 		.ascii	"\370*\021\264\274l\216\273\305$\007w*h\212\234?\240"
  81      BC6C8EBB 
  81      C5240777 
  81      2A688A9C 
  81      3FA0
  82 0027 8D905A2B 		.ascii	"\215\220Z+_@k\273\330\330\031\261\267P|\2134\361\333"
  82      5F406BBB 
  82      D8D819B1 
  82      B7507C8B 
  82      34F1DB
  83 003a 0B8AB830 		.ascii	"\013\212\2700\363\015\313\314\354\307*(\374?+\202O\301"
  83      F30DCBCC 
  83      ECC72A28 
  83      FC3F2B82 
  83      4FC1
ARM GAS  /tmp/cccn1nd4.s 			page 6


  84 004c B68001A8 		.ascii	"\266\200\001\250\306S\3404V\244\027 F\212\243=6\336"
  84      C653E034 
  84      56A41720 
  84      468AA33D 
  84      36DE
  85 005e 0735F998 		.ascii	"\0075\371\230\317\357\337\237\247O|\\_\"\373\224FG\204"
  85      CFEFDF9F 
  85      A74F7C5C 
  85      5F22FB94 
  85      464784
  86 0071 A2A88554 		.ascii	"\242\250\205T$\024\304r\347\023\032\027u=^\003l\223"
  86      2414C472 
  86      E7131A17 
  86      753D5E03 
  86      6C93
  87 0083 6F0BFBD2 		.ascii	"o\013\373\322\035*?\203\027\234\315\316\277\256W\023"
  87      1D2A3F83 
  87      179CCDCE 
  87      BFAE5713 
  88 0093 DE5123A3 		.ascii	"\336Q#\243\032\342D\3126\261\341\250nqC\307 #we\206"
  88      1AE244CA 
  88      36B1E1A8 
  88      6E7143C7 
  88      20237765 
  89 00a8 CDFB1DFE 		.ascii	"\315\373\035\376Y\374\025\227\223\340'\032\0171\253"
  89      59FC1597 
  89      93E0271A 
  89      0F31AB
  90 00b7 AFEA6547 		.ascii	"\257\352eGm\271pI_\3060\243\316\0309F\300\033\370k_"
  90      6DB97049 
  90      5FC630A3 
  90      CE183946 
  90      C01BF86B 
  91 00cc 54B4C52A 		.ascii	"T\264\305*\213\370O\3312y\321O\215-\272\307\246\233"
  91      8BF84FD9 
  91      3279D14F 
  91      8D2DBAC7 
  91      A69B
  92 00de 1E199BBB 		.ascii	"\036\031\233\273\216+*sP\036\016\366\215\210<\351\231"
  92      8E2B2A73 
  92      501E0EF6 
  92      8D883CE9 
  92      99
  93 00ef AAB4A64A 		.ascii	"\252\264\246JK\227\364Z\026\337\350\262BT"
  93      4B97F45A 
  93      16DFE8B2 
  93      4254
  94              		.text
  95              		.section	.gnu.lto_write.b1f509b035e3fc14,"",%progbits
  96 0000 789C5D50 		.ascii	"x\234]P\273N\303@\020\234Y\3338\035\264t\324 qB\374"
  96      BB4EC340 
  96      109C59DB 
  96      381DB474 
  96      D4207142 
  97 0015 4A90A074 		.ascii	"J\220\240t.\226}\"\301\222\015H$E\314C\20225T\374\000"
  97      2E967D22 
  97      C1920D48 
ARM GAS  /tmp/cccn1nd4.s 			page 7


  97      2445CC43 
  97      82323554 
  98 002b FC427E00 		.ascii	"\374B~\000\020\242\245@\344\013h\323\230=G \304J\263"
  98      10A2A540 
  98      E40B68D3 
  98      983D4720 
  98      C44AB3
  99 003e 3B27EDCC 		.ascii	";'\355\314\216N \370_\353\212O\305\256\202\001(\323"
  99      8E4E20F8 
  99      5FEB8A4F 
  99      C5AE8201 
  99      28D3
 100 0050 67E0BC23 		.ascii	"g\340\274#\244' &\302\311\001\333\335G\231}4\315\303"
 100      A4272026 
 100      C2C901DB 
 100      DD47997D 
 100      34CDC3
 101 0063 FBD77CC4 		.ascii	"\373\327|\304\0169\244\3729\"T\306H\233\304\372\364"
 101      0E39A4FA 
 101      392254C6 
 101      489BC4FA 
 101      F4
 102 0074 AB11AEEA 		.ascii	"\253\021\256\352z\272\001\330V\330\325\356\335\366("
 102      7ABA01D8 
 102      56D8D5EE 
 102      DDF628
 103 0083 7E064FB8 		.ascii	"~\006O\270X\\\316\337\230\360\236\0212\312\030#\365"
 103      585CCEDF 
 103      98F09E11 
 103      32CA1823 
 103      F5
 104 0094 D9C2A6A3 		.ascii	"\331\302\246\243\334\341\226\216AF\356\353\014\333\303"
 104      DCE1968E 
 104      4146EEEB 
 104      0CDBC3
 105 00a3 3DFE49FC 		.ascii	"=\376I\374\202\353Y\360#\215\307X\3247\365\232cd\271"
 105      82EB59F0 
 105      238DC758 
 105      D437F59A 
 105      6364B9
 106 00b6 DC52BF8C 		.ascii	"\334R\277\214a\306\310\353W\032\255U\215\025\003\257"
 106      61C6C8EB 
 106      571AAD55 
 106      8D1503AF 
 107 00c6 F8BD182F 		.ascii	"\370\275\030/\255\272*\321@\376WvL^\014Sc\213\376\231"
 107      ADBA2AD1 
 107      40FE5776 
 107      4C5E0C53 
 107      638BFE99 
 108 00da E9A7A7C6 		.ascii	"\351\247\247\306\346\256\347\212\312\034\227'G\207F"
 108      E6AEE78A 
 108      CA1C9727 
 108      478746
 109 00e9 499E0C4C 		.ascii	"I\236\014LUZS\245\245K\006\333\026\337)QE\212"
 109      555A53A5 
 109      A54B06DB 
 109      16DF2951 
ARM GAS  /tmp/cccn1nd4.s 			page 8


 109      458A
 110              		.text
 111              		.section	.gnu.lto_gett.b1f509b035e3fc14,"",%progbits
 112 0000 789C5D50 		.ascii	"x\234]P;N\303@\024\234y\266\003%-T\324 \261B\\%HP:\033"
 112      3B4EC340 
 112      149C79B6 
 112      03252D54 
 112      D420B142 
 113 001a CB5E25C1 		.ascii	"\313^%\301\222M\"\205\0241_\321 \245\016\025\027 \015"
 113      924D2285 
 113      14315FD1 
 113      20A50E15 
 113      17200D
 114 002d 07C80180 		.ascii	"\007\310\001\200\010N\3009\322\204\267\216@\210\225"
 114      084EC039 
 114      D284B78E 
 114      408895
 115 003c 66DF1433 		.ascii	"f\337\0243\363fW \370\177\266\025\037\212#\005\003P"
 115      F3665720 
 115      F87FB615 
 115      1F8A2305 
 115      0350
 116 004e 26EFC0E5 		.ascii	"&\357\300\345\246\220\236\200\030\013\307\247\254\265"
 116      A6909E80 
 116      180BC7A7 
 116      ACB5
 117 005c 33997FAD 		.ascii	"3\231\177\255V\317\237w/\257\234\312\006\331\243&:\""
 117      56CF9F77 
 117      2FAF9CCA 
 117      06D9A326 
 117      3A22
 118 006e 54C68632 		.ascii	"T\306\2062\257\213pSU\223]\300\326\256\246\336>\352"
 118      AF8B7053 
 118      55935DC0 
 118      D6AEA6DE 
 118      3EEA
 119 0080 98E267F0 		.ascii	"\230\342g\360\206\253\345\365\354a'\346\023#\244\224"
 119      86ABE5F5 
 119      EC6127E6 
 119      1323A494 
 120 0090 112E3462 		.ascii	"\021.4b\037{\216\362\210)\035\203\224<\321\031\326["
 120      1F7B8EF2 
 120      88291D83 
 120      943CD119 
 120      D65B
 121 00a2 5BFC5377 		.ascii	"[\374Sw\201\333y\360cm\214\260\254\356\253-\307\310"
 121      81DB79F0 
 121      636D8CB0 
 121      ACEEAB2D 
 121      C7C8
 122 00b4 72ADD2BC 		.ascii	"r\255\322\274\224\241\3232\372*\376\012\327\346\246"
 122      94A1D332 
 122      FA2AFE0A 
 122      D7E6A6
 123 00c3 8AB482FF 		.ascii	"\212\264\202\377\204C\223\345\275\304\330\274=4\355"
 123      844393E5 
 123      BDC4D8BC 
ARM GAS  /tmp/cccn1nd4.s 			page 9


 123      3D34ED
 124 00d2 64606CE6 		.ascii	"d`l\346Z./\315y\321?\353\030%Y\3345eaM\231\024.\356"
 124      5A2E2FCD 
 124      79D13FEB 
 124      182559DC 
 124      3565614D 
 125 00ea 1E587C03 		.ascii	"\036X|\003U{?\244"
 125      557B3FA4 
 126              		.text
 127              		.section	.gnu.lto_get.b1f509b035e3fc14,"",%progbits
 128 0000 789C5D50 		.ascii	"x\234]P=K\003Q\020\234\331\363%v\332je\255\340C\374"
 128      3D4B0351 
 128      109CD9F3 
 128      2576DA6A 
 128      65ADE043 
 129 0015 2B11B4BC 		.ascii	"+\021\264\274\274\034\271\207I\016\356T\320\0249?\261"
 129      BC1CB987 
 129      490EEE54 
 129      D014393F 
 129      B1
 130 0026 B048AB42 		.ascii	"\260H\253B\300^\364/\344\017\250\010\376\000;\377C\232"
 130      C05EF42F 
 130      E40FA808 
 130      FE003BFF 
 130      439A
 131 0038 73DF0545 		.ascii	"s\337\005E\\\230\335-ff\207\025\010\376\327\212\342"
 131      5C98DD2D 
 131      66668715 
 131      08FED78A 
 131      E2
 132 0049 43B1AD60 		.ascii	"C\261\255`\004\312\370\0258]\0242, F\302\321\036k\356"
 132      04CAF815 
 132      385D1432 
 132      2C2046C2 
 132      D11E6BEE 
 133 005d B34C3FAB 		.ascii	"\263L?\253\352ir5y\344\2554\310>\325\321\023F[\240\030"
 133      EA697235 
 133      79E4AD34 
 133      C83ED5D1 
 133      13465BA0 
 134 0072 5C94E578 		.ascii	"\\\224\345x\015p\265\240\245=\270\354P\302\214^p6;\377"
 134      0D70B5A0 
 134      A53DB8EC 
 134      50C28C5E 
 134      70363BFF 
 135 0086 BA598DF9 		.ascii	"\272Y\215\371@\203.e\210\023Uo`\335S\356qG\317\250K"
 135      40832E65 
 135      8813556F 
 135      60DD53EE 
 135      7147CFA8 
 136 009b EEEA5CA8 		.ascii	"\356\352\\\250\017\266\371'\351\033.\247\321\217\324"
 136      0FB6F927 
 136      E91B2EA7 
 136      D18FD4
 137 00aa 0C312BAF 		.ascii	"\0141+\257\313eO\3438g\251_P6*\255%\015\324\004\336"
 137      CB654FE3 
 137      3867A95F 
ARM GAS  /tmp/cccn1nd4.s 			page 10


 137      50362AAD 
 137      250DD404 
 138 00bf C15FC1DC 		.ascii	"\301_\301\334\244\245d\215\022\376\260e\323\254\237"
 138      A4A5648D 
 138      12FEB065 
 138      D3AC9F
 139 00ce 5897758E 		.ascii	"X\227u\216m'9\262.\365m\237\025\366 ?\034\354[]\322"
 139      6D2739B2 
 139      2EF56D9F 
 139      15F6203F 
 139      1CEC5B5D 
 140 00e3 B8678BDC 		.ascii	"\270g\213\334\331\"\311}\334\333t\370\0063\016Cd"
 140      D922C97D 
 140      DCDB74F8 
 140      06330E43 
 140      64
 141              		.text
 142              		.section	.gnu.lto_putt.b1f509b035e3fc14,"",%progbits
 143 0000 789C5D50 		.ascii	"x\234]P=K\003Q\020\234\331\273gR\332je\255\340C\374"
 143      3D4B0351 
 143      109CD9BB 
 143      6752DA6A 
 143      65ADE043 
 144 0015 2B11B4BC 		.ascii	"+\021\264\274\274\034w\217|\034\334\251\240)r~ \026"
 144      BC1C778F 
 144      7C1CDCA9 
 144      A029727E 
 144      2016
 145 0027 1669D5CA 		.ascii	"\026i\325\312?\240\255\215\220\312N\305\322\316\337"
 145      3FA0AD8D 
 145      90CA4EC5 
 145      D2CEDF
 146 0036 110371EF 		.ascii	"\021\003q\357\202\".\314\356,\314\314[\236@\360\277"
 146      82222ECC 
 146      EE2CCCCC 
 146      5B9E40F0 
 146      BF
 147 0047 56141F8A 		.ascii	"V\024\037\212m\005\003P\306\257\300IS\310\212\200\030"
 147      6D050350 
 147      C6AFC049 
 147      53C88A80 
 147      18
 148 0058 09477BAC 		.ascii	"\011G{\254\265\0172\371\234\317\357\037\237\237f\274"
 148      B50F32F9 
 148      9CCFEF1F 
 148      9F9F66BC 
 149 0068 9626D9A7 		.ascii	"\226&\331\247&z\"TF\243M\032\272Vb\203\363\262\034\257"
 149      267A2254 
 149      46A34D1A 
 149      BA566283 
 149      F3B21CAF 
 150 007c 01AEB6B6 		.ascii	"\001\256\266\266\264Wy;\224j\006/8\235\236}]\255F\274"
 150      B457793B 
 150      946A062F 
 150      389D9E7D 
 150      5DAD46BC 
 151 0090 A3414219 		.ascii	"\243AB\031\342Xs6\260\356)\267\270\241g\220\220\273"
ARM GAS  /tmp/cccn1nd4.s 			page 11


 151      E2587336 
 151      B0EE29B7 
 151      B8A16790 
 151      90BB
 152 00a2 3AC3FAE9 		.ascii	":\303\372\3516\377\334\374\206\213I\360cm\0141-/\313"
 152      36FFDCFC 
 152      868B49F0 
 152      636D0C31 
 152      2D2FCB
 153 00b5 654FE3B8 		.ascii	"eO\343\270Pi^\3020\241\361\\\002\336\301_\355\302\337"
 153      50695EC2 
 153      30A1F15C 
 153      02DEC15F 
 153      EDC2DF
 154 00c8 529D5E51 		.ascii	"R\235^Q}\306\226M\263~l]\3269\262\235\370\320\272\324"
 154      7DC6964D 
 154      B37E6C5D 
 154      D639B29D 
 154      F8D0BAD4 
 155 00dc B77D56D8 		.ascii	"\267}V\330\375\374`\320\265J\322\250g\213\334\331\""
 155      FDFC60D0 
 155      B54AD2A8 
 155      678BDCD9 
 155      22
 156 00ed CE7DD4DB 		.ascii	"\316}\324\333t\370\006L\015A="
 156      74F8064C 
 156      0D413D
 157              		.text
 158              		.section	.gnu.lto_put.b1f509b035e3fc14,"",%progbits
 159 0000 789C5D50 		.ascii	"x\234]P=K\003A\024\234y\367\021;m\265\262Vp\021\377"
 159      3D4B0341 
 159      149C79F7 
 159      113B6DB5 
 159      B2567011 
 160 0015 4A042D2F 		.ascii	"J\004-/\233\343\262\230xp\247\202\246\310\371\201XX"
 160      9BE3B298 
 160      7870A782 
 160      A6C8F981 
 160      5858
 161 0027 A4B010AD 		.ascii	"\244\260\020\255\254\354\264\360\017\244\262S\261O\341"
 161      ACECB4F0 
 161      0FA4B253 
 161      B14FE1
 162 0036 EF4873BE 		.ascii	"\357Hs\276\275\240\210\017f\337\0243\363\206\025\010"
 162      BDA0880F 
 162      66DF1433 
 162      F3861508 
 163 0046 FECFB262 		.ascii	"\376\317\262b\252\330R0\000e\374\016\234.\010\351\011"
 163      AAD85230 
 163      0065FC0E 
 163      9C2E08E9 
 163      09
 164 0057 889170B4 		.ascii	"\210\221p\264\313F\373,\223\257\272~\272y}\234\362V"
 164      CB46FB2C 
 164      93AFBA7E 
 164      BA797D9C 
 164      F256
ARM GAS  /tmp/cccn1nd4.s 			page 12


 165 0069 5AE4809A 		.ascii	"Z\344\200\232\350\210P\031ce^\027\341\242\252\306\253"
 165      E8885019 
 165      63655E17 
 165      E1A2AAC6 
 165      AB
 166 007a 806D5C6D 		.ascii	"\200m\\m}}\3246\305\357\340\015g\263\363\227\353\225"
 166      7D7DD436 
 166      C5EFE00D 
 166      67B3F397 
 166      EB95
 167 008c 840F8C90 		.ascii	"\204\017\214\220Q\2068\321\210u\2549\312=\356\350\030"
 167      518638D1 
 167      8875AC39 
 167      CA3DEEE8 
 167      18
 168 009d 64E48EEE 		.ascii	"d\344\216\356\260\271\332\341\237\272\037\270\234\004"
 168      B0B9DAE1 
 168      9FBA1FB8 
 168      9C04
 169 00ab 3FD67888 		.ascii	"?\326x\210YuU-9F\226s\225\346e\014\2759\256u\026\265"
 169      5975552D 
 169      39469673 
 169      95E6650C 
 169      BD39AE75 
 170 00c1 530BF804 		.ascii	"S\013\370\004\177=\363\234\266\352\265\215\377\217M"
 170      7F3DF39C 
 170      B6EAB58D 
 170      FF8F4D
 171 00d0 D3CB07A9 		.ascii	"\323\313\007\251\261y\367\330t\323#c{\256\343\362\322"
 171      B179F7D8 
 171      74D32363 
 171      7BAEE3F2 
 171      D2
 172 00e1 1C1487FB 		.ascii	"\034\024\207\373{FI/\351\233\262\260\246L\013\227\364"
 172      7B46492F 
 172      E99BB2B0 
 172      A64C0B97 
 172      F4
 173 00f2 372CBE01 		.ascii	"7,\276\001\335\233D\213"
 173      DD9B448B 
 174              		.text
 175              		.section	.gnu.lto_sdInit.b1f509b035e3fc14,"",%progbits
 176 0000 789C6362 		.ascii	"x\234cb`b@\007\222@\\\003\304\306@\314\310\314\300\310"
 176      60624007 
 176      92405C03 
 176      C4C640CC 
 176      C8CCC0C8 
 177 0014 34E11C03 		.ascii	"4\341\034\003C#\007\023##\210\301\300\310P\317\304X"
 177      43230713 
 177      232388C1 
 177      C0C850CF 
 177      C458
 178 0026 1FC90856 		.ascii	"\037\311\010V\273\236\351\300\203\377\377\327]8>u\017"
 178      BB9EE9C0 
 178      83FFFFD7 
 178      5D383E75 
 178      0F
ARM GAS  /tmp/cccn1nd4.s 			page 13


 179 0037 E33C2666 		.ascii	"\343<&f\240\010+CKC\303\004\005\006\206d\260\212\020"
 179      A0082B43 
 179      4B43C304 
 179      05068664 
 179      B08A10
 180 004a 2009D216 		.ascii	" \011\322\026\312\310\004\242\231\31734?xu\230=\221"
 180      CAC804A2 
 180      99CF3334 
 180      3F787598 
 180      3D91
 181 005c 7121232B 		.ascii	"q!#+P\272\232\341WCG\203@&#P9\304\304L\020}\221\241"
 181      50BA9AE1 
 181      57434783 
 181      40262350 
 181      39C4C44C 
 182 0074 F1C16B65 		.ascii	"\361\301ke\230\"\010\010\001J\000M\000\271\327P?#?7"
 182      98220808 
 182      014A004D 
 182      00B9D750 
 182      3F233F37 
 183 0088 553F393F 		.ascii	"U?9?\245R?%\265L?9#3)3\277X\277\244\2504/[\037\310\310"
 183      A5523F25 
 183      B54C3F39 
 183      23332933 
 183      BF58BFA4 
 184 00a3 48CCD12F 		.ascii	"H\314\321/.J\326/N-\312L\314\321Kf\000\000\376\2125"
 184      2E4AD62F 
 184      4E2DCA4C 
 184      CCD14B66 
 184      0000FE8A 
 185 00b8 34       		.ascii	"4"
 186              		.text
 187              		.section	.gnu.lto_sdObjectInit.b1f509b035e3fc14,"",%progbits
 188 0000 789C8D52 		.ascii	"x\234\215R\277K#A\024~o6\233lLrF8\360\016Dll\0242\034"
 188      BF4B2341 
 188      147E6F36 
 188      9B6C4C72 
 188      4638F00E 
 189 001a 0776FE17 		.ascii	"\007v\376\027\012Z\306\311\222\035\314\017\310F\017"
 189      0A5AC6C9 
 189      921DCC0F 
 189      C8460F
 190 0029 CFC28D67 		.ascii	"\317\302\215g!\026b\021D\214\010\226^q\327\012\026z"
 190      21166211 
 190      448C0896 
 190      5E71D70A 
 190      167A
 191 003b B5E86129 		.ascii	"\265\350a)Z\244\023A\264\262I\243of\222\210\262\247"
 191      5AA41341 
 191      B4B249A3 
 191      6F669288 
 191      B2A7
 192 004d F760E7BD 		.ascii	"\367`\347\275\331\235\357{\337\367v\0300x\035\237\351"
 192      D99DEF7B 
 192      DFF77618 
 192      30781D9F 
 192      E9
ARM GAS  /tmp/cccn1nd4.s 			page 14


 193 005e 895A00BB 		.ascii	"\211Z\000\273\224\321\002d\033g\0005\207!\252\002\020"
 193      94D10264 
 193      1B670035 
 193      8721AA02 
 193      10
 194 006f 96182E4D 		.ascii	"\226\030.M\243>\373\233\0357\037\037\177m\255\235\375"
 194      A33EFB9B 
 194      1D371F1F 
 194      7F6DAD9D 
 194      FD
 195 0080 C1C6709A 		.ascii	"\301\306p\232a\021!\002\022!F\013:\264\2608\275\303"
 195      61112102 
 195      1221460B 
 195      3AB4B038 
 195      BDC3
 196 0092 04555652 		.ascii	"\004UVRmS\264U=mX\011\202\215!\000\241\231&hU\364\223"
 196      6D53B455 
 196      3D6D5809 
 196      828D2100 
 196      A1992668 
 197 00a9 F491B275 		.ascii	"\364\221\262u\012\313\255\037\207\365\201,\356\241\015"
 197      0ACBAD1F 
 197      87F5812C 
 197      EEA10D
 198 00b8 A3F033A0 		.ascii	"\243\3603\240HI\2144`\033%\332ydS\224\243Z\305\214\021"
 198      48498C34 
 198      601B25DA 
 198      79645394 
 198      A35AC58C 
 199 00cd 038BD00A 		.ascii	"\003\213\320\012\266\202`\234\216\025I\271\012\315s"
 199      B682609C 
 199      8E1549B9 
 199      0ACD73
 200 00dc 54CF189E 		.ascii	"T\317\030\236<F\026\341;\311k\023~\223\030\013'\304"
 200      3C4616E1 
 200      3BC96B13 
 200      7E93180B 
 200      27C4
 201 00ee E77910C5 		.ascii	"\347y\020\305\311\316\345\335\262\335\225l\212\343\373"
 201      C9CEE5DD 
 201      B2DD956C 
 201      8AE3FB
 202 00fd F5DBFE3D 		.ascii	"\365\333\376=\033\300p\013\2031\314\315\213\207\315"
 202      1BC0700B 
 202      8331CCCD 
 202      8B87CD
 203 010c A84487C8 		.ascii	"\250D\207\310kA\220\2466m~\232\216\346g\012\266O0\245"
 203      6B4190A6 
 203      366D7E9A 
 203      8EE6670A 
 203      B64F30A5 
 204 0120 49F738B8 		.ascii	"I\3678\270j\326\007_\333\215\207\2533\336\324\2338v"
 204      6AD6075F 
 204      DB8D87AB 
 204      33DED49B 
 204      3876
 205 0132 4C5ED7AD 		.ascii	"L^\327\255\216\311\2306\211\2430\"\261'\234!\362\302"
ARM GAS  /tmp/cccn1nd4.s 			page 15


 205      8EC99836 
 205      89A33022 
 205      B1279C21 
 205      F2C2
 206 0144 5FAB0B75 		.ascii	"_\253\013u4\224ih\"\034j?C\377\302'\0034\263_UN\223"
 206      34946968 
 206      221C6A3F 
 206      43FFC227 
 206      0334B35F 
 207 015b 02CD9DCA 		.ascii	"\002\315\235\312+\323\216B\246\322\264\211\023\215\304"
 207      2BD38E42 
 207      A6D2B489 
 207      138DC4
 208 016a 0F6DB537 		.ascii	"\017m\2657\037;\035\023\272\243\245;\366\206w\214\376"
 208      1F3B1D13 
 208      BAA3A53B 
 208      F686778C 
 208      FE
 209 017b 436CF27D 		.ascii	"Cl\362}\261\261\267\305\246E{\226\244\203\370\272bS"
 209      B1B1B7C5 
 209      A6457B96 
 209      A483F8BA 
 209      6253
 210 018d 5A6C1FC0 		.ascii	"Zl\037\3009\324\232\215\341\016\316\304\004\375i\272"
 210      39D49A8D 
 210      E10ECEC4 
 210      04FD69BA 
 211 019d A3CAE517 		.ascii	"\243\312\345\027\356\225\213.\027\345\334\002\317\271"
 211      EE958B2E 
 211      17E5DC02 
 211      CFB9
 212 01ab F35C7872 		.ascii	"\363\\xrF\226}^\255\314\225f9\025^\266\300\375\212\340"
 212      46967D5E 
 212      ADCC9566 
 212      39155EB6 
 212      C0FD8AE0 
 213 01bf BE5B91D9 		.ascii	"\276[\221\331BF\300\330{\210J\225\313\222(\314\345\350"
 213      4246C0D8 
 213      7B884A95 
 213      CB9228CC 
 213      E5E8
 214 01d1 90E7CEBB 		.ascii	"\220\347\316\273\245\252\237\361\340\353\3774*\373\264"
 214      A5AA9FF1 
 214      E0EBFF34 
 214      2AFBB4
 215 01e0 105E65C2 		.ascii	"\020^e\302<\001\231\236\326\276"
 215      3C01999E 
 215      D6BE
 216              		.text
 217              		.section	.gnu.lto_sdStart.b1f509b035e3fc14,"",%progbits
 218 0000 789C8D50 		.ascii	"x\234\215P\275K\303@\024\177\357\222X\021\204\216\272"
 218      BD4BC340 
 218      147FEF92 
 218      5811848E 
 218      BA
 219 0011 942C4E4A 		.ascii	"\224,NJO\377\203\202 8t\261\012:Iz\015\315a\323H\322"
 219      4FFF8382 
ARM GAS  /tmp/cccn1nd4.s 			page 16


 219      203874B1 
 219      0A3A497A 
 219      0DCD61D3 
 220 0027 8845A169 		.ascii	"\210E\241iQ\321\255\210\203\3701\010\202 bW'q\026\254"
 220      51D1AD88 
 220      83F83108 
 220      82206257 
 220      277116AC 
 221 003b 38898B88 		.ascii	"8\211\213\210\256\016\355&.\365.\251E\\\364\340\356"
 221      AE0EED26 
 221      2EF52EA9 
 221      455CF4E0 
 221      EE
 222 004c 3D78BFAF 		.ascii	"=x\277\257{\004\010\374>\303\342\332\010P\027\025\025"
 222      7B0408FC 
 222      3EC3E2DA 
 222      08501715 
 222      15
 223 005d 40526F02 		.ascii	"@Ro\002T\373\011\242l\000\241B\260\262\200!\266An^:"
 223      54FB09A2 
 223      6C00A142 
 223      B0B28021 
 223      B6416E5E 
 224 0072 9DCBE7DB 		.ascii	"\235\313\347\333\353#\274 \003\012\012\242*\0369\325"
 224      EB23BC20 
 224      030A0AA2 
 224      2A1E39D5 
 225 0082 602308EA 		.ascii	"`#\010\352:\000\013\261\263RR\010\314!\221UiB\255\375"
 225      3A000BB1 
 225      B3525208 
 225      CC219155 
 225      6942ADFD 
 226 0096 BEF736D4 		.ascii	"\276\3676\324\203\031x\202\032\204\016\010\276\"\223"
 226      83197882 
 226      1A840E08 
 226      BE2293
 227 00a5 2951BC04 		.ascii	")Q\274\004l\341q\260\237\342\221\351<rD]v\275\371Nw"
 227      6CE171B0 
 227      9FE291E9 
 227      3C72445D 
 227      76BDF94E 
 228 00ba DEFDCD3D 		.ascii	"\336\375\315=l\266^\037\327\277\025\327\3403\330\016"
 228      6CB65E1F 
 228      D7BF15D7 
 228      E033D80E 
 229 00ca E21C1586 		.ascii	"\342\034\025\206\221D\036\225<\252\034U\200;\250]}4"
 229      91441E95 
 229      3CAA1C55 
 229      803BA85D 
 229      7D34
 230 00dc DA188147 		.ascii	"\332\030\201G\341<\020g\220\243v\010\007\302\250O@\245"
 230      E13C1067 
 230      90A37608 
 230      07C2A84F 
 230      40A5
 231 00ee 612CE465 		.ascii	"a,\344e#z\030A\223f\377\371\205\201\247b\217aj\370\221"
 231      237A1841 
ARM GAS  /tmp/cccn1nd4.s 			page 17


 231      9366FFF9 
 231      8581A762 
 231      8F616AF8 
 232 0103 DAC0334C 		.ascii	"\332\3003LDr\017Pm\355>\251=.D\013C\271(\211\235\240"
 232      44720F50 
 232      6DED3EA9 
 232      3D2E440B 
 232      43B92889 
 233 0119 96639B94 		.ascii	"\226c\233\2249\2712\315\231+\224Y<\313\035\217\226\\"
 233      39B932CD 
 233      992B9459 
 233      3CCB1D8F 
 233      965C
 234 012b BFB84445 		.ascii	"\277\270DEc\031\005\352\271\214z\246\313\215B\222A\352"
 234      631905EA 
 234      B98C7AA6 
 234      CB8D4292 
 234      41EA
 235 013d 2F86B95A 		.ascii	"/\206\271Z\242\223\351\314t\206\362\"+\3709\211u\315"
 235      A293E9CC 
 235      7486F222 
 235      2BF83989 
 235      75CD
 236 014f 45664FF9 		.ascii	"EfO\371E\226\264 \236\316\314\350Y\3033\227]>\246\217"
 236      4596B420 
 236      9ECECCE8 
 236      59C33397 
 236      5D3EA68F 
 237 0163 8C037121 		.ascii	"\214\003q!f\233\266\343\226\341\013\\\237\177t"
 237      669BB6E3 
 237      96E10B5C 
 237      9F7F74
 238              		.text
 239              		.section	.gnu.lto_sdStop.b1f509b035e3fc14,"",%progbits
 240 0000 789C8D92 		.ascii	"x\234\215\222\315k\324@\030\306\337g\322\354\246j\355"
 240      CD6BD440 
 240      18C6DF67 
 240      D2ECA66A 
 240      ED
 241 0011 7A522F65 		.ascii	"zR/e/^\\\351(\376\003\005A\360\320K\267B=Iv6t\207n6"
 241      2F5E5CE9 
 241      28FE0305 
 241      41F0D04B 
 241      B7423D49 
 242 002b 92EC4A6B 		.ascii	"\222\354Jk\205\246\037H\245\036\212\010J\265\007\241"
 242      85A61F48 
 242      A51E8A08 
 242      4AB507A1 
 243 003b 222A5810 		.ascii	"\"*X\020\301\212\227\"\336\244-\376\001\242\340\325"
 243      C18A9722 
 243      DEA42DFE 
 243      01A2E0D5 
 244 004b C37A127A 		.ascii	"\303z\022z\251\363\321\215E\213v 3o2\317\373\376\336"
 244      A9F3D18D 
 244      458B7620 
 244      336F32CF 
 244      FBFEDE
ARM GAS  /tmp/cccn1nd4.s 			page 18


 245 005e 99278C18 		.ascii	"\231'\214\030\3759N\252\347\246\372\374A\255p\010lq"
 245      FD394EAA 
 245      E7A6FAFC 
 245      41AD7008 
 245      6C71
 246 0070 9368DA63 		.ascii	"\223h\332c\200\016\0104\3050u\005F\273\312\326\277\356"
 246      800E0834 
 246      C5307505 
 246      46BBCAD6 
 246      BFEE
 247 0082 ECBC5C5B 		.ascii	"\354\274\\[Xy\204U\326\353 \004\345H\202<5i\211Ksi\272"
 247      58798455 
 247      D6EB2004 
 247      E548823C 
 247      3569894B 
 248 0099 58241226 		.ascii	"X$\022&aX\315\272\312e0\275:\2334\363\343\373\275o'"
 248      6158CDBA 
 248      CA6530BD 
 248      3A9B34F3 
 248      E3FBBD6F 
 249 00ae 32998FC7 		.ascii	"2\231\217\307p\311`@-G\267\347\330\036\373\350\026\226"
 249      70C96040 
 249      2D47B7E7 
 249      D81EFBE8 
 249      1696
 250 00c0 D3070312 		.ascii	"\323\007\003\022\346u\004\022NQG\331\376\355\335\375"
 250      E6750412 
 250      4E5147D9 
 250      FEEDDDFD 
 251 00d0 2E7B8E2D 		.ascii	".{\216-\232k\277\372<\336\2518I\333\351|Z\220p\005l"
 251      9A6BBFFA 
 251      3CDEA938 
 251      49DBE97C 
 251      5A907005 
 252 00e5 F3A37024 		.ascii	"\363\243p$rD\0334\2636\377\016VX\242\347\251\032=\022"
 252      72441B34 
 252      B336FF0E 
 252      5658A2E7 
 252      A91A3D12 
 253 00f9 F987B4A4 		.ascii	"\371\207\264\244 \236\222iX\267\311\251\330T\203\317"
 253      209E9269 
 253      58B7C9A9 
 253      D85483CF 
 254 0109 EB58256F 		.ascii	"\353X%o\317\276\271\357\330\354Q\344&\351\206:\177\211"
 254      CFBEB9EF 
 254      D8EC51E4 
 254      26E9863A 
 254      7F89
 255 011b 4E4B1CDA 		.ascii	"NK\034\332\277\002~\337\365\026u\375\325\337aaO\250"
 255      BF027EDF 
 255      F51675FD 
 255      D5DF6161 
 255      4FA8
 256 012d 8B491CD9 		.ascii	"\213I\034\331E\274=\336!x\206\000C\350\331\237\300\376"
 256      45BC3DDE 
 256      21788600 
 256      43E8D99F 
ARM GAS  /tmp/cccn1nd4.s 			page 19


 256      C0FE
 257 013f 4D382A94 		.ascii	"M8*\224\257\226\340I\364j\321l\373\331\223\027wJ\231"
 257      AF96E049 
 257      F46AD16C 
 257      FBD99317 
 257      774A99
 258 0152 0F3658FF 		.ascii	"\0176X\377\370\363\275\3331Et.6\253S\020p}\274\266\206"
 258      F8F3BDDB 
 258      3145742E 
 258      36AB5310 
 258      707DBCB6 
 259 0167 491C233A 		.ascii	"I\034#:\210\237>V\024\336\370G{\374\363\361\024}\026"
 259      889F3E56 
 259      14DEF847 
 259      7BFCF3F1 
 259      147D16
 260 017a F089A6DB 		.ascii	"\360\211\246\333w\277d}\3331\254\356M\3752Z{\216\327"
 260      77BF647D 
 260      DB31ACEE 
 260      4DFD325A 
 260      7B8ED7
 261 018d A230E022 		.ascii	"\2420\340\"\252N\360jp\235\213\232\254\310(\341\315"
 261      AA4EF06A 
 261      709D8B9A 
 261      ACC828E1 
 261      CD
 262 019e B8D518E3 		.ascii	"\270\325\030\343*\250\371u\236\304\202'A,\375z\277\240"
 262      2AA8F975 
 262      9EC48227 
 262      412CFD7A 
 262      BFA0
 263 01b0 81FF6504 		.ascii	"\201\377e\004\343M~a\260|\251\314eC\324[U\255\215\203"
 263      E34D7E61 
 263      B07CA9CC 
 263      6543D45B 
 263      55AD8D83 
 264 01c4 AB22BCD8 		.ascii	"\253\"\274\330j\210\376\032\025\006\313C\305\212\237"
 264      6A88FE1A 
 264      1506CB43 
 264      C58A9F
 265 01d3 04D76279 		.ascii	"\004\327by\246x\352,\261\230\362a\020F\361\004\235?"
 265      A678EA2C 
 265      B198F261 
 265      1046F104 
 265      9D3F
 266 01e5 483B51A2 		.ascii	"H;Q\242\246\270iVU\357\0272\214\306\341"
 266      A6B86956 
 266      55EF1732 
 266      8CC6E1
 267              		.text
 268              		.section	.gnu.lto_sdIncomingDataI.b1f509b035e3fc14,"",%progbits
 269 0000 789CAD52 		.ascii	"x\234\255R=K\003A\020\235\331\275\335\\\314)\026\222"
 269      3D4B0341 
 269      109DD9BD 
 269      DD5CCC29 
 269      1692
 270 0012 DA4E50F0 		.ascii	"\332NP\360\020\013K\177\200\245\006\264L.!9L\014$*\250"
ARM GAS  /tmp/cccn1nd4.s 			page 20


 270      100B4B7F 
 270      80A506B4 
 270      4C2E2139 
 270      4C0C242A 
 271 0027 85173F40 		.ascii	"\205\027?@,\304V%\205X\244P\024-,\304\302\302B\360\013"
 271      2CC45625 
 271      8558A450 
 271      142D2CC4 
 271      C2C242F0 
 272 003c 21F63662 		.ascii	"!\3666bc!6J\032\235\335\363b\024A\013\027nfx\263\363"
 272      6321364A 
 272      1A9DDDF3 
 272      6214410B 
 272      176E6678 
 273 0052 F6CDE318 		.ascii	"\366\315\343\0300\370~\006\350[&8M\031C\200l\365\012"
 273      30F87E06 
 273      E85B2638 
 273      4D194380 
 273      6CF50A
 274 0065 A06432C6 		.ascii	"\240d2\306\253Q\360\232\214\343>\360,\216\206\017\033"
 274      AB51F09A 
 274      8CE33EF0 
 274      2C8E860F 
 274      1B
 275 0076 4CBCB410 		.ascii	"L\274\264\020,\327\372\011\026(}X\"\252\002\020f\031"
 275      2CD7FA09 
 275      16287D58 
 275      22AA0210 
 275      6619
 276 0088 3784C4D9 		.ascii	"7\204\304\331\021\324\354{\354\344\356\355m\367p\345"
 276      11D4EC7B 
 276      ECE4EEED 
 276      6DF770E5 
 277 0098 F0028F58 		.ascii	"\360\002\217X+\307\034\202\000\027AR@\223\002\013\023"
 277      2BC71C82 
 277      00174152 
 277      4093020B 
 277      13
 278 00a9 8611AAB8 		.ascii	"\206\021\252\270\2450\032\022\260\340y\253\355\000\216"
 278      A5301A12 
 278      B0E079AB 
 278      ED008E
 279 00b8 2619A2A8 		.ascii	"&\031\242\250\330c\310T\346\2270w\264\270U\016\221f"
 279      D863C854 
 279      E6973077 
 279      B4B8550E 
 279      9166
 280 00ca 141BB08E 		.ascii	"\024\033\260\216.\032i\344\303\224Y\233\277\324\031"
 280      2E1A69E4 
 280      C394599B 
 280      BFD419
 281 00d9 9C3E949A 		.ascii	"\234>\224\232\343\270\211B]R-\243q\351\030r\250F\025"
 281      E3B88942 
 281      5D522DA3 
 281      71E91872 
 281      A84615
 282 00ec 536DBE52 		.ascii	"Sm\276R\026\301E9\003\323$\241\013:\335\200Y~0\207\364"
ARM GAS  /tmp/cccn1nd4.s 			page 21


 282      16C14539 
 282      03D324A1 
 282      0B3ADD80 
 282      597E3087 
 283 0101 5C021B48 		.ascii	"\\\002\033H\256a\361\351\361\340\371\225\325\365\372"
 283      AE61F1E9 
 283      F1E0F995 
 283      D5F5FA
 284 0110 C5C97975 		.ascii	"\305\311yu\020\300\347t\360cb\006j\336\222\327\352\242"
 284      10C0E774 
 284      F0636206 
 284      6ADE92D7 
 284      EAA2
 285 0122 E9208B63 		.ascii	"\351 \213c\205z\240\026\220\212<l\320\346M\2014#\330"
 285      857AA016 
 285      908A3C6C 
 285      D0E64D81 
 285      3423D8
 286 0135 B236BF5D 		.ascii	"\2626\277]\016\005\332L\255\215im\221\237\265a\243\266"
 286      0E05DA4C 
 286      AD8D696D 
 286      919FB561 
 286      A3B6
 287 0147 FA5291FA 		.ascii	"\372R\221\372\323\226Ck\373\317\232i\014\273\330\254"
 287      D396436B 
 287      FBCF9A69 
 287      0CBBD8AC 
 288 0157 9DBAFF74 		.ascii	"\235\272\377t*\242\350\370W\247\004\274\264\370j\366"
 288      2AA2E8F8 
 288      57A704BC 
 288      B4F86AF6 
 289 0167 3E9DB2FE 		.ascii	">\235\262\376\311\251\333_\235\332\017\234\262\264S"
 289      C9A9DB5F 
 289      9DDA0F9C 
 289      B2B453
 290 0176 1E365A25 		.ascii	"\0366Z%\265U7P\272\333\351\360i\2023Dt\324S\377{\217"
 290      B5553750 
 290      BADBE9F0 
 290      69823344 
 290      74D453FF 
 291 018c 9DC9E752 		.ascii	"\235\311\347R\266\223ON\331\311\324\244\355d\334\204"
 291      B6934F4E 
 291      D9C9D4A4 
 291      ED64DC84 
 292 019c 9B2FDAE3 		.ascii	"\233/\332\343\205\211\261Q\233\212L<k\027\013\216]L"
 292      8589B151 
 292      9B8A4C3C 
 292      6B170B8E 
 292      5D4C
 293 01ae 15DC78B6 		.ascii	"\025\334x\266\333\201\336\277L\344\213\024\012\343:"
 293      DB81DEBF 
 293      4CE48B14 
 293      0AE33A
 294 01bd 7767E01D 		.ascii	"wg\340\035\366\300\266\260"
 294      F6C0B6B0 
 295              		.text
 296              		.section	.gnu.lto_sdRequestDataI.b1f509b035e3fc14,"",%progbits
ARM GAS  /tmp/cccn1nd4.s 			page 22


 297 0000 789C8D91 		.ascii	"x\234\215\221OK[A\024\305\317\231y\311\213\251\015\202"
 297      4F4B5B41 
 297      14C5CF99 
 297      79C98BA9 
 297      0D82
 298 0012 5F405CB6 		.ascii	"_@\\\266\340\303?\373~\210*\264\313\344\031\222\241"
 298      E0C33FFB 
 298      7E882AB4 
 298      CBE41992 
 298      A1
 299 0023 6A208982 		.ascii	"j \211\202f\341\263M\241\273f\233\026\202\301\255 t"
 299      66E1B34D 
 299      A1BB669B 
 299      1682C1AD 
 299      2074
 300 0035 D75D0A15 		.ascii	"\327]\012\025\012E\213\333R4\210nc\251\213\264AH\357"
 300      0A458BDB 
 300      5234886E 
 300      63A98BB4 
 300      4148EF
 301 0048 BC674294 		.ascii	"\274gB\224.:0sg\346\316=\367w\357((\334\037s2\277\023"
 301      2E3A3073 
 301      67E6CE3D 
 301      F777EF28 
 301      28DC1F73 
 302 005f 30621903 		.ascii	"0b\031\003U\355\030\330I(\245\273)\004I\247\376\004"
 302      55ED18D8 
 302      4928A5BB 
 302      290449A7 
 302      FE04
 303 0071 C1B8A613 		.ascii	"\301\270\246\023];\244\335\200\330V\332\341\366sZ\015"
 303      5D3BA4DD 
 303      80D856DA 
 303      E1F6735A 
 303      0D
 304 0082 4EA31904 		.ascii	"N\243\031\004\265\366\341\365\011\353A\253\272\033\334"
 304      B5F6E1F5 
 304      09EB41AB 
 304      BA1BDC
 305 0091 F4FBA4A1 		.ascii	"\364\373\244\241\344[ |\342\231\0348\025\032\345\334"
 305      E45B207C 
 305      E2991C38 
 305      151AE5DC 
 306 00a1 053850AD 		.ascii	"\0058P\255v\277\377\343\317\305\371\031'\223\212\253"
 306      76BFFFE3 
 306      CFC5F919 
 306      27938AAB 
 307 00b1 8486A18E 		.ascii	"\204\206\241\216#\315\246(\273r\260!1T%\307Tt\011+*"
 307      23CDA628 
 307      BB72B021 
 307      315425C7 
 307      5474092B 
 308 00c6 6351560B 		.ascii	"cQV\013\264De\255>\302\313\336\253\253\206\233\346\236"
 308      B44465AD 
 308      3EC2CBDE 
 308      ABAB869B 
 308      E69E
ARM GAS  /tmp/cccn1nd4.s 			page 23


 309 00d8 1493A3AE 		.ascii	"\024\223\243\256`K\264\036\343\221a\354=\336I\376x\216"
 309      604BB41E 
 309      E39161EC 
 309      3DDE49FE 
 309      788E
 310 00ea CA72B861 		.ascii	"\312r\270a\366\014GP\276\241\332\212\015B\343\025\364"
 310      F60C4750 
 310      BEA1DA8A 
 310      0D42E315 
 310      F4
 311 00fb 8237C184 		.ascii	"\2027\301\204a\302g\364J\364\014\307\200/\370|\371\351"
 311      61C267F4 
 311      4AF40CC7 
 311      802FF87C 
 311      F9E9
 312 010d E35B3D7C 		.ascii	"\343[=|j\365\222\243E-Q\243\233\212p\272\215\241\246"
 312      6AF592A3 
 312      452D51A3 
 312      9B8A70BA 
 312      8DA1A6
 313 0120 1BE23821 		.ascii	"\033\3428!\316\203\177\343p\024\347\365\317\316\207"
 313      CE837FE3 
 313      7014E7F5 
 313      CFCE87
 314 012f 5FBFD56D 		.ascii	"_\277\325m\351\203\036\264\276v\236\002\221\246\317"
 314      E9831EB4 
 314      BE769E02 
 314      91A6CF
 315 013e DB2F1DD2 		.ascii	"\333/\035\322\216\373\024\260}\361\205\304\256\025\177"
 315      8EFB14B0 
 315      7DF185C4 
 315      AE157F
 316 014d 989026A6 		.ascii	"\230\220&\246\006hN\330\252\023\354\264Os\303\022\""
 316      06684ED8 
 316      AA13ECB4 
 316      4F73C312 
 316      22
 317 015e E7A2E417 		.ascii	"\347\242\344\027\247\325\234\365\362\205\325\254\347"
 317      A7D59CF5 
 317      F285D5AC 
 317      E7
 318 016b 179637BD 		.ascii	"\027\2267\275\345\354\206\347\347M\306\024J^\271\270"
 318      E5EC86E7 
 318      E74DC614 
 318      4A5EB9B8 
 319 017b BEF6C293 		.ascii	"\276\366\302\223M>\275\342\225\212\276W\312\026Mze\306"
 319      4D3EBDE2 
 319      958ABE57 
 319      CA164D7A 
 319      65C6
 320 018d 0733F3FF 		.ascii	"\0073\363\377\023S(\311R,\207v&\217\277\341\321\226"
 320      135328C9 
 320      522C8776 
 320      268FBFE1 
 320      D196
 321 019f 15       		.ascii	"\025"
 322              		.text
ARM GAS  /tmp/cccn1nd4.s 			page 24


 323              		.section	.gnu.lto_.symbol_nodes.b1f509b035e3fc14,"",%progbits
 324 0000 789C4DCB 		.ascii	"x\234M\313\311M\003A\020\205\341\352\327^\361x\337\027"
 324      C94D0341 
 324      1085E1EA 
 324      D75EF178 
 324      DF17
 325 0012 C48D8488 		.ascii	"\304\215\204\210\200H\236a\300\330\254f\223\000\031"
 325      80489E61 
 325      C0D8AC66 
 325      930019
 326 0021 8C3417F2 		.ascii	"\2144\027\362@\342H\014 _I\001\014\243nQ]\227_\237\252"
 326      40E2480C 
 326      205F4901 
 326      0CA36E51 
 326      5D975F9F 
 327 0036 0A02D981 		.ascii	"\012\002\331\201\270\301\004\024\231\277\213\220\213"
 327      B8C10414 
 327      99BF8B90 
 327      8B
 328 0043 D92EC6A0 		.ascii	"\331.\306\240\011x\010\"\340\332\320\006<\0003\001\367"
 328      09780822 
 328      E0DAD006 
 328      3C003301 
 328      F7
 329 0054 C16CC018 		.ascii	"\301l\300\030\314\005\334\003\363\001\247`\301\363i"
 329      CC05DC03 
 329      F301A760 
 329      C1F369
 330 0063 6A30038B 		.ascii	"j0\003\213\312\354\021$C\213cp#8:\001K\001O\301(\340"
 330      CAEC1124 
 330      438B6370 
 330      23383A01 
 330      4B014FC1 
 331 0079 1958569A 		.ascii	"\031XV\232K\260\3428\036\033s\005VU\327`Mu\003\326U"
 331      4BB0E238 
 331      1E1B7305 
 331      5655D760 
 331      4D7503D6 
 332 008e E7604335 		.ascii	"\347`C5\007\233\252\013\260\245\272\005\333\252\005"
 332      079BAA0B 
 332      B0A5BA05 
 332      DBAA05
 333 009d D8513D80 		.ascii	"\330Q=\200]\325=\330S\335\201}\325\022\034\250\036\301"
 333      5DD53DD8 
 333      53DD817D 
 333      D5121CA8 
 333      1EC1
 334 00af A1EA191C 		.ascii	"\241\352\031\034\375\313JU\222\217\037c\215/j\256\326"
 334      FDCB4A55 
 334      928F1F63 
 334      8D2F6AAE 
 334      D6
 335 00c0 375377CD 		.ascii	"7Sw\315\372\346\032\256y\337BS\342\264\305\266\274~"
 335      FAE61AAE 
 335      79DF4253 
 335      E2B4C5B6 
 335      BC7E
ARM GAS  /tmp/cccn1nd4.s 			page 25


 336 00d2 A66D4932 		.ascii	"\246mI2\371\332\262\245\216\333G\003\337\276\304\351"
 336      F9DAB2A5 
 336      8EDB4703 
 336      DFBEC4E9 
 337 00e2 3EEAB9BB 		.ascii	">\352\271\273\250+\253\264\345\241\254^\266my$\211g"
 337      A82BABB4 
 337      E5A1AC5E 
 337      B66D7924 
 337      8967
 338 00f4 FCB686AD 		.ascii	"\374\266\206\255l\272\267\312\237\277\273\362\013L\013"
 338      6CBAB7CA 
 338      9FBFBBF2 
 338      0B4C0B
 339 0103 B6F3     		.ascii	"\266\363"
 340              		.text
 341              		.section	.gnu.lto_.refs.b1f509b035e3fc14,"",%progbits
 342 0000 789C25C1 		.ascii	"x\234%\301G\001\000 \000\004\240\023\267\005\354\337"
 342      47010020 
 342      0004A013 
 342      B705ECDF 
 343 0010 D4872072 		.ascii	"\324\207 r\363\225\355\254\243*\246nhH\036\010C\000"
 343      F395EDAC 
 343      A32AA66E 
 343      68481E08 
 343      4300
 344 0022 70       		.ascii	"p"
 345              		.text
 346              		.section	.gnu.lto_.decls.b1f509b035e3fc14,"",%progbits
 347 0000 789CBD5C 		.ascii	"x\234\275\\\013t\025E\232\356\356\373H\0021\240\343"
 347      0B741545 
 347      9AEEEEFB 
 347      480231A0 
 347      E3
 348 0011 BA78C63D 		.ascii	"\272x\306=fv\031\017\313\016\206\227\212\273;\342\014"
 348      6676190F 
 348      CB0E8697 
 348      8ABB3BE2 
 348      0C
 349 0022 B8C2392A 		.ascii	"\270\3029*\230\340\356\314\231\263\347\332$\015\271"
 349      98E0EECC 
 349      99B3E7DA 
 349      240DB9
 350 0031 63921BEE 		.ascii	"c\222\033\356\355\000\356\343\330\004H@\004\223@\310"
 350      ED00EEE3 
 350      D8044840 
 350      049340C8 
 351 0041 0B4802A2 		.ascii	"\013H\002\242\002\"\217 \001L\340\362\220\000\321@ "
 351      02228F20 
 351      014CE0F2 
 351      9000D140 
 351      20
 352 0052 E8F01002 		.ascii	"\350\360\020\002\242\010\012B\000\011\"d\377\252\256"
 352      A2080A42 
 352      00092264 
 352      FFAAAE
 353 0061 BEB7BBD2 		.ascii	"\276\267\273\322\325\267;\243{\317\251\352\352\356\372"
 353      D5B73BA3 
ARM GAS  /tmp/cccn1nd4.s 			page 26


 353      7BCFA9EA 
 353      EAEEFA
 354 0070 BFFA5FF5 		.ascii	"\277\372_\365w\275\022\201\023\270D/\307u\301\357\372"
 354      77BD1281 
 354      13B8442F 
 354      C775C1EF 
 354      FA
 355 0081 9F386E40 		.ascii	"\2378n@\002\307\365\3418\356)Hq\220j\311\3655\236\343"
 355      02C7F5E1 
 355      38EE2948 
 355      71906AC9 
 355      F5359EE3 
 356 0095 2643CA87 		.ascii	"&C\312\2074\037\322rH\350\367w\220VA\271\001\322^Hm"
 356      341FD272 
 356      48E8F777 
 356      905641B9 
 356      01D25E48 
 357 00aa 904E413A 		.ascii	"\220NA:\017\351\022\244NTO\34087\2444HS M\203\364\032"
 357      0FE912A4 
 357      4E544FE0 
 357      3837A434 
 357      4853204D 
 358 00c1 A4D990E6 		.ascii	"\244\331\220\346C*\205T\011\251\006\322rH\253!m\204"
 358      432A8554 
 358      09A906D2 
 358      7248AB21 
 358      6D84
 359 00d3 B409D266 		.ascii	"\264\011\322fH\333 m\207\024\206\264\027R3$\004{P\340"
 359      48DB206D 
 359      871486B4 
 359      17523324 
 359      047B50E0 
 360 00e7 0C3FC407 		.ascii	"\014?\304\007\342u\216\240\362\212x\217\207r\034\244"
 360      E2758EA0 
 360      F28A788F 
 360      87721CA4 
 361 00f7 63900A08 		.ascii	"c\220\012\010\335\000\001\263\204\353#\036\334P\256"
 361      DD0001B3 
 361      84EB231E 
 361      DC50AE
 362 0106 83F20790 		.ascii	"\203\362\007\220\352!m\345\215\270H\266x\013\\\324&"
 362      EA216DE5 
 362      8DB848B6 
 362      780B5CD4 
 362      26
 363 0117 8DDD40B0 		.ascii	"\215\335@\260]P\336\005\345\335\220\366P\270{\011\277"
 363      5D50DE05 
 363      E5DD90F6 
 363      50B87B09 
 363      BF
 364 0128 450417E9 		.ascii	"E\004\027\351X\303=\016i\001\301\034H0Q\375\371\204"
 364      58C33D0E 
 364      6901C11C 
 364      483051FD 
 364      F984
 365 013a DF83503E 		.ascii	"\337\203P>\004\251\025\322a\012\267\215\360\313\302"
 365      04A915D2 
ARM GAS  /tmp/cccn1nd4.s 			page 27


 365      610AB78D 
 365      F0CBC2
 366 0149 456DD2D8 		.ascii	"Em\322\330m\004\033\361{\034\312' \235\244pO\351\364"
 366      6D041BF1 
 366      7B1CCA27 
 366      209DA470 
 366      4FE9F4
 367 015c 3B88D2C3 		.ascii	";\210\322\303\011H\213)\035\240\372\245\244\374\005"
 367      09488B29 
 367      1DA0FAA5 
 367      A4FC05
 368 016b 94CF5178 		.ascii	"\224\317Qx\347uz5\303Cm\321\230\347\011&z\366\015\205"
 368      E7757A35 
 368      C3436DD1 
 368      98E70926 
 368      7AF60D85 
 369 017f 7749A7CF 		.ascii	"wI\247\317A\224\334'!UQ2\243\372\225D\346kP\276\016"
 369      4194DC27 
 369      21555132 
 369      A3FA9544 
 369      E66B50BE 
 370 0194 E97B0AB3 		.ascii	"\351{\012\263S\247K3L\324\036\215\333IpQ\371\016\224"
 370      53A74B33 
 370      4CD41E8D 
 370      DB497051 
 370      F90E94
 371 01a7 EF52981C 		.ascii	"\357R\230\034y\3679\242\023\"\217pVC\3714\372\241\276"
 371      79F739A2 
 371      13228F70 
 371      5643F934 
 371      FAA1BE
 372 01ba 731F5C77 		.ascii	"s\037\\w\013\252\256N\011*?IB\224\027\324'\027\221\376"
 372      0BAAAE4E 
 372      092A3F49 
 372      429417D4 
 372      271791FE 
 373 01ce 89F43808 		.ascii	"\211\3648\010\236\235&\366_#\250|\267\303u\205\240\312"
 373      9E9D26F6 
 373      5F23A87C 
 373      B7C37585 
 373      A0CA
 374 01e0 730F5CFB 		.ascii	"s\017\\\373CZ\010\317\037\021T\375\376FPe\030L|\014"
 374      435A08CF 
 374      1F1154FD 
 374      FE465065 
 374      184C7C0C 
 375 01f4 B57B86F4 		.ascii	"\265{\206\364\307\345\344\331sp}\001\322x\241{\377K"
 375      C7E5E4D9 
 375      73707D01 
 375      D278A17B 
 375      FF4B
 376 0206 23D85FC3 		.ascii	"#\330_\303u\027\\/\302\365[H\023\004\225/\215W\244\216"
 376      75175C2F 
 376      C2F55B48 
 376      1304952F 
 376      8D57A48E 
 377 021a 47880ED2 		.ascii	"G\210\016\322H_G\345l\310r(\314)D\366\"\"\273\036\373"
ARM GAS  /tmp/cccn1nd4.s 			page 28


 377      485F47E5 
 377      6CC87228 
 377      CC2944F6 
 377      2222BB1E 
 378 022f 12A42085 		.ascii	"\022\244 \205\215\344\274\014\327\017\005U\017\337\301"
 378      8DE4BC0C 
 378      D70F0555 
 378      0FDFC1
 379 023e B55E88EA 		.ascii	"\265^\210\352\332E\332\036Hd\366\2226P|Aq\006\305\233"
 379      DA45DA1E 
 379      4864F692 
 379      36507C41 
 379      7106C59B 
 380 0252 2B821A7B 		.ascii	"+\202\032{\020\237y\024?(v%\301\325\243\263\007\302"
 380      109F7914 
 380      3F287625 
 380      C1D5A3B3 
 380      07C2
 381 0264 984CE2A2 		.ascii	"\230L\342\242\306\3075A\215\221;\011\037\327\341\332"
 381      C6C73541 
 381      8D913B09 
 381      1FD7E1DA 
 382 0274 44E4EC4F 		.ascii	"D\344\354O\332v\023\274\033B4\266\241\367\377\003\331"
 382      DA7613BC 
 382      1B4234B6 
 382      A1F7FF03 
 382      D9
 383 0285 FF52EDA2 		.ascii	"\377R\355\242x\211\3422\362A\324~\"\321\311n\301\350"
 383      7889E232 
 383      F241D47E 
 383      22D1C96E 
 383      C1E8
 384 0297 93B7217D 		.ascii	"\223\267!}LxB\374\350\371\020\210\217\366'm#\314f]\373"
 384      4C7842FC 
 384      E8F91088 
 384      8FF6276D 
 384      23CC665D 
 385 02ac 48DE9954 		.ascii	"H\336\231T\273\367q\305\012\374\222\367A\243\177\340"
 385      BBF771C5 
 385      0AFC92F7 
 385      41A37FE0 
 386 02bc 453E2901 		.ascii	"E>)\001\271(*%&p\375\241\302\257\271\267\024\245\250"
 386      B9282A25 
 386      2670FDA1 
 386      C2AFB9B7 
 386      14A5A8
 387 02cf 7DE5B576 		.ascii	"}\345\265vAQ\342E\276\226\277\017\032z\222\347\006r"
 387      4151E245 
 387      BE96BF0F 
 387      1A7A92E7 
 387      0672
 388 02e1 AB80B048 		.ascii	"\253\200\260HQ\316\376\003\355\377\016\200\303\305{"
 388      51CEFE03 
 388      EDFF0E80 
 388      C3C57B
 389 02f0 1F52DC22 		.ascii	"\037R\334\"\277\022\303\276\300s\"\377\026?\320.\206"
 389      BF12C3BE 
ARM GAS  /tmp/cccn1nd4.s 			page 29


 389      C07322FF 
 389      163FD02E 
 389      86
 390 0301 C0FD1151 		.ascii	"\300\375\021Q\274\013\304*\035\006U\302\215\005\211"
 390      BC0BC42A 
 390      1D0655C2 
 390      8D0589
 391 0310 08143DE7 		.ascii	"\010\024=\347\014\210\206\337\257\270\032Ty\307\336"
 391      0C8886DF 
 391      AFB81A54 
 391      79C7DE
 392 031f 25BC52B3 		.ascii	"%\274R\263\2137i\355i\255\261\370\250&J\013[\212\371"
 392      8B3769ED 
 392      69ADB1F8 
 392      A8264A0B 
 392      5B8AF9
 393 0332 598A022F 		.ascii	"Y\212\002/\336\303LW\361\246\\\327<\315\002\022\270"
 393      DEC34C57 
 393      F1A65CD7 
 393      3CCD0212 
 393      B8
 394 0343 3598641D 		.ascii	"5\230d\035\305v\373\255\346\266\031\374\014\014\275"
 394      C576FBAD 
 394      E6B619FC 
 394      0C0CBD
 395 0352 CE06EBF9 		.ascii	"\316\006\353\371\341\243\005K\037D\254\367\346^\207"
 395      E1A3054B 
 395      1F44ACF7 
 395      E65E87
 396 0361 5BA5A640 		.ascii	"[\245\246@\031\263/\311Lkn\255\375\321QA\026\025\356"
 396      19B32FC9 
 396      4C6B6EAD 
 396      FDD15141 
 396      1615EE
 397 0374 E1B14937 		.ascii	"\341\261I7a1\256\232\213\301\206\021\270\0370I}71\346"
 397      6131AE9A 
 397      8BC18611 
 397      B81F3049 
 397      7D3731E6 
 398 0388 9DD2C4A8 		.ascii	"\235\322\304\250\267%\306m\"\206\310\327\201(\0027K"
 398      B725C66D 
 398      2286C8D7 
 398      81280237 
 398      4B
 399 0399 D07049C3 		.ascii	"\320pI\303\311Z\273\310\255IQ\375\221\012F\274\273{"
 399      C95ABBC8 
 399      AD4951FD 
 399      910A46BC 
 399      BB7B
 400 03ab 138B440D 		.ascii	"\023\213D\015l\236c\260d\003\330\302\246%\230\271\004"
 400      6C9E63B0 
 400      6403D8C2 
 400      A62598B9 
 400      04
 401 03bc 6E4E54C7 		.ascii	"nNT\307\234)\030Q\354\321\303-\255\374L,\377\016 \023"
 401      9C291851 
 401      ECD1C32D 
ARM GAS  /tmp/cccn1nd4.s 			page 30


 401      ADFC4C2C 
 401      FF0E2013 
 402 03d0 E0636754 		.ascii	"\340cgT\255}\250\262\262\217v\362\371\030j\027\206\232"
 402      AD7DA8B2 
 402      B28F76F2 
 402      F9186A17 
 402      869A
 403 03e2 E3EA29D4 		.ascii	"\343\352)\324\221\312\206'\261\271?\302@{) \221\217"
 403      91CA8627 
 403      B1B93FC2 
 403      407B2920 
 403      918F
 404 03f4 8BA83172 		.ascii	"\213\2501r\257U@h\3705)\240\321d\037\356g\256.p\255"
 404      AF554068 
 404      F83529A0 
 404      D1641FEE 
 404      67AE2E70 
 405 0409 2E1BA68B 		.ascii	".\033\246\213g\371\201\322\3369\357K\276B\011\317ri"
 405      67F981D2 
 405      DE39EF4B 
 405      BE4209CF 
 405      7269
 406 041b 5DD2CBD2 		.ascii	"]\322\313\322\221\300\375\005\267u\200\366\345\342\352"
 406      91C0FD05 
 406      B77580F6 
 406      E5E2EA
 407 042a 4BF9C497 		.ascii	"K\371\304\227\017\330\362\345\372\3462{]\322\253\265"
 407      0FD8F2E5 
 407      FAE6327B 
 407      5DD2ABB5 
 408 043a 9F81DBAF 		.ascii	"\237\201\333\257t\243\366\017\322\355/\375\342\353\247"
 408      74A3F60F 
 408      D2ED2FFD 
 408      E2EBA7
 409 0449 CA15A5AF 		.ascii	"\312\025\245\257\372*v\363\247\017.\352\336\274\310"
 409      FA2A76F3 
 409      A70F2EEA 
 409      DEBCC8
 410 0458 3FF53756 		.ascii	"?\3657V\256Q\\\335\324A\204<\202\373\31497\355\034#"
 410      AE515CDD 
 410      D441843C 
 410      82FBCC39 
 410      37ED1C23 
 411 046c 7B1BCD07 		.ascii	"{\033\315\007\367\272\012\002w)\302~\217\272,\310\031"
 411      F7BA0A02 
 411      7729C27E 
 411      8FBA2CC8 
 411      19
 412 047d 1EB96AA3 		.ascii	"\036\271j\243\242\314\365j<\\u\214\230l\320D\307A\034"
 412      A2CCF56A 
 412      3C5C758C 
 412      986CD044 
 412      C7411C
 413 0490 0454B01B 		.ascii	"\004T\260\033v\300\230\236\224\037\276\256\007\273\345"
 413      76C0989E 
 413      941FBEAE 
 413      07BBE5
ARM GAS  /tmp/cccn1nd4.s 			page 31


 414 049f 18CCC8D9 		.ascii	"\030\314\310\331\367z\260;v\300\372\2629\353\324\203"
 414      F77AB03B 
 414      76C0FAB2 
 414      39EBD483 
 415 04af CDF03805 		.ascii	"\315\3608\0053r\366\203\036l\266\035\260~l\316~\324"
 415      3372F683 
 415      1E6CB61D 
 415      B07E6CCE 
 415      7ED4
 416 04c1 83CD750C 		.ascii	"\203\315u\014f\344\354\256\036l\276\035\260d6gE\207"
 416      66E4ECAE 
 416      1E6CBE1D 
 416      B0643667 
 416      4587
 417 04d3 7560C58E 		.ascii	"u`\305\216\301\214\234\225\350\301J\355\200\015`s\266"
 417      C18C9C95 
 417      E8C14AED 
 417      800D6073 
 417      B6
 418 04e4 480F56E1 		.ascii	"H\017V\341\030\314\310\331b=\330R;`\203\331\234\225"
 418      18CCC8D9 
 418      623DD852 
 418      3B6083D9 
 418      9C95
 419 04f6 EBC16A1D 		.ascii	"\353\301j\035\203\0319\253\324\203\255\264\0036\202"
 419      831939AB 
 419      D483ADB4 
 419      033682
 420 0505 CDD9123D 		.ascii	"\315\331\022=\330*\307`F\316\326\353\301\326\332\001"
 420      D82AC760 
 420      46CED6EB 
 420      C1D6DA01 
 421 0515 7B9ACDD9 		.ascii	"{\232\315\331F=\330z\307`F\3166\351\301\352\354\200"
 421      463DD87A 
 421      C76046CE 
 421      36E9C1EA 
 421      EC80
 422 0527 8D6173B6 		.ascii	"\215as\266Y\017\266\3311\230\221\263-z\260\255v\300"
 422      590FB6D9 
 422      319891B3 
 422      2D7AB0AD 
 422      76C0
 423 0539 C6B339DB 		.ascii	"\306\2639\333\246\007kp\014f\344\254A\017\266\303\016"
 423      A6076B70 
 423      0C66E4AC 
 423      410FB6C3 
 423      0E
 424 054a D81FD89C 		.ascii	"\330\037\330\234m\327\203\355v\014f\344\354\220\036"
 424      6DD783ED 
 424      760C66E4 
 424      EC901E
 425 0559 ACC90ED8 		.ascii	"\254\311\016\330\313&\234E~ft\3503\335\302G\276\333"
 425      CB269C45 
 425      7E6674E8 
 425      33DDC247 
 425      BEDB
 426 056b 0277C0A3 		.ascii	"\002w\300\243\015q\034~\243\271(F\213\307\351\220\314"
ARM GAS  /tmp/cccn1nd4.s 			page 32


 426      0D711C7E 
 426      A3B92846 
 426      8BC7E990 
 426      CC
 427 057c 2037CC0D 		.ascii	" 7\314\015\276\252\345\027\316T\366\015\326\306\347"
 427      BEAAE517 
 427      CE54F60D 
 427      D6C6E7
 428 058b 6D76102D 		.ascii	"mv\020->\200\225M\272\301\376I\307`\224+#0\303\330\211"
 428      3E80954D 
 428      BAC1FE49 
 428      C760942B 
 428      2330C3D8 
 429 05a0 0CB0DB57 		.ascii	"\014\260\333W\206\373\225GGo\361\032\026\232\372\252"
 429      86FB9547 
 429      476FF11A 
 429      169AFAAA 
 430 05b0 43359809 		.ascii	"C5\230\011\013\221\312J\277~\346uE\276H\3705\344\305"
 430      0B91CA4A 
 430      BF7EE675 
 430      45BE48F8 
 430      35E4C5
 431 05c3 4242840B 		.ascii	"BB\204\013\265\254\225\272x\244\347s\036\263I5\006\260"
 431      B5AC95BA 
 431      78A4E773 
 431      1EB34935 
 431      06B0
 432 05d5 266579C2 		.ascii	"&ey\302\002A\347\011\027\354\250\311\342\323~\272i\311"
 432      0241E709 
 432      17ECA8C9 
 432      E2D37EBA 
 432      69C9
 433 05e7 DF2AED61 		.ascii	"\337*\355a^'\257\245r`NT\362\2116'*\025\320\374\343"
 433      5E27AFA5 
 433      72604E54 
 433      F2893627 
 433      2A15D0FC 
 434 05fc 8AC77422 		.ascii	"\212\307t\"c\003\252\254l\355?\341\211L9\006\272\325"
 434      6303AAAC 
 434      6CED3FE1 
 434      894C3906 
 434      BAD5
 435 060e 63A02395 		.ascii	"c\240#\225\313F`\240*\0144\303K\017zyjF\304\033\347"
 435      CB4660A0 
 435      2A0C34C3 
 435      4B0F7A79 
 435      6A46C41B 
 436 0623 2C7C42B4 		.ascii	",|B\264\320e4\327OZ\027\346\260^\312^\006qb\216\236"
 436      D06534D7 
 436      4F5A17E6 
 436      B05ECA5E 
 436      0671628E 
 437 0638 DA6F35DF 		.ascii	"\332o5\337)\346\257\345+\345\203\035X\354\360\307\232"
 437      29E6AFE5 
 437      2BE5831D 
 437      58ECF0C7 
 437      9A
ARM GAS  /tmp/cccn1nd4.s 			page 33


 438 0649 C56AB07E 		.ascii	"\305j\260~\026v\323O\271\340LA\002W\345X\220\001FA\346"
 438      1676D34F 
 438      B9E04C41 
 438      0257E558 
 438      90014641 
 439 065e ED29712E 		.ascii	"\355)q.H\304\365VbAV\374\004\202\254q,\310`\235 h\215"
 439      48C4F556 
 439      624156FC 
 439      0482AC71 
 439      2CC8609D 
 440 0675 E446891A 		.ascii	"\344F\211\032\007\177\301\225X\317M\021?\253\205_\030"
 440      077FC195 
 440      58CF4D11 
 440      3FAB855F 
 440      18
 441 0686 57B88E1D 		.ascii	"W\270\216\035\340\223\325\307\261\027\270n\036\320\255"
 441      E093D5C7 
 441      B117B86E 
 441      1ED0AD
 442 0695 6028B656 		.ascii	"`(\266V0J\016j*[\213U\266\321k\322\311lA\225}\266g\003"
 442      304A0E6A 
 442      2A5B8B55 
 442      B6D16BD2 
 442      C96C4195 
 443 06ad 59C1588F 		.ascii	"Y\301X\217\241\266\364\030\352\310\361z\265\277\326"
 443      A1B6F418 
 443      EAC8F17A 
 443      B5BFD6
 444 06bc 61A07037 		.ascii	"a\240p73z)+z\215V\204[\324R'Z_\340_#O\320M\034\367\377"
 444      337A292B 
 444      7A8D5684 
 444      5BD45227 
 444      5A5FE05F 
 445 06d7 4E075F63 		.ascii	"N\007_c\314>\262\240\303\257q\304\203\276,\321\276\244"
 445      CC3EB2A0 
 445      C3AF71C4 
 445      83BE2CD1 
 445      BEA4
 446 06e9 AA915AFF 		.ascii	"\252\221Z\377*\304\374p\335<m\031n$\372\226\036\377"
 446      2AC4FC70 
 446      DD3C6D19 
 446      6E24FA96 
 446      1EFF
 447 06fb 2BE15A9B 		.ascii	"+\341Z\233\035/\234\225\264in\327\200%:\323\315\304"
 447      1D2F9C95 
 447      B4696ED7 
 447      80253AD3 
 447      CDC4
 448 070d BBE8986C 		.ascii	"\273\350\230lg\035\351RO%\211\374\004\356:\335\341\035"
 448      671DE952 
 448      4F2589FC 
 448      04EE3ADD 
 448      E11D
 449 071f CD39D1DA 		.ascii	"\3159\321\332\356Mb\256\230\213Q\332Bs\323\336\031d"
 449      EE4D62AE 
 449      988B51DA 
 449      4273D3DE 
ARM GAS  /tmp/cccn1nd4.s 			page 34


 449      1964
 450 0731 A1799780 		.ascii	"\241y\227\200Vh;)m\330X\325*\214C$\037\011\335Vh?\321"
 450      56683B29 
 450      6DD858D5 
 450      2A8C4324 
 450      1F09DD56 
 451 0748 5668D13B 		.ascii	"Vh\321;\033\253Z\206\025Z\221\377\220\027\010nO5j0b"
 451      1BAB5A86 
 451      155A91FF 
 451      9017086E 
 451      4F356A30 
 452 075d 9441916F 		.ascii	"\224A\221o\302\343\243}\302\257\364\332/\213s\252\375"
 452      C2E3A37D 
 452      C2AFF4DA 
 452      2F8B73AA 
 452      FD
 453 076e 64BDF6C3 		.ascii	"d\275\366\303\267\233\3255~m\315\276\226\306{Z?v%E\346"
 453      B79BD535 
 453      7E6DCDBE 
 453      96C67B5A 
 453      3F762545 
 454 0783 3C5D0997 		.ascii	"<]\011\227\264\340A\247\332\357\336\263\303\234\305"
 454      B4E041A7 
 454      DAEFDEB3 
 454      C39CC5
 455 0792 D47A990A 		.ascii	"\324z\231\012\246\272\374F\307`\311\006\260\306\005"
 455      A6BAFC46 
 455      C760C906 
 455      B0C605
 456 07a1 F6B60414 		.ascii	"\366\266\004\024^?\034\026\270F\334\356a\332S\312\356"
 456      5E3F1C16 
 456      B846DCEE 
 456      61DA53CA 
 456      EE
 457 07b2 1E2A249E 		.ascii	"\036*$\236r\330\206\247\300\307\346\313\004\245$Q\323"
 457      72D886A7 
 457      C0C7E6CB 
 457      04A52451 
 457      D3
 458 07c3 F3CD08AA 		.ascii	"\363\315\010\252\205\236\315\374D\333\031\270\260"
 458      859ECDFC 
 458      44DB19B8 
 458      B0
 459 07d0 9FC770EA 		.ascii	"\237\307p\352\360\276\213\206\2139\3730\302\335\225"
 459      F0BE8B86 
 459      8B39FB30 
 459      C2DD95
 460 07df F60D76A6 		.ascii	"\366\015v\246\030\262Kub+\372\334\236\300\335\2600\236"
 460      18B24B75 
 460      622BFADC 
 460      9EC0DDB0 
 460      309E
 461 07f1 0E4AAA66 		.ascii	"\016J\252ft\376|X\347\317m\330\237\217\202?\213\374"
 461      74FE7C58 
 461      E7CF6DD8 
 461      9F8F823F 
 461      8BFC
ARM GAS  /tmp/cccn1nd4.s 			page 35


 462 0803 67383FA6 		.ascii	"g8?\246\367m\326\027\377\270~\274\376f\274S\271\223"
 462      F76DD617 
 462      FFB87EBC 
 462      FE66BC53 
 462      B993
 463 0815 29EBB09A 		.ascii	")\353\260\232i\3257\2638\336\206\357\261Wb \254\034"
 463      69D537B3 
 463      38DE86EF 
 463      B1576220 
 463      AC1C
 464 0827 5DA87D92 		.ascii	"]\250}\222\324\235\217\032\307\210Fo\276\272\300\360"
 464      D49D8F1A 
 464      C788466F 
 464      BEBAC0F0 
 465 0837 495A6307 		.ascii	"IZc\007\356i\023\006\315~\372\235+\221\337\312#3m\343"
 465      EE691306 
 465      CD7EFA9D 
 465      2B91DFCA 
 465      23336DE3 
 466 084b 91811A70 		.ascii	"\221\201\032p\276\035\347\373q>\027\033n\036\316\347"
 466      BE1DE7FB 
 466      713E171B 
 466      6E1ECEE7 
 467 085b E37C11CE 		.ascii	"\343|\021\316\253q\376\026\316W\341|'\316\017\340\374"
 467      AB71FE16 
 467      CE57E17C 
 467      27CE0FE0 
 467      FC
 468 086c 639CB7E0 		.ascii	"c\234\267\340\374\020\316\333q~\326\216\003\250\201"
 468      FC10CEDB 
 468      717ED68E 
 468      03A881
 469 087b 36E2665A 		.ascii	"6\342fZ\314]\327\343]\261O\243\273b\"\337\350\030\214"
 469      CC5DD7E3 
 469      5DB14FA3 
 469      BB6222DF 
 469      E8188C
 470 088e F6288326 		.ascii	"\366(\203&\327\3514\271\001kr#\326\3339c\030\257\213"
 470      D7E934B9 
 470      016B7223 
 470      D6DB3963 
 470      18AF8B
 471 08a1 D7B66B7B 		.ascii	"\327\266k{\024\016\332g_\334\347\302\033:\366\307\024"
 471      140EDA67 
 471      5FDCE7C2 
 471      1B3AF6C7 
 471      14
 472 08b2 B7579CF9 		.ascii	"\267W\234\371\347ux\003\345\274:\357\354\326{=\324\210"
 472      E7757803 
 472      E5BC3AEF 
 472      ECD67B3D 
 472      D488
 473 08c4 C2631C51 		.ascii	"\302c\034Qx\022\242\205\310\210\342&-\210\263@\324\276"
 473      7812A285 
 473      C888E226 
 473      2D88B340 
 473      D4BE
ARM GAS  /tmp/cccn1nd4.s 			page 36


 474 08d6 F2E22155 		.ascii	"\362\342!U\020j\237\006MDX\016\361\255\276\253\316H"
 474      106A9F06 
 474      4D44580E 
 474      F1ADBEAB 
 474      CE48
 475 08e8 70CA40B2 		.ascii	"p\312@\262\301\031\332Tg@\230\002\367\272\0350\213%"
 475      C119DA54 
 475      67409802 
 475      F7BA1D30 
 475      8B25
 476 08fa 98BFE8C1 		.ascii	"\230\277\350\301\212\034\203\0319;\256\007+\267\003"
 476      8A1C8319 
 476      393BAE07 
 476      2BB703
 477 0909 66B150F1 		.ascii	"f\261P\361\371\336%\335\277\206\017p\245d\306\241\360"
 477      F9DE25DD 
 477      BF860F70 
 477      A564C6A1 
 477      F0
 478 091a 32736F0C 		.ascii	"2so\014\251\374{\341\001\\r\251\347w(c\255d\260\205"
 478      A9FC7BE1 
 478      015C72A9 
 478      E7772863 
 478      AD64B085 
 479 092e 283BA3C6 		.ascii	"(;\243\306\022\371\227\\\021\367b{j\270\254\340~th\341"
 479      12F9975C 
 479      11F7627B 
 479      6AB8ACE0 
 479      7E7468E1 
 480 0942 0616BC26 		.ascii	"\006\026\274&\301\350\246T\323\2101V\323\267\005C\340"
 480      C1E8A654 
 480      D3883156 
 480      D3B70543 
 480      E0
 481 0953 30F836F5 		.ascii	"0\3706\365N\340V;V\260\321Z\247\013\014\001\272\316"
 481      4EE0563B 
 481      56B0D15A 
 481      A70B0C01 
 481      BACE
 482 0965 0E5CB289 		.ascii	"\016\\\262\211\275\314~\372\203\0350|\307ae\015\016"
 482      BDCC7EFA 
 482      831D307C 
 482      C761650D 
 482      0E
 483 0976 2B5FE130 		.ascii	"+_\3410\372\015\316/\343\374\012\316;p~\035\347w\364"
 483      FA0DCE2F 
 483      E3FC0ACE 
 483      3B707E1D 
 483      E777F4
 484 0989 A1E7E741 		.ascii	"\241\347\347A\265{\306\345h\341\003\310\262]x\370\260"
 484      B57BC6E5 
 484      68E103C8 
 484      B25D78F8 
 484      B0
 485 099a 2D810E40 		.ascii	"-\201\016@+\371\373~&\006\343\270\002\274H2;?\326\""
 485      2BF9FB7E 
 485      2606E3B8 
ARM GAS  /tmp/cccn1nd4.s 			page 37


 485      02BC4832 
 485      3B3FD622 
 486 09ae 49DDFB17 		.ascii	"I\335\373\027~\251\316\274\362]qh\244Eqi\003\011q>\033"
 486      7EA9CEBC 
 486      F25D7168 
 486      A4457169 
 486      0309713E 
 487 09c3 880DEB14 		.ascii	"\210\015\353\024\327\012\372 \321\321s\213\261\243K"
 487      D70AFA20 
 487      D1D1738B 
 487      B1A34B
 488 09d2 3D3237B7 		.ascii	"=27\267\227:\366r'D\237-\214>\343uU\253\242\217\265"
 488      973AF672 
 488      27449F2D 
 488      8C3EE375 
 488      55ABA28F 
 489 09e7 134DE8D6 		.ascii	"\023M\350\326r\231-\312\234\310\027\270\220Z\013].S"
 489      72992DCA 
 489      9CC817B8 
 489      905A0B5D 
 489      2E53
 490 09f9 32BB53B4 		.ascii	"2\273S\264\212\272[\017\252Z\233\357B\266=\321\313\361"
 490      8ABA5B0F 
 490      AA5A9BEF 
 490      42B63DD1 
 490      CBF1
 491 0a0b 0CED2226 		.ascii	"\014\355\"&)rQ'\230\352\325`\200\236\307\236\235m\265"
 491      29725127 
 491      98EAD560 
 491      809EC79E 
 491      9D6DB5
 492 0a1e 7B0C2832 		.ascii	"{\014(2\264\275?\352\234'\356\240\241m)\346\377\246"
 492      B4BD3FEA 
 492      9C27EEA0 
 492      A16D29E6 
 492      FFA6
 493 0a30 39FF6C0C 		.ascii	"9\377l\014\201\233\323\033\221\224\323\374\337\020\223"
 493      819BD31B 
 493      9194D3FC 
 493      DF1093
 494 0a3f D5A7B1B9 		.ascii	"\325\247\261\271\277\251\215\361\027\271P\010)\213\000"
 494      BFA98DF1 
 494      17B95008 
 494      298B00
 495 0a4e F66C98F3 		.ascii	"\366l\230\363\243\024\335[\250v\214\225l\300*&\237\017"
 495      A314DD5B 
 495      A8768C95 
 495      6CC02A26 
 495      9F0F
 496 0a60 6D72B6C6 		.ascii	"mr\266\306\016\236\305\374c\021\372\26699H\024Y\017"
 496      0E9EC5FC 
 496      6311FAB6 
 496      39394814 
 496      590F
 497 0a72 59EE42ED 		.ascii	"Y\356B\355\177\320\373'Y\017\331\345X\014\203Z\300\355"
 497      7FD0FB27 
 497      590FD9E5 
ARM GAS  /tmp/cccn1nd4.s 			page 38


 497      580C835A 
 497      C0ED
 498 0a84 CFF4DB4A 		.ascii	"\317\364\333J\016k\250\2145\333A4\033A\230\375\364\356"
 498      0E6BA88C 
 498      35DB4134 
 498      1B4198FD 
 498      F4EE
 499 0a96 24F295B8 		.ascii	"$\362\225\270\247V\271Pp[\212\363j\234\327\342\374m"
 499      A756B950 
 499      705B8AF3 
 499      6A9CD7E2 
 499      FC6D
 500 0aa8 978DA134 		.ascii	"\227\215\2414r,\362\023\270\243\275\265\016\347\320"
 500      722CF213 
 500      B8A3BDB5 
 500      0EE7D0
 501 0ab7 BFCC592D 		.ascii	"\277\314Y-\322\261Z\202Y]\250g\351an\231\022\276\322"
 501      D2B15A82 
 501      595DA867 
 501      E9616E99 
 501      12BED2
 502 0aca 7E7BFBB1 		.ascii	"~{\373\261_V#\215)w\273^\343\251\001\310y\213A\337j"
 502      5F56238D 
 502      2977BB5E 
 502      E3A901C8 
 502      798B41DF 
 503 0adf 97610482 		.ascii	"\227a\004\202?\263\2212\031\021F\356\317\253\313\330"
 503      3FB39132 
 503      191146EE 
 503      CFABCBD8 
 504 0aef E4DEBE9F 		.ascii	"\344\336\276\237\225\026n\036\210\027V\327ac\276\231"
 504      95166E1E 
 504      881756D7 
 504      6163BE99 
 505 0aff F8137819 		.ascii	"\370\023x\031G\015|\004\256\202\202\355\317\255P\224"
 505      470D7C04 
 505      AE8282ED 
 505      CFAD5094 
 506 0b0f 12AC9A0F 		.ascii	"\022\254\232\017A5\011d\010Q\215\253\255r=l\312\261"
 506      41350964 
 506      08518DAB 
 506      AD723D6C 
 506      CAB1
 507 0b21 7A124925 		.ascii	"z\022I%U6Hc\264\201\342\362\030TXU\204\3543D\246\316"
 507      55364863 
 507      B481E2F2 
 507      18545855 
 507      84EC3344 
 508 0b37 0656C620 		.ascii	"\006V\306 \303\032%d\305\320yyMG\357\304 D\265\340\367"
 508      C31A2564 
 508      C5D07979 
 508      4D47EFC4 
 508      2044B5E0 
 509 0b4c 08B712D9 		.ascii	"\010\267\022\331`\307\271\361c4\363\260\251\210\322"
 509      60C7B9F1 
 509      6334F3B0 
 509      A988D2
ARM GAS  /tmp/cccn1nd4.s 			page 39


 510 0b5b 36BA0C67 		.ascii	"6\272\014gtU\017\012wJ\373\224+\240Y\007\276\323\330"
 510      74550F0A 
 510      774AFB94 
 510      2BA05907 
 510      BED3D8
 511 0b6e 03DFA16C 		.ascii	"\003\337\241l\366\236\251\315\224\033\031c\310\021\260"
 511      F69EA9CD 
 511      941B1963 
 511      C811B0
 512 0b7d 4D2E348F 		.ascii	"M.4\217l\260c\255j\315Z\"\2779\006\225\336ZG5k\211\374"
 512      6CB063AD 
 512      6ACD5A22 
 512      BF390695 
 512      DE5A4735 
 513 0b94 96186444 		.ascii	"\226\030dD\006S\245\263\250\210\256v\232*\375$\230|"
 513      0653A5B3 
 513      A888AE76 
 513      9A2AFD24 
 513      987C
 514 0ba6 467B57D7 		.ascii	"F{W\327\303\016\264\336\304\326\272\323\215e\221\257"
 514      C30EB4DE 
 514      C4D6BAD3 
 514      8D6591AF 
 515 0bb6 C08B4731 		.ascii	"\300\213G1v\243X\234\034p\351\017\3551\242D\304U)\313"
 515      76A3589C 
 515      1C70E90F 
 515      ED31A244 
 515      C45529CB 
 516 0bca 6F30B7FC 		.ascii	"o0\267\374-\312\362{\355X~\0072!\342F\263<\233\012\363"
 516      2DCAF27B 
 516      ED587E07 
 516      3221E246 
 516      B33C9B0A 
 517 0bdf AC79196D 		.ascii	"\254y\031my6\231\276\237VG\373\251\310o\213Ah\325OY"
 517      793699BE 
 517      9F5647FB 
 517      A9C86F8B 
 517      4168D54F 
 518 0bf4 5444BD2D 		.ascii	"TD\275-\346.\343\274\237\036\265\352\247\304\2101\372"
 518      E62EE3BC 
 518      9F1EB5EA 
 518      A7C48831 
 518      FA
 519 0c05 E916736B 		.ascii	"\351\026sk\335\244\254\325f\307Z\215\264\265\330Tzk"
 519      DDA4ACD5 
 519      66C75A8D 
 519      B4B5D854 
 519      7A6B
 520 0c17 5DA3ADC5 		.ascii	"]\243\255\305&\263\352\247,*\242\253c\246J?R\360&\214"
 520      26B3EAA7 
 520      2C2AA2AB 
 520      63A64A3F 
 520      52F0268C 
 521 0c2b D3F2C35D 		.ascii	"\323\362\303]]#9J\361k-\024\177\332J\361\346\335b\273"
 521      5D23394A 
 521      F16B2D14 
 521      7FDA4AF1 
ARM GAS  /tmp/cccn1nd4.s 			page 40


 521      E6DD62BB 
 522 0c3f B9A2AF51 		.ascii	"\271\242\257Q\212>e; \252\237\223\335\030\226M\245w"
 522      8A3E653B 
 522      20AA9F93 
 522      DD18964D 
 522      A577
 523 0c51 534569C4 		.ascii	"SEi\304\032[K4\306\242\"B\2365\325\3302Fd\263R\327\327"
 523      1A5B4B34 
 523      C6A22242 
 523      9E35D5D8 
 523      324664B3 
 524 0c68 26EAA2D4 		.ascii	"&\352\242\324\323l\256\236\253\224z\316[\252\207!'\213"
 524      D36CAE9E 
 524      AB947ACE 
 524      5BAA8721 
 524      278B
 525 0c7a 887077D1 		.ascii	"\210pw\321T\316-=\220\363\262\225[\224\333\212\236\007"
 525      54CE2D3D 
 525      90F3B295 
 525      5B94DB8A 
 525      9E07
 526 0c8c EDB9C925 		.ascii	"\355\271\311%;nR\365\237\375\264\263.m\030VGE}.\312"
 526      3B6E52F5 
 526      9FFDB4B3 
 526      2E6D1856 
 526      47457D2E 
 527 0ca1 7561F0A8 		.ascii	"ua\360\250\346]\"\377e\214\306\254\274\213EEt\325a\252"
 527      E65D22FF 
 527      658CC6AC 
 527      BC8B4545 
 527      74D561AA 
 528 0cb5 F5453DD0 		.ascii	"\365E=\320\372-\033Z\247\264\374\251=o\353\264\243\345"
 528      FA2D1B5A 
 528      A7B4FCA9 
 528      3D6FEBB4 
 528      A3E5
 529 0cc7 0A4DCB22 		.ascii	"\012M\313\"\177\203\2462\3232C]\254\266\210\220?vWW"
 529      7F83A632 
 529      D332435D 
 529      ACB68890 
 529      3F765757 
 530 0cdb 4D7BB8B5 		.ascii	"M{\270\265\260\031f\300\312\217]].:|Y,N\316p?\300\031"
 530      B01966C0 
 530      CA8F5D5D 
 530      2E3A7C59 
 530      2C4ECE70 
 531 0cf2 952270C7 		.ascii	"\225\"p\307)\215D\270T\336U\\\030\015\325W\334\017\353"
 531      298D44B8 
 531      54DE555C 
 531      180DD557 
 531      DC0FEB
 532 0d05 B910F97C 		.ascii	"\271\020\371|\267\031[\345\007\314\255h\301\323l7{\301"
 532      B7195BE5 
 532      07CCAD68 
 532      C1D36C37 
 532      7BC1
 533 0d17 D4643121 		.ascii	"\324d1!\034\247\001L\347tKQ\255\0175\342\025\3739n\264"
ARM GAS  /tmp/cccn1nd4.s 			page 41


 533      1CA7014C 
 533      E7744B51 
 533      AD0F35E2 
 533      15FB396E 
 534 0d2c 28712631 		.ascii	"(q&1\346\242\204\021G\344_w#\013\316sS\213\022\267\012"
 534      E6A28411 
 534      47E45F77 
 534      230BCE73 
 534      538B12B7 
 535 0d41 F19F85A1 		.ascii	"\361\237\205\241\347\261\227%\3564\275\305\\T\201\012"
 535      E7B19725 
 535      EE34BDC5 
 535      5C54810A 
 536 0d51 BC7ECB30 		.ascii	"\274~\3130\262\350\227\214\255p\03186\333Y4T\203\251"
 536      B2E8978C 
 536      AD701938 
 536      36DB5934 
 536      5483A9
 537 0d64 23E6B298 		.ascii	"#\346\262\230\346\362\210\312e\261-.\2176\341\305\023"
 537      E6F288CA 
 537      65B12D2E 
 537      8F36E1C5 
 537      13
 538 0d75 6A79188D 		.ascii	"jy\030\215(\230\223a\267ne\372\230Kc\301\341dXm^A\363"
 538      28989361 
 538      B76E65FA 
 538      984B63C1 
 538      E164586D 
 539 0d8c 362FD578 		.ascii	"6/\325x\243E\343\213\365\215\357t\334xr\314\306oY4^"
 539      A345E38B 
 539      F58DEF74 
 539      DC7872CC 
 539      C66F5934 
 540 0da1 AE6FFC47 		.ascii	"\256o\374G;\215\263\227rL\033\377\332\242\361J7\265"
 540      3B8DB397 
 540      724C1BFF 
 540      DAA2F14A 
 540      37B5
 541 0db3 9D77D131 		.ascii	"\235w\3211\003\261\245\277l\301\300\022\275\364\035"
 541      03B1A5BF 
 541      6CC1C012 
 541      BDF41D
 542 0dc2 761A67EF 		.ascii	"v\032g\357\370\2306~\332\242\361e\372\306\317:n<\266"
 542      F898367E 
 542      DAA2F165 
 542      FAC6CF3A 
 542      6E3CB6
 543 0dd5 E44D168D 		.ascii	"\344M\026\215\327\350\033o\261\3238{G\311\264\361\325"
 543      D7E81B6F 
 543      B1D3387B 
 543      47C9B4F1 
 543      D5
 544 0de6 168D2FD7 		.ascii	"\026\215/\3277\276\321q\343\311\234\361\247\271\220"
 544      37BED171 
 544      E3C99CF1 
 544      A7B990
 545 0df5 C82F74A3 		.ascii	"\310/t\243\365\257R\234\227\341\274\002\347U8_\212\363"
ARM GAS  /tmp/cccn1nd4.s 			page 42


 545      F5AF529C 
 545      97E1BC02 
 545      E755385F 
 545      8AF3
 546 0e07 6A9CD7BA 		.ascii	"j\234\327\272m\254\221-p\353\326\310\356\342\220;\257"
 546      6DAC912D 
 546      70EBD6C8 
 546      EEE2903B 
 546      AF
 547 0e18 87614109 		.ascii	"\207aA\011\337U\317d\253\213\342\371\3678\0053\232\373"
 547      DF55CF64 
 547      AB8BE2F9 
 547      F7380533 
 547      9AFB
 548 0e2a 7D457179 		.ascii	"}Eqy\265}\21194\230\331\271K\366\237\004\002\034\230"
 548      B57D8939 
 548      3498D9B9 
 548      4BF69F04 
 548      021C98
 549 0e3d 4FFB2BE6 		.ascii	"O\373+\346\0054\230q\367&V\037\214\240\251\033;\245"
 549      05349871 
 549      F726561F 
 549      8CA0A91B 
 549      3BA5
 550 0e4f B6D098E7 		.ascii	"\266\320\230\347\2000\232\313{/W\204\277\033\345\306"
 550      80309ACB 
 550      7B2F5784 
 550      BF1BE5C6 
 551 0e5f DD60E3A9 		.ascii	"\335`\343\251\024d\260\265\356{q\311p~\022\327`\231"
 551      1464B0B5 
 551      EE7B71C9 
 551      707E12D7 
 551      6099
 552 0e71 F87D77F4 		.ascii	"\370}w\364\340xbB\264\240\375i\246\300-\241E06K\212"
 552      E0786242 
 552      B4A0FD69 
 552      A6C02DA1 
 552      4530364B 
 553 0e86 CC3FB820 		.ascii	"\314?\270 \"\250\274\011\\\265-\264\227\331\226\357"
 553      22A8BC09 
 553      5CB52DB4 
 553      97D996EF 
 554 0e96 DED74CBE 		.ascii	"\336\327L\276\252\355\021\320\207\270\350\3376\177s"
 554      AAED11D0 
 554      87B8E8DF 
 554      367F73
 555 0ea5 6B2E39B6 		.ascii	"k.9\266\264\011\017\"N\335\023s\020a\004B\012\253\247"
 555      B4090F22 
 555      4EDD1373 
 555      10610442 
 555      0AABA7
 556 0eb8 3FCD4BCF 		.ascii	"?\315K\317\356S\377d\272>\366\307y\326\314\360\206\263"
 556      EE53FF64 
 556      BA3EF6C7 
 556      79D6CCF0 
 556      86B3
 557 0eca FB84E871 		.ascii	"\373\204\350q\205\231\226K\261\"\277\033\357\364\331"
ARM GAS  /tmp/cccn1nd4.s 			page 43


 557      8599964B 
 557      B122BF1B 
 557      EFF4D9
 558 0ed9 59BFFF16 		.ascii	"Y\277\377\026\013S\337\263\356\011|mDb\240\035\227m"
 558      0B53DFB3 
 558      EE097C6D 
 558      4462A01D 
 558      976D
 559 0eeb 78FBEC3B 		.ascii	"x\373\354;\307p\311\006\270MF\270\016;p\254.\012p\233"
 559      C770C906 
 559      B84D46B8 
 559      0E3B70AC 
 559      2E0A709B 
 560 0eff 8D70DF3B 		.ascii	"\215p\337;\2063r\267\305\010\367\203\0358\326\227\017"
 560      863372B7 
 560      C508F783 
 560      1D38D697 
 560      0F
 561 0f10 E0B619E1 		.ascii	"\340\266\031\341\356:\2063r\327`\204\313O\262\001g\366"
 561      EE3A8633 
 561      72D76084 
 561      CB4FB201 
 561      67F6
 562 0f22 7532FBE9 		.ascii	"u2\373\351\035X\344\267\270\221{m\305_\204\006\234o"
 562      1D58E4B7 
 562      B8917B6D 
 562      C55F8406 
 562      9C6F
 563 0f34 C77918E7 		.ascii	"\307y\030\347\273p\276\007\347{\355|/\352\364\337\213"
 563      BB70BE07 
 563      E77BED7C 
 563      2FEAF4DF 
 563      8B
 564 0f45 C2241B21 		.ascii	"\302$\033!>\327D\013\346l\317\323\261\375\006f{>f\354"
 564      3ED7440B 
 564      E66CCFD3 
 564      B1FD0666 
 564      7B3E66EC 
 565 0f59 2D9CBF8D 		.ascii	"-\234\277\215\363wq\276\032\347\357\341|=\3167\332a"
 565      F37771BE 
 565      1AE7EFE1 
 565      7C3DCE37 
 565      DA61
 566 0f6b BE30CA7C 		.ascii	"\2760\312|d\212y\203Z\020'\367\324\224s~\022c\023\343"
 566      648A7983 
 566      5A1027F7 
 566      D494737E 
 566      126313E3 
 567 0f7f CC80FDEA 		.ascii	"\314\200\375\352&\006\302\026\270J\\o\226\2335\363\304"
 567      2606C216 
 567      B84A5C6F 
 567      969B35F3 
 567      C4
 568 0f90 1C90A967 		.ascii	"\034\220\251g+\232\251\253\307>\226\305 \273\241["
 568      2B9AA9AB 
 568      C73E96C5 
 568      20BBA15B 
ARM GAS  /tmp/cccn1nd4.s 			page 44


 569 0fa0 182F53D7 		.ascii	"\030/S\3279U\302\267\355\020Ff\203\363\225\331}\371"
 569      3955C2B7 
 569      ED104666 
 569      83F395D9 
 569      7DF9
 570 0fb2 C8747016 		.ascii	"\310tp\026=\035l6\235\016\236r>\035lsSsz$\266\305\334"
 570      3D1D6C36 
 570      9D0E9E72 
 570      3E1D6C73 
 570      53737A24 
 571 0fc9 909A57BD 		.ascii	"\220\232W\275\254\341\241\377\206B\"{\343\265\375\277"
 571      ACE1A1FF 
 571      8642227B 
 571      E3B5FDBF 
 572 0fd9 455BA226 		.ascii	"E[\242&\001\334P\035\3466\3409\261j\241z'\350(\177\272"
 572      01DC501D 
 572      E636E039 
 572      B16AA17A 
 572      27E8287F 
 573 0fee 054FC04E 		.ascii	"\005O\300N\330\232\200\335lYF\266\210\325\177\320\320"
 573      D89A80DD 
 573      6C5946B6 
 573      88D57FD0 
 573      D0
 574 0fff 89       		.ascii	"\211"
 575 1000 0D71A2A7 		.ascii	"\015q\242\2473\252p\321\233\211\207^&{\003J\2012\340"
 575      33AA70D1 
 575      9B89875E 
 575      267B034A 
 575      8132E0
 576 1013 DD28E77D 		.ascii	"\335(\347}5r\201\323\3751T\375o\360\027\251]\015G\224"
 576      357281D3 
 576      FD3154FD 
 576      6FF017A9 
 576      5D0D4794 
 577 1027 7BDA073A 		.ascii	"{\332\007:R\371\216\372\357!\276\300@\205}\350=@\027"
 577      52F98EFA 
 577      EF21BEC0 
 577      40857DE8 
 577      3D4017
 578 103a B505E832 		.ascii	"\265\005\3502~\250\\\011\321\002Z\307pVY\340J\372Pz"
 578      7EA85C09 
 578      D1025AC7 
 578      705659E0 
 578      4AFA507A 
 579 104e 33301973 		.ascii	"30\031s\224\010~q\346_\033\327+\312l\257\246\213\305"
 579      94087E71 
 579      E65F1BD7 
 579      2BCA6CAF 
 579      A68BC5
 580 1061 8E11F57F 		.ascii	"\216\021\365\177\242\223\037^\217,\241\201U\332\001"
 580      A2931F5E 
 580      8F2CA181 
 580      55DA01
 581 1070 33FBA8E9 		.ascii	"3\373\250\351\224\240\006\264\2238\240}\216\203\325"
 581      94A006B4 
 581      9338A07D 
ARM GAS  /tmp/cccn1nd4.s 			page 45


 581      8E83D5
 582 107f 699C9FC7 		.ascii	"i\234\237\307\371\005}\340\202H\320\315\000\252?\352"
 582      F9057DE0 
 582      8248D0CD 
 582      00AA3FEA 
 583 108f F0A28ECB 		.ascii	"\360\242\216\313\305Fdu\321\317\334\275\015\240\206"
 583      C5466475 
 583      D1CFDCBD 
 583      0DA086
 584 109e 68B7A60F 		.ascii	"h\267\246\017#\332\335\032\330\020\215v\"\377\011^\311"
 584      23DADD1A 
 584      D8108D76 
 584      22FF095E 
 584      C9
 585 10af 38622BDA 		.ascii	"8b+\332\235@\321\3563\034$\3530<\233\214\360f\032\264"
 585      9D40D1EE 
 585      331C24EB 
 585      303C9B8C 
 585      F0661AB4 
 586 10c3 8ED041EB 		.ascii	"\216\320A\353[\323\240\265\245\331q\320\3520\013Z\224"
 586      5BD3A0B5 
 586      A5D971D0 
 586      EA300B5A 
 586      94
 587 10d4 62B6992A 		.ascii	"b\266\231*F\335o\321\253\344\252\265J\030\262]\245e"
 587      46DD6FD1 
 587      ABE4AAB5 
 587      4A18B25D 
 587      A565
 588 10e6 BB6E2ADB 		.ascii	"\273n*\333\346\026\307\262uZ\004d\326*\353NsY+$J\326"
 588      E616C7B2 
 588      755A0464 
 588      D62AEB4E 
 588      73592B24 
 589 10fc 9BB6CC7F 		.ascii	"\233\266\314\177\204^g\325\221Y\256\263\032Ut\223V\321"
 589      845E67D5 
 589      9159AEB3 
 589      1A557493 
 589      56D1
 590 110e 6D531555 		.ascii	"mS\025U\035d\256\254Z\255E+\236\330.\320jS-]6]`]\301"
 590      1D64AEAC 
 590      5AAD452B 
 590      9ED82ED0 
 590      6A532D5D 
 591 1127 ECBEEEE8 		.ascii	"\354\276\356\350B2\213\214p\230\357\351&n{Q\373\312"
 591      42328B8C 
 591      7098EFE9 
 591      266E7B51 
 591      FBCA
 592 1139 1F5AF90A 		.ascii	"\037Z\371\012e\327,\245\253\3535Z^\253\035\310\002\217"
 592      65D72CA5 
 592      ABEB355A 
 592      5EAB1DC8 
 592      028F
 593 114b D539D75A 		.ascii	"\3259\327Z\213s\256s<\335GR\326\307RX[&\355\224>5I\337"
 593      8B73AE73 
 593      3CDD4752 
ARM GAS  /tmp/cccn1nd4.s 			page 46


 593      D6C75258 
 593      5B26ED94 
 594 1163 309334DC 		.ascii	"0\2234\334q\360\015\205w\2747\277\300R\316.\306\337"
 594      71F00D85 
 594      77BC37BF 
 594      C052CE2E 
 594      C6DF
 595 1175 57E0B55A 		.ascii	"W\340\265Z\0239\031[\2631\344\274\302\220s\221\251\234"
 595      1339195B 
 595      B331E4BC 
 595      C2907391 
 595      A99C
 596 1187 AD07DF78 		.ascii	"\255\007\337xP\251u\274\263\271\230v`d\247\030\214\315"
 596      50A975BC 
 596      B3B99876 
 596      6064A718 
 596      8CCD
 597 1199 E86BCE58 		.ascii	"\350k\316X\205)c\247\230\006\260\342\253\212\346\253"
 597      852963A7 
 597      9806B0E2 
 597      AB8AE6AB 
 598 11a9 C8E3786F 		.ascii	"\310\343xo\255\210\301g\265i\227\200q\301s\345\033\225"
 598      AD88C167 
 598      B5699780 
 598      71C173E5 
 598      1B95
 599 11bb 59EAC92B 		.ascii	"Y\352\311+u\327D\340\252\031\030\265\246\030\263n\357"
 599      75D744E0 
 599      AA1918B5 
 599      A618B36E 
 599      EF
 600 11cc E7E738DE 		.ascii	"\347\3478\336\237Ya)k\254NBOGF\232\315F\3260\304Xej"
 600      9F596129 
 600      6BAC4E42 
 600      4F47469A 
 600      CD46D630 
 601 11e4 B22D4C93 		.ascii	"\262-L\223YH\261\306\322\223~\022)\2661\244\330`j\214"
 601      5948B1C6 
 601      D2937E12 
 601      29B631A4 
 601      D8606A8C 
 602 11f8 866B179E 		.ascii	"\206k\027\236\213\3048u\212!p\373\031\020u\246\020\235"
 602      8BC43875 
 602      8A2170FB 
 602      191075A6 
 602      109D
 603 120a CD2D5E1D 		.ascii	"\315-^\035\204\352\022\2372 >0\205\330s\263'.Qo\246"
 603      84EA129F 
 603      32203E30 
 603      85D873B3 
 603      272E516F 
 604 121f 4C4A1BE7 		.ascii	"LJ\033\347\031|l5\265\351\311\236\330\364C3\317\244"
 604      197C6C35 
 604      B5E9C99E 
 604      D8F44333 
 604      CFA4
 605 1231 D8E860B0 		.ascii	"\330\350`\260\321\3100\312U\275Q:\260F\3570 v\230B\224"
ARM GAS  /tmp/cccn1nd4.s 			page 47


 605      D1C830CA 
 605      55BD513A 
 605      B046EF30 
 605      20769842 
 606 1246 D7EDFC47 		.ascii	"\327\355\374G\326\267\313B\226\235\226!}>\343\230'^"
 606      D6B7CB42 
 606      969D9621 
 606      7D3EE398 
 606      275E
 607 1258 6F3309E9 		.ascii	"o3\011\351\313M#\316\334{\315\005\371\310T\220/\301"
 607      CB4D23CE 
 607      DC7BCD05 
 607      F9C85490 
 607      2FC1
 608 126a 35588258 		.ascii	"5X\202X\305\306&\313\236f>6[\306\340\354\200\251\263"
 608      C5C626CB 
 608      9E663E36 
 608      5BC6E0EC 
 608      80A9B3
 609 127d 5CE951CC 		.ascii	"\\\351Q\314\376\330\206\267\274\303\340\243\305\310"
 609      FED886B7 
 609      BCC3E0A3 
 609      C5C8
 610 128b C7DF73B5 		.ascii	"\307\337s\265\312\241C0\177\330\371\320'\371\3504\254"
 610      CAA14330 
 610      7FD8F9D0 
 610      27F9E834 
 610      AC
 611 129c D2D9C577 		.ascii	"\322\331\305w\271D\376M<\225Y\201\007L\010\205\360b"
 611      B944FE4D 
 611      3C955981 
 611      074C0885 
 611      F062
 612 12ae DC31E548 		.ascii	"\3341\345H\025\364\033\316\325)s\302J\204\024\355\206"
 612      15F41BCE 
 612      D52973C2 
 612      4A8414ED 
 612      86
 613 12bf FC37F783 		.ascii	"\3747\367\2032G\011/l\342\325]N\3650\021&+\215\274V"
 613      3247092F 
 613      6CE2D55D 
 613      4EF53011 
 613      262B8DBC 
 614 12d4 1E537721 		.ascii	"\036Sw!\325\023\201\370eY\364\345\213\352.\241\272\217"
 614      D51381F8 
 614      6559F4E5 
 614      8BEA2EA1 
 614      BA8F
 615 12e6 8F5F5644 		.ascii	"\217_VD_\376I\333\305;\257\275\254\212\266Z\212Z]\202"
 615      5FFE49DB 
 615      C53BAFBD 
 615      AC8AB65A 
 615      8A5A5D82 
 616 12fa 5F5FD25E 		.ascii	"__\322^/\215\322\016S\367\300\324\323:\370eu\364\345"
 616      2F8DD20E 
 616      53F7C0D4 
 616      D33AF865 
ARM GAS  /tmp/cccn1nd4.s 			page 48


 616      75F4E5
 617 130d 48758F4A 		.ascii	"Hu\217J=q\206_\326F_\372\324=$\365\330(\376Q>\216\006"
 617      3D71865F 
 617      D6465FFA 
 617      D43D24F5 
 617      D828FE51 
 618 1324 6F2CDB1D 		.ascii	"o,\333\035\213\3728E\265\300\202\3528\223j\261\005\325"
 618      8BFA3845 
 618      B5C082EA 
 618      38936AB1 
 618      05D5
 619 1336 09265595 		.ascii	"\011&U\225\005\325I&\025\012\313,\252\317\231Th\353"
 619      05D54926 
 619      150ACB2C 
 619      AACF9954 
 619      68EB
 620 1348 8145758A 		.ascii	"\201Eu\212I\265\306\202\303\323L\252\025\026T\355Q*"
 620      49B5C682 
 620      C3D34CAA 
 620      151654ED 
 620      512A
 621 135a 7206BCA2 		.ascii	"r\006\274\242\356\330\240\367\2643\3403f\321\247\300"
 621      EED8A0F7 
 621      B433E033 
 621      66D1A7C0 
 622 136a 2D62DC59 		.ascii	"-b\334Y\272\007\356\356\336\003\327\337k:\0359\206\246"
 622      BA07EEEE 
 622      DE03D7DF 
 622      6B3A1D39 
 622      86A6
 623 137c 23A8BAC0 		.ascii	"#\250\272\300\205q\2153\036\326t\204\304C2\0359\246"
 623      85718D33 
 623      1ED67484 
 623      C443321D 
 623      39A6
 624 138e 8CEF1799 		.ascii	"\214\357\027\231m!\"\335O\344\317\031\3735\331\264\252"
 624      6D2122DD 
 624      4FE4CF19 
 624      FB35D9B4 
 624      AA
 625 139f 791AED5A 		.ascii	"y\032\355Z\025Gc\211a\221\004\321}\355q\272iu\301c\276"
 625      15476389 
 625      619104D1 
 625      7DED71BA 
 625      6975C163 
 626 13b4 69C51B9B 		.ascii	"i\305\033\233N\246Z\036\241\325\213#8\027\035\267\374"
 626      4EA65A1E 
 626      A1D58B23 
 626      38171DB7 
 626      FC
 627 13c5 0DA365AF 		.ascii	"\015\243e\257\2713\264Y\270\353\267L\027\352\260\240"
 627      B933B459 
 627      B8EBB74C 
 627      17EAB0A0 
 628 13d5 BAC4A4FA 		.ascii	"\272\304\244\372\320\302\361.3\251\352-\250\276\353"
 628      D0C2F12E 
 628      33A9EA2D 
ARM GAS  /tmp/cccn1nd4.s 			page 49


 628      A8BEEB
 629 13e4 E6AEE5EF 		.ascii	"\346\256\345\357\037\177\235/\236\251\250\307Yk\342"
 629      1F7F9D2F 
 629      9EA9A8C7 
 629      596BE2
 630 13f3 B5715267 		.ascii	"\265qRg\267Pov\304\350\012\3551W\215\036C\261\266\323"
 630      B7506F76 
 630      C4E80AED 
 630      31578D1E 
 630      43B1B6D3 
 631 1407 82B56B4C 		.ascii	"\202\265kL\201\232,\250\256\323\002\205\227t\354#k\001"
 631      819A2CA8 
 631      AED30285 
 631      9774EC23 
 631      6B01
 632 1419 33E70864 		.ascii	"3\347\010d\344 p\257\337g\332onk\375F\344\277\362\240"
 632      E42070AF 
 632      DF67DA6F 
 632      6E6BFD46 
 632      E4BFF2A0 
 633 142d DA37ACFB 		.ascii	"\3327\254\373\215J\026\256\3568\024W\241\204\335\332"
 633      8D4A16AE 
 633      EE381457 
 633      A184DDDA 
 634 143d DFC5ACC0 		.ascii	"\337\305\254\300\350l\332\345\372\223w\341\245\035\355"
 634      E86CDAE5 
 634      FA9377E1 
 634      A51DED
 635 144c 82B2281C 		.ascii	"\202\262(\034]\345\270Ak\361{K-~l\241\217\333Q}p\217"
 635      5DE5B841 
 635      6BF17B4B 
 635      2D7E6CA1 
 635      8FDB517D 
 636 1462 A76406B2 		.ascii	"\247d\006\262\245\224\364@\306\253)\031\322\324\224"
 636      A594F440 
 636      C6AB2919 
 636      D2D494
 637 1471 F44CFF44 		.ascii	"\364L\377D\177 \224\"\007\363r^I\201BPN\361\347\244"
 637      7F209422 
 637      07F3725E 
 637      49814250 
 637      4EF1E7A4 
 638 1485 67E56540 		.ascii	"g\345e@\245\314)yR\236\024z4\223\273\307\237\223\233"
 638      A5CC2979 
 638      529E147A 
 638      3493BBC7 
 638      9F939B
 639 1498 27FBF0BD 		.ascii	"'\373\360\275O\366>\373\302K\311\243\270^\376\200\366"
 639      4FF63EFB 
 639      C24BC9A3 
 639      B85EFE80 
 639      F6
 640 14a9 245E2B8E 		.ascii	"$^+\216p\204\037z5$\277\232\213[\350#g\006%1#\244!\366"
 640      70841F7A 
 640      3524BF9A 
 640      8B5BE823 
 640      67062531 
ARM GAS  /tmp/cccn1nd4.s 			page 50


 641 14c1 4DCFF419 		.ascii	"M\317\364\031\036\015w\206\234\236\231\001\250\361*"
 641      1E0D7786 
 641      9C9E9901 
 641      A8F12A
 642 14d0 844F4E88 		.ascii	"\204ON\210\300ys}9\322t\031.\271Ai\352\030\033\250\271"
 642      C079737D 
 642      39D27419 
 642      2EB94169 
 642      EA181BA8 
 643 14e5 81A01C4A 		.ascii	"\201\240\034J\371]\352\363\243\236\237\0165\263s\375"
 643      F95DEAF3 
 643      A39E9F0E 
 643      35B373FD 
 644 14f5 59523094 		.ascii	"YR0\224\362\354\250QP]\343?N\316\015\202\022\344\376"
 644      F2ECA851 
 644      505DE33F 
 644      4ECE0D82 
 644      12E4FE
 645 1508 2979A160 		.ascii	")y\241`\212\030\314\036\224\023\310\221\006I\342D\177"
 645      8A18CC1E 
 645      9413C891 
 645      0649E244 
 645      7F
 646 1519 84AD909C 		.ascii	"\204\255\220\234\341\317\221\021[yp\0356\324'\017\267"
 646      E1CF9111 
 646      5B79701D 
 646      36D4270F 
 646      B7
 647 152a A89D2D02 		.ascii	"\250\235-\00239R\212/C\232$\346e\311>\255\251^>\237"
 647      3339528A 
 647      2F439A24 
 647      E665C93E 
 647      ADA95E3E 
 648 153f 468FA5F0 		.ascii	"F\217\245\360\007\342\322\00392\010\365\244ci2\323\003"
 648      07E2D203 
 648      393208F5 
 648      A4636932 
 648      D303
 649 1551 4109307B 		.ascii	"A\0110{\243\307>@M\227\247\377\266g(\276\251Od#\331"
 649      A3C73E40 
 649      4D97A7FF 
 649      B66728BE 
 649      A94F6423 
 650 1566 82D26410 		.ascii	"\202\322d\020\310'\273BC\036\207\364\004\244\021\220"
 650      C827BB42 
 650      431E87F4 
 650      04A41190 
 651 1576 9E748586 		.ascii	"\236t\205\206\016\2064\004\322PH\303 \015\207\364\030"
 651      0E863404 
 651      D25048C3 
 651      200D87F4 
 651      18
 652 1587 24A83714 		.ascii	"$\2507\024\352\015\205zC\241\3360\2507l\210\020\034"
 652      EA0D857A 
 652      43A1DE30 
 652      A8376C88 
 652      101C
ARM GAS  /tmp/cccn1nd4.s 			page 51


 653 1599 2E041F13 		.ascii	".\004\037\023\202\217\013\301'\204\340\010!\370\244"
 653      828F0BC1 
 653      2784E008 
 653      21F8A4
 654 15a8 2B386430 		.ascii	"+8d0\244!BV\020.\303<\271>\3406\016\331s\232\024\204"
 654      A4214256 
 654      102EC33C 
 654      B93EE036 
 654      0ED9739A 
 655 15be 6B202B43 		.ascii	"k +C\012\272\3233\305 2\262\230-\305\313!Y\224\301\233"
 655      0ABAD333 
 655      C52032B2 
 655      982DC5CB 
 655      215994C1 
 656 15d3 E290C246 		.ascii	"\342\220\302F\200\033\250\252\203\022T\307\357\342\344"
 656      801BA8AA 
 656      831254C7 
 656      EFE2E4
 657 15e2 EC408684 		.ascii	"\354@\206\204\357'e\211\223CqrP\232\024\302\232E\005"
 657      EF276589 
 657      93437172 
 657      509A14C2 
 657      9A4505
 658 15f5 4F766832 		.ascii	"Ovh2\274$\352\006rM\361\301\214W\341U\2744\335/\203"
 658      BC24EA06 
 658      724DF1C1 
 658      8C57E155 
 658      BC34DD2F 
 659 160a A224EF34 		.ascii	"\242$\357490\361\317\271\275\245\251R\216\234-\206^"
 659      3930F1CF 
 659      B9BDA5A9 
 659      528E9C2D 
 659      865E
 660 161c 812AD234 		.ascii	"\201*\3224Tp\345\372\362\2224O\316\362\207\300\216}"
 660      5470E5FA 
 660      F292344F 
 660      CEF287C0 
 660      8E7D
 661 162e 74BE8D9E 		.ascii	"t\276\215\236$\344\372\246\211~\331\2373\271W\256\017"
 661      24E4FAA6 
 661      897ED99F 
 661      33B957AE 
 661      0F
 662 163f 50B1BF7B 		.ascii	"P\261\277{p\021\036H\271R\016\370\315dOv\036\330x\230"
 662      70111E48 
 662      B9520EF8 
 662      CD644F76 
 662      1ED87898 
 663 1653 A36E902D 		.ascii	"\243n\220-OG\276\231\255v!\270\006\246\345\200\2520"
 663      4F47BE99 
 663      AD7621B8 
 663      06A6E580 
 663      AA30
 664 1665 1270988D 		.ascii	"\022p\230\215\273\0024\017\365\020#\275\220\320b\026"
 664      BB02340F 
 664      F51023BD 
 664      90D06216 
ARM GAS  /tmp/cccn1nd4.s 			page 52


 665 1675 76297898 		.ascii	"v)x\230\033\010d%L\321x\033\212}5\313?1erz:\345\263"
 665      1B086425 
 665      4CD1781B 
 665      8A7D35CB 
 665      3F316572 
 666 168d C31F1DF1 		.ascii	"\303\037\035\361\350p\275\237\203\317B\303\336\220\377"
 666      E870BD9F 
 666      83CF42C3 
 666      DE90FF
 667 169c BF40B780 		.ascii	"\277@\267\200\221\036\310\003\017\015\306O\361M\314"
 667      911EC803 
 667      0F0DC64F 
 667      F14DCC
 668 16ab 9B34490A 		.ascii	"\2334I\012z\246\370\344@n\034\200\007s\345 \\\203\031"
 668      7AA6F8E4 
 668      406E1C80 
 668      0773E520 
 668      5C8319
 669 16be 704D9892 		.ascii	"pM\230\222\023\220\375\223^\205\2002\305\247\026\275"
 669      1390FD93 
 669      5E858032 
 669      C5A716BD 
 670 16ce 53404539 		.ascii	"S@E9\257$\005\362d]\004z,\226\0262\305\254(;R\320/f"
 670      AF2405F2 
 670      645D047A 
 670      2C961632 
 670      C5AC283B 
 671 16e6 013B09A1 		.ascii	"\001;\011\241\014\342\017\011i\243}/\2750\366\205\261"
 671      0CE20F09 
 671      69A37D2F 
 671      BD30F685 
 671      B1
 672 16f7 13E2A094 		.ascii	"\023\342\240\2246a\334\370x\270\246>\363\273\321\177"
 672      3661DCF8 
 672      78B8A63E 
 672      F3BBD17F 
 673 1707 741621B1 		.ascii	"t\026!\261\275Q\247L\302%_(\220\027L\207\006\022\365"
 673      BD51A74C 
 673      C2255F28 
 673      90174C87 
 673      0612F5
 674 171a B77DD51B 		.ascii	"\267}\325\033\244a\011\324\357\223\223\214\017\342\244"
 674      A46109D4 
 674      EF93938C 
 674      0FE2A4
 675 1729 2C6C88DE 		.ascii	",l\210\336p\325\236%@Y\005W\241\260s\202^\3401.\242"
 675      70D59E25 
 675      40590557 
 675      A1B07382 
 675      5EE0312E 
 676 173e F7D3548F 		.ascii	"\367\323T\217\225B\230z\210\035\235\204\202\351\232"
 676      9542987A 
 676      881D9D84 
 676      82E99A
 677 174d 3ED2411F 		.ascii	">\322A\037\020\177\375\331\300\256\0079\243,\370s\205"
 677      107FFDD9 
 677      C0AE0739 
ARM GAS  /tmp/cccn1nd4.s 			page 53


 677      A32CF873 
 677      85
 678 175e 89B97C8E 		.ascii	"\211\271|\216\033=t\343`9-\350\227%\331\203/\356\311"
 678      1B3D74E3 
 678      60392DE8 
 678      9725D983 
 678      2FEEC9
 679 1771 922CC7A1 		.ascii	"\222,\307\241w`\014\027\334\270\301\"2?\321\005\027"
 679      77600C17 
 679      DCB8C122 
 679      323FD105 
 679      17
 680 1782 6F28636C 		.ascii	"o(cl\216_NL\303\330\243\203\376\251R\260\217\376\346"
 680      8E5F4E4C 
 680      C3D8A383 
 680      FEA952B0 
 680      8FFEE6
 681 1795 DF9F9FE0 		.ascii	"\337\237\237\340\232\232-{\2600\036l\006\257\037[\323"
 681      9A9A2D7B 
 681      B0301E6C 
 681      06AF1F5B 
 681      D3
 682 17a6 1BC017C1 		.ascii	"\033\300\027\301?Q\010L\374\227XB\200\240)\243\236O"
 682      3F51084C 
 682      FC975842 
 682      80A029A3 
 682      9E4F
 683 17b8 1B9B9692 		.ascii	"\033\233\226\2226\001\034-{\330\320I\303\007\017\231"
 683      36011C2D 
 683      7BD8D049 
 683      C3070F99 
 684 17c8 8E62D83D 		.ascii	"\216b\330=/\245\375."
 684      2FA5FD2E 
 685 17d0 75826F02 		.ascii	"u\202o\002\204\311\321\322$!-U\030\235\352\372}j\252"
 685      84C9D1D2 
 685      24212D55 
 685      189DEAFA 
 685      7D6AAA
 686 17e3 6B54EA10 		.ascii	"kT\352\020HC!\015s?;a|\252'/$\006\345\304P\306\270\211"
 686      4843210D 
 686      733F3B61 
 686      7CAA272F 
 686      2406E5C4 
 687 17fb 7F96D265 		.ascii	"\177\226\322e\304\270+\224\221\013\275\034\273\\\\@"
 687      C4B82B94 
 687      910BBD1C 
 687      BB5C5C40 
 688 180b BD8EB5A3 		.ascii	"\275\216\265\243P5\020\246Mx~\330\320\224\347\236\033"
 688      503510A6 
 688      4D787ED8 
 688      D094E79E 
 688      1B
 689 181c 9D827998 		.ascii	"\235\202y\230:\204(\331\227\225\205>C\236P\256$e\340"
 689      3A8428D9 
 689      9795853E 
 689      439E50AE 
 689      2465E0
ARM GAS  /tmp/cccn1nd4.s 			page 54


 690 182f A83FE471 		.ascii	"\250?\344q\237L\0028*\272\322\203C \015\2054\214(oT"
 690      9F4C0238 
 690      2ABAD283 
 690      43200D85 
 690      348C286F 
 691 1844 2067927F 		.ascii	" g\222\177r\\(#M\006.\275\351\370\326\213n\003\271}"
 691      725C2823 
 691      4D062EBD 
 691      E9F8D68B 
 691      6E03B97D 
 692 1858 909AE113 		.ascii	"\220\232\341\023\004\335q\264(\213c\223B\031\251\022"
 692      04DD71B4 
 692      288B6393 
 692      4219A912 
 693 1868 A82F24E3 		.ascii	"\250/$\343[\010,c_L\005\273MP\215\004\037\321q/\376"
 693      5B082C63 
 693      5F4C05BB 
 693      4D508D04 
 693      1FD1712F 
 694 187d 07B21D79 		.ascii	"\007\262\035y\220\204*<+\311\321\333q/\216\317\323n"
 694      90842A3C 
 694      2BC9D1DB 
 694      712F8ECF 
 694      D36E
 695 188f 7B873210 		.ascii	"{\2072\020\303\020\343\374\352\253\250~0a\3646\221\324"
 695      C310E3FC 
 695      EAABA87E 
 695      3061F436 
 695      91D4
 696 18a1 0C2116A1 		.ascii	"\014!\026\241\225\264\364\314T\011\276\271RF^\226\224"
 696      95B4F4CC 
 696      5409BEB9 
 696      52465E96 
 696      94
 697 18b2 D64B6523 		.ascii	"\326Ke#$\311c{!\030\265\330;B\023\310\275?=\363\231"
 697      24C9637B 
 697      2118B5D8 
 697      3B4213C8 
 697      BD3F3DF3 
 698 18c7 A9F2EF83 		.ascii	"\251\362\357\203\0011#]\014\311\377\206\374xl<\"\003"
 698      0131235D 
 698      0CC9FF86 
 698      FC786C3C 
 698      2203
 699 18d9 6E50611C 		.ascii	"nPa\034\342\022\311\003\325tV\222B\2711\003 \262J \004"
 699      E212C903 
 699      D5745692 
 699      42B93103 
 699      20B24A20 
 700 18ee 19745474 		.ascii	"\031tTt\005\375\337\213\256\343B:\026\373\241'\317 "
 700      05FDDF8B 
 700      AEE3423A 
 700      16FBA127 
 700      CF20
 701 1900 5FA498F0 		.ascii	"_\244\230\360\340>\365\177\303~+b"
 701      E03EF57F 
 701      C37E2B62 
ARM GAS  /tmp/cccn1nd4.s 			page 55


 702              		.text
 703              		.section	.gnu.lto_.symtab.b1f509b035e3fc14,"",%progbits
 704 0000 7364496E 		.ascii	"sdInit\000\000\000\000\000\000\000\000\000\000\000\000"
 704      69740000 
 704      00000000 
 704      00000000 
 704      0000
 705 0012 00020000 		.ascii	"\000\002\000\000sdObjectInit\000\000\000\000\000\000"
 705      73644F62 
 705      6A656374 
 705      496E6974 
 705      00000000 
 706 0028 00000000 		.ascii	"\000\000\000\000\000\000\004\002\000\000sdStart\000"
 706      00000402 
 706      00007364 
 706      53746172 
 706      7400
 707 003a 00000000 		.ascii	"\000\000\000\000\000\000\000\000\000\000\000S\002\000"
 707      00000000 
 707      00000053 
 707      0200
 708 0048 00736453 		.ascii	"\000sdStop\000\000\000\000\000\000\000\000\000\000\000"
 708      746F7000 
 708      00000000 
 708      00000000 
 708      0000
 709 005a 00710200 		.ascii	"\000q\002\000\000sdIncomingDataI\000\000\000\000\000"
 709      00736449 
 709      6E636F6D 
 709      696E6744 
 709      61746149 
 710 0073 00000000 		.ascii	"\000\000\000\000\000\000\000w\002\000\000sdRequestD"
 710      00000077 
 710      02000073 
 710      64526571 
 710      75657374 
 711 0088 61746149 		.ascii	"ataI\000\000\000\000\000\000\000\000\000\000\000\000"
 711      00000000 
 711      00000000 
 711      00000000 
 712 0098 7F020000 		.ascii	"\177\002\000\000chIQReadTimeout\000\000\002\000\000"
 712      63684951 
 712      52656164 
 712      54696D65 
 712      6F757400 
 713 00b0 00000000 		.ascii	"\000\000\000\000\000\000\000\205\002\000\000chOQWri"
 713      00000085 
 713      02000063 
 713      684F5157 
 713      7269
 714 00c2 74655469 		.ascii	"teTimeout\000\000\002\000\000\000\000\000\000\000\000"
 714      6D656F75 
 714      74000002 
 714      00000000 
 714      00000000 
 715 00d6 008D0200 		.ascii	"\000\215\002\000\000chIQGetTimeout\000\000\002\000\000"
 715      00636849 
ARM GAS  /tmp/cccn1nd4.s 			page 56


 715      51476574 
 715      54696D65 
 715      6F757400 
 716 00ee 00000000 		.ascii	"\000\000\000\000\000\000\000\225\002\000\000chOQPut"
 716      00000095 
 716      02000063 
 716      684F5150 
 716      7574
 717 0100 54696D65 		.ascii	"Timeout\000\000\002\000\000\000\000\000\000\000\000"
 717      6F757400 
 717      00020000 
 717      00000000 
 717      0000
 718 0112 009A0200 		.ascii	"\000\232\002\000\000sd_lld_init\000\000\002\000\000"
 718      0073645F 
 718      6C6C645F 
 718      696E6974 
 718      00000200 
 719 0127 00000000 		.ascii	"\000\000\000\000\000\000\000\240\002\000\000chOQObj"
 719      000000A0 
 719      02000063 
 719      684F514F 
 719      626A
 720 0139 65637449 		.ascii	"ectInit\000\000\002\000\000\000\000\000\000\000\000"
 720      6E697400 
 720      00020000 
 720      00000000 
 720      0000
 721 014b 00A20200 		.ascii	"\000\242\002\000\000chIQObjectInit\000\000\002\000\000"
 721      00636849 
 721      514F626A 
 721      65637449 
 721      6E697400 
 722 0163 00000000 		.ascii	"\000\000\000\000\000\000\000\252\002\000\000sd_lld_"
 722      000000AA 
 722      02000073 
 722      645F6C6C 
 722      645F
 723 0175 73746172 		.ascii	"start\000\000\002\000\000\000\000\000\000\000\000\000"
 723      74000002 
 723      00000000 
 723      00000000 
 723      00
 724 0186 B2020000 		.ascii	"\262\002\000\000chSchRescheduleS\000\000\002\000\000"
 724      63685363 
 724      68526573 
 724      63686564 
 724      756C6553 
 725 019f 00000000 		.ascii	"\000\000\000\000\000\000\000\264\002\000\000chIQRes"
 725      000000B4 
 725      02000063 
 725      68495152 
 725      6573
 726 01b1 65744900 		.ascii	"etI\000\000\002\000\000\000\000\000\000\000\000\000"
 726      00020000 
 726      00000000 
 726      000000
ARM GAS  /tmp/cccn1nd4.s 			page 57


 727 01c0 B6020000 		.ascii	"\266\002\000\000chOQResetI\000\000\002\000\000\000\000"
 727      63684F51 
 727      52657365 
 727      74490000 
 727      02000000 
 728 01d5 00000000 		.ascii	"\000\000\000\000\000\272\002\000\000sd_lld_stop\000"
 728      00BA0200 
 728      0073645F 
 728      6C6C645F 
 728      73746F70 
 729 01ea 00020000 		.ascii	"\000\002\000\000\000\000\000\000\000\000\000\276\002"
 729      00000000 
 729      000000BE 
 729      02
 730 01f7 00006368 		.ascii	"\000\000chEvtBroadcastFlagsI\000\000\002\000\000\000"
 730      45767442 
 730      726F6164 
 730      63617374 
 730      466C6167 
 731 0213 00000000 		.ascii	"\000\000\000\000\000\000\300\002\000\000chIQPutI\000"
 731      0000C002 
 731      00006368 
 731      49515075 
 731      744900
 732 0226 00020000 		.ascii	"\000\002\000\000\000\000\000\000\000\000\000\306\002"
 732      00000000 
 732      000000C6 
 732      02
 733 0233 00006368 		.ascii	"\000\000chOQGetI\000\000\002\000\000\000\000\000\000"
 733      4F514765 
 733      74490000 
 733      02000000 
 733      000000
 734 0246 000000CB 		.ascii	"\000\000\000\313\002\000\000"
 734      020000
 735              		.text
 736              		.section	.gnu.lto_.opts,"",%progbits
 737 0000 272D6D63 		.ascii	"'-mcpu=cortex-m4' '-mfloat-abi=hard' '-mfpu=fpv4-sp"
 737      70753D63 
 737      6F727465 
 737      782D6D34 
 737      2720272D 
 738 0033 2D643136 		.ascii	"-d16' '-mno-thumb-interwork' '-mthumb' '-O2' '-fomi"
 738      2720272D 
 738      6D6E6F2D 
 738      7468756D 
 738      622D696E 
 739 0066 742D6672 		.ascii	"t-frame-pointer' '-falign-functions=16' '-ffunction"
 739      616D652D 
 739      706F696E 
 739      74657227 
 739      20272D66 
 740 0099 2D736563 		.ascii	"-sections' '-fdata-sections' '-fno-common' '-flto' "
 740      74696F6E 
 740      73272027 
 740      2D666461 
 740      74612D73 
ARM GAS  /tmp/cccn1nd4.s 			page 58


 741 00cc 272D6673 		.ascii	"'-fsingle-precision-constant'\000"
 741      696E676C 
 741      652D7072 
 741      65636973 
 741      696F6E2D 
 742              		.text
 743              		.section	.text.readt,"ax",%progbits
 744              		.align	2
 745              		.p2align 4,,15
 746              		.thumb
 747              		.thumb_func
 748              		.type	readt, %function
 749              	readt:
 750              		@ args = 0, pretend = 0, frame = 0
 751              		@ frame_needed = 0, uses_anonymous_args = 0
 752              		@ link register save eliminated.
 753 0000 0C30     		adds	r0, r0, #12
 754 0002 FFF7FEBF 		b	chIQReadTimeout
 755              		.size	readt, .-readt
 756 0006 00BFAFF3 		.section	.text.read,"ax",%progbits
 756      0080AFF3 
 756      0080
 757              		.align	2
 758              		.p2align 4,,15
 759              		.thumb
 760              		.thumb_func
 761              		.type	read, %function
 762              	read:
 763              		@ args = 0, pretend = 0, frame = 0
 764              		@ frame_needed = 0, uses_anonymous_args = 0
 765              		@ link register save eliminated.
 766 0000 0C30     		adds	r0, r0, #12
 767 0002 4FF0FF33 		mov	r3, #-1
 768 0006 FFF7FEBF 		b	chIQReadTimeout
 769              		.size	read, .-read
 770 000a 00BFAFF3 		.section	.text.writet,"ax",%progbits
 770      0080
 771              		.align	2
 772              		.p2align 4,,15
 773              		.thumb
 774              		.thumb_func
 775              		.type	writet, %function
 776              	writet:
 777              		@ args = 0, pretend = 0, frame = 0
 778              		@ frame_needed = 0, uses_anonymous_args = 0
 779              		@ link register save eliminated.
 780 0000 3030     		adds	r0, r0, #48
 781 0002 FFF7FEBF 		b	chOQWriteTimeout
 782              		.size	writet, .-writet
 783 0006 00BFAFF3 		.section	.text.write,"ax",%progbits
 783      0080AFF3 
 783      0080
 784              		.align	2
 785              		.p2align 4,,15
 786              		.thumb
 787              		.thumb_func
 788              		.type	write, %function
ARM GAS  /tmp/cccn1nd4.s 			page 59


 789              	write:
 790              		@ args = 0, pretend = 0, frame = 0
 791              		@ frame_needed = 0, uses_anonymous_args = 0
 792              		@ link register save eliminated.
 793 0000 3030     		adds	r0, r0, #48
 794 0002 4FF0FF33 		mov	r3, #-1
 795 0006 FFF7FEBF 		b	chOQWriteTimeout
 796              		.size	write, .-write
 797 000a 00BFAFF3 		.section	.text.gett,"ax",%progbits
 797      0080
 798              		.align	2
 799              		.p2align 4,,15
 800              		.thumb
 801              		.thumb_func
 802              		.type	gett, %function
 803              	gett:
 804              		@ args = 0, pretend = 0, frame = 0
 805              		@ frame_needed = 0, uses_anonymous_args = 0
 806              		@ link register save eliminated.
 807 0000 0C30     		adds	r0, r0, #12
 808 0002 FFF7FEBF 		b	chIQGetTimeout
 809              		.size	gett, .-gett
 810 0006 00BFAFF3 		.section	.text.get,"ax",%progbits
 810      0080AFF3 
 810      0080
 811              		.align	2
 812              		.p2align 4,,15
 813              		.thumb
 814              		.thumb_func
 815              		.type	get, %function
 816              	get:
 817              		@ args = 0, pretend = 0, frame = 0
 818              		@ frame_needed = 0, uses_anonymous_args = 0
 819              		@ link register save eliminated.
 820 0000 0C30     		adds	r0, r0, #12
 821 0002 4FF0FF31 		mov	r1, #-1
 822 0006 FFF7FEBF 		b	chIQGetTimeout
 823              		.size	get, .-get
 824 000a 00BFAFF3 		.section	.text.putt,"ax",%progbits
 824      0080
 825              		.align	2
 826              		.p2align 4,,15
 827              		.thumb
 828              		.thumb_func
 829              		.type	putt, %function
 830              	putt:
 831              		@ args = 0, pretend = 0, frame = 0
 832              		@ frame_needed = 0, uses_anonymous_args = 0
 833              		@ link register save eliminated.
 834 0000 3030     		adds	r0, r0, #48
 835 0002 FFF7FEBF 		b	chOQPutTimeout
 836              		.size	putt, .-putt
 837 0006 00BFAFF3 		.section	.text.put,"ax",%progbits
 837      0080AFF3 
 837      0080
 838              		.align	2
 839              		.p2align 4,,15
ARM GAS  /tmp/cccn1nd4.s 			page 60


 840              		.thumb
 841              		.thumb_func
 842              		.type	put, %function
 843              	put:
 844              		@ args = 0, pretend = 0, frame = 0
 845              		@ frame_needed = 0, uses_anonymous_args = 0
 846              		@ link register save eliminated.
 847 0000 3030     		adds	r0, r0, #48
 848 0002 4FF0FF32 		mov	r2, #-1
 849 0006 FFF7FEBF 		b	chOQPutTimeout
 850              		.size	put, .-put
 851 000a 00BFAFF3 		.section	.text.sdInit,"ax",%progbits
 851      0080
 852              		.align	2
 853              		.p2align 4,,15
 854              		.global	sdInit
 855              		.thumb
 856              		.thumb_func
 857              		.type	sdInit, %function
 858              	sdInit:
 859              		@ args = 0, pretend = 0, frame = 0
 860              		@ frame_needed = 0, uses_anonymous_args = 0
 861              		@ link register save eliminated.
 862 0000 FFF7FEBF 		b	sd_lld_init
 863              		.size	sdInit, .-sdInit
 864 0004 AFF30080 		.section	.text.sdObjectInit,"ax",%progbits
 864      AFF30080 
 864      AFF30080 
 865              		.align	2
 866              		.p2align 4,,15
 867              		.global	sdObjectInit
 868              		.thumb
 869              		.thumb_func
 870              		.type	sdObjectInit, %function
 871              	sdObjectInit:
 872              		@ args = 0, pretend = 0, frame = 0
 873              		@ frame_needed = 0, uses_anonymous_args = 0
 874 0000 70B5     		push	{r4, r5, r6, lr}
 875 0002 0E4B     		ldr	r3, .L11
 876 0004 0446     		mov	r4, r0
 877 0006 82B0     		sub	sp, sp, #8
 878 0008 40F8043B 		str	r3, [r0], #4
 879 000c 0126     		movs	r6, #1
 880 000e 0094     		str	r4, [sp]
 881 0010 0B46     		mov	r3, r1
 882 0012 1546     		mov	r5, r2
 883 0014 6060     		str	r0, [r4, #4]
 884 0016 04F15401 		add	r1, r4, #84
 885 001a 04F10C00 		add	r0, r4, #12
 886 001e 2672     		strb	r6, [r4, #8]
 887 0020 1022     		movs	r2, #16
 888 0022 FFF7FEFF 		bl	chIQObjectInit
 889 0026 0094     		str	r4, [sp]
 890 0028 2B46     		mov	r3, r5
 891 002a 04F13000 		add	r0, r4, #48
 892 002e 04F16401 		add	r1, r4, #100
 893 0032 1022     		movs	r2, #16
ARM GAS  /tmp/cccn1nd4.s 			page 61


 894 0034 FFF7FEFF 		bl	chOQObjectInit
 895 0038 02B0     		add	sp, sp, #8
 896              		@ sp needed
 897 003a 70BD     		pop	{r4, r5, r6, pc}
 898              	.L12:
 899              		.align	2
 900              	.L11:
 901 003c 00000000 		.word	.LANCHOR0
 902              		.size	sdObjectInit, .-sdObjectInit
 903              		.section	.text.sdStart,"ax",%progbits
 904              		.align	2
 905              		.p2align 4,,15
 906              		.global	sdStart
 907              		.thumb
 908              		.thumb_func
 909              		.type	sdStart, %function
 910              	sdStart:
 911              		@ args = 0, pretend = 0, frame = 0
 912              		@ frame_needed = 0, uses_anonymous_args = 0
 913 0000 10B5     		push	{r4, lr}
 914 0002 2023     		movs	r3, #32
 915 0004 0446     		mov	r4, r0
 916              	@ 546 "/home/cody/dev/chibios/trunk/os/ext/CMSIS/include/core_cmFunc.h" 1
 917 0006 83F31188 		MSR basepri, r3
 918              	@ 0 "" 2
 919              		.thumb
 920 000a FFF7FEFF 		bl	sd_lld_start
 921 000e 0223     		movs	r3, #2
 922 0010 2372     		strb	r3, [r4, #8]
 923 0012 0023     		movs	r3, #0
 924              	@ 546 "/home/cody/dev/chibios/trunk/os/ext/CMSIS/include/core_cmFunc.h" 1
 925 0014 83F31188 		MSR basepri, r3
 926              	@ 0 "" 2
 927              		.thumb
 928 0018 10BD     		pop	{r4, pc}
 929              		.size	sdStart, .-sdStart
 930              		.section	.text.sdStop,"ax",%progbits
 931              		.align	2
 932              		.p2align 4,,15
 933              		.global	sdStop
 934              		.thumb
 935              		.thumb_func
 936              		.type	sdStop, %function
 937              	sdStop:
 938              		@ args = 0, pretend = 0, frame = 0
 939              		@ frame_needed = 0, uses_anonymous_args = 0
 940 0000 10B5     		push	{r4, lr}
 941 0002 2023     		movs	r3, #32
 942 0004 0446     		mov	r4, r0
 943              	@ 546 "/home/cody/dev/chibios/trunk/os/ext/CMSIS/include/core_cmFunc.h" 1
 944 0006 83F31188 		MSR basepri, r3
 945              	@ 0 "" 2
 946              		.thumb
 947 000a FFF7FEFF 		bl	sd_lld_stop
 948 000e 0123     		movs	r3, #1
 949 0010 2372     		strb	r3, [r4, #8]
 950 0012 04F13000 		add	r0, r4, #48
ARM GAS  /tmp/cccn1nd4.s 			page 62


 951 0016 FFF7FEFF 		bl	chOQResetI
 952 001a 04F10C00 		add	r0, r4, #12
 953 001e FFF7FEFF 		bl	chIQResetI
 954 0022 FFF7FEFF 		bl	chSchRescheduleS
 955 0026 0023     		movs	r3, #0
 956              	@ 546 "/home/cody/dev/chibios/trunk/os/ext/CMSIS/include/core_cmFunc.h" 1
 957 0028 83F31188 		MSR basepri, r3
 958              	@ 0 "" 2
 959              		.thumb
 960 002c 10BD     		pop	{r4, pc}
 961              		.size	sdStop, .-sdStop
 962 002e 00BF     		.section	.text.sdIncomingDataI,"ax",%progbits
 963              		.align	2
 964              		.p2align 4,,15
 965              		.global	sdIncomingDataI
 966              		.thumb
 967              		.thumb_func
 968              		.type	sdIncomingDataI, %function
 969              	sdIncomingDataI:
 970              		@ args = 0, pretend = 0, frame = 0
 971              		@ frame_needed = 0, uses_anonymous_args = 0
 972 0000 38B5     		push	{r3, r4, r5, lr}
 973 0002 4369     		ldr	r3, [r0, #20]
 974 0004 0446     		mov	r4, r0
 975 0006 0D46     		mov	r5, r1
 976 0008 3BB1     		cbz	r3, .L19
 977 000a 2946     		mov	r1, r5
 978 000c 04F10C00 		add	r0, r4, #12
 979 0010 FFF7FEFF 		bl	chIQPutI
 980 0014 0028     		cmp	r0, #0
 981 0016 0BDB     		blt	.L20
 982              	.L15:
 983 0018 38BD     		pop	{r3, r4, r5, pc}
 984              	.L19:
 985 001a 0430     		adds	r0, r0, #4
 986 001c 0421     		movs	r1, #4
 987 001e FFF7FEFF 		bl	chEvtBroadcastFlagsI
 988 0022 2946     		mov	r1, r5
 989 0024 04F10C00 		add	r0, r4, #12
 990 0028 FFF7FEFF 		bl	chIQPutI
 991 002c 0028     		cmp	r0, #0
 992 002e F3DA     		bge	.L15
 993              	.L20:
 994 0030 201D     		adds	r0, r4, #4
 995 0032 8021     		movs	r1, #128
 996 0034 BDE83840 		pop	{r3, r4, r5, lr}
 997 0038 FFF7FEBF 		b	chEvtBroadcastFlagsI
 998              		.size	sdIncomingDataI, .-sdIncomingDataI
 999 003c AFF30080 		.section	.text.sdRequestDataI,"ax",%progbits
 1000              		.align	2
 1001              		.p2align 4,,15
 1002              		.global	sdRequestDataI
 1003              		.thumb
 1004              		.thumb_func
 1005              		.type	sdRequestDataI, %function
 1006              	sdRequestDataI:
 1007              		@ args = 0, pretend = 0, frame = 0
ARM GAS  /tmp/cccn1nd4.s 			page 63


 1008              		@ frame_needed = 0, uses_anonymous_args = 0
 1009 0000 38B5     		push	{r3, r4, r5, lr}
 1010 0002 0446     		mov	r4, r0
 1011 0004 3030     		adds	r0, r0, #48
 1012 0006 FFF7FEFF 		bl	chOQGetI
 1013 000a 051E     		subs	r5, r0, #0
 1014 000c 01DB     		blt	.L23
 1015 000e 2846     		mov	r0, r5
 1016 0010 38BD     		pop	{r3, r4, r5, pc}
 1017              	.L23:
 1018 0012 201D     		adds	r0, r4, #4
 1019 0014 0821     		movs	r1, #8
 1020 0016 FFF7FEFF 		bl	chEvtBroadcastFlagsI
 1021 001a 2846     		mov	r0, r5
 1022 001c 38BD     		pop	{r3, r4, r5, pc}
 1023              		.size	sdRequestDataI, .-sdRequestDataI
 1024 001e 00BF     		.section	.rodata.vmt,"a",%progbits
 1025              		.align	2
 1026              		.set	.LANCHOR0,. + 0
 1027              		.type	vmt, %object
 1028              		.size	vmt, 32
 1029              	vmt:
 1030 0000 00000000 		.word	write
 1031 0004 00000000 		.word	read
 1032 0008 00000000 		.word	put
 1033 000c 00000000 		.word	get
 1034 0010 00000000 		.word	putt
 1035 0014 00000000 		.word	gett
 1036 0018 00000000 		.word	writet
 1037 001c 00000000 		.word	readt
 1038              		.comm	__gnu_lto_v1,1,1
 1039              		.ident	"GCC: (GNU Tools for ARM Embedded Processors) 4.8.4 20140526 (release) [ARM/embedded-4_8-br
ARM GAS  /tmp/cccn1nd4.s 			page 64


DEFINED SYMBOLS
                            *ABS*:0000000000000000 serial.c
     /tmp/cccn1nd4.s:744    .text.readt:0000000000000000 $t
     /tmp/cccn1nd4.s:749    .text.readt:0000000000000000 readt
     /tmp/cccn1nd4.s:757    .text.read:0000000000000000 $t
     /tmp/cccn1nd4.s:762    .text.read:0000000000000000 read
     /tmp/cccn1nd4.s:771    .text.writet:0000000000000000 $t
     /tmp/cccn1nd4.s:776    .text.writet:0000000000000000 writet
     /tmp/cccn1nd4.s:784    .text.write:0000000000000000 $t
     /tmp/cccn1nd4.s:789    .text.write:0000000000000000 write
     /tmp/cccn1nd4.s:798    .text.gett:0000000000000000 $t
     /tmp/cccn1nd4.s:803    .text.gett:0000000000000000 gett
     /tmp/cccn1nd4.s:811    .text.get:0000000000000000 $t
     /tmp/cccn1nd4.s:816    .text.get:0000000000000000 get
     /tmp/cccn1nd4.s:825    .text.putt:0000000000000000 $t
     /tmp/cccn1nd4.s:830    .text.putt:0000000000000000 putt
     /tmp/cccn1nd4.s:838    .text.put:0000000000000000 $t
     /tmp/cccn1nd4.s:843    .text.put:0000000000000000 put
     /tmp/cccn1nd4.s:852    .text.sdInit:0000000000000000 $t
     /tmp/cccn1nd4.s:858    .text.sdInit:0000000000000000 sdInit
     /tmp/cccn1nd4.s:865    .text.sdObjectInit:0000000000000000 $t
     /tmp/cccn1nd4.s:871    .text.sdObjectInit:0000000000000000 sdObjectInit
     /tmp/cccn1nd4.s:901    .text.sdObjectInit:000000000000003c $d
     /tmp/cccn1nd4.s:904    .text.sdStart:0000000000000000 $t
     /tmp/cccn1nd4.s:910    .text.sdStart:0000000000000000 sdStart
     /tmp/cccn1nd4.s:931    .text.sdStop:0000000000000000 $t
     /tmp/cccn1nd4.s:937    .text.sdStop:0000000000000000 sdStop
     /tmp/cccn1nd4.s:963    .text.sdIncomingDataI:0000000000000000 $t
     /tmp/cccn1nd4.s:969    .text.sdIncomingDataI:0000000000000000 sdIncomingDataI
     /tmp/cccn1nd4.s:1000   .text.sdRequestDataI:0000000000000000 $t
     /tmp/cccn1nd4.s:1006   .text.sdRequestDataI:0000000000000000 sdRequestDataI
     /tmp/cccn1nd4.s:1025   .rodata.vmt:0000000000000000 $d
     /tmp/cccn1nd4.s:1029   .rodata.vmt:0000000000000000 vmt
                            *COM*:0000000000000001 __gnu_lto_v1

UNDEFINED SYMBOLS
chIQReadTimeout
chOQWriteTimeout
chIQGetTimeout
chOQPutTimeout
sd_lld_init
chIQObjectInit
chOQObjectInit
sd_lld_start
sd_lld_stop
chOQResetI
chIQResetI
chSchRescheduleS
chIQPutI
chEvtBroadcastFlagsI
chOQGetI
