ARM GAS  /tmp/cczgFmwQ.s 			page 1


   1              		.syntax unified
   2              		.cpu cortex-m4
   3              		.eabi_attribute 27, 3
   4              		.eabi_attribute 28, 1
   5              		.fpu fpv4-sp-d16
   6              		.eabi_attribute 20, 1
   7              		.eabi_attribute 21, 1
   8              		.eabi_attribute 23, 3
   9              		.eabi_attribute 24, 1
  10              		.eabi_attribute 25, 1
  11              		.eabi_attribute 26, 1
  12              		.eabi_attribute 30, 2
  13              		.eabi_attribute 34, 1
  14              		.eabi_attribute 18, 4
  15              		.thumb
  16              		.file	"serial_lld.c"
  17              		.section	.gnu.lto_.jmpfuncs.f607f18bc94eaa4e,"",%progbits
  18 0000 789C6D4D 		.ascii	"x\234mM\253\025\200@\014K\332\343\361y\010F@1\023\036"
  18      AB158040 
  18      0C4BDAE3 
  18      F1790846 
  18      4031131E 
  19 0014 75820930 		.ascii	"u\202\0110'\231\210\341P\224\036\234\201\2126i\322T"
  19      279988E1 
  19      50941E9C 
  19      818A3669 
  19      D254
  20 0026 20F8ABE3 		.ascii	" \370\253\343\231-@\2250F\0320.4\277\314\214\344\000"
  20      992D4095 
  20      30461A30 
  20      2E34BFCC 
  20      8CE400
  21 0039 14DCB8EA 		.ascii	"\024\334\270\352Qo\313B\012\200j\000\235\312\004Tf\225"
  21      516FCB42 
  21      0A806A00 
  21      9DCA0454 
  21      6695
  22 004b 0D67DAD3 		.ascii	"\015g\332\323\020\251+\375O\015\375.\375&\334\240H\325"
  22      10A92BFD 
  22      4F0DFD2E 
  22      FD26DCA0 
  22      48D5
  23 005d 92A546F3 		.ascii	"\222\245F\363\237\022\233A\017tf\270\000f\203\023\266"
  23      9F129B41 
  23      0F7466B8 
  23      00668313 
  23      B6
  24              		.text
  25              		.section	.gnu.lto_.inline.f607f18bc94eaa4e,"",%progbits
  26 0000 789C6D52 		.ascii	"x\234mR\277K[Q\024>\347\276\233\367n4\322X\024Q\304"
  26      BF4B5B51 
  26      143EE7BE 
  26      9BF76E34 
  26      D2581451 
  27 0015 B84917AF 		.ascii	"\270I\027\257\332\177\340\011uh\321\014\376\200n\022"
  27      DA7FE009 
  27      7568D10C 
ARM GAS  /tmp/cczgFmwQ.s 			page 2


  27      FE806E12 
  28 0025 93E00B8D 		.ascii	"\223\340\013\215\215$*\024\227;8d\014\375\003J\324\241"
  28      8D242A14 
  28      973B3864 
  28      0CFD034A 
  28      D4A1
  29 0037 DDBB942E 		.ascii	"\335\273\224.\315&\245\213\210\243\202\203\024\307\316"
  29      CD26A58B 
  29      88A38283 
  29      14C7CE
  30 0046 42C173EE 		.ascii	"B\301s\356}I|b \347|\347\307M\276\357\273W\200\200\347"
  30      7D497C62 
  30      20E77CE7 
  30      C74DBEEF 
  30      BB578080 
  31 005b 3E7FA9FD 		.ascii	">\177\251\375\216r\032\300O!\010\377\337,\370\355\234"
  31      8E721AC0 
  31      4F2108FF 
  31      DF2CF8ED 
  31      9C
  32 006c 5D46189D 		.ascii	"]F\030\235D\201\3500\200G_;\233\272\274D\311]/\003 "
  32      4481E830 
  32      80475F3B 
  32      9BBABC44 
  32      C95D2F03 
  33 0081 5AF9565E 		.ascii	"Z\371V^\300\031|\026(x\317k/\331u\271\371\373\177\006"
  33      C0197C16 
  33      2878CF6B 
  33      2FD975B9 
  33      F9FB7F06 
  34 0095 D2BF5E51 		.ascii	"\322\277^Q\367.\220.>:\225\310\330\312{\031\372\377"
  34      F72E902E 
  34      3E3A95C8 
  34      D8CA7B19 
  34      FAFF
  35 00a7 EB200617 		.ascii	"\353 \006\027\023\014\342\005\030\237\3024l\277\307"
  35      130CE205 
  35      189FC234 
  35      6CBFC7
  36 00b6 0AFAA67D 		.ascii	"\012\372\246}d\370g\242D\025\317\276%fq\305dX\205\347"
  36      64F867A2 
  36      4415CFBE 
  36      256671C5 
  36      645885E7 
  37 00ca E29C8DA1 		.ascii	"\342\234\215\241\215\323/Yp\206\005\310v.\004\331\234"
  37      8DD32F59 
  37      708605C8 
  37      762E04D9 
  37      9C
  38 00db 0C15E057 		.ascii	"\014\025\340W\337\340\264\022\340}?BF\334\341\332&\300"
  38      DFE0B412 
  38      E07D3F42 
  38      46DCE1DA 
  38      26C0
  39 00ed 0E354768 		.ascii	"\0165Gh\332\311Q\346\222\012\216\254\320\010\032\374"
  39      DAC951E6 
  39      920A8EAC 
ARM GAS  /tmp/cczgFmwQ.s 			page 3


  39      D0081AFC 
  40 00fd 183356AE 		.ascii	"\0303V\256\221\256\220\266P\256P\354\201\004\225}b\267"
  40      91AE90B6 
  40      50AE50EC 
  40      8104957D 
  40      62B7
  41 010f 1864AA29 		.ascii	"\030d\252)\360\307\320^V\357\032\006z\303\300\235\022"
  41      F0C7D05E 
  41      56EF1A06 
  41      7AC3C09D 
  41      12
  42 0120 E72F7A53 		.ascii	"\347/zS9\344.F\301\310(\246\321\372\020\360\251\250"
  42      39E42E46 
  42      C1C828A6 
  42      D1FA10F0 
  42      A9A8
  43 0132 8B9C370A 		.ascii	"\213\2347\012I\2633\306\301\355C\2707Mss\372\363\017"
  43      49B333C6 
  43      C1ED43B8 
  43      374D7373 
  43      FAF30F
  44 0145 F5BC1D74 		.ascii	"\365\274\035t\017\"*\3401\036:\303\254u\264\3120 \005"
  44      0F222AE0 
  44      311E3AC3 
  44      AC75B4CA 
  44      302005
  45 0158 103467AC 		.ascii	"\0204g\254Q}u\251\346\014\251\223w\203Fe\301\277\305"
  45      517D75A9 
  45      E60CA993 
  45      77834665 
  45      C1BFC5
  46 016b 309B7817 		.ascii	"0\233x\027\004\250CD\007`H\021\033GE\364\251\210GT:"
  46      04A84344 
  46      07604811 
  46      1B4745F4 
  46      A9884754 
  47 0180 5F724922 		.ascii	"_rI\"'L\244\317\241\373\260T\327\034\342\020Z\0124\276"
  47      274CA4CF 
  47      A1FBB054 
  47      D71CE210 
  47      5A0A34BE 
  48 0194 1706F98D 		.ascii	"\027\006\371\215\331\014\376\325\260c%dla\226\301[\035"
  48      D90CFED5 
  48      B0632564 
  48      6C6196C1 
  48      5B1D
  49 01a6 D576CABA 		.ascii	"\325v\312\272X+}\322\245\362\201.F\225\255J\255\241"
  49      582B7DD2 
  49      A5F2812E 
  49      4695AD4A 
  49      ADA1
  50 01b8 F7EAFB1F 		.ascii	"\367\352\373\037?h\002Q\241\252wk\365\275\206^[_y\275"
  50      3F680251 
  50      A1AA776B 
  50      F5BD865E 
  50      5B5F79BD 
  51 01cc A09797DF 		.ascii	"\240\227\227\337\350\215\265\305\325\365\203y\335(\327"
ARM GAS  /tmp/cczgFmwQ.s 			page 4


  51      E88DB5C5 
  51      D5F58379 
  51      DD28D7
  52 01db 2B85EA66 		.ascii	"+\205\352f\265Z\232-\302\003\247c\207x"
  52      B55A9A2D 
  52      C203A763 
  52      8778
  53              		.text
  54              		.section	.gnu.lto_.pureconst.f607f18bc94eaa4e,"",%progbits
  55 0000 789C6362 		.ascii	"x\234cb`b\020f\200\000N\006)F\011&+f)\026)V\011v\011"
  55      60621066 
  55      80004E06 
  55      29460926 
  55      2B662916 
  56 0019 0E292E29 		.ascii	"\016).)\000\015\345\001M"
  56      000DE501 
  56      4D
  57              		.text
  58              		.section	.gnu.lto_notify2.f607f18bc94eaa4e,"",%progbits
  59 0000 789C6362 		.ascii	"x\234cb`b@\007\222@\374\023\210\275\201\230\221\231"
  59      60624007 
  59      9240FC13 
  59      88BD8198 
  59      9199
  60 0012 819169C2 		.ascii	"\201\221i\3029\006\206F\016&FF\020\203\201\221\241\236"
  60      39068646 
  60      0E264646 
  60      10838191 
  60      A19E
  61 0024 89B13E92 		.ascii	"\211\261>\222\021\254v=\323\201\007\377\377\257\273"
  61      11AC763D 
  61      D38107FF 
  61      FFAFBB
  62 0033 766ED91F 		.ascii	"vn\331\037\306]L\254L\014\231\214\014\314 \002\010X"
  62      C65D4CAC 
  62      4C0C998C 
  62      0CCC2002 
  62      0858
  63 0045 195A1A1A 		.ascii	"\031Z\032\032&(00$\203\271!@\022d@(#\023\210f>\313p"
  63      26283030 
  63      2483B921 
  63      40126440 
  63      28231388 
  64 005d E8D68DD7 		.ascii	"\350\326\215\327?\031\023\031\0272\2622\24432i3\254"
  64      3F191319 
  64      1732B232 
  64      A4333269 
  64      33AC
  65 006f 6A686914 		.ascii	"jhi\024\310dd\234\3150\2131\223\221)\002H07t46\2600"
  65      C864649C 
  65      CD308B31 
  65      93912902 
  65      48303774 
  66 0087 8099601B 		.ascii	"\200\231`\033\223\030a\356<\313\320\274\223\031\246"
  66      931861EE 
  66      3CCBD0BC 
  66      9319A6
ARM GAS  /tmp/cczgFmwQ.s 			page 5


  67 0096 9B391DA2 		.ascii	"\2339\035\242\236\241\201\021,u\310\023\"C\232\241\351"
  67      9EA18111 
  67      2C75C813 
  67      22439AA1 
  67      E9
  68 00a7 20FE4586 		.ascii	" \376E\206\306\007\353\325!\332a \204\221\021\344hP"
  68      C607EBD5 
  68      21DA6120 
  68      849111E4 
  68      6850
  69 00b9 6079EA67 		.ascii	"`y\352g\344\347\246\352'\347\247T\352\247\244\226\351"
  69      E4E7A6EA 
  69      27E7A754 
  69      EAA7A496 
  69      E9
  70 00ca 27676426 		.ascii	"'gd&e\346\027\353\227\024\225\346e\353\003\031\031\211"
  70      65E617EB 
  70      971495E6 
  70      65EB0319 
  70      1989
  71 00dc 39FA05F9 		.ascii	"9\372\005\371E%\305\372\301!\276\306F\372>>.\372\241"
  71      4525C5FA 
  71      C121BEC6 
  71      46FA3E3E 
  71      2EFAA1
  72 00ef C18E4121 		.ascii	"\301\216A!e\206\372\305\251E\231\2119\36199)z\311\014"
  72      6586FAC5 
  72      A9459989 
  72      39F13939 
  72      297AC90C 
  73 0103 00D3E555 		.ascii	"\000\323\345UD"
  73      44
  74              		.text
  75              		.section	.gnu.lto_set_error.f607f18bc94eaa4e,"",%progbits
  76 0000 789C8D52 		.ascii	"x\234\215RMkSA\024\275w\346}'\005[t\343B\202 \005\205"
  76      4D6B5341 
  76      14BD77E6 
  76      7D27055B 
  76      74E34282 
  77 0017 0EB67F40 		.ascii	"\016\266\177@\301\215\02076A]I\372\022\222\207\251\221"
  77      C18D1037 
  77      36415D49 
  77      FA129287 
  77      A991
  78 0029 BC58D022 		.ascii	"\274X\320\"}1\021\262\020)\242\013u\323\020\320R\004"
  78      7D3111B2 
  78      1029A20B 
  78      75D310D0 
  78      5204
  79 003b D7621771 		.ascii	"\327b\027q'\370E0.\334\005D\334\004\324\225X\012\361"
  79      27F84530 
  79      2EDC0544 
  79      DC04D495 
  79      580AF1
  80 004e CEFBC8AB 		.ascii	"\316\373\310\253\315\306\201\314\2359w\3569\347\346"
  80      CDC681CC 
  80      9D3977EE 
ARM GAS  /tmp/cczgFmwQ.s 			page 6


  80      39E7E6
  81 005d 5D060CF6 		.ascii	"]\006\014\366\257[\364\273\300\001\032\0241\001\310"
  81      AF5BF4BB 
  81      C0011A14 
  81      3101C8
  82 006c D63F00D4 		.ascii	"\326?\000\324\015\306xk\026<K\221{\222\243\022\300\012"
  82      0DC6786B 
  82      163C4B91 
  82      7B92A312 
  82      C00A
  83 007e 537D58F3 		.ascii	"S}X\363a\025\265\000\326\230\356\303\206\017\353h\004"
  83      6115B500 
  83      D698EEC3 
  83      860FEB68 
  83      04
  84 008f B0C1CCBE 		.ascii	"\260\301\314\276 \330\332>B\260\211V\000[\210\362\000"
  84      20D8DA3E 
  84      42B08956 
  84      005B88F2 
  84      00
  85 00a0 086B8C2B 		.ascii	"\010k\214+\252\246\033\246\205k\227P\332\301\243\320"
  85      AAA61BA6 
  85      856B9750 
  85      DAC1A3D0 
  86 00b0 F6BCFB83 		.ascii	"\366\274\373\203o\235\327\354\221\327mnx\273\243\021"
  86      6F9DD7EC 
  86      91D76D6E 
  86      78BBA311 
  87 00c0 A283643D 		.ascii	"\242\203d=\215`#\\\244\013\246\374\300\224\177{y\301"
  87      8D60235C 
  87      A40BA6FC 
  87      C0947F7B 
  87      79C1
  88 00d2 BA83D168 		.ascii	"\272\203\321h\330\333\376\272\20533\0109l\023\037\013"
  88      D8DBFEBA 
  88      85333308 
  88      396C131F 
  88      0B
  89 00e3 230FA312 		.ascii	"#\017\243\022F\025\227\0214p\220\353r3B\330\224\027"
  89      46159711 
  89      347090EB 
  89      723342D8 
  89      9417
  90 00f5 2BBC24C2 		.ascii	"+\274$\302\230\244\2678E\031eZ\246IK\205\246\347\255"
  90      98A4B738 
  90      4519655A 
  90      A6494B85 
  90      A6E7AD
  91 0108 A7823448 		.ascii	"\247\2024Hc\2642\264\313\326\262\310d\344\357\241\361"
  91      63B432B4 
  91      CBD6B2C8 
  91      64E4EFA1 
  91      F1
  92 0119 AAF1FDC1 		.ascii	"\252\361\375\301\341\034vP\205\"N\027Q\225\306I\014"
  92      E11C7650 
  92      85224E17 
  92      5195C649 
ARM GAS  /tmp/cczgFmwQ.s 			page 7


  92      0C
  93 012a E00D3487 		.ascii	"\340\0154\207\365\251q\312\307\367v\223\241kk\226gQ"
  93      F5A971CA 
  93      C7F77693 
  93      A16B6B96 
  93      6751
  94 013c 89B97EC4 		.ascii	"\211\271~\304\\Z\304\205\023\\\332>\256/\200\022\241"
  94      5C5AC485 
  94      135CDA3E 
  94      AE2F8012 
  94      A1
  95 014d 13DBED6D 		.ascii	"\023\333\355m\004g\017\201?\377\224\227^U)C\364/\033"
  95      04670F81 
  95      3FFF9497 
  95      5E552943 
  95      F42F1B
  96 0160 BF0E4614 		.ascii	"\277\016F\024F\021\375wj*\344\310\242\026\333\370\035"
  96      4611FD77 
  96      6A2AE4C8 
  96      A216DBF8 
  96      1D
  97 0171 DBD0231B 		.ascii	"\333\320#\033l\302\206>a\203\021\253\202\304\256\276"
  97      6CC2863E 
  97      618311AB 
  97      82C4AEBE 
  98 0181 0BA4F5B1 		.ascii	"\013\244\365\261\364\237\261\264UD\346K\237\032K\033"
  98      F49FB1B4 
  98      5544E64B 
  98      9F1A4B1B 
  99 0191 B1F42896 		.ascii	"\261\364(\2266#ieB\332\234\220\346\304\252\221\264\245"
  99      36236965 
  99      42DA9C90 
  99      E6C4AA91 
  99      B4A5
 100 01a3 0F036913 		.ascii	"\017\003i\023\372\"\220n\037\212\312\022E\344\276\264"
 100      FA22906E 
 100      1F8ACA12 
 100      45E4BEB4 
 101 01b3 C7C6DA56 		.ascii	"\307\306\332V\250}{\247\361\354!\217^N\255\302M\232"
 101      A87D7BA7 
 101      F1EC218F 
 101      5E4EADC2 
 101      4D9A
 102 01c5 861370DC 		.ascii	"\206\023p\334A\355\011<\246\"\372'\222\262\330\360\013"
 102      41ED093C 
 102      A622FA27 
 102      92B2D8F0 
 102      0B
 103 01d6 9770CFA7 		.ascii	"\227p\317\247\374\010w~nv\236\336\023\341\324D\343\323"
 103      FC08777E 
 103      6E769EDE 
 103      13E1D444 
 103      E3D3
 104 01e8 7DDB9F07 		.ascii	"}\333\237\007\0108m\014+Va\307ky\007\0344md9\334\244"
 104      08386D0C 
 104      2B5661C7 
 104      6B79071C 
ARM GAS  /tmp/cczgFmwQ.s 			page 8


 104      346D6439 
 105 01fe 1C2D922C 		.ascii	"\034-\222,\242\342\220\035\350A}\260u,\250\212\332S"
 105      A2E2901D 
 105      E8417DB0 
 105      752CA88A 
 105      DA53
 106 0210 C8B941ED 		.ascii	"\310\271A\355%\314\273\237\363rvP\332\226]\234\025\245"
 106      25CCBB9F 
 106      F3727650 
 106      DA965D9C 
 106      15A5
 107 0222 CA7241D8 		.ascii	"\312rA\330\225\374\015\221/\254\010\273\344,9\025W\324"
 107      95FC0D91 
 107      2FAC08BB 
 107      E42C3915 
 107      57D4
 108 0234 AAD7AF5E 		.ascii	"\252\327\257^\021t(\345\312\342Z\245Zs\305b\346\334"
 108      117428E5 
 108      CAE25AA5 
 108      5A73C562 
 108      E6DC
 109 0246 C2BC48A7 		.ascii	"\302\274H\247\317\210\354\342\351\363\231\225\223\302"
 109      CF88ECE2 
 109      E9F39995 
 109      93C2
 110 0254 2D549D5C 		.ascii	"-T\235\\\371r\271\234\237\263\201\2735w\341\177\330"
 110      F972B99C 
 110      9FB381BB 
 110      3577E17F 
 110      D8
 111 0265 2A2E6DD5 		.ascii	"*.m\325\232\037\347J\360\027$\306\365\203"
 111      9A1FE74A 
 111      F01724C6 
 111      F583
 112              		.text
 113              		.section	.gnu.lto_serve_interrupt.f607f18bc94eaa4e,"",%progbits
 114 0000 789CB556 		.ascii	"x\234\265VklTE\024>\347\336\335\356v\337}mii\351\246"
 114      6B6C5445 
 114      143EE7DE 
 114      DDEE76DF 
 114      7D6D6969 
 115 0016 A1428AE9 		.ascii	"\241B\212\351\266\002-\376\253\021MH 1}$\342\037l\267"
 115      B6022DFE 
 115      AB114D48 
 115      20317D24 
 115      E21F6CB7 
 116 002a 6BBBB1A5 		.ascii	"k\273\261\245u\267%\"?\270}@\010 iP\036\276b\011\001"
 116      75B72522 
 116      3FB87D40 
 116      08206950 
 116      1EBE6209 
 117 003f A2462088 		.ascii	"\242F \210\001\225Hi)b\020\012\206\010-\030\253H\300"
 117      01954869 
 117      2962100A 
 117      86082D18 
 117      AB48C0
 118 0052 D44791E0 		.ascii	"\324G\221\340\203 \353\231\231\235\273\333\262\260\255"
ARM GAS  /tmp/cczgFmwQ.s 			page 9


 118      8320EB99 
 118      999DBBDB 
 118      B2B0AD
 119 0061 C1FD313B 		.ascii	"\301\3751;\217\363}s\346\233s\316\035\005\024\230\370"
 119      8FF37D73 
 119      E69B73CE 
 119      1D051498 
 119      F8
 120 0072 7323C087 		.ascii	"s#\300\207v\200G\350\0373\001\225\3563\000\355fEQ\317"
 120      768047E8 
 120      1F330195 
 120      EE3300ED 
 120      664551CF 
 121 0086 BB41B318 		.ascii	"\273A\263\030\216\224\201fS\321 \246\015h\026\035\243"
 121      8E948166 
 121      53D120A6 
 121      0D68161D 
 121      A3
 122 0097 92C4D74D 		.ascii	"\222\304\327M|=\011Mb\332$\326\217\231\315\212q\343"
 122      7C3D094D 
 122      62DA24D6 
 122      8F99CD8A 
 122      71E3
 123 00a9 174006C9 		.ascii	"\027@\006\311]&2HV,\353f\321\310\311Z\233E\261r\260"
 123      5D263248 
 123      562CEB66 
 123      D1C8C95A 
 123      9B45B172 
 124 00be 9383AD8A 		.ascii	"\223\203\255\212\255\307B#\373X?\001l6t\010.\273\354"
 124      ADC74223 
 124      FB583F01 
 124      6C367408 
 124      2EBBEC
 125 00d1 38D0293A 		.ascii	"8\320):N\305u\336K\226\356#3\310\320\245\244\\\266\322"
 125      4EC575DE 
 125      4B96EE23 
 125      33C8D0A5 
 125      A45CB6D2 
 126 00e5 28F5601F 		.ascii	"(\365`\037\303\245(i|\213T\276E*\246\011L\232\222\316"
 126      C3A52869 
 126      7C8B54BE 
 126      452AA609 
 126      4C9A92CE 
 127 00f9 F7CAE07B 		.ascii	"\367\312\340{\245c\206\230\316@\267\350\270\021Y\007"
 127      A5638698 
 127      CE40B7E8 
 127      B8115907 
 128 0109 10562BAA 		.ascii	"\020V+\252\301\230d2'[\2546\273\303\351JIMK\317p\343"
 128      C1986432 
 128      275BAC36 
 128      BBC3E94A 
 128      494D4BCF 
 129 011f EAA5C874 		.ascii	"\352\245\310t2\346\303\016M\333<r\365\363\237\360\215"
 129      32E6C30E 
 129      4DDB3C72 
 129      F5F39FF0 
 129      8D
ARM GAS  /tmp/cczgFmwQ.s 			page 10


 130 0130 D77BBB7A 		.ascii	"\327{\273z\264;\3410b\000I\323\305\010>\204gi\200\036"
 130      B43BE130 
 130      620049D3 
 130      C5083E84 
 130      6769801E 
 131 0144 FEA718C6 		.ascii	"\376\247\030\306\213,\260\275\267\326o\311\322z:\272"
 131      8B2CB0BD 
 131      B7D66FC9 
 131      D27A3ABA 
 132 0154 B5BB040D 		.ascii	"\265\273\004\015\240\252\3003\223D\376\275~\3234\255"
 132      A0AAC033 
 132      9344FEBD 
 132      7ED334AD 
 133 0164 A75D220D 		.ascii	"\247]\"\015\012TD\221.\201T\342 \273{/\234z5vO\243\002"
 133      0A544491 
 133      2E8154E2 
 133      20BB7B2F 
 133      9C7A3576 
 134 017b D593DAB3 		.ascii	"\325\223\332\263{\344\273\265'\326\342\326\376\216\223"
 134      7BE4BBB5 
 134      27D6E2D6 
 134      FE8E93
 135 018a 5A572F61 		.ascii	"ZW/a\363\002\230\244\300&L\204\336\247\364\216\204\303"
 135      F30298A4 
 135      C0264C84 
 135      DEA7F48E 
 135      84C3
 136 019c BB7F5F7F 		.ascii	"\273\177_\177\342q|\012\241\006wa>X\260\011\301J\203"
 136      E2717C0A 
 136      A1067761 
 136      3E58B009 
 136      C14A83
 137 01af 9D34B001 		.ascii	"\2354\260\001\251fg\215#\262\354d\203\024jLnj\014\231"
 137      A966678D 
 137      23B2EC64 
 137      83146A4C 
 137      6E6A0C99 
 138 01c3 ACC96273 		.ascii	"\254\311bs\331\324\230sX/7b\232\307\006\036f\220OM\362"
 138      D9D49873 
 138      582F3762 
 138      9AC7061E 
 138      66904F4D 
 139 01d8 4C9ADE43 		.ascii	"L\232\336C\323\005\014<\213\255\315fM!M\357\240\351"
 139      D3050C3C 
 139      8BADCD66 
 139      4D214DEF 
 139      A0E9
 140 01ea 22365DCC 		.ascii	"\"6]\314f\346Qc\231\317\232Rj\254ed\360\036\031,\240"
 140      66E65163 
 140      99CF9A52 
 140      6AAC6564 
 140      F01E192C 
 141 01ff 816D21A3 		.ascii	"\201m!\243cw\014]tp\217\360Rl\007\354\264\364\253\242"
 141      63770C5D 
 141      74708FF0 
 141      526C07EC 
 141      B4F4ABA2 
ARM GAS  /tmp/cczgFmwQ.s 			page 11


 142 0213 9622B91A 		.ascii	"\226\"\271\032\025\372SOC\307\360\305\275\347\224\032"
 142      15FA534F 
 142      43C7F0C5 
 142      BDE7941A 
 143 0223 FC008D50 		.ascii	"\374\000\215P\217\3269\360\276F\277\020]\352[\360&\251"
 143      8FD639F0 
 143      BE46BF10 
 143      5DEA5BF0 
 143      26A9
 144 0235 62AF470B 		.ascii	"b\257G\013S\307\3015\251E\251\316i\350\033\376k\357"
 144      53C7C135 
 144      A945A9CE 
 144      69E81BFE 
 144      6BEF
 145 0247 908EB431 		.ascii	"\220\216\2641d\027\031:\005\316Ed\014\247Fp\030\203"
 145      6417193A 
 145      05CE4564 
 145      0CA74670 
 145      1883
 146 0259 DBBE2FBA 		.ascii	"\333\276/\272\243=\001N\321q\035\243\235A\211r\020\220"
 146      A33D014E 
 146      D1711DA3 
 146      9D418972 
 146      1090
 147 026b CD757ED6 		.ascii	"\315u~\326\031\336\222-g\2354\313\260\2401\324I\350"
 147      19DE922D 
 147      679D34CB 
 147      B0A031D4 
 147      49E8
 148 027d FAB9DDAE 		.ascii	"\372\271\335\256\257\361\205\330_5\355\261FQ\317@\307"
 148      AFF185D8 
 148      5F35EDB1 
 148      4651CF40 
 148      C7
 149 028e 8DBD0307 		.ascii	"\215\275\003\0076\252\021\321\000\004\204\247\022\302"
 149      36AA11D1 
 149      000484A7 
 149      12C2
 150 029c 05B22236 		.ascii	"\005\262\"6UT\234\031p\035\337\321\266\227\0070\205"
 150      55549C19 
 150      701DDFD1 
 150      B6970730 
 150      85
 151 02ad 0D1967AA 		.ascii	"\015\031g\252\207\365\364\365\321\310z\232\356\366\355"
 151      87F5F4F5 
 151      D1C87A9A 
 151      EEF6ED
 152 02bc FE533F56 		.ascii	"\376S?VH7RV\301+t\223s\2400\200\351\361\025V\243.\016"
 152      48375256 
 152      C12B7493 
 152      73A03080 
 152      E9F11556 
 153 02d3 C29AB1D1 		.ascii	"\302\232\261\321=\2737yu\337D\247\227\030\245\237>)"
 153      3DBB3779 
 153      75DF44A7 
 153      9718A59F 
 153      3E29
ARM GAS  /tmp/cczgFmwQ.s 			page 12


 154 02e5 ED2AB8AD 		.ascii	"\355*\270\255\255\323\\\001\314\360!\311{D\234\201\266"
 154      ADD35C01 
 154      CCF021C9 
 154      7B449C81 
 154      B6
 155 02f6 64E46ECD 		.ascii	"d\344n\315@\261\221\311\365?|\361\300\020\0120\027\277"
 155      40B191C9 
 155      F53F7CF1 
 155      C0100A30 
 155      17BF
 156 0308 5DB32790 		.ascii	"]\263'\220\237k\027\376'\034v\322`r\202\325\340A\352"
 156      9F6B17FE 
 156      271C76D2 
 156      607282D5 
 156      E041EA
 157 031b 70812046 		.ascii	"p\201 F\240\032<\2043b\357\300\300\302\220(q\262l\236"
 157      A01A3C84 
 157      3362EFC0 
 157      C0C29028 
 157      71B26C9E 
 158 032f 07B11981 		.ascii	"\007\261\031\201\212\265\312\342\242\177\303/}\252T"
 158      8AB5CAE2 
 158      A27FC32F 
 158      7DAA54
 159 033e 7D613D22 		.ascii	"}a=\"\003\033\2342.J\364%>?>.\222`0]%\355G.\255\261"
 159      031B9C32 
 159      2E4AF425 
 159      3E3F3E2E 
 159      9260305D 
 160 0358 486F7475 		.ascii	"Hotu\247\371\"\342\320\265\325\263\272\231%a\246\310"
 160      A7F922E2 
 160      D0B5D5B3 
 160      BA992561 
 160      A6C8
 161 036a E614E087 		.ascii	"\346\024\340\207\206\364\275\263\022\004\270\334\233"
 161      86F4BDB3 
 161      1204B8DC 
 161      9B
 162 0377 07F80194 		.ascii	"\007\370\001\224\260\354zF<\010\306{\034\310\366E0\334"
 162      B0EC7A46 
 162      3C08C67B 
 162      1CC8F645 
 162      30DC
 163 0389 81EC004E 		.ascii	"\201\354\000N\027Yu\370\320\220\216\316\231JV\325JT"
 163      175975F8 
 163      D0908ECE 
 163      994A56D5 
 163      4A54
 164 039b 2E01E561 		.ascii	".\001\345a\314@_\023\256d\347\225\255\271\322\"S\012"
 164      CC405F13 
 164      AE64E795 
 164      ADB9D222 
 164      530A
 165 03ad E99142CE 		.ascii	"\351\221B\316\325\227&\0109\004Hyj\370\352B\013\021"
 165      D5972608 
 165      39044879 
 165      6AF8EA42 
ARM GAS  /tmp/cczgFmwQ.s 			page 13


 165      0B11
 166 03bf 9B2E5F7A 		.ascii	"\233._z\236\261&Gn\373\241\004\220\270\346[\321k\316"
 166      9EB12647 
 166      6EFBA104 
 166      90B8E65B 
 166      D16BCE
 167 03d2 A33224F2 		.ascii	"\2432$\362\037ab\376\347\305\311\177\013\364\251\342"
 167      1F6162FE 
 167      E7C5C97F 
 167      0BF4A9E2 
 168 03e2 889FEAF5 		.ascii	"\210\237\352\365\310-O\030\345X\255\257\305\211\025"
 168      C82D4F18 
 168      E558ADAF 
 168      C58915
 169 03f1 2B856E9C 		.ascii	"+\205n\234\023\351\025x\017\257\275\372\001\247\032"
 169      13E91578 
 169      0FAFBDFA 
 169      01A71A
 170 0400 D6A27EFC 		.ascii	"\326\242~\374\261\231\316x\226\373\220\317\013H2/ 9"
 170      B199CE78 
 170      96FB90CF 
 170      0B48322F 
 170      2039
 171 0412 F10B8831 		.ascii	"\361\013\2101\352\337 t\365\232$t\246\036B\271\276\210"
 171      EADF2074 
 171      F59A2474 
 171      A61E42B9 
 171      BE88
 172 0424 11F105D8 		.ascii	"\021\361\005\330V'\341\370\325c\337n\260\351\246\214"
 172      5627E1F8 
 172      D563DF6E 
 172      B0E9A68C 
 173 0434 2F6FFC49 		.ascii	"/o\374Im\220\302\276\027\267;\217n\323)\013\036R9\373"
 173      6D90C2BE 
 173      17B73B8F 
 173      6ED3290B 
 173      1E5239FB 
 174 0448 33C84E7D 		.ascii	"3\310N}\366\001\345\354\222,g\005\274\234\231e5c\361"
 174      F601E5EC 
 174      922C6705 
 174      BC9C9965 
 174      3563F1
 175 045b B96DA9F4 		.ascii	"\271m\251\364g\226\214\200\243wU\021!\237\350\312\315"
 175      67968C80 
 175      A3775511 
 175      219FE8CA 
 175      CD
 176 046c A665BE56 		.ascii	"\246e\276V\316W\372\276<\0339F\244\010\226$\370v\021"
 176      CE57FABE 
 176      3C1B3946 
 176      A4089624 
 176      F87611
 177 047f 8394C20E 		.ascii	"\203\224\302\0167Xnt\374\332\371\333\266\\\311_H\262"
 177      37586E74 
 177      FCDAF9DB 
 177      B65CC95F 
 177      48B2
ARM GAS  /tmp/cczgFmwQ.s 			page 14


 178 0491 71E24593 		.ascii	"q\342E\223\244\225Y\\(i\035\361cI\320M5;\004\245S|\345"
 178      A495595C 
 178      28691DF1 
 178      6349D04D 
 178      353B04A5 
 179 04a8 59A21CDF 		.ascii	"Y\242\034\337\251'\212G\006y\371=y\342\211\023\343."
 179      A9278A47 
 179      0679F93D 
 179      79E28913 
 179      E32E
 180 04ba D865987A 		.ascii	"\330e\230z\326\336?\242\207\357\214\216\\\177nb\020"
 180      D6DE3FA2 
 180      87EF8C8E 
 180      5C7F6E62 
 180      10
 181 04cb 6C18784D 		.ascii	"l\030xM\215~\324\222\2046\363\304\203\204\275\341\276"
 181      8D7ED492 
 181      8436F3C4 
 181      8384BDE1 
 181      BE
 182 04dc 41851E3D 		.ascii	"A\205\036=$e\273\306\302\"'\022g\311\305B\315$\206\275"
 182      2465BBC6 
 182      C2222712 
 182      67C9C542 
 182      CD2486BD 
 183 04f0 2E1C627B 		.ascii	".\034b{\354O\253\301k\374H\363yx\336\037i\212AR\"\\"
 183      EC4FABC1 
 183      6BFC48F3 
 183      7978DE1F 
 183      698A4152 
 184 0506 6B3F8712 		.ascii	"k?\207\022:\217\320\261J\244\300\327\374\342\207\307"
 184      3A8FD0B1 
 184      4AA4C0D7 
 184      FCE287C7 
 185 0516 A64B9352 		.ascii	"\246K\223R\316\356\271/\273y\034;I\035e/ev\236X\255"
 185      CEEEB92F 
 185      BB791C3B 
 185      491D652F 
 185      65769E58 
 186 052b ABE83AEF 		.ascii	"\253\350:\357\250j5=\037Hr\036a\016i\275\240\036\313"
 186      A86A353D 
 186      1F48721E 
 186      610E69BD 
 186      A01ECB
 187 053e 04C5F703 		.ascii	"\004\305\367\003?\034\323K\375\002Fb\213R\014A\031\233"
 187      3F1CD34B 
 187      FD024662 
 187      8B520C41 
 187      199B
 188 0550 49A277E8 		.ascii	"I\242w\350\335\217\367\037l\340\003\200T\356\177:\274"
 188      DD8FF71F 
 188      6CE00380 
 188      54EE7F3A 
 188      BC
 189 0561 8BAAA829 		.ascii	"\213\252\250)\003!\311P\364\220\222x \224\350MrS&q\021"
 189      0321C950 
 189      F4909278 
ARM GAS  /tmp/cczgFmwQ.s 			page 15


 189      2094E84D 
 189      72532671 
 190 0576 4F629748 		.ascii	"Ob\227Hb!m\20681\345\363Go\027J\327\212\365|\016\253"
 190      62216D86 
 190      3831E5F3 
 190      476F174A 
 190      D78AF57C 
 191 058c 91ACED36 		.ascii	"\221\254\3556M\362\351\"\263\266X<z\016_\371/\217\236"
 191      4DF2E922 
 191      B3B6583C 
 191      7A0E5FF9 
 191      2F8F9E
 192 059f A3E1FFE3 		.ascii	"\243\341\377\343\321\343fYy\016\332\307:n\032b?\015"
 192      D1E36659 
 192      790EDAC7 
 192      3A6E1A62 
 192      3F0D
 193 05b1 2C0090D6 		.ascii	",\000\220\326\030j\221\267\241\271\311\357\3655\327"
 193      186A91B7 
 193      A1B9C9EF 
 193      F535D7
 194 05c0 ADF4D6F9 		.ascii	"\255\364\326\371Wx}\015\201\332@s\310\333\032l[\376"
 194      57787D0D 
 194      81DA4073 
 194      C8DB1A6C 
 194      5BFE
 195 05d2 A2973A0D 		.ascii	"\242\227:\0155\215\336\226\346`k\310[Y\265d\356c\336"
 195      358DDE96 
 195      E6606BC8 
 195      5B59B564 
 195      EE63DE
 196 05e5 C58B177A 		.ascii	"\305\213\027z\253+\237\250\250ZQ\342\015\371\203\201"
 196      AB2B9FA8 
 196      A85A51E2 
 196      0DF98381 
 197 05f5 9AC6658D 		.ascii	"\232\306e\215\215uE>Pk\213\212\261M\011\005\261\266"
 197      8D75453E 
 197      506B8B8A 
 197      B14D0905 
 197      B1B6
 198 0607 341169B0 		.ascii	"4\021i\260\325\033X\356kl\253#\243\206\227\332\374m"
 198      D51B58EE 
 198      6B6CAB23 
 198      A38697DA 
 198      FC6D
 199 0619 FE505103 		.ascii	"\376PQ\003\230\002/\2646\265\024\225\224'\202\373_n"
 199      98022FB4 
 199      36B51495 
 199      942782FB 
 199      5F6E
 200 062b F53EB9A4 		.ascii	"\365>\271\244rQe\224\2459\350_\346kz\272m\271\217\210"
 200      72516594 
 200      A539E85F 
 200      E66B7ABA 
 200      6DB98F88 
 201 063f 5C4B2A2B 		.ascii	"\\K*+<\2655!\177K0\360\250\247\240\030\224 \230\232"
 201      3CB53521 
ARM GAS  /tmp/cczgFmwQ.s 			page 16


 201      7F4B30F0 
 201      A8A7A018 
 201      9420989A 
 202 0653 FC4DCDC1 		.ascii	"\374M\315\301\2250w2\007n\016QCN\262\177\342\373\027"
 202      95307732 
 202      076E0E51 
 202      434EB27F 
 202      E2FB17
 203 0666 C7C676F3 		.ascii	"\307\306v\363"
 204              		.text
 205              		.section	.gnu.lto_usart_init.isra.0.f607f18bc94eaa4e,"",%progbits
 206 0000 789C9D92 		.ascii	"x\234\235\222MH\024a\030\307\237g\276wu\335U:\004v\020"
 206      4D481461 
 206      18C79F67 
 206      BE7775DD 
 206      553A0476 
 207 0015 BB048143 		.ascii	"\273\004\201CJ\347>\350\022X\207\\#O\261\256\242Ck\033"
 207      4AE73EE8 
 207      1258875C 
 207      234FB1AE 
 207      A2436B1B 
 208 0029 7E4141F8 		.ascii	"~AA\370\256\273V\320\007\233'\263\213\022QD\320U\017"
 208      AEBB56D0 
 208      079B27B3 
 208      8B125144 
 208      D0550F
 209 003c 8549A442 		.ascii	"\205I\244B\206\336\304\223t\211:T \250H0=\317\2743\353"
 209      86DEC493 
 209      74893A54 
 209      20A84830 
 209      3DCFBC33 
 210 0051 BA54AB0E 		.ascii	"\272T\253\016\314\3631\357\363\377\277\277\231w\024"
 210      CCF331EF 
 210      F3FFBFBF 
 210      997714
 211 0060 50A0F4BA 		.ascii	"P\240\364\272L\367'\035\240\2152Z\200f\3763@\3062Q\341"
 211      4CF7271D 
 211      A08D325A 
 211      8066FE33 
 211      40C63251 
 212 0075 021545DB 		.ascii	"\002\025E\3330A\204\325\361\217\000\242R\365[]\266\032"
 212      304184D5 
 212      F18F00A2 
 212      52F55B5D 
 212      B61A
 213 0087 1A725C0F 		.ascii	"\032r\\\017\012\003\221\013@\0302\025U\323\015\034j"
 213      0A03910B 
 213      40183215 
 213      55D30D1C 
 213      6A
 214 0098 43DE47AD 		.ascii	"C\336G\255\207I!F\327F~.)O\304LnB\374v]D\007\211\251"
 214      87492146 
 214      D7467E2E 
 214      294FC44C 
 214      6E42FC76 
 215 00b1 19218970 		.ascii	"\031!\211p\205\032\254\363\222\242\355\206\224\332\231"
 215      851AACF3 
ARM GAS  /tmp/cczgFmwQ.s 			page 17


 215      92A2ED86 
 215      94DA99
 216 00c0 E5B98549 		.ascii	"\345\271\205I\024\243\"\363\313u\243\016\252\012\\\334"
 216      14A322F3 
 216      CB75A30E 
 216      AA0A5CDC 
 217 00d0 A3F2DDDC 		.ascii	"\243\362\335\334\203p>sO\270\356\220\247\213\227\323"
 217      83703E73 
 217      4FB8EE90 
 217      A78B97D3 
 218 00e0 BD51C49A 		.ascii	"\275Q\304\232\353No[G\020{\2301\201\223X\017*5\250\001"
 218      EB4E6F5B 
 218      47107B98 
 218      31819358 
 218      0F2A35A8 
 219 00f5 79E81C0C 		.ascii	"y\350\034\014\016&\007\213\202\026\342\020\346\266\202"
 219      0E26078B 
 219      8216E210 
 219      E6B682
 220 0104 AB4A0E11 		.ascii	"\253J\016\021n\253\270\212r\210q[Mn\317\311\255\206"
 220      6EABB88A 
 220      7288715B 
 220      4D6ECFC9 
 220      AD86
 221 0116 F233CAB5 		.ascii	"\3623\312\265\344\312'\243CN\210|\235\334\012\230\220"
 221      E4CA27A3 
 221      434E887C 
 221      9DDC0A98 
 221      90
 222 0127 2E4205FE 		.ascii	".B\005\376\244q49\253\2554\312y\021\206W\307\350c&\360"
 222      A4713439 
 222      ABAD34CA 
 222      79118657 
 222      C7E86326 
 223 013c 05EAD085 		.ascii	"\005\352\320\205J\027\326\002\314\303\207\257\357\037"
 223      4A17D602 
 223      CCC387AF 
 223      EF1F
 224 014a DF550B4F 		.ascii	"\337U\013O\371\345@L\344D\361\013\266\242\012t\202*"
 224      F9E5404C 
 224      E444F10B 
 224      B6A20A74 
 224      822A
 225 015c 4F676E97 		.ascii	"Ogn\227\314\276,\235\325`$*\267[_\322\202a\3558\274"
 225      CCBE2C9D 
 225      D560242A 
 225      B75B5FD2 
 225      8261ED38 
 226 0171 123107F5 		.ascii	"\0221\007\365\2470\236\021\\\031]\250\262\203\351\311"
 226      A7309E11 
 226      5C195DA8 
 226      B283E9C9 
 227 0181 DA313058 		.ascii	"\33210X\204\354\303\354w\014\204:\317\250b\373\3161"
 227      84ECC3EC 
 227      770C843A 
 227      CFA862FB 
 227      CE31
ARM GAS  /tmp/cczgFmwQ.s 			page 18


 228 0193 76E1E5D9 		.ascii	"v\341\345\331\205\274)W\3313\227\021\021\007\255\202"
 228      85BC2957 
 228      D9339711 
 228      1107AD82 
 229 01a3 6D2800F3 		.ascii	"m(\000\363meA>\001\236\016\367Oyx+Ex\306A\361L\211\367"
 229      6D65413E 
 229      019E0EF7 
 229      4F79782B 
 229      4578C641 
 230 01bb 367B885D 		.ascii	"6{\210]\016\216g\006xF\341\264\2466vN\313\362\371\302"
 230      0E8E6706 
 230      7846E1B4 
 230      A636764E 
 230      CBF2F9C2 
 231 01cf FFE45376 		.ascii	"\377\344Sv\370\246\263_\012|\264\237\305c\332iom\370"
 231      F8A6B35F 
 231      0A7CB49F 
 231      C563DA69 
 231      6F6DF8
 232 01e2 47E1A8C3 		.ascii	"G\341\250\303\264(y\227\214]\274\241\377\361\252>o\330"
 232      B4287997 
 232      8C5DBCA1 
 232      FFF1AA3E 
 232      6FD8
 233 01f4 735B5D29 		.ascii	"s[])b\254(\313\250\375\235\261\222\264\036#\2262Fhq"
 233      62AC28CB 
 233      A8FD9DB1 
 233      92B41E23 
 233      96324668 
 234 0209 FF8CBACF 		.ascii	"\377\214\272\317\030\221\214[E\214Ue\031\215b\306\365"
 234      18918C5B 
 234      458C5565 
 234      198D62C6 
 234      F5
 235 021a 47B70265 		.ascii	"G\267\002e\224\304\036\344\353\263\245\2241Z\225\224"
 235      94C41EE4 
 235      EBB3A594 
 235      315A9594 
 236 022a B415EE9D 		.ascii	"\264\025\356\235\323\3649c\236xjes~\037b\313\313\374"
 236      D3F43963 
 236      9E786A65 
 236      737E1F62 
 236      CBCBFC
 237 023d C492B8B3 		.ascii	"\304\222\270\263\253[\233\207\003\244j\337\342dy\013"
 237      AB5B9B87 
 237      03A46ADF 
 237      E264790B 
 238 024d A91DDB2E 		.ascii	"\251\035\333.hk\366\242\015\371\332e\310\254};*\245"
 238      686BF6A2 
 238      0DF9DA65 
 238      C8AC7D3B 
 238      2AA5
 239 025f C115A7BF 		.ascii	"\301\025\247\277\232~b\376#\317\333\335\351\236N;\231"
 239      9A7E62FE 
 239      23CFDBDD 
 239      E99E4E3B 
 239      99
ARM GAS  /tmp/cczgFmwQ.s 			page 19


 240 0270 EEB86977 		.ascii	"\356\270iwt\016\332\311n\247\335I\367\331\375\275\003"
 240      740EDAC9 
 240      6EA7DD49 
 240      F7D9FDBD 
 240      03
 241 0281 D7AFD954 		.ascii	"\327\257\331Tt'R\366\215to\177\237\335\022\277\320\324"
 241      742752F6 
 241      8D746F7F 
 241      9FDD12BF 
 241      D0D4
 242 0293 6837379F 		.ascii	"h77\237\263[[\316\\\212\017\236\260\373:{\235D\352j"
 242      B35B5BCE 
 242      5C8A0F9E 
 242      B0FB3A7B 
 242      9D44EA6A 
 243 02a7 2AD5D190 		.ascii	"*\325\321\220\004\034\320\007\323\251\206&/6\376\001"
 243      041CD007 
 243      D3A98626 
 243      2F36FE01 
 244 02b7 7A3D747C 		.ascii	"z=t|"
 245              		.text
 246              		.section	.gnu.lto_sd_lld_stop.part.1.f607f18bc94eaa4e,"",%progbits
 247 0000 789C9551 		.ascii	"x\234\225Q1H\303@\024\375\377.\255uQW\267\342\340R\360"
 247      3148C340 
 247      14FDFF2E 
 247      AD755157 
 247      B7E2E052 
 248 0015 504727C1 		.ascii	"PG'\301\245P\021l\012:I\232\024\033\214\2464\265 \016"
 248      A550116C 
 248      0A3A499A 
 248      141B8CA6 
 248      34B5200E 
 249 0029 BD68870E 		.ascii	"\275h\207\016\202\301It\261\010\016.\016\216n\335\253"
 249      82C14974 
 249      B1080E2E 
 249      0E8E6EDD 
 249      AB
 250 003a 38B65316 		.ascii	"8\266S\026WuRp0\376K\350\240\233\037\356\336\277\373"
 250      57755270 
 250      30FE4BE8 
 250      A09B1FEE 
 250      DEBFFB
 251 004d F7DEFB77 		.ascii	"\367\336\373w\307\200\301\337\310\321h!\300\032!\246"
 251      C780C1DF 
 251      C8D16821 
 251      C01A21A6 
 252 005d 00B5E091 		.ascii	"\000\265\340\221\022\015Y\214\014\271B?\303\021U\002"
 252      120D598C 
 252      0CB9423F 
 252      C3115502 
 253 006d 082D8D71 		.ascii	"\010-\215qlm\242\"\343\014t\245<\013_^\357\247\345\325"
 253      6C6DA222 
 253      E30C74A5 
 253      3C0B5F5E 
 253      EFA7E5D5 
 254 0081 5120BFA3 		.ascii	"Q \277\243\010m$\233\002\202\211\260A\013\314\306\300"
 254      086D249B 
ARM GAS  /tmp/cczgFmwQ.s 			page 20


 254      028289B0 
 254      410BCCC6 
 254      C0
 255 0092 B4DFBE77 		.ascii	"\264\337\276wL\206Q4\2709\3014\202\215\234\251\211\366"
 255      4C865134 
 255      B839C134 
 255      828D9CA9 
 255      89F6
 256 00a4 53D09632 		.ascii	"S\320\2262\310\032\330%qP\"\024:\315\312^GM!/!\213\261"
 256      C81AD825 
 256      71502214 
 256      3ACDCA5E 
 256      474D212F 
 257 00bb 0FBDE1F9 		.ascii	"\017\275\341\371\307\222\201\327\324\3726b\016ne\333"
 257      C79281D7 
 257      D4FA3662 
 257      0E6E65DB 
 258 00cb 9FB251BB 		.ascii	"\237\262Q\273\204\013?\220\224\245\224yZ\276w\244\026"
 258      840B3F90 
 258      94A59479 
 258      5ABE77A4 
 258      16
 259 00dc F7918EDD 		.ascii	"\367\221\216\335\3138\352\243\017\307\017|$\300HC\035"
 259      CB38EAA3 
 259      0FC70F7C 
 259      24C04843 
 259      1D
 260 00ed E251F419 		.ascii	"\342Q\364\031M\306\325^>)\376[\232\324\000\236\240\035"
 260      4DC6D55E 
 260      3E29FE5B 
 260      9AD4009E 
 260      A01D
 261 00ff 0E4E2712 		.ascii	"\016N'\022\011\200C\370\222\035E\035319\246x\231Y\272"
 261      098043F8 
 261      921D451D 
 261      333139A6 
 261      789959BA 
 262 0113 FB78C22A 		.ascii	"\373x\302*\321#\250\233=\203\037\016\337pDLB'\022\025"
 262      D123A89B 
 262      3D831F0E 
 262      DF70444C 
 262      42271215 
 263 0127 D527E645 		.ascii	"\325'\346E\325\335\255\010\323\265\016\204Ui\012\263"
 263      D5DDAD08 
 263      D3B50E84 
 263      55690AB3 
 264 0137 6A976DD7 		.ascii	"j\227m\327\023\215\372\376\336\216\240\244j8\242\346"
 264      138DFAFE 
 264      DE8EA0A4 
 264      6A38A2E6 
 265 0147 D61B9E28 		.ascii	"\326\033\236(\352\253\213\013\242PX\021\245\342\362"
 265      EAAB8B0B 
 265      A2505811 
 265      A5E2F2
 266 0156 BADE9C17 		.ascii	"\272\336\234\027^\245n\033\316\226\343Xs&p\317\252\375"
 266      5EA56E1B 
 266      CE96E358 
ARM GAS  /tmp/cczgFmwQ.s 			page 21


 266      732670CF 
 266      AAFD
 267 0168 004C6E7A 		.ascii	"\000Lnz\306"
 267      C6
 268              		.text
 269              		.section	.gnu.lto_VectorD8.f607f18bc94eaa4e,"",%progbits
 270 0000 789C6362 		.ascii	"x\234cb`b@\007\222@\274\031\210\275\201\230\221\231"
 270      60624007 
 270      9240BC19 
 270      88BD8198 
 270      9199
 271 0012 819169C2 		.ascii	"\201\221i\3029\006\206F\016&FF\020\203\201\221\241\236"
 271      39068646 
 271      0E264646 
 271      10838191 
 271      A19E
 272 0024 89B13E92 		.ascii	"\211\261>\222\021\254v=\323\201\007\377\377\257\373"
 272      11AC763D 
 272      D38107FF 
 272      FFAFFB
 273 0033 3269CD1C 		.ascii	"2i\315\034\3063L,@\021V\206\226\206\206\011\012\014"
 273      C6334C2C 
 273      40115686 
 273      96868609 
 273      0A0C
 274 0045 0CC96015 		.ascii	"\014\311`\025!@\022\244-\224\221\011D3\237ghy\260\357"
 274      214012A4 
 274      2D949109 
 274      44339F67 
 274      6879B0EF 
 275 0059 245722E3 		.ascii	"$W\"\343BFV\240t5\303\257\206\216\006\201LF\240r\210"
 275      424656A0 
 275      7435C3AF 
 275      868E0681 
 275      4C46A072 
 276 006e 8920118E 		.ascii	"\211 \021\216LF\306\\F\006\250\242L\240V\206\363\014"
 276      4C46C65C 
 276      4606A8A2 
 276      4CA05686 
 276      F30C
 277 0080 CD0F4E64 		.ascii	"\315\017NdbhcNf\204x \223\021h\371E\206\306\007'5a\212"
 277      6268634E 
 277      66847820 
 277      931168F9 
 277      4586C607 
 278 0098 20200468 		.ascii	"  \004h.\320b\220*O\375\214\374\334T\375\344\374\224"
 278      2ED06290 
 278      2A4FFD8C 
 278      FCDC54FD 
 278      E4FC94
 279 00ab 4AFD94D4 		.ascii	"J\375\224\3242\375\344\214\314\244\314\374b\375\222"
 279      32FDE48C 
 279      CCA4CCFC 
 279      62FD92
 280 00ba A2D2BC6C 		.ascii	"\242\322\274l} ##1G\277 \277\250\244X?8\304\327\330"
 280      7D202323 
 280      3147BF20 
ARM GAS  /tmp/cczgFmwQ.s 			page 22


 280      BFA8A458 
 280      3F38C4D7 
 281 00cf 48DFC7C7 		.ascii	"H\337\307\307E?4\3301(\244\314P\2778\265(31'>''E/\231"
 281      453F34D8 
 281      3128A4CC 
 281      50BF38B5 
 281      28333127 
 282 00e9 0100BFC1 		.ascii	"\001\000\277\301I\217"
 282      498F
 283              		.text
 284              		.section	.gnu.lto_sd_lld_init.f607f18bc94eaa4e,"",%progbits
 285 0000 789C6362 		.ascii	"x\234cb`b@\007\222@\374\023\210\275\201\230\221\231"
 285      60624007 
 285      9240FC13 
 285      88BD8198 
 285      9199
 286 0012 819169C2 		.ascii	"\201\221i\3029\006\206F\016&FF\020\203\201\221\241\236"
 286      39068646 
 286      0E264646 
 286      10838191 
 286      A19E
 287 0024 89B13E92 		.ascii	"\211\261>\222\021\254v=\323\201\007\377\377\257\373"
 287      11AC763D 
 287      D38107FF 
 287      FFAFFB
 288 0033 347D4E0F 		.ascii	"4}N\017\343k&\026\240\010+CKC\303\004\005\006\206d\260"
 288      E36B2616 
 288      A0082B43 
 288      4B43C304 
 288      05068664 
 289 0048 8A102009 		.ascii	"\212\020 \011\322\026\312\310\004\242\231\3173\264="
 289      D216CAC8 
 289      04A299CF 
 289      33B43D
 290 0057 E87CCB9E 		.ascii	"\350|\313\236\310\270\220\221\025(]\315\360\253\241"
 290      C8B89091 
 290      15285DCD 
 290      F0ABA1
 291 0066 A3412093 		.ascii	"\243A \223\021\250\034b\"H\204#\223\2211\227\221\001"
 291      11A81C62 
 291      22488423 
 291      93913197 
 291      9101
 292 0078 AA288231 		.ascii	"\252(\2021\023\250\031&\301\234\314\310\004\225\310"
 292      13A81926 
 292      C19CCCC8 
 292      0495C8
 293 0087 64045A78 		.ascii	"d\004Zx\226\241i\307\215E\257\031!b\332\014\253\032"
 293      96A169C7 
 293      8D45AF19 
 293      2162DA0C 
 293      AB1A
 294 0099 80803793 		.ascii	"\200\2007\223\221u6\303\254\306\006\220\321lpK@\206"
 294      917536C3 
 294      ACC60690 
 294      D16C704B 
 294      4086
ARM GAS  /tmp/cczgFmwQ.s 			page 23


 295 00ab 32400C84 		.ascii	"2@\014\204X\226\004\241\300\"\254\015\035\215\015 \037"
 295      589604A1 
 295      C022AC0D 
 295      1D8D0D20 
 295      1F
 296 00bc 5C64687C 		.ascii	"\\dh|\260C\027\346B\010\010\001j\000:\037\024X\236\372"
 296      B04317E6 
 296      42080801 
 296      6A003A1F 
 296      14589EFA 
 297 00d0 19F9B9A9 		.ascii	"\031\371\271\251\372\311\371)\225\372)\251e\372\311"
 297      FAC9F929 
 297      95FA29A9 
 297      65FAC9
 298 00df 19994999 		.ascii	"\031\231I\231\371\305\372%E\245y\331\372@FFb\216~A~"
 298      F9C5FA25 
 298      45A579D9 
 298      FA404646 
 298      628E7E41 
 299 00f4 5149B17E 		.ascii	"QI\261~p\210\257\261\221\276\217\217\213~h\260cPH\231"
 299      7088AFB1 
 299      91BE8F8F 
 299      8B7E68B0 
 299      63504899 
 300 0108 A17E716A 		.ascii	"\241~qjQfbN|NN\212^2\003\000\224.Y}"
 300      5166624E 
 300      7C4E4E8A 
 300      5E320300 
 300      942E597D 
 301              		.text
 302              		.section	.gnu.lto_sd_lld_start.f607f18bc94eaa4e,"",%progbits
 303 0000 789C9551 		.ascii	"x\234\225Q\277kSA\034\377~\357\336\275{\366%\352?Pp"
 303      BF6B5341 
 303      1CFF7EEF 
 303      DEBD7BF6 
 303      25EA3F50 
 304 0015 EA60C153 		.ascii	"\352`\301S;:\011.\301v\261\011(\010%}\011\311\303\304"
 304      3B3A092E 
 304      C176B109 
 304      2808257D 
 304      09C9C3C4 
 305 0029 48520BE2 		.ascii	"HR\013\342\320\213m\241c\307\342C\212[q\260C\245\324"
 305      D08B6DA1 
 305      63C7E243 
 305      8A5B71B0 
 305      43A5D4
 306 003c 4E6DD050 		.ascii	"Nm\320P\204*R\007-\035\2629\210\340\342\342\022\277"
 306      842A5207 
 306      2D1DB239 
 306      88E0E2E2 
 306      12BF
 307 004e F72E17FC 		.ascii	"\367.\027\3741\365\301\373\336\217\357\347\327\3351"
 307      31F5C1FB 
 307      DE8FEFE7 
 307      D7DD31
 308 005d 60F0EF77 		.ascii	"`\360\357w\227~M\3337i\304\000\220\255\276\007h\007"
 308      977E4DDB 
ARM GAS  /tmp/cczgFmwQ.s 			page 24


 308      3769C400 
 308      90ADBE07 
 308      6807
 309 006f 8CF19310 		.ascii	"\214\361\223\020\364\210\367\252C\375\014G\317\356{"
 309      F488F7AA 
 309      43FD0C47 
 309      CFEE7B
 310 007e 4C744769 		.ascii	"LtGi_\276\273L\333\202\371?\245Y%]\203\362QZ\224D4\023"
 310      5FBEBB4C 
 310      DB82F93F 
 310      A559255D 
 310      83F2515A 
 311 0096 405860DC 		.ascii	"@X`\334\023\276\304\205;\230\332m\262\275^\277\377r"
 311      13BEC485 
 311      3B98DA6D 
 311      B2BD5EBF 
 311      FF72
 312 00a8 2D79BB8F 		.ascii	"-y\273\217\033*\213PG\340HEPA\037b\004I\205\222P\011"
 312      1B2A8B50 
 312      47E04845 
 312      50411F62 
 312      04498592 
 313 00be A998C402 		.ascii	"\251\230\304\002\226\264^\275\000\020\245\"y\252F\276"
 313      96B45EBD 
 313      0010A522 
 313      79AA46BE 
 314 00ce 404D1AF9 		.ascii	"@M\032\371\001\274\371\272\377,\341E|\216\002*\310o"
 314      01BCF9BA 
 314      FF2CE145 
 314      7C8E022A 
 314      C86F
 315 00e0 638CFCCF 		.ascii	"c\214\374\317C\346iy\022\362\002z)\341\020\236\034\357"
 315      43E66979 
 315      12F2027A 
 315      29E1109E 
 315      1CEF
 316 00f2 6C1FA123 		.ascii	"l\037\241#\370\343p1F/\201\247D\024\025\024F\300O\231"
 316      F8E37031 
 316      462F81A7 
 316      44141514 
 316      46C04F99 
 317 0106 B3E8348C 		.ascii	"\263\3504\214K;;\244\030\2107l\302\027@2f\370\030~\351"
 317      4B3B3BA4 
 317      1888376C 
 317      C2174032 
 317      66F8187E 
 318 011b 35BDB79E 		.ascii	"5\275\267\236\234\243\010\3654=?\340&\253\200\356\250"
 318      9CA308F5 
 318      343D3FE0 
 318      26AB80EE 
 318      A8
 319 012c 8D7A9464 		.ascii	"\215z\224d\234\2140\370\025\255'\310\257\376wf\242\370"
 319      9C8C30F8 
 319      15AD27C8 
 319      AFFE7766 
 319      A2F8
 320 013e D06714B6 		.ascii	"\320g\024\266s\374y\367\232c\310qx\241\227\332\347c"
ARM GAS  /tmp/cczgFmwQ.s 			page 25


 320      73FC79F7 
 320      9A63C871 
 320      78A197DA 
 320      E763
 321 0150 94366F60 		.ascii	"\2246o`\222\234\321?V\264\007\351t\220\333e;\204\305"
 321      929CD13F 
 321      56B407E9 
 321      7490DB65 
 321      3B84C5
 322 0163 D7C3AB09 		.ascii	"\327\303\253\011H\300\200P\353 \355ur\266u:U\022\002"
 322      48C08050 
 322      EB20ED75 
 322      72B6753A 
 322      551202
 323 0176 F800CBBD 		.ascii	"\370\000\313\275o\337C\313\007\260'!\205\221h\2002\274"
 323      6FDF43CB 
 323      07B02721 
 323      85916880 
 323      32BC
 324 0188 70CC0E19 		.ascii	"p\314\016\031z\312\214;\227t\257\260\273\274\265\235"
 324      7ACA8C3B 
 324      9774AFB0 
 324      BBBCB59D 
 325 0198 3372A175 		.ascii	"3r\241ue\356\356?\005\026k<\3267\345\177\036\331\010"
 325      65EEEE3F 
 325      05166B3C 
 325      D637E57F 
 325      1ED908
 326 01ab D9204958 		.ascii	"\331 IXAb\234\005\370\010\355\336\206rP\367\360h\274"
 326      41629C05 
 326      F808EDDE 
 326      867250F7 
 326      F068BC
 327 01be 0C36A7AA 		.ascii	"\0146\247\252\215zYE\215\322#U*\317\253\250\032\317"
 327      8D7A5945 
 327      8DD22355 
 327      2ACFABA8 
 327      1ACF
 328 01d0 C68D969A 		.ascii	"\306\215\226\232k>\274\177O\321\244Z\254\251\007\215"
 328      6B3EBC7F 
 328      4FD1A45A 
 328      ACA9078D 
 329 01e0 E65C4B4D 		.ascii	"\346\\KM\347\247&\256\252\311\311\033\2520}\375V~\376"
 329      E7A726AE 
 329      AAC9C91B 
 329      AA307DFD 
 329      567EFE
 330 01f3 8A6A959B 		.ascii	"\212j\225\233q\2616S\253\225.E\360\033\007\021\263$"
 330      71B13653 
 330      AB952E45 
 330      F01B0711 
 330      B324
 331              		.text
 332              		.section	.gnu.lto_sd_lld_stop.f607f18bc94eaa4e,"",%progbits
 333 0000 789C9591 		.ascii	"x\234\225\221\301kSA\020\306\277\231}\333F\255\340?"
 333      C16B5341 
 333      10C6BF99 
ARM GAS  /tmp/cczgFmwQ.s 			page 26


 333      7DDB46AD 
 333      E03F
 334 0012 50103C69 		.ascii	"P\020<i\301\255\366/(xQ\353\305&\240x\220\364%4\213"
 334      C1ADF62F 
 334      287851EB 
 334      C526A078 
 334      90F42534 
 335 0027 4953925A 		.ascii	"IS\222Z\020\017\335\247\005\365\326ci\017\305K\005\021"
 335      100FDDA7 
 335      05F5D663 
 335      690FC54B 
 335      0511
 336 0039 BDE62254 		.ascii	"\275\346\"T\221 J\265\322K\351\241\364\3461'\333\242"
 336      91204AB5 
 336      D24BE9A1 
 336      F4E63127 
 336      DBA2
 337 004b D038FBD6 		.ascii	"\3208\373\326\027\304\212\340\302\333\331\235\375\276"
 337      17C48AE0 
 337      C2DBD99D 
 337      FDBE
 338 0059 DFBC9D65 		.ascii	"\337\274\235e0\376\034\243\362]\221\364U\211\324\007"
 338      30FE1CA3 
 338      F25D91F4 
 338      5589D407 
 339 0069 E2854F40 		.ascii	"\342\205O@\222cV\355A\270\343\372\3030\334\200\342\350"
 339      926356ED 
 339      41B8E3FA 
 339      C330DC80 
 339      E2E8
 340 007b 5BBFDF2D 		.ascii	"[\277\337-\267!\333\210\264W\221&\362\021\2049V\221"
 340      B721DB88 
 340      B4579126 
 340      F2118439 
 340      5691
 341 008d A6B99B94 		.ascii	"\246\271\233\2242_\361\332n\267\373rog\365\005=9s\202"
 341      325FF1DA 
 341      6EB7FB72 
 341      6F67F505 
 341      3D397382 
 342 00a1 A94650B0 		.ascii	"\251FP\260\204H&/\321\230wn\3414\020\247\206\274\314"
 342      8448262F 
 342      D198776E 
 342      E13410A7 
 342      86BCCC
 343 00b4 1E5420F6 		.ascii	"\036T \366Q\255\343\301v\253\263IEzJ\032\223\244\206"
 343      51ADE3C1 
 343      76ABB349 
 343      457A4A1A 
 343      93A486
 344 00c7 70CE122F 		.ascii	"p\316\022/c\211,\251I\342\033\022\243\264\324\004e\027"
 344      63892CA9 
 344      49E21B12 
 344      A3B4D404 
 344      6517
 345 00d9 798F775F 		.ascii	"y\217w_\223\223=\213\227\360\357\327-\220B{0eou>r&\214"
 345      93933D8B 
ARM GAS  /tmp/cczgFmwQ.s 			page 27


 345      97F0EFD7 
 345      2D90427B 
 345      30656F75 
 346 00f1 5236093B 		.ascii	"R6\011;q\316\335:\312\317\012\254\343m\353\340p\203"
 346      71CEDD3A 
 346      CACF0AAC 
 346      E36DEBE0 
 346      7083
 347 0103 7AFF1E16 		.ascii	"z\377\036\026\356\307\353\263@\240\305A<\204\347n>Y"
 347      EEC7EBB3 
 347      40A0C541 
 347      3C84E76E 
 347      3E59
 348 0115 DB7FC496 		.ascii	"\333\177\304\226t\000\237\262\324'\265<\227~q\331\273"
 348      74009FB2 
 348      D427B53C 
 348      977E71D9 
 348      BB
 349 0126 9E890B3E 		.ascii	"\236\211\013>\253\263\022\213\335\015\271\367\252$\002"
 349      ABB3128B 
 349      DD0DB9F7 
 349      AA2402
 350 0135 C61DFB17 		.ascii	"\306\035\373\027D\375\035\322\372/Ht\024\342\233\371"
 350      44FD1DD2 
 350      FA2F4874 
 350      14E29BF9 
 351 0145 66656520 		.ascii	"fee \353\022\337\307w\367\330\271\021\351K\255\327\222"
 351      EB12DFC7 
 351      77F7D8B9 
 351      11E94BAD 
 351      D792
 352 0157 ACB111BA 		.ascii	"\254\261\021\272\254>\343a.\310\201\240\226R\3751\205"
 352      AC3EE361 
 352      2EC881A0 
 352      9652FD31 
 352      85
 353 0168 37B094CB 		.ascii	"7\260\224\313\324:}\343/Hv\267;\2249\302\310\013Z\016"
 353      D43A7DE3 
 353      2F4876B7 
 353      3B9439C2 
 353      C80B5A0E 
 354 017c BDE5B2A9 		.ascii	"\275\345\262\251\324ke\023\327K\367L\251<k\342\212\235"
 354      D46B6513 
 354      D74BF74C 
 354      A93C6BE2 
 354      8A9D
 355 018e B0F5A699 		.ascii	"\260\365\246\231i\334\235\272cdQ)V\315t\2751\3234\343"
 355      69DC9DBA 
 355      63645129 
 355      56CD74BD 
 355      31D334E3 
 356 01a2 F96B2317 		.ascii	"\371k#\027\315\330\330%S\030\037\275\236\237\275`\232"
 356      CDD8D825 
 356      53181FBD 
 356      9E9FBD60 
 356      9A
 357 01b3 E5862D56 		.ascii	"\345\206-VoW\253\245\3631~\0029D\247\277"
ARM GAS  /tmp/cczgFmwQ.s 			page 28


 357      6F57ABA5 
 357      F3317E02 
 357      3944A7BF 
 358              		.text
 359              		.section	.gnu.lto_.symbol_nodes.f607f18bc94eaa4e,"",%progbits
 360 0000 789C4DCC 		.ascii	"x\234M\314;N\303`\020\205\321;wlb\362\204\202\232\225"
 360      3B4EC360 
 360      1085D13B 
 360      776C62F2 
 360      84829A95 
 361 0014 51A46219 		.ascii	"Q\244b\031\327\302`;\274\022\245D\201\002\257\"\005"
 361      D7C2603B 
 361      BC12A544 
 361      8102AF22 
 361      05
 362 0025 0D741454 		.ascii	"\015t\024T,\000\021\321Q\"JB\234D\371=\315\2473\032"
 362      2C0011D1 
 362      51224A42 
 362      9C44F93D 
 362      CDA7331A 
 363 0039 0D419C1A 		.ascii	"\015A\234\0326\303\013\012\230\274\001\322l4dF\331\226"
 363      36C30B0A 
 363      98BC01D2 
 363      6C346446 
 363      D996
 364 004b F7E590E7 		.ascii	"\367\345\220\347\024\033\234R\276\243qFE\015\346T\274"
 364      141B9C52 
 364      BEA37146 
 364      450DE654 
 364      BC
 365 005c E54369F1 		.ascii	"\345Ci\361\322\020\013,\250\275\260eI\265\032G)-\222"
 365      D2100B2C 
 365      A8BDB065 
 365      49B51A47 
 365      292D92
 366 006f 73442561 		.ascii	"sD%ak7\324\376\206ijvM\265\203\256\250N\320\204\352"
 366      6B37D4FE 
 366      86696A76 
 366      4DB583AE 
 366      A84ED084 
 367 0084 065D52BD 		.ascii	"\006]R\275\240[\252\0374\246\006;\271u\220\025\337\307"
 367      A05BAA1F 
 367      34A6063B 
 367      B9759015 
 367      DFC7
 368 0096 CE55F3AF 		.ascii	"\316U\363\257\310ix.~O\234=T\257\313\247\330\331E5~"
 368      C869782E 
 368      7E4F9C3D 
 368      54AFCBA7 
 368      D8D94535 
 369 00ab E7FA607A 		.ascii	"\347\372`zT\347\345\356\207\036\365\261\370\3703\217"
 369      54E7E5EE 
 369      871EF5B1 
 369      F8F8338F 
 370 00bb 89B37507 		.ascii	"\211\263u\007\250\352\266\016\220\325M\016\261\230\323"
 370      A8EAB60E 
 370      90D54D0E 
ARM GAS  /tmp/cczgFmwQ.s 			page 29


 370      B198D3
 371 00ca 13C763BE 		.ascii	"\023\307c\276z\337\216\3609'\376\001\373\203h\336"
 371      7ADF8EF0 
 371      3927FE01 
 371      FB8368DE 
 372              		.text
 373              		.section	.gnu.lto_.refs.f607f18bc94eaa4e,"",%progbits
 374 0000 789C6362 		.ascii	"x\234cb`b\020g\200\000FV&6fv&6&\006F6&\016&N&6F.&6\006"
 374      60621067 
 374      80004656 
 374      26366676 
 374      26362606 
 375 0021 00077800 		.ascii	"\000\007x\000u"
 375      75
 376              		.text
 377              		.section	.gnu.lto_.decls.f607f18bc94eaa4e,"",%progbits
 378 0000 789CBD5C 		.ascii	"x\234\275\\\015t\025E\226\356\237\367\222<\210\020\035"
 378      0D741545 
 378      96EE9FF7 
 378      923C8810 
 378      1D
 379 0011 778639EB 		.ascii	"w\2069\353\031\342\236\2319\236q\207\374\241\242\263"
 379      19E29E99 
 379      399E7187 
 379      FCA1A2B3 
 380 0021 A360C260 		.ascii	"\243`\302`fE\331\004\347\177\317\263I\032\362f\222\274"
 380      6645D904 
 380      E77FCFB3 
 380      491AF266 
 380      92BC
 381 0033 C77B1DC0 		.ascii	"\307{\035\300=;k\023!\3703b\010\021\022\344'\250(0\240"
 381      3D3B6B13 
 381      21F83362 
 381      081112E4 
 381      27A82830 
 382 0048 1058D008 		.ascii	"\020X\320\0103\017\024\022`\014\341_P  0\2002\203(\210"
 382      330F1412 
 382      600CE15F 
 382      50202030 
 382      80328328 
 383 005d A0646FDD 		.ascii	"\240do\335\376yU\235\356\367\272#\263}\250\333\365\272"
 383      FE79559D 
 383      EEF7BA23 
 383      B37DA8DB 
 383      F5BA
 384 006f ABBEBAF7 		.ascii	"\253\276\272\367\326\255[U\267:\010\234\300U\3728\256"
 384      D6AD5B55 
 384      B73A089C 
 384      C055FA38 
 384      AE
 385 0080 07AE03BF 		.ascii	"\007\256\003\277\346\270_\366\3438\370\307\335\013)"
 385      E6B85FF6 
 385      E338F8C7 
 385      DD0B29
 386 008f 006931A4 		.ascii	"\000i1\244\010\317q\233\341>\031\356g \375\035\022T"
 386      08CF719B 
 386      E13E19EE 
ARM GAS  /tmp/cczgFmwQ.s 			page 30


 386      6720FD1D 
 386      1254
 387 00a1 E3BE0969 		.ascii	"\343\276\011i+\311\303\225\005\351v\370\235\013\351"
 387      2BC9C395 
 387      05E976F8 
 387      9D0BE9
 388 00b0 1E48C321 		.ascii	"\036H\303!\375\024\322C\220J =\002\351?!I\220&@\252"
 388      FD14D243 
 388      904A203D 
 388      02E93F21 
 388      49902640 
 389 00c5 84341152 		.ascii	"\2044\021R\015\244\311\220~/ $W\013d\232\3001\027\301"
 389      0DA4C990 
 389      7E2F2024 
 389      570B649A 
 389      C03117C1 
 390 00d9 0516B974 		.ascii	"\005\026\271t\222 \317\013Z\373\244\351\033\364\373"
 390      9220CF0B 
 390      5AFBA4E9 
 390      1BF4FB
 391 00e8 ED963AE4 		.ascii	"\355\226:\344\"\274\364\327\371\037\000\367LH\203\341"
 391      22BCF4D7 
 391      F91F00F7 
 391      4C4883E1 
 392 00f8 59B9A061 		.ascii	"Y\271\240a\021\331\246\360\232\\3\340\3318\035\353m"
 392      11D9A6F0 
 392      9A5C33E0 
 392      D9381DEB 
 392      6D
 393 0109 20A25EFF 		.ascii	" \242^\377I\235g\002\177\027\220;,\355\020Yo\325y3\332"
 393      499D6702 
 393      7F17903B 
 393      2CED1059 
 393      6FD57933 
 394 011e 2085493B 		.ascii	" \205I;?\3445\276\313u\334\337\302\275\0212~\310?'$"
 394      3FE435BE 
 394      CB75DCDF 
 394      C2BD1132 
 394      7EC83F27 
 395 0133 DA36646A 		.ascii	"\3326dj\0204=7\012\032o\204'\302;\341k\016\244<Hs!U"
 395      10343D37 
 395      0A1A6F84 
 395      27C23BE1 
 395      6B0EA43C 
 396 014b 41BA08CF 		.ascii	"A\272\010\317\233\340^\001)\015\312\326\361Z\177\365"
 396      9BE05E01 
 396      290DCAD6 
 396      F15A7FF5 
 397 015b F09A4ED2 		.ascii	"\360\232N\322\004M\216\000\334?\203\373\011H\247 \035"
 397      044D8E00 
 397      DC3F83FB 
 397      0948A720 
 397      1D
 398 016c E1355EEF 		.ascii	"\3415^\357\241d\313\325\373\203\364K\263\316\353\275"
 398      A164CBD5 
 398      FB83F44B 
 398      B3CEEBBD 
ARM GAS  /tmp/cczgFmwQ.s 			page 31


 399 017c 163987EB 		.ascii	"\0269\207\353\272$\262\031r\022\034\242\247\026x\366"
 399      BA24B219 
 399      72121CA2 
 399      A71678F6 
 400 018c 2DDD1E0C 		.ascii	"-\335\036\014Y\026\013\232\035\335B\352A\372>\244\201"
 400      59160B9A 
 400      1DDD42EA 
 400      41FA3EA4 
 400      81
 401 019d 906E8374 		.ascii	"\220n\203t#\244\357\010\011>\003z\233\244\015\202\367"
 401      23A4EF08 
 401      093E037A 
 401      9BA40D82 
 401      F7
 402 01ae 22DC4741 		.ascii	"\"\334GA\032i\341\341\247:\346d\236\345\201\264\371"
 402      1A69E1E1 
 402      A73AE664 
 402      9EE581B4 
 402      F9
 403 01bf 12A49390 		.ascii	"\022\244\223\220N\351:\214\352\230\355z\337\375T\267"
 403      4EE93A8C 
 403      EA98ED7A 
 403      DFFD54B7 
 404 01cf 37EB45EC 		.ascii	"7\353E\354\223\364\307_\005\015\367Gp?\015\351a\275"
 404      93F4C75F 
 404      050DF747 
 404      703F0DE9 
 404      61BD
 405 01e1 ACA897B9 		.ascii	"\254\250\227\271G\267U\202Yk\301)\321\355\351\214\300"
 405      47B75582 
 405      596BC129 
 405      D1EDE98C 
 405      C0
 406 01f2 8E9129BA 		.ascii	"\216\221)\272\235\222~\346\365\276\021\365\362\304\346"
 406      9D927EE6 
 406      F5BE11F5 
 406      F2C4E6
 407 0201 6F77C023 		.ascii	"ow\300#ce \334\267\351}E\2175\332f\014\231\317\3522"
 407      636520DC 
 407      B7E97D45 
 407      8F35DA66 
 407      0C99CFEA 
 408 0216 FF0FDC3F 		.ascii	"\377\017\334?\2024B\227y\013\257\311/\352\230\277\327"
 408      82344297 
 408      790BAFC9 
 408      2FEA98BF 
 408      D7
 409 0227 C725B1C9 		.ascii	"\307%\261\311_\303\375W\372X\263\266O\306i@o\237\263"
 409      5FC3FD57 
 409      FA58B3B6 
 409      4FC66940 
 409      6F9FB3
 410 023a 6997F4EF 		.ascii	"i\227\364\357\307\220\376]\327\035i\307\260\273\201"
 410      C790FE5D 
 410      D71D69C7 
 410      B0BB81
 411 0249 7AFF8A3A 		.ascii	"z\377\212:\3169A\323=i\"h\323\326M\334,\025\256\226"
ARM GAS  /tmp/cczgFmwQ.s 			page 32


 411      CE3941D3 
 411      3D692268 
 411      D3D64DDC 
 411      2C15AE96 
 412 025d B40EE8D1 		.ascii	"\264\016\350\321_\360\022? \300ec&3\200\214~\217{YU"
 412      5FF0123F 
 412      20C06563 
 412      2633808C 
 412      7E8F7B59 
 413 0272 EBBB4FFE 		.ascii	"\353\273O\376u\220\352\223\370\305\374M\000u7\317\375"
 413      7590EA93 
 413      F8C5FC4D 
 413      007537CF 
 413      FD
 414 0283 805B06D5 		.ascii	"\200[\006\325\352U\265\366\373|\357^M\015+p\017\363"
 414      EA55B5F6 
 414      FB7CEF5E 
 414      4D0D2B70 
 414      0FF3
 415 0295 9CC42F01 		.ascii	"\234\304/\001<\211\177\231\377\201\326\216\032__w3i"
 415      3C897F99 
 415      FF81D68E 
 415      1A5F5F77 
 415      3369
 416 02a7 873CE7F4 		.ascii	"\207<\347\36476\327\255\\\013\264\034\177\263n\301\267"
 416      3736D7AD 
 416      5C0BB41C 
 416      7FB36EC1 
 416      B7
 417 02b8 D596CD7C 		.ascii	"\325\226\315|\177\356i\370\251\266\324\251\017t\014"
 417      7FEE69F8 
 417      A9B6D4A9 
 417      0F740C
 418 02c7 D09BCEA6 		.ascii	"\320\233\316\246Zn\341\215\246o6%\212\277\377\025\237"
 418      5A6EE18D 
 418      A66F3625 
 418      8ABFFF15 
 418      9F
 419 02d8 2DF1CB51 		.ascii	"-\361\313Q\240\337\360L[)!\004\256\212\324Xi\345\376"
 419      A0DFF04C 
 419      5B292104 
 419      AE8AD458 
 419      69E5FE
 420 02eb A294AD3D 		.ascii	"\242\224\255=M\315\373\347g\266\361jC\246\304/\003\366"
 420      4DCDFBE7 
 420      67B6F16A 
 420      43A6C42F 
 420      03F6
 421 02fd 05EEBF0D 		.ascii	"\005\356\277\015<;e\351Y\355\322\013\260h_\312\035\271"
 421      3C3B65E9 
 421      59EDD20B 
 421      B0685FCA 
 421      1DB9
 422 030f 29B5E033 		.ascii	")\265\3403\200\212\022\375\332\364\364;\274\252fH\374"
 422      808A12FD 
 422      DAF4F43B 
 422      BCAA6648 
ARM GAS  /tmp/cczgFmwQ.s 			page 33


 422      FC
 423 0320 5A54C446 		.ascii	"ZT\304F>\265&\030\030\001\254\223TYoQE\367\256\231G"
 423      3EB52618 
 423      1801AC93 
 423      54596F51 
 423      45F7AE99 
 424 0335 A6F25355 		.ascii	"\246\362SU\225\327\336\245V\310U\2753%~\015jd\272`\340"
 424      95D7DEA5 
 424      56C855BD 
 424      33257E0D 
 424      6A64BA60 
 425 034a F64D25D7 		.ascii	"\366M%\327\266f\326K\006\330\037<\203e3`\263\333\347"
 425      B666D64B 
 425      06D81F3C 
 425      83653360 
 425      B3DBE7
 426 035d 237301EE 		.ascii	"#s\001\356\311\204\216\223\016\230\003\273;w\361O\240"
 426      C9848E93 
 426      0E9803BB 
 426      3B77F14F 
 426      A0
 427 036e FC7F866A 		.ascii	"\374\177\206j\002\367\201\300\252\326=T\363\334-\233"
 427      02F781C0 
 427      AAD63D54 
 427      F3DC2D9B 
 428 037e F85A84DA 		.ascii	"\370Z\204\332\214PO\211}\205\3327o\303\335\330\335["
 428      8C504F89 
 428      7D85DA37 
 428      6FC3DDD8 
 428      DD5B
 429 0390 10A8DD02 		.ascii	"\020\250\335\002$\361\351\246\032\315\337F\001\202\206"
 429      24F1E9A6 
 429      1ACDDF46 
 429      018286
 430 039f AFF50C59 		.ascii	"\257\365\014Y\262\014\344\376\301\305\005n\267\350\242"
 430      B20CE4FE 
 430      C1C5056E 
 430      B7E8A2
 431 03ae EB329CEC 		.ascii	"\3532\234\354@\355\356\232y\222oV\343\323D\027>\351"
 431      40EDEE9A 
 431      79926F56 
 431      E3D34417 
 431      3EE9
 432 03c0 20B6B5DD 		.ascii	" \266\265\335j\313\263\027\235\253\325my\273+[^\277"
 432      6ACBB317 
 432      9DABD56D 
 432      79BB2B5B 
 432      5EBF
 433 03d2 63AE3BC7 		.ascii	"c\256;\307\224f\264_\216\355\277\340#\355\357\264\266"
 433      9466B45F 
 433      8EEDBFE0 
 433      23EDEFB4 
 433      B6
 434 03e3 BFE8C3D3 		.ascii	"\277\350\303\323\3676\251j\226\366*u\363Gw6\366n^\342"
 434      F736A96A 
 434      96F62A75 
 434      F3477736 
ARM GAS  /tmp/cczgFmwQ.s 			page 34


 434      F66E5EE2 
 435 03f7 EFFDA764 		.ascii	"\357\375\247d\2461{Q\373\005]\310=8fN\372\254\306q_"
 435      A6317B51 
 435      FB055DC8 
 435      3D38664E 
 435      FAACC671 
 436 040c 7FB6FBE0 		.ascii	"\177\266\373\3407U@\340\376f\262\337\247!\013r\306\357"
 436      375540E0 
 436      FE66B2DF 
 436      A7210B72 
 436      C6EF
 437 041e 5BD6AAAA 		.ascii	"[\326\252\252O\245\031<\\\360\214\230\315h\342\302N"
 437      4FA5193C 
 437      5CF08C98 
 437      CD68E2C2 
 437      4E
 438 042f 74021AD8 		.ascii	"t\002\032\330%7`\216\226T\033\377\214\006\273\342\031"
 438      2537608E 
 438      96541BFF 
 438      8C06BBE2 
 438      19
 439 0440 8CE5EC12 		.ascii	"\214\345\354\022\015v\315\015X\2263g\227i\260Z\277W"
 439      0D76CD0D 
 439      58963367 
 439      9769B05A 
 439      BF57
 440 0452 3096B32B 		.ascii	"0\226\263+4X\235\033\260A\316\234}I\203=\355\031\214"
 440      34589D1B 
 440      B041CE9C 
 440      7D49833D 
 440      ED198C
 441 0465 E5EC1A0D 		.ascii	"\345\354\032\0156\323\015X\2663g\365\273)\260\006\317"
 441      36D30D58 
 441      B63367F5 
 441      BB29B006 
 441      CF
 442 0476 602C670D 		.ascii	"`,g\0154\330\0347`\2679s\326H\203\315\363\014\306r6"
 442      34D81C37 
 442      60B73973 
 442      D64883CD 
 442      F30CC672 
 443 048b 87065BE8 		.ascii	"\207\006[\350\006,\327\231\263&\032\354E\317`,g\363"
 443      062CD799 
 443      B3261AEC 
 443      45CF602C 
 443      67F3
 444 049d 68B057DC 		.ascii	"h\260W\334\200\015s\346l>\015\266\3343\030\313\331*"
 444      800D73E6 
 444      6C3E0DB6 
 444      DC3318CB 
 444      D92A
 445 04af 1AEC3537 		.ascii	"\032\35457`\303\2359k\245\301V{\006c9[K\203\255u\003"
 445      60C39D39 
 445      6BA5C156 
 445      7B066339 
 445      5B4B83AD 
 446 04c5 F6803367 		.ascii	"\366\2003g\353h\260\365\236\301X\316\336\240\301\332"
ARM GAS  /tmp/cczgFmwQ.s 			page 35


 446      EB68B0F5 
 446      9EC158CE 
 446      DEA0C1DA 
 447 04d5 DC808D71 		.ascii	"\334\200\215q\346\254\215\006\333\350\031\214\345l\003"
 447      E6AC8D06 
 447      DBE8198C 
 447      E56C03
 448 04e4 0D167703 		.ascii	"\015\026w\003\366\013g\316\376D\203\275\343\031\214"
 448      F60B67CE 
 448      FE4483BD 
 448      E3198C
 449 04f3 E5AC8B06 		.ascii	"\345\254\213\006\353p\003\366\250\015g\346eW\217L\323"
 449      EB7003F6 
 449      A80D67E6 
 449      65578F4C 
 449      D3
 450 0504 9DBC396F 		.ascii	"\235\2749o\013\334\016\277\261\304\3618Gs\011\214\235"
 450      0BDC0EBF 
 450      B1C4F138 
 450      4773098C 
 450      9D
 451 0515 7EAF4B32 		.ascii	"~\257K2Fn\330\033\234Z\314\317~B\355\3105\326\347\373"
 451      466ED81B 
 451      9C5ACCCF 
 451      7E42EDC8 
 451      35D6E7FB 
 452 0529 DC202699 		.ascii	"\334 &\231\000\347\265S\213\375\303\236\301,\246L\300"
 452      00E7B553 
 452      8BFDC39E 
 452      C12CA64C 
 452      C0
 453 053a 98B593BE 		.ascii	"\230\265\223\276\300\356^\022\037\324\224X\275e\030"
 453      C0EE5E12 
 453      1FD49458 
 453      BD6518
 454 0549 586407AC 		.ascii	"Xd\007\254-\325`C,\230\205\325A\203\354\313J|\275\360"
 454      2DD56043 
 454      2C9885D5 
 454      4183ECCB 
 454      4A7CBDF0 
 455 055d 3DA0B384 		.ascii	"=\240\263\204\200\311\205\2267rd;\017+0\277\335\336"
 455      80C98596 
 455      3772643B 
 455      0F2B30BF 
 455      DDDE
 456 056f 1A019257 		.ascii	"\032\001\222Wu\262\204\231\002e\011g\335\250)\311\324"
 456      75B28499 
 456      02650967 
 456      DDA829C9 
 456      D4
 457 0580 7EB47DFE 		.ascii	"~\264}\376\267\324\3568O\311\233T9\260'jx\327\330\023"
 457      B7D4EE38 
 457      4FC99B54 
 457      39B0276A 
 457      78D7D813 
 458 0594 3D2F90FD 		.ascii	"=/\220\375\307'~\333\215\214\013\250\346\271+o\307\215"
 458      C7277EDB 
ARM GAS  /tmp/cczgFmwQ.s 			page 36


 458      8D8C0BA8 
 458      E6B92B6F 
 458      C78D
 459 05a6 4C13025D 		.ascii	"L\023\002]\3513\320\276y\013\207!\320\013\010T\233f"
 459      E933D0BE 
 459      790B8721 
 459      D00B0854 
 459      9B66
 460 05b8 5DF4F296 		.ascii	"]\364\362\226\035\021\317\356Y\370@\"\323\303v\327u"
 460      1D11CFEE 
 460      59F84022 
 460      D3C376D7 
 460      75
 461 05c9 2D0B7BD8 		.ascii	"-\013{\3304K\1771\342\244\\=u\357\352\374j\026\377i"
 461      344B7F31 
 461      E2A45C3D 
 461      75EFEAFC 
 461      6A16FF69 
 462 05dd ADDA94EB 		.ascii	"\255\332\224\353\241\307v\377\305\350\261\026\324Oc"
 462      A1C776FF 
 462      C5E8B116 
 462      D44F63
 463 05ec 2FFD3409 		.ascii	"/\3754\011\336\024$p\363=\013r\033+\310\314w\032\274"
 463      DE142470 
 463      F33D0B72 
 463      1B2BC8CC 
 463      771ABC
 464 05ff 0B629ADE 		.ascii	"\013b\232\336\022\024\344\345\353 \310\012\317\202\344"
 464      1214E4E5 
 464      EB20C80A 
 464      CF82E4
 465 060e 52829018 		.ascii	"R\202\220\030\311\305\006\315\017~\203kH\2767%\374,"
 465      C9C506CD 
 465      0F7E836B 
 465      48BE3725 
 465      FC2C
 466 0620 17BEC186 		.ascii	"\027\276\301\206\233\016n\307\020\026<N\265'T\343\237"
 466      9B0E6EC7 
 466      10163C4E 
 466      B52754E3 
 466      9F
 467 0631 6FA72218 		.ascii	"o\247\"\030\252\253\010F\303NCe+Qek\322l\006\231+\250"
 467      AAAB0846 
 467      C34E4365 
 467      2B51656B 
 467      D26C0699 
 468 0647 E603EFAC 		.ascii	"\346\003\357\254\326#\030\253\020\352\315>C\355;\264"
 468      D62318AB 
 468      10EACD3E 
 468      43ED3BB4 
 469 0657 5E1BAF6B 		.ascii	"^\033\257k\020hS\257nL\263\364b\032\333\213\360\223"
 469      106853AF 
 469      6E4CB3F4 
 469      621ADB8B 
 469      F093
 470 0669 B47499C4 		.ascii	"\264t\231\304\027\370\307\365'\344G:\367\377^\017fc"
 470      17F8C7F5 
ARM GAS  /tmp/cczgFmwQ.s 			page 37


 470      27E4473A 
 470      F7FF5E0F 
 470      6663
 471 067b 649FF4A0 		.ascii	"d\237\364\240\307\331\330\264\240\223\015\306L\252u"
 471      C7D9D8B4 
 471      A0930DC6 
 471      4CAA75
 472 068a D2EEAF85 		.ascii	"\322\356\257\205X\033_\363\214\021\206\273\217\314\245"
 472      581B5FF3 
 472      8C1186BB 
 472      8FCCA5
 473 0699 EF7F4DB8 		.ascii	"\357\177M\270];<\007\316\032\366\032f\267\001%:\336"
 473      5D3B3C07 
 473      CE1AF61A 
 473      66B70125 
 473      3ADE
 474 06ab AB8B375B 		.ascii	"\253\2137[}\262\2338\322\337\372*\211y\011\334E\353"
 474      7DB29B38 
 474      D2DFFA2A 
 474      897909DC 
 474      45EB
 475 06bd 80F7B4E7 		.ascii	"\200\367\264\347\204\356\352\374\\\357.\267q\367\346"
 475      84EEEAFC 
 475      5CEF2EB7 
 475      71F7E6
 476 06cc ED5BA7F2 		.ascii	"\355[\247\362\323\264\330\237@\"\264_X\264\341\"\252"
 476      D3B4D89F 
 476      4022B45F 
 476      58B4E122 
 476      AA
 477 06dd F5643AA9 		.ascii	"\365d:\251\262E\350\025\241}\327\210\320\222w.\242Z"
 477      B245E815 
 477      A17DD788 
 477      D092772E 
 477      A25A
 478 06ef 4C8456E2 		.ascii	"L\204V\342\337\342\005\035\267\257\032e:1\301\240\304"
 478      DFE2051D 
 478      B7AF1A65 
 478      3A31C1A0 
 478      C4
 479 0700 B7E3FAA8 		.ascii	"\267\343\372\250C\270\225\326~S\272W\355g\323\332\217"
 479      43B895D6 
 479      7E53BA57 
 479      ED67D3DA 
 479      8F
 480 0711 5FDD319F 		.ascii	"_\3351\237'\374\333\004\342\206\323\253VC\365Ow\316"
 480      27FCDB04 
 480      E286D3AB 
 480      5643F54F 
 480      77CE
 481 0723 D255BF03 		.ascii	"\322U\277\003U\377b\272\275\352\207;\001\011\\+V\351"
 481      55FF62BA 
 481      BDEA873B 
 481      01095C2B 
 481      56E9
 482 0735 ECA5FACE 		.ascii	"\354\245\372\316\275\206\352;]\251~\237\255\352;\275"
 482      BD86EA3B 
ARM GAS  /tmp/cczgFmwQ.s 			page 38


 482      5DA97E9F 
 482      ADEA3BBD 
 483 0745 AB5EC7DB 		.ascii	"\253^\307\333\237\010\216K\374F\317`\331\311\372\261"
 483      9F088E4B 
 483      FC46CF60 
 483      D9C9FAB1 
 484 0755 93EAC72E 		.ascii	"\223\352\307.\354\307]\320\217\022\277\233\355\315\267"
 484      ECC75DD0 
 484      8F12BF9B 
 484      EDCDB7
 485 0764 ADBDC9A8 		.ascii	"\255\275\311\250N\317:FI\324\370\354\316\371\272J4\307"
 485      4ECF3A46 
 485      49D4F8EC 
 485      CEF9BA4A 
 485      34C7
 486 0776 D7E9C63A 		.ascii	"\327\351\306:\222\3046\026v\242J4\237\263\3273X6\003"
 486      92C43616 
 486      76A24A34 
 486      9FB3D733 
 486      583603
 487 0789 B671A6BB 		.ascii	"\266q\246\273\223)\325<V\312B\245\034\305v\017Y\355"
 487      9329D53C 
 487      56CA42A5 
 487      1CC5760F 
 487      59ED
 488 079b E5859EAE 		.ascii	"\345\205\236\256\031\272\275\034ra/0\333\237\014\340"
 488      19BABD1C 
 488      72612F30 
 488      DB9F0CE0 
 489 07ab E19266B8 		.ascii	"\341\222f\270\315\031\006j\022U'\261\226\253\306Y\225"
 489      CD19066A 
 489      125527B1 
 489      96ABC659 
 489      95
 490 07bc B6BF5A6C 		.ascii	"\266\277Zl\205K\271\375c\341\256\2718\254b\025c\034"
 490      854BB9FD 
 490      63E1AEB9 
 490      38AC6215 
 490      631C
 491 07ce D9BD     		.ascii	"\331\275"
 492 07d0 49D63B1F 		.ascii	"I\326;\037\242L\3132\254\263\202\246\031\312\020\017"
 492      A24CCB32 
 492      ACB382A6 
 492      19CA100F 
 493 07e0 5186F801 		.ascii	"Q\206\370\001\032\342a4\304\243H\217\321\346\350\264"
 493      1AE26134 
 493      C4A3488F 
 493      D1E6E8B4 
 494 07f0 E43A4E6F 		.ascii	"\344:No\230V{\226;\333\322;N\315\034\244\233y#\303\205"
 494      98567B96 
 494      3BDBD23B 
 494      4ECD1CA4 
 494      9B7923C3 
 495 0805 ED3987C2 		.ascii	"\3559\207\302\300\257\357\233m\254\011\264\243\247\315"
 495      C0AFEF9B 
 495      6DAC09B4 
 495      A3A7CD
ARM GAS  /tmp/cczgFmwQ.s 			page 39


 496 0814 9E11596B 		.ascii	"\236\021Yk\376d&\263&x\327\015\334p\033\006\355.\372"
 496      FE6426B3 
 496      2678D70D 
 496      DC701B06 
 496      ED2EFA
 497 0827 E850E2DF 		.ascii	"\350P\342\337\344I7\265\361\244\2036 \375\023\322mH"
 497      E44937B5 
 497      F1A48336 
 497      20FD13D2 
 497      6D48
 498 0839 9FC28E7B 		.ascii	"\237\302\216{\006\351\263H\033\221.B\3722\322eH7!\335"
 498      06E9B348 
 498      1B912E42 
 498      FA32D265 
 498      483721DD 
 499 084d 8E742FD2 		.ascii	"\216t/\322\375H\337Cz\032\351Y7\006\240yH\352\214c_"
 499      FD48DF43 
 499      7A1AE959 
 499      3706A079 
 499      48EA8C63 
 500 0862 86D7935A 		.ascii	"\206\327\223ZF\227\335\323\217w\210x\034e\270\232cn"
 500      4697DDD3 
 500      8F778878 
 500      1C65B89A 
 500      636E
 501 0874 00938CA6 		.ascii	"\000\223\214\246F\342\312\275\234K\232\313\253\363\330"
 501      46E2CABD 
 501      9C4B9ACB 
 501      ABF3D8
 502 0883 FE47BD06 		.ascii	"\376G\275\006R\237\226W\227=\213a\321\313\207\246^4"
 502      529F9657 
 502      973D8B61 
 502      D1CB87A6 
 502      5E34
 503 0895 BEA6065C 		.ascii	"\276\246\006\\\000\332\205\204\354\255l%ee\257\243\225"
 503      00DA8584 
 503      ECAD6C25 
 503      6565AFA3 
 503      95
 504 08a6 AD429B6A 		.ascii	"\255B\233jEz\016-\342\357H?sc\027\313\350\230\3323\001"
 504      457A0E2D 
 504      E2EF483F 
 504      736317CB 
 504      E898DA33 
 505 08bb E35B86EB 		.ascii	"\343[\206\353\262\020ZB\261\372*\262\272\224\247XJ\345"
 505      B2105A42 
 505      B1FA2AB2 
 505      BA94A758 
 505      4AE5
 506 08cd 3AE3238D 		.ascii	":\343#\215&\337\243V3\007\226\357\272e#\236!^F\377\271"
 506      26DFA356 
 506      330796EF 
 506      BA65239E 
 506      215E46FF 
 507 08e2 2D90F2A4 		.ascii	"-\220\362\244\337\002$\361W\004\262P\270j\231\235\342"
 507      DF0224F1 
 507      5704B250 
ARM GAS  /tmp/cczgFmwQ.s 			page 40


 507      B86A999D 
 507      E2
 508 08f3 5FCCC824 		.ascii	"_\314\310$\337l\\u\265\222\371\252\375e\307\231\021"
 508      DF6C5C75 
 508      B592F9AA 
 508      FD65C799 
 508      11
 509 0904 0AF0F41C 		.ascii	"\012\360\364\034 \320\213:\201\333\017,\333M\025L1\211"
 509      20D08B3A 
 509      81DB0F2C 
 509      DB4D154C 
 509      3189
 510 0916 5745C2E5 		.ascii	"WE\302\345T\321\302\345\036\215K\362\334\305z\253\035"
 510      54D1C2E5 
 510      1E8D4BF2 
 510      DCC57AAB 
 510      1D
 511 0927 673C86C9 		.ascii	"g<\206\311or\317\353{T\225W\334\017\270\005\257\037"
 511      6F72CFEB 
 511      7B549557 
 511      DC0FB805 
 511      AF1F
 512 0939 BBE77554 		.ascii	"\273\347uT|\235H\354\272\271\237u\274\371-\303\315\317"
 512      7C9D48EC 
 512      BAB99F75 
 512      BCF92DC3 
 512      CDCF
 513 094b 0E377F20 		.ascii	"\0167\177 \221\321\207\233\223UN\027\277\2119\021\277"
 513      91D1879B 
 513      93554E17 
 513      BF893911 
 513      BF
 514 095c F7E1D05F 		.ascii	"\367\341\320_\353y\257\361L\211o\306)3E\020\304\211"
 514      EB79AFF1 
 514      4C896FC6 
 514      29334510 
 514      C489
 515 096e 936744FA 		.ascii	"\223gD\372\254\330\344\207\250\0003\217\210\346K'\210"
 515      ACD8E487 
 515      A800338F 
 515      88E64B27 
 515      88
 516 097f 692235C4 		.ascii	"i\"5\304ZPk\244\363\372\264\340%\346\377\035\234\023"
 516      5A506BA4 
 516      F3FAB4E0 
 516      25E6FF1D 
 516      9C13
 517 0991 9DBB54E3 		.ascii	"\235\273T\343\316\211\233Y.U\253\305\221\234P\032\277"
 517      CE899B59 
 517      2E55ABC5 
 517      919C501A 
 517      BF
 518 09a2 BE5AEA69 		.ascii	"\276Z\352i\265\274\342Y-\331\264Z\324VU\015\244%S\311"
 518      B5BCE259 
 518      2DD9B45A 
 518      D456550D 
 518      A42553C9 
ARM GAS  /tmp/cczgFmwQ.s 			page 41


 519 09b6 CA24C234 		.ascii	"\312$\3024;\253\304\214\246\271\022\251\211\026\351"
 519      3BABC48C 
 519      A6B912A9 
 519      8916E9
 520 09c5 8F6E4472 		.ascii	"\217nDr\236\017\277\236H\213lDr%\302B\321\262Nx\335"
 520      9E0FBF9E 
 520      488B6C44 
 520      7225C242 
 520      D1B24E78 
 521 09da B318D7B1 		.ascii	"\263\030\327\261g^v\3213\372o\017\237!=\275\356\007"
 521      675E76D1 
 521      33FA6F0F 
 521      9F213DBD 
 521      EE07
 522 09ec 18795B8A 		.ascii	"\030y[\212~lM/?\326\207u\203[\013y\211\266\220\215n"
 522      7E6C4D2F 
 522      3FD68775 
 522      835B0B79 
 522      89B6908D 
 523 0a01 54EB7C58 		.ascii	"T\353|X\344\316\027$S\357k\311\324\273\324\303X^I\213"
 523      E4CE1724 
 523      53EF6BC9 
 523      D4BBD4C3 
 523      585E498B 
 524 0a15 B5D9B358 		.ascii	"\265\331\263X\036-&\231{[\233L$\335\231[\335U\237D^"
 524      1E2D2699 
 524      7B5B9B4C 
 524      24DD995B 
 524      DD559F44 
 525 0a2a 438BDCEE 		.ascii	"C\213\334\356Fd\347#\250\257'\362\206d\"7^G\221\337"
 525      4664E723 
 525      A8AF27F2 
 525      86642237 
 525      5E4791DF 
 526 0a3e A245EEF4 		.ascii	"\242E\356\364,r6\307^\306\220\222\370'D\262^}\016\351"
 526      2C7236C7 
 526      5EC69092 
 526      F82744B2 
 526      5E7D0EE9 
 527 0a52 5CA40B90 		.ascii	"\\\244\013\220\276\210t\005\322V\244m\242\2135\3555"
 527      BE887405 
 527      D256A46D 
 527      A28B35ED 
 527      35
 528 0a63 7A17BA17 		.ascii	"z\027\272\027\371\274\332\307\010\223\032\277\246\235"
 528      F9BCDAC7 
 528      08931ABF 
 528      A69D
 529 0a71 C86A1F0C 		.ascii	"\310j\037\014\277\347\031,\233\351\347\327TULK\347\352"
 529      BFE7192C 
 529      9BE9E7D7 
 529      54554C4B 
 529      E7EA
 530 0a83 70D132BD 		.ascii	"p\3212\2756\305aO\374J\232 \361[\305th\371\210\305K"
 530      36C5614F 
 530      FC4A9A20 
 530      F15BC574 
ARM GAS  /tmp/cczgFmwQ.s 			page 42


 530      68F988C5 
 531 0a98 B90021AA 		.ascii	"\271\000!\252\330\006\225\231\325\343\247u\003\311\352"
 531      D8069599 
 531      D5E3A775 
 531      03C9EA
 532 0aa7 913C4FB2 		.ascii	"\221<O\262zD\363\020\270\323\375\264\350\205/\220xv"
 532      7A44F310 
 532      B8D3FDB4 
 532      E8852F90 
 532      7876
 533 0ab9 21F18CA7 		.ascii	"!\361\214\247\212^I<6\276\314\266[f1\335\237`\016\266"
 533      8A5E493C 
 533      36BECCB6 
 533      5B6631DD 
 533      9F600EB6 
 534 0acd B82259A4 		.ascii	"\270\"Y\244\355\020E\333j\002\367D\177\213\346\355\216"
 534      ED1045DB 
 534      6A02F744 
 534      7F8BE6ED 
 534      8E
 535 0ade A89CBF9E 		.ascii	"\250\234\277\236\214\367\264\223@\222\335\247\213\346"
 535      8CF7B493 
 535      4092DDA7 
 535      8BE6
 536 0aec AAFBBBA6 		.ascii	"\252\373\273\246\342\273\327\264\235\271e\005\256u\367"
 536      E2BBD7B4 
 536      9DB96505 
 536      AE75F7
 537 0afb 88A4DFE3 		.ascii	"\210\244\337\343\375S\177Nl\203\023\237\265\365\026"
 537      FD537F4E 
 537      6C83139F 
 537      B5F516
 538 0b0a A2EDFD08 		.ascii	"\242\355\375\010\322\351\025D\340\016b\225\203\326-"
 538      D2E91544 
 538      E00E6295 
 538      83D62D
 539 0b19 C0C63ADC 		.ascii	"\300\306:\334\002\034t\261\005P\343\177\336\252E\213"
 539      021C74B1 
 539      0550E37F 
 539      DEAA458B 
 540 0b29 8D20DA71 		.ascii	"\215 \332q\023Sot8\255\276\224+\320x\227\026r\3256\001"
 540      13536F74 
 540      38ADBE94 
 540      2BD07897 
 540      1672D536 
 541 0b3e 1F5BC13C 		.ascii	"\037[\301<n\372\367\230\361`\342\250\004\356\222g<f"
 541      6EFAF798 
 541      F160E2A8 
 541      04EE9267 
 541      3C66
 542 0b50 80C5F76A 		.ascii	"\200\305\367j\314i`=n\300\222|\214\361\036\0156=\323"
 542      CC69603D 
 542      6EC0927C 
 542      8CF11E0D 
 542      363DD3
 543 0b63 2B18CBD9 		.ascii	"+\030\313\331!\032\354Y7`I>Y8\274u~\357\315\247e\312"
 543      211AEC59 
ARM GAS  /tmp/cczgFmwQ.s 			page 43


 543      3760493E 
 543      5938BC75 
 543      7EEFCDA7 
 544 0b79 70F84A96 		.ascii	"p\370J\226\030\314Yv\306\260\254\373\367;\260Ej~\234"
 544      18CC5976 
 544      C6B0ACFB 
 544      F73BB045 
 544      6A7E9C
 545 0b8c 9802524E 		.ascii	"\230\002RN\031\372\030\230\253\375%\304\031\024\374"
 545      19FA1898 
 545      ABFD25C4 
 545      1914FC
 546 0b9b F94C760C 		.ascii	"\371Lv\014X\232&\21495\375wveJ]\275\336\011\334\"\317"
 546      589A268C 
 546      3935FD77 
 546      76654A5D 
 546      BDDE09DC 
 547 0bb1 0A667BEB 		.ascii	"\012f{\353h\035\023)\\\352\006.\333\246\277\354.z@K"
 547      681D1329 
 547      5CEA062E 
 547      DBA6BFEC 
 547      2E7A404B 
 548 0bc5 FCFBE8F8 		.ascii	"\374\373\350\370>\300\331\355\010\322n\244\307\221\236"
 548      3EC0D9ED 
 548      08D26EA4 
 548      C7919E
 549 0bd4 407A0AE9 		.ascii	"@z\012\351i\244\237\3203\340?\006\025\026\375\231\026"
 549      69A49FD0 
 549      33E03F06 
 549      1516FD99 
 549      16
 550 0be5 6FCB3AA6 		.ascii	"o\313:\246T\343P\205\245\351\027\203g\253\211\363A\027"
 550      54E35085 
 550      A5E91783 
 550      67AB89F3 
 550      4117
 551 0bf7 1E77D777 		.ascii	"\036w\327w4\217{\021\235\345:\213\241hf\371\217\222"
 551      348F7B11 
 551      9DE53A8B 
 551      A16866F9 
 551      8F92
 552 0c09 778B2B79 		.ascii	"w\213+y\035\017]Ly\233ro\344\352Q\336&v\003\255\232"
 552      1D0F5D4C 
 552      799B726F 
 552      E4EA51DE 
 552      267603AD 
 553 0c1e 06A31AF6 		.ascii	"\006\243\032\366|E\274\021s\314'\003X\304i\004\\\025"
 553      7C45BC11 
 553      73CC2703 
 553      58C46904 
 553      5C15
 554 0c30 13DF4A65 		.ascii	"\023\337Je\006\022\231\036\321\024\344/VA,\015\353y"
 554      0612991E 
 554      D114E42F 
 554      56412C0D 
 554      EB79
 555 0c42 C7AF0CC9 		.ascii	"\307\257\014\311`\204%\212\306\235\300\355t\007\327"
ARM GAS  /tmp/cczgFmwQ.s 			page 44


 555      6084258A 
 555      C69DC0ED 
 555      7407D7
 556 0c51 E573C2B3 		.ascii	"\345s\302\263[\332\332\230D\267yJrK\302$\366\236\372"
 556      5BDADA98 
 556      44B7794A 
 556      724BC224 
 556      F69EFA
 557 0c64 E229FDB0 		.ascii	"\342)\375\260h\252\217\330\304\314\033RN\240,\020F_"
 557      68AA8FD8 
 557      C4CC1B52 
 557      4EA02C10 
 557      465F
 558 0c76 7C96C973 		.ascii	"|\226\311s\301\361\016\355/\205\310\233\024\323\347"
 558      C1F10EED 
 558      2F85C89B 
 558      14D3E7
 559 0c85 B427E2AB 		.ascii	"\264'\342\253\217w\010\030\317\305~z\"\351\006S\342"
 559      8F770818 
 559      CFC57E7A 
 559      22E90653 
 559      E2
 560 0c96 DFC630A7 		.ascii	"\337\3060\247\2338\363|\024\206\360\320\207u)\360\325"
 560      9B38F37C 
 560      1486F0D0 
 560      877529F0 
 560      D5
 561 0ca7 4AC42067 		.ascii	"J\304 gY3p\311\265\3103\\6\003\267\226\205{\321\015"
 561      593370C9 
 561      B5C8335C 
 561      3603B796 
 561      857BD10D 
 562 0cbb 9CD3BC0E 		.ascii	"\234\323\274\016p\353X\270W<\303\261\334\275\301\302"
 562      70EB58B8 
 562      573CC3B1 
 562      DCBDC1C2 
 563 0ccb 2D7703E7 		.ascii	"-w\003\3474\261\003\\\033\013\367\232g8\226\273\015"
 563      34B1035C 
 563      1B0BF79A 
 563      673896BB 
 563      0D
 564 0cdc 2C5CAB1B 		.ascii	",\\\253\0338\273\311\335\356\242\015X\342\247\373\210"
 564      38BBC9DD 
 564      EEA20D58 
 564      E2A7FB88 
 565 0cec 79D5F9F0 		.ascii	"y\325\371\360\020\011\3513H\237E\372\034\322YHg\373"
 565      1009E933 
 565      489F45FA 
 565      1CD25948 
 565      67FB
 566 0cfe 5C6C9454 		.ascii	"\\l\224T\037\265QZ\177\203\213\275MW\322cA\206\357\253"
 566      1FB5515A 
 566      7F838BBD 
 566      4D57D263 
 566      4186EFAB 
 567 0d12 D4A9E597 		.ascii	"\324\251\345\227\030\202\375\012\217%\336F\007\274\005"
 567      1882FD0A 
ARM GAS  /tmp/cczgFmwQ.s 			page 45


 567      8F25DE46 
 567      07BC05
 568 0d21 E96EA49F 		.ascii	"\351n\244\237!\375\002\351WH{\334l\363>Ol\363\\\004"
 568      21FD02E9 
 568      57487BDC 
 568      6CF33E4F 
 568      6CF35C04 
 569 0d35 E11F35AA 		.ascii	"\341\0375\252\223\277\366\325=\314\325\217\266\375\230"
 569      93BFF6D5 
 569      3DCCD58F 
 569      B6FD98
 570 0d44 1C21D938 		.ascii	"\034!\3318\022\2468\270rP|\252R\244\334<\253\2679\332"
 570      12A638B8 
 570      72507CAA 
 570      52A4DC3C 
 570      ABB739DA 
 571 0d58 894BF579 		.ascii	"\211K\365y\251}\015\254:>\357\\\250\257:\264\277\217"
 571      A97D0DAC 
 571      3A3EEF5C 
 571      A8AF3AB4 
 571      BF8F
 572 0d6a 9B3180D7 		.ascii	"\2331\200\3271\373\340#\000\257\376\271\314\256G\365"
 572      31FBE023 
 572      00AFFEB9 
 572      CCAE47F5 
 573 0d7a C0985AA7 		.ascii	"\300\230Z\247\336\2664\301y\226Q]\340\250oQ\327\377"
 573      DEB634C1 
 573      7996515D 
 573      E0A86F51 
 573      D7FF
 574 0d8c 2B7AC645 		.ascii	"+z\306Eh\307\317\016`\335\255{\240}\363^\325\376:\357"
 574      68C7CF0E 
 574      60DDAD7B 
 574      A07DF35E 
 574      D5FE3AEF 
 575 0da0 45049A63 		.ascii	"E\004\232c\001\222x\321\022`\023Y\207)\006\022\231\236"
 575      019278D1 
 575      12601359 
 575      87290612 
 575      999E
 576 0db2 1E91F356 		.ascii	"\036\221\363VX\340\026[\365\3060\231\302\031\252\265"
 576      58E0165B 
 576      F5C63099 
 576      C219AAB5 
 577 0dc2 6017C7FE 		.ascii	"`\027\307\376m\343*U\235\236f\350b\211gD\372\013\311"
 577      6DE32A55 
 577      9D9E66E8 
 577      62896744 
 577      FA0BC9
 578 0dd5 DAF82AD2 		.ascii	"\332\370*\322\023\006\33027`v\316\225R\2026\256^@\177"
 578      1306D832 
 578      376076CE 
 578      95528236 
 578      AE5E407F 
 579 0de9 301F47FC 		.ascii	"0\037G\374B\244\257 ]\352c\2267+{u\200f\217\024^\302"
 579      42A4AF20 
 579      5DEA6396 
ARM GAS  /tmp/cczgFmwQ.s 			page 46


 579      372B7B75 
 579      80668F14 
 580 0dff 70B9D488 		.ascii	"p\271\324\210N#rN\302\237\014\346\026\252\361\363\335"
 580      4E23724E 
 580      C29F0CE6 
 580      16AAF1F3 
 580      DD
 581 0e10 173F3D78 		.ascii	"\027?=x\317\002\362\227p\352\265\236\307ym\201/p\323"
 581      CF02F297 
 581      70EAB59E 
 581      C7796D81 
 581      2F70D3
 582 0e23 06B2FC7C 		.ascii	"\006\262\374|\227{IU\033\324\331\362\003\332\016C\340"
 582      977B4955 
 582      1BD4D9F2 
 582      03DA0E43 
 582      E0
 583 0e34 FE8025FE 		.ascii	"\376\200%\376\350\033\3540\317\352\373\220\357sK\310"
 583      E81BEC30 
 583      CFEAFB90 
 583      EF734BC8 
 584 0e44 907C4B1D 		.ascii	"\220|K\0353\0107<\234^\211\021m\205\217\371[q\215\263"
 584      3308373C 
 584      9C5E8911 
 584      6D858FF9 
 584      5B718DB3 
 585 0e58 F8FCED99 		.ascii	"\370\374\355\231\365S\273{z\006\273\3376\255\366Y\002"
 585      F553BB7B 
 585      7A06BBDF 
 585      36ADF659 
 585      02
 586 0e69 6DC40399 		.ascii	"m\304\003\231?\026\371zG\322\004\3569{Q_ \242\222\352"
 586      3F16F97A 
 586      47D204EE 
 586      397B515F 
 586      20A292EA 
 587 0e7d 02D78C25 		.ascii	"\002\327\214%V9\212\212nN\257v@\272\3150\242\005\326"
 587      56398A8A 
 587      6E4EAF76 
 587      40BACD30 
 587      A205D6
 588 0e90 6A8C1199 		.ascii	"j\214\021\231\354\330ih\225UCkm5t\301\273\206\336\262"
 588      ECD86968 
 588      9555436B 
 588      6D3574C1 
 588      BB86DEB2 
 589 0ea4 D3904523 		.ascii	"\323\220E#-\366\032YohD\342\327\371\310\301g[r\215\330"
 589      2DF61A59 
 589      6F6844E2 
 589      D7F9C8C1 
 589      675B728D 
 590 0eb9 8BD66615 		.ascii	"\213\326f\025m\243\255h\227\266\376!\303\253l\233\254"
 590      6DA3AD68 
 590      97B6FE21 
 590      C3AB6C9B 
 590      AC
 591 0eca B291D9D3 		.ascii	"\262\221\331\323\374\241\233\276E\326U\266\262\256\252"
ARM GAS  /tmp/cczgFmwQ.s 			page 47


 591      FCA19BBE 
 591      45D655B6 
 591      B2AEAA
 592 0ed9 9B5ECF6B 		.ascii	"\233^\317k\365\005n3\026\211;\012\213s\264\256\243\036"
 592      F5056E33 
 592      16893B0A 
 592      8B73B4AE 
 592      A31E
 593 0eeb A2A33958 		.ascii	"\242\2439Xm{\212j:?\250\243zVGq\253\216\336\261\321"
 593      6D7B8A6A 
 593      3A3FA8A3 
 593      7A564771 
 593      AB8EDEB1 
 594 0f00 5177FCF3 		.ascii	"Qw\374\363\205;\246\302\262F\375\2228U\367j\332\241"
 594      853BA6C2 
 594      B246FD92 
 594      3855F76A 
 594      DAA1
 595 0f12 AB29A109 		.ascii	"\253)\241\011\201\333eQ\203\311\227\272T\025M\276\266"
 595      81DB6551 
 595      83C997BA 
 595      54154DBE 
 595      B6
 596 0f23 5BF9FA4B 		.ascii	"[\371\372Ko\276Z\272\343\027ww\364\201\255\2356l\235"
 596      6FBE5ABA 
 596      E3177777 
 596      F481AD9D 
 596      366C9D
 597 0f36 B0674B65 		.ascii	"\260gKe\331\352\264\262\325e\313\326\247sw\230li\315"
 597      D9EAB4B2 
 597      D565CBD6 
 597      A7737798 
 597      6C69CD
 598 0f49 09DC3957 		.ascii	"\011\3349W\015\354\2666\260\307\266\201\246\367=\017"
 598      0DECB636 
 598      B0C7B681 
 598      A6F73D0F 
 599 0f59 C7FD491D 		.ascii	"\307\375I\035\226\275\311~\221\3047\323\303s\237+\207"
 599      96BDC97E 
 599      91C437D3 
 599      C3739F2B 
 599      87
 600 0f6a 75D1B058 		.ascii	"u\321\260X\211\357HQ\215\266XU}V\235\236\305\233*\332"
 600      89EF4851 
 600      8DB65855 
 600      7D569D9E 
 600      C59B2ADA 
 601 0f7e 6755D141 		.ascii	"gU\321A[\025]:\242\251h\321p\315\025\011\\]\226\255"
 601      5B155D3A 
 601      A2A968D1 
 601      70CD1509 
 601      5C5D96AD 
 602 0f92 34B3ACD2 		.ascii	"4\263\254\322\034v\351lX\266\016[\331:"
 602      1C76E96C 
 602      58B60E5B 
 602      D93A
 603 0fa0 D29BADEE 		.ascii	"\322\233\255\356\372\356\351\257l\342\233\325\315\323"
ARM GAS  /tmp/cczgFmwQ.s 			page 48


 603      FAEEE9AF 
 603      6CE29BD5 
 603      CDD3
 604 0fae D49E9EC7 		.ascii	"\324\236\236\307=\230\354q_\262(\335b\207\257tH\315"
 604      3D98EC71 
 604      5FB228DD 
 604      6287AF74 
 604      48CD
 605 0fc0 138979D8 		.ascii	"\023\211y\330\354\355\3636\347\330\002\327\220e\265"
 605      ECEDF336 
 605      E7D802D7 
 605      9065B5
 606 0fcf 50ADD029 		.ascii	"P\255\320)[A\326\264m\272\257\271U\235\246\315\346\036"
 606      5B41D6B4 
 606      6DBAAFB9 
 606      559DA6CD 
 606      E61E
 607 0fe1 0E1A4F27 		.ascii	"\016\032O'\025\345b\222\200\343Y\237}\300Q\340^u`\375"
 607      15E56292 
 607      80E3599F 
 607      7DC051E0 
 607      5E7560FD 
 608 0ff5 235BD60F 		.ascii	"#[\326\017,\377dt\223\023\353"
 608      2CFF6474 
 608      9313EB
 609 1000 493AE15C 		.ascii	"I:\341\\\322!d\367q\000x}\007\316\316\333rV\377\312"
 609      D22164F7 
 609      7100787D 
 609      07CECEDB 
 609      7256FFCA 
 610 1014 956FF7C1 		.ascii	"\225o\367\301:.X\031\333\214_\2700\214\2507\3323\362"
 610      3A2E5819 
 610      DB8C5FB8 
 610      308CA837 
 610      DA33F2
 611 1027 992D230B 		.ascii	"\231-#\013?<\377\033\223\021\303\20558@\\\262\205\330"
 611      3F3CFF1B 
 611      9311C385 
 611      3538405C 
 611      B285D8
 612 103a BFFCE0E8 		.ascii	"\277\374\340\350>\310r9\251\222\317X\2160\365\337\026"
 612      3EC87239 
 612      A992CF58 
 612      8E30F5DF 
 612      16
 613 104b 59973830 		.ascii	"Y\22780\372\245\203\322/\364E\351\327\354\224\316\374"
 613      FAA583D2 
 613      2FF445E9 
 613      D7EC94CE 
 613      FC
 614 105c E8CD58AB 		.ascii	"\350\315X\253\003cS\375\014c\377\302-V\273\273`\301"
 614      036353FD 
 614      0C63FFC2 
 614      2D56BBBB 
 614      60C1
 615 106e 7CEC240F 		.ascii	"|\354$\017\373\314\016rf\325\303\0176>s{\333D\321y\263"
 615      FBCC0E72 
ARM GAS  /tmp/cczgFmwQ.s 			page 49


 615      66D5C30F 
 615      363E737B 
 615      DB44D179 
 616 1083 7CD486C7 		.ascii	"|\324\206\307\250\011D\202\326\325\025_\275u\001\257"
 616      A8094482 
 616      D6D5155F 
 616      BD7501AF 
 617 1093 B6C09EED 		.ascii	"\266\300\236\355\032`I\374\\\014\243\265[\241z\355b"
 617      1A6049FC 
 617      5C0CA3B5 
 617      5BA17AED 
 617      62
 618 10a4 A7EB4043 		.ascii	"\247\353@C\2715\352\223\361\341ZEmW\240\207\261\324"
 618      B935EA93 
 618      F1E15A45 
 618      6D57A087 
 618      B1D4
 619 10b6 1582BE41 		.ascii	"\025\202\276A0\267`\332NA\377\011\232\3247\015\346\373"
 619      30B760DA 
 619      4E41FF09 
 619      9AD4370D 
 619      E6FB
 620 10c8 5EC39EF8 		.ascii	"^\303\236\3707'E\317\360[w\022\207_\273\320\301oZR\247"
 620      372745CF 
 620      F05B7712 
 620      875FBBD0 
 620      C16F5A52 
 621 10dd 120FFFF8 		.ascii	"\022\017\377\370\242x\226\006 pO\337d\353\342\257\022"
 621      A2789606 
 621      20704FDF 
 621      64EBE2AF 
 621      12
 622 10ee 177F02D7 		.ascii	"\027\177\002\327J/a\211'\375N.\376Db\211\025_t\241+"
 622      4A2F6189 
 622      27FD4E2E 
 622      FE446289 
 622      155F74A1 
 623 1103 BD598DFB 		.ascii	"\275Y\215\373\214\2577_MQWw\253\332\364\020_p\241[P"
 623      8CAF375F 
 623      4D515777 
 623      ABDAF410 
 623      5F70A15B 
 624 1118 1BE38919 		.ascii	"\033\343\211\031\202Tdz\375)\266\3273\270\031\3321\256"
 624      8254647A 
 624      FD29B6D7 
 624      33B819DA 
 624      31AE
 625 112a 3A959F68 		.ascii	":\225\237hn\254\034\376 W\342\237\363g\220\355\334M"
 625      6EAC1CFE 
 625      2057E29F 
 625      F36790ED 
 625      DC4D
 626 113c EC492A05 		.ascii	"\354I*\005O\012\220\213\324\327\362F\016\252\350\261"
 626      4F0A908B 
 626      D4D7F246 
 626      0EAAE8B1 
 627 114c E996E124 		.ascii	"\351\226\341$8=+\341\256\231\235\003Ai\360{\015M\317"
ARM GAS  /tmp/cczgFmwQ.s 			page 50


 627      383D2BE1 
 627      AE999D03 
 627      4169F07B 
 627      0D4DCF
 628 115f F6DB87A6 		.ascii	"\366\333\207\246\015F\351\2608\325\3620\243\\\272\216"
 628      0D46E9B0 
 628      38D5F230 
 628      A35CBA8E 
 629 116f D3E8B9E5 		.ascii	"\323\350\271\345\347\035ZN\323[\266\030\335\352$F7\307"
 629      E71D5A4E 
 629      D35BB618 
 629      DDEA2446 
 629      37C7
 630 1181 6F1F50D2 		.ascii	"o\037P\322f\001\247Zs\035k\235NR\253\251\227\201\267"
 630      6601A75A 
 630      731D6B9D 
 630      4E52ABA9 
 630      9781B7
 631 1194 B66DAA20 		.ascii	"\266m\252 \201f\342\222\026gY|\022\351A'\250y~\213S"
 631      8166E292 
 631      1667597C 
 631      12E94127 
 631      A8797E8B 
 632 11a9 3AEBEBB5 		.ascii	":\353\353\265\351Zc?H\366\220Ar\026\007I\034K4;\032"
 632      E95A633F 
 632      48F69041 
 632      72160749 
 632      1C4B343B 
 633 11be FA596A79 		.ascii	"\372YjyV\253\036\374\200l(4\013cjeX{\236\370\015\326"
 633      56AB1EFC 
 633      806C2834 
 633      0B636A65 
 633      587B9EF8 
 634 11d4 E6CD2FB5 		.ascii	"\346\315/\265\342\327!\220n\006\245\342\216A)\211o\301"
 634      E2D72190 
 634      6E06A5E2 
 634      8E412989 
 634      6FC1
 635 11e6 3049AAB8 		.ascii	"0I\252\270\221\246\023\022\262\370\347Nrj\301\256\020"
 635      91A61312 
 635      B2F8E74E 
 635      726AC1AE 
 635      10
 636 11f7 9DB75AB8 		.ascii	"\235\267Z\270B\264\373\354\330\324\305\223\211o:\272"
 636      42B4FBEC 
 636      D8D4C593 
 636      896F3ABA 
 637 1207 F79D3A53 		.ascii	"\367\235:S\241}\266\376\222\237x\343w,=\223\032\010"
 637      A17DB6FE 
 637      929F78E3 
 637      772C3D93 
 637      1A08
 638 1219 5DADDF12 		.ascii	"]\255\337\022gl>\200qF\362<\365\231\306\202\003\215"
 638      676C3E80 
 638      7146F23C 
 638      F599C682 
 638      038D
ARM GAS  /tmp/cczgFmwQ.s 			page 51


 639 122b 7A9C518B 		.ascii	"z\234Q\213Xw!\017\244n\037\342\214\200\267\360\000\236"
 639      5877210F 
 639      A46E1FE2 
 639      8C80B7F0 
 639      009E
 640 123d 6D6B607B 		.ascii	"mk`{<\203e3`\253h\260\367\335\200%9\207h\245\301\272"
 640      3C836533 
 640      60AB68B0 
 640      F7DD8025 
 640      398768A5 
 641 1253 3D83B19C 		.ascii	"=\203\261\234\255\245\301N\270\001Kr\006\261\216\006"
 641      ADA5C14E 
 641      B8014B72 
 641      06B18E06 
 642 1263 3BE7198C 		.ascii	";\347\031\214\345\354\015\032\354\222\033\260$\037\027"
 642      E5EC0D1A 
 642      EC921BB0 
 642      241F17
 643 1272 B469605A 		.ascii	"\264i`Z\010\272\3073\030\313\331\006\232\263\247\276"
 643      08BAC733 
 643      18CBD906 
 643      9AB3A7BE 
 644 1282 E1022CDB 		.ascii	"\341\002,\333Yg\177\242\301\032<\203Q\234\301\210\351"
 644      59677FA2 
 644      C11A3C83 
 644      519CC188 
 644      E9
 645 1293 FA79BD64 		.ascii	"\372y\275d\316\210\304]\023\201\365\222\303Yk\220\370"
 645      CE88C45D 
 645      1381F592 
 645      C3596B90 
 645      F8
 646 12a4 8DFABC94 		.ascii	"\215\372\274\224\230\351\200\203\027\254\0340\325\364"
 646      98E98083 
 646      17AC1C30 
 646      D5F4
 647 12b2 ACD35FFE 		.ascii	"\254\323_\376\2018\273iq\226\270\021\307\351\004\032"
 647      8138BB69 
 647      7196B811 
 647      C7E9041A 
 648 12c2 C0F6D260 		.ascii	"\300\366\322`+=\203\261\275\266\237\006\373_7`I\376"
 648      2B3D83B1 
 648      BDB69F06 
 648      FB5F3760 
 648      49FE
 649 12d4 4BA3F768 		.ascii	"K\243\367h{\332\350\031\214\345\354\020\315Y\273\033"
 649      7BDAE819 
 649      8CE5EC10 
 649      CD59BB1B 
 650 12e4 B0E1CE3A 		.ascii	"\260\341\316:\373\200\006\333\351\031\214\265\247#?"
 650      FB8006DB 
 650      E9198CB5 
 650      A7233F
 651 12f3 2758C450 		.ascii	"'X\304P\004\356\200\033\313p\372\037\215\200\261\363"
 651      04EE801B 
 651      CB70FA1F 
 651      8D80B1F3 
ARM GAS  /tmp/cczgFmwQ.s 			page 52


 652 1303 3463C7DC 		.ascii	"4c\307\3340\346\364\237\020\001\330\005\032\354#\317"
 652      30E6F49F 
 652      1001D805 
 652      1AEC23CF 
 653 1313 60ACFE3F 		.ascii	"`\254\376?\243\301.\272\001K\362\237\020]b<\215g0\226"
 653      A3C12EBA 
 653      014BF29F 
 653      105D623C 
 653      8D673096 
 654 1327 B3CB8CA7 		.ascii	"\263\313\214\247\271\331\005\330\243\316:\273B\203\315"
 654      B9D905D8 
 654      A3CE3ABB 
 654      4283CD
 655 1336 F60CC65A 		.ascii	"\366\014\306Z\306\227\224e,\260b\331YF\2053c\327h\306"
 655      C6979465 
 655      2CB062D9 
 655      59468533 
 655      63D768C6 
 656 134a 5E75C358 		.ascii	"^u\303X\304\031\254\376\020\005\266\3023\030+e\303\257"
 656      C419ACFE 
 656      1005B6C2 
 656      33182B65 
 656      C3AF
 657 135c 1252AE72 		.ascii	"\022R\256r#\345\024g\306\032i\306\332\3340\246\362\316"
 657      23E51467 
 657      C61A69C6 
 657      DADC30A6 
 657      F2CE
 658 136e 687368B4 		.ascii	"hsh\264\270w\264l\316\361\242Wb\022\377\252\037\377"
 658      B877B46C 
 658      CEF1A257 
 658      6212FFAA 
 658      1FFF
 659 1380 C8CD4F0E 		.ascii	"\310\315O\016\314\226#]\201\3645\244\253\220\266\"]"
 659      CC96235D 
 659      81F435A4 
 659      AB90B622 
 659      5D
 660 1391 8B741DD2 		.ascii	"\213t\035\3227\220\266!\335\200\364\317H7!}\033\351"
 660      3790B621 
 660      DD80F4CF 
 660      4837217D 
 660      1BE9
 661 13a3 16A4ED48 		.ascii	"\026\244\355H\267!\335\201\364]\244;\221\356B\272\007"
 661      B721DD81 
 661      F45DA43B 
 661      91EE42BA 
 661      07
 662 13b4 E93EA407 		.ascii	"\351>\244\007\220\036D\372>\322\303H\217\"=\206\364"
 662      901E44FA 
 662      3ED2C348 
 662      8F223D86 
 662      F4
 663 13c5 433F75B0 		.ascii	"C?u\260g\331\300\274\344\240%\"\367I\307m\317\205$\333"
 663      67D9C0BC 
 663      E4A02522 
 663      F749C76D 
ARM GAS  /tmp/cczgFmwQ.s 			page 53


 663      CF8524DB 
 664 13d9 9E538EB5 		.ascii	"\236S\216\265\336JR\353\257\216\265v&\251u\332\261\326"
 664      DE4A52EB 
 664      AF8EB576 
 664      26A975DA 
 664      B1D6
 665 13eb E524B5CE 		.ascii	"\345$\265\3168\326\272\226\244\326Y\307Z\233\222\324"
 665      38D6BA96 
 665      A4D659C7 
 665      5A9B92D4 
 666 13fb FAC8B1D6 		.ascii	"\372\310\261\326\216$\265>\356\265u\274\370\351\266"
 666      8E24B53E 
 666      EEB575BC 
 666      F8E9B6
 667 140a C1E629EB 		.ascii	"\301\346)\353T\237\373x\326\337\254[G\265\367\326q\307"
 667      549FFB78 
 667      D6DFAC5B 
 667      47B5F7D6 
 667      71C7
 668 141c CDB65BC7 		.ascii	"\315\266[\3075d\353\250\035a\275\207%\3169n\035U\237"
 668      3564EBA8 
 668      1D61BD87 
 668      25CE396E 
 668      1D559F
 669 142f E379DD39 		.ascii	"\343y\3359k|\344<\273W\344\356\314\251\010W\3119e\341"
 669      6B7CE43C 
 669      BB57E4EE 
 669      CCA90857 
 669      C93965E1 
 670 1443 F2C772CA 		.ascii	"\362\307r\312\345I9e\025\241q\241p,G\211\326T\377.\007"
 670      E5493965 
 670      15A171A1 
 670      702C4789 
 670      D654FF2E 
 671 1458 32512527 		.ascii	"2Q%'T]VYS\016\205*\344Ir\265\022\033R\301\015\300\\"
 671      545D5659 
 671      530E852A 
 671      E44972B5 
 671      121B52C1 
 672 146f 3016AE89 		.ascii	"0\026\256\211\226\311A%m\324C\217d\027r\231\364\323"
 672      96C94125 
 672      6DD4438F 
 672      64177299 
 672      F4D3
 673 1481 2CED4765 		.ascii	",\355Ge(\246\310\325r4\250\014`\037\244\313\225\301"
 673      28A6C8D5 
 673      7234A80C 
 673      601FA4CB 
 673      95C1
 674 1493 6A798A32 		.ascii	"jy\2122\314\023\007\261\307b\312c\021\231\360\220\241"
 674      CC1307B1 
 674      C762CA63 
 674      1199F090 
 674      A1
 675 14a4 544465A9 		.ascii	"TDe\251<\250\004\312*\202Z~\2507\254\262\212r\300I\213"
 675      3CA804CA 
 675      2A825A7E 
ARM GAS  /tmp/cczgFmwQ.s 			page 54


 675      A837ACB2 
 675      8A72C049 
 676 14b9 201F708B 		.ascii	" \037p\213D\345I\017\270\200\210\204\243J,gD\311\350"
 676      44E5490F 
 676      B8808884 
 676      A34A2C67 
 676      44C9E8
 677 14cc C2D153A0 		.ascii	"\302\321S\240dU$T)Gc9\243\012\013\241\270\301^\272\022"
 677      64552454 
 677      29476339 
 677      A30A0BA1 
 677      B8C15EBA 
 678 14e1 8986C241 		.ascii	"\211\206\302A\345\27395\261h\216\024\255\372au\270Z"
 678      E5BB3935 
 678      B1688E14 
 678      ADFA6175 
 678      B85A
 679 14f3 FEA12C8D 		.ascii	"\376\241,\215\013\231<\304\224\362P\265Bd\251\201{A"
 679      0B993CC4 
 679      94F250B5 
 679      4264A981 
 679      7B41
 680 1505 7E50199A 		.ascii	"~P\031\232\244t\225\004\314T\3139\301ry\274TS\251\004"
 680      A4749504 
 680      CC54CB39 
 680      C17279BC 
 680      5453A904 
 681 1519 8DA6FA05 		.ascii	"\215\246\372\005\203F}\224\"\024N/\013W+ \324\335\236"
 681      83467D94 
 681      22144E2F 
 681      0B572B20 
 681      D4DD9E
 682 152c A5A9280B 		.ascii	"\245\251(\013Ge\300\354O\036\007\001\265L\231\362\343"
 682      4765C0EC 
 682      4F1E0701 
 682      B54C99F2 
 682      E3
 683 153d BEA10427 		.ascii	"\276\241\004'\335UEd\213\312\023@\240\240\"\306\362"
 683      DD554564 
 683      8BCA1340 
 683      A0A022C6 
 683      F2
 684 154e EE847417 		.ascii	"\356\204t\027\244a\220\356\026c\371\271\220\362 \345"
 684      A46190EE 
 684      1663F9B9 
 684      90F220E5 
 685 155e 432A8034 		.ascii	"C*\2004\024\322\035\220\240\\>\224\313\207r\371P\256"
 685      14D21D90 
 685      A05C3E94 
 685      CB8772F9 
 685      50AE
 686 1570 00CA15E4 		.ascii	"\000\312\025\344\011\321\241B\364\016!z\247\020\275"
 686      09D1A142 
 686      F40E217A 
 686      A710BD
 687 157f 4B880E13 		.ascii	"K\210\016\023\242w\213\321\274\\HyBe\024n\005\376H\020"
 687      A2778BD1 
ARM GAS  /tmp/cczgFmwQ.s 			page 55


 687      BC5C4879 
 687      4265146E 
 687      05FE4810 
 688 1593 B84D27FD 		.ascii	"\270M'\3759\031\014,\022\014W\226\313Q_Y\205\024%\235"
 688      39190C2C 
 688      120C5796 
 688      CB515F59 
 688      8514259D 
 689 15a7 2C55C919 		.ascii	",U\311\031JL\221\024\260\330t\242\260a`;\232\352 \007"
 689      4A4C9114 
 689      B0D874A2 
 689      B061603B 
 689      9AEA2007 
 690 15bb C5F15DBA 		.ascii	"\305\361]\272R\025.\227\361\367\370JiB,]\211\312\343"
 690      52152E97 
 690      F1F7F84A 
 690      69422C5D 
 690      89CAE3
 691 15ce 63A85992 		.ascii	"c\250Y\222\361W\305&\300K]\335P\335P|\264\3741x\225"
 691      F157C526 
 691      C04B5DDD 
 691      50DD507C 
 691      B4FC3178 
 692 15e3 214F0929 		.ascii	"!O\011)\240(9m\262\022\036\367\333H\1774\372*)\366;"
 692      A028396D 
 692      B2121EF7 
 692      DB487F34 
 692      FA2A29F6 
 693 15f8 28224F26 		.ascii	"(\"O&\0311\022\254\031\240\331k\014GCP\031hZ\260\366"
 693      193112AC 
 693      19A0D96B 
 693      0C474350 
 693      19685AB0 
 694 160d 2410094E 		.ascii	"$\020\011N\226BJ\250z\302@\343\361\304\032\271\006\270"
 694      96424AA8 
 694      7AC240E3 
 694      F1C41AB9 
 694      06B8
 695 161f CAA24AE2 		.ascii	"\312\242J\342\243~\221 4\213Y?f\341\201\034\221\253"
 695      A37E9120 
 695      348B593F 
 695      66E1811C 
 695      91AB
 696 1631 C1B026F8 		.ascii	"\301\260&\370\253j\300\010\012<\015\212*e\0121\336*"
 696      AB6AC008 
 696      0A3C0D8A 
 696      2A650A31 
 696      DE2A
 697 1643 0D1DEEE1 		.ascii	"\015\035\356\341\311d\260\"\022\210P\205c\005\370\203"
 697      C964B022 
 697      12885085 
 697      6305F883 
 698 1653 7284D37E 		.ascii	"r\204\323~D+R%\332\034<\214\204\303\225\375a`\033\203"
 698      442B5225 
 698      DA1C3C8C 
 698      84C395FD 
 698      61601B83 
ARM GAS  /tmp/cczgFmwQ.s 			page 56


 699 1667 3C0079CD 		.ascii	"<\000y\315ih\276\0015\032T2\3401f\311\373\311\232\232"
 699      6968BE01 
 699      351A5432 
 699      E03166C9 
 699      FBC99A9A 
 700 167b E51842DF 		.ascii	"\345\030B\337\221\212\333\012\25121~\344hH\252\004~"
 700      918ADB0A 
 700      A932317E 
 700      E46848AA 
 700      047E
 701 168d 334B3157 		.ascii	"3K1W\024\015M\222\243\003\351\037?\033=6\037\307Teh"
 701      140D4D92 
 701      A303E91F 
 701      3F1B3D36 
 701      1FC75465 
 702 16a2 5CCE84B2 		.ascii	"\\\316\204\2622\313\330\032:d\330\220\241\364x\204\261"
 702      32CBD81A 
 702      3A64D890 
 702      A1F47884 
 702      B1
 703 16b3 457C422C 		.ascii	"E|B,\364_\240m\377\344hH\221}D\335b\244F\021'\310J\200"
 703      F45FA06D 
 703      FFE46848 
 703      917D44DD 
 703      62A44611 
 704 16cb 78A05015 		.ascii	"x\240P\025\274\364\301\023\305\007\217\2244,\246\370"
 704      BCF4C113 
 704      C5078F94 
 704      342CA6F8 
 705 16db 4939459C 		.ascii	"I9E\234T\245\370Q\330@\254\\\267\266@iQ\360\221\207"
 705      54A5F851 
 705      D840AC5C 
 705      B7B64069 
 705      51F09187 
 706 16ef 8A1F2A1E 		.ascii	"\212\037*\036\233\016\271\322\261\017\217\311\200{\311"
 706      9B0EB9D2 
 706      B10F8FC9 
 706      807BC9
 707 16fe C81145BF 		.ascii	"\310\021E\277\364c\021on\030\273\206\014\374\033B\325"
 707      F463116F 
 707      6E18BB86 
 707      0CFC1B42 
 707      D5
 708 170f C084611B 		.ascii	"\300\204a\033\375\300\335\350\331\014#\033\230hX\022"
 708      FDC0DDE8 
 708      D90C231B 
 708      98685812 
 709 171f E4CAC235 		.ascii	"\344\312\3025\340\025\242\031\023\203\343j\306\217\227"
 709      E015A219 
 709      1383E36A 
 709      C68F97
 710 172e A3FE8941 		.ascii	"\243\376\211A%\034I\207\"\321\210\022\205{\264\034\356"
 710      251C4987 
 710      22D18812 
 710      857BB41C 
 710      EE
 711 173f 8189D561 		.ascii	"\201\211\325a%4\3761@\231\030\324\262i\023\241G\253"
ARM GAS  /tmp/cczgFmwQ.s 			page 57


 711      2534FE31 
 711      409918D4 
 711      B26913A1 
 711      47AB
 712 1751 7F971642 		.ascii	"\177\227\026B\314\001\341\032\205j6-\214\031!4N\010"
 712      CC01E11A 
 712      856A362D 
 712      8C192134 
 712      4E08
 713 1763 8FFB512A 		.ascii	"\217\373Q*A\240\213s\012G\227\026\227\346\224\216\005"
 713      41A08B73 
 713      0A479716 
 713      97E6948E 
 713      05
 714 1774 7D5715E4 		.ascii	"}W\025\344\217\037\232\2337\205\270\234\033\036)\035"
 714      8F1F9A9B 
 714      3785B89C 
 714      1B1E291D 
 715 1784 51323638 		.ascii	"Q268\026\274Z\221<^(-\021\212J\304\373KJ\304\302\222"
 715      16BC5A91 
 715      3C5E282D 
 715      118A4AC4 
 715      FB4B4AC4 
 716 179a 3C48F990 		.ascii	"<H\371\220\012|\243\306\216)\361\327\304\244\250R\354"
 716      0A7CA3C6 
 716      8E29F1D7 
 716      C4A4A852 
 716      EC
 717 17ab C65234B7 		.ascii	"\306R4\267T:vtA~\316\203\017\026\345`\023\223\362t\313"
 717      543A7674 
 717      417ECE83 
 717      0F16E560 
 717      1393F274 
 718 17c0 09565692 		.ascii	"\011VV\222\031\300\037\213\310r9\372\340\274;A"
 718      19C01F8B 
 718      C87239FA 
 718      E0BC3B41 
 719 17d0 8F9A4F20 		.ascii	"\217\232O Y\261,\232\007)\037R\201nc\205\341\352\361"
 719      59B12C9A 
 719      07291F52 
 719      816E6385 
 719      E1EAF1
 720 17e3 A109D7AB 		.ascii	"\241\011\327\253\3612.]Sq\27601\022\210\311JP\216F\303"
 720      F1322E5D 
 720      5371BE30 
 720      311288C9 
 720      4A508E46 
 721 17f8 5131561E 		.ascii	"Q1V\036\021b\321\201Pr\222L\\\014<\255\211(7\242\340"
 721      1162D181 
 721      5072924C 
 721      5C0C3CAD 
 721      892837A2 
 722 180d F03BA40C 		.ascii	"\360;\244\014\011\305\242\322\220\334\364\342\322\222"
 722      09C5A2D2 
 722      90DCF4E2 
 722      D292
 723 181b 1143F2EE 		.ascii	"\021C\362\356H+C\266n\212\225\023X\360d\341\310\220"
ARM GAS  /tmp/cczgFmwQ.s 			page 58


 723      482B43B6 
 723      6E8A9513 
 723      58F064E1 
 723      C890
 724 182d 08941D92 		.ascii	"\010\224\035\222\227\3613\271L\011G\213\206\365\327"
 724      97F133B9 
 724      4C09478B 
 724      86F5D7
 725 183c DF91DA99 		.ascii	"\337\221\332\231f9(\323\237\252tsY\305\310I\312\375"
 725      663928D3 
 725      9FAA7473 
 725      59C5C849 
 725      CAFD
 726 184e D1B0545E 		.ascii	"\321\260T^&\305\224\237\220\241Y\234QV\361\360\177\214"
 726      26C5949F 
 726      90A1599C 
 726      5156F1F0 
 726      7F8C
 727 1860 9295E281 		.ascii	"\222\225\342\201\261\362\342j\230\360\300\234\212$E"
 727      B1F2E26A 
 727      98F0C09C 
 727      8A2445
 728 186f 2ABECFBD 		.ascii	"*\276\317\275\026\240VU\270\332\230 \252'\205\312@\361"
 728      16A05655 
 728      B8DA9820 
 728      AA2785CA 
 728      40F1
 729 1881 37927B51 		.ascii	"7\222{Q(&\215\253\22456o\012j\363Nt\"x\261PexB\215\014"
 729      28268DAB 
 729      9435366F 
 729      0A6AF34E 
 729      742278B1 
 730 189b BC3E3CEE 		.ascii	"\274><\356\267\360\266\030\030\317\"5FV'*\210\245E\371"
 730      B7F0B618 
 730      18CF2235 
 730      4656272A 
 730      88A545F9 
 731 18af 038C0951 		.ascii	"\003\214\011QSBJ\207G\270\012\307\200\300\250\"w\340"
 731      53424A87 
 731      47B80AC7 
 731      80C0A822 
 731      77E0
 732 18c1 6410B98F 		.ascii	"d\020\271\217$\243\326\"\273(\307\"~\364P\376\340\375"
 732      24A3D622 
 732      BB28C722 
 732      7EF450FE 
 732      E0FD
 733 18d3 E0DD3289 		.ascii	"\340\3352\211.\212c#\253\"\312c\305bxb\244\177Ia\241"
 733      2E8A6323 
 733      AB22CA63 
 733      C5627862 
 733      A47F4961 
 734 18e8 69B38525 		.ascii	"i\263\205%\351c\036|\260\360'\243J|\204\210\205\305"
 734      E9631E7C 
 734      B0F027A3 
 734      4A7C8488 
 734      85C5
ARM GAS  /tmp/cczgFmwQ.s 			page 59


 735 18fa 2519231E 		.ascii	"%\031#\036\270?\257\244t,f\362\215L\001\311\004JF\226"
 735      B83FAFA4 
 735      742C66F2 
 735      8D4C01C9 
 735      044A4696 
 736 190e 8E2CF9D9 		.ascii	"\216,\371\331\310\242\334\214\021c\214Bc\264B\346\273"
 736      C8A2DC8C 
 736      11638C42 
 736      63B442E6 
 736      BB
 737 191f BC740230 		.ascii	"\274t\0020\362\241\022r\317\327\357\005p7K\344\247\223"
 737      F2A11272 
 737      CFD7EF05 
 737      70374BE4 
 737      A793
 738 1931 DAF8660C 		.ascii	"\332\370f\014\2260\337\024\004H\335\007\307\220g\244"
 738      9630DF14 
 738      0448DD07 
 738      C79067A4 
 739 1941 B6992BD0 		.ascii	"\266\231+\320rF\271\241\001\202\240\277\035c\2243\336"
 739      7246B9A1 
 739      0182A0BF 
 739      1D639433 
 739      DE
 740 1952 DEE1BBBF 		.ascii	"\336\341\273\277\250\020d)M<\272\323_ZZ8\252\244\037"
 740      A8106429 
 740      4D3CBAD3 
 740      5F5A5A38 
 740      AAA41F
 741 1965 085B9C5F 		.ascii	"\010[\234_JD\315\324L\263\\&\346\305\327\374\037vd\370"
 741      4A44CDD4 
 741      4CB35C26 
 741      E6C5D7FC 
 741      1F7664F8 
 742 1979 69       		.ascii	"i"
 743              		.text
 744              		.section	.gnu.lto_.symtab.f607f18bc94eaa4e,"",%progbits
 745 0000 56656374 		.ascii	"VectorD8\000\000\000\000\000\000\000\000\000\000\000"
 745      6F724438 
 745      00000000 
 745      00000000 
 745      000000
 746 0013 004E0200 		.ascii	"\000N\002\000\000SD2\000\000\000\000\000\000\000\000"
 746      00534432 
 746      00000000 
 746      00000000 
 747 0023 00000000 		.ascii	"\000\000\000\000\202\002\000\000sd_lld_init\000\000"
 747      82020000 
 747      73645F6C 
 747      6C645F69 
 747      6E697400 
 748 0038 00000000 		.ascii	"\000\000\000\000\000\000\000\000\000\000R\002\000\000"
 748      00000000 
 748      00005202 
 748      0000
 749 0046 73645F6C 		.ascii	"sd_lld_start\000\000\000\000\000\000\000\000\000\000"
 749      6C645F73 
ARM GAS  /tmp/cczgFmwQ.s 			page 60


 749      74617274 
 749      00000000 
 749      00000000 
 750 005c 00005502 		.ascii	"\000\000U\002\000\000sd_lld_stop\000\000\000\000\000"
 750      00007364 
 750      5F6C6C64 
 750      5F73746F 
 750      70000000 
 751 0072 00000000 		.ascii	"\000\000\000\000\000\000\000]\002\000\000chEvtBroad"
 751      0000005D 
 751      02000063 
 751      68457674 
 751      42726F61 
 752 0087 63617374 		.ascii	"castFlagsI\000\000\002\000\000\000\000\000\000\000\000"
 752      466C6167 
 752      73490000 
 752      02000000 
 752      00000000 
 753 009c 00610200 		.ascii	"\000a\002\000\000chOQGetI\000\000\002\000\000\000\000"
 753      0063684F 
 753      51476574 
 753      49000002 
 753      00000000 
 754 00b0 00000000 		.ascii	"\000\000\000\000\000g\002\000\000sdIncomingDataI\000"
 754      00670200 
 754      00736449 
 754      6E636F6D 
 754      696E6744 
 755 00c9 00020000 		.ascii	"\000\002\000\000\000\000\000\000\000\000\000l\002\000"
 755      00000000 
 755      0000006C 
 755      0200
 756 00d7 006E7669 		.ascii	"\000nvicDisableVector\000\000\002\000\000\000\000\000"
 756      63446973 
 756      61626C65 
 756      56656374 
 756      6F720000 
 757 00f1 00000000 		.ascii	"\000\000\000\000q\002\000\000_port_irq_epilogue\000"
 757      71020000 
 757      5F706F72 
 757      745F6972 
 757      715F6570 
 758 010c 00020000 		.ascii	"\000\002\000\000\000\000\000\000\000\000\000u\002\000"
 758      00000000 
 758      00000075 
 758      0200
 759 011a 0073644F 		.ascii	"\000sdObjectInit\000\000\002\000\000\000\000\000\000"
 759      626A6563 
 759      74496E69 
 759      74000002 
 759      00000000 
 760 0130 00000077 		.ascii	"\000\000\000w\002\000\000nvicEnableVector\000\000\002"
 760      0200006E 
 760      76696345 
 760      6E61626C 
 760      65566563 
 761 014a 00000000 		.ascii	"\000\000\000\000\000\000\000\000\000}\002\000\000"
ARM GAS  /tmp/cczgFmwQ.s 			page 61


 761      00000000 
 761      007D0200 
 761      00
 762              		.text
 763              		.section	.gnu.lto_.opts,"",%progbits
 764 0000 272D6D63 		.ascii	"'-mcpu=cortex-m4' '-mfloat-abi=hard' '-mfpu=fpv4-sp"
 764      70753D63 
 764      6F727465 
 764      782D6D34 
 764      2720272D 
 765 0033 2D643136 		.ascii	"-d16' '-mno-thumb-interwork' '-mthumb' '-O2' '-fomi"
 765      2720272D 
 765      6D6E6F2D 
 765      7468756D 
 765      622D696E 
 766 0066 742D6672 		.ascii	"t-frame-pointer' '-falign-functions=16' '-ffunction"
 766      616D652D 
 766      706F696E 
 766      74657227 
 766      20272D66 
 767 0099 2D736563 		.ascii	"-sections' '-fdata-sections' '-fno-common' '-flto' "
 767      74696F6E 
 767      73272027 
 767      2D666461 
 767      74612D73 
 768 00cc 272D6673 		.ascii	"'-fsingle-precision-constant'\000"
 768      696E676C 
 768      652D7072 
 768      65636973 
 768      696F6E2D 
 769              		.text
 770              		.section	.text.notify2,"ax",%progbits
 771              		.align	2
 772              		.p2align 4,,15
 773              		.thumb
 774              		.thumb_func
 775              		.type	notify2, %function
 776              	notify2:
 777              		@ args = 0, pretend = 0, frame = 0
 778              		@ frame_needed = 0, uses_anonymous_args = 0
 779              		@ link register save eliminated.
 780 0000 024B     		ldr	r3, .L2
 781 0002 DA68     		ldr	r2, [r3, #12]
 782 0004 42F08002 		orr	r2, r2, #128
 783 0008 DA60     		str	r2, [r3, #12]
 784 000a 7047     		bx	lr
 785              	.L3:
 786              		.align	2
 787              	.L2:
 788 000c 00440040 		.word	1073759232
 789              		.size	notify2, .-notify2
 790              		.section	.text.VectorD8,"ax",%progbits
 791              		.align	2
 792              		.p2align 4,,15
 793              		.global	VectorD8
 794              		.thumb
 795              		.thumb_func
ARM GAS  /tmp/cczgFmwQ.s 			page 62


 796              		.type	VectorD8, %function
 797              	VectorD8:
 798              		@ args = 0, pretend = 0, frame = 0
 799              		@ frame_needed = 0, uses_anonymous_args = 0
 800 0000 F8B5     		push	{r3, r4, r5, r6, r7, lr}
 801 0002 3E4E     		ldr	r6, .L55
 802 0004 D6F85454 		ldr	r5, [r6, #1108]
 803 0008 EF68     		ldr	r7, [r5, #12]
 804 000a 2B68     		ldr	r3, [r5]
 805 000c D805     		lsls	r0, r3, #23
 806 000e 9CB2     		uxth	r4, r3
 807 0010 45D4     		bmi	.L51
 808              	.L5:
 809 0012 2023     		movs	r3, #32
 810              	@ 546 "/home/cody/dev/chibios/trunk/os/ext/CMSIS/include/core_cmFunc.h" 1
 811 0014 83F31188 		MSR basepri, r3
 812              	@ 0 "" 2
 813              		.thumb
 814 0018 A106     		lsls	r1, r4, #26
 815 001a 21D5     		bpl	.L6
 816 001c 08E0     		b	.L12
 817              	.L7:
 818 001e 6968     		ldr	r1, [r5, #4]
 819 0020 3648     		ldr	r0, .L55
 820 0022 C9B2     		uxtb	r1, r1
 821 0024 FFF7FEFF 		bl	sdIncomingDataI
 822 0028 2C68     		ldr	r4, [r5]
 823 002a A4B2     		uxth	r4, r4
 824 002c A006     		lsls	r0, r4, #26
 825 002e 17D5     		bpl	.L6
 826              	.L12:
 827 0030 2207     		lsls	r2, r4, #28
 828 0032 F4D0     		beq	.L7
 829 0034 14F0080F 		tst	r4, #8
 830 0038 14BF     		ite	ne
 831 003a 8021     		movne	r1, #128
 832 003c 0021     		moveq	r1, #0
 833 003e 14F0010F 		tst	r4, #1
 834 0042 18BF     		it	ne
 835 0044 41F02001 		orrne	r1, r1, #32
 836 0048 A307     		lsls	r3, r4, #30
 837 004a 48BF     		it	mi
 838 004c 41F04001 		orrmi	r1, r1, #64
 839 0050 6407     		lsls	r4, r4, #29
 840 0052 2B48     		ldr	r0, .L55+4
 841 0054 48BF     		it	mi
 842 0056 41F48071 		orrmi	r1, r1, #256
 843 005a FFF7FEFF 		bl	chEvtBroadcastFlagsI
 844 005e DEE7     		b	.L7
 845              	.L6:
 846 0060 0023     		movs	r3, #0
 847              	@ 546 "/home/cody/dev/chibios/trunk/os/ext/CMSIS/include/core_cmFunc.h" 1
 848 0062 83F31188 		MSR basepri, r3
 849              	@ 0 "" 2
 850              		.thumb
 851 0066 3906     		lsls	r1, r7, #24
 852 0068 01D5     		bpl	.L13
ARM GAS  /tmp/cczgFmwQ.s 			page 63


 853 006a 2206     		lsls	r2, r4, #24
 854 006c 26D4     		bmi	.L52
 855              	.L13:
 856 006e 6306     		lsls	r3, r4, #25
 857 0070 11D5     		bpl	.L16
 858 0072 2023     		movs	r3, #32
 859              	@ 546 "/home/cody/dev/chibios/trunk/os/ext/CMSIS/include/core_cmFunc.h" 1
 860 0074 83F31188 		MSR basepri, r3
 861              	@ 0 "" 2
 862              		.thumb
 863 0078 726C     		ldr	r2, [r6, #68]
 864 007a B36C     		ldr	r3, [r6, #72]
 865 007c 1F48     		ldr	r0, .L55
 866 007e 9A42     		cmp	r2, r3
 867 0080 29D0     		beq	.L53
 868              	.L17:
 869 0082 4FF6BF73 		movw	r3, #65471
 870 0086 3B40     		ands	r3, r3, r7
 871 0088 6FF04002 		mvn	r2, #64
 872 008c EB60     		str	r3, [r5, #12]
 873 008e 0023     		movs	r3, #0
 874 0090 2A60     		str	r2, [r5]
 875              	@ 546 "/home/cody/dev/chibios/trunk/os/ext/CMSIS/include/core_cmFunc.h" 1
 876 0092 83F31188 		MSR basepri, r3
 877              	@ 0 "" 2
 878              		.thumb
 879              	.L16:
 880 0096 BDE8F840 		pop	{r3, r4, r5, r6, r7, lr}
 881 009a FFF7FEBF 		b	_port_irq_epilogue
 882              	.L51:
 883 009e 2023     		movs	r3, #32
 884              	@ 546 "/home/cody/dev/chibios/trunk/os/ext/CMSIS/include/core_cmFunc.h" 1
 885 00a0 83F31188 		MSR basepri, r3
 886              	@ 0 "" 2
 887              		.thumb
 888 00a4 4FF40071 		mov	r1, #512
 889 00a8 301D     		adds	r0, r6, #4
 890 00aa FFF7FEFF 		bl	chEvtBroadcastFlagsI
 891 00ae 6FF48073 		mvn	r3, #256
 892 00b2 2B60     		str	r3, [r5]
 893 00b4 0023     		movs	r3, #0
 894              	@ 546 "/home/cody/dev/chibios/trunk/os/ext/CMSIS/include/core_cmFunc.h" 1
 895 00b6 83F31188 		MSR basepri, r3
 896              	@ 0 "" 2
 897              		.thumb
 898 00ba AAE7     		b	.L5
 899              	.L52:
 900 00bc 2023     		movs	r3, #32
 901              	@ 546 "/home/cody/dev/chibios/trunk/os/ext/CMSIS/include/core_cmFunc.h" 1
 902 00be 83F31188 		MSR basepri, r3
 903              	@ 0 "" 2
 904              		.thumb
 905 00c2 1048     		ldr	r0, .L55+8
 906 00c4 FFF7FEFF 		bl	chOQGetI
 907 00c8 0028     		cmp	r0, #0
 908 00ca 0CDB     		blt	.L54
 909 00cc 6860     		str	r0, [r5, #4]
ARM GAS  /tmp/cczgFmwQ.s 			page 64


 910              	.L15:
 911 00ce 0023     		movs	r3, #0
 912              	@ 546 "/home/cody/dev/chibios/trunk/os/ext/CMSIS/include/core_cmFunc.h" 1
 913 00d0 83F31188 		MSR basepri, r3
 914              	@ 0 "" 2
 915              		.thumb
 916 00d4 CBE7     		b	.L13
 917              	.L53:
 918 00d6 836B     		ldr	r3, [r0, #56]
 919 00d8 002B     		cmp	r3, #0
 920 00da D2D0     		beq	.L17
 921 00dc 0430     		adds	r0, r0, #4
 922 00de 1021     		movs	r1, #16
 923 00e0 FFF7FEFF 		bl	chEvtBroadcastFlagsI
 924 00e4 CDE7     		b	.L17
 925              	.L54:
 926 00e6 0648     		ldr	r0, .L55+4
 927 00e8 0821     		movs	r1, #8
 928 00ea FFF7FEFF 		bl	chEvtBroadcastFlagsI
 929 00ee 4FF63F73 		movw	r3, #65343
 930 00f2 3B40     		ands	r3, r3, r7
 931 00f4 43F04003 		orr	r3, r3, #64
 932 00f8 EB60     		str	r3, [r5, #12]
 933 00fa E8E7     		b	.L15
 934              	.L56:
 935              		.align	2
 936              	.L55:
 937 00fc 00000000 		.word	.LANCHOR0
 938 0100 04000000 		.word	.LANCHOR0+4
 939 0104 30000000 		.word	.LANCHOR0+48
 940              		.size	VectorD8, .-VectorD8
 941 0108 AFF30080 		.section	.text.sd_lld_init,"ax",%progbits
 941      AFF30080 
 942              		.align	2
 943              		.p2align 4,,15
 944              		.global	sd_lld_init
 945              		.thumb
 946              		.thumb_func
 947              		.type	sd_lld_init, %function
 948              	sd_lld_init:
 949              		@ args = 0, pretend = 0, frame = 0
 950              		@ frame_needed = 0, uses_anonymous_args = 0
 951 0000 10B5     		push	{r4, lr}
 952 0002 054C     		ldr	r4, .L58
 953 0004 054A     		ldr	r2, .L58+4
 954 0006 2046     		mov	r0, r4
 955 0008 0021     		movs	r1, #0
 956 000a FFF7FEFF 		bl	sdObjectInit
 957 000e 044B     		ldr	r3, .L58+8
 958 0010 C4F85434 		str	r3, [r4, #1108]
 959 0014 10BD     		pop	{r4, pc}
 960              	.L59:
 961 0016 00BF     		.align	2
 962              	.L58:
 963 0018 00000000 		.word	.LANCHOR0
 964 001c 00000000 		.word	notify2
 965 0020 00440040 		.word	1073759232
ARM GAS  /tmp/cczgFmwQ.s 			page 65


 966              		.size	sd_lld_init, .-sd_lld_init
 967 0024 AFF30080 		.section	.text.sd_lld_start,"ax",%progbits
 967      AFF30080 
 967      AFF30080 
 968              		.align	2
 969              		.p2align 4,,15
 970              		.global	sd_lld_start
 971              		.thumb
 972              		.thumb_func
 973              		.type	sd_lld_start, %function
 974              	sd_lld_start:
 975              		@ args = 0, pretend = 0, frame = 0
 976              		@ frame_needed = 0, uses_anonymous_args = 0
 977 0000 38B5     		push	{r3, r4, r5, lr}
 978 0002 1F4C     		ldr	r4, .L68
 979 0004 037A     		ldrb	r3, [r0, #8]	@ zero_extendqisi2
 980 0006 0029     		cmp	r1, #0
 981 0008 18BF     		it	ne
 982 000a 0C46     		movne	r4, r1
 983 000c 012B     		cmp	r3, #1
 984 000e 0546     		mov	r5, r0
 985 0010 23D0     		beq	.L67
 986              	.L62:
 987 0012 D5F85434 		ldr	r3, [r5, #1108]
 988 0016 1B4A     		ldr	r2, .L68+4
 989 0018 9342     		cmp	r3, r2
 990 001a 2BD0     		beq	.L63
 991 001c 02F58062 		add	r2, r2, #1024
 992 0020 9342     		cmp	r3, r2
 993 0022 27D0     		beq	.L63
 994 0024 2268     		ldr	r2, [r4]
 995 0026 1849     		ldr	r1, .L68+8
 996 0028 B1FBF2F2 		udiv	r2, r1, r2
 997 002c 9A60     		str	r2, [r3, #8]
 998              	.L65:
 999 002e A288     		ldrh	r2, [r4, #4]
 1000 0030 E188     		ldrh	r1, [r4, #6]
 1001 0032 2089     		ldrh	r0, [r4, #8]
 1002 0034 42F40452 		orr	r2, r2, #8448
 1003 0038 41F04004 		orr	r4, r1, #64
 1004 003c 42F02C02 		orr	r2, r2, #44
 1005 0040 40F00100 		orr	r0, r0, #1
 1006 0044 92B2     		uxth	r2, r2
 1007 0046 A4B2     		uxth	r4, r4
 1008 0048 80B2     		uxth	r0, r0
 1009 004a 0021     		movs	r1, #0
 1010 004c 1C61     		str	r4, [r3, #16]
 1011 004e 5861     		str	r0, [r3, #20]
 1012 0050 DA60     		str	r2, [r3, #12]
 1013 0052 1960     		str	r1, [r3]
 1014 0054 1A68     		ldr	r2, [r3]
 1015 0056 5B68     		ldr	r3, [r3, #4]
 1016 0058 38BD     		pop	{r3, r4, r5, pc}
 1017              	.L67:
 1018 005a 0C4B     		ldr	r3, .L68+12
 1019 005c 9842     		cmp	r0, r3
 1020 005e D8D1     		bne	.L62
ARM GAS  /tmp/cczgFmwQ.s 			page 66


 1021 0060 0B4B     		ldr	r3, .L68+16
 1022 0062 1A6C     		ldr	r2, [r3, #64]
 1023 0064 42F40032 		orr	r2, r2, #131072
 1024 0068 1A64     		str	r2, [r3, #64]
 1025 006a 2620     		movs	r0, #38
 1026 006c 0C21     		movs	r1, #12
 1027 006e FFF7FEFF 		bl	nvicEnableVector
 1028 0072 CEE7     		b	.L62
 1029              	.L63:
 1030 0074 2268     		ldr	r2, [r4]
 1031 0076 0749     		ldr	r1, .L68+20
 1032 0078 B1FBF2F2 		udiv	r2, r1, r2
 1033 007c 9A60     		str	r2, [r3, #8]
 1034 007e D6E7     		b	.L65
 1035              	.L69:
 1036              		.align	2
 1037              	.L68:
 1038 0080 00000000 		.word	.LANCHOR1
 1039 0084 00100140 		.word	1073811456
 1040 0088 80DE8002 		.word	42000000
 1041 008c 00000000 		.word	.LANCHOR0
 1042 0090 00380240 		.word	1073887232
 1043 0094 00BD0105 		.word	84000000
 1044              		.size	sd_lld_start, .-sd_lld_start
 1045 0098 AFF30080 		.section	.text.sd_lld_stop,"ax",%progbits
 1045      AFF30080 
 1046              		.align	2
 1047              		.p2align 4,,15
 1048              		.global	sd_lld_stop
 1049              		.thumb
 1050              		.thumb_func
 1051              		.type	sd_lld_stop, %function
 1052              	sd_lld_stop:
 1053              		@ args = 0, pretend = 0, frame = 0
 1054              		@ frame_needed = 0, uses_anonymous_args = 0
 1055              		@ link register save eliminated.
 1056 0000 037A     		ldrb	r3, [r0, #8]	@ zero_extendqisi2
 1057 0002 022B     		cmp	r3, #2
 1058 0004 00D0     		beq	.L74
 1059              	.L70:
 1060 0006 7047     		bx	lr
 1061              	.L74:
 1062 0008 0849     		ldr	r1, .L75
 1063 000a D0F85434 		ldr	r3, [r0, #1108]
 1064 000e 0022     		movs	r2, #0
 1065 0010 8842     		cmp	r0, r1
 1066 0012 DA60     		str	r2, [r3, #12]
 1067 0014 1A61     		str	r2, [r3, #16]
 1068 0016 5A61     		str	r2, [r3, #20]
 1069 0018 F5D1     		bne	.L70
 1070 001a 054B     		ldr	r3, .L75+4
 1071 001c 1A6C     		ldr	r2, [r3, #64]
 1072 001e 22F40032 		bic	r2, r2, #131072
 1073 0022 1A64     		str	r2, [r3, #64]
 1074 0024 2620     		movs	r0, #38
 1075 0026 FFF7FEBF 		b	nvicDisableVector
 1076              	.L76:
ARM GAS  /tmp/cczgFmwQ.s 			page 67


 1077 002a 00BF     		.align	2
 1078              	.L75:
 1079 002c 00000000 		.word	.LANCHOR0
 1080 0030 00380240 		.word	1073887232
 1081              		.size	sd_lld_stop, .-sd_lld_stop
 1082              		.global	SD2
 1083 0034 AFF30080 		.section	.rodata.default_config,"a",%progbits
 1083      AFF30080 
 1083      AFF30080 
 1084              		.align	2
 1085              		.set	.LANCHOR1,. + 0
 1086              		.type	default_config, %object
 1087              		.size	default_config, 12
 1088              	default_config:
 1089 0000 00960000 		.word	38400
 1090 0004 0000     		.short	0
 1091 0006 0040     		.short	16384
 1092 0008 0000     		.short	0
 1093 000a 0000     		.space	2
 1094              		.section	.bss.SD2,"aw",%nobits
 1095              		.align	2
 1096              		.set	.LANCHOR0,. + 0
 1097              		.type	SD2, %object
 1098              		.size	SD2, 1112
 1099              	SD2:
 1100 0000 00000000 		.space	1112
 1100      00000000 
 1100      00000000 
 1100      00000000 
 1100      00000000 
 1101              		.comm	__gnu_lto_v1,1,1
 1102              		.ident	"GCC: (GNU Tools for ARM Embedded Processors) 4.8.4 20140526 (release) [ARM/embedded-4_8-br
ARM GAS  /tmp/cczgFmwQ.s 			page 68


DEFINED SYMBOLS
                            *ABS*:0000000000000000 serial_lld.c
     /tmp/cczgFmwQ.s:771    .text.notify2:0000000000000000 $t
     /tmp/cczgFmwQ.s:776    .text.notify2:0000000000000000 notify2
     /tmp/cczgFmwQ.s:788    .text.notify2:000000000000000c $d
     /tmp/cczgFmwQ.s:791    .text.VectorD8:0000000000000000 $t
     /tmp/cczgFmwQ.s:797    .text.VectorD8:0000000000000000 VectorD8
     /tmp/cczgFmwQ.s:937    .text.VectorD8:00000000000000fc $d
     /tmp/cczgFmwQ.s:942    .text.sd_lld_init:0000000000000000 $t
     /tmp/cczgFmwQ.s:948    .text.sd_lld_init:0000000000000000 sd_lld_init
     /tmp/cczgFmwQ.s:963    .text.sd_lld_init:0000000000000018 $d
     /tmp/cczgFmwQ.s:968    .text.sd_lld_start:0000000000000000 $t
     /tmp/cczgFmwQ.s:974    .text.sd_lld_start:0000000000000000 sd_lld_start
     /tmp/cczgFmwQ.s:1038   .text.sd_lld_start:0000000000000080 $d
     /tmp/cczgFmwQ.s:1046   .text.sd_lld_stop:0000000000000000 $t
     /tmp/cczgFmwQ.s:1052   .text.sd_lld_stop:0000000000000000 sd_lld_stop
     /tmp/cczgFmwQ.s:1079   .text.sd_lld_stop:000000000000002c $d
     /tmp/cczgFmwQ.s:1099   .bss.SD2:0000000000000000 SD2
     /tmp/cczgFmwQ.s:1084   .rodata.default_config:0000000000000000 $d
     /tmp/cczgFmwQ.s:1088   .rodata.default_config:0000000000000000 default_config
     /tmp/cczgFmwQ.s:1095   .bss.SD2:0000000000000000 $d
                            *COM*:0000000000000001 __gnu_lto_v1
     /tmp/cczgFmwQ.s:941    .text.VectorD8:0000000000000108 $t
     /tmp/cczgFmwQ.s:967    .text.sd_lld_init:0000000000000024 $t
     /tmp/cczgFmwQ.s:1045   .text.sd_lld_start:0000000000000098 $t
     /tmp/cczgFmwQ.s:1083   .text.sd_lld_stop:0000000000000034 $t

UNDEFINED SYMBOLS
sdIncomingDataI
chEvtBroadcastFlagsI
_port_irq_epilogue
chOQGetI
sdObjectInit
nvicEnableVector
nvicDisableVector
