ARM GAS  /tmp/ccT2VTTc.s 			page 1


   1              		.syntax unified
   2              		.cpu cortex-m3
   3              		.fpu softvfp
   4              		.eabi_attribute 20, 1
   5              		.eabi_attribute 21, 1
   6              		.eabi_attribute 23, 3
   7              		.eabi_attribute 24, 1
   8              		.eabi_attribute 25, 1
   9              		.eabi_attribute 26, 1
  10              		.eabi_attribute 30, 2
  11              		.eabi_attribute 34, 1
  12              		.eabi_attribute 18, 4
  13              		.thumb
  14              		.file	"serial_lld.c"
  15              		.section	.gnu.lto_.jmpfuncs.5584cb8ebeb724a5,"",%progbits
  16 0000 789C6D4E 		.ascii	"x\234mN1\022\3020\014\223\344\364\200^\207\036/`\241"
  16      3112C230 
  16      0C93E4F4 
  16      805E871E 
  16      2F60A1
  17 0013 6F6267CA 		.ascii	"obg\312\300\013X2\362f&R\033<\320fH\024I\226%\010{\347"
  17      C00B5832 
  17      F2662652 
  17      1B3CD066 
  17      48144996 
  18 002b CC784780 		.ascii	"\314xG\200\220\251\\*W\010\030\373\204n\254\344\014"
  18      90A95C2A 
  18      570818FB 
  18      846EACE4 
  18      0C
  19 003c 243EBAEA 		.ascii	"$>\272\352a\277+\204V\200\002\372GW`\350F=\361n\257"
  19      61BF2B84 
  19      568002FA 
  19      475760E8 
  19      463DF16E 
  20 0051 3657DA23 		.ascii	"6W\332#\026\035\376Y\247O\260-\351Ie\005)\015\367H\261"
  20      161DFE59 
  20      A74FB02D 
  20      E9496505 
  20      290DF748 
  21 0066 6DF0BEDB 		.ascii	"m\360\276\333\265\321\024\255\226\257MS\007Y4\251\211"
  21      B5D114AD 
  21      96AF4D53 
  21      075934A9 
  21      89
  22 0077 4C1FF001 		.ascii	"L\037\360\001\362/\"P"
  22      F22F2250 
  23              		.text
  24              		.section	.gnu.lto_.inline.5584cb8ebeb724a5,"",%progbits
  25 0000 789C7D51 		.ascii	"x\234}Q=K\003A\020\235\331\333\334]\276\340\002\212"
  25      3D4B0341 
  25      109DD9DB 
  25      DC5DBEE0 
  25      028A
  26 0012 A0625208 		.ascii	"\240bR\010!\205Y\324?\020\301FQ\013?\300.\304$x\301"
  26      218559D4 
  26      3F10C146 
ARM GAS  /tmp/ccT2VTTc.s 			page 2


  26      510B3FC0 
  26      2EC42478 
  27 0027 8B912406 		.ascii	"\213\221$\006$\315\226)\203\275\022?\012\177\201\255"
  27      24CD9629 
  27      83BD123F 
  27      0A7F81AD 
  28 0037 E944EC82 		.ascii	"\351D\354\202\205\205\202`ci-\010\356\356\345.F\305"
  28      85858260 
  28      63692D08 
  28      EEEEE52E 
  28      46C5
  29 0049 83DB79F7 		.ascii	"\203\333y\367\336\314\336\233\031\002\004\376z\256\004"
  29      DECCDE9B 
  29      190204FE 
  29      7AAE04
  30 0058 BD2C6208 		.ascii	"\275,b\010@\017 \020\375=\015z'\256\222\3617E`t\022"
  30      400F2010 
  30      FD3D0D7A 
  30      27AE92F1 
  30      37456074 
  31 006d 09A22B03 		.ascii	"\011\242+\003h\342U\332\324\303\003R\311j\021\221\325"
  31      68E255DA 
  31      D4C30352 
  31      C96A1191 
  31      D5
  32 007e 5E6BAF69 		.ascii	"^k\257ip\013\307\004\211\314\323:\206J\247\331\273\317"
  32      700BC704 
  32      89CCD33A 
  32      864AA7D9 
  32      BBCF
  33 0090 08046F52 		.ascii	"\010\004oR\202}3\250{~\253\032\212(\356\210\210\377"
  33      827D33A8 
  33      7B7EAB1A 
  33      8A28EE88 
  33      88FF
  34 00a2 3F1B7DD0 		.ascii	"?\033}\320\033\227\300M\240`Z?\275\205\245\247\000\350"
  34      1B97C04D 
  34      A0605A3F 
  34      BD85A5A7 
  34      00E8
  35 00b4 63A89AF5 		.ascii	"c\250\232\365\333\010\371\242\361\237\030\204\350\224"
  35      DB08F9A2 
  35      F19F1884 
  35      E894
  36 00c2 106927EE 		.ascii	"\020i'\356\2534\352\266\350\305\020\314Lc\030w\267\261"
  36      AB34EAB6 
  36      E8C510CC 
  36      4C631877 
  36      B7B1
  37 00d4 84BAACB6 		.ascii	"\204\272\254\266=\004\2123\020\264\014\330\003\270\333"
  37      3D048A33 
  37      10B40CD8 
  37      03B8DB
  38 00e3 840FDEE2 		.ascii	"\204\017\336\342/\257\327\367\202\323\312\350N\335\316"
  38      2FAFD7F7 
  38      82D3CAE8 
  38      4EDDCE
ARM GAS  /tmp/ccT2VTTc.s 			page 3


  39 00f2 E1193665 		.ascii	"\341\0316e\225\253w{\023JEO=\227\252?fq\221\204f\352"
  39      95AB777B 
  39      134A454F 
  39      3D97AA3F 
  39      66719184 
  40 0108 FD4403A3 		.ascii	"\375D\003\243\225$ LrSN\217[\004\002\255$\267\300\354"
  40      9524204C 
  40      72534E8F 
  40      5B0402AD 
  40      24B7C0EC 
  41 011c C678C202 		.ascii	"\306x\302\002\335\311\310\203\023\253?W\211\210B\031"
  41      DDC9C883 
  41      13AB3F57 
  41      89884219 
  42 012c 05223012 		.ascii	"\005\"0\022\304`\337/\031\370%\337\374v\333\361a\267"
  42      C460DF2F 
  42      19F825DF 
  42      FC76DBF1 
  42      61B7
  43 013e 17436E4F 		.ascii	"\027CnO\343\303n/\225\352\033\365\266\035\362\346,}"
  43      E3C36E2F 
  43      95EA1BF5 
  43      B61DF2E6 
  43      2C7D
  44 0150 12D7A7F8 		.ascii	"\022\327\247\370\370 \234R/\202\376\024\243@\337\302"
  44      F8209C52 
  44      2F82FE14 
  44      A340DFC2 
  45 0160 DC14E152 		.ascii	"\334\024\341R\204\204\340\0361\223\240\375\235J\204"
  45      8484E01E 
  45      3193A0FD 
  45      9D4A84
  46 016f 724F9664 		.ascii	"rO\226d\226\230])\027Y\276R8b\205b\203\345\355\322N"
  46      96985D29 
  46      1759BE52 
  46      38628562 
  46      83E5EDD2 
  47 0184 A95263F5 		.ascii	"\251Rc\365\352\341\376\036\023\300\3169\354\240R\255"
  47      EAE1FE1E 
  47      13C0CE39 
  47      ECA052AD 
  48 0194 D7D8C6E6 		.ascii	"\327\330\306\346\352\374\034[YYd[\033\013\353\233\215"
  48      EAFC1C5B 
  48      5959645B 
  48      1B0BEB9B 
  48      8D
  49 01a5 59562B56 		.ascii	"YV+VK9'\3538\205t\036\276\000\313\272yR"
  49      4B3927EB 
  49      3885741E 
  49      BE00CBBA 
  49      7952
  50              		.text
  51              		.section	.gnu.lto_.pureconst.5584cb8ebeb724a5,"",%progbits
  52 0000 789C6362 		.ascii	"x\234cb`b\020e\200\000.\006)F)&\011f+\026)V\011v\011"
  52      60621065 
  52      80002E06 
  52      29462926 
ARM GAS  /tmp/ccT2VTTc.s 			page 4


  52      09662B16 
  53 0019 4E092E29 		.ascii	"N\011.)\036)\000\020\300\001u"
  53      1E290010 
  53      C00175
  54              		.text
  55              		.section	.gnu.lto_notify1.5584cb8ebeb724a5,"",%progbits
  56 0000 789C6362 		.ascii	"x\234cb`b@\007\222@\374\023\210\275\201\230\221\231"
  56      60624007 
  56      9240FC13 
  56      88BD8198 
  56      9199
  57 0012 819169C2 		.ascii	"\201\221i\3029\006\206F\016&FF\020\203\201\221\241\236"
  57      39068646 
  57      0E264646 
  57      10838191 
  57      A19E
  58 0024 89B13E92 		.ascii	"\211\261>\222\021\254v=\323\201\007\377\377\257\333"
  58      11AC763D 
  58      D38107FF 
  58      FFAFDB
  59 0033 766ED91F 		.ascii	"vn\331\037\306\235L\254L\014\231\214\014\314 \002\010"
  59      C69D4CAC 
  59      4C0C998C 
  59      0CCC2002 
  59      08
  60 0044 58195A1A 		.ascii	"X\031Z\032\032&(00$\203\271!@\022d@(#\023\210f>\313"
  60      1A262830 
  60      302483B9 
  60      21401264 
  60      40282313 
  61 005c 70E8D68D 		.ascii	"p\350\326\215\347?\031\023\031\0272\2622\24432i3\254"
  61      E73F1913 
  61      191732B2 
  61      32A43332 
  61      6933AC
  62 006f 6A686914 		.ascii	"jhi\024\310dd\234\3150\2131\223\221)\002H07|hi`a\000"
  62      C864649C 
  62      CD308B31 
  62      93912902 
  62      4830377C 
  63 0088 33C13626 		.ascii	"3\3016&1\302\334y\226\241y'3L7s:D=C\003#X\352\220'D"
  63      31C2DC79 
  63      96A17927 
  63      334C3773 
  63      3A443D43 
  64 00a3 863443D3 		.ascii	"\2064C\323A\374\213\014\215\017\346\253C\264\303@\010"
  64      41FC8B0C 
  64      8D0FE6AB 
  64      43B4C340 
  64      08
  65 00b4 2323C8D1 		.ascii	"##\310\321\240\300\362\324\317\310\317M\325O\316O\251"
  65      A0C0F2D4 
  65      CFC8CF4D 
  65      D54FCE4F 
  65      A9
  66 00c5 D44F492D 		.ascii	"\324OI-\323O\316\310L\312\314/\326/)*\315\313\326\007"
  66      D34FCEC8 
ARM GAS  /tmp/ccT2VTTc.s 			page 5


  66      4CCACC2F 
  66      D62F292A 
  66      CDCBD607 
  67 00d9 32321273 		.ascii	"22\022s\364\013\362\213J\212\365\203C|\215\215\364}"
  67      F40BF28B 
  67      4A8AF583 
  67      437C8D8D 
  67      F47D
  68 00eb 7C5CF443 		.ascii	"|\\\364C\203\035\203B\312\014\365\213S\2132\023s\342"
  68      831D8342 
  68      CA0CF58B 
  68      538B3213 
  68      73E2
  69 00fd 737252F4 		.ascii	"srR\364\222\031\0004nU\345"
  69      92190034 
  69      6E55E5
  70              		.text
  71              		.section	.gnu.lto_notify2.5584cb8ebeb724a5,"",%progbits
  72 0000 789C6362 		.ascii	"x\234cb`b@\007\222@\374\023\210\275\201\230\221\231"
  72      60624007 
  72      9240FC13 
  72      88BD8198 
  72      9199
  73 0012 819169C2 		.ascii	"\201\221i\3029\006\206F\016&FF\020\203\201\221\241\236"
  73      39068646 
  73      0E264646 
  73      10838191 
  73      A19E
  74 0024 89B13E92 		.ascii	"\211\261>\222\021\254v=\323\201\007\377\377\257\273"
  74      11AC763D 
  74      D38107FF 
  74      FFAFBB
  75 0033 766ED91F 		.ascii	"vn\331\037\306]L\254L\014\231\214\014\314 \002\010X"
  75      C65D4CAC 
  75      4C0C998C 
  75      0CCC2002 
  75      0858
  76 0045 195A1A1A 		.ascii	"\031Z\032\032&(00$\203\271!@\022d@(#\023\210f>\313p"
  76      26283030 
  76      2483B921 
  76      40126440 
  76      28231388 
  77 005d E8D68DD7 		.ascii	"\350\326\215\327?\031\023\031\0272\2622\24432i3\254"
  77      3F191319 
  77      1732B232 
  77      A4333269 
  77      33AC
  78 006f 6A686914 		.ascii	"jhi\024\310dd\234\3150\2131\223\221)\002H07t46\2600"
  78      C864649C 
  78      CD308B31 
  78      93912902 
  78      48303774 
  79 0087 8099601B 		.ascii	"\200\231`\033\223\030a\356<\313\320\274\223\031\246"
  79      931861EE 
  79      3CCBD0BC 
  79      9319A6
  80 0096 9B391DA2 		.ascii	"\2339\035\242\236\241\201\021,u\310\023\"C\232\241\351"
ARM GAS  /tmp/ccT2VTTc.s 			page 6


  80      9EA18111 
  80      2C75C813 
  80      22439AA1 
  80      E9
  81 00a7 20FE4586 		.ascii	" \376E\206\306\007\353\325!\332a \204\221\021\344hP"
  81      C607EBD5 
  81      21DA6120 
  81      849111E4 
  81      6850
  82 00b9 6079EA67 		.ascii	"`y\352g\344\347\246\352'\347\247T\352\247\244\226\351"
  82      E4E7A6EA 
  82      27E7A754 
  82      EAA7A496 
  82      E9
  83 00ca 27676426 		.ascii	"'gd&e\346\027\353\227\024\225\346e\353\003\031\031\211"
  83      65E617EB 
  83      971495E6 
  83      65EB0319 
  83      1989
  84 00dc 39FA05F9 		.ascii	"9\372\005\371E%\305\372\301!\276\306F\372>>.\372\241"
  84      4525C5FA 
  84      C121BEC6 
  84      46FA3E3E 
  84      2EFAA1
  85 00ef C18E4121 		.ascii	"\301\216A!e\206\372\305\251E\231\2119\36199)z\311\014"
  85      6586FAC5 
  85      A9459989 
  85      39F13939 
  85      297AC90C 
  86 0103 00D3E555 		.ascii	"\000\323\345UD"
  86      44
  87              		.text
  88              		.section	.gnu.lto_set_error.5584cb8ebeb724a5,"",%progbits
  89 0000 789C8D52 		.ascii	"x\234\215RMkSA\024\275w\346}'\005[t\343B\202 \005\205"
  89      4D6B5341 
  89      14BD77E6 
  89      7D27055B 
  89      74E34282 
  90 0017 0EB67F40 		.ascii	"\016\266\177@\301\215\02076A]I\372\022\222\207\251\221"
  90      C18D1037 
  90      36415D49 
  90      FA129287 
  90      A991
  91 0029 BC58D022 		.ascii	"\274X\320\"}1\021\262\020)\242\013u\323\020\320R\004"
  91      7D3111B2 
  91      1029A20B 
  91      75D310D0 
  91      5204
  92 003b D7621771 		.ascii	"\327b\027q'\370E0.\334\005D\334\004\324\225X\012\361"
  92      27F84530 
  92      2EDC0544 
  92      DC04D495 
  92      580AF1
  93 004e CEFBC8AB 		.ascii	"\316\373\310\253\315\306\201\314\2359w\3569\347\346"
  93      CDC681CC 
  93      9D3977EE 
  93      39E7E6
ARM GAS  /tmp/ccT2VTTc.s 			page 7


  94 005d 5D060CF6 		.ascii	"]\006\014\366\257[\364\273\300\001\032\0241\001\310"
  94      AF5BF4BB 
  94      C0011A14 
  94      3101C8
  95 006c D63F00D4 		.ascii	"\326?\000\324\015\306xk\026<K\221{\222\243\022\300\012"
  95      0DC6786B 
  95      163C4B91 
  95      7B92A312 
  95      C00A
  96 007e 537D58F3 		.ascii	"S}X\363a\025\265\000\326\230\356\303\206\017\353h\004"
  96      6115B500 
  96      D698EEC3 
  96      860FEB68 
  96      04
  97 008f B0C1CCBE 		.ascii	"\260\301\314\276 \330\332>B\260\211V\000[\210\362\000"
  97      20D8DA3E 
  97      42B08956 
  97      005B88F2 
  97      00
  98 00a0 086B8C2B 		.ascii	"\010k\214+\252\246\033\246\205k\227P\332\301\243\320"
  98      AAA61BA6 
  98      856B9750 
  98      DAC1A3D0 
  99 00b0 F6BCFB83 		.ascii	"\366\274\373\203o\235\327\354\221\327mnx\273\243\021"
  99      6F9DD7EC 
  99      91D76D6E 
  99      78BBA311 
 100 00c0 A283643D 		.ascii	"\242\203d=\215`#\\\244\013\246\374\300\224\177{y\301"
 100      8D60235C 
 100      A40BA6FC 
 100      C0947F7B 
 100      79C1
 101 00d2 BA83D168 		.ascii	"\272\203\321h\330\333\376\272\20533\0109l\023\037\013"
 101      D8DBFEBA 
 101      85333308 
 101      396C131F 
 101      0B
 102 00e3 230FA312 		.ascii	"#\017\243\022F\025\227\0214p\220\353r3B\330\224\027"
 102      46159711 
 102      347090EB 
 102      723342D8 
 102      9417
 103 00f5 2BBC24C2 		.ascii	"+\274$\302\230\244\2678E\031eZ\246IK\205\246\347\255"
 103      98A4B738 
 103      4519655A 
 103      A6494B85 
 103      A6E7AD
 104 0108 A7823448 		.ascii	"\247\2024Hc\2642\264\313\326\262\310d\344\357\241\361"
 104      63B432B4 
 104      CBD6B2C8 
 104      64E4EFA1 
 104      F1
 105 0119 AAF1FDC1 		.ascii	"\252\361\375\301\341\034vP\205\"N\027Q\225\306I\014"
 105      E11C7650 
 105      85224E17 
 105      5195C649 
 105      0C
ARM GAS  /tmp/ccT2VTTc.s 			page 8


 106 012a E00D3487 		.ascii	"\340\0154\207\365\251q\312\307\367v\223\241kk\226gQ"
 106      F5A971CA 
 106      C7F77693 
 106      A16B6B96 
 106      6751
 107 013c 89B97EC4 		.ascii	"\211\271~\304\\Z\304\205\023\\\332>\256/\200\022\241"
 107      5C5AC485 
 107      135CDA3E 
 107      AE2F8012 
 107      A1
 108 014d 13DBED6D 		.ascii	"\023\333\355m\004g\017\201?\377\224\227^U)C\364/\033"
 108      04670F81 
 108      3FFF9497 
 108      5E552943 
 108      F42F1B
 109 0160 BF0E4614 		.ascii	"\277\016F\024F\021\375wj*\344\310\242\026\333\370\035"
 109      4611FD77 
 109      6A2AE4C8 
 109      A216DBF8 
 109      1D
 110 0171 DBD0231B 		.ascii	"\333\320#\033l\302\206>a\203\021\253\202\304\256\276"
 110      6CC2863E 
 110      618311AB 
 110      82C4AEBE 
 111 0181 0BA4F5B1 		.ascii	"\013\244\365\261\364\237\261\264UD\346K\237\032K\033"
 111      F49FB1B4 
 111      5544E64B 
 111      9F1A4B1B 
 112 0191 B1F42896 		.ascii	"\261\364(\2266#ieB\332\234\220\346\304\252\221\264\245"
 112      36236965 
 112      42DA9C90 
 112      E6C4AA91 
 112      B4A5
 113 01a3 0F036913 		.ascii	"\017\003i\023\372\"\220n\037\212\312\022E\344\276\264"
 113      FA22906E 
 113      1F8ACA12 
 113      45E4BEB4 
 114 01b3 C7C6DA56 		.ascii	"\307\306\332V\250}{\247\361\354!\217^N\255\302M\232"
 114      A87D7BA7 
 114      F1EC218F 
 114      5E4EADC2 
 114      4D9A
 115 01c5 861370DC 		.ascii	"\206\023p\334A\355\011<\246\"\372'\222\262\330\360\013"
 115      41ED093C 
 115      A622FA27 
 115      92B2D8F0 
 115      0B
 116 01d6 9770CFA7 		.ascii	"\227p\317\247\374\010w~nv\236\336\023\341\324D\343\323"
 116      FC08777E 
 116      6E769EDE 
 116      13E1D444 
 116      E3D3
 117 01e8 7DDB9F07 		.ascii	"}\333\237\007\0108m\014+Va\307ky\007\0344md9\334\244"
 117      08386D0C 
 117      2B5661C7 
 117      6B79071C 
 117      346D6439 
ARM GAS  /tmp/ccT2VTTc.s 			page 9


 118 01fe 1C2D922C 		.ascii	"\034-\222,\242\342\220\035\350A}\260u,\250\212\332S"
 118      A2E2901D 
 118      E8417DB0 
 118      752CA88A 
 118      DA53
 119 0210 C8B941ED 		.ascii	"\310\271A\355%\314\273\237\363rvP\332\226]\234\025\245"
 119      25CCBB9F 
 119      F3727650 
 119      DA965D9C 
 119      15A5
 120 0222 CA7241D8 		.ascii	"\312rA\330\225\374\015\221/\254\010\273\344,9\025W\324"
 120      95FC0D91 
 120      2FAC08BB 
 120      E42C3915 
 120      57D4
 121 0234 AAD7AF5E 		.ascii	"\252\327\257^\021t(\345\312\342Z\245Zs\305b\346\334"
 121      117428E5 
 121      CAE25AA5 
 121      5A73C562 
 121      E6DC
 122 0246 C2BC48A7 		.ascii	"\302\274H\247\317\210\354\342\351\363\231\225\223\302"
 122      CF88ECE2 
 122      E9F39995 
 122      93C2
 123 0254 2D549D5C 		.ascii	"-T\235\\\371r\271\234\237\263\201\2735w\341\177\330"
 123      F972B99C 
 123      9FB381BB 
 123      3577E17F 
 123      D8
 124 0265 2A2E6DD5 		.ascii	"*.m\325\232\037\347J\360\027$\306\365\203"
 124      9A1FE74A 
 124      F01724C6 
 124      F583
 125              		.text
 126              		.section	.gnu.lto_serve_interrupt.5584cb8ebeb724a5,"",%progbits
 127 0000 789CAD56 		.ascii	"x\234\255VilTU\024>\347\275\331:\235\351L\227\031Z\240"
 127      696C5455 
 127      143EE7BD 
 127      D93A9DE9 
 127      4C97195A 
 128 0015 65286149 		.ascii	"e(aI!\235V\226\342\277\032\321\204\004\376\2644\242"
 128      219D5696 
 128      E2BF1AD1 
 128      8404FEB4 
 128      34A2
 129 0027 FEC0328C 		.ascii	"\376\3002\214\355\304\226\342LKD~\364u#\004\2204\310"
 129      EDC496E2 
 129      4C4B447E 
 129      F4752304 
 129      9034C8
 130 003a 16975842 		.ascii	"\026\227XB\200\240\021\010\022\001m\240,E\022\204\012"
 130      80A01108 
 130      12016DA0 
 130      2C451284 
 130      0A
 131 004b 21420B98 		.ascii	"!B\013\230\"\032wh5\010\":\236{\357\273o\2062\245\255"
 131      221A7768 
ARM GAS  /tmp/ccT2VTTc.s 			page 10


 131      3508223A 
 131      9E7BEFBB 
 131      6F8632A5 
 132 0060 E9FB71DF 		.ascii	"\351\373q\337]\316\367\335s\277{\316yO\001\005\006>"
 132      5DCEF7DD 
 132      73BF7BCE 
 132      794F0105 
 132      063E
 133 0072 5E04E873 		.ascii	"^\004\350s\002\314\2407\216\001TZ/\0004\330\024E\275"
 133      02CCA037 
 133      8E01545A 
 133      2F0034D8 
 133      1445BD
 134 0085 EC05CD6E 		.ascii	"\354\005\315nj/\002\315\241\242IL\233\320&:f\305\302"
 134      6A2F02CD 
 134      A1A2494C 
 134      9BD0263A 
 134      66C5C2
 135 0098 D7AD7CDD 		.ascii	"\327\255|\335\202V1m\025\353'l6\305\274\341\013 \203"
 135      8256316D 
 135      15EB276C 
 135      36C5BCE1 
 135      0B2083
 136 00ab A4662B19 		.ascii	"\244f+\031$)\366\265Si\344b\255\303\256$s\260\213\203"
 136      2429F6B5 
 136      5369E462 
 136      ADC3AE24 
 136      73B08B83 
 137 00bf 9315479B 		.ascii	"\223\025G\233\235F\316\276S\004p80Ep9e'\005]\242\343"
 137      9D46CEBE 
 137      53047038 
 137      30457039 
 137      6527055D 
 138 00d5 52DC97FD 		.ascii	"R\334\227\375d\351m\317!C\267\222z=\231Fi\207N2\\\252"
 138      64E96DCF 
 138      2143B792 
 138      7A3D9946 
 138      69874E32 
 139 00eb 92CEB748 		.ascii	"\222\316\267H\343[\244a\272\300\244+\031|/\017\337+"
 139      E35BA461 
 139      BAC0A42B 
 139      197C2F0F 
 139      DF2B
 140 00fd 033D62DA 		.ascii	"\003=b\332\203^\321\361\"\262\016 \324+\252\311l\261"
 140      835ED1F1 
 140      22B20E20 
 140      D42BAAC9 
 140      6CB1
 141 010f DA92ECC9 		.ascii	"\332\222\354\311\016g\212\313\235\232\226\236\341\361"
 141      0E678ACB 
 141      9D9A969E 
 141      E1F1
 142 011d 62FD8BC8 		.ascii	"b\375\213\310t\262\344\302\016Mk\355m9\326\217\3337"
 142      74B2E4C2 
 142      0E4D6BED 
 142      6D39D68F 
 142      DB37
ARM GAS  /tmp/ccT2VTTc.s 			page 11


 143 012f 7734B669 		.ascii	"w4\266i\017\243Q\304\020\222\246\013\020\002\010\213"
 143      0FA351C4 
 143      1092A60B 
 143      1002088B 
 144 013f 69806EFE 		.ascii	"i\200n\376R\006\350\314\261\233:\356\256\333\222\245"
 144      5206E8CC 
 144      B19B3AEE 
 144      AEDB92A5 
 145 014f B535B66A 		.ascii	"\2655\266j\377\0224\204\252\002%1\244O M\011\221\367"
 145      FF123484 
 145      AA022531 
 145      A44F204D 
 145      0991F7
 146 0162 D66DCCD4 		.ascii	"\326m\314\324\332\032$\322\244\300\242a\356y\177\235"
 146      DA1A24D2 
 146      A4C0A261 
 146      EE797F9D 
 147 0172 E32B6DAD 		.ascii	"\343+m\255\026\215\326s\330\342a\301Z;\256\234{+\336"
 147      168DD673 
 147      D8E261C1 
 147      5A3BAE9C 
 147      7B2BDE
 148 0185 55B3022F 		.ascii	"U\263\002/\017\313\325\326\336\277\327\234Y\203[O5\236"
 148      0FCBD5D6 
 148      DEBFD79C 
 148      59835B4F 
 148      359E
 149 0197 D59A3B08 		.ascii	"\325\232;\010;!\204\026\0056\343P\350\375JGo4\272\373"
 149      3B218416 
 149      0536E350 
 149      E8FD4A47 
 149      6F34BAFB 
 150 01ab F775679E 		.ascii	"\367ug\236\306\347\020\312q\017\346\202\035\253\021"
 150      C6E710CA 
 150      710FE682 
 150      1DAB11
 151 01ba 9269B093 		.ascii	"\222i\260\223\006\016z\357\242\267S_L\001:\221\233\032"
 151      060E7AEF 
 151      A2B7535F 
 151      4C013A91 
 151      9B1A
 152 01cc AB87F5BC 		.ascii	"\253\207\365\274\254\311\244\306\226EM\3228\335*\233"
 152      ACC9A4C6 
 152      96454DD2 
 152      38DD2A9B 
 153 01dc 4DE7B0C6 		.ascii	"M\347\260\306G\215=\227\246\367\322\364$\206\233L\203"
 153      478D3D97 
 153      A6F7D2F4 
 153      24869B4C 
 153      83
 154 01ed 1D349842 		.ascii	"\0354\230B\003\230\312\232i\014\237\307\232|fP\300z"
 154      0398CA9A 
 154      690C9FC7 
 154      9A7C6650 
 154      C07A
 155 01ff B3A8499E 		.ascii	"\263\250I\236\315\2329\3248\212\010\364\021\201\346"
 155      CD9A39D4 
ARM GAS  /tmp/ccT2VTTc.s 			page 12


 155      388A08F4 
 155      1181E6
 156 020e D2C0398F 		.ascii	"\322\3009\217\021\223\367fh\246\263\373\204\243\302"
 156      1193F766 
 156      68A6B3FB 
 156      84A3C2
 157 021d 4DB13DB0 		.ascii	"M\261=\260c\323C\327\005\224\011e\250\320K=\017\215"
 157      63D343D7 
 157      05940965 
 157      A8D04B3D 
 157      0F8D
 158 022f 3D57F75D 		.ascii	"=W\367]T\312\361c4C\005&O\207\0175z\"\024\024\357\302"
 158      54CAF163 
 158      34430526 
 158      4F870F35 
 158      7A221414 
 159 0245 3B244F4A 		.ascii	";$OJ\005\332\231L..\316R\2242\235\207\223=\367\367\335"
 159      05DA994C 
 159      2E2ECE52 
 159      94329D87 
 159      933DF7F7 
 160 025a 44897430 		.ascii	"D\211t0ds\203\366B\010\335\002\231Jt\014\251\352H\214"
 160      647383F6 
 160      4208DD02 
 160      994A740C 
 160      A9EA488C 
 161 026e 436EDF1F 		.ascii	"Cn\337\037C:ud\331\240H\305@6}\336\024\3352V\"\347\021"
 161      433A7564 
 161      D9A048C5 
 161      40367DDE 
 161      14DD3256 
 162 0285 98D99934 		.ascii	"\230\331\2314fq\026\232\177mp\032k|!\376b\313\210\257"
 162      6671169A 
 162      7F6D701A 
 162      6B7C21FE 
 162      62CB88AF 
 163 0299 45512F40 		.ascii	"EQ/@c\177{\347\301\015\252.\025\200\200\360\324C\270"
 163      637F7BE7 
 163      C10DAA2E 
 163      158080F0 
 163      D443B8
 164 02ac 4156C4A6 		.ascii	"AV\304\246\212\012\225\003\267\361}m{q\010\323\330\220"
 164      8A0A9503 
 164      B7F17D6D 
 164      7B7108D3 
 164      D890
 165 02be 71A6FB58 		.ascii	"q\246\373X\317X\357\327\3273\244\213\215\017N\235\373"
 165      CF58EFD7 
 165      D733A48B 
 165      8D0F4E9D 
 165      FB
 166 02cf AE44BAE1 		.ascii	"\256D\272\341^\015o\322\375M\207\274\020z\022+\252\306"
 166      5E0D6FD2 
 166      FD4D87BC 
 166      107A122B 
 166      AAC6
 167 02e1 5CEC8296 		.ascii	"\\\354\202\226\276\277\366\354\336\3507|\023\235\016"
ARM GAS  /tmp/ccT2VTTc.s 			page 13


 167      BEBFF6EC 
 167      DEE8377C 
 167      139D0E
 168 02f0 62947E06 		.ascii	"b\224~\006\244\220\253\341\001\345\223;\204\336\000"
 168      A490ABE1 
 168      01E5933B 
 168      84DE00
 169 02ff D2051E13 		.ascii	"\322\005\036\023g\240-\031\371\030\315D\021\221\311"
 169      67A02D19 
 169      F918CD44 
 169      1191C9
 170 030e D53E72F5 		.ascii	"\325>r\365`\267\256\266.\265s\010\251\331\214;\372\017"
 170      60B7AEB6 
 170      2EB57308 
 170      A9D98C3B 
 170      FA0F
 171 0320 9B1C9E5C 		.ascii	"\233\034\236\\\345\370)u\270<\020'O9\036\305\234\370"
 171      E5F82975 
 171      B83C1027 
 171      4F391EC5 
 171      9CF8
 172 0332 1B30B1A0 		.ascii	"\0330\261\240#J\034.\233\357Ilf\240\322\256\262\250"
 172      234A1C2E 
 172      9BEF496C 
 172      66A0D2AE 
 172      B2A8
 173 0344 38B5FEB7 		.ascii	"8\265\376\267\223\252\324\234\004F~\373.\031\025\205"
 173      93AAD49C 
 173      04467EFB 
 173      2E191585 
 174 0354 C65282A8 		.ascii	"\306R\202\250\260@W\206J\312\367^k\261Ko\014m\263\002"
 174      B0405786 
 174      4ACAF75E 
 174      6BB14B6F 
 174      0C6DB302 
 175 0368 BA347469 		.ascii	"\2724ti\025\254\312\216\2250\253\2769\005\363\341nc"
 175      15ACCA8E 
 175      9530ABBE 
 175      3905F3E1 
 175      6E63
 176 037a EF4CAE30 		.ascii	"\357L\2560\016\252\257\334\233\342\344\227\246\203F"
 176      0EAAAFDC 
 176      9BE2E497 
 176      A68346
 177 0389 0E6455B0 		.ascii	"\016dU\260\273\352\002\363c\016\214\013\350\030\356"
 177      BBEA02F3 
 177      630E8C0B 
 177      E818EE
 178 0398 405608C7 		.ascii	"@V\010\307\213\014:r\370\204\201\036\247_k\321\220\031"
 178      8B0C3A72 
 178      F884811E 
 178      A75F6BD1 
 178      9019
 179 03aa 245CB701 		.ascii	"$\\\267\001}i\270nM\267\266fK\026\257\224\315'e\233"
 179      7D69B86E 
 179      4DB7B666 
 179      4B16AF94 
ARM GAS  /tmp/ccT2VTTc.s 			page 14


 179      CD27659B 
 180 03be 692C0D90 		.ascii	"i,\015\220\255\033\220R\317\364\345\225\025\264\271"
 180      AD1B9052 
 180      CFF4E595 
 180      15B4B9
 181 03cd F5FAB557 		.ascii	"\365\372\265W\030k\222~\267\243\022.\342R\357\306.\325"
 181      186B927E 
 181      B7A3122E 
 181      E252EFC6 
 181      2ED5
 182 03df 432546E4 		.ascii	"C%F\344:\302\300\\\367$\270U;\234T\305\021?3\252[\266"
 182      3AC2C05C 
 182      F724B855 
 182      3B9C54C5 
 182      113F33AA 
 183 03f5 3C618CA3 		.ascii	"<a\214\243\336XK\300\221L\201\232\340DF\215\335\313"
 183      DE584BC0 
 183      914C819A 
 183      E044468D 
 183      DDCB
 184 0407 EBAA71C0 		.ascii	"\353\252q\300\221\006\261\250\025\177n\2423^\342>\370"
 184      9106B1A8 
 184      157F6EA2 
 184      335EE23E 
 184      F8
 185 0418 78B1B0F3 		.ascii	"x\261\260\363b\221\235\270X\230c\376uAs\207UBs\215\200"
 185      62919DB8 
 185      589863FE 
 185      75417387 
 185      5542738D 
 186 042d C909E846 		.ascii	"\311\011\350F\304\027\302\011\354\234\247\277?qc\275"
 186      C417C209 
 186      EC9CA7BF 
 186      3F7163BD 
 187 043d C330657C 		.ascii	"\3030e|\276GO\352\200T\366-x\320t|\233A9i\224J\327\275"
 187      BE474FEA 
 187      8054F62D 
 187      78D0747C 
 187      9B413969 
 188 0455 303BF5A5 		.ascii	"0;\365\245'\224\256\033\262tM\342\245\313&+W\343\355"
 188      2794AE1B 
 188      B2744DE2 
 188      A5CB262B 
 188      57E3ED
 189 0468 A65BDB72 		.ascii	"\246[\333r\244?\223)\002D`\030\202M\241Y\006\201\343"
 189      A43F9329 
 189      02446018 
 189      824DA159 
 189      0681E3
 190 047b F477C01F 		.ascii	"\364w\300\037\254\347&G\015\223\251d\305M\212\205\342"
 190      ACE72647 
 190      0D93A964 
 190      C54D8A85 
 190      E2
 191 048c B78D9569 		.ascii	"\267\215\225i\264\310si\276\230\321\223\250p\210\017"
 191      B4C87369 
 191      BE98D193 
ARM GAS  /tmp/ccT2VTTc.s 			page 15


 191      A870880F 
 192 049c 1801A56A 		.ascii	"\030\001\245jN\350giD\231|g[\266\244\315\253`Q1\002"
 192      4EE86769 
 192      44997C67 
 192      5BB6A4CD 
 192      AB605131 
 193 04b1 5A99DE79 		.ascii	"Z\231\336y\2226%q\330\011\272\221&\222\240t\211\217"
 193      92362571 
 193      D809BA91 
 193      2692A074 
 193      898F
 194 04c3 3DCBA9D3 		.ascii	"=\313\251\323;\215\234\312\221\371P\374XJ\345$H\007"
 194      3B8D9CCA 
 194      91F950FC 
 194      584AE524 
 194      4807
 195 04d5 37EC328D 		.ascii	"7\3542\215<\301\007\017\376\236\366;\275?\27640^\326"
 195      3CC1070F 
 195      FE9EF63B 
 195      BD3FBE34 
 195      305ED6
 196 04e8 77BEADC6 		.ascii	"w\276\255\306\276u\026\241\315,\361_\302\376\351\276"
 196      BE7516A1 
 196      CD2CF15F 
 196      C2FEE9BE 
 197 04f8 4685FE80 		.ascii	"F\205\376\200H\312\006\215EP\266\036\222\366\002\241"
 197      48CA068D 
 197      4550B61E 
 197      92F602A1 
 198 0508 A685617F 		.ascii	"\246\205a\177\026\016\261=\016\244\227\343O\374H\263"
 198      160EB13D 
 198      0EA497E3 
 198      4FFC48B3 
 199 0518 79240F8E 		.ascii	"y$\017\216\264\306!)g~h\270\210\022:\213\320\361J\244"
 199      B4C62129 
 199      677E68B8 
 199      88123A8B 
 199      D0F14AA4 
 200 052c C2257EF1 		.ascii	"\302%~\361=}\343\244\311\034\316>qPv\333#\354$u\214"
 200      3D7DE3A4 
 200      C91CCE3E 
 200      715076DB 
 200      23EC2475 
 201 0541 7D0EB39B 		.ascii	"}\016\263\233\030\257\365\"\372\335x\250\252et\253$"
 201      18AFF522 
 201      FADD78A8 
 201      AA6574AB 
 201      24
 202 0552 394F8414 		.ascii	"9O\204\024i=\267\002\213\004\305\315\316oc\337\200\271"
 202      693DB702 
 202      8B04C5CD 
 202      CE6F63DF 
 202      80B9
 203 0564 8CC419A3 		.ascii	"\214\304\031\243\350\206\"6cAH\375\346\360\201C\225"
 203      E8862236 
 203      634148FD 
 203      E6F08143 
ARM GAS  /tmp/ccT2VTTc.s 			page 16


 203      95
 204 0575 7C0090C6 		.ascii	"|\000\220\306\375\317\200\017P\025\345\2473\"\031\362"
 204      FDCF800F 
 204      5015E5A7 
 204      332219F2 
 205 0585 4729DF3B 		.ascii	"G)\337;#C\375\252\334\225\371\236\317\363\335-\362]"
 205      2343FDAA 
 205      DC95F99E 
 205      CFF3DD2D 
 205      F25D
 206 0597 48EB1127 		.ascii	"H\353\021'\246\272\375\311{\343\245k\005z\361w\037\217"
 206      A6BAFDC9 
 206      7BE3A56B 
 206      057AF177 
 206      1F8F
 207 05a9 AA20936B 		.ascii	"\252 \223kX\37732g\013\304\237\320\221[\377\347OH\354"
 207      58FF3332 
 207      670BC49F 
 207      D0915BFF 
 207      E74F48EC 
 208 05bd 3ABA7F42 		.ascii	":\272\177B^\226\221\027\241\241\257\361\017S\374\027"
 208      5E969117 
 208      A1A1AFF1 
 208      0F53FC17 
 209 05cd 845D3ED2 		.ascii	"\204]>\322\032C\315\367W\326T\007\375\201\232e\253\374"
 209      1A43CDF7 
 209      57D65407 
 209      FD819A65 
 209      ABFC
 210 05df CB822BFD 		.ascii	"\313\202+\375\201\312\320\322PM\304_\033\256[\376\232"
 210      81CAD0D2 
 210      504DC45F 
 210      1BAE5BFE 
 210      9A
 211 05f0 9F3A95E5 		.ascii	"\237:\225\345U\376\0255\341\332\210\277t\321\302\231"
 211      55FE1535 
 211      E1DA88BF 
 211      74D1C299 
 212 0600 4FF9172C 		.ascii	"O\371\027,\230\347/+}\246d\321\312B\177$\030\016\225"
 212      98E72F2B 
 212      7DA664D1 
 212      CA427F24 
 212      180E95
 213 0613 572DA9AA 		.ascii	"W-\251\252Z\226\037\000s \\\230_\200u*\275\225H\030"
 213      5A961F00 
 213      73205C98 
 213      5F80752A 
 213      BD954818 
 214 0627 97CE198A 		.ascii	"\227\316\031\212:\\\353\017-\017T\325-#\243\312\327"
 214      3A5CEB0F 
 214      2D0F54D5 
 214      2D23A3CA 
 214      D7
 215 0638 EB8275C1 		.ascii	"\353\202u\301H~%XC\257\326V\257\310/,\036\012\036|\243"
 215      487E2558 
 215      43AFD656 
 215      AFC82F2C 
ARM GAS  /tmp/ccT2VTTc.s 			page 17


 215      1E0A1E7C 
 216 064d D6FFECC2 		.ascii	"\326\377\354\302\322\371\2451\226\232ppI\240\372\371"
 216      D2F9A531 
 216      969A7070 
 216      49A0FAF9 
 217 065d BAE50122 		.ascii	"\272\345\001\"r/,-\361--\217\004W\204C3|\223\013@\011"
 217      722F2C2D 
 217      F12D2D8F 
 217      04578443 
 217      337C930B 
 218 0673 83B53A58 		.ascii	"\203\265:X]\023^\0053\207s\354\232\0105\344${\023\337"
 218      5D135E05 
 218      338773EC 
 218      9A0835E4 
 218      247B13DF 
 219 0687 7F8C268B 		.ascii	"\177\214&\213\345"
 219      E5
 220              		.text
 221              		.section	.gnu.lto_sd_lld_stop.part.1.5584cb8ebeb724a5,"",%progbits
 222 0000 789C9551 		.ascii	"x\234\225Q1H\003A\020\334\275\373\304\330\250\255]\020"
 222      31480341 
 222      10DCBDFB 
 222      C4D8A8AD 
 222      5D10
 223 0012 AC021E6A 		.ascii	"\254\002\036ji%\330\004\"\202\371\200V\362\371\017\346"
 223      6925D804 
 223      2282F980 
 223      56F2F90F 
 223      E6
 224 0023 F1F5433E 		.ascii	"\361\365C>\006\305\"\027M\221B\360\261\324&A\260\260"
 224      06C52217 
 224      4D9142F0 
 224      B1D42641 
 224      B0B0
 225 0035 B1B011EC 		.ascii	"\261\260\021\354R\012Q,\265Jckai\221s\357\237 \332y"
 225      520A512C 
 225      B54A636B 
 225      61699173 
 225      EF9F20DA 
 226 004a 703B7BB7 		.ascii	"p;{\267\2733{{\014\030\374]\031\332\007\010\260F\210"
 226      BB337B7B 
 226      0C18FC5D 
 226      19DA0708 
 226      B04688
 227 005d 0940237C 		.ascii	"\011@#|\"\307@\026!C\256\261\231\342\210\332\001\204"
 227      22C74016 
 227      2143AEB1 
 227      99E288DA 
 227      0184
 228 006f 86C13836 		.ascii	"\206\301866Q\027\343\014t\245<\037\274\177\334M\313"
 228      365117E3 
 228      0C74A53C 
 228      1FBC7FDC 
 228      4DCB
 229 0081 CE712887 		.ascii	"\316q(\207J\241\213$\223C\260\0216\350\200\351\010\230"
 229      4AA18B24 
 229      9343B011 
ARM GAS  /tmp/ccT2VTTc.s 			page 18


 229      36E880E9 
 229      0898
 230 0093 F15BF796 		.ascii	"\361[\367\226\311\201R\257\327\247\230Dp\2213m\350>"
 230      C98152AF 
 230      D7A79844 
 230      7091336D 
 230      E83E
 231 00a5 012D29C3 		.ascii	"\001-)\303\264\205]\"\007MB\313$\253\345M44\362\002"
 231      B4855D22 
 231      074D42CB 
 231      24ABE54D 
 231      3434F202 
 232 00b9 B208FBD0 		.ascii	"\262\010\373\320{\273\377\\\262\360\212Z\337F\314\300"
 232      7BBBFF5C 
 232      B2F08A5A 
 232      DF46CCC0 
 233 00c9 8D6C35A7 		.ascii	"\215l5\247\\4.\341\242\031J\362\022Z<);miD}$#\365\""
 233      5C342EE1 
 233      A2194AF2 
 233      125A3C29 
 233      3B6D6944 
 234 00e2 8EFAE8C3 		.ascii	"\216\372\350\303\311\003\037\0210\342\320I\\\251\241"
 234      C9031F11 
 234      30E2D049 
 234      5CA9A1
 235 00f1 9A8CA2BD 		.ascii	"\232\214\242\275l\034\37475\261\001<Ck\360x6\021S\000"
 235      6C1CFC37 
 235      35B1013C 
 235      436BF078 
 235      36115300 
 236 0105 1CC1976C 		.ascii	"\034\301\227l\353\3221\033\3434]\227\232\245\267\217"
 236      EBD2311B 
 236      E3345D97 
 236      9AA5B78F 
 237 0115 C755051A 		.ascii	"\307U\005\032\202~\331\013\315\374gX&e\323\255\376\275"
 237      827ED90B 
 237      CDFC6758 
 237      2665D3AD 
 237      FEBD
 238 0127 AC28FBBB 		.ascii	"\254(\373\273%a\373\316\241pJua\227\335\242\353\007"
 238      2561FBCE 
 238      A1704A75 
 238      6197DDA2 
 238      EB07
 239 0139 A256DDDF 		.ascii	"\242V\335\337\333\021\344\224-OT\374j-\020ysuqA\344"
 239      DB11E494 
 239      2D4F54FC 
 239      6A2D1079 
 239      73757141 
 240 014e 722BA290 		.ascii	"r+\242\220_^7\353\363\"(U]\313\333\362<g\316\006\036"
 240      5F5E37EB 
 240      F3222855 
 240      5DCBDBF2 
 240      3C67CE06 
 241 0163 38956FD0 		.ascii	"8\225o\320\351v\205"
 241      E97685
 242              		.text
ARM GAS  /tmp/ccT2VTTc.s 			page 19


 243              		.section	.gnu.lto_VectorD4.5584cb8ebeb724a5,"",%progbits
 244 0000 789C6362 		.ascii	"x\234cb`b@\007\222@\274\031\210\275\201\230\221\231"
 244      60624007 
 244      9240BC19 
 244      88BD8198 
 244      9199
 245 0012 819169C2 		.ascii	"\201\221i\3029\006\206F\016&FF\020\203\201\221\241\236"
 245      39068646 
 245      0E264646 
 245      10838191 
 245      A19E
 246 0024 89B13E92 		.ascii	"\211\261>\222\021\254v=\323\201\007\377\377\257\233"
 246      11AC763D 
 246      D38107FF 
 246      FFAF9B
 247 0033 3769CD1B 		.ascii	"7i\315\033\306\223L,@\021V\206\226\206\206\011\012\014"
 247      C6934C2C 
 247      40115686 
 247      96868609 
 247      0A0C
 248 0045 0CC96015 		.ascii	"\014\311`\025!@\022\244-\224\221\011D3\237ghy0\373$"
 248      214012A4 
 248      2D949109 
 248      44339F67 
 248      687930FB 
 249 005a 5722E342 		.ascii	"W\"\343BFV\240t5\303\257\206\216\006\201LF\240r\210"
 249      4656A074 
 249      35C3AF86 
 249      8E06814C 
 249      46A07288 
 250 006e 8920118E 		.ascii	"\211 \021\216LF\306\\F\006\250\242L\240V\206\363\014"
 250      4C46C65C 
 250      4606A8A2 
 250      4CA05686 
 250      F30C
 251 0080 CD0FE666 		.ascii	"\315\017\346fbhcNf\204x \223\021h\371E\206\306\007\363"
 251      6268634E 
 251      66847820 
 251      931168F9 
 251      4586C607 
 252 0095 34618A20 		.ascii	"4a\212  \004h.\320b\220*O\375\214\374\334T\375\344\374"
 252      2004682E 
 252      D062902A 
 252      4FFD8CFC 
 252      DC54FDE4 
 253 00aa 944AFD94 		.ascii	"\224J\375\224\3242\375\344\214\314\244\314\374b\375"
 253      D432FDE4 
 253      8CCCA4CC 
 253      FC62FD
 254 00b9 92A2D2BC 		.ascii	"\222\242\322\274l} ##1G\277 \277\250\244X?8\304\327"
 254      6C7D2023 
 254      233147BF 
 254      20BFA8A4 
 254      583F38C4 
 255 00ce D848DFC7 		.ascii	"\330H\337\307\307E?4\3301(\244\314P\2778\265(31'>''"
 255      C7453F34 
 255      D83128A4 
ARM GAS  /tmp/ccT2VTTc.s 			page 20


 255      CC50BF38 
 255      B5283331 
 256 00e6 452F9901 		.ascii	"E/\231\001\000s\305I\015"
 256      0073C549 
 256      0D
 257              		.text
 258              		.section	.gnu.lto_VectorD8.5584cb8ebeb724a5,"",%progbits
 259 0000 789C6362 		.ascii	"x\234cb`b@\007\222@\274\031\210\275\201\230\221\231"
 259      60624007 
 259      9240BC19 
 259      88BD8198 
 259      9199
 260 0012 819169C2 		.ascii	"\201\221i\3029\006\206F\016&FF\020\203\201\221\241\236"
 260      39068646 
 260      0E264646 
 260      10838191 
 260      A19E
 261 0024 89B13E92 		.ascii	"\211\261>\222\021\254v=\323\201\007\377\377\257\373"
 261      11AC763D 
 261      D38107FF 
 261      FFAFFB
 262 0033 3269CD1C 		.ascii	"2i\315\034\3063L,@\021V\206\226\206\206\011\012\014"
 262      C6334C2C 
 262      40115686 
 262      96868609 
 262      0A0C
 263 0045 0CC96015 		.ascii	"\014\311`\025!@\022\244-\224\221\011D3\237ghy\260\357"
 263      214012A4 
 263      2D949109 
 263      44339F67 
 263      6879B0EF 
 264 0059 245722E3 		.ascii	"$W\"\343BFV\240t5\303\257\206\216\006\201LF\240r\210"
 264      424656A0 
 264      7435C3AF 
 264      868E0681 
 264      4C46A072 
 265 006e 8920118E 		.ascii	"\211 \021\216LF\306\\F\006\250\242L\240V\206\363\014"
 265      4C46C65C 
 265      4606A8A2 
 265      4CA05686 
 265      F30C
 266 0080 CD0F4E64 		.ascii	"\315\017NdbhcNf\204x \223\021h\371E\206\306\007'5a\212"
 266      6268634E 
 266      66847820 
 266      931168F9 
 266      4586C607 
 267 0098 20200468 		.ascii	"  \004h.\320b\220*O\375\214\374\334T\375\344\374\224"
 267      2ED06290 
 267      2A4FFD8C 
 267      FCDC54FD 
 267      E4FC94
 268 00ab 4AFD94D4 		.ascii	"J\375\224\3242\375\344\214\314\244\314\374b\375\222"
 268      32FDE48C 
 268      CCA4CCFC 
 268      62FD92
 269 00ba A2D2BC6C 		.ascii	"\242\322\274l} ##1G\277 \277\250\244X?8\304\327\330"
 269      7D202323 
ARM GAS  /tmp/ccT2VTTc.s 			page 21


 269      3147BF20 
 269      BFA8A458 
 269      3F38C4D7 
 270 00cf 48DFC7C7 		.ascii	"H\337\307\307E?4\3301(\244\314P\2778\265(31'>''E/\231"
 270      453F34D8 
 270      3128A4CC 
 270      50BF38B5 
 270      28333127 
 271 00e9 0100BFC1 		.ascii	"\001\000\277\301I\217"
 271      498F
 272              		.text
 273              		.section	.gnu.lto_sd_lld_init.5584cb8ebeb724a5,"",%progbits
 274 0000 789C6362 		.ascii	"x\234cb`b@\007\222@<\207\221\201\301\033H32302M8\307"
 274      60624007 
 274      92403C87 
 274      9181C11B 
 274      48333233 
 275 0019 C0D0C8C1 		.ascii	"\300\320\310\301\304\310\010b002\32431\326G2\202\325"
 275      C4C80862 
 275      303032D4 
 275      3331D647 
 275      3282D5
 276 002c AE673AF0 		.ascii	"\256g:\360\340\377\377u\237\246\317\351a|\315\304\006"
 276      E0FFFF75 
 276      9FA6CFE9 
 276      617CCDC4 
 276      06
 277 003d 14616568 		.ascii	"\024aehih\230\240\300\300\220\014V\021\002$A\332B\031"
 277      696898A0 
 277      C0C0900C 
 277      56110224 
 277      41DA4219 
 278 0051 994034F3 		.ascii	"\231@4\363y\206\266\007\177^\263'2.dd\005JW3\374j\350"
 278      7986B607 
 278      7F5EB327 
 278      322E6464 
 278      054A5733 
 279 0068 6810C864 		.ascii	"h\020\310d\004*\207\230\010\022\341\310dd\314ed\200"
 279      042A8798 
 279      0812E1C8 
 279      6464CC65 
 279      6480
 280 007a 2A8A60CC 		.ascii	"*\212`\314\004j\206I0'32A%2\031Y\030\030\31624\355\330"
 280      046A8649 
 280      30273332 
 280      41253219 
 280      591818CE 
 281 0092 F1FF1523 		.ascii	"\361\377\025#DL\233aU\003\020\360f2\262\316f\230\325"
 281      444C9B61 
 281      550310F0 
 281      6632B2CE 
 281      6698D5
 282 00a5 D800329A 		.ascii	"\330\0002\232\015n\011\310P\006\210\201\020\313\222"
 282      0D6E09C8 
 282      50068881 
 282      10CB92
 283 00b4 20145884 		.ascii	" \024X\204\265\341CK\003\320@\006\220\023;\337\022\345"
ARM GAS  /tmp/ccT2VTTc.s 			page 22


 283      B5E1434B 
 283      03D04006 
 283      90133BDF 
 283      12E5
 284 00c6 44465C4E 		.ascii	"DF\\NdFw\342\215E\257\211u\"#\036'v4\202\235x\221\241"
 284      644677E2 
 284      8D45AF89 
 284      7522231E 
 284      27763482 
 285 00de F1C10E5D 		.ascii	"\361\301\016]\230\013! \004\250\001\030\302\240\370"
 285      980B2120 
 285      04A80118 
 285      C2A0F8
 286 00ed F4D4CFC8 		.ascii	"\364\324\317\310\317M\325O\316O\251\324OI-\323O\316"
 286      CF4DD54F 
 286      CE4FA9D4 
 286      4F492DD3 
 286      4FCE
 287 00ff C84CCACC 		.ascii	"\310L\312\314/\326/)*\315\313\326\00722\022s\364\013"
 287      2FD62F29 
 287      2ACDCBD6 
 287      07323212 
 287      73F40B
 288 0112 F28B4A8A 		.ascii	"\362\213J\212\365\203C|\215\215\364}|\\\364C\203\035"
 288      F583437C 
 288      8D8DF47D 
 288      7C5CF443 
 288      831D
 289 0124 8342CA0C 		.ascii	"\203B\312\014\365\213S\2132\023s\342srR\364\222\031"
 289      F58B538B 
 289      321373E2 
 289      737252F4 
 289      9219
 290 0136 00AEFE7F 		.ascii	"\000\256\376\177\237"
 290      9F
 291              		.text
 292              		.section	.gnu.lto_sd_lld_start.5584cb8ebeb724a5,"",%progbits
 293 0000 789CA594 		.ascii	"x\234\245\224]h\\E\024\307\317\271\037{\357\335{\327"
 293      5D685C45 
 293      14C7CFB9 
 293      1F7BEFDD 
 293      7BD7
 294 0012 C624DB24 		.ascii	"\306$\333$M\323\226\202\012\026z\261A\020|Q\361%\020"
 294      4DD39682 
 294      0A167AB1 
 294      41107C51 
 294      F12510
 295 0025 5FDA5DB0 		.ascii	"_\332]\260O\262\331\204d\353\306\225$\015\210\017\231"
 295      4FB2D984 
 295      64EBC695 
 295      240D880F 
 295      99
 296 0036 4D521B24 		.ascii	"MR\033$B\020\012K\202\270E\304\017D\037\224vS\372\220"
 296      42100A4B 
 296      82B845C4 
 296      0F441F94 
 296      7653FA90 
ARM GAS  /tmp/ccT2VTTc.s 			page 23


 297 004a 06913C58 		.ascii	"\006\221<X\215\364%\015\025\362R\004\253\020\020\222"
 297      8DF4250D 
 297      15F25204 
 297      AB101092 
 298 005a 9A07D773 		.ascii	"\232\007\327s\356\354\334\334\204\306l\354\300\236\231"
 298      EEECDCDC 
 298      84C66CEC 
 298      C09E99
 299 0069 3B73FEE7 		.ascii	";s\376\347\374\346\354\314h\240\301\3566K\277\257m\200"
 299      FCE6ECCC 
 299      68A0C1EE 
 299      364BBFAF 
 299      6D80
 300 007b F3D46302 		.ascii	"\363\324c\002P\233\371\011\240hk\232~\317\005\0217\276"
 300      509BF909 
 300      A0686B9A 
 300      7ECF0511 
 300      37BE
 301 008d 5B04109E 		.ascii	"[\004\020\236\216\206\23474s=I\363N\371\005\2326\265"
 301      8E869C37 
 301      34733D49 
 301      F34EF905 
 301      9A36B5
 302 00a0 58D9A42F 		.ascii	"X\331\244/k}\211\275bhI/K\263\203yG\316\333\350\310"
 302      6B7D89BD 
 302      6268492F 
 302      4BB38379 
 302      47CEDBE8 
 303 00b5 79478B6F 		.ascii	"yG\213oX4\357\316\376\300\363q\364\344\274\253\006\036"
 303      5834EFCE 
 303      FEC0F371 
 303      F4E4BCAB 
 303      061E
 304 00c7 220F0061 		.ascii	"\"\017\000aL\323\0153f\331N\334\365p\354<2\253~\022"
 304      4CD30D33 
 304      66D94EDC 
 304      F570EC3C 
 304      32AB7E12 
 305 00db AE0AF1E1 		.ascii	"\256\012\361\341\332\375\315R\353\373\345\342\214\370"
 305      DAFDCD52 
 305      EBFBE5E2 
 305      8CF8
 306 00e9 A75AC51C 		.ascii	"\247Z\305\034\322\256\272\021\262\010\257\323\0076\004"
 306      D2AEBA11 
 306      B208AFD3 
 306      073604
 307 00f8 9DB66BA7 		.ascii	"\235\266k\247R\271\260|y:\276,\246D\265:\026\350\316"
 307      52B9B07C 
 307      793ABE2C 
 307      A644B53A 
 307      16E8CE
 308 010b D6A9FBFB 		.ascii	"\326\251\373\373\275+m\242<\2562\352\0329\207\312\023"
 308      BD2B6DA2 
 308      3CAE32EA 
 308      1A3987CA 
 308      13
 309 011c 5269EC54 		.ascii	"Ri\354T~\243-\254U\253?\336\375bz\032\267\264g\020\006"
ARM GAS  /tmp/ccT2VTTc.s 			page 24


 309      7EA32DAC 
 309      55AB3FDE 
 309      FD627A1A 
 309      B7B46710 
 310 0131 110C2413 		.ascii	"\021\014$\023#\203\026\344\320\260\311\230\016\033\217"
 310      238316E4 
 310      D0B0C998 
 310      0E1B8F
 311 0140 4D824D03 		.ascii	"M\202M\003d\360S<\011\215\374\321\304\246\231\014$y"
 311      64F0533C 
 311      098DFCD1 
 311      C4A6990C 
 311      2479
 312 0152 74984D0B 		.ascii	"t\230M\013\177\266\262ics\204M;\233\243l:\330\034\243"
 312      7FB6B269 
 312      6373844D 
 312      3B9BA36C 
 312      3AD81CA3 
 313 0166 185729C6 		.ascii	"\030W)\306q\352?\241\236\232\011\223B\314\234\000\206"
 313      71EA3FA1 
 313      9E9A0993 
 313      42CC9C00 
 313      86
 314 0177 A69622CB 		.ascii	"\246\226\"\313\205N\243\306\275\276\004\337\377v\353"
 314      854EA3C6 
 314      BDBE04DF 
 314      FF76EB
 315 0186 A3393D83 		.ascii	"\2439=\203\237\241\011\375h\360\216b\321\355\244P\207"
 315      9FA109FD 
 315      68F08E62 
 315      D1EDA450 
 315      87
 316 0197 7BAE9E46 		.ascii	"{\256\236F#\020\334\206\361\325\312\265;\250\004\326"
 316      2310DC86 
 316      F1D5CAB5 
 316      3BA804D6 
 317 01a7 29783687 		.ascii	")x6\207\326\034\314\222\320\356\307\030\007p\002e\017"
 317      D61CCC92 
 317      D0EEC718 
 317      07700265 
 317      0F
 318 01b8 AA189CA5 		.ascii	"\252\030\234\245\230\010%\354b\205\213p\027\220\022"
 318      980825EC 
 318      62858B70 
 318      179012
 319 01c7 6BF82E6C 		.ascii	"k\370.l\211\222X\370x\356\020!\014\"\377!\372\222\316"
 319      899258F8 
 319      78EE1021 
 319      0C22FF21 
 319      FA92CE
 320 01da AC26AC27 		.ascii	"\254&\254'%\352\3659O\205\211\261\377\224\020\235\224"
 320      25EAF539 
 320      4F8589B1 
 320      FF94109D 
 320      94
 321 01eb 6F9020A3 		.ascii	"o\220 \243-M{\270\211\004\273\270Z\272\376\242R\330"
 321      2D4D7BB8 
ARM GAS  /tmp/ccT2VTTc.s 			page 25


 321      8904BBB8 
 321      5ABAFEA2 
 321      52D8
 322 01fd A7E04B31 		.ascii	"\247\340K1Yl\310a\\\362\272L\342\211\362\2240\202\277"
 322      596CC861 
 322      5CF2BA4C 
 322      E289F294 
 322      3082BF
 323 0210 D2AB712B 		.ascii	"\322\253q+\266\33301\037\226\306\241\000\354d\012\201"
 323      B6DB3031 
 323      1F96C6A1 
 323      00EC640A 
 323      81
 324 0221 C1DA6297 		.ascii	"\301\332b\227\\:X\324~\256\316\317pi\355\327?]\251\007"
 324      5C3A58D4 
 324      7EAECECF 
 324      7069EDD7 
 324      3F5DA907 
 325 0235 903BA108 		.ascii	"\220;\241\010\211l\315\213uO<%;>#\207\324\276\254\260"
 325      896CCD8B 
 325      754F3C25 
 325      3B3E2387 
 325      D4BEACB0 
 326 0249 1477F62A 		.ascii	"\024w\366*\305\316\363\230F[\225b\345FX\012\257^hu-"
 326      C5CEF398 
 326      465B9562 
 326      E546580A 
 326      AF5E6875 
 327 025e 76942241 		.ascii	"v\224\"A\001j\245\260\377W)\264Z)\022\262\024\017\366"
 327      016AA5B0 
 327      FF5729B4 
 327      5A2912B2 
 327      140FF6
 328 0271 2DC5D38F 		.ascii	"-\305\323\217(\205\243\016\344\215K\337^\353\342p\015"
 328      2885A30E 
 328      E48D4BDF 
 328      5EEBE270 
 328      0D
 329 0282 32ABAE8E 		.ascii	"2\253\256\216\341\310\366\361\273u\345\262^\273\013"
 329      E1C8F6F1 
 329      BB75E5B2 
 329      5EBB0B
 330 0291 F29EA9AB 		.ascii	"\362\236\251\253!\2527;\000d\372\254\004\243@,\327\305"
 330      21AA373B 
 330      0064FAAC 
 330      04A3402C 
 330      D7C5
 331 02a3 FAA48816 		.ascii	"\372\244\210\0263\215q\330\260\202+P\372k\331\310`%"
 331      338D71D8 
 331      B0822B50 
 331      FA6BD9C8 
 331      6025
 332 02b5 A84623EF 		.ascii	"\250F#\357\232\2109{Q\360\350\311~\304\355\213\324\303"
 332      9A88397B 
 332      51F0E8C9 
 332      7EC4ED8B 
 332      D4C3
ARM GAS  /tmp/ccT2VTTc.s 			page 26


 333 02c7 873383F3 		.ascii	"\2073\203\363\301\376\270\220\037L\374\216J\334$\353"
 333      C1FEB890 
 333      1F4CFC8E 
 333      4ADC24EB 
 334 02d7 F847C5E5 		.ascii	"\370G\305\345H\274<\376`bH\2556\223\203\252o%\254\257"
 334      48BC3CFE 
 334      606248AD 
 334      369383AA 
 334      6F25ACAF 
 335 02eb 48E4B031 		.ascii	"H\344\2601L\326\244pk\311\2140\031\351\025\270\013\364"
 335      4CD6A470 
 335      6BC98C30 
 335      19E915B8 
 335      0BF4
 336 02fd F206E42B 		.ascii	"\362\006\344+\021\362\344\343\220\037\216\222'w\223"
 336      11F2E4E3 
 336      901F8E92 
 336      277793
 337 030c B790C3E3 		.ascii	"\267\220\303\343\220\267(ro\373\331\331X\326T\370\326"
 337      90B72872 
 337      6FFBD9D9 
 337      58D654F8 
 337      D6
 338 031d 1A79F39E 		.ascii	"\032y\363\236\344\346N\362\371\211\013J\333Fr\366\204"
 338      E4E64EF2 
 338      F9890B4A 
 338      DB4672F6 
 338      84
 339 032e 97E01184 		.ascii	"\227\340\021\204\316\177\021\306\"\204m\301\226WW\""
 339      CE7F11C6 
 339      22846DC1 
 339      96575722 
 340 033e 5447F6A5 		.ascii	"TG\366\245\262\366\244j'y@\205\007\246\262#T\355\222"
 340      B2F6A46A 
 340      27794085 
 340      07A6B223 
 340      54ED92
 341 0351 EA6184EA 		.ascii	"\352a\204\352\350\276T\316\236T\035$\017\250\276z\345"
 341      E8BE54CE 
 341      9E541D24 
 341      0FA8BE7A 
 341      E5
 342 0362 C058F108 		.ascii	"\300X\361\010VG \256\254l.a\375\001\3340\000\3176J\272"
 342      564720AE 
 342      AC6C2E61 
 342      FD01DC30 
 342      00CF364A 
 343 0377 C5D5879B 		.ascii	"\305\325\207\233\255\012\357X-\314\363\365\205\221\372"
 343      AD0AEF58 
 343      2DCCF3F5 
 343      8591FA
 344 0386 D256A83F 		.ascii	"\322V\250?^\217\336\213\350\177\201\342\332\347\276"
 344      5E8FDE8B 
 344      E87F81E2 
 344      DAE7BE
 345 0395 7AAC644B 		.ascii	"z\254dK\321CEg\224\237\216.\177\2400\330\347g\013\275"
 345      D1434567 
ARM GAS  /tmp/ccT2VTTc.s 			page 27


 345      949F8E2E 
 345      7FA030D8 
 345      E7670BBD 
 346 03a9 EFF8BD7D 		.ascii	"\357\370\275}\243~v \327\223+\014\373#C\027\337z\323"
 346      A37E7620 
 346      D7932B0C 
 346      FB234317 
 346      DF7AD3
 347 03bc A7C14026 		.ascii	"\247\301@&\357\277]\030\032\031\366\317\245^\353<\343"
 347      EFBF5D18 
 347      1A19F6CF 
 347      A55EEB3C 
 347      E3
 348 03cd 7777BFEA 		.ascii	"ww\277\352\247\317\275|65\372\234?\3347\224\313\344"
 348      A7CFBD7C 
 348      3635FA9C 
 348      3FDC3794 
 348      CBE4
 349 03df DFC8E77B 		.ascii	"\337\310\347{Og\301\034-\344O\237\011l'^\374\027\274"
 349      4F67C11C 
 349      2DE44F9F 
 349      096C275E 
 349      FC17BC
 350 03f2 80217F   		.ascii	"\200!\177"
 351              		.text
 352              		.section	.gnu.lto_sd_lld_stop.5584cb8ebeb724a5,"",%progbits
 353 0000 789C9553 		.ascii	"x\234\225S\317k\023A\030\375\276\231\375\225\2326\376"
 353      CF6B1341 
 353      18FDBE99 
 353      FD959A36 
 353      FE
 354 0011 01160441 		.ascii	"\001\026\004A\320\202\243\366\350I\360R\254\027\223"
 354      D082A3F6 
 354      E849F052 
 354      AC1793
 355 0020 80D283A4 		.ascii	"\200\322\203\244\233\220,&F\222Z\020\017\235\265\001"
 355      9B902C26 
 355      46925A10 
 355      0F9DB501 
 356 0030 EBC97A2B 		.ascii	"\353\311z+\366\020\275\264 \242\327\210\010\265H\220"
 356      F610BDB4 
 356      20A2D788 
 356      08B54890 
 357 0040 4A6DC583 		.ascii	"Jm\305\203\332\203\364\346\315\236lE\301\365\233\235"
 357      DA83F4E6 
 357      CD9E6C45 
 357      C1F59B9D 
 358 0050 4E2C4D15 		.ascii	"N,M\025\272\2603\263\337\276\357\275}of\0310\330}\215"
 358      BAB033B3 
 358      DFBEEFBD 
 358      7D6F6619 
 358      30D87D8D 
 359 0064 D09DE600 		.ascii	"\320\235\346\000\347iF\017\220M\277\003\010=\306x\273"
 359      E769460F 
 359      904DBF03 
 359      083DC678 
 359      BB
ARM GAS  /tmp/ccT2VTTc.s 			page 28


 360 0075 1F648FBB 		.ascii	"\037d\217\273t\022d\2223\3539\247'\373\343\022\320\243"
 360      74126492 
 360      33EB39A7 
 360      27FBE312 
 360      D0A3
 361 0087 85AE42A1 		.ascii	"\205\256B\241\315\234\357\256\002\315\266U\331\321\345"
 361      CD9CEFAE 
 361      02CDB655 
 361      D9D1E5
 362 0096 D07311D5 		.ascii	"\320s\021\325\002\020&\030\267l\307\305\211\313\030"
 362      02102618 
 362      B76CC7C5 
 362      89CB18
 363 00a5 AB3D630B 		.ascii	"\253=c\013\353Q\364t\363\313\334\023\274{$\305\260\202"
 363      EB51F474 
 363      F3CBDC13 
 363      BC7B24C5 
 363      B082
 364 00b7 C02140B0 		.ascii	"\300!@\260h \371\000YB\015\004\265\241!\345\364a\000"
 364      6820F900 
 364      59420D04 
 364      B5A121E5 
 364      F46100
 365 00ca 3F6ECDD0 		.ascii	"?n\315\320\250H\263\364\222f\276\014\267\327Z\033\037"
 365      A848B3F4 
 365      9266BE0C 
 365      B7D75A1B 
 365      1F
 366 00db 30878FD0 		.ascii	"0\207\217\320\206\"\362\0018\036 \237\205\007\030\240"
 366      8622F201 
 366      381E209F 
 366      850718A0 
 367 00eb 55447689 		.ascii	"UDv\211f;\026\035Ec\366\015\274\376\032\366vZ\024\204"
 367      663B161D 
 367      4563F60D 
 367      BCFE1AF6 
 367      765A1484 
 368 00ff EF8C248B 		.ascii	"\357\214$\213\034\332\3751\367\247\215\267\314\000\255"
 368      1CDAFD31 
 368      F7A78DB7 
 368      CC00AD
 369 010e 981B893B 		.ascii	"\230\033\211;\224R\216t\363\033\201eXl\375\370\275\212"
 369      94528E74 
 369      F31B8165 
 369      586CFDF8 
 369      BD8A
 370 0120 9D6FD70B 		.ascii	"\235o\327\013\371\353\3451\000\315\346k\360\000<\226"
 370      F9EBE531 
 370      00CDE66B 
 370      F0003C96 
 371 0130 8D7061EB 		.ascii	"\215pa\353\016\013\320\321\304\007\003tIK\361\3426/"
 371      0E0BD0D1 
 371      C4070374 
 371      494BF1E2 
 371      362F
 372 0142 535DF34A 		.ascii	"S]\363JFU\035#1\023\255\222\3579\252k\032\231\370\037"
 372      46551D23 
ARM GAS  /tmp/ccT2VTTc.s 			page 29


 372      3113AD92 
 372      EF39AA6B 
 372      1A99F81F 
 373 0156 09DF9BA4 		.ascii	"\011\337\233\244\265/\022\253\233D\205\371\352~3iRb"
 373      B52F12AB 
 373      9B4485F9 
 373      EA7E3369 
 373      5262
 374 0168 B7E0A79C 		.ascii	"\267\340\247\234\222r\220r\251t\"1\301Z0\217|\005&="
 374      92729072 
 374      A9742231 
 374      C15A308F 
 374      7C05263D 
 375 017c 0D07D068 		.ascii	"\015\007\320h\222\362|\324{\020`\302\240mh\036\342\261"
 375      92F27CD4 
 375      7B1060C2 
 375      A06D681E 
 375      E2B1
 376 018e 40F35F02 		.ascii	"@\363_\002l\227\200\003\337\030\355\334\342\332\314"
 376      6C978003 
 376      DF18EDDC 
 376      E2DACC
 377 019d E619D3E1 		.ascii	"\346\031\323\341ik$\322\243\017\306\001\365\365I\371"
 377      696B24D2 
 377      A30FC601 
 377      F5F549F9 
 378 01ad 704A5AB1 		.ascii	"pJZ\261\221\344\266=\273\263\201\223/\270\351N\020\201"
 378      91E4B63D 
 378      BBB38193 
 378      2FB8E94E 
 378      1081
 379 01bf 02B128DA 		.ascii	"\002\261(\332\212R:\266!\375r\177\274Eel\005\032\353"
 379      8A523AB6 
 379      21FD727F 
 379      BC45656C 
 379      051AEB
 380 01d2 9FEFF575 		.ascii	"\237\357\365u\331\357\365\325\016\201\016\266\357(\245"
 380      D9EFF5D5 
 380      0E810EB6 
 380      EF28A5
 381 01e1 903296DC 		.ascii	"\2202\226\334\370\244\277\247?\352\257\321\014%KU\345"
 381      F8A4BFA7 
 381      3FEAAFD1 
 381      0C254B55 
 381      E5
 382 01f2 7E4894AA 		.ascii	"~H\224\252\225\202\360\253\371\233\"_\030\027~)\030"
 382      9582F0AB 
 382      F99B225F 
 382      18177E29 
 382      18
 383 0203 0DAA7531 		.ascii	"\015\252u1V\273q\355\252\240E)W\026\327\253\265\261"
 383      56BB71ED 
 383      AAA04529 
 383      5716D7AB 
 383      B5B1
 384 0215 BA48672E 		.ascii	"\272Hg.\014\236\026\303\303\347D6}\366bf\374\224\250"
 384      0C9E16C3 
ARM GAS  /tmp/ccT2VTTc.s 			page 30


 384      C3E74436 
 384      7DF66266 
 384      FC94A8
 385 0228 176A41AE 		.ascii	"\027jA\256|\245\\\316\237\360\341\017\231\303\344\213"
 385      7CA55CCE 
 385      9FF0E10F 
 385      99C3E48B 
 386              		.text
 387              		.section	.gnu.lto_.symbol_nodes.5584cb8ebeb724a5,"",%progbits
 388 0000 789C4DCD 		.ascii	"x\234M\315\273N\303@\024\204\3413\347\330\230\004;1"
 388      BB4EC340 
 388      1484E133 
 388      E7D89804 
 388      3B31
 389 0012 A0D47479 		.ascii	"\240\324ty+\212<\311D\270ph\200:\002$\240\342!\250R"
 389      2B8A3CC9 
 389      44B87068 
 389      803A0224 
 389      A0E221A8 
 390 0027 7011845B 		.ascii	"p\021\204[\2707\010\0274\224\210\022\210\235U\326\333"
 390      B8370817 
 390      34948812 
 390      889D55D6 
 390      DB
 391 0038 FCFA6657 		.ascii	"\374\372fWZ\025\225!dvt\014Bv\306\"\344\356fO\257A\251"
 391      5A159521 
 391      6476740C 
 391      4276C622 
 391      E4EE664F 
 392 004f F11254C7 		.ascii	"\361\022T\307\275AO\257@\253\361\023\014\346\204\336"
 392      BD414FAF 
 392      40ABF113 
 392      0CE684DE 
 393 005f 80A1E3FE 		.ascii	"\200\241\343\376\000\341)$\244\350-\270P[\317\200r\275"
 393      00E12924 
 393      A4E82DB8 
 393      505BCF80 
 393      72BD
 394 0071 0323BFEA 		.ascii	"\003#\277\352=\270X{t\016\015h:\001\033~\3053\330\234"
 394      3DB8587B 
 394      740E0D68 
 394      3A011B7E 
 394      C533D89C 
 395 0085 B1DF079E 		.ascii	"\261\337\007\236\300%\257G0\366z\003\023\257\007\260"
 395      C025AF47 
 395      30F67A03 
 395      13AF07B0 
 396 0095 E5F502B6 		.ascii	"\345\365\002\266\275^\301t.\323D\262\374k\315,\221\342"
 396      BD5EC174 
 396      2ED344B2 
 396      FC6BCD2C 
 396      91E2
 397 00a7 B86BA672 		.ascii	"\270k\246r\230\377\254\233\265%\273\370;\011\315ZRl"
 397      98FFAC9B 
 397      B525BBF8 
 397      3B09CD5A 
 397      526C
ARM GAS  /tmp/ccT2VTTc.s 			page 31


 398 00b9 4DB4BC1F 		.ascii	"M\264\274\037mw\252\014\277\325\202T\212\367_Xh\262"
 398      6D77AA0C 
 398      BFD58254 
 398      8AF75F58 
 398      68B2
 399 00cb 5175598E 		.ascii	"QuY\216\312F\316\221scE2\327Q\331\346\352\364\233*Y"
 399      CA46CE91 
 399      73634532 
 399      D751D9E6 
 399      EAF49B2A 
 400 00e0 DEB13890 		.ascii	"\336\2618\220\217\003X\234N\325\225\177G\027|S"
 400      8F03589C 
 400      4ED5957F 
 400      47177C53 
 401              		.text
 402              		.section	.gnu.lto_.refs.5584cb8ebeb724a5,"",%progbits
 403 0000 789C25C6 		.ascii	"x\234%\306\311\015\000 \014\304\300]#B8\332\240\377"
 403      C90D0020 
 403      0CC4C05D 
 403      234238DA 
 403      A0FF
 404 0012 1651841F 		.ascii	"\026Q\204\037##t\365s'<\310\230\004r\220\330\331\026"
 404      232374F5 
 404      73273CC8 
 404      98047290 
 404      D8D916
 405 0025 9BFA53EA 		.ascii	"\233\372S\352\001\022\361\000\314"
 405      0112F100 
 405      CC
 406              		.text
 407              		.section	.gnu.lto_.decls.5584cb8ebeb724a5,"",%progbits
 408 0000 789CBD5C 		.ascii	"x\234\275\\\013t\024\305\232\356\356\231I2$@D\257\213"
 408      0B7414C5 
 408      9AEEEE99 
 408      49322440 
 408      44AF8B
 409 0013 673D9AEB 		.ascii	"g=\232\353\352]\327U\363\000\025=GE\022\324\234\275"
 409      EA5DD755 
 409      F300153D 
 409      474512D4 
 409      9CBD
 410 0025 289BA0EB 		.ascii	"(\233\240\353=\347\356\216M\322\220\321$3\314tx\354"
 410      3DE7EE8E 
 410      4DD290D1 
 410      2433CC74 
 410      78EC
 411 0037 D95D3B01 		.ascii	"\331];\001\302K0$(\011\317\000\202 \020\004\\@\004\035"
 411      C24B3024 
 411      2809CF00 
 411      82201004 
 411      5C40041D 
 412 004b 10218086 		.ascii	"\020!\200\206\200 \306(\006yxQQ\303C\036\021\262\177"
 412      8020C628 
 412      06797851 
 412      51C3431E 
 412      11B27F
 413 005e FDFD98EE 		.ascii	"\375\375\230\356J\367Lw\300\235s\252\272\272\273\352"
ARM GAS  /tmp/ccT2VTTc.s 			page 32


 413      4AF74C77 
 413      C09D73AA 
 413      BABABBEA 
 414 006e ABEFFFEB 		.ascii	"\253\357\377\353\257\277^\235p\014\307\034w3L'\374\366"
 414      AFBF5E9D 
 414      700CC71C 
 414      77334C27 
 414      FCF6
 415 0080 E533CC32 		.ascii	"\3453\3142/\303$3\014\363\030\204$\010\213 \014e\031"
 415      2FC32433 
 415      0CF31884 
 415      24088B20 
 415      0C6519
 416 0093 663B5CFF 		.ascii	"f;\\\377\015\256\373 \034\202\320\203c\230Up%\277\033"
 416      0DAEFB20 
 416      1C82D083 
 416      63985570 
 416      25BF1B
 417 00a6 20DC02F7 		.ascii	" \334\002\367\267A\270\003\302\275\020\262 <\010\341"
 417      B741B803 
 417      C2BD10B2 
 417      203C08E1 
 418 00b6 11088F42 		.ascii	"\021\010\217B\030\010!\027\302\020\010\371\020^\200"
 418      18082117 
 418      C21008F9 
 418      105E80
 419 00c5 F0EF1078 		.ascii	"\360\357\020x\010\005\020\374\020\\\200S\012\327 \204"
 419      080510FC 
 419      105C8053 
 419      0AD72084 
 420 00d5 10C7187E 		.ascii	"\020\307\030~\004\033hb\236\323P\357w\020NB \024.)\327"
 420      041B6862 
 420      9ED350EF 
 420      77104E42 
 420      20142E29 
 421 00ea DBA8328C 		.ascii	"\333\2502\214\302+^\271[L\312\0219\222\025\331{\301"
 421      C22B5EB9 
 421      5B4CCA11 
 421      399215D9 
 421      7BC1
 422 00fc 3505C234 		.ascii	"5\005\3024H\017\205\347\211\212^^`e\235\224\301\263"
 422      480F85E7 
 422      898A5E5E 
 422      60659D94 
 422      C1B3
 423 010e 6738196B 		.ascii	"g8\031k\005+\327E\312\217V\344%\360\377\004\321?R\365"
 423      052BD745 
 423      CA8F56E4 
 423      25F0FF04 
 423      D13F52F5 
 424 0122 103DDD01 		.ascii	"\020=\335\001\327\377\346\242u\020n\244\236\236\254"
 424      D7FFE6A2 
 424      75106EA4 
 424      9E9EAC
 425 0131 CC7BA8A2 		.ascii	"\314{\250\242\027\202\375<\244EHx \375?\\\264~U\256"
 425      1782FD3C 
 425      A4454878 
ARM GAS  /tmp/ccT2VTTc.s 			page 33


 425      20FD3F5C 
 425      B47E55AE 
 426 0145 724E6EA7 		.ascii	"rNn\247\361\234\314\217\360\"\374\011\267\211\020\376"
 426      F19CCC8F 
 426      F022FC09 
 426      B78910FE 
 427 0155 01422584 		.ascii	"\001B%\204\277@h\205\347\223\340:\014B\002\344\035\001"
 427      BF406885 
 427      E793E03A 
 427      0C4202E4 
 427      1D01
 428 0167 F7D0F4CC 		.ascii	"\367\320\364\314\011V\326\313\217\254,K;\204/!\354\201"
 428      0956D6CB 
 428      8FAC2C4B 
 428      3B842F21 
 428      EC81
 429 0179 F009841D 		.ascii	"\360\011\204\035\254,\377\275:\371\356P\332\223\264"
 429      AC2CFFBD 
 429      3AF9EE50 
 429      DA93B4
 430 0188 EB64450F 		.ascii	"\353dE\017\031\224\254\304\036z(6\244\312Jp^\203\347"
 430      1994ACC4 
 430      1E7A2836 
 430      A4CA4A70 
 430      5E83E7
 431 019b 55105640 		.ascii	"U\020V@x[\341\377\037\012\306\"EwY\212\255\320?b_D\027"
 431      785BE1FF 
 431      1F0AC622 
 431      4577598A 
 431      ADD03F62 
 432 01b2 2B3919F7 		.ascii	"+9\031\367>b\223\020\036R\362\272\224<\367*v\306*\366"
 432      3E629310 
 432      1E52F2BA 
 432      943CF72A 
 432      76C62AF6 
 433 01c6 A5FF3D62 		.ascii	"\245\377=b\003\343\021\012#Ha<\252\330\304j\316\330"
 433      03E3110A 
 433      2348613C 
 433      AAD8C46A 
 433      CED8
 434 01d8 470A39B9 		.ascii	"G\0129\271=_P\354\354\204\322\246\217*6O\354\365\026"
 434      3D5F50EC 
 434      EC84D2A6 
 434      8F2A364F 
 434      ECF516
 435 01eb 4546D5EE 		.ascii	"EF\325\356\365?\322g\376\240p\320\333\307\032\245\015"
 435      F53FD267 
 435      FEA070D0 
 435      DBC71AA5 
 435      0D
 436 01fc D43EA8DA 		.ascii	"\324>\250\332\201^\227\015\212._\202\353\032b\313\\"
 436      815E970D 
 436      8A2E5F82 
 436      EB1A62CB 
 436      5C
 437 020d D44EDE81 		.ascii	"\324N\336\201tO\"3+\353x\011\204T\010\347\341\376&\270"
 437      744F2233 
ARM GAS  /tmp/ccT2VTTc.s 			page 34


 437      2BEB7809 
 437      845408E7 
 437      E1FE26B8 
 438 0221 5E81EBCD 		.ascii	"^\201\353\315DV\010}\270\250=\264+\266=P\351\257k\025"
 438      4456087D 
 438      B8A83DB4 
 438      2BB63D50 
 438      E9AF6B15 
 439 0235 DD3D09D7 		.ascii	"\335=\011\327\301J\2375\223\203\364\373TF\346}R\341"
 439      C14A9F35 
 439      9383F4FB 
 439      5446E67D 
 439      52E1
 440 0247 AEE7ADF2 		.ascii	"\256\347\255\362\332\000\371\372q\3266\221\240pVm\224"
 440      DA00F9FA 
 440      71D63691 
 440      A070566D 
 440      94
 441 0258 F06415FE 		.ascii	"\360d\025\376n\245\236\215\\\324^\010\327\177\261\340"
 441      6EA59E8D 
 441      5CD45E08 
 441      D77FB1E0 
 442 0268 D4879929 		.ascii	"\324\207\231)\301\257>\241\261\027!\302\263\275\274"
 442      C1AF3EA1 
 442      B11721C2 
 442      B3BDBC
 443 0277 4C1A2652 		.ascii	"L\032&R\274\010v\027\363\246$U\265\235\370\256\257\344"
 443      BC087617 
 443      F3A62455 
 443      B59DF8AE 
 443      AFE4
 444 0289 E6D9456C 		.ascii	"\346\331El\037h\246\207Y\346\036f\005\024\253\222\244"
 444      1F68A687 
 444      59E61E66 
 444      0514AB92 
 444      A4
 445 029a 8A3FB15D 		.ascii	"\212?\261]-2>,\307<\3132<\273\024\360x\366M\366\036"
 445      2D323E2C 
 445      C73CCB32 
 445      3CBB14F0 
 445      78F64DF6 
 446 02af B91E29B2 		.ascii	"\271\036)\262\261\362&R\017y\316(oL~\177d\352\241\346"
 446      B1F22652 
 446      0F79CE28 
 446      6F4C7E7F 
 446      64EAA1E6 
 447 02c3 C87B95F3 		.ascii	"\310{\225\363o\221\352\267\263\311\314T\270\225\352"
 447      6F91EAB7 
 447      B3C9CC54 
 447      B895EA
 448 02d2 2BA5A71B 		.ascii	"+\245\247\033{)U\247\351j\256g\325\252o\322$\212\264"
 448      7B2955A7 
 448      E96AAE67 
 448      D5AA6FD2 
 448      248AB4
 449 02e5 5E61D378 		.ascii	"^a\323x\366m\024\350\257\254\241\256\270\020\034SBJ"
 449      F66D14E8 
ARM GAS  /tmp/ccT2VTTc.s 			page 35


 449      AFACA1AE 
 449      B8101C53 
 449      424A
 450 02f7 ACA6D99F 		.ascii	"\254\246\331\237\347\323\344\247\361\271_8\265\233\225"
 450      E7D3E4A7 
 450      F1B95F38 
 450      B59B95
 451 0306 AA537876 		.ascii	"\252Sxv\005\320\347\230\377R\361\314\224\245$\345\237"
 451      05D0E798 
 451      FF52F1CC 
 451      94A524E5 
 451      9F
 452 0317 92C188F6 		.ascii	"\222\301\210\366\233\320\230\021W\013n\025('\332\256"
 452      9BD09811 
 452      570B6E15 
 452      2827DAAE 
 453 0327 B55377B0 		.ascii	"\265Sw\260\222\224\304\263\357\242\"\266\262\3615a\200"
 453      9294C4B3 
 453      EFA222B6 
 453      B2F13561 
 453      80
 454 0338 E1989D58 		.ascii	"\341\230\235Xd#\245\212\266\3753\216\224\263\345\222"
 454      6423A58A 
 454      B6FD338E 
 454      94B3E592 
 455 0348 C4CAEFE2 		.ascii	"\304\312\357\342+\244CiL\236]\217\032\231\310\251\270"
 455      2BA44369 
 455      4C9E5D8F 
 455      1A99C8A9 
 455      B8
 456 0359 DD53C9D5 		.ascii	"\335S\311\325\235)U\274\012\366\252c\2604\003X\315\256"
 456      9D2955BC 
 456      0AF6AA63 
 456      B0340358 
 456      CDAE
 457 036b 7948CECB 		.ascii	"yH\316\313L\216\3528f\2079|\240i?;\036\345\377\020\212"
 457      4C8EEA38 
 457      6687397C 
 457      A0693F3B 
 457      1EE5FF10 
 458 0380 71CC579C 		.ascii	"q\314W\234Q\265\366\241\352f\177\274\215\255@\250\355"
 458      51B5F6A1 
 458      EA667FBC 
 458      8DAD40A8 
 458      ED
 459 0391 0835C5D5 		.ascii	"\0105\305\325]\250Cs\266<\214\315\3751\002\355\242\200"
 459      5DA84373 
 459      B63C8CCD 
 459      FD3102ED 
 459      A280
 460 03a3 78365153 		.ascii	"x6QS\243v\257f h\370ZI\220\251Ro\346w\316\3161\007\\"
 460      A376AF66 
 460      2068F85A 
 460      4990A952 
 460      6FE677CE 
 461 03bb 369A2EC9 		.ascii	"6\232.\311\312\016\244\266\346\031'\330:)2\301e\303"
 461      CA0EA4B6 
ARM GAS  /tmp/ccT2VTTc.s 			page 36


 461      E61927D8 
 461      3A2932C1 
 461      65C3
 462 03cd 27B5605D 		.ascii	"'\265`]{h[\256Yx\272B\261\345=\266ly\343\336\331\366"
 462      7B685BAE 
 462      5978BA42 
 462      B1E53DB6 
 462      6C79E3DE 
 463 03e3 1C13A7D6 		.ascii	"\034\023\247\326\177'\326?\327M\352\337G\327\277\360"
 463      7F27D63F 
 463      D74DEADF 
 463      47D7BFF0 
 464 03f3 D8DF1EAB 		.ascii	"\330\337\036\253\225\244T\371U\374\352\327\036\230\325"
 464      95A454F9 
 464      55FCEAD7 
 464      1E98D5
 465 0402 B57A9E7D 		.ascii	"\265z\236}\354\017\261L\243f\341\2563\212\220\237a\237"
 465      EC0FB14C 
 465      A366E1AE 
 465      338A909F 
 465      619F
 466 0414 39E1A68D 		.ascii	"9\341\246\215\343\361dc\363\301\275.\003\307\374\244"
 466      E3F16463 
 466      F3C1BD2E 
 466      03C7FCA4 
 467 0424 D1EF5697 		.ascii	"\321\357V\227\0059\033sW\254\223\244)\011*\207v\307"
 467      05391B73 
 467      57AC93A4 
 467      29092A87 
 467      76C7
 468 0436 8869064D 		.ascii	"\210i\006M\274{\000\235\200\014v\316\016\230\245%UD"
 468      BC7B009D 
 468      800C76CE 
 468      0E98A525 
 468      5544
 469 0448 36E8C12E 		.ascii	"6\350\301.8\00632\333\244\007\273l\007,\325\232\331"
 469      38063332 
 469      DBA407BB 
 469      6C072CD5 
 469      9AD9
 470 045a 663DD815 		.ascii	"f=\330\025\307`Ff[\364`\222\307\006X_kf\037\350\301"
 470      C7604666 
 470      5BF46092 
 470      C706585F 
 470      6B661FE8 
 471 046f 26380633 		.ascii	"&8\00632k\326\203M\266\003\226f\302L\373\231\225#f\335"
 471      326BD683 
 471      4DB60396 
 471      66C24CFB 
 471      99952366 
 472 0484 C46A76CE 		.ascii	"\304jv\3161\323<\252Kph\323L\024\3435\217S\027f\220"
 472      31D33CAA 
 472      4B7068D3 
 472      4C14E335 
 472      8F531766 
 473 0499 1BC6D293 		.ascii	"\033\306\322\223\213\330\232\361Rc\206:\236\275n\007"
 473      8BD89AF1 
ARM GAS  /tmp/ccT2VTTc.s 			page 37


 473      5263863A 
 473      9EBD6E07 
 474 04a9 3186C1CC 		.ascii	"1\206\301\314\331\245\033\034\347;\006\243L\231\200"
 474      D9A51B1C 
 474      E73B06A3 
 474      4C9980
 475 04b8 197C8D32 		.ascii	"\031|\2152 \265-\215\364\255\215z\273$\025\213\314\030"
 475      20B52D8D 
 475      F4AD8D7A 
 475      BB24158B 
 475      CC18
 476 04ca 65D70613 		.ascii	"e\327\006\023HN\313,\365\355k\236\227g\177a\357\202"
 476      484ECB2C 
 476      F5ED6B9E 
 476      97677F61 
 476      EF82
 477 04dc B89DF56A 		.ascii	"\270\235\365j,\344\264\232\352d\211\236\227z\314\346"
 477      2CE4B49A 
 477      EA64899E 
 477      977ACCE6 
 478 04ec A20810BB 		.ascii	"\242\010\020\273\250\225%\374\244\267\204\267\355\250"
 478      A89525FC 
 478      A4B784B7 
 478      EDA8
 479 04fa 294657F8 		.ascii	")FW\370f\327\274\277\223\332\"\254N\336\230\312\201"
 479      66D7BCBF 
 479      93DA22AC 
 479      4EDE98CA 
 479      81
 480 050b 3944F5A7 		.ascii	"9D\365\247\352\034\342<\216\327k=\246\003\277\015\250"
 480      EA1CE23C 
 480      8ED76B3D 
 480      A603BF0D 
 480      A8
 481 051c BAD9ABFF 		.ascii	"\272\331\253\377\031\007\376\213\010\264\271\333@\207"
 481      1907FE8B 
 481      08B4B9DB 
 481      4087
 482 052a E62C1880 		.ascii	"\346,\030\200@\035\010\264\335C\017\022,5\203`\215c"
 482      401D08B4 
 482      DD430F12 
 482      2C358360 
 482      8D63
 483 053c BCA67B45 		.ascii	"\274\246{E\365\277W^\216\371\204n/\2038q\275M\333\376"
 483      F5BF575E 
 483      8EF9846E 
 483      2F833871 
 483      BD4DDBFE 
 484 0550 A62B33D9 		.ascii	"\246+3\331\263\025Rm\206\203\026;\360\211\332b\304\260"
 484      B315526D 
 484      8683163B 
 484      F089DA62 
 484      C4B0
 485 0562 39E66017 		.ascii	"9\346`\027\375\\t\250 \2309:\026\344n\243 3vT;\027D"
 485      FD5C74A8 
 485      2098393A 
 485      16E46EA3 
ARM GAS  /tmp/ccT2VTTc.s 			page 38


 485      20337654 
 486 0579 33BD8928 		.ascii	"3\275\211(\310\361\353 \310\217\216\005\311\320\011"
 486      C8F1EB20 
 486      C88F8E05 
 486      C9D009
 487 0588 42D614E7 		.ascii	"B\326\024\347\253e?x#S\035{.G\370L\345n4.\317Z\366\220"
 487      AB653F78 
 487      23531D7B 
 487      2E47F84C 
 487      E56E342E 
 488 05a0 251F791C 		.ascii	"%\037y\034o\016%E.\354\321\315\370%[3\376\352}\252\312"
 488      6F0E2545 
 488      2EECD1CD 
 488      F8255B33 
 488      FEEA7DAA 
 489 05b5 A6A3CACE 		.ascii	"\246\243\312\316\232u2[Pu\207w\254Uf\374U\010u\251\333"
 489      9A75325B 
 489      50758777 
 489      AC5566FC 
 489      550875A9 
 490 05ca 5087BEDC 		.ascii	"P\207\276\334(\367\327\032\004*O\240\2331\201j\305\004"
 490      28F7D71A 
 490      042A4FA0 
 490      9B31816A 
 490      C504
 491 05dc 632BC22D 		.ascii	"c+\302-\251\351\"\231\217\263\257(O\310M\"\363\377^"
 491      A9E92299 
 491      8FB3AF28 
 491      4FC84D22 
 491      F3FF5E
 492 05ef 0E4663A4 		.ascii	"\016Fc\244OZ\260;3LbA'\252\325\221Tn\244\352kB\254\210"
 492      4F5AB03B 
 492      334C6241 
 492      27AAD591 
 492      546EA4EA 
 493 0607 AC9FA62E 		.ascii	"\254\237\246.[\037'c\351\334k\204\333\277\327\361B\263"
 493      5B1F2763 
 493      E9DC6B84 
 493      DBBFD7F1 
 493      42B3
 494 0619 FAA06A76 		.ascii	"\372\240jv\363P\242\305]\232x;\335S\355\254\273\032"
 494      F350A2C5 
 494      5D9A783B 
 494      DD53EDAC 
 494      BB1A
 495 062b BA2B89F6 		.ascii	"\272+\211\366\343\230\377M\2601d\246\305h\256\246\013"
 495      E398FF4D 
 495      B03164A6 
 495      C568AEA6 
 495      0B
 496 063c 4A73D9DD 		.ascii	"Js\331\335\247\252\333\263\263\234\235\200\332X\314"
 496      A7AADBB3 
 496      B39C9D80 
 496      DA58CC
 497 064b 911D8DF7 		.ascii	"\221\035\215\367(m\330X\0056b\221\245\\\227\035\215"
 497      286DD858 
 497      05366291 
ARM GAS  /tmp/ccT2VTTc.s 			page 39


 497      A55C971D 
 497      8D
 498 065c 4FD51D0D 		.ascii	"O\325\035\015\362\316\306*\320\260\243\301\263\357\263"
 498      F2CEC62A 
 498      D0B0A3C1 
 498      B3EFB3
 499 066b 9C82DB5D 		.ascii	"\234\202\333]\215\032\0321J\220g\337\342\310\374h9\367"
 499      8D1A1A31 
 499      4A9067DF 
 499      E2C8FC68 
 499      39F7
 500 067d 47BDF6BF 		.ascii	"G\275\366\277p\254\3754\275\366#\035{\347\261\204\277"
 500      70ACFD34 
 500      BDF6231D 
 500      7BE7B184 
 500      BF
 501 068e C9C275A0 		.ascii	"\311\302u\240~\326\252\252~j\323LE\365+Q\365\337Z\250"
 501      7ED6AAAA 
 501      7E6AD34C 
 501      45F52B51 
 501      F5DF5AA8 
 502 06a2 7EA01510 		.ascii	"~\240\025\020\307\234\301\"\015]T\337tPU}\203-\325\037"
 502      C79CC122 
 502      0D5D54DF 
 502      7450557D 
 502      832DD51F 
 503 06b6 32557D83 		.ascii	"2U}\203s\325+x\237G7\223xv\253c\260\264X\355\330\240"
 503      73D52B78 
 503      9F473793 
 503      7876AB63 
 503      B0B458ED 
 504 06cc 6BC777B0 		.ascii	"k\307w\260\035\327B;\362\354:ck\216O\244Z\323\240:%"
 504      1DD7423B 
 504      F2EC3A63 
 504      6B8E4FA4 
 504      5AD3A03A 
 505 06e1 79B79508 		.ascii	"y\267\225\010R\244\246i\236\242\022\331\361\315\240"
 505      52A4A669 
 505      9EA212D9 
 505      F1CDA0
 506 06f0 F1CCA4C8 		.ascii	"\361\314\244\310\260V\311\202&T\211\354sf9\006K3\200"
 506      B056C982 
 506      265489EC 
 506      73663906 
 506      4B3380
 507 0703 6D9D616F 		.ascii	"m\235ao'W\322\266aSQ)\013\261\336\315\264\275\314\355"
 507      2757D2B6 
 507      61535129 
 507      0BB1DECD 
 507      B4BDCCED 
 508 0717 689EA4D8 		.ascii	"h\236\244\330\313f\033\366\002\243\375\011/n\306\312"
 508      CB661BF6 
 508      02A3FD09 
 508      2F6EC6CA 
 509 0727 86DBA2A1 		.ascii	"\206\333\242\241\306Pu\014k\351P\367v\345\365\325Q\032"
 509      C650750C 
 509      6BE950F7 
ARM GAS  /tmp/ccT2VTTc.s 			page 40


 509      76E5F5D5 
 509      511A
 510 0739 2EEEF2CF 		.ascii	".\356\362\317\010w\325\306\346\256Q1\352\026\367{d\276"
 510      0877D5C6 
 510      E6AE5131 
 510      EA16F77B 
 510      64BE
 511 074b F311CA74 		.ascii	"\363\021\312t*\221\036\025d\315\350\014q\263\316\020"
 511      2A911E15 
 511      64CDE80C 
 511      71B3CE10 
 512 075b B7A0216E 		.ascii	"\267\240!nEC\374\020\343mzs\264\232rm\347t\013\246v"
 512      4543FC10 
 512      E36D7A73 
 512      B49A726D 
 512      E7740BA6 
 513 0770 C772A751 		.ascii	"\307r\247Q\255cU\315{\372j.\332\261\275\001\226\352"
 513      AD6355CD 
 513      7BFA6A2E 
 513      DAB1BD01 
 513      96EA
 514 0782 05BF7EA8 		.ascii	"\005\277~\250F\235\023\310[\265\025IN\021\215\326\334"
 514      469D13C8 
 514      5BB51549 
 514      4E118DD6 
 514      DC
 515 0793 3EC33027 		.ascii	">\3030'\230n\007n\240\011A\263\237~\253\035\024\201"
 515      986E076E 
 515      A00941B3 
 515      9F7EAB1D 
 515      1481
 516 07a5 EBE2CD2C 		.ascii	"\353\342\315,i\240-\030\177\200\361n\214Oa\374\003\306"
 516      69A02D18 
 516      7F80F16E 
 516      8C4F61FC 
 516      03C6
 517 07b7 A7313E87 		.ascii	"\2471>\207q'\306\023\260Y\247`\274\010\343\2671~\027"
 517      7127C613 
 517      B059A760 
 517      BC08E3B7 
 517      317E17
 518 07ca E30D186F 		.ascii	"\343\015\030o\302\270"
 518      C2B8
 519 07d0 11E33D76 		.ascii	"\021\343=v\014@\366\220\272=\301\327\223\234\236l\030"
 519      0C40F690 
 519      BA3DC1D7 
 519      939C9E6C 
 519      18
 520 07e1 74D936F1 		.ascii	"t\3316\361\333F\027n\337\252\256f\221\035\300\030\275"
 520      DB46176E 
 520      DFAAAE66 
 520      911DC018 
 520      BD
 521 07f2 691671E5 		.ascii	"i\026q\345N\366\361\265\351U3\326\2772\351\272L\257"
 521      4EF6F1B5 
 521      E95533D6 
 521      BF32E9BA 
ARM GAS  /tmp/ccT2VTTc.s 			page 41


 521      4CAF
 522 0804 36391683 		.ascii	"69\026\203\322\3131M/2\257mv\000\315\266\204\314\255"
 522      D2CB314D 
 522      2F32AF6D 
 522      7600CDB6 
 522      84CCAD
 523 0817 6CB5CECA 		.ascii	"l\265\316\312\326\240\225\275\203V\263\016\343O\321"
 523      D6A095BD 
 523      8356B30E 
 523      E34FD1
 524 0826 22F6617C 		.ascii	"\"\366a|\320\216]\254\320\357\244\354MR\317\376\256"
 524      D08E5DAC 
 524      D0EFA4EC 
 524      4D52CFFE 
 524      AE
 525 0837 CF444847 		.ascii	"\317DHG\365-\244\272\234\325Q\212\347:#\211j\225cu\315"
 525      F52DA4BA 
 525      9CD5518A 
 525      E73A2389 
 525      6A956375 
 526 084c BE6CFFAD 		.ascii	"\276l\377\255[q\313\375\013t\237S\274q\017\306\2148"
 526      5B71CBFD 
 526      0B749F53 
 526      BC710FC6 
 526      8C38
 527 085e 3CFB2547 		.ascii	"<\373%G\246\011\255\324\330\024\2714)\205\234p\266\332"
 527      A609ADD4 
 527      D814B934 
 527      29859C70 
 527      B6DA
 528 0870 9AC75CD9 		.ascii	"\232\307\\\331\365\246\345\270\010\031X\375\010\240"
 528      F5A6E5B8 
 528      081958FD 
 528      08A0
 529 087e 9D25A4A1 		.ascii	"\235%\244\241\222\337\000\306f\003\205!\033\317\266"
 529      92DF00C6 
 529      66038521 
 529      1BCFB6
 530 088d 21CBA334 		.ascii	"!\313\2434\313\317d\226G\355\315\266v\341xg y3\363\272"
 530      CBCF6496 
 530      47EDCDB6 
 530      76E17867 
 530      207933F3 
 531 08a2 B2429558 		.ascii	"\262B\225X\321~w\233\277\362\350#kP\357'\321\252[\274"
 531      D17E779B 
 531      BFF2E823 
 531      6B50EF27 
 531      D1AA5BBC 
 532 08b6 746FF350 		.ascii	"to\363P\235\315c\354l\036o4\241t6+\233<\301\335\214"
 532      9DCD63EC 
 532      6C1E6F34 
 532      A174362B 
 532      9B3CC1DD 
 533 08cb 29177E79 		.ascii	")\027~y\300\240\267V\322Nw3y\366\022\032^\234-\020+"
 533      C0A0B756 
 533      D24E7733 
 533      79F6121A 
ARM GAS  /tmp/ccT2VTTc.s 			page 42


 533      5E9C2D10 
 534 08e0 263F70FA 		.ascii	"&?p\372\223\025\215\017Q\001&\236si/\255 \216\353\207"
 534      93158D0F 
 534      5101269E 
 534      73692FAD 
 534      208EEB87 
 535 08f4 C436D4DA 		.ascii	"\3046\324\332\321\356Nw\211\365\337\206#\242u\223\312"
 535      D1EE4E77 
 535      89F5DF86 
 535      23A27593 
 535      CA
 536 0905 ECACD8B4 		.ascii	"\354\254\330\264\333T\255\274\213d\205r\356\332\325"
 536      DB54ADBC 
 536      8B648572 
 536      EEDAD5
 537 0914 F28B5E2D 		.ascii	"\362\213^-'\035\253%M\257\026i\235$y\023b\251dz\014"
 537      271DAB25 
 537      4DAF1669 
 537      9D247913 
 537      62A9647A 
 538 0929 955CB256 		.ascii	"\225\\\262V\211\266\227fK\244\213z\221~\260#\222\365"
 538      89B69766 
 538      4BA48B7A 
 538      917EB023 
 538      92F5
 539 093b 68786D22 		.ascii	"hxm\"u\232\210dK\204\253\0345K\370\331\261\030\327\261"
 539      759A8864 
 539      4B84AB1C 
 539      354BF8D9 
 539      B118D7B1 
 540 094f 6526B8E2 		.ascii	"e&\270\342\267\214r\257\270\002\251R\272{y\324\025\244"
 540      B78C72AF 
 540      B802A952 
 540      BA7B79D4 
 540      15A4
 541 0961 AA88248F 		.ascii	"\252\210$\217\266\032\336x\017\356\273Mv\341^ \345\307"
 541      B61ADE78 
 541      0FEEBB4D 
 541      76E15E20 
 541      E5C7
 542 0973 6C03D5D7 		.ascii	"l\003\325\327\315\276\231x\342i\010s\245\2730m\207\346"
 542      CDBE9978 
 542      E2690873 
 542      A5BB306D 
 542      87E6
 543 0985 BC259FFC 		.ascii	"\274%\237\374\317@\240\312\036\264_uQ~\325ete.o4\321"
 543      CF40A0CA 
 543      1EB45F75 
 543      517ED565 
 543      74652E6F 
 544 099b D9E9627E 		.ascii	"\331\351b~\337\314\266\254h\274K\327\021f\366\260aA"
 544      DFCCB6AC 
 544      68BC4BD7 
 544      1166F6B0 
 544      6141
 545 09ad D62762F6 		.ascii	"\326'b\366\\^,+\232\025\313\212&\273\354\367\357\032"
 545      5C5E2C2B 
ARM GAS  /tmp/ccT2VTTc.s 			page 43


 545      9A15CB8A 
 545      26BBECF7 
 545      EF1A
 546 09bf BD586F38 		.ascii	"\275Xo8\026+M/V\374\216\021\313\213\317\211%\2222f\321"
 546      162B4D2F 
 546      56FC8E11 
 546      CB8BCF89 
 546      25923266 
 547 09d4 5EB95B22 		.ascii	"^\271[\"\327\351E\236kGd\353s\266k\023yq,\221\317]G"
 547      D7E9459E 
 547      6B4764EB 
 547      73B66B13 
 547      79712C91 
 548 09eb 9117E945 		.ascii	"\221\027\351E^\354X\3444\306\370S;\024\317\036\303I"
 548      5EEC58E4 
 548      34C6F853 
 548      3B14CF1E 
 548      C349
 549 09fd F9CF185F 		.ascii	"\371\317\030_\300\370\012\306\025.\022Wc\\\213q\275"
 549      C0F80AC6 
 549      152E1257 
 549      635C8B71 
 549      BD
 550 0a0e CBC6C4FD 		.ascii	"\313\306\304\375\210~\264Y\216<[\2739\257\220\"W\345"
 550      887EB459 
 550      8E3C5BBB 
 550      39AF9022 
 550      57E5
 551 0a20 6367F92B 		.ascii	"cg\371+\302U\216\301\322\014\355\334 I\256\204D\246"
 551      C2558EC1 
 551      D20CEDDC 
 551      2049AE84 
 551      44A6
 552 0a32 12E76613 		.ascii	"\022\347f\023+\342\234hE.'p<\273\312\225\0105\257\243"
 552      2BE29C68 
 552      452E2770 
 552      3CBBCA95 
 552      0835AFA3 
 553 0a46 9C9F0D10 		.ascii	"\234\237\015\020\242\2125P\3300I>[\331\233\270f\362"
 553      A28A3550 
 553      D830493E 
 553      5BD99BB8 
 553      66F2
 554 0a58 3CC62419 		.ascii	"<\306$\031\315\203c\266\364\220\267h\334\336\350\263"
 554      CD8363B6 
 554      F490B768 
 554      DCDEE8B3 
 555 0a68 9DD167AC 		.ascii	"\235\321g\254.kS\364\261\372\271\246\331l\322\320\374"
 555      2E6B53F4 
 555      B1FAB9A6 
 555      D96CD2D0 
 555      FC
 556 0a79 5172B052 		.ascii	"Qr\260Rs\341.\242\313eZ\214c\016\323\2327;\207\263\376"
 556      73E12EA2 
 556      CB655A8C 
 556      630ED39A 
 556      373B87B3 
ARM GAS  /tmp/ccT2VTTc.s 			page 44


 557 0a8e A42AD2B9 		.ascii	"\244*\322\271\213\354\226\305\375\236I\031y:6\234\272"
 557      8BEC96C5 
 557      FD9E4919 
 557      793A369C 
 557      BA
 558 0a9f 75154EE9 		.ascii	"u\025N\351\337s\221v\237\225\034\377\033C\023\234\310"
 558      DF739176 
 558      9F951CFF 
 558      1B43139C 
 558      C8
 559 0ab0 CC9DB712 		.ascii	"\314\235\267\022moA\220\305NA8f5\026\371\320E\255t\266"
 559      6D6F4190 
 559      C54E4138 
 559      663516F9 
 559      D045AD74 
 560 0ac5 56E24A87 		.ascii	"V\342J\207<\217\277O\370\341NyK\\\335)\334\240a*\225"
 560      3C8FBF4F 
 560      F8E14E79 
 560      4B5CDD29 
 560      DCA0612A 
 561 0ada 0ED4AB2F 		.ascii	"\016\324\253/\356D;\322,\357+\313k\235\010\015\346p"
 561      EE443BD2 
 561      2CEF2BCB 
 561      6B9D080D 
 561      E670
 562 0aec 67E3336D 		.ascii	"g\3433m\323\2338*\216\331\343\030\317\320\301\"\007"
 562      D39B382A 
 562      8ED9E318 
 562      CFD0C122 
 562      07
 563 0afd 657232D8 		.ascii	"er2\330gv\300b|q\362\205\036\254\3051\230\221\331\227"
 563      6776C062 
 563      7C71F285 
 563      1EACC531 
 563      9891D997 
 564 0b11 7AB0A376 		.ascii	"z\260\243v\300b|\227\361\365\316y]\327\330\324\220a"
 564      C0627C97 
 564      F1F5CE79 
 564      5DD7D8D4 
 564      9061
 565 0b23 F1E91C31 		.ascii	"\361\351\0341\230f\343\210A-o\266X\320\"%\017D\207\200"
 565      9866E388 
 565      412D6FB6 
 565      58D02225 
 565      0F448780 
 566 0b37 B84386D2 		.ascii	"\270C\206\322\007f\313\237G\357s\021\301OQ}\200\252"
 566      0766CB9F 
 566      47EF7311 
 566      C14F517D 
 566      80AA
 567 0b49 9A10B3AA 		.ascii	"\232\020\263\252\372\220+\331\302\326\273\274\203\271"
 567      FA902BD9 
 567      C2D6BBBC 
 567      83B9
 568 0b57 AB63051B 		.ascii	"\253c\005\033[\353\233J\303v\350ov\340\322L\332\313"
 568      5BEB9B4A 
 568      C376E86F 
ARM GAS  /tmp/ccT2VTTc.s 			page 45


 568      76E0D24C 
 568      DACB
 569 0b69 ECA7EFD0 		.ascii	"\354\247\357\320<\273\015\035\337v\034\335v`\274\023"
 569      3CBB0D1D 
 569      DF761CDD 
 569      7660BC13 
 570 0b79 E3468CF7 		.ascii	"\343F\214\367`\374\011\306M\030\037\326\217\200\277"
 570      60FC09C6 
 570      4D181FD6 
 570      8F80BF
 571 0b88 0F2AC78C 		.ascii	"\017*\307\214O\241\274\255\3211\305\353\207\022LM/\335"
 571      4FA1BCAD 
 571      D131C5EB 
 571      87124C4D 
 571      2FDD
 572 0b9a 5E23450F 		.ascii	"^#E\017Amx\334\375\267\311\036\267\025\235\345\324\024"
 572      416D78DC 
 572      FDB7C91E 
 572      B7159DE5 
 572      D414
 573 0bac 7AB2BFC5 		.ascii	"z\262\277\305E\355\375_Gy\353l\311ky\262\244\311[\233"
 573      45EDFD5F 
 573      4779EB6C 
 573      C96B79B2 
 573      A4C95B9B 
 574 0bc0 71035385 		.ascii	"q\003S\205\362\326\032\367\011\214g\035\270\211\345"
 574      F2D61AF7 
 574      098C671D 
 574      B889E5
 575 0bcf BA015386 		.ascii	"\272\001S\206\317\"0\207U\0078\352\212~\017\226\342"
 575      CF223087 
 575      550738EA 
 575      8A7E0F96 
 575      E2
 576 0be0 8D267A6B 		.ascii	"\215&zkb\324\323b\030\253U\222C-\233\215,\313\\\011"
 576      62D4D362 
 576      18AB5592 
 576      432D9B8D 
 576      2CCB5C09 
 577 0bf4 32378E59 		.ascii	"27\216Yb\013\355E+4\263Y\255j\015\272\205_\233\006z"
 577      620BED45 
 577      2B34B359 
 577      AD6A0DBA 
 577      855F9B06 
 578 0c09 6BD41AE6 		.ascii	"k\324\032\346\035\333\277E\371\230\344;4\2076\312\034"
 578      1DDBBF45 
 578      F998E43B 
 578      348736CA 
 578      1C
 579 0c1a E2021185 		.ascii	"\342\002\021\205}O\217\233\207\032v\313\1779\360}\374"
 579      7D4F8F9B 
 579      871A76CB 
 579      7F39F07D 
 579      FC
 580 0c2b 9173C2F8 		.ascii	"\221s\302\370HK\303n\256V\212T\270\260\215\306\307\\"
 580      484BC36E 
 580      AE568A54 
ARM GAS  /tmp/ccT2VTTc.s 			page 46


 580      B8B08DC6 
 580      C75C
 581 0c3d B2F2ECAB 		.ascii	"\262\362\354\253h\202\361\026\212\034\363\023\212\362"
 581      6882F116 
 581      8A1CF313 
 581      8AF2
 582 0c4b 7DD49718 		.ascii	"}\324\227\030p\342\217\277\255\015\247Xd\245.\260\333"
 582      70E28FBF 
 582      AD0DA758 
 582      64A52EB0 
 582      DB
 583 0c5c 1D03A61A 		.ascii	"\035\003\246\032\304\374Z\025\223gO#`\207c@C\273G\276"
 583      C4FC5A15 
 583      93674F23 
 583      60876340 
 583      43BB47BE 
 584 0c70 A1195E75 		.ascii	"\241\031^u\014\230a`\330N3\234\334\323\006`\214i\307"
 584      0C986160 
 584      D84E339C 
 584      DCD30660 
 584      8C69C7
 585 0c83 599AE1AB 		.ascii	"Y\232\341\253\216\001\215:<O3|\3031\240Q\207\027h\206"
 585      8E018D3A 
 585      3C4F337C 
 585      C331A051 
 585      87176886 
 586 0c97 731C031A 		.ascii	"s\034\003\032ux\211f\370\246\035\300\030\263\243\016"
 586      75788966 
 586      F8A61DC0 
 586      18B3A30E 
 587 0ca7 9AE172C7 		.ascii	"\232\341r\307\200F\035^\241\031\256s\014h\324a'\315"
 587      80461D5E 
 587      A119AE73 
 587      0C68D461 
 587      27CD
 588 0cb9 70836340 		.ascii	"p\203c@\243\016g\256\241\030F\354\000\306\230\307\325"
 588      A30E67AE 
 588      A11846EC 
 588      00C698C7 
 588      D5
 589 0cca ACA1187E 		.ascii	"\254\241\030~\354\0300\225\261\374\351= \317\376\200"
 589      EC183095 
 589      B1FCE93D 
 589      20CFFE80 
 590 0cda FEE9471C 		.ascii	"\376\351G\034\376~\306\270\035\343\263\030\237\307\370"
 590      FE7EC6B8 
 590      1DE3B318 
 590      9FC7F8
 591 0ce9 02C69730 		.ascii	"\002\306\2270\356\300\370\012\306\235\030\227\273I<"
 591      EEC0F80A 
 591      C69D1897 
 591      BB493C
 592 0cf8 1EE38918 		.ascii	"\036\343\211\030Or\333X\216\237\324o\033\354\353ic\005"
 592      4F72DB58 
 592      8E9FD46F 
 592      1BECEB69 
 592      6305
ARM GAS  /tmp/ccT2VTTc.s 			page 47


 593 0d0a 1D346953 		.ascii	"\0354iSs\001[u\347\377_\341\371\377\327\270s\260\002"
 593      73015B75 
 593      E7FF5FE1 
 593      F9FFD7B8 
 593      73B002
 594 0d1d 09AFC478 		.ascii	"\011\257\304x\023\306_b\374\015\306\3070>ag/\341pt/"
 594      13C65F62 
 594      FC0DC6C7 
 594      303E6167 
 594      2FE17074 
 595 0d32 C1C681D6 		.ascii	"\301\306\201\326\213jq\362\367\236\312X\326\372\323"
 595      8B6A71F2 
 595      F79ECA58 
 595      D6FAD3
 596 0d41 EE47C961 		.ascii	"\356G\311a\254\311L\310\220\035F\020\367]f\213BC.\222"
 596      ACC94CC8 
 596      901D4610 
 596      F75D668B 
 596      42432E92 
 597 0d55 6F869B1A 		.ascii	"o\206\233\032\327\276i\302\365 y\036\377\344\353B\323"
 597      D7BE69C2 
 597      F520791E 
 597      FFE4EB42 
 597      D3
 598 0d66 02656A2B 		.ascii	"\002ej+\377e\326\302^\254\202\031\243E\014J2\342U\275"
 598      FF65D6C2 
 598      5EAC8219 
 598      A3450C4A 
 598      32E255BD 
 599 0d7a 96D2FCA2 		.ascii	"\226\322\374\242j\277Ki0\207CG\255\036l\205c\260\014"
 599      6ABF4B69 
 599      30874347 
 599      AD1E6C85 
 599      63B00C
 600 0d8d 03D83B7A 		.ascii	"\003\330;z\260\325v\300\314\206\014\235\265\311v\366"
 600      B0D576C0 
 600      CC860C9D 
 600      B5C976F6 
 601 0d9d 9A9BD859 		.ascii	"\232\233\330Y\025v\200j\214ga\374\206\3330\247\\\333"
 601      1576806A 
 601      8C6761FC 
 601      86DB30A7 
 601      5CDB
 602 0daf 8B9EC1CA 		.ascii	"\213\236\301\312\355\243\303\2136$\023\037\321\312B"
 602      EDA3C38B 
 602      3624131F 
 602      D1CA42
 603 0dbe A7BA350B 		.ascii	"\247\2725\013\275\235Y E~i\273r\266\345\221\371\344"
 603      BD9D5920 
 603      457E69BB 
 603      72B6E591 
 603      F9E4
 604 0dd0 6F92A4AB 		.ascii	"o\222\244\253\235\257\260\362\252\012\306\314\336F>"
 604      9DAFB0F2 
 604      AA0AC6CC 
 604      DE463E
 605 0ddf 77324B24 		.ascii	"w2K$\251Z\252\021\236\226\227u\034S\2059\352\334\267"
ARM GAS  /tmp/ccT2VTTc.s 			page 48


 605      A95AAA11 
 605      9E969775 
 605      1C538539 
 605      EADCB7
 606 0df2 9BD6A52D 		.ascii	"\233\326\245-\376\376\304,%&\372\2764\264/\2562\031"
 606      FEFEC42C 
 606      2526FABE 
 606      34B42FAE 
 606      3219
 607 0e04 A59041B4 		.ascii	"\245\220A\2649n\303_\355\312\314\"\033\232R\252\312"
 607      396EC35F 
 607      EDCACC22 
 607      1B9A52AA 
 607      CA
 608 0e15 DB3A3B6F 		.ascii	"\333:;oWI\325\304!\305\263\363\334\344\260wAwH-\240"
 608      5749D5C4 
 608      21C5B3F3 
 608      DCE4B077 
 608      4177482D 
 609 0e2a 492D3425 		.ascii	"I-4%5o\217B\312\376\002z\211\233\332r%nB\273\231f\262"
 609      356F8F42 
 609      CAFE027A 
 609      899BDA72 
 609      256E42BB 
 610 0e41 A7CA3173 		.ascii	"\247\3121s\315E\235KD=\214\273\002K1\307bKQ\321\027"
 610      CD459D4B 
 610      443D8CBB 
 610      024B31C7 
 610      624B51D1 
 611 0e56 29C50EF3 		.ascii	")\305\016\363wk\335\204.FML\025:f\032ZLkh\231\251\206"
 611      776BDD84 
 611      2E464D4C 
 611      153A661A 
 611      5A4C6B68 
 612 0e6d CE38D7D0 		.ascii	"\3168\327\320j3\015Q\032Ye\256\221\215\252Fxv96\376"
 612      6A330D51 
 612      1A5965AE 
 612      918DAA46 
 612      78763936 
 613 0e82 AAD81A31 		.ascii	"\252\330\0321\027m\025-\332\032\023\321\332\"\027\026"
 613      176D152D 
 613      DA1A13D1 
 613      DA221716 
 614 0e92 EC2D67A1 		.ascii	"\354-g\241\322\337\310\354\334\276x\353\025\361\242"
 614      D2DFC8EC 
 614      DCBE78EB 
 614      15F1A2
 615 0ea1 1271CC16 		.ascii	"\022q\314\026J\034\205\027\254\007\227K.\215\327:\232"
 615      4A1C8517 
 615      AC07974B 
 615      2E8DD73A 
 615      9A
 616 0eb2 D7BB5D79 		.ascii	"\327\273]y\325\267E\026\036h\354\006\255\215&\264\366"
 616      D5B74516 
 616      1E68EC06 
 616      AD8D26B4 
 616      F6
ARM GAS  /tmp/ccT2VTTc.s 			page 49


 617 0ec3 99D3928C 		.ascii	"\231\323\222\214\2646\320\2646\231\322:w@\353\300\244"
 617      B436D0B4 
 617      3699D23A 
 617      7740EBC0 
 617      A4
 618 0ed4 2E8EF9C2 		.ascii	".\216\371\302\026\372f\032\375}S\364\263\263\367jB\253"
 618      16FA661A 
 618      FD7D53F4 
 618      B3B3F76A 
 618      42AB
 619 0ee6 151CB555 		.ascii	"\025\034\265U\301V\272\202\017L+\250mul\310\333bvu\305"
 619      C156BA82 
 619      0F4C2BA8 
 619      6D756CC8 
 619      DB627675 
 620 0efb F952867D 		.ascii	"\371R\206}:\206W\323\033v\304VW?O\212\221\2128\3462"
 620      3A8657D3 
 620      1B76C456 
 620      573F4F8A 
 620      918A38E6 
 621 0f10 025B1753 		.ascii	"\002[\027S\350(\032\232.MLe5\025Eh\025\3550U\321\257"
 621      E8281A9A 
 621      2E4D4C65 
 621      35154568 
 621      15ED3055 
 622 0f26 4764152D 		.ascii	"Gd\025-\034(wb\216)O5\225f&-\315n\233\335\324Hk7MkO"
 622      1C287762 
 622      8E294F35 
 622      9566262D 
 622      CD6E9BDD 
 623 0f41 575A6D55 		.ascii	"WZmUm\023\227mc\353\244\355\023\244\316\316W\034t\210"
 623      6D13976D 
 623      63EBA4ED 
 623      13A4CECE 
 623      571C7488 
 624 0f55 2677AC9D 		.ascii	"&w\254\235\316E\026\237s\341\036itX\325Z\273\331\344"
 624      CE45169F 
 624      73E11E69 
 624      7458D55A 
 624      BBD9E4
 625 0f68 2B0E8E99 		.ascii	"+\016\216\231\236J[\250\234\351\200\251 \035\033\266"
 625      9E4A5BA8 
 625      9CE980A9 
 625      201D1BB6 
 626 0f78 3D5EB74E 		.ascii	"=^\267N\232 \017\316\016\016k\017\306\024\2455\306\246"
 626      9A200FCE 
 626      0E0E6B0F 
 626      C614A535 
 626      C6A6
 627 0f8a EDE76EF3 		.ascii	"\355\347n\363M[\216YlA\375\260)\365\303\313\332\207"
 627      4D5B8E59 
 627      6C41FDB0 
 627      29F5C3CB 
 627      DA87
 628 0f9c D45A518F 		.ascii	"\324ZQ\217"
 629 0fa0 D1082D31 		.ascii	"\321\010-1\273\220\331w$\034\263\322\202\331W\246\314"
 629      BB90D977 
ARM GAS  /tmp/ccT2VTTc.s 			page 50


 629      241CB3D2 
 629      82D957A6 
 629      CC
 630 0fb1 7E5D72F9 		.ascii	"~]r\371\226nX\307\021\232\330v\374\030\312@\244\303"
 630      966E58C7 
 630      119AD876 
 630      FC18CA40 
 630      A4C3
 631 0fc3 82489B29 		.ascii	"\202H\233)\221\005\307~\371\253FDua\323o0\207\370\326"
 631      9105C77E 
 631      F9AB4644 
 631      7561D36F 
 631      3087F8D6 
 632 0fd7 14E2F365 		.ascii	"\024\342\363e-C\272!\313\361\230J\336\3472\036\003+"
 632      2D43BA21 
 632      CBF1984A 
 632      DEE7321E 
 632      032B
 633 0fe9 F794ACF5 		.ascii	"\367\224\254\365\026D\377f\241\3643\335Q\372\367fJ7"
 633      1644FF66 
 633      A1F433DD 
 633      51FAF766 
 633      4A37
 634 0ffb DC7425B6 		.ascii	"\334t%\266\332"
 634      DA
 635 1000 82D86923 		.ascii	"\202\330i#\261;\230ER[3\314\177/\035ga\031\325H\316"
 635      B13B9845 
 635      525B33CC 
 635      7F2F1D67 
 635      6119D548 
 636 1015 FD3AD9DB 		.ascii	"\375:\331\333\325\017\"?\320P\024n\306\317\037\011\340"
 636      D50F223F 
 636      D050146E 
 636      C6CF1F09 
 636      E0
 637 1026 CF514019 		.ascii	"\317Q@\031,\262\311#\303<\256\242l\217\217\322nDin\216"
 637      2CB2C923 
 637      C33CAEA2 
 637      6C8F8FD2 
 637      6E44696E 
 638 103b ACDD399F 		.ascii	"\254\3359\237\225\352+$\3509\235\220w\232\233 \355\244"
 638      95EA2B24 
 638      E8399D90 
 638      779A9B20 
 638      EDA4
 639 104d 91BAACF4 		.ascii	"\221\272\254\364\316*@\375\231\365\322\344\310@\271"
 639      CE2A40FD 
 639      99F5D2E4 
 639      C840B9
 640 105c A0BC5220 		.ascii	"\240\274R 9\023\275\214\264\212S\026\015\344\001\316"
 640      3913BD8C 
 640      B48A5316 
 640      0DE401CE 
 641 106c F4E4D583 		.ascii	"\364\344\325\203r\013\315\241,$\264\367]|\007q\222V"
 641      720BCDA1 
 641      2C24B4F7 
 641      5D7C0771 
ARM GAS  /tmp/ccT2VTTc.s 			page 51


 641      9256
 642 107e AD75BECB 		.ascii	"\255u\276\313\352\242\265\341L#\273mi\245D\206\211W"
 642      EAA2B5E1 
 642      4C23BB6D 
 642      69A54486 
 642      8957
 643 1090 16465265 		.ascii	"\026FRe\000\216\231\322\307t\234\350 \343D3\016_\213"
 643      008E99D2 
 643      C7749CE8 
 643      20E34433 
 643      0E5F8B
 644 10a3 31C7AF96 		.ascii	"1\307\257\226\343\004\372\\\271Xd\341\231\346\304:)"
 644      E304FA5C 
 644      B95864E1 
 644      99E6C43A 
 644      29
 645 10b4 E256BF15 		.ascii	"\342V\277\025^\026\257,\247\233\345F\346\237i\343\244"
 645      5E16AF2C 
 645      A79BE546 
 645      E69F69E3 
 645      A4
 646 10c5 5991E830 		.ascii	"Y\221\3500\363+=\314\\0\232\216\262\015\037k\213\227"
 646      F32B3DCC 
 646      5C309A8E 
 646      B20D1F6B 
 646      8B97
 647 10d7 94BAE28E 		.ascii	"\224\272\342\216\356\301\22346h\364\357\376\310\243"
 647      EEC19334 
 647      3668F4EF 
 647      FEC8A3
 648 10e6 4E72609D 		.ascii	"Nr`\235\304L\222\217\347\245rv\224\006g\361\327\344"
 648      C44C928F 
 648      E7A57276 
 648      940667F1 
 648      D7E4
 649 10f8 3C7BD59D 		.ascii	"<{\325\235D\346\303}\214'\344:\266$\203Z\257\234VS,"
 649      44E6C37D 
 649      8C27E43A 
 649      B624835A 
 649      AF9C5653 
 650 110d F9276E78 		.ascii	"\371'nx\346P?\220\034:\264G\017\035\272\260/\3678=s"
 650      E6503F90 
 650      1C3AB447 
 650      0F1DBAB0 
 650      2FF7383D 
 651 1122 A8F0989F 		.ascii	"\250\360\230\2379\250D\365\307\035\272\232\007\250\371"
 651      39A844F5 
 651      C71DBA9A 
 651      07A8F9
 652 1131 12159CF1 		.ascii	"\022\025\234\361\216k\236`Qs\202R3e\303Kb\330\360D\217"
 652      8E6B9E60 
 652      51738252 
 652      3365C34B 
 652      62D8F044 
 653 1146 F91E8E3C 		.ascii	"\371\036\216<2Y\225\252\264,u0F\251I\036\272\277\\\336"
 653      325995AA 
 653      B42C7530 
ARM GAS  /tmp/ccT2VTTc.s 			page 52


 653      46A9491E 
 653      BABF5CDE 
 654 115a B0AD887C 		.ascii	"\260\255\210|\365N\334\344\242T\312O\222\026\264\202"
 654      F54EDCE4 
 654      A254CA4F 
 654      9216B482 
 655 116a 9AE2A11C 		.ascii	"\232\342\241\034%\031\307)\307\270\316\274\317}F\372"
 655      2519C729 
 655      C7B8CEBC 
 655      CF7D46FA 
 656 117a DCE7D8E7 		.ascii	"\334\347\330\347>\304\034\223=V\375\346s\335\224\261"
 656      3EC41C93 
 656      3D56FDE6 
 656      73DD94B1 
 657 118a 426AF98A 		.ascii	"Bj\371\212,\241d\0133\224J\242[\236,,=]\273\320\370"
 657      2CA1640B 
 657      33944AA2 
 657      5B9E2C2C 
 657      3D5DBBD0 
 658 119f 985F4CF3 		.ascii	"\230_L\363\354G\370\315q\374\27760\373X];\223#\1772"
 658      EC47F8CD 
 658      71FCBF36 
 658      30FB585D 
 658      3B93237F 
 659 11b4 A67E7C7D 		.ascii	"\246~|}l\177\035\273\016\017\016\253<\304\251~Di$.\020"
 659      6C7F1DBB 
 659      0E0F0EAB 
 659      3CC4A97E 
 659      4469242E 
 660 11c9 6155E3A1 		.ascii	"aU\343\241v\324Z\226('E\344M\374\223\242\257\227\354"
 660      76D45A96 
 660      282745E4 
 660      4DFC93A2 
 660      AF97EC
 661 11dc E694BF6C 		.ascii	"\346\224\277lx\315C\372\333>dA\012wcS\015\000\217,Q"
 661      78CD43FA 
 661      DB3E6441 
 661      0A776353 
 661      0D008F2C 
 662 11f1 FE1C4B86 		.ascii	"\376\034K\206;\340\030.\315\000\367\213\021\356\260"
 662      3BE0182E 
 662      CD00F78B 
 662      11EEB0
 663 1200 1D38ABE3 		.ascii	"\0358\253\343\023\200;c\204ku\014gdw\316\010w\334\016"
 663      13803B63 
 663      846B750C 
 663      676477CE 
 663      0877DC0E 
 664 1214 9CD5C104 		.ascii	"\234\325\301\004\300\375j\204;\355\030\316\310\356\242"
 664      C0FD6A84 
 664      3BED18CE 
 664      C8EEA2
 665 1223 11EE9C1D 		.ascii	"\021\356\234\0358\253-\177\200\273l\204\373\3151\234"
 665      38AB2D7F 
 665      80BB6C84 
 665      FBCD319C 
 666 1233 91DD6F46 		.ascii	"\221\335oF\270\0117\332\200K\263fw\325\0107\3051\\\232"
ARM GAS  /tmp/ccT2VTTc.s 			page 53


 666      B80937DA 
 666      804BB366 
 666      77D50837 
 666      C5315C9A 
 667 1247 592F917F 		.ascii	"Y/\221\177\372n\006s\024\017q\004\257{\310>\347l\214"
 667      FA6E0673 
 667      140F7104 
 667      AF7BC83E 
 667      E76C8C
 668 125a EB309E8B 		.ascii	"\3530\236\213\361|\214\027b\274\010\343%\030/\305\370"
 668      F17C8C17 
 668      62BC08E3 
 668      25182FC5 
 668      F8
 669 126b 2D8F6E5F 		.ascii	"-\217n_\224r\316U\026dI\375+,]\372\221\030.\375m\313"
 669      9472CE55 
 669      166449FD 
 669      2B2C5DFA 
 669      91182EFD 
 670 1281 52AB6394 		.ascii	"R\253c\224ZiYjc\214R\253,K\035\217Qj\265e\251\357c\224"
 670      5A69596A 
 670      638C52AB 
 670      2C4B1D8F 
 670      516AB565 
 671 1299 6A8896D2 		.ascii	"j\210\226\322\376\330%r\035\\\267\366\201w\344\232O"
 671      FED82572 
 671      1D5CB7F6 
 671      8177E49A 
 671      4F
 672 12aa CB710825 		.ascii	"\313q\010%\023\372\226\277\3276\264\313\335\362\246"
 672      13FA96BF 
 672      D736B4CB 
 672      DDF2A6
 673 12b9 0CACAB6E 		.ascii	"\014\254\253n4\035\374\346\323\033\023k-\007?\3756K"
 673      341DFCE6 
 673      D31B136B 
 673      2D073FFD 
 673      364B
 674 12cb A7BACDC2 		.ascii	"\247\272\315\302\263\273\342\0243n\263\030\266\035I"
 674      B3BBE214 
 674      336EB318 
 674      B61D49
 675 12da 2183CDAF 		.ascii	"!\203\315\2573\016\222T\373\254\217\321>\033\350\251"
 675      330E9254 
 675      FBAC8FD1 
 675      3E1BE8A9 
 676 12ea 44E4CC2E 		.ascii	"D\344\314.uo\306\376rk\023=\2138\351\3522\213\2505W"
 676      756FC6FE 
 676      726B133D 
 676      8B38E9EA 
 676      328BA835 
 677 12ff E47AA291 		.ascii	"\344z\242\221\223x4\260\024sl\264\324\310I\353]\370"
 677      937834B0 
 677      14736CB4 
 677      D4C849EB 
 677      5DF8
 678 1311 8DB44636 		.ascii	"\215\264F6\0335\302<\230^\024(\021\322\013\002\205\343"
ARM GAS  /tmp/ccT2VTTc.s 			page 54


 678      1B35C23C 
 678      985E1428 
 678      11D20B02 
 678      85E3
 679 1323 D20B85D1 		.ascii	"\322\013\205\321\351\005E\376\341\376@8]\014\225\225"
 679      E90545FE 
 679      E1FE4038 
 679      5D0C9595 
 680 1333 BE9C0E89 		.ascii	"\276\234\016\211\220\230\356/-(.+\204LE\302h\241T\014"
 680      9098EE2F 
 680      2D282E2B 
 680      844C45C2 
 680      68A1540C 
 681 1347 DF5FC4F4 		.ascii	"\337_\304\364\302\224/\034(\013\025\010>1\341\251g\236"
 681      C2942F1C 
 681      280B1508 
 681      3E31E1A9 
 681      679E
 682 1359 4BCB6652 		.ascii	"K\313fR\364OS\345\233b\177X\024J\205\220O\354e|\220"
 682      F44F53E5 
 682      9B627F58 
 682      144A8590 
 682      4FEC657C 
 683 136e 2814FB4A 		.ascii	"(\024\373J\205\261\342\000G\014\302\343\302\342\270"
 683      85B1E200 
 683      470CC2E3 
 683      C2E2B8
 684 137d A0403824 		.ascii	"\240@8$\211E!\201/\364\211\336\202\"\237\234\356\357"
 684      89452181 
 684      2FF489DE 
 684      82229F9C 
 684      EEEF
 685 138f 0CABA0A8 		.ascii	"\014\253\240\250\020p\022\202\310\003.\301\2200\372"
 685      10701282 
 685      C8032EC1 
 685      9030FA
 686 139e 691B10C1 		.ascii	"i\033\020\301@H\014\247?\2217${\310X\310Y\022\364\027"
 686      40480CA7 
 686      3F913724 
 686      7BC858C8 
 686      5912F417 
 687 13b2 0BA170FA 		.ascii	"\013\241p\372S\331\331\220]\245\227(\006C\376\200O\274"
 687      53D9D990 
 687      5DA59728 
 687      0643FE80 
 687      4FBC
 688 13c4 33BD2C1C 		.ascii	"3\275,\034J\347C%\367\225\006J\205\373\004~\270_\343"
 688      4AE74325 
 688      F795064A 
 688      85FB047E 
 688      B85FE3
 689 13d7 10160BFD 		.ascii	"\020\026\013\375\245\"\221\245\014\256\375\262|b\377"
 689      A52291A5 
 689      0CAEFDB2 
 689      7C62FF
 690 13e6 18B94B78 		.ascii	"\030\271Kx S*\244\373\012\205\021|Y\261\350S\253\352"
 690      20532AA4 
ARM GAS  /tmp/ccT2VTTc.s 			page 55


 690      FB0A8511 
 690      7C59B1E8 
 690      53ABEA
 691 13f9 E1F3A9E5 		.ascii	"\341\363\251\345Q\012\177 \261 P*\202P\017;\226\246"
 691      510A7F20 
 691      B120502A 
 691      82500F3B 
 691      96A6
 692 140b A8201012 		.ascii	"\250 \020\022\0003\231<\366\001j\2018\366\321\356\241"
 692      0033993C 
 692      F6016A81 
 692      38F6D1EE 
 692      A1
 693 141c F8463F54 		.ascii	"\370F?TBd\013\011#A \237\310\205\372s\241\007\270\320"
 693      42640B09 
 693      2341209F 
 693      C885FA73 
 693      A107B8D0 
 694 1430 835CE821 		.ascii	"\203\\\350!.4\200\013=\354\012ef@\310\344\212Cp\351"
 694      2E34800B 
 694      3DEC0A65 
 694      6640C8E4 
 694      8A4370E9 
 695 1444 E709FAA0 		.ascii	"\347\011\372\240\266D\322\036c\300@\202\276@q\241\020"
 695      B644D21E 
 695      63C04082 
 695      BE4071A1 
 695      10
 696 1455 721714F1 		.ascii	"r\027\024\361!\322H|\211\220$\206E^\004\213K$\002\017"
 696      21D2487C 
 696      89902486 
 696      455E048B 
 696      4B24020F 
 697 1469 80B69745 		.ascii	"\200\266\227E\207\024d\307w\211bI\240P\300\373\021\305"
 697      871464C7 
 697      77896249 
 697      A050C0FB 
 697      11C5
 698 147b FCC870A2 		.ascii	"\374\310p\242\030\022F\204Q3$\341)\011\217\204\227\212"
 698      18124684 
 698      513324E1 
 698      29098F84 
 698      978A
 699 148d BAA0B8AA 		.ascii	"\272\240\270\252\270P\3418x\225$\214\365\213 \250\220"
 699      B850E138 
 699      7895248C 
 699      F58B20A8 
 699      90
 700 149e 30460C0C 		.ascii	"0F\014\014\177)\230\214F[\302\207_\206,\302\030\222"
 700      7F29988C 
 700      465BC287 
 700      5F862CC2 
 700      1892
 701 14b0 70057D65 		.ascii	"p\005}e\275d{\013\2435\373\304\336\232\005\312O\274"
 701      BD647B0B 
 701      A335FBC4 
 701      DE9A05CA 
ARM GAS  /tmp/ccT2VTTc.s 			page 56


 701      4FBC
 702 14c2 41DF18DE 		.ascii	"A\337\030\336/\372KG\366V\037\217*\023\312\200U\252"
 702      2FFA4B47 
 702      F6561F8F 
 702      2A13CA80 
 702      55AA
 703 14d4 2E273EEA 		.ascii	".'>\352\021\364A\265\230\364`\022\036\010A\241\024\014"
 703      11F441B5 
 703      98F46012 
 703      1E0841A1 
 703      140C
 704 14e6 63A4A7A4 		.ascii	"c\244\247\244\014\032\261\237#\243.\021\307\022\343"
 704      0C1AB19F 
 704      23A32E11 
 704      C712E3
 705 14f5 2B91D1E1 		.ascii	"+\221\321\341\032\030C:\033\"\201\010%h\353\300\017"
 705      1A18433A 
 705      1B228108 
 705      2568EBC0 
 705      0F
 706 1506 F211A63D 		.ascii	"\362\021\246=\210V\370b\264\031x\030\014\004\212\223"
 706      8856F862 
 706      B4197818 
 706      0C048A93 
 707 1516 A163AA9D 		.ascii	"\241c\252\235\324\013i\271\323\313}\0335\352\023\223"
 707      D40B69B9 
 707      D3CB7D1B 
 707      35EA1393 
 708 1526 E03126C9 		.ascii	"\3401&\311\3731\262\232\2050B?\020\217m\021_\034\265"
 708      FB31B29A 
 708      8530423F 
 708      108F6D11 
 708      5F1CB5
 709 1539 7F21E4E7 		.ascii	"\177!\344\347\213\201oJ>\246rB\376\321B\250\267\376"
 709      8B816F4A 
 709      3EA67242 
 709      FED142A8 
 709      B7FE
 710 154b E6F921C3 		.ascii	"\346\371!\303\262\260O\024\373\207\247\217,(\240\372"
 710      B2B04F14 
 710      FB87A78F 
 710      2C28A0FA 
 711 155b 46FFFB07 		.ascii	"F\377\373\007\334\337_\337\237\240o\220>\035\366\377"
 711      DCDF5FDF 
 711      9FA06F90 
 711      3E1DF6FF 
 712 156b 2768DB33 		.ascii	"'h\3333&\344\027\0057Q\267+X&\272F\012\242\227x\020"
 712      26E41705 
 712      3751B72B 
 712      5826BA46 
 712      0AA29778 
 713 1580 7F09BCC4 		.ascii	"\177\011\274\304>\227\371\240OT\272\017I\272!\227\350"
 713      3E97F9A0 
 713      4F54BA0F 
 713      49BA2197 
 713      E8
 714 1591 866C6202 		.ascii	"\206lb\002\026\025=\244\254\350\032]\"zP\001\336p\241"
ARM GAS  /tmp/ccT2VTTc.s 			page 57


 714      16153DA4 
 714      ACE81A5D 
 714      227A5001 
 714      DE70A1
 715 15a4 6281DEFC 		.ascii	"b\201\336\374\034\337s\317\344>\223;,\021R\371\303\236"
 715      1CDF73CF 
 715      E43E933B 
 715      2C1152F9 
 715      C39E
 716 15b6 1D9A04D7 		.ascii	"\035\232\004\327\274\301O\344\374\305\203Y\234\271V"
 716      BCC14FE4 
 716      FCC58359 
 716      9CB956
 717 15c5 6C2ED299 		.ascii	"l.\322\231{\372K\201\204j/=\300\205(\311$5\351\035\245"
 717      7BFA4B81 
 717      846A2F3D 
 717      C08528C9 
 717      2435E91D 
 718 15da 5A17A40A 		.ascii	"Z\027\244\012\002e\320\323CI\243|\303\313F\214\020B"
 718      0265D0D3 
 718      4349A37C 
 718      C3CB468C 
 718      1042
 719 15ec 9E513E31 		.ascii	"\236Q>1\020L\204,\241\240\030\202k\250\020\256\336Q"
 719      104C842C 
 719      A1A01882 
 719      6BA810AE 
 719      DE51
 720 15fe A501D13F 		.ascii	"\245\001\321?b\034\240\214\362\311\311\204Q\320\312"
 720      621CA08C 
 720      F2C9C984 
 720      51D0CA
 721 160d A52F27F8 		.ascii	"\245/'\370\021\263W\240L\324U\233\020\300\004\347\037"
 721      11B357A0 
 721      4CD4559B 
 721      10C004E7 
 721      1F
 722 161e CE0586C7 		.ascii	"\316\005\206\307u\"\320\354\351\331C\362s\363\323\363"
 722      7522D0EC 
 722      E9D943F2 
 722      73F3D3F3 
 723 162e 87411B94 		.ascii	"\207A\033\224\364\313\032\221\231A\314\260\347s\371"
 723      F4CB1A91 
 723      9941CCB0 
 723      E773F9
 724 163d 4FE40DF3 		.ascii	"O\344\015\363\015\003?\225#\214\340\362\363\274y\203"
 724      0D033F95 
 724      238CE0F2 
 724      F3BC7983 
 725 164d F307E73D 		.ascii	"\363\007\347=?8'\203\313\211\336d\272\006\345E\357\262"
 725      3F382783 
 725      CB89DE64 
 725      BA06E545 
 725      EFB2
 726 165f 5CD97999 		.ascii	"\\\331y\231\332]?\270\313\322\356\372\303]?\355\356"
 726      DA5D3FB8 
 726      CBD2EEFA 
ARM GAS  /tmp/ccT2VTTc.s 			page 58


 726      C35D3FED 
 726      EE
 727 1670 01F753C3 		.ascii	"\001\367S\303\206F\013>\350)\013\363!1\327\216\005\312"
 727      86460B3E 
 727      E8290BF3 
 727      2131D78E 
 727      05CA
 728 1682 EE2A7FD8 		.ascii	"\356*\177\330\220~Y\351\177\376sN:\022\035\235\251X"
 728      907E59E9 
 728      7FFE734E 
 728      3A121D9D 
 728      A958
 729 1694 A4AFB898 		.ascii	"\244\257\270\230\214\014\236pP\020\012]\005\241L\010"
 729      8C0C9E70 
 729      50100A5D 
 729      05A14C08 
 730 16a4 5910FA29 		.ascii	"Y\020\372)v\232\035(\035\341\037y\275**`\022\345&\311"
 730      769A1D28 
 730      1DE11F79 
 730      BD2A2A60 
 730      12E526C9 
 731 16b8 E2460595 		.ascii	"\342F\005\225d\2467,\210>!\024\012\204\\\341\302 \027"
 731      64A6372C 
 731      883E2114 
 731      0A845CE1 
 731      C22017
 732 16cb 0EF58612 		.ascii	"\016\365\206\022\243\005\342\256\340iYP\354\023.$\245"
 732      A305E2AE 
 732      E0695950 
 732      EC132E24 
 732      A5
 733 16dc C1E90582 		.ascii	"\301\351\005\202\367\007A\356\3733\223\236\027\012\304"
 733      F70741EE 
 733      FB33939E 
 733      170AC4
 734 16eb 4028A7BF 		.ascii	"@(\247\277\232\030\220\254d\362\227\372\305\024\255"
 734      9A1890AC 
 734      64F297FA 
 734      C514AD
 735 16fa 00644E28 		.ascii	"\000dN(@\021\222u 7\025\024\015\036-\016\012\005\370"
 735      40119275 
 735      20371514 
 735      0D1E2D0E 
 735      0A05F8
 736 170d C2023E2C 		.ascii	"\302\002>,>IzunRA\321\263\377\372\224 \346\366\016\027"
 736      3E497A75 
 736      6E5241D1 
 736      B3FFFA94 
 736      20E6F60E 
 737 1722 E696C258 		.ascii	"\346\226\302X\007V\227\303\213|\356\343\366\205\207"
 737      075697C3 
 737      8B7CEEE3 
 737      F68587
 738 1731 52258152 		.ascii	"R%\201Rul(\035\355/\000\335\336@\2569\3760?\274X\220"
 738      756C281D 
 738      ED2F00DD 
 738      DE40AE39 
ARM GAS  /tmp/ccT2VTTc.s 			page 59


 738      FE303FBC 
 739 1747 D9F6F1C9 		.ascii	"\331\366\361\311CNh\0248@\177q`d\231\000\224\237\035"
 739      434E6814 
 739      38407F71 
 739      60649900 
 739      949F1D
 740 175a FE12BCCD 		.ascii	"\376\022\274\315\005\376\251\244\304\340\322h\001W>"
 740      05FEA9A4 
 740      C4E0D268 
 740      01573E
 741 1769 584E7E4E 		.ascii	"XN~NV/u<\224e\212\353/\011\263@\030\"\350\200\344\012"
 741      562F753C 
 741      94658AEB 
 741      2F09B340 
 741      1822E880 
 742 177f 6CFA92EB 		.ascii	"l\372\222\353`\322\301)\371]B8\350A\007\347\361\015"
 742      60D2C129 
 742      F95D4238 
 742      E84107E7 
 742      F10D
 743 1791 02E79842 		.ascii	"\002\347\230B\364\221\033\036\\\022\024\307\345\272"
 743      F4911B1E 
 743      5C1214C7 
 743      E5BA
 744 179f 02A382C9 		.ascii	"\002\243\202\311y\331\331\232\201g\347\271\263\237|"
 744      79D9D99A 
 744      8167E7B9 
 744      B39F7C
 745 17ae 2ACF959D 		.ascii	"*\317\225\235\233\227\364\304\320AYy\371\3030\221I\022"
 745      9B97F4C4 
 745      D0415979 
 745      F9C33091 
 745      4912
 746 17c0 094F3C3D 		.ascii	"\011O<=h\3603y\211\344\205r\315\204\253{"
 746      68F03379 
 746      89E48572 
 746      CD84AB7B 
 747 17d0 504E3694 		.ascii	"PN6\224\310\317\353\201\326+7\225\234,\024\310\015["
 747      C8CFEB81 
 747      D62B3795 
 747      9C2C14C8 
 747      0D5B
 748 17e2 F67FB6E3 		.ascii	"\366\177\266\343\276\213"
 748      BE8B
 749              		.text
 750              		.section	.gnu.lto_.symtab.5584cb8ebeb724a5,"",%progbits
 751 0000 56656374 		.ascii	"VectorD4\000\000\000\000\000\000\000\000\000\000\000"
 751      6F724434 
 751      00000000 
 751      00000000 
 751      000000
 752 0013 00360200 		.ascii	"\0006\002\000\000SD1\000\000\000\000\000\000\000\000"
 752      00534431 
 752      00000000 
 752      00000000 
 753 0023 00000000 		.ascii	"\000\000\000\000n\002\000\000VectorD8\000\000\000\000"
 753      6E020000 
ARM GAS  /tmp/ccT2VTTc.s 			page 60


 753      56656374 
 753      6F724438 
 753      00000000 
 754 0037 00000000 		.ascii	"\000\000\000\000\000\000\000\000:\002\000\000SD2\000"
 754      00000000 
 754      3A020000 
 754      53443200 
 755 0047 00000000 		.ascii	"\000\000\000\000\000\000\000\000\000\000\000p\002\000"
 755      00000000 
 755      00000070 
 755      0200
 756 0055 0073645F 		.ascii	"\000sd_lld_init\000\000\000\000\000\000\000\000\000"
 756      6C6C645F 
 756      696E6974 
 756      00000000 
 756      00000000 
 757 006a 0000003D 		.ascii	"\000\000\000=\002\000\000sd_lld_start\000\000\000\000"
 757      02000073 
 757      645F6C6C 
 757      645F7374 
 757      61727400 
 758 0081 00000000 		.ascii	"\000\000\000\000\000\000\000\000@\002\000\000sd_lld"
 758      00000000 
 758      40020000 
 758      73645F6C 
 758      6C64
 759 0093 5F73746F 		.ascii	"_stop\000\000\000\000\000\000\000\000\000\000\000\000"
 759      70000000 
 759      00000000 
 759      00000000 
 759      00
 760 00a4 49020000 		.ascii	"I\002\000\000chEvtBroadcastFlagsI\000\000\002\000\000"
 760      63684576 
 760      7442726F 
 760      61646361 
 760      7374466C 
 761 00c1 00000000 		.ascii	"\000\000\000\000\000\000\000M\002\000\000chOQGetI\000"
 761      0000004D 
 761      02000063 
 761      684F5147 
 761      65744900 
 762 00d5 00020000 		.ascii	"\000\002\000\000\000\000\000\000\000\000\000S\002\000"
 762      00000000 
 762      00000053 
 762      0200
 763 00e3 00736449 		.ascii	"\000sdIncomingDataI\000\000\002\000\000\000\000\000"
 763      6E636F6D 
 763      696E6744 
 763      61746149 
 763      00000200 
 764 00fb 00000000 		.ascii	"\000\000\000\000X\002\000\000nvicDisableVector\000\000"
 764      58020000 
 764      6E766963 
 764      44697361 
 764      626C6556 
 765 0116 02000000 		.ascii	"\002\000\000\000\000\000\000\000\000\000]\002\000\000"
 765      00000000 
ARM GAS  /tmp/ccT2VTTc.s 			page 61


 765      00005D02 
 765      0000
 766 0124 5F706F72 		.ascii	"_port_irq_epilogue\000\000\002\000\000\000\000\000\000"
 766      745F6972 
 766      715F6570 
 766      696C6F67 
 766      75650000 
 767 013f 00000061 		.ascii	"\000\000\000a\002\000\000sdObjectInit\000\000\002\000"
 767      02000073 
 767      644F626A 
 767      65637449 
 767      6E697400 
 768 0156 00000000 		.ascii	"\000\000\000\000\000\000\000\000c\002\000\000nvicEn"
 768      00000000 
 768      63020000 
 768      6E766963 
 768      456E
 769 0168 61626C65 		.ascii	"ableVector\000\000\002\000\000\000\000\000\000\000\000"
 769      56656374 
 769      6F720000 
 769      02000000 
 769      00000000 
 770 017d 00690200 		.ascii	"\000i\002\000\000"
 770      00
 771              		.text
 772              		.section	.gnu.lto_.opts,"",%progbits
 773 0000 272D6D63 		.ascii	"'-mcpu=cortex-m3' '-mno-thumb-interwork' '-mthumb' "
 773      70753D63 
 773      6F727465 
 773      782D6D33 
 773      2720272D 
 774 0033 272D4F32 		.ascii	"'-O2' '-fomit-frame-pointer' '-falign-functions=16'"
 774      2720272D 
 774      666F6D69 
 774      742D6672 
 774      616D652D 
 775 0066 20272D66 		.ascii	" '-ffunction-sections' '-fdata-sections' '-fno-comm"
 775      66756E63 
 775      74696F6E 
 775      2D736563 
 775      74696F6E 
 776 0099 6F6E2720 		.ascii	"on' '-flto'\000"
 776      272D666C 
 776      746F2700 
 777              		.text
 778              		.section	.text.notify1,"ax",%progbits
 779              		.align	2
 780              		.p2align 4,,15
 781              		.thumb
 782              		.thumb_func
 783              		.type	notify1, %function
 784              	notify1:
 785              		@ args = 0, pretend = 0, frame = 0
 786              		@ frame_needed = 0, uses_anonymous_args = 0
 787              		@ link register save eliminated.
 788 0000 034B     		ldr	r3, .L2
 789 0002 9A89     		ldrh	r2, [r3, #12]
ARM GAS  /tmp/ccT2VTTc.s 			page 62


 790 0004 92B2     		uxth	r2, r2
 791 0006 42F08002 		orr	r2, r2, #128
 792 000a 9A81     		strh	r2, [r3, #12]	@ movhi
 793 000c 7047     		bx	lr
 794              	.L3:
 795 000e 00BF     		.align	2
 796              	.L2:
 797 0010 00380140 		.word	1073821696
 798              		.size	notify1, .-notify1
 799 0014 AFF30080 		.section	.text.notify2,"ax",%progbits
 799      AFF30080 
 799      AFF30080 
 800              		.align	2
 801              		.p2align 4,,15
 802              		.thumb
 803              		.thumb_func
 804              		.type	notify2, %function
 805              	notify2:
 806              		@ args = 0, pretend = 0, frame = 0
 807              		@ frame_needed = 0, uses_anonymous_args = 0
 808              		@ link register save eliminated.
 809 0000 034B     		ldr	r3, .L5
 810 0002 9A89     		ldrh	r2, [r3, #12]
 811 0004 92B2     		uxth	r2, r2
 812 0006 42F08002 		orr	r2, r2, #128
 813 000a 9A81     		strh	r2, [r3, #12]	@ movhi
 814 000c 7047     		bx	lr
 815              	.L6:
 816 000e 00BF     		.align	2
 817              	.L5:
 818 0010 00440040 		.word	1073759232
 819              		.size	notify2, .-notify2
 820 0014 AFF30080 		.section	.text.serve_interrupt,"ax",%progbits
 820      AFF30080 
 820      AFF30080 
 821              		.align	2
 822              		.p2align 4,,15
 823              		.thumb
 824              		.thumb_func
 825              		.type	serve_interrupt, %function
 826              	serve_interrupt:
 827              		@ args = 0, pretend = 0, frame = 0
 828              		@ frame_needed = 0, uses_anonymous_args = 0
 829 0000 2DE9F041 		push	{r4, r5, r6, r7, r8, lr}
 830 0004 456F     		ldr	r5, [r0, #116]
 831 0006 0646     		mov	r6, r0
 832 0008 B5F80C80 		ldrh	r8, [r5, #12]
 833 000c 2C88     		ldrh	r4, [r5]
 834 000e 1FFA88F8 		uxth	r8, r8
 835 0012 A4B2     		uxth	r4, r4
 836 0014 E005     		lsls	r0, r4, #23
 837 0016 48D4     		bmi	.L54
 838              	.L8:
 839 0018 2023     		movs	r3, #32
 840              	@ 546 "/home/cody/dev/chibios/trunk/os/ext/CMSIS/include/core_cmFunc.h" 1
 841 001a 83F31188 		MSR basepri, r3
 842              	@ 0 "" 2
ARM GAS  /tmp/ccT2VTTc.s 			page 63


 843              		.thumb
 844 001e A106     		lsls	r1, r4, #26
 845 0020 22D5     		bpl	.L9
 846 0022 371D     		adds	r7, r6, #4
 847 0024 08E0     		b	.L15
 848              	.L10:
 849 0026 A988     		ldrh	r1, [r5, #4]
 850 0028 3046     		mov	r0, r6
 851 002a C9B2     		uxtb	r1, r1
 852 002c FFF7FEFF 		bl	sdIncomingDataI
 853 0030 2C88     		ldrh	r4, [r5]
 854 0032 A4B2     		uxth	r4, r4
 855 0034 A106     		lsls	r1, r4, #26
 856 0036 17D5     		bpl	.L9
 857              	.L15:
 858 0038 2207     		lsls	r2, r4, #28
 859 003a F4D0     		beq	.L10
 860 003c 14F0080F 		tst	r4, #8
 861 0040 14BF     		ite	ne
 862 0042 8021     		movne	r1, #128
 863 0044 0021     		moveq	r1, #0
 864 0046 14F0010F 		tst	r4, #1
 865 004a 18BF     		it	ne
 866 004c 41F02001 		orrne	r1, r1, #32
 867 0050 A307     		lsls	r3, r4, #30
 868 0052 48BF     		it	mi
 869 0054 41F04001 		orrmi	r1, r1, #64
 870 0058 6407     		lsls	r4, r4, #29
 871 005a 3846     		mov	r0, r7
 872 005c 48BF     		it	mi
 873 005e 41F48071 		orrmi	r1, r1, #256
 874 0062 FFF7FEFF 		bl	chEvtBroadcastFlagsI
 875 0066 DEE7     		b	.L10
 876              	.L9:
 877 0068 0023     		movs	r3, #0
 878              	@ 546 "/home/cody/dev/chibios/trunk/os/ext/CMSIS/include/core_cmFunc.h" 1
 879 006a 83F31188 		MSR basepri, r3
 880              	@ 0 "" 2
 881              		.thumb
 882 006e 18F0800F 		tst	r8, #128
 883 0072 01D0     		beq	.L16
 884 0074 2206     		lsls	r2, r4, #24
 885 0076 27D4     		bmi	.L55
 886              	.L16:
 887 0078 6306     		lsls	r3, r4, #25
 888 007a 14D5     		bpl	.L7
 889 007c 2023     		movs	r3, #32
 890              	@ 546 "/home/cody/dev/chibios/trunk/os/ext/CMSIS/include/core_cmFunc.h" 1
 891 007e 83F31188 		MSR basepri, r3
 892              	@ 0 "" 2
 893              		.thumb
 894 0082 726C     		ldr	r2, [r6, #68]
 895 0084 B36C     		ldr	r3, [r6, #72]
 896 0086 9A42     		cmp	r2, r3
 897 0088 2DD0     		beq	.L56
 898              	.L20:
 899 008a 28F04008 		bic	r8, r8, #64
ARM GAS  /tmp/ccT2VTTc.s 			page 64


 900 008e 1FFA88F8 		uxth	r8, r8
 901 0092 4FF6BF72 		movw	r2, #65471
 902 0096 A5F80C80 		strh	r8, [r5, #12]	@ movhi
 903 009a 0023     		movs	r3, #0
 904 009c 2A80     		strh	r2, [r5]	@ movhi
 905              	@ 546 "/home/cody/dev/chibios/trunk/os/ext/CMSIS/include/core_cmFunc.h" 1
 906 009e 83F31188 		MSR basepri, r3
 907              	@ 0 "" 2
 908              		.thumb
 909 00a2 BDE8F081 		pop	{r4, r5, r6, r7, r8, pc}
 910              	.L7:
 911 00a6 BDE8F081 		pop	{r4, r5, r6, r7, r8, pc}
 912              	.L54:
 913 00aa 2023     		movs	r3, #32
 914              	@ 546 "/home/cody/dev/chibios/trunk/os/ext/CMSIS/include/core_cmFunc.h" 1
 915 00ac 83F31188 		MSR basepri, r3
 916              	@ 0 "" 2
 917              		.thumb
 918 00b0 4FF40071 		mov	r1, #512
 919 00b4 301D     		adds	r0, r6, #4
 920 00b6 FFF7FEFF 		bl	chEvtBroadcastFlagsI
 921 00ba 4FF6FF63 		movw	r3, #65279
 922 00be 2B80     		strh	r3, [r5]	@ movhi
 923 00c0 0023     		movs	r3, #0
 924              	@ 546 "/home/cody/dev/chibios/trunk/os/ext/CMSIS/include/core_cmFunc.h" 1
 925 00c2 83F31188 		MSR basepri, r3
 926              	@ 0 "" 2
 927              		.thumb
 928 00c6 A7E7     		b	.L8
 929              	.L55:
 930 00c8 2023     		movs	r3, #32
 931              	@ 546 "/home/cody/dev/chibios/trunk/os/ext/CMSIS/include/core_cmFunc.h" 1
 932 00ca 83F31188 		MSR basepri, r3
 933              	@ 0 "" 2
 934              		.thumb
 935 00ce 06F13000 		add	r0, r6, #48
 936 00d2 FFF7FEFF 		bl	chOQGetI
 937 00d6 0028     		cmp	r0, #0
 938 00d8 0DDB     		blt	.L57
 939 00da 80B2     		uxth	r0, r0
 940 00dc A880     		strh	r0, [r5, #4]	@ movhi
 941              	.L18:
 942 00de 0023     		movs	r3, #0
 943              	@ 546 "/home/cody/dev/chibios/trunk/os/ext/CMSIS/include/core_cmFunc.h" 1
 944 00e0 83F31188 		MSR basepri, r3
 945              	@ 0 "" 2
 946              		.thumb
 947 00e4 C8E7     		b	.L16
 948              	.L56:
 949 00e6 B36B     		ldr	r3, [r6, #56]
 950 00e8 002B     		cmp	r3, #0
 951 00ea CED0     		beq	.L20
 952 00ec 301D     		adds	r0, r6, #4
 953 00ee 1021     		movs	r1, #16
 954 00f0 FFF7FEFF 		bl	chEvtBroadcastFlagsI
 955 00f4 C9E7     		b	.L20
 956              	.L57:
ARM GAS  /tmp/ccT2VTTc.s 			page 65


 957 00f6 301D     		adds	r0, r6, #4
 958 00f8 0821     		movs	r1, #8
 959 00fa FFF7FEFF 		bl	chEvtBroadcastFlagsI
 960 00fe 28F0C003 		bic	r3, r8, #192
 961 0102 43F04003 		orr	r3, r3, #64
 962 0106 AB81     		strh	r3, [r5, #12]	@ movhi
 963 0108 E9E7     		b	.L18
 964              		.size	serve_interrupt, .-serve_interrupt
 965              		.section	.text.VectorD4,"ax",%progbits
 966              		.align	2
 967              		.p2align 4,,15
 968              		.global	VectorD4
 969              		.thumb
 970              		.thumb_func
 971              		.type	VectorD4, %function
 972              	VectorD4:
 973              		@ args = 0, pretend = 0, frame = 0
 974              		@ frame_needed = 0, uses_anonymous_args = 0
 975 0000 08B5     		push	{r3, lr}
 976 0002 0348     		ldr	r0, .L59
 977 0004 FFF7FEFF 		bl	serve_interrupt
 978 0008 BDE80840 		pop	{r3, lr}
 979 000c FFF7FEBF 		b	_port_irq_epilogue
 980              	.L60:
 981              		.align	2
 982              	.L59:
 983 0010 00000000 		.word	.LANCHOR0
 984              		.size	VectorD4, .-VectorD4
 985 0014 AFF30080 		.section	.text.VectorD8,"ax",%progbits
 985      AFF30080 
 985      AFF30080 
 986              		.align	2
 987              		.p2align 4,,15
 988              		.global	VectorD8
 989              		.thumb
 990              		.thumb_func
 991              		.type	VectorD8, %function
 992              	VectorD8:
 993              		@ args = 0, pretend = 0, frame = 0
 994              		@ frame_needed = 0, uses_anonymous_args = 0
 995 0000 08B5     		push	{r3, lr}
 996 0002 0348     		ldr	r0, .L62
 997 0004 FFF7FEFF 		bl	serve_interrupt
 998 0008 BDE80840 		pop	{r3, lr}
 999 000c FFF7FEBF 		b	_port_irq_epilogue
 1000              	.L63:
 1001              		.align	2
 1002              	.L62:
 1003 0010 00000000 		.word	.LANCHOR1
 1004              		.size	VectorD8, .-VectorD8
 1005 0014 AFF30080 		.section	.text.sd_lld_init,"ax",%progbits
 1005      AFF30080 
 1005      AFF30080 
 1006              		.align	2
 1007              		.p2align 4,,15
 1008              		.global	sd_lld_init
 1009              		.thumb
ARM GAS  /tmp/ccT2VTTc.s 			page 66


 1010              		.thumb_func
 1011              		.type	sd_lld_init, %function
 1012              	sd_lld_init:
 1013              		@ args = 0, pretend = 0, frame = 0
 1014              		@ frame_needed = 0, uses_anonymous_args = 0
 1015 0000 38B5     		push	{r3, r4, r5, lr}
 1016 0002 084D     		ldr	r5, .L65
 1017 0004 0021     		movs	r1, #0
 1018 0006 2846     		mov	r0, r5
 1019 0008 074A     		ldr	r2, .L65+4
 1020 000a 084C     		ldr	r4, .L65+8
 1021 000c FFF7FEFF 		bl	sdObjectInit
 1022 0010 074B     		ldr	r3, .L65+12
 1023 0012 2046     		mov	r0, r4
 1024 0014 0021     		movs	r1, #0
 1025 0016 074A     		ldr	r2, .L65+16
 1026 0018 6B67     		str	r3, [r5, #116]
 1027 001a FFF7FEFF 		bl	sdObjectInit
 1028 001e 064B     		ldr	r3, .L65+20
 1029 0020 6367     		str	r3, [r4, #116]
 1030 0022 38BD     		pop	{r3, r4, r5, pc}
 1031              	.L66:
 1032              		.align	2
 1033              	.L65:
 1034 0024 00000000 		.word	.LANCHOR0
 1035 0028 00000000 		.word	notify1
 1036 002c 00000000 		.word	.LANCHOR1
 1037 0030 00380140 		.word	1073821696
 1038 0034 00000000 		.word	notify2
 1039 0038 00440040 		.word	1073759232
 1040              		.size	sd_lld_init, .-sd_lld_init
 1041 003c AFF30080 		.section	.text.sd_lld_start,"ax",%progbits
 1042              		.align	2
 1043              		.p2align 4,,15
 1044              		.global	sd_lld_start
 1045              		.thumb
 1046              		.thumb_func
 1047              		.type	sd_lld_start, %function
 1048              	sd_lld_start:
 1049              		@ args = 0, pretend = 0, frame = 0
 1050              		@ frame_needed = 0, uses_anonymous_args = 0
 1051 0000 38B5     		push	{r3, r4, r5, lr}
 1052 0002 037A     		ldrb	r3, [r0, #8]	@ zero_extendqisi2
 1053 0004 1E4C     		ldr	r4, .L76
 1054 0006 0546     		mov	r5, r0
 1055 0008 0029     		cmp	r1, #0
 1056 000a 18BF     		it	ne
 1057 000c 0C46     		movne	r4, r1
 1058 000e 012B     		cmp	r3, #1
 1059 0010 1CD0     		beq	.L74
 1060              	.L69:
 1061 0012 2268     		ldr	r2, [r4]
 1062 0014 1B49     		ldr	r1, .L76+4
 1063 0016 6B6F     		ldr	r3, [r5, #116]
 1064 0018 B1FBF2F2 		udiv	r2, r1, r2
 1065 001c 92B2     		uxth	r2, r2
 1066 001e 1A81     		strh	r2, [r3, #8]	@ movhi
ARM GAS  /tmp/ccT2VTTc.s 			page 67


 1067 0020 A288     		ldrh	r2, [r4, #4]
 1068 0022 E188     		ldrh	r1, [r4, #6]
 1069 0024 2089     		ldrh	r0, [r4, #8]
 1070 0026 42F40452 		orr	r2, r2, #8448
 1071 002a 41F04004 		orr	r4, r1, #64
 1072 002e 42F02C02 		orr	r2, r2, #44
 1073 0032 40F00100 		orr	r0, r0, #1
 1074 0036 92B2     		uxth	r2, r2
 1075 0038 A4B2     		uxth	r4, r4
 1076 003a 80B2     		uxth	r0, r0
 1077 003c 0021     		movs	r1, #0
 1078 003e 1C82     		strh	r4, [r3, #16]	@ movhi
 1079 0040 9882     		strh	r0, [r3, #20]	@ movhi
 1080 0042 9A81     		strh	r2, [r3, #12]	@ movhi
 1081 0044 1980     		strh	r1, [r3]	@ movhi
 1082 0046 1A88     		ldrh	r2, [r3]
 1083 0048 9B88     		ldrh	r3, [r3, #4]
 1084 004a 38BD     		pop	{r3, r4, r5, pc}
 1085              	.L74:
 1086 004c 0E4B     		ldr	r3, .L76+8
 1087 004e 9842     		cmp	r0, r3
 1088 0050 0CD0     		beq	.L75
 1089 0052 0E4B     		ldr	r3, .L76+12
 1090 0054 9842     		cmp	r0, r3
 1091 0056 DCD1     		bne	.L69
 1092 0058 0D4B     		ldr	r3, .L76+16
 1093 005a 2620     		movs	r0, #38
 1094 005c DA69     		ldr	r2, [r3, #28]
 1095 005e 0C21     		movs	r1, #12
 1096 0060 42F40032 		orr	r2, r2, #131072
 1097 0064 DA61     		str	r2, [r3, #28]
 1098 0066 FFF7FEFF 		bl	nvicEnableVector
 1099 006a D2E7     		b	.L69
 1100              	.L75:
 1101 006c 084B     		ldr	r3, .L76+16
 1102 006e 2520     		movs	r0, #37
 1103 0070 9A69     		ldr	r2, [r3, #24]
 1104 0072 0C21     		movs	r1, #12
 1105 0074 42F48042 		orr	r2, r2, #16384
 1106 0078 9A61     		str	r2, [r3, #24]
 1107 007a FFF7FEFF 		bl	nvicEnableVector
 1108 007e C8E7     		b	.L69
 1109              	.L77:
 1110              		.align	2
 1111              	.L76:
 1112 0080 00000000 		.word	.LANCHOR2
 1113 0084 00366E01 		.word	24000000
 1114 0088 00000000 		.word	.LANCHOR0
 1115 008c 00000000 		.word	.LANCHOR1
 1116 0090 00100240 		.word	1073876992
 1117              		.size	sd_lld_start, .-sd_lld_start
 1118 0094 AFF30080 		.section	.text.sd_lld_stop,"ax",%progbits
 1118      AFF30080 
 1118      AFF30080 
 1119              		.align	2
 1120              		.p2align 4,,15
 1121              		.global	sd_lld_stop
ARM GAS  /tmp/ccT2VTTc.s 			page 68


 1122              		.thumb
 1123              		.thumb_func
 1124              		.type	sd_lld_stop, %function
 1125              	sd_lld_stop:
 1126              		@ args = 0, pretend = 0, frame = 0
 1127              		@ frame_needed = 0, uses_anonymous_args = 0
 1128              		@ link register save eliminated.
 1129 0000 037A     		ldrb	r3, [r0, #8]	@ zero_extendqisi2
 1130 0002 022B     		cmp	r3, #2
 1131 0004 00D0     		beq	.L83
 1132              	.L78:
 1133 0006 7047     		bx	lr
 1134              	.L83:
 1135 0008 0D49     		ldr	r1, .L85
 1136 000a 436F     		ldr	r3, [r0, #116]
 1137 000c 0022     		movs	r2, #0
 1138 000e 8842     		cmp	r0, r1
 1139 0010 9A81     		strh	r2, [r3, #12]	@ movhi
 1140 0012 1A82     		strh	r2, [r3, #16]	@ movhi
 1141 0014 9A82     		strh	r2, [r3, #20]	@ movhi
 1142 0016 0AD0     		beq	.L84
 1143 0018 0A4B     		ldr	r3, .L85+4
 1144 001a 9842     		cmp	r0, r3
 1145 001c F3D1     		bne	.L78
 1146 001e 0A4B     		ldr	r3, .L85+8
 1147 0020 2620     		movs	r0, #38
 1148 0022 DA69     		ldr	r2, [r3, #28]
 1149 0024 22F40032 		bic	r2, r2, #131072
 1150 0028 DA61     		str	r2, [r3, #28]
 1151 002a FFF7FEBF 		b	nvicDisableVector
 1152              	.L84:
 1153 002e 064B     		ldr	r3, .L85+8
 1154 0030 2520     		movs	r0, #37
 1155 0032 9A69     		ldr	r2, [r3, #24]
 1156 0034 22F48042 		bic	r2, r2, #16384
 1157 0038 9A61     		str	r2, [r3, #24]
 1158 003a FFF7FEBF 		b	nvicDisableVector
 1159              	.L86:
 1160 003e 00BF     		.align	2
 1161              	.L85:
 1162 0040 00000000 		.word	.LANCHOR0
 1163 0044 00000000 		.word	.LANCHOR1
 1164 0048 00100240 		.word	1073876992
 1165              		.size	sd_lld_stop, .-sd_lld_stop
 1166              		.global	SD2
 1167              		.global	SD1
 1168 004c AFF30080 		.section	.rodata.default_config,"a",%progbits
 1169              		.align	2
 1170              		.set	.LANCHOR2,. + 0
 1171              		.type	default_config, %object
 1172              		.size	default_config, 12
 1173              	default_config:
 1174 0000 00960000 		.word	38400
 1175 0004 0000     		.short	0
 1176 0006 0040     		.short	16384
 1177 0008 0000     		.short	0
 1178 000a 0000     		.space	2
ARM GAS  /tmp/ccT2VTTc.s 			page 69


 1179              		.section	.bss.SD1,"aw",%nobits
 1180              		.align	2
 1181              		.set	.LANCHOR0,. + 0
 1182              		.type	SD1, %object
 1183              		.size	SD1, 120
 1184              	SD1:
 1185 0000 00000000 		.space	120
 1185      00000000 
 1185      00000000 
 1185      00000000 
 1185      00000000 
 1186              		.section	.bss.SD2,"aw",%nobits
 1187              		.align	2
 1188              		.set	.LANCHOR1,. + 0
 1189              		.type	SD2, %object
 1190              		.size	SD2, 120
 1191              	SD2:
 1192 0000 00000000 		.space	120
 1192      00000000 
 1192      00000000 
 1192      00000000 
 1192      00000000 
 1193              		.comm	__gnu_lto_v1,1,1
 1194              		.ident	"GCC: (GNU Tools for ARM Embedded Processors) 4.8.4 20140526 (release) [ARM/embedded-4_8-br
ARM GAS  /tmp/ccT2VTTc.s 			page 70


DEFINED SYMBOLS
                            *ABS*:0000000000000000 serial_lld.c
     /tmp/ccT2VTTc.s:779    .text.notify1:0000000000000000 $t
     /tmp/ccT2VTTc.s:784    .text.notify1:0000000000000000 notify1
     /tmp/ccT2VTTc.s:797    .text.notify1:0000000000000010 $d
     /tmp/ccT2VTTc.s:800    .text.notify2:0000000000000000 $t
     /tmp/ccT2VTTc.s:805    .text.notify2:0000000000000000 notify2
     /tmp/ccT2VTTc.s:818    .text.notify2:0000000000000010 $d
     /tmp/ccT2VTTc.s:821    .text.serve_interrupt:0000000000000000 $t
     /tmp/ccT2VTTc.s:826    .text.serve_interrupt:0000000000000000 serve_interrupt
     /tmp/ccT2VTTc.s:966    .text.VectorD4:0000000000000000 $t
     /tmp/ccT2VTTc.s:972    .text.VectorD4:0000000000000000 VectorD4
     /tmp/ccT2VTTc.s:983    .text.VectorD4:0000000000000010 $d
     /tmp/ccT2VTTc.s:986    .text.VectorD8:0000000000000000 $t
     /tmp/ccT2VTTc.s:992    .text.VectorD8:0000000000000000 VectorD8
     /tmp/ccT2VTTc.s:1003   .text.VectorD8:0000000000000010 $d
     /tmp/ccT2VTTc.s:1006   .text.sd_lld_init:0000000000000000 $t
     /tmp/ccT2VTTc.s:1012   .text.sd_lld_init:0000000000000000 sd_lld_init
     /tmp/ccT2VTTc.s:1034   .text.sd_lld_init:0000000000000024 $d
     /tmp/ccT2VTTc.s:1042   .text.sd_lld_start:0000000000000000 $t
     /tmp/ccT2VTTc.s:1048   .text.sd_lld_start:0000000000000000 sd_lld_start
     /tmp/ccT2VTTc.s:1112   .text.sd_lld_start:0000000000000080 $d
     /tmp/ccT2VTTc.s:1119   .text.sd_lld_stop:0000000000000000 $t
     /tmp/ccT2VTTc.s:1125   .text.sd_lld_stop:0000000000000000 sd_lld_stop
     /tmp/ccT2VTTc.s:1162   .text.sd_lld_stop:0000000000000040 $d
     /tmp/ccT2VTTc.s:1191   .bss.SD2:0000000000000000 SD2
     /tmp/ccT2VTTc.s:1184   .bss.SD1:0000000000000000 SD1
     /tmp/ccT2VTTc.s:1169   .rodata.default_config:0000000000000000 $d
     /tmp/ccT2VTTc.s:1173   .rodata.default_config:0000000000000000 default_config
     /tmp/ccT2VTTc.s:1180   .bss.SD1:0000000000000000 $d
     /tmp/ccT2VTTc.s:1187   .bss.SD2:0000000000000000 $d
                            *COM*:0000000000000001 __gnu_lto_v1
     /tmp/ccT2VTTc.s:799    .text.notify1:0000000000000014 $t
     /tmp/ccT2VTTc.s:820    .text.notify2:0000000000000014 $t
     /tmp/ccT2VTTc.s:985    .text.VectorD4:0000000000000014 $t
     /tmp/ccT2VTTc.s:1005   .text.VectorD8:0000000000000014 $t
     /tmp/ccT2VTTc.s:1041   .text.sd_lld_init:000000000000003c $t
     /tmp/ccT2VTTc.s:1118   .text.sd_lld_start:0000000000000094 $t
     /tmp/ccT2VTTc.s:1168   .text.sd_lld_stop:000000000000004c $t

UNDEFINED SYMBOLS
sdIncomingDataI
chEvtBroadcastFlagsI
chOQGetI
_port_irq_epilogue
sdObjectInit
nvicEnableVector
nvicDisableVector
