ARM GAS  /tmp/ccLzt0L0.s 			page 1


   1              		.syntax unified
   2              		.cpu cortex-m3
   3              		.fpu softvfp
   4              		.eabi_attribute 20, 1
   5              		.eabi_attribute 21, 1
   6              		.eabi_attribute 23, 3
   7              		.eabi_attribute 24, 1
   8              		.eabi_attribute 25, 1
   9              		.eabi_attribute 26, 1
  10              		.eabi_attribute 30, 2
  11              		.eabi_attribute 34, 1
  12              		.eabi_attribute 18, 4
  13              		.thumb
  14              		.file	"shell.c"
  15              		.section	.gnu.lto_.jmpfuncs.72f613c25c0c605d,"",%progbits
  16 0000 789C8D55 		.ascii	"x\234\215UMl\033E\024~\263\353\215c7\246\005\343\226"
  16      4D6C1B45 
  16      147EB3EB 
  16      8D6337A6 
  16      05E396
  17 0013 16D84E01 		.ascii	"\026\330N\001#@r\352\237\230FVE\233\270P\025j\032%-"
  17      234072EA 
  17      9F984656 
  17      459BB850 
  17      156A1A25 
  18 0028 42422DDA 		.ascii	"BB-\332x\247\361\250\373S\355\256\255D=4\247\252R{\342"
  18      78A7F1A8 
  18      FB53EDAE 
  18      AD443D34 
  18      A7AA527B 
  19 003d 944B2FA8 		.ascii	"\224K/\250\202\013\234\020\342\200\220z\345\210\204"
  19      820B9C10 
  19      E280907A 
  19      E58884
  20 004c 2A0E9C38 		.ascii	"*\016\2348 \356\334\020B\274\231\335\330\336\365n`-"
  20      20EEDC10 
  20      42BC99DD 
  20      D8DEF56E 
  20      602D
  21 005e 7967E6FB 		.ascii	"yg\346\373\2767\357\327V@\201\264\347\2139\200*B%8\211"
  21      BE37EFD7 
  21      564081B4 
  21      E78B3980 
  21      2A422538 
  22 0073 DF2A8032 		.ascii	"\337*\2002\"\240\342\233\2107\236\214\344i\016ww\361"
  22      22A0E29B 
  22      88379E8C 
  22      E4690E77 
  22      77F1
  23 0085 301F9208 		.ascii	"0\037\222\010\236N\255T\002R\003\243\361\231\304\225"
  23      9E4EAD54 
  23      025203A3 
  23      F199C495 
  24 0095 8F092762 		.ascii	"\217\011'b\255\022a\371\016\374\265\273\267{\204\023"
  24      AD1261F9 
  24      0EFCB5BB 
  24      B77B8413 
ARM GAS  /tmp/ccLzt0L0.s 			page 2


  25 00a5 A20379B4 		.ascii	"\242\003y\264\273w\236\223}\247r\222\001\321\335\342"
  25      BB779E93 
  25      7DA77292 
  25      01D1DDE2 
  26 00b5 3D61AB3A 		.ascii	"=a\253:\314\207\354\234\344N\020M\207J\210\314ID#\263"
  26      CC87EC9C 
  26      E44E104D 
  26      874A88CC 
  26      494423B3 
  27 00c9 EABC0E7A 		.ascii	"\352\274\016z\310\231O\250\013:4C\244(\221\375\010b"
  27      C8994FA8 
  27      0B3A3443 
  27      A42891FD 
  27      0862
  28 00db DAB3E9DA 		.ascii	"\332\263\351\332C:\254\205\310B\266v\217\244\213\321"
  28      433AAC85 
  28      C842B676 
  28      8FA48BD1 
  29 00eb EDAFC8B4 		.ascii	"\355\257\310\264\337\251\352o3\324%\035~\214\240g\262"
  29      DFA9EA6F 
  29      33D4251D 
  29      7E8CA067 
  29      B2
  30 00fc D53F67A8 		.ascii	"\325?g\250\017\353\360G\004\035\311V\377\223\241~V\207"
  30      0FEBF047 
  30      041DC956 
  30      FF93A17E 
  30      5687
  31 010e CF94107A 		.ascii	"\317\224\020z.[\375\203\222\256.\353\360S\004=\037\326"
  31      2E5BFD83 
  31      92AE2EEB 
  31      F053043D 
  31      1FD6
  32 0120 6B465DD1 		.ascii	"kF]\321\341\317\210r4\241\3066x\240\246\367\3011\314"
  32      E1CF8872 
  32      34A1C636 
  32      78A0A6F7 
  32      C131CC
  33 0133 7504BD30 		.ascii	"u\004\2750[\344G\352t\225\347\016\3524\203<\306\336"
  33      5BE447EA 
  33      7495E70E 
  33      EA34833C 
  33      C6DE
  34 0145 8C5B38AE 		.ascii	"\214[8\256\303\227\221\205\023\022\312C\201\220}\317"
  34      C3979185 
  34      1312CA43 
  34      81907DCF 
  35 0155 25EFBEE0 		.ascii	"%\357\276\340\275h\223P)\232\376%\\\024\363\232\\\277"
  35      BD689350 
  35      299AFE25 
  35      5C14F39A 
  35      5CBF
  36 0167 0CE3A990 		.ascii	"\014\343\251\220\363\025\031\227\"\275\037\212\"W\016"
  36      F3151997 
  36      22BD1F8A 
  36      22570E
  37 0176 11222527 		.ascii	"\021\"%'\243\371\231v\342\353\230\023\261y\242:|\023"
ARM GAS  /tmp/ccLzt0L0.s 			page 3


  37      A3F99976 
  37      E2EB9813 
  37      B179A23A 
  37      7C13
  38 0188 A1A7A281 		.ascii	"\241\247\242\201\322&#\256M\256{\305&dz\372\225\204"
  38      D22623AE 
  38      4DAE7BC5 
  38      26647AFA 
  38      9584
  39 019a 95EF6256 		.ascii	"\225\357bV\324D\216\277\217\3458\211\033\344\227(w\011"
  39      D4448EBF 
  39      8FE53889 
  39      1BE49728 
  39      7709
  40 01ac BBD8724F 		.ascii	"\273\330rO\324X\313\301\377\310\371\323X\270\311d<\315"
  40      D458CBC1 
  40      FFC8F9D3 
  40      58B8C964 
  40      3CCD
  41 01be 4E4696C1 		.ascii	"NF\226\301_\0174\030GUY\205W!\221\236\337\022IN\206"
  41      5F0F3418 
  41      47555985 
  41      5721919E 
  41      DF12494E 
  42 01d3 F97B7698 		.ascii	"\371{v\230\377\245\306>\375;\326\247\352\270\227^;?"
  42      FFA5C63E 
  42      FD3BD6A7 
  42      EAB8975E 
  42      3B3F
  43 01e5 EBEEBD5C 		.ascii	"\353\356\275\\f0\350\307\303\334\264\037\013\207\265"
  43      6630E8C7 
  43      C3DCB41F 
  43      0B87B5
  44 01f4 C9EFB912 		.ascii	"\311\357\271\022v\241zP\027\226\362\312\314`\3164G*"
  44      76A17A50 
  44      1796F2CA 
  44      CC60CE34 
  44      472A
  45 0206 E5F35C1A 		.ascii	"\345\363\\\032\005\304_G\352F\306W\245\263\004u\274"
  45      05C45F47 
  45      EA46C657 
  45      A5B30475 
  45      BC
  46 0217 9194D789 		.ascii	"\221\224\327\211<\205\271\2525,\025a\341\232ol\261\016"
  46      3C85B9AA 
  46      352C1561 
  46      E19A6F6C 
  46      B10E
  47 0229 ADFAB899 		.ascii	"\255\372\270\231\367w\374\200\333\014\312\0370\317a"
  47      F777FC80 
  47      DB0CCA1F 
  47      30CF61
  48 0238 5687868F 		.ascii	"V\207\206\217\004\013\255\305\372b\335d#(w]\3736\267"
  48      040BADC5 
  48      FA62DD64 
  48      2328775D 
  48      FB36B7
ARM GAS  /tmp/ccLzt0L0.s 			page 4


  49 024b 98D799A0 		.ascii	"\230\327\231\240\027/v\273tiqyq\2116\353\215\245z\273"
  49      172F76BB 
  49      74697179 
  49      718936EB 
  49      8DA57ABB 
  50 025f F9367DC3 		.ascii	"\3716}\303c\0263|\366&\375de\275w\232\331\233\3144\231"
  50      6316337C 
  50      F626FD64 
  50      65BD779A 
  50      D99BCC34 
  51 0274 595BFA74 		.ascii	"Y[\372t\271\266\351\031N\177@=6\342>w\035\332l4Z\355"
  51      B9B6E919 
  51      4E7F403D 
  51      36E23E77 
  51      1DDA6C34 
  52 028a E5EB505E 		.ascii	"\345\353P^\361\372\003\036\260~0\364\306n\241zt\246"
  52      F1FA031E 
  52      B07E30F4 
  52      C66EA17A 
  52      74A6
  53 029c D613177B 		.ascii	"\326\023\027{\214~dx\334p\202\010,\342Y\300\266k\275"
  53      8C7E6478 
  53      DC708208 
  53      2CE259C0 
  53      B66BBD
  54 02af 1694D770 		.ascii	"\026\224\327pI/97\335\316\330\257\312\2129\302\233\230"
  54      492F3937 
  54      DDCED8AF 
  54      CA8A39C2 
  54      9B98
  55 02c1 496FC990 		.ascii	"Io\311\220\250\355\232\030\337\232e\0047]\317\236\212"
  55      A8ED9A18 
  55      DF9A6504 
  55      375DCF9E 
  55      8A
  56 02d2 E0AD8DAB 		.ascii	"\340\255\215\253\275V\363\275F}\233\2561O\200BG/s\207"
  56      BD56F3BD 
  56      467D9BAE 
  56      314F8042 
  56      472F7387 
  57 02e6 D11E33F9 		.ascii	"\321\0363\371\320\246\027\230\343\363`\007\312\253\256"
  57      D0A61798 
  57      E3F36007 
  57      CAABAE
  58 02f5 E199FBD9 		.ascii	"\341\231\373\331\011\345\247P\316\373\236\213!\367\003"
  58      09E5A750 
  58      CEFB9E8B 
  58      21F703
  59 0304 CF7578DF 		.ascii	"\317ux\337\247\037^\353^~\367J\015m\266\326W\341\330"
  59      A71F5EEB 
  59      5E7EF74A 
  59      0D6DB6D6 
  59      57E1D8
  60 0317 EA905B26 		.ascii	"\352\220[&\025\011\356H\225\370\210\022\274o`\374M\221"
  60      1509EE48 
  60      95F88812 
  60      BC6F60FC 
ARM GAS  /tmp/ccLzt0L0.s 			page 5


  60      4D91
  61 0329 B736E468 		.ascii	"\2676\344h\215B\241\321\356\324\227;\355&h\034\243\001"
  61      8D42A1D1 
  61      EED4973B 
  61      ED26681C 
  61      A301
  62 033b 8D9E439E 		.ascii	"\215\236C\236Z\365A\305w\256\352S\250`\015\320A\323"
  62      5AF541C5 
  62      77AEEA53 
  62      A8600DD0 
  62      41D3
  63 034d EFD001B3 		.ascii	"\357\320\001\263nS\266\315\003\012\232X\203&6\240\322"
  63      6E53B6CD 
  63      030A9A58 
  63      832636A0 
  63      D2
  64 035e 025402D7 		.ascii	"\002T\002\327\245H\333\241\206\2675\264\231\023\310"
  64      A548DBA1 
  64      86B735B4 
  64      9913C8
  65 036d 4A968A96 		.ascii	"J\226\212\226\273\345\016\003\320\372\203w\320V\251"
  65      BBE50E03 
  65      D0FA8377 
  65      D056A9
  66 037c D81DF04D 		.ascii	"\330\035\360M~e\343\364\372U\272\2016,q\335\215\013"
  66      7E65E3F4 
  66      FA55BA81 
  66      362C71DD 
  66      8D0B
  67 038e F02F7E16 		.ascii	"\360/~\026\333+"
  67      DB2B
  68              		.text
  69              		.section	.gnu.lto_.inline.72f613c25c0c605d,"",%progbits
  70 0000 789CA552 		.ascii	"x\234\245R=K\003A\020}3\273w\227\344.\311\031\005\361"
  70      3D4B0341 
  70      107D33BB 
  70      7797E42E 
  70      C91905F1 
  71 0014 03125051 		.ascii	"\003\022PQ\020\024\004\355\374\013\251\375\001J\264"
  71      101404ED 
  71      FC0BA9FD 
  71      014AB4
  72 0023 F53708B6 		.ascii	"\3657\010\266\011(\022AH)\330\230?\241\215\205\210\205"
  72      09281241 
  72      4829D898 
  72      3FA18D85 
  72      8885
  73 0035 2829EC2C 		.ascii	"()\354,,ll\254\234\335\275[\243\246\322;n\356\315\354"
  73      2C6C6CAC 
  73      9CDDBD5B 
  73      A3A6D23B 
  73      6EEECDEC 
  74 0049 EC9BB733 		.ascii	"\354\233\2673\313`\214z\016\224\373\227\201\211'\"p"
  74      CB608C7A 
  74      0E94FB97 
  74      81892722 
  74      70
ARM GAS  /tmp/ccLzt0L0.s 			page 6


  75 005a E5BC5340 		.ascii	"\345\274S@\330\253\333t]\226H\273\331\215\302\032\240"
  75      D8ABDB74 
  75      5D9648BB 
  75      D98DC21A 
  75      A0
  76 006b DA4DF312 		.ascii	"\332M\363\022f\226Iaw\213\366h\316$\265<\"\371\202\311"
  76      66964961 
  76      778BF668 
  76      CE24B53C 
  76      22F982C9 
  77 007f CE05A178 		.ascii	"\316\005\241x\266\316\320\275z\012\272\0135[\353\010"
  77      B6CED0BD 
  77      7A0ABA0B 
  77      355BEB08 
  78 008f 6108DB4D 		.ascii	"a\010\333M\017X\307\263\260\342\362\242\216)\250\370"
  78      0F58C7B3 
  78      B0E2F2A2 
  78      8E29A8F8 
  79 009f 8A2AB109 		.ascii	"\212*\261\011\012\245\232\310\011\337V\206\364\331$"
  79      0AA59AC8 
  79      09DF5686 
  79      F4D924
  80 00ae 081FE294 		.ascii	"\010\037\342\224\024\355\030-\226`\333#cU\316o5\311"
  80      14ED182D 
  80      9660DB23 
  80      6355CE6F 
  80      35C9
  81 00c0 C3310A20 		.ascii	"\3031\012 \253C[\012\004Xx\225\272\303Jr\372?\202\260"
  81      AB435B0A 
  81      04587895 
  81      BAC34A72 
  81      FA3F82B0 
  82 00d4 2AAC0608 		.ascii	"*\254\006\010\374\267\274\010Z\211:\276\255zyE\024\247"
  82      FCB7BC08 
  82      5A893ABE 
  82      AD7A7945 
  82      14A7
  83 00e6 7F84649F 		.ascii	"\177\204d\237\331\226u\254\344:6t\242(5\0075M\025\023"
  83      D99675AC 
  83      E43A3674 
  83      A2283507 
  83      354D1513 
  84 00fa 3FE00327 		.ascii	"?\340\003'\363\244\3350\027EG\303M\323A\262\302\214"
  84      F3A4DD30 
  84      174547C3 
  84      4DD341B2 
  84      C28C
  85 010c 6D441B57 		.ascii	"mD\033W\207-\307B/Q\352\2541\015F\361\262\326@r\277"
  85      872DC742 
  85      2F51EAAC 
  85      310D46F1 
  85      B2D64072 
  86 0121 AFBD00A8 		.ascii	"\257\275\000\250\304\336\033{\177\334|\242T\312\004"
  86      C4DE1B7B 
  86      7FDC7CA2 
  86      54CA04
  87 0130 6E9E1210 		.ascii	"n\236\022\0207\323!\316W6\313aoV\3158\313\014u\272\004"
ARM GAS  /tmp/ccLzt0L0.s 			page 7


  87      37D321CE 
  87      5736CB61 
  87      6F56CD38 
  87      CB0C75BA 
  88 0145 7394EF54 		.ascii	"s\224\357T\371\235\374\035\010*\3126R%\014>f\3619\363"
  88      F99DFC1D 
  88      082ACA36 
  88      52250C3E 
  88      66F139F3 
  89 0159 91AD8B3F 		.ascii	"\221\255\213?\240,a@~!\031\335\246L]\273Y\246k<\006"
  89      A02C6140 
  89      7E2119DD 
  89      A64C5DBB 
  89      59A66B3C 
  90 016e C44CF9BC 		.ascii	"\304L\371\274\364f\277?\205\270\363N\302t\264\246\215"
  90      F466BF3F 
  90      85B8F34E 
  90      C274B4A6 
  90      8D
  91 017f 493054CB 		.ascii	"I0T\313\327\034#w\315-\350\326<\200\017D\343\242\344"
  91      D71C2377 
  91      CD2DE8D6 
  91      3C800F44 
  91      E3A2E4
  92 0192 3990CD9F 		.ascii	"9\220\315\237\207Vq+"
  92      8756712B 
  93              		.text
  94              		.section	.gnu.lto_.pureconst.72f613c25c0c605d,"",%progbits
  95 0000 789C6362 		.ascii	"x\234cb`b\220f\200\000^\006KF)&\011f+\026\011V\0116"
  95      60629066 
  95      80005E06 
  95      4B462926 
  95      09662B16 
  96 0018 0976094E 		.ascii	"\011v\011N+.\011n)\036\011^)\000\037\310\002#"
  96      2B2E096E 
  96      291E095E 
  96      29001FC8 
  96      0223
  97              		.text
  98              		.section	.gnu.lto_cmdexec.72f613c25c0c605d,"",%progbits
  99 0000 789C6D51 		.ascii	"x\234mQ\277O\024A\030}ofvvoosZZP\320\233\270*\377\012"
  99      BF4F1441 
  99      187D6F66 
  99      76766F6F 
  99      735A5A50 
 100 001a 44ED84E5 		.ascii	"D\355\204\345\262\267\001\274\204\023\022C\301\236\240"
 100      B2B701BC 
 100      84131243 
 100      C19EA0
 101 0029 3191446A 		.ascii	"1\221Dj\260\200\316P@KC\370\021\022\210Q\220R\013Cb"
 101      B080CE50 
 101      404B43F8 
 101      11128851 
 101      90520B43 
 102 003e A1058589 		.ascii	"\241\005\205\211\215\301\004\370f\227;\011a\222\375"
 102      8DC104F8 
 102      66973B09 
ARM GAS  /tmp/ccLzt0L0.s 			page 8


 102      6192FD
 103 004d BEF7CDBC 		.ascii	"\276\367\315\2747\337\333\371\024\024\256\257G\362\375"
 103      37DFDBF9 
 103      1414AEAF 
 103      47F2FD
 104 005c 21F05032 		.ascii	"!\360P2\003P\315\037\000\355@\321\226@+\263\243\221"
 104      0350CD1F 
 104      00ED40D1 
 104      96402BB3 
 104      A391
 105 006e 87DEC147 		.ascii	"\207\336\301G \217\014\375r\337+\011\333\201U\2728\012"
 105      208F0CFD 
 105      72DF2B09 
 105      DB8155BA 
 105      380A
 106 0080 7DC78B7C 		.ascii	"}\307\213|\322\355\203\230V\332x\326\347\364\023\026"
 106      D2ED8398 
 106      56DA78D6 
 106      E7F41316 
 107 0090 9DD6D4D6 		.ascii	"\235\326\324\326\361\371\371\352\367\275\215\367\374"
 107      F1F9F9EA 
 107      F7BD8DF7 
 107      FC
 108 009d A06E1163 		.ascii	"\240n\021c\024?\031a(\310\012\242/HLdT\025\011:\224"
 108      143F1961 
 108      28C80AA2 
 108      2F484C64 
 108      5415093A 
 109 00b2 525525E8 		.ascii	"RU%\350H\202\2519\205,\017\263y>\337\013$E\331/\361"
 109      4882A939 
 109      852C0FB3 
 109      793EDF0B 
 109      2445D92F 
 110 00c7 B795A424 		.ascii	"\267\225\244$\351\001j\210\037}\210W\307\247?\302A."
 110      E9016A88 
 110      1F7D8857 
 110      C7A73FC2 
 110      412E
 111 00d9 D343CA60 		.ascii	"\323C\312`\012\247\371\233\374vF\223\260\364\223\322"
 111      0AA7F99B 
 111      FC764693 
 111      B0F493D2 
 112 00e9 A6F43339 		.ascii	"\246\36439\306>v\177\266\037t\271\217)\016\256>\322"
 112      C63E767F 
 112      B61F74B9 
 112      8F290EAE 
 112      3ED2
 113 00fb 000D56B5 		.ascii	"\000\015V\265\376\214\227\337\376\236}a\207X\271\213"
 113      FE8C97DF 
 113      FE9E7D61 
 113      8758B98B 
 114 010b 1577A55D 		.ascii	"\025w\245]\304\202H\374\224t\322\240\320\014\261\243"
 114      C48248FC 
 114      9474D2A0 
 114      D00CB1A3 
 115 011b 3EC4EBAD 		.ascii	">\304\353\255\270\324\270\256\025\027\302\224\325\224"
 115      B8D4B8AE 
ARM GAS  /tmp/ccLzt0L0.s 			page 9


 115      1517C294 
 115      D594
 116 0129 51E6AAB2 		.ascii	"Q\346\252\262\203\207\245=H\213\231\2673\377\336\335"
 116      8387A53D 
 116      488B99B7 
 116      33FFDEDD 
 117 0139 E9B4A85D 		.ascii	"\351\264\250]\336\031\006]+\026\362\300\205\227\365"
 117      DE19065D 
 117      2B16F2C0 
 117      8597F5
 118 0148 B35F5D2F 		.ascii	"\263_]/\366\322K\365f/\0353\373\230=i\367uE\216R\375"
 118      F6D24BF5 
 118      662F1D33 
 118      FB983D69 
 118      F775458E 
 119 015e FF9F5FC1 		.ascii	"\377\237_\301\224FI\250y'\233O]7\337=\352\221\014\334"
 119      944649A8 
 119      79279B4F 
 119      5D37DF3D 
 119      EA910CDC 
 120 0172 B9562549 		.ascii	"\271V%I9\231 \363i\263\247\2002\276\271\243\310\215"
 120      399920F3 
 120      69B3A780 
 120      32BEB9A3 
 120      C88D
 121 0184 824277AC 		.ascii	"\202Bw\254\373q\2439V\217\223\346\360\213x\270>\031"
 121      FB71A339 
 121      568F93E6 
 121      F08B78B8 
 121      3E19
 122 0196 278D6C28 		.ascii	"'\215l(k\266\342\347\343\023\317Fb\001\223\203\343Y"
 122      6BB6E2E7 
 122      E313CF46 
 122      62019383 
 122      E359
 123 01a8 73A215B7 		.ascii	"s\242\025\267\032\365\321\321{\011.\000\313\205\204"
 123      1AF5D1D1 
 123      7B092E00 
 123      CB8584
 124 01b7 FC       		.ascii	"\374"
 125              		.text
 126              		.section	.gnu.lto__strtok.72f613c25c0c605d,"",%progbits
 127 0000 789C8553 		.ascii	"x\234\205S;l\023A\020\235\331\373\237\277Rh\322E)\240"
 127      3B6C1341 
 127      109DD9FB 
 127      9FBF5268 
 127      D24529A0 
 128 0014 CBF12928 		.ascii	"\313\361)(hh\351c\011\350\314\305\330\247\3301\212\235"
 128      6868E963 
 128      09E8CCC5 
 128      D8A7D831 
 128      8A9D
 129 0026 4888C26B 		.ascii	"H\210\302k;\221\002iL\012\204\370\010\"\204@\242H\203"
 129      3B910269 
 129      4C0A84F8 
 129      08228440 
 129      A24883
ARM GAS  /tmp/ccLzt0L0.s 			page 10


 130 0039 04421436 		.ascii	"\004B\0246P\030\222\000)\203\"\260\204\2424\024\251"
 130      50189200 
 130      298322B0 
 130      84A23414 
 130      A9
 131 004a 293866F7 		.ascii	")8f\367\356L\354D\342$\317\356\315\276\367\346\315\354"
 131      EE4CEC44 
 131      E224CFEE 
 131      CDBEF7E6 
 131      CDEC
 132 005c 990183E1 		.ascii	"\231\001\203\341\207\323\257\246\000\234\247\025c\200"
 132      87D3AFA6 
 132      009CA715 
 132      6380
 133 006a ACF519A0 		.ascii	"\254\365\031\240n2\246\274|G\247\266\272\023\003\036"
 133      6E32A6BC 
 133      7C47A7B6 
 133      BA13031E 
 134 007a 57500DF2 		.ascii	"WP\015\362*\263\333Hi\355\353\006\235\3065\246\0070"
 134      2AB3DB48 
 134      69EDEB06 
 134      9DC635A6 
 134      0730
 135 008c 43C27434 		.ascii	"C\302t4\002\230\301\314\245\023\224\266D\214\233h\005"
 135      0298C1CC 
 135      A51394B6 
 135      448C9B68 
 135      05
 136 009d 690BED60 		.ascii	"i\013\355`c#\212\015 \324\230\242j\272aZ6\326.\241p"
 136      63238A0D 
 136      20D498A2 
 136      6ABA615A 
 136      36D62EA1 
 137 00b2 C4C66195 		.ascii	"\304\306a\225\363\225\336\356\267\007\243\267\0367Z"
 137      F395DEEE 
 137      B707A3B7 
 137      1E375A
 138 00c1 FC8FEFA3 		.ascii	"\374\217\357\243\207\344\375\014\202\213p\221^pL.L\035"
 138      87E4FD0C 
 138      828B7091 
 138      5E704C2E 
 138      4C1D
 139 00d3 6C2660B6 		.ascii	"l&`\266\037\356v\221\257\360\372\276\357\247$\361\334"
 139      1FEE7691 
 139      AFF0FABE 
 139      EFA724F1 
 139      DC
 140 00e4 FF886BAC 		.ascii	"\377\210k\254\335\363\375\235\233?{E<\206 IY\\\305q"
 140      DDF3FD9D 
 140      9B3F7B45 
 140      3C862049 
 140      595CC571 
 141 00f8 D0B18460 		.ascii	"\320\261\204`R@\2332O(\023\243\027\026'\214\222\010"
 141      52409B32 
 141      4F2813A3 
 141      1716278C 
 141      9208
ARM GAS  /tmp/ccLzt0L0.s 			page 11


 142 010a 33494148 		.ascii	"3IAH\2130BAHk\260\300yk,8\006Q\234\236I\212\242\353"
 142      8B304241 
 142      486BB0C0 
 142      796B2C38 
 142      06519C9E 
 143 0122 0C32B12A 		.ascii	"\0142\261*]X\370\325y4\232\305\247\250A\036ual\300U"
 143      5D58F8D5 
 143      79349AC5 
 143      A7A8411E 
 143      75616CC0 
 144 0137 0615A0F1 		.ascii	"\006\025\240\361*\233\320X\277{'\025\000\357\303\275"
 144      2A9BD058 
 144      BF7B2715 
 144      00EFC3BD 
 145 0147 3AE73C46 		.ascii	":\347<F\330<\232\202\243I0\011D,U\312\023\353\315\342"
 145      D83C9A82 
 145      A3493009 
 145      442C55CA 
 145      13EBCDE2 
 146 015b DE278CF4 		.ascii	"\336'\214\364\355\220yv\230\011\320\205\017{\235W}'"
 146      ED907976 
 146      9809D085 
 146      0F7B9D57 
 146      7D27
 147 016d F6114E34 		.ascii	"\366\021N4\240\033W\276\300b\357\373\351\010\027\277"
 147      A01B57BE 
 147      C062EFFB 
 147      E90817BF 
 148 017d 01BFF912 		.ascii	"\001\277\371\022O{\250\273\210\241\013;\217\344\315"
 148      4F7BA8BB 
 148      88A10B3B 
 148      8FE4CD
 149 018c 00D884E6 		.ascii	"\000\330\204\346\262\022A\023\362 \016 \024~\\\216\322"
 149      B2124113 
 149      F2200E20 
 149      147E5C8E 
 149      D2
 150 019d C9BE82E9 		.ascii	"\311\276\202\351\"\013\025\022R\301\022\012\215\217"
 150      220B1512 
 150      52C1120A 
 150      8D8F
 151 01ab 2D63A06D 		.ascii	"-c\240m\343p\333I\341\237&\271\325\367\237<\302\277"
 151      E370DB49 
 151      E19F26B9 
 151      D5F79F3C 
 151      C2BF
 152 01bd 0EB73B62 		.ascii	"\016\267;b&\315\345\346\263\367,B\246C0\023p*wa\240"
 152      26CDE5E6 
 152      B3F72C42 
 152      A6433013 
 152      702A7761 
 153 01d2 58EA70B1 		.ascii	"X\352p\261\264\204\275\336\267\207/C\035(+v\352\277"
 153      B484BDDE 
 153      B7872F43 
 153      1D282B76 
 153      EABF
 154 01e4 E2861C9E 		.ascii	"\342\206\034\236\274\220\265\365~\361\021b\243d&\016"
ARM GAS  /tmp/ccLzt0L0.s 			page 12


 154      BC90B5F5 
 154      7EF11162 
 154      A364260E 
 155 01f4 1A16CDD4 		.ascii	"\032\026\315\324+}\2208\262\017\3662\211&<?\256dhBB"
 155      2B7D9038 
 155      B20FF632 
 155      89263C3F 
 155      AE646842 
 156 0209 15601B18 		.ascii	"\025`\033\030I\230\020\212\030\262\244-\277\201-\372"
 156      4998108A 
 156      18B2A42D 
 156      BF812DFA 
 157 0219 AF09DB52 		.ascii	"\257\011\333R|\0330\204\250\033/0\217\314z[\022r(\240"
 157      7C1B3084 
 157      A81B2F30 
 157      8FCC7A5B 
 157      127228A0 
 158 022d 62F8279D 		.ascii	"b\370'\235B\271\224s\334\362\324ug*7\357\270\005\357"
 158      42B99473 
 158      DCF2D475 
 158      672A37EF 
 158      B805EF
 159 0240 8A57AE38 		.ascii	"\212W\2568\325\331\271\231i\2076\363\331Y\257<Wq*\205"
 159      D5D9B999 
 159      698736F3 
 159      D959AF3C 
 159      57712A85 
 160 0254 5CB138E1 		.ascii	"\\\2618\341\202\341]\255\226\256M\234\322\252\345\351"
 160      82E15DAD 
 160      96AE4D9C 
 160      D2AAE5E9 
 161 0264 DCCC5F64 		.ascii	"\334\314_d\350\352\205"
 161      E8EA85
 162              		.text
 163              		.section	.gnu.lto_chprintf.72f613c25c0c605d,"",%progbits
 164 0000 789C8550 		.ascii	"x\234\205P\315J\002Q\024>\337\0355uc\333v\342\0034\213"
 164      CD4A0251 
 164      143EDF1D 
 164      357563DB 
 164      76E20334 
 165 0015 22E80D7A 		.ascii	"\"\350\015z\000\203Z\3058\216z\011\035\321Q\260\026"
 165      00835AC5 
 165      388E7A09 
 165      1DD151B0 
 165      16
 166 0026 5EC1C245 		.ascii	"^\301\302E\013ig\021)\321:\244\027\030\202\332DI\273"
 166      0B696711 
 166      29D13AA4 
 166      171882DA 
 166      4449BB
 167 0039 162D2497 		.ascii	"\026-$\227\265h\321*\202\351\336\031\024\372\201\016"
 167      B568D12A 
 167      82E9DE19 
 167      14FA810E 
 168 0049 DC7B7EBE 		.ascii	"\334{~\276s\276\363\303\210\321OY\220o\010\2425\251"
 168      73BEF3C3 
 168      88D14F59 
ARM GAS  /tmp/ccLzt0L0.s 			page 13


 168      906F08A2 
 168      35A9
 169 005b A11158F7 		.ascii	"\241\021X\367\236\250\025e\2002\010\324dhnB\245\262"
 169      9EA81565 
 169      803208D4 
 169      64686E42 
 169      A5B2
 170 006d 140D84DB 		.ascii	"\024\015\204\333\035_O\036\321\023n\273/>=\017\340\220"
 170      1D5F4F1E 
 170      D1136EBB 
 170      2F3E3D0F 
 170      E090
 171 007f B42B2013 		.ascii	"\264+ \023\264!\035$}\305B\337\373\250Z\321uOon!\016"
 171      B4211D24 
 171      7DC542DF 
 171      FBA85AD1 
 171      754F6F6E 
 172 0095 45EBCDF3 		.ascii	"E\353\315\363\022\034\032\243\325\377\012/\230\373\354"
 172      121C1AA3 
 172      D5FF0A2F 
 172      98FBEC
 173 00a4 794FC3F7 		.ascii	"yO\303\367\203W\364XLC\021\024\222\037\"d\340\014)\225"
 173      8357F458 
 173      4C431114 
 173      921F2264 
 173      E00C2995 
 174 00b8 13A6B624 		.ascii	"\023\246\266$O\032\030H\177\0325\375\241\323\362W\233"
 174      4F1A1848 
 174      7F1A35FD 
 174      A1D3F257 
 174      9B
 175 00c9 AC8329AD 		.ascii	"\254\203)\255\215ho\3343\015\234#,\321]\372\020\035"
 175      8D686FDC 
 175      330D9C23 
 175      2CD15DFA 
 175      101D
 176 00db 31CF1132 		.ascii	"1\317\0212\341\247\313\310\016Gx\312\344g\251\2514\""
 176      E1A7CBC8 
 176      0E4778CA 
 176      E467A9A9 
 176      3422
 177 00ed 2E3BD288 		.ascii	".;\322\210\366\307G\223x\200\344\021\231\021\314\231"
 177      F6C74793 
 177      7880E411 
 177      9911CC99 
 178 00fd 088E9B87 		.ascii	"\010\216\233\207\226G( \340\210\252\222\366\370\370"
 178      96472820 
 178      E088AA92 
 178      F6F8F8
 179 010c 77C798A9 		.ascii	"w\307\230\251H\377\356\310\021'\272\243\253\027\026"
 179      48FFEEC8 
 179      1127BAA3 
 179      AB1716
 180 011b 04027099 		.ascii	"\004\002p\231.EG\235[\312\003\265\372'\332l\214\340"
 180      2E45479D 
 180      5BCA03B5 
 180      FA27DA6C 
ARM GAS  /tmp/ccLzt0L0.s 			page 14


 180      8CE0
 181 012d 5469B983 		.ascii	"Ti\271\203\334Q\315\261\244\027\354\242\245\233v\266"
 181      DC51CDB1 
 181      A417ECA2 
 181      A59B76B6 
 182 013d A167ADBA 		.ascii	"\241g\255\272n\026x\206\333U\335\251\324J\333\2724\352"
 182      6E167886 
 182      DB55DDA9 
 182      D44ADBBA 
 182      34EA
 183 014f 4685DBB5 		.ascii	"F\205\333\265\252\004\312\025^rr\213\005bF9\221\263"
 183      AA04CA15 
 183      5E72728B 
 183      05624639 
 183      91B3
 184 0161 2B45C371 		.ascii	"+E\303q\254\354V\246\341X\325/\251H\201#"
 184      ACEC56A6 
 184      E158D52F 
 184      A9488123 
 185              		.text
 186              		.section	.gnu.lto_cmd_systime.part.0.72f613c25c0c605d,"",%progbits
 187 0000 789C8D51 		.ascii	"x\234\215Q\315KTQ\024?\347\3367~\246\271l%\203\344\312"
 187      CD4B5451 
 187      143FE7DE 
 187      377EA6B9 
 187      6C2583E4 
 188 0015 F05A6EDA 		.ascii	"\360Zn\332e\030\201\340l\234\021j%\3177\217\231Ko\034"
 188      651881E0 
 188      6C9C116A 
 188      25CF378F 
 188      994B6F1C 
 189 0029 79F38112 		.ascii	"y\363\201\022\344\235i\026Q\213dpa\206\221\010a\221"
 189      E49D6916 
 189      518B6470 
 189      61869108 
 189      6191
 190 003b 96FD05F6 		.ascii	"\226\375\005\366\261\325h\027\341b \2026\011\005\005"
 190      B1D56817 
 190      E1622082 
 190      36090505 
 191 004b 7DC874EE 		.ascii	"}\310t\356}>)\027M\027\3369\347\276{\177\277\363\373"
 191      7D3E2917 
 191      4D17DE39 
 191      E7BE7B7F 
 191      BFF3FB
 192 005e 9DCB80C1 		.ascii	"\235\313\200\301\321\325G\337:\375>\211\000\030\001"
 192      D1D547DF 
 192      3AFD3E89 
 192      001801
 193 006d B4E677A8 		.ascii	"\264\346w\250\260\220\231\314\220\353\\j\341\210\272"
 193      B09099CC 
 193      90EB5C6A 
 193      E188BA
 194 007c 0084398B 		.ascii	"\000\2049\213q\234\273\214\032\314{`E\251j\355\303\227"
 194      719CBB8C 
 194      1ACC7B60 
 194      45A96AED 
ARM GAS  /tmp/ccLzt0L0.s 			page 15


 194      C397
 195 008e 8F78476D 		.ascii	"\217xGmU\356\253_\365:\242Dj4\210\340 \\\242\015FMb"
 195      55EEAB5F 
 195      F53AA244 
 195      6A3488E0 
 195      205CA20D 
 196 00a5 D6DF9D0D 		.ascii	"\326\337\235\015v^=S\252\325\340\270D\316\340\354\177"
 196      765E3D53 
 196      AAD5E0B8 
 196      44CEE0EC 
 196      7F
 197 00b6 C196D4D3 		.ascii	"\301\226\324\3235\025\011at#\304t\005\230#>\2370U\253"
 197      35150961 
 197      7423C474 
 197      0598233E 
 197      9F3055AB 
 198 00ca D7BF7F6B 		.ascii	"\327\277\177kiE\220\030a\024,\256+\0133\306H\004*\244"
 198      69459018 
 198      61142CAE 
 198      2B0B33C6 
 198      48042AA4 
 199 00de 256AE30A 		.ascii	"%j\343\012\366\200\215\253\024\015'\255\004Em=Am(\363"
 199      F6808DAB 
 199      140D27AD 
 199      04456D3D 
 199      416D28F3 
 200 00f2 716426EF 		.ascii	"qd&\357@\371\363\376\302\373\023\007P \330\003\032\240"
 200      40F9F3FE 
 200      C2FB1307 
 200      5020D803 
 200      1AA0
 201 0104 9911C235 		.ascii	"\231\021\3025\256g\315\203\201w\303m\\V\213C\022\233"
 201      AE67CD83 
 201      8177C36D 
 201      5C568B43 
 201      129B
 202 0116 F4562B6C 		.ascii	"\364V+l\216\232\371\205\347\325\203\363\226@\3576\274"
 202      8E9AF985 
 202      E7D583F3 
 202      9640EF36 
 202      BC
 203 0127 78B7BBF1 		.ascii	"x\267\273\361|\255\212\207\354A\261\365sy\227\363\260"
 203      7CAD8A87 
 203      EC41B1F5 
 203      737997F3 
 203      B0
 204 0138 97834661 		.ascii	"\227\203Fa\012\261\017\036\251J\251\366\365\346\253"
 204      0AB10F1E 
 204      A94AA9F6 
 204      F5E6AB
 205 0147 2A5A125B 		.ascii	"*Z\022[\357\302Ri^uIl\323\315\332\025-\313\364m7\374"
 205      EFC25269 
 205      5E75496C 
 205      D3CDDA15 
 205      2DCBF46D 
 206 015d 931A67E3 		.ascii	"\223\032g\343F\240w\033\312{\327;m\\\247m\012YJ\263"
 206      46A0771B 
ARM GAS  /tmp/ccLzt0L0.s 			page 16


 206      CA7BD73B 
 206      6D5CA76D 
 206      0A594AB3 
 207 0171 92BBCDFD 		.ascii	"\222\273\315\375\005\347_\346l|\210<0\003\177\230\261"
 207      05E75FE6 
 207      6C7C883C 
 207      30037F98 
 207      B1
 208 0182 F1317687 		.ascii	"\3611v\2076\312{/o}\332\344\001:\205\234\350\001^CS"
 208      36CA7B2F 
 208      6F7DDAE4 
 208      013A859C 
 208      E8015E43 
 209 0197 4877157E 		.ascii	"Hw\025~\250\033Z\3471\007\2037K\241\245\177.*\025\227"
 209      A81B5AE7 
 209      31078337 
 209      4BA1A57F 
 209      2E2A1597 
 210 01ab D8D10DF7 		.ascii	"\330\321\015\367X0\231\316P\002\261H<\0364\030'\001"
 210      583099CE 
 210      5002B148 
 210      3C1E3418 
 210      2701
 211 01bd FA2DDE40 		.ascii	"\372-\336@\251\366v\025\017EB\360p\250\0175\355\200"
 211      A9F67615 
 211      0F4542F0 
 211      70A80F35 
 211      ED80
 212 01cf 486733AE 		.ascii	"Hg3\256p\262\311Y\221t\213\302I\313I\231\315\211\274"
 212      70B2C959 
 212      91748BC2 
 212      49CB4999 
 212      CD89BC
 213 01e2 5F98BA22 		.ascii	"_\230\272\"\250(\332\276\314\026r\"\227v=\257\337\001"
 213      A828DABE 
 213      CC167222 
 213      97763DAF 
 213      DF01
 214 01f4 CBF65345 		.ascii	"\313\366SE\035\234\241FPw&/\206c\361\221\270\220S\216"
 214      1D9CA146 
 214      5077262F 
 214      8663F191 
 214      B890538E 
 215 0208 5748EABB 		.ascii	"WH\352\273\276;\341d.\026\246\234\3764t\305\342c\321"
 215      BE3BE164 
 215      2E16A69C 
 215      FE3474C5 
 215      E263D1
 216 021b 493BE74E 		.ascii	"I;\347N\373\362T\264w\000\230\017\315\0317\223\365g"
 216      FBF254B4 
 216      7700980F 
 216      CD193793 
 216      F567
 217 022d 61B81179 		.ascii	"a\270\021y\332\366\304t\326\317\347D<\021\033<#FG/\210"
 217      DAF6C474 
 217      D6CFE744 
 217      3C111B3C 
ARM GAS  /tmp/ccLzt0L0.s 			page 17


 217      2346472F 
 218 0242 C448AC78 		.ascii	"\304H\254xZ\344\362\023\236\227$\376s\2158\374\374\001"
 218      5AE4F213 
 218      9E9724FE 
 218      738D38FC 
 218      FC01
 219 0254 C5F9B1D8 		.ascii	"\305\371\261\330pl\206.\030\201y\231q}\3027\365z\205"
 219      706C862E 
 219      18817999 
 219      717DC237 
 219      F57A85
 220 0267 8E36F80D 		.ascii	"\2166\370\015\304v\000\231"
 220      C4760099 
 221              		.text
 222              		.section	.gnu.lto_cmd_systime.72f613c25c0c605d,"",%progbits
 223 0000 789C5D50 		.ascii	"x\234]P1KBQ\024>\337}\357\225\210ACS\210\010\321\332"
 223      314B4251 
 223      143EDF7D 
 223      EF958841 
 223      43538808 
 224 0016 4B82865A 		.ascii	"K\202\206Z\034\233C\241\306\327\363\241\227\264\007"
 224      1C9B43A1 
 224      C6D7F3A1 
 224      97B407
 225 0025 3E15A4C1 		.ascii	">\025\244\301+H6\205S\270H\224\264\326OH\241\241\311"
 225      2B483685 
 225      53B84894 
 225      B4D64F48 
 225      A1A1C9
 226 0038 6C0B5A9C 		.ascii	"l\013Z\234\332\333\242\305\316\363=\213:p\3179\334\357"
 226      DADBA2C5 
 226      CEF33D8B 
 226      3A70CF39 
 226      DCEF
 227 004a 7EDF77EE 		.ascii	"~\337w\356\021$\350\177\354\362\331\007\321\036W,\020"
 227      1124E87F 
 227      ECF2D907 
 227      D11E572C 
 227      10
 228 005b 446744D4 		.ascii	"DgD\324\214\010\241\015R\244\242\3728N*\246\301\010"
 228      8C08A10D 
 228      52A4A2FA 
 228      384E2AA6 
 228      C108
 229 006d AEF5A081 		.ascii	"\256\365\240\201\001\370\225@\015\241\351\006\032\207"
 229      01F89540 
 229      0DA1E906 
 229      1A87
 230 007b 98A9DD8B 		.ascii	"\230\251\335\213\301d:\275\273l\217\206x[\213\002%\220"
 230      C1643ABD 
 230      BB6C8F86 
 230      785B8B02 
 230      2590
 231 008d E0049D93 		.ascii	"\340\004\235\223onPK\251N\222\310\236\0212\234}\241"
 231      6F6E504B 
 231      A94E92C8 
 231      9E11329C 
ARM GAS  /tmp/ccLzt0L0.s 			page 18


 231      7DA1
 232 009f 2C835CB5 		.ascii	",\203\\\265'z|\037\366\332\232\205k\030\224\2078\200"
 232      277A7C1F 
 232      F6DA9A85 
 232      6B189487 
 232      3880
 233 00b1 C49F79B3 		.ascii	"\304\237y\263\320h\220\322\236\351l\362\271\375\243"
 233      D06890D2 
 233      9EE96CF2 
 233      B9FDA3
 234 00c0 1634EAE1 		.ascii	"\0264\352\341b\225(\340\332\010y\247\364\245\316\325"
 234      629528E0 
 234      DA0879A7 
 234      F4A5CED5 
 235 00d0 B2046C08 		.ascii	"\262\004l\010\013}\3068\362\320}\240\253\006\037\267"
 235      0B7DC638 
 235      F2D07DA0 
 235      AB061FB7 
 236 00e0 6C2112B4 		.ascii	"l!\022\264\325S\335\264du\0137\376\233\020\276j\257"
 236      D553DDB4 
 236      64750B37 
 236      FE9B10BE 
 236      6AAF
 237 00f2 48E8094A 		.ascii	"H\350\011J\007\260\021\312\223\344e\205\003\3514\216"
 237      07B011CA 
 237      93E46585 
 237      03E9348E 
 238 0102 F340AD48 		.ascii	"\363@\255H\010\375Z.\332\254\027\332ID\346\004c\366"
 238      08FD5A2E 
 238      DAAC17DA 
 238      4944E604 
 238      63F6
 239 0114 D7176A4E 		.ascii	"\327\027jN^\373\230\223\202\310\360\330\014\372\253"
 239      5EFB9893 
 239      82C8F0D8 
 239      0CFAAB
 240 0123 DA340B6E 		.ascii	"\3324\013n\3111m7W7sN\315\264\013\362H\272\236Y)WO\216"
 240      C9316D37 
 240      5737734E 
 240      CDB40BF2 
 240      48BA9E59 
 241 013b 4D6E6A56 		.ascii	"MnjVY\272U\317\364\012N\261\270aS,\353Yyg'\271\356-"
 241      59BA55CF 
 241      F40A4EB1 
 241      B861532C 
 241      EB597967 
 242 0153 4529E2D5 		.ascii	"E)\342\325\275\212,9\364\015\251\302p\034"
 242      BD8A2C39 
 242      F40DA9C2 
 242      701C
 243              		.text
 244              		.section	.gnu.lto_cmd_info.part.1.72f613c25c0c605d,"",%progbits
 245 0000 789C9594 		.ascii	"x\234\225\224Kh\023Q\024\206\317\231\231\326>\265\032"
 245      4B681351 
 245      1486CF99 
 245      99D63EB5 
 245      1A
ARM GAS  /tmp/ccLzt0L0.s 			page 19


 246 0011 6B7DC070 		.ascii	"k}\300p-\010>\310\273\321\020\020l\253\026\265\321\332"
 246      2D083EC8 
 246      BBD11010 
 246      6CAB16B5 
 246      D1DA
 247 0023 A6A21491 		.ascii	"\246\242\024\221\351\314msi2#\223Ihq\321)\024uY\272"
 247      E9CC6D73 
 247      69322393 
 247      496871D1 
 247      29147559 
 248 0038 AA48D152 		.ascii	"\252H\321R\\(BQ\027Eq\341\306\225\240\010.\005\213\""
 248      5C284251 
 248      174571E1 
 248      C695A008 
 248      2E058B22 
 249 004c 74E14274 		.ascii	"t\341Bt'B\2753\231\372Hl5g\310=7\363\317\177\276s\206"
 249      2742BD33 
 249      99FA486C 
 249      3567C83D 
 249      37F3CF7F 
 250 0063 DC082040 		.ascii	"\334\010 @i\034\340\237^\011\3409\002`\025\2404\365"
 250      691CE09F 
 250      5E09E039 
 250      026015A0 
 250      34F5
 251 0075 926F2414 		.ascii	"\222o$\024\334,\240\350\344\211\032\021\321\331\000"
 251      DC2CA0E8 
 251      E4891A11 
 251      D1D900
 252 0084 C2B82488 		.ascii	"\302\270$\2108~\001\035\263\320\012s\266=\275\364\361"
 252      387E011D 
 252      B3D00A73 
 252      B63DBDF4 
 252      F1
 253 0095 FD32DEB0 		.ascii	"\3752\336\260\237M\336\266\277\257\254 2\344\240(\202"
 253      9F4DDEB6 
 253      BFAFAC20 
 253      32E4A028 
 253      82
 254 00a6 8A709E7F 		.ascii	"\212p\236\177A\342&A\372\223\354z\247\354\207\266]\353"
 254      41E22641 
 254      FA93EC7A 
 254      A7EC87B6 
 254      5DEB
 255 00b8 FA4486A2 		.ascii	"\372D\206\242\000\361\177\331\026\004{ie\345\361\227"
 255      00F17FD9 
 255      16047B69 
 255      65E5F197 
 256 00c8 9A7AC4AC 		.ascii	"\232z\304\254\333E\025L\362BD\3019l\005\005\347\371"
 256      DB45154C 
 256      F24244C1 
 256      396C0505 
 256      E7F9
 257 00da 0A4E111E 		.ascii	"\012N\021\036)\276:}\247Pr\262\330\217\202\233_\301"
 257      29BE3A7D 
 257      A75072B2 
 257      D88F829B 
ARM GAS  /tmp/ccLzt0L0.s 			page 20


 257      5FC1
 258 00ec D5A59B1F 		.ascii	"\325\245\233\037\252\025\274\303g\006\270\002\337\354"
 258      AA15BCC3 
 258      6706B802 
 258      DFEC
 259 00fa EB761343 		.ascii	"\353v\023CIE\327\007\303\210\316\315\031\333\356cX%"
 259      4945D707 
 259      C388CECD 
 259      19DBEE63 
 259      5825
 260 010c C3E1597B 		.ascii	"\303\341Y{\346\010\303j\360,\236\370\2107\270A\206\263"
 260      E608C36A 
 260      F02C9EF8 
 260      8837B841 
 260      86B3
 261 011e 45B56655 		.ascii	"E\265fUeX\013\3400f+a\014\254\315\250\223\301(\252\365"
 261      65580BE0 
 261      30662B61 
 261      0CACCDA8 
 261      93C128AA 
 262 0133 658C5B95 		.ascii	"e\214[\2250\026qmH\203\014/<\271\261\214r\267\022\312"
 262      3016716D 
 262      48830C2F 
 262      3CB9B18C 
 262      72B712CA 
 263 0147 9B75281B 		.ascii	"\233u(\033eX\366\344Me\224\373\225P\276\256Ci\222\341"
 263      6558F6E4 
 263      4D6594FB 
 263      9550BEAE 
 263      436992E1 
 264 015b 9A509437 		.ascii	"\232P\2247\227Q\026*\241\314\012kS\266\310\360\300\223"
 264      9751162A 
 264      A1CC0A6B 
 264      53B6C8F0 
 264      C093
 265 016d 7D659427 		.ascii	"}e\224'\225P\336\256C\331*\303gOn.\241\314\330\237\026"
 265      9550DEAE 
 265      43D92AC3 
 265      674F6E2E 
 265      A1CCD89F 
 266 0182 33FF49D9 		.ascii	"3\377I\331&\303\264X,\323RB\341Go\273\014\367<uG\211"
 266      26C3B458 
 266      2CD35242 
 266      E1476FBB 
 266      0CF73C75 
 267 0198 FA8EF7B0 		.ascii	"\372\216\367\260\223\377t<yW\271\231\037\201\247\342"
 267      93FF743C 
 267      7957B999 
 267      1F81A7E2 
 268 01a8 DFCE8013 		.ascii	"\337\316\200\023\375(\272g\3565L,\315\314\343j\267\305"
 268      FD28BA67 
 268      EE354C2C 
 268      CDCCE36A 
 268      B7C5
 269 01ba 48F14EB9 		.ascii	"H\361N\271\350\374/\205\202i#K\203\252\241\215\0055"
 269      E8FC2F85 
 269      8269234B 
ARM GAS  /tmp/ccLzt0L0.s 			page 21


 269      83AAA18D 
 269      0535
 270 01cc 5A08AA69 		.ascii	"Z\010\252i6\310\214\\\3202\363\372H\220o\012\212\311"
 270      36C88C5C 
 270      D032F3FA 
 270      48906F0A 
 270      8AC9
 271 01de 8C7C2E98 		.ascii	"\214|.\230K\323L&\240\202\244\230\303\005gQ}\247\250"
 271      4BD34C26 
 271      A082A498 
 271      C3056751 
 271      7DA7A8
 272 01f1 A9D34C82 		.ascii	"\251\323L\202\024cO\256\261\016j\243\201P \304\013\201"
 272      14634FAE 
 272      B10E6AA3 
 272      815020C4 
 272      0B81
 273 0203 AFD3C85E 		.ascii	"\257\323\310^f\031j&~\251]]\235\235\244-\020\017\264"
 273      66196A26 
 273      7EA95D5D 
 273      9D9DA42D 
 273      100FB4
 274 0216 914828DC 		.ascii	"\221H(\334\026\212E\016\222\275&\315P%G\367\221\201"
 274      168A450E 
 274      92BD26CD 
 274      502547F7 
 274      9181
 275 0228 F6DE6490 		.ascii	"\366\336d\220f\007\251\246Q\315\337v)\356\0374\025]"
 275      6607A9A6 
 275      51CDDF76 
 275      29EE1F34 
 275      155D
 276 023a 4D139316 		.ascii	"M\023\223\026X\216\031:\211\204\303\321X\374\"\370\332"
 276      588E193A 
 276      8984C3D1 
 276      58FC22F8 
 276      DA
 277 024b 4DDEA745 		.ascii	"M\336\247EU+o\322D\261v\015w\027\016\371\223\016\330"
 277      552B6FD2 
 277      44B1760D 
 277      77170EF9 
 277      930ED8
 278 025e A4E41C6F 		.ascii	"\244\344\034o[\321-O\254\343\367,:\352OF\301\327\303"
 278      5BD12D4F 
 278      ACE3F72C 
 278      3AEA4F46 
 278      C1D7C3
 279 0271 B7E4843E 		.ascii	"\267\344\204>d$~\366\325\334\256\0258\211jd\304\035"
 279      64247EF6 
 279      D5DCAE15 
 279      38896A64 
 279      C41D
 280 0283 89640D8D 		.ascii	"\211d\015\215\362'3\2125d\230\331\337&\330\337\227J"
 280      F227338A 
 280      356498D9 
 280      DF26D8DF 
 280      974A
ARM GAS  /tmp/ccLzt0L0.s 			page 22


 281 0295 4623C7C3 		.ascii	"F#\307\303\241Q\322CMGt|\244\233\351\224$\251\306\362"
 281      A151D243 
 281      4D47747C 
 281      A49BE994 
 281      24A9C6F2 
 282 02a9 597294EA 		.ascii	"Yr\224\3529f\215\201\257\303PLm\365\355\024\355\273"
 282      39668D81 
 282      AFC3504C 
 282      6DF5ED14 
 282      EDBB
 283 02bb B99DA9A6 		.ascii	"\271\235\251\246\301GV-\323\320\231\232#\247\373;\273"
 283      C147562D 
 283      D3D0999A 
 283      23A7FB3B 
 283      BB
 284 02cc 8F9DF1F3 		.ascii	"\217\235\361\363\232\321\336\016h\351\310\263\214F,"
 284      9AD1DE0E 
 284      68E9C8B3 
 284      8C462C
 285 02db 96A509D7 		.ascii	"\226\245\011\327\345\\\334\331pR\341\363G\234\367\026"
 285      E55CDCD9 
 285      7052E1F3 
 285      479CF716 
 286 02eb 0389F809 		.ascii	"\003\211\370\011\324\206c\211P<\021\213\300\017\276"
 286      D4866389 
 286      503C118B 
 286      C00FBE
 287 02fa 22A4D3   		.ascii	"\"\244\323"
 288              		.text
 289              		.section	.gnu.lto_cmd_info.72f613c25c0c605d,"",%progbits
 290 0000 789C5D50 		.ascii	"x\234]P\301J\002Q\024\275\347\315L\231\030\264h\025"
 290      C14A0251 
 290      14BDE7CD 
 290      4C9918B4 
 290      6815
 291 0012 2242B46D 		.ascii	"\"B\264m\222\240Em\334\364\003\241P\313i\234\364\221"
 291      92A0456D 
 291      DCF403A1 
 291      50CB699C 
 291      F491
 292 0024 3AE0A410 		.ascii	":\340\244\020-|\202H\213\026\256\302\215DI\333\372\204"
 292      2D7C8248 
 292      8B16AEC2 
 292      8D4449DB 
 292      FA84
 293 0036 14220AA2 		.ascii	"\024\"\012\242\354\017\\\265o\027m\354\2163\026u\341"
 293      EC0F5CB5 
 293      6F176DEC 
 293      8E331675 
 293      E1
 294 0047 DD7B79E7 		.ascii	"\335{y\347\235s\356\273\202\004\375\217->; \332\346"
 294      9D73EEBB 
 294      8204FD8F 
 294      2D3E3B20 
 294      DAE6
 295 0059 8A198268 		.ascii	"\212\031\202h\277\0205\"Bh\375\024\251\250>\214\223"
 295      BF103522 
ARM GAS  /tmp/ccLzt0L0.s 			page 23


 295      4268FD14 
 295      A9A83E8C 
 295      93
 296 006a 8A693082 		.ascii	"\212i0\202k=h`\000~%P]h\272\201\372\036&j\267\242?\032"
 296      6B3D6860 
 296      007E2550 
 296      5D68BA81 
 296      FA1E266A 
 297 0082 8F6FCE1F 		.ascii	"\217o\316\037\236\007xZ\236\003J \301\011:'\337\334"
 297      9E07785A 
 297      9E034A20 
 297      C1093A27 
 297      DFDC
 298 0094 A0A652ED 		.ascii	"\240\246R\355$\221=!d8\373BY\006\271j\217t\377>\350"
 298      24913D21 
 298      6438FB42 
 298      5906B96A 
 298      8F74FF3E 
 299 00a9 B6340B97 		.ascii	"\2664\013\2270(\017\261\013\211?\363f\241Q?\245\275"
 299      30280FB1 
 299      0B893FF3 
 299      66A1513F 
 299      A5BD
 300 00bb 526BF4B9 		.ascii	"Rk\364\271\361\243\0264\352\356l\211(\340\332\010y'"
 300      F1A31634 
 300      EAEE6C89 
 300      28E0DA08 
 300      7927
 301 00cd F4A54ED5 		.ascii	"\364\245N\325\202\004l\010\013=\3068\362\320}\240\243"
 301      82046C08 
 301      0B3DC638 
 301      F2D07DA0 
 301      A3
 302 00de FA1FD76C 		.ascii	"\372\037\327l!\022\264\336U\235\264du\013W\376\233\020"
 302      2112B4DE 
 302      559DB464 
 302      750B57FE 
 302      9B10
 303 00f0 BE682D4A 		.ascii	"\276h-J\350\011J\007\260\021\312\223\344e\205\003\351"
 303      E8094A07 
 303      B011CA93 
 303      E4658503 
 303      E9
 304 0101 348CF340 		.ascii	"4\214\363@\315H\010\375Z\316\332\254\027\332ID\246\004"
 304      CD4808FD 
 304      5ACEDAAC 
 304      17DA4944 
 304      A604
 305 0113 63F2D737 		.ascii	"c\362\3277j\214:=LIAdxl\006\375U\255\231\005\267\344"
 305      6A8C3A3D 
 305      4C494164 
 305      786C06FD 
 305      55AD9905 
 306 0129 98B69B3B 		.ascii	"\230\266\233;6sN\315\264\013r_\272\236yT\251\226\017"
 306      36734ECD 
 306      B40B725F 
 306      BA9E7954 
ARM GAS  /tmp/ccLzt0L0.s 			page 24


 306      A9960F
 307 013c 4D6E6A56 		.ascii	"MnjVE\272U\317\364\012N\261\270jS,\353Yyg3\271\342\315"
 307      45BA55CF 
 307      F40A4EB1 
 307      B86A532C 
 307      EB597967 
 308 0154 47C990E5 		.ascii	"G\311\220\345\003\227\276\001w\261n\232"
 308      0397BE01 
 308      77B16E9A 
 309              		.text
 310              		.section	.gnu.lto_shellInit.72f613c25c0c605d,"",%progbits
 311 0000 789C6362 		.ascii	"x\234cb`b@\007\222@|\013\2103\201\230\221\231\201\221"
 311      60624007 
 311      92407C0B 
 311      88338198 
 311      91998191 
 312 0014 69C23906 		.ascii	"i\3029\006\206F\016&FF\020\203\201\221\241\236\211\261"
 312      86460E26 
 312      46461083 
 312      8191A19E 
 312      89B1
 313 0026 3E9211AC 		.ascii	">\222\021\254v=\323\201\007\377\377\257\333\3227\375"
 313      763DD381 
 313      07FFFFAF 
 313      DBD237FD 
 314 0036 0EE34E26 		.ascii	"\016\343N&\026\240\010+CKC\303\004\005\006\206d\260"
 314      16A0082B 
 314      434B43C3 
 314      04050686 
 314      64B0
 315 0048 8A102009 		.ascii	"\212\020 \011\322\026\312\310\004\242\231\31724\235"
 315      D216CAC8 
 315      04A299CF 
 315      32349D
 316 0057 FE73EB5D 		.ascii	"\376s\353]\023+\\\035\204q\240\373\334bV\006\206D\306"
 316      132B5C1D 
 316      8471A0FB 
 316      DC625606 
 316      8644C6
 317 006a 858CAC40 		.ascii	"\205\214\254@\255`\275\332\014\253\032\032\032\036\\"
 317      AD60BDDA 
 317      0CAB1A1A 
 317      1A1E5C
 318 0079 FF3A8D2D 		.ascii	"\377:\215-\223\221a6\303\254\306\206\006\201LF\306j"
 318      93916136 
 318      C3ACC686 
 318      06814C46 
 318      C66A
 319 008b 865F0D1D 		.ascii	"\206_\015\035 \026S.X]\004#\220\011vN\022\210\237\310"
 319      2016532E 
 319      585D0423 
 319      9009764E 
 319      12889FC8 
 320 009f B8186806 		.ascii	"\270\030h\006\003D\325\203\326\347\027\231 *!f\003\301"
 320      0344D583 
 320      D6E71799 
 320      202A2166 
ARM GAS  /tmp/ccLzt0L0.s 			page 25


 320      03C1
 321 00b1 4586C607 		.ascii	"E\206\306\007s\325\341\\\006\210;\031A\356\003\031c"
 321      73D5E15C 
 321      06883B19 
 321      41EE0319 
 321      63
 322 00c2 A09F919F 		.ascii	"\240\237\221\237\233\252\237\234\237R\251\237\222Z\246"
 322      9BAA9F9C 
 322      9F52A99F 
 322      925AA6
 323 00d1 9F9C9199 		.ascii	"\237\234\221\231\224\231_\254_RT\232\227\255\017d\224"
 323      94995FAC 
 323      5F52549A 
 323      97AD0F64 
 323      94
 324 00e2 251665E6 		.ascii	"%\026e\346\227\026\353\027g\244\346\344\350%3\230\021"
 324      9716EB17 
 324      67A4E6E4 
 324      E8253398 
 324      11
 325 00f3 D25054A2 		.ascii	"\322PT\242\237\231\227\234S\232\002T\224\221Z\226\232"
 325      9F99979C 
 325      539A0254 
 325      94915A96 
 325      9A
 326 0104 5752AC97 		.ascii	"WR\254\227\301\000\000\035\265e\207"
 326      C100001D 
 326      B56587
 327              		.text
 328              		.section	.gnu.lto_shellExit.72f613c25c0c605d,"",%progbits
 329 0000 789C8550 		.ascii	"x\234\205P=K\003A\020\235\331K\314\225)\265\221k\304"
 329      3D4B0341 
 329      109DD94B 
 329      CC9529B5 
 329      916BC4
 330 0013 46B2A9AC 		.ascii	"F\262\251\254\203\202`\221\306(h%\227\315\342-\346\356"
 330      83826091 
 330      C6286825 
 330      97CDE22D 
 330      E6EE
 331 0025 E43E82C1 		.ascii	"\344>\202\301\"\027I\3002\205\205M\012\265P\033\375"
 331      221749C0 
 331      3285854D 
 331      0AB5501B 
 331      FD
 332 0036 0182A6B2 		.ascii	"\001\202\246\262\021\"\376\001\011X\332\3046\010\361"
 332      1122FE01 
 332      0958DAC4 
 332      3608F1
 333 0045 F62E39C1 		.ascii	"\366.9\301&\003\2733\2733\363\336\233!@\340\277-\204"
 333      2603BB33 
 333      BB33F3DE 
 333      9B2140E0 
 333      BF2D84
 334 0058 670D015E 		.ascii	"g\015\001^B\217\012 \351\364\001\232*A\224\001 4\010"
 334      428F0A20 
 334      E9F4019A 
ARM GAS  /tmp/ccLzt0L0.s 			page 26


 334      2A419401 
 334      203408
 335 006b 36F630AA 		.ascii	"6\3660\252} \275\301x|?\354w\177\360\221\250)4\243\377"
 335      7D20BDC1 
 335      787C3FEC 
 335      777FF091 
 335      A82934A3 
 336 0080 34B482A0 		.ascii	"4\264\202\240\243\001\260\350\271\035\336\262w\007\211"
 336      A301B0E8 
 336      B91DDEB2 
 336      770789
 337 008f F44A1F4E 		.ascii	"\364J\037N\277\277\316?\347\2232\035/1\015\0218\202"
 337      BFBFCE3F 
 337      E793321D 
 337      2F310D11 
 337      3882
 338 00a1 A748514A 		.ascii	"\247HQJ\254l\021\332\330\015.\012\"\346\333E\201\250"
 338      AC6C11DA 
 338      D80D2E0A 
 338      22E6DB45 
 338      81A8
 339 00b3 C928C99F 		.ascii	"\311(\311\237M\362\223A\336\240=\274m_\215H\002\036"
 339      4DF29341 
 339      DEA03DBC 
 339      6D5F8D48 
 339      021E
 340 00c5 07BDD78F 		.ascii	"\007\275\327\217\353\364\224\211a\014\007'0\012\316"
 340      EBF49489 
 340      610C0727 
 340      300ACE
 341 00d4 82AC4085 		.ascii	"\202\254@\205!\321\361.V!\177U\201)\023q\242L\362\206"
 341      21D1F12E 
 341      56217F55 
 341      81291371 
 341      A24CF286 
 342 00e8 4EE09C64 		.ascii	"N\340\234dh\015\236n2S\315\011D\206\205\333\222v\200"
 342      680D9E6E 
 342      3253CD09 
 342      448685DB 
 342      927680
 343 00fb 29812AC0 		.ascii	")\201*\300;4\007\317\313\311l\020\257\002\345\012\244"
 343      3B3407CF 
 343      CBC96C10 
 343      AF02E50A 
 343      A4
 344 010c D83C356C 		.ascii	"\330<5l\223SfW\352\264\302k\224\031\242,l\227z\216o"
 344      93536657 
 344      EAB4C26B 
 344      9419A22C 
 344      6C977A8E 
 345 0121 1DD230A8 		.ascii	"\035\3220\250\351\216\260}\227\272\006\257Vs\014\012"
 345      E98EB07D 
 345      97BA06AF 
 345      56730C0A 
 346 0131 B31AF8B1 		.ascii	"\263\032\370\261G\327\213\245\315\022\025\026\253\372"
 346      47D78BA5 
 346      CD121516 
ARM GAS  /tmp/ccLzt0L0.s 			page 27


 346      ABFA
 347 013f 1559EBF0 		.ascii	"\025Y\353\360}fn\370\026\313\031\220-\226\266\264\262"
 347      7D666EF8 
 347      16CB1990 
 347      2D96B6B4 
 347      B2
 348 0150 EEF22347 		.ascii	"\356\362#G\254hKy \016dLn\332N\035Vg\201;\336\037\252"
 348      AC684B79 
 348      200E644C 
 348      6EDA4E1D 
 348      5667813B 
 349 0167 C16BDCF2 		.ascii	"\301k\334\362\334\020\362\027A\225\221*"
 349      DC10F217 
 349      4195912A 
 350              		.text
 351              		.section	.gnu.lto_shellCreate.72f613c25c0c605d,"",%progbits
 352 0000 789C5D4F 		.ascii	"x\234]O\261N\002A\024\234y{\200\005\205\255\235\235"
 352      B14E0241 
 352      149C797B 
 352      800585AD 
 352      9D9D
 353 0012 9D4BF816 		.ascii	"\235K\370\026L\240\304\345\302m\004.\341\204\304P\260"
 353      4CA0C4E5 
 353      C26D042E 
 353      E184C450 
 353      B0
 354 0023 24141626 		.ascii	"$\024\026&R\332\362\003\330YY\340\007\010\361\017l\375"
 354      52DAF203 
 354      D85959E0 
 354      0708F10F 
 354      6CFD
 355 0035 051383EF 		.ascii	"\005\023\203\357\356\022\012^2\263\357ef\347\345\011"
 355      EE120A5E 
 355      32B3EF65 
 355      66E7E509 
 356 0045 04A775A1 		.ascii	"\004\247u\241xS4\0254\240\254v\300\342L\310\274\001"
 356      78533415 
 356      34A0AC76 
 356      C0E24CC8 
 356      BC01
 357 0057 3117CE3B 		.ascii	"1\027\316;,\274\257\262\375>\0346\357\317\237\037\374"
 357      2CBCAFB2 
 357      FD3E1C36 
 357      EFCF9F1F 
 357      FC
 358 0068 B9AA0987 		.ascii	"\271\252\011\207\204Qb\244$U\370\302V\3012\204\325%"
 358      845162A4 
 358      2455F8C2 
 358      56C13284 
 358      D525
 359 007a E08AB1A5 		.ascii	"\340\212\261\245\234G\335P\362\327\354\361\022\236\376"
 359      9C47DD50 
 359      F2D7ECF1 
 359      129EFE
 360 0089 EA5DAE59 		.ascii	"\352]\256YA\237\325\031~\303c8\367\244c\271\246M\257"
 360      419FD519 
 360      7EC36338 
ARM GAS  /tmp/ccLzt0L0.s 			page 28


 360      F7A463B9 
 360      A64DAF
 361 009c 5ED5A44F 		.ascii	"^\325\244OS\312a\346i\034\245\374\245R\344\031\001_"
 361      53CA61E6 
 361      691CA5FC 
 361      A552E419 
 361      015F
 362 00ae 586CCD31 		.ascii	"Xl\3151\251<\250\245)\272'\277\264a\223t\030[\227\366"
 362      A93CA8A5 
 362      29BA27BF 
 362      B4619374 
 362      185B97F6 
 363 00c2 1E6C2F9E 		.ascii	"\036l/\236Z\227\370[\237f\366~<\031\335Ym\246\335\261"
 363      5A97F85B 
 363      9F66F67E 
 363      3C19DD59 
 363      6DA6DDB1 
 364 00d6 4F2799CD 		.ascii	"O'\231\315\222x0\270v\370\007\031/>\264"
 364      927830B8 
 364      76F80719 
 364      2F3EB4
 365              		.text
 366              		.section	.gnu.lto_shell_thread.72f613c25c0c605d,"",%progbits
 367 0000 789C9556 		.ascii	"x\234\225Vml[\345\025>\347^\177^\333q\342\304\216\223"
 367      6D6C5BE5 
 367      153EE75E 
 367      7F5EDB71 
 367      E2C48E93 
 368 0014 38CE6D59 		.ascii	"8\316mY!\244\243&M\335\216N\243\235\330\037\376\014"
 368      21A4A326 
 368      4DDD8E4E 
 368      A39DD81F 
 368      FE0C
 369 0026 696DB4AF 		.ascii	"im\264\257\037\310u\"\347\212$\316\352\244\033\333\017"
 369      1FC87522 
 369      E78A24CE 
 369      EAA41BDB 
 369      0F
 370 0037 6E68C2B2 		.ascii	"nh\302\262&\032\035\232h\005E*B\241\003\232\005\310"
 370      261A1D9A 
 370      6805452A 
 370      42A1039A 
 370      05C8
 371 0049 A475A35D 		.ascii	"\244u\243]\235\216im\004\355\312\020%\224\255\376S*"
 371      9D8E696D 
 371      04EDCA10 
 371      2594ADFE 
 371      532A
 372 005b C1340412 		.ascii	"\3014\004\022\355\306\200\354\274\037\367\372#nk\356"
 372      EDC680EC 
 372      BC1FF7FA 
 372      236E6BEE 
 373 006b 8FFB7E9D 		.ascii	"\217\373~\235\347|<\357y\317\373*\240@\345\367K\004"
 373      E77C3CEF 
 373      79CFFB2A 
 373      A040E5F7 
 373      4B04
ARM GAS  /tmp/ccLzt0L0.s 			page 29


 374 007d F87110E0 		.ascii	"\370q\020\340\"\365q\015\240\262\377,\300\270GA\207"
 374      22F5710D 
 374      A0B2FF2C 
 374      C0B84741 
 374      87
 375 008e E8A8A2F3 		.ascii	"\350\250\242\363M\007:Y\213N\3055\203`j\356\211\327"
 375      4D073A59 
 375      8B4EC535 
 375      83606AEE 
 375      89D7
 376 00a0 014CBF0B 		.ascii	"\001L\277\013;\204\234\033}\242\343Q\274\177\013\222"
 376      3B849C1B 
 376      7DA2E351 
 376      BC7F0B92 
 377 00b0 8096BF9B 		.ascii	"\200\226\277\233\326\275\350\027\323\232X_\364\370\024"
 377      D6BDE817 
 377      D39A585F 
 377      F4F814
 378 00bf CFD92582 		.ascii	"\317\331%\202j\376S*\011\370\225\000k5\235O\372ui&\240"
 378      6AFE532A 
 378      09F89500 
 378      6B359D4F 
 378      FA756926 
 379 00d4 D44DDD46 		.ascii	"\324M\335F\323\365\354\357\257S\202\177\352\246Q\307"
 379      D3F5ECEF 
 379      AF53827F 
 379      EAA651C7 
 380 00e4 1B311A05 		.ascii	"\0331\032\005Q\025:\353\225\206\343[h\272\355\315\010"
 380      51153AEB 
 380      9586E35B 
 380      68BAEDCD 
 380      08
 381 00f5 4D3728A1 		.ascii	"M7(\241\311\273h\3248\035\246Q\310\022j\304\260\350"
 381      C9BB68D4 
 381      381DA651 
 381      C8126AC4 
 381      B0E8
 382 0107 3489CEA2 		.ascii	"4\211\316\242'\2544\315\374\225y\020\231p\223dDi\376"
 382      27AC34CD 
 382      FC957910 
 382      99709364 
 382      4469FE
 383 011a DD29366C 		.ascii	"\335)6l}\327G\303fl\341\036DE\273\350iQ\242B\274\225"
 383      7DD747C3 
 383      666CE11E 
 383      4445BBE8 
 383      6951A242 
 384 0130 8BB75A8A 		.ascii	"\213\267Z\212\333\224\030wQ\345.\306\2248\203k\355\\"
 384      DB941877 
 384      51E52EC6 
 384      9438836B 
 384      ED5C
 385 0142 97BF5D89 		.ascii	"\227\277]\211\227,\306-L\007\"\353\000\302C\212\352"
 385      972CC62D 
 385      4C0722EB 
 385      00C2438A 
 385      EA
ARM GAS  /tmp/ccLzt0L0.s 			page 30


 386 0153 70BADC1E 		.ascii	"p\272\334\036\257\346\363\353\201\272`}C\250\261)\034"
 386      AFE6F3EB 
 386      81BA607D 
 386      43A8B129 
 386      1C
 387 0164 698EB6B4 		.ascii	"i\216\266\264\266\305\332\343\035\370\320\367\221\355"
 387      B6C5DAE3 
 387      1DF8D0F7 
 387      91ED
 388 0172 8F772D3C 		.ascii	"\217w-<m\232\373\013\223G\376\320b\036~x\277\371\305"
 388      6D9AFB0B 
 388      9347FED0 
 388      621E7E78 
 388      BFF9C5
 389 0185 CA0A1A48 		.ascii	"\312\012\032H;\331\203\220F\370\036\015P\347\215\342"
 389      3BD98390 
 389      46F81E0D 
 389      50E78DE2 
 390 0195 28DF5A8E 		.ascii	"(\337Z\216|,\377\312\322\241R\244\252@\262F\344\211"
 390      7C2CFFCA 
 390      D2A152A4 
 390      AA40B246 
 390      E489
 391 01a7 A503A548 		.ascii	"\245\003\245H\207\002w\325\210<\2714S\212t*\360\215"
 391      870277D5 
 391      883CB934 
 391      538A742A 
 391      F08D
 392 01b9 DA90E689 		.ascii	"\332\220\346\211\276\323\346D~ee\033Gm\257\005\225\177"
 392      BED3E644 
 392      7E65651B 
 392      476DAF05 
 392      957F
 393 01cb CC5C2E43 		.ascii	"\314\\.C}\253&\324~\363\023\207\215r)po\021e:\004l{"
 393      7DAB26D4 
 393      7EF31387 
 393      8D722970 
 393      6F11653A 
 394 01e2 3558FEFC 		.ascii	"5X\376\374\322\014\226\004\347V\340\333E\350a\321*M"
 394      D20C9604 
 394      E756E0DB 
 394      45E861D1 
 394      2A4D
 395 01f4 5579F9FD 		.ascii	"Uy\371\375\276G\313\030M\341\263\250\334\304\331y%_"
 395      BE47CB18 
 395      4DE1B3A8 
 395      DCC4D979 
 395      255F
 396 0206 585939FD 		.ascii	"XY9\375\213\371CH$\246\360i\\K\273\237\302\347\250\325"
 396      8BF94348 
 396      24A6F069 
 396      5C4BBB9F 
 396      C2E7A8D5 
 397 021a 7008C147 		.ascii	"p\010\301G\203gh\340\247v\226\332\000\030\350\011\321"
 397      836768E0 
 397      A77696DA 
 397      0018E809 
ARM GAS  /tmp/ccLzt0L0.s 			page 31


 397      D1
 398 022b CF1B9662 		.ascii	"\317\033\226b\021\271\022\245\366\010\2651\251\246\203"
 398      11B912A5 
 398      F608B531 
 398      A9A683
 399 023a 84600DFB 		.ascii	"\204`\015\373u2\361.\366\353\246\237\266\221\004^\""
 399      7532F12E 
 399      F6EBA69F 
 399      B691045E 
 399      22
 400 024b 811ED96E 		.ascii	"\201\036\331nb\223I\251e\263l\351s\302\004%\247.\264"
 400      629349A9 
 400      65B36CE9 
 400      73C20425 
 400      A72EB4
 401 025e 092FC49A 		.ascii	"\011/\304\232\260#\254\247\360\005\376\237\343\377y"
 401      B023ACA7 
 401      F005FE9F 
 401      E3FF79
 402 026d 8E4CF3E4 		.ascii	"\216L\363\344\336I\377$\364\022\005I\365ux\370\235c"
 402      DE49FF24 
 402      F4120549 
 402      F57578F8 
 402      9D63
 403 027f 47CEA829 		.ascii	"G\316\250)|\031\235\220A\337zx\336\244\357\357,g\237"
 403      7C199D90 
 403      41DF7A78 
 403      DEA4EFEF 
 403      2C679F
 404 0292 8427A8F1 		.ascii	"\204'\250\361ePc\014\3719/\273\320b\210A\337>\362_\305"
 404      6550630C 
 404      F9392FBB 
 404      D0628841 
 404      DF3EF25F 
 405 02a7 82FA25F4 		.ascii	"\202\372%\364$\243\270:\024K\241\317\267X\310\300z\350"
 405      24A3B83A 
 405      144BA1CF 
 405      B758C8C0 
 405      7AE8
 406 02b9 22F2F83F 		.ascii	"\"\362\370?@\310q\323\2547\260\356g\360\2519\305z\301"
 406      40C871D3 
 406      AC37B0EE 
 406      67F0A939 
 406      C57AC1
 407 02cc 218E649A 		.ascii	"!\216d\232\202R\223\"[\265\250\361S\031\004W\243\011"
 407      82529322 
 407      5BB5A8F1 
 407      53190457 
 407      A309
 408 02de 07EA4939 		.ascii	"\007\352I9\203y\244\270\330d\2468j`C\034v<e\036\334"
 408      8379A4B8 
 408      D864A638 
 408      6A60431C 
 408      763C651E 
 409 02f3 6E604828 		.ascii	"n`H(9\007\223\205\027.\273\204\032!\306\3557\246\245"
 409      39079385 
 409      172EBB84 
ARM GAS  /tmp/ccLzt0L0.s 			page 32


 409      1A21C6ED 
 409      37A6A5
 410 0306 E7C40F9B 		.ascii	"\347\304\017\233<h\232;\014l\212\303\017\004\234m8\207"
 410      3C689A3B 
 410      0C6C8AC3 
 410      0F049C6D 
 410      3887
 411 0318 1818119A 		.ascii	"\030\030\021\232z\311\261\013\240\212\256\003f\004\276"
 411      7AC9B10B 
 411      A08AAE03 
 411      6604BE
 412 0327 9764DE09 		.ascii	"\227d\336\011!337\353\256\305\314w\015l\216\303\210"
 412      21333337 
 412      EBAEC5CC 
 412      770D6C8E 
 412      C388
 413 0339 30132D33 		.ascii	"0\023-3s\016\036)\374v\326gq\030\262\325\264\244%;\\"
 413      730E1E29 
 413      FC76D667 
 413      7118B2D5 
 413      B4A4253B 
 414 034e CD4F0D6C 		.ascii	"\315O\015l\265\222\200\203\031\035m\333IG\014\3404L"
 414      B5928083 
 414      191D6DDB 
 414      49470CE0 
 414      344C
 415 0360 FC6BBCDB 		.ascii	"\374k\274\333V\301\226\274\245\207\240\027]\260Ve\376"
 415      56C196BC 
 415      A587A017 
 415      5DB05665 
 415      FE
 416 0371 CE5FAEC9 		.ascii	"\316_\256\311\337\037\032\330\036\207=\302\337x\025"
 416      DF1F1AD8 
 416      1E873DC2 
 416      DF7815
 417 0380 5ADC702C 		.ascii	"Z\334p,\2442\327\3778\351\262\354\206m\215\035i\271"
 417      A432D7FF 
 417      38E9B2EC 
 417      866D8D1D 
 417      69B9
 418 0392 A16C86BE 		.ascii	"\241l\206\276\336J\347\245\231\037\031\250\307\301D"
 418      DE4AE7A5 
 418      991F19A8 
 418      C7C144
 419 03a1 61674DE9 		.ascii	"agM\351\252\311\367f\255\225\375\322\376-\226}\017\320"
 419      AAC9F766 
 419      AD95FDD2 
 419      FE2D967D 
 419      0FD0
 420 03b3 8DA79E86 		.ascii	"\215\247\236\206W\337[\374|_\300\362\000Y\344\240\226"
 420      57DF5BFC 
 420      7C5FC0F2 
 420      0059E4A0 
 420      96
 421 03c4 45EE85AB 		.ascii	"E\356\205\253u<\364\223\263Z-\241\337\3173b\002\257"
 421      753CF493 
 421      B35A2DA1 
ARM GAS  /tmp/ccLzt0L0.s 			page 33


 421      DFCF3362 
 421      02AF
 422 03d6 9F121ABC 		.ascii	"\237\022\032\274\375u:p{\247\366\316?\336n\231\216Y"
 422      FD753A70 
 422      7BA7F6CE 
 422      3FDE6E99 
 422      8E59
 423 03e8 D65164F1 		.ascii	"\326Qd\361\231\027\245\265;\340(\013f\013\325Vq|3\366"
 423      9917A5B5 
 423      3BE0280B 
 423      660BD556 
 423      717C33F6 
 424 03fc F1C9502A 		.ascii	"\361\311P*H\235>\240\233\215\021z\370\204\323R\031]"
 424      489D3EA0 
 424      9B8D117A 
 424      F884D352 
 424      195D
 425 040e CD27B350 		.ascii	"\315'\263P\244\357WxC\376rU\371\343\271\262\305\266"
 425      A4EF5778 
 425      43FE7255 
 425      F9E3B9B2 
 425      C5B6
 426 0420 21355ADF 		.ascii	"!5Z\3372\210(\000\334\257]\240\230b\332\361\345Q\346"
 426      32882800 
 426      DCAF5DA0 
 426      9862DAF1 
 426      E551E6
 427 0433 A09F6D38 		.ascii	"\240\237m8\305u\3547\013X\026XO\225\300l\245\314\330"
 427      C575EC37 
 427      0B581658 
 427      4F95C06C 
 427      A5CCD8
 428 0446 E253D37E 		.ascii	"\342S\323~\313\234\262\312\2345\343\235Y\036\245\024"
 428      CB9CB2CA 
 428      9C35E39D 
 428      591EA514 
 429 0456 F21DBFD0 		.ascii	"\362\035\277\320\307*\233\016g\033\260\027\003\360>"
 429      C72A9B0E 
 429      671BB017 
 429      03F03E
 430 0465 F0CD3B57 		.ascii	"\360\315;W<!\0356-_I\313B@\212e-\240S\366\004\256:f"
 430      3C211D36 
 430      2D5F49CB 
 430      42408A65 
 430      2DA053F6 
 431 047d EB9827AF 		.ascii	"\353\230'\257^\031O\332:d\220\245\211RGe\224'\324K\323"
 431      5E194FDA 
 431      3A6490A5 
 431      89524765 
 431      9427D44B 
 432 0492 75E50955 		.ascii	"u\345\011U.\027\344G\351\221\302\1776\313\372m\025r"
 432      2E17E447 
 432      E991C27F 
 432      36CBFA6D 
 432      1572
 433 04a4 F3CAE39D 		.ascii	"\363\312\343\235 \215\246\255(\313R-\205\357\212y;\335"
 433      208DA6AD 
ARM GAS  /tmp/ccLzt0L0.s 			page 34


 433      28CB522D 
 433      85EF8A79 
 433      3BDD
 434 04b6 F21FCD92 		.ascii	"\362\037\315\222\205[\343pXz}\033)\270X\334\343\374"
 434      855BE370 
 434      587A7D1B 
 434      29B858DC 
 434      E3FC
 435 04c8 C274F3F5 		.ascii	"\302t\363\365\242\242\204|\037\314\231\243\027\007\255"
 435      A2A2847C 
 435      1FCC99A3 
 435      1707AD
 436 04d7 BC160ED6 		.ascii	"\274\026\016\326S \214\263\177\376\305\216c\315M8\233"
 436      53208CB3 
 436      7FFEC58E 
 436      63CD4D38 
 436      9B
 437 04e8 BB3E67DB 		.ascii	"\273>g\333l\035U\270h\200[\005g'o\314Y\010b\327\341"
 437      6C1D55B8 
 437      68805B05 
 437      67276FCC 
 437      590862D7 
 438 04fd EC990337 		.ascii	"\354\231\0037\345\354\275\352\234\245\360\022/M\227"
 438      E5ECBDEA 
 438      9CA5F012 
 438      2F4D97
 439 050c 4BD83A2F 		.ascii	"K\330:/\331\252\022\217d\353\320?*\330j\004\215\263"
 439      D9AA128F 
 439      64EBD03F 
 439      2AD86A04 
 439      8DB3
 440 051e F5C19729 		.ascii	"\365\301\227)\017\0137(\017Mp\205\237\344\302\027[+"
 440      0F0B3728 
 440      0F4D7085 
 440      9FE4C217 
 440      5B2B
 441 0530 835D38B0 		.ascii	"\203]8\260A\274\010\212!\273\252\206\374ae\310\237\317"
 441      41BC088A 
 441      21BBAA86 
 441      FC6165C8 
 441      9FCF
 442 0542 51C89D71 		.ascii	"Q\310\235q8#\015\337N\012\376\315\2042\330\315mS=\232"
 442      38230DDF 
 442      4E0AFECD 
 442      8432D8CD 
 442      6D533D9A 
 443 0556 DEBBF267 		.ascii	"\336\273\362g\024\323\031\354\311\340F\376\036\362\330"
 443      14D319EC 
 443      C9E046FE 
 443      1EF2D8
 444 0565 9186E123 		.ascii	"\221\206\341#\020\017\205Ku\226X7\273\354\311l\227}"
 444      100F854B 
 444      75965837 
 444      BBECC96C 
 444      977D
 445 0577 5DAF9740 		.ascii	"]\257\227@\221%\273\230\015\333\037^;zl,\023\353*=\314"
 445      9125BB98 
ARM GAS  /tmp/ccLzt0L0.s 			page 35


 445      0DDB1F5E 
 445      3B7A6C2C 
 445      13EB2A3D 
 446 058c 1B4518F9 		.ascii	"\033E\030\371\345\351\270\201_\035B\371\246\200F$\207"
 446      E5E9B881 
 446      5F1D42F9 
 446      A6804624 
 446      87
 447 059d 9A3E7BD4 		.ascii	"\232>{\324\305\334\210\020\341\274.\\,\346\214\277h"
 447      C5DC8810 
 447      E1BC2E5C 
 447      2CE68CBF 
 447      68
 448 05ae D176B719 		.ascii	"\321v\267\031\274*S\032\241\345\010\262\231(\273\213"
 448      BC2A531A 
 448      A1E508B2 
 448      9928BB8B 
 449 05be AB33FBCA 		.ascii	"\2533\373\312\201\257\335\214\323k\3259M\341\307<\215"
 449      81AFDD8C 
 449      D36BD539 
 449      4DE1C73C 
 449      8D
 450 05cf AE0A3637 		.ascii	"\256\01267U\260y\225\373\2679\203\311\0126[\240\000"
 450      55B07995 
 450      FBB73983 
 450      C90A365B 
 450      A000
 451 05e1 68B329C4 		.ascii	"h\263)\3046Uc3\271\212\315k\345lJ\354*6\223\031\214"
 451      36556333 
 451      B98ACD6B 
 451      E56C4AEC 
 451      2A369319 
 452 05f6 3413739B 		.ascii	"4\023s\233\243\222\271V\231\252\037\326\234\252t;\234"
 452      A392B956 
 452      99AA1FD6 
 452      9CAA743B 
 452      9C
 453 0607 ADBC1D4A 		.ascii	"\255\274\035JR\265\015\202\244\360\240\371\353\373\255"
 453      52B50D82 
 453      A4F0A0F9 
 453      EBFBAD
 454 0616 8DE8B415 		.ascii	"\215\350\264\025\336\221\246K\336\242\321S\266\235\031"
 454      DE91A64B 
 454      DEA2D153 
 454      B69D19
 455 0625 F62054E8 		.ascii	"\366 T\350\244\363g\311\006Q\375m\355\011\031\231]8"
 455      A4F367C9 
 455      0651FD6D 
 455      ED091999 
 455      5D38
 456 0637 3AABBC47 		.ascii	":\253\274Gb\340Qyy\271\2067\312\201vps\007\217^z\321"
 456      62E05179 
 456      79B98637 
 456      CA817670 
 456      73078F5E 
 457 064d 7E9F76AD 		.ascii	"~\237v\255v\221\300\265\3714f+\251\342S\034\034<\273"
 457      7691C0B5 
ARM GAS  /tmp/ccLzt0L0.s 			page 36


 457      F934662B 
 457      A9E2531C 
 457      1C3CBB
 458 0660 FEF765E8 		.ascii	"\376\367e\350}\243\222^\362B\276\353&\013\237\325\254"
 458      7DA3925E 
 458      F242BEEB 
 458      260B9FD5 
 458      AC
 459 0671 896AD65B 		.ascii	"\211j\326[Uk\226p\255\203\227\364\211\302\324\317W?"
 459      556B9670 
 459      AD8397F4 
 459      89C2D4CF 
 459      573F
 460 0683 DFEE4CCB 		.ascii	"\337\356L\313g1\013\251\233\3016\262\004>\365\201dL"
 460      67310BA9 
 460      9BC136B2 
 460      043EF581 
 460      644C
 461 0695 3C0136C1 		.ascii	"<\0016\301\2029%/\337\262\305\271\222EW\345\342|\311"
 461      8239252F 
 461      DFB2C5B9 
 461      924557E5 
 461      E27CC9
 462 06a8 22A3FA3C 		.ascii	"\"\243\372<\214\027\366e\304\2524'\276\235\024T\222"
 462      8C17F665 
 462      C4AA3427 
 462      BE9D1454 
 462      92
 463 06b9 3D57EF4C 		.ascii	"=W\357L\014d\207\372\023\351l\337\203\211\276\376=\211"
 463      0C6487FA 
 463      13E96CDF 
 463      8389BEFE 
 463      3D89
 464 06cb F480B1CB 		.ascii	"\364\200\261\313\310\346\022\243\273\307\206\037HPg"
 464      C8E612A3 
 464      BBC7861F 
 464      485067
 465 06da 4F6AB791 		.ascii	"Oj\267\221\035\313%r\003\375\203\203\033\322\200\303"
 465      1DCB2572 
 465      03FD8383 
 465      1BD280C3 
 466 06ea 6A7A6044 		.ascii	"jz`D\315\245G\224\301\0215=\324\347\030\315>0\342\030"
 466      CDA54794 
 466      C111353D 
 466      D4E718CD 
 466      3E30E218 
 467 06fe 3486FB1D 		.ascii	"4\206\373\035\251\335\231\234\213\013B8\240\335\303"
 467      A9DD999C 
 467      8B0B4238 
 467      A0DDC3
 468 070d 54DDB723 		.ascii	"T\335\267#\361\235\235\372\0166\027\320\300\231\036"
 468      F19D9DFA 
 468      0E3617D0 
 468      C0991E
 469 071c B85B076F 		.ascii	"\270[\007o@\033\314f\262c\243\240\352^\010\217f\263"
 469      401BCC66 
 469      B263A3A0 
ARM GAS  /tmp/ccLzt0L0.s 			page 37


 469      EA5E088F 
 469      66B3
 470 072e FA506AF8 		.ascii	"\372Pj\370A\235\340cC\375\303\2439&\331\377\023c\024"
 470      419DE063 
 470      43FDC3A3 
 470      3926D9FF 
 470      136314
 471 0741 FCBDB954 		.ascii	"\374\275\271T\246\177\253\276\216O\221\222\021\010\337"
 471      A67FABBE 
 471      8E4F9192 
 471      1108DF
 472 0750 931D22E9 		.ascii	"\223\035\"\351\276\334V\235\215u&\247\203c]N\007\225"
 472      BEDC569D 
 472      8D7526A7 
 472      83635D4E 
 472      0795
 473 0762 84D47539 		.ascii	"\204\324u9p\352\333\250\367\177\344\377\020\367"
 473      70EADBA8 
 473      F77FE4FF 
 473      10F7
 474              		.text
 475              		.section	.gnu.lto_shellCreateStatic.72f613c25c0c605d,"",%progbits
 476 0000 789C5D4F 		.ascii	"x\234]O\261N\002A\020}o\226\0134&\266t~\001k\370\026"
 476      B14E0241 
 476      107D6F96 
 476      0B3426B6 
 476      747E016B 
 477 0016 2C2C71B9 		.ascii	",,q\271\334m\004/\341\000c,X\022\012\312\303\312\226"
 477      DC6D042F 
 477      E100632C 
 477      58120ACA 
 477      C3CA96
 478 0029 9E686943 		.ascii	"\236hiCAI%\341\017\374\016\033\230\273K,\334\344\275"
 478      414925E1 
 478      0FFC0E1B 
 478      98BB4B2C 
 478      DCE4BD
 479 003c 99CDBC79 		.ascii	"\231\315\274y3#\020\374\177m\305\227\242\253\240\001"
 479      332310FC 
 479      7F6DC597 
 479      A2ABA001 
 480 004c A5F80616 		.ascii	"\245\370\006\026-!\313\004\304\\8\277g\245\375\224\375"
 480      2D21CB04 
 480      C45C38BF 
 480      67A5FD94 
 480      FD
 481 005d CFF9FC51 		.ascii	"\317\371\374Q\274\355v<\210jF\204QbCI\"%\323\204\257"
 481      BCED763C 
 481      886A4684 
 481      51624349 
 481      2225D384 
 482 0072 B4119621 		.ascii	"\264\021\226!\0247\200\253\276=\345\322\357\216RFs\304"
 482      143780AB 
 482      BE3DE5D2 
 482      EF8E5246 
 482      73C4
 483 0084 7BD8AEAF 		.ascii	"{\330\256\257\372\3340B\302\346+~\303*\\{\322\261\236"
ARM GAS  /tmp/ccLzt0L0.s 			page 38


 483      FADC3042 
 483      C2E62B7E 
 483      C32A5C7B 
 483      D2B19E
 484 0097 9550129A 		.ascii	"\225P\022\232\204\215\272\024\236=\305Q\352\016\255"
 484      848DBA14 
 484      9E3DC551 
 484      EA0EAD
 485 00a6 465EB7C5 		.ascii	"F^\267\305\011\213\275\371s\251/\352\251\203\316(O\275"
 485      098BBDF9 
 485      73A92FEA 
 485      A983CE28 
 485      4FBD
 486 00b8 B569368A 		.ascii	"\265i6\212\255\313\006/v\020\317\254K\375\203\317r;"
 486      ADCB062F 
 486      7610CFAC 
 486      4BFD83CF 
 486      723B
 487 00ca 194F9F1E 		.ascii	"\031O\237\036\255&\263\376\330g\323\334\346i<\034v\034"
 487      AD26B3FE 
 487      D867D3DC 
 487      E6693C1C 
 487      761C
 488 00dc 2E81423E 		.ascii	".\201B>\002"
 488      02
 489              		.text
 490              		.section	.gnu.lto_shellGetLine.72f613c25c0c605d,"",%progbits
 491 0000 789C9555 		.ascii	"x\234\225U]h\034U\024>\347\316\316\376\317\376\314n"
 491      5D681C55 
 491      143EE7CE 
 491      CEFECFFE 
 491      CC6E
 492 0012 F38B69D9 		.ascii	"\363\213i\331\230\230\244\241k\265Z[\020*\370\342\273"
 492      9898A4A1 
 492      6BB55A5B 
 492      102AF8E2 
 492      BB
 493 0023 01B520A4 		.ascii	"\001\265 \244\333\260\031l\0154\266\240}\310]Sa\301"
 493      DBB0196C 
 493      0D34B6A0 
 493      7DC85D53 
 493      61C1
 494 0035 2A616DE9 		.ascii	"*am\351\326Xh)\015bC\002F\332\"\"I\021l\2526(>\230\350"
 494      D6586829 
 494      0D624302 
 494      46DA2222 
 494      49116CAA 
 495 004e 4304ADF8 		.ascii	"C\004\255\370\363\240/VZu=\347\316\334\315n\322\032"
 495      F3A02F56 
 495      5A753DE7 
 495      CEDCCD6E 
 495      D21A
 496 0060 32B067CF 		.ascii	"2\260g\317\275\367|\347|\347g\356\010\020\260\372\271"
 496      BDF77CE7 
 496      7CE767EE 
 496      0810B0FA 
 496      B9
ARM GAS  /tmp/ccLzt0L0.s 			page 39


 497 0071 45BFED41 		.ascii	"E\277\355A\200=\364\217\233\000\305\330\015\200BP\240"
 497      803DF48F 
 497      9B00C5D8 
 497      0D804250 
 497      A0
 498 0082 CF550C57 		.ascii	"\317U\014Wy\302'R\223\002d\330\374\3413\000\0315\205"
 498      79C22752 
 498      930264D8 
 498      FCE13300 
 498      193585
 499 0095 5F2D03EE 		.ascii	"_-\003\356\322\217)\327< B\277o\242\375\340\331\307"
 499      D28F29D7 
 499      3C2042BF 
 499      6FA2FDE0 
 499      D9C7
 500 00a7 683BE8AD 		.ascii	"h;\350\255\242j\025\022\341O\037\245Ud\276\221Va\214"
 500      A26A1512 
 500      E14F1FA5 
 500      5564BE91 
 500      56618C
 501 00ba B89008A6 		.ascii	"\270\220\010\246]%*,\3453\346\372\264\264\317\230\210"
 501      5D252A2C 
 501      E533E6FA 
 501      B4B4CF98 
 501      88
 502 00cb 171FA0FD 		.ascii	"\027\037\240\375\004\313h\\\233'D\362\353\006\332\266"
 502      04CB685C 
 502      9B2744F2 
 502      EB06DAB6 
 503 00db 3FDA49DB 		.ascii	"?\332I\333I\264\335m\033\015WI!\262\002i\275\2010\""
 503      49B4DD6D 
 503      1B0D5749 
 503      21B20269 
 503      BD813022 
 504 00ef 0C9FE90F 		.ascii	"\014\237\351\017\004C\341H\324\212\305\023I;\225\306"
 504      0443E148 
 504      D48AC513 
 504      493B95C6 
 505 00ff 9167910B 		.ascii	"\221g\221\013!2pN\312\322\362\205\251%<ub\266pV\376"
 505      2132704E 
 505      CAD2F285 
 505      A9253C75 
 505      62B67056 
 506 0114 5DA9203A 		.ascii	"]\251 :HE{\030!\207\360\014-0\250\376\004\326W\221\261"
 506      48457B18 
 506      2187F00C 
 506      2D30A8FE 
 506      04D65791 
 507 0129 B3A5D96F 		.ascii	"\263\245\331oKo4\312e9&\377%\250B\356\\\0179-f\227+"
 507      4B6F34CA 
 507      653926FF 
 507      25A842EE 
 507      5C0F392D 
 508 0140 95774EFE 		.ascii	"\225wN\376x|\022o\210,\302A\206\2210X\370X\230\340\240"
 508      787C126F 
 508      882CC241 
 508      86913058 
ARM GAS  /tmp/ccLzt0L0.s 			page 40


 508      F85898E0 
 509 0155 1141D22C 		.ascii	"\021A\322,\022\030\243\245/N\302L\222\360\333\320\217"
 509      1218A3A5 
 509      2F4EC24C 
 509      92F0DBD0 
 509      8F
 510 0166 E730030D 		.ascii	"\3470\003\015t&\032iG4\221\0104\263U\013\211`+\373h"
 510      74261A69 
 510      47349108 
 510      34B3550B 
 510      89602BFB 
 511 017b 63B1D933 		.ascii	"c\261\3313\315\360Y;\237u\260\326\311Z\027k\335\254"
 511      CDF0593B 
 511      9F75B0D6 
 511      C95A176B 
 511      DDAC
 512 018d F57856BD 		.ascii	"\365xV\275\014\241\307\204cR\216m\001N\204\236\247I"
 512      0CA1C784 
 512      63528E6D 
 512      014E849E 
 512      A749
 513 019f 7E6FD29F 		.ascii	"~o\322\237\240?\243\017\015\230\276Fda\021Z\363h\330"
 513      A03FA30F 
 513      0D98BE46 
 513      6461115A 
 513      F368D8
 514 01b2 98475F9A 		.ascii	"\230G_\232L\372\320\007Tv\374\002^]\372\353\342u\364"
 514      4CFAD007 
 514      5476FC02 
 514      5E5DFAEB 
 514      E275F4
 515 01c5 BCF4E379 		.ascii	"\274\364\343yr\015\024\342\002m\321\223\307\330V\350"
 515      720D14E2 
 515      026DD193 
 515      C7D856E8 
 516 01d5 A1D8E3F0 		.ascii	"\241\330\343\3606\225'\224G\213\313\024V\305\331W-\026"
 516      36952794 
 516      478BCB14 
 516      56C5D957 
 516      2D16
 517 01e7 B979AE1F 		.ascii	"\271y\256\037'\010\223\307\370VxO&\034\214\270\220("
 517      270893C7 
 517      F856784F 
 517      261C8CB8 
 517      9028
 518 01f9 B96088CF 		.ascii	"\271`\210\317\203h\314\002\3705\"I \016e\035\205W\250"
 518      8368CC02 
 518      F8352249 
 518      200E651D 
 518      8557A8
 519 020c 362E09F7 		.ascii	"6.\011\367P5\305BJ<\006p\015>\371\251\260\275\212RG"
 519      5035C542 
 519      4A3C0670 
 519      0D3EF9A9 
 519      B0BD8A52 
 520 0221 2BAD5A04 		.ascii	"+\255Z\004J\256\325 \021\021\223'\0078G\023hV\015\""
 520      4AAED520 
ARM GAS  /tmp/ccLzt0L0.s 			page 41


 520      11119327 
 520      07384713 
 520      68560D22 
 521 0235 377F85C6 		.ascii	"7\177\205\306F\003m\235e\275?\233\375\305}5\315\357"
 521      46036D9D 
 521      65BD3F9B 
 521      FDC57D35 
 521      CDEF
 522 0247 433F9C17 		.ascii	"C?\234\027\306\002\274\266\374\341\317\001\217\020\034"
 522      C602BCB6 
 522      FCE1CF01 
 522      8F101C
 523 0256 85DBB2C8 		.ascii	"\205\333\262\310\011&r^2\212\371mY\226r\257\203\311"
 523      0926725E 
 523      328AF96D 
 523      599672AF 
 523      83C9
 524 0268 36D87546 		.ascii	"6\330uF\226\3678h\353\034\034Li\207\001\230\233\007"
 524      96F73868 
 524      EB1C1C4C 
 524      69870198 
 524      9B07
 525 027a 8303CFDD 		.ascii	"\203\003\317\335)E\353C\007\353B\007\341\317\035\312"
 525      2945EB43 
 525      07EB4207 
 525      E1CF1DCA 
 526 028a B0D0576F 		.ascii	"\260\320Wo6Rg\026\202\231v2;\366\333\334?%K\033r\015"
 526      36526716 
 526      82997632 
 526      3BF6DBDC 
 526      3F254B1B 
 527 02a0 6A8DC2F0 		.ascii	"j\215\302\360]\223\241Z=}\275Z\206\314F\033\333\356"
 527      5D93A15A 
 527      3D7DBD5A 
 527      86CC461B 
 527      DBEE
 528 02b2 35365D6D 		.ascii	"56]ml\246\266\261\372\362Z\000S\227\2120\252:D\335\241"
 528      6CA6B6B1 
 528      FAF25A00 
 528      53978A30 
 528      AA3A44DD 
 529 02c7 DB8BBD2D 		.ascii	"\333\213\275-\025\337\027\332a\307F\031t\256a\320\261"
 529      15DF17DA 
 529      61C74619 
 529      74AE61D0 
 529      B1
 530 02d8 2E834EC5 		.ascii	".\203N\305\200\315\032\266@\225\305\273+,\2726\312\242"
 530      80CD1AB6 
 530      4095C5BB 
 530      2B2CBA36 
 530      CAA2
 531 02ea 7B0D8BAE 		.ascii	"{\015\213\256\273\261 \310S\032\322\243G\256\216Z\267"
 531      BBB120C8 
 531      531AD2A3 
 531      47AE8E5A 
 531      B7
 532 02fb 579C1E8F 		.ascii	"W\234\036\217\326\350\353\243\027'Z4\246\227\372\250"
ARM GAS  /tmp/ccLzt0L0.s 			page 42


 532      D6E8EBA3 
 532      17275A34 
 532      A697FAA8 
 533 030b AEA40A3D 		.ascii	"\256\244\012=\361j/#\334\360_@\036\377\374\364}\332"
 533      F16A2F23 
 533      DCF05F40 
 533      1EFFFCF4 
 533      7DDA
 534 031d 150FBF20 		.ascii	"\025\017\277 \363\0205\2767<y\332a\303(\274\331\351"
 534      F31035BE 
 534      373C79DA 
 534      61C328BC 
 534      D9E9
 535 032f 4EDA99B7 		.ascii	"N\332\231\267VMZ\315[C\206\026\224P\015\371\302F\206"
 535      564D5ACD 
 535      5B438616 
 535      94500DF9 
 535      C24686
 536 0342 FCF1BB0D 		.ascii	"\374\361\273\0159\345|\245|\351+o\306\250>\005)e\234"
 536      39E57CA5 
 536      7CE92B6F 
 536      C6A83E05 
 536      29659C
 537 0355 AE5A2F97 		.ascii	"\256Z/\227\200r\305ZM\374\030\334\271\237G\370\346\334"
 537      8072C55A 
 537      4DFC18DC 
 537      B99F47F8 
 537      E6DC
 538 0367 E55544E9 		.ascii	"\345UD\351J\254%\032\207\217m7\365\361\232\324\371$"
 538      4AAC251A 
 538      878F6D37 
 538      F5F19AD4 
 538      F924
 539 0379 C12754C0 		.ascii	"\301'T\300\342\350\255\211]\332Ec\036\033\352\012\310"
 539      E2E8AD89 
 539      5DDA4563 
 539      1E1BEA0A 
 539      C8
 540 038a 1536F469 		.ascii	"\0256\364i\023\275#d\243n\201\233+\267\000mcm\314$L"
 540      13BD2364 
 540      A36E819B 
 540      2BB7006D 
 540      636DCC24 
 541 039f 99EAD5F9 		.ascii	"\231\352\325\371\346\362nm\323\274\321\211iY31\315\353"
 541      E6F26E6D 
 541      D3BCD189 
 541      69593331 
 541      CDEB
 542 03b1 CE6DCBAA 		.ascii	"\316m\313\2527\207\206\2432\321\254=\266\351\341@7\324"
 542      378786A3 
 542      32D1AC3D 
 542      B6E9E140 
 542      37D4
 543 03c3 FC58401F 		.ascii	"\374X@\037m\326\263\2662\200\367j\004\031\353<m\267"
 543      6DD6B3B6 
 543      3280F76A 
 543      0419EB3C 
ARM GAS  /tmp/ccLzt0L0.s 			page 43


 543      6DB7
 544 03d5 82577FF5 		.ascii	"\202W\177\365\336\013\327\311\016\230\221\305j\267\026"
 544      DE0BD7C9 
 544      0E9891C5 
 544      6AB716
 545 03e4 C1207882 		.ascii	"\301 x\202\206\254-Y6\030\225\342\217\014\243\312S\273"
 545      86AC2D59 
 545      361895E2 
 545      8F0CA3CA 
 545      53BB
 546 03f6 EF85FB92 		.ascii	"\357\205\373\222\276\355\034\312t]\230\034\336\340o"
 546      BEED1CCA 
 546      745D981C 
 546      DEE06F
 547 0405 A7A7F83F 		.ascii	"\247\247\370?8\245(\221C\353\304\270\3726\245\341\217"
 547      38A52891 
 547      43EBC4B8 
 547      FA36A5E1 
 547      8F
 548 0416 4794DBE2 		.ascii	"G\224\333\342\314\377\322\361\345QD\210\016\306\221"
 548      CCFFD2F1 
 548      E5514488 
 548      0EC691
 549 0425 BF7C486C 		.ascii	"\277|Hl\270\226\017f\007\207\016\016dsC\373_\316\356"
 549      B8960F66 
 549      07870E0E 
 549      647343FB 
 549      5FCEEE
 550 0438 1F3892CD 		.ascii	"\0378\222\315\015:\373\234\241\341\354K\207\016\277"
 550      0D3AFB9C 
 550      A1E1EC4B 
 550      870EBF
 551 0447 F8429694 		.ascii	"\370B\226\224#\375\207\234\241\303\303\331\341\301\201"
 551      23FD879C 
 551      A1C3C3D9 
 551      E1C181
 552 0456 0307B6E5 		.ascii	"\003\007\266\345\300\310m{\010s\306\363O\202a\205\341"
 552      C0C86D7B 
 552      0873C6F3 
 552      4F826185 
 552      E1
 553 0467 3FBAEDE3 		.ascii	"?\272\355\343\200"
 553      80
 554              		.text
 555              		.section	.gnu.lto_.symbol_nodes.72f613c25c0c605d,"",%progbits
 556 0000 789C4D8E 		.ascii	"x\234M\216MO\023Q\024\206\317{\357L\265\014\225\362"
 556      4D4F1351 
 556      1486CF7B 
 556      EF4CB50C 
 556      95F2
 557 0012 29BAD05F 		.ascii	")\272\320_\240\211\211.d\201\277\205\237\340/8\244M"
 557      A089892E 
 557      6481BF85 
 557      9FE02F38 
 557      A44D
 558 0024 106D5063 		.ascii	"\020mPc\023\335\2501c\334\353\216\270\234\222)\250\264"
 558      13DDA831 
ARM GAS  /tmp/ccLzt0L0.s 			page 44


 558      63DCEB8E 
 558      B89C9229 
 558      A8B4
 559 0036 4A0B4523 		.ascii	"J\013E#P\306\022b$q\201\013\027J\274_rg6\317<\347\275"
 559      50C61262 
 559      2471810B 
 559      174ABC5F 
 559      726736CF 
 560 004d F7BD4790 		.ascii	"\367\275G\220\240?\202\354'\332`\320\303\026\021\363"
 560      A03F82EC 
 560      27DA60D0 
 560      C31611F3 
 561 005d B3C539B1 		.ascii	"\263\3059\261\006\0269m\202\245\323%\245\007\340\340"
 561      0616396D 
 561      82A5D325 
 561      A507E0E0 
 562 006d 34855807 		.ascii	"4\205X\007\207N\237\336\235\023\207\340B.\375\000>\223"
 562      874E9FDE 
 562      9D1387E0 
 562      422EFD00 
 562      3E93
 563 007f 4B3F81CF 		.ascii	"K?\201\317:}\276\210p\025\0242\211\015p\321OE\007<\224"
 563      3A7DBE88 
 563      70151432 
 563      890D70D1 
 563      4F45073C 
 564 0094 D38F60CA 		.ascii	"\323\217`\312Ut\301Q.\335\004\017\347\032?C\020S\330"
 564      5574C151 
 564      2EDD040F 
 564      E71A3F43 
 564      1053D8
 565 00a7 020296F8 		.ascii	"\002\002\226\370\002.\331p~\036\330\001\237\363\366"
 565      022ED970 
 565      7E1ED801 
 565      9FF3F6
 566 00b6 153CE2AD 		.ascii	"\025<\342\255\017.{\333\003\217z\333\005\217y\333\002"
 566      0F2E7BDB 
 566      038F7ADB 
 566      058F79DB 
 566      02
 567 00c7 8F7BEB81 		.ascii	"\217{\353\201'\274m\203'\275\355\203\247NMR\231\252"
 567      27BC6D83 
 567      27BDED83 
 567      A74E4D52 
 567      99AA
 568 00d9 AF5B5702 		.ascii	"\257[W\002\242\343\376\254\304\030U\337\374\205\304"
 568      A2E3FEAC 
 568      C41855DF 
 568      FC85C4
 569 00e8 283534C5 		.ascii	"(54\305$U\373'\212\023\364\322p\234\032\232RP\274\257"
 569      2455FB27 
 569      8A13F4D2 
 569      709C1A9A 
 569      5250BCAF 
 570 00fc 18280EDA 		.ascii	"\030(\016\332\212\222\222\337We((\323c\305\3041v\254"
 570      8A9292DF 
 570      57652828 
ARM GAS  /tmp/ccLzt0L0.s 			page 45


 570      D363C5C4 
 570      3176AC
 571 010f 38667D97 		.ascii	"8f}\227;\306\216\025\315\202\253+\204\246\256x\336\276"
 571      3BC68E15 
 571      CD82AB2B 
 571      84A6AE78 
 571      DEBE
 572 0121 5A9CB2AF 		.ascii	"Z\234\262\257\016M\333m\"W\247\030\277j/K\031\225(\261"
 572      0E4DDB6D 
 572      2257A718 
 572      BF6A2F4B 
 572      199528B1 
 573 0135 3F2A4957 		.ascii	"?*IW.\312\010\024/\374\372yC\017\2624\375qMO\222;\203"
 573      2ECA0814 
 573      2FFCFA79 
 573      430FB234 
 573      FD714D4F 
 574 014c B7B76554 		.ascii	"\267\267eT\246\306\275\356-s\371\275>Z\246o\265\243"
 574      A6C6BDEE 
 574      2D73F9BD 
 574      3E5AA66F 
 574      B5A3
 575 015e CBDA93FB 		.ascii	"\313\332\223\373\335iS\361\340D\230\274\335\2335\363"
 575      DD6953F1 
 575      E04498BC 
 575      DD9B35F3 
 576 016e 8DA39B86 		.ascii	"\215\243\233\206u='\312:;\201f\36285\347*\275u\273\214"
 576      753D27CA 
 576      3A3B8166 
 576      F23835E7 
 576      2ABD75BB 
 577 0183 61919227 		.ascii	"a\221\222'\252o\370\202]\266\244\356}\277\256\221\325"
 577      AA6FF882 
 577      5DB6A4EE 
 577      7DBFAE91 
 577      D5
 578 0194 9A322851 		.ascii	"\2322(Q\347\305`F\241\336LkZ\217\377\363\235e\375\321"
 578      E7C56046 
 578      A1DE4C6B 
 578      5A8FFFF3 
 578      9D65FDD1 
 579 01a8 C125FA07 		.ascii	"\301%\372\007ca\363i"
 579      6361F369 
 580              		.text
 581              		.section	.gnu.lto_.refs.72f613c25c0c605d,"",%progbits
 582 0000 789C6362 		.ascii	"x\234cb`bPd\200\000&vF\016&\016FN \346b\342f\346f\340"
 582      60625064 
 582      80002676 
 582      460E260E 
 582      464E20E6 
 583 001a 63E267E2 		.ascii	"c\342g\342g\344a\342\006\322lL,\014\000\022\203\000"
 583      67E461E2 
 583      06D26C4C 
 583      2C0C0012 
 583      8300
 584 002c E5       		.ascii	"\345"
 585              		.text
ARM GAS  /tmp/ccLzt0L0.s 			page 46


 586              		.section	.gnu.lto_.decls.72f613c25c0c605d,"",%progbits
 587 0000 789CBD5D 		.ascii	"x\234\275]yt\024U\272\257\245\227\204D\210\210\210s"
 587      79741455 
 587      BAAFA597 
 587      84448888 
 587      8873
 588 0012 746CE78D 		.ascii	"tl\347\2153\216\357\215a\033\305y3\202F\021\316\031"
 588      338EEF8D 
 588      611BC579 
 588      33824611 
 588      CE19
 589 0024 663CC0BC 		.ascii	"f<\300\274\347y\363\316i\213N\223\364\230N2\335\235"
 589      E779F3CE 
 589      698B4E93 
 589      F4984E32 
 589      DD9D
 590 0036 00EFFD61 		.ascii	"\000\357\375a%,\"(\204\260\205}\225E\201\001\"KX\244"
 590      252C2228 
 590      84B0857D 
 590      95458101 
 590      224B58A4 
 591 004a D9C26A80 		.ascii	"\331\302j\200\260\357\001\001\305\231 \213\210l\346"
 591      B0EF0101 
 591      C599208B 
 591      886CE6
 592 0059 7D77A9EA 		.ascii	"}w\251\352\252\333U\325U\255\276\234s\253k\373~\367"
 592      AADB55D5 
 592      55ADBE9C 
 592      73AB6BFB 
 592      7EF7
 593 006b DBEE77BF 		.ascii	"\333\356w\277{\353VE\340\004\256\233\227\343Z\340\357"
 593      7BEB5645 
 593      E004AE9B 
 593      97E35AE0 
 593      EF
 594 007c AB728EEB 		.ascii	"\253r\216\353\235\315q\2559\216{\021\312\323P\\P\346"
 594      9DCD71AD 
 594      398E7B11 
 594      CAD3505C 
 594      50E6
 595 008e 40990B65 		.ascii	"@\231\013e!\224EP>\204\362\021\224\245P\226AY\016e\005"
 595      21944550 
 595      3E84F211 
 595      94A55096 
 595      41590E65 
 596 00a3 945A281F 		.ascii	"\224Z(\037CY\015e\015\224:(\353\240l\200\262\021\312"
 596      43590D65 
 596      0D943A28 
 596      EBA06C80 
 596      B211CA
 597 00b6 26287128 		.ascii	"&(q([\240l\205\262\035J=\224\235PvA\331\003e0\317qo"
 597      5BA06C85 
 597      B21D4A3D 
 597      949D5076 
 597      41D90365 
 598 00ce 435909E5 		.ascii	"CY\011\3457PVAY\015e-\224+P\334p\217\017~GA\271\001"
 598      37505641 
ARM GAS  /tmp/ccLzt0L0.s 			page 47


 598      590D652D 
 598      942B50DC 
 598      708F0F7E 
 599 00e6 05FD3D02 		.ascii	"\005\375=\002\345&\354\337\201\222#p\334\343P~\001\345"
 599      E526ECDF 
 599      81922370 
 599      DCE3507E 
 599      01E5
 600 00f8 DFA07486 		.ascii	"\337\240t\206\322\015\312\213P^\206\322\033\212\037"
 600      D20DCA8B 
 600      505E86D2 
 600      1B8A1F
 601 0107 4A119441 		.ascii	"J\021\224AP\206Ay\037\312$(\223\241|\000e\001\224EP"
 601      50864179 
 601      1FCA2428 
 601      93A17C00 
 601      65019445 
 602 011c 9642590B 		.ascii	"\226BY\013ED|\303\357\026(\015\002\247\373Cu\202\312"
 602      45447CC3 
 602      EF16280D 
 602      02A7FB43 
 602      7582CA
 603 012f B87BF0FB 		.ascii	"\270{\360\373(O\364u\015~\237\005\242\301po.\374~My"
 603      284FF475 
 603      0D7E9F05 
 603      A2C1706F 
 603      2EFC7E4D 
 604 0144 DD4AEFED 		.ascii	"\335J\357\355\010\347\020\314f8\336\304\223}\204\203"
 604      08E710CC 
 604      6638DEC4 
 604      937D8483 
 605 0154 F841F2B9 		.ascii	"\370A\362\271\3417\023\212\027J\026\224\007\230:\221"
 605      E137138A 
 605      174A1694 
 605      07983A91 
 606 0164 8C591CD1 		.ascii	"\214Y\034\321\007\262\025\302Dt\363\2404\303\271N\200"
 606      07B215C2 
 606      4474F3A0 
 606      34C3B94E 
 606      80
 607 0175 3F06C90E 		.ascii	"?\006\311\016\277\303\341\227\252\011\313\221C\345\035"
 607      BFC3E197 
 607      AA09CB91 
 607      43E51D
 608 0184 46E56A0F 		.ascii	"F\345j\017\277?\201\322\201\251\343qZ\307t!Q\007\222"
 608      BF3F81D2 
 608      81A9E371 
 608      5AC77421 
 608      510792
 609 0197 AD0B103D 		.ascii	"\255\013\020=\017\245+\224nPj\340\372\013\360\373[\221"
 609      0FA52B94 
 609      6E506AE0 
 609      FA0BF0FB 
 609      5B91
 610 01a9 D0B928ED 		.ascii	"\320\271(\355\007T\237H\257\010\372g\260\371\027\246"
 610      07549F48 
 610      AF08FA67 
ARM GAS  /tmp/ccLzt0L0.s 			page 48


 610      B0F917A6 
 611 01b9 0E64A31C 		.ascii	"\016d\243\034\312\263\266\216\373Hv\370\375\035`6#_"
 611      CAB3B68E 
 611      FB4876F8 
 611      FD1D6036 
 611      235F
 612 01cb 84DF1E50 		.ascii	"\204\337\036P^\202\022\201\022\025\023>\371S*\337\033"
 612      5E821281 
 612      1215133E 
 612      F9532ADF 
 612      1B
 613 01dc 22910761 		.ascii	"\"\221\007a\306D\302\003:\377\014S'\362\211LZ\017\302"
 613      C644C203 
 613      3AFF0C53 
 613      27F2894C 
 613      5A0FC2
 614 01ef 617D1AE1 		.ascii	"a}\032\341\015\206\363\277\024\022\362 \232!b\302\257"
 614      0D86F3BF 
 614      1412F220 
 614      9A2162C2 
 614      AF
 615 0200 503D1D91 		.ascii	"P=\035\221m\241<\313\340#\177{\314@&T\027\333^P]J\233"
 615      6DA13CCB 
 615      E0237F7B 
 615      CC402654 
 615      17DB5E50 
 616 0217 51EAB7DB 		.ascii	"Q\352\267\333v\024\276\2256\204\376\004Z\277\"\373s"
 616      7614BE95 
 616      3684FE04 
 616      5ABF22FB 
 616      73
 617 0228 0C6FDD4C 		.ascii	"\014o\335LdW\332\037\342\247\002\316w\321\310\336M#"
 617      6457DA1F 
 617      E2A702CE 
 617      77D1C8DE 
 617      4D23
 618 023a 7B672AFB 		.ascii	"{g*\373\357\340\367\337\241\374\226\301\177\221^?\004"
 618      EFE0F7DF 
 618      A1FC96C1 
 618      7F915E3F 
 618      04
 619 024b 652F47DA 		.ascii	"e/G\3323\342\343 \345\015]\257\024\311\2718C\3732\345"
 619      33E2E320 
 619      E50D5DAF 
 619      14C9B938 
 619      43FB32E5 
 620 025f 4D6BF377 		.ascii	"Mk\363w\305DLX\014\327G\301q\236\2067D3Z$mu\001\365"
 620      C5444C58 
 620      0CD747C1 
 620      719E8637 
 620      44335A24 
 621 0277 B39E4232 		.ascii	"\263\236B2vo\332\256\316@\031+&\342\3132z\237H\357A"
 621      766FDAAE 
 621      CE40192B 
 621      26E2CB32 
 621      7A9F48EF 
 622 028c ED1DC511 		.ascii	"\355\035\305\021t\374\027\330\377o(\377\305`\241\353"
ARM GAS  /tmp/ccLzt0L0.s 			page 49


 622      74FC17D8 
 622      FF6F28FF 
 622      C560A1EB 
 623 029c 5D68FD8A 		.ascii	"]h\375\212}\267\323\366\215\332c\025\020W\213\244.%"
 623      7DB7D3F6 
 623      8DDA6315 
 623      10578BA4 
 623      2E25
 624 02ae 26FC0930 		.ascii	"&\374\0110\306\303\271#\360\273\017\312\004\330?\313"
 624      C6C3B923 
 624      F0BB0FCA 
 624      04D83FCB 
 625 02be 257C18D9 		.ascii	"%|\030\331B\2617\262\201b\217\211p~\222Hx\017\013\011"
 625      42B137B2 
 625      81628F89 
 625      707E9248 
 625      780F0B09 
 626 02d2 BF992C26 		.ascii	"\277\231,&\342\"\362\263\007\205D\274a\375\242#\215"
 626      E222F2B3 
 626      078544BC 
 626      61FDA223 
 626      8D
 627 02e3 3F287ED6 		.ascii	"?(~\326\300\376\024(wy\242K\024_\221>=p__\370\355\017"
 627      C0FE1428 
 627      7779A24B 
 627      145F913E 
 627      3D705F5F 
 628 02fa E530944B 		.ascii	"\3450\224K(\036\320\330\224Ie~\234\306\314\034\0327"
 628      281ED0D8 
 628      9449657E 
 628      9CC6CC1C 
 628      1A37
 629 030c 914F4C15 		.ascii	"\221OL\025I\334z\231\332\375\026O\342\343\026Fg(\336"
 629      49DC7A99 
 629      DAFD164F 
 629      E2E31646 
 629      6728DE
 630 031f BAA8FEE7 		.ascii	"\272\250\376\347\212D\367u\032\335\373i\234\275I\343"
 630      8A44F775 
 630      1ADDFB69 
 630      9CBD49E3 
 631 032f 6701EC87 		.ascii	"g\001\354\207\240\374\025\312@\006\013\361\200\342\375"
 631      A0FC15CA 
 631      40060BF1 
 631      80E2FD
 632 033e 3C8DFE91 		.ascii	"<\215\376\221\236\367B9I\373\007d\207\317\240\324\363"
 632      9EF74239 
 632      49FB0764 
 632      87CFA0D4 
 632      F3
 633 034f C436F3A0 		.ascii	"\3046\363\240\222Oi\237q\212'\376\027\325\350\020\351"
 633      924F699F 
 633      718A27FE 
 633      17D5E810 
 633      E9
 634 0360 7C3E1C5F 		.ascii	"|>\034_\340I\337\202x\332\003\277'\240\234\247\361\271"
 634      E049DF82 
ARM GAS  /tmp/ccLzt0L0.s 			page 50


 634      78DA03BF 
 634      27A09CA7 
 634      F1B9
 635 0372 88B62B74 		.ascii	"\210\266+t-\012\277\021(e\014oY\334(Y\256\224g\217\220"
 635      2D0ABF11 
 635      28650C6F 
 635      59DC2859 
 635      AE94678F 
 636 0387 7BED6CFD 		.ascii	"{\355l\375 W%\303\237\257\246u&7\022\235n\372@\356\320"
 636      205725C3 
 636      9FAFA675 
 636      2637129D 
 636      6EFA40EE 
 637 039c 0102152F 		.ascii	"\001\002\025/\361p*\003\357dgbf\236\342\346\303\255"
 637      F1702A03 
 637      EF646762 
 637      669EE2E6 
 637      C3AD
 638 03ae 70BF20F1 		.ascii	"p\277 \361\363\370L\250P\3409\303?r\035\375!r\262\257"
 638      F3F84CA8 
 638      50E039C3 
 638      3F721DFD 
 638      2172B2AF 
 639 03c2 ECB5F02A 		.ascii	"\354\265\360*zG\005\335C\251\346\362\017\342=\314\213"
 639      7A4705DD 
 639      43A9E6F2 
 639      0FE23DCC 
 639      8B
 640 03d3 4C59C477 		.ascii	"LY\304wP\012\237B\341\242\024\0134\365dg&v\334\224\023"
 640      500A9F42 
 640      E1A2140B 
 640      34F56467 
 640      2676DC94 
 641 03e8 33BA397C 		.ascii	"3\2729|V\012}\020n)\375\233\012}6\245_\344\230\323\305"
 641      560A7D10 
 641      6E29FD9B 
 641      0A7D36A5 
 641      5FE498D3 
 642 03fd 269C66A5 		.ascii	"&\234f\245\340t\2415\247\263{0\254\366P\0002(\300G\216"
 642      E074A135 
 642      A7B37B30 
 642      ACF65000 
 642      3228C047 
 643 0412 595D62C2 		.ascii	"Y]b\302\2527\005\253\037:Sj\015\257\000<D\001\2269f"
 643      AA3705AB 
 643      1F3A536A 
 643      0DAF003C 
 643      44019639 
 644 0427 F5EF26AC 		.ascii	"\365\357&\254\266M\301\352Rg\254\366R\3503)\375\012"
 644      B64DC1EA 
 644      5267ACF6 
 644      52E83329 
 644      FD0A
 645 0439 C79CAE34 		.ascii	"\307\234\2564\3414#\005\247\313\235q\272\326\245\000"
 645      E1342305 
 645      A7CB9D71 
 645      BAD6A500 
ARM GAS  /tmp/ccLzt0L0.s 			page 51


 646 0449 BC46013E 		.ascii	"\274F\001>v\314\352*\023V{\246`\265\326\031\253\257"
 646      76CCEA2A 
 646      13567BA6 
 646      60B5D619 
 646      ABAF
 647 045b 2BF4AD28 		.ascii	"+\364\255(\375\032\307\234\2565\34143\005\247\253\235"
 647      FD1AC79C 
 647      AE35E134 
 647      3305A7AB 
 647      9D
 648 046c 71BA48F5 		.ascii	"q\272H\365\324\207)\300:\307\254\2567a\265]\012V\353"
 648      D48729C0 
 648      3AC7ACAE 
 648      3761B55D 
 648      0A56EB
 649 047f 9CB1BA5F 		.ascii	"\234\261\272_P\000\236\241\000\033\035\263\372\211\011"
 649      50009EA1 
 649      001B1DB3 
 649      FA8909
 650 048e ABBF4AC1 		.ascii	"\253\277J\301\352\006g\254\216TY}\222\002\304\035\263"
 650      EA0667AC 
 650      8E54597D 
 650      9202C41D 
 650      B3
 651 049f BAD98455 		.ascii	"\272\331\204U_\012V79lU\252\003<B\001\266:fu\233\011"
 651      5F0A5637 
 651      396C55AA 
 651      033C4201 
 651      B63A6675 
 652 04b5 ABED53B0 		.ascii	"\253\355S\260\272\305a\007\220\004P\357\230\325\035"
 652      BAC56107 
 652      900450EF 
 652      98D51D
 653 04c4 26AC8A29 		.ascii	"&\254\212)X\335\356L\253O\353{k\211\337\345\230\323"
 653      58DDEE4C 
 653      AB4FEB7B 
 653      6B89DFE5 
 653      98D3
 654 04d6 DD269CBA 		.ascii	"\335&\234\272Rp\272\323\204\323\266\3348\\\263ggkcb"
 654      5270BAD3 
 654      84D3B6DC 
 654      385CB367 
 654      676B6362 
 655 04ea 9C045535 		.ascii	"\234\004U5}\365y\007\331%\361{\371\266\220\006\275\310"
 655      7DF57907 
 655      D925F17B 
 655      F9B69006 
 655      BDC8
 656 04fc 43635B4C 		.ascii	"Cc[Lr\243\271\2774\312\211R\302\012\\\177\036\330\332"
 656      72A3B9BF 
 656      34CA8952 
 656      C20A5C7F 
 656      1ED8DA
 657 050f 0F7812BF 		.ascii	"\017x\022\277\217\177\206&[\3615#\332\241z\320y\216"
 657      8F7F8626 
 657      5BF13523 
 657      DAA17AD0 
ARM GAS  /tmp/ccLzt0L0.s 			page 52


 657      798E
 658 0521 5E31F87B 		.ascii	"^1\370{\222\233\015\"\304\353F\314xT\236\215\374%Y\""
 658      929B0D22 
 658      C4EB46CC 
 658      78549E8D 
 658      FC255922 
 659 0535 9FA6E6D9 		.ascii	"\237\246\346\331\2527\267S%\212\237\274\317\373$\376"
 659      AA37B753 
 659      258A9FBC 
 659      CFFB24FE 
 660 0545 301648E2 		.ascii	"0\026H\342uu\245\204\020\270\010\2428\306r\177S\362"
 660      7575A584 
 660      10B808A2 
 660      38C6727F 
 660      53F2
 661 0557 91B3A979 		.ascii	"\221\263\251y\277uy\027/WgK\374!`_\340*x\005\320H[\252"
 661      BF757917 
 661      2F57674B 
 661      FC21605F 
 661      E02A7805 
 662 056f B53526D6 		.ascii	"\2655&\326\303\335\013\356\354\230R\015jW\371J\302\260"
 662      C3DD0BEE 
 662      EC98520D 
 662      6A57F94A 
 662      C2B0
 663 0581 2B476DE3 		.ascii	"+Gm\343e9C\342\317bMl\341S\253B\007#@N\216H\3163\272"
 663      653943E2 
 663      CF624D6C 
 663      E153AB42 
 663      0723404E 
 664 059a 683A39E6 		.ascii	"h:9\346L\005_!\313<\271\226Z#w\2515%\376\014V\311(A"
 664      4C055F21 
 664      CB3CB996 
 664      5A2377A9 
 664      3525FE0C 
 665 05b2 C14D4F25 		.ascii	"\301MO%\337\325gWI\012\3308\307`>\035\330\370\035\323"
 665      DFD56757 
 665      490AD838 
 665      C7603E1D 
 665      D8F81DD3 
 666 05c6 317374D4 		.ascii	"1st\324@tl\331b\25656\034\340\207b\371\277\304\203\207"
 666      40746CD9 
 666      62AE3536 
 666      1CE08762 
 666      F9BFC483 
 667 05db 73825EB5 		.ascii	"s\202^\265\366\241j'o\337\314Wb\250f\0145FL\027\352"
 667      F6A16A27 
 667      6FDFCC57 
 667      62A8660C 
 667      35464C17 
 668 05f0 ECD40D2F 		.ascii	"\354\324\015/`s_\305@{\031 \211\367\252jT\217\225\033"
 668      60735FC5 
 668      407B1920 
 668      89F7AA6A 
 668      548F951B 
 669 0604 109A3733 		.ascii	"\020\23273\261\203&'\333p?\362\355\002wT\264a\272\014"
 669      B1832627 
ARM GAS  /tmp/ccLzt0L0.s 			page 53


 669      DB703FF2 
 669      ED027754 
 669      B461BA0C 
 670 0618 333F909B 		.ascii	"3?\220\233N\214\271\310O\221\343\303D\033A\351\014\256"
 670      4E8CB9C8 
 670      4F91E3C3 
 670      441B41E9 
 670      0CAE
 671 062a EB26EBCB 		.ascii	"\353&\353\3133f5WR_\276i\313\227\327\354\231l/2\251"
 671      33663557 
 671      525FBE69 
 671      CB97D7EC 
 671      996C2F32 
 672 063f 29C1CF71 		.ascii	")\301\317q\375\263]\250\376;l\375u\237}\361b\215,\347"
 672      FDB35DA8 
 672      FE3B6CFD 
 672      759F7DF1 
 672      628D2CE7 
 673 0653 904BA9AB 		.ascii	"\220K\251\253_\3218!\271z\211\177\361a+\327\2301k\307"
 673      5FD13821 
 673      B97A897F 
 673      F1612BD7 
 673      98316BC7 
 674 0667 752AE477 		.ascii	"u*\344w\270\315|\351b\235\243{\226\2662|\254\271A\340"
 674      B8CD7CE9 
 674      629DA37B 
 674      96B6327C 
 674      ACB941E0 
 675 067b 6EA8ECA7 		.ascii	"n\250\354\247\325dA\316\235\275\027\257\224\345w=\012"
 675      D56441CE 
 675      9DBD17AF 
 675      94E5773D 
 675      0A
 676 068c 0FDF3846 		.ascii	"\017\3378F\364\3514\361q#\016\002\004\354\266\0350S"
 676      F4E934F1 
 676      71230E02 
 676      04ECB61D 
 676      3053
 677 069e 4FAA8CAF 		.ascii	"O\252\214\257\326\202\335s\014\246\347l\255\026\254"
 677      D682DD73 
 677      0CA6E76C 
 677      AD16AC
 678 06ad C50E588E 		.ascii	"\305\016X\2169g\353\264`\225n\247`z\3166h\301\206\333"
 678      3967EBB4 
 678      60956EA7 
 678      607ACE36 
 678      68C186DB 
 679 06c1 01EB60CE 		.ascii	"\001\353`\316\331'Z\260w\035\203\3519\333\257\005{\337"
 679      D9275AB0 
 679      771D83E9 
 679      39DBAF05 
 679      7BDF
 680 06d3 0E98CF80 		.ascii	"\016\230\317\2003\365\317,Y\272\235H\226\004\256\312"
 680      33F5CF2C 
 680      59BA9D48 
 680      9604AECA 
 681 06e3 AD840487 		.ascii	"\255\204\004\207>\315%0&\270\235\2060\235\334\320\227"
ARM GAS  /tmp/ccLzt0L0.s 			page 54


 681      3ECD2530 
 681      26B89D86 
 681      309DDCD0 
 681      97
 682 06f4 5E9AC38F 		.ascii	"^\232\303\217\037*\357\354\250\364gS\355 Z8\314\324"
 682      1F2AEFEC 
 682      A8F46753 
 682      ED205A38 
 682      CCD4
 683 0706 1D9ACE71 		.ascii	"\035\232\316q\256c0\306\225\021\230.\326\250\223k\361"
 683      AE6330C6 
 683      9511982E 
 683      D6A8936B 
 683      F1
 684 0717 0E358968 		.ascii	"\0165\211h\247\233]\223\370\371\374Svg\316\222L4E\320"
 684      A79B5D93 
 684      F8F9FC53 
 684      7667CE92 
 684      4C3445D0 
 685 072b 98E8433B 		.ascii	"\230\350C;\374[\370\350\331\035\323\037\221\233\342"
 685      FC5BF8E8 
 685      D91DD31F 
 685      919BE2
 686 073a BC664AD0 		.ascii	"\274fJ\320\214k\245s\257\376T\351\334g\010\250#]\341"
 686      8C6BA573 
 686      AFFE54E9 
 686      DC6708A8 
 686      235DE1
 687 074d 36EC916D 		.ascii	"6\354\221m@\325N^\372\257\270G\236\215\201\326\245\015"
 687      40D54E5E 
 687      FAAFB847 
 687      9E8D81D6 
 687      A50D
 688 075f 7476EACC 		.ascii	"tv\352\314n\030h\036\006\332\342f\2437\317t\355\274"
 688      6E18681E 
 688      06DAE266 
 688      A337CF74 
 688      EDBC
 689 0771 BEF35575 		.ascii	"\276\363UuOU\377c\335\013Y\007k/\2358)\303@\323\311"
 689      4F55FF63 
 689      DD0B5907 
 689      6B2F9D38 
 689      29C340D3 
 690 0786 86FBE3F8 		.ascii	"\206\373\343\370\033\225rMG\007\026k\334\253Xl\021\326"
 690      1B95724D 
 690      4707166B 
 690      DCAB586C 
 690      11D6
 691 0798 CFA124FD 		.ascii	"\317\241$\375 \0038\023\344\224cA\236\326\0132f[\265"
 691      20033813 
 691      E4946341 
 691      9ED60B32 
 691      665BB5
 692 07ab 734154D7 		.ascii	"sAT\327[\212\005\271\360\003\010\362O\307\202t\324\010"
 692      5B8A05B9 
 692      F00308F2 
 692      4FC78274 
ARM GAS  /tmp/ccLzt0L0.s 			page 55


 692      D408
 693 07bd 8292FD9B 		.ascii	"\202\222\375\233\325$@=\304U['YxnPxH?"
 693      D524403D 
 693      C4555B27 
 693      59786E50 
 693      78483F
 694 07d0 703ABE1B 		.ascii	"p:\276\033\015\306\320\351T\311\215\034\277\265[\223"
 694      0DC6D0E9 
 694      54C98D1C 
 694      BFB55B93 
 695 07e0 8ACBB652 		.ascii	"\212\313\266R\361\352}\212\312Va\225\3350jd\266\240"
 695      F1EA7D8A 
 695      CA566195 
 695      DD306A64 
 695      B6A0
 696 07f2 6A8F6E5B 		.ascii	"j\217n[AS\361\265\030\352v\332PgO\254!\355u=\006\252"
 696      4153F1B5 
 696      18EA76DA 
 696      50674FAC 
 696      21ED753D 
 697 0808 F0B066F4 		.ascii	"\360\260f\3640V\364\350\255\010\207\250\246oQ\242\314"
 697      3056F4E8 
 697      AD0887A8 
 697      A66F51A2 
 697      CC
 698 0819 BF4DCFA0 		.ascii	"\277M\317\240\003/\367\377N'p\2431\373\310\202\351\244"
 698      032FF7FF 
 698      4E2770A3 
 698      31FBC882 
 698      E9A4
 699 082b 7EC8832E 		.ascii	"~\310\203.V+]\0341R\365\367B\254\214\327\216V\306\223"
 699      562B5D1C 
 699      3152F5F7 
 699      42AC8CD7 
 699      8E56C693 
 700 083f DD512737 		.ascii	"\335Q'7\355{\302\035\330\343x\004X}Hq\273mX\242\271"
 700      ED7BC21D 
 700      D8E37804 
 700      587D4871 
 700      BB6D58A2 
 701 0854 49266E66 		.ascii	"I&nfc\262\235\001\321\262t%Q\377\004n\225\307F\227\351"
 701      63B29D01 
 701      D1B27425 
 701      51FF046E 
 701      95C74697 
 702 0869 B33057C3 		.ascii	"\2630W\303-j.\2733H\265\273\353+\370aX\033\273\0054"
 702      2D6A2EBB 
 702      3348B5BB 
 702      EB2BF861 
 702      581BBB05 
 703 087e D550C768 		.ascii	"\325P\307h\303\306\360l'&\371TH\232j\370T\231j@\327"
 703      C3C6F06C 
 703      2726F954 
 703      489A6AF8 
 703      54996A40 
 704 0893 6C0CCF74 		.ascii	"l\014\317tS\015\022\177\211\027(n\272\032\325\0311\301"
 704      530D127F 
ARM GAS  /tmp/ccLzt0L0.s 			page 56


 704      8917286E 
 704      BA1AD519 
 704      31C1
 705 08a5 206C0594 		.ascii	" l\005\224\344\354\027\236\324j\377\230c\355\373\264"
 705      E4EC179E 
 705      D46AFF98 
 705      63EDFBB4 
 706 08b5 DA8FDFDD 		.ascii	"\332\217\337\3353\235G\374\033\214({h\323IE\365\243"
 706      339D47FC 
 706      1B8C287B 
 706      68D34945 
 706      F5A3
 707 08c7 1AC651D5 		.ascii	"\032\306Q\325\037\304\252?o\242\372\036f@\002w\035\223"
 707      1FC4AA3F 
 707      6FA2FA1E 
 707      66400277 
 707      1D93
 708 08d9 1C49527D 		.ascii	"\034IR}\303!E\365Gl\251\376\260\241\352\2178W=\305;"
 708      C32145F5 
 708      476CA9FE 
 708      B0A1EA8F 
 708      38573DC5 
 709 08ee 9298E591 		.ascii	"\222\230\345\221\370/\034\203\371\254\354xDc\307c\330"
 709      F82F1C83 
 709      F9ACEC78 
 709      4463C763 
 709      D8
 710 08ff 8EC7C18E 		.ascii	"\216\307\301\216\022\177Bo\315\241^\306\232:\325\321"
 710      127F426F 
 710      CDA15EC6 
 710      9A3AD5D1 
 711 090f DDA7CD44 		.ascii	"\335\247\315D\220\343\343\033\246S\225\220\3007\206"
 711      90E3E31B 
 711      A6539590 
 711      C03786
 712 091e C53392A2 		.ascii	"\3053\222\242\243\271Jf6`\225\220\2303\3011\230O\007"
 712      A3B94A66 
 712      36609590 
 712      9833C131 
 712      984F07
 713 0931 B6718CBD 		.ascii	"\266q\214\2759VY\235 \315\301J\231E\352e\375e\332\335"
 713      3956599D 
 713      20CDC14A 
 713      9945EA65 
 713      FD65DADD 
 714 0945 FDEF28B3 		.ascii	"\375\357(\263\2026\374\005z\373\213\231x\232\2248\356"
 714      8236FC05 
 714      7AFB8B99 
 714      789A9438 
 714      EE
 715 0956 7115D542 		.ascii	"q\025\325B\325\026\336rW\231u%\003\237s,\234\303\011"
 715      D516DE72 
 715      57997525 
 715      039F732C 
 715      9CC309
 716 0969 81EF6CCC 		.ascii	"\201\357l\314\272\352\025\243L>\327\241|\347\037X\246"
 716      BAEA15A3 
ARM GAS  /tmp/ccLzt0L0.s 			page 57


 716      4C3ED7A1 
 716      7CE71F58 
 716      A6
 717 097a CB5EB657 		.ascii	"\313^\266W \232\3218\342y\215#^\300\216x\021;\342\347"
 717      209AD138 
 717      E2798D23 
 717      5EC08E78 
 717      113BE2E7 
 718 098e 787B59EB 		.ascii	"x{Y\353\216f)\327\227\332\001\3235\307r\373\030\353"
 718      8E6629D7 
 718      97DA01D3 
 718      35C772FB 
 718      18EB
 719 09a0 9855734E 		.ascii	"\230UsN[\315\267v|\257\233\251z!\256\037\036\257\344"
 719      5BCDB776 
 719      7CAF9BA9 
 719      7A21AE1F 
 719      1EAFE4
 720 09b3 04640EB5 		.ascii	"\004d\016\2652\303)\242\336\233\257\215\321\345\004"
 720      32C329A2 
 720      DE9BAF8D 
 720      D1E504
 721 09c2 EFDB81EB 		.ascii	"\357\333\201\353a\300\240\321\237v\016\034\314\204\007"
 721      61C0A0D1 
 721      9F760E1C 
 721      CC8407
 722 09d1 B717796C 		.ascii	"\267\027yl&\274\275\214\267_\343\355\004l\270Ix[\203"
 722      26BCBD8C 
 722      B75FE3ED 
 722      046CB849 
 722      785B83
 723 09e4 B7D3F176 		.ascii	"\267\323\361v!\336.\301\333\025x\273\013o\033\361\366"
 723      21DE2EC1 
 723      DB1578BB 
 723      0B6F1BF1 
 723      F6
 724 09f5 14DE9EC1 		.ascii	"\024\336\236\301\333&\274\275\212\267\327\3558\000\211"
 724      DB26BCBD 
 724      8AB7D7ED 
 724      380089
 725 0a04 909AC9BA 		.ascii	"\220\232\311\272\211\031N\0379\350t\3314\366\374N\021"
 725      89194E1F 
 725      39E874D9 
 725      34F6FC4E 
 725      11
 726 0a15 CFAB2AA1 		.ascii	"\317\253*\241f\216\035@\213\3264\001\205r'\023\354j"
 726      668E1D40 
 726      8BD63401 
 726      85722713 
 726      EC6A
 727 0a27 7AF52DAE 		.ascii	"z\365-\256\377\243\214\037$\275Z\353X\014F/\237\251"
 727      FFA38C1F 
 727      24BD5AEB 
 727      580C462F 
 727      9FA9
 728 0a39 7A217C6D 		.ascii	"z!|m\266\003h4Wc\354e\3074^v\002{\331I\354S\247\361"
 728      B6036834 
ARM GAS  /tmp/ccLzt0L0.s 			page 58


 728      5763EC65 
 728      C7345E76 
 728      027BD949 
 729 0a51 F626F688 		.ascii	"\366&\366\210[x{\317\216_\034\322Nv\355\311P\236\312"
 729      5B787BCF 
 729      8E5F1CD2 
 729      4E76EDC9 
 729      509ECA
 730 0a64 FD2089D0 		.ascii	"\375 \211\320~\015\253\215\230\325\203\274\015\226\366"
 730      7E0DAB8D 
 730      98D583BC 
 730      0D96F6
 731 0a73 583FACF4 		.ascii	"X?\254\364\215\374,13$\2533\350\276\204k\034]py\007"
 731      8DFC2C31 
 731      3324AB33 
 731      E8BE846B 
 731      1C5D7079 
 732 0a88 750D5944 		.ascii	"u\015YD1vd\246\361c-s$\201\233\204i\206\212\3143\276"
 732      317664A6 
 732      F1632D73 
 732      24819B84 
 732      69868ACC 
 733 0a9e 0323B2D1 		.ascii	"\003#\262\321\023Jt>u\266s\260~zr\357\331\236\233H\207"
 733      134A743E 
 733      75B673B0 
 733      7E7A72EF 
 733      D99E9B48 
 734 0ab3 88321FC3 		.ascii	"\2102\037\303\221\310L\021#E\362\260\\\304\213\335\034"
 734      91C84C11 
 734      2345F2B0 
 734      5CC48BDD 
 734      1C
 735 0ac4 3CE699F8 		.ascii	"<\346\231\370\321\271\337\376\035?0\030%\"\027<\234"
 735      D1B9DFFE 
 735      1D3F3018 
 735      2522173C 
 735      9C
 736 0ad5 C9360D37 		.ascii	"\3116\0157\3232\334\372\226\341\316L\354\320\226!\361"
 736      D332DCFA 
 736      96E1CE4C 
 736      ECD09621 
 736      F1
 737 0ae6 7F165502 		.ascii	"\177\026U\002\213\272o/\273=\211\016\221\337\021Q\224"
 737      8BBA6F2F 
 737      BB3D890E 
 737      91DF1151 
 737      94
 738 0af7 9DD04A5F 		.ascii	"\235\320J_9\363T\002\011i\246\200\261b\226\211\216\223"
 738      39F35402 
 738      0969A680 
 738      B1629689 
 738      8E93
 739 0b09 AE41FC69 		.ascii	"\256A\374i\245\030,\235TR\006\2579\376\223\272\217e"
 739      A5182C9D 
 739      545206AF 
 739      39FE93BA 
 739      8F65
ARM GAS  /tmp/ccLzt0L0.s 			page 59


 740 0b1b 79C59B74 		.ascii	"y\305\233t\022#\356\321\372\007\223\020/\301\265U\213"
 740      1223EED1 
 740      FA079310 
 740      2FC1B555 
 740      8B
 741 0b2c CC4CC6C4 		.ascii	"\314L\306\304z\321GN\247\366\216\311#\306\376D\236\375"
 741      7AD1474E 
 741      A7F68EC9 
 741      23C6FE44 
 741      9EFD
 742 0b3e 5E076AD7 		.ascii	"^\007j\327\370\010y$_\261\3421\313\\~\306\254}s\251"
 742      F8087924 
 742      5FB1E231 
 742      CB5C7EC6 
 742      AC7D73A9 
 743 0b52 762761D3 		.ascii	"v'a\323\256e\264\353\004\254v\362>\345\301\342\024\014"
 743      AE65B4EB 
 743      04AC76F2 
 743      3EE5C1E2 
 743      140C
 744 0b64 B6357DB0 		.ascii	"\2665}\260\331gO<\206\032\306t\014\264\267\025\353p"
 744      D9674F3C 
 744      861AC674 
 744      0CB4B715 
 744      EB70
 745 0b76 998CC365 		.ascii	"\231\214\303e\352\035.33\261\323\242\374\2613\213?\""
 745      EA1D2E33 
 745      33B1D3A2 
 745      FCB1338B 
 745      3F22
 746 0b88 8DC01D55 		.ascii	"\215\300\035U\015\232Nn\211\334\347\300\243\320\260"
 746      0D9A4E6E 
 746      89DCE7C0 
 746      A3D0B0
 747 0b97 132362D3 		.ascii	"\023#b\323\321\024^\220\311\306\225)\365(%\234c#\254"
 747      D1145E90 
 747      C9C69529 
 747      F528259C 
 747      6323AC
 748 0baa C8F115F5 		.ascii	"\310\361\025\365{P\032kk\256m>\353\241\323\352\005\037"
 748      7B501A6B 
 748      6BAE6D3E 
 748      EBA1D3EA 
 748      051F
 749 0bbc 399DDA43 		.ascii	"9\235\332Cg\030\255\260\320))\251\276\205\242\246?9"
 749      6718ADB0 
 749      D02929A9 
 749      BE85A2A6 
 749      3F39
 750 0bce 8D753ADF 		.ascii	"\215u:\337\344\366\324\371\372L2\272k\021P\0349\237"
 750      E4F6D4F9 
 750      FA4C32BA 
 750      6B11501C 
 750      399F
 751 0be0 2E98FA27 		.ascii	".\230\372'p\237c\2149i\306\210\312xm\2752V#\201\365"
 751      709F638C 
 751      3969C688 
ARM GAS  /tmp/ccLzt0L0.s 			page 60


 751      CA786DBD 
 751      32562381 
 752 0bf5 B2633C5F 		.ascii	"\262c<_\022OW\322u<\015\306U6\366\031a\230?$\217\237"
 752      124F57D2 
 752      753C0DC6 
 752      5536F619 
 752      61983F24 
 753 0c0b E889F44C 		.ascii	"\350\211\364L\006$\267X,\375\020\306q\302\222\350B%"
 753      0624B758 
 753      2CFD10C6 
 753      71C292E8 
 753      4225
 754 0c1d 7EB888B2 		.ascii	"~\270\210\262\200\021\"JO\306\341\355r\321FF\320\"\030"
 754      8011224A 
 754      4FC6E1ED 
 754      72D14646 
 754      D02218
 755 0c30 67044C57 		.ascii	"g\004LW\212\306\317f\020\265\372\276\224>\274N\321\245"
 755      8AC6CF66 
 755      10B5FABE 
 755      943EBC4E 
 755      D1A5
 756 0c42 E1C96A7D 		.ascii	"\341\311j}?cg\241W\007\005C\244\030\253E\247\013\275"
 756      3F6367A1 
 756      57070543 
 756      A418AB45 
 756      A70BBD
 757 0c55 D688C60B 		.ascii	"\326\210\306\013\275\204\024\334\256\022\255\227\244"
 757      BD8414DC 
 757      AE12AD97 
 757      A4
 758 0c62 25967C99 		.ascii	"%\226|\231\206'\3329\334]s\3719<?\275\016\247P\313\262"
 758      8627DA39 
 758      DC5D73F9 
 758      393C3FBD 
 758      0EA750CB 
 759 0c77 1CCE19E1 		.ascii	"\034\316\031\341\265\230l\224;\034\364\221\263\251c"
 759      B5986C94 
 759      3B1CF491 
 759      B3A963
 760 0c86 CF5165AC 		.ascii	"\317Qe\254>\005\267\376\365\270\376\215i\267\334\343"
 760      3E05B7FE 
 760      F5B8FE8D 
 760      69B7DCE3 
 761 0c96 17319C95 		.ascii	"\0271\234\225\373\230\254\217\300\313\037\365\336\223"
 761      FB98AC8F 
 761      C0CB1FF5 
 761      DE93
 762 0ca4 D61ABAC9 		.ascii	"\326\032\272\311\237\\{\224$\245\365X\243wM4j\031\316"
 762      9F5C7B94 
 762      24A5F558 
 762      A3774D34 
 762      6A19CE
 763 0cb7 77B11A5D 		.ascii	"w\261\032]U\217\363\321]\266tZW\277\304t6\007n\340-"
 763      558FF3D1 
 763      5DB6745A 
 763      57BFC474 
ARM GAS  /tmp/ccLzt0L0.s 			page 61


 763      36076EE0 
 764 0ccc 2674AAB2 		.ascii	"&t\252\262y\243\325`\372\333$\276ADSp\373X.\307\223"
 764      79A3D560 
 764      FADB24BE 
 764      41445370 
 764      FB582EC7 
 765 0ce1 AC799F2D 		.ascii	"\254y\237-.'\326\2474\025\212\276f*:h\320\322\215\354"
 765      2E27D6A7 
 765      34158ABE 
 765      662A3A68 
 765      D0D28DEC 
 766 0cf5 66EB21F5 		.ascii	"f\353!\365\034<\335\222\342\001\232\031'GD\355\202\031"
 766      1C3CDD92 
 766      E2019A19 
 766      274744ED 
 766      8219
 767 0d07 959F51A4 		.ascii	"\225\237Q\244m\333\212>\215\332\356tQ6O\225\233V\033"
 767      6DDB8A3E 
 767      8DDAEE74 
 767      51364F95 
 767      9B561B
 768 0d1a 9057CA72 		.ascii	"\220W\312r\246']\265\236\262\251V\362\374\321\014\345"
 768      A6275DB5 
 768      9EB2A956 
 768      F2FCD10C 
 768      E5
 769 0d2b ECF757C9 		.ascii	"\354\367W\311I\255J\2269V\211\317\231J\254\372\224\013"
 769      49AD4A96 
 769      395689CF 
 769      994AACFA 
 769      940B
 770 0d3d E62A519F 		.ascii	"\346*Q\237\302\332\022\3513\255H\265vD2\237G!\"\221"
 770      C2DA12E9 
 770      33AD48B5 
 770      7644329F 
 770      47212291 
 771 0d51 7E4BE0D6 		.ascii	"~K\340\3268\006\363q\372?\305\361%\376\000\356\260O"
 771      3806F371 
 771      FA3FC5F1 
 771      25FE00EE 
 771      B04F
 772 0d63 E0ED79BC 		.ascii	"\340\355y\274\375\302N\347\275W+\334z\314\317.\347."
 772      FDC24EE7 
 772      BD572BDC 
 772      7ACCCF2E 
 772      E72E
 773 0d75 6CF4A70D 		.ascii	"l\364\247\015\207\022\277\033\347\026{\354\260\264="
 773      8712BF1B 
 773      E7167BEC 
 773      B0B43D
 774 0d84 C1926A2F 		.ascii	"\301\222j/W\246\346P\347\021\214{[\255=\277\222\000"
 774      57A6E650 
 774      E7118C7B 
 774      5BAD3DBF 
 774      9200
 775 0d96 36BBA559 		.ascii	"6\273\245Y\327\002\354\216\252\2417\036N\207j[\260a"
 775      D702EC8E 
ARM GAS  /tmp/ccLzt0L0.s 			page 62


 775      AAA1371E 
 775      4E876A5B 
 775      B061
 776 0da8 37655B8E 		.ascii	"7e[\216\252\267Z\214\252\257Y\214\252\257\261\243\352"
 776      AAB75A8C 
 776      AAAF598C 
 776      AAAFB1A3 
 776      EA
 777 0db9 DDD94EFB 		.ascii	"\335\331N\373]\237\225\3016j\014\366\0116\330&\354I"
 777      5D9F95C1 
 777      366A0CF6 
 777      0936D826 
 777      EC49
 778 0dcb 9B0DCC16 		.ascii	"\233\015\314\026W\373\226\016\224\272\216\346Q\211\374"
 778      57FB960E 
 778      94BA8EE6 
 778      5189FC
 779 0dda C854C8B5 		.ascii	"\310T\310\265&\211\220\322\333\305u\275\235.s\221\370"
 779      268990D2 
 779      DBC575BD 
 779      9D2E7391 
 779      F8
 780 0deb F598B304 		.ascii	"\365\230\263\004\257\234%\237Iu\337H\324\375\0047S\216"
 780      AF9C259F 
 780      4975DF48 
 780      D4FD0437 
 780      538E
 781 0dfd 5F6D3A7D 		.ascii	"_m:}\351\370\257f\242\225\215\362w-o\363$\033\025\270"
 781      E9F8AF66 
 781      A2958DF2 
 781      772D6FF3 
 781      241B15B8 
 782 0e11 771ED0DB 		.ascii	"w\036\320\333\360\347\334<Y\256\226\307\007{\321\011"
 782      F0E7DC3C 
 782      59AE96C7 
 782      077BD109 
 783 0e21 EA09F886 		.ascii	"\352\011\370\206\233\342\023\206U)\0132\177\301}\200"
 783      9BE21386 
 783      55290B32 
 783      7FC17D80 
 784 0e31 44DA78E1 		.ascii	"D\332x\341\365^$^q\026D\224\305oD\335k\222\204\315\370"
 784      F55E245E 
 784      71164494 
 784      C56F44DD 
 784      6B9284CD 
 785 0e46 E91D6320 		.ascii	"\351\035c ?\250\214\267\264t\347tq0\203{\007\367\225"
 785      3FA88CB7 
 785      B474E774 
 785      7130837B 
 785      07F795
 786 0e59 C3E50AFE 		.ascii	"\303\345\012\376o\306}\245\366u\311{b\006\232A{@?\030"
 786      6FC67DA5 
 786      F675C97B 
 786      62069A41 
 786      7B403F18 
 787 0e6d D7B801BA 		.ascii	"\327\270\001\272A\321 \331W\366,\272\323\273l\270Ez"
 787      41D120D9 
ARM GAS  /tmp/ccLzt0L0.s 			page 63


 787      57F62CBA 
 787      D3BB6CB8 
 787      457A
 788 0e7f 560F689B 		.ascii	"V\017h\233V\217\2570\307\272\366\2556C]\373\023\270"
 788      568FAF30 
 788      C7BAF6AD 
 788      36435DFB 
 788      13B8
 789 0e91 E9C616A9 		.ascii	"\351\306\026\251E\026\271\201\333\335||\307\035S\223"
 789      4516B981 
 789      DBDD7C7C 
 789      C71D5393 
 790 0ea1 60DB53B2 		.ascii	"`\333S\262)0|\345\011g\320y\247 \334\236 \214\237\335"
 790      29307CE5 
 790      0967D079 
 790      A720DC9E 
 790      208C9FDD 
 791 0eb5 3113EC20 		.ascii	"1\023\354 \020!\004nI\012\322+*i\225<\013\261\352\302"
 791      1021046E 
 791      490AD22B 
 791      2A69953C 
 791      0BB1EAC2 
 792 0ec9 6BD25250 		.ascii	"k\322RP!\205PF\217\"\242f\\\327\352\024TTo\330\347*"
 792      21855046 
 792      8F22A266 
 792      5CD7EA14 
 792      54546FD8 
 793 0edf 91C33C32 		.ascii	"\221\303<2\352M\305\206::\235sP\013\016s\031y\335\264"
 793      EA4DC586 
 793      3A3A9D73 
 793      500B0E73 
 793      1979DDB4 
 794 0ef3 DB3B21DF 		.ascii	"\333;!\337\223\357\265\264\210\034\323\373\"\311\314"
 794      93EFB5B4 
 794      881CD3FB 
 794      22C9CC
 795 0f02 DC619C8B 		.ascii	"\334a\234\213q\207+Zw\240+\004S\330{\275\261\275o\347"
 795      71872B5A 
 795      77A02B04 
 795      53D87BBD 
 795      B1BD6FE7 
 796 0f16 F75274BF 		.ascii	"\367Rt\277\025\337Q\345J\255\373jy=R#\031\256\354HA"
 796      15DF51E5 
 796      4AADFB6A 
 796      793D5223 
 796      19AEEC48 
 797 0f2b 86D9A364 		.ascii	"\206\331\243d\267\022\332\3774\005\231N\373\264\305"
 797      B712DAFF 
 797      3405994E 
 797      FBB4C5
 798 0f3a 134737A7 		.ascii	"\023G7\247\242\352\232h\244\373\246\223W.w\370H\011"
 798      A2EA9A68 
 798      A4FBA693 
 798      572E77F8 
 798      4809
 799 0f4c 4C15953C 		.ascii	"L\025\225<\243\177\227yW7\223U\377v\003\365'4\375nk"
 799      A37F9779 
ARM GAS  /tmp/ccLzt0L0.s 			page 64


 799      57379355 
 799      FF7603F5 
 799      2734FD6E 
 800 0f61 434D1F46 		.ascii	"CM\037F\262o\307\235\316H\027\032:\3140\225]\323@\344"
 800      B26FC79D 
 800      CE48171A 
 800      3ACC3095 
 800      5DD340E4 
 801 0f75 C9A46511 		.ascii	"\311\244e\021]WchsB\312\013\015\223G\261\322\\$J\232"
 801      5D576368 
 801      7342CA0B 
 801      0D9347B1 
 801      D25C244A 
 802 0f8a 115119E7 		.ascii	"\021Q\031\347\030\352\014\202\371c3V\316\246\301\334"
 802      18EA0C82 
 802      F9633356 
 802      CEA6C1DC 
 803 0f9a FE2072A1 		.ascii	"\376 r\241\221\306"
 803      91C6
 804 0fa0 18879C64 		.ascii	"\030\207\234d\254\246M\254\232\026X\253\211J[%\257\227"
 804      ACA64DAC 
 804      9A1658AB 
 804      894A5B25 
 804      AF97
 805 0fb2 5FEF8099 		.ascii	"_\357\200\231\342(\221\346O\342\027\033\311\207\023"
 805      E22891E6 
 805      4FE2171B 
 805      C98713
 806 0fc1 48B9A5A5 		.ascii	"H\271\245\245\005E\362\255\270\243Zl\223\253%6\214W"
 806      0545F2AD 
 806      B8A35A6C 
 806      93AB2536 
 806      8C57
 807 0fd3 255FA321 		.ascii	"%_\243!J\342\337KA\245\011Q4\2266\343\332\306\244\240"
 807      4AE2DF4B 
 807      41A50951 
 807      349636E3 
 807      DAC6A4A0 
 808 0fe7 D3361359 		.ascii	"\3236\023Y\257\203%\254\016\226\032\306\244I\365\357"
 808      AF8325AC 
 808      0E961AC6 
 808      A449F5EF 
 809 0ff7 65545534 		.ascii	"eTU4\265\264<a\337"
 809      B5B43C61 
 809      DF
 810 1000 BEB536EC 		.ascii	"\276\2656\354\273\312X\223u\254&W\246c\337\225\254l"
 810      BBCA5893 
 810      75AC2657 
 810      A663DF95 
 810      AC6C
 811 1012 AB6CDA77 		.ascii	"\253l\332w\273M\256\326\332\262\357I\306\276\346T\032"
 811      BB4DAED6 
 811      DAB2EF49 
 811      C6BEE654 
 811      1A
 812 1023 FB8E4FB6 		.ascii	"\373\216O\266\2579\235\205}\327\262:\250K\326\301\354"
 812      AF399D85 
ARM GAS  /tmp/ccLzt0L0.s 			page 65


 812      7DD7B23A 
 812      A84BD6C1 
 812      EC
 813 1034 A6F8AA31 		.ascii	"\246\370\2521{\314\372\034\013\013o\242\026N\030U\340"
 813      7BCCFA1C 
 813      0B0B6FA2 
 813      164E1855 
 813      E0
 814 1045 1A18DDA9 		.ascii	"\032\030\335\251l\311\213dQe\353\023\226\255x2[MW\343"
 814      6CC98B64 
 814      5165EB13 
 814      96AD7832 
 814      5B4D57E3 
 815 1059 571BB29D 		.ascii	"W\033\262\235z\335V\326\353P\006\310x\3351#\373V\311"
 815      7ADD56D6 
 815      EB5006C8 
 815      78DD3123 
 815      FB56C9
 816 106c A7F37B29 		.ascii	"\247\363{)\213\216\316\343;\266\230j\234\244\225\212"
 816      8B8ECEE3 
 816      3BB6986A 
 816      9CA4958A 
 817 107c 68EFCBC3 		.ascii	"h\357\313\303sxU\266-\254l\333\015U\276q\337\373\306"
 817      737855B6 
 817      2DAC6CDB 
 817      0D55BE71 
 817      DFFBC6
 818 108f C925599C 		.ascii	"\311%Y\234`&\337nW\352\2517\213d^\035?\335~^\2263R\316"
 818      6026DF6E 
 818      57EAA937 
 818      8B645E1D 
 818      3FDD7E5E 
 819 10a7 5A4A7C83 		.ascii	"ZJ|\203\353){\223\233\373]\354\353\237hr\023\235M=\305"
 819      EB297B93 
 819      9BFB5DEC 
 819      EB9F6872 
 819      139D4D3D 
 820 10bc A5BEFE49 		.ascii	"\245\276\376Ir\303KX\373\2104\255\211\235\370\235 Z"
 820      72C34B58 
 820      FB8834AD 
 820      899DF89D 
 820      205A
 821 10ce 234312D4 		.ascii	"#C\022\324k\216\261|\014\217\312\370\354\200\013\215"
 821      6B8EB17C 
 821      0C8FCAF8 
 821      EC800B8D 
 822 10de 821A5D68 		.ascii	"\202\032]h\334s\310\245[\363v\237q(En\015FB=\2341\212"
 822      DC73C8A5 
 822      5BF3769F 
 822      7128456E 
 822      0D46423D 
 823 10f5 E97C812B 		.ascii	"\351|\201+ypN\347\207\324\343/\371\344\311\025\3101"
 823      79704EE7 
 823      87D4E32F 
 823      F9E4C915 
 823      C831
 824 1107 DA188531 		.ascii	"\332\030\2051\350\257\257\375\376\004\012z\004[\342"
ARM GAS  /tmp/ccLzt0L0.s 			page 66


 824      E8AFAFFD 
 824      FE040A7A 
 824      045BE2
 825 1116 47E0F0B2 		.ascii	"G\340\360\262\313\324\3311\0074.\235F\301\014U\017="
 825      CBD4D931 
 825      07342E9D 
 825      46C10C55 
 825      0F3D
 826 1128 85684D86 		.ascii	"\205hM\206\231\324wWd\331\322D\314\2279!\225\206fuk"
 826      99D47757 
 826      64D9D244 
 826      CC973921 
 826      95866675 
 827 113d 70827286 		.ascii	"p\202r\206'Y\235\031\025U\326q\303\246\366\335>\343"
 827      27599D19 
 827      1555D671 
 827      C3A6F6DD 
 827      3EE3
 828 114f 3062D5CE 		.ascii	"0b\325\316\232\3308\202\264\240\235\331rn\217\251\206"
 828      9AD83882 
 828      B4A09DD9 
 828      726E8FA9 
 828      86
 829 1160 F6900F20 		.ascii	"\366\220\017 \225j-q\326\226%n\251\303\342%\030\327"
 829      956A2D71 
 829      D696256E 
 829      A9C3E225 
 829      18D7
 830 1172 9CAA7B62 		.ascii	"\234\252{b$5\256z\001\031IiMhN\2515!NM\277\304S\277"
 830      2435AE7A 
 830      01194969 
 830      4D684EA9 
 830      35214E4D 
 831 118a A753B0A9 		.ascii	"\247S\260\2513`\274\005\002\335(T\247bC3B\252\371\213"
 831      3360BC05 
 831      02DD2854 
 831      A7624333 
 831      42AAF98B 
 832 119e 865DC1C1 		.ascii	"\206]\301\301j\323\036\012\215\266L\247\227,\323rvP"
 832      6AD31E0A 
 832      8DB64CA7 
 832      972CD372 
 832      7650
 833 11b0 EC3632DB 		.ascii	"\35462\333rc\263\325\262\331\300?m\245\352\307\203\352"
 833      7263B3D5 
 833      B2D9C03F 
 833      6DA5EAC7 
 833      83EA
 834 11c2 586A2306 		.ascii	"Xj#\0066'\273\222\234\341\273\023V3\247sk\233O\363p"
 834      3627BB92 
 834      9CE1BB13 
 834      5633A773 
 834      6B9B4FF3 
 835 11d7 DC372923 		.ascii	"\3347)#R\015\225\321\210\364\232\201\356\2277M\370n"
 835      520D95D1 
 835      88F49A81 
 835      EE97374D 
ARM GAS  /tmp/ccLzt0L0.s 			page 67


 835      F86E
 836 11e9 738729F2 		.ascii	"s\207)\362\226a(K\352 \357_nkX\204\225*p\237\267\321"
 836      9661284B 
 836      EA20EF5F 
 836      6E6B5884 
 836      952A709F 
 837 11ff C07FCB5A 		.ascii	"\300\177\313Z\003\215E\330A\022\243\376\257t\352\247"
 837      038D45D8 
 837      4112A3FE 
 837      AF74EAA7 
 838 120f A877302A 		.ascii	"\250w0*=\250\314\241U\320\343wr\324*\215\376\210P\361"
 838      3DA8CCA1 
 838      55D0E377 
 838      72D42A8D 
 838      FE8850F1 
 839 1223 69E776F2 		.ascii	"i\347v\362#\261C}\006R\234r\333\032j\343\032`\\\237"
 839      23B1437D 
 839      06529C72 
 839      DB1A6AE3 
 839      1A605C9F 
 840 1237 5093C40F 		.ascii	"P\223\304\017w;\027\352\275\234$\241$\276\005\243\322"
 840      773B17EA 
 840      BD9C24A1 
 840      24BE05A3 
 840      D2
 841 1248 830AB7FA 		.ascii	"\203\012\267\372\3611|<\324\255\263\214\211P\263.j\205"
 841      F1317C3C 
 841      D4ADB38C 
 841      8950B32E 
 841      6A85
 842 125a 6A628532 		.ascii	"jb\2052~\240a$\324\2304\204\232\360C\013\365\237\274"
 842      7EA06124 
 842      D4983484 
 842      9AF0430B 
 842      F59FBC
 843 126d 38D94544 		.ascii	"8\331ED\253\202\241\371\3462\352\204o\263\021\300b\\"
 843      AB82A1F9 
 843      E632EA84 
 843      6FB311C0 
 843      625C
 844 127f 5EC30A62 		.ascii	"^\303\012b4.\247\307v\037]\336\232\333\370\330Z\274"
 844      342EA7C7 
 844      761F5DDE 
 844      9ADBF8D8 
 844      5ABC
 845 1291 9E6CBA1B 		.ascii	"\236l\272\033=\272l\310\321G\010\2338\361\025\315<\244"
 845      3DBA6CC8 
 845      D147089B 
 845      38F115CD 
 845      3CA4
 846 12a3 48B330C6 		.ascii	"H\2630\306\221\0346\205\350\311d\020=\331\305\343\013"
 846      911C3685 
 846      E8C96410 
 846      3DD9C5E3 
 846      0B
 847 12b4 05B92A03 		.ascii	"\005\271*\003\237\2074\307\314\347%\376\265'M.\364L"
 847      9F8734C7 
ARM GAS  /tmp/ccLzt0L0.s 			page 68


 847      CCE725FE 
 847      B5274D2E 
 847      F44C
 848 12c6 CC3DCF75 		.ascii	"\314=\317u?\225|'c\336\2739lfOn\232\2577\"\030\255F"
 848      3F957C27 
 848      63DEBB39 
 848      6C664F6E 
 848      9AAF3722 
 849 12dd 35DAB40F 		.ascii	"5\332\264\017\033{\325\254\224\207)\023\275(;\207\300"
 849      1B7BD5AC 
 849      94872913 
 849      BD283B87 
 849      C0
 850 12ee F7A031D2 		.ascii	"\367\2401\322Bwr\364\251j\032\263`\027\365i'c\223\305"
 850      427772F4 
 850      A96A1AB3 
 850      6017F569 
 850      276393C5 
 851 1302 ACDDD132 		.ascii	"\254\335\3212J\365\340[\203\247Q\002\267\323\204\257"
 851      4AF5E05B 
 851      83A75102 
 851      B7D384AF 
 852 1312 25867CDD 		.ascii	"%\206|\335]\366\345\2433T\331\034\244\026\313X\326Z"
 852      5DF6E5A3 
 852      3354D91C 
 852      A416CB58 
 852      D65A
 853 1324 B46DCB24 		.ascii	"\264m\313$\2270~\266Xk\362\\\203:\352\264\017\267<\276"
 853      97307EB6 
 853      586BF25C 
 853      833AEAB4 
 853      0FB73CBE 
 854 1338 183B6AAD 		.ascii	"\030;j\255\033\3658\023\333\262N\266R\367\370\205KZ"
 854      1BF53813 
 854      DBB24EB6 
 854      52F7F885 
 854      4B5A
 855 134a DFA1E5A4 		.ascii	"\337\241\345\244\273Q\243\237\321\326Xgk\214t\026?\260"
 855      BB51A39F 
 855      D1D65867 
 855      6B8C7416 
 855      3FB0
 856 135c 6FCCA3F2 		.ascii	"o\314\243\362\034\307\203\236:Vc\335m+\214\210\236R"
 856      1CC7839E 
 856      3A5663DD 
 856      6D2B8C88 
 856      9E52
 857 136e 8C152662 		.ascii	"\214\025&bl\322\213\3613n\216\334\264\037My\015\343"
 857      6CD28BF1 
 857      336E8EDC 
 857      B41F4D79 
 857      0DE3
 858 1380 AB87CA3B 		.ascii	"\253\207\312;a\230\323\322\302?\241|\012h\253\212b&"
 858      6198D3D2 
 858      C23FA17C 
 858      0A68AB8A 
 858      6226
ARM GAS  /tmp/ccLzt0L0.s 			page 69


 859 1392 C9E6041E 		.ascii	"\311\346\004\036\302\212\357\217\037\3301\211\207q\240"
 859      C28AEF8F 
 859      1FD83189 
 859      8771A0
 860 13a1 0C5ED4C2 		.ascii	"\014^\324\302\223g:\002w\210\005J~\370\263\225\"u\345"
 860      93673A02 
 860      7788054A 
 860      7EF8B395 
 860      2275E5
 861 13b4 6AE591F1 		.ascii	"j\345\221\361\216\204R\035\016\221\263>\262\\\205<\255"
 861      8E84521D 
 861      0E91B33E 
 861      B25C853C 
 861      AD
 862 13c5 F95FEE8E 		.ascii	"\371_\356\216\\#\307\017\356\340\311\007\220~\312}\326"
 862      5C23C70F 
 862      EEE0C907 
 862      907ECA7D 
 862      D6
 863 13d6 76865CD3 		.ascii	"v\206\\\323#\361\341%\362<\007\3357R\226_P\236~)S\010"
 863      23F1E125 
 863      F23C07DD 
 863      3752965F 
 863      509E7E29 
 864 13ec 149BB7C0 		.ascii	"\024\233\267\300>\214\260?\304\330\227)\366GF\330\335"
 864      3E8CB03F 
 864      C4D89729 
 864      F64746D8 
 864      DD
 865 13fd 15EC257A 		.ascii	"\025\354%zl\301\010\373\015^\211\323\004\003\035_S\334"
 865      6CC108FB 
 865      0D5E89D3 
 865      04031D5F 
 865      53DC
 866 140f 161B043A 		.ascii	"\026\033\004:\207\206\226\355|\265<[1\210\321\322\014"
 866      878696ED 
 866      7CB53C5B 
 866      3188D1D2 
 866      0C
 867 1420 51D1207A 		.ascii	"Q\321 z\277G}\027\354\312\034\2724z\037\016\303\327"
 867      BF477D17 
 867      ECCA1CBA 
 867      347A1F0E 
 867      C3D7
 868 1432 DB1A8672 		.ascii	"\333\032\206rs \201\373\016\2234\272\223^\303\333>\234"
 868      732081FB 
 868      0E9334BA 
 868      935EC3DB 
 868      3E9C
 869 1444 BEDB83AE 		.ascii	"\276\333\203\256\245\032\004\313\361\031GL_ckR\255\377"
 869      A51A04CB 
 869      F119474C 
 869      5F636B52 
 869      ADFF
 870 1456 9886F7DD 		.ascii	"\230\206\367\335\207\317Q\336\217`\336G>\224\222w=\020"
 870      87CF51DE 
 870      8F60DE47 
ARM GAS  /tmp/ccLzt0L0.s 			page 70


 870      3E949277 
 870      3D10
 871 1468 04044C72 		.ascii	"\004\004Lr<\231\367C\303(\357\307m\361~\260\221\360"
 871      3C99F743 
 871      C328EFC7 
 871      6DF17EB0 
 871      91F0
 872 147a AEBC9934 		.ascii	"\256\274\2314O\3055\232.H=\202?D>mA\306\213\037\261"
 872      4FC5359A 
 872      2E483D82 
 872      3F443E6D 
 872      41C68B1F 
 873 148f 608E5600 		.ascii	"`\216V\000\310\361c\004\354&n\242+\035\203\371t\234"
 873      C8F16304 
 873      EC266EA2 
 873      2B1D83F9 
 873      749C
 874 14a1 9DADD67F 		.ascii	"\235\255\326\177\227i\255\035<\213OO\\m\324|z\"\356"
 874      9769AD1D 
 874      3C8B4F4F 
 874      5C6DD47C 
 874      7A22EE
 875 14b4 184CCFDC 		.ascii	"\030L\317\3347Z\260\235v\300\214\276\003a\364\247u\022"
 875      375AB09D 
 875      76C08CBE 
 875      0361F4A7 
 875      7512
 876 14c6 893F89D3 		.ascii	"\211?\211\323\205Sn\374\002\016\3366\341\355y\274\275"
 876      85536EFC 
 876      020EDE36 
 876      E1ED79BC 
 876      BD
 877 14d7 80B797DC 		.ascii	"\200\267\227\334\272)\222\306\207\224Vb\350\212\251"
 877      BA2992C6 
 877      87945662 
 877      E88AA9
 878 14e6 5C428EAF 		.ascii	"\\B\216\2572o\036o*\344\331\232\3261\352b\005?\234|"
 878      326F1E6F 
 878      2AE4D99A 
 878      D631EA62 
 878      053F9C7C 
 879 14fa 700AB78E 		.ascii	"p\012\267\216c\251[\207\016G\340\256`\212\346\244\306"
 879      63A95B87 
 879      0E47E0AE 
 879      608AE6A4 
 879      C6
 880 150b D1707F28 		.ascii	"\321p\177(m\034\3156\032Ge\374\366\330\364?\314\006"
 880      6D1CCD36 
 880      1A4765FC 
 880      F6D8F43F 
 880      CC06
 881 151d ADFC8CF2 		.ascii	"\255\374\214\362\266\352u,\307\360v)\345`?\3176\021"
 881      B6EA752C 
 881      C7F07629 
 881      E5603FCF 
 881      3611
 882 152f 93DC4C16 		.ascii	"\223\334L\026\244Y\021\344\246-A\352\306*\276\177\015"
ARM GAS  /tmp/ccLzt0L0.s 			page 71


 882      A45911E4 
 882      A62D41EA 
 882      C62ABE7F 
 882      0D
 883 1540 A7130B54 		.ascii	"\247\023\013T\334\364\346\351\326\355\303\356J\300\226"
 883      DCF4E6E9 
 883      D6EDC3EE 
 883      4AC096
 884 154f 3906D3FB 		.ascii	"9\006\323\373\376\306}\323;\310\2637+o\244\313#\344"
 884      FEC67DD3 
 884      3BC8B337 
 884      2B6FA4CB 
 884      23E4
 885 1561 A7172554 		.ascii	"\247\027%T\222\243 \010Z\027Y\363\014^\322y\337\215"
 885      92A32008 
 885      5A1759F3 
 885      0C5ED279 
 885      DF8D
 886 1573 CEAF6614 		.ascii	"\316\257f\024k\033hv\355\344\366h9\237\354Ag\343\351"
 886      6B1B6876 
 886      EDE4F668 
 886      399FEC41 
 886      67E3E9
 887 1586 C2349D9D 		.ascii	"\3024\235\235\272\220|\215l(\006\332\325\216M\326D]"
 887      BA907C8D 
 887      6C2806DA 
 887      D58E4DD6 
 887      445D
 888 1598 13C5C7DA 		.ascii	"\023\305\307\332uxbfb\007%\313?\342\315\220\241\260"
 888      75786266 
 888      620725CB 
 888      3FE2CD90 
 888      A1B0
 889 15aa E6D24994 		.ascii	"\346\322I\224*(W6\235h\370\212\274\027\226\346\022\324"
 889      2A285736 
 889      9D68F88A 
 889      BC1796E6 
 889      12D4
 890 15bc 773D692C 		.ascii	"w=i,`V\015\177\252\202\256\036\032\351A\276w\232Q5\223"
 890      60560D7F 
 890      AA82AE1E 
 890      1AE941BE 
 890      779A5135 
 891 15d1 65A3BACC 		.ascii	"e\243\272\314\370x\337c\276z\210\271&p\227\354\370\270"
 891      F878DF63 
 891      BE7A88B9 
 891      267097EC 
 891      F8B8
 892 15e3 D5978F1A 		.ascii	"\325\227\217\032\276\236\247\274\002\212\247\376\256"
 892      BE9EA7BC 
 892      028AA7FE 
 892      AE
 893 15f0 D801B4BF 		.ascii	"\330\001\264\2776\375\246&\306\337\3021\376[\034\313"
 893      36FDA626 
 893      C6DFC231 
 893      FE5B1CCB 
 894 1600 EFE0ED3D 		.ascii	"\357\340\355=\274}\307\203\266c=6\246\256\257\271\263"
ARM GAS  /tmp/ccLzt0L0.s 			page 72


 894      BC7DC783 
 894      B6633D36 
 894      A6AEAFB9 
 894      B3
 895 1611 12D8B7DD 		.ascii	"\022\330\267\335\002\215\246\351\005\213{\211`!\361"
 895      028DA6E9 
 895      058B7B89 
 895      6021F1
 896 1620 771D83E9 		.ascii	"w\035\203\351\024\031\037\327H\202\005i\373\022?\302"
 896      14191FD7 
 896      48820569 
 896      FB123FC2 
 897 1630 C3E039F3 		.ascii	"\303\3409\363\346\370\362\352\354\375o*\201\344f;\336"
 897      E6F8F2EA 
 897      ECFD6F2A 
 897      81E4663B 
 897      DE
 898 1641 21588E95 		.ascii	"!X\216\225Q\2325F\371\012\033\345*6\3048l\210j\274\035"
 898      519A3546 
 898      F90A1BE5 
 898      2A36C438 
 898      6C886ABC 
 899 1656 EFD175B6 		.ascii	"\357\321u\266\025\0173\235\255\256g3\352\372\265\352"
 899      150F339D 
 899      ADAE6733 
 899      EAFAB5EA 
 900 1666 91E31B8E 		.ascii	"\221\343\033\216\200\256\355\177\312\342s\345S\026\223"
 900      80AEED7F 
 900      CAE273E5 
 900      531693
 901 1675 3D380F7D 		.ascii	"=8\017}\330\341t\210\300M\306$S=Iy\350E%\017E\327R\364"
 901      D8E17488 
 901      C04DC624 
 901      533D4979 
 901      E845250F 
 902 168d 50C386C6 		.ascii	"P\303\206\306W\215_\220\350j\207\252\015x\252\305\252"
 902      578D5F90 
 902      E86A87AA 
 902      0D78AAC5 
 902      AA
 903 169e 55DDB7B3 		.ascii	"U\335\267\263\026\252|8tRc\323%\004\222\370\351\036"
 903      16AA7C38 
 903      745263D3 
 903      250492F8 
 903      E91E
 904 16b0 64BA197A 		.ascii	"d\272\031zC\255`\015eT\237\305\307\022\216\036!/\340"
 904      43AD600D 
 904      65549FC5 
 904      C7128E1E 
 904      212FE0
 905 16c3 D8B5D5C9 		.ascii	"\330\265\325\311\177\\\177\036w1s\261\245\276pj)$\324"
 905      7F5C7F1E 
 905      773173B1 
 905      A5BE706A 
 905      2924D4
 906 16d6 078C95E2 		.ascii	"\007\214\225\3427\320\203\276\017R\333\007\332\311]"
 906      37D083BE 
ARM GAS  /tmp/ccLzt0L0.s 			page 73


 906      0F52DB07 
 906      DAC95D
 907 16e5 F2DA8193 		.ascii	"\362\332\201\223\257\306\354P?T\205{\305\333\017\263"
 907      AFC6EC50 
 907      3F54857B 
 907      C5DB0FB3 
 908 16f5 BD625AAF 		.ascii	"\275bZ\2575W\264\347\251(?\210\241?\320\030z\0016\364"
 908      3557B4E7 
 908      A9283F88 
 908      A13FD018 
 908      7A0136F4 
 909 1709 42BDA147 		.ascii	"B\275\241G\266wjh\237U}\215\232\230p\010\307\204\303"
 909      B6776A68 
 909      9F557D8D 
 909      9A987008 
 909      C784C3
 910 171c 38265CC6 		.ascii	"8&\\\306\333I8&\314\321s0\272=3\245\240\037\307\"\324"
 910      DB493826 
 910      CCD17330 
 910      BA3D33A5 
 910      A01FC722 
 911 1731 A51E7572 		.ascii	"\245\036ur\202\351\001\321\304\275\231?,\363$/-\215"
 911      82E901D1 
 911      C4BD993F 
 911      2CF3242F 
 911      2D8D
 912 1743 3B5D75CB 		.ascii	";]u\313P\332l\260\014\227h\322\332\214j\205\001\227"
 912      50DA6CB0 
 912      0C9768D2 
 912      DA8C6A85 
 912      0197
 913 1755 846AB805 		.ascii	"\204j\270\005\325J\023*\373y\312\307\372<%\233\033\255"
 913      D54A132A 
 913      FB79CAC7 
 913      FA3C259B 
 913      1BAD
 914 1767 ADBBA7B1 		.ascii	"\255\273\247\261? \302\325\236l\326\356f\267\326\232"
 914      3F20C2D5 
 914      9E6CD6EE 
 914      66B7D69A 
 915 1777 CA36DDC4 		.ascii	"\3126\335\304\341\360\014\235)U\215\205F\326~o\215\254"
 915      E1F00C9D 
 915      29558D85 
 915      46D67E6F 
 915      8DAC
 916 1789 63333724 		.ascii	"c37$\251\255\367\002\352\022u\233}\376\\\327\325\"\232"
 916      A9ADF702 
 916      EA12759B 
 916      7DFE5CD7 
 916      D5229A
 917 179c 0D1EA7EF 		.ascii	"\015\036\247\357\232m\364\030\277k\306\353\253f\337"
 917      9A6DF418 
 917      BF6BC6EB 
 917      AB66DF
 918 17ab 72EBA6DC 		.ascii	"r\353\246\334\347\2458\2378\256y\223I\315\036Z3F\032"
 918      E7A5389F 
 918      38AE7993 
ARM GAS  /tmp/ccLzt0L0.s 			page 74


 918      49CD1E5A 
 918      33461A
 919 17be 6A193625 		.ascii	"j\0316%\376\012\376\262@\352\030h4\263\345Q\240\336"
 919      FE0AFEB2 
 919      40EA1868 
 919      34B3E551 
 919      A0DE
 920 17d0 E4D408BC 		.ascii	"\344\324\010\274\361\372\211b\022\2007\343>\343p\373"
 920      F1FA8962 
 920      128037E3 
 920      3EE370FB 
 921 17e0 94E34F3D 		.ascii	"\224\343O=\016bj\033\333g\334?\201\337\200\332f\253"
 921      0E626A1B 
 921      DB67DC3F 
 921      81DF80DA 
 921      66AB
 922 17f2 576F39A1 		.ascii	"Wo9\241\274f\032\307}\3009\314\3026\347\301\233\342"
 922      BC661AC7 
 922      7DC039CC 
 922      C236E7C1 
 922      9BE2
 923 1804 559DC4A9 		.ascii	"U\235\304\251$\001\273\350\030\314\247\003\253\326\202"
 923      2401BBE8 
 923      18CCA703 
 923      ABD682
 924 1813 5DB60366 		.ascii	"]\266\003f\226G\002\330\004-\330\025\307`z\316&i\301"
 924      964702D8 
 924      042DD815 
 924      C7607ACE 
 924      2669C1
 925 1826 6ED80133 		.ascii	"n\330\0013\233\247\002\260\032-\3307\216\301\364\234"
 925      9BA702B0 
 925      1A2DD837 
 925      8EC1F49C 
 926 1836 4DD582DD 		.ascii	"M\325\202\335\261\003f\366\275R\000\233\256\005\223"
 926      B10366F6 
 926      BD52009B 
 926      AE0593
 927 1845 1F710AA6 		.ascii	"\037q\012\246\347l\246\026l\204\0350\2379g\313\265`"
 927      E76CA616 
 927      6C841D30 
 927      9F3967CB 
 927      B560
 928 1857 A31D83E9 		.ascii	"\243\035\203\3519[\251\005\033k\007\314,o\004\260\217"
 928      395BA905 
 928      1B6B07CC 
 928      2C6F04B0 
 928      8F
 929 1868 B560E31D 		.ascii	"\265`\343\035\203\3519[\255\005\233l\007\314\354s]\303"
 929      83E9395B 
 929      AD059B6C 
 929      07CCEC73 
 929      5DC3
 930 187a 2AE26BFF 		.ascii	"*\342k\377R%%\336\316%\250JX\341\365\256\245\275\255"
 930      522525DE 
 930      CE25A84A 
 930      58E1F5AE 
ARM GAS  /tmp/ccLzt0L0.s 			page 75


 930      A5BDAD
 931 188d 9937BD4D 		.ascii	"\2317\275M\342\317{\224g\020;\264\271\242\346P\340\246"
 931      E2CF7B94 
 931      67103BB4 
 931      B9A2E650 
 931      E0A6
 932 189f B17C1BBE 		.ascii	"\261|\033\276\346m\366i0\320\302:\255\026f\331\321B"
 932      E66DF669 
 932      30D0C23A 
 932      AD1666D9 
 932      D142
 933 18b1 0F73B00D 		.ascii	"\017s\260\015Z\260\371v\300z\231\033\373\023-\330\""
 933      5AB0F976 
 933      C07A991B 
 933      FB132DD8 
 933      22
 934 18c2 C7607ACE 		.ascii	"\307`z\316\366k\301\226\332\001{\335\234\263F-\330r"
 934      F66BC196 
 934      DA017BDD 
 934      9CB3462D 
 934      D872
 935 18d4 C7605ACE 		.ascii	"\307`Z\316*\342\207\022\236\203V*\352\\\247\207>\\\352"
 935      2AE28712 
 935      9E83562A 
 935      EA5CA787 
 935      3E5CEA
 936 18e7 6ED3B80E 		.ascii	"n\323\270\016s\033\214\264U\317Q\262\002\366P\340V\263"
 936      731B8CB4 
 936      55CF51B2 
 936      02F650E0 
 936      56B3
 937 18f9 7CEB50E8 		.ascii	"|\353P\350\356\033\006J0\372\323v\225\022\277\035\017"
 937      EE1B064A 
 937      30FAD376 
 937      9512BF1D 
 937      0F
 938 190a 25EA713A 		.ascii	"%\352q:\277\023ow\343\355^\274m\300\333\375x\333\210"
 938      BF136F77 
 938      E3ED5EBC 
 938      6DC0DBFD 
 938      78DB88
 939 191d B787F0F6 		.ascii	"\267\207\360\366\010\336\036\303\333\023x{\012o\317"
 939      08DE1EC3 
 939      DB13787B 
 939      0A6FCF
 940 192c E06D13DE 		.ascii	"\340m\023\336^\300\333Kx\373\005\336~\211\267\377\304"
 940      5EC0DB4B 
 940      78FB05DE 
 940      7E89B7FF 
 940      C4
 941 193d DB2BDAA1 		.ascii	"\333+\332\241\003\223\034n61\020\342\375\272iJ9\323"
 941      03931C6E 
 941      363110E2 
 941      FDBA694A 
 941      39D3
 942 194f 62007123 		.ascii	"b\000q#AE_)\370\346\356\365'\320\344 Z\353\361$\223"
 942      41455F29 
ARM GAS  /tmp/ccLzt0L0.s 			page 76


 942      F8E6EEF5 
 942      27D0E420 
 942      5AEBF124 
 943 1964 59A23916 		.ascii	"Y\2429\0263\244\233\236\344\005\311-\217\030.H\256\224"
 943      33A49B9E 
 943      E405C92D 
 943      8F182E48 
 943      AE94
 944 1976 972F92DD 		.ascii	"\227/\222\335\004\016\021|\355Q\027F19$\276\374\215"
 944      040E117C 
 944      ED511746 
 944      313924BE 
 944      FC8D
 945 1988 47F71C98 		.ascii	"G\367\034\230\221n\241\205t\337&Iw\372\322\265#\374"
 945      916EA185 
 945      74DF2649 
 945      77FAD2B5 
 945      23FC
 946 199a 38F4F4F8 		.ascii	"8\364\364\370*db>\373\231\363\0356s6Z\314\306<\330\256"
 946      2A64623E 
 946      FB99F31D 
 946      3673365A 
 946      CCC63CD8 
 947 19af EE606FF5 		.ascii	"\356`o\365\332m\217\243\325k \227hMv\305|Q:\"\322\371"
 947      DA6D8FA3 
 947      D56B2097 
 947      684D76C5 
 947      7C513A22 
 948 19c5 FC7D4BED 		.ascii	"\374}K\355\326Zh\267\302\313j\367\253\325\347\0043\337"
 948      D65A68B7 
 948      C2CB6AF7 
 948      ABD5E704 
 948      33DF
 949 19d7 B1D0ED50 		.ascii	"\261\320\355P\257\301z\021F\2275\306\272\304J\331\203"
 949      AFC17A11 
 949      469735C6 
 949      BAC44AD9 
 949      83
 950 19e8 9FB92DC2 		.ascii	"\237\271-\302wTz\315\224B\277\345E\225r\\\253\024D\244"
 950      77547ACD 
 950      9442BFE5 
 950      4595725C 
 950      AB1444A4 
 951 19fc 53CA70AF 		.ascii	"S\312p\257\225R\026[\214\321\336\365\2325\303\255\026"
 951      9552165B 
 951      8CD1DEF5 
 951      9A35C3AD 
 951      16
 952 1a0d AA1CC5AA 		.ascii	"\252\034\305\252\022O\271\242u\263\263\3429DA\002\267"
 952      124FB9A2 
 952      75B3B3E2 
 952      39444102 
 952      B7
 953 1a1e 24850A24 		.ascii	"$\205\012$\376\035/\362\213\321\351\250`4\253\202\367"
 953      FE1D2FF2 
 953      8BD1E9A8 
 953      6034AB82 
ARM GAS  /tmp/ccLzt0L0.s 			page 77


 953      F7
 954 1a2f 2C55B0CC 		.ascii	",U\260\314B\005c\275\354P\221\035\257\311\352?\356\351"
 954      420563BD 
 954      EC50911D 
 954      AFC9EA3F 
 954      EEE9
 955 1a41 4169AABC 		.ascii	"Ai\252\274N\007l\343\274\306\003\266\356L\325\010F\263"
 955      4E076CE3 
 955      BCC603B6 
 955      EE4CD508 
 955      46B3
 956 1a53 A050FF7C 		.ascii	"\240P\377|\016\001U{\225~F\371\227V\254\260\373LV\260"
 956      0E01557B 
 956      957E46F9 
 956      9756ACB0 
 956      FB4C56B0 
 957 1a67 239AF1A6 		.ascii	"#\232\361\246\366\336g1\376\237`J\325l\341%\023M\251"
 957      F6DE6731 
 957      FE9F604A 
 957      D56CE125 
 957      134DA9
 958 1a7a 90FACCA8 		.ascii	"\220\372\314\250&\231R\215\263\250k\262)\325]\213\231"
 958      2699528D 
 958      B3A86BB2 
 958      29D55D8B 
 958      99
 959 1a8b A51A53AA 		.ascii	"\245\032S\252j\013\016\247$\005\222\323\227\216\037"
 959      6A0B0EA7 
 959      240592D3 
 959      978E1F
 960 1a9a 4D2B4C4F 		.ascii	"M+LOcC\211.L\3370\014\323\033\214\333\325A6LO5mW\332"
 960      6343892E 
 960      4CDF300C 
 960      D31B8CDB 
 960      D541364C 
 961 1ab3 30BD8AAC 		.ascii	"0\275\212\254\026\276!&\026\225\233\023\3360\017\324"
 961      16BE2126 
 961      16959B13 
 961      DE300FD4 
 962 1ac3 53D90639 		.ascii	"S\331\0069\323\262A\326Y4\310\271\006V!s}\247,l\251"
 962      D3B241D6 
 962      5934C8B9 
 962      06562173 
 962      7DA72C6C 
 963 1ad8 F9B80543 		.ascii	"\371\270\005Cu\301\202J\363\375\010\316\025(\224\"\317"
 963      75C1824A 
 963      F3FD08CE 
 963      15289422 
 963      CF
 964 1ae9 E5169684 		.ascii	"\345\026\226\204\203\271\201\222\374!\271\371\301\362"
 964      83B98192 
 964      FC21B9F9 
 964      C1F2
 965 1af7 DC406168 		.ascii	"\334@ah@\250$\232\033\213\224\025\277\225\013;\221X"
 965      40A8249A 
 965      1B8B9415 
 965      BF950B3B 
ARM GAS  /tmp/ccLzt0L0.s 			page 78


 965      9158
 966 1b09 6EA83850 		.ascii	"n\2508PT\226\0177\025\006\313\203\305\261\350\263\205"
 966      54960F37 
 966      1506CB83 
 966      C5B1E8B3 
 966      85
 967 1b1a 5C6BBCE7 		.ascii	"\\k\274\347\217\226\224E\002A\177\314\363\332\037\377"
 967      8F969445 
 967      02417FCC 
 967      F3DA1FFF 
 968 1b2a ECCBE3B2 		.ascii	"\354\313\343\262\265gs\310AQ(\032\013\026\007#\376X"
 968      B56773C8 
 968      4151281A 
 968      0B160723 
 968      FE58
 969 1b3c 6BFD096F 		.ascii	"k\375\011o\260\310_\034\034\034\353\346\210\203\350"
 969      B0C85F1C 
 969      1C1CEBE6 
 969      8883E8
 970 1b4b 90686C48 		.ascii	"\220hlHi\020\361\220\021+\214\004\245|\177,3P\350'\373"
 970      6910F190 
 970      112B8C04 
 970      A57C7F2C 
 970      3350E827 
 971 1b60 5D9D6105 		.ascii	"]\235a\005\012\363\001\307S\212\371\200\237\322H\260"
 971      0AF301C7 
 971      538AF980 
 971      9FD248B0 
 972 1b70 BC970D88 		.ascii	"\274\227\015\210\322\222H,\232\373R\337>y}\006\303\235"
 972      D292482C 
 972      9AFB52DF 
 972      3E797D06 
 972      C39D
 973 1b82 E1D25051 		.ascii	"\341\322PQ0\022\315}-/\017nW\330\363\306J#\241\022\177"
 973      3012CD7D 
 973      2D2F0F6E 
 973      57D8F3C6 
 973      4A23A112 
 974 1b97 ECE7B965 		.ascii	"\354\347\271e\321H\256\024\011\377\272\270\2448\370"
 974      D148AE14 
 974      09FFBAB8 
 974      A438F8
 975 1ba6 EBA03420 		.ascii	"\353\2404 \244\362\020\215\345\207\212cH\2262\370\355"
 975      A4F2108D 
 975      E5878A63 
 975      489632F8 
 975      ED
 976 1bb7 D2D91FEB 		.ascii	"\322\331\037\353jqwX\002f\212\203\271\376\374\340@\251"
 976      6A717758 
 976      02668A83 
 976      B9FEFCE0 
 976      40A9
 977 1bc9 AC28E657 		.ascii	"\254(\346W\252j\345\367+\364X\212P\2117PR\034\003\241"
 977      AA6AE5F7 
 977      2BF4588A 
 977      50893750 
 977      521C03A1 
ARM GAS  /tmp/ccLzt0L0.s 			page 79


 978 1bdd 5E702C4D 		.ascii	"^p,Ma\240$\022\004\314,t\332\017\250\201\330\340\337"
 978      61A02412 
 978      04CC2C74 
 978      DA0FA881 
 978      D8E0DF
 979 1bf0 A787E22F 		.ascii	"\247\207\342/\177>\214d\213\004\013@ \177L\210t\025"
 979      7F3E8C64 
 979      8B040B40 
 979      207F4C88 
 979      7415
 980 1c02 22BF1122 		.ascii	"\"\277\021\"\317\011\221\347\205H7!\362\202\030\351"
 980      CF0991E7 
 980      85483721 
 980      F28218E9 
 981 1c12 D4114A27 		.ascii	"\324\021J'\241(\002?]\334\245~\250\315\213\3541\010"
 981      A128023F 
 981      5DDCA57E 
 981      A8CD8BEC 
 981      3108
 982 1c24 1CA4D45F 		.ascii	"\034\244\324_R\224\037\214 \373H\341`F,\032\223b\340"
 982      52941F8C 
 982      20FB48E1 
 982      60462C1A 
 982      9362E0
 983 1c37 6C5E246B 		.ascii	"l^$k70;\221\032\366\340N|\315\033\013\227\344\007\361"
 983      37303B91 
 983      1AF6E04E 
 983      7CCD1B0B 
 983      97E407F1 
 984 1c4b F1C022A9 		.ascii	"\361\300\"\251 \352\215E\202\003\243X)h\307\035\216"
 984      20EA8D45 
 984      8203A358 
 984      2968C71D 
 984      8E
 985 1c5c 16C045AA 		.ascii	"\026\300E\252) Wt\026\311\037\002\2272\202\203C1\220"
 985      29205774 
 985      16C91F02 
 985      97328283 
 985      433190
 986 1c6f 31E81914 		.ascii	"1\350\031\024+\031\360\327\322,\354\257a)\372\026\334"
 986      2B19F0D7 
 986      D22CECAF 
 986      6129FA16 
 986      DC
 987 1c80 121C8476 		.ascii	"\022\034\204v\304R\177Yk\342jQ\354\310\376X\033\325"
 987      C4527F59 
 987      6BE26A51 
 987      ECC8FE58 
 987      1BD5
 988 1c92 F9C899CC 		.ascii	"\371\310\231\314R\377 )\024\013\025\027\264QN\377\255"
 988      52FF2029 
 988      140B1517 
 988      B4514EFF 
 988      AD
 989 1ca3 2C58065C 		.ascii	",X\006\\\345h\356\304\247Z\225\372\241Z\274\353\306"
 989      E568EEC4 
 989      A75A95FA 
ARM GAS  /tmp/ccLzt0L0.s 			page 80


 989      A15ABCEB 
 989      C6
 990 1cb4 BB702258 		.ascii	"\273p\"X\032,\006\237(p\207\313\300~]\034\371s86\030"
 990      1A2C069F 
 990      287087CB 
 990      C07E5D1C 
 990      F9733836 
 991 1cc9 F95D98A0 		.ascii	"\371]\230\240\303o\311 \324\3160\022\210\020\306n\016"
 991      C36FC920 
 991      D4CE3012 
 991      8810C66E 
 991      0E
 992 1cda FCC17D88 		.ascii	"\374\301}\210\323VH+R\021v\0278YZRR\224\005mRi\237\231"
 992      D356482B 
 992      52117617 
 992      38595A52 
 992      5294056D 
 993 1cf2 B04FDA3B 		.ascii	"\260O\332;i\326X\243\376X\006\234\306\273\350\372 \242"
 993      69D658A3 
 993      FE58069C 
 993      C6BBE8FA 
 993      20A2
 994 1d04 E6601443 		.ascii	"\346`\024C;k}\205A\251\024\330} \034\014\227D\206\370"
 994      3B6B7D85 
 994      41A914D8 
 994      7D201C0C 
 994      974486F8 
 995 1d18 D1A13F96 		.ascii	"\321\241?\226\2459\352\214\233BQh@nA \3004\211\256\317"
 995      A539EA8C 
 995      9B425168 
 995      406E4120 
 995      C03489AE 
 996 1d2d 767BB6AB 		.ascii	"v{\266\253\266\031A\223@M9\032\372\037\320\364\363\316"
 996      B6194193 
 996      404D391A 
 996      FA1FD0F4 
 996      F3CE
 997 1d3f D4160C53 		.ascii	"\324\026\014S\237\317\206\335\202`l`Yq\300\037kU\010"
 997      9FCF86DD 
 997      82606C60 
 997      5971C01F 
 997      6B5508
 998 1d52 2DA9A43C 		.ascii	"-\251\244<\004\036\230\205\231\203\015\354\267\212\306"
 998      041E9885 
 998      99830DEC 
 998      B78AC6
 999 1d61 DE928A42 		.ascii	"\336\222\212B\005\305\240\012\344~\317u\205[\211'\242"
 999      05C5A00A 
 999      E47ECF75 
 999      855B8927 
 999      A2
 1000 1d72 5D37BEE6 		.ascii	"]7\276\346B\352p!*\276\314\205x\342\013=\205\376\201"
 1000      42EA7021 
 1000      2ABECC85 
 1000      78E20B3D 
 1000      85FE81
 1001 1d85 9160D05D 		.ascii	"\221`\320]\210\324\3371\025\203\345\022X\245,\232\033"
ARM GAS  /tmp/ccLzt0L0.s 			page 81


 1001      88D4DF31 
 1001      1583E512 
 1001      58A52C9A 
 1001      1B
 1002 1d96 2D0C1615 		.ascii	"-\014\026\025!\316\372\241\235\274\222pX*\316\367F\003"
 1002      21CEFAA1 
 1002      9DBC9270 
 1002      582ACEF7 
 1002      4603
 1003 1da8 B8453813 		.ascii	"\270E8\0233\012\215A\012\243p\321\356e)\032\354\027"
 1003      330A8D41 
 1003      0AA370D1 
 1003      EE65291A 
 1003      EC17
 1004 1dba 042F298E 		.ascii	"\004/)\216\205\244\242~\370\302#F'\377\243O\177\367"
 1004      85A4A27E 
 1004      F8C22346 
 1004      27FFA34F 
 1004      7FF7
 1005 1dcc A0482816 		.ascii	"\240H(\026t!\267\025K\313b\"\350G,\017\307Za\316\002"
 1005      7421B715 
 1005      4BCB6222 
 1005      E8472C0F 
 1005      C75A61CE 
 1006 1de1 6108BF59 		.ascii	"a\010\277Y\300\016RY,TR\354P\260\000\227\215wh\273\340"
 1006      C00E5259 
 1006      2C5452EC 
 1006      50B00097 
 1006      8D7768BB 
 1007 1df6 4BDDFE97 		.ascii	"K\335\376\227\301\015\275\200\033\034\034\014\210\321"
 1007      C10DBD80 
 1007      1B1C1C0C 
 1007      88D1
 1008 1e04 40A91828 		.ascii	"@\251\030(,u!i]R\244 \2006\345^h\355\221X\311[\"\374"
 1008      2C752169 
 1008      5D52A420 
 1008      8036E55E 
 1008      68ED9158 
 1009 1e1c B8F38345 		.ascii	"\270\363\203E\241\2607*\225\007Kc\221\224\355E\251\036"
 1009      A1B0372A 
 1009      95074B63 
 1009      9194ED45 
 1009      A91E
 1010 1e2e 40236031 		.ascii	"@#`1\3443\031\312\27680\034k\213$B}L(\034|\266T\212"
 1010      E43319CA 
 1010      BE38301C 
 1010      6B8B2442 
 1010      7D4C281C 
 1011 1e46 C49EED98 		.ascii	"\304\236\355\230\2459\325\006\355\207\212\007\226\220"
 1011      A539D506 
 1011      ED878A07 
 1011      9690
 1012 1e54 6B9D3294 		.ascii	"k\2352\224\343L,F\357\342P\214\354\275\012\241DD-\032"
 1012      E34C2C46 
 1012      EFE2508C 
 1012      ECBD0AA1 
 1012      44442D1A 
ARM GAS  /tmp/ccLzt0L0.s 			page 82


 1013 1e68 7403DD6C 		.ascii	"t\003\335lqq\260\010\251)@\014\030\315\242\346,\036"
 1013      7171B008 
 1013      A929400C 
 1013      18CDA2E6 
 1013      2C1E
 1014 1e7a 182AC8C2 		.ascii	"\030*\310\302\004y ?\250\0315\306\0075'\372AX\013\005"
 1014      0479203F 
 1014      A81935C6 
 1014      073527FA 
 1014      41580B05 
 1015 1e8e C441D152 		.ascii	"\304A\321R\242\250\327\202\261?@\027\340*\202\215u\307"
 1015      A2A8D782 
 1015      B13F4017 
 1015      E02A828D 
 1015      75C7
 1016 1ea0 022215A0 		.ascii	"\002\"\025\240h\000\327\212\313\212\212\300m#\001\260"
 1016      6800D78A 
 1016      CB8A8AC0 
 1016      6D2301B0 
 1017 1eb0 70205C0A 		.ascii	"p \\\012\247@\335%\203\\EAi\240\253\264,\022\364\302"
 1017      A740DD25 
 1017      835C4541 
 1017      69A0ABB4 
 1017      2C12F4C2 
 1018 1ec4 C5D20191 		.ascii	"\305\322\001\221\267<\360\033--v\324\360\300 \250\232"
 1018      B73CF01B 
 1018      2D2D76D4 
 1018      F0C020A8 
 1018      9A
 1019 1ed5 7209078E 		.ascii	"r\011\007\216\326~\177AqY\300O\017\263~7\240,T\024\373"
 1019      D67E7F41 
 1019      7159C04F 
 1019      0FB37E37 
 1019      A02C5414 
 1020 1eea 75A8F845 		.ascii	"u\250\370E\016\342-=\013\375u9Q\2713\017\246\301\023"
 1020      0EE22D3D 
 1020      0BFD7539 
 1020      51B9330F 
 1020      A6C113
 1021 1efd 757881C2 		.ascii	"ux\201\302\376\205\371H\311\375\332\005\012_-\217\275"
 1021      FE85F948 
 1021      C9FDDA05 
 1021      0A5F2D8F 
 1021      BD
 1022 1f0e 1C2991F2 		.ascii	"\034)\221\362A\276XO\024\220z;\303\315\037\002\376\025"
 1022      41BE584F 
 1022      14907A3B 
 1022      C3CD1F02 
 1022      FE15
 1023 1f20 0AE03E9B 		.ascii	"\012\340>\233\264\375\2070>1A\317HI\270\027\264\344"
 1023      B4FD8730 
 1023      3E3141CF 
 1023      4849B817 
 1023      B4E4
 1024 1f32 0735E788 		.ascii	"\0075\347\210Yr\250\357\006#\341P1\234\315o]T\022\220"
 1024      5972A8EF 
 1024      0623E150 
ARM GAS  /tmp/ccLzt0L0.s 			page 83


 1024      319CCD6F 
 1024      5D541290 
 1025 1f46 8A542BBB 		.ascii	"\212T+\273\221gp\031\324w\270,\210\377h?\030&)\013\331"
 1025      91677019 
 1025      D477B82C 
 1025      88FF683F 
 1025      1826290B 
 1026 1f5b CF46320D 		.ascii	"\317F2\015\241\235\311\003p:q\354\215\220H\356\211\340"
 1026      A19DC903 
 1026      703A71EC 
 1026      8D9048EE 
 1026      89E0
 1027 1f6d 3EDD1DC1 		.ascii	">\335\035\301\275c\204\366\216\021\322;f\302\331\262"
 1027      BD6384F6 
 1027      8E11D23B 
 1027      66C2D9B2 
 1028 1f7d 48045AAD 		.ascii	"H\004Z\255;\202\210\036.\017Ebe\300\005\2523\242\364"
 1028      3B82881E 
 1028      2E0F4562 
 1028      65C005AA 
 1028      33A2F4
 1029 1f90 52ED01D8 		.ascii	"R\355\001\330\340B\033\3359\322E\351Ny\313c"
 1029      E0421BDD 
 1029      39D245E9 
 1029      4E79CB63 
 1030 1fa0 38B4A35F 		.ascii	"8\264\243_\224\035eRah\360\353\364\234\032\374\320n"
 1030      941D6552 
 1030      6168F0EB 
 1030      F49C1AFC 
 1030      D06E
 1031 1fb2 06DC05ED 		.ascii	"\006\334\005\3551&\301\016Q$\242C{\036D/E\262\340\247"
 1031      3126C10E 
 1031      5124A243 
 1031      7B1E442F 
 1031      45B2E0A7 
 1032 1fc6 08AC8420 		.ascii	"\010\254\204 \340\024\366\030\252\222\374\340\200\262"
 1032      E014F618 
 1032      AA92FCE0 
 1032      80B2
 1033 1fd4 02D29D6A 		.ascii	"\002\322\235j\317d\226J\305\241\000\352\034\305\374"
 1033      CF64964A 
 1033      C5A100EA 
 1033      1CC5FC
 1034 1fe3 01059D9D 		.ascii	"\001\005\235\235\371\013\312>rba?\030%4 \"\241\000\005"
 1034      F90BCA3E 
 1034      7262613F 
 1034      18253420 
 1034      22A10005 
 1035 1ff7 2C456201 		.ascii	",Eb\001HCc\236\222"
 1035      4843639E 
 1035      92
 1036 2000 8103A3C1 		.ascii	"\201\003\243\301\230\020\013\013\201\302\236\251\200"
 1036      98100B0B 
 1036      81C29EA9 
 1036      80
 1037 200d 0BA5229A 		.ascii	"\013\245\"\232\342\364\353\337\247K\347\334?\374\341"
 1037      E2F4EBDF 
ARM GAS  /tmp/ccLzt0L0.s 			page 84


 1037      A74BE7DC 
 1037      3FFCE1
 1038 201c 95DCFEBD 		.ascii	"\225\334\376\275\373\224w\2026\020FID\010U\226\245\036"
 1038      FB947782 
 1038      36104649 
 1038      44085596 
 1038      A51E
 1039 202e F863625E 		.ascii	"\370cb^\337NP:\273\372\365\311\353\353z\245\367\253"
 1039      DF4E503A 
 1039      BBFAF5C9 
 1039      EBEB7AA5 
 1039      F7AB
 1040 2040 7D857E7D 		.ascii	"}\205~}\305W_\353\353\316\313\353\323\267\023\336vv"
 1040      C5575FEB 
 1040      EBCECBEB 
 1040      D3B713DE 
 1040      7676
 1041 2052 E5E5BDDA 		.ascii	"\345\345\275\332W\314\373c\177\361\365~y\342K}\373\212"
 1041      57CCFB63 
 1041      7FF1F57E 
 1041      79E24B7D 
 1041      FB8A
 1042 2064 7DF3E018 		.ascii	"}\363\340\030\010^~\245\177_\361\025D\331\347\245\276"
 1042      085E7EA5 
 1042      7F5FF115 
 1042      44D9E7A5 
 1042      BE
 1043 2075 C29F0855 		.ascii	"\302\237\010U\027\270\377\215\276y\337\207Y\177Q\021"
 1043      17B8FF8D 
 1043      BE79DF87 
 1043      597F5111 
 1044 2085 4A7ADB92 		.ascii	"Jz\333\222=?\204s\360\3272H\026#\356\262\250T\000!\016"
 1044      3D3F8473 
 1044      F0D73248 
 1044      1623EEB2 
 1044      A8540021 
 1045 209a B5A73F0D 		.ascii	"\265\247?\015\370k0\020C\361L\014FK\333\350\333X\357"
 1045      F86B3010 
 1045      43F14C0C 
 1045      464BDBE8 
 1045      DB58EF
 1046 20ad 07B05329 		.ascii	"\007\260S)n\376\177\365RPB"
 1046      6EFE7FF5 
 1046      525042
 1047              		.text
 1048              		.section	.gnu.lto_.symtab.72f613c25c0c605d,"",%progbits
 1049 0000 7368656C 		.ascii	"shellInit\000\000\000\000\000\000\000\000\000\000\000"
 1049      6C496E69 
 1049      74000000 
 1049      00000000 
 1049      00000000 
 1050 0014 003E0200 		.ascii	"\000>\002\000\000shell_terminated\000\000\000\000\000"
 1050      00736865 
 1050      6C6C5F74 
 1050      65726D69 
 1050      6E617465 
 1051 002e 00000000 		.ascii	"\000\000\000\000\000\000\000\300\002\000\000shellEx"
ARM GAS  /tmp/ccLzt0L0.s 			page 85


 1051      000000C0 
 1051      02000073 
 1051      68656C6C 
 1051      4578
 1052 0040 69740000 		.ascii	"it\000\000\000\000\000\000\000\000\000\000\000\000B"
 1052      00000000 
 1052      00000000 
 1052      000042
 1053 004f 02000073 		.ascii	"\002\000\000shellCreate\000\000\000\000\000\000\000"
 1053      68656C6C 
 1053      43726561 
 1053      74650000 
 1053      00000000 
 1054 0064 00000000 		.ascii	"\000\000\000\000\000I\002\000\000shellCreateStatic\000"
 1054      00490200 
 1054      00736865 
 1054      6C6C4372 
 1054      65617465 
 1055 007f 00000000 		.ascii	"\000\000\000\000\000\000\000\000\000\000\000_\002\000"
 1055      00000000 
 1055      0000005F 
 1055      0200
 1056 008d 00736865 		.ascii	"\000shellGetLine\000\000\000\000\000\000\000\000\000"
 1056      6C6C4765 
 1056      744C696E 
 1056      65000000 
 1056      00000000 
 1057 00a3 0000006C 		.ascii	"\000\000\000l\002\000\000ch\000\000\002\000\000\000"
 1057      02000063 
 1057      68000002 
 1057      000000
 1058 00b2 00000000 		.ascii	"\000\000\000\000\000\000\316\002\000\000chvprintf\000"
 1058      0000CE02 
 1058      00006368 
 1058      76707269 
 1058      6E746600 
 1059 00c6 00020000 		.ascii	"\000\002\000\000\000\000\000\000\000\000\000\227\002"
 1059      00000000 
 1059      00000097 
 1059      02
 1060 00d3 00006368 		.ascii	"\000\000chThdExitS\000\000\002\000\000\000\000\000\000"
 1060      54686445 
 1060      78697453 
 1060      00000200 
 1060      00000000 
 1061 00e8 000000A6 		.ascii	"\000\000\000\246\002\000\000chEvtBroadcastFlagsI\000"
 1061      02000063 
 1061      68457674 
 1061      42726F61 
 1061      64636173 
 1062 0104 00020000 		.ascii	"\000\002\000\000\000\000\000\000\000\000\000\250\002"
 1062      00000000 
 1062      000000A8 
 1062      02
 1063 0111 00006368 		.ascii	"\000\000chThdCreateFromHeap\000\000\002\000\000\000"
 1063      54686443 
 1063      72656174 
ARM GAS  /tmp/ccLzt0L0.s 			page 86


 1063      6546726F 
 1063      6D486561 
 1064 012c 00000000 		.ascii	"\000\000\000\000\000\000\255\002\000\000chThdCreate"
 1064      0000AD02 
 1064      00006368 
 1064      54686443 
 1064      72656174 
 1065 0141 53746174 		.ascii	"Static\000\000\002\000\000\000\000\000\000\000\000\000"
 1065      69630000 
 1065      02000000 
 1065      00000000 
 1065      0000
 1066 0153 B8020000 		.ascii	"\270\002\000\000"
 1067              		.text
 1068              		.section	.gnu.lto_.opts,"",%progbits
 1069 0000 272D6D63 		.ascii	"'-mcpu=cortex-m3' '-mno-thumb-interwork' '-mthumb' "
 1069      70753D63 
 1069      6F727465 
 1069      782D6D33 
 1069      2720272D 
 1070 0033 272D4F32 		.ascii	"'-O2' '-fomit-frame-pointer' '-falign-functions=16'"
 1070      2720272D 
 1070      666F6D69 
 1070      742D6672 
 1070      616D652D 
 1071 0066 20272D66 		.ascii	" '-ffunction-sections' '-fdata-sections' '-fno-comm"
 1071      66756E63 
 1071      74696F6E 
 1071      2D736563 
 1071      74696F6E 
 1072 0099 6F6E2720 		.ascii	"on' '-flto'\000"
 1072      272D666C 
 1072      746F2700 
 1073              		.text
 1074              		.section	.text.chprintf,"ax",%progbits
 1075              		.align	2
 1076              		.p2align 4,,15
 1077              		.thumb
 1078              		.thumb_func
 1079              		.type	chprintf, %function
 1080              	chprintf:
 1081              		@ args = 4, pretend = 12, frame = 8
 1082              		@ frame_needed = 0, uses_anonymous_args = 1
 1083 0000 0EB4     		push	{r1, r2, r3}
 1084 0002 00B5     		push	{lr}
 1085 0004 82B0     		sub	sp, sp, #8
 1086 0006 03AB     		add	r3, sp, #12
 1087 0008 53F8041B 		ldr	r1, [r3], #4
 1088 000c 1A46     		mov	r2, r3
 1089 000e 0193     		str	r3, [sp, #4]
 1090 0010 FFF7FEFF 		bl	chvprintf
 1091 0014 02B0     		add	sp, sp, #8
 1092              		@ sp needed
 1093 0016 5DF804EB 		ldr	lr, [sp], #4
 1094 001a 03B0     		add	sp, sp, #12
 1095 001c 7047     		bx	lr
 1096              		.size	chprintf, .-chprintf
ARM GAS  /tmp/ccLzt0L0.s 			page 87


 1097 001e 00BF     		.section	.text.cmd_systime,"ax",%progbits
 1098              		.align	2
 1099              		.p2align 4,,15
 1100              		.thumb
 1101              		.thumb_func
 1102              		.type	cmd_systime, %function
 1103              	cmd_systime:
 1104              		@ args = 0, pretend = 0, frame = 0
 1105              		@ frame_needed = 0, uses_anonymous_args = 0
 1106              		@ link register save eliminated.
 1107 0000 0029     		cmp	r1, #0
 1108 0002 03DD     		ble	.L3
 1109 0004 0849     		ldr	r1, .L5
 1110 0006 094A     		ldr	r2, .L5+4
 1111 0008 FFF7FEBF 		b	chprintf
 1112              	.L3:
 1113 000c 2023     		movs	r3, #32
 1114              	@ 546 "/home/cody/dev/chibios/trunk/os/ext/CMSIS/include/core_cmFunc.h" 1
 1115 000e 83F31188 		MSR basepri, r3
 1116              	@ 0 "" 2
 1117              		.thumb
 1118 0012 4FF08043 		mov	r3, #1073741824
 1119 0016 5A6A     		ldr	r2, [r3, #36]
 1120 0018 0023     		movs	r3, #0
 1121              	@ 546 "/home/cody/dev/chibios/trunk/os/ext/CMSIS/include/core_cmFunc.h" 1
 1122 001a 83F31188 		MSR basepri, r3
 1123              	@ 0 "" 2
 1124              		.thumb
 1125 001e 0449     		ldr	r1, .L5+8
 1126 0020 92B2     		uxth	r2, r2
 1127 0022 FFF7FEBF 		b	chprintf
 1128              	.L6:
 1129 0026 00BF     		.align	2
 1130              	.L5:
 1131 0028 00000000 		.word	.LC0
 1132 002c 0C000000 		.word	.LC1
 1133 0030 14000000 		.word	.LC2
 1134              		.size	cmd_systime, .-cmd_systime
 1135 0034 AFF30080 		.section	.text.cmd_info,"ax",%progbits
 1135      AFF30080 
 1135      AFF30080 
 1136              		.align	2
 1137              		.p2align 4,,15
 1138              		.thumb
 1139              		.thumb_func
 1140              		.type	cmd_info, %function
 1141              	cmd_info:
 1142              		@ args = 0, pretend = 0, frame = 0
 1143              		@ frame_needed = 0, uses_anonymous_args = 0
 1144 0000 10B5     		push	{r4, lr}
 1145 0002 0029     		cmp	r1, #0
 1146 0004 82B0     		sub	sp, sp, #8
 1147 0006 0446     		mov	r4, r0
 1148 0008 06DD     		ble	.L8
 1149 000a 1949     		ldr	r1, .L9
 1150 000c 194A     		ldr	r2, .L9+4
 1151 000e 02B0     		add	sp, sp, #8
ARM GAS  /tmp/ccLzt0L0.s 			page 88


 1152              		@ sp needed
 1153 0010 BDE81040 		pop	{r4, lr}
 1154 0014 FFF7FEBF 		b	chprintf
 1155              	.L8:
 1156 0018 1749     		ldr	r1, .L9+8
 1157 001a 184A     		ldr	r2, .L9+12
 1158 001c FFF7FEFF 		bl	chprintf
 1159 0020 2046     		mov	r0, r4
 1160 0022 1749     		ldr	r1, .L9+16
 1161 0024 174A     		ldr	r2, .L9+20
 1162 0026 FFF7FEFF 		bl	chprintf
 1163 002a 2046     		mov	r0, r4
 1164 002c 1649     		ldr	r1, .L9+24
 1165 002e 174A     		ldr	r2, .L9+28
 1166 0030 FFF7FEFF 		bl	chprintf
 1167 0034 2046     		mov	r0, r4
 1168 0036 1649     		ldr	r1, .L9+32
 1169 0038 164A     		ldr	r2, .L9+36
 1170 003a FFF7FEFF 		bl	chprintf
 1171 003e 2046     		mov	r0, r4
 1172 0040 1549     		ldr	r1, .L9+40
 1173 0042 164A     		ldr	r2, .L9+44
 1174 0044 FFF7FEFF 		bl	chprintf
 1175 0048 2046     		mov	r0, r4
 1176 004a 1549     		ldr	r1, .L9+48
 1177 004c 154A     		ldr	r2, .L9+52
 1178 004e FFF7FEFF 		bl	chprintf
 1179 0052 2046     		mov	r0, r4
 1180 0054 1449     		ldr	r1, .L9+56
 1181 0056 154A     		ldr	r2, .L9+60
 1182 0058 FFF7FEFF 		bl	chprintf
 1183 005c 144B     		ldr	r3, .L9+64
 1184 005e 2046     		mov	r0, r4
 1185 0060 0093     		str	r3, [sp]
 1186 0062 1449     		ldr	r1, .L9+68
 1187 0064 144A     		ldr	r2, .L9+72
 1188 0066 154B     		ldr	r3, .L9+76
 1189 0068 FFF7FEFF 		bl	chprintf
 1190 006c 02B0     		add	sp, sp, #8
 1191              		@ sp needed
 1192 006e 10BD     		pop	{r4, pc}
 1193              	.L10:
 1194              		.align	2
 1195              	.L9:
 1196 0070 00000000 		.word	.LC0
 1197 0074 1C000000 		.word	.LC3
 1198 0078 24000000 		.word	.LC4
 1199 007c 38000000 		.word	.LC5
 1200 0080 44000000 		.word	.LC6
 1201 0084 58000000 		.word	.LC7
 1202 0088 A0000000 		.word	.LC8
 1203 008c B4000000 		.word	.LC9
 1204 0090 BC000000 		.word	.LC10
 1205 0094 D0000000 		.word	.LC11
 1206 0098 DC000000 		.word	.LC12
 1207 009c F0000000 		.word	.LC13
 1208 00a0 08010000 		.word	.LC14
ARM GAS  /tmp/ccLzt0L0.s 			page 89


 1209 00a4 1C010000 		.word	.LC15
 1210 00a8 48010000 		.word	.LC16
 1211 00ac 5C010000 		.word	.LC17
 1212 00b0 A8010000 		.word	.LC21
 1213 00b4 80010000 		.word	.LC18
 1214 00b8 98010000 		.word	.LC19
 1215 00bc A4010000 		.word	.LC20
 1216              		.size	cmd_info, .-cmd_info
 1217              		.section	.text._strtok.constprop.2,"ax",%progbits
 1218              		.align	2
 1219              		.p2align 4,,15
 1220              		.thumb
 1221              		.thumb_func
 1222              		.type	_strtok.constprop.2, %function
 1223              	_strtok.constprop.2:
 1224              		@ args = 0, pretend = 0, frame = 0
 1225              		@ frame_needed = 0, uses_anonymous_args = 0
 1226 0000 38B5     		push	{r3, r4, r5, lr}
 1227 0002 0446     		mov	r4, r0
 1228 0004 0D46     		mov	r5, r1
 1229 0006 90B1     		cbz	r0, .L12
 1230 0008 2860     		str	r0, [r5]
 1231              	.L13:
 1232 000a 2046     		mov	r0, r4
 1233 000c 0B49     		ldr	r1, .L22
 1234 000e FFF7FEFF 		bl	strspn
 1235 0012 0444     		add	r4, r4, r0
 1236 0014 2046     		mov	r0, r4
 1237 0016 0949     		ldr	r1, .L22
 1238 0018 FFF7FEFF 		bl	strpbrk
 1239 001c 60B1     		cbz	r0, .L21
 1240 001e 421C     		adds	r2, r0, #1
 1241 0020 0023     		movs	r3, #0
 1242 0022 2A60     		str	r2, [r5]
 1243 0024 0370     		strb	r3, [r0]
 1244              	.L16:
 1245 0026 2378     		ldrb	r3, [r4]	@ zero_extendqisi2
 1246 0028 23B1     		cbz	r3, .L17
 1247 002a 2046     		mov	r0, r4
 1248 002c 38BD     		pop	{r3, r4, r5, pc}
 1249              	.L12:
 1250 002e 0C68     		ldr	r4, [r1]
 1251 0030 002C     		cmp	r4, #0
 1252 0032 EAD1     		bne	.L13
 1253              	.L17:
 1254 0034 0020     		movs	r0, #0
 1255 0036 38BD     		pop	{r3, r4, r5, pc}
 1256              	.L21:
 1257 0038 2860     		str	r0, [r5]
 1258 003a F4E7     		b	.L16
 1259              	.L23:
 1260              		.align	2
 1261              	.L22:
 1262 003c B4010000 		.word	.LC22
 1263              		.size	_strtok.constprop.2, .-_strtok.constprop.2
 1264              		.section	.text.shellInit,"ax",%progbits
 1265              		.align	2
ARM GAS  /tmp/ccLzt0L0.s 			page 90


 1266              		.p2align 4,,15
 1267              		.global	shellInit
 1268              		.thumb
 1269              		.thumb_func
 1270              		.type	shellInit, %function
 1271              	shellInit:
 1272              		@ args = 0, pretend = 0, frame = 0
 1273              		@ frame_needed = 0, uses_anonymous_args = 0
 1274              		@ link register save eliminated.
 1275 0000 014B     		ldr	r3, .L25
 1276 0002 1B60     		str	r3, [r3]
 1277 0004 7047     		bx	lr
 1278              	.L26:
 1279 0006 00BF     		.align	2
 1280              	.L25:
 1281 0008 00000000 		.word	.LANCHOR0
 1282              		.size	shellInit, .-shellInit
 1283 000c AFF30080 		.section	.text.shellExit,"ax",%progbits
 1284              		.align	2
 1285              		.p2align 4,,15
 1286              		.global	shellExit
 1287              		.thumb
 1288              		.thumb_func
 1289              		.type	shellExit, %function
 1290              	shellExit:
 1291              		@ args = 0, pretend = 0, frame = 0
 1292              		@ frame_needed = 0, uses_anonymous_args = 0
 1293 0000 10B5     		push	{r4, lr}
 1294 0002 2023     		movs	r3, #32
 1295 0004 0446     		mov	r4, r0
 1296              	@ 546 "/home/cody/dev/chibios/trunk/os/ext/CMSIS/include/core_cmFunc.h" 1
 1297 0006 83F31188 		MSR basepri, r3
 1298              	@ 0 "" 2
 1299              		.thumb
 1300 000a 0448     		ldr	r0, .L28
 1301 000c 0021     		movs	r1, #0
 1302 000e FFF7FEFF 		bl	chEvtBroadcastFlagsI
 1303 0012 2046     		mov	r0, r4
 1304 0014 BDE81040 		pop	{r4, lr}
 1305 0018 FFF7FEBF 		b	chThdExitS
 1306              	.L29:
 1307              		.align	2
 1308              	.L28:
 1309 001c 00000000 		.word	.LANCHOR0
 1310              		.size	shellExit, .-shellExit
 1311              		.section	.text.shellCreate,"ax",%progbits
 1312              		.align	2
 1313              		.p2align 4,,15
 1314              		.global	shellCreate
 1315              		.thumb
 1316              		.thumb_func
 1317              		.type	shellCreate, %function
 1318              	shellCreate:
 1319              		@ args = 0, pretend = 0, frame = 0
 1320              		@ frame_needed = 0, uses_anonymous_args = 0
 1321 0000 00B5     		push	{lr}
 1322 0002 83B0     		sub	sp, sp, #12
ARM GAS  /tmp/ccLzt0L0.s 			page 91


 1323 0004 0090     		str	r0, [sp]
 1324 0006 034B     		ldr	r3, .L31
 1325 0008 0020     		movs	r0, #0
 1326 000a FFF7FEFF 		bl	chThdCreateFromHeap
 1327 000e 03B0     		add	sp, sp, #12
 1328              		@ sp needed
 1329 0010 5DF804FB 		ldr	pc, [sp], #4
 1330              	.L32:
 1331              		.align	2
 1332              	.L31:
 1333 0014 00000000 		.word	shell_thread
 1334              		.size	shellCreate, .-shellCreate
 1335 0018 AFF30080 		.section	.text.shellCreateStatic,"ax",%progbits
 1335      AFF30080 
 1336              		.align	2
 1337              		.p2align 4,,15
 1338              		.global	shellCreateStatic
 1339              		.thumb
 1340              		.thumb_func
 1341              		.type	shellCreateStatic, %function
 1342              	shellCreateStatic:
 1343              		@ args = 0, pretend = 0, frame = 0
 1344              		@ frame_needed = 0, uses_anonymous_args = 0
 1345 0000 00B5     		push	{lr}
 1346 0002 83B0     		sub	sp, sp, #12
 1347 0004 0090     		str	r0, [sp]
 1348 0006 0846     		mov	r0, r1
 1349 0008 1146     		mov	r1, r2
 1350 000a 1A46     		mov	r2, r3
 1351 000c 024B     		ldr	r3, .L34
 1352 000e FFF7FEFF 		bl	chThdCreateStatic
 1353 0012 03B0     		add	sp, sp, #12
 1354              		@ sp needed
 1355 0014 5DF804FB 		ldr	pc, [sp], #4
 1356              	.L35:
 1357              		.align	2
 1358              	.L34:
 1359 0018 00000000 		.word	shell_thread
 1360              		.size	shellCreateStatic, .-shellCreateStatic
 1361 001c AFF30080 		.section	.text.shellGetLine,"ax",%progbits
 1362              		.align	2
 1363              		.p2align 4,,15
 1364              		.global	shellGetLine
 1365              		.thumb
 1366              		.thumb_func
 1367              		.type	shellGetLine, %function
 1368              	shellGetLine:
 1369              		@ args = 0, pretend = 0, frame = 8
 1370              		@ frame_needed = 0, uses_anonymous_args = 0
 1371 0000 F0B5     		push	{r4, r5, r6, r7, lr}
 1372 0002 013A     		subs	r2, r2, #1
 1373 0004 83B0     		sub	sp, sp, #12
 1374 0006 0E46     		mov	r6, r1
 1375 0008 8F18     		adds	r7, r1, r2
 1376 000a 0446     		mov	r4, r0
 1377 000c 0D46     		mov	r5, r1
 1378              	.L37:
ARM GAS  /tmp/ccLzt0L0.s 			page 92


 1379 000e 2368     		ldr	r3, [r4]
 1380 0010 2046     		mov	r0, r4
 1381 0012 5B68     		ldr	r3, [r3, #4]
 1382 0014 0DF10701 		add	r1, sp, #7
 1383 0018 0122     		movs	r2, #1
 1384 001a 9847     		blx	r3
 1385 001c 50B3     		cbz	r0, .L46
 1386 001e 9DF80710 		ldrb	r1, [sp, #7]	@ zero_extendqisi2
 1387 0022 0429     		cmp	r1, #4
 1388 0024 29D0     		beq	.L50
 1389 0026 0829     		cmp	r1, #8
 1390 0028 11D0     		beq	.L40
 1391 002a 7F29     		cmp	r1, #127
 1392 002c 0FD0     		beq	.L40
 1393 002e 0D29     		cmp	r1, #13
 1394 0030 2AD0     		beq	.L51
 1395 0032 1F29     		cmp	r1, #31
 1396 0034 EBD9     		bls	.L37
 1397 0036 BD42     		cmp	r5, r7
 1398 0038 E9D2     		bcs	.L37
 1399 003a 2368     		ldr	r3, [r4]
 1400 003c 2046     		mov	r0, r4
 1401 003e 9B68     		ldr	r3, [r3, #8]
 1402 0040 9847     		blx	r3
 1403 0042 9DF80730 		ldrb	r3, [sp, #7]	@ zero_extendqisi2
 1404 0046 0135     		adds	r5, r5, #1
 1405 0048 05F8013C 		strb	r3, [r5, #-1]
 1406 004c DFE7     		b	.L37
 1407              	.L40:
 1408 004e B542     		cmp	r5, r6
 1409 0050 DDD0     		beq	.L37
 1410 0052 2368     		ldr	r3, [r4]
 1411 0054 2046     		mov	r0, r4
 1412 0056 9B68     		ldr	r3, [r3, #8]
 1413 0058 9847     		blx	r3
 1414 005a 2368     		ldr	r3, [r4]
 1415 005c 2046     		mov	r0, r4
 1416 005e 9B68     		ldr	r3, [r3, #8]
 1417 0060 2021     		movs	r1, #32
 1418 0062 9847     		blx	r3
 1419 0064 2368     		ldr	r3, [r4]
 1420 0066 2046     		mov	r0, r4
 1421 0068 9B68     		ldr	r3, [r3, #8]
 1422 006a 9DF80710 		ldrb	r1, [sp, #7]	@ zero_extendqisi2
 1423 006e 013D     		subs	r5, r5, #1
 1424 0070 9847     		blx	r3
 1425 0072 CCE7     		b	.L37
 1426              	.L46:
 1427 0074 0120     		movs	r0, #1
 1428 0076 03B0     		add	sp, sp, #12
 1429              		@ sp needed
 1430 0078 F0BD     		pop	{r4, r5, r6, r7, pc}
 1431              	.L50:
 1432 007a 2046     		mov	r0, r4
 1433 007c 0649     		ldr	r1, .L52
 1434 007e FFF7FEFF 		bl	chprintf
 1435 0082 0120     		movs	r0, #1
ARM GAS  /tmp/ccLzt0L0.s 			page 93


 1436 0084 03B0     		add	sp, sp, #12
 1437              		@ sp needed
 1438 0086 F0BD     		pop	{r4, r5, r6, r7, pc}
 1439              	.L51:
 1440 0088 2046     		mov	r0, r4
 1441 008a 0449     		ldr	r1, .L52+4
 1442 008c FFF7FEFF 		bl	chprintf
 1443 0090 0020     		movs	r0, #0
 1444 0092 2870     		strb	r0, [r5]
 1445 0094 03B0     		add	sp, sp, #12
 1446              		@ sp needed
 1447 0096 F0BD     		pop	{r4, r5, r6, r7, pc}
 1448              	.L53:
 1449              		.align	2
 1450              	.L52:
 1451 0098 B8010000 		.word	.LC23
 1452 009c BC010000 		.word	.LC24
 1453              		.size	shellGetLine, .-shellGetLine
 1454              		.section	.text.shell_thread,"ax",%progbits
 1455              		.align	2
 1456              		.p2align 4,,15
 1457              		.thumb
 1458              		.thumb_func
 1459              		.type	shell_thread, %function
 1460              	shell_thread:
 1461              		@ args = 0, pretend = 0, frame = 88
 1462              		@ frame_needed = 0, uses_anonymous_args = 0
 1463 0000 2DE9F041 		push	{r4, r5, r6, r7, r8, lr}
 1464 0004 574B     		ldr	r3, .L110
 1465 0006 0668     		ldr	r6, [r0]
 1466 0008 9B69     		ldr	r3, [r3, #24]
 1467 000a 574A     		ldr	r2, .L110+4
 1468 000c D0F80480 		ldr	r8, [r0, #4]
 1469 0010 96B0     		sub	sp, sp, #88
 1470 0012 3046     		mov	r0, r6
 1471 0014 9A61     		str	r2, [r3, #24]
 1472 0016 5549     		ldr	r1, .L110+8
 1473 0018 FFF7FEFF 		bl	chprintf
 1474              	.L55:
 1475 001c 5449     		ldr	r1, .L110+12
 1476 001e 3046     		mov	r0, r6
 1477 0020 FFF7FEFF 		bl	chprintf
 1478 0024 3046     		mov	r0, r6
 1479 0026 06A9     		add	r1, sp, #24
 1480 0028 4022     		movs	r2, #64
 1481 002a FFF7FEFF 		bl	shellGetLine
 1482 002e 0446     		mov	r4, r0
 1483 0030 0028     		cmp	r0, #0
 1484 0032 2FD1     		bne	.L106
 1485 0034 6946     		mov	r1, sp
 1486 0036 06A8     		add	r0, sp, #24
 1487 0038 FFF7FEFF 		bl	_strtok.constprop.2
 1488 003c 6946     		mov	r1, sp
 1489 003e 0746     		mov	r7, r0
 1490 0040 0020     		movs	r0, #0
 1491 0042 6D46     		mov	r5, sp
 1492 0044 FFF7FEFF 		bl	_strtok.constprop.2
ARM GAS  /tmp/ccLzt0L0.s 			page 94


 1493 0048 50B1     		cbz	r0, .L107
 1494              	.L61:
 1495 004a 042C     		cmp	r4, #4
 1496 004c 1BD0     		beq	.L108
 1497 004e 45F8040F 		str	r0, [r5, #4]!
 1498 0052 6946     		mov	r1, sp
 1499 0054 0020     		movs	r0, #0
 1500 0056 0134     		adds	r4, r4, #1
 1501 0058 FFF7FEFF 		bl	_strtok.constprop.2
 1502 005c 0028     		cmp	r0, #0
 1503 005e F4D1     		bne	.L61
 1504              	.L107:
 1505 0060 16AA     		add	r2, sp, #88
 1506 0062 02EB8403 		add	r3, r2, r4, lsl #2
 1507 0066 43F8540C 		str	r0, [r3, #-84]
 1508 006a 002F     		cmp	r7, #0
 1509 006c D6D0     		beq	.L55
 1510 006e 3846     		mov	r0, r7
 1511 0070 4049     		ldr	r1, .L110+16
 1512 0072 FFF7FEFF 		bl	strcasecmp
 1513 0076 C0B9     		cbnz	r0, .L62
 1514 0078 84B1     		cbz	r4, .L57
 1515 007a 3046     		mov	r0, r6
 1516 007c 3E49     		ldr	r1, .L110+20
 1517 007e 3D4A     		ldr	r2, .L110+16
 1518 0080 FFF7FEFF 		bl	chprintf
 1519 0084 CAE7     		b	.L55
 1520              	.L108:
 1521 0086 3046     		mov	r0, r6
 1522 0088 3C49     		ldr	r1, .L110+24
 1523 008a FFF7FEFF 		bl	chprintf
 1524 008e 0023     		movs	r3, #0
 1525 0090 0593     		str	r3, [sp, #20]
 1526 0092 C3E7     		b	.L55
 1527              	.L106:
 1528 0094 3046     		mov	r0, r6
 1529 0096 3A49     		ldr	r1, .L110+28
 1530 0098 FFF7FEFF 		bl	chprintf
 1531              	.L57:
 1532 009c 0020     		movs	r0, #0
 1533 009e FFF7FEFF 		bl	shellExit
 1534 00a2 0020     		movs	r0, #0
 1535 00a4 16B0     		add	sp, sp, #88
 1536              		@ sp needed
 1537 00a6 BDE8F081 		pop	{r4, r5, r6, r7, r8, pc}
 1538              	.L62:
 1539 00aa 3846     		mov	r0, r7
 1540 00ac 3549     		ldr	r1, .L110+32
 1541 00ae FFF7FEFF 		bl	strcasecmp
 1542 00b2 30B9     		cbnz	r0, .L109
 1543 00b4 3046     		mov	r0, r6
 1544 00b6 BCB1     		cbz	r4, .L67
 1545 00b8 2F49     		ldr	r1, .L110+20
 1546 00ba 324A     		ldr	r2, .L110+32
 1547 00bc FFF7FEFF 		bl	chprintf
 1548 00c0 ACE7     		b	.L55
 1549              	.L109:
ARM GAS  /tmp/ccLzt0L0.s 			page 95


 1550 00c2 314D     		ldr	r5, .L110+36
 1551 00c4 2868     		ldr	r0, [r5]
 1552 00c6 20B9     		cbnz	r0, .L75
 1553 00c8 31E0     		b	.L66
 1554              	.L74:
 1555 00ca 55F8080F 		ldr	r0, [r5, #8]!
 1556 00ce 0028     		cmp	r0, #0
 1557 00d0 2DD0     		beq	.L66
 1558              	.L75:
 1559 00d2 3946     		mov	r1, r7
 1560 00d4 FFF7FEFF 		bl	strcasecmp
 1561 00d8 0028     		cmp	r0, #0
 1562 00da F6D1     		bne	.L74
 1563              	.L105:
 1564 00dc 6B68     		ldr	r3, [r5, #4]
 1565 00de 2146     		mov	r1, r4
 1566 00e0 3046     		mov	r0, r6
 1567 00e2 01AA     		add	r2, sp, #4
 1568 00e4 9847     		blx	r3
 1569 00e6 99E7     		b	.L55
 1570              	.L67:
 1571 00e8 274D     		ldr	r5, .L110+36
 1572 00ea 2849     		ldr	r1, .L110+40
 1573 00ec FFF7FEFF 		bl	chprintf
 1574 00f0 2A68     		ldr	r2, [r5]
 1575 00f2 2C46     		mov	r4, r5
 1576 00f4 3AB1     		cbz	r2, .L71
 1577              	.L72:
 1578 00f6 3046     		mov	r0, r6
 1579 00f8 2549     		ldr	r1, .L110+44
 1580 00fa FFF7FEFF 		bl	chprintf
 1581 00fe 54F8082F 		ldr	r2, [r4, #8]!
 1582 0102 002A     		cmp	r2, #0
 1583 0104 F7D1     		bne	.L72
 1584              	.L71:
 1585 0106 B8F1000F 		cmp	r8, #0
 1586 010a 0BD0     		beq	.L70
 1587 010c D8F80020 		ldr	r2, [r8]
 1588 0110 42B1     		cbz	r2, .L70
 1589 0112 4446     		mov	r4, r8
 1590              	.L73:
 1591 0114 3046     		mov	r0, r6
 1592 0116 1E49     		ldr	r1, .L110+44
 1593 0118 FFF7FEFF 		bl	chprintf
 1594 011c 54F8082F 		ldr	r2, [r4, #8]!
 1595 0120 002A     		cmp	r2, #0
 1596 0122 F7D1     		bne	.L73
 1597              	.L70:
 1598 0124 3046     		mov	r0, r6
 1599 0126 1B49     		ldr	r1, .L110+48
 1600 0128 FFF7FEFF 		bl	chprintf
 1601 012c 76E7     		b	.L55
 1602              	.L66:
 1603 012e B8F1000F 		cmp	r8, #0
 1604 0132 0DD0     		beq	.L78
 1605 0134 D8F80000 		ldr	r0, [r8]
 1606 0138 50B1     		cbz	r0, .L78
ARM GAS  /tmp/ccLzt0L0.s 			page 96


 1607 013a 4546     		mov	r5, r8
 1608 013c 02E0     		b	.L79
 1609              	.L76:
 1610 013e 55F8080F 		ldr	r0, [r5, #8]!
 1611 0142 28B1     		cbz	r0, .L78
 1612              	.L79:
 1613 0144 3946     		mov	r1, r7
 1614 0146 FFF7FEFF 		bl	strcasecmp
 1615 014a 0028     		cmp	r0, #0
 1616 014c F7D1     		bne	.L76
 1617 014e C5E7     		b	.L105
 1618              	.L78:
 1619 0150 3A46     		mov	r2, r7
 1620 0152 3046     		mov	r0, r6
 1621 0154 1049     		ldr	r1, .L110+52
 1622 0156 FFF7FEFF 		bl	chprintf
 1623 015a 3046     		mov	r0, r6
 1624 015c 0F49     		ldr	r1, .L110+56
 1625 015e FFF7FEFF 		bl	chprintf
 1626 0162 5BE7     		b	.L55
 1627              	.L111:
 1628              		.align	2
 1629              	.L110:
 1630 0164 00000000 		.word	ch
 1631 0168 C0010000 		.word	.LC25
 1632 016c C8010000 		.word	.LC26
 1633 0170 E0010000 		.word	.LC27
 1634 0174 0C020000 		.word	.LC30
 1635 0178 00000000 		.word	.LC0
 1636 017c F4010000 		.word	.LC29
 1637 0180 E8010000 		.word	.LC28
 1638 0184 14020000 		.word	.LC31
 1639 0188 00000000 		.word	.LANCHOR1
 1640 018c 1C020000 		.word	.LC32
 1641 0190 34020000 		.word	.LC33
 1642 0194 BC010000 		.word	.LC24
 1643 0198 38020000 		.word	.LC34
 1644 019c 3C020000 		.word	.LC35
 1645              		.size	shell_thread, .-shell_thread
 1646              		.global	shell_terminated
 1647              		.section	.data.local_commands,"aw",%progbits
 1648              		.align	2
 1649              		.set	.LANCHOR1,. + 0
 1650              		.type	local_commands, %object
 1651              		.size	local_commands, 24
 1652              	local_commands:
 1653 0000 1C000000 		.word	.LC3
 1654 0004 00000000 		.word	cmd_info
 1655 0008 0C000000 		.word	.LC1
 1656 000c 00000000 		.word	cmd_systime
 1657 0010 00000000 		.word	0
 1658 0014 00000000 		.word	0
 1659              		.section	.rodata.str1.4,"aMS",%progbits,1
 1660              		.align	2
 1661              	.LC0:
 1662 0000 55736167 		.ascii	"Usage: %s\015\012\000"
 1662      653A2025 
ARM GAS  /tmp/ccLzt0L0.s 			page 97


 1662      730D0A00 
 1663              	.LC1:
 1664 000c 73797374 		.ascii	"systime\000"
 1664      696D6500 
 1665              	.LC2:
 1666 0014 256C750D 		.ascii	"%lu\015\012\000"
 1666      0A00
 1667 001a 0000     		.space	2
 1668              	.LC3:
 1669 001c 696E666F 		.ascii	"info\000"
 1669      00
 1670 0021 000000   		.space	3
 1671              	.LC4:
 1672 0024 4B65726E 		.ascii	"Kernel:       %s\015\012\000"
 1672      656C3A20 
 1672      20202020 
 1672      20202573 
 1672      0D0A00
 1673 0037 00       		.space	1
 1674              	.LC5:
 1675 0038 332E302E 		.ascii	"3.0.0dev\000"
 1675      30646576 
 1675      00
 1676 0041 000000   		.space	3
 1677              	.LC6:
 1678 0044 436F6D70 		.ascii	"Compiler:     %s\015\012\000"
 1678      696C6572 
 1678      3A202020 
 1678      20202573 
 1678      0D0A00
 1679 0057 00       		.space	1
 1680              	.LC7:
 1681 0058 47434320 		.ascii	"GCC 4.8.4 20140526 (release) [ARM/embedded-4_8-bran"
 1681      342E382E 
 1681      34203230 
 1681      31343035 
 1681      32362028 
 1682 008b 63682072 		.ascii	"ch revision 211358]\000"
 1682      65766973 
 1682      696F6E20 
 1682      32313133 
 1682      35385D00 
 1683 009f 00       		.space	1
 1684              	.LC8:
 1685 00a0 41726368 		.ascii	"Architecture: %s\015\012\000"
 1685      69746563 
 1685      74757265 
 1685      3A202573 
 1685      0D0A00
 1686 00b3 00       		.space	1
 1687              	.LC9:
 1688 00b4 41524D76 		.ascii	"ARMv7-M\000"
 1688      372D4D00 
 1689              	.LC10:
 1690 00bc 436F7265 		.ascii	"Core Variant: %s\015\012\000"
 1690      20566172 
 1690      69616E74 
ARM GAS  /tmp/ccLzt0L0.s 			page 98


 1690      3A202573 
 1690      0D0A00
 1691 00cf 00       		.space	1
 1692              	.LC11:
 1693 00d0 436F7274 		.ascii	"Cortex-M3\000"
 1693      65782D4D 
 1693      3300
 1694 00da 0000     		.space	2
 1695              	.LC12:
 1696 00dc 506F7274 		.ascii	"Port Info:    %s\015\012\000"
 1696      20496E66 
 1696      6F3A2020 
 1696      20202573 
 1696      0D0A00
 1697 00ef 00       		.space	1
 1698              	.LC13:
 1699 00f0 41647661 		.ascii	"Advanced kernel mode\000"
 1699      6E636564 
 1699      206B6572 
 1699      6E656C20 
 1699      6D6F6465 
 1700 0105 000000   		.space	3
 1701              	.LC14:
 1702 0108 506C6174 		.ascii	"Platform:     %s\015\012\000"
 1702      666F726D 
 1702      3A202020 
 1702      20202573 
 1702      0D0A00
 1703 011b 00       		.space	1
 1704              	.LC15:
 1705 011c 53544D33 		.ascii	"STM32F10x Performance Line Medium Density\000"
 1705      32463130 
 1705      78205065 
 1705      72666F72 
 1705      6D616E63 
 1706 0146 0000     		.space	2
 1707              	.LC16:
 1708 0148 426F6172 		.ascii	"Board:        %s\015\012\000"
 1708      643A2020 
 1708      20202020 
 1708      20202573 
 1708      0D0A00
 1709 015b 00       		.space	1
 1710              	.LC17:
 1711 015c 53544D69 		.ascii	"STMicroelectronics NUCLEO-F103RB\000"
 1711      63726F65 
 1711      6C656374 
 1711      726F6E69 
 1711      6373204E 
 1712 017d 000000   		.space	3
 1713              	.LC18:
 1714 0180 4275696C 		.ascii	"Build time:   %s%s%s\015\012\000"
 1714      64207469 
 1714      6D653A20 
 1714      20202573 
 1714      25732573 
 1715 0197 00       		.space	1
ARM GAS  /tmp/ccLzt0L0.s 			page 99


 1716              	.LC19:
 1717 0198 4A616E20 		.ascii	"Jan 22 2015\000"
 1717      32322032 
 1717      30313500 
 1718              	.LC20:
 1719 01a4 202D2000 		.ascii	" - \000"
 1720              	.LC21:
 1721 01a8 31353A30 		.ascii	"15:08:52\000"
 1721      383A3532 
 1721      00
 1722 01b1 000000   		.space	3
 1723              	.LC22:
 1724 01b4 200900   		.ascii	" \011\000"
 1725 01b7 00       		.space	1
 1726              	.LC23:
 1727 01b8 5E4400   		.ascii	"^D\000"
 1728 01bb 00       		.space	1
 1729              	.LC24:
 1730 01bc 0D0A00   		.ascii	"\015\012\000"
 1731 01bf 00       		.space	1
 1732              	.LC25:
 1733 01c0 7368656C 		.ascii	"shell\000"
 1733      6C00
 1734 01c6 0000     		.space	2
 1735              	.LC26:
 1736 01c8 0D0A4368 		.ascii	"\015\012ChibiOS/RT Shell\015\012\000"
 1736      6962694F 
 1736      532F5254 
 1736      20536865 
 1736      6C6C0D0A 
 1737 01dd 000000   		.space	3
 1738              	.LC27:
 1739 01e0 63683E20 		.ascii	"ch> \000"
 1739      00
 1740 01e5 000000   		.space	3
 1741              	.LC28:
 1742 01e8 0D0A6C6F 		.ascii	"\015\012logout\000"
 1742      676F7574 
 1742      00
 1743 01f1 000000   		.space	3
 1744              	.LC29:
 1745 01f4 746F6F20 		.ascii	"too many arguments\015\012\000"
 1745      6D616E79 
 1745      20617267 
 1745      756D656E 
 1745      74730D0A 
 1746 0209 000000   		.space	3
 1747              	.LC30:
 1748 020c 65786974 		.ascii	"exit\000"
 1748      00
 1749 0211 000000   		.space	3
 1750              	.LC31:
 1751 0214 68656C70 		.ascii	"help\000"
 1751      00
 1752 0219 000000   		.space	3
 1753              	.LC32:
 1754 021c 436F6D6D 		.ascii	"Commands: help exit \000"
ARM GAS  /tmp/ccLzt0L0.s 			page 100


 1754      616E6473 
 1754      3A206865 
 1754      6C702065 
 1754      78697420 
 1755 0231 000000   		.space	3
 1756              	.LC33:
 1757 0234 25732000 		.ascii	"%s \000"
 1758              	.LC34:
 1759 0238 257300   		.ascii	"%s\000"
 1760 023b 00       		.space	1
 1761              	.LC35:
 1762 023c 203F0D0A 		.ascii	" ?\015\012\000"
 1762      00
 1763 0241 000000   		.section	.bss.shell_terminated,"aw",%nobits
 1764              		.align	2
 1765              		.set	.LANCHOR0,. + 0
 1766              		.type	shell_terminated, %object
 1767              		.size	shell_terminated, 4
 1768              	shell_terminated:
 1769 0000 00000000 		.space	4
 1770              		.comm	__gnu_lto_v1,1,1
 1771              		.ident	"GCC: (GNU Tools for ARM Embedded Processors) 4.8.4 20140526 (release) [ARM/embedded-4_8-br
ARM GAS  /tmp/ccLzt0L0.s 			page 101


DEFINED SYMBOLS
                            *ABS*:0000000000000000 shell.c
     /tmp/ccLzt0L0.s:1075   .text.chprintf:0000000000000000 $t
     /tmp/ccLzt0L0.s:1080   .text.chprintf:0000000000000000 chprintf
     /tmp/ccLzt0L0.s:1098   .text.cmd_systime:0000000000000000 $t
     /tmp/ccLzt0L0.s:1103   .text.cmd_systime:0000000000000000 cmd_systime
     /tmp/ccLzt0L0.s:1131   .text.cmd_systime:0000000000000028 $d
     /tmp/ccLzt0L0.s:1136   .text.cmd_info:0000000000000000 $t
     /tmp/ccLzt0L0.s:1141   .text.cmd_info:0000000000000000 cmd_info
     /tmp/ccLzt0L0.s:1196   .text.cmd_info:0000000000000070 $d
     /tmp/ccLzt0L0.s:1218   .text._strtok.constprop.2:0000000000000000 $t
     /tmp/ccLzt0L0.s:1223   .text._strtok.constprop.2:0000000000000000 _strtok.constprop.2
     /tmp/ccLzt0L0.s:1262   .text._strtok.constprop.2:000000000000003c $d
     /tmp/ccLzt0L0.s:1265   .text.shellInit:0000000000000000 $t
     /tmp/ccLzt0L0.s:1271   .text.shellInit:0000000000000000 shellInit
     /tmp/ccLzt0L0.s:1281   .text.shellInit:0000000000000008 $d
     /tmp/ccLzt0L0.s:1284   .text.shellExit:0000000000000000 $t
     /tmp/ccLzt0L0.s:1290   .text.shellExit:0000000000000000 shellExit
     /tmp/ccLzt0L0.s:1309   .text.shellExit:000000000000001c $d
     /tmp/ccLzt0L0.s:1312   .text.shellCreate:0000000000000000 $t
     /tmp/ccLzt0L0.s:1318   .text.shellCreate:0000000000000000 shellCreate
     /tmp/ccLzt0L0.s:1333   .text.shellCreate:0000000000000014 $d
     /tmp/ccLzt0L0.s:1460   .text.shell_thread:0000000000000000 shell_thread
     /tmp/ccLzt0L0.s:1336   .text.shellCreateStatic:0000000000000000 $t
     /tmp/ccLzt0L0.s:1342   .text.shellCreateStatic:0000000000000000 shellCreateStatic
     /tmp/ccLzt0L0.s:1359   .text.shellCreateStatic:0000000000000018 $d
     /tmp/ccLzt0L0.s:1362   .text.shellGetLine:0000000000000000 $t
     /tmp/ccLzt0L0.s:1368   .text.shellGetLine:0000000000000000 shellGetLine
     /tmp/ccLzt0L0.s:1451   .text.shellGetLine:0000000000000098 $d
     /tmp/ccLzt0L0.s:1455   .text.shell_thread:0000000000000000 $t
     /tmp/ccLzt0L0.s:1630   .text.shell_thread:0000000000000164 $d
     /tmp/ccLzt0L0.s:1768   .bss.shell_terminated:0000000000000000 shell_terminated
     /tmp/ccLzt0L0.s:1648   .data.local_commands:0000000000000000 $d
     /tmp/ccLzt0L0.s:1652   .data.local_commands:0000000000000000 local_commands
     /tmp/ccLzt0L0.s:1660   .rodata.str1.4:0000000000000000 $d
     /tmp/ccLzt0L0.s:1764   .bss.shell_terminated:0000000000000000 $d
                            *COM*:0000000000000001 __gnu_lto_v1
     /tmp/ccLzt0L0.s:1135   .text.cmd_systime:0000000000000034 $t
     /tmp/ccLzt0L0.s:1283   .text.shellInit:000000000000000c $t
     /tmp/ccLzt0L0.s:1335   .text.shellCreate:0000000000000018 $t
     /tmp/ccLzt0L0.s:1361   .text.shellCreateStatic:000000000000001c $t

UNDEFINED SYMBOLS
chvprintf
strspn
strpbrk
chEvtBroadcastFlagsI
chThdExitS
chThdCreateFromHeap
chThdCreateStatic
strcasecmp
ch
