ARM GAS  /tmp/ccQ0n2Wm.s 			page 1


   1              		.syntax unified
   2              		.cpu cortex-m4
   3              		.eabi_attribute 27, 3
   4              		.eabi_attribute 28, 1
   5              		.fpu fpv4-sp-d16
   6              		.eabi_attribute 20, 1
   7              		.eabi_attribute 21, 1
   8              		.eabi_attribute 23, 3
   9              		.eabi_attribute 24, 1
  10              		.eabi_attribute 25, 1
  11              		.eabi_attribute 26, 1
  12              		.eabi_attribute 30, 2
  13              		.eabi_attribute 34, 1
  14              		.eabi_attribute 18, 4
  15              		.thumb
  16              		.file	"spi.c"
  17              		.section	.gnu.lto_.jmpfuncs.6c8c36663c2cdc02,"",%progbits
  18 0000 789C8590 		.ascii	"x\234\205\220K\016\2000\010D\031\250\326\177=\205gr"
  18      4B0E8030 
  18      084419A8 
  18      D67F3D85 
  18      6772
  19 0012 E9B617F0 		.ascii	"\351\266\027\360\374\202\215qa[\2330\217\300$@\231\230"
  19      FC828D71 
  19      615B9B30 
  19      8FC02440 
  19      9998
  20 0024 726F43E2 		.ascii	"roC\342\252\001\300\035\361.\260(\004*\316\2441i\205"
  20      AA01C01D 
  20      F12EB028 
  20      042ACEA4 
  20      316985
  21 0037 D5423B22 		.ascii	"\325B;\" $\352?\211|p\337\242\202\023D\321y)Z\372Jo"
  21      2024EA3F 
  21      897C70DF 
  21      A2821344 
  21      D179295A 
  22 004e B01D3223 		.ascii	"\260\0352#\307`k\375M\235\274]Pt\315\365\366\362|\005"
  22      C7606BFD 
  22      4D9DBC5D 
  22      5074CDF5 
  22      F6F27C05 
  23 0062 28BC295D 		.ascii	"(\274)]y\224\021~"
  23      7994117E 
  24              		.text
  25              		.section	.gnu.lto_.inline.6c8c36663c2cdc02,"",%progbits
  26 0000 789C8D91 		.ascii	"x\234\215\221;\022\203 \024E/\010\376\0005I\221&\211"
  26      3B128320 
  26      14452F08 
  26      FE003549 
  26      912689
  27 0013 A59D6596 		.ascii	"\245\235e\226\341\272,]\202\313p)Y\206\013H\021>\352"
  27      E1BA2C5D 
  27      82CB7029 
  27      59860B48 
  27      113EEA
  28 0026 10C73081 		.ascii	"\020\3070\201\031(\316y\274w\007\012\212\243\365&\356"
ARM GAS  /tmp/ccQ0n2Wm.s 			page 2


  28      1928CE79 
  28      BC77070A 
  28      8AA3F526 
  28      EE
  29 0037 AE002689 		.ascii	"\256\000&\211\225\342\261\266.\311\315\201\264\"\004"
  29      95E2B1B6 
  29      2EC9CD81 
  29      B42204
  30 0046 C6A2D174 		.ascii	"\306\242\321tE\366zZH\205fCG\221\235tU<\267H\347\326"
  30      45F67A5A 
  30      48856643 
  30      47919D74 
  30      553CB748 
  31 005c 27912904 		.ascii	"'\221)\004\345}\203\244o|\302\220\224\232\260\261\336"
  31      E57D83A4 
  31      6F7CC290 
  31      949AB0B1 
  31      DE
  32 006d 5A2D84FF 		.ascii	"Z-\204\377$\261\353\343\277\026IM\207n\350\022\210\313"
  32      24B1EBE3 
  32      BF16494D 
  32      876EE812 
  32      88CB
  33 007f 8EF142C7 		.ascii	"\216\361B\3071\314\354\024\371y\307\231\322\365\216"
  33      31CCEC14 
  33      F979C799 
  33      D2F58E
  34 008e 66419A43 		.ascii	"fA\232C\334\326\370\007Q\266\031\004\324#\340}\315#"
  34      DCD6F807 
  34      51B61904 
  34      D423E07D 
  34      CD23
  35 00a0 21EF01D7 		.ascii	"!\357\001\327\353\256\3766\013p\265\232\336\027.b\031"
  35      EBAEFE36 
  35      0B70B59A 
  35      DE172E62 
  35      19
  36 00b1 A4F800C5 		.ascii	"\244\370\000\305\0039\221"
  36      033991
  37              		.text
  38              		.section	.gnu.lto_.pureconst.6c8c36663c2cdc02,"",%progbits
  39 0000 789C6362 		.ascii	"x\234cb`bPd\200\000\001\006\011F)&+f+\026+V+6+v+\016"
  39      60625064 
  39      80000106 
  39      09462926 
  39      2B662B16 
  40 001c 2B4E2B2E 		.ascii	"+N+.+n+\036+^+>\011~\011\000?@\003\310"
  40      2B6E2B1E 
  40      2B5E2B3E 
  40      097E0900 
  40      3F4003C8 
  41              		.text
  42              		.section	.gnu.lto_spiInit.6c8c36663c2cdc02,"",%progbits
  43 0000 789C6362 		.ascii	"x\234cb`b@\007\222@\\\011\304\006@\314\310\314\300\310"
  43      60624007 
  43      92405C09 
  43      C40640CC 
ARM GAS  /tmp/ccQ0n2Wm.s 			page 3


  43      C8CCC0C8 
  44 0014 34E11C03 		.ascii	"4\341\034\003C#\007\023##\210\301\300\310P\317\304X"
  44      43230713 
  44      232388C1 
  44      C0C850CF 
  44      C458
  45 0026 1FC90856 		.ascii	"\037\311\010V\273\236\351\300\203\377\377\327\375\330"
  45      BB9EE9C0 
  45      83FFFFD7 
  45      FDD8
  46 0034 F8B01EA8 		.ascii	"\370\260\036\250\224\201\201\225\241\245\241a\202\002"
  46      94818195 
  46      A1A5A161 
  46      8202
  47 0042 03433258 		.ascii	"\003C2X>\004H\2024\20522\201h\346\363\014\315\017\376"
  47      3E044882 
  47      34853232 
  47      8168E6F3 
  47      0CCD0FFE 
  48 0056 D925322E 		.ascii	"\331%2.dd\005\312V3\374j\350h\020\310d\004\252\206\030"
  48      646405CA 
  48      5633FC6A 
  48      E86810C8 
  48      6404AA86 
  49 006b 9709A22F 		.ascii	"\227\011\242/24>\370\317\004S\004\001!@\011\240\001"
  49      32343EF8 
  49      CF045304 
  49      01214009 
  49      A001
  50 007d 20C7EAE9 		.ascii	" \307\352\351g\344\347\246\352'\347\247T\352\247\244"
  50      67E4E7A6 
  50      EA27E7A7 
  50      54EAA7A4 
  51 008d 96E92767 		.ascii	"\226\351'gd&e\346\027\353\227\024\225\346e\353\003\031"
  51      642665E6 
  51      17EB9714 
  51      95E665EB 
  51      0319
  52 009f 198939FA 		.ascii	"\031\2119\372\305E\311\372\305\005\231z\311\014\000"
  52      C545C9FA 
  52      C505997A 
  52      C90C00
  53 00ae A46C32F3 		.ascii	"\244l2\363"
  54              		.text
  55              		.section	.gnu.lto_spiObjectInit.6c8c36663c2cdc02,"",%progbits
  56 0000 789C8D90 		.ascii	"x\234\215\220=K\003A\020\206\337\231\313\305Xik'X\012"
  56      3D4B0341 
  56      1086DF99 
  56      CBC55869 
  56      6B27580A 
  57 0014 B7857F25 		.ascii	"\267\205\177%\202\226\311&\344\026\215'\271(\304\024"
  57      8296C926 
  57      E4168D27 
  57      B928C414 
  58 0024 B9680A41 		.ascii	"\271h\012A\204\324\261\022AP\374*S\246\262\363\013,"
  58      84D4B112 
  58      4150FC2A 
ARM GAS  /tmp/ccQ0n2Wm.s 			page 4


  58      53A6B2F3 
  58      0B2C
  59 0036 5258C426 		.ascii	"RX\304&b'\330\2044q\367\356\214\240)\034\330}gw\347"
  59      6227D884 
  59      3471F7EE 
  59      8CA0291C 
  59      D87D6777 
  60 004b 99991D06 		.ascii	"\231\231\035\006\343\267\315\351uF@N+Y n\336\003\365"
  60      E3B7CDE9 
  60      7546404E 
  60      2B59206E 
  60      DE03F5
  61 005e 14131907 		.ascii	"\024\023\031\007\204\032Sm\225\302\330k\356\364F\243"
  61      841A536D 
  61      95C2D86B 
  61      EEF446A3 
  62 006e AB9BDBD3 		.ascii	"\253\233\333\323\027j\3614S\221\220\204\012\037m4\202"
  62      176AF134 
  62      53919084 
  62      0A1F6D34 
  62      82
  63 007f A0390FC8 		.ascii	"\2409\017\310\360\230\326\273I\260Ll\324\272\303n\273"
  63      F098D6BB 
  63      49B04C6C 
  63      D4BAC36E 
  63      BB
  64 0090 DB1F5086 		.ascii	"\333\037P\206\216\311\306\"\316\003m3\212\350\010-R"
  64      8EC9C622 
  64      CE036D33 
  64      8AE8082D 
  64      52
  65 00a1 C405E215 		.ascii	"\304\005\342\025\255VX'\033\225\203\271!\343\033z\320"
  65      AD565827 
  65      1B9583B9 
  65      21E31B7A 
  65      D0
  66 00b2 EFF06F3A 		.ascii	"\357\360o:1\231\2461\235@L\267\337\376\322\366d\232"
  66      3199A631 
  66      9D404CB7 
  66      DFFED2F6 
  66      649A
  67 00c4 C7B41DD3 		.ascii	"\307\264\035\323\303\275\223C'\242\013\224\254bG\177"
  67      C3BD9343 
  67      27A20B94 
  67      AC62477F 
  68 00d4 394E5351 		.ascii	"9NSQ\224\234\234\306\372\231\361\003\032\037\357\335"
  68      949C9CC6 
  68      FA99F103 
  68      1A1FEFDD 
  69 00e4 CF471E0F 		.ascii	"\317G\036\017)r:\007\317\257\272F\224Y\306m\243\212"
  69      29723A07 
  69      CFAFBA46 
  69      9459C66D 
  69      A38A
  70 00f6 61B01FCC 		.ascii	"a\260\037\314*\232\222\244{\276\210\332\320\205\025"
  70      2A9A92A4 
  70      7BBE88DA 
ARM GAS  /tmp/ccQ0n2Wm.s 			page 5


  70      D08515
  71 0105 A58027D4 		.ascii	"\245\200'\324{\227\013\021\362mi\215\352!\233\306\035"
  71      7B970B11 
  71      F26D698D 
  71      EA219BC6 
  71      1D
  72 0116 E17AC5BC 		.ascii	"\341z\305\274\220^\256\"r\371m!]\225U\236/\312\245\255"
  72      905EAE22 
  72      72F96D21 
  72      5D95559E 
  72      2FCAA5AD 
  73 012a 8D35A11D 		.ascii	"\2155\241\0357\263.\374\222\024\376\246r$\226\376\023"
  73      37B32EFC 
  73      9214FEA6 
  73      722496FE 
  73      13
  74 013b EEF97A2B 		.ascii	"\356\371z+\225Cu\\|\001\303-\207\257"
  74      9543755C 
  74      7C01C32D 
  74      87AF
  75              		.text
  76              		.section	.gnu.lto_spiStart.6c8c36663c2cdc02,"",%progbits
  77 0000 789C8D50 		.ascii	"x\234\215PA+DQ\024\376\316}\017\023\013\226l\246\267"
  77      412B4451 
  77      14FECE7D 
  77      0F130B96 
  77      6CA6B7
  78 0013 518AE6FA 		.ascii	"Q\212\346\372\011J)\013\033C\261\322\233;\257\231\033"
  78      094A290B 
  78      1B43B1D2 
  78      9B3BAF99 
  78      1B
  79 0024 6FDEF49E 		.ascii	"o\336\364\236\021Yx\230dC\263\260\020Y\220R\022\333"
  79      11597898 
  79      6443B3B0 
  79      10599052 
  79      12DB
  80 0036 29165636 		.ascii	")\026V62\223\275\205\262\262c#Y\030\357\2767\206\244"
  80      3293BD85 
  80      B2B26323 
  80      5918EFBE 
  80      3786A4
  81 0049 3875EF39 		.ascii	"8u\3579u\276s\276\357;\014\014?\243+x\207\004l\004\231"
  81      75BE73BE 
  81      EF3B0C0C 
  81      3FA32B78 
  81      87046C04 
  82 005e 34102B55 		.ascii	"4\020+U\200\345\030#R\005\010K\214\226&)\304\236\261"
  82      80E51823 
  82      5205084B 
  82      8C962629 
  82      C49EB1
  83 0071 CBFB5AED 		.ascii	"\313\373Z\355\364\375\352\342\204\366X\233F6A\017>\325"
  83      F4FDEAE2 
  83      84F6589B 
  83      4636410F 
  83      3ED5
ARM GAS  /tmp/ccQ0n2Wm.s 			page 6


  84 0083 6D42D1F7 		.ascii	"mB\321\367K\006 B\354X\360\253\005\343\304T\326*Xy~"
  84      4B062042 
  84      EC58F0AB 
  84      05E3C454 
  84      D62A5879 
  85 0098 DC7AE86C 		.ascii	"\334z\350l\300L\332\247&\204\014\004WS\312\264H^\034"
  85      C04CDAA7 
  85      26840C04 
  85      5753CAB4 
  85      485E1C
  86 00ab ABB4E76F 		.ascii	"\253\264\347o\017\310\210t\202$\221\241\252F\177\255"
  86      0FC88874 
  86      822491A1 
  86      AA467FAD 
  87 00bb DEAFBBB9 		.ascii	"\336\257\273\271\301\312\365]y\263'Z\331\213c?\210v"
  87      C1CAF55D 
  87      79B3275A 
  87      D98B633F 
  87      8876
  88 00cd 49DA2E76 		.ascii	"I\332.v\202a=C\232Z\022\262!\025mE\206t\240\212\342"
  88      82613D43 
  88      9A5A12B2 
  88      21156D45 
  88      8674A08A 
  89 00e2 7D75B5F5 		.ascii	"}u\265\365S\313\"\336\374u\277CR\263 \252\2434I-!Ey"
  89      53CB22DE 
  89      FC75BF43 
  89      52B320AA 
  89      A334492D 
  90 00f9 FBE5957E 		.ascii	"\373\345\225~R\304~\247\370R\036S\032\377c\336\244\303"
  90      52C47EA7 
  90      F8521E53 
  90      1AFF63DE 
  90      A4C3
  91 010b E0FCA159 		.ascii	"\340\374\241Y|3k\322\021\305#\305\267X~:8\327\033\263"
  91      7C336BD2 
  91      11C523C5 
  91      B7587E3A 
  91      38D71BB3 
  92 011f 88EE4CEA 		.ascii	"\210\356L\352\276\012\233\340Y\307\266\270p\322\013"
  92      BE0A9BE0 
  92      59C7B6B8 
  92      70D20B
  93 012e 3C6DCD71 		.ascii	"<m\315q\221\225)\351x|\326-\344\246yPd\315\031\356\271"
  93      919529E9 
  93      787CD62D 
  93      E4A67950 
  93      64CD19EE 
  94 0143 827B7999 		.ascii	"\202{y\231\020\030\370\013n\315\317\362\301\221\344"
  94      1018F80B 
  94      6ECDCFF2 
  94      C191E4
  95 0152 7092CB9C 		.ascii	"p\222\313\234\230)\244\025\326\265\246\204=T\310\211"
  95      9829A415 
  95      D6B5A684 
  95      3D54C889 
  96 0162 44161D23 		.ascii	"D\026\035#\311Q#ezV\336\225}Fw?\230\213\026\333\262"
ARM GAS  /tmp/ccQ0n2Wm.s 			page 7


  96      C9512365 
  96      7A56DE95 
  96      7D46773F 
  96      988B16DB 
  97 0177 1D77011F 		.ascii	"\035w\001\037\027\022\211t"
  97      17128974 
  98              		.text
  99              		.section	.gnu.lto_spiStop.6c8c36663c2cdc02,"",%progbits
 100 0000 789C8D50 		.ascii	"x\234\215P\261J\003A\020\235\331\313\031\255L\251M\270"
 100      B14A0341 
 100      109DD9CB 
 100      19AD4CA9 
 100      4DB8
 101 0012 C64AC9FA 		.ascii	"\306J\311\372\011\001A\260Hc\024\264\222\273\315\341"
 101      090141B0 
 101      486314B4 
 101      92BBCDE1 
 102 0022 2DE672E1 		.ascii	"-\346r\341.\021\203B.1\210\215\220\302B\024\011\202"
 102      2E118342 
 102      2E31888D 
 102      90C24214 
 102      0982
 103 0034 A058686B 		.ascii	"\240Xhk\027\261\2612bk%X\331EK\021\342\356m\014b\243"
 103      17B1B132 
 103      626B2558 
 103      D9454B11 
 103      E2EE6D0C 
 104 004a 03BBF3D8 		.ascii	"\003\273\363\330y\357\315\354\020 \360;\306\305a\010"
 104      79EFCDEC 
 104      1020F03B 
 104      C6C56108 
 105 005a B027326A 		.ascii	"\260'2j\200\244\331\001\250\015\023D\011\000\241J\260"
 105      80A4D901 
 105      A80D1344 
 105      0900A14A 
 105      B0
 106 006b BA8C11F7 		.ascii	"\272\214\021\367\212\334<\367z\227Ow\255Ol\221\021\015"
 106      8ADC3CF7 
 106      7A974F77 
 106      AD4F6C91 
 106      110D
 107 007d DDE85D87 		.ascii	"\335\350]\207F\0306\015\345\003\260 n\251]D\"\263\326"
 107      4618360D 
 107      E503B020 
 107      6EA95D44 
 107      22B3D6
 108 0090 81FADBEB 		.ascii	"\201\372\333\353\376\313\330\200f\342\011\352\020\231"
 108      FECBD880 
 108      66E209EA 
 108      1099
 109 009e 23F89A1C 		.ascii	"#\370\232\034JS\223%a\033\217\303\2034W\375\226\220"
 109      4A539325 
 109      611B8FC3 
 109      833457FD 
 109      9690
 110 00b0 231A120D 		.ascii	"#\032\022\015\352;\375z\377#\017\320\350\336\266\267"
 110      EA3BFD7A 
ARM GAS  /tmp/ccQ0n2Wm.s 			page 8


 110      FF230FD0 
 110      E8DEB6B7 
 111 00c0 BE1D37E1 		.ascii	"\276\0357\341#\334\015\023\0345\206\312b\0255\2161\200"
 111      23DC0D13 
 111      1C3586CA 
 111      6215358E 
 111      3180
 112 00d2 7BA85F9F 		.ascii	"{\250_\237W\025o\022.B\021\243\034\365#8\024=\206\004"
 112      57156F12 
 112      2E4211A3 
 112      1CF52338 
 112      143D8604 
 113 00e6 4BF68A47 		.ascii	"K\366\212G\022K)\243\356\272\304\377\371\200\211\247"
 113      124B29A3 
 113      EEBAC4FF 
 113      F98089A7 
 114 00f6 627BD1C0 		.ascii	"b{\321\300\360c`\023\3170\251\354\036\241\326}o\307"
 114      F0636013 
 114      CF30A9EC 
 114      1EA1D67D 
 114      6FC7
 115 0108 065A50BB 		.ascii	"\006ZP\273B\271#\311MQ\307sm\312\274\\\205\346\354u"
 115      42B923C9 
 115      4D51C773 
 115      6DCABC5C 
 115      85E6EC75 
 116 011c CA1C6E71 		.ascii	"\312\034nq/\240%\277\\X\243\0028f\236\006>\243A\221"
 116      2FA025BF 
 116      5C58A302 
 116      38669E06 
 116      3EA34191 
 117 0130 A718A4FF 		.ascii	"\247\030\244\377\242\333\033%:\223\311\316e)/\260|9"
 117      A2DB1B25 
 117      3A93C9CE 
 117      65292FB0 
 117      7C39
 118 0142 27B9BEBD 		.ascii	"'\271\276\275\302\334\331r\201\245\034Hd\262\363\206"
 118      C2DCD972 
 118      81A51C48 
 118      64B2F386 
 119 0152 650676D1 		.ascii	"e\006v\321\347S\306\3044\020\037\342\256\355z~\005\276"
 119      E753C6C4 
 119      34101FE2 
 119      AEED7A7E 
 119      05BE
 120 0164 0088087C 		.ascii	"\000\210\010|\006"
 120      06
 121              		.text
 122              		.section	.gnu.lto_spiSelect.6c8c36663c2cdc02,"",%progbits
 123 0000 789C854F 		.ascii	"x\234\205O\261J\003A\020}\263\233`\312\224\332\204k"
 123      B14A0341 
 123      107DB39B 
 123      60CA94DA 
 123      846B
 124 0012 D249D64F 		.ascii	"\322I\326O\010\010\202E\032OA+\271l\016o1\227\013w\211"
 124      08088245 
 124      1A4F412B 
ARM GAS  /tmp/ccQ0n2Wm.s 			page 9


 124      B96C0E6F 
 124      31970B77 
 125 0027 182C7289 		.ascii	"\030,r\211A,\024,R\330X\010\001\301B\343\037X[D,\354"
 125      412C142C 
 125      52D85808 
 125      01C142E3 
 125      1F585B44 
 126 003d 45AB74DA 		.ascii	"E\253t\332\332\304\333\273\030\304B\027fgv\347\315\274"
 126      DAC4DBBB 
 126      18C44217 
 126      666776E7 
 126      CDBC
 127 004f F718187E 		.ascii	"\367\030\030~\237\205(\362\004\234F\2318\210\235\215"
 127      9F8528F2 
 127      049C4699 
 127      38889D8D 
 128 005f 804E8611 		.ascii	"\200N\206\021\351\002\2046\243\366\026\305\330[v\377"
 128      E9028436 
 128      A3F616C5 
 128      D85B76FF 
 129 006f 3299DC0C 		.ascii	"2\231\334\014\037\006't\3152\234\334\370?\215^\030\236"
 129      1F062774 
 129      CD329CDC 
 129      F83F8D5E 
 129      189E
 130 0081 19808C9F 		.ascii	"\031\200\214\237\353\321\255g7\210\351\314G\350~\214"
 130      EBD1AD67 
 130      3788E9CC 
 130      47E87E8C 
 131 0091 FB6FF333 		.ascii	"\373o\3633\230E\227\224F\274\234\340s-\212'\312r8\244"
 131      98459794 
 131      46BC9CE0 
 131      732D8A27 
 131      CA7238A4 
 132 00a5 8BF0BCA8 		.ascii	"\213\360\274\250\022\276MRD\206\256f\375\243i\177j\344"
 132      12BE4D52 
 132      4486AE66 
 132      FDA3697F 
 132      6AE4
 133 00b7 11BDE1AB 		.ascii	"\021\275\341\253\371\275\360\000\237\341q\230U\304%"
 133      F9BDF000 
 133      9FE17198 
 133      55C425
 134 00c6 251B7688 		.ascii	"%\033v\210+J\001\221\206\273q_\376%\301\242A\344?\246"
 134      2B4A0191 
 134      86BB715F 
 134      FE25C1A2 
 134      41E43FA6 
 135 00da C40F4A8B 		.ascii	"\304\017J\213\256(\227\220=\241\363\336}N\315f\221\270"
 135      AE289790 
 135      3DA1F3DE 
 135      7D4ECD66 
 135      91B8
 136 00ec 25ED5263 		.ascii	"%\355Rc\013\302\361\\[H\257\322\022\025{OHG\225\225"
 136      0BC2F15C 
 136      5B48AFD2 
 136      12157B4F 
ARM GAS  /tmp/ccQ0n2Wm.s 			page 10


 136      48479595 
 137 0100 178886DF 		.ascii	"\027\210\206\337\254\355\212\250p\254\252\010|)\202"
 137      ACED8AA8 
 137      70ACAA08 
 137      7C2982
 138 010f BA2A4814 		.ascii	"\272*H\024\377\203\333\373\015\261\\2WM\241j\262\332"
 138      FF83DBFB 
 138      0DB15C32 
 138      574DA16A 
 138      B2DA
 139 0121 AC68AC6F 		.ascii	"\254h\254ooKw\245Y\223\005\007\331\222\271f\224\255"
 139      6F4B77A5 
 139      59930507 
 139      D992B966 
 139      94AD
 140 0133 C0AEFB6A 		.ascii	"\300\256\373j\321\310/\201\371\230sm\327\363[\370\002"
 140      D1C82F81 
 140      F998736D 
 140      D7F35BF8 
 140      02
 141 0144 00C66D75 		.ascii	"\000\306mu"
 142              		.text
 143              		.section	.gnu.lto_spiUnselect.6c8c36663c2cdc02,"",%progbits
 144 0000 789C854F 		.ascii	"x\234\205O=K\003A\020}\263\227`\312\224\332\204k\322"
 144      3D4B0341 
 144      107DB397 
 144      60CA94DA 
 144      846BD2
 145 0013 49D69F10 		.ascii	"I\326\237\020\020\004\2134F\301Tr\331\034\336b.\027"
 145      10048B34 
 145      46C15472 
 145      D91CDE62 
 145      2E17
 146 0025 F6123158 		.ascii	"\366\0221X\344\022\203\330\010)R\330X(\212M\360\343"
 146      E41283D8 
 146      082952D8 
 146      58288A4D 
 146      F0E3
 147 0037 1F585B44 		.ascii	"\037X[D,\355\004\253t\012V6\361\366.\006\261\320\205"
 147      2CED04AB 
 147      740A5636 
 147      F1F62E06 
 147      B1D085
 148 004a D999DD79 		.ascii	"\331\231\335y3\357=\006\206\337g!\214,\001\307a&\003"
 148      33EF3D06 
 148      86DF6721 
 148      8C2C01C7 
 148      612603
 149 005d C4FA23A0 		.ascii	"\304\372#\240\223bD\272\000\241\315\250]\242\010{\303"
 149      936244BA 
 149      00A1CDA8 
 149      5DA2087B 
 149      C3
 150 006e EE5F2693 		.ascii	"\356_&\223\353\217\207\313!\015Y\312 7\372O\242\027"
 150      EB8F87CB 
 150      210D59CA 
 150      2037FA4F 
ARM GAS  /tmp/ccQ0n2Wm.s 			page 11


 150      A217
 151 0080 047D1310 		.ascii	"\004}\023\020\321s=\274\365\354\0061\235\215\021\272"
 151      D1733DBC 
 151      F5EC0631 
 151      9D8D11BA 
 152 0090 EFE3C1EB 		.ascii	"\357\343\301\353\374\014f\321\031%\021-'(C\2132be\031"
 152      FC0C66D1 
 152      1925112D 
 152      2728438B 
 152      32626519 
 153 00a4 1CD06970 		.ascii	"\034\320ip\222\2271\337&I\"SW\263\376\341\264?5\362"
 153      929731DF 
 153      26492253 
 153      57B3FEE1 
 153      B43F35F2 
 154 00b8 88DE6DB7 		.ascii	"\210\336m\267\364\275p\037\237\301Q\220\226d\010\212"
 154      F4BD701F 
 154      9FC15190 
 154      9664088A 
 155 00c8 376C9321 		.ascii	"7l\223!)\001\204\032\356\306\003\361\227\004\213.B\377"
 155      2901841A 
 155      EEC603F1 
 155      97048B2E 
 155      42FF
 156 00da 11257E50 		.ascii	"\021%~PZtE\231\230\354\011\235\267\363\347\304l\026"
 156      5A744599 
 156      98EC099D 
 156      B7F3E7C4 
 156      6C16
 157 00ec B15BD22E 		.ascii	"\261[\322.56\307\035\317\265\271\360*-^\261w\271pdY"
 157      3536C71D 
 157      CFB5B9F0 
 157      2A2D5EB1 
 157      77B97064 
 158 0101 7A3E6FA8 		.ascii	"z>o\250fm\207\207\205cU\271\257\004\367\3532'\220\377"
 158      666D8787 
 158      856355B9 
 158      AF04F7EB 
 158      322790FF 
 159 0115 0F6EEF35 		.ascii	"\017n\3575\370r\241\270Z\344\262&\252\315\212\306*{"
 159      F872A1B8 
 159      5AE4B226 
 159      AACD8AC6 
 159      2A7B
 160 0127 4BB82BCD 		.ascii	"K\270+\315\232\3109H\027\212kf\331\362\355\272\222\213"
 160      9AC83948 
 160      178A6B66 
 160      D9F2EDBA 
 160      928B
 161 0139 6676094C 		.ascii	"fv\011La\316\265]O\265\360\005_\212m\246"
 161      61CEB55D 
 161      4FB5F005 
 161      5F8A6DA6 
 162              		.text
 163              		.section	.gnu.lto_spiStartIgnore.6c8c36663c2cdc02,"",%progbits
 164 0000 789C8550 		.ascii	"x\234\205P=K\003A\020}\263\353\251X\331\251\215\\c\243"
 164      3D4B0341 
ARM GAS  /tmp/ccQ0n2Wm.s 			page 12


 164      107DB3EB 
 164      A958D9A9 
 164      8D5C63A3 
 165 0014 92F52704 		.ascii	"\222\365'\004\004\301\"\215Q\320J.\233#Y\364\022\271"
 165      04C1228D 
 165      51D04A2E 
 165      9B2359F4 
 165      12B9
 166 0026 2462B0C8 		.ascii	"$b\260\310%\212\010\"\004\261\020?\012A\2603\010\026"
 166      258A0822 
 166      04B1103F 
 166      0A41B033 
 166      0816
 167 0038 1616FE00 		.ascii	"\026\026\376\000?\320?\240`e\247\255M\334\275K\202X"
 167      3FD03FA0 
 167      6065A7AD 
 167      4DDCBD4B 
 167      8258
 168 004a E8C2CE0C 		.ascii	"\350\302\316\014\314{\363\336\014\003\303\3577\244\177"
 168      CC7BF3DE 
 168      0C03C3EF 
 168      37A47F
 169 0059 8A805D9D 		.ascii	"\212\200]\235\211\203X\375\001\250\3662\"S\200PaTY\240"
 169      898358FD 
 169      01A8F632 
 169      22538050 
 169      615459A0 
 170 006d 10DB60B7 		.ascii	"\020\333`\267\257\315\346\305\363\316\32515X\037'\217"
 170      AFCDE6C5 
 170      F3CED531 
 170      35581F27 
 170      8F
 171 007e 60E960BA 		.ascii	"`\351`\272\0266\203\240n\0032\304\316\352h\006\314\021"
 171      163683A0 
 171      6E0332C4 
 171      CEEA6806 
 171      CC11
 172 0090 33993FA0 		.ascii	"3\231?\240\366\371\276\3776\330\2019tJ\026B\005\202"
 172      F6F9BEFF 
 172      36D88139 
 172      744A1642 
 172      0582
 173 00a2 CF8D331E 		.ascii	"\317\2153\036\331\033\306\006\235\004\007q\025\211\316"
 173      D91BC606 
 173      9D040771 
 173      1589CE
 174 00b1 9322B24D 		.ascii	"\223\"\262M\325\351o\265\372\255m\356Q\273\276\273\031"
 174      D5E96FB5 
 174      FAAD6DEE 
 174      51BBBEBB 
 174      19
 175 00c2 88268E61 		.ascii	"\210&\216aT\021?\302\241\246ue\210\033z\250\023n\331"
 175      54113FC2 
 175      A1A67565 
 175      881B7AA8 
 175      136ED9
 176 00d5 1EC8B92E 		.ascii	"\036\310\271.\036a\265]\254\343+\330\016\372\025uK\212"
ARM GAS  /tmp/ccQ0n2Wm.s 			page 13


 176      1E61B55D 
 176      ACE32BD8 
 176      0EFA1575 
 176      4B8A
 177 00e7 609A9A21 		.ascii	"`\232\232!KQ\017\240\275_\276\357\313\277\254;t\246"
 177      4B510FA0 
 177      BD5FBEEF 
 177      CBBFAC3B 
 177      74A6
 178 00f9 8F175AC5 		.ascii	"\217\027Z\305\017\253\016\235\323p\244\372\204\352\307"
 178      0FAB0E9D 
 178      D370A4FA 
 178      84EAC7
 179 0108 DE4B5787 		.ascii	"\336KW\207\213\350Jd\256c\2601\221\315{\256\220\371"
 179      8BE84A64 
 179      AE63B031 
 179      91CD7BAE 
 179      90F9
 180 011a 7459A4DD 		.ascii	"tY\244\335U!\263*\245\362\005Q\364K\271%\241\213\254"
 180      5521B32A 
 180      A5F20551 
 180      F44BB925 
 180      A18BAC
 181 012d B32C0ABE 		.ascii	"\263,\012\276\024\205\025\025\223\210\377\007w\327\212"
 181      14851515 
 181      9388FF07 
 181      77D78A
 182 013c 6232919C 		.ascii	"b2\221\234N\012\225\223\313\245\264\301\372\356\242"
 182      4E0A9593 
 182      CBA5B4C1 
 182      FAEEA2
 183 014b F4A64A39 		.ascii	"\364\246J9\031\313\242?\221\234\261SN\301]\361\325\270"
 183      19CBA23F 
 183      919CB153 
 183      4EC15DF1 
 183      D5B8
 184 015d 3D3201E6 		.ascii	"=2\001\346\243\307s\275\274_\3067R\357u\316"
 184      A3C773BD 
 184      BC5FC637 
 184      52EF75CE 
 185              		.text
 186              		.section	.gnu.lto_spiStartExchange.6c8c36663c2cdc02,"",%progbits
 187 0000 789C8550 		.ascii	"x\234\205P\261J\003A\020}\263kr\026\026\226Z(ilT\262"
 187      B14A0341 
 187      107DB36B 
 187      72161696 
 187      5A28696C 
 188 0016 7E822008 		.ascii	"~\202 \010\026i\214\202Vr\331\034\311b.'\227D\014\026"
 188      16698C82 
 188      5672D91C 
 188      C9622E27 
 188      97440C16 
 189 002a B9A8888D 		.ascii	"\271\250\210\215\220\"\205(\026\202`#\212\225\222\312"
 189      90228528 
 189      16826023 
 189      8A9592CA 
 190 003a 0FD088D6 		.ascii	"\017\320\210\326\026\202\225\235\02666\272{\027\203"
ARM GAS  /tmp/ccQ0n2Wm.s 			page 14


 190      1682959D 
 190      163636BA 
 190      7B1783
 191 0049 58E8C2CE 		.ascii	"X\350\302\316\014\314{o\336\014\003\303\3577\250\277"
 191      0CCC7B6F 
 191      DE0C03C3 
 191      EF37A8BF 
 192 0059 4FC0AECE 		.ascii	"O\300\256\316\304A\254\321\006\352\275\214\310\024 "
 192      C441ACD1 
 192      06EABD8C 
 192      C81420
 193 0068 D418D516 		.ascii	"\324\030\325\026)\304\236\263\353\247\317\317\263V\373"
 193      29C49EB3 
 193      EBA7CFCF 
 193      B356FB
 194 0077 F2915AAC 		.ascii	"\362\221Z\254\217\223K\210\351@q\035\230\245\003\327"
 194      8F934B88 
 194      E940711D 
 194      98A503D7 
 195 0087 A818B682 		.ascii	"\250\030\266\202\240\221\000d\310\232\323\321H\315\023"
 195      A0910064 
 195      C89AD3D1 
 195      48CD13
 196 0096 3399B7B1 		.ascii	"3\231\267\261\361\366\322|\036\350\302l:\242\030\302"
 196      F1F6D27C 
 196      1EE8C26C 
 196      3AA218C2 
 197 00a6 59049F1B 		.ascii	"Y\004\237\033\217<2:\214M:\014\366&U4~\201\024Q\302"
 197      8F3C323A 
 197      8C4D3A0C 
 197      F6265534 
 197      7E811451 
 198 00bb 54DDFE76 		.ascii	"T\335\376v\247\337\331\353\026\033W7\247C\221\342\030"
 198      A7DFD9EB 
 198      161B5737 
 198      A74391E2 
 198      18
 199 00cc 4615F103 		.ascii	"F\025\361\003\354kZO\216\270\241\207s\220\211\364BA"
 199      EC6B5A4F 
 199      8EB8A187 
 199      739089F4 
 199      4241
 200 00de 6E2CDFC1 		.ascii	"n,\337\301\372v\261\216\217`'\350W\024\227\024\3014"
 200      FA76B18E 
 200      8F6027E8 
 200      57149714 
 200      C134
 201 00f0 3547B11C 		.ascii	"5G\261\034\305sd)\262\000\275\301\305KS\376\265\200"
 201      C5736429 
 201      B200BDC1 
 201      C54B53FE 
 201      B580
 202 0102 4DC7FA16 		.ascii	"M\307\372\026\241a\3740l\323\011\015G\263\357Q\177}"
 202      A161FC30 
 202      6CD3090D 
 202      47B3EF51 
 202      7F7D
ARM GAS  /tmp/ccQ0n2Wm.s 			page 15


 203 0114 78EFE972 		.ascii	"x\357\351r\021\335\212\314\215\0146)\362\236\353\010"
 203      11DD8ACC 
 203      8D0C3629 
 203      F29EEB08 
 204 0124 E965AB22 		.ascii	"\351e\253\"\353\254\012\231W\031\345\225D\331\257\024"
 204      EBAC0A99 
 204      5719E595 
 204      44D9AF14 
 205 0134 97852EF2 		.ascii	"\227\205.\362vA\224|)J+*)1\371\037\334Y+\213\251Tz&"
 205      7641947C 
 205      294A2B2A 
 205      2931F91F 
 205      DC592B8B 
 206 014c 2D545116 		.ascii	"-TQ\026*Y\203\365\235%\351NW\2122\231G\177*=\233\310"
 206      2A5983F5 
 206      9D25E94E 
 206      578A3299 
 206      477F2A3D 
 207 0162 D82567C5 		.ascii	"\330%g\305W\343\211\221\0110\037\226\353\270\236_\305"
 207      57E38991 
 207      09301F96 
 207      EBB89E5F 
 207      C5
 208 0173 17F67578 		.ascii	"\027\366uxt"
 208      74
 209              		.text
 210              		.section	.gnu.lto_spiStartSend.6c8c36663c2cdc02,"",%progbits
 211 0000 789C8550 		.ascii	"x\234\205P;K\003A\020\376\346\326D\301\306R\233\220"
 211      3B4B0341 
 211      10FEE6D6 
 211      44C1C652 
 211      9B90
 212 0012 460495AC 		.ascii	"F\004\225\254?A\020\004\2134FA+\271l\216\334\252\227"
 212      3F411004 
 212      8B344641 
 212      2BB96C8E 
 212      DCAA97
 213 0025 0B778918 		.ascii	"\013w\211\030,r\211\"6B\212\024\342\243\020\004;\305"
 213      2C728922 
 213      36428A14 
 213      E2A31004 
 213      3BC5
 214 0037 CE52C152 		.ascii	"\316R\301R\023\374\003\"Z\331i\253\205\356\336\305 "
 214      13FC0322 
 214      5AD969AB 
 214      85EEDEC5 
 214      20
 215 0048 16BAB0B3 		.ascii	"\026\272\260\263\003\363\275v\014\030\370}\206\324]"
 215      03F3BD76 
 215      0C18F87D 
 215      86D45D
 216 0057 266057BD 		.ascii	"&`W\275\304@F\243\005\324\372\014\"\335\200P5\250\272"
 216      C44046A3 
 216      05D4FA0C 
 216      22DD8050 
 216      35A8BA
 217 006a 4821F6DC 		.ascii	"H!\366\334\270z\374\374<;l\337\\\323\303H?#\207\020"
ARM GAS  /tmp/ccQ0n2Wm.s 			page 16


 217      B87AFCFC 
 217      3C3B6CDF 
 217      5CD3C348 
 217      3F238710 
 218 007e 5385E2AA 		.ascii	"S\205\342\252h\351\030\266\202\240\221\004DH\230SU\253"
 218      68E918B6 
 218      82A09104 
 218      44489853 
 218      55AB
 219 0090 CCABA17A 		.ascii	"\314\253\241zY\013\365\267\227\346\363`\027f\3221\305"
 219      590BF5B7 
 219      97E6F360 
 219      1766D231 
 219      C5
 220 00a1 10DA103C 		.ascii	"\020\332\020<\246\343\261(c\002\233t\024\354M\312\310"
 220      A6E3B128 
 220      63029B74 
 220      14EC4DCA 
 220      C8
 221 00b2 79812451 		.ascii	"y\201$QRw\335\371vg\336\371\322\035\352\227\267\257"
 221      5277DDF9 
 221      7667DEF9 
 221      D21DEA97 
 221      B7AF
 222 00c4 8948710C 		.ascii	"\211Hq\014\243\222\330\001\366\025\255'OL\323C\037d"
 222      A392D801 
 222      F615AD27 
 222      4F4CD343 
 222      1F64
 223 00d6 23BD5090 		.ascii	"#\275P\2201\325\264\021\377N\261\201\367`'\030\220\024"
 223      31D5B411 
 223      FF4EB181 
 223      F7602718 
 223      9014
 224 00e8 1714C114 		.ascii	"\027\024\301\0245O\261<\305%\365\002*\376\305KS\374"
 224      354FB13C 
 224      C525F502 
 224      2AFEC54B 
 224      53FC
 225 00fa 95DEA413 		.ascii	"\225\336\244\023\265\3040-~\2445\351\224\022\221\361"
 225      B5C4302D 
 225      7EA435E9 
 225      941291F1 
 226 010a 3D6AAF4F 		.ascii	"=j\257O\037=].\242E\221^\220\306\246\270\355:\026\027"
 226      1F3D5D2E 
 226      A245915E 
 226      90C6A6B8 
 226      ED3A1617 
 227 011e 6EAEC273 		.ascii	"n\256\302s\326\032\027\266\314J\327\347%\257\\X\341"
 227      D61A17B6 
 227      CC4AD7E7 
 227      25AF5C58 
 227      E1
 228 012f AAB1CD55 		.ascii	"\252\261\315U\356{\202\373E\231\022\230\374\017n\255"
 228      EE7B82FB 
 228      45991298 
 228      FC0F6EAD 
ARM GAS  /tmp/ccQ0n2Wm.s 			page 17


 229 013f 97F8543A 		.ascii	"\227\370T:3\223\341\262 V\3139\215\365\254%\341L\227"
 229      3393E1B2 
 229      2056CB39 
 229      8DF5AC25 
 229      E14C97
 230 0152 0B226563 		.ascii	"\013\"ec \235\231MfM\337*zr<9<\001\303C\257c9\256W\301"
 230      209D994D 
 230      664DDF2A 
 230      7A723C39 
 230      3C01C343 
 231 016c 17465777 		.ascii	"\027FWw\373"
 231      FB
 232              		.text
 233              		.section	.gnu.lto_spiStartReceive.6c8c36663c2cdc02,"",%progbits
 234 0000 789C8550 		.ascii	"x\234\205P;K\003A\020\376\346\326K\004\233\224\332\204"
 234      3B4B0341 
 234      10FEE6D6 
 234      4B049B94 
 234      DA84
 235 0012 14DAA864 		.ascii	"\024\332\250d\375\011\001A\260\2601\012Z\311es$\253"
 235      FD090141 
 235      B0B0310A 
 235      5AC96573 
 235      24AB
 236 0024 5E2EDC19 		.ascii	"^.\334\0311Xx>\020\0331B\012Q,\004\301N\021,\354\264"
 236      3158783E 
 236      101B3142 
 236      0A512C04 
 236      C14E112C 
 237 003a B4F081FF 		.ascii	"\264\360\201\377@\260J\247\226\"\306\335\273\030\304"
 237      40B04AA7 
 237      9622C6DD 
 237      BB18C4
 238 0049 42177676 		.ascii	"B\027vv`\276\327\216\001\003\277O\217\272\263\004l\253"
 238      60BED78E 
 238      0103BF4F 
 238      8FBAB304 
 238      6CAB
 239 005b 9718C8A8 		.ascii	"\227\030\310\250\335\003\253\235\006\221n@X1he\232B"
 239      DD03AB9D 
 239      06916E40 
 239      58316865 
 239      9A42
 240 006d EC9971FD 		.ascii	"\354\231q\375\324l\236~\356\\}\320\215\321\305\310!"
 240      D46C9E7E 
 240      EE5C7DD0 
 240      8DD1C5C8 
 240      21
 241 007e 98AA504C 		.ascii	"\230\252PL\025-mb#\010j)@\204\204\011U\265\312\244\032"
 241      152D6D62 
 241      23086A29 
 241      40848409 
 241      55B5CAA4 
 242 0093 AA97DD63 		.ascii	"\252\227\335c\355\265Q\177\356n\303,:\"\023\241\015"
 242      EDB5517F 
 242      EE6EC32C 
 242      3A2213A1 
ARM GAS  /tmp/ccQ0n2Wm.s 			page 18


 242      0D
 243 00a4 C1633A1E 		.ascii	"\301c:\036\2132&\261N\207\301^FF\316S$\211R\272k\317"
 243      8B3226B1 
 243      4E87C15E 
 243      4646CE53 
 243      248952BA 
 244 00ba 375BF3D6 		.ascii	"7[\363\326\227\356\260vy{\321\033)\016\240_\022;\300"
 244      97EEB076 
 244      797BD11B 
 244      290EA05F 
 244      123BC0
 245 00cd BEA27514 		.ascii	"\276\242u\024\210iz\350\203\\\244\027\0122\246\232\007"
 245      88697AE8 
 245      835CA417 
 245      0A32A69A 
 245      07
 246 00de C4BE532C 		.ascii	"\304\276S,\343=\330\012\022\222b\202\"\230\242\026\310"
 246      E33DD80A 
 246      12926282 
 246      2298A216 
 246      C8
 247 00ef 2C504C52 		.ascii	",PLR\034P\361\317\033u\361Wz\213\216\325\022\303\264"
 247      1C50F1CF 
 247      1B75F157 
 247      7A8B8ED5 
 247      12C3B4
 248 0102 F891D6A2 		.ascii	"\370\221\326\242\023JF\306\217X}y\3335\333\\D\213\""
 248      134A46C6 
 248      8F587D79 
 248      DB35DB5C 
 248      448B22
 249 0115 BD208D4D 		.ascii	"\275 \215M\363\242\353\330\\\270\371*\317\333\213\\"
 249      F3A2EBD8 
 249      5CB8F92A 
 249      CFDB8B5C 
 250 0125 14654EBA 		.ascii	"\024eN\272>_\360*\2459\256\232\2425\317}Op\277,\323"
 250      3E5FF02A 
 250      A539AE9A 
 250      A235CF7D 
 250      4F70BF2C 
 251 013a 0299FFE0 		.ascii	"\002\231\377\340\366\322\002\037\036\313\216f\271,\211"
 251      F6D2021F 
 251      1ECB8E66 
 251      B92C89
 252 0149 F94A5E63 		.ascii	"\371J^c={F8#\225\222H\027\221\030\313\216\247r\226o"
 252      3D7B4638 
 252      23959248 
 252      179118CB 
 252      8EA77296 
 253 015e 973D3998 		.ascii	"\227=9\230\352\033\202\341!\356\330\216\353U\361\005"
 253      EA1B82E1 
 253      21EED88E 
 253      EB55F105 
 254 016e FDE27789 		.ascii	"\375\342w\211"
 255              		.text
 256              		.section	.gnu.lto_spiIgnore.6c8c36663c2cdc02,"",%progbits
 257 0000 789C8D51 		.ascii	"x\234\215Q=k\024Q\024=\347\315\216\033\277 \2456a\233"
ARM GAS  /tmp/ccQ0n2Wm.s 			page 19


 257      3D6B1451 
 257      143DE7CD 
 257      8E1BBF20 
 257      A536619B 
 258 0014 58A8EC13 		.ascii	"X\250\354\023\374\003\001A\260H\343F\320Jf\337\016\273"
 258      FC030141 
 258      B048E346 
 258      D04A66DF 
 258      0EBB
 259 0026 0F333B61 		.ascii	"\0173;afW\214)2\371@\264K\221B\015\021\"J\232h\264\263"
 259      66578C29 
 259      32F940B4 
 259      4B91420D 
 259      11224A9A 
 260 003d 8C7D4CD0 		.ascii	"\214}L\320_ h\223Fb%\004!\276\217d\024\021\365\301\334"
 260      5F206893 
 260      46622504 
 260      21BE8F64 
 260      1411F5C1 
 261 0052 7B8777EE 		.ascii	"{\207w\3569\367\236' \360\3739m\276/\004\336\232\314"
 261      39F79E27 
 261      20F0FB39 
 261      6DBE2F04 
 261      DE9ACC
 262 0065 00140B5B 		.ascii	"\000\024\013[\300\314\200 m\001bZp\372\006\035v]l|\334"
 262      C0CC8020 
 262      6D01625A 
 262      70FA061D 
 262      765D6C7C 
 263 007a DF7FB9FB 		.ascii	"\337\177\271\373\341\305\0327\305\311\200\011\021\232"
 263      E1C51A37 
 263      C5C98009 
 263      119A
 264 0088 C02AB443 		.ascii	"\300*\264C\204\230/\212\205\032\240\334\357\230\211"
 264      84982F8A 
 264      851AA0DC 
 264      EF9889
 265 0097 96E51A85 		.ascii	"\226\345\032\205\315\301\026f\277\356,~:U\302\"\256"
 265      CDC11666 
 265      BFEE2C7E 
 265      3A55C222 
 265      AE
 266 00a8 30849321 		.ascii	"0\204\223!\262\300\216\027\370\031\2070\307\345\342"
 266      B2C08E17 
 266      F8198730 
 266      C7E5E2
 267 00b7 E188A663 		.ascii	"\341\210\246c\272NMQ\263Uy\177\357\340>\360{\274\303"
 267      BA4E4D51 
 267      B355797F 
 267      EFE03EF0 
 267      7BBCC3
 268 00ca EC9BCDEF 		.ascii	"\354\233\315\357\303\236\361\034\316jV\226\360\330\264"
 268      C39EF11C 
 268      CE6A5696 
 268      F0D8B4
 269 00d9 856D06B6 		.ascii	"\205m\006\266\375\210\2035\375&\216\260b[\267\021\036"
 269      FD888335 
ARM GAS  /tmp/ccQ0n2Wm.s 			page 20


 269      FD268EB0 
 269      625BB711 
 269      1E
 270 00ea 4E3185BD 		.ascii	"N1\205\275\342~1\250YU^\025\246\265\315Ps\300\361\357"
 270      E27E31A8 
 270      59555E15 
 270      A6B5CD50 
 270      73C0F1EF 
 271 00fe CDAD9CF1 		.ascii	"\315\255\234\361\3306\253S\270kvvBG\377,\304\237&oc"
 271      D836AB53 
 271      B86B7676 
 271      4247FF2C 
 271      C49F266F 
 272 0113 FED593E7 		.ascii	"\376\325\223\347\337N\224\213\373b\343\301\347\312\241"
 272      DF4E948B 
 272      FB62E3C1 
 272      E7CAA1
 273 0122 098A076F 		.ascii	"\011\212\007oSNqL1\210\270\356\0152\212\232\307\001"
 273      534E714C 
 273      3188B8EE 
 273      0D328A9A 
 273      C701
 274 0134 63E1EB9D 		.ascii	"c\341\353\235E\3657\007#>3\2468\307\360\213c\021W9\344"
 274      45F53707 
 274      233E33A6 
 274      38C7F08B 
 274      63115739 
 275 0149 25DE6366 		.ascii	"%\336cf\367\351\243ro\177\306\314\300\346\221,\266."
 275      F7E9A372 
 275      6F7FC6CC 
 275      C0E6912C 
 275      B62E
 276 015b 3B69124B 		.ascii	";i\022K\225\266&e+\276-UG7u\232\313^\326\357\336\222"
 276      95B62665 
 276      2BBE2D55 
 276      4737759A 
 276      CB5ED6EF 
 277 0171 A6E844E3 		.ascii	"\246\350D\3432\317\224\314't]a\344_\360\370NO^\032m"
 277      32CF94CC 
 277      27745D61 
 277      E45FF0F8 
 277      4E4F5E1A 
 278 0186 5C6948DD 		.ascii	"\\iH\335U\343\375\226\305f\361M\225\\\356wU\275\203"
 278      55E3FD96 
 278      C566F14D 
 278      955CEE77 
 278      55BD83
 279 0199 C1D1C6D5 		.ascii	"\301\321\306\325Z3\312\343\211L\237\257\015_\200\310"
 279      5A33CAE3 
 279      894C9FAF 
 279      0D5F80C8 
 280 01a9 504DE224 		.ascii	"PM\342$\315&q\361\177fIs\023\262\236\313\206\357\007"
 280      CD2671F1 
 280      7F664973 
 280      13B29ECB 
 280      86EF07
 281 01bc 6DB6A6E3 		.ascii	"m\266\246\343"
ARM GAS  /tmp/ccQ0n2Wm.s 			page 21


 282              		.text
 283              		.section	.gnu.lto_spiExchange.6c8c36663c2cdc02,"",%progbits
 284 0000 789C8D51 		.ascii	"x\234\215Q=k\024Q\024=\347Mf'\253\202)\265\011\333\210"
 284      3D6B1451 
 284      143DE74D 
 284      6627AB82 
 284      29B509DB 
 285 0015 A0619FE0 		.ascii	"\240a\237\340\037\010\010B\2124\256\202V2\373v\330}"
 285      1F080842 
 285      8A34AE82 
 285      5632FB76 
 285      D87D
 286 0027 98D909B3 		.ascii	"\230\331\011\263\273bL\221\311\007\242]\300\024\242"
 286      BB624C91 
 286      C907A25D 
 286      C014A2
 287 0036 2844141B 		.ascii	"(D\024\0331\246\020,#Xj\202\235\225\010V\351\264\022"
 287      31A6102C 
 287      23586A82 
 287      9D950856 
 287      E9B412
 288 0049 8218DF47 		.ascii	"\202\030\337G2\212\210:\360\356\275\303;\347\236{\317"
 288      328A883A 
 288      F0EEBDC3 
 288      3BE79E7B 
 288      CF
 289 005a 1310F8FD 		.ascii	"\023\020\370\375;j\316w\002\257Lf\000\212\345M`~X\220"
 289      3B6ACE77 
 289      02AF4C66 
 289      008AE54D 
 289      607E5890 
 290 006e B6003127 		.ascii	"\266\0001'8w\211\016\273&6>\356\356>\373p\373\305S\276"
 290      3877890E 
 290      BB26363E 
 290      EEEE3EFB 
 290      70FBC553 
 291 0083 178703A6 		.ascii	"\027\207\003\246Dh\002+&\210\310\204\240\012\355\260"
 291      4468022B 
 291      2688C884 
 291      A00AEDB0 
 292 0093 21968A62 		.ascii	"!\226\212b\271\006(\367{\336D\333\357\002\205\315\301"
 292      B90628F7 
 292      7BDE44DB 
 292      EF0285CD 
 292      C1
 293 00a4 2616BE6C 		.ascii	"&\026\276l\257|:R\302b\2562\204\023$\362\300\016\032"
 293      AF7C3A52 
 293      C262AE32 
 293      841324F2 
 293      C00E1A
 294 00b7 F86947B1 		.ascii	"\370iG\261\310\373\305\235qM\327\351\"5E\315V\345\375"
 294      C8FBC59D 
 294      714DD7E9 
 294      223545CD 
 294      56E5FD
 295 00ca 8DBDFBC0 		.ascii	"\215\275\373\300o\364\026\013/\337|;\356;\236\304\011"
 295      6FF4160B 
ARM GAS  /tmp/ccQ0n2Wm.s 			page 22


 295      2FDF7C3B 
 295      EE3B9EC4 
 295      09
 296 00db CDA17BB8 		.ascii	"\315\241{\270kha\233\201\245W\034\254\351wr\015\207"
 296      6B68619B 
 296      81A5571C 
 296      ACE97772 
 296      0D87
 297 00ed 2C750BD1 		.ascii	",u\013\321\376\024\263\330)n\026#\232\221\362\2520\324"
 297      FE14B3D8 
 297      296E1623 
 297      9A91F2AA 
 297      30D4
 298 00ff B66D5069 		.ascii	"\266mPi3\322\034v*;\213\253c\236\321fu\026\327\315\346"
 298      33D21C76 
 298      2A3B8BAB 
 298      639ED166 
 298      7516D7CD 
 299 0114 4EAEFA67 		.ascii	"N\256\372g9\3764}\013K\317\037<\376z\250\\\337\027\033"
 299      39FE347D 
 299      0B4BCF1F 
 299      3CFE7AA8 
 299      5CDF171B 
 300 0128 B75E87FB 		.ascii	"\267^\207\373V(\356\275U9\313\001\305 \346\232\267\311"
 300      5628EEBD 
 300      5539CB01 
 300      C520E69A 
 300      B7C9
 301 013a 286A1E04 		.ascii	"(j\036\004\214\221\353\333+\352o>\306|d\254q\276\341"
 301      8C91EBDB 
 301      2BEA6F3E 
 301      C67C64AC 
 301      71BEE1
 302 014d 17DF623E 		.ascii	"\027\337b>\341\250\227x\207\371\317\017\327\303\222"
 302      E1A89778 
 302      87F9CF0F 
 302      D7C392
 303 015c 0BFF64B4 		.ascii	"\013\377d\264Oe\261u\331\311\322D\252\2545#[\311U\251"
 303      4F65B175 
 303      D9C9D244 
 303      AAAC3523 
 303      5BC955A9 
 304 0170 3ABAA9B3 		.ascii	":\272\251\263\236\354\347\203\356\025i\212N<%{\271\222"
 304      9EECE783 
 304      EE15698A 
 304      4E3C257B 
 304      B992
 305 0182 BD695D57 		.ascii	"\275i]W\030\377\027<\271\326\227g&\033\023\015\251\273"
 305      18FF173C 
 305      B9D69767 
 305      261B130D 
 305      A9BB
 306 0194 6A6AD0B2 		.ascii	"jj\320\262\330<\271\254\322\263\203\256\252w02\3318"
 306      D83CB9AC 
 306      D2B383AE 
 306      AA773032 
 306      D938
ARM GAS  /tmp/ccQ0n2Wm.s 			page 23


 307 01a6 576BC6BD 		.ascii	"Wk\306\275d:\327c\265c\247 rDi\222f\371\014N\377\317"
 307      643AD763 
 307      B563A720 
 307      72446992 
 307      66F90C4E 
 308 01bc 2C59CF84 		.ascii	",Y\317\204\274\357\262\351\367\003\331\373\250\216"
 308      BCEFB2E9 
 308      F703D9FB 
 308      A88E
 309              		.text
 310              		.section	.gnu.lto_spiSend.6c8c36663c2cdc02,"",%progbits
 311 0000 789C8D51 		.ascii	"x\234\215Q=k\024Q\024=\347Mf\263~ )M\023\266\261\361"
 311      3D6B1451 
 311      143DE74D 
 311      66B37E20 
 311      294D13B6 
 312 0016 639FE01F 		.ascii	"c\237\340\037\010\010B\2124\256\202V2\373v\330}\230"
 312      0808428A 
 312      34AE8256 
 312      32FB76D8 
 312      7D98
 313 0028 D90933BB 		.ascii	"\331\0113\273bL\221\311\007b\272\024ADQ\020\024;\243"
 313      624C91C9 
 313      0762BA14 
 313      41445110 
 313      143BA3
 314 003b 9556127B 		.ascii	"\225V\022{M\260\023\004\021\255\002)L\243\220&\276\217"
 314      4DB01304 
 314      11AD0229 
 314      4CA39026 
 314      BE8F
 315 004d CD2822EA 		.ascii	"\315(\"\352\300\273\367\016\357\334s\356=O@\340\367"
 315      C0BBF70E 
 315      EFDC73EE 
 315      3D4F40E0 
 315      F7
 316 005e 6FD49C6F 		.ascii	"o\324\234o\004^\233\314\000\024+\033\300|U\220\266\000"
 316      045E9BCC 
 316      00142B1B 
 316      C07C5590 
 316      B600
 317 0070 31273877 		.ascii	"1'8w\231\016\273&\326?\355\355=}\177\373\3256?\210#"
 317      990EBB26 
 317      D63FEDED 
 317      3D7D7FFB 
 317      D5363F88 
 318 0085 01132234 		.ascii	"\001\023\"4\201\025\023D\025\332\301B,\025\305J\015"
 318      81151344 
 318      15DAC142 
 318      2C15C54A 
 318      0D
 319 0096 50EEF782 		.ascii	"P\356\367\202\211\226\352\"\205\315\301\006\026v\266"
 319      8996EA22 
 319      85CDC106 
 319      1676B6
 320 00a5 56BF1C2D 		.ascii	"V\277\034-a\021\0372\204\323\"\262\300\316\030\370A"
 320      61111F32 
ARM GAS  /tmp/ccQ0n2Wm.s 			page 24


 320      84D322B2 
 320      C0CE18F8 
 320      41
 321 00b6 C7B0C8FB 		.ascii	"\307\260\310\373\305\235qM\307t\211\232\242f\253\362"
 321      C59D714D 
 321      C774899A 
 321      A266ABF2 
 322 00c6 FEE6E03E 		.ascii	"\376\346\340>\360\313\274\305\302\3137\333\247<\343"
 322      F0CBBCC5 
 322      C2CB37DB 
 322      A73CE3
 323 00d5 091CD71C 		.ascii	"\011\034\327\034\272\207\273\246-l3\260\355\025\007"
 323      BA87BBA6 
 323      2D6C33B0 
 323      ED1507
 324 00e4 6BFA751C 		.ascii	"k\372u\034\341\220m\335De\177\212Y\354\026\267\212\021"
 324      E1906DDD 
 324      44657F8A 
 324      59EC16B7 
 324      8A11
 325 00f6 CD61E555 		.ascii	"\315a\345UaZ\333\226\240\242Yu\022\273\213;\003\211"
 325      615ADB96 
 325      A0A25975 
 325      12BB8B3B 
 325      0389
 326 0108 36ABB3B8 		.ascii	"6\253\263\270a\326vZ\007\376\254\305\237fob\351\331"
 326      61D6765A 
 326      07FEACC5 
 326      9F666F62 
 326      E9D9
 327 011a 83C7DF0F 		.ascii	"\203\307\337\017\227\273\373b}\371c\270\357\203\342"
 327      97BBFB62 
 327      7DF963B8 
 327      EF83E2
 328 0129 E08DCA41 		.ascii	"\340\215\312A\016*\006\021\327\274GFQ\363\020`\\|\276"
 328      0E2A0611 
 328      D7BC4746 
 328      51F31060 
 328      5C7CBE
 329 013c B5AAFE66 		.ascii	"\265\252\376fb\304G\306\027g\032~1-\342\023\216y\211"
 329      62C447C6 
 329      17671A7E 
 329      312DE213 
 329      8E7989
 330 014f 7798FFFA 		.ascii	"w\230\377\372\371EX\366\302\277\027\355;Yl]v\322$\226"
 330      F94558F6 
 330      C2BF17ED 
 330      3B596C5D 
 330      76D22496 
 331 0163 2A6DCDC8 		.ascii	"*m\315\310V|M\252\216n\3524\227\275\254\337\275*M\321"
 331      567C4DAA 
 331      8E6EEA34 
 331      97BDACDF 
 331      BD2A4DD1 
 332 0177 89A6649E 		.ascii	"\211\246d\236)\231O\353\272\302\370\277\340\361\365"
 332      29994FEB 
 332      BAC2F8BF 
ARM GAS  /tmp/ccQ0n2Wm.s 			page 25


 332      E0F1F5
 333 0186 9E3C3BD9 		.ascii	"\236<;\331\230hH\335US\375\226\305f\361\025\225\234"
 333      986848DD 
 333      5553FD96 
 333      C566F115 
 333      959C
 334 0198 EB7755BD 		.ascii	"\353wU\275\203\221\311\306\371Z3\312\343\351L\237\254"
 334      8391C9C6 
 334      F95A33CA 
 334      E3E94C9F 
 334      AC
 335 01a9 1D3B0D91 		.ascii	"\035;\015\221a8\211\2234\233\301\231\377\231%\315M\310"
 335      61388993 
 335      349BC199 
 335      FF9925CD 
 335      4DC8
 336 01bb 7A2E1BBE 		.ascii	"z.\033\276\037Z\345\250\211"
 336      1F5AE5A8 
 336      89
 337              		.text
 338              		.section	.gnu.lto_spiReceive.6c8c36663c2cdc02,"",%progbits
 339 0000 789C8D51 		.ascii	"x\234\215Q=k\024Q\024=\347Mf\263~ )\265\011\333\330"
 339      3D6B1451 
 339      143DE74D 
 339      66B37E20 
 339      29B509DB 
 340 0015 A8EC13FC 		.ascii	"\250\354\023\374\003\001A\260H\343F\320Jf\337\016\273"
 340      030141B0 
 340      48E346D0 
 340      4A66DF0E 
 340      BB
 341 0026 0F333B61 		.ascii	"\0173;afW\214)2\371@L\227\"\205(\012\212b#F\273\024"
 341      66578C29 
 341      32F9404C 
 341      97228528 
 341      0A8A6223 
 342 003d 81C45E13 		.ascii	"\201\304^\023\255,U\254\322i\243\020\204\370>6\243\210"
 342      AD2C55AC 
 342      D269A310 
 342      84F83E36 
 342      A388
 343 004f A803EFDE 		.ascii	"\250\003\357\336;\274s\317\271\367<\001\201\337\277"
 343      3BBC73CF 
 343      B9F73C01 
 343      81DFBF
 344 005e 63E67C25 		.ascii	"c\346|%\360\322d\006\240X\336\002\346\252\202\264\005"
 344      F0D26406 
 344      A058DE02 
 344      E6AA82B4 
 344      05
 345 006f 8859C1D9 		.ascii	"\210Y\301\331\313t\330U\261\371ao\357\331\233w\353O"
 345      CB74D855 
 345      B1F9616F 
 345      EFD99B77 
 345      EB4F
 346 0081 F95E1C09 		.ascii	"\371^\034\011\230\020\241\011\254\230 \252\320\016\026"
 346      9810A109 
ARM GAS  /tmp/ccQ0n2Wm.s 			page 26


 346      AC9820AA 
 346      D00E16
 347 0090 62B12896 		.ascii	"b\261(\226k\200r\277\023&Z\252\213\0246\007[\230\377"
 347      6B8072BF 
 347      13265AAA 
 347      8B143607 
 347      5B98FF
 348 00a3 B2B3F2E9 		.ascii	"\262\263\362\351h\011\213\370\200!\234\026\221\005v"
 348      68098BF8 
 348      80219C16 
 348      910576
 349 00b2 C6C00F3A 		.ascii	"\306\300\017:\212\005\336+n\217i:\246K\324\0245[\225"
 349      8A05DE2B 
 349      6E8F693A 
 349      A64BD414 
 349      355B95
 350 00c5 F73707F7 		.ascii	"\3677\007\367\201_\3465\346\327^\255K\317x\022'4\207"
 350      815FE635 
 350      E6D75EAD 
 350      4BCF7812 
 350      273487
 351 00d8 EEE28E69 		.ascii	"\356\342\216i\013\333\014l{\305\301\232~\035G8d[\267"
 351      0BDB0C6C 
 351      7BC5C19A 
 351      7E1D4738 
 351      645BB7
 352 00eb 51D99F62 		.ascii	"Q\331\237b\006\273\305\255bDsXyU\230\326\266%\250hV"
 352      06BBC5AD 
 352      62447358 
 352      795598D6 
 352      B625A868 
 353 0100 9DC4EEC2 		.ascii	"\235\304\356\302\307\201D\233\325\031\3340k;\255\003"
 353      C781449B 
 353      D519DC30 
 353      6B3BAD03 
 354 0110 7FD6E24F 		.ascii	"\177\326\342O\263\267\261\370\374\376\343o\207\313\335"
 354      B3B7B1F8 
 354      FCFEE36F 
 354      87CBDD
 355 011f 7DB1B9F4 		.ascii	"}\261\271\364=\334\367Aq\360F\345 \007\025\203\210\253"
 355      3DDCF741 
 355      71F046E5 
 355      20071583 
 355      88AB
 356 0131 DE23A3A8 		.ascii	"\336#\243\250y\0100.\276\330YQ\17731\342#\343\2133\015"
 356      7908302E 
 356      BED85951 
 356      7F3331E2 
 356      23E38B33 
 357 0146 BF9816F1 		.ascii	"\277\230\026\361\011G\275\304[\314}~\270\021\226\275"
 357      0947BDC4 
 357      5BCC7D7E 
 357      B81196BD 
 358 0156 F0EF45FB 		.ascii	"\360\357E\373N\026[\227\2354\211\245J[\323\262\025_"
 358      4E165B97 
 358      9D3489A5 
 358      4A5BD3B2 
ARM GAS  /tmp/ccQ0n2Wm.s 			page 27


 358      155F
 359 0168 93AAA39B 		.ascii	"\223\252\243\233:\315e/\353w\257JSt\242I\231gJ\346S"
 359      3ACD652F 
 359      EB77AF4A 
 359      5374A249 
 359      99674AE6 
 360 017d BAAE30F6 		.ascii	"\272\2560\366/x|\275'\317\2167\3167\244\356\252\311"
 360      2F787CBD 
 360      27CF8E37 
 360      CE37A4EE 
 360      AAC9
 361 018f 7ECB62B3 		.ascii	"~\313b\263\370\212J\316\365\273\252\336\301\310x\343"
 361      F88A4ACE 
 361      F5BBAADE 
 361      C1C878E3 
 362 019f 42AD19E5 		.ascii	"B\255\031\345\361T\246O\325\216\237\206\3100\234\304"
 362      F154A64F 
 362      D58E9F86 
 362      C8309CC4 
 363 01af 499A4DE3 		.ascii	"I\232M\343\314\377\314\222\346&d=\227\015\337\017\320"
 363      CCFFCC92 
 363      E626643D 
 363      970DDF0F 
 363      D0
 364 01c0 F2A82E   		.ascii	"\362\250."
 365              		.text
 366              		.section	.gnu.lto_spiAcquireBus.6c8c36663c2cdc02,"",%progbits
 367 0000 789C8D50 		.ascii	"x\234\215P\261J\003A\020}o\317\023K[;KA\274-\374\225"
 367      B14A0341 
 367      107D6FCF 
 367      134B5B3B 
 367      4B41BC2D 
 368 0016 085A585C 		.ascii	"\010ZX\\\366Bn\321xr\027\005M\221\213\006\261L\255 "
 368      F6426ED1 
 368      78721705 
 368      4D918B06 
 368      B14CAD20 
 369 002a D8A4B050 		.ascii	"\330\244\260P\221|@z1bkum@\320J!M\234\273S\021+\037"
 369      917C407A 
 369      31626B75 
 369      6D40D04A 
 369      214D9CBB 
 370 0042 CCBCB7CC 		.ascii	"\314\274\267\314\274\231a\025\024\376bA\342U\"\220\240"
 370      BC996115 
 370      14FE6241 
 370      E2552290 
 370      A0
 371 0053 03AADE08 		.ascii	"\003\252\336\010\350\314)2\027 \332\212\355\015\026"
 371      E8CC2932 
 371      1720DA8A 
 371      ED0D16
 372 0062 BD376A98 		.ascii	"\2757j\230M\247\327w\317\375\027\216\325,\331\240L\264"
 372      4DA7D777 
 372      CFFD178E 
 372      D52CD9A0 
 372      4CB4
 373 0074 45D14537 		.ascii	"E\321E7M{\213\200)\236\025\311\371\2005\252\234\235"
ARM GAS  /tmp/ccQ0n2Wm.s 			page 28


 373      4D7B8B80 
 373      299E15C9 
 373      F98035AA 
 373      9C9D
 374 0086 071C4D8E 		.ascii	"\007\034M\216?\006K>/\351\242N\325\302\241\030\227q"
 374      3F064B3E 
 374      2FE9A24E 
 374      D5C2A118 
 374      9771
 375 0098 950A362D 		.ascii	"\225\0126-y\2163Z\252:\271.\354\024\013\253\374u\351"
 375      798E335A 
 375      AA3AB92E 
 375      EC140BAB 
 375      FC75E9
 376 00ab 23BA6FE3 		.ascii	"#\272o\343\333\367\214?\253J1\274\037\235\270@9\331"
 376      DBF78C3F 
 376      AB4A31BC 
 376      1F9DB840 
 376      39D9
 377 00bd F0CBD2C2 		.ascii	"\360\313\322\302$=M\347-g\014\225\317\276\324\004\262"
 377      243D4DE7 
 377      2D670C95 
 377      CFBED404 
 377      B2
 378 00ce D8E6EA09 		.ascii	"\330\346\352\011\235\354b\245\264|\243\"V95\377\"O\207"
 378      9DEC62A5 
 378      B47CA322 
 378      563935FF 
 378      224F87
 379 00e1 51A3A64D 		.ascii	"Q\243\246M\024\034\350\240\266\257Mh\2536Jt3\336\333"
 379      141CE8A0 
 379      B6AF4D68 
 379      AB364A74 
 379      33DEDB
 380 00f4 D9D22242 		.ascii	"\331\322\"B\177['\261\321\311\256\365\014V\377\323\036"
 380      7F5B27B1 
 380      D1C9AEF5 
 380      0C56FFD3 
 380      1E
 381 0105 2592E266 		.ascii	"%\222\342f\301^\210O\265)a\217"
 381      C15E884F 
 381      B529618F 
 382              		.text
 383              		.section	.gnu.lto_spiReleaseBus.6c8c36663c2cdc02,"",%progbits
 384 0000 789C8D50 		.ascii	"x\234\215P1K\303P\020\376\276\027#\216\256n\316\212"
 384      314BC350 
 384      10FEBE17 
 384      238EAE6E 
 384      CE8A
 385 0012 79837FA5 		.ascii	"y\203\177\245\202\216\351Ki\036Z\243I\025\264CS\355"
 385      828EE94B 
 385      691E5AA3 
 385      4915B443 
 385      53ED
 386 0024 E0985927 		.ascii	"\340\230Y'\227\014\016:\271JwQqu\220\256\242`q)t\251"
 386      970C0E3A 
 386      B94A7751 
ARM GAS  /tmp/ccQ0n2Wm.s 			page 29


 386      717590AE 
 386      A2607129 
 387 003a 9744459C 		.ascii	"\227DE\234\374\340\356\373\036w\337\335\361\024\024"
 387      FCE0EEFB 
 387      1E77DFDD 
 387      F11414
 388 0049 FE6241E2 		.ascii	"\376bA\342]\"\220\240\003\252\354\036\350\315)\262\020"
 388      5D2290A0 
 388      03AAEC1E 
 388      E8CD29B2 
 388      10
 389 005a 20BA8ADD 		.ascii	" \272\212\335\015\226\275Wj0\234N/?\236\3627\276\252"
 389      0D96BD57 
 389      6A309C4E 
 389      2F3F9EF2 
 389      37BEAA
 390 006d 59B24599 		.ascii	"Y\262E\231h\313\242\213~\232f\213\200)\2375\311\305"
 390      68CBA28B 
 390      7E9A668B 
 390      80299F35 
 390      C9C5
 391 007f 8035AA82 		.ascii	"\2005\252\202\235;\034M\216\307\327K>\317\351\242I\325"
 391      9D3B1C4D 
 391      8EC7D74B 
 391      3ECFE9A2 
 391      49D5
 392 0091 C1A11897 		.ascii	"\301\241\030\227q\221\012v-y\206SZ\252&\271.\354\224"
 392      71910A76 
 392      2D798653 
 392      5AAA26B9 
 392      2EEC94
 393 00a4 0BEBFC75 		.ascii	"\013\353\374u\351\003\372\243\227l<\342\317\252J\014"
 393      E903FAA3 
 393      976C3CE2 
 393      CFAA4A0C 
 394 00b4 6E9F7317 		.ascii	"n\237s\027\250&\033~Y:\230\244'\351\274\345\214\241"
 394      A8261B7E 
 394      593A98A4 
 394      27E9BCE5 
 394      8CA1
 395 00c6 F2994B4D 		.ascii	"\362\231KM \213m\241\036\321\033\336\254T\226o\324\304"
 395      208B6DA1 
 395      1ED11BDE 
 395      AC54966F 
 395      D4C4
 396 00d8 2AA7165F 		.ascii	"*\247\026_\344\3510j5\264\211\202\003\0354\366\265\011"
 396      E4E9306A 
 396      35B48982 
 396      031D34F6 
 396      B509
 397 00ea 6DDD4689 		.ascii	"m\335F\211n\307{\333\233ZD\350o\351$6:\331\261\236\301"
 397      6EC77BDB 
 397      9B5A44E8 
 397      6FE92436 
 397      3AD9B19E 
 398 00ff EA7FDAA3 		.ascii	"\352\177\332\243DR\334.\331\013\361\011D\213b)"
 398      4452DC2E 
ARM GAS  /tmp/ccQ0n2Wm.s 			page 30


 398      D90BF109 
 398      448B6229 
 399              		.text
 400              		.section	.gnu.lto_.symbol_nodes.6c8c36663c2cdc02,"",%progbits
 401 0000 789C4DCD 		.ascii	"x\234M\315YJ\003A\020\306\361\352o\262\316L\366}9\220"
 401      594A0341 
 401      10C6F1EA 
 401      6FB2CE4C 
 401      F67D3990 
 402 0014 B7FA46C7 		.ascii	"\267\372F\307%\356\021DD$\010y\021\257\341\273g\320"
 402      25EE1144 
 402      44240879 
 402      11AFE1BB 
 402      67D0
 403 0026 8B188DD5 		.ascii	"\213\030\215\325X\325/\177~Tu7\004r\000\321\203]\240"
 403      58D52F7F 
 403      7E547537 
 403      047200D1 
 403      835DA0
 404 0039 C8FA4384 		.ascii	"\310\372C\204\334\254\002\01208\036\202p<\002\023\307"
 404      DCAC020A 
 404      30381E82 
 404      703C0213 
 404      C7
 405 004a 12AC381E 		.ascii	"\022\2548\036\203U\307\023\260\346x\012\326\035\317"
 405      8355C713 
 405      B0E6780A 
 405      D61DCF
 406 0059 C086E30A 		.ascii	"\300\206\343\012l:\236\203\251\343\005\2309^\202\271"
 406      6C3A9E83 
 406      A9E30598 
 406      395E82B9 
 407 0069 E315D872 		.ascii	"\343\025\330r\274\006\333\2167`\307\030n\301\256\262"
 407      BC06DB8E 
 407      3760C718 
 407      6EC1AEB2 
 408 0079 28425883 		.ascii	"(BX\203=\323\035\3307\335\203\003\323\00384=\202#\323"
 408      3DD31DD8 
 408      37DD8303 
 408      D3033834 
 408      3D8223D3 
 409 008d 1338363D 		.ascii	"\02386=\203\023\323\006\234\232^\300\231i\013\316M\257"
 409      8313D306 
 409      9C9A5EC0 
 409      99690BCE 
 409      4DAF
 410 009f E0C2F406 		.ascii	"\340\302\364\006.\377\225HW\312\317\357\220\204\236"
 410      2EFF9548 
 410      57CACFEF 
 410      90849E
 411 00ae 945FBF45 		.ascii	"\224_\277E_\336\367N\006\262\335\2672\324VG\332\332"
 411      5FDEF74E 
 411      06B2DDB7 
 411      32D45647 
 411      DADA
 412 00c0 58E7F589 		.ascii	"X\347\365\211\2661\3256g\3324\316\323\271\276\227\305"
 412      B631D536 
ARM GAS  /tmp/ccQ0n2Wm.s 			page 31


 412      67DA34CE 
 412      D3B9BE97 
 412      C5
 413 00d1 BD2C3A8F 		.ascii	"\275,:\217\373yt+\336kE\267\027\372Og\371W\371\001\222"
 413      FB79742B 
 413      DE6B45B7 
 413      17FA4F67 
 413      F957F901 
 414 00e6 43B420   		.ascii	"C\264 "
 415              		.text
 416              		.section	.gnu.lto_.refs.6c8c36663c2cdc02,"",%progbits
 417 0000 789C6362 		.ascii	"x\234cb`b`d\200\002\000\000F\000\006"
 417      60626064 
 417      80020000 
 417      460006
 418              		.text
 419              		.section	.gnu.lto_.decls.6c8c36663c2cdc02,"",%progbits
 420 0000 789CBD5B 		.ascii	"x\234\275[\013t\024U\232\256\252Nw\022\022B\300]\305"
 420      0B741455 
 420      9AAEAA4E 
 420      77121242 
 420      C05DC5
 421 0013 DDF1D09C 		.ascii	"\335\361\320\234\3259\236\331\221\220\300(\316\314\012"
 421      D5399ED9 
 421      9190C028 
 421      CECC0A
 422 0022 99244876 		.ascii	"\231$HvA2\035\230\325}\234\266\350\024Ik\322\035\273"
 422      41321D98 
 422      D57D9CB6 
 422      E814496B 
 422      D21DBB
 423 0035 3B106676 		.ascii	";\020fv\217\025\010\221\267\020\336$\204D\005\004\231"
 423      8F150891 
 423      B710DE24 
 423      84440504 
 423      99
 424 0046 21801A01 		.ascii	"!\200\032\001\201\206A^\221\200\200H`\204\300\016\250"
 424      8186415E 
 424      91808048 
 424      6084C00E 
 424      A8
 425 0057 38202001 		.ascii	"8  \001\345\221\354\177oUu\337\272\251\252\256jg\267"
 425      E591EC7F 
 425      6F5575DF 
 425      BAA9AAAE 
 425      6A67B7
 426 006a CFB9B75E 		.ascii	"\317\271\267^\367~\367\373\037\367\277\217\252\346\030"
 426      F77EF7FB 
 426      1FF7BF8F 
 426      AAE618
 427 0079 8E79DCC1 		.ascii	"\216y\334\3010\335\360k\3765\3034%3L_\206a\236\201\304"
 427      30DDF06B 
 427      FE35C334 
 427      25334C5F 
 427      86619E81 
 428 008e 416A82F4 		.ascii	"Aj\202\364\357,\203\177\217@z\011\316}\220\372\302\303"
 428      EF2C837F 
ARM GAS  /tmp/ccQ0n2Wm.s 			page 32


 428      8F407A09 
 428      CE7D90FA 
 428      C2C3
 429 00a0 87213D02 		.ascii	"\207!=\002i \244\307 eB\032\016)\037R!\244\347!\271"
 429      6920A4C7 
 429      2065421A 
 429      0E291F52 
 429      21A4E721 
 430 00b5 2109905E 		.ascii	"!\011\220^\206\344\207\024\204T\001i\012\244\337A\372"
 430      86E48714 
 430      84540169 
 430      0AA4DF41 
 430      FA
 431 00c6 6F48AF42 		.ascii	"oH\257B\252\2024\015\322tH\257A\232\011i\036\244\371"
 431      AA82340D 
 431      D27448AF 
 431      419A0969 
 431      1EA4F9
 432 00d9 1CD3E387 		.ascii	"\034\323\343\2078\240\333\265\010W\346\306\311\367\203"
 432      38A0DBB5 
 432      0857E6C6 
 432      C9F783
 433 00e8 1AE5115F 		.ascii	"\032\345\021_\020\213y\201\225d\011@z\005\322o!\355"
 433      108B7981 
 433      95640940 
 433      7A05D26F 
 433      21ED
 434 00fa 61251917 		.ascii	"a%\031\027B\275I\220\022\340|2\334\233\002i7\244}\220"
 434      42BD4990 
 434      12E07C32 
 434      DC9B0269 
 434      37A47D90 
 435 010e 6C32C622 		.ascii	"l2\306\"\231;j2\215j\007\351\003\265\261\034\216\273"
 435      993B6A32 
 435      8D6A07E9 
 435      03B5B11C 
 435      8EBB
 436 0120 E058C749 		.ascii	"\340X\307I\370J[\325\220\374r\373\250*\302\237,\237"
 436      F84A5BD5 
 436      90FC72FB 
 436      A82AC29F 
 436      2C9F
 437 0132 F795F581 		.ascii	"\367\225\365\201\316\037\204\354!\012\033\3519\211\302"
 437      CE1F84EC 
 437      210A1BE9 
 437      3989C2
 438 0141 26F19436 		.ascii	"&\361\2246X&\212\371\260\254_t\357\357)<d3\273\016\236"
 438      58268AF9 
 438      B0AC5F74 
 438      EFEF293C 
 438      6433BB0E 
 439 0156 A2CB4764 		.ascii	"\242\313Gd\333\240[\003\250\372\003M\324\037(\333\025"
 439      DBA05B03 
 439      A8FA034D 
 439      D41F28DB 
 439      15
 440 0167 DDFA07AA 		.ascii	"\335\372\007\252\376c\032\362\220r\254\204\353\037s"
ARM GAS  /tmp/ccQ0n2Wm.s 			page 33


 440      FE631AF2 
 440      9072AC84 
 440      EB1F73
 441 0176 6A791E93 		.ascii	"jy\036\223}\004\235?\001\331 \01233\006f\003\\gQ\230"
 441      7D049D3F 
 441      01D9200A 
 441      33330666 
 441      035C6751 
 442 018b 99B2CF21 		.ascii	"\231\262\317!\233\017\203\343\323\220~\016\351\227\024"
 442      9B0F83E3 
 442      D3907E0E 
 442      E99714
 443 019a F6F018D8 		.ascii	"\366\360\030\330\253\340z\004\205=\\\366e\344;yp\034"
 443      ABE07A04 
 443      853D5CF6 
 443      65E43B79 
 443      701C
 444 01ac 09E9590A 		.ascii	"\011\351Y\0127?\006n#\\\3773\205\233/\367\017\204;\026"
 444      373F066E 
 444      235CFF33 
 444      859B2FF7 
 444      0F843B16 
 445 01c0 8E05907E 		.ascii	"\216\005\220~M\341\242\276\227\012\3079\\l\035c\377"
 445      4DE1A2BE 
 445      970AC739 
 445      5C6C1D63 
 445      FF
 446 01d1 87E32C59 		.ascii	"\207\343,Y\267\223e\277O\220q\220\316\337\220\373#z"
 446      B79365BF 
 446      4F907190 
 446      CEDF90FB 
 446      237A
 447 01e3 3E1EB2DF 		.ascii	">\036\262\337P\355=o\242=E\377F\355=/\333Ci\017\335"
 447      50ED3D6F 
 447      A23D45FF 
 447      46ED3D2F 
 447      DB43690F 
 448 01f8 FB378403 		.ascii	"\3737\204\003\351? \375'\325\256\333D\273\212m\214\332"
 448      E93F20FD 
 448      27D5AEDB 
 448      44BB8A6D 
 448      8CDA
 449 020a 75CBB652 		.ascii	"u\313\266R\332E\272\345\3418\001\222\207jS0\321\246"
 449      DA45BAE5 
 449      E1380192 
 449      876A5330 
 449      D1A6
 450 021c 6237A336 		.ascii	"b7\2436\005\331\216d\233\305p,\201\344\245\332D\261"
 450      05D98E64 
 450      9BC5702C 
 450      81E4A5DA 
 450      44B1
 451 022e 1342348E 		.ascii	"\023B4\216_(V)\355(1\013\371\207\022\247P\331\265\234"
 451      5F285629 
 451      ED28310B 
 451      F98712A7 
 451      50D9B59C 
ARM GAS  /tmp/ccQ0n2Wm.s 			page 34


 452 0242 143BD1FD 		.ascii	"\024;\321\3752\012\313o\001\013\225}\207\223b0\272\377"
 452      320ACB6F 
 452      010B957D 
 452      87936230 
 452      BAFF
 453 0254 0A85D58F 		.ascii	"\012\205\325\217Y \302\317y \015l\307\362lZ2#\262\370"
 453      5920C2CF 
 453      79200D6C 
 453      C7F26C5A 
 453      3223B2F8 
 454 0268 2C359949 		.ascii	",5\231I\207\002\2171o\211\342\374\216\325u\017\211\011"
 454      87028F31 
 454      6F89E2FC 
 454      8ED5750F 
 454      8909
 455 027a 3CDBC4F6 		.ascii	"<\333\304\366\0035<\3112?a\326A\265\371\242\270g\000"
 455      03353CC9 
 455      323F61D6 
 455      41B5F9A2 
 455      B86700
 456 028d D3F31713 		.ascii	"\323\363\027\023\225c\362X\206gW\003\034\317\276\305"
 456      9563F258 
 456      86675703 
 456      1CCFBEC5 
 457 029d FE446A46 		.ascii	"\376DjF\014w\362N\351.#\337\327\370\015d\032Q\321\333"
 457      0C77F24E 
 457      E92E23DF 
 457      D7F80D64 
 457      1A51D1DB 
 458 02b1 1793C5DA 		.ascii	"\027\223\305\332T\215\226F(\015%E\351\267\324\264-`"
 458      548D9646 
 458      280D2545 
 458      E9B7D4B4 
 458      2D60
 459 02c3 AB45111E 		.ascii	"\253E\021\036\254\303\"T\263\254\252\005\031\247q\204"
 459      ACC32254 
 459      B3ACAA05 
 459      19A77184 
 460 02d3 1E10C72C 		.ascii	"\036\020\307,\302U6P\224;\352ZOT\261U\030z\203\011\342"
 460      C2553650 
 460      943BEA5A 
 460      4F54B155 
 460      187A8309 
 461 02e8 53C39FD6 		.ascii	"S\303\237\326\254|Xl\334\303\2460\263\340Rl\254\021"
 461      AC7C586C 
 461      DCC3A630 
 461      B3E0526C 
 461      AC11
 462 02fa 471D48D3 		.ascii	"G\035H\323\220\2431Ai?7*\310\3735{YQL\342\331MX\214"
 462      90A33141 
 462      693F372A 
 462      C8FB357B 
 462      59514CE2 
 463 0312 D3DA62E8 		.ascii	"\323\332b\350\303p\314\377\340*\357\366\020c\366YE\214"
 463      C370CCFF 
 463      E02AEFF6 
 463      1063F659 
ARM GAS  /tmp/ccQ0n2Wm.s 			page 35


 463      458C
 464 0324 774D8971 		.ascii	"wM\211qW\026\203g\233A\024\216\271\022\301\225\033v"
 464      57168367 
 464      9B41148E 
 464      B912C195 
 464      1B76
 465 0336 2AEDE2B8 		.ascii	"*\355\342\270 \235J?\271\200\032\257k_\352|^\001\273"
 465      209D4A3F 
 465      B9801AAF 
 465      6B5FEA7C 
 465      5E01BB
 466 0349 6919CCA9 		.ascii	"i\031\314\251\002[\270\277\036\223KffDu\314h\202\311"
 466      025BB8BF 
 466      1E934B66 
 466      664475CC 
 466      6882C9
 467 035c 8ABD7DA4 		.ascii	"\212\275}\244\355\023v\032\226\377C\250\3061{9\265j"
 467      ED13761A 
 467      96FF43A8 
 467      C6317B39 
 467      B56A
 468 036e CD436D5D 		.ascii	"\315Cm]\362\321nv*\206\332\205\241\256\307\015\325\271"
 468      F2D16E76 
 468      2A86DA85 
 468      A1AEC70D 
 468      D5B9
 469 0380 F4C3A7B1 		.ascii	"\364\303\247\261\271\367`\240\21565\020\317&F\324\030"
 469      B9F760A0 
 469      8D363510 
 469      CF2646D4 
 469      18
 470 0391 B9560A20 		.ascii	"\271V\012 4\374X>A\323\303>\314\377qq\216\331f3a\272"
 470      34FC583E 
 470      41D3C33E 
 470      CCFF7171 
 470      8ED96633 
 471 03a7 243D3F10 		.ascii	"$=?\020;V\314\276\310.\027\303\3256\245K:\364t\3041"
 471      3B56CCBE 
 471      C82E17C3 
 471      D536A54B 
 471      3AF474C4 
 472 03bc BB715BFB 		.ascii	"\273q[\373i_\336\322pe\252\354\313\373M\371rK\353Rs"
 472      695FDED2 
 472      7065AAEC 
 472      CBFB4DF9 
 472      724BEB52 
 473 03d1 5DD2A1B4 		.ascii	"]\322\241\264_\204\333\237\226\200\332\377\230n\177"
 473      5F84DB9F 
 473      9680DAFF 
 473      986E7F
 474 03e0 D7852F9F 		.ascii	"\327\205/\237Y&\212\351\322\243\330\315\237;\262\250"
 474      59268AE9 
 474      D2A3D8CD 
 474      9F3BB2A8 
 475 03f0 67F33CFB 		.ascii	"g\363<\373\314\337\032\271\306\226\206\3757d!\217\342"
 475      CCDF1AB9 
 475      C69686FD 
ARM GAS  /tmp/ccQ0n2Wm.s 			page 36


 475      3764218F 
 475      E2
 476 0401 3E733881 		.ascii	">s8\201v\216\341)j\363\3015Q\200cNF\350\307\325eA\316"
 476      768EE129 
 476      6AF3C135 
 476      5180634E 
 476      46E8C7D5 
 477 0418 F0F0759B 		.ascii	"\360\360u\233Eq\246C\341p\3322\242S\245\211\033Gp\020"
 477      4571A643 
 477      E170DA32 
 477      A253A589 
 477      1B477010 
 478 042c 90C0CE9A 		.ascii	"\220\300\316\232\001\323\365\244\251\341\233$\330\005"
 478      01D3F5A4 
 478      A9E19B24 
 478      D805
 479 043a CB606A66 		.ascii	"\313`jf\267H\260Kf\300\322\365\231}G\202]\266\014\246"
 479      B748B04B 
 479      66C0D2F5 
 479      997D4782 
 479      5DB60CA6 
 480 044e 66768704 		.ascii	"fv\207\004\273j\006\254\277>\263{$\330\015\313`jf]$"
 480      BB6A06AC 
 480      BF3EB37B 
 480      24D80DCB 
 480      606A665D 
 481 0463 D82D3360 		.ascii	"\330-3`N}f\363\217\021`w,\203\251\231\325\222`]f\300"
 481      4E7D66F3 
 481      8F116077 
 481      2C83A999 
 481      D592605D 
 482 0479 1ED767B6 		.ascii	"\036\327g\266\210\004\233j\267\012\246f\266\204\004"
 482      88049B6A 
 482      B70AA666 
 482      B68404
 483 0488 AB310336 		.ascii	"\2531\0036X\237\3312\022l\226e05\263\025$\330<3`\303"
 483      589FD932 
 483      126C9665 
 483      3035B315 
 483      24D83C33 
 484 049e F499D593 		.ascii	"\364\231\325\223`\265\226\301\324\314\232I\260%f\300"
 484      60B596C1 
 484      D4CC9A49 
 484      B02566C0 
 485 04ae 46E833DB 		.ascii	"F\3503\333L\202-\267\014\246f\366.\011Vo\006l\224>\263"
 485      4C822DB7 
 485      0CA666F6 
 485      2E09566F 
 485      066C943E 
 486 04c3 F749B055 		.ascii	"\367I\260U\226\301\324\314> \301\3360\003V\240\317l"
 486      96C1D4CC 
 486      3E20C1DE 
 486      300356A0 
 486      CF6C
 487 04d5 1B09B6DA 		.ascii	"\033\011\266\3322\230\232\331\207$\330\333f\300\236"
 487      32989AD9 
 487      8724D8DB 
ARM GAS  /tmp/ccQ0n2Wm.s 			page 37


 487      66C09E
 488 04e4 D767B693 		.ascii	"\327g\266\223\004\333`\031L\315\354(\011\326l\006\354"
 488      04DB6019 
 488      4CCDEC28 
 488      09D66C06 
 488      EC
 489 04f5 450D6691 		.ascii	"E\015f\221\237V=4L\267\262\221q\233c\266\330\225)\216"
 489      9F563D34 
 489      4CB7B291 
 489      719B63B6 
 489      D895298E 
 490 0509 C5319A89 		.ascii	"\3051\232\211b\264\330\255N\311Tr\303\332\340R\023\273"
 490      62B4D8AD 
 490      4EC95472 
 490      C3DAE052 
 490      13BB
 491 051b 709A7860 		.ascii	"p\232x`\2602?\337a\006\321`\000\\\261\237\230\354\177"
 491      B0323FDF 
 491      6106D160 
 491      005CB19F 
 491      98EC7F
 492 052e 64198C72 		.ascii	"d\031\214re\004\246\232;\311\023\354\216\325\341\376"
 492      6504A69A 
 492      3BC913EC 
 492      8ED5E1FE 
 493 053e CBA2B3B7 		.ascii	"\313\242\263\267$\005\013-\204\245\251\032,`\271Ha\261"
 493      24050B2D 
 493      84A5A91A 
 493      2C60B948 
 493      61B1
 494 0550 7F7FEDB2 		.ascii	"\177\177\355\262<;\227{\014\362y\\r\204\205t\256\234"
 494      3C3B977B 
 494      0CF2795C 
 494      72848574 
 494      AE9C
 495 0562 75E3AD9D 		.ascii	"u\343\255\235\303v\266\207\366e\233\032W\325\363\204"
 495      C376B687 
 495      F6659B1A 
 495      57D5F384 
 496 0572 D91CE109 		.ascii	"\331\034\341\011\307\314\250\311`h?\267\277\376!\261"
 496      C7CCA8C9 
 496      60683FB7 
 496      BFFE21B1 
 497 0582 23CC12F2 		.ascii	"#\314\022\362\032*\007\326D\257\037V\326D\265\034Z\177"
 497      1A2A07D6 
 497      44AF1F56 
 497      D644B51C 
 497      5A7F
 498 0594 B4DB3517 		.ascii	"\264\3335\0272&\240\266.\371\375?\342\205\314b\014t"
 498      3226A0B6 
 498      2EF9FD3F 
 498      E285CC62 
 498      0C74
 499 05a6 216EA0CE 		.ascii	"!n\240\316\245\015\3030\3202\014t\231\002\342Y\226Z"
 499      A50DC330 
 499      D0320C74 
 499      9902E259 
ARM GAS  /tmp/ccQ0n2Wm.s 			page 38


 499      965A
 500 05b8 11B1EA35 		.ascii	"\021\261\3525\013\233\034=\351V\233\353\257Z\026\326"
 500      0B9B1C3D 
 500      E9569BEB 
 500      AF5A16D6 
 501 05c8 B0B4BD54 		.ascii	"\260\264\275T\342\304\234=u\324\265\336_\300~;U\\6\330"
 501      E2C49C3D 
 501      75D4B5DE 
 501      5FC07E3B 
 501      555C36D8 
 502 05dc 82C58E7C 		.ascii	"\202\305\216|\254Xl%\326\317\275\036\372Y\314YS\020"
 502      AC586C25 
 502      D6CFBD1E 
 502      FA59CC59 
 502      5310
 503 05ee C7543BAC 		.ascii	"\307T;\254\012\362\270Z\220\331{k\255\013\022q\2757"
 503      0AF2B85A 
 503      90D97B6B 
 503      AD0B1271 
 503      BD37
 504 0600 B020731C 		.ascii	"\260 s\034?\\\220E\226\005\031L\010\202\366H:k\2458"
 504      3F5C9045 
 504      9605194C 
 504      0882F648 
 504      3A6BA538 
 505 0614 F800536B 		.ascii	"\370\000Sk\2746E|\326r\017\250w\267\332\017\261N\351"
 505      BC36457C 
 505      D6720FA8 
 505      77B7DA0F 
 505      B14EE9
 506 0627 B689EDAD 		.ascii	"\266\211\355\255C\304\016\206hj\007\343\365#\212\312"
 506      43C40E86 
 506      686A07E3 
 506      F5238ACA 
 507 0637 D66395D5 		.ascii	"\326c\225\32594:\231)\250\255'\367n\222w0~\217\241\232"
 507      39343A99 
 507      29A8AD27 
 507      F76E9277 
 507      307E8FA1 
 508 064c E286EAFC 		.ascii	"\342\206\352\374\254E\352\257\315\030h]\0173:(+:\324"
 508      AC45EAAF 
 508      CD18685D 
 508      0F333A28 
 508      2B3AD4
 509 065f 56844BD4 		.ascii	"V\204K\324\322wh\177\201}U\276\203.\022\231\377\367"
 509      D277687F 
 509      817D55BE 
 509      832E1299 
 509      FFF7
 510 0671 7A301A63 		.ascii	"z0\032c\372\310\202\026G\343\210\007]\254UFR\311H\333"
 510      FAC88216 
 510      47E38807 
 510      5DAC5546 
 510      52C948DB 
 511 0685 7E10E2D4 		.ascii	"~\020\342\324\360\226\331\3126\334p4\226\376\361\007"
 511      F096D9CA 
 511      36DC7034 
ARM GAS  /tmp/ccQ0n2Wm.s 			page 39


 511      96FEF107 
 512 0695 C27DD26A 		.ascii	"\302}\322jy\343\354\365\023\212\333m\305\022\035\352"
 512      79E3ECF5 
 512      138ADB6D 
 512      C5121DEA 
 513 06a5 61E25D74 		.ascii	"a\342]tL6\263\217t2^I\"?\216\371\234\356\360\226\326"
 513      4C36B38F 
 513      74325E49 
 513      223F8EF9 
 513      9CEEF096 
 514 06ba 9C686FF7 		.ascii	"\234ho\367\266l\256\230\233Q\312F\363\276}U\362F\363"
 514      B66CAE98 
 514      9B51CA46 
 514      F3BE7D55 
 514      F246F3
 515 06cd 2E0EEDD0 		.ascii	".\016\355\320\236\247\264abW\353\032\256\262\207\353"
 515      9EA7B461 
 515      6257EB1A 
 515      AEB287EB 
 516 06dd B1437B58 		.ascii	"\261C{X\331\241E\317L\354j\251vhy\366\003\226\223q\343"
 516      D9A145CF 
 516      4CEC6AA9 
 516      766879F6 
 516      03969371 
 517 06f2 D5A8CA88 		.ascii	"\325\250\312\210Q\202<\273\027\317\217>\342\006\222"
 517      51823CBB 
 517      17CF8F3E 
 517      E20692
 518 0701 DA1713AD 		.ascii	"\332\027\023\255j\337Ij?|\267\265\236\225\370K{\366"
 518      6ADF496A 
 518      3F7CB7B5 
 518      9E95F84B 
 518      7BF6
 519 0713 B368BC11 		.ascii	"\263h\274\021\344\334U>\325]\247\213\341\3326<\351\224"
 519      E4DC553E 
 519      D55DA78B 
 519      E1DA363C 
 519      E994
 520 0725 FADD6233 		.ascii	"\372\335b3\344\014\226\326\015\022\230\344\362u\226"
 520      E40C96D6 
 520      0D1298E4 
 520      F27596
 521 0734 C19C2AB0 		.ascii	"\301\234*\260\035\3634^\011H/B\364\006\2276rj\270\306"
 521      1DF3345E 
 521      09482F42 
 521      F4069736 
 521      726AB8C6 
 522 0748 4CFB06AB 		.ascii	"L\373\006\253\361O\333\352eO\221\366\276\233-\343\251"
 522      F14FDBEA 
 522      654F91F6 
 522      BE9B2DE3 
 522      A9
 523 0759 E5B93E4F 		.ascii	"\345\271>O\025\224\266\233\201\033a\332\361\242\357"
 523      1594B69B 
 523      811B61DA 
 523      F1A2EF
 524 0768 2E78F67D 		.ascii	".x\366}\0269^\013;\020\362\2558\337\216\363}8\257\341"
ARM GAS  /tmp/ccQ0n2Wm.s 			page 40


 524      16395E0B 
 524      3B10F2AD 
 524      38DF8EF3 
 524      7D38AFE1 
 525 077c 503E03E7 		.ascii	"P>\003\347\263p\276\000\347\3658o\302\371\032\234\357"
 525      B370BE00 
 525      E7F5386F 
 525      C2F91A9C 
 525      EF
 526 078d C4F97E9C 		.ascii	"\304\371~\234\037\304y+\316\017\343\374(\316\217\221"
 526      1FC4792B 
 526      CE0FE3FC 
 526      28CE8F91 
 527 079d EEAD6717 		.ascii	"\356\255g\027\251\253E:\246\322\3536\304\375^\344d\364"
 527      A9AB453A 
 527      A6D2EB36 
 527      C4FD5EE4 
 527      64F4
 528 07af BD08CF6E 		.ascii	"\275\010\317n\263\014\3464\322\344\006B\223\177\300"
 528      B30CE634 
 528      D2E40642 
 528      937FC0
 529 07be 9ADC88F5 		.ascii	"\232\334\210\365vB\335\221\377\230\250\274\2543\350"
 529      7642DD91 
 529      FF98A8BC 
 529      AC33E8
 530 07cd 78FA22   		.ascii	"x\372\""
 531 07d0 74BC758E 		.ascii	"t\274u\216X\355\265\322`1\027\243j}t\011\007\006S\375"
 531      58EDB5D2 
 531      603117A3 
 531      6A7D7409 
 531      070653FD 
 532 07e4 A4C9A09F 		.ascii	"\244\311\240\237\264\223\375\344\270\345\266\015\325"
 532      B493FDE4 
 532      B8E5B60D 
 532      D5
 533 07f1 B79A50DF 		.ascii	"\267\232P\337Z\254\276\267\261\372Nbw9E*1\221\251\301"
 533      5AACBEB7 
 533      B1FA4E62 
 533      7739452A 
 533      3191A9C1 
 534 0805 33DFE953 		.ascii	"3\337\351Sc.p\272\302\177'\015\247g\270D\340<7I=\200"
 534      632E70BA 
 534      C27F270D 
 534      A767B844 
 534      E03C3749 
 535 081b 984042DC 		.ascii	"\230@B\334\316Be\325\344\363\275\232>\350\015.\272o"
 535      CE4265D5 
 535      E4F3BD9A 
 535      3EE80D2E 
 535      BA6F
 536 082d 3074D818 		.ascii	"0t\330\030\374\242{Y\222\364\2726!9z\357\315\350=\226"
 536      FCA27B59 
 536      92F4BA36 
 536      21397AEF 
 536      CDE83D96 
 537 0841 28BA217A 		.ascii	"(\272!z\233#n\277\037\275m#n\357\216\336N \\\306p\245"
ARM GAS  /tmp/ccQ0n2Wm.s 			page 41


 537      9B236EBF 
 537      1FBD6D23 
 537      6EEF8EDE 
 537      4E205CC6 
 538 0857 15158567 		.ascii	"\025\025\205g\317\341\201\246\203\263iV\033\3004\210"
 538      CFE181A6 
 538      83B36956 
 538      1BC03488 
 539 0867 8D1D1D3B 		.ascii	"\215\035\035;\326\234/F\257\220\304\356\356W\231\007"
 539      D69C2F46 
 539      AF90C4EE 
 539      EE579907 
 540 0877 99C5F254 		.ascii	"\231\305\362TUdC\272/UP;_s\017\312g\343m\212\307\334"
 540      556443BA 
 540      2F55503B 
 540      5F730FCA 
 540      67E36D8A 
 541 088d A7B4CF30 		.ascii	"\247\264\3170?fV#<\361m\321\206\321P\371\313\334\000"
 541      3F665623 
 541      3CF16DD1 
 541      86D150F9 
 541      CBDC00
 542 08a0 35E5BF70 		.ascii	"5\345\277p\252\367\354\022\257p3t\345\252\216\356\356"
 542      AAF7EC12 
 542      AF703374 
 542      E5AA8EEE 
 542      EE
 543 08b1 01E6397D 		.ascii	"\001\3469}#s\262I\312\215\365\202J\264\221\243\215\354"
 543      2373B249 
 543      CA8DF582 
 543      4AB491A3 
 543      8DEC
 544 08c3 5175EBAF 		.ascii	"Qu\353\257\277\264\015\277\216\272\201\247$\207\222"
 544      BFB40DBF 
 544      8EBA81A7 
 544      248792
 545 08d2 63BE3456 		.ascii	"c\2764V\343\360\354M\016\305\235N\216~]_\227\212|\252"
 545      E3F0EC4D 
 545      0EC59D4E 
 545      8E7E5D5F 
 545      978A7CAA 
 546 08e6 D3D474E4 		.ascii	"\323\324t\344\376\231\006\274\377\2408\366\011L\243"
 546      FE9906BC 
 546      FFA038F6 
 546      094CA3
 547 08f5 93335C8D 		.ascii	"\2233\\\215E]\244G X\334\260J\367\245\035\024`\011q"
 547      455DA447 
 547      2058DCB0 
 547      4AF7A51D 
 547      14600971 
 548 0909 5E54E052 		.ascii	"^T\340R#Z\011\2379\303:5$W\025\345\331{\340o\261J\241"
 548      235A099F 
 548      39C33A35 
 548      245715E5 
 548      D97BE06F 
 549 0920 725DB46A 		.ascii	"r]\264j\226\236\301\252\3512\245\232Ug\032\264\306\177"
 549      969EC1AA 
ARM GAS  /tmp/ccQ0n2Wm.s 			page 42


 549      E932A59A 
 549      55671AB4 
 549      C67F
 550 0932 647CFDB9 		.ascii	"d|\375\271f\370\376\212\277AMT\331\360\2337\312\250"
 550      66F8FE8A 
 550      BF414D54 
 550      D9F09B37 
 550      CAA8
 551 0944 26A110B7 		.ascii	"&\241\020\267j[\212\016\303\036\3178\346K\334N\227\365"
 551      6A5B8A0E 
 551      C31ECF38 
 551      E64BDC4E 
 551      97F5
 552 0956 49A42CEA 		.ascii	"I\244,\352V-Q54\334\301)`?\215z\362\256\215\3473\244"
 552      562D5135 
 552      34DCC129 
 552      603F8D7A 
 552      F2AE8DE7 
 553 096c D838C386 		.ascii	"\3308\303\206<\371\275^1=Y\215\2037\325l\224\251\266"
 553      3CF9BD5E 
 553      313D598D 
 553      8337D56C 
 553      94A9B6
 554 097f B46253A1 		.ascii	"\264bS\241\3731LU=-\334B.\220\246\031.\220x6\214\007"
 554      FB314C55 
 554      3D2DDC42 
 554      2E90A619 
 554      2E907836 
 555 0995 0533AB9D 		.ascii	"\0053\253\235=X\022D!\016\265\002\255\017Z\361\020;"
 555      3D581244 
 555      210EB502 
 555      AD0F5AF1 
 555      103B
 556 09a7 CF86A2F0 		.ascii	"\317\206\242\360\001\313`N\025\3306\022\354\210\031"
 556      01CB604E 
 556      15D83612 
 556      EC8819
 557 09b6 30BDF11A 		.ascii	"0\275\361\032\300>$\301>\263\014\246f\266\223\004\373"
 557      C03E24C1 
 557      3EB30CA6 
 557      66B69304 
 557      FB
 558 09c7 DC0C98DE 		.ascii	"\334\014\230\336&4\200\035%\301\316[\006#\231U\205\317"
 558      2634801D 
 558      25C1CE5B 
 558      06239955 
 558      85CF
 559 09d9 B51E62C5 		.ascii	"\265\036b\305\332T\2741Te\2701dj\357\250\336F\355\035"
 559      DA54BC31 
 559      5465B831 
 559      646AEFA8 
 559      DE46ED1D 
 560 09ed 1D9F9D86 		.ascii	"\035\237\235\206\234\024\3357\361\211Q\2532\237\227"
 560      9C14DD37 
 560      F18951AB 
 560      329F97
 561 09fc 3E40B988 		.ascii	">@\271\210\205Cu\343\351\264b\370\363\326\024qVj\344"
ARM GAS  /tmp/ccQ0n2Wm.s 			page 43


 561      854375E3 
 561      E9B462F8 
 561      F3D61471 
 561      566AE4
 562 0a0f 1BA9B70D 		.ascii	"\033\251\267\015\2107\321\275\353\263V\316)\335\216"
 562      8837D1BD 
 562      EBB356CE 
 562      29DD8E
 563 0a1e CDBBBDB5 		.ascii	"\315\273\275\265\276\277\330\270[\331}\020k\304\307"
 563      BEBFD8B8 
 563      5BD97D10 
 563      6BC4C7
 564 0a2d 89B6D295 		.ascii	"\211\266\322\225\266\320P\030\331Wn\371)\336^z\013["
 564      B6D05018 
 564      D9576EF9 
 564      29DE5E7A 
 564      0B5B
 565 0a3f F10B2A20 		.ascii	"\361\013* \230\007\352\\\272V\372\322f-\006\272F\001"
 565      9807EA5C 
 565      BA56FAD2 
 565      662D06BA 
 565      4601
 566 0a51 F1AC8DDA 		.ascii	"\361\254\215\332\303\260\251{\265-9z\322\335mc\254\025"
 566      C3B0A97B 
 566      B52D397A 
 566      D2DD6D63 
 566      AC15
 567 0a63 E698BBB8 		.ascii	"\346\230\273\270\301\246\250\377\251H\306\236c\357\334"
 567      C1A6A8FF 
 567      A948C69E 
 567      63EFDC
 568 0a72 F8D5A065 		.ascii	"\370\325\240ebx\252MQE\267e\300t\312(\0343=%N\277!D"
 568      6278AA4D 
 568      5145B765 
 568      C074CA28 
 568      1C333D25 
 569 0a8a 97A4E6D9 		.ascii	"\227\244\346\331\006\033\232\0247\332T+\213\327RL\364"
 569      061B9A14 
 569      37DA542B 
 569      8BD7524C 
 569      F4
 570 0a9b 3ABD771A 		.ascii	":\275w\032\320\205\257\221]x\216e0\247\012\354\006\011"
 570      D085AF91 
 570      5D788E65 
 570      30A70AEC 
 570      0609
 571 0aad B6C00C98 		.ascii	"\266\300\014\230S\237\331M\022l\211e05\263[$X\235\031"
 571      539FD94D 
 571      126C8965 
 571      3035B35B 
 571      24589D19 
 572 0ac1 30AD6D10 		.ascii	"0\255m\020\255\0379\034\362\354\034\033\032\257\346"
 572      AD1F391C 
 572      F2EC1C1B 
 572      1AAFE6
 573 0ad0 624BCDC7 		.ascii	"bK\315\307y-\316\027\341|\011\316\227\341|\005\3167"
 573      792DCE17 
ARM GAS  /tmp/ccQ0n2Wm.s 			page 44


 573      E17C09CE 
 573      97E17C05 
 573      CE37
 574 0ae2 E27C13CE 		.ascii	"\342|\023\316\267\340\374=\322\276\006s\227\333\265"
 574      B7E0FC3D 
 574      D2BE0673 
 574      97DBB5
 575 0af1 3F42E1EC 		.ascii	"?B\341\3545<wY\225b8w\231\241#*b\277\325`\356\262\225"
 575      353C7759 
 575      95623877 
 575      99A1232A 
 575      62BFD560 
 576 0b08 9EBBAC4F 		.ascii	"\236\273\254O\261:w!\314\200^d\254\337\355\333\321,"
 576      B13A7721 
 576      CC805E64 
 576      ACDFEDDB 
 576      D12C
 577 0b1a 8AD31D4A 		.ascii	"\212\323\035J'\333D#ju2\203\305\354\251\272\324\243"
 577      27DB4423 
 577      6A753283 
 577      C5ECA9BA 
 577      D4A3
 578 0b2c 2F2A602D 		.ascii	"/*`-\226\301\350\036\253\330\261\033\257\222Dl\221\032"
 578      96C1E81E 
 578      ABD8B11B 
 578      AF92446C 
 578      911A
 579 0b3e 9C6FC7F9 		.ascii	"\234o\307\371\016u\357\333\236B\0079i\272J\340E\347"
 579      0E75EFDB 
 579      9E420739 
 579      69BA4AE0 
 579      45E7
 580 0b50 B54C6C44 		.ascii	"\265LlD=#\335!\327\340\037\245P\323~kF\0107\234\245"
 580      3D23DD21 
 580      D7E01FA5 
 580      50D37E6B 
 580      4608379C 
 581 0b65 DFF64A1F 		.ascii	"\337\366J\037\303\352;[\307\326\235\355?\332\200\027"
 581      C3EA3B5B 
 581      C7D69DED 
 581      3FDA8017 
 582 0b75 407BB0BF 		.ascii	"@{\260\277U\247\322r7\263\324\247r\3246\016\307,M5A"
 582      55A7D272 
 582      37B3D4A7 
 582      72D4360E 
 582      C72C4D35 
 583 0b8a DBE0B3C6 		.ascii	"\333\340\263\306\272\365_M\3311U\372V\256\011\357\033"
 583      BAF55F4D 
 583      D93155FA 
 583      56AE09EF 
 583      1B
 584 0b9b AC613935 		.ascii	"\254a95\242\372\023\351\030\223!\320\304\347\006\013"
 584      A2FA13E9 
 584      189321D0 
 584      C4E7060B 
 585 0bab 20D5578B 		.ascii	" \325W\213\221)\360\243Q\235\334\277\320\376_\322T\372"
 585      9129F0A3 
ARM GAS  /tmp/ccQ0n2Wm.s 			page 45


 585      519DDCBF 
 585      D0FE5FD2 
 585      54FA
 586 0bbd 209E4A9F 		.ascii	" \236J\237\246t\022\023\007i\351cz\260\277~\026O\245"
 586      A6741213 
 586      0769E963 
 586      7AB0BF7E 
 586      164FA5
 587 0bd0 3F363595 		.ascii	"?65\225\356<\273H\236\245H\201\355\022\246\360q\334"
 587      EE3CBB48 
 587      9EA54881 
 587      ED12A6F0 
 587      71DC
 588 0be2 73E05B67 		.ascii	"s\340[g\211(y\3312\230S\005\366\035\011v\325\014\230"
 588      892879D9 
 588      32985305 
 588      F61D0976 
 588      D50C98
 589 0bf5 C11CF80E 		.ascii	"\301\034\370\016\011v\3352\230\232\331=\022\354\246"
 589      0976DD32 
 589      989AD93D 
 589      12ECA6
 590 0c04 19308339 		.ascii	"\0310\2039p\027\011v\3072\230\232\331\374s\004XUo\023"
 590      70170976 
 590      C732989A 
 590      D9FC7304 
 590      58556F13 
 591 0c18 6006437B 		.ascii	"`\006C{-\0116\3032\230\232\331\"\022l\276\0310\247\006"
 591      2D0936C3 
 591      32989AD9 
 591      22126CBE 
 591      1930A706 
 592 0c2c 33AD1FD9 		.ascii	"3\255\037\331\011x\3660\036@\333ph<\212\363c8?\201\363"
 592      0978F630 
 592      1E40DB70 
 592      683C8AF3 
 592      63383F81 
 593 0c41 93383F85 		.ascii	"\2238?\205\363\3238\377\023\316\317\232\011\242\007"
 593      F3D338FF 
 593      13CECF9A 
 593      09A207
 594 0c50 6C44105D 		.ascii	"lD\020]\322\333D42\372\266`\375'\277\333\211\277\334"
 594      D2DB4434 
 594      32FAB660 
 594      FD27BFDB 
 594      89BFDC
 595 0c63 8D6FF7A4 		.ascii	"\215o\367\244\243\363\362\301_\242\360\021{\007\345"
 595      A3F3F2C1 
 595      5FA2F011 
 595      7B07E5
 596 0c72 CF36733B 		.ascii	"\3176s;(\227\350X\322\331\206c\311%S+\207\333ZoP4\232"
 596      2897E858 
 596      D2D98663 
 596      C925532B 
 596      87DB5A6F 
 597 0c89 0DB3A476 		.ascii	"\015\263\244v\"\261\360\3403R,\274\214c\341\371\336"
 597      22B1F0E0 
ARM GAS  /tmp/ccQ0n2Wm.s 			page 46


 597      33522CBC 
 597      8C63E1F9 
 597      DE
 598 0c9a 3163A11A 		.ascii	"1c\241\032\007\361\273\322c[\341\010\346\177\305\334"
 598      07F1BBD2 
 598      635BE108 
 598      E67FC5DC 
 599 0caa B6C21175 		.ascii	"\266\302\021u,\274\211)\\\211\177?\340\010\341\360\267"
 599      2CBC8929 
 599      5C897F3F 
 599      E008E1F0 
 599      B7
 600 0cbb 2D833955 		.ascii	"-\2039U`\333H\260{f\300\214\366\003H01\315*\230\232"
 600      60DB48B0 
 600      7B66C08C 
 600      F6034830 
 600      31CD2A98 
 601 0cd0 D94E126C 		.ascii	"\331N\022l\272\0310\243\375\000\022l\226e0\247\226y"
 601      BA1930A3 
 601      FD00126C 
 601      966530A7 
 601      9679
 602 0ce2 991EDEC1 		.ascii	"\231\036\336\301\263Wq\220\370\006w\375\3538\377\026"
 602      B3577190 
 602      F80677FD 
 602      EB38FF16 
 603 0cf2 E79D38BF 		.ascii	"\347\2358\277\215\363\357\315\204\204\257\310\2200\017"
 603      8DF3EFCD 
 603      8484AFC8 
 603      90300F
 604 0d01 13BE149F 		.ascii	"\023\276\024\237\307@H\350\274|\376\027\333z\206\004"
 604      C74048E8 
 604      BC7CFE17 
 604      DB7A8604 
 605 0d11 491F7A0C 		.ascii	"I\037z\014\356\223\014\026[f\340$\031\204\357\266\325"
 605      EE930C16 
 605      5B66E024 
 605      1984EFB6 
 605      D5
 606 0d22 CB1BC4D2 		.ascii	"\313\033\304\322Gb+h<\255\015b\2437Em)\315/*`M\226\301"
 606      47622B68 
 606      3CAD0D62 
 606      A337456D 
 606      29CD2F2A 
 607 0d3a 925460F3 		.ascii	"\222T`\363\217\020`\357X\006\323\233\251\177\201}\341"
 607      8F1060EF 
 607      5806D39B 
 607      A97F817D 
 607      E1
 608 0d4b 4B6CF37B 		.ascii	"Kl\363{8\357\306yU\002\312\247%\250\346\353\233\323"
 608      38EFC679 
 608      5502CAA7 
 608      25A8E6EB 
 608      9BD3
 609 0d5d E879AB14 		.ascii	"\350y\253\024\034\011\324h\024e\314\342\352\331\366"
 609      1C09D468 
 609      1465CCE2 
ARM GAS  /tmp/ccQ0n2Wm.s 			page 47


 609      EAD9F6
 610 0d6c 0269DB8F 		.ascii	"\002i\333\217\322L\0148N}\357\252[\177]\036p$`\216i"
 610      D24C0C38 
 610      4E7DEFAA 
 610      5B7F5D1E 
 610      7024608E 
 611 0d81 B58CA8F6 		.ascii	"\265\214\250\366\226\305\347\032T{\\\237\230\3013\370"
 611      96C5E71A 
 611      547B5C9F 
 611      98C133F8 
 612 0d91 8ABF5E9A 		.ascii	"\212\277^\232\"H`g,\2039\031\335\037\371\342\204go\341"
 612      22486067 
 612      2C833919 
 612      DD1FF9E2 
 612      84676FE1 
 613 0da5 B5D96DFC 		.ascii	"\265\331m\374\212\360{\234\357\306\226\331\207\363\375"
 613      8AF07B9C 
 613      EFC696D9 
 613      87F3FD
 614 0db4 383F8FF3 		.ascii	"8?\217\363\327\260\255f\342|\266\031\213]\217\256\263"
 614      D7B0AD66 
 614      E27CB619 
 614      8B5D8FAE 
 614      B3
 615 0dc5 A2EFB0B0 		.ascii	"\242\357\260\260\371.R\236\363(\363\246(\326v\354X\263"
 615      F92E529E 
 615      F328F3A6 
 615      28D676EC 
 615      58B3
 616 0dd7 FBE15D60 		.ascii	"\373\341]`\225d\251.\307|\213\313]\345\006h\266\021"
 616      9564A92E 
 616      C77C8BCB 
 616      5DE50668 
 616      B611
 617 0de9 69417E07 		.ascii	"iA~\0076W\234\236\316F^\202]\245_\202\315M\320z\011"
 617      36579C9E 
 617      CE465E82 
 617      5DA55F82 
 617      CD4DD07A 
 618 0dfe D665FD25 		.ascii	"\326e\375%Xm\202\352%\230D#r!\257.)\211\277\323\224"
 618      586D82EA 
 618      25984423 
 618      7221AF2E 
 618      2989BFD3 
 619 0e13 58EC2C1A 		.ascii	"X\354,\032%U\347\331\327\023\320\372kA\202\241\254r"
 619      2555E7D9 
 619      D713D0FA 
 619      6B4182A1 
 619      AC72
 620 0e25 B5E3C228 		.ascii	"\265\343\302(\251!\236\015\333\214\253\3351P\021\252"
 620      A9219E0D 
 620      DB8CABDD 
 620      315011AA 
 621 0e35 A552D162 		.ascii	"\245R\321bM\025\235\336/\253Hzo\003s\351>\232\302|K"
 621      4D159DDE 
 621      2FAB487A 
 621      6F0373E9 
ARM GAS  /tmp/ccQ0n2Wm.s 			page 48


 621      3E9AC27C 
 622 0e4a 0BB3DC58 		.ascii	"\013\263\334X\030\035V\313iV+4Y5\037\242X\315\324fu"
 622      181D56CB 
 622      69562B34 
 622      59351FA2 
 622      58CDD466 
 623 0e5f 9B66B532 		.ascii	"\233f\2652.V+iV\015\232\254n\322\254\026j\263\272K\263"
 623      2E562B69 
 623      560D9AAC 
 623      6ED2AC16 
 623      6AB3BA4B 
 624 0e74 6A8A8B55 		.ascii	"j\212\213U\023\315\352\015MV\307Z-;\371\032\003'7\377"
 624      13CDEA0D 
 624      4D56C75A 
 624      2D3BF91A 
 624      032737FF 
 625 0e88 355EF79D 		.ascii	"5^\367\235\363?\337\210\267:\326\341\027\362\307\372"
 625      F33FDF88 
 625      B73AD6E1 
 625      17F2C7FA 
 626 0e98 D043869D 		.ascii	"\320C\206\235\332\307\266\253\267\246\355\311\321\223"
 626      DAC7B6AB 
 626      B7A6EDC9 
 626      D193
 627 0ea6 E85F40A9 		.ascii	"\350_@\251\316\325\256\251c\010'\007\007\035\210\206"
 627      CED5AEA9 
 627      63082707 
 627      071D8886 
 628 0eb6 1345D3AB 		.ascii	"\023E\323\253Mu\261\355\250\213I\244\277\304\360\372"
 628      4D75B1ED 
 628      A88B49A4 
 628      BFC4F0FA 
 629 0ec6 D5D6E1CF 		.ascii	"\325\326\341\317\022\264\015\264\2326\320\006M\003}"
 629      12B40DB4 
 629      9A36D006 
 629      4D037D
 630 0ed5 D066D940 		.ascii	"\320f\331@\233\015\243\220\314)r\235\235\242\272\034"
 630      9B0DA390 
 630      CC29729D 
 630      9DA2BA1C 
 631 0ee5 AE15A32E 		.ascii	"\256\025\243.k\273\352b\201r\325M\246\024\270KQ \317"
 631      6BBBEA62 
 631      8172D54D 
 631      A614B84B 
 631      5120CF
 632 0ef8 6E8C510D 		.ascii	"n\214Q\015\223\225\252\205\267\267\255\206q\224\303"
 632      9395AA85 
 632      B7B7AD86 
 632      7194C3
 633 0f07 8C39E62E 		.ascii	"\2149\346.\246\244_3;\332\336'\250=\374}WU\272q\245"
 633      A6A45F33 
 633      3BDADE27 
 633      A83DFC7D 
 633      5755BA71 
 634 0f1c E1447F0A 		.ascii	"\341D\177\012o\2357\255\221\025\035\021\203m\242\015"
 634      6F9D37AD 
 634      91151D11 
ARM GAS  /tmp/ccQ0n2Wm.s 			page 49


 634      836DA20D 
 635 0f2c D6A269B0 		.ascii	"\326\242i\260\372#\226\015\026\216\303`\224\205^K\327"
 635      FA23960D 
 635      168EC360 
 635      94855E4B 
 635      D7
 636 0f3d B4D07D3A 		.ascii	"\264\320}:\230\3542e\241\026\332B\372\325\010\013\211"
 636      98EC3265 
 636      A116DA42 
 636      FAD5080B 
 636      89
 637 0f4e 9DA85A36 		.ascii	"\235\250Z6jl{\214Z\331\372\201k\027\255\346\275\332"
 637      6A6C7B8C 
 637      5AD9FA81 
 637      6B17ADE6 
 637      BDDA
 638 0f60 A3B37535 		.ascii	"\243\263u5\037\262\244f\315\216\260H[\315\013\351\216"
 638      1FB2A466 
 638      CD8EB048 
 638      5BCD0BE9 
 638      8E
 639 0f71 70D0949A 		.ascii	"p\320\224\232w\320j\326\257F\252\371\234\354\317<\273"
 639      77D06AD6 
 639      AF46AAF9 
 639      9CECCF3C 
 639      BB
 640 0f82 2346ADE1 		.ascii	"#F\255\341\372j>H\253\271MS\315\327\216EF-\024\3679"
 640      FA6A3E48 
 640      ABB94D53 
 640      CDD78E45 
 640      462D14F7 
 641 0f97 E62D6D0D 		.ascii	"\346-m\015\364\030K\217\233"
 641      F4184B8F 
 641      9B
 642 0fa0 D2C0265A 		.ascii	"\322\300&Z\003\372\325\214b\351qZ\230\023\232\302\374"
 642      03FAD58C 
 642      62E9715A 
 642      98139AC2 
 642      FC
 643 0fb1 E9784498 		.ascii	"\351xD\230\315X\230?h\013\323c\010>eJ\230\367ha\364"
 643      CD58983F 
 643      680BD363 
 643      083E654A 
 643      98F76861 
 644 0fc6 AB9171ED 		.ascii	"\253\221q\355\334\302U\221\270\246\364\034\375\232\331"
 644      DCC25591 
 644      B8A6F41C 
 644      FD9AD9
 645 0fd5 542F25FC 		.ascii	"T/%\374@\277\222*\256}\276P\035\327N\321\312k\327T\336"
 645      40BF922A 
 645      AE7DBE50 
 645      1DD74ED1 
 645      CA6BD754 
 646 0fea A99311E5 		.ascii	"\251\223\021\345\205\261\362\266i+\257\307\\\357\234"
 646      85B1F2B6 
 646      692BAFC7 
 646      5CEF9C
ARM GAS  /tmp/ccQ0n2Wm.s 			page 50


 647 0ff9 29E5ADA4 		.ascii	")\345\255\244\225\247_"
 647      95A75F
 648 1000 8DEC0B67 		.ascii	"\215\354\013g\250\220\243_\313 \344\234\2435\320\241"
 648      A890A35F 
 648      CB20E49C 
 648      A335D0A1 
 649 1010 A981A39F 		.ascii	"\251\201\243\237E4p\010k`\217\266\006\276\2475p\321"
 649      45347008 
 649      6B608FB6 
 649      06BEA735 
 649      70D1
 650 1022 9406B6D0 		.ascii	"\224\006\266\320\032\320\257Fj\340S\312\013\364k\031"
 650      1AD0AF46 
 650      6AE053CA 
 650      0BF46B19 
 651 1032 44838BB4 		.ascii	"D\203\213\264\006.ij`\363ij\016{X[\003\335\264\006\276"
 651      062E696A 
 651      60F3696A 
 651      0E7B585B 
 651      03DDB406 
 652 1047 8E6B0EFB 		.ascii	"\216k\016\3735\315\352/\232\254n\320\254\316\230d\365"
 652      35CDEA2F 
 652      9AAC6ED0 
 652      ACCE9864 
 652      F5
 653 1058 4D5CACBE 		.ascii	"M\\\254\276\241Y]\353\311\252\003}\314x~&[\365fM\030"
 653      A1595DEB 
 653      C9AA037D 
 653      CC787E26 
 653      5BF5664D 
 654 106d 717B7580 		.ascii	"q{u\200\364\325&\307|EqS@nj\202T\337:\300\316\250\025"
 654      F4D526C7 
 654      7C457153 
 654      406E6A82 
 654      54DF3AC0 
 655 1084 EFA16F2F 		.ascii	"\357\241o/\314\017t\267\350\201\256\035\013\255\032"
 655      CC0F74B7 
 655      E881AE1D 
 655      0BAD1A
 656 1093 C96EE9F0 		.ascii	"\311n\351\360\370N\223\307\212\365_\315d\027Lk< ^C3"
 656      F84E93C7 
 656      8AF55FCD 
 656      64174C6B 
 656      3C205E43 
 657 10a8 6D45D135 		.ascii	"mE\3215}\265A\356h\201\204?\274\020\025FAX\244\203p"
 657      7DB541EE 
 657      6881843F 
 657      BC101546 
 657      4158A483 
 658 10bd 4F1361A7 		.ascii	"O\023a\247\006B\223\016B\227&\302Q\015\204f\035\004"
 658      0642930E 
 658      429726C2 
 658      510D8466 
 658      1D04
 659 10cf D1AE8570 		.ascii	"\321\256\205pL\205 \015\212\273u\020\246j\"\234P!H#"
 659      4C85200D 
 659      8ABB7510 
ARM GAS  /tmp/ccQ0n2Wm.s 			page 51


 659      A66A229C 
 659      50214823 
 660 10e3 D1511D84 		.ascii	"\321Q\035\204jM\204S*\004)\034\237\327A\250\321D8\255"
 660      6A4D8453 
 660      2A04291C 
 660      9FD741A8 
 660      D14438AD 
 661 10f7 4290C2D9 		.ascii	"B\220\302\331U\035\204\031Z\010\035[w\236\177f\371f"
 661      551D8419 
 661      5A081D5B 
 661      779E7F66 
 661      F966
 662 1109 B17AA6D8 		.ascii	"\261z\246\330\325\375*K9'\372\353\212\236w\316\262\353"
 662      D5FD2A4B 
 662      3927FAEB 
 662      8A9E77CE 
 662      B2EB
 663 111b 7F292CBD 		.ascii	"\177),\275\370\326\2539\307\256\267m\324\245C}\256&"
 663      F8D6AB39 
 663      C7AEB76D 
 663      D4A5437D 
 663      AE26
 664 112d F5D5B7C2 		.ascii	"\365\325\267\302\354rq\217\364\331\265\324]8fN?m\210"
 664      EC72718F 
 664      F4D9B5D4 
 664      5D38664E 
 664      3F6D88
 665 1140 D735F5B7 		.ascii	"\3275\365\267m\377\034\221U\242\216\004\260D\007`\201"
 665      6DFF1C91 
 665      55A28E04 
 665      B0440760 
 665      81
 666 1151 1A8092F7 		.ascii	"\032\200\222\367k\203\357]k\243\362R\265P\213z\265\026"
 666      6B83EF5D 
 666      6BA3F252 
 666      B5508B7A 
 666      B516
 667 1163 466B21B2 		.ascii	"Fk!\262\341k\035\213\267\034jcw\257\256\021q(Z\025N"
 667      E16B1D8B 
 667      B71C6A63 
 667      77AFAE11 
 667      71285A15 
 668 1178 57289FEC 		.ascii	"W(\237\354\247\031(\361&R;\336g\273\214K,\262\353\005"
 668      A71928F1 
 668      26523BDE 
 668      67BB8C4B 
 668      2CB2EB05 
 669 118c CA7655A0 		.ascii	"\312vU\240l\027\013\372G\342$\252\244R\304b\265\"\372"
 669      6C170BFA 
 669      47E224AA 
 669      A452C462 
 669      B522FA
 670 119f 32F3A5AF 		.ascii	"2\363\245\257\364\226\245I\1770\217\354@\313-pr\275"
 670      F496A549 
 670      7F308FEC 
 670      40CB2D70 
 670      72BD
ARM GAS  /tmp/ccQ0n2Wm.s 			page 52


 671 11b1 E5F6BEF8 		.ascii	"\345\366\276\370L\365_N\\BO\005+\354\321?\261\247&G"
 671      4CF55F4E 
 671      5C424F05 
 671      2BECD13F 
 671      B1A72647 
 672 11c5 4F5875D3 		.ascii	"OXu\323N\252\345aJ\271D\031\247\316r\313\365:-;\264"
 672      4EAAE561 
 672      4AB94419 
 672      A7CE72CB 
 672      F53A2D3B 
 673 11da EDB8C6C0 		.ascii	"\355\270\306\300\216+u\255\277\331\240V\203n\255\260"
 673      8E2B75AD 
 673      BFD9A056 
 673      836EADB0 
 674 11ea 41AD55BA 		.ascii	"A\255U\272\265\016\031\324j\324\255\205\372\270^\255"
 674      B50E19D4 
 674      6AD4AD85 
 674      FAB85EAD 
 675 11fa 26DA3FC3 		.ascii	"&\332?\303-_|\311)\177\203\030(U\346\230+\332\276\371"
 675      2D5F7CC9 
 675      297F8318 
 675      2855E698 
 675      2BDABEF9 
 676 120e 3DF24D14 		.ascii	"=\362M\024\0108F|\000\225xC\3277\345p!\373\346\231?"
 676      0838467C 
 676      00957843 
 676      D737E570 
 676      21FBE699 
 677 1223 178C9202 		.ascii	"\027\214\222\002\023cPK\346\370f\317N\017<\353nu\220"
 677      1363504B 
 677      E6F866CF 
 677      4E0F3CEB 
 677      6E7590
 678 1236 3CA53E54 		.ascii	"<\245>T\375\200&\317\026\245\017\361\354R;\232l\254"
 678      FD8026CF 
 678      16A50FF1 
 678      EC523B9A 
 678      6CAC
 679 1248 8DA70FAD 		.ascii	"\215\247\017\255\245\373\320\333\232\304\356\3004A\304"
 679      A5FBD0DB 
 679      9AC4EEC0 
 679      3441C4
 680 1257 D17CDA0C 		.ascii	"\321|\332\014.\022\321j\265\231m\247\231\275\023\017"
 680      2E12D16A 
 680      B5996DA7 
 680      99BD130F 
 681 1267 B3776866 		.ascii	"\263whf\033\324\314\230!\031%\3762!\303\343/\232\222"
 681      1BD4CC98 
 681      211925FE 
 681      3221C3E3 
 681      2F9A92
 682 127a 51244CCA 		.ascii	"Q$L\312\360\224x'x\375\301\214P\240\302\367r\006\234"
 682      F0947827 
 682      78FDC18C 
 682      50A0C2F7 
 682      72069C
 683 128d 0442195E 		.ascii	"\004B\031^\237\247\264\242\010\012\225\224\205*\007"
ARM GAS  /tmp/ccQ0n2Wm.s 			page 53


 683      9FA7B4A2 
 683      080A9594 
 683      852A07
 684 129c 95308965 		.ascii	"\2250\211e\025!\241\322\035r<\373\334xg\016c\307\227"
 684      1521A1D2 
 684      1D723CFB 
 684      DC78670E 
 684      63C797
 685 12af C32C0105 		.ascii	"\303,\001\005\247\004CS\312\205 \240\365\011\225\004"
 685      A7044353 
 685      CA8520A0 
 685      F5099504 
 686 12bf 04BE28E8 		.ascii	"\004\276(\350~\245B\250\020\334\241tO\211[uk\2505dO"
 686      7EA542A8 
 686      10DCA174 
 686      4F895B75 
 686      6BA83564 
 687 12d4 4911A026 		.ascii	"I\021\240&I\020\356Pr\004\316Q\356\366\011\225!8\224"
 687      4910EE50 
 687      7204CE51 
 687      EEF60995 
 687      213894
 688 12e7 078449A3 		.ascii	"\007\204I\243L\240\226\373\003\241`F\266kL\316\230J"
 688      4CA096FB 
 688      03A16046 
 688      B66B4CCE 
 688      984A
 689 12f9 285956EE 		.ascii	"(YV\356-\025\002\301\214gsr\240\270\302?1T\036\360\372"
 689      2D1502C1 
 689      8C677372 
 689      A0B8C23F 
 689      31541EF0 
 690 130e DDA14733 		.ascii	"\335\241G3*\202\201\014>P\366\204\317\357\023\236\020"
 690      2A82810C 
 690      3E50F684 
 690      CFEF139E 
 690      10
 691 131f F809DE08 		.ascii	"\370\011\336\010\255`\250\310\353\013!Z\025p\034\222"
 691      AD60A8C8 
 691      EB0B215A 
 691      15701C92 
 692 132f E50E0D35 		.ascii	"\345\016\0155(]\306\003\031\237\220\341.\022&\362\025"
 692      285DC603 
 692      199F90E1 
 692      2E1226F2 
 692      15
 693 1340 A521B7D2 		.ascii	"\245!\267\322T/\267[\251\217\245\360\372\023=~\037("
 693      542FB75B 
 693      A98FA5F0 
 693      FA133D7E 
 693      1F28
 694 1352 3FF4B465 		.ascii	"?\364\264eiJ<\376\200\000\230)\350\266\033P=\241\312"
 694      694A3CFE 
 694      80009829 
 694      E8B61B50 
 694      3DA1CA
 695 1365 7F8A0FC5 		.ascii	"\177\212\017\305=\351\2512$[@(\006\201\334![0\363IH"
ARM GAS  /tmp/ccQ0n2Wm.s 			page 54


 695      3DE9A932 
 695      245B4028 
 695      0681DC21 
 695      5B30F349 
 696 137a 4F411A06 		.ascii	"OA\032\006\351i[0k0\244LHY\220\206@\032\012\351g\220"
 696      E9695B30 
 696      6B30A44C 
 696      48599086 
 696      401A0AE9 
 697 1390 A05C1694 		.ascii	"\240\\\026\224\313\202rYPn\010\224\033\222\311\005\206"
 697      CB827259 
 697      506E0894 
 697      1B92C905 
 697      86
 698 13a1 72819F71 		.ascii	"r\201\237q\201'\271\300S\\`\030\027x\332\026\310\034"
 698      8127B9C0 
 698      535C6018 
 698      1778DA16 
 698      C81C
 699 13b3 0C29932B 		.ascii	"\014)\223+\015\300a\210\275\334\015l\023\221='\013\001"
 699      0DC06188 
 699      BDDC0D6C 
 699      13913D27 
 699      0B01
 700 13c5 38FA4B8B 		.ascii	"8\372K\213\204@\202\247\204\017 #\363eBR(\030\342C\340"
 700      844082A7 
 700      840F2023 
 700      F3654252 
 700      2818E243 
 701 13da 4D894861 		.ascii	"M\211Ha\303\300\015$\325\301\031\024\307\317\022Ce\376"
 701      C3C00D24 
 701      D5C11914 
 701      C7CF1243 
 701      65FE
 702 13ec 22015F4F 		.ascii	"\"\001_O,\345\213\203\211\241\20001\2105\213N\354e\301"
 702      2CE58B83 
 702      89A18030 
 702      3188358B 
 702      4EEC65C1 
 703 1400 627828AB 		.ascii	"bx(\253\033\252+\212\017\024M\201GIB\2457\004\212\022"
 703      1BAA2B8A 
 703      0F144D81 
 703      474942A5 
 703      37048A12 
 704 1414 1C9343FE 		.ascii	"\034\223C\376\011/\225\247\010\223\004_\250\214\017"
 704      092F95A7 
 704      0893045F 
 704      A88C0F
 705 1423 BE0C4584 		.ascii	"\276\014E\204\311\350\304V\356\256HS<\271\324\033\004"
 705      C9E8C456 
 705      EEAE4853 
 705      3CB9D41B 
 705      04
 706 1434 3BF6217C 		.ascii	";\366!|\033\335I.wO\346\275!\257\257\270W\271\033P\261"
 706      1BDD492E 
 706      774FE6BD 
 706      21AFAFB8 
ARM GAS  /tmp/ccQ0n2Wm.s 			page 55


 706      57B91B50 
 707 1449 BFDBF129 		.ascii	"\277\333\361)\334\020\312\005\037\370M1\224\202\216"
 707      DC10CA05 
 707      1FF84D31 
 707      94828E
 708 1458 87CAF742 		.ascii	"\207\312\367B\334\370Rly\270Y\356\367\227&\226I\275"
 708      DCF8526C 
 708      79B859EE 
 708      F7972696 
 708      49BD
 709 146a 048EFEC9 		.ascii	"\004\216\376\311>!\340(\303^\236\025\313\224%|i\324"
 709      3E21E028 
 709      C35E9E15 
 709      CB94257C 
 709      69D4
 710 147c 3DCBBDC8 		.ascii	"=\313\275\310\273\340 k\255WaA\276{\374s\371\317\345"
 710      BBE0206B 
 710      AD576141 
 710      BE7BFC73 
 710      F9CFE5
 711 148f 8F4B42A7 		.ascii	"\217KB\247\205\343\306\026$\243\023W^v\356\013\370i"
 711      85E3C616 
 711      24A31357 
 711      5E76EE0B 
 711      F869
 712 14a1 76CEB8FC 		.ascii	"v\316\270\374\337\344\245\242\323\234\261c\012F\347"
 712      DFE4A5A2 
 712      D39CB163 
 712      0A46E7
 713 14b0 8DCB1B64 		.ascii	"\215\313\033d\246\315`\300\203\333\3630\211p\310\367"
 713      A6CD60C0 
 713      83DBF330 
 713      8970C8F7 
 714 14c0 7943B966 		.ascii	"yC\271f\252InW8n\314\220\254\214\321\243s3\240\335I"
 714      AA496E57 
 714      386ECC90 
 714      AC8CD1A3 
 714      7333A0DD 
 715 14d5 9908C85D 		.ascii	"\231\010\310]Z\212\372;b\227\033\360N\022\002v,Cox\344"
 715      5A8AFA3B 
 715      62971BF0 
 715      4E120276 
 715      2C436F78 
 716 14ea E14B4B27 		.ascii	"\341KK'\360\036l\021_\221\3333!/\236\226\236-\310\037"
 716      F01E6C11 
 716      5F91DB33 
 716      212F9E96 
 716      9E2DC81F 
 717 14fe 3B292BA3 		.ascii	";)+\243\234/\225\233J\015\206\312\300\023\212\313Q\257"
 717      9C2F959B 
 717      4A0D86CA 
 717      C0138ACB 
 717      51AF
 718 1510 B78F199B 		.ascii	"\267\217\031\233\233\347r\214\035\367BA\236+qlaA^^\256"
 718      9BE7728C 
 718      1DF74241 
 718      9E2B716C 
ARM GAS  /tmp/ccQ0n2Wm.s 			page 56


 718      61415E5E 
 719 1525 CB5E30BE 		.ascii	"\313^0\276 \327e\313\20746\327\305\376+\356\365\231"
 719      20D765CB 
 719      873436D7 
 719      C5FE2BEE 
 719      F599
 720 1537 4F825E25 		.ascii	"O\202^%/D\247\266\240\020\262{J\005>\300\216J\370U\241"
 720      2F44A7B6 
 720      A010B27B 
 720      4A053EC0 
 720      8E4AF855 
 721 154c CB95303A 		.ascii	"\313\2250:\347_\\\011\331#]\243Q6\312\366+\227\253\227"
 721      E75F5C09 
 721      D9235DA3 
 721      5136CAF6 
 721      2B97AB97 
 722 1560 D78FD878 		.ascii	"\327\217\330x!\2149\202Atj\207\003_d\363\0042\221\300"
 722      218C3982 
 722      41746A87 
 722      035F64F3 
 722      043291C0 
 723 1574 397EDF44 		.ascii	"9~\337Do\261\303\203\017OY\012\223\262\027\2028\375"
 723      6FB1C383 
 723      0F4F590A 
 723      93B21782 
 723      38FD
 724 1586 E448094E 		.ascii	"\344H\011N/\004\004\237\007\314\357\220n\375\"\026\""
 724      2F04049F 
 724      07CCEF90 
 724      6EFD2216 
 724      22
 725 1597 F85946CE 		.ascii	"\370YF\316\230\302\374BPW\006\326\312\304\241\2033+"
 725      98C2FC42 
 725      505706D6 
 725      CAC4A183 
 725      332B
 726 15a9 7158418E 		.ascii	"qXA\2161\016\342V\2560\321\226\343\312\204\224\305\025"
 726      310EE256 
 726      AE30D196 
 726      E3CA8494 
 726      C515
 727 15bb BA38504E 		.ascii	"\2728PN\216+\247\300\345p=\017G\227c\034>$\346g\025"
 727      8E2BA7C0 
 727      E5703D0F 
 727      4797631C 
 727      3E24E667 
 728 15d0 E68C7CD6 		.ascii	"\346\214|\326e\207c\201\313\006\266\033i\325T8\0379"
 728      65876381 
 728      CB06B61B 
 728      69D55438 
 728      1F39
 729 15e2 B4B25222 		.ascii	"\264\262R\"\342.*\343\221p\271c\262\335\205\320\263"
 729      E22E2AE3 
 729      9170B963 
 729      B2DD85D0 
 729      B3
 730 15f3 F932850D 		.ascii	"\3712\205\015\227\343Jx.w\234\313V\220\355J\0303\030"
ARM GAS  /tmp/ccQ0n2Wm.s 			page 57


 730      97E34A78 
 730      2E779CCB 
 730      5690ED4A 
 730      183318
 731 1606 6599D92E 		.ascii	"e\231\331.\333H \023\304\005\023\274\023=\001\2077X"
 731      DB482013 
 731      C40513BC 
 731      133D0187 
 731      3758
 732 1618 E29D184A 		.ascii	"\342\235\030J\016\012\245\023\275\276\"\241\3221I\360"
 732      0E0AA513 
 732      BDBE22A1 
 732      D23149F0 
 733 1628 84FC817E 		.ascii	"\204\374\201~\021t\267T\032\\\000.\002\225(\017U&\007"
 733      1174B754 
 733      1A5C002E 
 733      0295280F 
 733      552607
 734 163b 2AE18802 		.ascii	"*\341\210\002KrH9C\2568v\302KP\035y{\002\\\225'AV\030"
 734      4B724839 
 734      43AE3876 
 734      C24B501D 
 734      797B025C 
 735 1654 E203A144 		.ascii	"\342\003\241D|\342/OFG\241\024\312\244\300\331x_\020"
 735      7CE22F4F 
 735      4647A114 
 735      CAA4C0D9 
 735      785F10
 736 1667 9F67E141 		.ascii	"\237g\341A\242\324;!\243\330\343\241\006\213\241\203"
 736      A2D43B21 
 736      A3D8E3A1 
 736      068BA183 
 737 1677 860D1A4A 		.ascii	"\206\015\032J\01600X\200\300\216\240\367\267`\3014\245"
 737      0E303058 
 737      80C08EA0 
 737      F7B760C1 
 737      34A5
 738 1689 81FC621F 		.ascii	"\201\374b\037Dh\326\227\256\334\310\253\2040\351+\026"
 738      4468D697 
 738      AEDCC8AB 
 738      8430E92B 
 738      16
 739 169a ECA1CA09 		.ascii	"\354\241\312\011\025\023\355\001\224\247*\017\013\241"
 739      1513ED01 
 739      94A72A0F 
 739      0BA1
 740 16a8 9FF4512E 		.ascii	"\237\364Q.\\\202G\200\016\205\250I(\210\232R\035\023"
 740      5C824780 
 740      0E85A849 
 740      28889A52 
 740      1D13
 741 16ba 87D22868 		.ascii	"\207\322(h\310\005\221\234\331\236W*\274\001\341W\025"
 741      C805919C 
 741      D99E572A 
 741      BC01E157 
 741      15
 742 16cb C1DEF801 		.ascii	"\301\336\370\001\370w\020]\245\312=\025\242\250\027"
ARM GAS  /tmp/ccQ0n2Wm.s 			page 58


 742      F877105D 
 742      A5CA3D15 
 742      A2A817
 743 16da 45C131A1 		.ascii	"E\3011\241\312\250Jz+\017\203\250\331\324\350\225\277"
 743      CAA84A7A 
 743      2B0F83A8 
 743      D9D4E895 
 743      BF
 744 16eb 3C2D7281 		.ascii	"<-r\201\025\222\256\\V\310\032\212<\367b\206\221\347"
 744      1592AE5C 
 744      56C81A8A 
 744      3CF76286 
 744      91E7
 745 16fd 824C330A 		.ascii	"\202L3\012&K\206/\0022aO\311\270\222\242\302\212 \212"
 745      264B862F 
 745      0232614F 
 745      C9B892A2 
 745      C28A208A 
 746 1711 B385C998 		.ascii	"\263\205\311\230\325h\277\347\345\024|6\336W\012\347"
 746      D568BFE7 
 746      E5147C36 
 746      DE570AE7 
 747 1721 31E747C8 		.ascii	"1\347G\310\017\375A\310\240{\241#\330\340\001t\034\203"
 747      0FFD41C8 
 747      A07BA123 
 747      D8E00174 
 747      1C83
 748 1733 26455119 		.ascii	"&EQ\031\271\262\362~\350\3668\334\263\2246m\241@y\357"
 748      B9B2F27E 
 748      E8F638DC 
 748      B394366D 
 748      A14079EF 
 749 1747 4869D476 		.ascii	"Hi\324v\237\310\225\324\376\377\002c\203\250\245"
 749      9FC895D4 
 749      FEFF0263 
 749      83A8A5
 750              		.text
 751              		.section	.gnu.lto_.symtab.6c8c36663c2cdc02,"",%progbits
 752 0000 73706949 		.ascii	"spiInit\000\000\000\000\000\000\000\000\000\000\000"
 752      6E697400 
 752      00000000 
 752      00000000 
 752      0000
 753 0012 006A0100 		.ascii	"\000j\001\000\000spiObjectInit\000\000\000\000\000\000"
 753      00737069 
 753      4F626A65 
 753      6374496E 
 753      69740000 
 754 002a 00000000 		.ascii	"\000\000\000\000\000\000n\001\000\000spiStart\000\000"
 754      00006E01 
 754      00007370 
 754      69537461 
 754      72740000 
 755 003e 00000000 		.ascii	"\000\000\000\000\000\000\000\000\000\000\021\002\000"
 755      00000000 
 755      00001102 
 755      00
ARM GAS  /tmp/ccQ0n2Wm.s 			page 59


 756 004b 00737069 		.ascii	"\000spiStop\000\000\000\000\000\000\000\000\000\000"
 756      53746F70 
 756      00000000 
 756      00000000 
 756      0000
 757 005d 00001902 		.ascii	"\000\000\031\002\000\000spiSelect\000\000\000\000\000"
 757      00007370 
 757      6953656C 
 757      65637400 
 757      00000000 
 758 0071 00000000 		.ascii	"\000\000\000\000\000\000\000\035\002\000\000spiUnse"
 758      0000001D 
 758      02000073 
 758      7069556E 
 758      7365
 759 0083 6C656374 		.ascii	"lect\000\000\000\000\000\000\000\000\000\000\000\000"
 759      00000000 
 759      00000000 
 759      00000000 
 760 0093 21020000 		.ascii	"!\002\000\000spiStartIgnore\000\000\000\000\000\000"
 760      73706953 
 760      74617274 
 760      49676E6F 
 760      72650000 
 761 00ab 00000000 		.ascii	"\000\000\000\000\000\000%\002\000\000spiStartExchan"
 761      00002502 
 761      00007370 
 761      69537461 
 761      72744578 
 762 00c3 67650000 		.ascii	"ge\000\000\000\000\000\000\000\000\000\000\000\0001"
 762      00000000 
 762      00000000 
 762      000031
 763 00d2 02000073 		.ascii	"\002\000\000spiStartSend\000\000\000\000\000\000\000"
 763      70695374 
 763      61727453 
 763      656E6400 
 763      00000000 
 764 00e8 00000000 		.ascii	"\000\000\000\000\000?\002\000\000spiStartReceive\000"
 764      003F0200 
 764      00737069 
 764      53746172 
 764      74526563 
 765 0101 00000000 		.ascii	"\000\000\000\000\000\000\000\000\000\000\000I\002\000"
 765      00000000 
 765      00000049 
 765      0200
 766 010f 00737069 		.ascii	"\000spiIgnore\000\000\000\000\000\000\000\000\000\000"
 766      49676E6F 
 766      72650000 
 766      00000000 
 766      00000000 
 767 0123 00005302 		.ascii	"\000\000S\002\000\000spiExchange\000\000\000\000\000"
 767      00007370 
 767      69457863 
 767      68616E67 
 767      65000000 
ARM GAS  /tmp/ccQ0n2Wm.s 			page 60


 768 0139 00000000 		.ascii	"\000\000\000\000\000\000\000X\002\000\000spiSend\000"
 768      00000058 
 768      02000073 
 768      70695365 
 768      6E6400
 769 014c 00000000 		.ascii	"\000\000\000\000\000\000\000\000\000\000\000_\002\000"
 769      00000000 
 769      0000005F 
 769      0200
 770 015a 00737069 		.ascii	"\000spiReceive\000\000\000\000\000\000\000\000\000\000"
 770      52656365 
 770      69766500 
 770      00000000 
 770      00000000 
 771 016f 00006502 		.ascii	"\000\000e\002\000\000spiAcquireBus\000\000\000\000\000"
 771      00007370 
 771      69416371 
 771      75697265 
 771      42757300 
 772 0187 00000000 		.ascii	"\000\000\000\000\000\000\000k\002\000\000spiRelease"
 772      0000006B 
 772      02000073 
 772      70695265 
 772      6C656173 
 773 019c 42757300 		.ascii	"Bus\000\000\000\000\000\000\000\000\000\000\000\000"
 773      00000000 
 773      00000000 
 773      000000
 774 01ab 6F020000 		.ascii	"o\002\000\000spi_lld_init\000\000\002\000\000\000\000"
 774      7370695F 
 774      6C6C645F 
 774      696E6974 
 774      00000200 
 775 01c2 00000000 		.ascii	"\000\000\000\000\000s\002\000\000chMtxObjectInit\000"
 775      00730200 
 775      0063684D 
 775      74784F62 
 775      6A656374 
 776 01db 00020000 		.ascii	"\000\002\000\000\000\000\000\000\000\000\000u\002\000"
 776      00000000 
 776      00000075 
 776      0200
 777 01e9 00737069 		.ascii	"\000spi_lld_start\000\000\002\000\000\000\000\000\000"
 777      5F6C6C64 
 777      5F737461 
 777      72740000 
 777      02000000 
 778 0200 00000079 		.ascii	"\000\000\000y\002\000\000spi_lld_stop\000\000\002\000"
 778      02000073 
 778      70695F6C 
 778      6C645F73 
 778      746F7000 
 779 0217 00000000 		.ascii	"\000\000\000\000\000\000\000\000{\002\000\000spi_ll"
 779      00000000 
 779      7B020000 
 779      7370695F 
 779      6C6C
ARM GAS  /tmp/ccQ0n2Wm.s 			page 61


 780 0229 645F7365 		.ascii	"d_select\000\000\002\000\000\000\000\000\000\000\000"
 780      6C656374 
 780      00000200 
 780      00000000 
 780      000000
 781 023c 007D0200 		.ascii	"\000}\002\000\000spi_lld_unselect\000\000\002\000\000"
 781      00737069 
 781      5F6C6C64 
 781      5F756E73 
 781      656C6563 
 782 0256 00000000 		.ascii	"\000\000\000\000\000\000\000\177\002\000\000spi_lld"
 782      0000007F 
 782      02000073 
 782      70695F6C 
 782      6C64
 783 0268 5F69676E 		.ascii	"_ignore\000\000\002\000\000\000\000\000\000\000\000"
 783      6F726500 
 783      00020000 
 783      00000000 
 783      0000
 784 027a 00810200 		.ascii	"\000\201\002\000\000spi_lld_exchange\000\000\002\000"
 784      00737069 
 784      5F6C6C64 
 784      5F657863 
 784      68616E67 
 785 0293 00000000 		.ascii	"\000\000\000\000\000\000\000\000\203\002\000\000spi"
 785      00000000 
 785      83020000 
 785      737069
 786 02a2 5F6C6C64 		.ascii	"_lld_send\000\000\002\000\000\000\000\000\000\000\000"
 786      5F73656E 
 786      64000002 
 786      00000000 
 786      00000000 
 787 02b6 00850200 		.ascii	"\000\205\002\000\000spi_lld_receive\000\000\002\000"
 787      00737069 
 787      5F6C6C64 
 787      5F726563 
 787      65697665 
 788 02ce 00000000 		.ascii	"\000\000\000\000\000\000\000\000\207\002\000\000chT"
 788      00000000 
 788      87020000 
 788      636854
 789 02dd 68645375 		.ascii	"hdSuspendS\000\000\002\000\000\000\000\000\000\000\000"
 789      7370656E 
 789      64530000 
 789      02000000 
 789      00000000 
 790 02f2 00890200 		.ascii	"\000\211\002\000\000chMtxLock\000\000\002\000\000\000"
 790      0063684D 
 790      74784C6F 
 790      636B0000 
 790      02000000 
 791 0306 00000000 		.ascii	"\000\000\000\000\000\000\216\002\000\000chMtxUnlock"
 791      00008E02 
 791      00006368 
 791      4D747855 
ARM GAS  /tmp/ccQ0n2Wm.s 			page 62


 791      6E6C6F63 
 792 031b 00000200 		.ascii	"\000\000\002\000\000\000\000\000\000\000\000\000\220"
 792      00000000 
 792      00000000 
 792      90
 793 0328 020000   		.ascii	"\002\000\000"
 794              		.text
 795              		.section	.gnu.lto_.opts,"",%progbits
 796 0000 272D6D63 		.ascii	"'-mcpu=cortex-m4' '-mfloat-abi=hard' '-mfpu=fpv4-sp"
 796      70753D63 
 796      6F727465 
 796      782D6D34 
 796      2720272D 
 797 0033 2D643136 		.ascii	"-d16' '-mno-thumb-interwork' '-mthumb' '-O2' '-fomi"
 797      2720272D 
 797      6D6E6F2D 
 797      7468756D 
 797      622D696E 
 798 0066 742D6672 		.ascii	"t-frame-pointer' '-falign-functions=16' '-ffunction"
 798      616D652D 
 798      706F696E 
 798      74657227 
 798      20272D66 
 799 0099 2D736563 		.ascii	"-sections' '-fdata-sections' '-fno-common' '-flto' "
 799      74696F6E 
 799      73272027 
 799      2D666461 
 799      74612D73 
 800 00cc 272D6673 		.ascii	"'-fsingle-precision-constant'\000"
 800      696E676C 
 800      652D7072 
 800      65636973 
 800      696F6E2D 
 801              		.text
 802              		.section	.text.spiInit,"ax",%progbits
 803              		.align	2
 804              		.p2align 4,,15
 805              		.global	spiInit
 806              		.thumb
 807              		.thumb_func
 808              		.type	spiInit, %function
 809              	spiInit:
 810              		@ args = 0, pretend = 0, frame = 0
 811              		@ frame_needed = 0, uses_anonymous_args = 0
 812              		@ link register save eliminated.
 813 0000 FFF7FEBF 		b	spi_lld_init
 814              		.size	spiInit, .-spiInit
 815 0004 AFF30080 		.section	.text.spiObjectInit,"ax",%progbits
 815      AFF30080 
 815      AFF30080 
 816              		.align	2
 817              		.p2align 4,,15
 818              		.global	spiObjectInit
 819              		.thumb
 820              		.thumb_func
 821              		.type	spiObjectInit, %function
 822              	spiObjectInit:
ARM GAS  /tmp/ccQ0n2Wm.s 			page 63


 823              		@ args = 0, pretend = 0, frame = 0
 824              		@ frame_needed = 0, uses_anonymous_args = 0
 825              		@ link register save eliminated.
 826 0000 0023     		movs	r3, #0
 827 0002 0122     		movs	r2, #1
 828 0004 0270     		strb	r2, [r0]
 829 0006 4360     		str	r3, [r0, #4]
 830 0008 8360     		str	r3, [r0, #8]
 831 000a 0C30     		adds	r0, r0, #12
 832 000c FFF7FEBF 		b	chMtxObjectInit
 833              		.size	spiObjectInit, .-spiObjectInit
 834              		.section	.text.spiStart,"ax",%progbits
 835              		.align	2
 836              		.p2align 4,,15
 837              		.global	spiStart
 838              		.thumb
 839              		.thumb_func
 840              		.type	spiStart, %function
 841              	spiStart:
 842              		@ args = 0, pretend = 0, frame = 0
 843              		@ frame_needed = 0, uses_anonymous_args = 0
 844 0000 10B5     		push	{r4, lr}
 845 0002 2023     		movs	r3, #32
 846 0004 0446     		mov	r4, r0
 847              	@ 546 "/home/cody/dev/chibios/trunk/os/ext/CMSIS/include/core_cmFunc.h" 1
 848 0006 83F31188 		MSR basepri, r3
 849              	@ 0 "" 2
 850              		.thumb
 851 000a 4160     		str	r1, [r0, #4]
 852 000c FFF7FEFF 		bl	spi_lld_start
 853 0010 0223     		movs	r3, #2
 854 0012 2370     		strb	r3, [r4]
 855 0014 0023     		movs	r3, #0
 856              	@ 546 "/home/cody/dev/chibios/trunk/os/ext/CMSIS/include/core_cmFunc.h" 1
 857 0016 83F31188 		MSR basepri, r3
 858              	@ 0 "" 2
 859              		.thumb
 860 001a 10BD     		pop	{r4, pc}
 861              		.size	spiStart, .-spiStart
 862 001c AFF30080 		.section	.text.spiStop,"ax",%progbits
 863              		.align	2
 864              		.p2align 4,,15
 865              		.global	spiStop
 866              		.thumb
 867              		.thumb_func
 868              		.type	spiStop, %function
 869              	spiStop:
 870              		@ args = 0, pretend = 0, frame = 0
 871              		@ frame_needed = 0, uses_anonymous_args = 0
 872 0000 10B5     		push	{r4, lr}
 873 0002 2023     		movs	r3, #32
 874 0004 0446     		mov	r4, r0
 875              	@ 546 "/home/cody/dev/chibios/trunk/os/ext/CMSIS/include/core_cmFunc.h" 1
 876 0006 83F31188 		MSR basepri, r3
 877              	@ 0 "" 2
 878              		.thumb
 879 000a FFF7FEFF 		bl	spi_lld_stop
ARM GAS  /tmp/ccQ0n2Wm.s 			page 64


 880 000e 0123     		movs	r3, #1
 881 0010 2370     		strb	r3, [r4]
 882 0012 0023     		movs	r3, #0
 883              	@ 546 "/home/cody/dev/chibios/trunk/os/ext/CMSIS/include/core_cmFunc.h" 1
 884 0014 83F31188 		MSR basepri, r3
 885              	@ 0 "" 2
 886              		.thumb
 887 0018 10BD     		pop	{r4, pc}
 888              		.size	spiStop, .-spiStop
 889              		.section	.text.spiSelect,"ax",%progbits
 890              		.align	2
 891              		.p2align 4,,15
 892              		.global	spiSelect
 893              		.thumb
 894              		.thumb_func
 895              		.type	spiSelect, %function
 896              	spiSelect:
 897              		@ args = 0, pretend = 0, frame = 0
 898              		@ frame_needed = 0, uses_anonymous_args = 0
 899 0000 08B5     		push	{r3, lr}
 900 0002 2023     		movs	r3, #32
 901              	@ 546 "/home/cody/dev/chibios/trunk/os/ext/CMSIS/include/core_cmFunc.h" 1
 902 0004 83F31188 		MSR basepri, r3
 903              	@ 0 "" 2
 904              		.thumb
 905 0008 FFF7FEFF 		bl	spi_lld_select
 906 000c 0023     		movs	r3, #0
 907              	@ 546 "/home/cody/dev/chibios/trunk/os/ext/CMSIS/include/core_cmFunc.h" 1
 908 000e 83F31188 		MSR basepri, r3
 909              	@ 0 "" 2
 910              		.thumb
 911 0012 08BD     		pop	{r3, pc}
 912              		.size	spiSelect, .-spiSelect
 913 0014 AFF30080 		.section	.text.spiUnselect,"ax",%progbits
 913      AFF30080 
 913      AFF30080 
 914              		.align	2
 915              		.p2align 4,,15
 916              		.global	spiUnselect
 917              		.thumb
 918              		.thumb_func
 919              		.type	spiUnselect, %function
 920              	spiUnselect:
 921              		@ args = 0, pretend = 0, frame = 0
 922              		@ frame_needed = 0, uses_anonymous_args = 0
 923 0000 08B5     		push	{r3, lr}
 924 0002 2023     		movs	r3, #32
 925              	@ 546 "/home/cody/dev/chibios/trunk/os/ext/CMSIS/include/core_cmFunc.h" 1
 926 0004 83F31188 		MSR basepri, r3
 927              	@ 0 "" 2
 928              		.thumb
 929 0008 FFF7FEFF 		bl	spi_lld_unselect
 930 000c 0023     		movs	r3, #0
 931              	@ 546 "/home/cody/dev/chibios/trunk/os/ext/CMSIS/include/core_cmFunc.h" 1
 932 000e 83F31188 		MSR basepri, r3
 933              	@ 0 "" 2
 934              		.thumb
ARM GAS  /tmp/ccQ0n2Wm.s 			page 65


 935 0012 08BD     		pop	{r3, pc}
 936              		.size	spiUnselect, .-spiUnselect
 937 0014 AFF30080 		.section	.text.spiStartIgnore,"ax",%progbits
 937      AFF30080 
 937      AFF30080 
 938              		.align	2
 939              		.p2align 4,,15
 940              		.global	spiStartIgnore
 941              		.thumb
 942              		.thumb_func
 943              		.type	spiStartIgnore, %function
 944              	spiStartIgnore:
 945              		@ args = 0, pretend = 0, frame = 0
 946              		@ frame_needed = 0, uses_anonymous_args = 0
 947 0000 08B5     		push	{r3, lr}
 948 0002 2022     		movs	r2, #32
 949              	@ 546 "/home/cody/dev/chibios/trunk/os/ext/CMSIS/include/core_cmFunc.h" 1
 950 0004 82F31188 		MSR basepri, r2
 951              	@ 0 "" 2
 952              		.thumb
 953 0008 0322     		movs	r2, #3
 954 000a 0270     		strb	r2, [r0]
 955 000c FFF7FEFF 		bl	spi_lld_ignore
 956 0010 0023     		movs	r3, #0
 957              	@ 546 "/home/cody/dev/chibios/trunk/os/ext/CMSIS/include/core_cmFunc.h" 1
 958 0012 83F31188 		MSR basepri, r3
 959              	@ 0 "" 2
 960              		.thumb
 961 0016 08BD     		pop	{r3, pc}
 962              		.size	spiStartIgnore, .-spiStartIgnore
 963 0018 AFF30080 		.section	.text.spiStartExchange,"ax",%progbits
 963      AFF30080 
 964              		.align	2
 965              		.p2align 4,,15
 966              		.global	spiStartExchange
 967              		.thumb
 968              		.thumb_func
 969              		.type	spiStartExchange, %function
 970              	spiStartExchange:
 971              		@ args = 0, pretend = 0, frame = 0
 972              		@ frame_needed = 0, uses_anonymous_args = 0
 973 0000 38B5     		push	{r3, r4, r5, lr}
 974 0002 2025     		movs	r5, #32
 975              	@ 546 "/home/cody/dev/chibios/trunk/os/ext/CMSIS/include/core_cmFunc.h" 1
 976 0004 85F31188 		MSR basepri, r5
 977              	@ 0 "" 2
 978              		.thumb
 979 0008 0325     		movs	r5, #3
 980 000a 0570     		strb	r5, [r0]
 981 000c FFF7FEFF 		bl	spi_lld_exchange
 982 0010 0023     		movs	r3, #0
 983              	@ 546 "/home/cody/dev/chibios/trunk/os/ext/CMSIS/include/core_cmFunc.h" 1
 984 0012 83F31188 		MSR basepri, r3
 985              	@ 0 "" 2
 986              		.thumb
 987 0016 38BD     		pop	{r3, r4, r5, pc}
 988              		.size	spiStartExchange, .-spiStartExchange
ARM GAS  /tmp/ccQ0n2Wm.s 			page 66


 989 0018 AFF30080 		.section	.text.spiStartSend,"ax",%progbits
 989      AFF30080 
 990              		.align	2
 991              		.p2align 4,,15
 992              		.global	spiStartSend
 993              		.thumb
 994              		.thumb_func
 995              		.type	spiStartSend, %function
 996              	spiStartSend:
 997              		@ args = 0, pretend = 0, frame = 0
 998              		@ frame_needed = 0, uses_anonymous_args = 0
 999 0000 10B5     		push	{r4, lr}
 1000 0002 2024     		movs	r4, #32
 1001              	@ 546 "/home/cody/dev/chibios/trunk/os/ext/CMSIS/include/core_cmFunc.h" 1
 1002 0004 84F31188 		MSR basepri, r4
 1003              	@ 0 "" 2
 1004              		.thumb
 1005 0008 0324     		movs	r4, #3
 1006 000a 0470     		strb	r4, [r0]
 1007 000c FFF7FEFF 		bl	spi_lld_send
 1008 0010 0023     		movs	r3, #0
 1009              	@ 546 "/home/cody/dev/chibios/trunk/os/ext/CMSIS/include/core_cmFunc.h" 1
 1010 0012 83F31188 		MSR basepri, r3
 1011              	@ 0 "" 2
 1012              		.thumb
 1013 0016 10BD     		pop	{r4, pc}
 1014              		.size	spiStartSend, .-spiStartSend
 1015 0018 AFF30080 		.section	.text.spiStartReceive,"ax",%progbits
 1015      AFF30080 
 1016              		.align	2
 1017              		.p2align 4,,15
 1018              		.global	spiStartReceive
 1019              		.thumb
 1020              		.thumb_func
 1021              		.type	spiStartReceive, %function
 1022              	spiStartReceive:
 1023              		@ args = 0, pretend = 0, frame = 0
 1024              		@ frame_needed = 0, uses_anonymous_args = 0
 1025 0000 10B5     		push	{r4, lr}
 1026 0002 2024     		movs	r4, #32
 1027              	@ 546 "/home/cody/dev/chibios/trunk/os/ext/CMSIS/include/core_cmFunc.h" 1
 1028 0004 84F31188 		MSR basepri, r4
 1029              	@ 0 "" 2
 1030              		.thumb
 1031 0008 0324     		movs	r4, #3
 1032 000a 0470     		strb	r4, [r0]
 1033 000c FFF7FEFF 		bl	spi_lld_receive
 1034 0010 0023     		movs	r3, #0
 1035              	@ 546 "/home/cody/dev/chibios/trunk/os/ext/CMSIS/include/core_cmFunc.h" 1
 1036 0012 83F31188 		MSR basepri, r3
 1037              	@ 0 "" 2
 1038              		.thumb
 1039 0016 10BD     		pop	{r4, pc}
 1040              		.size	spiStartReceive, .-spiStartReceive
 1041 0018 AFF30080 		.section	.text.spiIgnore,"ax",%progbits
 1041      AFF30080 
 1042              		.align	2
ARM GAS  /tmp/ccQ0n2Wm.s 			page 67


 1043              		.p2align 4,,15
 1044              		.global	spiIgnore
 1045              		.thumb
 1046              		.thumb_func
 1047              		.type	spiIgnore, %function
 1048              	spiIgnore:
 1049              		@ args = 0, pretend = 0, frame = 0
 1050              		@ frame_needed = 0, uses_anonymous_args = 0
 1051 0000 10B5     		push	{r4, lr}
 1052 0002 2023     		movs	r3, #32
 1053 0004 0446     		mov	r4, r0
 1054              	@ 546 "/home/cody/dev/chibios/trunk/os/ext/CMSIS/include/core_cmFunc.h" 1
 1055 0006 83F31188 		MSR basepri, r3
 1056              	@ 0 "" 2
 1057              		.thumb
 1058 000a 0323     		movs	r3, #3
 1059 000c 04F8083B 		strb	r3, [r4], #8
 1060 0010 FFF7FEFF 		bl	spi_lld_ignore
 1061 0014 2046     		mov	r0, r4
 1062 0016 FFF7FEFF 		bl	chThdSuspendS
 1063 001a 0023     		movs	r3, #0
 1064              	@ 546 "/home/cody/dev/chibios/trunk/os/ext/CMSIS/include/core_cmFunc.h" 1
 1065 001c 83F31188 		MSR basepri, r3
 1066              	@ 0 "" 2
 1067              		.thumb
 1068 0020 10BD     		pop	{r4, pc}
 1069              		.size	spiIgnore, .-spiIgnore
 1070 0022 00BFAFF3 		.section	.text.spiExchange,"ax",%progbits
 1070      0080AFF3 
 1070      0080AFF3 
 1070      0080
 1071              		.align	2
 1072              		.p2align 4,,15
 1073              		.global	spiExchange
 1074              		.thumb
 1075              		.thumb_func
 1076              		.type	spiExchange, %function
 1077              	spiExchange:
 1078              		@ args = 0, pretend = 0, frame = 0
 1079              		@ frame_needed = 0, uses_anonymous_args = 0
 1080 0000 38B5     		push	{r3, r4, r5, lr}
 1081 0002 0446     		mov	r4, r0
 1082 0004 2025     		movs	r5, #32
 1083              	@ 546 "/home/cody/dev/chibios/trunk/os/ext/CMSIS/include/core_cmFunc.h" 1
 1084 0006 85F31188 		MSR basepri, r5
 1085              	@ 0 "" 2
 1086              		.thumb
 1087 000a 0325     		movs	r5, #3
 1088 000c 04F8085B 		strb	r5, [r4], #8
 1089 0010 FFF7FEFF 		bl	spi_lld_exchange
 1090 0014 2046     		mov	r0, r4
 1091 0016 FFF7FEFF 		bl	chThdSuspendS
 1092 001a 0023     		movs	r3, #0
 1093              	@ 546 "/home/cody/dev/chibios/trunk/os/ext/CMSIS/include/core_cmFunc.h" 1
 1094 001c 83F31188 		MSR basepri, r3
 1095              	@ 0 "" 2
 1096              		.thumb
ARM GAS  /tmp/ccQ0n2Wm.s 			page 68


 1097 0020 38BD     		pop	{r3, r4, r5, pc}
 1098              		.size	spiExchange, .-spiExchange
 1099 0022 00BFAFF3 		.section	.text.spiSend,"ax",%progbits
 1099      0080AFF3 
 1099      0080AFF3 
 1099      0080
 1100              		.align	2
 1101              		.p2align 4,,15
 1102              		.global	spiSend
 1103              		.thumb
 1104              		.thumb_func
 1105              		.type	spiSend, %function
 1106              	spiSend:
 1107              		@ args = 0, pretend = 0, frame = 0
 1108              		@ frame_needed = 0, uses_anonymous_args = 0
 1109 0000 10B5     		push	{r4, lr}
 1110 0002 2023     		movs	r3, #32
 1111 0004 0446     		mov	r4, r0
 1112              	@ 546 "/home/cody/dev/chibios/trunk/os/ext/CMSIS/include/core_cmFunc.h" 1
 1113 0006 83F31188 		MSR basepri, r3
 1114              	@ 0 "" 2
 1115              		.thumb
 1116 000a 0323     		movs	r3, #3
 1117 000c 04F8083B 		strb	r3, [r4], #8
 1118 0010 FFF7FEFF 		bl	spi_lld_send
 1119 0014 2046     		mov	r0, r4
 1120 0016 FFF7FEFF 		bl	chThdSuspendS
 1121 001a 0023     		movs	r3, #0
 1122              	@ 546 "/home/cody/dev/chibios/trunk/os/ext/CMSIS/include/core_cmFunc.h" 1
 1123 001c 83F31188 		MSR basepri, r3
 1124              	@ 0 "" 2
 1125              		.thumb
 1126 0020 10BD     		pop	{r4, pc}
 1127              		.size	spiSend, .-spiSend
 1128 0022 00BFAFF3 		.section	.text.spiReceive,"ax",%progbits
 1128      0080AFF3 
 1128      0080AFF3 
 1128      0080
 1129              		.align	2
 1130              		.p2align 4,,15
 1131              		.global	spiReceive
 1132              		.thumb
 1133              		.thumb_func
 1134              		.type	spiReceive, %function
 1135              	spiReceive:
 1136              		@ args = 0, pretend = 0, frame = 0
 1137              		@ frame_needed = 0, uses_anonymous_args = 0
 1138 0000 10B5     		push	{r4, lr}
 1139 0002 2023     		movs	r3, #32
 1140 0004 0446     		mov	r4, r0
 1141              	@ 546 "/home/cody/dev/chibios/trunk/os/ext/CMSIS/include/core_cmFunc.h" 1
 1142 0006 83F31188 		MSR basepri, r3
 1143              	@ 0 "" 2
 1144              		.thumb
 1145 000a 0323     		movs	r3, #3
 1146 000c 04F8083B 		strb	r3, [r4], #8
 1147 0010 FFF7FEFF 		bl	spi_lld_receive
ARM GAS  /tmp/ccQ0n2Wm.s 			page 69


 1148 0014 2046     		mov	r0, r4
 1149 0016 FFF7FEFF 		bl	chThdSuspendS
 1150 001a 0023     		movs	r3, #0
 1151              	@ 546 "/home/cody/dev/chibios/trunk/os/ext/CMSIS/include/core_cmFunc.h" 1
 1152 001c 83F31188 		MSR basepri, r3
 1153              	@ 0 "" 2
 1154              		.thumb
 1155 0020 10BD     		pop	{r4, pc}
 1156              		.size	spiReceive, .-spiReceive
 1157 0022 00BFAFF3 		.section	.text.spiAcquireBus,"ax",%progbits
 1157      0080AFF3 
 1157      0080AFF3 
 1157      0080
 1158              		.align	2
 1159              		.p2align 4,,15
 1160              		.global	spiAcquireBus
 1161              		.thumb
 1162              		.thumb_func
 1163              		.type	spiAcquireBus, %function
 1164              	spiAcquireBus:
 1165              		@ args = 0, pretend = 0, frame = 0
 1166              		@ frame_needed = 0, uses_anonymous_args = 0
 1167              		@ link register save eliminated.
 1168 0000 0C30     		adds	r0, r0, #12
 1169 0002 FFF7FEBF 		b	chMtxLock
 1170              		.size	spiAcquireBus, .-spiAcquireBus
 1171 0006 00BFAFF3 		.section	.text.spiReleaseBus,"ax",%progbits
 1171      0080AFF3 
 1171      0080
 1172              		.align	2
 1173              		.p2align 4,,15
 1174              		.global	spiReleaseBus
 1175              		.thumb
 1176              		.thumb_func
 1177              		.type	spiReleaseBus, %function
 1178              	spiReleaseBus:
 1179              		@ args = 0, pretend = 0, frame = 0
 1180              		@ frame_needed = 0, uses_anonymous_args = 0
 1181              		@ link register save eliminated.
 1182 0000 0C30     		adds	r0, r0, #12
 1183 0002 FFF7FEBF 		b	chMtxUnlock
 1184              		.size	spiReleaseBus, .-spiReleaseBus
 1185              		.comm	__gnu_lto_v1,1,1
 1186 0006 00BFAFF3 		.ident	"GCC: (GNU Tools for ARM Embedded Processors) 4.8.4 20140526 (release) [ARM/embedded-4_8-br
 1186      0080AFF3 
 1186      0080
ARM GAS  /tmp/ccQ0n2Wm.s 			page 70


DEFINED SYMBOLS
                            *ABS*:0000000000000000 spi.c
     /tmp/ccQ0n2Wm.s:803    .text.spiInit:0000000000000000 $t
     /tmp/ccQ0n2Wm.s:809    .text.spiInit:0000000000000000 spiInit
     /tmp/ccQ0n2Wm.s:816    .text.spiObjectInit:0000000000000000 $t
     /tmp/ccQ0n2Wm.s:822    .text.spiObjectInit:0000000000000000 spiObjectInit
     /tmp/ccQ0n2Wm.s:835    .text.spiStart:0000000000000000 $t
     /tmp/ccQ0n2Wm.s:841    .text.spiStart:0000000000000000 spiStart
     /tmp/ccQ0n2Wm.s:863    .text.spiStop:0000000000000000 $t
     /tmp/ccQ0n2Wm.s:869    .text.spiStop:0000000000000000 spiStop
     /tmp/ccQ0n2Wm.s:890    .text.spiSelect:0000000000000000 $t
     /tmp/ccQ0n2Wm.s:896    .text.spiSelect:0000000000000000 spiSelect
     /tmp/ccQ0n2Wm.s:914    .text.spiUnselect:0000000000000000 $t
     /tmp/ccQ0n2Wm.s:920    .text.spiUnselect:0000000000000000 spiUnselect
     /tmp/ccQ0n2Wm.s:938    .text.spiStartIgnore:0000000000000000 $t
     /tmp/ccQ0n2Wm.s:944    .text.spiStartIgnore:0000000000000000 spiStartIgnore
     /tmp/ccQ0n2Wm.s:964    .text.spiStartExchange:0000000000000000 $t
     /tmp/ccQ0n2Wm.s:970    .text.spiStartExchange:0000000000000000 spiStartExchange
     /tmp/ccQ0n2Wm.s:990    .text.spiStartSend:0000000000000000 $t
     /tmp/ccQ0n2Wm.s:996    .text.spiStartSend:0000000000000000 spiStartSend
     /tmp/ccQ0n2Wm.s:1016   .text.spiStartReceive:0000000000000000 $t
     /tmp/ccQ0n2Wm.s:1022   .text.spiStartReceive:0000000000000000 spiStartReceive
     /tmp/ccQ0n2Wm.s:1042   .text.spiIgnore:0000000000000000 $t
     /tmp/ccQ0n2Wm.s:1048   .text.spiIgnore:0000000000000000 spiIgnore
     /tmp/ccQ0n2Wm.s:1071   .text.spiExchange:0000000000000000 $t
     /tmp/ccQ0n2Wm.s:1077   .text.spiExchange:0000000000000000 spiExchange
     /tmp/ccQ0n2Wm.s:1100   .text.spiSend:0000000000000000 $t
     /tmp/ccQ0n2Wm.s:1106   .text.spiSend:0000000000000000 spiSend
     /tmp/ccQ0n2Wm.s:1129   .text.spiReceive:0000000000000000 $t
     /tmp/ccQ0n2Wm.s:1135   .text.spiReceive:0000000000000000 spiReceive
     /tmp/ccQ0n2Wm.s:1158   .text.spiAcquireBus:0000000000000000 $t
     /tmp/ccQ0n2Wm.s:1164   .text.spiAcquireBus:0000000000000000 spiAcquireBus
     /tmp/ccQ0n2Wm.s:1172   .text.spiReleaseBus:0000000000000000 $t
     /tmp/ccQ0n2Wm.s:1178   .text.spiReleaseBus:0000000000000000 spiReleaseBus
                            *COM*:0000000000000001 __gnu_lto_v1

UNDEFINED SYMBOLS
spi_lld_init
chMtxObjectInit
spi_lld_start
spi_lld_stop
spi_lld_select
spi_lld_unselect
spi_lld_ignore
spi_lld_exchange
spi_lld_send
spi_lld_receive
chThdSuspendS
chMtxLock
chMtxUnlock
