ARM GAS  /tmp/cc05KhpP.s 			page 1


   1              		.syntax unified
   2              		.cpu cortex-m3
   3              		.fpu softvfp
   4              		.eabi_attribute 20, 1
   5              		.eabi_attribute 21, 1
   6              		.eabi_attribute 23, 3
   7              		.eabi_attribute 24, 1
   8              		.eabi_attribute 25, 1
   9              		.eabi_attribute 26, 1
  10              		.eabi_attribute 30, 2
  11              		.eabi_attribute 34, 1
  12              		.eabi_attribute 18, 4
  13              		.thumb
  14              		.file	"spi_lld.c"
  15              		.section	.gnu.lto_.jmpfuncs.24b939c84b905308,"",%progbits
  16 0000 789C6362 		.ascii	"x\234cb`b\300\006\256\0011/\030312U3\374j\230\321 \220"
  16      6062C006 
  16      AE01312F 
  16      18333132 
  16      5533FC6A 
  17 0018 C9C820C7 		.ascii	"\311\310 \307\3008\267a\206C&##X\025#3P7S\004c&#\310"
  17      C038B761 
  17      86432623 
  17      23581523 
  17      33503753 
  18 0031 14BC0A81 		.ascii	"\024\274\012\201D\031\003\220\007R\314\314\302P\017"
  18      44190390 
  18      0752CCCC 
  18      C2500F
  19 0040 D4C7C00C 		.ascii	"\324\307\300\014\325\322\001\322\302\222\013Q\312\316"
  19      D5D201D2 
  19      C2920B51 
  19      CACE
  20 004e C8023593 		.ascii	"\310\0025\223\225\013\310\200\313\263%C\344!&1\340T"
  20      950BC880 
  20      CBB32543 
  20      E4212631 
  20      E054
  21 0060 C488A488 		.ascii	"\304\210\244\210\203\221\001\310\005\"NF.Fnf^~>v~v\001"
  21      839101C8 
  21      05224E46 
  21      2E466E66 
  21      5E7E3E76 
  22 0077 66061E17 		.ascii	"f\006\036\027_G\205\264\304\314\234\322\242T\006\000"
  22      5F4785B4 
  22      C4CC9CD2 
  22      A2540600 
  23 0087 CB8F226B 		.ascii	"\313\217\"k"
  24              		.text
  25              		.section	.gnu.lto_.inline.24b939c84b905308,"",%progbits
  26 0000 789C9D52 		.ascii	"x\234\235R\275k\024Q\020\237\231\367\366#\267\227\270"
  26      BD6B1451 
  26      109F99F7 
  26      F623B797 
  26      B8
  27 0011 E6D342E2 		.ascii	"\346\323B\342uV\346\021\305* [$\205\020\217@\024lD\342"
  27      7556E611 
ARM GAS  /tmp/cc05KhpP.s 			page 2


  27      C52A205B 
  27      2485108F 
  27      40146C44 
  28 0026 5DC81E5E 		.ascii	"]\310\036^\274\220\213\001\011\310\026\026W^a%\026\211"
  28      BC908B01 
  28      09C81616 
  28      575E6125 
  28      1689
  29 0038 F84708B1 		.ascii	"\370G\010\2618\260P\354\003!\325B\032KK\261r\336\207"
  29      38B050EC 
  29      0321D542 
  29      1A4B4BB1 
  29      72DE87
  30 004b 7B77E490 		.ascii	"{w\344\220\340[\230\371\315\354|\374\346\315# \030u"
  30      E05B98F9 
  30      CDEC7CFC 
  30      E6CD2320 
  30      1875
  31 005d CE04C00A 		.ascii	"\316\004\300\012\353q\200p\014\3710f\027\370\2077\010"
  31      EB718070 
  31      0CF93066 
  31      17F88737 
  31      08
  32 006e FC9F0B52 		.ascii	"\374\237\013R\007Q\004\200\374\335ZB2\021`\302\356\276"
  32      07510480 
  32      FCDD5A42 
  32      321160C2 
  32      EEBE
  33 0080 7D2360FC 		.ascii	"}#`\374\363J?P\2249\270[u\0112f\331\255\362o\017\201"
  33      F34A3F50 
  33      9439B85B 
  33      75093266 
  33      D9ADF26F 
  34 0096 38C65635 		.ascii	"8\306V5\035\242)v\225\363'\205\313\246\004\2604\217"
  34      1DA22976 
  34      95F32785 
  34      CBA604B0 
  34      348F
  35 00a8 016C3DC6 		.ascii	"\001l=\306\006\012\324L\322>\334:\200\337Y'\313\277"
  35      060AD44C 
  35      D23EDC3A 
  35      80DF5927 
  35      CBBF
  36 00ba 1C7F679F 		.ascii	"\034\177g\237\334F;B\272\201Gx`I\011K\315\300\214\""
  36      DC463B42 
  36      BA814778 
  36      6049094B 
  36      CDC08C22 
  37 00ce D5FB4870 		.ascii	"\325\373Hp\365\327#\002\374\021$\004^\347f\0022\017"
  37      F5D72302 
  37      FC112404 
  37      5EE76602 
  37      320F
  38 00e0 33948093 		.ascii	"3\224\200\223\031\305\222\234f\245\215\3405C\361\315"
  38      19C5929C 
  38      66A58DE0 
  38      3543F1CD 
ARM GAS  /tmp/cc05KhpP.s 			page 3


  39 00f0 671875AE 		.ascii	"g\030u\256\231\231\274\011`\237\344\251\240[\0352B\230"
  39      9999BC09 
  39      609FE4A9 
  39      A05B1D32 
  39      4298
  40 0102 8C307464 		.ascii	"\2140td\251O\226\006\310\366\336\315\017S\3750LU\344"
  40      A94F9606 
  40      C8F6DECD 
  40      0F53FD30 
  40      4C55E4
  41 0115 E8C81AE2 		.ascii	"\350\310\032\342\321\337\253\037\340\213_\221\371\222"
  41      D1DFAB1F 
  41      E08B5F91 
  41      F992
  42 0123 D3E09D07 		.ascii	"\323\340\235\007\322`r>2&\033\362\275\237I\303\031K"
  42      D260723E 
  42      32261BF2 
  42      BD9F49C3 
  42      194B
  43 0135 9AA6BE53 		.ascii	"\232\246\276Si6\340\364\030\204\001\332~\025\031\366"
  43      6936E0F4 
  43      188401DA 
  43      7E1519F6 
  44 0145 EE15ADA4 		.ascii	"\356\025\255\244\225:\265t\211\230\010f\246\365\015"
  44      953AB574 
  44      89980866 
  44      A6F50D
  45 0154 16BC45CF 		.ascii	"\026\274E\317\252C\253r*]\317\317\360B*\213\320\300"
  45      AA43AB72 
  45      2A5DCFCF 
  45      F0422A8B 
  45      D0C0
  46 0166 508BD8C0 		.ascii	"P\213\330\300X\213\212\201\0250\017qn\026}W[\024\313"
  46      588B8A81 
  46      15300F71 
  46      6E167D57 
  46      5B14CB
  47 0179 2C1A50E1 		.ascii	",\032P\341\372G\027.->\315\015\225f\221\241qg\246\302"
  47      FA47172E 
  47      2D3ECD0D 
  47      956691A1 
  47      7167A6C2 
  48 018d 04CCCEA0 		.ascii	"\004\314\316\2407r\206K\265\030=Hb:$:\377\312`\003\272"
  48      3772864B 
  48      B5183D48 
  48      623A243A 
  48      FFCA6003 
  49 01a2 38C8FFCD 		.ascii	"8\310\377\315\220\330\247\241\253\305PZt\233\312Q\226"
  49      90D8A7A1 
  49      ABC5505A 
  49      749BCA51 
  49      96
  50 01b3 4F4FBC51 		.ascii	"OO\274Q\273\202e\225\266\2667U\255U\177\245\352\233"
  50      BB826595 
  50      B6B63755 
  50      AD557FA5 
  50      EA9B
ARM GAS  /tmp/cc05KhpP.s 			page 4


  51 01c5 FBAA9636 		.ascii	"\373\252\2266\2365Zm\265\267\373\362\305s\305 \335h"
  51      9E355A6D 
  51      B5B7FBF2 
  51      C573C520 
  51      DD68
  52 01d7 AA9DD6EE 		.ascii	"\252\235\326\356^[\255?|p\347\266Z]]V\353k\367\367\027"
  52      5E5BAD3F 
  52      7C70E7B6 
  52      5A5D5D56 
  52      EB6BF7F7 
  53 01ec 557BA7F1 		.ascii	"U{\247\361\264\331\254/\324\340\017\260\001\236Z"
  53      B4D9AC2F 
  53      D4E00FB0 
  53      019E5A
  54              		.text
  55              		.section	.gnu.lto_.pureconst.24b939c84b905308,"",%progbits
  56 0000 789C6362 		.ascii	"x\234cb`b\220f\200\000^\006\011F+&)f\011v)\016)N).)"
  56      60629066 
  56      80005E06 
  56      09462B26 
  56      29660976 
  57 001b 6E295E29 		.ascii	"n)^)>)~)\001)\000\035{\002\010"
  57      3E297E29 
  57      0129001D 
  57      7B0208
  58              		.text
  59              		.section	.gnu.lto_spi_lld_serve_tx_interrupt.24b939c84b905308,"",%progbits
  60 0000 789C6362 		.ascii	"x\234cb`b@\007F@,\304\310\300\320\016\244\031Y\031\030"
  60      60624007 
  60      46402CC4 
  60      C8C0D00E 
  60      A4195919 
  61 0015 99269C63 		.ascii	"\231&\234c`h\344`bb\336%\307\320\300\305rM\237\241\201"
  61      6068E460 
  61      6262DE25 
  61      C7D0C0C5 
  61      724D9FA1 
  62 002a 87999105 		.ascii	"\207\231\221\005\"\314\302\310\010b002\32431\2630\326"
  62      22CCC2C8 
  62      08623030 
  62      32D43331 
  62      B330D6
  63 003d 4732820D 		.ascii	"G2\202\015Y\317t\340\301\377\377\353\376\234:s\220\361"
  63      59CF74E0 
  63      C1FFFFEB 
  63      FE9C3A73 
  63      90F1
  64 004f 962A3B13 		.ascii	"\226*;\023c.#\0033C&X\222\225\241\245\241a\202\002\003"
  64      632E2303 
  64      33432658 
  64      9295A1A5 
  64      A1618202 
  65 0064 4332981B 		.ascii	"C2\230\033\002$AF\20422\201h\346\263\014\315\273\233"
  65      02244146 
  65      84323281 
  65      68E6B30C 
  65      CDBB9B
ARM GAS  /tmp/cc05KhpP.s 			page 5


  66 0077 D74F934B 		.ascii	"\327O\223Kd\\\010\264>\235\2219\235\221)\202\021\250"
  66      645C08B4 
  66      3E9D9139 
  66      9D912982 
  66      11A8
  67 0089 9503A8F8 		.ascii	"\225\003\250\370\004C\313\233F^\270\024X\034\031\204"
  67      0443CB9B 
  67      465EB814 
  67      581C1984 
  68 0099 323233EC 		.ascii	"223\354\222c>\317\320\362\241\377\361\372\307\214p\273"
  68      92633ECF 
  68      D0F2A1FF 
  68      F1FAC78C 
  68      70BB
  69 00ab 208C03DD 		.ascii	" \214\003\335\317\202\030\030 \332\223\031\241Z\253"
  69      CF821818 
  69      20DA9319 
  69      A15AAB
  70 00ba 197E3574 		.ascii	"\031~5t4\010d22&32%2.\006\312AE%2\031\231\344\030\252"
  70      34086432 
  70      32263332 
  70      25322E06 
  70      CA414525 
  71 00d4 E736CC70 		.ascii	"\3476\314p\310\004\032\014\321\007\364\005\013\3142"
  71      C8041A0C 
  71      D107F405 
  71      0BCC32
  72 00e3 16B08B2F 		.ascii	"\026\260\213/24>\270\245\012\225\205\202\020\240\351"
  72      32343EB8 
  72      A50A9585 
  72      8210A0E9 
  73 00f3 403950F0 		.ascii	"@9P\360\272\350g\344\347\246\352'\347\247T\352\247\244"
  73      BAE867E4 
  73      E7A6EA27 
  73      E7A754EA 
  73      A7A4
  74 0105 96E92767 		.ascii	"\226\351'gd&e\346\027\353\227\024\225\346e\353\003\031"
  74      642665E6 
  74      17EB9714 
  74      95E665EB 
  74      0319
  75 0117 198939FA 		.ascii	"\031\2119\372\005\371E%\305\372\301!\276\306F\372>>"
  75      05F94525 
  75      C5FAC121 
  75      BEC646FA 
  75      3E3E
  76 0129 2EFAC101 		.ascii	".\372\301\001\236e\206\372\305\005\231\36199)z\311\014"
  76      9E6586FA 
  76      C50599F1 
  76      3939297A 
  76      C90C
  77 013b C6C41892 		.ascii	"\306\304\030\222_\014$\212J\300\264^\006\003\217\213"
  77      5F0C248A 
  77      4AC0B45E 
  77      06038F8B 
  78 014b AFA3425A 		.ascii	"\257\243BZbfNiQ*\003\000\177\361v\307"
  78      62664E69 
ARM GAS  /tmp/cc05KhpP.s 			page 6


  78      512A0300 
  78      7FF176C7 
  79              		.text
  80              		.section	.gnu.lto_spi_lld_serve_rx_interrupt.24b939c84b905308,"",%progbits
  81 0000 789CA555 		.ascii	"x\234\245UMh\033W\020\236\331]i\327\277\222#Y\226lW"
  81      4D681B57 
  81      109ED95D 
  81      69D7BF92 
  81      2359966C 
  82 0015 520DC9A1 		.ascii	"R\015\311\241i\263\371\2014\307\224\232\202!\206\022"
  82      69B3F981 
  82      34C7949A 
  82      82218612 
  83 0025 D990F412 		.ascii	"\331\220\364\022\344\225j/\225,#\331\241\211\017\221"
  83      E4956A2F 
  83      952C23D9 
  83      A1890F91 
  84 0035 62057A29 		.ascii	"b\005z)\311\241\007\323Rh\361\24584\241\275\246\207"
  84      C9A107D3 
  84      5268F1A5 
  84      3834A1BD 
  84      A687
  85 0047 F48FC449 		.ascii	"\364\217\304I\032\223\220&`\010\204\272\320K):\347\242"
  85      1A939026 
  85      600884BA 
  85      D04B293A 
  85      E7A2
  86 0059 CEECBE7D 		.ascii	"\316\354\276}V\354m\344\320\007\232};3\337\274o\336"
  86      56EC6DE4 
  86      D0079A7D 
  86      3B33DFBC 
  86      6FDE
  87 006b B77A4F01 		.ascii	"\267zO\001\005\266\217\034\375\236\351\000\177\322\023"
  87      05B68F1C 
  87      FD9EE900 
  87      7FD213
  88 007a 3B00952B 		.ascii	";\000\225+\367\001j\206\242\250\217bP\355\324~x\033"
  88      F7016A86 
  88      A2A88F62 
  88      50EDD47E 
  88      781B
  89 008c AADD2A6A 		.ascii	"\252\335*j\256[S\002\267\216\222[_\033 w@\0116\372\351"
  89      AE5B5302 
  89      B78E925B 
  89      5F1B2077 
  89      400936FA 
  90 00a1 CDF8EA18 		.ascii	"\315\370\352\030\275\005\321p\223tob \362\004\020.("
  90      BD05D170 
  90      93746F62 
  90      20F20410 
  90      2E28
  91 00b3 AA1608EA 		.ascii	"\252\026\010\352\006^8\215\316\262\327\225\233\317\232"
  91      065E388D 
  91      CEB2D795 
  91      9BCF9A
  92 00c2 CD6BCB77 		.ascii	"\315k\313w\356\375\210\327\366\276\245b\021A\003\033"
  92      EEFD88D7 
ARM GAS  /tmp/cc05KhpP.s 			page 7


  92      F6BEA562 
  92      1141031B 
  93 00d2 41A7191A 		.ascii	"A\247\031\0324#26*\235\354\353b\323CF\355%\243\205\310"
  93      34233236 
  93      2A9DECEB 
  93      62D34346 
  93      ED25A385 
  94 00e7 04C26CFA 		.ascii	"\004\302l\3728\020\341\344('\367\363k\214M\234\223\023"
  94      3810E1E4 
  94      2827F7F3 
  94      6B8C4D9C 
  94      9313
  95 00f9 9C3CC879 		.ascii	"\234<\310yCl\2069\220$\023L\221\321G\310\030\373\310"
  95      436C8639 
  95      9024134C 
  95      91D147C8 
  95      18FBC8
  96 010c 74109D00 		.ascii	"t\020\235\000\324\253\325+i\000\313\2417A\226\231O\242"
  96      D4ABD52B 
  96      6900CBA1 
  96      37419699 
  96      4FA2
  97 011e C24FF537 		.ascii	"\302O\3657X\272\261\264\371Y2\213_c\000\246Q\233F\365"
  97      58BAB1B4 
  97      F959328B 
  97      5F6300A6 
  97      519B46F5 
  98 0132 14523983 		.ascii	"\024R9\203\222oC\375\357Z\217\0149\376\3261\211*<\212"
  98      926F43FD 
  98      EF5A8F0C 
  98      39FED631 
  98      892A3C8A 
  99 0146 A9EB506F 		.ascii	"\251\353Po\\\336\274\276\211r-wr\363\356\275\223\000"
  99      5CDEBCBE 
  99      89722D77 
  99      72F3EEBD 
  99      9300
 100 0158 2EDC4201 		.ascii	".\334B\001]\204\347\325O\252a\033;-T\262\270B1\341\215"
 100      5D84E7D5 
 100      4FAA611B 
 100      3B2D54B2 
 100      B84231E1 
 101 016d DBD89584 		.ascii	"\333\330\225\204\305/\253\313\307m\354\0268\352\242"
 101      C52FABCB 
 101      C76DEC16 
 101      38EAA2
 102 017c C75B4C13 		.ascii	"\307[L\023\214/n,\257&<V\306~x\203v\351\013\370\234"
 102      8C2F6E2C 
 102      AF263C56 
 102      C67E7883 
 102      76E90BF8 
 103 0191 D8F54EA3 		.ascii	"\330\365N\243\316,C\016bJ\262%\314\007\036\240c?\254"
 103      CE2C430E 
 103      624AB225 
 103      CC071EA0 
 103      633FAC
 104 01a4 F2FA6117 		.ascii	"\362\372a\027\322G%\030\202\002\202\022\362\223\204"
ARM GAS  /tmp/cc05KhpP.s 			page 8


 104      D2472518 
 104      82028212 
 104      F29384
 105 01b3 7432A45E 		.ascii	"t2\244^#\320\036\027\024\2412\014\012\013\220\"AK7T"
 105      23D01E17 
 105      14A1320C 
 105      0A0B9022 
 105      414B3754 
 106 01c7 0FD54540 		.ascii	"\017\325E@g\313\032\315f3\344\226\034s\203\273\253G"
 106      67CB1ACD 
 106      6633E496 
 106      1C7383BB 
 106      AB47
 107 01d9 255EA4DE 		.ascii	"%^\244\336#\250G\375\251\253>\335\366\012H\277?D\333"
 107      23A847FD 
 107      A9AB3EDD 
 107      F60A48BF 
 107      3F44DB
 108 01ec 82FC2389 		.ascii	"\202\374#\211\207\010\346\364\362\255t\205\031\024\010"
 108      8708E6F4 
 108      F2AD7485 
 108      191408
 109 01fb 71705B32 		.ascii	"qp[2U\014\267\266F\353\324\352\224\274\207\3502(*Z\351"
 109      550CB7B6 
 109      46EBD4EA 
 109      94BC87E8 
 109      32282A5A 
 110 0210 73701BDF 		.ascii	"sp\033\337\254\242\207\214\274L\271\200O/\321\035\312"
 110      ACA2878C 
 110      BC4CB980 
 110      4F2FD11D 
 110      CA
 111 0221 45DA29D7 		.ascii	"E\332)\327\357\263\323\321\266\312\305\010\270{\345"
 111      EFB3D3D1 
 111      B6CAC508 
 111      B87BE5
 112 0230 7CEA5189 		.ascii	"|\352Q\211\027\251\307w(\027i\247\\b\207r\221\266\312"
 112      17A9C777 
 112      281769A7 
 112      5C628772 
 112      91B6CA
 113 0243 0D126C9B 		.ascii	"\015\022l\233rCR\271\301m\311\303\024\374\017\345\342"
 113      724352B9 
 113      C16DC9C3 
 113      14FC0FE5 
 113      E2
 114 0254 ADCA0D0B 		.ascii	"\255\312\015\013\345\256J\345\222\216rA\177\345\202"
 114      E5AE4AE5 
 114      928E7241 
 114      7FE582
 115 0263 3EBDA444 		.ascii	">\275\244D/1\0272@%\030\022\024\020]@\370\274\221\213"
 115      2F311732 
 115      40251812 
 115      14105D40 
 115      F8BC918B 
 116 0277 A438230E 		.ascii	"\2448#\016-c\222\374\267\216\362\001p\314\023\203h$"
 116      2D6392FC 
ARM GAS  /tmp/cc05KhpP.s 			page 9


 116      B78EF201 
 116      70CC1383 
 116      6824
 117 0289 FC6918CE 		.ascii	"\374i\030\316\223=\011\336\252u\320\304\201\302\245"
 117      933D09DE 
 117      AA75D0C4 
 117      81C2A5
 118 0298 D9E8B6D8 		.ascii	"\331\350\266\330\021\311r\244}=\346\370\313_\222\343"
 118      11C972A4 
 118      7D3DE6F8 
 118      CB5F92E3 
 119 02a8 88ACBFC5 		.ascii	"\210\254\277\3051\010+\241W\347\250H\274\016k\003\377"
 119      31082BA1 
 119      57E7A848 
 119      BC0E6B03 
 119      FF
 120 02b9 076F38A7 		.ascii	"\007o8\247\344}\270\370\335\362\257\337w\313#\331\353"
 120      E47DB8F8 
 120      DDF2AFDF 
 120      77CB23D9 
 120      EB
 121 02ca 9EAE2C84 		.ascii	"\236\256,\2045\372\342\010\241\272\267f\0226\320=u\207"
 121      35FAE208 
 121      A1BAB766 
 121      1236D03D 
 121      7587
 122 02dc BC7AC369 		.ascii	"\274z\303i\236\311\370S\021\177MJ\373\374\347\265\307"
 122      9EC9F853 
 122      117F4D4A 
 122      FBFCE7B5 
 122      C7
 123 02ed 8AB70DFB 		.ascii	"\212\267\015\373\026\341\274\315\007+QM\372S\355\330"
 123      16E1BCCD 
 123      072B514D 
 123      FA53EDD8 
 124 02fd DAA275B8 		.ascii	"\332\242u\270\324\270\274r\365\323\324\216\353\342\361"
 124      D4B8BC72 
 124      F5D3D48E 
 124      EBE2F1
 125 030c E1ADEB42 		.ascii	"\341\255\353B\374%\344u\221\262\220\024|\342\366@Kr"
 125      FC25E475 
 125      91B29014 
 125      7CE2F640 
 125      4B72
 126 031e F1345F0F 		.ascii	"\3614_\017\257\003\354\252\331,\256\323\304i\016Z\232"
 126      AF03ECAA 
 126      D92CAED3 
 126      C4690E5A 
 126      9A
 127 032f CBE2434C 		.ascii	"\313\342CL\272k=\200Z\343\217\337\345w\342\216\011\372"
 127      BA6B3D80 
 127      5AE38FDF 
 127      E577E28E 
 127      09FA
 128 0341 C7D18672 		.ascii	"\307\321\206r\356\2509S*\346M\253\224;g\346\362gMk\306"
 128      EEA83953 
 128      2AE64DAB 
ARM GAS  /tmp/cc05KhpP.s 			page 10


 128      943B67E6 
 128      F2674D6B 
 129 0356 9EB24B15 		.ascii	"\236\262K\025s\276\2740\373\221I\223\231l\301\234+\225"
 129      73BEBC30 
 129      FB914993 
 129      996CC19C 
 129      2B95
 130 0368 E72B6666 		.ascii	"\347+ffb\374\310a\363\304\211Q3\363\376\330\331Cfe\316"
 130      62FCC861 
 130      F3C48951 
 130      33F3FED8 
 130      D9436665 
 131 037d 3E5328E4 		.ascii	">S(\344\016Xpd7EJ\0252\345y\347y`\006\272G\307\337I"
 131      0E587064 
 131      37454A15 
 131      32E579E7 
 131      796006BA 
 132 0395 7F98B50B 		.ascii	"\177\230\265\013\013\345<\034oW \377\361\274\371\356"
 132      0BE53C1C 
 132      6F5720FF 
 132      F1BCF9EE 
 133 03a5 78662C63 		.ascii	"xf,c\332\263Va!\307\271\345\374\031\253\370\336\302"
 133      DAB35661 
 133      21C7B9E5 
 133      FC19ABF8 
 133      DEC2
 134 03b7 AC45D5C2 		.ascii	"\254E\325\302\343\231\223\351\251l%?W\266\337L\357="
 134      E39993E9 
 134      A96C253F 
 134      57B6DF4C 
 134      EF3D
 135 03c9 084A19F4 		.ascii	"\010J\031\364b\276X*\237\203\177\001\367\214\322d"
 135      62BE582A 
 135      9F837F01 
 135      F78CD264 
 136              		.text
 137              		.section	.gnu.lto_spi_lld_stop.part.0.24b939c84b905308,"",%progbits
 138 0000 789C954F 		.ascii	"x\234\225O\261J\003A\024|\263\267\027\004\013m\355\202"
 138      B14A0341 
 138      147CB3B7 
 138      17040B6D 
 138      ED82
 139 0012 6DC0452D 		.ascii	"m\300E-m\003\022\214\020\310\005\264\222\344\022\314"
 139      6D03128C 
 139      10C805B4 
 139      92E412CC 
 140 0022 61F44212 		.ascii	"a\364B\022\003V\331\323\024\226\207\2456\011bcca%\242"
 140      0356D9D3 
 140      149687A5 
 140      36096263 
 140      636125A2 
 141 0036 45FA0876 		.ascii	"E\372\010vbc\300\017\360\017\\\337^H\241\235\017vgv"
 141      6263C00F 
 141      F00F5CDF 
 141      5E48A19D 
 141      0F766776 
 142 004a DFDB9959 		.ascii	"\337\333\231YA\202\376V\206W\001D[\214p\0112~a\"!\022"
ARM GAS  /tmp/cc05KhpP.s 			page 11


 142      4182FE56 
 142      86570144 
 142      5B8C7009 
 142      327E6122 
 143 0060 14702C46 		.ascii	"\024p,Fs\016`\011\201zR8\350\355\302>\3062\015\265\276"
 143      730E6009 
 143      817A5238 
 143      E8EDC23E 
 143      C6320DB5 
 144 0075 98DC3CDF 		.ascii	"\230\334<\337/\351\301i\254\277\215A\000\266\331\004"
 144      2FE9C169 
 144      ACBF8D41 
 144      00B6D904 
 145 0085 F9A01D3E 		.ascii	"\371\240\035> \235\200\220\277}\357\204\236\030\363"
 145      209D8090 
 145      BF7DEF84 
 145      9E18F3
 146 0094 F035EF82 		.ascii	"\3605\357\202\0028\302n|\355R_\3538]\306\220\265\311"
 146      0238C26E 
 146      7CED525F 
 146      EB385DC6 
 146      90B5C9
 147 00a7 6A7079BC 		.ascii	"jpy\274[w\017\322\242S\202HpL\243\367\267\317\2152\256"
 147      5B770FD2 
 147      A2538248 
 147      704CA3F7 
 147      B7CF8D32 
 148 00bc 39F93E90 		.ascii	"9\371>\220\241[\335\217\026\003\310+\272\214b\315\314"
 148      A15BDD8F 
 148      1603C82B 
 148      BA8C62CD 
 148      CC
 149 00cd B5DE293D 		.ascii	"\265\336)=8\3272\211\221J\314+\230\305\030\323\331\243"
 149      38D73289 
 149      914ACC2B 
 149      98C518D3 
 149      D9A3
 150 00df 331310AC 		.ascii	"3\023\020\254a\207\034\363a\314B\322\035\345\246\315"
 150      61871CF3 
 150      61CC42D2 
 150      1DE5A6CD 
 151 00ef 7F4BB3DA 		.ascii	"\177K\263\332\224\224\370_6\354+E\223'5U\233\225\007"
 151      9494F85F 
 151      36EC2B45 
 151      93273555 
 151      9B9507
 152 0102 D89E9DCC 		.ascii	"\330\236\235\314\252zxXS~X=Q\325ZW\371\365\240\022\204"
 152      AA7A7858 
 152      537E583D 
 152      51D55A57 
 152      F9F5A012 
 153 0117 6DD5691D 		.ascii	"m\325i\035\037\035(&\365rC5\303V\247\255\212\336\366"
 153      1F1D2826 
 153      F5724335 
 153      C356A7AD 
 153      8ADEF6
 154 012a FA9ACAE7 		.ascii	"\372\232\312\347\263\252X\310uWU\273\031\3545\032\325"
ARM GAS  /tmp/cc05KhpP.s 			page 12


 154      B3AA58C8 
 154      755755BB 
 154      19EC351A 
 154      D5
 155 013b 159F24D3 		.ascii	"\025\237$\323\346\017M\256l\372"
 155      E60F4DAE 
 155      6CFA
 156              		.text
 157              		.section	.gnu.lto_spi_lld_init.24b939c84b905308,"",%progbits
 158 0000 789C9D92 		.ascii	"x\234\235\222\301K\002A\024\306\337\233uK=u\355\346"
 158      C14B0241 
 158      14C6DF9B 
 158      754B3D75 
 158      EDE6
 159 0012 35A406EB 		.ascii	"5\244\006\353_\220 0\0104(:\204\256\202Cn+jBtp,\203"
 159      5F902030 
 159      0834283A 
 159      84AE8243 
 159      6E2B6A42 
 160 002a 880EDE92 		.ascii	"\210\016\336\222\362\022\035\202\210\272z\252\356a\321"
 160      F2121D82 
 160      88BA7AAA 
 160      EE61D1
 161 0039 4D6F4B87 		.ascii	"MoK\207\376\200N\341\241mfvU\262C\341\203\335\371x\274"
 161      FE804EE1 
 161      A16D6676 
 161      55B243E1 
 161      83DDF978 
 162 004e EFF7CDCE 		.ascii	"\357\367\315\316\016\001\002\2435-\236S\321^\024+j\200"
 162      0E0102A3 
 162      352D9E53 
 162      D15E142B 
 162      6A80
 163 0060 A4FE0C50 		.ascii	"\244\376\014P\365\023D)\000\241B\260\262\216j\366\216"
 163      F5134429 
 163      00A142B0 
 163      B28E6AF6 
 163      8E
 164 0071 3CDA8E73 		.ascii	"<\332\216s\373\361\324<\3016\011\210\216\0165\316\353"
 164      FBF1D43C 
 164      C1360988 
 164      8E0E35CE 
 164      EB
 165 0082 2100434D 		.ascii	"!\000CM$\304[\332V\221\310Uk\303~\353\363\276\213I\274"
 165      24C45BDA 
 165      5691C855 
 165      6BC37EEB 
 165      F3BE8B49 
 166 0097 401DCEE1 		.ascii	"@\035\316\341\254\312\371\024C\330\203\036?\222\012"
 166      ACCAF914 
 166      43D8831E 
 166      3F920A
 167 00a6 4DE55B43 		.ascii	"M\345[C!\241\257\300q4!_\240f\177\035\006]/\014=\304"
 167      21A1AFC0 
 167      7134215F 
 167      A0667F1D 
 167      065D2F0C 
ARM GAS  /tmp/cc05KhpP.s 			page 13


 168 00bc F06665C7 		.ascii	"\360fe\307\317P3\321\013\000\206>\000\025\372\320%n"
 168      CF5033D1 
 168      0B00863E 
 168      0015FAD0 
 168      256E
 169 00ce 2F0CD75C 		.ascii	"/\014\327\\T\204\241>\310\237\030\260\244\327K\325\024"
 169      5484A13E 
 169      C89F18B0 
 169      A4D74BD5 
 169      14
 170 00df 33E5A255 		.ascii	"3\345\242UG\347v\215\013\240$\366\016.\233\341Q\342"
 170      47E7768D 
 170      0BA024F6 
 170      0E2E9BE1 
 170      51E2
 171 00f1 E4FF88C3 		.ascii	"\344\377\210\303\33568\337\020\266Y\270\221\243~\023"
 171      DD3638DF 
 171      10B659B8 
 171      91A37E13 
 172 0101 899C0BE0 		.ascii	"\211\234\013\340\217?\242\322\256\306N#\177\245\221"
 172      8F3FA2D2 
 172      AEC64E23 
 172      7FA591
 173 0110 D1B456E7 		.ascii	"\321\264V\347\355\367i\005\377\227\246\015N+x\034\362"
 173      EDF76905 
 173      FF97A60D 
 173      4E2B781C 
 173      F2
 174 0121 708DF7B1 		.ascii	"p\215\367\261q\276!\256!q\257P\265;3\375+\340VB\270"
 174      71BE21AE 
 174      2171AF50 
 174      B53B33FD 
 174      2BE05642 
 175 0136 C4E5929F 		.ascii	"\304\345\222\237\021\245Y\313\314P\303J\357\322t\246"
 175      11A559CB 
 175      CC50C34A 
 175      EFD274A6 
 176 0146 4C8D2C4B 		.ascii	"L\215,K1\253HK\205\235\355-*D6\231\243y\253P*\322xb"
 176      31AB484B 
 176      859DED2D 
 176      2A443699 
 176      A379AB50 
 177 015e 79619EC6 		.ascii	"ya\236\306bQ\032_Y*Gh1\3176s\271\364\234\001\337m\363"
 177      62511A5F 
 177      592A4768 
 177      31CF3673 
 177      B9F49C01 
 178 0175 BA51     		.ascii	"\272Q"
 179              		.text
 180              		.section	.gnu.lto_spi_lld_start.24b939c84b905308,"",%progbits
 181 0000 789C9556 		.ascii	"x\234\225VMh\\U\024>\347\276yo~\223L\306\031\223\224"
 181      4D685C55 
 181      143EE7BE 
 181      796F7E93 
 181      4CC61993 
 182 0015 A64D6843 		.ascii	"\246MhCH\006\347\325v\343\317\306E\021\012\025\204&"
 182      4806E7D5 
ARM GAS  /tmp/cc05KhpP.s 			page 14


 182      76E3CFC6 
 182      45110A15 
 182      8426
 183 0027 A06E4A3A 		.ascii	"\240nJ:)\223\301\304)M-h\027}\343\004\314\302E\240\233"
 183      2993C1C4 
 183      294D2D68 
 183      177DE304 
 183      CCC245A0 
 184 003c A09B74A1 		.ascii	"\240\233t\241\202B\"-\346\207\004\215\301E\213T\321"
 184      8242222D 
 184      E687048D 
 184      C1458B54 
 184      D1
 185 004d 74114684 		.ascii	"t\021F\204\232,\024\205\222\2150t3\236\363\356\273\367"
 185      9A2C1485 
 185      928D3074 
 185      339EF3EE 
 185      BBF7
 186 005f 4D339364 		.ascii	"M3\223d\372 \337\273\357\335\363\235\373\235\357\276"
 186      FA20DFBB 
 186      EFDDF39D 
 186      FB9DEFBE 
 187 006f 7B260204 		.ascii	"{&\002\004\354\275\012\364\227\211\000\274Nw\214\000"
 187      ECBD0AF4 
 187      978900BC 
 187      4E778C00 
 188 007f 8A999F01 		.ascii	"\212\231\237\001\212!!\214\335\0248\021k\356%pb\206"
 188      8A21218C 
 188      DD143811 
 188      6BEE2570 
 188      6286
 189 0091 08CC99F4 		.ascii	"\010\314\231\364d\356\336\003z\014\240)\243L\264\344"
 189      64EEDE03 
 189      7A0CA029 
 189      A34CB4E4 
 190 00a1 C012C1B5 		.ascii	"\300\022\301\265c\024\020zh\323|\020\303\362uH\015\302"
 190      6314107A 
 190      68D37C10 
 190      C3F27548 
 190      0DC2
 191 00b3 883C0084 		.ascii	"\210<\000\204\233\302\010\230V\220\336\334|\033]\005"
 191      9BC20898 
 191      5690DEDC 
 191      7C1B5D05 
 192 00c3 0B62FD51 		.ascii	"\013b\375Q\265:\377\333\346\027\237\340cq\332\304\011"
 192      B53AFFDB 
 192      E6179FE0 
 192      6371DAC4 
 192      09
 193 00d4 040BF208 		.ascii	"\004\013\362\010A\002\0143D\011D\214\241\225\037\333"
 193      41020C33 
 193      4409448C 
 193      A1951FDB 
 194 00e4 088C3841 		.ascii	"\010\2148A\240\235\300L\360D\222'R<\321A`u\022\004\273"
 194      A09DC04C 
 194      F0449227 
 194      523CD141 
ARM GAS  /tmp/cc05KhpP.s 			page 15


 194      60751204 
 195 00f9 78E208C3 		.ascii	"x\342\010\303Q\206n\206\343\014=\014\275\014'\030N2"
 195      51866E86 
 195      E30C3D0C 
 195      BD0C2718 
 195      4E32
 196 010b F431F473 		.ascii	"\3641\364s\322\001N0\310\011\322\014\031\006\233\341"
 196      D2014E30 
 196      C809D20C 
 196      19069BE1 
 197 011b 14032936 		.ascii	"\024\003)6a\312qfz\000\262n\005C\204\\\3350\012\276"
 197      61CA7166 
 197      7A00B26E 
 197      0543845C 
 197      DD300ABE 
 198 012f 1B0FE0A3 		.ascii	"\033\017\340\243\362\354j\031G\3606\232\220C+\015\203"
 198      F2EC6A19 
 198      47F0369A 
 198      90432B0D 
 198      83
 199 0140 790C7D06 		.ascii	"y\014}\006\237b\036\30394\337\242{\304\255\375\022\252"
 199      9F621EC3 
 199      3934DFA2 
 199      7BC4ADFD 
 199      12AA
 200 0152 7DB8073F 		.ascii	"}\270\007?\376Ul\321\024\016\011a\315>\015\243\001\273"
 200      FE556CD1 
 200      140E0961 
 200      CD3E0DA3 
 200      01BB
 201 0164 2983C37E 		.ascii	")\203\303~\370\343VL\005\2327\340\2113\3558g(\343\004"
 201      F8E3564C 
 201      059A37E0 
 201      8933ED38 
 201      6728E304 
 202 0178 D6129812 		.ascii	"\326\022\230\022\2005\224r\276\3336\264j\311\245+\307"
 202      80359472 
 202      BEDB36B4 
 202      6AC9A52B 
 202      C7
 203 0189 15923424 		.ascii	"\025\2224$iE\307qn5\320\247R\376\002\037\257w\215\340"
 203      6945C771 
 203      6E35D0A7 
 203      52FE021F 
 203      AF778DE0 
 204 019d E72E532E 		.ascii	"\347.S.\032\317c4\353\005P*f\305\"\336\334\372\177\233"
 204      1ACF6334 
 204      EB05502A 
 204      66C522DE 
 204      DCFA7F9B 
 205 01b1 993CB664 		.ascii	"\231<\266dQx\034J\233\307V\000V\263\374\375\266!_\347"
 205      51781C4A 
 205      9BC75600 
 205      56B3FCFD 
 205      B6215FE7 
 206 01c5 307CA802 		.ascii	"0|\250\002\321\254\202\360\323\012\252\236\002\243N"
 206      D1AC82F0 
ARM GAS  /tmp/cc05KhpP.s 			page 16


 206      D30AAA9E 
 206      02A34E
 207 01d4 C146796B 		.ascii	"\301Fyk\373\025% \232\206\257\234\251\"\245j\223;\024"
 207      FB152520 
 207      9A86AF9C 
 207      A922A56A 
 207      933B14
 208 01e7 E734EDCE 		.ascii	"\3474\355\316\334\264\023\000w\350\3510<\035\017\240"
 208      DCB41300 
 208      77E8E930 
 208      3C1D0FA0 
 209 01f7 B4A2E5C7 		.ascii	"\264\242\345\307(\001\007\011\247\307\235\3328'g\236"
 209      28010709 
 209      A7C79DDA 
 209      3827679E 
 210 0207 2D29E551 		.ascii	"-)\345Q[f\362.\263I\225\257\323j\223[\265G\007l\020"
 210      5B66F22E 
 210      B34995AF 
 210      D36A935B 
 210      B547076C 
 211 021c 71DE5184 		.ascii	"q\336Q\2046^\236\026OH\312s\224\202)\350Q\002\015(q"
 211      365E9E16 
 211      4F48CA73 
 211      948229E8 
 211      51020D28 
 212 0231 778D40E3 		.ascii	"w\215@\3435L\237\360\304P\214\366\033\360!\235>\267"
 212      354C9FF0 
 212      C4508CF6 
 212      1BF0219D 
 212      3EB7
 213 0243 528A4D4A 		.ascii	"R\212MJj*'k\015xT\313\377\036\211\375X\263\0239\366"
 213      6A2A276B 
 213      0D7854CB 
 213      FF1E89FD 
 213      58B31339 
 214 0258 401A765B 		.ascii	"@\032v[\031\206\332\257\347\251\010N\223\360\322\004"
 214      1986DAAF 
 214      E7A9084E 
 214      93F0D204 
 215 0268 3D9F12F2 		.ascii	"=\237\022\362\013\232\236\327\211\222\007\231#\374\245"
 215      0B9A9ED7 
 215      89920799 
 215      23FCA5
 216 0277 75A5A93A 		.ascii	"u\245\251:s\222\215\315\331_Zj\037ir\013-\277\013,\354"
 216      73928DCD 
 216      D95F5A6A 
 216      1F69720B 
 216      2DBF0B2C 
 217 028c E82ED0E1 		.ascii	"\350.\320\341\352\264\032\353\014\371:\3133QE\351\364"
 217      EAB41AEB 
 217      0CF93ACB 
 217      335145E9 
 217      F4
 218 029d 94764852 		.ascii	"\224vHR'%a\222\345\221\302\376\007\271Z\372G/\224!\""
 218      27256192 
 218      E591C2FE 
 218      07B95AFA 
ARM GAS  /tmp/cc05KhpP.s 			page 17


 218      472F9421 
 219 02b2 87059D38 		.ascii	"\207\005\2358\354\355+\031w\002j\256az\\;\346\252\335"
 219      ECED2B19 
 219      77026AAE 
 219      617A5C3B 
 219      E6AADD
 220 02c5 5AD8D1AE 		.ascii	"Z\330\321\256v\271jc\215\325Fj\027\256~{Q\221\216\020"
 220      76B96A63 
 220      8DD5466A 
 220      17AE7E7B 
 220      51918E10 
 221 02d9 CF3D0CD5 		.ascii	"\317=\014\325?\253\3256Y\316\375\255\205\177\205\357"
 221      3FABD536 
 221      59CEFDAD 
 221      857F85EF 
 222 02e9 A3E3B6AA 		.ascii	"\243\343\266\252\003\363R\036i\304\354\035_\317\321"
 222      03F3521E 
 222      69C4EC1D 
 222      5FCFD1
 223 02f8 83F4446B 		.ascii	"\203\364Dk\365|\271\250\365t\023\257N\317\354\235\246"
 223      F57CB9A8 
 223      F57413AF 
 223      4ECFEC9D 
 223      A6
 224 0309 F5443D3D 		.ascii	"\365D==\335\312\252\020<\264]\253\226\357\372\322\216"
 224      DDCAAA10 
 224      3CB45DAB 
 224      96EFFAD2 
 224      8E
 225 031a 376DD5B6 		.ascii	"7m\325\266P\234\036\242\355QVZ)\255.\216\251\200^\212"
 225      509C1EA2 
 225      ED51565A 
 225      29AD2E8E 
 225      A9805E8A 
 226 032e 917D25E2 		.ascii	"\221}%\342\351^\276\373\314>\366J\037+5bO4\355\243/"
 226      E95EBEFB 
 226      CC3EF64A 
 226      1F2B3562 
 226      4F34EDA3 
 227 0343 F624D1EA 		.ascii	"\366$\321\352\305\356\370b\373(\346i\261\225\346\305"
 227      C5EEF862 
 227      FB28E669 
 227      B195E6C5 
 228 0353 2A93FB94 		.ascii	"*\223\373\224\311a}|*\213\257\252%\372\233kO\033\313"
 228      C9617D7C 
 228      2A8BAFAA 
 228      25FA9B6B 
 228      4F1BCB
 229 0366 BB919A43 		.ascii	"\273\221\232C[t^\256mL\375\265\215Iv\\~\223T'ov\351"
 229      5B745EAE 
 229      6D4CFDB5 
 229      8D49765C 
 229      7E935427 
 230 037d 276DD440 		.ascii	"'m\324@\263\307\365\233\204\242\014\326\035\327\201"
 230      B3C7F59B 
 230      84A20CD6 
 230      1DD781
ARM GAS  /tmp/cc05KhpP.s 			page 18


 231 038c 7D8EEB4A 		.ascii	"}\216\353Ji^\037\3274\021\335S9eA]\3279\274\000J \013"
 231      695E1FD7 
 231      3411DD53 
 231      3965415D 
 231      D739BC00 
 232 03a3 DF5AFA5D 		.ascii	"\337Z\372]4\311l\361K\017\3125\313\225\245M\275\337"
 232      34C96CF1 
 232      4B0FCA35 
 232      CB95A54D 
 232      BDDF
 233 03b5 B6FEF13A 		.ascii	"\266\376\361:pe\375K(Y\247\210\350\326\361Z\2032\016"
 233      7065FD4B 
 233      2859A788 
 233      E8D6F15A 
 233      83320E
 234 03c8 CB457480 		.ascii	"\313Et\200_\241\370\350\357\027\364\177'\3565D}\231"
 234      5FA1F8E8 
 234      EF17F47F 
 234      27EE3544 
 234      7D99
 235 03da 3E07EEE3 		.ascii	">\007\356\343g\355\261\302\304e;[\030\375\300\036\275"
 235      67EDB1C2 
 235      C4653B5B 
 235      18FDC01E 
 235      BD
 236 03eb 7CDDCE8E 		.ascii	"|\335\316\216\345/\345\013\223\366\265\253\357\277\367"
 236      E52FE50B 
 236      93F6B5AB 
 236      EFBFF7
 237 03fa AE4D83B1 		.ascii	"\256M\203\261\221q\373J\341\352\265I\373\302\320\033"
 237      9171FB4A 
 237      E1EAB549 
 237      FBC2D01B 
 238 040a 674EDBE7 		.ascii	"gN\333\347\317\237\265/\274y\356\372\213\366\344\225"
 238      CF9FB52F 
 238      BC79EEFA 
 238      8BF6E495 
 239 041a FCC5F1F1 		.ascii	"\374\305\361\361\321L\026\376\007\232t=\242"
 239      D14C16FE 
 239      079A743D 
 239      A2
 240              		.text
 241              		.section	.gnu.lto_spi_lld_stop.24b939c84b905308,"",%progbits
 242 0000 789C8D92 		.ascii	"x\234\215\222\275/\004A\024\300\337\233\331\271\017"
 242      BD2F0441 
 242      14C0DF9B 
 242      D9B90F
 243 000f 1FE14F50 		.ascii	"\037\341OP\023&\250\211B$\022\022\211\223P\011{\342"
 243      1326A889 
 243      42241212 
 243      89935009 
 243      7BE2
 244 0021 26EE9C38 		.ascii	"&\356\2348$\2420{\256P^).$\032\205\202V#>\"\"\004\321"
 244      24A2307B 
 244      AE505E29 
 244      2E241A85 
 244      8256233E 
ARM GAS  /tmp/cc05KhpP.s 			page 19


 245 0039 A2905328 		.ascii	"\242\220S(t4B\301\233\335\233\213 a\222\235\267\263"
 245      743442C1 
 245      9BDD9B8B 
 245      2061929D 
 245      B7B3
 246 004b F37EBF79 		.ascii	"\363~\277y3\263\014\030|o\035\364\024\350s\027E\014"
 246      33B30C18 
 246      7C6F1DF4 
 246      14E87317 
 246      450C
 247 005d 01B2FC25 		.ascii	"\001\262\374%\200\027a\214\237\324\200\256\020g\355"
 247      8017618C 
 247      9FD480AE 
 247      1067ED
 248 006c A0AB3873 		.ascii	"\240\2538s^j\315h\255\215F\016\012\223\204\002\321D"
 248      5E6ACD68 
 248      AD8D460E 
 248      0A938402 
 248      D144
 249 007e 405864DC 		.ascii	"@Xd\334\021\2708\204\276r\207\035\334\177|l?\0276\357"
 249      11B83884 
 249      BE72871D 
 249      DC7F7C6C 
 249      3F1736EF 
 250 0092 F09D5533 		.ascii	"\360\235U3L!pP\010\016u\030\246\216EMG\251\002rZ\347"
 250      4C217050 
 250      080E7518 
 250      A68E454D 
 250      47A90272 
 251 00a8 EB005C1F 		.ascii	"\353\000\\\037\215Qo\224\0034I\221_@\366fe\377\026G"
 251      8D516F94 
 251      03344991 
 251      5F40F666 
 251      65FF1647 
 252 00bc 7003058C 		.ascii	"p\003\005\214#o\200z\205\274\000\253\250\320\031G6H"
 252      236F807A 
 252      85BC00AB 
 252      A8D01947 
 252      3648
 253 00ce 51F88B8E 		.ascii	"Q\370\213\216\242\335\321)\034?z\325e\304\244\360\257"
 253      A2DDD129 
 253      1C3F7AD5 
 253      65C4A4F0 
 253      AF
 254 00df FB1E400E 		.ascii	"\373\036@\016'5\276\373u\377\274\354v|7\376\356\266"
 254      2735BEFB 
 254      75FFBCEC 
 254      767C37FE 
 254      EEB6
 255 00f1 F20B38DA 		.ascii	"\362\0138\332\315W\006H\003l\351\234\247\333\024\206"
 255      CD570648 
 255      036CE99C 
 255      A7DB1486 
 256 0101 02284C12 		.ascii	"\002(L\022\003a\011\012\0265_B\226])>\260\177\322\374"
 256      0361090A 
 256      16355F42 
 256      965D293E 
ARM GAS  /tmp/cc05KhpP.s 			page 20


 256      B07FD2FC 
 257 0115 3B9DBDD9 		.ascii	";\235\275\331->1[n\330/\227\021\353i\255g\177\226\354"
 257      2D3E315B 
 257      6ED82F97 
 257      11EB69AD 
 257      677F96EC 
 258 0129 944ABE82 		.ascii	"\224J\276\202\334Ac@\001,\300\233^\326\265\012#ni!2"
 258      DC416340 
 258      012CC09B 
 258      5ED6B50A 
 258      236E6921 
 259 013e 298C06FE 		.ascii	")\214\006\376\323\"\267\372\350_z\361_}\324\327\233"
 259      D322B7FA 
 259      E85F7AF1 
 259      5F7DD4D7 
 259      9B
 260 014f 4B392CAC 		.ascii	"K9,\254WY?\013Ru+\031S\345\343\265\027\344\3006\347"
 260      57593F0B 
 260      52752B19 
 260      53E5E3B5 
 260      17E4C036 
 261 0164 57B014F9 		.ascii	"W\260\024\371!\256pK\307\252\260\322f\013\377_\271\006"
 261      21AE704B 
 261      C7AAB0D2 
 261      660BFF5F 
 261      B906
 262 0176 EF7E4F5A 		.ascii	"\357~OZ h12\323\234!:e\"\235\032\223n:>/\343cs\322M"
 262      20683132 
 262      D39C213A 
 262      65229D1A 
 262      936E3A3E 
 263 0190 A85195CE 		.ascii	"\250Q\225\316\310\231\351\331\311\011I/\211\221\244"
 263      C899E9D9 
 263      C909492F 
 263      8991A4
 264 019f 9C4A4FCF 		.ascii	"\234JO\317dd\177\254\267\265E\366\364t\312\376\276\356"
 264      64647FAC 
 264      B7B545F6 
 264      F474CAFE 
 264      BEEE
 265 01b1 B9669999 		.ascii	"\271f\231\231R\303\311d\274\311\205Ob\215\253\275"
 265      52C3C964 
 265      BCC9854F 
 265      628DABBD 
 266              		.text
 267              		.section	.gnu.lto_spi_lld_select.24b939c84b905308,"",%progbits
 268 0000 789C6D90 		.ascii	"x\234m\220\317J\303@\020\306gv\223&V\017^\305\213g\013"
 268      CF4AC340 
 268      10C66776 
 268      9326560F 
 268      5EC58B67 
 269 0015 0EEA2B14 		.ascii	"\016\352+\024\241PAh\004\365\"mR\232`jJS\013\236\232"
 269      A1504168 
 269      04F5226D 
 269      529A606A 
 269      4A530B9E 
 270 002a 6AC16B8F 		.ascii	"j\301k\217\242\005\361$\010\352+\210w\005\217z\352\023"
ARM GAS  /tmp/cc05KhpP.s 			page 21


 270      A205F124 
 270      08EA2B88 
 270      77058F7A 
 270      EA13
 271 003c 78F42675 		.ascii	"x\364&u6\177\024J\027\366\233ev~\337\314\256\000\001"
 271      367F144A 
 271      17F69B65 
 271      767EDFCC 
 271      AE0001
 272 004f D36B89F7 		.ascii	"\323k\211\367\005\002lqD\011(\206o\000}S \252\003 \364"
 272      05026C71 
 272      44092886 
 272      6F007D53 
 272      20AA0320 
 273 0064 04F6F631 		.ascii	"\004\366\3661\256}\022\317\343\311\344qts7\302\037\221"
 273      AE7D12CF 
 273      E3C9E471 
 273      747337C2 
 273      1F91
 274 0076 17D84490 		.ascii	"\027\330D\220\340!h,\250\263\210\034\2134\224\230,\032"
 274      E021682C 
 274      A8B3881C 
 274      8B349498 
 274      2C1A
 275 0088 433A0CA2 		.ascii	"C:\014\242h\270\002`\307&\026\253r\336E\241\242|\205"
 275      68B80260 
 275      C72616AB 
 275      72DE45A1 
 275      A27C85
 276 009b B3CFCBEF 		.ascii	"\263\317\313\357\345*\336\262A\003e\001V\331\360\032"
 276      E52ADEB2 
 276      41036501 
 276      56D9F01A 
 277 00ab AED043BD 		.ascii	"\256\320C\275\201b\217c.\356^\303lff\0162@+\300}\264"
 277      81628F63 
 277      2EEE5EC3 
 277      6C66660E 
 277      32402BC0 
 278 00c1 E8A19120 		.ascii	"\350\241\221 &[(\004R\004g z\212\314\315F\304?\362%"
 278      265B2804 
 278      52046720 
 278      7A8ACCCD 
 278      46C43FF2 
 279 00d6 3326C798 		.ascii	"3&\307\230J\235?\374\245\014\005IT\227S\305\354h\250"
 279      4A9D3FFC 
 279      A50C0549 
 279      549753C5 
 279      EC68A8
 280 00e9 D44B29C9 		.ascii	"\324K)\311\250~\003.\316'\015\347yj\305.\244\015e\034"
 280      A87E032E 
 280      CE270DE7 
 280      796AC52E 
 280      A40D651C 
 281 00fd 19037887 		.ascii	"\031\003x\207\376\370\203\022*[\026?\202\177J\215U$"
 281      FEF88312 
 281      2A5B163F 
 281      827F4A8D 
ARM GAS  /tmp/cc05KhpP.s 			page 22


 281      5524
 282 010f 3768D6C9 		.ascii	"7h\326\311\016\234Sr\352]\262]\257\346\005!u\332'\307"
 282      0E9C5372 
 282      EA5DB25D 
 282      AFE60521 
 282      75DA27C7 
 283 0123 47C407B7 		.ascii	"G\304\007\267\352S+hwB\252X\333\233\033T.\027\251\262"
 283      EA532B68 
 283      7742AA58 
 283      DB9B1B54 
 283      2E17A9B2 
 284 0137 53EAAE53 		.ascii	"S\352\256S\330\362\016}\337Y\263\341\027\331Rdq"
 284      D8F20E7D 
 284      DF59B3E1 
 284      17D95264 
 284      71
 285              		.text
 286              		.section	.gnu.lto_spi_lld_unselect.24b939c84b905308,"",%progbits
 287 0000 789C6D90 		.ascii	"x\234m\220=K\003A\020\206gv\357rg\264\260\025\033k\003"
 287      3D4B0341 
 287      10866776 
 287      EF7267B4 
 287      B0151B6B 
 288 0015 0EEA5F08 		.ascii	"\016\352_\010B \202\220\023\324F\222\273\220;\274x!"
 288      42208290 
 288      13D44692 
 288      BB903BBC 
 288      7821
 289 0027 170356B9 		.ascii	"\027\003V\271h\3006\265\026b+~\264\226b\257`ca\225\037"
 289      68C036B5 
 289      16622B7E 
 289      B49662AF 
 289      60636195 
 290 003c 20F90382 		.ascii	" \371\003\202q\366>\024B\026\366\235ev\236wfW\200\200"
 290      71F63E14 
 290      4216F69D 
 290      65769E77 
 290      66578080 
 291 0050 E9B5C4FB 		.ascii	"\351\265\304\373\002\001\2668\242\004\024\3037\200\276"
 291      0201B638 
 291      A20414C3 
 291      3780BE
 292 005f 2910D501 		.ascii	")\020\325\001\020z\002{\373\030\327>\212\347\321d\362"
 292      107A027B 
 292      FB18D73E 
 292      8AE7D164 
 292      F2
 293 0070 F0717DF7 		.ascii	"\360q}\367\205?\"/\260\211 \301C\320XPg\0219\026i(1"
 293      853F222F 
 293      B08920C1 
 293      43D05850 
 293      67113916 
 294 0087 59348674 		.ascii	"Y4\206t\030D\321p\005\300\216M,V\345\274\213BE\371\012"
 294      1844D170 
 294      05C08E4D 
 294      2C56E5BC 
 294      8B4245F9 
ARM GAS  /tmp/cc05KhpP.s 			page 23


 295 009c 679F4FDF 		.ascii	"g\237O\337\313U\274a\203\006\312\002\254\262\341\025"
 295      CB55BC61 
 295      8306CA02 
 295      ACB2E115 
 296 00ac 5CA2877A 		.ascii	"\\\242\207z\003\305\036\307\\\334\275\206\331\314\314"
 296      03C51EC7 
 296      5CDCBD86 
 296      D9CCCC
 297 00bb 1C648056 		.ascii	"\034d\200V\200\333h\321C#AL\266P\010\244\010\316@\364"
 297      80DB68D1 
 297      4323414C 
 297      B65008A4 
 297      08CE40F4 
 298 00cf 14999B8D 		.ascii	"\024\231\233\215\210\177d,3&\307\230J\235\337\377\245"
 298      887F642C 
 298      3326C798 
 298      4A9DDFFF 
 298      A5
 299 00e0 0C054954 		.ascii	"\014\005IT\227S\305\354h\250\324K)\311\250~\003.\316"
 299      9753C5EC 
 299      68A8D44B 
 299      29C9A87E 
 299      032ECE
 300 00f3 270DE779 		.ascii	"'\015\347yj\305.\244\015e\034\031\003x\207\376hL\011"
 300      6AC52EA4 
 300      0D651C19 
 300      037887FE 
 300      684C09
 301 0106 952D8B1F 		.ascii	"\225-\213\037\301?\245\306*\222\0334\353d\007\316)9"
 301      C13FA5C6 
 301      2A921B34 
 301      EB6407CE 
 301      2939
 302 0118 F52ED9AE 		.ascii	"\365.\331\256W\363\202\220:\355\223\343#\342\203[\365"
 302      57F38290 
 302      3AED93E3 
 302      23E2835B 
 302      F5
 303 0129 A915B43B 		.ascii	"\251\025\264;!U\254\355\315\015*\227\213T\331)u\327"
 303      2155ACED 
 303      CD0D2A97 
 303      8B54D929 
 303      75D7
 304 013b 296C7987 		.ascii	")ly\207\276\357\254\331\360\013\020\242e;"
 304      BEEFACD9 
 304      F00B10A2 
 304      653B
 305              		.text
 306              		.section	.gnu.lto_spi_lld_ignore.24b939c84b905308,"",%progbits
 307 0000 789C8D93 		.ascii	"x\234\215\223\301k\023Q\020\306g\336\356v\263f\203K"
 307      C16B1351 
 307      10C667DE 
 307      EE76B366 
 307      834B
 308 0012 4B83DE4A 		.ascii	"K\203\336J\275Y\310\263\372/\024J\241\005\245\021\264"
 308      BD59C8B3 
 308      FA2F144A 
ARM GAS  /tmp/cc05KhpP.s 			page 24


 308      A105A511 
 308      B4
 309 0023 17499392 		.ascii	"\027I\223\222,fMI\322\322\342\241\233\032\204\202\207"
 309      2C664D49 
 309      D2D2E2A1 
 309      9B1A8482 
 309      87
 310 0034 5ABCA887 		.ascii	"Z\274\250\2076\204\326\342E\024\017\012\036\202\247"
 310      3684D6E2 
 310      45140F0A 
 310      1E82A7
 311 0043 80287893 		.ascii	"\200(x\223\234\202'O\342Y\012\353\274\335\315\206\266"
 311      9C82274F 
 311      E2590AEB 
 311      BCDDCD86 
 311      B6
 312 0054 6B360F32 		.ascii	"k6\0172\357e\347\375f\276\3716a\300\340\354\272L\237"
 312      EF65E7FD 
 312      66BEF936 
 312      61C0E0EC 
 312      BA4C9F
 313 0067 1F32C012 		.ascii	"\0372\300\022\355(\001\262\335o\000\265\030C\024\007"
 313      ED2801B2 
 313      DD6F00B5 
 313      18431407 
 314 0077 40D862B8 		.ascii	"@\330b\270u\027\305U6\011\015\333\336\353\0366\237H"
 314      7517C555 
 314      36090DDB 
 314      DEEB1E36 
 314      9F48
 315 0089 CF9FB5EA 		.ascii	"\317\237\265\352\007\366\211\343 \232Heg\021\262\010"
 315      07F689E3 
 315      209A4865 
 315      6711B208 
 316 0099 77E80B4E 		.ascii	"w\350\013N\270\033\223O\367\361\330\326\273\237\355"
 316      B81B934F 
 316      F7F1D8D6 
 316      BB9FED
 317 00a8 06DA7B76 		.ascii	"\006\332{v\355\217\343\\t\311[Q\344\033\326\352:\316"
 317      ED8FE35C 
 317      74C95B51 
 317      E41BD6EA 
 317      3ACE
 318 00ba A7A78FDF 		.ascii	"\247\247\217\337\237\340\316\225K\014-\004\011L\224"
 318      9FE0CE95 
 318      4B0C2D04 
 318      094C94
 319 00c9 640AB202 		.ascii	"d\012\262\002\031l\340$\250\364\0305z\002q\221\323E"
 319      196CE024 
 319      A8F41835 
 319      7A027191 
 319      D345
 320 00db 2E41B926 		.ascii	".A\271&\345\014\361xT\2041\021\306EH\212@K\201\272m"
 320      E50CF178 
 320      54843111 
 320      C645488A 
 320      404B81BA 
ARM GAS  /tmp/cc05KhpP.s 			page 25


 321 00f0 EF4E8010 		.ascii	"\357N\200\020A+MQ\014~\033\231\330\245\257\260\335\371"
 321      412B4D51 
 321      0C7E1B99 
 321      D8A5AFB0 
 321      DDF9
 322 0102 40F366F0 		.ascii	"@\363f\360\020\025\310\2434\005W\251\374KxAJ\225<2\241"
 322      1015C8A3 
 322      340557A9 
 322      FC4B7841 
 322      4A953C32 
 323 0117 78C4D5B9 		.ascii	"x\304\325\271\214=\305\004-\365\000y\012^\333\206\211"
 323      8C3DC504 
 323      2DF50079 
 323      0A5EDB86 
 323      89
 324 0128 AA87C4A8 		.ascii	"\252\207\304\250\204@$\037\301>\362;h\242<\204\277v"
 324      8440241F 
 324      C13EF23B 
 324      68A23C84 
 324      BF76
 325 013a CC44CD42 		.ascii	"\314D\315B\346g?\317yIQ\255N\374\005\257\\\234\032\210"
 325      E6673FCF 
 325      794951AD 
 325      4EFC05AF 
 325      5C9C1A88 
 326 014e 72AA5FCE 		.ascii	"r\252_\316\273N\025\\\346K\273\251\017\205I>\246\272"
 326      BB4E155C 
 326      E64BBBA9 
 326      0F85493E 
 326      A6BA
 327 0160 423ABF7A 		.ascii	"B:\277zX\0365w^=|^9\020?\244<\305\357\243y}\216\217"
 327      581E3577 
 327      5E3D7C5E 
 327      39103FA4 
 327      3CC5EFA3 
 328 0178 823EF141 		.ascii	"\202>\361A\276\216\204\370\252\237\3635\036\351k\242"
 328      BE8E84F8 
 328      AA9FF335 
 328      1EE96BA2 
 329 0188 EFAB1429 		.ascii	"\357\253\024)\\\017\3635\341\373z\364__\365A\276\366"
 329      5C0FF335 
 329      E1FB7AF4 
 329      5F5FF541 
 329      BEF6
 330 019a E73506F9 		.ascii	"\3475\006\371\252\016\341\253\036\346\253\3412\235\343"
 330      AA0EE1AB 
 330      1EE6ABE1 
 330      329DE3
 331 01a9 57419F51 		.ascii	"WA\237Q\227\254\031\021\257Dp\217>\006F\215\021(.\001"
 331      97AC1911 
 331      AF44708F 
 331      3E06468D 
 331      11282E01 
 332 01bd 9E571159 		.ascii	"\236W\021Y\213pOF\273/c<\004\015\231\340\214\214$\201"
 332      8B704F46 
 332      BB2F633C 
 332      040D99E0 
ARM GAS  /tmp/cc05KhpP.s 			page 26


 332      8C8C2481 
 333 01d1 C3C90875 		.ascii	"\303\311\010u#\011\360\035j\335\375\267\262\307\365"
 333      2309F01D 
 333      6ADDFDB7 
 333      B2C7F5
 334 01e0 569A7E1D 		.ascii	"V\232~\035\364\337\026\357t\206\027J\326\012\317\226"
 334      F4DF16EF 
 334      7486174A 
 334      D60ACF96 
 335 01f0 729B3CB7 		.ascii	"r\233<\267\262\316\263\005s\331,Ux\265\274\366\340>"
 335      B2CEB305 
 335      73D92C55 
 335      78B5BCF6 
 335      E03E
 336 0202 A7432153 		.ascii	"\247C!S\344\253\245r\265\302\027\323\0137\256\363\371"
 336      E4ABA572 
 336      B5C217D3 
 336      0B37AEF3 
 336      F9
 337 0213 F919BE78 		.ascii	"\371\031\276xsn}\232WV\315{\305b.\225\005-\267fY\233"
 337      736E7D9A 
 337      5756CD7B 
 337      C5622E95 
 337      052DB766 
 338 0229 E58DD435 		.ascii	"\345\215\3245\357T\335HM\377\003\340\255\016C"
 338      EF54DD48 
 338      4DFF03E0 
 338      AD0E43
 339              		.text
 340              		.section	.gnu.lto_spi_lld_exchange.24b939c84b905308,"",%progbits
 341 0000 789C9593 		.ascii	"x\234\225\223\317k\023Q\020\307g\336\356&1i\222\205"
 341      CF6B1351 
 341      10C767DE 
 341      EE263169 
 341      9285
 342 0012 8696040F 		.ascii	"\206\226\004\017\245\336,\364a\373/\024\244PQh\024\365"
 342      A5DE2CF4 
 342      61FB2F14 
 342      A4505168 
 342      14F5
 343 0024 22F95137 		.ascii	"\"\371Q7\213\251)IZ\332S7\232C\017\012\245x\251\212"
 343      8BA92949 
 343      5ADA5337 
 343      9A430F0A 
 343      A578A98A 
 344 0038 1844102F 		.ascii	"\030D\020/\242B\213\267\340A\004Q\360\032\024\002\""
 344      A2428BB7 
 344      E0410451 
 344      F01A1402 
 344      22
 345 0049 F4241E3D 		.ascii	"\364$\036=\010\353\314n\262\241qM\342\203\314\333\367"
 345      08EBCC6E 
 345      B2A1714D 
 345      E283CCDB 
 345      F7
 346 005a 763EF3BE 		.ascii	"v>\363\276\363}\033\001\002\372G\222~c\032\300%\232"
 346      F37D1B01 
ARM GAS  /tmp/cc05KhpP.s 			page 27


 346      02FA4792 
 346      7E631AC0 
 346      259A
 347 006c 510114BB 		.ascii	"Q\001\024\273\237\000j!\201\310\017\200\260-p\373\012"
 347      9F006A21 
 347      81C80F80 
 347      B02D70FB 
 347      0A
 348 007d 72AA9886 		.ascii	"r\252\230\206\206e\355\265\277\277\272\243\354\337k"
 348      8665EDB5 
 348      BFBFBAA3 
 348      ECDF6B
 349 008c D61F5BBF 		.ascii	"\326\037[\277m\033\321D*{\026!\207p\231\0268\345LB="
 349      6D1BD144 
 349      2A7B1621 
 349      87709916 
 349      38E54C42 
 350 00a1 7E8ECB36 		.ascii	"~\216\3136\037}{\337@k\317\252\375\264\355\270C\236"
 350      1F7D7BDF 
 350      406BCFAA 
 350      FDB4EDB8 
 350      439E
 351 00b3 1F46BE10 		.ascii	"\037F\276\020\315\266m?\334\177w\370\005\357\236:)p"
 351      CDB66D3F 
 351      DC7F77F8 
 351      05EF9E3A 
 351      2970
 352 00c5 15410113 		.ascii	"\025A\001\023\025\225\202\252\321\022\003\220\301\006"
 352      159582AA 
 352      D1120390 
 352      C106
 353 00d3 4E438816 		.ascii	"NC\210\026\"L\333\020\341\020\345\254\030g\305\351\205"
 353      224CDB10 
 353      E110E5AC 
 353      1867C5E9 
 353      85
 354 00e4 A253D613 		.ascii	"\242S\326\023\312\032\347w\011\016\023\034&9$9\2448"
 354      CA1AE777 
 354      090E131C 
 354      26392439 
 354      A438
 355 00f6 D0D0A06E 		.ascii	"\320\320\240nY\273S\300\302h\244)\262\031\027Q\360\254"
 355      59BB53C0 
 355      C268A429 
 355      B2191751 
 355      F0AC
 356 0108 7C845BAD 		.ascii	"|\204[\255_\344A\006\237\242\006\006*3p\232\016z\000"
 356      5FE44106 
 356      9FA20606 
 356      2A33709A 
 356      0E7A00
 357 011b F749BD66 		.ascii	"\367I\275f\240\340.\002\216\366,v\273 \350j\027Pg\340"
 357      A0E02E02 
 357      8EF62C76 
 357      BB20E86A 
 357      175067E0 
 358 012f B9A59B18 		.ascii	"\271\245\233\030t\221\020\225`D\351 \330C~x\207\004"
ARM GAS  /tmp/cc05KhpP.s 			page 28


 358      74911095 
 358      6044E920 
 358      D8437E78 
 358      8704
 359 0141 0C9A68EB 		.ascii	"\014\232h\353\355\242\273\303%\352\004\235pk\204\251"
 359      EDA2BBC3 
 359      25EA049D 
 359      706B84A9 
 360 0151 2AD70876 		.ascii	"*\327\010vj\270\027m\260\014b>\354\274\036\033\011S"
 360      6AB8176D 
 360      B00C623E 
 360      ECBC1E1B 
 360      0953
 361 0163 3A58C839 		.ascii	":X\3109\275\365\254\213\031\030v\232\214\3707\251z\212"
 361      BDF5AC8B 
 361      1918769A 
 361      8CF837A9 
 361      7A8A
 362 0175 6FBFF114 		.ascii	"o\277\361\024G\010\342$\260\020\376C\271\326\221\020"
 362      4708E224 
 362      B010FE43 
 362      B9D69110 
 363 0185 71251CF5 		.ascii	"q%\034\365$D\007\371\034\360\3619\366\227\317\321\241"
 363      244407F9 
 363      1CF0F139 
 363      F697CFD1 
 363      A1
 364 0196 3EEB06C6 		.ascii	">\353\006\306\007\253\215\371\371\254w|>\370\247\317"
 364      07AB8DF9 
 364      F9AC777C 
 364      3EF8A7CF 
 365 01a6 B1413E1F 		.ascii	"\261A>\037xM\216\017\3629\350\347s\202\240\321|\216"
 365      784D8E0F 
 365      F239E8E7 
 365      7382A0D1 
 365      7C8E
 366 01b8 F9F99C70 		.ascii	"\371\371\234p\230\326QO\302\204C\326\364!W\324'c\222"
 366      98D6514F 
 366      C28443D6 
 366      F42157D4 
 366      276392
 367 01cb 4047868F 		.ascii	"@G\206\217\212\241\265\010we\354\034z2\222>\250O\007"
 367      8AA1B508 
 367      7765EC1C 
 367      7A32923E 
 367      A84F07
 368 01de 7D325204 		.ascii	"}2R\004\216&\303\327\215\024\300g\250\265\277\276T]"
 368      8E26C3D7 
 368      8D14C067 
 368      A8B5BFBE 
 368      545D
 369 01f0 AE3BD2F4 		.ascii	"\256;\322\364\265\320\177\237\257{A\026J\253+2W\312"
 369      B5D07F9F 
 369      AF7B4116 
 369      4AAB2B32 
 369      57CA
 370 0202 6FC9FCCA 		.ascii	"o\311\374\312\206\314\025\314\254Y\252\310jy\375\346"
ARM GAS  /tmp/cc05KhpP.s 			page 29


 370      86CC15CC 
 370      AC59AAC8 
 370      6A79FDE6 
 371 0212 0D490F85 		.ascii	"\015I\017\205LQ\256\225\312\325\212\\N\237\233\237\223"
 371      4C51AE95 
 371      CAD58A5C 
 371      4E9F9B9F 
 371      93
 372 0223 4B4B0B72 		.ascii	"KK\013r\371\302\342\306\031YY3\257\025\213\371\331\034"
 372      F9C2E2C6 
 372      19595933 
 372      AF158BF9 
 372      D91C
 373 0235 04CB9BD9 		.ascii	"\004\313\233\331\365\353\263s\301\2523\317\377\001\271"
 373      F5EBB373 
 373      C1AA33CF 
 373      FF01B9
 374 0244 BA140A   		.ascii	"\272\024\012"
 375              		.text
 376              		.section	.gnu.lto_spi_lld_send.24b939c84b905308,"",%progbits
 377 0000 789C8D94 		.ascii	"x\234\215\224\317k\023A\024\307\337\233\335\355f\315"
 377      CF6B1341 
 377      14C7DF9B 
 377      DDED66CD 
 378 0010 36B6A1A5 		.ascii	"6\266\241\245\321S\351\321B\206\372\343?(H\241\202\322"
 378      D153E9D1 
 378      4286FAE3 
 378      3F2848A1 
 378      82D2
 379 0022 08D58BE4 		.ascii	"\010\325\213\344GM\026\263\246\344Gi\361\320\215\346"
 379      474D16B3 
 379      A6E44769 
 379      F1D08DE6 
 380 0032 E0C14329 		.ascii	"\340\301C)=\370\343\240A\274x\361\340\311S\243\250\004"
 380      3DF8E3A0 
 380      41BC78F1 
 380      E0C953A3 
 380      A804
 381 0044 B48237C9 		.ascii	"\264\2027\311)T\220\236D\360&\302\372fw\263\301\270"
 381      2954909E 
 381      44F026C2 
 381      FA6677B3 
 381      C1B8
 382 0056 66339037 		.ascii	"f3\2207\233\231\367y\357;\337\331\204\001\203\301q\202"
 382      9B99F779 
 382      EF3BDFD9 
 382      840183C1 
 382      7182
 383 0068 3E3F6580 		.ascii	">?e\200U\232Q\002d;\237\000\352\021\206(\036\000a\233"
 383      559A5102 
 383      643B9F00 
 383      EA118628 
 383      1E00619B 
 384 007c E1F61514 		.ascii	"\341\366\025\024\251l\016\232\226\265\333}\267\177O"
 384      A96C0E9A 
 384      96B5DB7D 
 384      B77F4F
ARM GAS  /tmp/cc05KhpP.s 			page 30


 385 008b 7AB0D76A 		.ascii	"z\260\327j<\261~\3336\242\201T\366<B\026a\225\276\340"
 385      3CB17EDB 
 385      36A28154 
 385      F63C4216 
 385      6195BEE0 
 386 009f AC3331F9 		.ascii	"\25431\371\357>.\333\332\373\326n\242\265k\325\177\330"
 386      EF3E2EDB 
 386      DAFBD66E 
 386      A2B56BD5 
 386      7FD8
 387 00b1 F67187BC 		.ascii	"\366q\207\274\024F\276`\255\256m\177|\374\376\355k\274"
 387      1446BE60 
 387      ADAE6D7F 
 387      7CFCFEED 
 387      6BBC
 388 00c3 FF523EC9 		.ascii	"\377R>\311\320D\220\300@I\246 +\220\306&\316\201J\313"
 388      D04490C0 
 388      4049A620 
 388      2B90C626 
 388      CE814ACB 
 389 00d7 A8D10A44 		.ascii	"\250\321\012D\305\236.\366\306i\215\305(\341)%L\212"
 389      C59E2EF6 
 389      C6698DC5 
 389      28E12925 
 389      4C8A
 390 00e9 BDB80853 		.ascii	"\275\270\010S\"L\2130#BB\004\032\0124,kg\026\204\036"
 390      224C8B30 
 390      23424204 
 390      1A0A342C 
 390      6B671684 
 391 00fe 1A298AC2 		.ascii	"\032)\212\302\203\313\310\304,\035\300\355\316\027:"
 391      83CBC8C4 
 391      2C1DC0ED 
 391      CE173A
 392 010d 7A1A9FA1 		.ascii	"z\032\237\241\002y\224\346\341\0245z\004\017I\264\222"
 392      027994E6 
 392      E114357A 
 392      040F49B4 
 392      92
 393 011e 4726C48F 		.ascii	"G&\304\2179\2223\330\023O\320\325\036 \317\303sk\302"
 393      399233D8 
 393      134FD0D5 
 393      1E20CFC3 
 393      736BC2
 394 0131 40D54522 		.ascii	"@\325E\"TB \222\207`\037\371\3567Qn\301/+b\240fzy\007"
 394      54422092 
 394      87601FF9 
 394      EE37516E 
 394      C12F2B62 
 395 014a F066C9DD 		.ascii	"\360f\311\335\024\325\032\304\037s\313E\251\201(\247"
 395      14D51AC4 
 395      1F73CB45 
 395      A98128A7 
 396 015a 7AE5DCAB 		.ascii	"z\345\334\253\246\012\016\363\341h_\037\011\223<Lu\204"
 396      A60A0EF3 
 396      E1685F1F 
 396      09933C4C 
ARM GAS  /tmp/cc05KhpP.s 			page 31


 396      7584
 397 016c 74EE1EEA 		.ascii	"t\356\036\352=)\232s^=\370\274\262/~Dy\212\327Gs\373"
 397      3D299A73 
 397      5E3DF8BC 
 397      B22F7E44 
 397      798AD747 
 398 0182 B4FB7DA2 		.ascii	"\264\373}\242\303|\035\013\360U\377\307\327h\250\257"
 398      C37C1D0B 
 398      F055FFC7 
 398      D768A8AF 
 399 0192 B13C8E0F 		.ascii	"\261<\216\017W\253\007\231\031\363\314<\374\257\231"
 399      57AB0799 
 399      19F3CC3C 
 399      FCAF99
 400 01a1 FA3033BF 		.ascii	"\37203\277\372\207\234\034f\246\352+\276\363\312W\034"
 400      FA879C1C 
 400      66A6EA2B 
 400      BEF3CA57 
 400      1C
 401 01b2 27482481 		.ascii	"'H$\201\205!>\353A>\307\035\246\323\356K\230r\310\372"
 401      85213EEB 
 401      413EC71D 
 401      A6D3EE4B 
 401      9872C8FA 
 402 01c6 44C8150D 		.ascii	"D\310\025\015\310\230&\320\221\021\240\"\264\026\341"
 402      C89826D0 
 402      9111A022 
 402      B416E1
 403 01d5 AE8CA3BE 		.ascii	"\256\214\243\276\214\231\0004\340\004\0032\022\004\216"
 403      8C990034 
 403      E0040332 
 403      12048E
 404 01e4 2623D08D 		.ascii	"&#\320\215\004\300g\250w\351\357\304\345z#Eo\013\375"
 404      04C067A8 
 404      77E9EFC4 
 404      E57A2345 
 404      6F0BFD
 405 01f7 D6C5752F 		.ascii	"\326\305u/\362B\311\\\343\331Rn\213\347\3266x\266`d"
 405      F242C95C 
 405      E3D9526E 
 405      8BE7D636 
 405      78B66064 
 406 020b 8C528557 		.ascii	"\214R\205W\313\265\23378=\024\322E\276^*W+|%u\341\314"
 406      CBB59B37 
 406      383D14D2 
 406      45BE5E2A 
 406      572B7C25 
 407 0222 69BEBCBC 		.ascii	"i\276\274\274\310W..m,\360\312\272q\255X\314%\263\240"
 407      C8572E2E 
 407      6D2CF0CA 
 407      BA71AD58 
 407      CC25B3A0 
 408 0236 E56AA6B9 		.ascii	"\345j\246\271U\336L\236U\253\233\231\332\365\344\271"
 408      55DE4C9E 
 408      55AB9B99 
 408      DAF5E4B9 
 409 0246 3F437E14 		.ascii	"?C~\024\012"
ARM GAS  /tmp/cc05KhpP.s 			page 32


 409      0A
 410              		.text
 411              		.section	.gnu.lto_spi_lld_receive.24b939c84b905308,"",%progbits
 412 0000 789C9593 		.ascii	"x\234\225\223\317k\023A\024\307\337\233\335M\266I\223"
 412      CF6B1341 
 412      14C7DF9B 
 412      DD4DB649 
 412      93
 413 0011 94D0D2E8 		.ascii	"\224\320\322\350\251\324\233\205\014Z\250\377@A\012"
 413      A9D49B85 
 413      0C5AA8FF 
 413      40410A
 414 0020 158546A8 		.ascii	"\025\205F\250^$?\352f1kJ~\224\026\017\335h\360\344\241"
 414      5E243FEA 
 414      66316B4A 
 414      7E94160F 
 414      DD68F0E4 
 415 0035 142FFE38 		.ascii	"\024/\3768\030\244P\274x\020AA0x\012\024\005\2579\345"
 415      18A450BC 
 415      78104141 
 415      30780A14 
 415      05AF39E5 
 416 0049 249E52E9 		.ascii	"$\236R\351\261\024\3267\273\233\015\3065\211\003\373"
 416      B114D637 
 416      BB9B0DC6 
 416      358903FB 
 417 0059 6667789F 		.ascii	"fgx\2377\337\371\276]\006\014\006\3079zNd\200u\232Q"
 417      37DFF9BE 
 417      5D060C06 
 417      C7397A4E 
 417      6480759A 
 418 006e 02647BDF 		.ascii	"\002d{\337\000j*C\024/\200\260\313p\367\026\212T6\017"
 418      006A2A43 
 418      142F80B0 
 418      CB70F716 
 418      8A54360F 
 419 0082 0DD3DCEF 		.ascii	"\015\323\334\357\034t\237H\317\2366\353\257\3143\313"
 419      1C749F48 
 419      CF9E36EB 
 419      AFCC33CB 
 420 0092 42D491CA 		.ascii	"B\324\221\312^E\310\"\254\323\002\347\354\211\311\177"
 420      5E45C822 
 420      ACD302E7 
 420      EC89C97F 
 421 00a2 9EE3B0CD 		.ascii	"\236\343\260\315\323\037\255\006\232\373f\355\227e\305"
 421      D31FAD06 
 421      9AFB66ED 
 421      9765C5
 422 00b1 6CF2FA28 		.ascii	"l\362\372(\362-kv,\353\354\375\343\317\237\360\345\205"
 422      F22D6B76 
 422      2CEBECFD 
 422      E3CF9FF0 
 422      E585
 423 00c3 F30C0D04 		.ascii	"\363\014\015\004\011t\224d\012\262BK\014@\032\0338\017"
 423      09749464 
 423      0AB2424B 
 423      0C401A1B 
ARM GAS  /tmp/cc05KhpP.s 			page 33


 423      380F
 424 00d5 2A2D5888 		.ascii	"*-X\210\266!,BDdEEV\214\022^SB\\lO\2130#\302\254\010"
 424      B6212C42 
 424      44644545 
 424      568C125E 
 424      53425C6C 
 425 00f0 09116828 		.ascii	"\011\021h(P7\315\2759\020rh\244(\012\013n\"\023\263"
 425      5037CDBD 
 425      39107268 
 425      A4280A0B 
 425      6E2213B3 
 426 0104 F4151EB6 		.ascii	"\364\025\036\266?\320\315\323x\200\012h(-\300E*\377"
 426      3FD0CDD3 
 426      78800A68 
 426      282DC045 
 426      2AFF
 427 0116 029E9366 		.ascii	"\002\236\223fEC&\264\007l\305\031\354i'\350v\017\220"
 427      454326B4 
 427      076CC519 
 427      EC6927E8 
 427      760F90
 428 0129 17E08D39 		.ascii	"\027\340\2159\245c\320AT*!\020\311E\260\217t\275C\002"
 428      A563D041 
 428      542A2110 
 428      C945B08F 
 428      74BD4302 
 429 013d 1A4DB4F5 		.ascii	"\032M\264\365e\305\331\021%\352\004M85BTU\324\010\272"
 429      65C5D911 
 429      25EA044D 
 429      38354254 
 429      55D408BA 
 430 0151 359CF66A 		.ascii	"5\234\366jB\0061G\255\356\344X\230\344b\252}z\373g\017"
 430      42063147 
 430      ADEEE458 
 430      98E462AA 
 430      7D7AFB67 
 431 0166 D330645F 		.ascii	"\3230d_2\354\177I\331S\374\350\243\2478L\220H\002\023"
 431      32EC7F49 
 431      D953FCE8 
 431      A3A7384C 
 431      90480213 
 432 017a E13F942B 		.ascii	"\341?\224+\256\204\260#\341\360\330\223\020\031\346"
 432      AE84B023 
 432      E1F0D893 
 432      1019E6
 433 0189 73C0C7E7 		.ascii	"s\300\307\347\350_>GF\372\034{\000\247\246\252\343\244"
 433      E85F3E47 
 433      46FA1C7B 
 433      00A7A6AA 
 433      E3A4
 434 019b E1E60D13 		.ascii	"\341\346\015\023\036\365\263<\346Z~\374O\313\243\303"
 434      1EF5B33C 
 434      E65A7EFC 
 434      4FCBA3C3 
 435 01ab 2CEFDF37 		.ascii	",\357\3377>\314\362\240'~Ly=_\3436\323><\361\316\231"
 435      3ECCF2A0 
 435      277E4C79 
ARM GAS  /tmp/cc05KhpP.s 			page 34


 435      3D5FE336 
 435      D33E3CF1 
 436 01c1 B6C9DAD4 		.ascii	"\266\311\332\324\210\226\014\264w\206@\273\275>\335"
 436      88960CB4 
 436      778640BB 
 436      BD3EDD
 437 01d0 1D598B70 		.ascii	"\035Y\213pGF\253/c\326\007\365\271\301\200\214\004\201"
 437      4746AB2F 
 437      63D607F5 
 437      B9C1808C 
 437      0481
 438 01e2 E3C9F075 		.ascii	"\343\311\360u#\001\360\035j\235\243w\262\303\365F\212"
 438      2301F01D 
 438      6A9DA377 
 438      B2C3F546 
 438      8A
 439 01f3 BE0EFAD7 		.ascii	"\276\016\372\327EO\227y\276hl\360l1\267\303s\033[<\233"
 439      454F9779 
 439      BE686CF0 
 439      6C31B7C3 
 439      731B5B3C 
 440 0208 D7337AB1 		.ascii	"\3273z\261\314+\245\352\375{\234^\362\351\002\337,\226"
 440      CC2BA5EA 
 440      FD7B9C5E 
 440      F2E902DF 
 440      2C96
 441 021a 2A65BE96 		.ascii	"*e\276\226\272\266x\231\257\256.\363\265\033+[\227x"
 441      BAB67899 
 441      AFAE2EF3 
 441      B51B2B5B 
 441      9778
 442 022c 7953BF53 		.ascii	"yS\277S(\344\222Y\010\226\2663\325\273\311\245\211\\"
 442      28E49259 
 442      0896B633 
 442      D5BBC9A5 
 442      895C
 443 023e D530762A 		.ascii	"\3250v*\333\311+\277\001o4\024\270"
 443      DBC92BBF 
 443      016F3414 
 443      B8
 444              		.text
 445              		.section	.gnu.lto_spi_lld_polled_exchange.24b939c84b905308,"",%progbits
 446 0000 789C8551 		.ascii	"x\234\205QAK\002A\030\375\276\231]\327\244\037\320\261"
 446      414B0241 
 446      18FDBE99 
 446      5DD7A41F 
 446      D0B1
 447 0012 73464379 		.ascii	"sFCy\012\272\004\"\004\006\201Ju\012]E\227\264\025-"
 447      0ABA0422 
 447      0406814A 
 447      750A5D45 
 447      97B4152D 
 448 0026 A193BBE9 		.ascii	"\241\223\273\351q\017\036\243N\235\202\016\325=\002"
 448      710F1EA3 
 448      4E9D820E 
 448      D53D02
 449 0035 91A0200C 		.ascii	"\221\240 \014\352$\236:\345_\210\014\354\333Y\327\""
ARM GAS  /tmp/cc05KhpP.s 			page 35


 449      EA249E3A 
 449      E55F880C 
 449      ECDB59D7 
 449      22
 450 0046 880666BE 		.ascii	"\210\006f\276\3077\363\336\2337\303\200\301\357\261"
 450      C737F3DE 
 450      9B37C380 
 450      C1EFB1
 451 0055 42F31C01 		.ascii	"B\363\034\001bT1\000\310ZO\000v\220!\367\000g\252s\017"
 451      62543100 
 451      C85A4F00 
 451      769021F7 
 451      0067AA73 
 452 006a 608594A6 		.ascii	"`\205\224\246\006\326\264\352\365W\025D\267\002B\235"
 452      06D6B4EA 
 452      F5571544 
 452      B702429D 
 453 007a 7155C1FA 		.ascii	"qU\301\3726J\271+\326~\035\215._\006\275\231\317\333"
 453      364AB92B 
 453      D67E1D8D 
 453      2E5F06BD 
 453      99CFDB
 454 008d D814C312 		.ascii	"\330\024\303\022\002\007\003A!D\372\006\242F\013\013"
 454      02070341 
 454      2144FA06 
 454      A2460B0B 
 455 009d BA88CEAB 		.ascii	"\272\210\316\253\320\264\254\326,\200.\371IZ\311'\205"
 455      D0B4ACD6 
 455      2C802EF9 
 455      495AC927 
 455      85
 456 00ae 8C0AEFC2 		.ascii	"\214\012\357\302Q\377\375\303\321\322x\206*\344\221"
 456      51FFFDC3 
 456      D1D27886 
 456      2AE491
 457 00bd 87618EA4 		.ascii	"\207a\216\244N\341\004\015\344yd[T\025\351\233A?P\027"
 457      4EE1040D 
 457      E479645B 
 457      5415E99B 
 457      413F5017 
 458 00d1 3A8FD721 		.ascii	":\217\327!\217\022\206\013\253i[\313\006\252\036)@\""
 458      8F12860B 
 458      AB695BCB 
 458      06AA1E29 
 458      4022
 459 00e3 2E09C624 		.ascii	".\011\306$\017\344\307\"\344\313\201b\221q\247\177<"
 459      0FE4C722 
 459      E4CB8162 
 459      9171A77F 
 459      3C
 460 00f4 74E67DE3 		.ascii	"t\346}\343\200\024\302?e\330\304\273q\323xC\237\026"
 460      8014C23F 
 460      65D8C4BB 
 460      71D37843 
 460      9F16
 461 0106 24A67B4C 		.ascii	"$\246{L\332<\300\335\300\216L\266d\377\347G$\251O/\215"
 461      DA3CC0DD 
ARM GAS  /tmp/cc05KhpP.s 			page 36


 461      C08E4CB6 
 461      64FFE747 
 461      24A94F2F 
 462 011b 29BA8CCC 		.ascii	")\272\214\314\336\351\367\206\016\367\011\3328\313\346"
 462      DEE9F786 
 462      0EF709DA 
 462      38CBE6
 463 012a 3F59009E 		.ascii	"?Y\000\236\301n\177\323|q$Q\367\232QQ0K9\241\233\331"
 463      C16E7FD3 
 463      7C712451 
 463      F79A5151 
 463      304B39A1 
 464 0140 4391CDD5 		.ascii	"C\221\315\325\204^02\206Y\025\373\225\203\275]A\240"
 464      845E3032 
 464      865915FB 
 464      9583BD5D 
 464      41A0
 465 0152 902E8AB2 		.ascii	"\220.\212\262Y\331\257\212Dr=\262$\342\361\250Hl\254"
 465      59D9AF8A 
 465      44723DB2 
 465      24E2F1A8 
 465      486CAC
 466 0165 D51645B5 		.ascii	"\325\026E\265l\354\024\213\331\005\035\276\0000}wX"
 466      6CEC148B 
 466      D9051DBE 
 466      00307D77 
 466      58
 467              		.text
 468              		.section	.gnu.lto_.symbol_nodes.24b939c84b905308,"",%progbits
 469 0000 789C4DCC 		.ascii	"x\234M\314\273.Da\024\305\361\265\366>\2379\3563.\215"
 469      BB2E4461 
 469      14C5F1B5 
 469      F63E9F39 
 469      EE332E8D 
 470 0014 48743A9D 		.ascii	"Ht:\235\027\362\006\336`Mr\232\231\212D\213FCM\253q"
 470      17F206DE 
 470      604D729A 
 470      998A448B 
 470      46434DAB 
 471 0029 9219D771 		.ascii	"\222\031\327q\035\004\011\017\340\025\210\303L|\337"
 471      1D04090F 
 471      E01588C3 
 471      4C7CDF
 472 0038 6EFEF925 		.ascii	"n\376\371%+\333`X'\006g\027\024\260\331\003\244\355"
 472      2BDB6058 
 472      27066717 
 472      14B0D903 
 472      A4ED
 473 004a F69A9D53 		.ascii	"\366\232\235SL\370N\331\220;-\332%\345C\356\266\030"
 473      4CF84ED9 
 473      903B2DDA 
 473      25E543EE 
 473      B618
 474 005c 4EC94C1E 		.ascii	"N\311L\036\272D\020\302\023\015\202]QY\334X\217\012"
 474      BA4410C2 
 474      130D825D 
 474      5159DC58 
ARM GAS  /tmp/cc05KhpP.s 			page 37


 474      8F0A
 475 006e 09AFA991 		.ascii	"\011\257\251\221\2047T-\341-\225'\377\317\350\325\177"
 475      8437542D 
 475      E12D9527 
 475      FFCFE8D5 
 475      7F
 476 007f BBA34693 		.ascii	"\273\243F\223\321=5\226\360\201\032O\330\247&\"\371"
 476      D13D3596 
 476      F0811A4F 
 476      D8A72622 
 476      F9
 477 0090 424D0ED8 		.ascii	"BM\016\330l\222\257\324T\324#5\035\365L\325\243\336"
 477      6C92AFD4 
 477      54D42335 
 477      1DF54CD5 
 477      A3DE
 478 00a2 A8C6BF1C 		.ascii	"\250\306\277\034\015\224G\253\316*\373\313\316\031\024"
 478      0D9447AB 
 478      CE2AFBCB 
 478      CE1914
 479 00b1 5B9F4B19 		.ascii	"[\237K\031q\270\361\265\340>\213\275\217ozm\016\305"
 479      71B8F1B5 
 479      E03E8BBD 
 479      8F6F7A6D 
 479      0EC5
 480 00c3 C15FCA2A 		.ascii	"\301_\312*\371<\312\343\305\337\024\235\256{n8\351\254"
 480      F93CCAE3 
 480      C5DF149D 
 480      AE7B6E38 
 480      E9AC
 481 00d5 E007AB53 		.ascii	"\340\007\253Sn8"
 481      6E38
 482              		.text
 483              		.section	.gnu.lto_.refs.24b939c84b905308,"",%progbits
 484 0000 789C2585 		.ascii	"x\234%\205\001\012\300 \014\304\356\322V7\224\355)\376"
 484      010AC020 
 484      0CC4EED2 
 484      563794ED 
 484      29FE
 485 0012 FF770A26 		.ascii	"\377w\012&\204 \264ty\303I\371H\273\271\242S\030\371"
 485      8420B474 
 485      79C349F9 
 485      48BBB9A2 
 485      5318F9
 486 0025 391F4CD2 		.ascii	"9\037L\322\037\323?\251\015\033\211\000\364"
 486      1FD33FA9 
 486      0D1B8900 
 486      F4
 487              		.text
 488              		.section	.gnu.lto_.decls.24b939c84b905308,"",%progbits
 489 0000 789CBD5C 		.ascii	"x\234\275\\{t\024E\272\357\356\231\311$$<\275\353\202"
 489      7B741445 
 489      BAEFEE99 
 489      C924243C 
 489      BDEB82
 490 0013 D773881E 		.ascii	"\327s\210\036\367\312\325+!\300*\356\336\253\206\004"
 490      F7CAD52B 
ARM GAS  /tmp/cc05KhpP.s 			page 38


 490      21C02AEE 
 490      DEAB8604 
 491 0023 256705D9 		.ascii	"%g\005\331\011\356\331\373\327\330L\0322k^\316L0\354"
 491      09EED9FB 
 491      D7D84C1A 
 491      326B5ECE 
 491      4C30EC
 492 0036 3DF7DA04 		.ascii	"=\367\332\004\214\310\012& \357W\020\025d]\021\021\020"
 492      8CC80A26 
 492      20EF5710 
 492      15645D11 
 492      1110
 493 0048 50185081 		.ascii	"P\030P\201\020y\004D\214\010$\262\362\320\025y\010D"
 493      10790444 
 493      8C0824B2 
 493      F2D01579 
 493      0844
 494 005a 22E47EF5 		.ascii	"\"\344~\365u\365LW\245{\246{\364\354\234S\325\217\251"
 494      75F54C57 
 494      A57BA67B 
 494      F4EC9C53 
 494      D58FA9
 495 006d FAD5EF7B 		.ascii	"\372\325\357{\324W\325U=#\011\222\320\327+\010\235\360"
 495      D457D555 
 495      3D230992 
 495      D0D72B08 
 495      9DF0
 496 007f 99FA7B41 		.ascii	"\231\372{A\020\272\011B\0178<\000\011n\013\313!\275"
 496      10BA0942 
 496      0F383C00 
 496      096E0BCB 
 496      21BD
 497 0091 0C6925A4 		.ascii	"\014i%\244\265\220\242\220\332 }%\012\370\351\003\351"
 497      B590A290 
 497      DA207D25 
 497      0AF8E903 
 497      E9
 498 00a2 2C9C9F87 		.ascii	",\234\237\207t\031\322\017\220\256C\022%A\360@\312\200"
 498      7419D20F 
 498      90AE4312 
 498      2541F040 
 498      CA80
 499 00b4 D41D523F 		.ascii	"\324\035R?HwB\312\205\364[H\005\220FB\032\015i\014$"
 499      487742CA 
 499      85F45B48 
 499      05904642 
 499      1A0D690C 
 500 00c9 19921BB0 		.ascii	"\031\222\033\260\0248N\200\024\204T.\011\314\207\264"
 500      14384E80 
 500      1484542E 
 500      09CC87B4 
 501 00d9 E3A1BC2A 		.ascii	"\343\241\274*\2458\267\021\264\234\213\226y\212\342"
 501      A538B711 
 501      B49C8B96 
 501      798AE2
 502 00e8 138ADF8A 		.ascii	"\023\212\337\212,\006\341y;\305\330\012\347\037A:,j"
 502      2C06E179 
ARM GAS  /tmp/cc05KhpP.s 			page 39


 502      3BC5D80A 
 502      E71F413A 
 502      2C6A
 503 00fa 6549FB8D 		.ascii	"eI\373\215\220\016Cz\007\322\357\244\256\355l\247:\230"
 503      900E437A 
 503      07D2EFA4 
 503      AEED6CA7 
 503      3A98
 504 010c 08E7DBA0 		.ascii	"\010\347\333\240\322\0118\337\011\307\247\341\272\032"
 504      D20938DF 
 504      09C7A7E1 
 504      BA1A
 505 011a D224487B 		.ascii	"\322$H{\340\336\237%M_\315\220\376G\322t\366\277DF("
 505      E0DE9F25 
 505      4D5FCD90 
 505      FE47D274 
 505      F6BF4446 
 506 012f FB7F92A6 		.ascii	"\373\177\222\246\317B\011\325-\234\200{\037Bj\202\364"
 506      CF4209D5 
 506      2D9C807B 
 506      1F426A82 
 506      F4
 507 0140 09A42390 		.ascii	"\011\244#\220\336\207\264\033\276\333O\360\211lT\366"
 507      DE87B41B 
 507      BEDB4FF0 
 507      896C54F6 
 508 0150 F306F99E 		.ascii	"\363\006\371\236\241:$\342_\202\373\0279Y\211=\274\224"
 508      A13A24E2 
 508      5F82FB17 
 508      3959893D 
 508      BC94
 509 0162 2FB16916 		.ascii	"/\261i\026\225\233p\256\205J\313\250\216\346\321\343"
 509      959B70AE 
 509      854ACBA8 
 509      8EE6D1E3 
 510 0172 65AE3EF9 		.ascii	"e\256>\371\020{f\302\261\035R\203\244\351&J\345\252"
 510      107B66C2 
 510      B11D5283 
 510      A4E9264A 
 510      E5AA
 511 0184 17357D10 		.ascii	"\0275}\020=\022]\270\251o\020\236uT\006\"[\033\244\223"
 511      3D125DB8 
 511      A96F109E 
 511      75540622 
 511      5B1BA493 
 512 0198 A2C693E0 		.ascii	"\242\306\223\340\021\233\023[\021;+\324\326\306\017"
 512      119B135B 
 512      113B2BD4 
 512      D6C60F
 513 01a7 F19F7ED4 		.ascii	"\361\237~\324\006[\251\014\304N\244\275\345\222f#R\237"
 513      065BA90C 
 513      C44EA4BD 
 513      E5926623 
 513      529F
 514 01b9 E857B7C7 		.ascii	"\350W\267\307\313R\334/\177/\2612\352\266\232\017i\226"
 514      CB52DC2F 
 514      7F2FB132 
ARM GAS  /tmp/cc05KhpP.s 			page 40


 514      EAB69A0F 
 514      6996
 515 01cb A8D96B05 		.ascii	"\250\331k\005\265S\017\252_\235+\321\005\261\005\341"
 515      B5530FAA 
 515      5F9D2BD1 
 515      05B105E1 
 516 01db FF0AA4FD 		.ascii	"\377\012\244\375\324\016\235B\\\216y\220\026Sy\011W"
 516      D40E9D42 
 516      5C8E7990 
 516      16537909 
 516      57
 517 01ec E2BFC42E 		.ascii	"\342\277\304.g\251\214\235\242&\227\361C\372C\026\225"
 517      67A98C9D 
 517      A22697F1 
 517      43FA4316 
 517      95
 518 01fd 89C841E4 		.ascii	"\211\310A\3442\362\327\271\275\002\345\306Az\025\322"
 518      32F2D7B9 
 518      BD02E5C6 
 518      417A15D2 
 519 020d 15B84EA3 		.ascii	"\025\270N\243\374\352\014\355\352\\]\024\227\364\235"
 519      FCEA0CED 
 519      EA5C5D14 
 519      97F49D
 520 021c CBB46D97 		.ascii	"\313\264m\227\324\265m\322\017\273\013\232\336.S\335"
 520      D4B56DD2 
 520      0FBB0B9A 
 520      DE2E53DD 
 521 022c B9A92FE8 		.ascii	"\271\251/\350\355\277F\365\261\202\352\256\005\322J"
 521      EDBF46F5 
 521      B182EAAE 
 521      05D24A
 522 023b DA2789FC 		.ascii	"\332'\211\374G ]\205\364\235\240\371\212\207\372\214"
 522      47205D85 
 522      F49DA0F9 
 522      8A87FA8C 
 523 024b 976B2BE3 		.ascii	"\227k+\343gl\353[\332V\006m+\223k\253;m\313+\304\375"
 523      676CEB5B 
 523      DA56066D 
 523      2B936BAB 
 523      3B6DCB2B 
 524 0261 5BEFD37C 		.ascii	"[\357\323|?m\220\342}\225\370I:\2659\261u3\244\275\324"
 524      3F6D90E2 
 524      7D95F849 
 524      3AB539B1 
 524      7533A4BD 
 525 0276 4F9BA86E 		.ascii	"O\233\250nO\322\230\320\235\362\372\005\034o\2461i\002"
 525      4FD298D0 
 525      9DF2FA05 
 525      1C6FA631 
 525      6902
 526 0288 C7A39F14 		.ascii	"\307\243\237\024\357[\311x\244\302\241\037\345\220\015"
 526      EF5BC978 
 526      A4C2A11F 
 526      E5900D
 527 0297 C73B20DD 		.ascii	"\307; \335\006\351v\216\303\235\377\004]\334Iy\334\003"
 527      06E9768E 
ARM GAS  /tmp/cc05KhpP.s 			page 41


 527      C39DFF04 
 527      5DDC4979 
 527      DC03
 528 02a9 C7819072 		.ascii	"\307\201\220rLbt\256\003\036F\016\204\223]\036\271\224"
 528      4C6274AE 
 528      031E460E 
 528      84935D1E 
 528      B994
 529 02bb C77D70BC 		.ascii	"\307}p\274\037\3220\023\233\2201\206p\250\247\375\244"
 529      1FD23013 
 529      9B903186 
 529      70A8A7FD 
 529      A4
 530 02cc 5DE8DAD7 		.ascii	"]\350\332\327\310}\275\2377P\354\337\322x\372\020dy"
 530      C87DBD9F 
 530      3750ECDF 
 530      D278FA10 
 530      6479
 531 02de 1C66A630 		.ascii	"\034f\2460]Uk\324\206Zu\344\356\036\275\205:\025>\331"
 531      5D556BD4 
 531      865A75E4 
 531      EE1EBD85 
 531      3A153ED9 
 532 02f2 F37B6408 		.ascii	"\363{d\010\323\310\355\326W\325\276}\005\341\217\242"
 532      D3C8EDD6 
 532      57D5BE7D 
 532      05E18FA2 
 533 0302 2CC2AD74 		.ascii	",\302\255t<\311\312@\320_\011\257@Q(/\311\342\0121\003"
 533      3CC9CA40 
 533      D05F09AF 
 533      4051282F 
 533      C9E20A31 
 534 0317 1A904C42 		.ascii	"\032\220LB-\371h\337\223\017\251\256\235\353g$\254P"
 534      2DF968DF 
 534      930FA9AE 
 534      9DEB6724 
 534      AC50
 535 0329 F42774F4 		.ascii	"\364't\364,Z\353e\2617\236!\027\225R\304\022\264F\266"
 535      2C5AEB65 
 535      B1379E21 
 535      179552C4 
 535      12B446B6 
 536 033d 5EC34D6B 		.ascii	"^\303Mk\274fh'+#~\222I\231X\325[.\352%\330\306\314k"
 536      BC666827 
 536      2B237E92 
 536      499958D5 
 536      5B2EEA25 
 537 0355 A0E475AD 		.ascii	"\240\344u\255\373O\237q\251j\272,\256D\351\307\210\302"
 537      FB4F9F71 
 537      A96ABA2C 
 537      AE44E9C7 
 537      88C2
 538 0367 5DC2EB9A 		.ascii	"]\302\353\232Jv\334m\246\012\373\320\035;?\\+\326\250"
 538      4A76DC6D 
 538      A60AFBD0 
 538      1D3B3F5C 
 538      2BD6A8
ARM GAS  /tmp/cc05KhpP.s 			page 42


 539 037a 2A7CF157 		.ascii	"*|\361W\004\257\021E\240\271Z\274\3131\324\372=\033"
 539      04AF1145 
 539      A0B95ABC 
 539      CB31D4FA 
 539      3D1B
 540 038c 8721CB37 		.ascii	"\207!\3137\021h\033\007$\213i\031\254\255\340Z/@\320"
 540      11681B07 
 540      248B6919 
 540      ACADE05A 
 540      2F40D0
 541 039f E092B4D4 		.ascii	"\340\222\264\324N\346R\3423\364\016\271\360\012\377"
 541      4EE652E2 
 541      33F40EB9 
 541      F00AFF
 542 03ae F47A5EA1 		.ascii	"\364z^\241\026\235\362\331\232\276\363{$\360\312\272"
 542      169DF2D9 
 542      9ABEF37B 
 542      24F0CABA 
 543 03be D675333F 		.ascii	"\326u3?\311E\251\327\212^\220\372GNj\033@\204\332;P"
 543      C945A9D7 
 543      8A5E90FA 
 543      474E6A1B 
 543      4084DA3B 
 544 03d3 59ABA639 		.ascii	"Y\253\2469{t}mO\325\255\335\027\030@\346\343\022\260"
 544      7B747D6D 
 544      4FD5ADDD 
 544      171840E6 
 544      E312B0
 545 03e6 BF3D07FD 		.ascii	"\277=\007\375\201\000\2723\342\367f\305\357\211\206"
 545      8100BA33 
 545      E2F766C5 
 545      EF8986
 546 03f5 A28BE2B7 		.ascii	"\242\213\342\267%\303\355W\343\267]\206\333o\305o\273"
 546      25C3ED57 
 546      E3B75D86 
 546      DB6FC56F 
 546      BB
 547 0406 0D8E1DEB 		.ascii	"\015\216\035\353W\264[1Z\216\213\"\213\353\305_A\276"
 547      57B45B31 
 547      5A8E8B22 
 547      8BEBC55F 
 547      41BE
 548 0418 41749956 		.ascii	"At\231Vc\002B\037\241\036\003\202\301\311T\227\256\246"
 548      6302421F 
 548      A11E0382 
 548      C1C95497 
 548      AEA6
 549 042a 4106879D 		.ascii	"A\006\207\235}\3445q\012:\354v\261\017qX\027\253\361"
 549      7DE43571 
 549      0A3AEC76 
 549      B10F7158 
 549      17ABF1
 550 043d A440B2F8 		.ascii	"\244@\262\370\001\014\373\262\370!Tgt~yQ\026\3219\271"
 550      010CFBB2 
 550      F8215467 
 550      747E7951 
 550      16D139B9 
ARM GAS  /tmp/cc05KhpP.s 			page 43


 551 0451 9F40E7B7 		.ascii	"\237@\347\267\011\015\300:z\375\350\322_\252\255QQ7"
 551      090DC03A 
 551      7AFDE8D2 
 551      5FAAAD51 
 551      5137
 552 0463 FC0B4883 		.ascii	"\374\013H\203\3245\263q,L\350*\354\221\301\341\315Y"
 552      D435B371 
 552      2C4CE82A 
 552      EC91C1E1 
 552      CD59
 553 0475 BAAC9FDA 		.ascii	"\272\254\237\332\260C4S\012\024\020\015\3420\341KSK"
 553      B0433453 
 553      0A14100D 
 553      E230E14B 
 553      534B
 554 0487 F4E85131 		.ascii	"\364\350Q1\333Dr\246\250,6\201=\222\225\"\345\366\362"
 554      DB4472A6 
 554      A82C3681 
 554      3D929522 
 554      E5F6F2
 555 049a AA997714 		.ascii	"\252\231w\024U\263\327\226j\226\035]\332U\224\233\205"
 555      55B3D796 
 555      6A961D5D 
 555      DA55949B 
 555      85
 556 04ab 39348EA8 		.ascii	"94\216\250bD\026\037\370\205e\210l\026o\216;7\271\021"
 556      6244161F 
 556      F8856588 
 556      6C166F8E 
 556      3B37B911 
 557 04bf 0524597C 		.ascii	"\005$Y|\334\025k\307:\010E\257/\374\027B\364\000T\201"
 557      DC156BC7 
 557      3A0845AF 
 557      2FFC1742 
 557      F4005481 
 558 04d3 3EC0B906 		.ascii	">\300\271\006CHk\310\212\304al\323L\316.\337IB\003\266"
 558      43486BC8 
 558      8AC4616C 
 558      D34CCE2E 
 558      DF494203 
 559 04e8 B3376E7B 		.ascii	"\2637n{\006.\271\3557\231)\314\304N\255\242\016vk\274"
 559      062EB9ED 
 559      379929CC 
 559      C44EADA2 
 559      0E766BBC 
 560 04fc 432C5B74 		.ascii	"C,[t\271\277\326\037Z\260?\264%\357\017,\016\021\351"
 560      B9BFD61F 
 560      5AB03FB4 
 560      25EF0F2C 
 560      0E11E9
 561 050f 0BDEE0EB 		.ascii	"\013\336\340\353:w\213\030\326\276Hn\362\251S\242\033"
 561      3A778B18 
 561      D6BE486E 
 561      F2A953A2 
 561      1B
 562 0520 3B774B0B 		.ascii	";wK\013\324\350T\027\016\027Sl\215<\265\037m\307\221"
 562      D4E85417 
ARM GAS  /tmp/cc05KhpP.s 			page 44


 562      0E17536C 
 562      8D3CB51F 
 562      6DC791
 563 0533 874E0012 		.ascii	"\207N\000\022U\221\305V\214$^6\202{3\342'$p\367$\306"
 563      5591C556 
 563      8C245E36 
 563      827B33E2 
 563      272470F7 
 564 0549 38E73219 		.ascii	"8\3472\031\300\022\303\353\003\330\364\367\356G\231"
 564      C012C3EB 
 564      03D8F4F7 
 564      EE4799
 565 0558 4FE20076 		.ascii	"O\342\000v\325\305\017`^n\000KN\307aq\210fn\221\232"
 565      D5C50F60 
 565      5E6E004B 
 565      4EC76171 
 565      88666E91 
 566 056d 2305579A 		.ascii	"#\005W\232:\005\274\341\\\377\327\337V\325\347\323d"
 566      3A05BCE1 
 566      5CFFD7DF 
 566      56D5E7D3 
 566      64
 567 057e F1048A51 		.ascii	"\361\004\212Q\353\0301\2331\355f\342\011\263\262t\270"
 567      EB18319B 
 567      31ED66E2 
 567      09B3B274 
 567      B8
 568 058f E976E0D2 		.ascii	"\351v\340\322-\011F\337c\341f:\206c\331me\341f\331\201"
 568      2D0946DF 
 568      63E1663A 
 568      8663D96D 
 568      65E166D9 
 569 05a4 EB65CDEE 		.ascii	"\353e\315\356\000\0137\3171\034\313\356 \013\267\310"
 569      000B37CF 
 569      311CCBEE 
 569      200BB7C8 
 570 05b4 0E5C5F13 		.ascii	"\016\\_\023vf\037c\247\225\305c\330?\216\213\267A~\032"
 570      76661F63 
 570      A795C563 
 570      D83F8E8B 
 570      B7417E1A 
 571 05c8 F3B3987F 		.ascii	"\363\263\230\177\203\371\267\230\177\207\371\005\310"
 571      83F9B798 
 571      7F87F905 
 571      C8
 572 05d5 639F04BD 		.ascii	"c\237\004\275\241\376\344\201\376\357\252j/Y\374\014"
 572      A1FEE481 
 572      FEEFAA6A 
 572      2F59FC0C 
 573 05e5 83E92977 		.ascii	"\203\351)w\302`\332b!\025!z9A0\275\314\007\323\013n"
 573      C260DA62 
 573      2115217A 
 573      394130BD 
 573      CC07D30B 
 574 05fa A7C1D4A0 		.ascii	"\247\301\324\240s\265\006&\010\337\177*N\231\242\256"
 574      73B50626 
 574      08DF7F2A 
ARM GAS  /tmp/cc05KhpP.s 			page 45


 574      4E99A2AE 
 575 060a 1A447BBE 		.ascii	"\032D{\276Z\253\016X\025\357\371\275t\014I0\304\242"
 575      5AAB0E58 
 575      15EFF9BD 
 575      740C4930 
 575      C4A2
 576 061c 8DFF813D 		.ascii	"\215\377\201=\277\035\355\324\3566\015!6\200\326O_\251"
 576      BF1DEDD4 
 576      EE360D21 
 576      3680D64F 
 576      5FA9
 577 062e 85900E04 		.ascii	"\205\220\016\004\232\354\341C\210\213\013!.6&\2702\342"
 577      9AECE143 
 577      888B0B21 
 577      2E3626B8 
 577      32E2
 578 0640 279D9D2E 		.ascii	"'\235\235.\301Ya\230\205x8\3451$\223\364NT\336\025\252"
 578      C1596198 
 578      857838E5 
 578      312493F4 
 578      4E54DE15 
 579 0655 3C5D17B3 		.ascii	"<]\027\263\034#\366\352bc\315E\367\241\213\356G'<\202"
 579      1C23F6EA 
 579      6263CD45 
 579      F7A18BEE 
 579      47273C82 
 580 0669 F955CC3B 		.ascii	"\371U\314;\215\016)\011s\273\350L\233u\030\360\342\323"
 580      8D0E2909 
 580      73BBE84C 
 580      9B7518F0 
 580      E2D3
 581 067b 132139A2 		.ascii	"\023!9\242\225S6\306\237\304`\004\367p\2637gN\027]z"
 581      955336C6 
 581      9FC46004 
 581      F770B337 
 581      674E175D 
 582 0690 3CAB4E4E 		.ascii	"<\253NN6|7\270u\244\202\270\307,\373&\332w3v\263g%2"
 582      367C37B8 
 582      75A482B8 
 582      C72CFB26 
 582      DA773376 
 583 06a8 7CB77A92 		.ascii	"|\267z\222\016\337,\216$\234\305*\323$v\010o=\362]\353"
 583      0EDF2C8E 
 583      249CC52A 
 583      D3247608 
 583      6F3DF25D 
 584 06bd BFCE4764 		.ascii	"\277\316Gd\362U\362i[G\355\222\256\263\020\215\226\225"
 584      F255F269 
 584      5B47ED92 
 584      AEB3108D 
 584      9695
 585 06cf 0E5F90B8 		.ascii	"\016_\220\270\316\273*M\247\222\332L\350\306N\320\243"
 585      CEBB2A4D 
 585      A792DA4C 
 585      E8C64ED0 
 585      A3
 586 06e0 862B096B 		.ascii	"\206+\011k\034\203\261F\231\275k1\012d\177\006\260F"
ARM GAS  /tmp/cc05KhpP.s 			page 46


 586      1C83B146 
 586      99BD6B31 
 586      0A647F06 
 586      B046
 587 06f2 7FD0AE97 		.ascii	"\177\320\256\227\210\177oH\343]\261Mt<\005\220\204\255"
 587      887F6F48 
 587      E35DB14D 
 587      743C0590 
 587      84AD
 588 0704 76E4B0EC 		.ascii	"v\344\260\354\224\304\220\007n\335\204c\272\376<\220"
 588      94C49007 
 588      6EDD8463 
 588      BAFE3C90 
 589 0714 66258724 		.ascii	"f%\207$|\204\215\315\345\235a\313\225\003\367h\3160"
 589      7C848DCD 
 589      E59D61CB 
 589      9503F768 
 589      CE30
 590 0726 D796336C 		.ascii	"\327\2263ll\232gkJ\332 \351\315\337\201\315?\347%\315"
 590      6C9A676B 
 590      4ADA20E9 
 590      CDDF81CD 
 590      3FE725CD 
 591 073a 2FEAE28B 		.ascii	"/\352\342\213\327\316<\2405\277\310V\363k\017\276d\346"
 591      D7CE3CA0 
 591      35BFC856 
 591      F36B0FBE 
 591      64E6
 592 074c 8B164F0D 		.ascii	"\213\026O\015\324z[\256\234\037\260\014\033Y\206\376"
 592      D47A5BAE 
 592      9C1FB00C 
 592      1B5986FE 
 593 075c D3ECE5CD 		.ascii	"\323\354\345\315\367`\246\261-\274f\334\367\363\030"
 593      F760A6B1 
 593      2DBC66DC 
 593      F7F318
 594 076b FB94DC17 		.ascii	"\373\224\334\027\304\334]\250\317\2764\016\307\034#"
 594      C4DC5DA8 
 594      CFBE340E 
 594      C71C23
 595 077a B23EFCCE 		.ascii	"\262>\374\316A\354\020\032X\253\0350\353\350\036\335"
 595      41EC101A 
 595      58AB1D30 
 595      EBE81EDD 
 596 078a 60043BE9 		.ascii	"`\004;\351\030\214e\366\256\021\354\224\0350\253y\027"
 596      188C65F6 
 596      AE11EC94 
 596      1D30AB79 
 596      17
 597 079b 806D3682 		.ascii	"\200m6\202\235u\014\3062{\317\010\366\017;`fs.\012\266"
 597      9D750CC6 
 597      327BCF08 
 597      F60F3B60 
 597      66732E0A 
 598 07b0 D50876DE 		.ascii	"\325\010v\3361\030\313\354\200\021\354{;`\331&\314b"
 598      3118CBEC 
 598      8011EC7B 
ARM GAS  /tmp/cc05KhpP.s 			page 47


 598      3B60D926 
 598      CC62
 599 07c2 1FABB0BC 		.ascii	"\037\253\260\274P2\014mW\275z@p\350"
 599      50320C6D 
 599      57BD7A40 
 599      70E8
 600 07d0 D3421CA3 		.ascii	"\323B\034\243\303\3534\2021r\223\241\350\326\315\264"
 600      C3EB3482 
 600      317293A1 
 600      E8D6CDB4 
 601 07e0 5F68B17D 		.ascii	"_h\261}r\272\015\304\004\016\263p\227a\240x\3361\030"
 601      72BA0DC4 
 601      040EB370 
 601      9761A078 
 601      DE3118
 602 07f3 E7CABBF8 		.ascii	"\347\312\273\370\321;\266(\035\265\\\266\223\305WpB"
 602      D13BB628 
 602      1DB55CB6 
 602      93C55770 
 602      42
 603 0804 636BC5B9 		.ascii	"ck\305\271\213\2116\033MTo\207\177\002\037=\261k1\256"
 603      8B89361B 
 603      4D546F87 
 603      7F021F3D 
 603      B16B31AE 
 604 0818 451996D2 		.ascii	"E\031\226\322\223\254Z\356?E\007\272\2558\320\315O7"
 604      93AC5AEE 
 604      3F4507BA 
 604      AD38D0CD 
 604      4F37
 605 082a 9DF0DA00 		.ascii	"\235\360\332\000\352\250\375\333\335\010\264\035\201"
 605      EAA8FDDB 
 605      DD08B41D 
 605      81
 606 0837 96A70CB4 		.ascii	"\226\247\014\264~\372Rm\365\370C\004z=\235\217\335\374"
 606      7EFA526D 
 606      F5F84304 
 606      7A3D9D8F 
 606      DDFC
 607 0849 C82BB223 		.ascii	"\310+\262#o\3025\311\237\261\254$\254\343\255e\266\322"
 607      6FC235C9 
 607      9FB1AC24 
 607      ACE3AD65 
 607      B6D2
 608 085b 671D04A0 		.ascii	"g\035\004\2403|\326\177\323\233\252:%\315\276v\326\350"
 608      337CD67F 
 608      D39BAA3A 
 608      25CDBE76 
 608      D6E8
 609 086d F66A44ED 		.ascii	"\366jD\355l\351\242\035\242~gb|\340X\214\001\234\030"
 609      6CE9A21D 
 609      A27E6762 
 609      7CE0588C 
 609      019C18
 610 0880 D1014EC5 		.ascii	"\321\001N\305\370N\027c\037\212\321\3643\210q\310\261"
 610      F84E1763 
 610      1F8AD1F4 
ARM GAS  /tmp/cc05KhpP.s 			page 48


 610      338871C8 
 610      B1
 611 0891 18830C62 		.ascii	"\030\203\014b\340\344j\2406\271\272I\230\225xrE\370"
 611      E0E46AA0 
 611      36B9BA49 
 611      98957872 
 611      45F8
 612 08a3 1C926E62 		.ascii	"\034\222nb\027\312Z\366\210\331\332\355d\263\0325zu"
 612      17CA5AF6 
 612      88D9DAED 
 612      64B31A35 
 612      7A75
 613 08b5 8F3621D5 		.ascii	"\2176!\3257r>G\356\244n*\323\0155\372R\023\006A\015"
 613      37723E47 
 613      EEA46E2A 
 613      D30D35FA 
 613      52130641 
 614 08ca ACED2781 		.ascii	"\254\355'\201\325D\327\375e\011%\367 \211\251_\377D"
 614      D544D7FD 
 614      650925F7 
 614      2089A95F 
 614      FF44
 615 08dc B8E626A7 		.ascii	"\270\346&\247\223\357\027\277\246\316\361\005:\307\205"
 615      93EF17BF 
 615      A6CEF105 
 615      3AC785
 616 08eb 2ECE91D2 		.ascii	".\316\221\322\344\373z\252r\304>\22205\303F|\316\266"
 616      E4FB7AAA 
 616      72C43E92 
 616      3035C346 
 616      7CCEB6
 617 08fe B413F858 		.ascii	"\264\023\370X\373@\233\023\370\330S\341\231\276\273"
 617      FB409B13 
 617      F8D853E1 
 617      99BEBB
 618 090d 712AFB25 		.ascii	"q*\373%>\025N\3130}*L\364 0\017\253|\325\365\251\360"
 618      3E154ECB 
 618      307D2A4C 
 618      F420300F 
 618      AB7CD5F5 
 619 0923 403F6D26 		.ascii	"@?m&\376\225\275\007\201Z\335-\264\207\275\031\222D"
 619      FE95BD07 
 619      815ADD2D 
 619      B487BD19 
 619      9244
 620 0935 6153D527 		.ascii	"aS\325'c\3028?Y<-\221\361\364\214\304,\007\254t\254"
 620      63C2383F 
 620      593C2D91 
 620      F1F48CC4 
 620      2C07AC74 
 621 094a FB6CA3EE 		.ascii	"\373l\243\356\243\035M\213E\302\337\344\331\345!\343"
 621      A31D4D8B 
 621      45C2DFE4 
 621      D9E521E3 
 622 095a CC25A6F8 		.ascii	"\314%\246\370\326~\215\250\236oP\361k-\024\377\220\025"
 622      D67E8DA8 
 622      9E6F50F1 
ARM GAS  /tmp/cc05KhpP.s 			page 49


 622      6B2D14FF 
 622      9015
 623 096c 8E246CC7 		.ascii	"\216$l\307*\347\272*~\367-\232\342\317\331R\374aS\305"
 623      2AE7BA2A 
 623      7EF72D9A 
 623      E2CFD952 
 623      FC6153C5 
 624 0980 9F4BF9D1 		.ascii	"\237K\371\321\372\323\370\243\265,\276\350\030,;\221"
 624      FAD3F8A3 
 624      B52CBEE8 
 624      182C3B91 
 625 0990 15CF19AC 		.ascii	"\025\317\031\254x\036\255xA\"\0131\027Y[\036\344m\311"
 625      781EAD78 
 625      41220B31 
 625      17595B1E 
 625      E46DC9
 626 09a3 688E9E0E 		.ascii	"h\216\236\016\260\022A\215\316\336\307\306\317cv|c\220"
 626      B012418D 
 626      CEDEC7C6 
 626      CF63767C 
 626      6390
 627 09b5 B54A96EE 		.ascii	"\265J\226\356C\225h\361\346\244c\260l\006\354\375\231"
 627      439568F1 
 627      E6A463B0 
 627      6C06ECFD 
 627      99
 628 09c6 26CB2766 		.ascii	"&\313'f\233\221\261\315\227^\250\224s\330\3565\336]"
 628      9B91B1CD 
 628      975EA894 
 628      73D8EE35 
 628      DE5D
 629 09d8 5AD6343F 		.ascii	"Z\3264?'N\306}\235k6\374\005\006\227\2572p\251Y\363"
 629      274EC67D 
 629      9D6B36FC 
 629      050697AF 
 629      3270A959 
 630 09ed DB55DD74 		.ascii	"\333U\335t\324\004\252N\340-\035g\033\265\225km\206"
 630      D404AA4E 
 630      E02D1D67 
 630      1BB5956B 
 630      6D86
 631 09ff FD160FE7 		.ascii	"\375\026\017\347\360\311\363\206\262{\2203\305\350\373"
 631      F0C9F386 
 631      B27B9033 
 631      C5E8FB
 632 0a0e 9A9BC8F0 		.ascii	"\232\233\310\360:\305Edz\267\033?\"h\23218\3425\203"
 632      3AC54564 
 632      7AB71B3F 
 632      22689A31 
 632      38E23583 
 633 0a22 23FE888E 		.ascii	"#\376\210\216x\035\035\261\023\363\311.\033\353\202"
 633      781D1DB1 
 633      13F3C92E 
 633      1BEB82
 634 0a31 352EC3CC 		.ascii	"5.\303\314<\352X\356l\316:V\315\374`|\000\330\325\315"
 634      3CEA58EE 
 634      6CCE3A56 
ARM GAS  /tmp/cc05KhpP.s 			page 50


 634      CDFC607C 
 634      00D8D5CD 
 635 0a45 86EF0DB3 		.ascii	"\206\357\015\263T/\011\352\277\331D\237\257\264\245"
 635      542F09EA 
 635      BFD9449F 
 635      AFB4A5
 636 0a54 AB66C788 		.ascii	"\253f\307\210\2547_\230\311\314\006\276\260\003\367"
 636      AC375F98 
 636      C9CC06BE 
 636      B003F7
 637 0a63 900941B3 		.ascii	"\220\011A\263\217q\255R\026\247\243\231\376\202\006"
 637      8F71AD52 
 637      16A7A399 
 637      FE8206
 638 0a72 9A89791D 		.ascii	"\232\211y\035\346s0_\217\371F\3147a\376>\346\2731\337"
 638      E673305F 
 638      8FF946CC 
 638      3761FE3E 
 638      E6BB31DF 
 639 0a86 8BF941CC 		.ascii	"\213\371A\314\3330\377\032\363\3571\277\202y;\346\323"
 639      DB30FF1A 
 639      F3EF31BF 
 639      82793BE6 
 639      D3
 640 0a97 5C249F9E 		.ascii	"\\$\237\236\314\001\350(\260`c\313\255o`\254\236\212"
 640      CC01E828 
 640      B06063CB 
 640      AD6F60AC 
 640      9E8A
 641 0aa9 EEBF3893 		.ascii	"\356\2778\223\367\274\027$n)\251\313R\350\232L\033K"
 641      F7BC1724 
 641      6E29A9CB 
 641      52E89A4C 
 641      1B4B
 642 0abb CA0956FD 		.ascii	"\312\011V\375:\016\355;\"\316V\325\335\2034\377\227"
 642      3A0EED3B 
 642      22CE56D5 
 642      DD8334FF 
 642      97
 643 0acc C50E4962 		.ascii	"\305\016Ib\021\331\036\223\300\033\251Q\217%x\307 {"
 643      11D91E93 
 643      C01BA951 
 643      8F2578C7 
 643      207B
 644 0ade 95D5A25E 		.ascii	"\225\325\242^l\237\371\370]\332>\363,\354\215\0338\235"
 644      6C9FF9F8 
 644      5DDA3EF3 
 644      2CEC8D1B 
 644      389D
 645 0af0 24C5215A 		.ascii	"$\305!Z\232\343\342\366\231\327\256n\324\366\231\311"
 645      9AE3E2F6 
 645      99D7AE6E 
 645      D4F699C9 
 646 0b00 37C9F799 		.ascii	"7\311\367\231\327\257n\224\346\253\321\032}\2379\321"
 646      D7AF6E94 
 646      E6ABD11A 
 646      7D9F39D1 
ARM GAS  /tmp/cc05KhpP.s 			page 51


 647 0b10 960CF431 		.ascii	"\226\014\3641|@O\276k\262\003E!\014\314p\222\007\313"
 647      7C404FBE 
 647      6BB20345 
 647      210CCC70 
 647      9207CB
 648 0b23 8DABCF8A 		.ascii	"\215\253\317\212\310J\3374\331\351\030\260\027#\346"
 648      C84ADF34 
 648      D9E918B0 
 648      1723E6
 649 0b32 265D4C59 		.ascii	"&]LY\234\357\"\225\0168\006d-\277\205g\370\211c\300"
 649      9CEF2295 
 649      0E380664 
 649      2DBF8567 
 649      F88963C0 
 650 0b46 410CC3F7 		.ascii	"A\014\303\367y\206\307\355\000&\030!\266\361\014\333"
 650      7986C7ED 
 650      00261821 
 650      B6F10CDB 
 651 0b56 1C03B23A 		.ascii	"\034\003\262:l\346\031~\343\030\220\325\341!\236\341"
 651      6CE6197E 
 651      E31890D5 
 651      E1219EE1 
 652 0b66 39C780AC 		.ascii	"9\307\200\254\016\017\363\014\333\355\000&X\024;\302"
 652      0E0FF30C 
 652      DBED0026 
 652      58143BC2 
 653 0b76 33BCE118 		.ascii	"3\274\341\030\220\325a\013\317pZ\226S@V\207Gy\206/:"
 653      90D5610B 
 653      CF705A96 
 653      53405687 
 653      4779862F 
 654 0b8b 06647578 		.ascii	"\006dux\214g\270\300\016`\242\2654\236a\203c@V\207\027"
 654      8C67B8C0 
 654      0E60A2B5 
 654      349E6183 
 654      63405687 
 655 0ba0 7886AB1D 		.ascii	"x\206\253\035\003\262:\274\3043|\3331 \253\303\313<"
 655      03B23ABC 
 655      C4337CDB 
 655      3120ABC3 
 655      CB3C
 656 0bb2 C3F7EC00 		.ascii	"\303\367\354\000f[\353\360*\317p\207c@~\023\331\360"
 656      665BEBF0 
 656      2ACF7087 
 656      63407E13 
 656      D9F0
 657 0bc4 318E22B2 		.ascii	"1\216\"\2628\327Eb\374<\034\336\027b\276\030\363\245"
 657      38D74562 
 657      FC3C1CDE 
 657      1762BE18 
 657      F3A5
 658 0bd6 983760FE 		.ascii	"\2307`\3762\346\257`\376\032\346\2530_\215\371\033\230"
 658      32E6AF60 
 658      FE1AE6AB 
 658      305F8DF9 
 658      1B98
 659 0be8 BF89F95B 		.ascii	"\277\211\371[\230\277\215\371;\230o\300\374]\3147\333"
ARM GAS  /tmp/cc05KhpP.s 			page 52


 659      98BF8DF9 
 659      3B986FC0 
 659      FC5DCC37 
 659      DB
 660 0bf9 993FD61B 		.ascii	"\231?\326\033\347\217\037g\331\230\004$X+\354\230}\354"
 660      E78F1F67 
 660      D9980424 
 660      582BEC98 
 660      7DEC
 661 0c0b B4387B8A 		.ascii	"\2648{\212j>{nH\372^`k\363\251\355\367\223Q;\371\273"
 661      6A3E7B6E 
 661      48FA5E60 
 661      6BF3A9ED 
 661      F793513B 
 662 0c21 815197BD 		.ascii	"\201Q\227\275w\003w\360C\370\354}\370n\340\216\344\003"
 662      770377F0 
 662      43F8EC7D 
 662      F86EE08E 
 662      E403
 663 0c33 38B8C69C 		.ascii	"8\270\306\234\224\236\222bS\220S\267jS\220\2358\005"
 663      949E9262 
 663      539053B7 
 663      6A53909D 
 663      3805
 664 0c45 99D73DE9 		.ascii	"\231\327=\351^9\213\203\373\376<\377\353\027\351\253"
 664      5E398B83 
 664      FBFE3CFF 
 664      EB17E9AB 
 665 0c55 6E8DB6A6 		.ascii	"n\215\266\246 \365\227\350\253n\372[=\177E\026\215\256"
 665      20F597E8 
 665      AB6EFA5B 
 665      3D7F4516 
 665      8DAE
 666 0c67 941ECC01 		.ascii	"\224\036\314\001p\326%\346%\2415\216\341\262\031\270"
 666      70D625E6 
 666      25A1358E 
 666      E1B219B8 
 667 0c77 9758B8F5 		.ascii	"\227X\270\365v\340\022\274\2575\227\205\333\354\030"
 667      76E012BC 
 667      AF359785 
 667      DBEC18
 668 0c86 2EDB4C97 		.ascii	".\333L\227B\027c\310\342\036\354\311M\330\323\366b\276"
 668      421763C8 
 668      E21EECC9 
 668      4DD8D3F6 
 668      62BE
 669 0c98 1FF3663B 		.ascii	"\037\363f;\275\356#c\257\333\206$w\244f\021\350u\315"
 669      BDEE2363 
 669      AFDB8624 
 669      77A46611 
 669      E875CD
 670 0cab A75A8669 		.ascii	"\247Z\206i\333U\334\3763\321\201\025\203\303F\006\273"
 670      DB55DCFE 
 670      33D18115 
 670      83C34606 
 670      BB
 671 0cbc 1C33C836 		.ascii	"\0343\31062\210.\330\267\230\276]\254\355\253|\314\343"
ARM GAS  /tmp/cc05KhpP.s 			page 53


 671      32882ED8 
 671      B798BE5D 
 671      ACEDAB7C 
 671      CCE3
 672 0cce 99AD7227 		.ascii	"\231\255r'\230]-\336\227\371\326\023:\330!\307`\351"
 672      985D2DDE 
 672      97F9D613 
 672      3AD821C7 
 672      60E9
 673 0ce0 0CD85223 		.ascii	"\014\330R#\3301\307`V\357\007}\200\366\377\020m\376"
 673      D831C760 
 673      56EF077D 
 673      80F6FF10 
 673      6DFE
 674 0cf2 09E64730 		.ascii	"\011\346G0o\301\374\250\321\013$\341\357\\\327\327\343"
 674      6FC1FCA8 
 674      D10B24E1 
 674      EF5CD7D7 
 674      E3
 675 0d03 8F01351E 		.ascii	"\217\0015\036\250\004\273\270V\266\335j\264\355\325"
 675      A804BBB8 
 675      56B6DD6A 
 675      B4EDD5
 676 0d12 EE36627A 		.ascii	"\3566bz\266\265wu\314>Ac\272\006,\011\327\035#\262\336"
 676      B6B57775 
 676      CC3E4163 
 676      BA062C09 
 676      D71D23B2 
 677 0d27 32E7C452 		.ascii	"2\347\304R\372\260\336\206\235tJ\017\033x\226\353l\340"
 677      FAB0DE86 
 677      9D744A0F 
 677      1B7896EB 
 677      6CE0
 678 0d39 2D27705D 		.ascii	"-'p]L\003\233\341\030,[\260\374\030\337\272\207N\213"
 678      4C039BE1 
 678      182C5BB0 
 678      FC18DFBA 
 678      874E8B
 679 0d4c CF673BF1 		.ascii	"\317g;\361\235\255\335\230O\301\207\365\027\3212u\230"
 679      9DADDD98 
 679      4FC187F5 
 679      17D13275 
 679      98
 680 0d5d BF8FF909 		.ascii	"\277\217\371\011\314\3330?i\307b\321\370\333])\276\206"
 680      CCDB303F 
 680      69C762D1 
 680      F8DB5D29 
 680      BE86
 681 0d6f 7ECA65F2 		.ascii	"~\312e\362\032z\354\202\356E$}-\035\327\270\343\336"
 681      1A7AEC82 
 681      EE45247D 
 681      2D1DD7B8 
 681      E3DE
 682 0d81 D35F58AA 		.ascii	"\323_X\252F\317\267\236\270x\341\356%$\300\2507:\237"
 682      46CFB79E 
 682      B878E1EE 
 682      2524C0A8 
ARM GAS  /tmp/cc05KhpP.s 			page 54


 682      373A9F
 683 0d94 11B5B624 		.ascii	"\021\265\266$\341\213\036\254O\337!\254P\325Y\352\021"
 683      E18B1EAC 
 683      4FDF21AC 
 683      50D559EA 
 683      11
 684 0da5 65A4D638 		.ascii	"e\244\3268\270\036\2268\353\352o\332\026\225\232V\233"
 684      B81E9638 
 684      EBEA6FDA 
 684      16959A56 
 684      9B
 685 0db6 B333AB2E 		.ascii	"\2633\253.\346\021?&\251H\305\3717\341U\242\235-\352"
 685      E6113F26 
 685      A948C5F9 
 685      37E155A2 
 685      9D2DEA
 686 0dc9 98BEA81B 		.ascii	"\230\276\250\033\201Vb,\370\265\213\371a\227&Rt\376"
 686      8156622C 
 686      F8B58BF9 
 686      61972652 
 686      74FE
 687 0ddb 9EACBAC9 		.ascii	"\236\254\272\311\255\235\235\375uijz&\226F\026\377\341"
 687      AD9D9DFD 
 687      75696A7A 
 687      26964616 
 687      FFE1
 688 0ded 22EB19E7 		.ascii	"\"\353\031\347\235J#\213\347\222TL \315y^\232\013&\322"
 688      9D4A238B 
 688      E792544C 
 688      20CD795E 
 688      9A0B26D2 
 689 0e01 B4462F2D 		.ascii	"\264F/-j\232\014\303\236\372#Y!\260\3573W\250\317\304"
 689      6A9A0CC3 
 689      9EFA2359 
 689      21B0EF33 
 689      57A8CFC4 
 690 0e15 DD421296 		.ascii	"\335B\022\226pz\240\274\352Tu\225\352\212\361\272\314"
 690      707AA0BC 
 690      EA547595 
 690      EA8AF1BA 
 690      CC
 691 0e26 F3BADA95 		.ascii	"\363\272\332\225WCk\364b\023\325\262}N\327L8\2555\347"
 691      57436BF4 
 691      6213D5B2 
 691      7D4ED74C 
 691      38AD35E7 
 692 0e3a A4B29C7E 		.ascii	"\244\262\234~\3409u\230r:x(fy\362\213\012I\330jn\371"
 692      E0397598 
 692      723A7828 
 692      6679F28B 
 692      0A49D86A 
 693 0e50 CE62CEF2 		.ascii	"\316b\316\362\327\023[>Fj\206\372l/1\306\352:\317\352"
 693      D7135B3E 
 693      466A86FA 
 693      6C2F31C6 
 693      EA3ACFEA 
 694 0e64 86B9A68E 		.ascii	"\206\271\246\216j\254\226=\244\323\372\330\234\326u"
ARM GAS  /tmp/cc05KhpP.s 			page 55


 694      6AAC963D 
 694      A4D3FAD8 
 694      9CD675
 695 0e73 9ED66477 		.ascii	"\236\326dw*\264H-\206V\215\333\214\026\011\255\214\262"
 695      2AB4482D 
 695      86568DDB 
 695      8C1609AD 
 695      8CB2
 696 0e85 5ACC59D5 		.ascii	"Z\314Y\325\363\335\344\331\224X=\313\263\2525e\365)"
 696      F3DDE4D9 
 696      94583DCB 
 696      B3AA3565 
 696      F529
 697 0e97 CFEA8C39 		.ascii	"\317\352\2149\2539<\253\347Sb\365<\317j\272)\253\271"
 697      AB393CAB 
 697      E75362F5 
 697      3CCF6ABA 
 697      29ABB9
 698 0eaa 5FEE4EA1 		.ascii	"_\356N\241\017\316t[\307m\373\233\321\227:\333~\263"
 698      0FCE745B 
 698      C76DFB9B 
 698      D1973ADB 
 698      7EB3
 699 0ebc 065780EB 		.ascii	"\006W\200\353\361\247ro\364\342\347\033\036n3\332\303"
 699      F1A7726F 
 699      F4E2E71B 
 699      1E6E33DA 
 699      C3
 700 0ecd 2E337A32 		.ascii	".3z2\342'\361\037\2030\343\205$\254\353e\246f\030\036"
 700      E227F11F 
 700      8330E385 
 700      24ACEB65 
 700      A666181E 
 701 0ee1 5AA68993 		.ascii	"Z\246\211\223_\257UI\3103\252{FbuS+m!V\322h\357\300"
 701      5FAF5549 
 701      C833AA7B 
 701      46627553 
 701      2B6D2156 
 702 0ef9 06ACABD5 		.ascii	"\006\254\253\325\273\215\221\222\265\322\014\336J/\231"
 702      BB8D9192 
 702      B5D20CDE 
 702      4A2F99
 703 0f08 5AA9EE64 		.ascii	"Z\251\356d*VZ\230\300J1Z\261\353\274L\346R{\215\223"
 703      2A565A98 
 703      C04A315A 
 703      B1EBBC4C 
 703      E6527B8D 
 704 0f1d D3E587A6 		.ascii	"\323\345\207\246\272\354\352\262\013l\351p\233\256C"
 704      BAECEAB2 
 704      0B6CE970 
 704      9BAE43
 705 0f2c 599CE74E 		.ascii	"Y\234\347N\\\015\311j\325\242\263O~\346\206\207C7R\226"
 705      5C0DC96A 
 705      D5A2B34F 
 705      7EE68687 
 705      43375296 
 706 0f40 84C3C8C9 		.ascii	"\204\303\310\311\272j^\274\301f\322 \356\265\034MR\351"
ARM GAS  /tmp/cc05KhpP.s 			page 56


 706      BA6A5EBC 
 706      C166D220 
 706      EEB51C4D 
 706      52E9
 707 0f52 4143C78A 		.ascii	"AC\307\212\326\237\0344\375\211\230\311\026\360&[fj"
 707      D69F1C34 
 707      FD8998C9 
 707      16F0265B 
 707      666A
 708 0f64 B2F6944C 		.ascii	"\262\366\224L\266*\005\223q6j3\267Q\227\020\274\322"
 708      B62A0593 
 708      71366A33 
 708      B7519710 
 708      BCD2
 709 0f76 968D36F2 		.ascii	"\226\2156\3626\262\256f\260\221z\231T\313#\215\255H"
 709      36B2AE66 
 709      B0917A99 
 709      54CB238D 
 709      AD48
 710 0f88 522BCF3A 		.ascii	"R+\317:\204\255\3445\375\206\251\246\217\237JE\323o"
 710      84ADE435 
 710      FD86A9A6 
 710      8F9F4A45 
 710      D36F
 711 0f9a 3BD2B469 		.ascii	";\322\264io8"
 711      6F38
 712 0fa0 67AEE9D9 		.ascii	"g\256\351\331|oXkK\323\357\363\232\266\256f\324\364"
 712      7C6F586B 
 712      4BD3EFF3 
 712      9AB6AE66 
 712      D4F4
 713 0fb2 09EAD3B2 		.ascii	"\011\352\323\262\370j\222Z\017Zkz-\257\351\015\246\232"
 713      F86A925A 
 713      0F5A6B7A 
 713      2DAFE90D 
 713      A69A
 714 0fc4 3E74FA80 		.ascii	">t\372\200H\226e\324\316\316gxU\267'xl\177/\241\256"
 714      489665D4 
 714      CECE6778 
 714      55B72778 
 714      6C7F2FA1 
 715 0fd9 DB4DA6F9 		.ascii	"\333M\246\371\222p\303\\\271[x\345n\261\245\334\037"
 715      9270C35C 
 715      B95B78E5 
 715      6EB1A5DC 
 715      1F
 716 0fea E401FA3A 		.ascii	"\344\001\372:\351\334\336\"[\215\333\320j7Llk\324\365"
 716      E9DCDE22 
 716      5B8DDBD0 
 716      6A374C6C 
 716      6BD4F5
 717 0ffd AD6306   		.ascii	"\255c\006"
 718 1000 E8F7AC6B 		.ascii	"\350\367\254kQ9\267u\325Zk]\353\017\253\257\375\347"
 718      5139B775 
 718      D55A6B5D 
 718      EB0FABAF 
 718      FDE7
ARM GAS  /tmp/cc05KhpP.s 			page 57


 719 1012 FCB7D5A9 		.ascii	"\374\267\325\251\332\203\210}\017\375\210\327\332f)"
 719      DA83887D 
 719      0FFD88D7 
 719      DA6629
 720 1021 93D7D281 		.ascii	"\223\327\322\201\336\374$S+\272\313\224\311\374\215"
 720      DEFC2453 
 720      2BBACB94 
 720      C9FC8D
 721 1030 171E58A0 		.ascii	"\027\036X\240\3560\265_\002\"\215,\021n\275\206\354"
 721      EE30B55F 
 721      02228D2C 
 721      116EBD86 
 721      EC
 722 1041 DE5AD56C 		.ascii	"\336Z\325lr\307\236\312bR\25445\367\347\026\202\354"
 722      72C79ECA 
 722      6252AC34 
 722      35F7E716 
 722      82EC
 723 1053 3515E4ED 		.ascii	"5\025\344\355\231\307\3341A\364\371\324i\013\210\375"
 723      99C7DC31 
 723      41F4F9D4 
 723      690B88FD 
 724 1063 A610074E 		.ascii	"\246\020\007N\265\004\315u\221.<\247\375\235\200:Y|"
 724      B504CD75 
 724      912E3CA7 
 724      FD9D803A 
 724      597C
 725 1075 CAB03C63 		.ascii	"\312\260<cXr1\376[\306Aw:4~\2717\373\216\253\241}R\200"
 725      587231FE 
 725      5BC64177 
 725      3A347EB9 
 725      37FB8EAB 
 726 108d 7C487DED 		.ascii	"|H}\355\\?K\360\356r3o|\262\212\301?\031\233\031\304"
 726      5C3F4BF0 
 726      EE72336F 
 726      7CB28AC1 
 726      3F199B19 
 727 10a2 BE595BF8 		.ascii	"\276Y[\370&\036L\341\331\233\276Brh&\376$\37437\031"
 727      261E4CE1 
 727      D99BBE42 
 727      726826FE 
 727      24FC3337 
 728 10b7 5C3B3843 		.ascii	"\\;8C\360\277bt[\377$\374\270\333\372W\214]\277K\034"
 728      F0BF6274 
 728      5BFF24FC 
 728      B8DBFA57 
 728      8C5DBF4B 
 729 10cc 9EA7F731 		.ascii	"\236\247\3671\367\207V3\177\210n[\370B?uyM\264\263\363"
 729      F7875633 
 729      7F886E5B 
 729      F8423F75 
 729      794DB4B3 
 730 10e1 41075DE3 		.ascii	"A\007]\343K33q<\026[\360\370;\313\343va\271\332z\000"
 730      4B333371 
 730      3C165BF0 
 730      F83BCBE3 
 730      7661B9DA 
ARM GAS  /tmp/cc05KhpP.s 			page 58


 731 10f7 E6A53FDC 		.ascii	"\346\245?\334\262\250\206,[\250\355\235b\247K\377\013"
 731      B2A8862C 
 731      5BA8ED9D 
 731      62A74BFF 
 731      0B
 732 1108 86BFC550 		.ascii	"\206\277\305P(\027\366\017\027p5%\016H\300\242\007\243"
 732      2817F60F 
 732      17703525 
 732      0E48C0A2 
 732      07A3
 733 111a 2776BDD4 		.ascii	"'v\275\324Wm\230\254B\344\351\024\365\000\270\216G\342"
 733      576D98AC 
 733      42E4E914 
 733      F500B88E 
 733      47E2
 734 112c 42992C9E 		.ascii	"B\231,\236a\201\316\223-\216\266\222\306\032\022\303"
 734      6181CE93 
 734      2D8EB692 
 734      C61A12C3 
 735 113c 3456FA5F 		.ascii	"4V\372_\313\020{n\213\257K6xt\250\261X\333Xl\273u1Y"
 735      CB107B6E 
 735      8BAF4B36 
 735      7874A8B1 
 735      58DB586C 
 736 1154 FCC6EDF4 		.ascii	"\374\306\355\364\317a\376\3416\377s\2304F\307z)\020"
 736      CF61FEE1 
 736      36FF7398 
 736      3446C77A 
 736      2910
 737 1166 6D0B2F76 		.ascii	"m\013/vW\026\337\362\012\004kl\357\377\372[\252\372"
 737      5716DFF2 
 737      0A046B6C 
 737      EFFFFA5B 
 737      AAFA
 738 1178 6CCC1A9A 		.ascii	"l\314\032\232\016\367%\325\341wq,\316\377?J\340\377"
 738      0EF725D5 
 738      E177712C 
 738      CEFF3F4A 
 738      E0FF
 739 118a E7DDFC32 		.ascii	"\347\335\3742\326\261\015_?\371\206\276\2145y\252\250"
 739      D6B10D5F 
 739      3FF986BE 
 739      8C3579AA 
 739      A8
 740 119b D507EFBE 		.ascii	"\325\007\357\276\311t|\334D\306\307\315\370B\315\\,"
 740      C9747CDC 
 740      44C6C7CD 
 740      F842CD5C 
 740      2C
 741 11ac 71C1727C 		.ascii	"q\301r|\244?\217\240\023\202\026\343\012\316\005~>p"
 741      A43F8FA0 
 741      138216E3 
 741      0ACE057E 
 741      3E70
 742 11be 91F5D598 		.ascii	"\221\365\325\230DQ\224h\247\305\032<\267i\300\325\262"
 742      44519468 
 742      A7C51A3C 
ARM GAS  /tmp/cc05KhpP.s 			page 59


 742      B769C0D5 
 742      B2
 743 11cf B9D06FEB 		.ascii	"\271\320o\353g\";\360\005\247$/\262s\355;\370k\012\233"
 743      67223BF0 
 743      05A7242F 
 743      B273ED3B 
 743      F86B0A9B 
 744 11e3 3565F110 		.ascii	"5e\361\020\256\266r\265i/hxh~\017\355G+V>\323\341\270"
 744      AEB672B5 
 744      692F6878 
 744      687E0FED 
 744      472B563E 
 745 11fa 17FC68D1 		.ascii	"\027\374h\321\013\364\301(\376\027PL\313\303\364r^\212"
 745      0BF4C128 
 745      FE17504C 
 745      CBC3F472 
 745      5E8A
 746 120c 739DB66C 		.ascii	"s\235\266l\3501\234\3276&\360\332\033\274\327F?\375"
 746      E8319CD7 
 746      3626F0DA 
 746      1BBCD746 
 746      3FFD
 747 121e 5A9F934F 		.ascii	"Z\237\223O\231&\321)\204$,1\367Y|Xh\302\241c\015\226"
 747      9926D129 
 747      84242C31 
 747      F7597C58 
 747      68C2A163 
 748 1234 E8B4F459 		.ascii	"\350\264\364Y\234P`\265:u\221\266\\\251\275\246\272"
 748      9C5060B5 
 748      3A7591B6 
 748      5CA9BDA6 
 748      BA
 749 1245 2E49C595 		.ascii	".I\305\225\314r%\343\354\235\274\263\253\036\306\331"
 749      CC7225E3 
 749      EC9DBCB3 
 749      AB1EC6D9 
 750 1255 4D763CA3 		.ascii	"Mv<\243\261\227\256\310\242|l\347t\357\277k;\247\265"
 750      B197AEC8 
 750      A27C6CE7 
 750      74EFBF6B 
 750      3BA7B5
 751 1268 1E12B137 		.ascii	"\036\022\2617r\322&\305\301e\033\017\267s\332\262\202"
 751      72D226C5 
 751      C1651B0F 
 751      B773DAB2 
 751      82
 752 1279 BEBC45BE 		.ascii	"\276\274E\276\021,\006G!\376\256\306\212Fv\347\364\003"
 752      112C0647 
 752      21FEAEC6 
 752      8A4676E7 
 752      F403
 753 128b 64412A9B 		.ascii	"dA*\233)&\3467\272\023u\331\233<\276\242\321\2707\271"
 753      2926E637 
 753      BA1375D9 
 753      9B3CBEA2 
 753      D1B837B9 
 754 129f D3315C36 		.ascii	"\3231\\6\003w\236\205k\262\003\227`\347\364\"\013\267"
ARM GAS  /tmp/cc05KhpP.s 			page 60


 754      03779E85 
 754      6BB20397 
 754      60E7F422 
 754      0BB7
 755 12b1 DF311CCB 		.ascii	"\3371\034\313\356{\026\3563;p\011\376\351\342\012\013"
 755      EE7B16EE 
 755      333B7009 
 755      FEE9E20A 
 755      0B
 756 12c2 D7E6188E 		.ascii	"\327\346\030\216e\327\316\302\235\261\003g\365\026\016"
 756      65D7CEC2 
 756      9DB10367 
 756      F5160E
 757 12d1 C05D63E1 		.ascii	"\300]c\341\316;\206c\331\375\310\302\265\333\201\313"
 757      CE3B8663 
 757      D9FDC8C2 
 757      B5DB81CB 
 758 12e1 B6667783 		.ascii	"\266fw\203\205\273\356\030.\333\254\227h\037c7\223\305"
 758      85BBEE18 
 758      2EDBAC97 
 758      681F6337 
 758      93C5
 759 12f3 E91E7C39 		.ascii	"\351\036|9\326C\366\275f`\376\"\346\365\230\317\306"
 759      D643F6BD 
 759      6660FE22 
 759      E6F598CF 
 759      C6
 760 1304 7C0EE6F3 		.ascii	"|\016\346\3630_\200\371\"\314\227x\014\373d\\\304\254"
 760      305F80F9 
 760      22CC9778 
 760      0CFB645C 
 760      C4AC
 761 1316 B5208B6B 		.ascii	"\265 \213kF\036\363\255\263\304\317\321\015\226\265"
 761      461EF3AD 
 761      B3C4CFD1 
 761      0D96B5
 762 1325 C83B4556 		.ascii	"\310;EV\265\226[\326jN\020\323_\366\360#\260Z\033\375"
 762      B5965BD6 
 762      6A4E10D3 
 762      5FF6F023 
 762      B05A1BFD 
 763 1339 C9EF8172 		.ascii	"\311\357\201r\004\276L@\340\025K\332d\007\310\252\326"
 763      04BE4C40 
 763      E0154BDA 
 763      6407C8AA 
 763      D6
 764 134a AB26B5A2 		.ascii	"\253&\265\242N\377<\305fMY\274\204B\363\177\275\342"
 764      4EFF3CC5 
 764      664D59BC 
 764      8442F37F 
 764      BDE2
 765 135c 0E94C8A1 		.ascii	"\016\224\310\241\2219%\025eJN\240\242xRN\26121'P\022"
 765      91392515 
 765      654A4EA0 
 765      A278524E 
 765      B1323127 
 766 1372 1C17AC08 		.ascii	"\034\027\254\010\347DBU\345O\346\300I(\222SY\021\212"
ARM GAS  /tmp/cc05KhpP.s 			page 61


 766      E7444255 
 766      E54FE6C0 
 766      49289253 
 766      59118A
 767 1385 8473F27C 		.ascii	"\204s\362|\243\362GUC\311\262\312`\251\022\012\347<"
 767      A3F24755 
 767      43C9B2CA 
 767      60A9120A 
 767      E73C
 768 1397 929F0FC5 		.ascii	"\222\237\017\305#\223*\225\360\300\022\301S\026\236"
 768      23932A95 
 768      F0C012C1 
 768      53169E
 769 13a6 E08FA43D 		.ascii	"\340\217\244=2\372\361\354|\341\216\234\252p(G\016\225"
 769      32FAF1EC 
 769      7CE18E9C 
 769      AA702847 
 769      0E95
 770 13b8 DD535E51 		.ascii	"\335S^Q\256\334\243\310\343\2029\301\362@iU\261\222"
 770      AEDCA3C8 
 770      E38239C1 
 770      F2406955 
 770      B192
 771 13ca 138E1407 		.ascii	"\023\216\024\007\313#P\303\013\207!\203\375\221\241"
 771      CB2350C3 
 771      0B872183 
 771      FD91A1
 772 13d9 090A97C9 		.ascii	"\011\012\227\311@\250\\\311\361\027+\343\345\252\322"
 772      40A85CC9 
 772      F1172BE3 
 772      E5AAD2
 773 13e8 885F6F2E 		.ascii	"\210_o.\303\357\247\325\007'\223\240D.\2157^\031\204"
 773      C3EFA7D5 
 773      072793A0 
 773      442E8D37 
 773      5E1984
 774 13fb CADDE010 		.ascii	"\312\335\340\020\216\310\021\305\037\351V4\246\320\377"
 774      8EC811C5 
 774      1FE95634 
 774      A6D0FF
 775 140a F8E8C2D1 		.ascii	"\370\350\302\321\205c\323\311i\321\330\307\306d\220"
 775      8563D3C9 
 775      69D1D8C7 
 775      C66490
 776 1419 13DF88BC 		.ascii	"\023\337\210\274\202\377\306o\363\362\307\026\376aD"
 776      82FFC66F 
 776      F3F2C716 
 776      FE6144
 777 1428 1639CD7F 		.ascii	"\0269\315\177l\324\230GG\214\035Q`\247MMmEcG\015\031"
 777      6CD49847 
 777      478C1D51 
 777      60A74D4D 
 777      6D456347 
 778 143e 9CF3E8A3 		.ascii	"\234\363\350\243\0059\00001\2270\360\227\226\026\023"
 778      05390030 
 778      319730F0 
 778      97961613 
ARM GAS  /tmp/cc05KhpP.s 			page 62


 779 144e 11E04641 		.ascii	"\021\340FA(8Q\011y\220Lw\370* \227\226\216\223\003O"
 779      28385109 
 779      79904C77 
 779      F82A2097 
 779      968E9303 
 780 1463 822695F2 		.ascii	"\202&\225\362b\177`\334\375\311ZR\252#9\371\243\212"
 780      627F60DC 
 780      FDC95A52 
 780      AA2339F9 
 780      A38A
 781 1475 0A8BA025 		.ascii	"\012\213\240%\320m\331\220\301\343s\007U\003|\326#c"
 781      D06DD990 
 781      C1E37307 
 781      55037CD6 
 781      2363
 782 1487 0A1FF38F 		.ascii	"\012\037\363\217\005}\025(\343\323\253\250\266\272\371"
 782      057D1528 
 782      E3D3ABA8 
 782      B6BAF9
 783 1496 FDFAA92B 		.ascii	"\375\372\251+\337\367(\244\221\256\302\002\237\353\261"
 783      DFF728A4 
 783      91AEC202 
 783      9FEBB1
 784 14a5 029F7B78 		.ascii	"\002\237{x\221\317\347\032\356\363\271\037\315\377\235"
 784      91CFE71A 
 784      EEF3B91F 
 784      CDFF9D
 785 14b4 6F442A22 		.ascii	"oD*\"\222&A\306J\271\224\312\330-XA\312\004\213A\240"
 785      922641C6 
 785      4AB994CA 
 785      D82D5841 
 785      CA048B41 
 786 14c9 70989C22 		.ascii	"p\230\234\"\223\334{cL\310\251\007\276\222\213]\201"
 786      93DC7B63 
 786      4CC8A907 
 786      BE928B5D 
 786      81
 787 14da 502ED149 		.ascii	"P.\321I~E\371\370\340\204\264\000\036\206\331\360O\335"
 787      7E45F9F8 
 787      E084B400 
 787      1E86D9F0 
 787      4FDD
 788 14ec B88192F0 		.ascii	"\270\201\222\360\244\260\356 \351\221\222\220\"C\273"
 788      A4B0EE20 
 788      E9919290 
 788      2243BB
 789 14fb 198112BF 		.ascii	"\031\201\022\277v>\324\031V\240\204H\220V\351/\007\035"
 789      763ED419 
 789      56A08448 
 789      9056E92F 
 789      071D
 790 150d C3A132A4 		.ascii	"\303\2412\244L\364F*C\301\012\277v\031\254\360\002\311"
 790      4CF4462A 
 790      43C10ABF 
 790      7619ACF0 
 790      02C9
 791 151f 087C9BD4 		.ascii	"\010|\233\324J]zQI\240\"\244\000|&\271M\\9\020\251\376"
ARM GAS  /tmp/cc05KhpP.s 			page 63


 791      4A5D7A51 
 791      49A022A4 
 791      007C26B9 
 791      4D5C3910 
 792 1535 AFD450FC 		.ascii	"\257\324P\374\023\357+#\002\207\224\011\320\211\374"
 792      13EF2B23 
 792      02879409 
 792      D089FC
 793 1544 11293454 		.ascii	"\021)4T\012\375Z\012\335+\205\356\223B\303\244\320\375"
 793      0AFD5A0A 
 793      DD2B85EE 
 793      9342C3A4 
 793      D0FD
 794 1556 AE50EE20 		.ascii	"\256P\356 H\271Ri\010\016C<\225~h\315K\004{Z\011\301"
 794      48B95269 
 794      080E433C 
 794      957E68CD 
 794      4B047B5A 
 795 156c B1A2B458 		.ascii	"\261\242\264X\011\021A\3452%=B{\206\227Xg\030\350O\263"
 795      091141E5 
 795      32253D42 
 795      7B869758 
 795      6718E84F 
 796 1581 139C4149 		.ascii	"\023\234AI\374\316\033)\253(V\360z|\251<!\354\215\204"
 796      FCCE1B29 
 796      AB2856F0 
 796      7A7CA93C 
 796      21EC8D84 
 797 1595 94F16154 		.ascii	"\224\361aT\0129I\013\025O\202`\220\256T\007# \213\222"
 797      0A39490B 
 797      154F8260 
 797      90AE5407 
 797      23208B92 
 798 15a9 F674A462 		.ascii	"\366t\244b\334\237*3\225\211Jy\244L\016\243s?MN\\\225"
 798      DC9F2A33 
 798      95894A79 
 798      A44C0EA3 
 798      733F4D4E 
 799 15bf FEAA1E9A 		.ascii	"\376\252\036\232m\302\376R\350\222\376H\317\230\265"
 799      6DC2FE52 
 799      E892FE48 
 799      CF98B5
 800 15ce B43B1995 		.ascii	"\264;\031\225\376\247\345`$X>\241\247~\373\251*\245"
 800      FEA7E560 
 800      24583EA1 
 800      A77EFBA9 
 800      2AA5
 801 15e0 0A5AEF65 		.ascii	"\012Z\357e(\211\267\272U\372\241Y<\365\340)\334P*\241"
 801      2889B7BA 
 801      55FAA159 
 801      3CF5E029 
 801      DC502AA1 
 802 15f4 1B41654F 		.ascii	"\033AeOY\025\330i\210#\007(\213\220n\344-\323\320\341"
 802      5915D869 
 802      88230728 
 802      8B906EE4 
 802      2DD3D0E1 
ARM GAS  /tmp/cc05KhpP.s 			page 64


 803 1608 58F17439 		.ascii	"X\361t9\250\013\221@\2042\364\013\340\007\345\010\323"
 803      A80B9140 
 803      8432F40B 
 803      E007E508 
 803      D3
 804 1619 6E447AB9 		.ascii	"nDz\271\024\335\002nVVT\224\336\347\250=*\014\264\331"
 804      14DD026E 
 804      56565494 
 804      DEE7A83D 
 804      2A0CB4D9 
 805 162d 87FA2E68 		.ascii	"\207\372.hS\011)\345\001\2206M\273\225I\242\020\355"
 805      530929E5 
 805      0190364D 
 805      BB9549A2 
 805      10ED
 806 163f D3D07773 		.ascii	"\323\320ws3|#\212F\370\3760\242`\020\\\015\216]\345"
 806      337C238A 
 806      46F8FE30 
 806      A260105C 
 806      0D8E5DE5 
 807 1653 4A45BED8 		.ascii	"JE\276\330\305`\251 ~1\304\223\357\313\037\023\277\036"
 807      C560A920 
 807      7E31C493 
 807      EFCB1F13 
 807      BF1E
 808 1665 9AE6FB23 		.ascii	"\232\346\373#\334\211\337\370u\332X\366\306\275\336"
 808      DC89DFF8 
 808      75DA58F6 
 808      C6BDDE
 809 1674 C2C145F9 		.ascii	"\302\301E\371\017?\022\277s\237\007\356\0300\206\271"
 809      0F3F12BF 
 809      739F07EE 
 809      183086B9 
 810 1684 20723DEC 		.ascii	" r=\3544^`\376pnu\265\026\265\374\305e2\210~S\301\250"
 810      345E60FE 
 810      706E75B5 
 810      16B5FCC5 
 810      6532887E 
 811 169b 3C7F7E89 		.ascii	"<\177~\211\\^\256\224\306\005\315\367y\362G\027\214"
 811      5C5EAE94 
 811      C605CDF7 
 811      79F24717 
 811      8C
 812 16ac F5B9F3C7 		.ascii	"\365\271\363\307\344A6*\317\347\015he\334\301\361\201"
 812      E441362A 
 812      CFE70D68 
 812      65DCC1F1 
 812      81
 813 16bd 505A305C 		.ascii	"PZ0\\\022\034\037\311\010+\245\343\203\345\305Ju\332"
 813      121C1FC9 
 813      082BA5E3 
 813      83E5C54A 
 813      75DA
 814 16cf 442510A9 		.ascii	"D%\020\251\010\365\211!\203\343\202\372\240sx\340\""
 814      08F58921 
 814      83E382FA 
 814      A07378E0 
ARM GAS  /tmp/cc05KhpP.s 			page 65


 814      22
 815 16e0 544DF248 		.ascii	"TM\362HuF\250\032\216\304\2273\"\372\331\317\020\331"
 815      7546A81A 
 815      8EC49733 
 815      22FAD9CF 
 815      10D9
 816 16f2 03C22DF4 		.ascii	"\003\302-\364\324\037VB\023\301x\325\244\203+\241PU"
 816      D41F5642 
 816      13C178D5 
 816      A4832BA1 
 816      5055
 817 1704 65C40D5F 		.ascii	"e\304\015_Uz\260\333p\245B\206R7\305\276\212TT\016\254"
 817      557AB0DB 
 817      70A54286 
 817      5237C5BE 
 817      8A54540E 
 818 1719 94439181 		.ascii	"\224C\221\201\203\262\364{\301\362`\244{\274\000|\231"
 818      83B2F47B 
 818      C1F260A4 
 818      7BBC007C 
 818      99
 819 172a 652CDE23 		.ascii	"e,\336#\016[\012Z\350\245_V\225k7\006\343p[\032\034"
 819      0E5B0A5A 
 819      E8A55F56 
 819      956B3706 
 819      E3705B1A 
 820 173f 97332110 		.ascii	"\2273!\020\340\206\335\241\003\207\015\034j\034\251"
 820      E086DDA1 
 820      03870D1C 
 820      6A1CA9
 821 174e 61D82531 		.ascii	"a\330%10\034\3743\210\021C\016N(\207\270#\226\307\260"
 821      301CFC33 
 821      8811430E 
 821      4E2887B8 
 821      2396C7B0 
 822 1762 956A628E 		.ascii	"\225jb\216\011\212'R=\256j\274'D\3628)\350\202=\365"
 822      098A2752 
 822      3DAE6ABC 
 822      2744F238 
 822      29E8823D 
 823 1777 8B901250 		.ascii	"\213\220\022P`\310\373\245~]YQZ\252\030\000\306\207"
 823      60C8FBA5 
 823      7E5D5951 
 823      5AAA1800 
 823      C687
 824 1789 200639EB 		.ascii	" \0069\353\247\020\364\311h\032()\232\024\036)\227F"
 824      A710F4C9 
 824      681A2829 
 824      9A141E29 
 824      9746
 825 179b B2022563 		.ascii	"\262\002%cK\212}J\270\252L)$\212zl\334\237@\356BP\233"
 825      4B8A7D4A 
 825      B8AA4C29 
 825      248A7A6C 
 825      DC9F40EE 
 826 17b2 C73F1CBA 		.ascii	"\307?\034\272e\217\230[\004\303!\177\2447\234\024\241"
 826      658F985B 
ARM GAS  /tmp/cc05KhpP.s 			page 66


 826      04C3217F 
 826      A4379C14 
 826      A1
 827 17c3 7BE49596 		.ascii	"{\344\225\226V\004 \300\365\212\335\361\201"
 827      560420C0 
 827      F58ADDF1 
 827      81
 828 17d0 CAE4B0E2 		.ascii	"\312\344\260\342!Cu\256\267\270\252\254lR\244\272\217"
 828      214375AE 
 828      B7B8AAAC 
 828      6C52A4BA 
 828      8F
 829 17e1 9FF7ABB0 		.ascii	"\237\367\253\260\366U(y\204!\356S\021\206\014D G2\004"
 829      F6552879 
 829      8421EE53 
 829      11860C44 
 829      20473204 
 830 17f5 9023E59E 		.ascii	"\220#\345\236\006h\341\212\362\336\344\326X\354\361"
 830      0668E18A 
 830      F2DEE4D6 
 830      58ECF1
 831 1804 540E5724 		.ascii	"T\016W$T\351\202\230\226\351\313\317\327\373\205\224"
 831      54E98298 
 831      96E9CBCF 
 831      D7FB8594 
 832 1814 0F7D013A 		.ascii	"\017}\001:\246+\277\320\227\2367f\370`_\321X<\311%'"
 832      A62BBFD0 
 832      979E3766 
 832      F8605FD1 
 832      583CC925 
 833 1829 69792387 		.ascii	"iy#\207\217\030\355\363\222/\3501\027\216\356\341\005"
 833      8F18EDF3 
 833      922FE831 
 833      178EEEE1 
 833      05
 834 183a F950A3C8 		.ascii	"\371P\243\310\367\377\341'\024\207"
 834      F7FFE127 
 834      1487
 835              		.text
 836              		.section	.gnu.lto_.symtab.24b939c84b905308,"",%progbits
 837 0000 7370695F 		.ascii	"spi_lld_init\000\000\000\000\000\000\000\000\000\000"
 837      6C6C645F 
 837      696E6974 
 837      00000000 
 837      00000000 
 838 0016 0000F901 		.ascii	"\000\000\371\001\000\000SPID1\000\000\000\000\000\000"
 838      00005350 
 838      49443100 
 838      00000000 
 838      00
 839 0027 00000000 		.ascii	"\000\000\000\000\000\000e\002\000\000spi_lld_start\000"
 839      00006502 
 839      00007370 
 839      695F6C6C 
 839      645F7374 
 840 003f 00000000 		.ascii	"\000\000\000\000\000\000\000\000\000\000\000\375\001"
 840      00000000 
ARM GAS  /tmp/cc05KhpP.s 			page 67


 840      000000FD 
 840      01
 841 004c 00007370 		.ascii	"\000\000spi_lld_stop\000\000\000\000\000\000\000\000"
 841      695F6C6C 
 841      645F7374 
 841      6F700000 
 841      00000000 
 842 0062 00000000 		.ascii	"\000\000\000\000\001\002\000\000spi_lld_select\000\000"
 842      01020000 
 842      7370695F 
 842      6C6C645F 
 842      73656C65 
 843 007a 00000000 		.ascii	"\000\000\000\000\000\000\000\000\000\000\005\002\000"
 843      00000000 
 843      00000502 
 843      00
 844 0087 00737069 		.ascii	"\000spi_lld_unselect\000\000\000\000\000\000\000\000"
 844      5F6C6C64 
 844      5F756E73 
 844      656C6563 
 844      74000000 
 845 00a0 00000000 		.ascii	"\000\000\000\000\011\002\000\000spi_lld_ignore\000\000"
 845      09020000 
 845      7370695F 
 845      6C6C645F 
 845      69676E6F 
 846 00b8 00000000 		.ascii	"\000\000\000\000\000\000\000\000\000\000\015\002\000"
 846      00000000 
 846      00000D02 
 846      00
 847 00c5 00737069 		.ascii	"\000spi_lld_exchange\000\000\000\000\000\000\000\000"
 847      5F6C6C64 
 847      5F657863 
 847      68616E67 
 847      65000000 
 848 00de 00000000 		.ascii	"\000\000\000\000\031\002\000\000spi_lld_send\000\000"
 848      19020000 
 848      7370695F 
 848      6C6C645F 
 848      73656E64 
 849 00f4 00000000 		.ascii	"\000\000\000\000\000\000\000\000\000\000'\002\000\000"
 849      00000000 
 849      00002702 
 849      0000
 850 0102 7370695F 		.ascii	"spi_lld_receive\000\000\000\000\000\000\000\000\000"
 850      6C6C645F 
 850      72656365 
 850      69766500 
 850      00000000 
 851 011a 00000031 		.ascii	"\000\000\0001\002\000\000spi_lld_polled_exchange\000"
 851      02000073 
 851      70695F6C 
 851      6C645F70 
 851      6F6C6C65 
 852 0139 00000000 		.ascii	"\000\000\000\000\000\000\000\000\000\000\000;\002\000"
 852      00000000 
 852      0000003B 
ARM GAS  /tmp/cc05KhpP.s 			page 68


 852      0200
 853 0147 005F7374 		.ascii	"\000_stm32_dma_streams\000\000\002\000\000\000\000\000"
 853      6D33325F 
 853      646D615F 
 853      73747265 
 853      616D7300 
 854 0162 00000000 		.ascii	"\000\000\000\000i\002\000\000chSysHalt\000\000\002\000"
 854      69020000 
 854      63685379 
 854      7348616C 
 854      74000002 
 855 0177 00000000 		.ascii	"\000\000\000\000\000\000\000\000D\002\000\000chThdR"
 855      00000000 
 855      44020000 
 855      63685468 
 855      6452
 856 0189 6573756D 		.ascii	"esumeI\000\000\002\000\000\000\000\000\000\000\000\000"
 856      65490000 
 856      02000000 
 856      00000000 
 856      0000
 857 019b 48020000 		.ascii	"H\002\000\000spiObjectInit\000\000\002\000\000\000\000"
 857      7370694F 
 857      626A6563 
 857      74496E69 
 857      74000002 
 858 01b3 00000000 		.ascii	"\000\000\000\000\000N\002\000\000dmaStreamAllocate\000"
 858      004E0200 
 858      00646D61 
 858      53747265 
 858      616D416C 
 859 01ce 00020000 		.ascii	"\000\002\000\000\000\000\000\000\000\000\000P\002\000"
 859      00000000 
 859      00000050 
 859      0200
 860 01dc 00646D61 		.ascii	"\000dmaStreamRelease\000\000\002\000\000\000\000\000"
 860      53747265 
 860      616D5265 
 860      6C656173 
 860      65000002 
 861 01f5 00000000 		.ascii	"\000\000\000\000a\002\000\000"
 861      61020000 
 862              		.text
 863              		.section	.gnu.lto_.opts,"",%progbits
 864 0000 272D6D63 		.ascii	"'-mcpu=cortex-m3' '-mno-thumb-interwork' '-mthumb' "
 864      70753D63 
 864      6F727465 
 864      782D6D33 
 864      2720272D 
 865 0033 272D4F32 		.ascii	"'-O2' '-fomit-frame-pointer' '-falign-functions=16'"
 865      2720272D 
 865      666F6D69 
 865      742D6672 
 865      616D652D 
 866 0066 20272D66 		.ascii	" '-ffunction-sections' '-fdata-sections' '-fno-comm"
 866      66756E63 
 866      74696F6E 
ARM GAS  /tmp/cc05KhpP.s 			page 69


 866      2D736563 
 866      74696F6E 
 867 0099 6F6E2720 		.ascii	"on' '-flto'\000"
 867      272D666C 
 867      746F2700 
 868              		.text
 869              		.section	.text.spi_lld_serve_tx_interrupt,"ax",%progbits
 870              		.align	2
 871              		.p2align 4,,15
 872              		.thumb
 873              		.thumb_func
 874              		.type	spi_lld_serve_tx_interrupt, %function
 875              	spi_lld_serve_tx_interrupt:
 876              		@ args = 0, pretend = 0, frame = 0
 877              		@ frame_needed = 0, uses_anonymous_args = 0
 878              		@ link register save eliminated.
 879 0000 0B07     		lsls	r3, r1, #28
 880 0002 00D4     		bmi	.L4
 881 0004 7047     		bx	lr
 882              	.L4:
 883 0006 0148     		ldr	r0, .L5
 884 0008 FFF7FEBF 		b	chSysHalt
 885              	.L6:
 886              		.align	2
 887              	.L5:
 888 000c 00000000 		.word	.LC0
 889              		.size	spi_lld_serve_tx_interrupt, .-spi_lld_serve_tx_interrupt
 890              		.section	.text.spi_lld_serve_rx_interrupt,"ax",%progbits
 891              		.align	2
 892              		.p2align 4,,15
 893              		.thumb
 894              		.thumb_func
 895              		.type	spi_lld_serve_rx_interrupt, %function
 896              	spi_lld_serve_rx_interrupt:
 897              		@ args = 0, pretend = 0, frame = 0
 898              		@ frame_needed = 0, uses_anonymous_args = 0
 899 0000 0B07     		lsls	r3, r1, #28
 900 0002 70B5     		push	{r4, r5, r6, lr}
 901 0004 0446     		mov	r4, r0
 902 0006 2ED4     		bmi	.L14
 903              	.L8:
 904 0008 626A     		ldr	r2, [r4, #36]
 905 000a 236A     		ldr	r3, [r4, #32]
 906 000c 1068     		ldr	r0, [r2]
 907 000e 5568     		ldr	r5, [r2, #4]
 908 0010 0668     		ldr	r6, [r0]
 909 0012 0F21     		movs	r1, #15
 910 0014 26F00F06 		bic	r6, r6, #15
 911 0018 0660     		str	r6, [r0]
 912 001a 107A     		ldrb	r0, [r2, #8]	@ zero_extendqisi2
 913 001c 1A68     		ldr	r2, [r3]
 914 001e 01FA00F0 		lsl	r0, r1, r0
 915 0022 2860     		str	r0, [r5]
 916 0024 1568     		ldr	r5, [r2]
 917 0026 6068     		ldr	r0, [r4, #4]
 918 0028 25F00F05 		bic	r5, r5, #15
 919 002c 1560     		str	r5, [r2]
ARM GAS  /tmp/cc05KhpP.s 			page 70


 920 002e 1D7A     		ldrb	r5, [r3, #8]	@ zero_extendqisi2
 921 0030 5A68     		ldr	r2, [r3, #4]
 922 0032 A940     		lsls	r1, r1, r5
 923 0034 0368     		ldr	r3, [r0]
 924 0036 1160     		str	r1, [r2]
 925 0038 93B1     		cbz	r3, .L9
 926 003a 0422     		movs	r2, #4
 927 003c 2270     		strb	r2, [r4]
 928 003e 2046     		mov	r0, r4
 929 0040 9847     		blx	r3
 930 0042 2378     		ldrb	r3, [r4]	@ zero_extendqisi2
 931 0044 042B     		cmp	r3, #4
 932 0046 0BD0     		beq	.L9
 933              	.L10:
 934 0048 2023     		movs	r3, #32
 935              	@ 546 "/home/cody/dev/chibios/trunk/os/ext/CMSIS/include/core_cmFunc.h" 1
 936 004a 83F31188 		MSR basepri, r3
 937              	@ 0 "" 2
 938              		.thumb
 939 004e 0021     		movs	r1, #0
 940 0050 04F10800 		add	r0, r4, #8
 941 0054 FFF7FEFF 		bl	chThdResumeI
 942 0058 0023     		movs	r3, #0
 943              	@ 546 "/home/cody/dev/chibios/trunk/os/ext/CMSIS/include/core_cmFunc.h" 1
 944 005a 83F31188 		MSR basepri, r3
 945              	@ 0 "" 2
 946              		.thumb
 947 005e 70BD     		pop	{r4, r5, r6, pc}
 948              	.L9:
 949 0060 0223     		movs	r3, #2
 950 0062 2370     		strb	r3, [r4]
 951 0064 F0E7     		b	.L10
 952              	.L14:
 953 0066 0248     		ldr	r0, .L15
 954 0068 FFF7FEFF 		bl	chSysHalt
 955 006c CCE7     		b	.L8
 956              	.L16:
 957 006e 00BF     		.align	2
 958              	.L15:
 959 0070 00000000 		.word	.LC0
 960              		.size	spi_lld_serve_rx_interrupt, .-spi_lld_serve_rx_interrupt
 961 0074 AFF30080 		.section	.text.spi_lld_init,"ax",%progbits
 961      AFF30080 
 961      AFF30080 
 962              		.align	2
 963              		.p2align 4,,15
 964              		.global	spi_lld_init
 965              		.thumb
 966              		.thumb_func
 967              		.type	spi_lld_init, %function
 968              	spi_lld_init:
 969              		@ args = 0, pretend = 0, frame = 0
 970              		@ frame_needed = 0, uses_anonymous_args = 0
 971 0000 38B5     		push	{r3, r4, r5, lr}
 972 0002 0B4C     		ldr	r4, .L18
 973 0004 0B4B     		ldr	r3, .L18+4
 974 0006 4FF6FF72 		movw	r2, #65535
ARM GAS  /tmp/cc05KhpP.s 			page 71


 975 000a 2046     		mov	r0, r4
 976 000c 1A80     		strh	r2, [r3]	@ movhi
 977 000e FFF7FEFF 		bl	spiObjectInit
 978 0012 094B     		ldr	r3, .L18+8
 979 0014 094D     		ldr	r5, .L18+12
 980 0016 03F10C00 		add	r0, r3, #12
 981 001a 41F20A01 		movw	r1, #4106
 982 001e 41F21802 		movw	r2, #4120
 983 0022 E561     		str	r5, [r4, #28]
 984 0024 2362     		str	r3, [r4, #32]
 985 0026 6062     		str	r0, [r4, #36]
 986 0028 A162     		str	r1, [r4, #40]
 987 002a E262     		str	r2, [r4, #44]
 988 002c 38BD     		pop	{r3, r4, r5, pc}
 989              	.L19:
 990 002e 00BF     		.align	2
 991              	.L18:
 992 0030 00000000 		.word	.LANCHOR1
 993 0034 00000000 		.word	.LANCHOR0
 994 0038 0C000000 		.word	_stm32_dma_streams+12
 995 003c 00300140 		.word	1073819648
 996              		.size	spi_lld_init, .-spi_lld_init
 997              		.section	.text.spi_lld_start,"ax",%progbits
 998              		.align	2
 999              		.p2align 4,,15
 1000              		.global	spi_lld_start
 1001              		.thumb
 1002              		.thumb_func
 1003              		.type	spi_lld_start, %function
 1004              	spi_lld_start:
 1005              		@ args = 0, pretend = 0, frame = 0
 1006              		@ frame_needed = 0, uses_anonymous_args = 0
 1007 0000 0378     		ldrb	r3, [r0]	@ zero_extendqisi2
 1008 0002 10B5     		push	{r4, lr}
 1009 0004 012B     		cmp	r3, #1
 1010 0006 0446     		mov	r4, r0
 1011 0008 1ED0     		beq	.L26
 1012 000a C369     		ldr	r3, [r0, #28]
 1013              	.L21:
 1014 000c 6268     		ldr	r2, [r4, #4]
 1015 000e A06A     		ldr	r0, [r4, #40]
 1016 0010 5289     		ldrh	r2, [r2, #10]
 1017 0012 E16A     		ldr	r1, [r4, #44]
 1018 0014 20F47060 		bic	r0, r0, #3840
 1019 0018 21F47061 		bic	r1, r1, #3840
 1020 001c 12F4006F 		tst	r2, #2048
 1021 0020 1CBF     		itt	ne
 1022 0022 40F4A060 		orrne	r0, r0, #1280
 1023 0026 41F4A061 		orrne	r1, r1, #1280
 1024 002a A062     		str	r0, [r4, #40]
 1025 002c E162     		str	r1, [r4, #44]
 1026 002e 42F44172 		orr	r2, r2, #772
 1027 0032 0020     		movs	r0, #0
 1028 0034 0721     		movs	r1, #7
 1029 0036 1880     		strh	r0, [r3]	@ movhi
 1030 0038 1A80     		strh	r2, [r3]	@ movhi
 1031 003a 9980     		strh	r1, [r3, #4]	@ movhi
ARM GAS  /tmp/cc05KhpP.s 			page 72


 1032 003c 1A88     		ldrh	r2, [r3]
 1033 003e 92B2     		uxth	r2, r2
 1034 0040 42F04002 		orr	r2, r2, #64
 1035 0044 1A80     		strh	r2, [r3]	@ movhi
 1036 0046 10BD     		pop	{r4, pc}
 1037              	.L26:
 1038 0048 0F4B     		ldr	r3, .L29
 1039 004a 9842     		cmp	r0, r3
 1040 004c 09D0     		beq	.L28
 1041              	.L22:
 1042 004e 216A     		ldr	r1, [r4, #32]
 1043 0050 626A     		ldr	r2, [r4, #36]
 1044 0052 E369     		ldr	r3, [r4, #28]
 1045 0054 0868     		ldr	r0, [r1]
 1046 0056 1168     		ldr	r1, [r2]
 1047 0058 03F10C02 		add	r2, r3, #12
 1048 005c 8260     		str	r2, [r0, #8]
 1049 005e 8A60     		str	r2, [r1, #8]
 1050 0060 D4E7     		b	.L21
 1051              	.L28:
 1052 0062 0A21     		movs	r1, #10
 1053 0064 094A     		ldr	r2, .L29+4
 1054 0066 2346     		mov	r3, r4
 1055 0068 006A     		ldr	r0, [r0, #32]
 1056 006a FFF7FEFF 		bl	dmaStreamAllocate
 1057 006e 084A     		ldr	r2, .L29+8
 1058 0070 2346     		mov	r3, r4
 1059 0072 606A     		ldr	r0, [r4, #36]
 1060 0074 0A21     		movs	r1, #10
 1061 0076 FFF7FEFF 		bl	dmaStreamAllocate
 1062 007a 064B     		ldr	r3, .L29+12
 1063 007c 9A69     		ldr	r2, [r3, #24]
 1064 007e 42F48052 		orr	r2, r2, #4096
 1065 0082 9A61     		str	r2, [r3, #24]
 1066 0084 E3E7     		b	.L22
 1067              	.L30:
 1068 0086 00BF     		.align	2
 1069              	.L29:
 1070 0088 00000000 		.word	.LANCHOR1
 1071 008c 00000000 		.word	spi_lld_serve_rx_interrupt
 1072 0090 00000000 		.word	spi_lld_serve_tx_interrupt
 1073 0094 00100240 		.word	1073876992
 1074              		.size	spi_lld_start, .-spi_lld_start
 1075 0098 AFF30080 		.section	.text.spi_lld_stop,"ax",%progbits
 1075      AFF30080 
 1076              		.align	2
 1077              		.p2align 4,,15
 1078              		.global	spi_lld_stop
 1079              		.thumb
 1080              		.thumb_func
 1081              		.type	spi_lld_stop, %function
 1082              	spi_lld_stop:
 1083              		@ args = 0, pretend = 0, frame = 0
 1084              		@ frame_needed = 0, uses_anonymous_args = 0
 1085 0000 0378     		ldrb	r3, [r0]	@ zero_extendqisi2
 1086 0002 10B5     		push	{r4, lr}
 1087 0004 022B     		cmp	r3, #2
ARM GAS  /tmp/cc05KhpP.s 			page 73


 1088 0006 0446     		mov	r4, r0
 1089 0008 00D0     		beq	.L35
 1090              	.L31:
 1091 000a 10BD     		pop	{r4, pc}
 1092              	.L35:
 1093 000c C369     		ldr	r3, [r0, #28]
 1094 000e 0022     		movs	r2, #0
 1095 0010 1A80     		strh	r2, [r3]	@ movhi
 1096 0012 006A     		ldr	r0, [r0, #32]
 1097 0014 9A80     		strh	r2, [r3, #4]	@ movhi
 1098 0016 FFF7FEFF 		bl	dmaStreamRelease
 1099 001a 606A     		ldr	r0, [r4, #36]
 1100 001c FFF7FEFF 		bl	dmaStreamRelease
 1101 0020 044B     		ldr	r3, .L36
 1102 0022 9C42     		cmp	r4, r3
 1103 0024 F1D1     		bne	.L31
 1104 0026 044B     		ldr	r3, .L36+4
 1105 0028 9A69     		ldr	r2, [r3, #24]
 1106 002a 22F48052 		bic	r2, r2, #4096
 1107 002e 9A61     		str	r2, [r3, #24]
 1108 0030 EBE7     		b	.L31
 1109              	.L37:
 1110 0032 00BF     		.align	2
 1111              	.L36:
 1112 0034 00000000 		.word	.LANCHOR1
 1113 0038 00100240 		.word	1073876992
 1114              		.size	spi_lld_stop, .-spi_lld_stop
 1115 003c AFF30080 		.section	.text.spi_lld_select,"ax",%progbits
 1116              		.align	2
 1117              		.p2align 4,,15
 1118              		.global	spi_lld_select
 1119              		.thumb
 1120              		.thumb_func
 1121              		.type	spi_lld_select, %function
 1122              	spi_lld_select:
 1123              		@ args = 0, pretend = 0, frame = 0
 1124              		@ frame_needed = 0, uses_anonymous_args = 0
 1125              		@ link register save eliminated.
 1126 0000 4368     		ldr	r3, [r0, #4]
 1127 0002 0121     		movs	r1, #1
 1128 0004 1A89     		ldrh	r2, [r3, #8]
 1129 0006 5B68     		ldr	r3, [r3, #4]
 1130 0008 01FA02F2 		lsl	r2, r1, r2
 1131 000c 5A61     		str	r2, [r3, #20]
 1132 000e 7047     		bx	lr
 1133              		.size	spi_lld_select, .-spi_lld_select
 1134              		.section	.text.spi_lld_unselect,"ax",%progbits
 1135              		.align	2
 1136              		.p2align 4,,15
 1137              		.global	spi_lld_unselect
 1138              		.thumb
 1139              		.thumb_func
 1140              		.type	spi_lld_unselect, %function
 1141              	spi_lld_unselect:
 1142              		@ args = 0, pretend = 0, frame = 0
 1143              		@ frame_needed = 0, uses_anonymous_args = 0
 1144              		@ link register save eliminated.
ARM GAS  /tmp/cc05KhpP.s 			page 74


 1145 0000 4368     		ldr	r3, [r0, #4]
 1146 0002 0121     		movs	r1, #1
 1147 0004 1A89     		ldrh	r2, [r3, #8]
 1148 0006 5B68     		ldr	r3, [r3, #4]
 1149 0008 01FA02F2 		lsl	r2, r1, r2
 1150 000c 1A61     		str	r2, [r3, #16]
 1151 000e 7047     		bx	lr
 1152              		.size	spi_lld_unselect, .-spi_lld_unselect
 1153              		.section	.text.spi_lld_ignore,"ax",%progbits
 1154              		.align	2
 1155              		.p2align 4,,15
 1156              		.global	spi_lld_ignore
 1157              		.thumb
 1158              		.thumb_func
 1159              		.type	spi_lld_ignore, %function
 1160              	spi_lld_ignore:
 1161              		@ args = 0, pretend = 0, frame = 0
 1162              		@ frame_needed = 0, uses_anonymous_args = 0
 1163              		@ link register save eliminated.
 1164 0000 026A     		ldr	r2, [r0, #32]
 1165 0002 436A     		ldr	r3, [r0, #36]
 1166 0004 70B4     		push	{r4, r5, r6}
 1167 0006 1268     		ldr	r2, [r2]
 1168 0008 856A     		ldr	r5, [r0, #40]
 1169 000a 1B68     		ldr	r3, [r3]
 1170 000c C06A     		ldr	r0, [r0, #44]
 1171 000e 094E     		ldr	r6, .L41
 1172 0010 094C     		ldr	r4, .L41+4
 1173 0012 D660     		str	r6, [r2, #12]
 1174 0014 5160     		str	r1, [r2, #4]
 1175 0016 1560     		str	r5, [r2]
 1176 0018 DC60     		str	r4, [r3, #12]
 1177 001a 5960     		str	r1, [r3, #4]
 1178 001c 1860     		str	r0, [r3]
 1179 001e 1168     		ldr	r1, [r2]
 1180 0020 70BC     		pop	{r4, r5, r6}
 1181 0022 41F00101 		orr	r1, r1, #1
 1182 0026 1160     		str	r1, [r2]
 1183 0028 1A68     		ldr	r2, [r3]
 1184 002a 42F00102 		orr	r2, r2, #1
 1185 002e 1A60     		str	r2, [r3]
 1186 0030 7047     		bx	lr
 1187              	.L42:
 1188 0032 00BF     		.align	2
 1189              	.L41:
 1190 0034 00000000 		.word	.LANCHOR2
 1191 0038 00000000 		.word	.LANCHOR0
 1192              		.size	spi_lld_ignore, .-spi_lld_ignore
 1193 003c AFF30080 		.section	.text.spi_lld_exchange,"ax",%progbits
 1194              		.align	2
 1195              		.p2align 4,,15
 1196              		.global	spi_lld_exchange
 1197              		.thumb
 1198              		.thumb_func
 1199              		.type	spi_lld_exchange, %function
 1200              	spi_lld_exchange:
 1201              		@ args = 0, pretend = 0, frame = 0
ARM GAS  /tmp/cc05KhpP.s 			page 75


 1202              		@ frame_needed = 0, uses_anonymous_args = 0
 1203              		@ link register save eliminated.
 1204 0000 F0B4     		push	{r4, r5, r6, r7}
 1205 0002 046A     		ldr	r4, [r0, #32]
 1206 0004 476A     		ldr	r7, [r0, #36]
 1207 0006 866A     		ldr	r6, [r0, #40]
 1208 0008 C56A     		ldr	r5, [r0, #44]
 1209 000a 2468     		ldr	r4, [r4]
 1210 000c 3868     		ldr	r0, [r7]
 1211 000e 46F08006 		orr	r6, r6, #128
 1212 0012 45F08005 		orr	r5, r5, #128
 1213 0016 E360     		str	r3, [r4, #12]
 1214 0018 6160     		str	r1, [r4, #4]
 1215 001a 2660     		str	r6, [r4]
 1216 001c C260     		str	r2, [r0, #12]
 1217 001e 4160     		str	r1, [r0, #4]
 1218 0020 0560     		str	r5, [r0]
 1219 0022 2368     		ldr	r3, [r4]
 1220 0024 43F00103 		orr	r3, r3, #1
 1221 0028 2360     		str	r3, [r4]
 1222 002a 0368     		ldr	r3, [r0]
 1223 002c F0BC     		pop	{r4, r5, r6, r7}
 1224 002e 43F00103 		orr	r3, r3, #1
 1225 0032 0360     		str	r3, [r0]
 1226 0034 7047     		bx	lr
 1227              		.size	spi_lld_exchange, .-spi_lld_exchange
 1228 0036 00BFAFF3 		.section	.text.spi_lld_send,"ax",%progbits
 1228      0080AFF3 
 1228      0080
 1229              		.align	2
 1230              		.p2align 4,,15
 1231              		.global	spi_lld_send
 1232              		.thumb
 1233              		.thumb_func
 1234              		.type	spi_lld_send, %function
 1235              	spi_lld_send:
 1236              		@ args = 0, pretend = 0, frame = 0
 1237              		@ frame_needed = 0, uses_anonymous_args = 0
 1238              		@ link register save eliminated.
 1239 0000 F0B4     		push	{r4, r5, r6, r7}
 1240 0002 036A     		ldr	r3, [r0, #32]
 1241 0004 476A     		ldr	r7, [r0, #36]
 1242 0006 C66A     		ldr	r6, [r0, #44]
 1243 0008 1C68     		ldr	r4, [r3]
 1244 000a 806A     		ldr	r0, [r0, #40]
 1245 000c 3B68     		ldr	r3, [r7]
 1246 000e 094D     		ldr	r5, .L45
 1247 0010 46F08006 		orr	r6, r6, #128
 1248 0014 E560     		str	r5, [r4, #12]
 1249 0016 6160     		str	r1, [r4, #4]
 1250 0018 2060     		str	r0, [r4]
 1251 001a DA60     		str	r2, [r3, #12]
 1252 001c 5960     		str	r1, [r3, #4]
 1253 001e 1E60     		str	r6, [r3]
 1254 0020 2268     		ldr	r2, [r4]
 1255 0022 42F00102 		orr	r2, r2, #1
 1256 0026 2260     		str	r2, [r4]
ARM GAS  /tmp/cc05KhpP.s 			page 76


 1257 0028 1A68     		ldr	r2, [r3]
 1258 002a F0BC     		pop	{r4, r5, r6, r7}
 1259 002c 42F00102 		orr	r2, r2, #1
 1260 0030 1A60     		str	r2, [r3]
 1261 0032 7047     		bx	lr
 1262              	.L46:
 1263              		.align	2
 1264              	.L45:
 1265 0034 00000000 		.word	.LANCHOR2
 1266              		.size	spi_lld_send, .-spi_lld_send
 1267 0038 AFF30080 		.section	.text.spi_lld_receive,"ax",%progbits
 1267      AFF30080 
 1268              		.align	2
 1269              		.p2align 4,,15
 1270              		.global	spi_lld_receive
 1271              		.thumb
 1272              		.thumb_func
 1273              		.type	spi_lld_receive, %function
 1274              	spi_lld_receive:
 1275              		@ args = 0, pretend = 0, frame = 0
 1276              		@ frame_needed = 0, uses_anonymous_args = 0
 1277              		@ link register save eliminated.
 1278 0000 70B4     		push	{r4, r5, r6}
 1279 0002 436A     		ldr	r3, [r0, #36]
 1280 0004 046A     		ldr	r4, [r0, #32]
 1281 0006 866A     		ldr	r6, [r0, #40]
 1282 0008 2468     		ldr	r4, [r4]
 1283 000a 1B68     		ldr	r3, [r3]
 1284 000c C06A     		ldr	r0, [r0, #44]
 1285 000e 094D     		ldr	r5, .L48
 1286 0010 46F08006 		orr	r6, r6, #128
 1287 0014 E260     		str	r2, [r4, #12]
 1288 0016 6160     		str	r1, [r4, #4]
 1289 0018 2660     		str	r6, [r4]
 1290 001a DD60     		str	r5, [r3, #12]
 1291 001c 5960     		str	r1, [r3, #4]
 1292 001e 1860     		str	r0, [r3]
 1293 0020 2268     		ldr	r2, [r4]
 1294 0022 42F00102 		orr	r2, r2, #1
 1295 0026 2260     		str	r2, [r4]
 1296 0028 1A68     		ldr	r2, [r3]
 1297 002a 70BC     		pop	{r4, r5, r6}
 1298 002c 42F00102 		orr	r2, r2, #1
 1299 0030 1A60     		str	r2, [r3]
 1300 0032 7047     		bx	lr
 1301              	.L49:
 1302              		.align	2
 1303              	.L48:
 1304 0034 00000000 		.word	.LANCHOR0
 1305              		.size	spi_lld_receive, .-spi_lld_receive
 1306 0038 AFF30080 		.section	.text.spi_lld_polled_exchange,"ax",%progbits
 1306      AFF30080 
 1307              		.align	2
 1308              		.p2align 4,,15
 1309              		.global	spi_lld_polled_exchange
 1310              		.thumb
 1311              		.thumb_func
ARM GAS  /tmp/cc05KhpP.s 			page 77


 1312              		.type	spi_lld_polled_exchange, %function
 1313              	spi_lld_polled_exchange:
 1314              		@ args = 0, pretend = 0, frame = 0
 1315              		@ frame_needed = 0, uses_anonymous_args = 0
 1316              		@ link register save eliminated.
 1317 0000 C269     		ldr	r2, [r0, #28]
 1318 0002 9181     		strh	r1, [r2, #12]	@ movhi
 1319              	.L52:
 1320 0004 1389     		ldrh	r3, [r2, #8]
 1321 0006 DB07     		lsls	r3, r3, #31
 1322 0008 FCD5     		bpl	.L52
 1323 000a 9089     		ldrh	r0, [r2, #12]
 1324 000c 80B2     		uxth	r0, r0
 1325 000e 7047     		bx	lr
 1326              		.size	spi_lld_polled_exchange, .-spi_lld_polled_exchange
 1327              		.global	SPID1
 1328              		.section	.bss.dummytx,"aw",%nobits
 1329              		.align	1
 1330              		.set	.LANCHOR0,. + 0
 1331              		.type	dummytx, %object
 1332              		.size	dummytx, 2
 1333              	dummytx:
 1334 0000 0000     		.space	2
 1335              		.section	.bss.SPID1,"aw",%nobits
 1336              		.align	2
 1337              		.set	.LANCHOR1,. + 0
 1338              		.type	SPID1, %object
 1339              		.size	SPID1, 48
 1340              	SPID1:
 1341 0000 00000000 		.space	48
 1341      00000000 
 1341      00000000 
 1341      00000000 
 1341      00000000 
 1342              		.section	.rodata.str1.4,"aMS",%progbits,1
 1343              		.align	2
 1344              	.LC0:
 1345 0000 444D4120 		.ascii	"DMA failure\000"
 1345      6661696C 
 1345      75726500 
 1346              		.section	.bss.dummyrx,"aw",%nobits
 1347              		.align	1
 1348              		.set	.LANCHOR2,. + 0
 1349              		.type	dummyrx, %object
 1350              		.size	dummyrx, 2
 1351              	dummyrx:
 1352 0000 0000     		.space	2
 1353              		.comm	__gnu_lto_v1,1,1
 1354              		.ident	"GCC: (GNU Tools for ARM Embedded Processors) 4.8.4 20140526 (release) [ARM/embedded-4_8-br
ARM GAS  /tmp/cc05KhpP.s 			page 78


DEFINED SYMBOLS
                            *ABS*:0000000000000000 spi_lld.c
     /tmp/cc05KhpP.s:870    .text.spi_lld_serve_tx_interrupt:0000000000000000 $t
     /tmp/cc05KhpP.s:875    .text.spi_lld_serve_tx_interrupt:0000000000000000 spi_lld_serve_tx_interrupt
     /tmp/cc05KhpP.s:888    .text.spi_lld_serve_tx_interrupt:000000000000000c $d
     /tmp/cc05KhpP.s:891    .text.spi_lld_serve_rx_interrupt:0000000000000000 $t
     /tmp/cc05KhpP.s:896    .text.spi_lld_serve_rx_interrupt:0000000000000000 spi_lld_serve_rx_interrupt
     /tmp/cc05KhpP.s:959    .text.spi_lld_serve_rx_interrupt:0000000000000070 $d
     /tmp/cc05KhpP.s:962    .text.spi_lld_init:0000000000000000 $t
     /tmp/cc05KhpP.s:968    .text.spi_lld_init:0000000000000000 spi_lld_init
     /tmp/cc05KhpP.s:992    .text.spi_lld_init:0000000000000030 $d
     /tmp/cc05KhpP.s:998    .text.spi_lld_start:0000000000000000 $t
     /tmp/cc05KhpP.s:1004   .text.spi_lld_start:0000000000000000 spi_lld_start
     /tmp/cc05KhpP.s:1070   .text.spi_lld_start:0000000000000088 $d
     /tmp/cc05KhpP.s:1076   .text.spi_lld_stop:0000000000000000 $t
     /tmp/cc05KhpP.s:1082   .text.spi_lld_stop:0000000000000000 spi_lld_stop
     /tmp/cc05KhpP.s:1112   .text.spi_lld_stop:0000000000000034 $d
     /tmp/cc05KhpP.s:1116   .text.spi_lld_select:0000000000000000 $t
     /tmp/cc05KhpP.s:1122   .text.spi_lld_select:0000000000000000 spi_lld_select
     /tmp/cc05KhpP.s:1135   .text.spi_lld_unselect:0000000000000000 $t
     /tmp/cc05KhpP.s:1141   .text.spi_lld_unselect:0000000000000000 spi_lld_unselect
     /tmp/cc05KhpP.s:1154   .text.spi_lld_ignore:0000000000000000 $t
     /tmp/cc05KhpP.s:1160   .text.spi_lld_ignore:0000000000000000 spi_lld_ignore
     /tmp/cc05KhpP.s:1190   .text.spi_lld_ignore:0000000000000034 $d
     /tmp/cc05KhpP.s:1194   .text.spi_lld_exchange:0000000000000000 $t
     /tmp/cc05KhpP.s:1200   .text.spi_lld_exchange:0000000000000000 spi_lld_exchange
     /tmp/cc05KhpP.s:1229   .text.spi_lld_send:0000000000000000 $t
     /tmp/cc05KhpP.s:1235   .text.spi_lld_send:0000000000000000 spi_lld_send
     /tmp/cc05KhpP.s:1265   .text.spi_lld_send:0000000000000034 $d
     /tmp/cc05KhpP.s:1268   .text.spi_lld_receive:0000000000000000 $t
     /tmp/cc05KhpP.s:1274   .text.spi_lld_receive:0000000000000000 spi_lld_receive
     /tmp/cc05KhpP.s:1304   .text.spi_lld_receive:0000000000000034 $d
     /tmp/cc05KhpP.s:1307   .text.spi_lld_polled_exchange:0000000000000000 $t
     /tmp/cc05KhpP.s:1313   .text.spi_lld_polled_exchange:0000000000000000 spi_lld_polled_exchange
     /tmp/cc05KhpP.s:1340   .bss.SPID1:0000000000000000 SPID1
     /tmp/cc05KhpP.s:1329   .bss.dummytx:0000000000000000 $d
     /tmp/cc05KhpP.s:1333   .bss.dummytx:0000000000000000 dummytx
     /tmp/cc05KhpP.s:1336   .bss.SPID1:0000000000000000 $d
     /tmp/cc05KhpP.s:1343   .rodata.str1.4:0000000000000000 $d
     /tmp/cc05KhpP.s:1347   .bss.dummyrx:0000000000000000 $d
     /tmp/cc05KhpP.s:1351   .bss.dummyrx:0000000000000000 dummyrx
                            *COM*:0000000000000001 __gnu_lto_v1
     /tmp/cc05KhpP.s:961    .text.spi_lld_serve_rx_interrupt:0000000000000074 $t
     /tmp/cc05KhpP.s:1075   .text.spi_lld_start:0000000000000098 $t
     /tmp/cc05KhpP.s:1115   .text.spi_lld_stop:000000000000003c $t
     /tmp/cc05KhpP.s:1193   .text.spi_lld_ignore:000000000000003c $t
     /tmp/cc05KhpP.s:1267   .text.spi_lld_send:0000000000000038 $t
     /tmp/cc05KhpP.s:1306   .text.spi_lld_receive:0000000000000038 $t

UNDEFINED SYMBOLS
chSysHalt
chThdResumeI
spiObjectInit
_stm32_dma_streams
dmaStreamAllocate
dmaStreamRelease
