ARM GAS  /tmp/cc7ltS8o.s 			page 1


   1              		.syntax unified
   2              		.cpu cortex-m3
   3              		.fpu softvfp
   4              		.eabi_attribute 20, 1
   5              		.eabi_attribute 21, 1
   6              		.eabi_attribute 23, 3
   7              		.eabi_attribute 24, 1
   8              		.eabi_attribute 25, 1
   9              		.eabi_attribute 26, 1
  10              		.eabi_attribute 30, 2
  11              		.eabi_attribute 34, 1
  12              		.eabi_attribute 18, 4
  13              		.thumb
  14              		.file	"st.c"
  15              		.section	.gnu.lto_.jmpfuncs.e06f04199171b7df,"",%progbits
  16 0000 789C6362 		.ascii	"x\234cb`b\300\006x\2414+\020322103\26200\000\000\002"
  16      6062C006 
  16      78A1342B 
  16      10333232 
  16      313033B2 
  17 0019 6D0023   		.ascii	"m\000#"
  18              		.text
  19              		.section	.gnu.lto_.inline.e06f04199171b7df,"",%progbits
  20 0000 789C6362 		.ascii	"x\234cb`b\300\006\362\2414+\003\003\013\017#X\021\333"
  20      6062C006 
  20      F2A1342B 
  20      03030B0F 
  20      235811DB 
  21 0014 0279B05A 		.ascii	"\002y\260ZF.\020\301\300\306\312\310\010\244\030\030"
  21      462E10C1 
  21      C0C6CAC8 
  21      08A41818 
  22 0024 98D83EE8 		.ascii	"\230\330>\350\301%\231\030X\230\201\312\231.\360\303"
  22      C1259918 
  22      589881CA 
  22      992EF0C3 
  23 0034 85984142 		.ascii	"\205\230ABP\245\310\342,\230J\031\000\300\002\010{"
  23      50A5C8E2 
  23      2C984A19 
  23      00C00208 
  23      7B
  24              		.text
  25              		.section	.gnu.lto_.pureconst.e06f04199171b7df,"",%progbits
  26 0000 789C6362 		.ascii	"x\234cb`b\340f\200\000V\006\011F)&)f)\026)\000\004\027"
  26      6062E066 
  26      80005606 
  26      09462926 
  26      29662916 
  27 0018 009F     		.ascii	"\000\237"
  28              		.text
  29              		.section	.gnu.lto_stInit.e06f04199171b7df,"",%progbits
  30 0000 789C6362 		.ascii	"x\234cb`b@\007\222@\\\003\304\372@\314\310\314\300\310"
  30      60624007 
  30      92405C03 
  30      C4FA40CC 
  30      C8CCC0C8 
  31 0014 34E11C03 		.ascii	"4\341\034\003C#\007\023##\210\301\300\310P\317\304X"
ARM GAS  /tmp/cc7ltS8o.s 			page 2


  31      43230713 
  31      232388C1 
  31      C0C850CF 
  31      C458
  32 0026 1FC90856 		.ascii	"\037\311\010V\273\236\351\300\203\377\377\327M86u\017"
  32      BB9EE9C0 
  32      83FFFFD7 
  32      4D383675 
  32      0F
  33 0037 E30C2666 		.ascii	"\343\014&f\240\010+CKC\303\004\005\006\206d\260\212"
  33      A0082B43 
  33      4B43C304 
  33      05068664 
  33      B08A
  34 0049 102009D2 		.ascii	"\020 \011\322\026\312\310\004\242\231\31734?\350:\314"
  34      16CAC804 
  34      A299CF33 
  34      343FE83A 
  34      CC
  35 005a 9EC8B890 		.ascii	"\236\310\270\220\221\025(]\315\360\253\241\243A \223"
  35      9115285D 
  35      CDF0ABA1 
  35      A3412093 
  36 006a 11A81C62 		.ascii	"\021\250\034bb&\210\276\310\320\370\240[\031\246\010"
  36      622688BE 
  36      C8D0F8A0 
  36      5B19A608 
  37 007a 02428012 		.ascii	"\002B\200\022@\023@\356\325\325\317\310\317M\325O\316"
  37      401340EE 
  37      D5D5CFC8 
  37      CF4DD54F 
  37      CE
  38 008b 4FA9D44F 		.ascii	"O\251\324OI-\323O\316\310L\312\314/\326/)*\315\313\326"
  38      492DD34F 
  38      CEC84CCA 
  38      CC2FD62F 
  38      292ACDCB 
  39 00a0 07323212 		.ascii	"\00722\022s\364\213\213\222\365\213K\364\222\031\000"
  39      73F48B8B 
  39      92F58B4B 
  39      F4921900 
  40 00b0 B55E328C 		.ascii	"\265^2\214"
  41              		.text
  42              		.section	.gnu.lto_stStartAlarm.e06f04199171b7df,"",%progbits
  43 0000 789C6362 		.ascii	"x\234cb`b@\007\222@<\215\221\201\241\030H32302M8\307"
  43      60624007 
  43      92403C8D 
  43      9181A118 
  43      48333233 
  44 0019 C0D0C8C1 		.ascii	"\300\320\310\301\304\310\010b002\32431\326G2\202\325"
  44      C4C80862 
  44      303032D4 
  44      3331D647 
  44      3282D5
  45 002c AE673AF0 		.ascii	"\256g:\360\340\377\377u\227\216-}\3038\213\011\250&"
  45      E0FFFF75 
  45      978E2D7D 
ARM GAS  /tmp/cc7ltS8o.s 			page 3


  45      C3388B09 
  45      A826
  46 003e 97918185 		.ascii	"\227\221\201\205!\023,\311\312\320\322\3200A\201\201"
  46      21132CC9 
  46      CAD0D2D0 
  46      30418181 
  47 004e 2119CC0D 		.ascii	"!\031\314\015\001\222 \003B\031\231@4\363Y\206\246w"
  47      01922003 
  47      42199940 
  47      34F35986 
  47      A677
  48 0060 87177F5E 		.ascii	"\207\027\177^Y\002W\007a\0348}\355\"+\003C\"\343BFV"
  48      59025707 
  48      611C387D 
  48      ED222B03 
  48      4322E342 
  49 0076 A056B0DE 		.ascii	"\240V\260\336tF\226t\2406\206\263\014\207N\316\231u"
  49      74469674 
  49      A03686B3 
  49      0C874ECE 
  49      9975
  50 0088 BE893D91 		.ascii	"\276\211=\221q\021PV\227aMCKcCd&#\2436\303*\020\323"
  50      71115056 
  50      97614D43 
  50      4B634364 
  50      2623A336 
  51 00a0 3E939169 		.ascii	">\223\221i6\303\254\306\011\015\002\231\214\314\021"
  51      36C3ACC6 
  51      090D0299 
  51      8CCC11
  52 00af 8C998C2C 		.ascii	"\214\231\214,\015@\300\302\000f\202\235\234\00421\221"
  52      0D40C0C2 
  52      0066829D 
  52      9C043231 
  52      91
  53 00c0 7131503F 		.ascii	"q1P?X\224\025\342k\250H:H\025\320\232\035?\226\037d"
  53      589415E2 
  53      6BA8483A 
  53      4815D09A 
  53      1D3F961F 
  54 00d5 86D88230 		.ascii	"\206\330\2020\232\221\240\321\214(F\203\335\0162l\306"
  54      9A91A0D1 
  54      8C284683 
  54      DD0E326C 
  54      C6
  55 00e6 2A720C63 		.ascii	"*r\014cB5\014\024S\027\031\032?<\332\312\002\011\034"
  55      42350C14 
  55      5317191A 
  55      3F3CDACA 
  55      02091C
  56 00f9 1808015A 		.ascii	"\030\010\001Z\004\014Q\220\274\256~F~n\252~r~J\245~"
  56      040C5190 
  56      BCAE7E46 
  56      7E6EAA7E 
  56      727E4AA5 
  57 010e 4A6A997E 		.ascii	"Jj\231~rFfRf~\261~IQi^\266>\220\221\221\230\243_\\\224"
  57      72466652 
ARM GAS  /tmp/cc7ltS8o.s 			page 4


  57      667EB17E 
  57      4951695E 
  57      B63E9091 
  58 0128 AC5F5CA2 		.ascii	"\254_\\\242\227\314\340L\214\352\202\374\242\222b\375"
  58      97CCE04C 
  58      8CEA82FC 
  58      A29262FD 
  59 0138 E0105F63 		.ascii	"\340\020_c#}\037\037\027\375\020O\3372C\240\376\370"
  59      237D1F1F 
  59      17FD104F 
  59      DF3243A0 
  59      FEF8
  60 014a 9C9C14BD 		.ascii	"\234\234\024\275\014\006\000\330\241\217\011"
  60      0C0600D8 
  60      A18F09
  61              		.text
  62              		.section	.gnu.lto_stStopAlarm.e06f04199171b7df,"",%progbits
  63 0000 789C6362 		.ascii	"x\234cb`b@\007\222@|\024\210\213\201\230\221\231\201"
  63      60624007 
  63      92407C14 
  63      888B8198 
  63      919981
  64 0013 9169C239 		.ascii	"\221i\3029\006\206F\016&FF\020\203\201\221\241\236\211"
  64      0686460E 
  64      26464610 
  64      838191A1 
  64      9E89
  65 0025 B13E9211 		.ascii	"\261>\222\021\254v=\323\201\007\377\377\257\373\327"
  65      AC763DD3 
  65      8107FFFF 
  65      AFFBD7
  66 0034 36E70CE3 		.ascii	"6\347\014\343\034&\026\240\010+CKC\303\004\005\006\206"
  66      1C2616A0 
  66      082B434B 
  66      43C30405 
  66      0686
  67 0046 64B08A10 		.ascii	"d\260\212\020 \011\322\026\312\310\004\242\231\3172"
  67      2009D216 
  67      CAC804A2 
  67      99CF32
  68 0055 1CDA3167 		.ascii	"\034\3321g\326\335G\254pu\020\306\201\323O\017\2622"
  68      D6DD47AC 
  68      707510C6 
  68      81D34F0F 
  68      B232
  69 0067 3024322E 		.ascii	"0$2.dd\005j\005\353\325fX\325\320\322\370\340\342\313"
  69      6464056A 
  69      05EBD566 
  69      58D5D0D2 
  69      F8E0E2CB 
  70 007b A9F2998C 		.ascii	"\251\362\231\214\014\263\031f5Nh\020\310dd\214`\314"
  70      0CB31966 
  70      354E6810 
  70      C864648C 
  70      60CC
  71 008d 64646A00 		.ascii	"ddj\000\002\026\0060\023\354\222$\220\226D\306\305@"
  71      02160630 
ARM GAS  /tmp/cc7ltS8o.s 			page 5


  71      13EC9224 
  71      909644C6 
  71      C540
  72 009f ED6051B0 		.ascii	"\355`Q\260\340E\206\306\017\207v\262@L\205\201\020\240"
  72      E04586C6 
  72      0F8776B2 
  72      404C8581 
  72      10A0
  73 00b1 E940A780 		.ascii	"\351@\247\200\264\351\352g\344\347\246\352'\347\247"
  73      B4E9EA67 
  73      E4E7A6EA 
  73      27E7A7
  74 00c0 54EAA7A4 		.ascii	"T\352\247\244\226\351'gd&e\346\027\353\227\024\225\346"
  74      96E92767 
  74      642665E6 
  74      17EB9714 
  74      95E6
  75 00d2 65EB0319 		.ascii	"e\353\003\031\031\2119\372\305E\311\372\305%z\311\014"
  75      198939FA 
  75      C545C9FA 
  75      C5257AC9 
  75      0C
  76 00e3 CEC4A82E 		.ascii	"\316\304\250.\310/*)\326\017\016\36156\322\367\361q"
  76      C82F2A29 
  76      D60F0EF1 
  76      3536D2F7 
  76      F171
  77 00f5 D10FF1F4 		.ascii	"\321\017\361\364-3\004\352\217\317\311I\321\313`\000"
  77      2D3304EA 
  77      8FCFC949 
  77      D1CB6000 
  78 0105 004A0860 		.ascii	"\000J\010`\007"
  78      07
  79              		.text
  80              		.section	.gnu.lto_stSetAlarm.e06f04199171b7df,"",%progbits
  81 0000 789C6362 		.ascii	"x\234cb`b@\007\222@\374\007\210\213\201\230\221\231"
  81      60624007 
  81      9240FC07 
  81      888B8198 
  81      9199
  82 0012 819169C2 		.ascii	"\201\221i\3029\006\206F\016&FF\020\203\201\221\241\236"
  82      39068646 
  82      0E264646 
  82      10838191 
  82      A19E
  83 0024 89B13E92 		.ascii	"\211\261>\222\021\254v=\323\201\007\377\377\257\333"
  83      11AC763D 
  83      D38107FF 
  83      FFAFDB
  84 0033 777CC919 		.ascii	"w|\311\031\306yLlL\214\271\214\014,\014\231`IV\206\226"
  84      C6794C6C 
  84      4C8CB98C 
  84      0C2C0C99 
  84      60495686 
  85 0048 8686090A 		.ascii	"\206\206\011\012\014\014\311`n\010\220\004\031\020\312"
  85      0C0CC960 
  85      6E089004 
ARM GAS  /tmp/cc7ltS8o.s 			page 6


  85      1910CA
  86 0057 C804A299 		.ascii	"\310\004\242\231\31724\275;\274\370\363\232\022\270"
  86      CF3234BD 
  86      3BBCF8F3 
  86      9A12B8
  87 0066 3A08E3C0 		.ascii	":\010\343\300\351\257\033Y\031\030\022\031\0272\262"
  87      E9AF1B59 
  87      19181219 
  87      1732B2
  88 0075 02B582F5 		.ascii	"\002\265\202\365\2463\262\244\003\2651\234e8tr\316\254"
  88      A633B2A4 
  88      03B5319C 
  88      65387472 
  88      CEAC
  89 0087 E74DEC89 		.ascii	"\347M\354\211\214\213\200\262\272\014k\032Z\032\033"
  89      8C8B80B2 
  89      BA0C6B1A 
  89      5A1A1B
  90 0096 22331919 		.ascii	"\"3\031\031\265\031V\201\230\366\231\214L\263\031f5"
  90      B5195681 
  90      98F6998C 
  90      4CB31966 
  90      35
  91 00a7 4E6810C8 		.ascii	"Nh\020\310dd\216`\314ddi\000\002\026\0060\023\354\344"
  91      64648E60 
  91      CC646469 
  91      00021606 
  91      3013ECE4 
  92 00bb 24908989 		.ascii	"$\220\211\211\214\213\201\372\301\242\254\020_CE\322"
  92      8C8B81FA 
  92      C1A2AC10 
  92      5F4345D2 
  93 00cb 41AA2E32 		.ascii	"A\252.24~8\264\227\005\342\004\030\010\001:\005\350"
  93      347E38B4 
  93      9705E204 
  93      1808013A 
  93      05E8
  94 00dd 6E5078E9 		.ascii	"nPx\351\352g\344\347\246\352'\347\247T\352\247\244\226"
  94      EA67E4E7 
  94      A6EA27E7 
  94      A754EAA7 
  94      A496
  95 00ef E9276764 		.ascii	"\351'gd&e\346\027\353\227\024\225\346e\353\003\031\031"
  95      2665E617 
  95      EB971495 
  95      E665EB03 
  95      1919
  96 0101 8939FAC5 		.ascii	"\2119\372\305E\311\372\305%z\311\014\316\304\250.\310"
  96      45C9FAC5 
  96      257AC90C 
  96      CEC4A82E 
  96      C8
  97 0112 2F2A29D6 		.ascii	"/*)\326\017\016\36156\322\367\361q\321\017\361\364-"
  97      0F0EF135 
  97      36D2F7F1 
  97      71D10FF1 
  97      F42D
ARM GAS  /tmp/cc7ltS8o.s 			page 7


  98 0124 3304EA8F 		.ascii	"3\004\352\217\317\311I\321\313`\000\000sXk\030"
  98      CFC949D1 
  98      CB600000 
  98      73586B18 
  99              		.text
 100              		.section	.gnu.lto_stGetAlarm.e06f04199171b7df,"",%progbits
 101 0000 789C6362 		.ascii	"x\234cb`b@\007\222@\374\007\210\213\201\230\221\231"
 101      60624007 
 101      9240FC07 
 101      888B8198 
 101      9199
 102 0012 819169C2 		.ascii	"\201\221i\3029\006\206F\016&FF\020\203\201\221\241\236"
 102      39068646 
 102      0E264646 
 102      10838191 
 102      A19E
 103 0024 89B13E92 		.ascii	"\211\261>\222\021\254v=\323\201\007\377\377\257\373"
 103      11AC763D 
 103      D38107FF 
 103      FFAFFB
 104 0033 D73EEF0C 		.ascii	"\327>\357\014\343\012&Vf\206LF\006\026 \001\222eehi"
 104      E30A2656 
 104      66864C46 
 104      06162001 
 104      92656568 
 105 0048 6898A0C0 		.ascii	"h\230\240\300\300\220\014V\033\002$A\006\20422\201h"
 105      C0900C56 
 105      1B022441 
 105      06843232 
 105      8168
 106 005a E6B30C87 		.ascii	"\346\263\014\207\356\314\231\365\365\021'\\\035\204"
 106      EECC99F5 
 106      F511275C 
 106      1D84
 107 0068 71E0F451 		.ascii	"q\340\364Q#\006\206D\306\205\214\254@\235`\255\351\214"
 107      23068644 
 107      C6858CAC 
 107      409D60AD 
 107      E98C
 108 007a CCBA0C6B 		.ascii	"\314\272\014k\032Z\032\037\\\\9\335/\223\221I\233a\025"
 108      1A5A1A1F 
 108      5C5C39DD 
 108      2F939149 
 108      9B6115
 109 008d 90D73099 		.ascii	"\220\3270\2311\223\221y6\303\254\306\011\015\002\231"
 109      31939179 
 109      36C3ACC6 
 109      090D0299 
 110 009d 8C2C1140 		.ascii	"\214,\021@.k\003\020\2600\200\231`\027&\201LHd\\\014"
 110      2E6B0310 
 110      B0308099 
 110      60172681 
 110      4C48645C 
 111 00b2 E28244D9 		.ascii	"\342\202D\331 \236\204\21200\234ehz\327\314\227\310"
 111      209E848A 
 111      30309C65 
 111      687AD7CC 
ARM GAS  /tmp/cc7ltS8o.s 			page 8


 111      97C8
 112 00c4 B808C84D 		.ascii	"\270\010\310Mgd\001Z\305\300p\221\241q\303\246@\210"
 112      6764015A 
 112      C5C07091 
 112      A171C3A6 
 112      4088
 113 00d6 13806210 		.ascii	"\023\200b\020\035!@\267\000\335\015\012/]\375\214\374"
 113      1D2140B7 
 113      00DD0D0A 
 113      2F5DFD8C 
 113      FC
 114 00e7 DC54FDE4 		.ascii	"\334T\375\344\374\224J\375\224\3242\375\344\214\314"
 114      FC944AFD 
 114      94D432FD 
 114      E48CCC
 115 00f6 A4CCFC62 		.ascii	"\244\314\374b\375\222\242\322\274l} ##1G\277\270(Y\277"
 115      FD92A2D2 
 115      BC6C7D20 
 115      23233147 
 115      BFB82859 
 116 010b B8442F99 		.ascii	"\270D/\231\301\231\030\325\005\371E%\305\372\301!\276"
 116      C19918D5 
 116      05F94525 
 116      C5FAC121 
 116      BE
 117 011c C646FA3E 		.ascii	"\306F\372>>.\372!\236\276e\206@\375\36199)z\031\014"
 117      3E2EFA21 
 117      9EBE6586 
 117      40FDF139 
 117      39297A19 
 118 0131 00A6596A 		.ascii	"\000\246Yjl"
 118      6C
 119              		.text
 120              		.section	.gnu.lto_.symbol_nodes.e06f04199171b7df,"",%progbits
 121 0000 789C4DC7 		.ascii	"x\234M\307\301\015@@\024E\321w\377\230J\025\362&\261"
 121      C10D4040 
 121      1445D177 
 121      FF984A15 
 121      F226B1
 122 0013 B1548176 		.ascii	"\261T\201v\030D\015*\021\013\022sv'\024\352\365\211"
 122      18440D2A 
 122      110B1273 
 122      762714EA 
 122      F589
 123 0025 054BD329 		.ascii	"\005K\323)\331\363H\254\230\246\025G\323\015\247\246"
 123      D9F348AC 
 123      98A61547 
 123      D30DA7A6 
 124 0035 3BEEFE72 		.ascii	";\356\376r\340\374\266\024\222\262\206\353F\017($\037"
 124      E0FCB614 
 124      92B286EB 
 124      460F2824 
 124      1F
 125 0046 12       		.ascii	"\022"
 126              		.text
 127              		.section	.gnu.lto_.refs.e06f04199171b7df,"",%progbits
 128 0000 789C6362 		.ascii	"x\234cb`b`d\200\002\000\000F\000\006"
ARM GAS  /tmp/cc7ltS8o.s 			page 9


 128      60626064 
 128      80020000 
 128      460006
 129              		.text
 130              		.section	.gnu.lto_.decls.e06f04199171b7df,"",%progbits
 131 0000 789CB597 		.ascii	"x\234\265\227\177l\024E\024\307gv\217\266G\233\322\222"
 131      7F6C1445 
 131      14C76776 
 131      8FB6479B 
 131      D292
 132 0012 4830FE41 		.ascii	"H0\376A1`\010\011,-\206\350?\010^\021H(\222mIH\374\343"
 132      31600809 
 132      2C2D86E8 
 132      3F085E11 
 132      4828926D 
 133 002a 58DAD35E 		.ascii	"X\332\323^l\357\232\273-\006\377\232\322RI\221\344\370"
 133      6CEF9ABB 
 133      2D06FF9A 
 133      D2524991 
 133      E4F8
 134 003c A13606E1 		.ascii	"\2416\006\341\370UhB\002\301\246Z\244\364\370M\2546"
 134      F8556842 
 134      02C1A65A 
 134      A4F4F84D 
 134      AC36
 135 004e 021AD312 		.ascii	"\002\032\323\022\365D\015\212\222\326\020B\210\300\372"
 135      F5440D8A 
 135      92D61042 
 135      88C0FA
 136 005d 6676F66E 		.ascii	"fv\366nw\273K\3670n\362^\347\246\357}\346;ogvg\005$"
 136      77BB4BF7 
 136      306EF25E 
 136      E7A6EF7D 
 136      E63B6F67 
 137 0075 A0368C90 		.ascii	"\2406\214\220\006\327\363\245\010\275+ \224\207\020"
 137      06D7F3A5 
 137      08BD2B20 
 137      948710
 138 0084 5A8CB217 		.ascii	"Z\214\262\027\375\275\037\254\013\254\027\254\017\254"
 138      FDBD1FAC 
 138      0BAC17AC 
 138      0FAC
 139 0092 1FEC2C1A 		.ascii	"\037\354,\032\177\3218@\240\363`\007x\237\300\373\235"
 139      7FD13840 
 139      A0F36007 
 139      789FC0FB 
 139      9D
 140 00a3 E2BB383F 		.ascii	"\342\2738?\037\354\002\330 \330\020\330c0\037\230\010"
 140      1FEC02D8 
 140      20D810D8 
 140      63301F98 
 140      08
 141 00b4 7607EC06 		.ascii	"v\007\354\006\3300g\321\034\015\014d\243Om\274^\236"
 141      D83067D1 
 141      1C0D0C64 
 141      A34F6DBC 
 141      5E9E
ARM GAS  /tmp/cc7ltS8o.s 			page 10


 142 00c6 73C1C4C1 		.ascii	"s\301\304\301\246\\\366\177<^G\337\004:0\327!\030\261"
 142      A65CF67F 
 142      3C5E47DF 
 142      043A30D7 
 142      2118B1
 143 00d9 58EFFBC2 		.ascii	"X\357\373\302\306\351\347\014j\335\036X4~\262\203\236"
 143      C6E9E70C 
 143      6ADD1E58 
 143      347EB283 
 143      9E
 144 00ea 19682F49 		.ascii	"\031h/I\246\323[n\236x\226$7\2474\355\0254\015}@\340"
 144      A6D35B6E 
 144      9E789624 
 144      37A734ED 
 144      15340D7D 
 145 0100 4AB61382 		.ascii	"J\266\023\202U\005/~\006\255\303\012.\366\2432\326("
 145      55052F7E 
 145      06ADC30A 
 145      2EF6A332 
 145      D628
 146 0112 F2333842 		.ascii	"\36238B\012>\200\247\361\326ZQ\307\011h\001FsQ7\344"
 146      0A3E80A7 
 146      F1D65A51 
 146      C7096801 
 146      46735137 
 147 0127 2708B9F9 		.ascii	"'\010\271\371\334\370\001\341z\001\035\246\003\220\243"
 147      DCF801E1 
 147      7A011DA6 
 147      0390A3
 148 0136 4464780A 		.ascii	"Ddx\012\330\217g\230C\024|\020\013v\235\351\261\324"
 148      D88F6798 
 148      43147C10 
 148      0B769DE9 
 148      B1D4
 149 0148 B54B4589 		.ascii	"\265KE\211\226\264\246\315\360.\362\010\027)\262: ?"
 149      96B4A6CD 
 149      F02EF208 
 149      1729B23A 
 149      203F
 150 015a DA4AC866 		.ascii	"\332J\310fB\332\311\234\243\305\310\310*1\262h\314l"
 150      42DAC99C 
 150      A3C5C8C8 
 150      2A31B268 
 150      CC6C
 151 016c 7408E4A7 		.ascii	"t\010\344\247\037\365]\027\010)Pp7\246\375\357`\200"
 151      1FF55D17 
 151      08295070 
 151      37A6FDEF 
 151      6080
 152 017e 1DC273B9 		.ascii	"\035\302s\271 \317\234\344\256\216i\304\247\340c\214"
 152      20CF9CE4 
 152      AE8E69C4 
 152      A7E0638C 
 153 018e D2859F12 		.ascii	"\322\205\237\022\223\036\330v\344e&\3478\003\375j\003"
 153      931ED876 
 153      E46526E7 
 153      3803FD6A 
ARM GAS  /tmp/cc7ltS8o.s 			page 11


 153      03
 154 019f 2958F45B 		.ascii	")X\364[+\010\277\215\000Jc\377\346\015M\023\321\377"
 154      2B08BF8D 
 154      004A63FF 
 154      E60D4D13 
 154      D1FF
 155 01b1 189C5D0F 		.ascii	"\030\234]\017lI\214\332\244\316B\007\011\331\231>|\373"
 155      6C498CDA 
 155      A4CE4207 
 155      09D9993E 
 155      7CFB
 156 01c3 77B193A4 		.ascii	"w\261\223\244\004\243\300\017YX\027,\004\247*\350Q\331"
 156      04A3C00F 
 156      5958172C 
 156      04A72AE8 
 156      51D9
 157 01d5 D5B39D6C 		.ascii	"\325\263\235l)\301\231\345\323e_>'\035\227\317cc\371"
 157      29C199E5 
 157      D3655F3E 
 157      271D97CF 
 157      6363F9
 158 01e8 E86B5740 		.ascii	"\350kW@-\202U\232\363\342\354\265\323?s\244\237\271"
 158      2D82559A 
 158      F3E2ECB5 
 158      D33F73A4 
 158      9FB9
 159 01fa 9CA11F61 		.ascii	"\234\241\037a\364\355\202\323\304\311\375\365s\364\331"
 159      F4ED82D3 
 159      C4C9FDF5 
 159      73F4D9
 160 0209 28B80740 		.ascii	"(\270\007@\012\356{\2529\367\331U\235rT\245]\336\356"
 160      0AEE7BAA 
 160      39F7D955 
 160      9D7254A5 
 160      5DDEEE
 161 021c B6B529DD 		.ascii	"\266\265)\335m\333\234q\330\333\235\316\325\332LN\034"
 161      6DDB9C71 
 161      D8DB9DCE 
 161      D5DA4C4E 
 161      1C
 162 022d 25930CB1 		.ascii	"%\223\014\261\012\356w\231\016\347\0158\310L\244?\332"
 162      0AEE7799 
 162      0EE70D38 
 162      C84CA43F 
 162      DA
 163 023e 35DA8277 		.ascii	"5\332\202w\264&\257\2201M\233\202\214\033tk\334\220"
 163      B426AF90 
 163      314D9B82 
 163      8C1B746B 
 163      DC90
 164 0250 3AE49C15 		.ascii	":\344\234\025R\210:\250\016\230\330\212+\305z\256\333"
 164      52883AA8 
 164      0E98D88A 
 164      2BC57AAE 
 164      DB
 165 0261 C4CEE342 		.ascii	"\304\316\343B#\213m\276V\236\205\0343\370\346\333\325"
 165      238B6DBE 
ARM GAS  /tmp/cc7ltS8o.s 			page 12


 165      569E851C 
 165      33F8E6DB 
 165      D5
 166 0272 71F12C86 		.ascii	"q\361,\206m\212\371~}R\212\202/\342\331\340\363\255"
 166      6D8AF97E 
 166      7D528A82 
 166      2FE2D9E0 
 166      F3AD
 167 0284 BB24DF9F 		.ascii	"\273$\337\237m\320\267\340\024Z\321\273\202\343\343"
 167      6DD0B7E0 
 167      145AD1BB 
 167      82E3E3
 168 0293 C083A281 		.ascii	"\300\203\242\201m\247\365\307\301\025}\363\010\366\307"
 168      6DA7F5C7 
 168      C1157DF3 
 168      08F6C7
 169 02a2 41BEED71 		.ascii	"A\276\355q0\261\234\034\303KQ\202.\2462Z\360\013\331"
 169      30B19C1C 
 169      C34B5182 
 169      2EA6325A 
 169      F00BD9
 170 02b5 9544B0A1 		.ascii	"\225D\260\241\266\204\241\314a\227\334\303\024\374\025"
 170      B684A1CC 
 170      6197DCC3 
 170      14FC15
 171 02c4 2ECDD680 		.ascii	".\315\326\200d\356e\221\373\032\375Z\337\035Fw\246!"
 171      64EE6591 
 171      FB1AFD5A 
 171      DF1D4677 
 171      A621
 172 02d6 5A666244 		.ascii	"ZfbD\241\251h\007W\222\251,\3113r\326gK\273o\344\336"
 172      A1A96807 
 172      5792A92C 
 172      C93372D6 
 172      674BBB6F 
 173 02ec 2256DA21 		.ascii	"\"V\332!<\025J;$ZK;!\206\016z\025R\365$\006%\251G#E"
 173      3C154A3B 
 173      245A4B3B 
 173      21860E7A 
 173      1552F524 
 174 0306 F42D40FB 		.ascii	"\364-@\373\221\303\212\346\327L\224$m\255)md\017\354"
 174      91C38AE6 
 174      D74C9424 
 174      6DAD296D 
 174      640FEC
 175 0319 D973582F 		.ascii	"\331sX/\254\200F\230\004\232\353T\212\314\364\215Z\024"
 175      AC804698 
 175      049AEB54 
 175      8ACCF48D 
 175      5A14
 176 032b FB6DBCC4 		.ascii	"\373m\274\304\215\242\204b\300~\314\031Vf\201\3554\303"
 176      8DA28462 
 176      C07ECC19 
 176      566681ED 
 176      34C3
 177 033d 6E7A8115 		.ascii	"nz\201\025\270+\333m\206\335\312\031fU\366\241\031\366"
 177      B82BDB6D 
ARM GAS  /tmp/cc7ltS8o.s 			page 13


 177      86DDCA19 
 177      6655F6A1 
 177      19F6
 178 034f 97175889 		.ascii	"\227\027X\211\273\262N3l4g\230U\331\307f\330]/\260\351"
 178      BBB24E33 
 178      6C346798 
 178      55D9C766 
 178      D85D2FB0 
 179 0364 EECAF698 		.ascii	"\356\312\366\230a\017r\206Y\225\3555\3034/\2602we'\314"
 179      610F7286 
 179      5995ED35 
 179      C3342FB0 
 179      32776527 
 180 0379 B0365FAE 		.ascii	"\2606_\2560\253\262\223f\330V/\2609\356\312z\314\260"
 180      30ABB293 
 180      66D8562F 
 180      B039EECA 
 180      7ACCB0
 181 038c F7738659 		.ascii	"\367s\206Y\225\365\232a\011/\260\005n\312ZR\237\277"
 181      95F59A61 
 181      092FB005 
 181      6ECA5A52 
 181      9FBF
 182 039e 415983F0 		.ascii	"AY\203\360\360\023\320n;\313\372\224t\202Y\225\2352"
 182      F013D06E 
 182      3BCBFA94 
 182      74825995 
 182      9D32
 183 03b0 2BEBF4A2 		.ascii	"+\353\364\242l\211;\354\264\031\366\211\027\330\012"
 183      6C893BEC 
 183      B419F689 
 183      17D80A
 184 03bf F71B70C6 		.ascii	"\367\033p\306\014\333\2373\314\252\354\0333\254\313"
 184      0CDB9F33 
 184      CCAAEC1B 
 184      33ACCB
 185 03ce 0B6C8DBB 		.ascii	"\013l\215\273\262kfXw\3160\263\262\226\324\267p7\371"
 185      B26B6658 
 185      77CE30B3 
 185      B296D4B7 
 185      7037F9
 186 03e1 1B2FB9C4 		.ascii	"\033/\271\304\366f\\b}\204Y\302.\271\206)\370\237\234"
 186      F6665C62 
 186      7D8459C2 
 186      2EB98629 
 186      F89F9C
 187 03f4 5F8C0F5D 		.ascii	"_\214\017]^\214\346\017\300l\024L\373\270}\332\026\021"
 187      5E8CE60F 
 187      C06C144C 
 187      FBB87DDA 
 187      1611
 188 0406 BCB9CEA1 		.ascii	"\274\271\316\241\206N\227\371\355\247\340k\3540t\035"
 188      864E97F9 
 188      EDA7E06B 
 188      EC30741D 
 189 0416 CF04FF1D 		.ascii	"\317\004\377\035\363\3373?\314\374\015\346\177`\376"
 189      F3DF333F 
ARM GAS  /tmp/cc7ltS8o.s 			page 14


 189      CCFC0DE6 
 189      7F60FE
 190 0425 27E67F66 		.ascii	"'\346\177f\376\027\346\177c\376\026\363\1770\377'\363"
 190      FE17E67F 
 190      63FE16F3 
 190      7F30FF27 
 190      F3
 191 0436 77981F65 		.ascii	"w\230\037e\376o\346\3572\177\217\371\373\314?\000\237"
 191      FE6FE6EF 
 191      327F8FF9 
 191      FBCC3F00 
 191      9F
 192 0447 B96CE7C3 		.ascii	"\271l\347\303!\227\373K\265?\316\236\017\351\32145\006"
 192      2197FB4B 
 192      B53FCE9E 
 192      0FE9D134 
 192      3506
 193 0459 47D3A173 		.ascii	"G\323\241sxg+\321\217\246\311\002\343x\337\343s<\336"
 193      78672BD1 
 193      8FA6C902 
 193      E378DFE3 
 193      733CDE
 194 046c 5F576CC7 		.ascii	"_Wl\307{\315\343\361~\230\254\231\2369\335k\366\323"
 194      7BCDE3F1 
 194      7E98AC99 
 194      9E39DD6B 
 194      F6D3
 195 047e 3D11C61D 		.ascii	"=\021\306\035\233Sc\251\261/\365o\216}\251\022\343\310"
 195      9B5363A9 
 195      B12FF56F 
 195      8E7DA912 
 195      E3C8
 196 0490 7CD926CB 		.ascii	"|\331&\313\371\233\246U\260\361\333\034\371\235\203"
 196      F99BA655 
 196      B0F1DB1C 
 196      F99D83
 197 049f 26BE3EED 		.ascii	"&\276>\355a\347i\017\330\247\335.<\305\264\333\355\262"
 197      61E7690F 
 197      D8A7DD2E 
 197      3CC5B4DB 
 197      EDB2
 198 04b1 DE739475 		.ascii	"\336s\224uup\017\377\250\031 3\371\327\212\200n;\317"
 198      75700FFF 
 198      A8192033 
 198      F9D78A80 
 198      6E3BCF
 199 04c4 DCFE7DD2 		.ascii	"\334\376}\322\341\"\214\217\270\315:\"\232'\325G\033"
 199      E1228C8F 
 199      B8CD3A22 
 199      9A27D547 
 199      1B
 200 04d5 43526DB4 		.ascii	"CRm\264n\223T\027\332(\325\326\2077\204\243qI\2155G"
 200      6E935417 
 200      DA28D5D6 
 200      873784A3 
 200      71498D35 
 201 04ea DE96A051 		.ascii	"\336\226\240Q\2574H\361X\255\024W\347\327\242\274\270"
ARM GAS  /tmp/cc7ltS8o.s 			page 15


 201      AF3448F1 
 201      58AD1457 
 201      E7D7A2BC 
 201      B8
 202 04fb BA321256 		.ascii	"\2722\022V\363\226\257^[\026@/M\224\033S\245p\244\266"
 202      F396AF5E 
 202      5B16402F 
 202      4D941B53 
 202      A570A4B6 
 203 050f A1B90E82 		.ascii	"\241\271\016\202\352\343\233\342\352\246\246P|~=\362"
 203      EAE39BE2 
 203      EAA6A650 
 203      7C7E3DF2 
 204 051f D376B831 		.ascii	"\323v\2701\024TgI\315\361\230\244\304\032\347E\242\221"
 204      14546749 
 204      CDF198A4 
 204      C41AE745 
 204      A291
 205 0531 D0BC90B2 		.ascii	"\320\274\220\262!\234I\211\253u\341\210\012\341\005"
 205      219C4989 
 205      AB75E188 
 205      0AE105
 206 0540 CDF0B77C 		.ascii	"\315\360\267|QP}\361\011\321\215\012\014\037\011I\301"
 206      51507DF1 
 206      09D18D0A 
 206      0C1F0949 
 206      C1
 207 0551 BAD09B4A 		.ascii	"\272\320\233Js\203\0324\006\233\034\014\032\371Eq\265"
 207      73831A34 
 207      069B1C0C 
 207      1AF94571 
 207      B5
 208 0562 5A5562EA 		.ascii	"ZUb\352\322\006`\370\250\202B\332\023mb\035\223\241"
 208      D20660F8 
 208      A88242DA 
 208      136D621D 
 208      93A1
 209 0574 1D528DE6 		.ascii	"\035R\215\346r\336\014x)PS4\246\306\245\352\232\252"
 209      72DE0C78 
 209      29505334 
 209      A6C6A5EA 
 209      9AAA
 210 0586 8515D2AA 		.ascii	"\205\025\322\252U\225R\315\312\252\215\3450\201`CC\035"
 210      559552CD 
 210      CAAA8DE5 
 210      30816043 
 210      431D
 211 0598 4828D45B 		.ascii	"H(\324[\3010\324\216MfaEP\345\272h\363\265\3772F#%\204"
 211      C130D48E 
 211      4D666145 
 211      50E5BA68 
 211      F3B5FF32 
 212 05b0 1BF561F8 		.ascii	"\033\365a\370\217\240*\006\344r\260\012_uU@\366U\256"
 212      8FA02A06 
 212      E472B00A 
 212      5F755540 
 212      F655AE
ARM GAS  /tmp/cc7ltS8o.s 			page 16


 213 05c3 5C260BD5 		.ascii	"\\&\013\325\262\270l\271<)\020\250\222\313\231\257\360"
 213      B2B86CB9 
 213      3C2910A8 
 213      92CB99AF 
 213      F0
 214 05d4 0502CB64 		.ascii	"\005\002\313d1\260\272F\\S\035\020\227\312\262(\007"
 214      31B0BA46 
 214      5C531D10 
 214      97CAB228 
 214      07
 215 05e5 E03724BC 		.ascii	"\3407$\274ZY#\213\2254\263j\251,\274\256g-\204\370u"
 215      5A59238B 
 215      9534B36A 
 215      A92CBCAE 
 215      672D84F8 
 216 05fa F2543E99 		.ascii	"\362T>\2318\255dP\2415*\315tE\233\364\236\022\243'\244"
 216      38AD6450 
 216      A1352ACD 
 216      74459BF4 
 216      9E12A327 
 217 060f 5A3BDE32 		.ascii	"Z;\3362:\376\005\240\"\037Y"
 217      3AFE05A0 
 217      221F59
 218              		.text
 219              		.section	.gnu.lto_.symtab.e06f04199171b7df,"",%progbits
 220 0000 7374496E 		.ascii	"stInit\000\000\000\000\000\000\000\000\000\000\000\000"
 220      69740000 
 220      00000000 
 220      00000000 
 220      0000
 221 0012 A1000000 		.ascii	"\241\000\000\000stStartAlarm\000\000\000\000\000\000"
 221      73745374 
 221      61727441 
 221      6C61726D 
 221      00000000 
 222 0028 00000000 		.ascii	"\000\000\000\000\000\000\246\000\000\000stStopAlarm"
 222      0000A600 
 222      00007374 
 222      53746F70 
 222      416C6172 
 223 003d 00000000 		.ascii	"\000\000\000\000\000\000\000\000\000\000\000\000\266"
 223      00000000 
 223      00000000 
 223      B6
 224 004a 00000073 		.ascii	"\000\000\000stSetAlarm\000\000\000\000\000\000\000\000"
 224      74536574 
 224      416C6172 
 224      6D000000 
 224      00000000 
 225 005f 00000000 		.ascii	"\000\000\000\000\271\000\000\000stGetAlarm\000\000\000"
 225      B9000000 
 225      73744765 
 225      74416C61 
 225      726D0000 
 226 0074 00000000 		.ascii	"\000\000\000\000\000\000\000\000\000\275\000\000\000"
 226      00000000 
 226      00BD0000 
ARM GAS  /tmp/cc7ltS8o.s 			page 17


 226      00
 227 0081 73745F6C 		.ascii	"st_lld_init\000\000\002\000\000\000\000\000\000\000"
 227      6C645F69 
 227      6E697400 
 227      00020000 
 227      00000000 
 228 0096 0000C100 		.ascii	"\000\000\301\000\000\000"
 228      0000
 229              		.text
 230              		.section	.gnu.lto_.opts,"",%progbits
 231 0000 272D6D63 		.ascii	"'-mcpu=cortex-m3' '-mno-thumb-interwork' '-mthumb' "
 231      70753D63 
 231      6F727465 
 231      782D6D33 
 231      2720272D 
 232 0033 272D4F32 		.ascii	"'-O2' '-fomit-frame-pointer' '-falign-functions=16'"
 232      2720272D 
 232      666F6D69 
 232      742D6672 
 232      616D652D 
 233 0066 20272D66 		.ascii	" '-ffunction-sections' '-fdata-sections' '-fno-comm"
 233      66756E63 
 233      74696F6E 
 233      2D736563 
 233      74696F6E 
 234 0099 6F6E2720 		.ascii	"on' '-flto'\000"
 234      272D666C 
 234      746F2700 
 235              		.text
 236              		.section	.text.stInit,"ax",%progbits
 237              		.align	2
 238              		.p2align 4,,15
 239              		.global	stInit
 240              		.thumb
 241              		.thumb_func
 242              		.type	stInit, %function
 243              	stInit:
 244              		@ args = 0, pretend = 0, frame = 0
 245              		@ frame_needed = 0, uses_anonymous_args = 0
 246              		@ link register save eliminated.
 247 0000 FFF7FEBF 		b	st_lld_init
 248              		.size	stInit, .-stInit
 249 0004 AFF30080 		.section	.text.stStartAlarm,"ax",%progbits
 249      AFF30080 
 249      AFF30080 
 250              		.align	2
 251              		.p2align 4,,15
 252              		.global	stStartAlarm
 253              		.thumb
 254              		.thumb_func
 255              		.type	stStartAlarm, %function
 256              	stStartAlarm:
 257              		@ args = 0, pretend = 0, frame = 0
 258              		@ frame_needed = 0, uses_anonymous_args = 0
 259              		@ link register save eliminated.
 260 0000 4FF08043 		mov	r3, #1073741824
 261 0004 0021     		movs	r1, #0
ARM GAS  /tmp/cc7ltS8o.s 			page 18


 262 0006 0222     		movs	r2, #2
 263 0008 5863     		str	r0, [r3, #52]
 264 000a 1961     		str	r1, [r3, #16]
 265 000c DA60     		str	r2, [r3, #12]
 266 000e 7047     		bx	lr
 267              		.size	stStartAlarm, .-stStartAlarm
 268              		.section	.text.stStopAlarm,"ax",%progbits
 269              		.align	2
 270              		.p2align 4,,15
 271              		.global	stStopAlarm
 272              		.thumb
 273              		.thumb_func
 274              		.type	stStopAlarm, %function
 275              	stStopAlarm:
 276              		@ args = 0, pretend = 0, frame = 0
 277              		@ frame_needed = 0, uses_anonymous_args = 0
 278              		@ link register save eliminated.
 279 0000 4FF08043 		mov	r3, #1073741824
 280 0004 0022     		movs	r2, #0
 281 0006 DA60     		str	r2, [r3, #12]
 282 0008 7047     		bx	lr
 283              		.size	stStopAlarm, .-stStopAlarm
 284 000a 00BFAFF3 		.section	.text.stSetAlarm,"ax",%progbits
 284      0080
 285              		.align	2
 286              		.p2align 4,,15
 287              		.global	stSetAlarm
 288              		.thumb
 289              		.thumb_func
 290              		.type	stSetAlarm, %function
 291              	stSetAlarm:
 292              		@ args = 0, pretend = 0, frame = 0
 293              		@ frame_needed = 0, uses_anonymous_args = 0
 294              		@ link register save eliminated.
 295 0000 4FF08043 		mov	r3, #1073741824
 296 0004 5863     		str	r0, [r3, #52]
 297 0006 7047     		bx	lr
 298              		.size	stSetAlarm, .-stSetAlarm
 299 0008 AFF30080 		.section	.text.stGetAlarm,"ax",%progbits
 299      AFF30080 
 300              		.align	2
 301              		.p2align 4,,15
 302              		.global	stGetAlarm
 303              		.thumb
 304              		.thumb_func
 305              		.type	stGetAlarm, %function
 306              	stGetAlarm:
 307              		@ args = 0, pretend = 0, frame = 0
 308              		@ frame_needed = 0, uses_anonymous_args = 0
 309              		@ link register save eliminated.
 310 0000 4FF08043 		mov	r3, #1073741824
 311 0004 586B     		ldr	r0, [r3, #52]
 312 0006 80B2     		uxth	r0, r0
 313 0008 7047     		bx	lr
 314              		.size	stGetAlarm, .-stGetAlarm
 315              		.comm	__gnu_lto_v1,1,1
 316 000a 00BFAFF3 		.ident	"GCC: (GNU Tools for ARM Embedded Processors) 4.8.4 20140526 (release) [ARM/embedded-4_8-br
ARM GAS  /tmp/cc7ltS8o.s 			page 19


 316      0080
ARM GAS  /tmp/cc7ltS8o.s 			page 20

