ARM GAS  /tmp/ccAxfYr9.s 			page 1


   1              		.syntax unified
   2              		.cpu cortex-m3
   3              		.fpu softvfp
   4              		.eabi_attribute 20, 1
   5              		.eabi_attribute 21, 1
   6              		.eabi_attribute 23, 3
   7              		.eabi_attribute 24, 1
   8              		.eabi_attribute 25, 1
   9              		.eabi_attribute 26, 1
  10              		.eabi_attribute 30, 2
  11              		.eabi_attribute 34, 1
  12              		.eabi_attribute 18, 4
  13              		.thumb
  14              		.file	"st_lld.c"
  15              		.section	.gnu.lto_.jmpfuncs.fda269bcaec8b69b,"",%progbits
  16 0000 789C6362 		.ascii	"x\234cb`b\300\006\244\2414X\226\221\201\211)\2021\223"
  16      6062C006 
  16      A4A13458 
  16      96918189 
  16      29823193 
  17 0014 91410628 		.ascii	"\221A\006(\000fp\000E\001\031\363\001\323"
  17      00667000 
  17      450119F3 
  17      01D3
  18              		.text
  19              		.section	.gnu.lto_.inline.fda269bcaec8b69b,"",%progbits
  20 0000 789C6362 		.ascii	"x\234cb`b\300\006\254\2404P\226C\222\221\201\211\355"
  20      6062C006 
  20      ACA03450 
  20      96439291 
  20      8189ED
  21 0013 831E03DB 		.ascii	"\203\036\003\333\002y\260bF.8\301 \010\222\024\373\260"
  21      0279B062 
  21      462E38C1 
  21      20089214 
  21      FBB0
  22 0025 9A112ECB 		.ascii	"\232\021.\313\314\003\326\305\000\000\250.\005\036"
  22      CC03D6C5 
  22      0000A82E 
  22      051E
  23              		.text
  24              		.section	.gnu.lto_.pureconst.fda269bcaec8b69b,"",%progbits
  25 0000 789C6362 		.ascii	"x\234cb`b`e\200\000&\006+F)\000\001f\000a"
  25      60626065 
  25      80002606 
  25      2B462900 
  25      01660061 
  26              		.text
  27              		.section	.gnu.lto_VectorB0.fda269bcaec8b69b,"",%progbits
  28 0000 789C8D50 		.ascii	"x\234\215P=K\003A\020\235\331$*Vim$\215\225\037\353"
  28      3D4B0341 
  28      109DD924 
  28      2A56696D 
  28      248D951F 
  29 0015 C70F5050 		.ascii	"\307\017PP\204@\322\230\010Z\311es\220\305$'w\0271X"
  29      8440D298 
  29      085AC965 
ARM GAS  /tmp/ccAxfYr9.s 			page 2


  29      7390C524 
  29      27771731 
  30 002a E4A20145 		.ascii	"\344\242\001EER\006ED\004\301\017\214\244J\031\024+"
  30      45520645 
  30      4404C10F 
  30      8CA44A19 
  30      142B
  31 003c 63C4C65A 		.ascii	"c\304\306Z\305\037\240\2266\272\267\027\217`c\026v\346"
  31      C51FA096 
  31      36BAB717 
  31      8F606316 
  31      76E6
  32 004e 313BF3DE 		.ascii	"1;\363\336\233%@\340\357\351\021\367\012\001\236DF\017"
  32      9B2540E0 
  32      EFE911F7 
  32      0A019E44 
  32      460F
  33 0060 20293600 		.ascii	" )6\000\362]\004\321\006\200\220#\230\233G\331[&\265"
  33      F25D04D1 
  33      06809023 
  33      989B47D9 
  33      5B26B5
  34 0073 E7EFEFCB 		.ascii	"\347\357\357\313\317\255\303:^\220nQ\361A\301\262\212"
  34      CFADC33A 
  34      5E906E51 
  34      F141C1B2 
  34      8A
  35 0084 0100263B 		.ascii	"\001\000&;\242\"\332c\263H\354\354\271\207\353j\265"
  35      A222DA63 
  35      B348ECEC 
  35      B987EB6A 
  35      B5
  36 0095 FC42143C 		.ascii	"\374B\024<B\037\364\303\231U\310[\343\034a\037\366\220"
  36      421FF4C3 
  36      9955C85B 
  36      E31C611F 
  36      F690
  37 00a7 23CE8940 		.ascii	"#\316\211@,q\274 \241T\2119b\262\"A\003\326>vo*;\036"
  37      2C71BC20 
  37      A1548939 
  37      62B22241 
  37      03D63E76 
  38 00bf 57CDE193 		.ascii	"W\315\341\223\366\0206\204m1\351q\226\353\205\022\036"
  38      F6103684 
  38      6D31E971 
  38      96EB8512 
  38      1E
  39 00d0 58A5092E 		.ascii	"X\245\011.\252M\022o\300F\356\373~\363\335\347\310<"
  39      AA4D126F 
  39      C046EEFB 
  39      7EF3DDE7 
  39      C83C
  40 00e2 C0FAFBDD 		.ascii	"\300\372\373\335\355\361\316\240\313\356\200\332\366"
  40      EDF1CEA0 
  40      CBEE80DA 
  40      F6
  41 00ef DBABEF57 		.ascii	"\333\253\357W\212a\323\324*|Y\233\226\237c\007C\261"
ARM GAS  /tmp/ccAxfYr9.s 			page 3


  41      8A61D3D4 
  41      2A7C599B 
  41      969F6307 
  41      43B1
  42 0101 D6B9C3C2 		.ascii	"\326\271\303\302\261\263]\233\012\236\010 mA\213-\005"
  42      B1B35D9B 
  42      0A9E0820 
  42      6D418B2D 
  42      05
  43 0112 4FB1D735 		.ascii	"O\261\3275tU\231\377\235m\025\224\0339b\217\220\177"
  43      745599FF 
  43      9D6D1594 
  43      1B39628F 
  43      907F
  44 0124 AEF7B902 		.ascii	"\256\367\271\002\340\374>\332\277n\363M\322\204\226"
  44      E0FC3EDA 
  44      BF6EF34D 
  44      D28496
  45 0133 5229D3E2 		.ascii	"R)\323\342Y\032W\227)K\360\030\327\014j\352\231\364"
  45      591A5797 
  45      294BF018 
  45      D70C6AEA 
  45      99F4
  46 0145 221520A1 		.ascii	"\"\025 \241$\351\222\246\233\006\215D\303c\2434\024"
  46      24E992A6 
  46      9B068D44 
  46      C363A334 
  46      14
  47 0156 9AA2D160 		.ascii	"\232\242\321`xy\204\032\346B2\031\037b0\361\037\207"
  47      7879841A 
  47      E6423219 
  47      1F6230F1 
  47      1F87
  48 0168 BA62D2C9 		.ascii	"\272b\322\311p$\030\241<\315\222\231\270\335\253\253"
  48      702418A1 
  48      3CCD9299 
  48      B8DDABAB 
  49 0178 0B2C359D 		.ascii	"\013,5\235I\263\241\004\370\303\221\231@L1\324%\235"
  49      49B3A104 
  49      F8C39199 
  49      404C31D4 
  49      259D
  50 018a 0F04FA86 		.ascii	"\017\004\372\206\201\350\320\231RS\232\236\205\261v"
  50      81E8D099 
  50      52539A9E 
  50      85B176
  51 0199 0C6A8608 		.ascii	"\014j\206\010\272)\263\340\373\001\247(\252\223"
  51      BA29B3E0 
  51      FB01A728 
  51      AA93
  52              		.text
  53              		.section	.gnu.lto_st_lld_init.fda269bcaec8b69b,"",%progbits
  54 0000 789C95D3 		.ascii	"x\234\225\323\315K\002A\024\000\360\367f\\5\017\321"
  54      CD4B0241 
  54      1400F0F7 
  54      665C350F 
  54      D1
ARM GAS  /tmp/ccAxfYr9.s 			page 4


  55 0011 55E8D0AD 		.ascii	"U\350\320\255C\324P\375\001\035\252\203\240\2476\310"
  55      43D450FD 
  55      011DAA83 
  55      A0A736C8 
  56 0021 53E82ABA 		.ascii	"S\350*\272d\031jRtp$\003\301\213\307\250\016u\025\251"
  56      64196A52 
  56      74702403 
  56      C18BC7A8 
  56      0E7515A9 
  57 0035 AB156479 		.ascii	"\253\025dy\267\217\233t\222.\375\007!]lf\327\365#!\330"
  57      B78F9B74 
  57      922EFD07 
  57      215D6C66 
  57      D7F52321 
  58 004a 073B1F3B 		.ascii	"\007;\037;\363~;,o\010\020\370\033^\361\034R\200u\321"
  58      F37E3B2C 
  58      6F0810F8 
  58      1B5EF11C 
  58      528075D1 
  59 005e 230524E5 		.ascii	"#\005$\345\027\200\274\233 \312\001 \344\010\346\202"
  59      1780BC9B 
  59      20CA0120 
  59      E408E682 
  60 006e 68ECBD25 		.ascii	"h\354\275%O\355n\367\346\255tY\305{2I@G\240\262\021"
  60      4FED6EF7 
  60      E6AD7459 
  60      C57B3249 
  60      4047A0B2 
  61 0083 A14081F3 		.ascii	"\241@\201\363\362\014\200fLU\321J`\023\211\354i\023"
  61      F20C8066 
  61      4C55D14A 
  61      601389EC 
  61      6913
  62 0095 1A1FAD07 		.ascii	"\032\037\255\007o\010\257Q\201\030\2229\250\360B~JG"
  62      6F08AF51 
  62      81189239 
  62      A8F0427E 
  62      4A47
  63 00a7 BC8073D4 		.ascii	"\274\200s\324\221l\211\206\362\253\"w\20014>\030F\353"
  63      916C8986 
  63      F2AB2277 
  63      8031343E 
  63      1846EB
  64 00ba 984D38B9 		.ascii	"\230M8\271\243V6\215\231\373\001\215\225\206\317\\\260"
  64      A356368D 
  64      99FB018D 
  64      9586CF5C 
  64      B0
  65 00cb 67C6E45C 		.ascii	"g\306\344\\$\327j\217\317t\030\340+}\301!\323\024.\302"
  65      24D76A8F 
  65      CF7418E0 
  65      2B7DC121 
  65      D3142EC2 
  66 00df 14949E60 		.ascii	"\024\224\236`\022\362\015v\277\211y\210Z\313\276C\206"
  66      12F20D76 
  66      BF897988 
  66      5ACBBE43 
ARM GAS  /tmp/ccAxfYr9.s 			page 5


  66      86
  67 00f0 9C2EED39 		.ascii	"\234.\3559\035\373\016\0358\320S\316\352\2262\017U\251"
  67      1DFB0E1D 
  67      38D053CE 
  67      EA96320F 
  67      55A9
  68 0102 04C5E200 		.ascii	"\004\305\342\000t\376\017:\372\240\253_)#|\255n\373"
  68      74FE0F3A 
  68      FAA0AB5F 
  68      29237CAD 
  68      6EFB
  69 0114 90CAB8D2 		.ascii	"\220\312\270\322\262\2578\307\225\216}\3055P\320\372"
  69      B2AF38C7 
  69      958E7DC5 
  69      3550D0FA 
  70 0124 619FB615 		.ascii	"a\237\266\025\367\250\362\012\247\355\322\227\307D\000"
  70      F7A8F20A 
  70      A7EDD297 
  70      C74400
  71 0133 8EE18717 		.ascii	"\216\341\207\027\271(G\2676T0\023\323f\347\026\367\306"
  71      B92847B7 
  71      36543013 
  71      D366E716 
  71      F7C6
  72 0145 03F00EF9 		.ascii	"\003\360\016\371ve\326J1C\025\333\305\235\221\305\261"
  72      7665D64A 
  72      314315DB 
  72      C59D91C5 
  72      B1
  73 0156 CAE2C9DD 		.ascii	"\312\342\311\335(\323\222\221#\026\211f\231\026\327"
  73      28D39291 
  73      23168966 
  73      9916D7
  74 0165 C37A32CD 		.ascii	"\303z2\3152\251\203\275\035&\006\361P\202\355'S\231"
  74      32A983BD 
  74      1D2606F1 
  74      5082ED27 
  74      5399
  75 0177 34DB5003 		.ascii	"4\333P\003\313K\314\357_c\252/\220]d\351\314v\"\021"
  75      CB4BCCEF 
  75      5F63AA2F 
  75      905D64E9 
  75      CC762211 
  76 018b 59D0E017 		.ascii	"Y\320\340\027q\221\337\366"
  76      7191DFF6 
  77              		.text
  78              		.section	.gnu.lto_.symbol_nodes.fda269bcaec8b69b,"",%progbits
  79 0000 789C6362 		.ascii	"x\234cb`bHb\200\002\246\343\214\365\014\014\023\316"
  79      60624862 
  79      8002A6E3 
  79      8CF50C0C 
  79      13CE
  80 0012 3130D4D7 		.ascii	"10\324\327\317\353`d:\301X\317\210\3402\236d\254g\202"
  80      CFEB6064 
  80      3AC158CF 
  80      88E0329E 
  80      64AC6782 
ARM GAS  /tmp/ccAxfYr9.s 			page 6


  81 0026 701B1A18 		.ascii	"p\033\032\030\031O1\3263#x\247\031\353Y\340<f\006f\206"
  81      194F31D6 
  81      332378A7 
  81      19EB59E0 
  81      3C660666 
  82 003b C30FFE01 		.ascii	"\303\017\376\001i&\206\346\207@\232\221\205\341q\333"
  82      692686E6 
  82      87409A91 
  82      85E171DB 
  83 004b 1B790600 		.ascii	"\033y\006\000\334\353\036\021"
  83      DCEB1E11 
  84              		.text
  85              		.section	.gnu.lto_.refs.fda269bcaec8b69b,"",%progbits
  86 0000 789C6362 		.ascii	"x\234cb`b`d\200\002\000\000F\000\006"
  86      60626064 
  86      80020000 
  86      460006
  87              		.text
  88              		.section	.gnu.lto_.decls.fda269bcaec8b69b,"",%progbits
  89 0000 789CA597 		.ascii	"x\234\245\227{l\024E\034\307gv\217\366J\233Zj$\350?"
  89      7B6C1445 
  89      1CC76776 
  89      8FF64A9B 
  89      5A6A24E8 
  90 0015 1C89A821 		.ascii	"\034\211\250!\201\245\255A\375C\244\335\026\332\204"
  90      81A5AD41 
  90      FD43A4DD 
  90      16DA84
  91 0024 03B2570C 		.ascii	"\003\262W\014\211\177\234\313u\261\027\357\201w\327"
  91      897F9CCB 
  91      75B117EF 
  91      8177D7
  92 0033 86FEC594 		.ascii	"\206\376\305\224W\010\222\346\250(\324\220\322\0125"
  92      570892E6 
  92      A828D490 
  92      D20A35
  93 0042 45515E0D 		.ascii	"EQ^\015/\2619\033\304\002F\036\242\362\02094JD <Ek\345"
  93      2FB1391B 
  93      C402461E 
  93      A2F21039 
  93      344A4420 
  94 005a 9C99DDED 		.ascii	"\234\231\335\355\355\034\267\355\256l\356\367\333\331"
  94      ED1CB7ED 
  94      AE6CEEF7 
  94      DBD9
  95 0068 BBF97DE6 		.ascii	"\273\371}\346\373\233\235\235\375\035\0078\340\204\000"
  95      FB9B9D9D 
  95      FD1D0738 
  95      E08400
  96 0077 A4F0B1A1 		.ascii	"\244\360\261\241\030\200i<\000\370\003\246c\303_\203"
  96      1880693C 
  96      00F803A6 
  96      63C35F83 
  97 0087 4EA01EA3 		.ascii	"N\240\036\243\260uc\333\216m\007\266]\330\366\200\207"
  97      B07563DB 
  97      8E6D07B6 
  97      5DD8F680 
ARM GAS  /tmp/ccAxfYr9.s 			page 7


  97      87
  98 0098 0FD2C789 		.ascii	"\017\322\307\211m?\266\003\330\256a\273\256qna\273\203"
  98      6D3FB603 
  98      D8AE61BB 
  98      AE716E61 
  98      BB83
  99 00aa 6D9BC63E 		.ascii	"m\233\306>\202\315\241\305\334\325\230;\2620\311\230"
  99      82CDA1C5 
  99      DCD5983B 
  99      B230C998 
 100 00ba F9D87235 		.ascii	"\371\330r5\356}lE0\315?\247q\306@u\234\036ly\330F\343"
 100      EE7D6C45 
 100      30CD3FA7 
 100      71C64075 
 100      9C1E6C79 
 101 00d1 EBD3F87C 		.ascii	"\353\323\370|\006\3331lg\261\035\306\226\300\326\217"
 101      06DB316C 
 101      67B11DC6 
 101      96C0D68F 
 102 00e1 AD171BA7 		.ascii	"\255\027\033\247\361\263\345\222\007V#\264\014u\254"
 102      F1B3E592 
 102      075623B4 
 102      0C75AC
 103 00f0 42D5FD85 		.ascii	"B\325\375\205\000,\2002,\314\003.\332(\310\243CN\004"
 103      002C8032 
 103      2CCC032E 
 103      DA28C8A3 
 103      434E04
 104 0103 5B118A27 		.ascii	"[\021\212'\277\3749\311!\344\224a'\314\303\310g!\230"
 104      BFFC39C9 
 104      21E49461 
 104      27CCC3C8 
 104      672198
 105 0116 04B621FC 		.ascii	"\004\266!\374\013\216\177\352\221\310\227.\037\347)"
 105      0B8E7FEA 
 105      91C8972E 
 105      1FE729
 106 0125 B98B9203 		.ascii	"\271\213\222\003\020\310p+\234\244qd\230\233g\344\322"
 106      10C8702B 
 106      9CA47164 
 106      989B67E4 
 106      D2
 107 0136 6BBD0381 		.ascii	"k\275\003\201\321\237\265\006\271\305\217\001\273\335"
 107      D19FB506 
 107      B9C58F01 
 107      BBDD
 108 0144 C78376D4 		.ascii	"\307\203v\324\221L^\372\352\307\3426\224X\201R\251\245"
 108      914C5EFA 
 108      EAC7E236 
 108      94588152 
 108      A9A5
 109 0156 602C7817 		.ascii	"`,x\027'G\344#\030\223\341\364'\262f@\370\333\340X\255"
 109      2747E423 
 109      1893E1F4 
 109      27B26640 
 109      F8DBE058 
 110 016b 359F57C7 		.ascii	"5\237W\307\344\300g\220M\002\200g@\027\341\241n\304"
ARM GAS  /tmp/ccAxfYr9.s 			page 8


 110      E4C06790 
 110      4D028067 
 110      4017E1A1 
 110      6EC4
 111 017d 531AE9DF 		.ascii	"S\032\351\337\015\307\263R?\202\234\361\013UW\342\324"
 111      0DC7B352 
 111      3F829CF1 
 111      0B5557E2 
 111      D4
 112 018e DBC7216A 		.ascii	"\333\307!jE\203\251\024\257\015\307\201\303\226\006"
 112      4583A914 
 112      AF0DC781 
 112      C39606
 113 019d D89E39C0 		.ascii	"\330\2369\300'\017\017\220\214'O\265\\Y\011\327-\357"
 113      270F0F90 
 113      8C274FB5 
 113      5C5909D7 
 113      2DEF
 114 01af E84737C9 		.ascii	"\350G7\311|\350c\264p\231c\250\220\235Y!\255\357\\\343"
 114      7CE863B4 
 114      709963A8 
 114      909D5921 
 114      ADEF5CE3 
 115 01c3 DB509F3A 		.ascii	"\333P\237:{:\342;\023\304\356\254\210\235\033N\300!"
 115      7B3AE23B 
 115      13C4EEAC 
 115      889D1B4E 
 115      C021
 116 01d5 84F51BD0 		.ascii	"\204\365\033\320\243\335\000\236\256t\240\256P\346\202"
 116      A3DD009E 
 116      AE74A0AE 
 116      50E682
 117 01e4 B93BF406 		.ascii	"\271;\364\006u\363\331\205\355c\205\321E\274|\330E,"
 117      75F3D985 
 117      ED6385D1 
 117      45BC7CD8 
 117      452C
 118 01f6 C30FE044 		.ascii	"\303\017\340DK\313\254\030\254#\031\271\014$\224\243"
 118      4BCBAC18 
 118      AC2319B9 
 118      0C2494A3 
 119 0206 A35E0743 		.ascii	"\243^\007C\317\303\235\013\367\246\321\347\341\000,"
 119      CFC39D0B 
 119      F7A6D1E7 
 119      E1002C
 120 0215 C6529183 		.ascii	"\306R\221\203\225:\"\206h:\204C\325 \012E\211\177\317"
 120      953A2286 
 120      683A8443 
 120      D5200A45 
 120      897FCF
 121 0228 172087FA 		.ascii	"\027 \207\372=\310\222\271vL\000\035h\305\362D\352\374"
 121      3DC892B9 
 121      764C001D 
 121      68C5F244 
 121      EAFC
 122 023a A6275147 		.ascii	"\246'QG\037F\356\247\217\344Z*\201\304f\233\001\255"
 122      1F46EEA7 
ARM GAS  /tmp/ccAxfYr9.s 			page 9


 122      8FE45A2A 
 122      81C4669B 
 122      01AD
 123 024c A91E5A07 		.ascii	"\251\036Z\007\226\027\277P\020\227uX\3346\314\305\300"
 123      9617BF50 
 123      10977558 
 123      DC36CCC5 
 123      C0
 124 025d 5A8DB0F5 		.ascii	"Z\215\260\365V`Nse\353\215\2606\3330V\331{FX\273\025"
 124      56604E73 
 124      65EB8DB0 
 124      36DB3056 
 124      D97B4658 
 125 0273 5891B9B2 		.ascii	"X\221\271\262\215FX\247m\030\253\354}#\254\313\012l"
 125      8D4658A7 
 125      6D18ABEC 
 125      7D23ACCB 
 125      0A6C
 126 0285 9CB9B24D 		.ascii	"\234\271\262MF\330\307\266a\254\262v#l\227\025\230\313"
 126      46D8C7B6 
 126      61ACB276 
 126      236C9715 
 126      98CB
 127 0297 5CD94E23 		.ascii	"\\\331N#l\257m\030\253l\267\021v\320\012\3549se=FX\257"
 127      6CAF6D18 
 127      AB6CB711 
 127      76D00AEC 
 127      3973653D 
 128 02ae 6D18AB6C 		.ascii	"m\030\253l\257\021\326g\0056\325LYsb\377kqy\014\210"
 128      AF11D667 
 128      0536D54C 
 128      597362FF 
 128      6B71790C 
 129 02c3 6B5B8A4A 		.ascii	"k[\212J\325\267\025\310.-c\267N\363n2<\017\307\320\026"
 129      D5B715C8 
 129      2E2D63B7 
 129      4EF36E32 
 129      3C0FC7D0 
 130 02d8 DD3E91B6 		.ascii	"\335>\221\266}\322\036f{\370\005u\227N?\376Z#\275g\033"
 130      7DD21E66 
 130      7BF80575 
 130      974E3FFE 
 130      5A23BD67 
 131 02ed 7BE1B48F 		.ascii	"{\341\264\217d\246\315\252\310\2267;\211\007\215\223"
 131      64A6CDAA 
 131      C896373B 
 131      89078D93 
 132 02fd 78CCCA24 		.ascii	"x\314\312$\3160\207\0352\302NX\201U\233\257\225^#\354"
 132      CE30871D 
 132      32C24E58 
 132      81559BAF 
 132      955E23EC 
 133 0311 5BDB3056 		.ascii	"[\3330V\331I#\354\254\025\330<se\247\215\260\013\266"
 133      D94923EC 
 133      AC15D83C 
 133      7365A78D 
 133      B00BB6
ARM GAS  /tmp/ccAxfYr9.s 			page 10


 134 0324 614665CD 		.ascii	"aFe\315\2113\351\205\3271#c\345\315`w[\246[\247i7\031"
 134      8933E985 
 134      D7312363 
 134      E5CD6077 
 134      5BA65BA7 
 135 033b FE6E7BE1 		.ascii	"\376n{\341]5Yx\220YxW\323\013\357rf\332\214\010\255"
 135      5D355978 
 135      90597857 
 135      D30BEF72 
 135      66DA8C08 
 136 0350 B920CB1C 		.ascii	"\271 \313\034f;\214/j\031~N\013\211^8\001\373\004\365"
 136      663B8C2F 
 136      6A197E4E 
 136      0B895E38 
 136      01FB04F5 
 137 0364 7DD41FA6 		.ascii	"}\324\037\246\376\010\365\375\324\037\243\376k\352\277"
 137      FE08F5FD 
 137      D41FA3FE 
 137      6BEABF
 138 0373 A1FE24F5 		.ascii	"\241\376$\365\247\251?C\375\367\324\237\245\376\"\365"
 138      A7A93F43 
 138      FDF7D49F 
 138      A5FE22F5 
 139 0383 97A8BF4C 		.ascii	"\227\250\277L\375/\324\377J\375\025\354\207\216|\260"
 139      FD2FD4FF 
 139      4AFD15EC 
 139      878E7CB0 
 140 0393 265DB7AB 		.ascii	"&]\267\2535\210\331\334]\203\371z\324\320\035\332X\250"
 140      3588D9DC 
 140      5D83F97A 
 140      D4D01DDA 
 140      58A8
 141 03a5 15FEC92E 		.ascii	"\025\376\311.4n\334\320\0348\215\363\252\226$8\200\223"
 141      346EDCD0 
 141      1C388DF3 
 141      AA962438 
 141      8093
 142 03b7 E10DBA96 		.ascii	"\341\015\272\226~s\300\314\251\321'\350\206\341\006"
 142      7E73C0CC 
 142      A9D127E8 
 142      86E106
 143 03c6 A96DBD95 		.ascii	"\251m\275\225\202C\370\"\035\317iQ\327\265\205`\270"
 143      8243F822 
 143      1DCF6951 
 143      D7B58560 
 143      B8
 144 03d7 75FAEEB5 		.ascii	"u\372\356\265\261P\015\327B_\324Cs\265\200[\266\327"
 144      B1500DD7 
 144      425FD443 
 144      73B5805B 
 144      B6D7
 145 03e9 D06D9335 		.ascii	"\320m\2235\224\223}JIil\206\272\223\236RR\024'n&\367"
 145      94937D4A 
 145      49696C86 
 145      BA939E52 
 145      5214276E 
 146 03ff 5D49AE86 		.ascii	"]I\256\206_t\255B\361\346dj\351\346D\221^[o\036e\345"
ARM GAS  /tmp/ccAxfYr9.s 			page 11


 146      5F74AD42 
 146      F1E6646A 
 146      E9E64491 
 146      5E5B6F1E 
 147 0415 2FC0DDCC 		.ascii	"/\300\335\314\277\000\367\330\0127K5\231\340\214\357"
 147      BF00F7D8 
 147      0A374B35 
 147      99E08CEF 
 148 0425 20AD28FD 		.ascii	" \255(\375\341\217\223mp7Bx\370\373\264,\275\2361\374"
 148      E18F936D 
 148      70374278 
 148      F8FBB42C 
 148      BD9E31FC 
 149 0439 882032F8 		.ascii	"\210 2\370@fYzn\313QHk\335\001K\205\351\305-G9\362\027"
 149      4066597A 
 149      6ECB5148 
 149      6BDD014B 
 149      85E9C52D 
 150 0451 8DD737A1 		.ascii	"\215\3277\241\277\251\212\201\377]\231\376D\306o-\320"
 150      BFA98A81 
 150      FF5D99FE 
 150      44C66F2D 
 150      D0
 151 0462 7183B671 		.ascii	"q\203\266q.\006w\223\3055\347X\300\015S\235\336fq+m"
 151      2E067793 
 151      C535E758 
 151      C00D539D 
 151      DE66712B 
 152 0477 E3587577 		.ascii	"\343XuwY\\\213\025\3340\025\352\237,n\203m\034\253\356"
 152      595C8B15 
 152      DC3015EA 
 152      9F2C6E83 
 152      6D1CABEE 
 153 048b 2F16D76E 		.ascii	"/\026\327n\0057L\225:\300\342>\264\215c\325\015\262"
 153      05374C95 
 153      3AC0E23E 
 153      B48D63D5 
 153      0DB2
 154 049d B84FADE0 		.ascii	"\270O\255\340\\\346\352\036\260\270=\266q\256lO\211"
 154      5CE6EA1E 
 154      B0B83DB6 
 154      71AE6C4F 
 154      89
 155 04ae 7A181F33 		.ascii	"z\030\0373\031\376C_*\203t\243\177@=\342\210_F\375\012"
 155      19FE435F 
 155      2A8374A3 
 155      7F403DE2 
 155      885F46FD 
 156 04c3 EA5751BF 		.ascii	"\352WQ\277\232\3725\324\257\245\276\2053\1771\334\037"
 156      9AFA35D4 
 156      AFA5BE85 
 156      337F31DC 
 156      1F
 157 04d4 E6C510E7 		.ascii	"\346\305\020\347\362M\242z\206\331\373\326\245\243\300"
 157      F24DA27A 
 157      86D9FBD6 
 157      A5A3C0
ARM GAS  /tmp/ccAxfYr9.s 			page 12


 158 04e3 D3424334 		.ascii	"\323BC4\"\310\221\340\344P8\244LV\344\205~\301\037\362"
 158      22C891E0 
 158      E45038A4 
 158      4C56E485 
 158      7EC11FF2 
 159 04f7 051AEA14 		.ascii	"\005\032\352\024!\032\253\363\207bS\352\201\263\001"
 159      211AABF3 
 159      876253EA 
 159      81B301
 160 0506 9FCB4ABD 		.ascii	"\237\313J\275\261\234Ys\346\273D\360\3740AA\331W\357"
 160      B19C5973 
 160      E6BB44F0 
 160      FC304141 
 160      D957EF
 161 0519 0F2982B7 		.ascii	"\017)\202\267NY$7\004b\336X\323b%\212!\243\275^\035"
 161      4E592437 
 161      0462DE58 
 161      D362258A 
 161      21A3BD5E 
 162 052e 230AF5E1 		.ascii	"#\012\365\341\240\"\370\302uMB\235\322(\340\210\205"
 162      A022F8C2 
 162      754D429D 
 162      D228E088 
 162      85
 163 053f FE705488 		.ascii	"\376pT\210E\032Bo\012\270Q/\007\204\305\341H,*xj\335"
 163      451A426F 
 163      0AB8512F 
 163      0784C5E1 
 163      482C2A78 
 164 0555 65A5C2EC 		.ascii	"e\245\302\354\331\225Bm\215\273\261\004k\362\006\002"
 164      D995426D 
 164      8DBBB104 
 164      6BF20602 
 165 0565 75537CC0 		.ascii	"uS|\300\371\252\342\213\205#\025S\363\325\257\274\376"
 165      F9AAE28B 
 165      85231553 
 165      F3D5AFBC 
 165      FE
 166 0576 903FF6F2 		.ascii	"\220?\366\362H\340HL\343\226Kn\321\275\004w\360\205"
 166      48E0484C 
 166      E3964B6E 
 166      D1BD0477 
 166      F085
 167 0588 238AB7F1 		.ascii	"#\212\267\361\205 VX\354%\277y\375\221\267\274\312b"
 167      85205658 
 167      EC25BF79 
 167      FD91B7BC 
 167      CA62
 168 059a 7F20FC46 		.ascii	"\177 \374F\203Rf\001\250g\356\253\2176\221D\213}\365"
 168      83526601 
 168      A867EEAB 
 168      8F369144 
 168      8B7DF5
 169 05ad 9EA668AD 		.ascii	"\236\246h\255?\250D\252\345P]@\211\324\274b=a_8\030"
 169      3FA844AA 
 169      E5505D40 
 169      89D4BC62 
ARM GAS  /tmp/ccAxfYr9.s 			page 13


 169      3D615F38 
 170 05c2 0C87747D 		.ascii	"\014\207t}\241F\277\017#\213\310\271*$/\014(j\3323\037"
 170      A146BF0F 
 170      238BC8B9 
 170      2A242F0C 
 170      286ADA33 
 171 05d7 650683E4 		.ascii	"e\006\203\344\036\370I\306\371C\027\336\030/J%\330J"
 171      1EF849C6 
 171      F94317DE 
 171      182F4A25 
 171      D84A
 172 05e9 1D1EB728 		.ascii	"\035\036\267(9*k\252$\316#\361U\263\244Q\242\350\226"
 172      392A6BAA 
 172      24CE23F1 
 172      55B3A451 
 172      A2E896
 173 05fc 4AA82F75 		.ascii	"J\250/u\210b\225\304\213sj\371y\036\221/\227$^\022\361"
 173      886295C4 
 173      8B736AF9 
 173      791E912F 
 173      97245E12 
 174 0611 350EA8A8 		.ascii	"5\016\250\250\254\225\370J\022\351.\227\270\271jT\031"
 174      AC95F84A 
 174      12E92E97 
 174      B8B96A54 
 174      19
 175 0622 EEBF4072 		.ascii	"\356\277@r\370\352\345\310\2103I\024\207\243\330\341"
 175      F8EAE5C8 
 175      88334914 
 175      87A3D8E1 
 176 0632 2925672C 		.ascii	")%g,\357qr\236\313N\345K#q\224%1At{j<8s5\331E%S\227"
 176      EF71729E 
 176      CB4EE54B 
 176      23719425 
 176      3141747B 
 177 0650 90642551 		.ascii	"\220d%Q\364\326\342\325X\251,\342\260Pq\346,,\275Fr"
 177      F4D6E2D5 
 177      58A92CE2 
 177      B05071E6 
 177      2C2CBD46 
 178 0665 96CFAB28 		.ascii	"\226\317\253(\225<\265\264QB\0329\345\325\025Us\244"
 178      953CB5B4 
 178      51421A39 
 178      E5D51555 
 178      73A4
 179 0677 5CF28376 		.ascii	"\\\362\203v.\301g\234#I\326#\375\007\005qq\377"
 179      2EC1679C 
 179      2349D623 
 179      FD070571 
 179      71FF
 180              		.text
 181              		.section	.gnu.lto_.symtab.fda269bcaec8b69b,"",%progbits
 182 0000 56656374 		.ascii	"VectorB0\000\000\000\000\000\000\000\000\000\000\000"
 182      6F724230 
 182      00000000 
 182      00000000 
 182      000000
ARM GAS  /tmp/ccAxfYr9.s 			page 14


 183 0013 00A80000 		.ascii	"\000\250\000\000\000st_lld_init\000\000\000\000\000"
 183      0073745F 
 183      6C6C645F 
 183      696E6974 
 183      00000000 
 184 0028 00000000 		.ascii	"\000\000\000\000\000\000\000\254\000\000\000_port_i"
 184      000000AC 
 184      0000005F 
 184      706F7274 
 184      5F69
 185 003a 72715F65 		.ascii	"rq_epilogue\000\000\002\000\000\000\000\000\000\000"
 185      70696C6F 
 185      67756500 
 185      00020000 
 185      00000000 
 186 004f 0000AF00 		.ascii	"\000\000\257\000\000\000chSysTimerHandlerI\000\000\002"
 186      00006368 
 186      53797354 
 186      696D6572 
 186      48616E64 
 187 006a 00000000 		.ascii	"\000\000\000\000\000\000\000\000\000\261\000\000\000"
 187      00000000 
 187      00B10000 
 187      00
 188 0077 6E766963 		.ascii	"nvicEnableVector\000\000\002\000\000\000\000\000\000"
 188      456E6162 
 188      6C655665 
 188      63746F72 
 188      00000200 
 189 0090 000000B3 		.ascii	"\000\000\000\263\000\000\000"
 189      000000
 190              		.text
 191              		.section	.gnu.lto_.opts,"",%progbits
 192 0000 272D6D63 		.ascii	"'-mcpu=cortex-m3' '-mno-thumb-interwork' '-mthumb' "
 192      70753D63 
 192      6F727465 
 192      782D6D33 
 192      2720272D 
 193 0033 272D4F32 		.ascii	"'-O2' '-fomit-frame-pointer' '-falign-functions=16'"
 193      2720272D 
 193      666F6D69 
 193      742D6672 
 193      616D652D 
 194 0066 20272D66 		.ascii	" '-ffunction-sections' '-fdata-sections' '-fno-comm"
 194      66756E63 
 194      74696F6E 
 194      2D736563 
 194      74696F6E 
 195 0099 6F6E2720 		.ascii	"on' '-flto'\000"
 195      272D666C 
 195      746F2700 
 196              		.text
 197              		.section	.text.VectorB0,"ax",%progbits
 198              		.align	2
 199              		.p2align 4,,15
 200              		.global	VectorB0
 201              		.thumb
ARM GAS  /tmp/ccAxfYr9.s 			page 15


 202              		.thumb_func
 203              		.type	VectorB0, %function
 204              	VectorB0:
 205              		@ args = 0, pretend = 0, frame = 0
 206              		@ frame_needed = 0, uses_anonymous_args = 0
 207 0000 10B5     		push	{r4, lr}
 208 0002 4FF08043 		mov	r3, #1073741824
 209 0006 0024     		movs	r4, #0
 210 0008 1C61     		str	r4, [r3, #16]
 211 000a 2023     		movs	r3, #32
 212              	@ 546 "/home/cody/dev/chibios/trunk/os/ext/CMSIS/include/core_cmFunc.h" 1
 213 000c 83F31188 		MSR basepri, r3
 214              	@ 0 "" 2
 215              		.thumb
 216 0010 FFF7FEFF 		bl	chSysTimerHandlerI
 217              	@ 546 "/home/cody/dev/chibios/trunk/os/ext/CMSIS/include/core_cmFunc.h" 1
 218 0014 84F31188 		MSR basepri, r4
 219              	@ 0 "" 2
 220              		.thumb
 221 0018 BDE81040 		pop	{r4, lr}
 222 001c FFF7FEBF 		b	_port_irq_epilogue
 223              		.size	VectorB0, .-VectorB0
 224              		.section	.text.st_lld_init,"ax",%progbits
 225              		.align	2
 226              		.p2align 4,,15
 227              		.global	st_lld_init
 228              		.thumb
 229              		.thumb_func
 230              		.type	st_lld_init, %function
 231              	st_lld_init:
 232              		@ args = 0, pretend = 0, frame = 0
 233              		@ frame_needed = 0, uses_anonymous_args = 0
 234              		@ link register save eliminated.
 235 0000 70B4     		push	{r4, r5, r6}
 236 0002 0D49     		ldr	r1, .L3
 237 0004 4FF08043 		mov	r3, #1073741824
 238 0008 C869     		ldr	r0, [r1, #28]
 239 000a 0022     		movs	r2, #0
 240 000c 0124     		movs	r4, #1
 241 000e 4BF67F36 		movw	r6, #47999
 242 0012 40F00100 		orr	r0, r0, #1
 243 0016 4FF6FF75 		movw	r5, #65535
 244 001a C861     		str	r0, [r1, #28]
 245 001c 9E62     		str	r6, [r3, #40]
 246 001e 1C20     		movs	r0, #28
 247 0020 DD62     		str	r5, [r3, #44]
 248 0022 0821     		movs	r1, #8
 249 0024 9A61     		str	r2, [r3, #24]
 250 0026 5A63     		str	r2, [r3, #52]
 251 0028 DA60     		str	r2, [r3, #12]
 252 002a 5A60     		str	r2, [r3, #4]
 253 002c 5C61     		str	r4, [r3, #20]
 254 002e 1C60     		str	r4, [r3]
 255 0030 70BC     		pop	{r4, r5, r6}
 256 0032 FFF7FEBF 		b	nvicEnableVector
 257              	.L4:
 258 0036 00BF     		.align	2
ARM GAS  /tmp/ccAxfYr9.s 			page 16


 259              	.L3:
 260 0038 00100240 		.word	1073876992
 261              		.size	st_lld_init, .-st_lld_init
 262              		.comm	__gnu_lto_v1,1,1
 263 003c AFF30080 		.ident	"GCC: (GNU Tools for ARM Embedded Processors) 4.8.4 20140526 (release) [ARM/embedded-4_8-br
ARM GAS  /tmp/ccAxfYr9.s 			page 17


DEFINED SYMBOLS
                            *ABS*:0000000000000000 st_lld.c
     /tmp/ccAxfYr9.s:198    .text.VectorB0:0000000000000000 $t
     /tmp/ccAxfYr9.s:204    .text.VectorB0:0000000000000000 VectorB0
     /tmp/ccAxfYr9.s:225    .text.st_lld_init:0000000000000000 $t
     /tmp/ccAxfYr9.s:231    .text.st_lld_init:0000000000000000 st_lld_init
     /tmp/ccAxfYr9.s:260    .text.st_lld_init:0000000000000038 $d
                            *COM*:0000000000000001 __gnu_lto_v1
     /tmp/ccAxfYr9.s:263    .text.st_lld_init:000000000000003c $t

UNDEFINED SYMBOLS
chSysTimerHandlerI
_port_irq_epilogue
nvicEnableVector
