ARM GAS  /tmp/ccQF4k3r.s 			page 1


   1              		.syntax unified
   2              		.cpu cortex-m4
   3              		.eabi_attribute 27, 3
   4              		.eabi_attribute 28, 1
   5              		.fpu fpv4-sp-d16
   6              		.eabi_attribute 20, 1
   7              		.eabi_attribute 21, 1
   8              		.eabi_attribute 23, 3
   9              		.eabi_attribute 24, 1
  10              		.eabi_attribute 25, 1
  11              		.eabi_attribute 26, 1
  12              		.eabi_attribute 30, 2
  13              		.eabi_attribute 34, 1
  14              		.eabi_attribute 18, 4
  15              		.thumb
  16              		.file	"st_lld.c"
  17              		.section	.gnu.lto_.jmpfuncs.8452552ca5928fe4,"",%progbits
  18 0000 789C6362 		.ascii	"x\234cb`b\300\006\244\2414X\226\221\201\211)\2021\223"
  18      6062C006 
  18      A4A13458 
  18      96918189 
  18      29823193 
  19 0014 91410628 		.ascii	"\221A\006(\000fp\000E\001\031\363\001\323"
  19      00667000 
  19      450119F3 
  19      01D3
  20              		.text
  21              		.section	.gnu.lto_.inline.8452552ca5928fe4,"",%progbits
  22 0000 789C6362 		.ascii	"x\234cb`b\300\006\254\2404P\226C\222\221\201\211\355"
  22      6062C006 
  22      ACA03450 
  22      96439291 
  22      8189ED
  23 0013 831E03DB 		.ascii	"\203\036\003\333\002y\260bF.8\301 \010\222\024\373\260"
  23      0279B062 
  23      462E38C1 
  23      20089214 
  23      FBB0
  24 0025 9A112ECB 		.ascii	"\232\021.\313\314\003\326\305\000\000\250.\005\036"
  24      CC03D6C5 
  24      0000A82E 
  24      051E
  25              		.text
  26              		.section	.gnu.lto_.pureconst.8452552ca5928fe4,"",%progbits
  27 0000 789C6362 		.ascii	"x\234cb`b`e\200\000&\006+F)\000\001f\000a"
  27      60626065 
  27      80002606 
  27      2B462900 
  27      01660061 
  28              		.text
  29              		.section	.gnu.lto_VectorB0.8452552ca5928fe4,"",%progbits
  30 0000 789C8D50 		.ascii	"x\234\215P=K\003A\020\235\331$*Vim$\215\225\037\353"
  30      3D4B0341 
  30      109DD924 
  30      2A56696D 
  30      248D951F 
  31 0015 C70F5050 		.ascii	"\307\017PP\204@\322\230\010Z\311es\220\305$'w\0271X"
ARM GAS  /tmp/ccQF4k3r.s 			page 2


  31      8440D298 
  31      085AC965 
  31      7390C524 
  31      27771731 
  32 002a E4A20145 		.ascii	"\344\242\001EER\006ED\004\301\017\214\244J\031\024+"
  32      45520645 
  32      4404C10F 
  32      8CA44A19 
  32      142B
  33 003c 63C4C65A 		.ascii	"c\304\306Z\305\037\240\2266\272\267\027\217`c\026v\346"
  33      C51FA096 
  33      36BAB717 
  33      8F606316 
  33      76E6
  34 004e 313BF3DE 		.ascii	"1;\363\336\233%@\340\357\351\021\367\012\001\236DF\017"
  34      9B2540E0 
  34      EFE911F7 
  34      0A019E44 
  34      460F
  35 0060 20293600 		.ascii	" )6\000\362]\004\321\006\200\220#\230\233G\331[&\265"
  35      F25D04D1 
  35      06809023 
  35      989B47D9 
  35      5B26B5
  36 0073 E7EFEFCB 		.ascii	"\347\357\357\313\317\255\303:^\220nQ\361A\301\262\212"
  36      CFADC33A 
  36      5E906E51 
  36      F141C1B2 
  36      8A
  37 0084 0100263B 		.ascii	"\001\000&;\242\"\332c\263H\354\354\271\207\353j\265"
  37      A222DA63 
  37      B348ECEC 
  37      B987EB6A 
  37      B5
  38 0095 FC42143C 		.ascii	"\374B\024<B\037\364\303\231U\310[\343\034a\037\366\220"
  38      421FF4C3 
  38      9955C85B 
  38      E31C611F 
  38      F690
  39 00a7 23CE8940 		.ascii	"#\316\211@,q\274 \241T\2119b\262\"A\003\326>vo*;\036"
  39      2C71BC20 
  39      A1548939 
  39      62B22241 
  39      03D63E76 
  40 00bf 57CDE193 		.ascii	"W\315\341\223\366\0206\204m1\351q\226\353\205\022\036"
  40      F6103684 
  40      6D31E971 
  40      96EB8512 
  40      1E
  41 00d0 58A5092E 		.ascii	"X\245\011.\252M\022o\300F\356\373~\363\335\347\310<"
  41      AA4D126F 
  41      C046EEFB 
  41      7EF3DDE7 
  41      C83C
  42 00e2 C0FAFBDD 		.ascii	"\300\372\373\335\355\361\316\240\313\356\200\332\366"
  42      EDF1CEA0 
  42      CBEE80DA 
ARM GAS  /tmp/ccQF4k3r.s 			page 3


  42      F6
  43 00ef DBABEF57 		.ascii	"\333\253\357W\212a\323\324*|Y\233\226\237c\007C\261"
  43      8A61D3D4 
  43      2A7C599B 
  43      969F6307 
  43      43B1
  44 0101 D6B9C3C2 		.ascii	"\326\271\303\302\261\263]\233\012\236\010 mA\213-\005"
  44      B1B35D9B 
  44      0A9E0820 
  44      6D418B2D 
  44      05
  45 0112 4FB1D735 		.ascii	"O\261\3275tU\231\377\235m\025\224\0339b\217\220\177"
  45      745599FF 
  45      9D6D1594 
  45      1B39628F 
  45      907F
  46 0124 AEF7B902 		.ascii	"\256\367\271\002\340\374>\332\277n\363M\322\204\226"
  46      E0FC3EDA 
  46      BF6EF34D 
  46      D28496
  47 0133 5229D3E2 		.ascii	"R)\323\342Y\032W\227)K\360\030\327\014j\352\231\364"
  47      591A5797 
  47      294BF018 
  47      D70C6AEA 
  47      99F4
  48 0145 221520A1 		.ascii	"\"\025 \241$\351\222\246\233\006\215D\303c\2434\024"
  48      24E992A6 
  48      9B068D44 
  48      C363A334 
  48      14
  49 0156 9AA2D160 		.ascii	"\232\242\321`xy\204\032\346B2\031\037b0\361\037\207"
  49      7879841A 
  49      E6423219 
  49      1F6230F1 
  49      1F87
  50 0168 BA62D2C9 		.ascii	"\272b\322\311p$\030\241<\315\222\231\270\335\253\253"
  50      702418A1 
  50      3CCD9299 
  50      B8DDABAB 
  51 0178 0B2C359D 		.ascii	"\013,5\235I\263\241\004\370\303\221\231@L1\324%\235"
  51      49B3A104 
  51      F8C39199 
  51      404C31D4 
  51      259D
  52 018a 0F04FA86 		.ascii	"\017\004\372\206\201\350\320\231RS\232\236\205\261v"
  52      81E8D099 
  52      52539A9E 
  52      85B176
  53 0199 0C6A8608 		.ascii	"\014j\206\010\272)\263\340\373\001\247(\252\223"
  53      BA29B3E0 
  53      FB01A728 
  53      AA93
  54              		.text
  55              		.section	.gnu.lto_st_lld_init.8452552ca5928fe4,"",%progbits
  56 0000 789C95D3 		.ascii	"x\234\225\323\275K\303@\024\000\360\367\356\232\032"
  56      BD4BC340 
  56      1400F0F7 
ARM GAS  /tmp/ccQF4k3r.s 			page 4


  56      EE9A1A
  57 000f 1DD4B5E0 		.ascii	"\035\324\265\340\340\346 z\250\177\200\210:\010u2\202"
  57      E0E6207A 
  57      A87F8088 
  57      3A087532 
  57      82
  58 0020 4ED2A6A5 		.ascii	"N\322\246\245\015V#m-\024\207^Q\241\320\245cQ\027W\021"
  58      0D56236D 
  58      2D14875E 
  58      51A1D0A5 
  58      63511757 
  59 0035 5DA382D5 		.ascii	"]\243\202\325\356\365c+N\305\305\325\261\270\324\273"
  59      EEF5632B 
  59      4EC5C5D5 
  59      B1B8D4BB 
  60 0045 A4E98705 		.ascii	"\244\351\207\005!\017\356+w\357\227\033\336\021 \360"
  60      210FEE2B 
  60      77EF971B 
  60      DE1120F0 
  61 0055 3702A265 		.ascii	"7\002\242e)\300\252\030\221\002\222\322\013@^%\210r"
  61      29C0AA18 
  61      910292D2 
  61      0B405E25 
  61      8872
  62 0067 02083982 		.ascii	"\002\0109\202\271m\264\317\336\222\247F\253u\363V\274"
  62      B96DB4CF 
  62      DE92A746 
  62      AB75F356 
  62      BC
  63 0078 B8C67B32 		.ascii	"\270\306{2J\300@\240\262\023\241\300\011\347\245I\000"
  63      4AC040A0 
  63      B213A1C0 
  63      09E7A549 
  63      00
  64 0089 DD5E6AA2 		.ascii	"\335^j\242\227\300&\0229\322\032T?\352\017\201\020^"
  64      97C02612 
  64      39D21A54 
  64      3FEA0F81 
  64      105E
  65 009b A2023124 		.ascii	"\242\0021$\323p\305O\362\343\006\3429\234\241\201dK"
  65      D370C54F 
  65      F2E306E2 
  65      399CA181 
  65      644B
  66 00ad 74947F17 		.ascii	"t\224\177\027\270\017\354\251\375\3030\272\327\254\301"
  66      B80FECA9 
  66      FDC330BA 
  66      D7ACC1
  67 00bc F11D75B3 		.ascii	"\361\035u\263i\3149\017h\357T\327\234\015ofL\256E\262"
  67      69CC390F 
  67      68EF54D7 
  67      9C0D6F66 
  67      4CAE45B2 
  68 00d0 653D3ED3 		.ascii	"e=>\323^\200/v\004\237LS\270\010GP\332\202C\310/\370"
  68      5E802F76 
  68      049F4C53 
  68      B8084750 
ARM GAS  /tmp/ccQF4k3r.s 			page 5


  68      DA8243C8 
  69 00e6 BAE4DCC1 		.ascii	"\272\344\334\301\252{gH\227i\211\030kKM\357\022\355"
  69      AA7B6748 
  69      97698918 
  69      6B4B4DEF 
  69      12ED
  70 00f8 4AD056CA 		.ascii	"J\320V\312\025W\231\201k\251l\213\315.\350\377\037\364"
  70      15579981 
  70      6BA96C8B 
  70      CD2EE8FF 
  70      1FF4
  71 010a 75C0A14E 		.ascii	"u\300\241N\251\364\361V\305\363%\225A\245\356]\361\017"
  71      A9F4F156 
  71      C5F32595 
  71      41A5EE5D 
  71      F10F
  72 011c 2A4DEFCA 		.ascii	"*M\357\312PGq\213\310*\177zV\324~\345\025N\033\305\257"
  72      5047718B 
  72      C82A7F7A 
  72      56D47EE5 
  72      154E1BC5 
  73 0131 11070138 		.ascii	"\021\007\0018\202\037^\340\242\036U\275\247b\206'\234"
  73      821F5EE0 
  73      A21E55BD 
  73      A7628627 
  73      9C
  74 0142 41150F67 		.ascii	"A\025\017g\004\340\035\362\215\253)7\305\011M\034\027"
  74      04E01DF2 
  74      8DAB2937 
  74      C5094D1C 
  74      17
  75 0153 8F4696C7 		.ascii	"\217F\226\3072\213\233{Q\246\233\221,\213D3L\217\033"
  75      328B9B7B 
  75      51A69B91 
  75      2C8B4433 
  75      4C8F1B
  76 0166 61C34CB1 		.ascii	"a\303L\261t\362p\177\227\211I<\224`\007f2\235b\033\332"
  76      74F2707F 
  76      9789493C 
  76      94600766 
  76      329D621B 
  77 017b FAC23C0B 		.ascii	"\372\302<\013\006W\230\266\266\236\231c\251\364N\"\021"
  77      065798B6 
  77      B69E9963 
  77      A9F44E22 
  77      11
  78 018c 99D5E117 		.ascii	"\231\325\341\027A*\341\270"
  78      412AE1B8 
  79              		.text
  80              		.section	.gnu.lto_.symbol_nodes.8452552ca5928fe4,"",%progbits
  81 0000 789C45C7 		.ascii	"x\234E\307\301\015@@\000D\321\231\331\355Co\032\231"
  81      C10D4040 
  81      0044D199 
  81      D9ED436F 
  81      1A99
  82 0012 65137154 		.ascii	"e\023qT\201f\334\325@\\\325\200M\210\375\227\237'\010"
  82      8166DCD5 
ARM GAS  /tmp/ccQF4k3r.s 			page 6


  82      405CD580 
  82      4D88FD97 
  82      9F2708
  83 0025 2DBE74D3 		.ascii	"-\276t\323\300\264\002\366<RIf%;Y/S\"{9Te9\376\012\010"
  83      C0B402F6 
  83      3C524966 
  83      253B592F 
  83      53227B39 
  84 003f 58B6AB5C 		.ascii	"X\266\253\\\310{9#\216\341l\360\000\260,\035-"
  84      C87B3923 
  84      8EE16CF0 
  84      00B02C1D 
  84      2D
  85              		.text
  86              		.section	.gnu.lto_.refs.8452552ca5928fe4,"",%progbits
  87 0000 789C6362 		.ascii	"x\234cb`b`d\200\002\000\000F\000\006"
  87      60626064 
  87      80020000 
  87      460006
  88              		.text
  89              		.section	.gnu.lto_.decls.8452552ca5928fe4,"",%progbits
  90 0000 789CA598 		.ascii	"x\234\245\230\177l\023e\030\307\337\267-\254e\004\307"
  90      7F6C1365 
  90      18C7DFB7 
  90      2DAC6504 
  90      C7
  91 0011 8C04F987 		.ascii	"\214\004\371\207\231\210\032\022(\333\0201Fd\334&,\331"
  91      99881A12 
  91      28DB1031 
  91      4664DC26 
  91      2CD9
  92 0023 70B90E24 		.ascii	"p\271\016$\372G9\272\3036v-v\035\201\2778\030\022\242"
  92      FA4739BA 
  92      C336762D 
  92      761D81BF 
  92      381812A2 
  93 0037 04EB9C38 		.ascii	"\004\353\2348\014\216\31503\020e\340\002\003q\251\004"
  93      0C8ECD30 
  93      331065E0 
  93      020371A9 
  93      04
  94 0048 7141A338 		.ascii	"qA\2438\221\315\015\245h\020\025T~\212\031?\346\373"
  94      91CD0DA5 
  94      68101554 
  94      7E8A193F 
  94      E6FB
  95 005a 3E77D7BE 		.ascii	">w\327\276o\355mwr\341\371\336\333\273\367\375\334\367"
  95      6FED6D77 
  95      72E1F9DE 
  95      DBBBF7FD 
  95      DCF7
  96 006c 7DDFA7B7 		.ascii	"}\337\247\267\247\330\220\01591BC\344\270=\021\241\353"
  96      A7D8900D 
  96      39314243 
  96      E4B83D11 
  96      A1EB
  97 007e 7684C83F 		.ascii	"v\204\310?4\207\004\271\214Z\220z\214\"\321Fb7\211="
ARM GAS  /tmp/ccQF4k3r.s 			page 7


  97      348704B9 
  97      8C5A907A 
  97      8C22D146 
  97      6237893D 
  98 0092 24F692F8 		.ascii	"$\366\222\370\010\375\367\240}\234$:I\034$q\221\304"
  98      08FDF7A0 
  98      7D9C243A 
  98      491C2471 
  98      91C4
  99 00a4 1F1AE732 		.ascii	"\037\032\3472\211\253$vj\354c$\034\332\230k\032sO\006"
  99      89AB2476 
  99      6AEC6324 
  99      1CDA986B 
  99      1A734F06 
 100 00b8 267D6636 		.ascii	"&}f6\211,\215{\203\304l\234\342\177\257q\036\307\352"
 100      892C8D7B 
 100      83C46C9C 
 100      E27FAF71 
 100      1EC7EA
 101 00cb 733A48B8 		.ascii	"s:H\270HL\"\237{\310\371$\211\343$\372H\034%\021'\321"
 101      484C229F 
 101      7BC8F924 
 101      89E324FA 
 101      481C2511 
 102 00e1 4DA28B84 		.ascii	"M\242\213\204M\343g\232\213\013mT\224uJ\363\006eA\367"
 102      4DE3679A 
 102      8B0B6D54 
 102      94754AF3 
 102      066541F7 
 103 00f5 38849660 		.ascii	"8\204\226`\011\217s\241<h\214u\301#\247\240\035\212"
 103      098F73A1 
 103      3C688C75 
 103      C123A7A0 
 103      1D8A
 104 0107 124B7CF6 		.ascii	"\022K|\366S\302\246(N\011\267`\027A>\214\321T\264S!"
 104      53C2A628 
 104      4E09B760 
 104      17413E8C 
 104      D154B453 
 105 011c 77C8F849 		.ascii	"w\310\370IwE>s\366\013;\220[\201\034\304H\302;\360T"
 105      77453E73 
 105      F60B3B90 
 105      5B811CC4 
 105      48C23BF0 
 106 0131 8D23E12C 		.ascii	"\215#\341,\027\313\205\317z\007\012\203\333Z\203n\361"
 106      17CB85CF 
 106      7A070A83 
 106      DB5A836E 
 106      F1
 107 0142 3DC86AF7 		.ascii	"=\310j\367\311\250IiN$\316|~:w\253\022_\257\014\015"
 107      C9A84969 
 107      4E24CE7C 
 107      7E3A77AB 
 107      125FAF0C 
 108 0157 AD4113D0 		.ascii	"\255A\023\320\233dr\324\276\202\243\022\236s_\306\031"
 108      9B6472D4 
 108      BE82A312 
ARM GAS  /tmp/ccQF4k3r.s 			page 8


 108      9E735FC6 
 108      19
 109 0168 50FE4E3C 		.ascii	"P\376N<Ak-\262\253\317\264\241\2171?\011\204\036B\255"
 109      416B2DB2 
 109      ABCFB4A1 
 109      8F313F09 
 109      841E42AD 
 110 017c 94A7B429 		.ascii	"\224\247\264)v\240\321\376mx2ou\027\266\261\027T_\361"
 110      76A0D1FE 
 110      6D78326F 
 110      7517B6B1 
 110      17545FF1 
 111 0190 6F5EFD02 		.ascii	"o^\375\002+\365\312\255\241!\273\3668\033:j\352\001"
 111      2BF5CAAD 
 111      A121BBF6 
 111      381B3A6A 
 111      EA01
 112 01a2 BBD31FF0 		.ascii	"\273\323\037\360\301\177\037\220\210%\276\331|\376e"
 112      C17F1F90 
 112      8825BED9 
 112      7CFE65
 113 01b1 FC7A5D73 		.ascii	"\374z]s\267r\211\256\207\376\214\315\266\364g\250\220"
 113      B77289AE 
 113      87FE8CCD 
 113      B6F467A8 
 113      90
 114 01c2 F68C90FA 		.ascii	"\366\214\220\3727.\332\267*G\324\325\323\021\337\031"
 114      372EDAB7 
 114      2A47D4D5 
 114      D311DF19 
 115 01d2 20F66544 		.ascii	" \366eD\264\277\3655N\"\314o@\207\266\001v\310t\244"
 115      B4BFF535 
 115      4E22CC6F 
 115      4087B601 
 115      76C874A4 
 116 01e6 6628F781 		.ascii	"f(\367\201\333\035\330\2406{fc\007xc\220\304u\303&\261"
 116      DB1DD8A0 
 116      367B6663 
 116      07786390 
 116      C475C326 
 117 01fb 84DFC553 		.ascii	"\204\337\305SL\245Y.z\235\316(\217!)\243u\324R\224\374"
 117      4CA5592E 
 117      7A9DCE28 
 117      8F2129A3 
 117      75D45294 
 118 0210 3E5C1DB8 		.ascii	">\\\035\270>\013\276\017\007q.\261\2528x\253#b\250\247"
 118      3E0BBE0F 
 118      07712EB1 
 118      AA3878AB 
 118      2362A8A7 
 119 0224 C364A83A 		.ascii	"\303d\250:\010\240J\374v\377X\305\241^G\031f\256\035"
 119      08A04AFC 
 119      76FF58C5 
 119      A15E4719 
 119      66AE1D
 120 0237 0FA06665 		.ascii	"\017\240fe}]|\250\177\333\375J\363\021\202\354\204\257"
 120      7D5D7CA8 
ARM GAS  /tmp/ccQF4k3r.s 			page 9


 120      7FDBFD4A 
 120      F31182EC 
 120      84AF
 121 0249 E426B040 		.ascii	"\344&\260@\307fZ\001\255\251\036Z\007\236\027\033\030"
 121      C7665A01 
 121      ADA91E5A 
 121      079E171B 
 121      18
 122 025a 1B937458 		.ascii	"\033\223tX\3142,\217\203\325\263\260\00630\247\261\263"
 122      CC322C8F 
 122      83D5B3B0 
 122      063330A7 
 122      B1B3
 123 026c 0616B6D5 		.ascii	"\006\026\266\3252\214w\266\205\2055\231\201\345\030"
 123      328C77B6 
 123      85853599 
 123      81E518
 124 027b 3B6B6461 		.ascii	";kda-\226a\274\263\267YX\253\031\330Dcg\333X\330\373"
 124      2D9661BC 
 124      B3B75958 
 124      AB19D844 
 124      6367DB58 
 125 0291 9661BCB3 		.ascii	"\226a\274\263&\026\266\327\014,\317\330Y;\013\333o\031"
 125      2616B6D7 
 125      0C2CCFD8 
 125      593B0BDB 
 125      6F19
 126 02a3 C63BDBC7 		.ascii	"\306;\333\307\302\016\231\201=b\354\254\203\205uY\206"
 126      C20E9981 
 126      3D62ECAC 
 126      83857559 
 126      86
 127 02b4 F1CEF6B3 		.ascii	"\361\316\366\263\260#f`3\214\234\255\215w>\037\223\306"
 127      B0236660 
 127      338C9CAD 
 127      8D773E1F 
 127      93C6
 128 02c6 A398F64A 		.ascii	"\243\230\366JQ\251\372k\005\363\251\305vk1\356&\341"
 128      51A9FA6B 
 128      05F3A9C5 
 128      766B31EE 
 128      26E1
 129 02d8 7E3C1E5A 		.ascii	"~<\036Z\360\372T\264\327'\3640z\207\017\250o\351\324"
 129      F0FA54B4 
 129      D727F430 
 129      7A870FA8 
 129      6FE9D4
 130 02eb D75F6BA4 		.ascii	"\327_k\244\336\331l/2\355c\351\323\346]d\2327\277\210"
 130      DED96C2F 
 130      32ED63E9 
 130      D3E65D64 
 130      9A37BF88 
 131 02ff 87D8453C 		.ascii	"\207\330E<nf\021\347\032\303\016\263\260\257\315\300"
 131      6E6611E7 
 131      1AC30EB3 
 131      B0AFCDC0 
 132 030f 1618E74A 		.ascii	"\026\030\347J\027\013\373\3262\214wv\202\205\365\231"
ARM GAS  /tmp/ccQF4k3r.s 			page 10


 132      170BFBD6 
 132      328C7776 
 132      8285F599 
 133 031f 8155183B 		.ascii	"\201U\030;\353aa\003\226a\254\263\265\361\223\251\304"
 133      EB616103 
 133      9661ACB3 
 133      B5F193A9 
 133      C4
 134 0330 6B9E9B96 		.ascii	"k\236\233\226ys\371\267-\327\255\305\260\233\204\177"
 134      7973F9B7 
 134      2DD7ADC5 
 134      B09B847F 
 135 0340 B39C78BF 		.ascii	"\263\234x\277\033$\036\346\022\357\367T\342\235M\237"
 135      1B241EE6 
 135      12EFF754 
 135      E29D4D9F 
 136 0350 3667426B 		.ascii	"6gBk.\311\260\206\231\016\366\017\265\204?\201B\242"
 136      2EC9B086 
 136      990EF60F 
 136      B5843F81 
 136      42A2
 137 0362 0B3F4034 		.ascii	"\013?@4\016z\004\364(\3501\320n\320\343\240_\202~\005"
 137      0E7A04F4 
 137      28E831D0 
 137      6ED0E3A0 
 137      5F827E05 
 138 0376 7A02B407 		.ascii	"z\002\264\007\364$\350)\320>\320\037@\317\200\236\005"
 138      F424E829 
 138      D03ED01F 
 138      40CF809E 
 138      05
 139 0387 FD19F41C 		.ascii	"\375\031\364\034\350y\242\311#\033\275\222\252\333\325"
 139      E879A2C9 
 139      231BBD92 
 139      AADBD5
 140 0396 1AC468ED 		.ascii	"\032\304h\355.\342l}Tr\207\032\307i\205\177\242U\231"
 140      2EE26C7D 
 140      5472871A 
 140      C769857F 
 140      A25599
 141 03a9 3831B906 		.ascii	"81\271\006Nv]\325\222\204\014\260I\370O\310\245_\034"
 141      4E765DD5 
 141      92840CB0 
 141      49F84FC8 
 141      A55F1C
 142 03bc 387D69F4 		.ascii	"8}i\364\005\372\223\331 \265\255\267\206p\022\237\243"
 142      05FA93D9 
 142      20B5ADB7 
 142      8670129F 
 142      A3
 143 03cd E36DDAA8 		.ascii	"\343m\332\250?\264D`\266N\177{5\216S\207kCg\353C\263"
 143      3FB44460 
 143      B64E7F7B 
 143      358E5387 
 143      6B4367EB 
 144 03e3 B401972D 		.ascii	"\264\001\227-\347\320\025\203\034\032\235yIiil\204\272"
 144      E7D01583 
ARM GAS  /tmp/ccQF4k3r.s 			page 11


 144      1C1A9D79 
 144      4969696C 
 144      84BA
 145 03f5 9A5A525A 		.ascii	"\232ZRZ\024\307/%\016\234Ol\304\237\266nPbk\023Ck\266"
 145      14C72F25 
 145      0E9C4F6C 
 145      C49FB66E 
 145      50626B13 
 146 040c C773F4DA 		.ascii	"\307s\364\332z\373(3?\001\256\245\377\004\270\316W\270"
 146      7AFB2833 
 146      3F01AEA5 
 146      FF04B8CE 
 146      57B8
 147 041e 19AAC978 		.ascii	"\031\252\311xr\2636&w+\226\350\275\360\253\277\216\324"
 147      72B33626 
 147      772B96E8 
 147      BDF0ABBF 
 147      8ED4
 148 0430 E212BE01 		.ascii	"\342\022\276\001e\351_i\217\037\031D\237>\230^\227n"
 148      65E95F69 
 148      8F1F1944 
 148      9F3E985E 
 148      976E
 149 0442 ED85BA74 		.ascii	"\355\205\272t\320T]\372No\003W\227\336\004\017\203\377"
 149      D0545DFA 
 149      4E6F0357 
 149      97DE040F 
 149      83FF
 150 0454 BB2E6DEA 		.ascii	"\273.m\352e\336gw,\303\3628X;\013\3330\332\004l\230"
 150      65DE6777 
 150      2CC3F238 
 150      583B0BDB 
 150      30DA046C 
 151 0469 BA741F0B 		.ascii	"\272t\037\013{\3252\214w\326\301\302^3\003\033\246."
 151      7BD5328C 
 151      77D6C1C2 
 151      5E33031B 
 151      A62E
 152 047b DDCFC21A 		.ascii	"\335\317\302\032-\303xg\235,\254\305\014\314\250.U\326"
 152      2DC37867 
 152      9D2CACC5 
 152      0CCCA82E 
 152      55D6
 153 048d C50FA930 		.ascii	"\305\017\2510\365\377'vY\206\361\316\016\263\316:\314"
 153      F5FF2776 
 153      5986F1CE 
 153      0EB3CE3A 
 153      CC
 154 049e C0F28CD7 		.ascii	"\300\362\214\327\254\213\205}b\031\3068#\337\230\023"
 154      AC8B857D 
 154      6219C638 
 154      23DF9813 
 155 04ae CF5216FD 		.ascii	"\317R\026\375KG\252\240tV\246?F\303\224\245=\254\261"
 155      4B47AAA0 
 155      7456A63F 
 155      46C394A5 
 155      3DACB1
ARM GAS  /tmp/ccQF4k3r.s 			page 12


 156 04c1 13668C19 		.ascii	"\023f\214\031V\222u\361\223,\254\3172\214_\377S,,a\006"
 156      569275F1 
 156      932CACCF 
 156      328C5FFF 
 156      532C2C61 
 157 04d6 36DB3833 		.ascii	"6\33383\372\330\314\370\3252\214w\326\317:\273b\006"
 157      FAD8CCF8 
 157      D5328C77 
 157      D6CF3ABB 
 157      6206
 158 04e8 36D778CD 		.ascii	"6\327x\315N\263\260A\3130>3~d2c]\226\211\314\030\246"
 158      4EB3B041 
 158      CB303E33 
 158      7E643263 
 158      5D9689CC 
 159 04fe 08BDC41A 		.ascii	"\010\275\304\032\333\224\016\263X7^aa[,\303\370\365"
 159      DB940EB3 
 159      58375E61 
 159      615B2CC3 
 159      F8F5
 160 0510 BFC6C29A 		.ascii	"\277\306\302\232\315\3002UcZf\374\315\2753,\303xg\377"
 160      CDC03255 
 160      635A66FC 
 160      CDBD332C 
 160      C37867FF 
 161 0524 70EF0C33 		.ascii	"p\357\0143\260\245\306k6\310\302\272,\303\370\314\270"
 161      B0A5C66B 
 161      36C8C2BA 
 161      2CC3F8CC 
 161      B8
 162 0535 C56446B7 		.ascii	"\305dF\267\231\314\360\033\033\273\303\032\3531cl\205"
 162      99CCF01B 
 162      1BBBC31A 
 162      EB31636C 
 162      85
 163 0546 312CD6CF 		.ascii	"1,\326\317\300z-\303\370Y\326?\227\232\345\200\231Y"
 163      C07A2DC3 
 163      F859D63F 
 163      979AE580 
 163      9959
 164 0558 AE3236D6 		.ascii	"\25626\326\300\032;g\306\230\202\215i[X\332\005\353"
 164      C01A3B67 
 164      C698828D 
 164      695B58DA 
 164      05EB
 165 056a B43C6478 		.ascii	"\264<dx\2605\225\204o\302O\210[P\326\337\001UlT\327"
 165      B0359584 
 165      6FC24F88 
 165      5B50D6DF 
 165      01556C54 
 166 057f 81AE07DD 		.ascii	"\201\256\007\335\000\272\021\364\025\320M\240\233Ac"
 166      00BA11F4 
 166      15D04DA0 
 166      9B4163
 167 058e A0F5A00D 		.ascii	"\240\365\240\015\240[@\033A\337\006\335\006\332\004"
 167      A05B401B 
 167      41DF06DD 
ARM GAS  /tmp/ccQF4k3r.s 			page 13


 167      06DA04
 168 059d DA0CFA2E 		.ascii	"\332\014\372.\350\016\320\367@\333@w\201\356\006\375"
 168      E80ED0F7 
 168      40DB4077 
 168      81EE06FD 
 169 05ad 10B41D74 		.ascii	"\020\264\035t\037h\007\350~\233\361\317\217\033\303"
 169      1F6807E8 
 169      7E9BF1CF 
 169      8F1BC3
 170 05bc FCFCE8B4 		.ascii	"\374\374\350\264e\033\214\352\030\246\302>\230\032\205"
 170      651B8CEA 
 170      18A6C23E 
 170      981A85
 171 05cb 1E74D7D6 		.ascii	"\036t\327\326D\334R\244zZ(\034\222\247\311\322\262\200"
 171      44DC52A4 
 171      7A5A281C 
 171      92A7C9D2 
 171      B280
 172 05dd 3B10F205 		.ascii	";\020\362\005k\253dwM\264*\020\212N\367#g-9\027\026"
 172      6BAB6477 
 172      4DB42A10 
 172      8A4EF723 
 172      672D3917 
 173 05f2 78A3A3E7 		.ascii	"x\243\243\347/\\\224'\240\231\303\014\252\226|\376@"
 173      2F5C9427 
 173      A099C30C 
 173      AA967CFE 
 173      40
 174 0603 48767BAB 		.ascii	"Hv{\253\344\345Rm0\352\215\256^!\327\020\310\030\257"
 174      E4E5526D 
 174      30EA8DAE 
 174      5E21D710 
 174      C818AF
 175 0616 57C7086E 		.ascii	"W\307\010n\177\270Zv\373\302U\253\335U\362J7\031\261"
 175      7FB85A76 
 175      FBC255AB 
 175      DD55F24A 
 175      3719B1
 176 0629 2C10AE71 		.ascii	",\020\256qG#\265\241\027\335\244\341\227\202\356\025"
 176      4723B5A1 
 176      17DDA4E1 
 176      9782EE15 
 177 0639 E148B4C6 		.ascii	"\341H\264\306\355\251,/,p\227\225\025\273+K\313W\346"
 177      EDA92C2F 
 177      2C709795 
 177      15BB2B4B 
 177      CB57E6
 178 064c 134FDE60 		.ascii	"\023O\336`\260j\272\0179\027\313\276h82oF\266z\311\033"
 178      B06ABA0F 
 178      3917CBBE 
 178      6838326F 
 178      46B67AC9 
 179 0661 0805A24F 		.ascii	"\010\005\242O\216\004\216D5n\221X.\224\257\"\035|\341"
 179      8E048E44 
 179      356E9158 
 179      2E94AF22 
 179      1D7CE1
ARM GAS  /tmp/ccQF4k3r.s 			page 14


 180 0674 88EC5DF9 		.ascii	"\210\354]\371X5q\230\353\245\367\274\201\310K^yE \030"
 180      58357198 
 180      EBA5F7BC 
 180      81C84B5E 
 180      79452018 
 181 0688 7EA1562E 		.ascii	"~\241V.4\001\324g\356\363\327\254\246\023\315\365\371"
 181      3401D467 
 181      EEF3D7AC 
 181      A613CDF5 
 181      F9
 182 0699 3DAB6B2A 		.ascii	"=\253k*\003\325rd\201\024\252\012\312\221\322\247\314"
 182      03D57264 
 182      8114AA0A 
 182      CA91D2A7 
 182      CC
 183 06aa 4FD817AE 		.ascii	"O\330\027\256\256\016\207t\177\241\225\001\037A\346"
 183      AE0E8774 
 183      7FA19501 
 183      1F41E6
 184 06b9 D0734948 		.ascii	"\320sIHZ\026\224\325i?}7+XM\367 @g\234\235\374\340\215"
 184      5A1694D5 
 184      693F7D37 
 184      2B584DF7 
 184      2040679C 
 185 06d1 DA05319F 		.ascii	"\332\0051\237D\201\303S.\210\216\342\322\022\321\346"
 185      4481C353 
 185      2E888EE2 
 185      D212D1E6 
 186 06e1 11ED25F3 		.ascii	"\021\355%\363\305Q\202P.\346\203\0268\004\241D\264\013"
 186      C5518250 
 186      2EE68316 
 186      3804A144 
 186      B40B
 187 06f3 0B2BED15 		.ascii	"\013+\355\025\036\301^$\212vQ \237\311\200y\305\225"
 187      1EC15E24 
 187      8A765120 
 187      9FC98079 
 187      C595
 188 0705 A2BD988E 		.ascii	"\242\275\230\216,/\022m\317\250\243\012I\377%\242\303"
 188      2C2F126D 
 188      CFA8A30A 
 188      49FF25A2 
 188      C3
 189 0716 E7972223 		.ascii	"\347\227\"#\256$u\034\256!B\226\224\236\211\275{\351"
 189      AE24751C 
 189      AE214296 
 189      949E89BD 
 189      7BE9
 190 0728 F9197E29 		.ascii	"\371\031~)\237\030\211#\257\212\272\205rO\251\207\314"
 190      9F188923 
 190      AF8ABA85 
 190      724FA987 
 190      CC
 191 0739 5C9DECF2 		.ascii	"\\\235\354\362\2313\362W\311t\272\242 x+I>\026\313\313"
 191      9933F257 
 191      C974BAA2 
 191      20782B49 
ARM GAS  /tmp/ccQF4k3r.s 			page 15


 191      3E16CBCB 
 192 074d 6D829855 		.ascii	"m\202\230UQV&<=_tP\261\013\245\242\263h\301\274|\321"
 192      5156263C 
 192      3D5F7450 
 192      B10BA5A2 
 192      B368C1BC 
 193 0763 53098D02 		.ascii	"S\011\215\002\275QH\033.\261\304S\"..)\236\341,\252"
 193      BD51481B 
 193      2EB1C453 
 193      222E2E29 
 193      9EE12CAA 
 194 0777 D03B55A8 		.ascii	"\320;U\250\235\222\367\362\263(\240d\241H\317\005\332"
 194      9D92F7F2 
 194      B328A064 
 194      A148CF05 
 194      DA
 195 0788 B9909C93 		.ascii	"\271\220\234\223=\012\262\350h\270S\001=\222w\012]t"
 195      3D0AB2E8 
 195      68B85301 
 195      3D92770A 
 195      5D74
 196 079a 6C5905BD 		.ascii	"lY\005\275FG'[\205jK\3577\323E\011\332\335\012\275\237"
 196      4647275B 
 196      856A4BEF 
 196      37D34509 
 196      DADD0ABD 
 197 07af 7EF751B2 		.ascii	"~\367Q\262\017tC<\251K\263Fy<\302|q\014\231li\201\207"
 197      0F74433C 
 197      A94BB346 
 197      793CC27C 
 197      710C996C 
 198 07c6 4EF55F8D 		.ascii	"N\365_\215x\262^"
 198      78B25E
 199              		.text
 200              		.section	.gnu.lto_.symtab.8452552ca5928fe4,"",%progbits
 201 0000 56656374 		.ascii	"VectorB0\000\000\000\000\000\000\000\000\000\000\000"
 201      6F724230 
 201      00000000 
 201      00000000 
 201      000000
 202 0013 00A80000 		.ascii	"\000\250\000\000\000st_lld_init\000\000\000\000\000"
 202      0073745F 
 202      6C6C645F 
 202      696E6974 
 202      00000000 
 203 0028 00000000 		.ascii	"\000\000\000\000\000\000\000\254\000\000\000_port_i"
 203      000000AC 
 203      0000005F 
 203      706F7274 
 203      5F69
 204 003a 72715F65 		.ascii	"rq_epilogue\000\000\002\000\000\000\000\000\000\000"
 204      70696C6F 
 204      67756500 
 204      00020000 
 204      00000000 
 205 004f 0000AF00 		.ascii	"\000\000\257\000\000\000chSysTimerHandlerI\000\000\002"
 205      00006368 
ARM GAS  /tmp/ccQF4k3r.s 			page 16


 205      53797354 
 205      696D6572 
 205      48616E64 
 206 006a 00000000 		.ascii	"\000\000\000\000\000\000\000\000\000\261\000\000\000"
 206      00000000 
 206      00B10000 
 206      00
 207 0077 6E766963 		.ascii	"nvicEnableVector\000\000\002\000\000\000\000\000\000"
 207      456E6162 
 207      6C655665 
 207      63746F72 
 207      00000200 
 208 0090 000000B3 		.ascii	"\000\000\000\263\000\000\000"
 208      000000
 209              		.text
 210              		.section	.gnu.lto_.opts,"",%progbits
 211 0000 272D6D63 		.ascii	"'-mcpu=cortex-m4' '-mfloat-abi=hard' '-mfpu=fpv4-sp"
 211      70753D63 
 211      6F727465 
 211      782D6D34 
 211      2720272D 
 212 0033 2D643136 		.ascii	"-d16' '-mno-thumb-interwork' '-mthumb' '-O2' '-fomi"
 212      2720272D 
 212      6D6E6F2D 
 212      7468756D 
 212      622D696E 
 213 0066 742D6672 		.ascii	"t-frame-pointer' '-falign-functions=16' '-ffunction"
 213      616D652D 
 213      706F696E 
 213      74657227 
 213      20272D66 
 214 0099 2D736563 		.ascii	"-sections' '-fdata-sections' '-fno-common' '-flto' "
 214      74696F6E 
 214      73272027 
 214      2D666461 
 214      74612D73 
 215 00cc 272D6673 		.ascii	"'-fsingle-precision-constant'\000"
 215      696E676C 
 215      652D7072 
 215      65636973 
 215      696F6E2D 
 216              		.text
 217              		.section	.text.VectorB0,"ax",%progbits
 218              		.align	2
 219              		.p2align 4,,15
 220              		.global	VectorB0
 221              		.thumb
 222              		.thumb_func
 223              		.type	VectorB0, %function
 224              	VectorB0:
 225              		@ args = 0, pretend = 0, frame = 0
 226              		@ frame_needed = 0, uses_anonymous_args = 0
 227 0000 4FF08043 		mov	r3, #1073741824
 228 0004 10B5     		push	{r4, lr}
 229 0006 0024     		movs	r4, #0
 230 0008 1C61     		str	r4, [r3, #16]
 231 000a 2023     		movs	r3, #32
ARM GAS  /tmp/ccQF4k3r.s 			page 17


 232              	@ 546 "/home/cody/dev/chibios/trunk/os/ext/CMSIS/include/core_cmFunc.h" 1
 233 000c 83F31188 		MSR basepri, r3
 234              	@ 0 "" 2
 235              		.thumb
 236 0010 FFF7FEFF 		bl	chSysTimerHandlerI
 237              	@ 546 "/home/cody/dev/chibios/trunk/os/ext/CMSIS/include/core_cmFunc.h" 1
 238 0014 84F31188 		MSR basepri, r4
 239              	@ 0 "" 2
 240              		.thumb
 241 0018 BDE81040 		pop	{r4, lr}
 242 001c FFF7FEBF 		b	_port_irq_epilogue
 243              		.size	VectorB0, .-VectorB0
 244              		.section	.text.st_lld_init,"ax",%progbits
 245              		.align	2
 246              		.p2align 4,,15
 247              		.global	st_lld_init
 248              		.thumb
 249              		.thumb_func
 250              		.type	st_lld_init, %function
 251              	st_lld_init:
 252              		@ args = 0, pretend = 0, frame = 0
 253              		@ frame_needed = 0, uses_anonymous_args = 0
 254              		@ link register save eliminated.
 255 0000 70B4     		push	{r4, r5, r6}
 256 0002 0D49     		ldr	r1, .L3
 257 0004 086C     		ldr	r0, [r1, #64]
 258 0006 4FF08043 		mov	r3, #1073741824
 259 000a 0022     		movs	r2, #0
 260 000c 0124     		movs	r4, #1
 261 000e 40F00100 		orr	r0, r0, #1
 262 0012 42F2CF06 		movw	r6, #8399
 263 0016 4FF0FF35 		mov	r5, #-1
 264 001a 0864     		str	r0, [r1, #64]
 265 001c 9E62     		str	r6, [r3, #40]
 266 001e 1C20     		movs	r0, #28
 267 0020 DD62     		str	r5, [r3, #44]
 268 0022 0821     		movs	r1, #8
 269 0024 9A61     		str	r2, [r3, #24]
 270 0026 5A63     		str	r2, [r3, #52]
 271 0028 DA60     		str	r2, [r3, #12]
 272 002a 5A60     		str	r2, [r3, #4]
 273 002c 5C61     		str	r4, [r3, #20]
 274 002e 1C60     		str	r4, [r3]
 275 0030 70BC     		pop	{r4, r5, r6}
 276 0032 FFF7FEBF 		b	nvicEnableVector
 277              	.L4:
 278 0036 00BF     		.align	2
 279              	.L3:
 280 0038 00380240 		.word	1073887232
 281              		.size	st_lld_init, .-st_lld_init
 282              		.comm	__gnu_lto_v1,1,1
 283 003c AFF30080 		.ident	"GCC: (GNU Tools for ARM Embedded Processors) 4.8.4 20140526 (release) [ARM/embedded-4_8-br
ARM GAS  /tmp/ccQF4k3r.s 			page 18


DEFINED SYMBOLS
                            *ABS*:0000000000000000 st_lld.c
     /tmp/ccQF4k3r.s:218    .text.VectorB0:0000000000000000 $t
     /tmp/ccQF4k3r.s:224    .text.VectorB0:0000000000000000 VectorB0
     /tmp/ccQF4k3r.s:245    .text.st_lld_init:0000000000000000 $t
     /tmp/ccQF4k3r.s:251    .text.st_lld_init:0000000000000000 st_lld_init
     /tmp/ccQF4k3r.s:280    .text.st_lld_init:0000000000000038 $d
                            *COM*:0000000000000001 __gnu_lto_v1
     /tmp/ccQF4k3r.s:283    .text.st_lld_init:000000000000003c $t

UNDEFINED SYMBOLS
chSysTimerHandlerI
_port_irq_epilogue
nvicEnableVector
