ARM GAS  /tmp/cci6z0MT.s 			page 1


   1              		.syntax unified
   2              		.cpu cortex-m3
   3              		.fpu softvfp
   4              		.eabi_attribute 20, 1
   5              		.eabi_attribute 21, 1
   6              		.eabi_attribute 23, 3
   7              		.eabi_attribute 24, 1
   8              		.eabi_attribute 25, 1
   9              		.eabi_attribute 26, 1
  10              		.eabi_attribute 30, 2
  11              		.eabi_attribute 34, 1
  12              		.eabi_attribute 18, 4
  13              		.thumb
  14              		.file	"stm32_dma.c"
  15              		.section	.gnu.lto_.jmpfuncs.49eed8371e815d93,"",%progbits
  16 0000 789C6D8D 		.ascii	"x\234m\215\313\012\2000\020\003\247[\265V|\374mo\342"
  16      CB0A8030 
  16      1003A75B 
  16      B5567CFC 
  16      6D6FE2
  17 0013 AF9B8A98 		.ascii	"\257\233\212\230\213\013!s\0306A\360w\347\333+EB\206"
  17      8B0B2173 
  17      183641F0 
  17      77E7DB2B 
  17      454286
  18 0026 D4942E3F 		.ascii	"\324\224.?\376\005\203q4N\306b\234\215\325\270\260\035"
  18      FE058371 
  18      344EC662 
  18      9C8DD5B8 
  18      B01D
  19 0038 59AF69DF 		.ascii	"Y\257i\337\202*T{\322\026\334\241\367\006i"
  19      822A547B 
  19      D216DCA1 
  19      F70669
  20              		.text
  21              		.section	.gnu.lto_.inline.49eed8371e815d93,"",%progbits
  22 0000 789C8590 		.ascii	"x\234\205\220=n\302@\020\205\337\214w\327\346\317\262"
  22      3D6EC240 
  22      1085DF8C 
  22      77D7E6CF 
  22      B2
  23 0011 5DE01428 		.ascii	"]\340\024(Xi\350\020GHIe\245\314\005\242@\301=\240\262"
  23      5869E810 
  23      47484965 
  23      A5CC05A2 
  23      40C13DA0 
  24 0026 4F107104 		.ascii	"O\020q\004\312\324\251Rq\006\312\224\234\0001\273\233"
  24      CAD4A952 
  24      7106CA94 
  24      9C0031BB 
  24      9B
  25 0037 581441BB 		.ascii	"X\024A\273\305\333\247\267\337\214V\217\301\370\357"
  25      C5DBA7B7 
  25      DF8C568F 
  25      C1F8EF
  26 0046 9CC9DF43 		.ascii	"\234\311\337C\240(I\363\352\225\326.\342\367?\007\321"
  26      A02849F3 
ARM GAS  /tmp/cci6z0MT.s 			page 2


  26      EA95D62E 
  26      E2F73F07 
  26      D1
  27 0057 C86BC536 		.ascii	"\310k\3056\351\215\276\337\020og\014\372\2113\257V*"
  27      E98DBEDF 
  27      106F670C 
  27      FA8933AF 
  27      562A
  28 0069 672BA8FD 		.ascii	"g+\250\375\364\031\324\030\305N\355\212h\010\005n\353"
  28      F419D418 
  28      C54EED8A 
  28      6808056E 
  28      EB
  29 007a B626184D 		.ascii	"\266&\030M`s\236\303\354\247\356S\214\254\222(\275\254"
  29      60739EC3 
  29      ECA7EE53 
  29      8CAC9228 
  29      BDAC
  30 008c BB88FA22 		.ascii	"\273\210\372\":\207\237Q(\236\004(>vt\207\320A\302\004"
  30      3A879F51 
  30      289E0428 
  30      3E767487 
  30      D041C204 
  31 00a0 89384824 		.ascii	"\2118H$A\242\027$\372\030,\204\310NG\335\021#<\214\211"
  31      41A21724 
  31      FA182C84 
  31      C84E47DD 
  31      11233C8C 
  32 00b5 5CC34B35 		.ascii	"\\\303K5\371j~g\245L\2510\372,m\205\012:\225w\273\242"
  32      F96A7E67 
  32      A54CA930 
  32      FA2C6D85 
  32      0A3A9577 
  33 00cb AD53E48F 		.ascii	"\255S\344\217\304~\300\351\213I\017\233\333)\275\235"
  33      C47EC0E9 
  33      8B490F9B 
  33      DB29BD9D 
  34 00db 296B1317 		.ascii	")k\023\027$\335?x \246\255q\005<\345>\\"
  34      24DD3F78 
  34      20A6AD71 
  34      053CE53E 
  34      5C
  35              		.text
  36              		.section	.gnu.lto_.pureconst.49eed8371e815d93,"",%progbits
  37 0000 789C6362 		.ascii	"x\234cb`b\220d\200\000\036\006)F)&)\026)V)6)v)\016)"
  37      60629064 
  37      80001E06 
  37      29462926 
  37      29162956 
  38 001b 4E292E29 		.ascii	"N).)^)>I\000\026[\001\260"
  38      5E293E49 
  38      00165B01 
  38      B0
  39              		.text
  40              		.section	.gnu.lto_dmaStreamAllocate.part.0.49eed8371e815d93,"",%progbits
  41 0000 789C8D93 		.ascii	"x\234\215\223Mh\023Q\020\200g\336\333\315\377\237\005"
  41      4D681351 
ARM GAS  /tmp/cci6z0MT.s 			page 3


  41      108067DE 
  41      DBCDFF9F 
  41      05
  42 0011 0FC14BE9 		.ascii	"\017\301K\351U\350\332\366&\364Z\350A<\230\200z\011"
  42      55E8DAF6 
  42      26F45AE8 
  42      413C9880 
  42      7A09
  43 0023 9B1F92A5 		.ascii	"\233\037\222\245\256)\331(\025\017}is\020O\301\203\024"
  43      AE29D928 
  43      150F7D69 
  43      73104FC1 
  43      8314
  44 0035 E3C19E04 		.ascii	"\343\301\236\004Q\004E\021\004\177\021D\250\322\243"
  44      51044511 
  44      047F1144 
  44      A8D2A3
  45 0044 7A29F55A 		.ascii	"z)\365ZD\017\202zp\235\331M6ik\211\201\314\23373\337"
  45      440F827A 
  45      709DD94D 
  45      36696B89 
  45      81CC9B37 
  46 005a FCBCF756 		.ascii	"\374\274\367V\200\200\275\277\343\364\337\221\000MZ"
  46      8080BDBF 
  46      E3F4DF91 
  46      004D5A
  47 0069 3104A877 		.ascii	"1\004\250w\336\223\242\243\360V!dw\026TL\373\221\001"
  47      DE93A2A3 
  47      F0562164 
  47      7716544C 
  47      FB9101
  48 007c 9590A8B1 		.ascii	"\225\220\250\261\265\025\321\020Y\001\204e]H\015\227"
  48      B515D110 
  48      59018465 
  48      5D480D97 
  49 008c CF20E792 		.ascii	"\317 \347\222\023\260\256\324\265\2557\017\036f\325"
  49      13B0AED4 
  49      B5AD370F 
  49      1E66D5
  50 009b AD958EFA 		.ascii	"\255\225\216\372\343\272h!U\235G(!\234\246\015\216{"
  50      E3BA6821 
  50      559D4728 
  50      219CA60D 
  50      8E7B
  51 00ad 8BD076B7 		.ascii	"\213\320v\267\341\223/6\273\327\263\357\006\244\024"
  51      E1932F36 
  51      BBD7B3EF 
  51      06A414
  52 00bc 70F29FA4 		.ascii	"p\362\237\244\215\373\320G\237of\257\356B\213\243\212"
  52      8DFBD047 
  52      9F6F66AF 
  52      EE428BA3 
  52      8A
  53 00cd DE176ACB 		.ascii	"\336\027j\313u\177m\307\017#\332\210\002,\324$\011\251"
  53      757F6DC7 
  53      0F23DA88 
  53      022CD424 
ARM GAS  /tmp/cci6z0MT.s 			page 4


  53      09A9
  54 00df B1D049E8 		.ascii	"\261\320I\350!\022\2410\211p\204E\224\0351\012\026q"
  54      2112A130 
  54      89708445 
  54      941D310A 
  54      1671
  55 00f1 7624789B 		.ascii	"v$x\233\244\255L\221\026\241\224:\264\225\352\214\233"
  55      A4AD4C91 
  55      16A1943A 
  55      B495EA8C 
  55      9B
  56 0102 B88E13B4 		.ascii	"\270\216\023\264-y}\346H\362y\345P\347U\346\251\024"
  56      2D797DE6 
  56      48F279E5 
  56      50E755E6 
  56      A914
  57 0114 AF1BB0F2 		.ascii	"\257\033\260\362\351\347\263#&\336&G\025\305Q\270\243"
  57      E9E7B323 
  57      26DE2647 
  57      15C551B8 
  57      A3
  58 0125 321646BB 		.ascii	"2\026F\273p\243\245X\213U\021\271\361\270\327n1\030"
  58      70A3A558 
  58      8B5511B9 
  58      F1B8D76E 
  58      3118
  59 0137 7A035E9D 		.ascii	"z\003^\235\355S\222\251v\213\242\023\001\227\244d\314"
  59      ED5392A9 
  59      768BA213 
  59      0197A464 
  59      CC
  60 0148 457B1C06 		.ascii	"E{\034\006\334\352S\331\0075b9H~s]7\355g\235\367\235"
  60      DCEA53D9 
  60      07356239 
  60      487E735D 
  60      37ED679D 
  61 015e FF9D92B2 		.ascii	"\377\235\222\2620\267\022t\243\367fH\0358\203\010z\031"
  61      30B71274 
  61      A3F76648 
  61      1D388308 
  61      7A19
  62 0170 50A11E95 		.ascii	"P\241\036\225>\220\222\003\352k0A\230Ho\250{\201)\302"
  62      3E909203 
  62      EA6B3041 
  62      98486FA8 
  62      7B8129C2 
  63 0184 5038CDCE 		.ascii	"P8\315\316=\301\321*_\320`F.\345\317H]3\225\352M\024"
  63      3DC1D12A 
  63      5FD06046 
  63      2EE5CF48 
  63      5D3395EA 
  64 019a F5A29EAC 		.ascii	"\365\242\236\254=\177-\207OC\345G\037\007[\022\254\274"
  64      3D7F2D87 
  64      4F43E547 
  64      1F075B12 
  64      ACBC
  65 01ac 85F6CE4B 		.ascii	"\205\366\316K\267\033\024\217\261'3\374\366\3624Rw\326"
ARM GAS  /tmp/cci6z0MT.s 			page 5


  65      B71B148F 
  65      B12733FC 
  65      F6F23452 
  65      77D6
  66 01be 7B026BDB 		.ascii	"{\002k\333_\202\300\370\310\223\320\206Nb\3651\366A"
  66      5F82C0F8 
  66      C893D086 
  66      4E62F531 
  66      F641
  67 01d0 9A82223E 		.ascii	"\232\202\">\200\356\033\000.\303ou\205\023\034*\005"
  67      80EE1B00 
  67      2EC36F75 
  67      85131C2A 
  67      05
  68 01e1 97454149 		.ascii	"\227EAI\013\307\372\035h\336+\334\244\017\232\235\336"
  68      0BC7FA1D 
  68      68DE2BDC 
  68      A40F9A9D 
  68      DE
  69 01f2 FC1F21C5 		.ascii	"\374\037!\305\305\310 \356~O\366T\351\275a\344h\276"
  69      C5C820EE 
  69      7E4FF654 
  69      E9BD61E4 
  69      68BE
  70 0204 BD39A356 		.ascii	"\2759\243V\267+F\251^\276d\224+\027\215R\315*Zu\307"
  70      B72B46A9 
  70      5EBE6494 
  70      2B178D52 
  70      CD2A5A75 
  71 0219 68362E9C 		.ascii	"h6.\234_0H\251\231\347\214\305z\243\351\030\247r'f\246"
  71      5F3048A9 
  71      99E78CC5 
  71      7AA3E918 
  71      A7722766 
  72 022e 7D3937B5 		.ascii	"}97\265\264d8M{f\272P\266\315\311\022\350\213f\303\264"
  72      B464384D 
  72      7B66BA50 
  72      B6CDC912 
  72      E88B66C3 
  73 0243 C7685370 		.ascii	"\307hSp\232\215\212i;\005\333t\026&\247\366\233\216"
  73      9A8D8A69 
  73      3B05DB74 
  73      1626A7F6 
  73      9B8E
  74 0255 FD0545D5 		.ascii	"\375\005E\325\001\271"
  74      01B9
  75              		.text
  76              		.section	.gnu.lto_dmaStreamRelease.part.1.49eed8371e815d93,"",%progbits
  77 0000 789C9550 		.ascii	"x\234\225PAK\002A\024~of\225\242C\321\315\233x\025\034"
  77      414B0241 
  77      147E6F66 
  77      95A243D1 
  77      CD9B7815 
  78 0015 D2FF2078 		.ascii	"\322\377 x\010\202\024\352$\353*)\266\255\270k\324\311"
  78      088214EA 
  78      24EB2A29 
  78      B6ADB86B 
ARM GAS  /tmp/cci6z0MT.s 			page 6


  78      D4C9
  79 0027 B13C7494 		.ascii	"\261<t\224\016\035\012BOE\227\240.A\227\020\272\004"
  79      0E1D0A42 
  79      4F4597A0 
  79      2E419710 
  79      BA04
  80 0039 061DEBE4 		.ascii	"\006\035\353\344\331? D\264\275\231\305\"\013\242\201"
  80      D93F2044 
  80      B4BD99C5 
  80      220BA281 
  81 0049 7DDF9BF7 		.ascii	"}\337\233\367\346\373\276\367\226\001\203\351\023\247"
  81      E6FBBEF7 
  81      960183E9 
  81      13A7
  82 0057 AF8F000D 		.ascii	"\257\217\000\015B\014\001\032\235GJ\014d\032\031r\205"
  82      420C011A 
  82      9D474A0C 
  82      641A1972 
  82      85
  83 0068 AD198EA8 		.ascii	"\255\031\216\250\022@h\032\214cs\035\025\231\307\240"
  83      1240681A 
  83      8C63731D 
  83      1599C7A0 
  84 0078 27E5E1F0 		.ascii	"'\345\341\360~t\035\221\335\275\216|\367}\254 \331d"
  84      7E741D91 
  84      DDBD8E7C 
  84      F77DAC20 
  84      D964
  85 008a 102C8435 		.ascii	"\020,\2045\272`T\0033\276\373\006\314\273\361\351Q\344"
  85      BA605403 
  85      33BEFB06 
  85      CCBBF1E9 
  85      51E4
  86 009c E18BC919 		.ascii	"\341\213\311\031\254\374\312\264q\232*\257\316\345l"
  86      ACFCCAB4 
  86      719A2AAF 
  86      CEE56C
  87 00ab 57BEF93E 		.ascii	"W\276\371>\327<\353/\307K&\207\276\377\374:\027B\320"
  87      D73CEB2F 
  87      C74B2687 
  87      BEFFFC3A 
  87      1742D0
  88 00be 0C0A540E 		.ascii	"\014\012T\016A[\312N\324\304\036\306\350ji\243,E\265"
  88      415BCA4E 
  88      D4C41EC6 
  88      E86A69A3 
  88      2C45B5
  89 00d1 6F160D85 		.ascii	"o\026\015\205<\207L\343\000\372/7\343\270\211g\364\257"
  89      3C874CE3 
  89      00FA2F37 
  89      E3B88967 
  89      F4AF
  90 00e3 3610E370 		.ascii	"6\020\343p!\333\255\205\012\032'p\334\352H\312B\312"
  90      21DBAD85 
  90      0A1A2770 
  90      DCEA48CA 
  90      42CA
ARM GAS  /tmp/cci6z0MT.s 			page 7


  91 00f5 3B2CBB07 		.ascii	";,\273\007\322\320c\204\265y\341s\376\001\354\337\362"
  91      D2D06384 
  91      B579E173 
  91      FE01ECDF 
  91      F2
  92 0106 8900230D 		.ascii	"\211\000#\015\365\210\323\372\376\274\356\3663A\363"
  92      F588D3FA 
  92      FEBCEEF6 
  92      3341F3
  93 0115 DFD2A416 		.ascii	"\337\322\244\026$9\332K\015\373\004\255\341H\004j\223"
  93      2439DA4B 
  93      0DFB04AD 
  93      E148046A 
  93      93
  94 0126 9345543D 		.ascii	"\223ET=\3652-\312\216]\022\226S\334\025\305\322\266"
  94      F5322DCA 
  94      8E5D1296 
  94      53DC15C5 
  94      D2B6
  95 0138 B0CA9542 		.ascii	"\260\312\225B\305q\205WolU\005%esS\324\234\272\347\212"
  95      C5718557 
  95      6F6C5505 
  95      25657353 
  95      D49CBAE7 
  96 014d D5EC722A 		.ascii	"\325\354r*\031\304\364\322\316\216p=;\225\314\027m3"
  96      19C4F4D2 
  96      CE8E703D 
  96      3B95CC17 
  96      6D33
  97 015f 614198C0 		.ascii	"aA\230\300\365j\213\004y\327\253\227L\333\315S\245\232"
  97      F56A8B04 
  97      79D7AB97 
  97      4CDBCD53 
  97      A59A
  98 0171 48FD2C25 		.ascii	"H\375,%?\0005\241\230\014"
  98      3F0035A1 
  98      980C
  99              		.text
 100              		.section	.gnu.lto_Vector6C.49eed8371e815d93,"",%progbits
 101 0000 789C9D91 		.ascii	"x\234\235\221Ak\023A\024\200\337\233\231M\322\230\232"
 101      416B1341 
 101      1480DF9B 
 101      994DD298 
 101      9A
 102 0011 E02F2882 		.ascii	"\340/(\202\027\213\016\246\347z,xP\020S\260'\331l\322"
 102      178B0EA6 
 102      E77A2C78 
 102      501053B0 
 102      27D96CD2 
 103 0025 66B031D2 		.ascii	"f\2601\322D\251x\350[\023\301\233\305S4\027\333\334"
 103      44A978E8 
 103      5B13C19B 
 103      C5533417 
 103      DBDC
 104 0037 44F0AA78 		.ascii	"D\360\252x0\024\004=\324\342M\212\207\365\356\301\034"
 104      3014043D 
 104      D4E24D8A 
ARM GAS  /tmp/cci6z0MT.s 			page 8


 104      87F5EEC1 
 104      1C
 105 0048 0415617D 		.ascii	"\004\025a}\263\223\015*xq`\337\274\231y\373\31573\002"
 105      B3930D2A 
 105      787160DF 
 105      BC9979FB 
 105      CD373302 
 106 005c 04FCDDCA 		.ascii	"\004\374\335\312\374\205<}\201{\364\000\305\366;\236"
 106      FC853C7D 
 106      817BF400 
 106      C5F63B9E 
 107 006c C8092107 		.ascii	"\310\011!\007\213@y\365\265\004T\220\250\334\264B\264"
 107      8B4079F5 
 107      B5045490 
 107      A8DCB442 
 107      B4
 108 007d 09206C09 		.ascii	"\011 l\011\251pk\005-\003\217\303\016\321\203\350u\034"
 108      A9706B05 
 108      2D038FC3 
 108      0ED183E8 
 108      751C
 109 008f E1431AF5 		.ascii	"\341C\032\365\036\323\3178F4\310\373\235C\010\020.\363"
 109      1ED3CF38 
 109      4634C8FB 
 109      9D430810 
 109      2EF3
 110 00a1 00E7924E 		.ascii	"\000\347\222N\250?\005\236\211Q\024\307\037_}\371\324"
 110      A83F059E 
 110      895114C7 
 110      1F5F7DF9 
 110      D4
 111 00b2 C7637909 		.ascii	"\307cy\011\006\245\002\037w\030\232\341\201\312r\360"
 111      06A5021F 
 111      77189AE1 
 111      81CA72F0 
 112 00c2 B8CE831E 		.ascii	"\270\316\203\036\321\366\234[\001\013\345V\341h\205"
 112      D1F69C5B 
 112      010BE556 
 112      E16885
 113 00d1 9651D85E 		.ascii	"\226Q\330^\356\303\336\341\207\335\261\360q\310?\255"
 113      EEC3DEE1 
 113      87DDB1F0 
 113      71C83FAD 
 114 00e1 A19C8727 		.ascii	"\241\234\207'\324\343]3\003x\024\022\321E\203Yk\221"
 114      D4E35D33 
 114      03781412 
 114      D1458359 
 114      6B91
 115 00f3 23BA472A 		.ascii	"#\272G*\021\312%\032UL\205\366\241\373\262\273\232\022"
 115      11CA251A 
 115      554C85F6 
 115      A1FBB2BB 
 115      9A12
 116 0105 14436C95 		.ascii	"\024Cl\225,&K{o\277\355\216\321-&\354\220\212\216\216"
 116      2C264B7B 
 116      6FBFED8E 
 116      D12D26EC 
ARM GAS  /tmp/cci6z0MT.s 			page 9


 116      908A8E8E 
 117 0119 FF263B34 		.ascii	"\377&;4\263,\341\316a\177\370}*\230\231\207\223\006"
 117      B32CE1CE 
 117      617FF87D 
 117      2A989987 
 117      9306
 118 012b 674EC153 		.ascii	"gN\301S\226\243\025\203y'Z2x\3446\374`\024g\205fB\260"
 118      96A31583 
 118      79275A32 
 118      78E436FC 
 118      60146785 
 119 0142 C802A4D9 		.ascii	"\310\002\244\331\354\364\006\253\230>\353\033\350}\016"
 119      ECF406AB 
 119      983EEB1B 
 119      E87D0E
 120 0151 67A76C5B 		.ascii	"g\247l[6\363\373]/\243\204\301\242\264\022\317\207c"
 120      36F3FB5D 
 120      2FA384C1 
 120      A2B412CF 
 120      8763
 121 0163 99166613 		.ascii	"\231\026f\023\011o\"\361\002\377\323BN\262\003\270;"
 121      096F22F1 
 121      02FFD342 
 121      4EB203B8 
 121      3B
 122 0174 3AEBD8F6 		.ascii	":\353\330\366\324\031\033\262|z\203GS\015\225\274\326"
 122      D4191BB2 
 122      7C7A8347 
 122      530D95BC 
 122      D6
 123 0185 0174A3FB 		.ascii	"\001t\243\373\365\264r\272Q1\230\334\230\301\022\300"
 123      F5B472BA 
 123      513198DC 
 123      98C112C0 
 124 0195 7B08A3FE 		.ascii	"{\010\243\376\211\264\310\265\012\0270\300\036{I7Z\315"
 124      89B4C8B5 
 124      0A1730C0 
 124      1E7B4937 
 124      5ACD
 125 01a7 BA0E5AB5 		.ascii	"\272\016Z\265[\272V\277\251\203\206\251\232V[w6n\\\273"
 125      5BBA56BF 
 125      A98386A9 
 125      9A565B77 
 125      366E5CBB 
 126 01bb AA3969F8 		.ascii	"\2529i\370\353\372zk\243\323\326\227*\347\027\312.."
 126      EBFA7A6B 
 126      A3D3D697 
 126      2AE717CA 
 126      2E2E
 127 01cd 9DD9DCD4 		.ascii	"\235\331\334\324\355Ns\241|\245\326\364O\007\340\255"
 127      ED4E73A1 
 127      7CA5D6F4 
 127      4F07E0AD 
 128 01dd AEFB6BED 		.ascii	"\256\373k\355_\\\313\256\227"
 128      5F5CCBAE 
 128      97
 129              		.text
ARM GAS  /tmp/cci6z0MT.s 			page 10


 130              		.section	.gnu.lto_Vector70.49eed8371e815d93,"",%progbits
 131 0000 789C9D52 		.ascii	"x\234\235R\317k\023A\024~of6\335\215\211\011\375\013"
 131      CF6B1341 
 131      147E6F66 
 131      36DD8D89 
 131      09FD0B
 132 0013 8AE0C562 		.ascii	"\212\340\305b\007\323s=\026<\350\305\024\354I6\233\264"
 132      07D3733D 
 132      163CE8C5 
 132      14EC4936 
 132      9BB4
 133 0025 596C8C34 		.ascii	"Yl\2144Q*\036:\353\246\340\261\010B\333\\,\336\032\177"
 133      512A1E3A 
 133      EBA6E0B1 
 133      0842DB5C 
 133      2CDE1A7F 
 134 0039 1CA51124 		.ascii	"\034\245\021$\366\244\207Z\305\213\364\224\336=\350"
 134      F6A4875A 
 134      C58BF494 
 134      DE3DE8
 135 0048 415029C4 		.ascii	"AP)\3047;\231P\275\010>\330\367\336\314\367\3367\337"
 135      373B9950 
 135      BD083ED8 
 135      F7DECCF7 
 135      DE37DF
 136 005b 9B59060C 		.ascii	"\233Y\006\014\376\266\002}\257i\373\012Et\000\331\372"
 136      FEB6027D 
 136      AF69FB0A 
 136      457400D9 
 136      FA
 137 006c 7B80C865 		.ascii	"{\200\310e\214\267g@\245\305\367<\250\014Ga\266\005"
 137      8CB76740 
 137      A5C5F73C 
 137      A80C4761 
 137      B605
 138 007e A24E0061 		.ascii	"\242N\000a\225q\201\253\363\2509\360\014l+\365\260\277"
 138      957181AB 
 138      F3A839F0 
 138      0C6C2BF5 
 138      B0BF
 139 0090 B673849B 		.ascii	"\266s\204\233\252\327z\254\216\007\003\304\020\351\274"
 139      AAD77AAC 
 139      8E0703C4 
 139      10E9BC
 140 009f 4B0801C2 		.ascii	"K\010\001\3025Z\340D\022\230\370S\300\013\326\353\017"
 140      355AE044 
 140      1298F853 
 140      C00BD6EB 
 140      0F
 141 00b0 06C79FBE 		.ascii	"\006\307\237\276\036uq<\303!D.\264s\300\307mbN\351\205"
 141      1E75713C 
 141      C321442E 
 141      B473C0C7 
 141      6D624EE9 
 142 00c5 4B4E78E4 		.ascii	"KNx\344\034\352p\240\245\324\372\204\201A\323\223\025"
 142      1CEA70A0 
 142      A5D4FA84 
ARM GAS  /tmp/cci6z0MT.s 			page 11


 142      8141D393 
 142      15
 143 00d6 C96B6973 		.ascii	"\311kis\310t\344\373\260w\270\321y\303||BM\213\310'"
 143      C874E4FB 
 143      B077B8D1 
 143      79C37C7C 
 143      424D8BC8 
 144 00eb 6147B5E8 		.ascii	"aG\265\350\374T\033\266(\214i-\256R\017\224Hd\271\211"
 144      FC541BB6 
 144      288C692D 
 144      AE520F94 
 144      4864B989 
 145 00ff 98125A59 		.ascii	"\230\022ZY\373\020?\217\273h\333\0051\3502O\030\354"
 145      FB103F8F 
 145      BB68DB05 
 145      31E8324F 
 145      18EC
 146 0111 55BC6021 		.ascii	"U\274`!\207P\015\361\234\201\236\305/\037MY0E\370\211"
 146      87500DF1 
 146      9C819EC5 
 146      2F1F4D59 
 146      3045F889 
 147 0125 BEBD771F 		.ascii	"\276\275w\037\306\014\224\310\211T\356\237\202\214\""
 147      C60C94C8 
 147      8954EE9F 
 147      828C22
 148 0134 62D2FDF7 		.ascii	"b\322\375\367\017?w~\216fr'\341\\\210\351\363\360T\221"
 148      0F3F777E 
 148      8E667227 
 148      E15C88E9 
 148      F3F05491 
 149 0148 CD87788A 		.ascii	"\315\207x\212\250\"\245\362!f\356\301/\242\242,[K\030"
 149      A822A5F2 
 149      2166EEC1 
 149      2FA2A22C 
 149      5B4B18
 150 015b 3465166C 		.ascii	"4e\026l\346\215\346,\241\375'\336B\353K\224\035q\353"
 150      E68DE62C 
 150      A1FD27DE 
 150      42EB4B94 
 150      1D71EB
 151 016e B2F4C987 		.ascii	"\262\364\311\207\232C\016\355\031\256E\374\350|\343"
 151      9A430EED 
 151      19AE45FC 
 151      E87CE3
 152 017d B6D04B44 		.ascii	"\266\320KD8C\021\273\370\237*\3700;\200\265\336E\303"
 152      384311BB 
 152      F89F2AF8 
 152      303B80B5 
 152      DE45C3
 153 0190 ADA776B5 		.ascii	"\255\247v\265\363\350\022C<me\210\344\201\017 \356\357"
 153      F3E81243 
 153      3C6D6588 
 153      E4810F20 
 153      EEEF
 154 01a2 566CE5E8 		.ascii	"Vl\345\350\240\\0\274\261\020\363\000\037!\352w\317"
 154      A05C30BC 
ARM GAS  /tmp/cci6z0MT.s 			page 12


 154      B110F300 
 154      1F21EA77 
 154      CF
 155 01b3 DA226345 		.ascii	"\332\"cE* \002=\366\254\254\326k\025\031\324\313we\271"
 155      2A20023D 
 155      F6ACACD6 
 155      6B1519D4 
 155      CB7765B9 
 156 01c7 724706D5 		.ascii	"rG\006\325\260\024\326\033\262\271|\373\346\015II\325"
 156      B014D61B 
 156      B2B97CFB 
 156      E60D4949 
 156      D5
 157 01d8 5F92B7EA 		.ascii	"_\222\267\352\313\315\206\274Z\274<]0~\366\302\312\212"
 157      CBCD86BC 
 157      5ABC3C5D 
 157      307EF6C2 
 157      CA8A
 158 01ea 6C346BD3 		.ascii	"l4k\323\205\353\345\232?\025\200\263\260\344/6~\003"
 158      85EBE59A 
 158      3F1580B3 
 158      B0E42F36 
 158      7E03
 159 01fc 362DB8A1 		.ascii	"6-\270\241"
 160              		.text
 161              		.section	.gnu.lto_Vector74.49eed8371e815d93,"",%progbits
 162 0000 789C9D52 		.ascii	"x\234\235R\317k\023A\024~of6\335\215\211\011\376\005"
 162      CF6B1341 
 162      147E6F66 
 162      36DD8D89 
 162      09FE05
 163 0013 45F06269 		.ascii	"E\360bi\007\323s=\026z\320\213)\330\223l6i\263\330\030"
 163      07D3733D 
 163      167AD08B 
 163      29D8936C 
 163      3669B3D8 
 164 0028 69A2543C 		.ascii	"i\242T<t\266\033\301c\361 \255\361`\361&\376\000\205"
 164      74B61BC1 
 164      63F120AD 
 164      F160F126 
 164      FE0085
 165 003b E20FD0B4 		.ascii	"\342\017\320\264 \350\241VoZ{H\357\036\364\340A\021"
 165      20E8A156 
 165      6F5A7B48 
 165      EF1EF4E0 
 165      4111
 166 004d E29B9D4C 		.ascii	"\342\233\235L\250^\004\037\354{o\346{\357{\337\314,"
 166      A85E041F 
 166      EC7B6FE6 
 166      7BEF7BDF 
 166      CC2C
 167 005f 03067F5B 		.ascii	"\003\006\177[\201\276\227\264}\232\":\200l\345\035@"
 167      81BE97B4 
 167      7D9A223A 
 167      806CE51D 
 167      40
 168 0070 E432C6DB 		.ascii	"\3442\306\333\023\240\322\342{\036T\206\2430\333\002"
ARM GAS  /tmp/cci6z0MT.s 			page 13


 168      13A0D2E2 
 168      7B1E5486 
 168      A330DB02 
 169 0080 512780B0 		.ascii	"Q'\200\260\304\270\300\245\031\324\034x\024\326\225"
 169      C4B8C0A5 
 169      19D41C78 
 169      14D695
 170 008f BAD17DFD 		.ascii	"\272\321}\375x\037\327T\247uG\375\352\365\020C\244y"
 170      781FD754 
 170      A77547FD 
 170      EAF51043 
 170      A479
 171 00a1 530801C2 		.ascii	"S\010\001\302YZ\340p\022\230\370S\300#\326\351\366z"
 171      595AE070 
 171      1298F853 
 171      C023D6E9 
 171      F67A
 172 00b3 B73F7DDD 		.ascii	"\267?}\335\337\303#\031\016!r\241\235\003>\256\023s"
 172      DFC32319 
 172      0E2172A1 
 172      9D033EAE 
 172      1373
 173 00c5 4A2F5C72 		.ascii	"J/\\r\302#\347P\207\003-\245V\206\015\014\232\236\254"
 173      C223E750 
 173      87032DA5 
 173      56860D0C 
 173      9A9EAC
 174 00d8 485E4B9B 		.ascii	"H^K\233F\246#\337\206\255\335\217O6\231\217w\251i\016"
 174      46A623DF 
 174      86ADDD8F 
 174      4F36998F 
 174      77A9690E 
 175 00ec F908DC53 		.ascii	"\371\010\334S-\232\237j\303-\012CZ\213\253\324u%\022"
 175      2D9A9F6A 
 175      C32D0A43 
 175      5A8BABD4 
 175      752512
 176 00ff 596E22A6 		.ascii	"Yn\"\246\204V\3266\304\017\343\347h\333\0051\3502\317"
 176      8456D636 
 176      C40FE3E7 
 176      68DB0531 
 176      E832CF
 177 0112 35D88B78 		.ascii	"5\330\213x\326B\016\241\032\3429\003=\210_\335\034\263"
 177      D6420EA1 
 177      1AE23903 
 177      3D885FDD 
 177      1CB3
 178 0124 608AF003 		.ascii	"`\212\360\003}[o\337\017\031(\221\023\251\334?\005\031"
 178      7D5B6FDF 
 178      0F192891 
 178      13A9DC3F 
 178      0519
 179 0136 45C4A4FB 		.ascii	"E\304\244\373\227wW7~\014\316\344\216\300\361\020\323"
 179      97775737 
 179      7E0CCEE4 
 179      8EC0F110 
 179      D3
ARM GAS  /tmp/cci6z0MT.s 			page 14


 180 0147 A3705F91 		.ascii	"\243p_\221\315\204x\210\250\"\245\362!f\256\302O\242"
 180      CD847888 
 180      A822A5F2 
 180      2166AEC2 
 180      4FA2
 181 0159 A22C5B4B 		.ascii	"\242,[K\0304e\026l\346\015~\204\022\332\364\015\264"
 181      18346516 
 181      6CE60D7E 
 181      8412DAF4 
 181      0DB4
 182 016b BE44D901 		.ascii	"\276D\331\001\267.K\037|\250i\344\320\236\340Z\304\323"
 182      B72E4B1F 
 182      7CA869E4 
 182      D09EE05A 
 182      C4D3
 183 017d 8D6FDC16 		.ascii	"\215o\334\026z\211\010\247/\342\031\376\247\012\336"
 183      7A8908A7 
 183      2FE219FE 
 183      A70ADE
 184 018c CF76E05A 		.ascii	"\317v\340Z\347\244\341\326\247v\265\363\350\022C<le"
 184      E7A4E1D6 
 184      A776B5F3 
 184      E812433C 
 184      6C65
 185 019e 88E48177 		.ascii	"\210\344\201w \356~\256\330\312\301\240\\\320\277\261"
 185      20EE7EAE 
 185      D8CAC1A0 
 185      5CD0BFB1 
 186 01ae 10F3001F 		.ascii	"\020\363\000\037 \352\356\035\263E\306\212T@\004z\366"
 186      20EAEE1D 
 186      B345C68A 
 186      5440047A 
 186      F6
 187 01bf A4ACD66B 		.ascii	"\244\254\326k\025\031\324\313Wd\271rY\006\325\260\024"
 187      1519D4CB 
 187      5764B972 
 187      5906D5B0 
 187      14
 188 01d0 D61BB2B9 		.ascii	"\326\033\262\271p\351\302yII\325\237\227\027\353\013"
 188      70E9C279 
 188      4949D59F 
 188      9717EB0B 
 189 01e0 CD863C53 		.ascii	"\315\206<S<5^0~\362\304\342\242l4k\343\205s\345\232"
 189      3C355E30 
 189      7EF2C4E2 
 189      A26C346B 
 189      E38573E5 
 190 01f5 3F168033 		.ascii	"?\026\2003;\357\3175~\003\3275\270\346"
 190      3BEFCF35 
 190      7E03D735 
 190      B8E6
 191              		.text
 192              		.section	.gnu.lto_Vector78.49eed8371e815d93,"",%progbits
 193 0000 789C9D52 		.ascii	"x\234\235R=o\023A\020\235\331\335s\356\214\215-~A\204"
 193      3D6F1341 
 193      109DD9DD 
 193      73EE8C8D 
ARM GAS  /tmp/cci6z0MT.s 			page 15


 193      2D7E4184 
 194 0014 44434456 		.ascii	"DCDV8u(#Q@\203#\221\012\235\317N\274\"\306(6(\210\""
 194      38752823 
 194      51408323 
 194      910A9DCF 
 194      4EBC22C6 
 195 002d 7B9C2351 		.ascii	"{\234#QF4|\270!\242C|\324\020d\231TP\204@\207\"!9\025"
 195      46347CB8 
 195      21A2437C 
 195      D4106499 
 195      54508440 
 196 0046 0D051448 		.ascii	"\015\005\024H\200 f\3666k\005\032$F\272\231\331}3o\337"
 196      802066F6 
 196      366B051A 
 196      2446BA99 
 196      D97D336F 
 197 005b EC1E0306 		.ascii	"\354\036\003\006\177[\211\276\036m\237\245\210\036 "
 197      7F5B89BE 
 197      1E6D9FA5 
 197      881E20
 198 006a 5B7B0310 		.ascii	"[{\003\020\373\214\361\3564\350\254\370Z\004\235\343"
 198      FB8CF1EE 
 198      34E8ACF8 
 198      5A049DE3 
 199 007a 28ECB640 		.ascii	"(\354\266@4\011 \2540.pe\016\015\007\036\205u\255o\015"
 199      340920AC 
 199      302E7065 
 199      0E0D071E 
 199      8575AD6F 
 200 008f 563776F1 		.ascii	"V7v\361\256\356w\356\353\237\303!\242B:\3574B\204p\236"
 200      AEEE77EE 
 200      EB9FC321 
 200      A2423AEF 
 200      34428470 
 201 00a4 16389E06 		.ascii	"\0268\236\006&\376\024\360\224\365\007\303\341\213\017"
 201      26FE14F0 
 201      94F507C3 
 201      E18B0F
 202 00b3 9F77F7F0 		.ascii	"\237w\367\360H\216\203B.\214\363 \304ub\316\230\205"
 202      488E8342 
 202      2E8CF320 
 202      C47562CE 
 202      9885
 203 00c5 4F4E04E4 		.ascii	"ON\004\344<\352\360\240\243\365\332\270\205\301\320"
 203      3CEAF0A0 
 203      A3F5DAB8 
 203      85C1D0
 204 00d4 9395C91B 		.ascii	"\223\225\311\033i\263\310L\344[\260\271s\247\367\222"
 204      69B3C84C 
 204      E45BB0B9 
 204      73A7F792 
 205 00e4 85F8809A 		.ascii	"\205\370\200\232\026\220O\300C\335\241\3633]\270Ga\314"
 205      16904FC0 
 205      43DDA1F3 
 205      335DB847 
 205      61CC
 206 00f6 68F1B5BE 		.ascii	"h\361\265\276\251E*\313O\305T\320\311\332\202\344I\362"
ARM GAS  /tmp/cci6z0MT.s 			page 16


 206      A9452ACB 
 206      4FC554D0 
 206      C9DA82E4 
 206      49F2
 207 0108 1C5DBB20 		.ascii	"\034]\273 \006S\026\344,\266\221\314;\310#\324@\274"
 207      065316E4 
 207      2CB691CC 
 207      3BC823D4 
 207      40BC
 208 011a 60A1C7C9 		.ascii	"`\241\307\311\307\333\223\016\314\020~\240o\363\365"
 208      C7DB930E 
 208      CC107EA0 
 208      6FF3F5
 209 0129 DB310BA5 		.ascii	"\3331\013\245rb]\370\247 \253\210\230L\377\215\235\367"
 209      72625DF8 
 209      A720AB88 
 209      984CFF8D 
 209      9DF7
 210 013b BDEFA399 		.ascii	"\275\357\243\231\374\0118\2560{\002\036i\2629\205\207"
 210      FC0938AE 
 210      307B021E 
 210      69B23985 
 210      87
 211 014c 882AD6BA 		.ascii	"\210*\326\272\2500w\035~\020\025e\371F\312`(\363\340"
 211      A830771D 
 211      7E101565 
 211      F946CA60 
 211      28F3E0
 212 015f B280BB39 		.ascii	"\262\200\2739+\350\376\211W\320\371\024\347G\334\246"
 212      2BE8FE89 
 212      57D0F914 
 212      E747DCA6 
 213 016f 2C7BF0A1 		.ascii	",{\360\241f\221Cw\232\033\021\337z_\270+\014R\021\336"
 213      66914377 
 213      9A1B11DF 
 213      7A5FB82B 
 213      0C5211DE 
 214 0183 BE8867F8 		.ascii	"\276\210g\370\237*\\\272\015\253\375S\226\333L\355\033"
 214      9F2A5CBA 
 214      0DABFD53 
 214      96DB4CED 
 214      1B
 215 0194 17D0252A 		.ascii	"\027\320%*<\354d\210\364\201\267!\031\374\252\271\312"
 215      3CEC6488 
 215      F481B721 
 215      19FCAAB9 
 215      CA
 216 01a5 D1418568 		.ascii	"\321A\205h\377\306\024\026\001\336A<\330;\346\212\254"
 216      FFC61416 
 216      01DE413C 
 216      D83BE68A 
 216      AC
 217 01b6 95A98008 		.ascii	"\225\251\200\010\314\3303\262\336l\324d\324\254^\223"
 217      CCD833B2 
 217      DE6CD464 
 217      D4AC5E93 
 218 01c6 D5DA5519 		.ascii	"\325\332U\031\325UE5[\262\275t\345\322EII=\\\224\227"
ARM GAS  /tmp/cci6z0MT.s 			page 17


 218      D5554535 
 218      5BB2BD74 
 218      E5D24549 
 218      493D5C94 
 219 01db 9B4BED96 		.ascii	"\233K\355\226<W>3U\262~\346\344\362\262l\265\033S\245"
 219      3C573E33 
 219      55B27EE6 
 219      E4F2B26C 
 219      B51B53A5 
 220 01ef 0BD54638 		.ascii	"\013\325F8\031\2017\277\030.\264~\003\266\305\271\307"
 220      198137BF 
 220      182EB47E 
 220      03B6C5B9 
 220      C7
 221              		.text
 222              		.section	.gnu.lto_Vector7C.49eed8371e815d93,"",%progbits
 223 0000 789C9D52 		.ascii	"x\234\235R\317k\023A\024~of6\335\215\211\011\364\037"
 223      CF6B1341 
 223      147E6F66 
 223      36DD8D89 
 223      09F41F
 224 0013 285E048B 		.ascii	"(^\004\213\035L\317\365X\350A/\246`O\262\331\264\311"
 224      1D4CCFF5 
 224      58E8412F 
 224      A6604FB2 
 224      D9B4C9
 225 0026 6263A489 		.ascii	"bc\244\211R\361\320\331n\004\217\305S5B[\274\024\361"
 225      52F1D0D9 
 225      6E048FC5 
 225      5335425B 
 225      BC14F1
 226 0039 C7D51F20 		.ascii	"\307\325\037 \261 \350\241VoR<\244\010\366\"h\017\036"
 226      B120E8A1 
 226      566F523C 
 226      A408F622 
 226      680F1E
 227 004c 1421BED9 		.ascii	"\024!\276\331\311\204\352E\360\301\276\367f\276\367"
 227      C984EA45 
 227      F0C1BEF7 
 227      66BEF7
 228 005b BEF966DE 		.ascii	"\276\371f\3362`\360\267\025\350{A\333g)\242\003\310"
 228      3260F0B7 
 228      15E87B41 
 228      DB6729A2 
 228      03C8
 229 006d 56DE0244 		.ascii	"V\336\002D.c\274=\001*-\276\347Ae8\012\263-\020u\002"
 229      2E63BC3D 
 229      012A2DBE 
 229      E7416538 
 229      0AB32D10 
 230 0083 084B8C0B 		.ascii	"\010K\214\013\\\232A\315\201\307`C\251[\335W\237\366"
 230      5C9A41CD 
 230      81C76043 
 230      A95BDD57 
 230      9FF6
 231 0095 F0B6EAB4 		.ascii	"\360\266\352\264\326\325\257^\0171D:o\012!@8O\013\034"
 231      D6D5AF5E 
ARM GAS  /tmp/cci6z0MT.s 			page 18


 231      0F31443A 
 231      6F0A2140 
 231      384F0B1C 
 232 00a9 4902137F 		.ascii	"I\002\023\177\012x\314:\335^\357\343\301\267\275M\034"
 232      0A78CC3A 
 232      DD5EEFE3 
 232      C1B7BD4D 
 232      1C
 233 00ba CE700891 		.ascii	"\316p\010\221\013\355\034\360q\203\230Sz\341\222\023"
 233      0BED1CF0 
 233      71839853 
 233      7AE19213 
 234 00ca 1E39873A 		.ascii	"\0369\207:\034h)\2652b`\320\364dE\362Z\33242\035\371"
 234      1C6829B5 
 234      326260D0 
 234      F46445F2 
 234      5ADA3432 
 235 00e0 366CED7E 		.ascii	"6l\355~\370\374\222\371x\217\232*\310G\341\276j\321"
 235      F8FC92F9 
 235      788F9A2A 
 235      C847E1BE 
 235      6AD1
 236 00f2 F9A936DC 		.ascii	"\371\2516\334\2410\244\265\270J\335T\"\221\345&bJhe"
 236      A130A4B5 
 236      B84ADD54 
 236      2291E526 
 236      624A6865 
 237 0106 6D43FC28 		.ascii	"mC\374(~\206\266]\020\203.\363\362\006{\036\317Y\310"
 237      7E86B65D 
 237      10832EF3 
 237      F2067B1E 
 237      CF59C8
 238 0119 2154433C 		.ascii	"!TC<g\240\207\361\327\273c\026L\021~\250o\353\315\273"
 238      67A087F1 
 238      D7BB6316 
 238      4C117EA8 
 238      6FEBCDBB 
 239 012d 21032572 		.ascii	"!\003%r\"\225\373\247 \243\210\230t\377\362\356\352"
 239      2295FBA7 
 239      20A38898 
 239      74FFF2EE 
 239      EA
 240 013e FE8FC19D 		.ascii	"\376\217\301\235\334Q8\021b\372$<Pd3!\036!\252H\251"
 240      DC513811 
 240      62FA243C 
 240      50643321 
 240      1E21AA48 
 241 0153 7C8899EB 		.ascii	"|\210\231\353\360\223\250(\313\326\022\006M\231\005"
 241      F093A828 
 241      CBD61206 
 241      4D9905
 242 0162 9B798321 		.ascii	"\233y\203!\224\320\376\023\257\241\365%\312\016\270"
 242      94D0FE13 
 242      AFA1F525 
 242      CA0EB8
 243 0171 7559FAF0 		.ascii	"uY\372\360\240\246\221C{\202k\021O\366\017\270-\364"
 243      A0A69143 
ARM GAS  /tmp/cci6z0MT.s 			page 19


 243      7B826B11 
 243      4FF60FB8 
 243      2DF4
 244 0183 12114E5F 		.ascii	"\022\021N_\304S\374O\025\274\237\355\300\215\316i\303"
 244      C453FC4F 
 244      15BC9FED 
 244      C08DCE69 
 244      C3
 245 0194 AD6FED6A 		.ascii	"\255o\355j\347\321#\206x\324\312\020\311\200w \356\256"
 245      E7D12386 
 245      78D4CA10 
 245      C9807720 
 245      EEAE
 246 01a6 556CE5E0 		.ascii	"Ul\345\340\240\\\320\177\261\020\351\311\337C\324\335"
 246      A05CD07F 
 246      B110E9C9 
 246      DF43D4DD 
 247 01b6 3C6E8B8C 		.ascii	"<n\213\214\025\251\200\010\364\265'e\265^\233\225A\275"
 247      15A98008 
 247      F4B52765 
 247      B55E9B95 
 247      41BD
 248 01c8 7C4D9667 		.ascii	"|M\226g\257\312\240\032\226\302zC6\027\256\\\272()\251"
 248      AFCAA01A 
 248      96C27A43 
 248      3617AE5C 
 248      BA2829A9 
 249 01dc FAF3F272 		.ascii	"\372\363\362r}\241\331\220\347\212g\306\013\306O\236"
 249      7DA1D990 
 249      E78A67C6 
 249      0BC64F9E 
 250 01ec 5A5C948D 		.ascii	"Z\\\224\215fm\274p\241\\\363\307\002p\346\346\375J\343"
 250      666DBC70 
 250      A15CF3C7 
 250      0270E6E6 
 250      FD4AE3
 251 01ff 37293CB9 		.ascii	"7)<\271\257"
 251      AF
 252              		.text
 253              		.section	.gnu.lto_Vector80.49eed8371e815d93,"",%progbits
 254 0000 789C9D52 		.ascii	"x\234\235R\317k\023A\024~of6\335\215\211\011\350\037"
 254      CF6B1341 
 254      147E6F66 
 254      36DD8D89 
 254      09E81F
 255 0013 50BC0816 		.ascii	"P\274\010\026;\230\236\333c\301\203^L\301\236d\263i"
 255      3B989EDB 
 255      63C1835E 
 255      4CC19E64 
 255      B369
 256 0025 93C1C648 		.ascii	"\223\301\306H\023\245\342\241\263n\012\036\213\247\326"
 256      13A5E2A1 
 256      B36E0A1E 
 256      8BA7D6
 257 0034 2058BC89 		.ascii	" X\274\211?\316*H\354\311\026j\365&=\245w1z(\376\240"
 257      3FCE2A48 
 257      ECC9166A 
ARM GAS  /tmp/cci6z0MT.s 			page 20


 257      F5263DA5 
 257      77317A28 
 258 004a 10DFEC66 		.ascii	"\020\337\354fB\365\"\364\301\276\367f\276\367\276\371"
 258      42F522F4 
 258      C1BEF766 
 258      BEF7BEF9 
 259 005a DECC3260 		.ascii	"\336\3142`\360\257\025\350{K\333\227)\242\003\310V?"
 259      F0AF15E8 
 259      7B4BDB97 
 259      29A203C8 
 259      563F
 260 006c 00842E63 		.ascii	"\000\204.c\274=\011:-\016\362\2403\034E\262-\020M\002"
 260      BC3D093A 
 260      2D0EF2A0 
 260      331C45B2 
 260      2D104D02 
 261 0080 08CB8C0B 		.ascii	"\010\313\214\013\\\236E\303\201g`C\353\007\335\225\257"
 261      5C9E45C3 
 261      81676043 
 261      EB07DD95 
 261      AF
 262 0091 FBB8AE3B 		.ascii	"\373\270\256;\255\307\372\260\337GTH\347]D\010\020\256"
 262      ADC7FAB0 
 262      DF475448 
 262      E75D4408 
 262      10AE
 263 00a3 D20247E3 		.ascii	"\322\002G\343\300\304\337\002^\262N\267\337?<\370\266"
 263      C0C4DF02 
 263      5EB24EB7 
 263      DF3F3CF8 
 263      B6
 264 00b4 BF8DA732 		.ascii	"\277\215\2472\034\024ra\234\003>n\020s\312,\\r\302#"
 264      1C147261 
 264      9C033E6E 
 264      1073CA2C 
 264      5C72C223 
 265 00c8 E7508703 		.ascii	"\347P\207\003-\255WG\023\030\014=Y\221\274\2216\203"
 265      2DAD5747 
 265      13180C3D 
 265      5991BC91 
 265      3683
 266 00da CC44BE03 		.ascii	"\314D\276\003\233{k\275w\314\307'\324TA>\006Ou\213\316"
 266      9B7B6BBD 
 266      77CCC727 
 266      D454413E 
 266      064F758B 
 267 00ef 4FB5E121 		.ascii	"O\265\341!\205\021\243\305\325\372\276\026\261,7\026"
 267      8511A3C5 
 267      D5FABE16 
 267      B12C3716 
 268 00ff 53422B6B 		.ascii	"SB+k\007\242\027\321k\264\355\202\030L\231w:\301\336"
 268      07A217D1 
 268      6BB4ED82 
 268      184C9977 
 268      3AC1DE
 269 0112 44F31672 		.ascii	"D\363\026r\0105\020\317%\320\363\350\307\243q\013\246"
 269      083510CF 
ARM GAS  /tmp/cci6z0MT.s 			page 21


 269      25D0F3E8 
 269      C7A3710B 
 269      A6
 270 0123 083FD2B7 		.ascii	"\010?\322\267\271\365q$\201b9\241\316\375WP\242\210"
 270      B9F57124 
 270      816239A1 
 270      CEFD5750 
 270      A288
 271 0135 984CFFBD 		.ascii	"\230L\377\275\275\317\275_\303\231\33418\2470}\036\236"
 271      BDCFBD5F 
 271      C399DC31 
 271      38A7307D 
 271      1E9E
 272 0147 69B25985 		.ascii	"i\262Y\205'\210*\324:\2570s\027~\023\025e\331Z\314`"
 272      27882AD4 
 272      3AAF3073 
 272      177E1315 
 272      65D95ACC 
 273 015c 28B36033 		.ascii	"(\263`3\317\261s\226\320\376\023\357\241\365%\314\016"
 273      CFB17396 
 273      D0FE13EF 
 273      A1F525CC 
 273      0E
 274 016d B94D59FA 		.ascii	"\271MY\372\350C\315 \207\366$7\"~\366\276s[\350\305"
 274      E843CD20 
 274      87F62437 
 274      227EF6BE 
 274      735BE8C5 
 275 0181 229C8188 		.ascii	"\"\234\201\210WxL\025|\220\355\302Jg*\3416S\273\306"
 275      57784C15 
 275      7C90EDC2 
 275      4A672AE1 
 275      3653BBC6 
 276 0195 7974890A 		.ascii	"yt\211\012OZ\031\"~\340]\210\272[\025[9<(\027\014nL"
 276      4F5A1922 
 276      7EE05D88 
 276      BA5B155B 
 276      393C2817 
 277 01ac 611EE013 		.ascii	"a\036\340\023\204\335\355\263\266(\261\"\025\020\201"
 277      84DDEDB3 
 277      B628B122 
 277      151081
 278 01bb 197B5A56 		.ascii	"\031{ZV\353\2659\031\324\313wdy\356\266\014\252\252"
 278      EBB53919 
 278      D4CB7764 
 278      79EEB60C 
 278      AAAA
 279 01cd A4EA0DD9 		.ascii	"\244\352\015\331\\\274u\343\272\244\244\352/\310\233"
 279      5CBC75E3 
 279      BAA4A4EA 
 279      2FC89B
 280 01dc F5C56643 		.ascii	"\365\305fC^)^\232($~\372\302\322\222l4k\023\205k\345"
 280      5E295E9A 
 280      28247EFA 
 280      C2D2926C 
 280      346B1385 
 281 01f2 9A3F1E80 		.ascii	"\232?\036\2003\277\340W\032\177\000\317\205\272x"
ARM GAS  /tmp/cci6z0MT.s 			page 22


 281      33BFE057 
 281      1A7F00CF 
 281      85BA78
 282              		.text
 283              		.section	.gnu.lto_Vector84.49eed8371e815d93,"",%progbits
 284 0000 789C9D52 		.ascii	"x\234\235RMh\023A\024~of6\335\215\211\011x\361X\274"
 284      4D681341 
 284      147E6F66 
 284      36DD8D89 
 284      0978F158 
 285 0015 0816BB98 		.ascii	"\010\026\273\230\236\353\261\340A/\246`O\262\331\264"
 285      9EEBB1E0 
 285      412FA660 
 285      4FB2D9B4 
 286 0025 C96063A4 		.ascii	"\311`c\244\211R\361\320Y7\202\307\342I\215\210\305\233"
 286      8952F1D0 
 286      593782C7 
 286      E2498D88 
 286      C59B
 287 0037 F873F507 		.ascii	"\370s\365\007$\026\004=\324\352MzJ\317\346\240\007\025"
 287      2416043D 
 287      D4EA4D7A 
 287      4ACFE6A0 
 287      0715
 288 0049 A3B0BED9 		.ascii	"\243\260\276\331\311\204\352E\360\301\276\367f\276\367"
 288      C984EA45 
 288      F0C1BEF7 
 288      66BEF7
 289 0058 BEF9DECC 		.ascii	"\276\371\336\3142`\360\267\225\350{I\333\247(\242\003"
 289      3260F0B7 
 289      95E87B49 
 289      DBA728A2 
 289      03
 290 0069 C8D6DF01 		.ascii	"\310\326\337\001D.c\274;\013*+\276\026A\3458\012\263"
 290      442E63BC 
 290      3B0B2A2B 
 290      BE1641E5 
 290      380AB3
 291 007c 2D107502 		.ascii	"-\020u\002\010k\214\013\\[@\315\201\207`C\251\033\375"
 291      086B8C0B 
 291      5C5B40CD 
 291      81876043 
 291      A91BFD
 292 008f D7DF76F1 		.ascii	"\327\337v\361\226\352u\356\251_I\202(\221\316;\201\020"
 292      96EA75EE 
 292      A95F4982 
 292      2891CE3B 
 292      8110
 293 00a1 229CA105 		.ascii	"\"\234\241\005N\246\201\211?\005<a\275~\222\334\371"
 293      4EA68189 
 293      3F053C61 
 293      BD7E92DC 
 293      F9
 294 00b2 F9797780 		.ascii	"\371yw\200\007r\034$r\241\235\003\001n\020sF/\\r\302"
 294      07721C24 
 294      72A19D03 
 294      016E1073 
ARM GAS  /tmp/cci6z0MT.s 			page 23


 294      462F5C72 
 295 00c7 23E75087 		.ascii	"#\347P\207\003\035\245\326'\015\014\232\236\254L^K\233"
 295      031DA5D6 
 295      270D0C9A 
 295      9EAC4C5E 
 295      4B9B
 296 00d9 47A623DF 		.ascii	"G\246#\337\202\315\235\217\337_\261\000\357SS\015\371"
 296      82CD9D8F 
 296      DF5FB100 
 296      EF53530D 
 296      F9
 297 00ea 143C501D 		.ascii	"\024<P\035:?\323\205\333\024&\264\026W\251\353J\244"
 297      3A3FD385 
 297      DB1426B4 
 297      1657A9EB 
 297      4AA4
 298 00fc B2DC544C 		.ascii	"\262\334TL\005\255\254-\210\037\307\317\321\266\013"
 298      05ADAC2D 
 298      881FC7CF 
 298      D1B60B
 299 010b 62D065DE 		.ascii	"b\320e\336A\203\275\210\227,\344\020\252!^0\320\243"
 299      4183BD88 
 299      972CE410 
 299      AA215E30 
 299      D0A3
 300 011d 38B93B6D 		.ascii	"8\271;m\301\014\341{\3726\337\276\2370P*'R\205\177\012"
 300      C10CE17B 
 300      FA36DFBE 
 300      9F30502A 
 300      2752857F 
 301 0132 328A8849 		.ascii	"2\212\210I\367_\335\2719\3741\236\311\235\202#\022\263"
 301      F75FDDB9 
 301      39FC319E 
 301      C99D8223 
 301      12B3
 302 0144 47E1A122 		.ascii	"G\341\241\"[\220\270\217\250\"\245\212\022sW`HT\224"
 302      5B90B88F 
 302      A822A58A 
 302      12735760 
 302      485494
 303 0157 E51B2983 		.ascii	"\345\033)\203\246\314\203\315\274\214\235\263\202\366"
 303      A6CC83CD 
 303      BC8C9DB3 
 303      82F6
 304 0165 9F78039D 		.ascii	"\237x\003\235A\224\037s\353\262\354\336\207\232G\016"
 304      41941F73 
 304      EBB2ECDE 
 304      879A470E 
 305 0175 DD59AE45 		.ascii	"\335Y\256E<\035~\341\266\320KE8#\021\317\360?U\360Q"
 305      3C1D7EE1 
 305      B6D04B45 
 305      382311CF 
 305      F03F55F0 
 306 018a B60DD77A 		.ascii	"\266\015\327z\307\015\267\236\332\325\316\243K\224\270"
 306      C70DB79E 
 306      DAD5CEA3 
 306      4B94B8
ARM GAS  /tmp/cci6z0MT.s 			page 24


 307 0199 DFCA10E9 		.ascii	"\337\312\020\351\003oC\334\377T\263\225\343\203\012"
 307      036F43DC 
 307      FF54B395 
 307      E3830A
 308 01a8 E1E8C624 		.ascii	"\341\350\306$\026\001>@\324\037\034\266E\306\312T@\004"
 308      16013E40 
 308      D41F1CB6 
 308      45C6CA54 
 308      4004
 309 01ba 7AEC39BF 		.ascii	"z\3549\277\336l,\372a\263z\331\257.^\362\303\272\254"
 309      DE6C2CFA 
 309      61B37AD9 
 309      AF2E5EF2 
 309      C3BAAC
 310 01cd C866CB6F 		.ascii	"\310f\313o\257\\<\177\316\247\244\036,\373\027\232+"
 310      AF5C3C7F 
 310      CEA7A41E 
 310      2CFB179A 
 310      2B
 311 01de ED967FBA 		.ascii	"\355\226\177\272|r\246d\374\334\261\325U\277\325n\314"
 311      7C72A664 
 311      FCDCB1D5 
 311      55BFD56E 
 311      CC
 312 01ef 94CE561B 		.ascii	"\224\316V\033\301t\010\316\322rPk\375\006p\234\272\275"
 312      C17408CE 
 312      D272506B 
 312      FD06709C 
 312      BABD
 313              		.text
 314              		.section	.gnu.lto_dmaInit.49eed8371e815d93,"",%progbits
 315 0000 789C6551 		.ascii	"x\234eQ\277k\024Q\020\236yo\337e\367<\275\244\011\330"
 315      BF6B1451 
 315      109E796F 
 315      DF65F73C 
 315      BDA409D8 
 316 0014 055B898B 		.ascii	"\005[\211\213Im\033P\020\213\334\201b\021.{!\267\350"
 316      496D1B50 
 316      108BDC81 
 316      62112E7B 
 316      21B7E8
 317 0027 7A923B25 		.ascii	"z\222;%b\221\267\227+Rn#9\26419\004\021Q\004\213\305"
 317      6291B797 
 317      2B526E23 
 317      39B43139 
 317      04115104 
 318 003d 460D1616 		.ascii	"F\015\026\026F\020\033\265:\257\360\037\260\011\012"
 318      46101BB5 
 318      3AAFF01F 
 318      B0090A
 319 004c AE33FB76 		.ascii	"\2563\373v7D\007\366\315\217}\3377\337\314\023 \340"
 319      374407F6 
 319      CD8F7DDF 
 319      37DFCC13 
 319      20E0
 320 005e 5F3B47DF 		.ascii	"_;G\3376\225/\220\307\022\240\210>\002\204\266@\313"
 320      36952F90 
ARM GAS  /tmp/cci6z0MT.s 			page 25


 320      C712A088 
 320      3E0284B6 
 320      40CB
 321 0070 04D2046F 		.ascii	"\004\322\004omK\310g\357\000tY\215\035\320\025\205\310"
 321      6D4BC867 
 321      EF007459 
 321      8D1DD015 
 321      85C8
 322 0082 7540D810 		.ascii	"u@\330\020\322R\270q\005\231\016O\301\216\326\321\350"
 322      D252B871 
 322      05990E4F 
 322      C18ED6D1 
 322      E8
 323 0093 51F2EAA4 		.ascii	"Q\362\352\244~\330\213\364\237$A\037\251\361y\004\017"
 323      7ED88BF4 
 323      9F24411F 
 323      A9F17904 
 323      0F
 324 00a4 E1322538 		.ascii	"\3412%8\223:a\035U\362\\\274\031%\311\207\327/\276\017"
 324      933A611D 
 324      55F25CBC 
 324      1925C987 
 324      D72FBE0F 
 325 00b8 70BA8CD0 		.ascii	"p\272\214\320\300\035bS\340\243\264\263\204LA\237\370"
 325      C01D6253 
 325      E0A3B4B3 
 325      844C419F 
 325      F8
 326 00c9 67F2DC4B 		.ascii	"g\362\334K\273\326\350$Uu\024\344\344>\364\342\203d"
 326      BBD6E824 
 326      557514E4 
 326      E43EF4E2 
 326      8364
 327 00db 2C1A3844 		.ascii	",\0328D\005\017\340~\250\365\244\217\326]\370\245\267"
 327      050FE07E 
 327      A8F5A48F 
 327      D65DF8A5 
 327      B7
 328 00ec 3852418A 		.ascii	"8RA\212b\021\012\362\250PSG\0114)\323|\213w?KC\263\212"
 328      62110AF2 
 328      A8505347 
 328      093429D3 
 328      7C8B773F 
 329 0104 EA343C61 		.ascii	"\3524<ati\026\236\352H\353%\037'\230<\342\242\315\344"
 329      7469169E 
 329      EA48EB25 
 329      1F27983C 
 329      E2A2CDE4 
 330 0118 038E9C00 		.ascii	"\003\216\234\0001\243tR\276\3254g[\316\003\330\207\275"
 330      31A37452 
 330      BED53467 
 330      5BCE03D8 
 330      87BD
 331 012a 389A36CC 		.ascii	"8\2326\314L\333\017\365=\002\224\211\217\3341j\306\370"
 331      4CDB0FF5 
 331      3D029489 
 331      8FDC316A 
ARM GAS  /tmp/cci6z0MT.s 			page 26


 331      C6F8
 332 013c 5286C242 		.ascii	"R\206\302Bd\331\200{\361\227\335\337\362\020Nv\325\307"
 332      64D9807B 
 332      F197DDDF 
 332      F2104E76 
 332      D5C7
 333 014e 0A0B23AB 		.ascii	"\012\013#\253\373x\274\230\372D1u5@\221\321T\377\023"
 333      FB78BC98 
 333      FA443175 
 333      354091D1 
 333      54FF13
 334 0161 268A1615 		.ascii	"&\212\026\025\323bsks\370\362R>\273Mw\371'\344\210:"
 334      D362736B 
 334      73F8F252 
 334      3EBB4D77 
 334      F927E488 
 335 0176 ED8BDE5F 		.ascii	"\355\213\336_\276\207\376\217p\"\277f\356\224\212'\375"
 335      BE87FE8F 
 335      7022BF66 
 335      EE948A27 
 335      FD
 336 0187 0AA60220 		.ascii	"\012\246\002 \036Kb\221\007\016C\225y\245\275x0\374"
 336      1E4B6291 
 336      070E4395 
 336      79A5BD78 
 336      30FC
 337 0199 89479650 		.ascii	"\211G\226P-v0\311\300)M\322\255T\326T&T\036\356\"!\343"
 337      2D7630C9 
 337      C0294DD2 
 337      AD54D654 
 337      26541EEE 
 338 01b0 493E4138 		.ascii	"I>A8\032\314\032\236\334j4\333\330\341\251\026\334V"
 338      1ACC1A9E 
 338      DC6A34DB 
 338      D8E1A916 
 338      DC56
 339 01c2 3B5871BD 		.ascii	";Xq\275v\363\216\333\\\271\355z-\177\331ow\334\356\332"
 339      76F38EDB 
 339      5CB9ED7A 
 339      2D7FD96F 
 339      77DCEEDA 
 340 01d6 AD1BD75C 		.ascii	"\255\033\327\\\012Z\215\353\356\315\366Z\267\343.\326"
 340      0A5A8DEB 
 340      EECDF65A 
 340      B7E32ED6 
 341 01e6 2ECECF99 		.ascii	".\316\317\231s\341\354\372\272\333\351\006\363sK\315"
 341      73E1ECFA 
 341      BADBE906 
 341      F3734BCD 
 342 01f6 A071C603 		.ascii	"\240q\306\003\364\377\002\004\227\267\256"
 342      F4FF0204 
 342      97B7AE
 343              		.text
 344              		.section	.gnu.lto_dmaStreamAllocate.49eed8371e815d93,"",%progbits
 345 0000 789CA554 		.ascii	"x\234\245T\315KTQ\024?\347\336w\337|8N\323(\250\233"
 345      CD4B5451 
 345      143FE7DE 
ARM GAS  /tmp/cci6z0MT.s 			page 27


 345      77DF7C38 
 345      4ED328A8 
 346 0015 10372D2C 		.ascii	"\0207-,_\352\252\177@0h\021)\024\0042\2162>\3549\341"
 346      5FEAAA7F 
 346      40306811 
 346      29140432 
 346      8E323EEC 
 347 002b 4C61B4F0 		.ascii	"La\264\360\2153\204\320F\"\372r3\"m\242pS\212\330B\204"
 347      8D3384D0 
 347      4622FA72 
 347      33226DA2 
 347      70538AD8 
 348 0041 20920AC1 		.ascii	" \222\012\301\205Z\013i\321\"\242M\233\260h:\347\276"
 348      855A0B69 
 348      D122A24D 
 348      9BB0683A 
 348      E7BE
 349 0053 796FD05C 		.ascii	"yo\320\\\010=\230s\357\373\335\363;\037\277\363\356"
 349      083D9873 
 349      EFFBDDF3 
 349      3B1FBFF3 
 349      EE
 350 0064 081070F0 		.ascii	"\010\020p\3609G\277\036\003`\214V\014\001\212\231\367"
 350      3947BF1E 
 350      03608C56 
 350      0C018A99 
 350      F7
 351 0075 0085B010 		.ascii	"\000\205\260\020\346\253\023\340F\345\246\005nL\012"
 351      E6AB13E0 
 351      46E5A605 
 351      6E4C0A
 352 0084 63FA24BD 		.ascii	"c\372$\275)\2661\003\225\347\244\320\344\015\232\210"
 352      29B63103 
 352      95E7A4D0 
 352      E40D9A88 
 353 0094 BC02C2A4 		.ascii	"\274\002\302\244\220\2062q\3622rl\321\006s\256{w\367"
 353      90863271 
 353      F232726C 
 353      D10673AE 
 353      7B77F7
 354 00a7 F5E2BA7C 		.ascii	"\365\342\272|to\265Tv\177W*\2106R\035\275\010i\204K"
 354      746FB554 
 354      767F572A 
 354      8836521D 
 354      BD086984 
 355 00bc F482AD7A 		.ascii	"\364\202\255z\021\306\376\302<\356\352\306\354\375\226"
 355      11C6FEC2 
 355      3CEEEAC6 
 355      ECFD96
 356 00cb B7E5A919 		.ascii	"\267\345\251\031\367\017Q5\363\312\241L\007k\324\005"
 356      F70F5135 
 356      F3CAA14C 
 356      076BD405 
 357 00db B1BA5BA9 		.ascii	"\261\272[\251|\332~\371\371\0166\265 \330(%\033\205"
 357      7CDA7EF9 
 357      F90E36B5 
 357      20D82825 
ARM GAS  /tmp/cci6z0MT.s 			page 28


 357      1B85
 358 00ed 0EA2493B 		.ascii	"\016\242I;#DF\205\331D\310@\024R8\207mP\307/1\362\022"
 358      23444685 
 358      D944C840 
 358      14523887 
 358      6D50C72F 
 359 0104 71323241 		.ascii	"q22A\360<\301I\206\033\3304\262i\2463N\251\240\344\272"
 359      F03CC149 
 359      861BD834 
 359      B269A633 
 359      4EA9A0E4 
 360 0119 33ADC0E5 		.ascii	"3\255\300\345\320\323G\226e\350G\301\253|\007S;[\213"
 360      D0D34796 
 360      65E847C1 
 360      AB7C0753 
 360      3B5B8B
 361 012c BF8C143E 		.ascii	"\277\214\024>A\005\0314\333\341\251\233\260\321\234"
 361      41051934 
 361      DBE1A99B 
 361      B0D19C
 362 013b 85C75475 		.ascii	"\205\307Tu(\203\212\253\017\353\222\007\203\362\211"
 362      28838AAB 
 362      0FEB9207 
 362      83F289
 363 014a F6BDB887 		.ascii	"\366\275\270\207>\213\334L\006\213\317\245\017\205\231"
 363      3E8BDC4C 
 363      068BCFA5 
 363      0F8599
 364 0159 A6900FAB 		.ascii	"\246\220\017\253\356_\002\367H\206\003\022\330\353#"
 364      EE5F02F7 
 364      48860312 
 364      D8EB23
 365 0168 514A5770 		.ascii	"QJWp9q\344\026\354\271\323\274\213zjq\234h\220\266\270"
 365      3971E416 
 365      ECB9D3BC 
 365      8B7A6A71 
 365      9C6890B6 
 366 017d 1264A8D3 		.ascii	"\022d\250\323\201\350\350\015\224\276\025\352\003\230"
 366      81E8E80D 
 366      94BE15EA 
 366      0398
 367 018b 09FB86D4 		.ascii	"\011\373\206\324\217\0226-nu}k\351\207\362\034\271O"
 367      8F12362D 
 367      6E757D6B 
 367      E987F21C 
 367      B94F
 368 019d 7A1E9073 		.ascii	"z\036\220s\335ix\306\373\0136\306\202:\352\203:\342"
 368      DD6978C6 
 368      FB0B36C6 
 368      823AEA83 
 368      3AE2
 369 01af 0EB97B75 		.ascii	"\016\271{u\304u<\335RU\020\254\"1\335\317\372\317\303"
 369      C4753CDD 
 369      525510AC 
 369      2231DDCF 
 369      FACFC3
 370 01c2 E21FFB8F 		.ascii	"\342\037\373\217\370\242\212\304u\363\313\305\371\245"
ARM GAS  /tmp/cci6z0MT.s 			page 29


 370      F8A28AC4 
 370      75F3CBC5 
 370      F9A5
 371 01d0 537EA309 		.ascii	"S~\243\011\277\377\232\220GQ\221\210\236\220\305\205"
 371      BFFF9A90 
 371      47519188 
 371      9E90C585 
 372 01e0 A5B37EAC 		.ascii	"\245\263~\254$\241Z\267I8\250g\362\020=\015\370\332"
 372      24A15AB7 
 372      4938A867 
 372      F2103D0D 
 372      F8DA
 373 01f2 447AAEED 		.ascii	"Dz\256\355<\\i\367\375\032\270\343R\201R&\274o\3478"
 373      3C5C69F7 
 373      FD1AB8E3 
 373      52815226 
 373      BC6FE738 
 374 0206 13936E79 		.ascii	"\023\223ny\3325t\372d\265%Y\033\346r0\314F\012\240\023"
 374      DA3574FA 
 374      64B52559 
 374      1BE67230 
 374      CC460AA0 
 375 021b A13E59EB 		.ascii	"\241>Y\353\255\251x\364\230\024\306\257P\361\304?\300"
 375      ADA978F4 
 375      9814C6AF 
 375      50F1C43F 
 375      C0
 376 022c EDB09F40 		.ascii	"\355\260\237@\006\2124\244\203\251\251\0146\323\354"
 376      068A34A4 
 376      83A9A90C 
 376      36D3EC
 377 023b EC1ACFD4 		.ascii	"\354\032\317\324\267b\203\3767\370\\\373m\003r*I\327"
 377      B76283FE 
 377      37F85CFB 
 377      6D03722A 
 377      49D7
 378 024d FAC547CC 		.ascii	"\372\305G\314\360\015\345{\204\354\311\343\351\261F"
 378      F00DE57B 
 378      84ECC9E3 
 378      E9B146
 379 025c B2CEB095 		.ascii	"\262\316\260\225\316\016\335\264\206\206oX\351\021{"
 379      CE0EDDB4 
 379      86866F58 
 379      E9117B
 380 026b D0CEE6AC 		.ascii	"\320\316\346\254\374\370\365\261Q\2136#\251\253\326"
 380      FCF8F5B1 
 380      518B3623 
 380      A9ABD6
 381 027a B5EC783E 		.ascii	"\265\354x>g]\354;\337\335\345\331\236\316\211\011+\227"
 381      675DEC3B 
 381      DFDDE5D9 
 381      9ECE8909 
 381      2B97
 382 028c 77BABB06 		.ascii	"w\272\273\006\206\234TG\032\222\264\014\344\362\343"
 382      869C5447 
 382      1A92B40C 
 382      E4F2E3
ARM GAS  /tmp/cci6z0MT.s 			page 30


 383 029b C3292737 		.ascii	"\303)'7\340\244r\243\035g\376\205:\377\002\333\305\031"
 383      E0A472A3 
 383      1D67FE85 
 383      3AFF02DB 
 383      C519
 384 02ad 7C       		.ascii	"|"
 385              		.text
 386              		.section	.gnu.lto_dmaStreamRelease.49eed8371e815d93,"",%progbits
 387 0000 789C9D53 		.ascii	"x\234\235S\317k\023Q\020\236y\357m\263\333\246\255\364"
 387      CF6B1351 
 387      109E79EF 
 387      6DB3DBA6 
 387      ADF4
 388 0012 E24D4AAF 		.ascii	"\342MJ\257B\037M\376\207B\017\236L\241\202\020\266\233"
 388      421F4DFE 
 388      87420F9E 
 388      4CA18210 
 388      B69B
 389 0024 902C751B 		.ascii	"\220,u\033\311F\251x\310K\323\203\307\"\036\252^,\""
 389      C946A978 
 389      C84BD383 
 389      C7221EAA 
 389      5E2C22
 390 0037 882842AF 		.ascii	"\210(B\257\026\351\301\203\"Z\204\236\364\022\010E\350"
 390      16E9C183 
 390      225A849E 
 390      F4120845 
 390      E8
 391 0048 219E4411 		.ascii	"!\236D\021!\316\354f\267\321\212H\007v\346\275o\346"
 391      21CEEC66 
 391      B7D18A48 
 391      0776E6BD 
 391      6FE6
 392 005a 9B5FBB2B 		.ascii	"\233_\273+@\300\2372GON\002\254\222E\013Pl\276\007h"
 392      40C09F32 
 392      474F4E02 
 392      AC92450B 
 392      506CBE07 
 393 006f D942C803 		.ascii	"\331B\310\003\015fT\355\236\003\223\225\250\030F\205"
 393      0D6654ED 
 393      9E039395 
 393      A8184685 
 394 007f C816109A 		.ascii	"\310\026\020\232B*l^BN!f`\333\230\333\235\303^W\334"
 394      422A6C5E 
 394      424E2166 
 394      60DB98DB 
 394      9DC35E57 
 395 0094 BDB3B7F1 		.ascii	"\275\263\267\361\300\374\354\367\021}\244r\013\010\036"
 395      C0FCECF7 
 395      117DA472 
 395      0B081E
 396 00a3 C2125D70 		.ascii	"\302\022]p:2B\375^?\346\232\235\307\353N\304\223\021"
 396      3A3242FD 
 396      5E3FE69A 
 396      9DC7EB4E 
 396      C49311
 397 00b6 EDF25F69 		.ascii	"\355\362_i\001\036\363\236\213\275N\277\377\364\353"
ARM GAS  /tmp/cci6z0MT.s 			page 31


 397      011EF39E 
 397      8BBD4EBF 
 397      FFF4EB
 398 00c5 61F708CF 		.ascii	"a\367\010\317N\011\014\020%\370(\025)e\261\032a\225"
 398      4E090C10 
 398      25F82815 
 398      2965B11A 
 398      6195
 399 00d7 210536B8 		.ascii	"!\0056\270\270\2153\340\220}Hv\214\003\263\354\231\030"
 399      B88D33E0 
 399      907D4876 
 399      8C03B3EC 
 399      9918
 400 00e9 7826F942 		.ascii	"x&\371Bb\301\2061\233\323\300\325I\012\244y\340E\024"
 400      62C18631 
 400      9BD3C0D5 
 400      490AA479 
 400      E04514
 401 00fc 6CE53B58 		.ascii	"l\345;X\377\370\275\327U.>\242]UP\236\207'\346\214\217"
 401      FFF8BDD7 
 401      552E3EA2 
 401      5D55509E 
 401      8727E68C 
 402 0111 D67DB847 		.ascii	"\326}\270GM\216TPp\263\231\250\303\345\264[\242\365"
 402      4D8E5450 
 402      70B399A8 
 402      C3E5B45B 
 402      A2F5
 403 0123 DA3D4C58 		.ascii	"\332=LX\212\210\014\266\237\311\004\262\230\246\220"
 403      8A880CB6 
 403      9FC904B2 
 403      98A690
 404 0132 9D51F86E 		.ascii	"\235Q\370n\373e\032NY\255A\216\235\024\314\020\036\201"
 404      FB651A4E 
 404      59AD418E 
 404      9D14CC10 
 404      1E81
 405 0144 0B096253 		.ascii	"\013\011bS\017-\303\335\3307\341\207\271\305''\336\030"
 405      0F2DC3DD 
 405      D837E187 
 405      B9C52727 
 405      DE18
 406 0156 2777D25E 		.ascii	"'w\322^\332/\322\262N\224\310\036N\364?Y*l\243]|\371"
 406      DA2FD2B2 
 406      4E94C81E 
 406      4EF43F59 
 406      2A6CA35D 
 407 016c 94E61AFB 		.ascii	"\224\346\032\373\367.px\027\307sd\211\010\260\017\203"
 407      F72E7078 
 407      17C77364 
 407      8908B00F 
 407      83
 408 017d 9502A455 		.ascii	"\225\002\244UG\275\001\207\202|\016\"\346\233\255oo"
 408      47BD0187 
 408      827C0E22 
 408      E69BAD6F 
 408      6F
ARM GAS  /tmp/cci6z0MT.s 			page 32


 409 018e D38213A7 		.ascii	"\323\202\023\247\030x\222h\354\204&y^\303\253\317\255"
 409      18789268 
 409      EC842679 
 409      5EC3ABCF 
 409      AD
 410 019f F1D415E1 		.ascii	"\361\324\025\341\303\262H\257\351@\313}h\333'\272\313"
 410      C3B248AF 
 410      E940CB7D 
 410      68DB27BA 
 410      CB
 411 01b0 7A18FF4B 		.ascii	"z\030\377K>\216'\321*\372F>@\253s\244\023B,\005\032"
 411      3E8E27D1 
 411      2AFA463E 
 411      40AB73A4 
 411      13422C05 
 412 01c5 857CCC98 		.ascii	"\205|\314\230\327\325ZP\326^\255tC\227\312\327\265W"
 412      D7D55A50 
 412      D65EAD74 
 412      4397CAD7 
 412      B557
 413 01d7 F597FD5A 		.ascii	"\365\227\375Z\250\033\365k\253+\232\016U\367\212\276"
 413      A81BF56B 
 413      AB2B9A0E 
 413      55F78ABE 
 414 01e7 5AAB3742 		.ascii	"Z\2537B}\261p!\237\213\365\374\334\332\232\016\033A"
 414      7DB17021 
 414      9F8BF5FC 
 414      DCDA9A0E 
 414      1B41
 415 01f9 3E572C05 		.ascii	">W,\005\356\254\007Sd\212a\243^v\203\260\030\270\341"
 415      EEAC0753 
 415      648A61A3 
 415      5E7683B0 
 415      18B8E1
 416 020c CA6CEE24 		.ascii	"\312l\356$\224\377\005\2166\334\364"
 416      94FF058E 
 416      36DCF4
 417              		.text
 418              		.section	.gnu.lto_.symbol_nodes.49eed8371e815d93,"",%progbits
 419 0000 789C4DCD 		.ascii	"x\234M\315\275JCA\024\004\340\231\263\273\367G\223k"
 419      BD4A4341 
 419      1404E099 
 419      B3BBF747 
 419      936B
 420 0012 2C0301DF 		.ascii	",\003\001\337\324\011\026\032\254\004\353\330\370&\006"
 420      D409161A 
 420      AC04EBD8 
 420      F82606
 421 0021 8C464DD4 		.ascii	"\214FM\324(\242]\320t\276\202\342\205]\274{\272o\346"
 421      28A25DD0 
 421      74BE82E2 
 421      855DBC7B 
 421      BA6FE6
 422 0034 C0180C87 		.ascii	"\300\030\014\207D<{\247\200\263% M'\264\017\212\031"
 422      443C7BA7 
 422      80B32520 
 422      4D27B40F 
ARM GAS  /tmp/cci6z0MT.s 			page 33


 422      8A19
 423 0046 1794255E 		.ascii	"\027\224%^L\030n\011/gw\224\353R\273\247|\306\007*d"
 423      4C186E09 
 423      2F677794 
 423      EB52BBA7 
 423      7CC6072A 
 424 005b 5C5245C6 		.ascii	"\\RE\306\025Uf|\244\252\214OT\235\355\335\220\355^\230"
 424      1555667C 
 424      A4AA8C4F 
 424      549DEDDD 
 424      90ED5E98 
 425 006f D38260CF 		.ascii	"\323\202`\317\324N\366\273\246v;\362\225\352E\216\307"
 425      D44EF6BB 
 425      A6763BF2 
 425      95EA458E 
 425      C7
 426 0080 E40BD5EF 		.ascii	"\344\013\325\357\364F5\377r\330\303l\276\0329\033\340"
 426      F44635FF 
 426      72D8C36C 
 426      BE1A391B 
 426      E0
 427 0091 73F34B6F 		.ascii	"s\363KoX\377|\321\371\001.\217\277\017\274\307\371u"
 427      58FF7CD1 
 427      F9012E8F 
 427      BF0FBCC7 
 427      F975
 428 00a3 DB86C410 		.ascii	"\333\206\304\020Y$\026\221eb\031Y%V\221ub\035\331\007"
 428      59241691 
 428      65621959 
 428      25569175 
 428      621DD907 
 429 00b7 8E4EB743 		.ascii	"\216N\267C\327\354c\326\306\256!\256N\266C\374\001\355"
 429      D7EC63D6 
 429      C6AE21AE 
 429      4EB643FC 
 429      01ED
 430 00c9 627630   		.ascii	"bv0"
 431              		.text
 432              		.section	.gnu.lto_.refs.49eed8371e815d93,"",%progbits
 433 0000 789C25C6 		.ascii	"x\234%\306\201\015\2000\020BQ\016\252VQ\267\352\376"
 433      810D8030 
 433      1042510E 
 433      AA5651B7 
 433      EAFE
 434 0012 2BD9223F 		.ascii	"+\331\"?y\201 \006\376\221\020\304\026\267\270\307#"
 434      79812006 
 434      FE9110C4 
 434      16B7B8C7 
 434      23
 435 0023 F6782E75 		.ascii	"\366x.u\225q\227\332\003\227f\326;\237a|/\306\0017"
 435      957197DA 
 435      039766D6 
 435      3B9F617C 
 435      2FC60137 
 436              		.text
 437              		.section	.gnu.lto_.decls.49eed8371e815d93,"",%progbits
 438 0000 789CBD59 		.ascii	"x\234\275Y{p\024E\032\357\236\335$\033\023 \240\362"
ARM GAS  /tmp/cci6z0MT.s 			page 34


 438      7B701445 
 438      1AEF9EDD 
 438      241B1320 
 438      A0F2
 439 0012 D03B093E 		.ascii	"\320;\011>\356\220*\263\274\352\344\376\320\020\026"
 439      EE902AB3 
 439      BCEAE4FE 
 439      D01016
 440 0021 11FE80A2 		.ascii	"\021\376\200\2426xuuwU\313\260\231\230=\222\335\270"
 440      36787575 
 440      7755CBB0 
 440      99983D92 
 440      DDB8
 441 0033 BBA1E02F 		.ascii	"\273\241\340/\207$\010\336yVx\011\221\207<D\360\212"
 441      872408DE 
 441      79567809 
 441      91873C44 
 441      F08A
 442 0045 9300A7A7 		.ascii	"\223\000\247\247\002\326\200`@\236\012\207r\324\205"
 442      02D68060 
 442      409E0A87 
 442      72D485
 443 0054 8593C001 		.ascii	"\205\223\300\001\305[A\004r_\367\274\266{gfg\251+\266"
 443      C55B4104 
 443      725FF7BC 
 443      B67B6766 
 443      67A92BB6 
 444 0068 EAEBE999 		.ascii	"\352\353\351\231\351\357\367\373\365\353\233\356^\001"
 444      E9EFF7FB 
 444      F5EB9BEE 
 444      5E01
 445 0076 09A83E1F 		.ascii	"\011\250>\037\241.\370==\000\241\273\036\204\272!\204"
 445      A12EF83D 
 445      3D00A1BB 
 445      1E84BA21 
 445      84
 446 0087 9E07C360 		.ascii	"\236\007\303`+\221\372\353\001\266\001\254\023\354\034"
 446      2B91FAEB 
 446      01B601AC 
 446      13EC1C
 447 0096 D845B02B 		.ascii	"\330E\260+`\327\301n\200\335\002\273\203T'\017X\011"
 447      60D7C16E 
 447      80DD02BB 
 447      8354270F 
 447      5809
 448 00a8 586FB047 		.ascii	"Xo\260G\301~N\236\301\253\001p-\003\033\214\021\363"
 448      C17E4E9E 
 448      C1AB0170 
 448      2D031B8C 
 448      11F3
 449 00ba 23B80F82 		.ascii	"#\270\017\202\225\203u\007+\006+\000\333\012\266_\323"
 449      95837507 
 449      2B062B00 
 449      DB0AB65F 
 449      D3
 450 00cb E105DB08 		.ascii	"\341\005\333\010\366\034\334|\004\327\017\301>\007\333"
 450      F61CDC7C 
ARM GAS  /tmp/cci6z0MT.s 			page 35


 450      04D70FC1 
 450      3E07DB
 451 00da 46B4C2B3 		.ascii	"F\264\302\263r\254j\035\011\327>`y\220\337\002\266\003"
 451      72AC6A1D 
 451      09D73E60 
 451      7990DF02 
 451      B603
 452 00ec 6C1FD841 		.ascii	"l\037\330A\260c`\202\306G\264\021L\242\347\004\\\377"
 452      B0636082 
 452      C647B411 
 452      4CA2E704 
 452      5CFF
 453 00fe 03769295 		.ascii	"\003v\222\225E\353Z\240q\245\353\"\274\025\340\367;"
 453      45EB5AA0 
 453      71A5EB22 
 453      BC15E0F7 
 453      3B
 454 010f AC6A9BA8 		.ascii	"\254j\233\250];5\255e\\\375H{\365\004[\303\341|\240"
 454      5D3B35AD 
 454      655CFD48 
 454      7BF5045B 
 454      C3E17CA0 
 455 0123 D599E0FD 		.ascii	"\325\231\340\375\036|\252\264:<\001\327\307\301$M\343"
 455      1E7CAAB4 
 455      3A3C01D7 
 455      C7C1244D 
 455      E3
 456 0134 2AB06AC8 		.ascii	"*\260j\310\237\327\332a2\344\247\200\015\004\033\204"
 456      9FD7DA61 
 456      32E4A780 
 456      0D041B84 
 457 0144 D53A118E 		.ascii	"\325:\021\216G5\035\0038\376\2139\360\023|^\203\033"
 457      47351D03 
 457      38FE8B39 
 457      F0137C5E 
 457      831B
 458 0156 FE8B0EFC 		.ascii	"\376\213\016\374W\356\003\377\025\007\376\353\367\201"
 458      57EE03FF 
 458      1507FEEB 
 458      F781
 459 0164 FFBA03FF 		.ascii	"\377\272\003\377\215\373\300\177\303\201\377\326}\340"
 459      8DFBC07F 
 459      C381FFD6 
 459      7DE0
 460 0172 BFE5C07F 		.ascii	"\277\345\300\177\347>\360\337q\340'\017{i\276:\377V"
 460      E73EF0DF 
 460      71E0270F 
 460      7B69BE3A 
 460      FF56
 461 0184 4DCFCBD8 		.ascii	"M\317\313\330\214)C\340Z\203\315\270\302\353H\327\250"
 461      8C2943E0 
 461      5A83CDB8 
 461      C2EB48D7 
 461      A8
 462 0195 C796819A 		.ascii	"\307\226\201\232\026\254\361\2208\247\3078^\007\211"
 462      16ACF190 
 462      38A7C738 
ARM GAS  /tmp/cci6z0MT.s 			page 36


 462      5E0789
 463 01a4 8B0F6B75 		.ascii	"\213\017ku\327ulDf|+\307fl\323\265\361\032\364\366\322"
 463      D7756C44 
 463      667C2BC7 
 463      666CD3B5 
 463      F11AF4F6 
 464 01b9 E34F04AC 		.ascii	"\343O\004\254M\363\377\006\231m2Qk\027\302I\342]\276"
 464      4DF3FF06 
 464      996D3251 
 464      6B17C249 
 464      E25DBE
 465 01cc A6EB01B0 		.ascii	"\246\353\001\260b\260n`E\026\032I\334\356\316it\322"
 465      62B06E60 
 465      45161A49 
 465      DCEECE69 
 465      74D2
 466 01de F747B0C7 		.ascii	"\367G\260\307\300\246\202\235A*'\321Ab\255G\303#\361"
 466      C0A6829D 
 466      412A27D1 
 466      4162AD47 
 466      C323F1
 467 01f1 BF537B47 		.ascii	"\277S{G4<\304q\026\241?\311r\243\274\3425y\354\356\356"
 467      343CC471 
 467      16A13FC9 
 467      72A3BCE2 
 467      3579ECEE 
 468 0206 BDD14219 		.ascii	"\275\321B\031~p#\343\244\210\237\177\030\375\026\213"
 468      7E7023E3 
 468      A4889F7F 
 468      18FD168B 
 469 0216 B87B212A 		.ascii	"\270{!*\245\231\342B*\005!\021\257\302\275\325f\245"
 469      A599E242 
 469      2A052111 
 469      AFC2BDD5 
 469      66A5
 470 0228 C0F0A0BC 		.ascii	"\300\360\240\274H\317\027\2429&\"\262Dx\012\275+\313"
 470      48CF17A2 
 470      392622B2 
 470      44780ABD 
 470      2BCB
 471 023a 2DA95DA7 		.ascii	"-\251]\247R\202,\373D\274\006\027\202\357/1\032\204"
 471      52822CFB 
 471      44BC0617 
 471      82EF2F31 
 471      1A84
 472 024c DE07FE16 		.ascii	"\336\007\376\026\360\177\004e\376\334#\2378\271\327"
 472      F07F0465 
 472      FEDC239F 
 472      38B9D7
 473 025b 4391DFA7 		.ascii	"C\221\337\247\310\265\030\024\256\303\2034\034\021\027"
 473      C8B51814 
 473      AEC38334 
 473      1C1117
 474 026a 14A6E3D2 		.ascii	"\024\246\343\322{\275\000\001\243\257\265\014\3718\367"
 474      7BBD0001 
 474      A3AFB50C 
 474      F938F7
ARM GAS  /tmp/cci6z0MT.s 			page 37


 475 0279 40F7505C 		.ascii	"@\367P\\\304/y\014\037'\255\355G\232p#\264\270\210W"
 475      C42F790C 
 475      1F27ADED 
 475      479A7023 
 475      B4B88857 
 476 028d E22250FB 		.ascii	"\342\"P\373\031f\3452]\2446\275]\267|\000\000\351\256"
 476      1966E532 
 476      5DA436BD 
 476      5DB77C00 
 476      00E9AE
 477 02a0 E9A2B977 		.ascii	"\351\242\271w\375\321rYI\245\266\274y\272\272\265Ei"
 477      FDD17259 
 477      49A5B6BC 
 477      79BABAB5 
 477      4569
 478 02b2 96BBBA5E 		.ascii	"\226\273\272^EL\377\373\320lB\233\232%\317\304\257\030"
 478      454CFFFB 
 478      D06C429B 
 478      9A25CFC4 
 478      AF18
 479 02c4 35F0E994 		.ascii	"5\360\351\224X\257\001\351.A\304\033\261\017\264/\020"
 479      58AF01E9 
 479      2E41C41B 
 479      B10FB42F 
 479      10
 480 02d5 F8F96FF0 		.ascii	"\370\371o\360\223\002zS\250y=\207\255\333\2078\265\261"
 480      93027A53 
 480      A8793D87 
 480      ADDB8738 
 480      B5B1
 481 02e7 E38C698A 		.ascii	"\343\214i\212^h.U\013b\323\206\303d\035\2428\255\211"
 481      5E682E55 
 481      0B62D386 
 481      C3641DA2 
 481      38AD89
 482 02fa 67EF1B06 		.ascii	"g\357\033\006\303As(\265+-\342\177\340\247P\266R\244"
 482      C3417328 
 482      B52B2DE2 
 482      7FE0A750 
 482      B652A4
 483 030d DC27B897 		.ascii	"\334'\270\227\326\226j\023(\363\017\024\313^\3659\262"
 483      D6966A13 
 483      28F30F14 
 483      CB5EF539 
 483      B2
 484 031e E901F80D 		.ascii	"\351\001\370\015@ \266QY\370\346\262~\362\212\035\330"
 484      4020B651 
 484      59F8E6B2 
 484      7EF28A1D 
 484      D8
 485 032f AA36E9B4 		.ascii	"\2526\351\2642\326yK\314\272|?\257\363gMt\264l\0032"
 485      32D6794B 
 485      CCBA7C3F 
 485      AFF3674D 
 485      74B46C03 
 486 0344 011D11D8 		.ascii	"\001\035\021\330\321\222\025\207\350Sx\375w\256\356"
 486      D1921587 
ARM GAS  /tmp/cci6z0MT.s 			page 38


 486      E85378FD 
 486      77AEEE
 487 0353 C674C228 		.ascii	"\306t\302(\331k\320\334\244\314\275\266[h\225\225f\017"
 487      D96BD0DC 
 487      A4CCBDB6 
 487      5B689595 
 487      660F
 488 0365 9D924D8E 		.ascii	"\235\222M\216SR\304\357A\253\272\2314\002:K+C4X!iYf"
 488      5352C4EF 
 488      41ABBA99 
 488      34023A4B 
 488      2B433458 
 489 037d 46B1BAE6 		.ascii	"F\261\272\346]\203j\314+\026\361\347t\336_\310\031\256"
 489      5D836ACC 
 489      2B16F1E7 
 489      74DE5FC8 
 489      19AE
 490 038f 94815BC0 		.ascii	"\224\201[\300\302]u\003\347\263W\367\026\013w#g\270"
 490      C25D7503 
 490      E7B357F7 
 490      160B7723 
 490      67B8
 491 03a1 52EBB9C5 		.ascii	"R\353\271\305\367\251\210\267\323\026\337\201\007@\272"
 491      F7A988B7 
 491      D316DF81 
 491      0740BA
 492 03b0 8BA6ED34 		.ascii	"\213\246\3554\335\003\251\361\263\233s[a`j?\001\335"
 492      DD03A9F1 
 492      B39B735B 
 492      61606A3F 
 492      01DD
 493 03c2 A6223FB9 		.ascii	"\246\"?\271\267\036\221\033!\272\355Z\215\3477\311\273"
 493      B71E911B 
 493      21BAED5A 
 493      8DE737C9 
 493      BB
 494 03d3 0773618C 		.ascii	"\007sa\214\264\201\235\202\375\351\012\232=\271*(MW"
 494      B4819D82 
 494      FDE90A9A 
 494      3DB92A28 
 494      4D57
 495 03e5 A0B41E58 		.ascii	"\240\264\036X\332GN)X\373z\244\326\310}\027\233C53\236"
 495      DA474E29 
 495      58FB7AA4 
 495      D6C87D17 
 495      9B433533 
 496 03fa C177E9E8 		.ascii	"\301w\351\350\303d2\037\242\275\364\272\207\235_\356"
 496      C364321F 
 496      A2BDF4BA 
 496      879D5FEE 
 497 040a 614E5CD9 		.ascii	"aN\\\331\256~\204\016S\240\271\036\376+\204\271\257"
 497      AE7E840E 
 497      53A0B91E 
 497      FE2B84B9 
 497      AF
 498 041b 10666708 		.ascii	"\020fg\010.43]lX\315ZV@K\370fc$f\031\254\244\343f\267"
 498      2E34335D 
ARM GAS  /tmp/cci6z0MT.s 			page 39


 498      6C58CD5A 
 498      56404BF8 
 498      66632466 
 499 0435 CFC7D71A 		.ascii	"\317\307\327\032\345\305\203\365\226X\2253\242\217\351"
 499      E5C583F5 
 499      96589533 
 499      A28FE9
 500 0444 88E5078A 		.ascii	"\210\345\007\212\332&\353`\353s\006+\311\030\361\352"
 500      DA26EB60 
 500      EB73062B 
 500      C918F1EA 
 501 0454 58FF948E 		.ascii	"X\377\224\216\365-t|\357\243\351A\232~C\323c\351#^@"
 501      F52D747C 
 501      EFA3E941 
 501      9A7E43D3 
 501      63E9235E 
 502 0469 9B333A41 		.ascii	"\2333:A\015\331i\250flGnq\355\306\361\207\34686\026"
 502      0DD969A8 
 502      666C476E 
 502      71EDC6F1 
 502      87E63836 
 503 047e 4A6BD45E 		.ascii	"Jk\324^7\356W\252e\230\325\202\200\276\340t>\211V\313"
 503      37EE57AA 
 503      6598D582 
 503      80BEE074 
 503      3E8956CB 
 504 0492 F23CF2B5 		.ascii	"\362<\362\265~\017\277\325$\217U\261\005t\202\226\333"
 504      7E0FBFD5 
 504      248F55B1 
 504      05748296 
 504      DB
 505 04a3 80FBDB84 		.ascii	"\200\373\333\204^\252@uV\026\035\177\027>;\202\276\334"
 505      5EAA4075 
 505      56161D7F 
 505      173E3B82 
 505      BEDC
 506 04b5 EACCE24A 		.ascii	"\352\314\342J\205j\256\255\307\327\252\256\352\012\345"
 506      856AAEAD 
 506      C7D7AAAE 
 506      EA0AE5
 507 04c4 521657AD 		.ascii	"R\026W\255N\277@k\210\363\302%[Vb9_\377\3523\216L\257"
 507      4EBF406B 
 507      88F3C225 
 507      5B566239 
 507      5FFFEA33 
 508 04db 6BADD681 		.ascii	"k\255\326\201\205\364\036Q\027*\312\221\2167|-3S]]\375"
 508      85F41E51 
 508      172ACA91 
 508      8E377C2D 
 508      33535D5D 
 509 04f0 DDAF52CF 		.ascii	"\335\257R\317h\253\007\263q\005t\235kYM&,b\326\311\036"
 509      68AB07B3 
 509      7105749D 
 509      6B594D26 
 509      2C62D6C9 
 510 0505 8A46CA77 		.ascii	"\212F\312w\202DfT\234\315\024\265\"\245\374\324N\"\272"
 510      82446654 
ARM GAS  /tmp/cci6z0MT.s 			page 40


 510      9CCD14B5 
 510      22A5FCD4 
 510      4E22BA
 511 0518 7CBBABCB 		.ascii	"|\273\253\313\203\334\313:o!\353\015\257\245,\231\225"
 511      83DCCB3A 
 511      6F21EB0D 
 511      AFA52C99 
 511      95
 512 0529 758E9775 		.ascii	"u\216\227u\301R\326g_\026\253M\245r\011h\241+\364\213"
 512      C152D667 
 512      5F16AB4D 
 512      A5720968 
 512      A12BF48B 
 513 053d 3CFA254B 		.ascii	"<\372%K\364y{9\364\345\256\320\257\360\350W-\321\217"
 513      F4797B39 
 513      F4E5AED0 
 513      AFF0E857 
 513      2DD18F
 514 0550 F2E86B5D 		.ascii	"\362\350k]\241_\347\321\277\267D\177\373\000\207\336"
 514      A15FE7D1 
 514      BFB7447F 
 514      FB0087DE 
 515 0560 E60AFD06 		.ascii	"\346\012\375\006\217~\323\022\275\203G\377\304\025\372"
 515      8F7ED312 
 515      BD8347FF 
 515      C415FA
 516 056f 2D1EFD27 		.ascii	"-\036\375'K\364M\0079\364\035\256\320\357\360\350w-"
 516      4BF44D07 
 516      39F41DAE 
 516      D0EFF0E8 
 516      772D
 517 0581 D17F5CB4 		.ascii	"\321\177\\\264\327\030\312:\301^W\004\262\300\021\314"
 517      D718CA3A 
 517      C15E5704 
 517      B2C011CC 
 518 0591 14AC0816 		.ascii	"\024\254\010\026\034W\345\2773\222\233)$,\330M\225f"
 518      1C57E5BF 
 518      33929B29 
 518      242CD84D 
 518      9566
 519 05a3 81DB6792 		.ascii	"\201\333g\222\200\226-\226\246oJQFh=\354\265\012\255"
 519      80962D96 
 519      A66F4A51 
 519      46683DEC 
 519      B50AAD
 520 05b6 F23F252D 		.ascii	"\362?%-\250\2128\005\015$\342&!\347\240*\342SY\\m\203"
 520      A88A3805 
 520      0D24E226 
 520      21E7A02A 
 520      E253595C 
 521 05cc AA88BFCB 		.ascii	"\252\210\277\313\342\2722\215u\311\222wT\327r\022\216"
 521      E2BA328D 
 521      75C99277 
 521      54D77212 
 521      8E
 522 05dd 4FD31AD9 		.ascii	"O\323\032\331{\226\233\321\27013\032\247\371YE\343\327"
 522      7B969BD1 
ARM GAS  /tmp/cci6z0MT.s 			page 41


 522      B831331A 
 522      A7F95945 
 522      E3D7
 523 05ef 2D3BF348 		.ascii	"-;\363H\207Mg:\204\275\271V}\311u\316y\353\3169\314"
 523      874D673A 
 523      84BDB956 
 523      7DC975CE 
 523      79EBCE39 
 524 0604 774E8B73 		.ascii	"wN\213s\347\030\003\365/\362\254\022l\214\324\026~\244"
 524      E71803F5 
 524      2FF2AC12 
 524      6C8CD416 
 524      7EA4
 525 0616 CECFAC5C 		.ascii	"\316\317\254\\\252%\365\343\231\313\375\026o\222\233"
 525      AA25F5E3 
 525      99CBFD16 
 525      6F929B
 526 0625 5F97EF76 		.ascii	"_\227\357v\275\212\335Wp\021_A\322\333\374`\345*\274"
 526      BD8ADD57 
 526      70115F41 
 526      D2DBFC60 
 526      E52ABC
 527 0638 358F9F62 		.ascii	"5\217\237bj\241\267-\225}z\361\362\037Z\345\035\352"
 527      6AA1B72D 
 527      957D7AF1 
 527      F21F5AE5 
 527      1DEA
 528 064a 6E5D9FA5 		.ascii	"n]\237\245\177\316\267\206Xj\011q\363\314\315~\006\204"
 528      7FCEB786 
 528      586A0971 
 528      F3CCCD7E 
 528      0684
 529 065c FBBA2DB7 		.ascii	"\373\272-\267\252\033W\227\3456BV\260B\036G+e\345\020"
 529      AA1B5797 
 529      E5364256 
 529      B0421E47 
 529      2B65E510 
 530 0670 AC652ECD 		.ascii	"\254e.\315\304\363ey7l?\273\272p\377\236\250E\333\270"
 530      C4F36579 
 530      376C3FBB 
 530      BA70FF9E 
 530      A845DBB8 
 531 0684 EA1BFB91 		.ascii	"\352\033\373\221i[\312\221\351kBu\201\255\264\266\343"
 531      695BCA91 
 531      E96B4275 
 531      81ADB4B6 
 531      E3
 532 0695 5211AF16 		.ascii	"R\021\257\026\3106\270\215\343\316\212A7\246\002\277"
 532      C836B88D 
 532      E3CE8A41 
 532      37A602BF 
 533 06a5 8D6FA7DB 		.ascii	"\215o\247\333x\362\334\3056\276})\335\306\353\253\""
 533      78F2DCC5 
 533      36BE7D29 
 533      DDC6EBAB 
 533      22
 534 06b6 854A20BE 		.ascii	"\205J \276\367\264UR\026\315^\246\341\321Y\275'g\270"
ARM GAS  /tmp/cci6z0MT.s 			page 42


 534      F7B45552 
 534      16CD5EA6 
 534      E1D159BD 
 534      2767B8
 535 06c9 522BB17A 		.ascii	"R+\261z'\230u\025\361Z\201,\231\327\011d!\373W!s!\253"
 535      27987515 
 535      F15A812C 
 535      99D70964 
 535      21FB5721 
 536 06e0 7874FC11 		.ascii	"xt\374\021\232\367*\241'\315\321\335\217ll\342\212\355"
 536      9AF72AA1 
 536      27CDD1DD 
 536      8F6C6CE2 
 536      8AED
 537 06f2 F770EB85 		.ascii	"\367p\353\205B\003\262\270\320\314\344\033\303\345\260"
 537      4203B2B8 
 537      D0CCE41B 
 537      C3E5B0
 538 0701 D165B6B4 		.ascii	"\321e\266\264\1773G\016\0315\362\327\312\346\366\005"
 538      7F33470E 
 538      1935F2D7 
 538      CAE6F605 
 539 0711 D0488D32 		.ascii	"\320H\2152L\315.\254/eO\362H\031j6\260@\227\017)\255"
 539      4CCD2EAC 
 539      2F654FF2 
 539      48196A36 
 539      B040970F 
 540 0727 AF2DC306 		.ascii	"\257-\303\006\2209\366D\374\221\271'Y\221\247\343L\242"
 540      9039F644 
 540      FC91B927 
 540      5991A7E3 
 540      4CA2
 541 0739 AEE9C53E 		.ascii	"\256\351\305>\266/&\342MZs\231\315\300\337\012\350*"
 541      B62F26E2 
 541      4D5A7399 
 541      CDC0DF0A 
 541      E82A
 542 074b 2F3A1366 		.ascii	"/:\023f3\250~\014\315*X&\253#v8\332,\317Q\352!v\003"
 542      33A87E0C 
 542      CD2A5826 
 542      AB237638 
 542      DA2CCF51 
 543 0763 BE3186D4 		.ascii	"\2761\206\324\247\023U\345\352\216\205\274#\333\370"
 543      A71355E5 
 543      EA8E85BC 
 543      23DBF8
 544 0772 39F21CD9 		.ascii	"9\362\034\331\253\355_\3103\262\261n\326\236\035\324"
 544      ABED5FC8 
 544      33B2B16E 
 544      D69E1DD4 
 545 0782 9ED1B0A4 		.ascii	"\236\321\260\244nk\322n\217\231\267E\306\270\300N\\"
 545      6E6BD26E 
 545      8F99B745 
 545      C6B8C04E 
 545      5C
 546 0793 4BDD7179 		.ascii	"K\335qyY.\314r\025\033\\\202\023W\233;.\037\313%\260"
 546      592ECC72 
ARM GAS  /tmp/cci6z0MT.s 			page 43


 546      151B5C82 
 546      13579B3B 
 546      2E1FCB25 
 547 07a8 5CDD0C2E 		.ascii	"\\\335\014.\217\023\327Nw\\\305,\227\207\3452\203\220"
 547      8F13D74E 
 547      775CC52C 
 547      9787E532 
 547      8390
 548 07ba D789EB5B 		.ascii	"\327\211\353[w\\%,\227\227\345\352ap\3459q]p\307\365"
 548      775C252C 
 548      9797E5EA 
 548      6170E539 
 548      715D70C7 
 549 07cf 10       		.ascii	"\020"
 550 07d0 CB95C772 		.ascii	"\313\225\307r\225\030\\\371N\\\362LW\\}Y\256|\226\213"
 550      95185CF9 
 550      4E5CF24C 
 550      575C7D59 
 550      AE7C968B 
 551 07e4 4E29E314 		.ascii	"N)\343\024I\241\001h\233\315\261\020w\216\305y\271<"
 551      49A10168 
 551      9BCDB110 
 551      778EC579 
 551      B93C
 552 07f6 7B328E7A 		.ascii	"{2\216z\024\333\243\036\021\177E\217\037\262\034\307"
 552      14DBA31E 
 552      117F458F 
 552      1FB21CC7 
 553 0806 70675F64 		.ascii	"pg_d\241`\307\257\010\006\277\305Q\256\"\350\345\007"
 553      A160C7AF 
 553      0806BFC5 
 553      51AE22E8 
 553      E507
 554 0818 A2B423E1 		.ascii	"\242\264#\341\375O\253G\302\333\351\267pEA\326#a\026"
 554      FD4FAB47 
 554      C2DBE9B7 
 554      704541D6 
 554      236116
 555 082b 87F0EEE4 		.ascii	"\207\360\356\344\277\205\307V\357Q\217\204wf\377\032"
 555      BF85C756 
 555      EF518F84 
 555      7766FF1A 
 556 083b 363729FF 		.ascii	"67)\377^\275G=\022\326\2177\327S\025;\357\355s\010\200"
 556      5EBD473D 
 556      12D68F37 
 556      D753153B 
 556      EFED7308 
 557 0850 1D84DF3C 		.ascii	"\035\204\337<-\335\2203\\)\003w\231\205\373\273\033"
 557      2DDD9033 
 557      5C290377 
 557      9985FBBB 
 557      1B
 558 0861 3887B3DC 		.ascii	"8\207\263\334\253,\334\3079\303\261\352\256\263p\333"
 558      AB2CDCC7 
 558      39C3B1EA 
 558      AEB370DB 
 559 0871 DDC095D8 		.ascii	"\335\300\225\330\253\373\201\205\3732g8V\335M\026\356"
ARM GAS  /tmp/cci6z0MT.s 			page 44


 559      ABFB8185 
 559      FB326738 
 559      56DD4D16 
 559      EE
 560 0882 2B37707D 		.ascii	"+7p}\355\325\335b\341\216\345\014\307\252\273\315\302"
 560      EDD5DD62 
 560      E18EE50C 
 560      C7AABBCD 
 560      C2
 561 0893 9D740357 		.ascii	"\235t\003Wj\257\356.\013\327\2313\\\251\325,Q\177\351"
 561      6AAFEE2E 
 561      0BD79933 
 561      5CA9D52C 
 561      517FE9
 562 08a6 D34CC4BB 		.ascii	"\323L\304\273\3502\354\013\272\014\333M\323/i\272\217"
 562      E832EC0B 
 562      BA0CDB4D 
 562      D32F69BA 
 562      8F
 563 08b7 A607687A 		.ascii	"\246\007hz\210\246_\323\364\010M\217\322\364\333\364"
 563      88A65FD3 
 563      F4084D8F 
 563      D2F4DBF4 
 564 08c7 651B175E 		.ascii	"e\033\027^\266\333\210%\374\377\312\010/Y\227\331\037"
 564      B6DB8825 
 564      FCFFCA08 
 564      2F5997D9 
 564      1F
 565 08d8 5EEB4B16 		.ascii	"^\353K\026\305\307il9g\035[\234\327\331\035|lYvM\373"
 565      C5C7696C 
 565      39671D5B 
 565      9CD7D91D 
 565      7C6C5976 
 566 08ee BBA9C355 		.ascii	"\273\251\303Ul\331\250\377\335\244w\312\017TE\307=\307"
 566      6CD9A8FF 
 566      DDA477CA 
 566      0F5445C7 
 566      3DC7
 567 0900 964DEC3F 		.ascii	"\226M\354?1\267r\206s\354\343\216\264>>A\3738E\373\354"
 567      31B77286 
 567      73ECE38E 
 567      B43E3E41 
 567      FB3845FB 
 568 0915 94439F1D 		.ascii	"\224C\237\035w\350\263\357\204\314\017\231\366_\260"
 568      77E8B3EF 
 568      84CC0F99 
 568      F65FB0
 569 0924 B90ECCF0 		.ascii	"\271\016\314\360:m\353u\336\341\037\344N[\2575\016\037"
 569      3A6DEB75 
 569      DEE11FE4 
 569      4E5BAF35 
 569      0E1F
 570 0936 CD33B65E 		.ascii	"\3153\266^\033\035\024\236\265\365jsP\370_[\257\345"
 570      1B1D149E 
 570      B5F56A73 
 570      50F85F5B 
 570      AFE5
ARM GAS  /tmp/cci6z0MT.s 			page 45


 571 0948 0E9FD573 		.ascii	"\016\237\325s\266^g\034\270\316\233^\350I\177C\"\356"
 571      B65E671C 
 571      B8CE9B5E 
 571      E8497F43 
 571      22EE
 572 095a 17E375CF 		.ascii	"\027\343u\317DcQ\351\031I\234\022\361G\242\341\332\206"
 572      446351E9 
 572      19499C12 
 572      F147A2E1 
 572      DA86
 573 096c 2AC99F48 		.ascii	"*\311\237HVE\242\311\262\032\344k\200\353\260\241\241"
 573      5645A2C9 
 573      B21AE46B 
 573      80EBB0A1 
 573      A1
 574 097d 64FE8B13 		.ascii	"d\376\213\023^*\015\240\341\016Nub\270&\022\225\374"
 574      5E2A0DA0 
 574      E10E4E75 
 574      62B82612 
 574      95FC
 575 098f A12AA95A 		.ascii	"\241*\251Zl\250M\206\2223\352\245\004\200<\020\012\351"
 575      6CA84D86 
 575      9233EAA5 
 575      04803C10 
 575      0AE9
 576 09a1 3063FC35 		.ascii	"0c\3745\261:\311\037\216U\315\360WI\323\374\3401%\022"
 576      B13AC91F 
 576      8E55CDF0 
 576      5749D3FC 
 576      E0312512 
 577 09b5 4BF893F1 		.ascii	"K\370\223\361\206\350T?dj\304Z\177},\236L\370+'\215"
 577      86E8543F 
 577      646AC45A 
 577      7F7D2C9E 
 577      4CF82B27 
 578 09ca 1F36544D 		.ascii	"\0376TM\307\014\231>\0354\325\001BU\235\010\210\335"
 578      C70C993E 
 578      1D34D501 
 578      42559D08 
 578      88DD
 579 09dc 8D9B4822 		.ascii	"\215\233H\"\376\177B\015\243\274\320\250X\254\366\327"
 579      FE7F420D 
 579      A3BCD0A8 
 579      58ACF6D7 
 580 09ec D9C0A4E9 		.ascii	"\331\300\244\351I\177`|\345\270J\200Q\375\253\207\014"
 580      497F607C 
 580      E5B84A80 
 580      51FDAB87 
 580      0C
 581 09fd 9E0EAA1E 		.ascii	"\236\016\252\036\034=\276\"\024\250\021\243Q\25164\011"
 581      1C3DBE22 
 581      14A811A3 
 581      51A93634 
 581      09
 582 0a0e 2A3F5AAA 		.ascii	"*?Z\252\366\004\002\301\274\300\204\321\223\202\336"
 582      F60402C1 
 582      BCC084D1 
ARM GAS  /tmp/cci6z0MT.s 			page 46


 582      9382DE
 583 0a1d C0C40A48 		.ascii	"\300\304\012H\306W\004\013\302j\031o\244:\034/ M3\""
 583      C657040B 
 583      C26A196F 
 583      A43A1C2F 
 583      204D3322 
 584 0a31 942C541B 		.ascii	"\224,T\033\011r\371\221DM\244:Y\230\220j\253#\321*i"
 584      0972F991 
 584      444DA43A 
 584      5998906A 
 584      AB23D12A 
 585 0a46 7AFE3429 		.ascii	"z\3764)\234\214\305{\031ZC\211d\\\022\353B\311\276p"
 585      9C8CC57B 
 585      195A4389 
 585      645C12EB 
 585      42C9BE70 
 586 0a5a 5349F315 		.ascii	"SI\363\025\265\265\261\260\230\224\312\352\305x\262"
 586      B5B5B1B0 
 586      9894CAEA 
 586      C578B2
 587 0a69 6C703EBC 		.ascii	"lp>\274H$\353}\365\361H,\036I\316\360V7D\303}\214\322"
 587      4824EB7D 
 587      F5F1482C 
 587      1E49CEF0 
 587      563744C3 
 588 0a80 41A95612 		.ascii	"A\251V\022\023Z\341!\276\337P\374_\005\264\314\263\203"
 588      135AE121 
 588      BEDF50FC 
 588      5F05B4CC 
 588      B383
 589 0a92 F5CC703D 		.ascii	"\365\314p=3B\317\350eF\350eF\014/\000\330q\321H\262"
 589      3342CFE8 
 589      6546E865 
 589      460C2F00 
 589      D871D148 
 590 0aa7 6786983C 		.ascii	"g\206\230<\300\027\353Jx\332r\367\335\025\216\325\325"
 590      C017EB4A 
 590      78DA72F7 
 590      DD158ED5 
 590      D5
 591 0ab8 C5A2FE8A 		.ascii	"\305\242\376\212\340\370\300\370\351\376\350\264H\030"
 591      E0F8C0F8 
 591      E9FEE8B4 
 591      4818
 592 0ac6 DAB9845C 		.ascii	"\332\271\204\\_\210\212Sj%U\303s\331\000\343I\015O\003"
 592      5F888A53 
 592      6A2555C3 
 592      73D900E3 
 592      490D4F03 
 593 0ada 0AD78463 		.ascii	"\012\327\204cq)4\355\331:\200\353\025\"\357B\221\370"
 593      712934ED 
 593      D93A80EB 
 593      1522EF42 
 593      91F8
 594 0aec 2B21A93E 		.ascii	"+!\251>R\033{\271A\352I\030FG\022&E\017\322\354d\260"
 594      521B7BB9 
 594      41EA4918 
ARM GAS  /tmp/cci6z0MT.s 			page 47


 594      46471226 
 594      450FD2EC 
 595 0b02 C5A5AA08 		.ascii	"\305\245\252\010\0149\037\271'\215ZH2\264\236\335\230"
 595      0C391FB9 
 595      278D5A48 
 595      32B49EDD 
 595      98
 596 0b13 2225663F 		.ascii	"\"%f?%B\320\031S{\205\370\376K<R\026\217U\211I\261,"
 596      2542D019 
 596      537B85F8 
 596      FE4B3C52 
 596      168F5589 
 597 0b2a F3555130 		.ascii	"\363UQ0\020\320\307\220\020\200q3\346\305\240'0.\350"
 597      10D0C790 
 597      10807133 
 597      E6C5A027 
 597      302EE8
 598 0b3d AB98386A 		.ascii	"\253\2308jh\260r\022\315\014!\231\374\212\261\243^\230"
 598      68B07212 
 598      CD0C2199 
 598      FC8AB1A3 
 598      5E98
 599 0b4f 102C202F 		.ascii	"\020, /\264\353\020\270zG\215\016\200Ge\260\210\214"
 599      B4EB10B8 
 599      7A478D0E 
 599      804765B0 
 599      888C
 600 0b61 4A7D348E 		.ascii	"J}4\216\253\014z\307\215\011\004\377\007\005e\007V"
 600      AB0C7AC7 
 600      8D0904FF 
 600      07056507 
 600      56
 601              		.text
 602              		.section	.gnu.lto_.symtab.49eed8371e815d93,"",%progbits
 603 0000 56656374 		.ascii	"Vector6C\000\000\000\000\000\000\000\000\000\000\000"
 603      6F723643 
 603      00000000 
 603      00000000 
 603      000000
 604 0013 00EA0000 		.ascii	"\000\352\000\000\000Vector70\000\000\000\000\000\000"
 604      00566563 
 604      746F7237 
 604      30000000 
 604      000000
 605 0026 00000000 		.ascii	"\000\000\000\000\000\000\356\000\000\000Vector74\000"
 605      0000EE00 
 605      00005665 
 605      63746F72 
 605      373400
 606 0039 00000000 		.ascii	"\000\000\000\000\000\000\000\000\000\000\000\361\000"
 606      00000000 
 606      000000F1 
 606      00
 607 0046 00005665 		.ascii	"\000\000Vector78\000\000\000\000\000\000\000\000\000"
 607      63746F72 
 607      37380000 
 607      00000000 
ARM GAS  /tmp/cci6z0MT.s 			page 48


 607      000000
 608 0059 000000F4 		.ascii	"\000\000\000\364\000\000\000Vector7C\000\000\000\000"
 608      00000056 
 608      6563746F 
 608      72374300 
 608      000000
 609 006c 00000000 		.ascii	"\000\000\000\000\000\000\000\000\367\000\000\000Vec"
 609      00000000 
 609      F7000000 
 609      566563
 610 007b 746F7238 		.ascii	"tor80\000\000\000\000\000\000\000\000\000\000\000\000"
 610      30000000 
 610      00000000 
 610      00000000 
 610      00
 611 008c FA000000 		.ascii	"\372\000\000\000Vector84\000\000\000\000\000\000\000"
 611      56656374 
 611      6F723834 
 611      00000000 
 611      000000
 612 009f 00000000 		.ascii	"\000\000\000\000\000\375\000\000\000dmaInit\000\000"
 612      00FD0000 
 612      00646D61 
 612      496E6974 
 612      0000
 613 00b1 00000000 		.ascii	"\000\000\000\000\000\000\000\000\000\000\000\001\000"
 613      00000000 
 613      00000001 
 613      00
 614 00be 005F7374 		.ascii	"\000_stm32_dma_streams\000\000\000\000\000\000\000\000"
 614      6D33325F 
 614      646D615F 
 614      73747265 
 614      616D7300 
 615 00d9 00000000 		.ascii	"\000\000\000\0000\001\000\000dmaStreamAllocate\000\000"
 615      30010000 
 615      646D6153 
 615      74726561 
 615      6D416C6C 
 616 00f4 00000000 		.ascii	"\000\000\000\000\000\000\000\000\000\000\003\001\000"
 616      00000000 
 616      00000301 
 616      00
 617 0101 00646D61 		.ascii	"\000dmaStreamRelease\000\000\000\000\000\000\000\000"
 617      53747265 
 617      616D5265 
 617      6C656173 
 617      65000000 
 618 011a 00000000 		.ascii	"\000\000\000\000\020\001\000\000nvicEnableVector\000"
 618      10010000 
 618      6E766963 
 618      456E6162 
 618      6C655665 
 619 0133 00020000 		.ascii	"\000\002\000\000\000\000\000\000\000\000\000\026\001"
 619      00000000 
 619      00000016 
 619      01
ARM GAS  /tmp/cci6z0MT.s 			page 49


 620 0140 00005F70 		.ascii	"\000\000_port_irq_epilogue\000\000\002\000\000\000\000"
 620      6F72745F 
 620      6972715F 
 620      6570696C 
 620      6F677565 
 621 015b 00000000 		.ascii	"\000\000\000\000\000\033\001\000\000nvicDisableVect"
 621      001B0100 
 621      006E7669 
 621      63446973 
 621      61626C65 
 622 0173 6F720000 		.ascii	"or\000\000\002\000\000\000\000\000\000\000\000\000\035"
 622      02000000 
 622      00000000 
 622      00001D
 623 0182 010000   		.ascii	"\001\000\000"
 624              		.text
 625              		.section	.gnu.lto_.opts,"",%progbits
 626 0000 272D6D63 		.ascii	"'-mcpu=cortex-m3' '-mno-thumb-interwork' '-mthumb' "
 626      70753D63 
 626      6F727465 
 626      782D6D33 
 626      2720272D 
 627 0033 272D4F32 		.ascii	"'-O2' '-fomit-frame-pointer' '-falign-functions=16'"
 627      2720272D 
 627      666F6D69 
 627      742D6672 
 627      616D652D 
 628 0066 20272D66 		.ascii	" '-ffunction-sections' '-fdata-sections' '-fno-comm"
 628      66756E63 
 628      74696F6E 
 628      2D736563 
 628      74696F6E 
 629 0099 6F6E2720 		.ascii	"on' '-flto'\000"
 629      272D666C 
 629      746F2700 
 630              		.text
 631              		.section	.text.Vector6C,"ax",%progbits
 632              		.align	2
 633              		.p2align 4,,15
 634              		.global	Vector6C
 635              		.thumb
 636              		.thumb_func
 637              		.type	Vector6C, %function
 638              	Vector6C:
 639              		@ args = 0, pretend = 0, frame = 0
 640              		@ frame_needed = 0, uses_anonymous_args = 0
 641 0000 08B5     		push	{r3, lr}
 642 0002 074B     		ldr	r3, .L7
 643 0004 074A     		ldr	r2, .L7+4
 644 0006 1968     		ldr	r1, [r3]
 645 0008 01F00F01 		and	r1, r1, #15
 646 000c 5960     		str	r1, [r3, #4]
 647 000e 1368     		ldr	r3, [r2]
 648 0010 0BB1     		cbz	r3, .L2
 649 0012 5068     		ldr	r0, [r2, #4]
 650 0014 9847     		blx	r3
 651              	.L2:
ARM GAS  /tmp/cci6z0MT.s 			page 50


 652 0016 BDE80840 		pop	{r3, lr}
 653 001a FFF7FEBF 		b	_port_irq_epilogue
 654              	.L8:
 655 001e 00BF     		.align	2
 656              	.L7:
 657 0020 00000240 		.word	1073872896
 658 0024 00000000 		.word	.LANCHOR0
 659              		.size	Vector6C, .-Vector6C
 660 0028 AFF30080 		.section	.text.Vector70,"ax",%progbits
 660      AFF30080 
 661              		.align	2
 662              		.p2align 4,,15
 663              		.global	Vector70
 664              		.thumb
 665              		.thumb_func
 666              		.type	Vector70, %function
 667              	Vector70:
 668              		@ args = 0, pretend = 0, frame = 0
 669              		@ frame_needed = 0, uses_anonymous_args = 0
 670 0000 074B     		ldr	r3, .L14
 671 0002 0848     		ldr	r0, .L14+4
 672 0004 1968     		ldr	r1, [r3]
 673 0006 8268     		ldr	r2, [r0, #8]
 674 0008 C1F30311 		ubfx	r1, r1, #4, #4
 675 000c 10B5     		push	{r4, lr}
 676 000e 0C01     		lsls	r4, r1, #4
 677 0010 5C60     		str	r4, [r3, #4]
 678 0012 0AB1     		cbz	r2, .L10
 679 0014 C068     		ldr	r0, [r0, #12]
 680 0016 9047     		blx	r2
 681              	.L10:
 682 0018 BDE81040 		pop	{r4, lr}
 683 001c FFF7FEBF 		b	_port_irq_epilogue
 684              	.L15:
 685              		.align	2
 686              	.L14:
 687 0020 00000240 		.word	1073872896
 688 0024 00000000 		.word	.LANCHOR0
 689              		.size	Vector70, .-Vector70
 690 0028 AFF30080 		.section	.text.Vector74,"ax",%progbits
 690      AFF30080 
 691              		.align	2
 692              		.p2align 4,,15
 693              		.global	Vector74
 694              		.thumb
 695              		.thumb_func
 696              		.type	Vector74, %function
 697              	Vector74:
 698              		@ args = 0, pretend = 0, frame = 0
 699              		@ frame_needed = 0, uses_anonymous_args = 0
 700 0000 074B     		ldr	r3, .L21
 701 0002 0848     		ldr	r0, .L21+4
 702 0004 1968     		ldr	r1, [r3]
 703 0006 0269     		ldr	r2, [r0, #16]
 704 0008 C1F30321 		ubfx	r1, r1, #8, #4
 705 000c 10B5     		push	{r4, lr}
 706 000e 0C02     		lsls	r4, r1, #8
ARM GAS  /tmp/cci6z0MT.s 			page 51


 707 0010 5C60     		str	r4, [r3, #4]
 708 0012 0AB1     		cbz	r2, .L17
 709 0014 4069     		ldr	r0, [r0, #20]
 710 0016 9047     		blx	r2
 711              	.L17:
 712 0018 BDE81040 		pop	{r4, lr}
 713 001c FFF7FEBF 		b	_port_irq_epilogue
 714              	.L22:
 715              		.align	2
 716              	.L21:
 717 0020 00000240 		.word	1073872896
 718 0024 00000000 		.word	.LANCHOR0
 719              		.size	Vector74, .-Vector74
 720 0028 AFF30080 		.section	.text.Vector78,"ax",%progbits
 720      AFF30080 
 721              		.align	2
 722              		.p2align 4,,15
 723              		.global	Vector78
 724              		.thumb
 725              		.thumb_func
 726              		.type	Vector78, %function
 727              	Vector78:
 728              		@ args = 0, pretend = 0, frame = 0
 729              		@ frame_needed = 0, uses_anonymous_args = 0
 730 0000 074B     		ldr	r3, .L28
 731 0002 0848     		ldr	r0, .L28+4
 732 0004 1968     		ldr	r1, [r3]
 733 0006 8269     		ldr	r2, [r0, #24]
 734 0008 C1F30331 		ubfx	r1, r1, #12, #4
 735 000c 10B5     		push	{r4, lr}
 736 000e 0C03     		lsls	r4, r1, #12
 737 0010 5C60     		str	r4, [r3, #4]
 738 0012 0AB1     		cbz	r2, .L24
 739 0014 C069     		ldr	r0, [r0, #28]
 740 0016 9047     		blx	r2
 741              	.L24:
 742 0018 BDE81040 		pop	{r4, lr}
 743 001c FFF7FEBF 		b	_port_irq_epilogue
 744              	.L29:
 745              		.align	2
 746              	.L28:
 747 0020 00000240 		.word	1073872896
 748 0024 00000000 		.word	.LANCHOR0
 749              		.size	Vector78, .-Vector78
 750 0028 AFF30080 		.section	.text.Vector7C,"ax",%progbits
 750      AFF30080 
 751              		.align	2
 752              		.p2align 4,,15
 753              		.global	Vector7C
 754              		.thumb
 755              		.thumb_func
 756              		.type	Vector7C, %function
 757              	Vector7C:
 758              		@ args = 0, pretend = 0, frame = 0
 759              		@ frame_needed = 0, uses_anonymous_args = 0
 760 0000 074B     		ldr	r3, .L35
 761 0002 0848     		ldr	r0, .L35+4
ARM GAS  /tmp/cci6z0MT.s 			page 52


 762 0004 1968     		ldr	r1, [r3]
 763 0006 026A     		ldr	r2, [r0, #32]
 764 0008 C1F30341 		ubfx	r1, r1, #16, #4
 765 000c 10B5     		push	{r4, lr}
 766 000e 0C04     		lsls	r4, r1, #16
 767 0010 5C60     		str	r4, [r3, #4]
 768 0012 0AB1     		cbz	r2, .L31
 769 0014 406A     		ldr	r0, [r0, #36]
 770 0016 9047     		blx	r2
 771              	.L31:
 772 0018 BDE81040 		pop	{r4, lr}
 773 001c FFF7FEBF 		b	_port_irq_epilogue
 774              	.L36:
 775              		.align	2
 776              	.L35:
 777 0020 00000240 		.word	1073872896
 778 0024 00000000 		.word	.LANCHOR0
 779              		.size	Vector7C, .-Vector7C
 780 0028 AFF30080 		.section	.text.Vector80,"ax",%progbits
 780      AFF30080 
 781              		.align	2
 782              		.p2align 4,,15
 783              		.global	Vector80
 784              		.thumb
 785              		.thumb_func
 786              		.type	Vector80, %function
 787              	Vector80:
 788              		@ args = 0, pretend = 0, frame = 0
 789              		@ frame_needed = 0, uses_anonymous_args = 0
 790 0000 074B     		ldr	r3, .L42
 791 0002 0848     		ldr	r0, .L42+4
 792 0004 1968     		ldr	r1, [r3]
 793 0006 826A     		ldr	r2, [r0, #40]
 794 0008 C1F30351 		ubfx	r1, r1, #20, #4
 795 000c 10B5     		push	{r4, lr}
 796 000e 0C05     		lsls	r4, r1, #20
 797 0010 5C60     		str	r4, [r3, #4]
 798 0012 0AB1     		cbz	r2, .L38
 799 0014 C06A     		ldr	r0, [r0, #44]
 800 0016 9047     		blx	r2
 801              	.L38:
 802 0018 BDE81040 		pop	{r4, lr}
 803 001c FFF7FEBF 		b	_port_irq_epilogue
 804              	.L43:
 805              		.align	2
 806              	.L42:
 807 0020 00000240 		.word	1073872896
 808 0024 00000000 		.word	.LANCHOR0
 809              		.size	Vector80, .-Vector80
 810 0028 AFF30080 		.section	.text.Vector84,"ax",%progbits
 810      AFF30080 
 811              		.align	2
 812              		.p2align 4,,15
 813              		.global	Vector84
 814              		.thumb
 815              		.thumb_func
 816              		.type	Vector84, %function
ARM GAS  /tmp/cci6z0MT.s 			page 53


 817              	Vector84:
 818              		@ args = 0, pretend = 0, frame = 0
 819              		@ frame_needed = 0, uses_anonymous_args = 0
 820 0000 074B     		ldr	r3, .L49
 821 0002 0848     		ldr	r0, .L49+4
 822 0004 1968     		ldr	r1, [r3]
 823 0006 026B     		ldr	r2, [r0, #48]
 824 0008 C1F30361 		ubfx	r1, r1, #24, #4
 825 000c 10B5     		push	{r4, lr}
 826 000e 0C06     		lsls	r4, r1, #24
 827 0010 5C60     		str	r4, [r3, #4]
 828 0012 0AB1     		cbz	r2, .L45
 829 0014 406B     		ldr	r0, [r0, #52]
 830 0016 9047     		blx	r2
 831              	.L45:
 832 0018 BDE81040 		pop	{r4, lr}
 833 001c FFF7FEBF 		b	_port_irq_epilogue
 834              	.L50:
 835              		.align	2
 836              	.L49:
 837 0020 00000240 		.word	1073872896
 838 0024 00000000 		.word	.LANCHOR0
 839              		.size	Vector84, .-Vector84
 840 0028 AFF30080 		.section	.text.dmaInit,"ax",%progbits
 840      AFF30080 
 841              		.align	2
 842              		.p2align 4,,15
 843              		.global	dmaInit
 844              		.thumb
 845              		.thumb_func
 846              		.type	dmaInit, %function
 847              	dmaInit:
 848              		@ args = 0, pretend = 0, frame = 0
 849              		@ frame_needed = 0, uses_anonymous_args = 0
 850              		@ link register save eliminated.
 851 0000 0A49     		ldr	r1, .L55
 852 0002 30B4     		push	{r4, r5}
 853 0004 0023     		movs	r3, #0
 854 0006 0A4D     		ldr	r5, .L55+4
 855 0008 0A4C     		ldr	r4, .L55+8
 856 000a 0B60     		str	r3, [r1]
 857 000c 1A46     		mov	r2, r3
 858 000e 1946     		mov	r1, r3
 859              	.L53:
 860 0010 E858     		ldr	r0, [r5, r3]
 861 0012 0C33     		adds	r3, r3, #12
 862 0014 542B     		cmp	r3, #84
 863 0016 0160     		str	r1, [r0]
 864 0018 A150     		str	r1, [r4, r2]
 865 001a 02F10802 		add	r2, r2, #8
 866 001e F7D1     		bne	.L53
 867 0020 30BC     		pop	{r4, r5}
 868 0022 054B     		ldr	r3, .L55+12
 869 0024 4FF0FF32 		mov	r2, #-1
 870 0028 5A60     		str	r2, [r3, #4]
 871 002a 7047     		bx	lr
 872              	.L56:
ARM GAS  /tmp/cci6z0MT.s 			page 54


 873              		.align	2
 874              	.L55:
 875 002c 00000000 		.word	.LANCHOR1
 876 0030 00000000 		.word	.LANCHOR2
 877 0034 00000000 		.word	.LANCHOR0
 878 0038 00000240 		.word	1073872896
 879              		.size	dmaInit, .-dmaInit
 880 003c AFF30080 		.section	.text.dmaStreamAllocate,"ax",%progbits
 881              		.align	2
 882              		.p2align 4,,15
 883              		.global	dmaStreamAllocate
 884              		.thumb
 885              		.thumb_func
 886              		.type	dmaStreamAllocate, %function
 887              	dmaStreamAllocate:
 888              		@ args = 0, pretend = 0, frame = 0
 889              		@ frame_needed = 0, uses_anonymous_args = 0
 890 0000 F8B5     		push	{r3, r4, r5, r6, r7, lr}
 891 0002 447A     		ldrb	r4, [r0, #9]	@ zero_extendqisi2
 892 0004 4FF0010C 		mov	ip, #1
 893 0008 0CFA04F6 		lsl	r6, ip, r4
 894 000c 154D     		ldr	r5, .L65
 895 000e 2F68     		ldr	r7, [r5]
 896 0010 3E42     		tst	r6, r7
 897 0012 22D1     		bne	.L60
 898 0014 DFF854C0 		ldr	ip, .L65+8
 899 0018 3E43     		orrs	r6, r6, r7
 900 001a 0CEBC407 		add	r7, ip, r4, lsl #3
 901 001e 4CF83420 		str	r2, [ip, r4, lsl #3]
 902 0022 7B60     		str	r3, [r7, #4]
 903 0024 7306     		lsls	r3, r6, #25
 904 0026 2E60     		str	r6, [r5]
 905 0028 04D0     		beq	.L59
 906 002a 0F4B     		ldr	r3, .L65+4
 907 002c 5C69     		ldr	r4, [r3, #20]
 908 002e 44F00104 		orr	r4, r4, #1
 909 0032 5C61     		str	r4, [r3, #20]
 910              	.L59:
 911 0034 0368     		ldr	r3, [r0]
 912 0036 4568     		ldr	r5, [r0, #4]
 913 0038 1C68     		ldr	r4, [r3]
 914 003a 0F27     		movs	r7, #15
 915 003c 24F00F04 		bic	r4, r4, #15
 916 0040 1C60     		str	r4, [r3]
 917 0042 067A     		ldrb	r6, [r0, #8]	@ zero_extendqisi2
 918 0044 0024     		movs	r4, #0
 919 0046 07FA06F6 		lsl	r6, r7, r6
 920 004a 2E60     		str	r6, [r5]
 921 004c 1C60     		str	r4, [r3]
 922 004e 32B1     		cbz	r2, .L61
 923 0050 807A     		ldrb	r0, [r0, #10]	@ zero_extendqisi2
 924 0052 FFF7FEFF 		bl	nvicEnableVector
 925 0056 2046     		mov	r0, r4
 926 0058 F8BD     		pop	{r3, r4, r5, r6, r7, pc}
 927              	.L60:
 928 005a 6046     		mov	r0, ip
 929 005c F8BD     		pop	{r3, r4, r5, r6, r7, pc}
ARM GAS  /tmp/cci6z0MT.s 			page 55


 930              	.L61:
 931 005e 1046     		mov	r0, r2
 932 0060 F8BD     		pop	{r3, r4, r5, r6, r7, pc}
 933              	.L66:
 934 0062 00BF     		.align	2
 935              	.L65:
 936 0064 00000000 		.word	.LANCHOR1
 937 0068 00100240 		.word	1073876992
 938 006c 00000000 		.word	.LANCHOR0
 939              		.size	dmaStreamAllocate, .-dmaStreamAllocate
 940              		.section	.text.dmaStreamRelease,"ax",%progbits
 941              		.align	2
 942              		.p2align 4,,15
 943              		.global	dmaStreamRelease
 944              		.thumb
 945              		.thumb_func
 946              		.type	dmaStreamRelease, %function
 947              	dmaStreamRelease:
 948              		@ args = 0, pretend = 0, frame = 0
 949              		@ frame_needed = 0, uses_anonymous_args = 0
 950 0000 10B5     		push	{r4, lr}
 951 0002 437A     		ldrb	r3, [r0, #9]	@ zero_extendqisi2
 952 0004 0122     		movs	r2, #1
 953 0006 9A40     		lsls	r2, r2, r3
 954 0008 084C     		ldr	r4, .L69
 955 000a 807A     		ldrb	r0, [r0, #10]	@ zero_extendqisi2
 956 000c 2368     		ldr	r3, [r4]
 957 000e 23EA0203 		bic	r3, r3, r2
 958 0012 2360     		str	r3, [r4]
 959 0014 FFF7FEFF 		bl	nvicDisableVector
 960 0018 2368     		ldr	r3, [r4]
 961 001a 5B06     		lsls	r3, r3, #25
 962 001c 04D1     		bne	.L67
 963 001e 044B     		ldr	r3, .L69+4
 964 0020 5A69     		ldr	r2, [r3, #20]
 965 0022 22F00102 		bic	r2, r2, #1
 966 0026 5A61     		str	r2, [r3, #20]
 967              	.L67:
 968 0028 10BD     		pop	{r4, pc}
 969              	.L70:
 970 002a 00BF     		.align	2
 971              	.L69:
 972 002c 00000000 		.word	.LANCHOR1
 973 0030 00100240 		.word	1073876992
 974              		.size	dmaStreamRelease, .-dmaStreamRelease
 975              		.global	_stm32_dma_streams
 976 0034 AFF30080 		.section	.bss.dma_isr_redir,"aw",%nobits
 976      AFF30080 
 976      AFF30080 
 977              		.align	2
 978              		.set	.LANCHOR0,. + 0
 979              		.type	dma_isr_redir, %object
 980              		.size	dma_isr_redir, 56
 981              	dma_isr_redir:
 982 0000 00000000 		.space	56
 982      00000000 
 982      00000000 
ARM GAS  /tmp/cci6z0MT.s 			page 56


 982      00000000 
 982      00000000 
 983              		.section	.rodata._stm32_dma_streams,"a",%progbits
 984              		.align	2
 985              		.set	.LANCHOR2,. + 0
 986              		.type	_stm32_dma_streams, %object
 987              		.size	_stm32_dma_streams, 84
 988              	_stm32_dma_streams:
 989 0000 08000240 		.word	1073872904
 990 0004 04000240 		.word	1073872900
 991 0008 00       		.byte	0
 992 0009 00       		.byte	0
 993 000a 0B       		.byte	11
 994 000b 00       		.space	1
 995 000c 1C000240 		.word	1073872924
 996 0010 04000240 		.word	1073872900
 997 0014 04       		.byte	4
 998 0015 01       		.byte	1
 999 0016 0C       		.byte	12
 1000 0017 00       		.space	1
 1001 0018 30000240 		.word	1073872944
 1002 001c 04000240 		.word	1073872900
 1003 0020 08       		.byte	8
 1004 0021 02       		.byte	2
 1005 0022 0D       		.byte	13
 1006 0023 00       		.space	1
 1007 0024 44000240 		.word	1073872964
 1008 0028 04000240 		.word	1073872900
 1009 002c 0C       		.byte	12
 1010 002d 03       		.byte	3
 1011 002e 0E       		.byte	14
 1012 002f 00       		.space	1
 1013 0030 58000240 		.word	1073872984
 1014 0034 04000240 		.word	1073872900
 1015 0038 10       		.byte	16
 1016 0039 04       		.byte	4
 1017 003a 0F       		.byte	15
 1018 003b 00       		.space	1
 1019 003c 6C000240 		.word	1073873004
 1020 0040 04000240 		.word	1073872900
 1021 0044 14       		.byte	20
 1022 0045 05       		.byte	5
 1023 0046 10       		.byte	16
 1024 0047 00       		.space	1
 1025 0048 80000240 		.word	1073873024
 1026 004c 04000240 		.word	1073872900
 1027 0050 18       		.byte	24
 1028 0051 06       		.byte	6
 1029 0052 11       		.byte	17
 1030 0053 00       		.space	1
 1031              		.section	.bss.dma_streams_mask,"aw",%nobits
 1032              		.align	2
 1033              		.set	.LANCHOR1,. + 0
 1034              		.type	dma_streams_mask, %object
 1035              		.size	dma_streams_mask, 4
 1036              	dma_streams_mask:
 1037 0000 00000000 		.space	4
ARM GAS  /tmp/cci6z0MT.s 			page 57


 1038              		.comm	__gnu_lto_v1,1,1
 1039              		.ident	"GCC: (GNU Tools for ARM Embedded Processors) 4.8.4 20140526 (release) [ARM/embedded-4_8-br
ARM GAS  /tmp/cci6z0MT.s 			page 58

