ARM GAS  /tmp/ccVWKWym.s 			page 1


   1              		.syntax unified
   2              		.cpu cortex-m3
   3              		.fpu softvfp
   4              		.eabi_attribute 20, 1
   5              		.eabi_attribute 21, 1
   6              		.eabi_attribute 23, 3
   7              		.eabi_attribute 24, 1
   8              		.eabi_attribute 25, 1
   9              		.eabi_attribute 26, 1
  10              		.eabi_attribute 30, 2
  11              		.eabi_attribute 34, 1
  12              		.eabi_attribute 18, 4
  13              		.thumb
  14              		.file	"testmsg.c"
  15              		.section	.gnu.lto_.jmpfuncs.c4da0b4618e9de77,"",%progbits
  16 0000 789C6362 		.ascii	"x\234cb`b\300\006f\0031+\020\003e\231\230\"\0303\031"
  16      6062C006 
  16      6603312B 
  16      10036599 
  16      98221833 
  17 0015 191881AC 		.ascii	"\031\030\201\254j\206_\0153\032\0042\031\031\345\030"
  17      6A865F0D 
  17      331A0432 
  17      1919E518 
  18 0025 18E736CC 		.ascii	"\030\3476\314p\310d\204hgd`\300\305\000\232\0021\340"
  18      70C86484 
  18      68676460 
  18      C0C5009A 
  18      0231E0
  19 0038 04980F36 		.ascii	"\004\230\0176\243\003d\006s2#\3242fF&f U\006U\311\342"
  19      A3036406 
  19      733223D4 
  19      32664626 
  19      66205506 
  20 004f 0C64A008 		.ascii	"\014d\240\0108\241\0138\0029,\216N\316\014\000d\375"
  20      38A10B38 
  20      02392C8E 
  20      4ECE0C00 
  20      64FD
  21 0061 1256     		.ascii	"\022V"
  22              		.text
  23              		.section	.gnu.lto_.inline.c4da0b4618e9de77,"",%progbits
  24 0000 789C6362 		.ascii	"x\234cb`b\300\006&Ci\240\254V\017##\003\223@C-\003\333"
  24      6062C006 
  24      264369A0 
  24      AC560F23 
  24      23039340 
  25 0018 0279B06A 		.ascii	"\002y\260jf\036\260\004\0237\003\003\343\004?0o\202"
  25      661EB004 
  25      13370303 
  25      E3043F30 
  25      6F82
  26 002a DF043F10 		.ascii	"\337\004?\020\237\004Av\001\006\006\326\011~\014`\304"
  26      9F044176 
  26      010606D6 
  26      097E0C60 
  26      C4
ARM GAS  /tmp/ccVWKWym.s 			page 2


  27 003b CCC0A3C6 		.ascii	"\314\300\243\306\010v\013\212%@9t\232\001\000a\243\022"
  27      08760B8A 
  27      25403974 
  27      9A010061 
  27      A312
  28 004d 0D       		.ascii	"\015"
  29              		.text
  30              		.section	.gnu.lto_.pureconst.c4da0b4618e9de77,"",%progbits
  31 0000 789C6362 		.ascii	"x\234cb`b`e\200\000&\006If\011\000\001\005\000@"
  31      60626065 
  31      80002606 
  31      49660900 
  31      01050040 
  32              		.text
  33              		.section	.gnu.lto_msg1_execute.c4da0b4618e9de77,"",%progbits
  34 0000 789C8D94 		.ascii	"x\234\215\224\357K\223Q\024\307\317\271\333\364\231"
  34      EF4B9351 
  34      14C7CFB9 
  34      DBF499
  35 000f ABE96A6B 		.ascii	"\253\351jk:\177$\2754\362\211(\242w\375\370\027\014"
  35      3A7F24BD 
  35      34F28928 
  35      A277FDF8 
  35      170C
  36 0021 EAE5BC1B 		.ascii	"\352\345\274\033\333CMk\233A\364\302k:\0204\260^\255"
  36      DB434D6B 
  36      9B41F4C2 
  36      6B3A1034 
  36      B05EAD
  37 0034 9F285298 		.ascii	"\237(R\230Hb\021T\010\011\276\261\027f\275\211\310^"
  37      48621154 
  37      0809BEB1 
  37      1766BD89 
  37      C85E
  38 0046 8C8408FA 		.ascii	"\214\204\010\372\017\"X\347\334\347\307JC\275\260{\317"
  38      0F2258E7 
  38      DCE7C74A 
  38      43BDB07B 
  38      CF
  39 0057 BDF79CEF 		.ascii	"\275\367\234\357\371\234\373\334;\001\0026\267\026\372"
  39      F99CFBDC 
  39      3B010236 
  39      B716FA
  40 0066 B50700AE 		.ascii	"\265\007\000\256\322\210>@1\361\036`\310\020\210l\000"
  40      D2883E40 
  40      31F11E60 
  40      C810886C 
  40      00
  41 0077 C2A0C0C1 		.ascii	"\302\240\300\301\213\310\256x\010\246\224\272S)m\374"
  41      8BC8AE78 
  41      08A694BA 
  41      53296DFC 
  42 0087 C0BB6A69 		.ascii	"\300\273jidR\375\256V\021-$\331c\010\022\341\002M\260"
  42      6452FDAE 
  42      56112D24 
  42      D9630812 
  42      E1024DB0 
ARM GAS  /tmp/ccVWKWym.s 			page 3


  43 009b 530FC2FF 		.ascii	"S\017\302\377o\236y\261T\251V\027\027&\277\275\306H"
  43      6F9E79B1 
  43      54A95617 
  43      1726BFBD 
  43      C648
  44 00ad 9B000B7D 		.ascii	"\233\000\013}>\352\374\001\352\300\200$N\221|\220&\201"
  44      3EEAFC01 
  44      EAC08024 
  44      4E917C90 
  44      2681
  45 00bf 10757561 		.ascii	"\020uuag\245\221W\"\274\022uVb\274\022\347\225\004\207"
  45      67A59157 
  45      22BC1275 
  45      5662BC12 
  45      E7950487 
  46 00d3 B652574F 		.ascii	"\266RWO\372\001\030Qj\242\323\366\001\206\241\326C="
  46      FA011851 
  46      6AA2D3F6 
  46      0186A1D6 
  46      433D
  47 00e5 97711E05 		.ascii	"\227q\036\005\217\276U\270\371\365\363\367\025\177\022"
  47      8FBE55B8 
  47      F9F5F3F7 
  47      157F12
  48 00f4 A7310019 		.ascii	"\2471\000\031\024G`N5Yh\334\207{C\023l\005o\300/Uf\253"
  48      1447604E 
  48      355968DC 
  48      877B4313 
  48      6C056FC0 
  49 010c 21A725B8 		.ascii	"!\247%\270\226\006p\255\320_\025\221\330\227\305\365"
  49      960670AD 
  49      D05F1591 
  49      D897C5F5 
  50 011c 4FC79DCC 		.ascii	"O\307\235\314.\202\232~bz8\256\2614\266\272\020!=;\261"
  50      2E829A7E 
  50      627A38AE 
  50      B134B6BA 
  50      10213D3B 
  51 0131 442D2D51 		.ascii	"D--Q\177\216\014&\016\303\254R\252\262\376\362q\027"
  51      7F8E0C26 
  51      0EC3AC52 
  51      AAB2FEF2 
  51      7117
  52 0143 9564CFD4 		.ascii	"\225d\317\324)\013\3670\227b\232\275\3145\312V8\247"
  52      290BF730 
  52      97629ABD 
  52      CC35CA56 
  52      38A7
  53 0155 A39926AC 		.ascii	"\243\231&\2549zy\232\304\031\022&\033=\333&,?O$\361"
  53      397A799A 
  53      C4191226 
  53      1B3DDB26 
  53      2C3F4F24 
  54 016a A9AEB6D5 		.ascii	"\251\256\266\325\021.\320\211y\302\215\224\236\265\300"
  54      112ED089 
  54      79C28D94 
  54      9EB5C0
ARM GAS  /tmp/ccVWKWym.s 			page 4


  55 0179 D1121C3F 		.ascii	"\321\022\034?\353\306\017\217.\217\255\336\016\272\347"
  55      EBC60F8F 
  55      2E8FADDE 
  55      0EBAE7
  56 0188 E5231176 		.ascii	"\345#\021v\366\263\373\0324\273\353\001\217\256I\322"
  56      F6B3FB1A 
  56      34BBEB01 
  56      8FAE49D2 
  57 0198 25B2AB12 		.ascii	"%\262\253\022\354\031Y\021\034\307\373\206\205\373$"
  57      EC195911 
  57      1CC7FB86 
  57      85FB24
  58 01a7 3A67CF55 		.ascii	":g\317U[\270_3\276\373Po/\362\327\240v\202h<\276\250"
  58      5BB85F33 
  58      BEFB506F 
  58      2FF2D7A0 
  58      7682683C 
  59 01bd 271DCBE9 		.ascii	"'\035\313\351\363b\325\330\177>H\206U\327`\270\362`"
  59      F362D5D8 
  59      7F3E4886 
  59      55D760B8 
  59      F260
  60 01cf 195D2EC3 		.ascii	"\031].\303\013> \355\222\350\266\304u\3227\245\027\343"
  60      0B3E20ED 
  60      92E8B6C4 
  60      75D237A5 
  60      17E3
  61 01e1 ED1C15A4 		.ascii	"\355\034\025\244T$\324L\336\372\034\216\332rkP\252<"
  61      5424D44C 
  61      DEFA1C8E 
  61      DA726B50 
  61      AA3C
  62 01f3 DA70C000 		.ascii	"\332p\300\000<\241\026\211uN>\203\202-Lh\271\237\303"
  62      3CA11689 
  62      754E3E83 
  62      822D4C68 
  62      B99FC3
  63 0206 D5F12E37 		.ascii	"\325\361.7m\2106X\301\277%\272U\352\313\312\321!\013"
  63      6D883658 
  63      C1BF25BA 
  63      55EACBCA 
  63      D1210B
  64 0219 DB6CE099 		.ascii	"\333l\340\231\032px\027\300\215\036px3\360\354\366\300"
  64      1A707817 
  64      C08D1E70 
  64      7833F0EC 
  64      F6C0
  65 022b 610AAE01 		.ascii	"a\012\256\001\317\337\362\200#\264\261#p\304\003\236"
  65      CFDFF280 
  65      23B4B123 
  65      70C4039E 
  66 023b AB014777 		.ascii	"\253\001Gw\001\034\363\200\243\233\201\237m\017\034"
  66      011CF380 
  66      A39B819F 
  66      6D0F1C
  67 024a A5E01AF0 		.ascii	"\245\340\032\360\333\032p<\303w`\007\340\270\003\\\252"
  67      DB1A703C 
ARM GAS  /tmp/ccVWKWym.s 			page 5


  67      C3776007 
  67      E0B8035C 
  67      AA
  68 025b BC925BFC 		.ascii	"\274\222[\374\332%\032\336-\242\247\311\033\315\026"
  68      DA251ADE 
  68      2DA2A7C9 
  68      1BCD16
  69 026a 767440EE 		.ascii	"vt@\356\241*\237\266\360\240\363X\251\036z\306\037\001"
  69      A12A9FB6 
  69      F0A0F358 
  69      A91E7AC6 
  69      1F01
  70 027c 5D09BBF5 		.ascii	"]\011\273\365\320K\243\277\024\276\221\246\231\355\317"
  70      D04BA3BF 
  70      14BE91A6 
  70      99EDCF
  71 028b A54DD99F 		.ascii	"\245M\331\237\272n\246\322\327L\231\265z\255\376\202"
  71      BA6EA6D2 
  71      D74C99B5 
  71      7AADFE82 
  72 029b 59CC0FF4 		.ascii	"Y\314\017\364]2\213\351B\321\314\027\365\230+d\272%"
  72      5D328BE9 
  72      42D1CC17 
  72      F5982B64 
  72      BA25
  73 02ad 88E29593 		.ascii	"\210\342\225\223\333\206\220A\001V\237\274<\220\"\247"
  73      DB869041 
  73      01569FBC 
  73      3C9022A7 
  74 02bd 6C319B4F 		.ascii	"l1\233O'S\205\356,\370\317\234=\007\177\000\345]O\330"
  74      275385EE 
  74      2CF8CF9C 
  74      3D077F00 
  74      E55D4FD8 
  75              		.text
  76              		.section	.gnu.lto_thread.c4da0b4618e9de77,"",%progbits
  77 0000 789C6362 		.ascii	"x\234cb`b@\007\222@\374\012\210\015\201\230\221\231"
  77      60624007 
  77      9240FC0A 
  77      880D8198 
  77      9199
  78 0012 819169C2 		.ascii	"\201\221i\3029\006\206F\016&FF\020\203\201\221\241\236"
  78      39068646 
  78      0E264646 
  78      10838191 
  78      A19E
  79 0024 89B13E92 		.ascii	"\211\261>\222\021\254v=\323\201\007\377\377\257\373"
  79      11AC763D 
  79      D38107FF 
  79      FFAFFB
  80 0033 F6F36127 		.ascii	"\366\363a'\243 \033\023c.X\230\225\241\245\241a\202"
  80      A3201B13 
  80      632E5898 
  80      95A1A5A1 
  80      6182
  81 0045 02034332 		.ascii	"\002\003C2\230\033\002$AZC\031\231@4\363y\206\326\007"
  81      981B0224 
ARM GAS  /tmp/ccVWKWym.s 			page 6


  81      415A4319 
  81      994034F3 
  81      7986D607 
  82 0059 7F2D1219 		.ascii	"\177-\022\031\0272\262\002e\253\031~5t4\010d2\002UC"
  82      1732B202 
  82      65AB197E 
  82      35743408 
  82      64320255 
  83 006e 0C4D6764 		.ascii	"\014Mgd\212`\314ddtd\310\004\352`\000*_PGX\265\023B"
  83      8A60CC64 
  83      647464C8 
  83      04EA6000 
  83      2A5F5047 
  84 0086 753D61D5 		.ascii	"u=a\325\316\020\325\027\031\032\037t$C\224\203\305a"
  84      CE10D517 
  84      191A1F74 
  84      24439483 
  84      C561
  85 0098 81100264 		.ascii	"\201\020\002d\002\335\012\012\035}\375\214\374\334T"
  85      02DD0A0A 
  85      1D7DFD8C 
  85      FCDC54
  86 00a7 FDE4FC94 		.ascii	"\375\344\374\224J\375\224\3242\375\344\214\314\244\314"
  86      4AFD94D4 
  86      32FDE48C 
  86      CCA4CC
  87 00b6 FC62FD92 		.ascii	"\374b\375\222\242\322\274l\375\222\324\342\022\375\242"
  87      A2D2BC6C 
  87      FD92D4E2 
  87      12FDA2
  88 00c5 12309D5B 		.ascii	"\0220\235[\234\256\227\314\000\000\220\276I\217"
  88      9CAE97CC 
  88      000090BE 
  88      498F
  89              		.text
  90              		.section	.gnu.lto_.symbol_nodes.c4da0b4618e9de77,"",%progbits
  91 0000 789C4DCC 		.ascii	"x\234M\314\313\015\3020\020\004\320\031;!\004\350\201"
  91      CB0DC230 
  91      1004D019 
  91      3B2104E8 
  91      81
  92 0011 DAA86423 		.ascii	"\332\250d#Y\"\"\\(\200[n\374\377\015\370N\015\240\\"
  92      5922225C 
  92      28805B6E 
  92      FCFF0DF8 
  92      4E0DA05C 
  93 0025 A901B189 		.ascii	"\251\001\261\211\021\306\227\247\231Y\331\300 #\302"
  93      11C697A7 
  93      9959D9C0 
  93      2023C2
  94 0034 336B0AB1 		.ascii	"3k\012\261\270\003\"\313\331$\335\351 Ho\244bV\024\374"
  94      B80322CB 
  94      D924DDE9 
  94      20486FA4 
  94      625614FC 
  95 0048 8D079A76 		.ascii	"\215\007\232v\334\322\246\312\206\211\302\013\305\204"
  95      DCD2A6CA 
ARM GAS  /tmp/ccVWKWym.s 			page 7


  95      8689C20B 
  95      C584
  96 0056 9BA220CF 		.ascii	"\233\242 \317\024\033\323\211\222\304t\244\2441\355"
  96      141BD389 
  96      92C474A4 
  96      A431ED
  97 0065 29BD98AE 		.ascii	")\275\230\256\224\354\227,\206p\317\267:\200\357\314"
  97      94EC972C 
  97      8670CFB7 
  97      3A80EFCC 
  98 0075 E1A6AFB1 		.ascii	"\341\246\257\261E\037\276s\200\2463G]\206\276)C\357"
  98      451FBE73 
  98      80A63347 
  98      5D86BE29 
  98      43EF
  99 0087 AAD0FB2A 		.ascii	"\252\320\373*\364n\336\232\241n\265#\270\207\376\247"
  99      F46EDE9A 
  99      A16EB523 
  99      B887FEA7 
 100 0097 D65FBD8A 		.ascii	"\326_\275\212\017\360DJV"
 100      0FF0444A 
 100      56
 101              		.text
 102              		.section	.gnu.lto_.refs.c4da0b4618e9de77,"",%progbits
 103 0000 789C25C1 		.ascii	"x\234%\301A\001\0000\010\304\260^\007\030\300\277\327"
 103      41010030 
 103      08C4B05E 
 103      0718C0BF 
 103      D7
 104 0011 3D484496 		.ascii	"=HD\226S\020\364\245\322NF\370\004\007\000@"
 104      5310F4A5 
 104      D24E46F8 
 104      04070040 
 105              		.text
 106              		.section	.gnu.lto_.decls.c4da0b4618e9de77,"",%progbits
 107 0000 789CBD5B 		.ascii	"x\234\275[\177p\024U\236\177\257'\311dH\010\260{\272"
 107      7F701455 
 107      9E7FAF27 
 107      C9644808 
 107      B07BBA
 108 0013 5875A7E3 		.ascii	"Xu\247\343\225\273e\271+\001eW\334\252S\366\270*\335"
 108      95BB65B9 
 108      2B016557 
 108      DCAA53F6 
 108      B82ADD
 109 0026 DAF2CA5A 		.ascii	"\332\362\312Zw\353\374\343\256\306f\322$sff\262=\035"
 109      77EBFCE3 
 109      AEC666D2 
 109      24736666 
 109      B23D1D
 110 0039 08775567 		.ascii	"\010wUg\347\007\210\270+\020<\005$\030\004\177\340j"
 110      E70788B8 
 110      2B103C05 
 110      2418047F 
 110      E06A
 111 004b 1108A0B0 		.ascii	"\021\010\240\260\201\014\010!&G\200,\277\0052\036\002"
 111      810C0821 
ARM GAS  /tmp/ccVWKWym.s 			page 8


 111      2647802C 
 111      BF05321E 
 111      02
 112 005c A228B0AC 		.ascii	"\242(\260\254\"F2\367}\337\327=\323\335\323=\323\235"
 112      224632F7 
 112      7DDFD73D 
 112      D3DDD33D 
 112      D39D
 113 006e 5DAFABDE 		.ascii	"]\257\253\336\2337\257\337\373|\177\276\357\3735#\020"
 113      9B37AFDF 
 113      FB7C7FBE 
 113      EFFB3523 
 113      10
 114 007f 81B45042 		.ascii	"\201\264PB\322\360\\\232F\310O\375\204\370\010!\017"
 114      D2F05C9A 
 114      46C84FFD 
 114      84F80821 
 114      0F
 115 0090 402AD6D2 		.ascii	"@*\326\322jH\257@z\035\322:\302\237RH\233 m\205\264"
 115      6A48AF40 
 115      7A1DD23A 
 115      C29F5248 
 115      9B206D85 
 116 00a5 1D520FA4 		.ascii	"\035R\017\244>H\377\012X!HQ\312\373\312\3609\007\322"
 116      3E48FF0A 
 116      58214851 
 116      CAFBCAF0 
 116      3907D2
 117 00b8 51481F40 		.ascii	"QH\037@\272B\211\351a\375o\207\264\017R\005\244rH\017"
 117      BA4289E9 
 117      61FD6F87 
 117      B40F5205 
 117      A472480F 
 118 00cc 42023648 		.ascii	"B\0026H\011\2445\220\216CR\240_\002\3220\244\"\370\376"
 118      09A43590 
 118      8E4352A0 
 118      5F02D230 
 118      A422F8FE 
 119 00e0 147C3640 		.ascii	"\024|6@\372\006\322\000|\277\241\321c<>\001\345c\220"
 119      FA06D200 
 119      7CBFA1D1 
 119      633C3E01 
 119      E56390
 120 00f3 46985C90 		.ascii	"F\230\\\220\376\215j|\013\204\364\303\007\205\317\275"
 120      FE8D6A7C 
 120      0B84F4C3 
 120      0785CFBD 
 121 0103 ECAB9095 		.ascii	"\354\253\220\225m\007\341r\377\027\264]\304\372C9\240"
 121      6D07E172 
 121      FF17B45D 
 121      C4FA4339 
 121      A0
 122 0114 F1E78376 		.ascii	"\361\347\203v~\201\313\265I\223\261O\223y\273\326\317"
 122      7E81CBB5 
 122      4993B14F 
 122      9379BBD6 
 122      CF
ARM GAS  /tmp/ccVWKWym.s 			page 9


 123 0125 28A7F1D9 		.ascii	"(\247\361\331\244\275\037#p\036b\332{A{\307\364\304"
 123      A4BD1F23 
 123      701E62DA 
 123      7B417BC7 
 123      F4C4
 124 0137 AAB698BB 		.ascii	"\252\266\230\273\2212\262PU\233\324\366\371\352\303"
 124      9132B250 
 124      559BD4F6 
 124      F9EAC3
 125 0146 BD1513C8 		.ascii	"\275\025\023\310b\025\236\366\351\313*\002d\001\253"
 125      62159EF6 
 125      E9CB2A02 
 125      6401AB
 126 0155 4FBDAA4E 		.ascii	"O\275\252N\234H\310\343T\244PU\212\205\362\000\"}\237"
 126      9C48C8E3 
 126      54A45055 
 126      8A85F200 
 126      227D9F
 127 0168 AC85B6D0 		.ascii	"\254\205\266\320A\020\351\032\032\000J\202\205'\375"
 127      4110E91A 
 127      1A004A82 
 127      8527FD
 128 0177 E1EFD9C3 		.ascii	"\341\357\331\303\272\363\262^bz\323\320\203:z\221\326"
 128      BAF3B25E 
 128      627AD3D0 
 128      833A7A91 
 128      D6
 129 0188 EB153A01 		.ascii	"\353\025:\001K\310\213\252\361\210-\234z\274f\240S\036"
 129      4BC88BAA 
 129      F1882D9C 
 129      7ABC66A0 
 129      531E
 130 019a C8167C1A 		.ascii	"\310\026|\032'N\375V\3232[\205\334L\376[\243\254R\305"
 130      274EFD56 
 130      D3325B85 
 130      DC4CFE5B 
 130      A3AC52C5 
 131 01ae C4863D16 		.ascii	"\304\206=\026\352dqj\377\371\217}\252Z*\322u\250\227"
 131      EA64716A 
 131      FFF98F7D 
 131      AA5A2AD2 
 131      75A897
 132 01c1 4729B98B 		.ascii	"G)\271\213\254\343\312\332\365C;%\271\207\036\356\331"
 132      ACE3CADA 
 132      F5433B25 
 132      B9871EEE 
 132      D9
 133 01d2 BD813601 		.ascii	"\275\2016\001;\"}\033\301\233(\005\001\336\242wy\206"
 133      3B227D1B 
 133      C19B2805 
 133      01DEA277 
 133      7986
 134 01e4 DADCF7CE 		.ascii	"\332\334\367\3164\344\262\003\201\272-@\"-\011\230\255"
 134      34E4B203 
 134      81BA2D40 
 134      222D0998 
 134      AD
ARM GAS  /tmp/ccVWKWym.s 			page 10


 135 01f5 08DFF506 		.ascii	"\010\337\365\006\014\015\2762J_\261!M\237\322j\330\027"
 135      0C0DBE32 
 135      4A5FB121 
 135      4D9FD26A 
 135      D817
 136 0207 3FF97FEF 		.ascii	"?\371\177\357\347d\3307\350\315X\362\341@\200\212\007"
 136      E764D837 
 136      E8CD58F2 
 136      E140808A 
 136      07
 137 0218 CB20FBB5 		.ascii	"\313 \373\265/C\305\251\343\353\264\314\250\215\333"
 137      2F43C5A9 
 137      E3EBB4CC 
 137      A88DDB
 138 0227 C82A3579 		.ascii	"\310*5y9\3259\260\375\326\345j\262EM\247\237\322\320"
 138      39D539B0 
 138      FDD6E56A 
 138      B2454DA7 
 138      9FD2D0
 139 023a 0572DDA2 		.ascii	"\005r\335\242\270;\310\032UmU\257U=\214\344\004\242"
 139      B83BC81A 
 139      556D55AF 
 139      553D8CE4 
 139      04A2
 140 024c 0AACC126 		.ascii	"\012\254\301&z\233-5l\004\317\017\310\253L\274\355\037"
 140      7A9B2D35 
 140      6C04CF0F 
 140      C8AB4CBC 
 140      ED1F
 141 025e 3DFA3077 		.ascii	"=\3720w\034\222\247\223\306\345f*\030U\306\271L\276"
 141      1C92A793 
 141      C6E5662A 
 141      1855C6B9 
 141      4CBE
 142 0270 D8F3DC2D 		.ascii	"\330\363\334-j{S2\235~\220\230<X\244\017\334\344(\361"
 142      6A7B5332 
 142      9D7E9098 
 142      3C58A40F 
 142      DCE428F1 
 143 0284 364D5559 		.ascii	"6MUY\365\200s\011f\3212\\\252o\250>Dc\355\267\002\223"
 143      F5807309 
 143      66D1325C 
 143      AA6FA83E 
 143      4463EDB7 
 144 029a 26C3FD21 		.ascii	"&\303\375!\227\255\324\342T\367\340\311F\272\244\271"
 144      97ADD4E2 
 144      54F7E0C9 
 144      46BAA4B9 
 145 02aa BD57BD9C 		.ascii	"\275W\275\234N\2173sVJ\236\306p3Om\244\277)\034o\272"
 145      4E8F3373 
 145      564A9EC6 
 145      70334F6D 
 145      A4BF291C 
 146 02c0 692970D7 		.ascii	"i)p\327\345\034pX\003\335\274\274\254\227\362\304\233"
 146      E51C7058 
 146      03DDBCBC 
 146      AC97F2C4 
ARM GAS  /tmp/ccVWKWym.s 			page 11


 146      9B
 147 02d1 1D566729 		.ascii	"\035Vg)\016\350eST\340\221\313\011ew6\226\230\264\211"
 147      0EE86553 
 147      54E091CB 
 147      09657736 
 147      9698B489 
 148 02e5 0ADD95A3 		.ascii	"\012\335\225\243P\336h\217\235\306\222'{~\253\322\305"
 148      50DE688F 
 148      9DC69227 
 148      7B7EABD2 
 148      C5
 149 02f6 8DA974FA 		.ascii	"\215\251t\3726\367v\334k\225\2021ka\343\230\003\033"
 149      36F776DC 
 149      6B958231 
 149      6B61E398 
 149      031B
 150 0308 EFDB1AAE 		.ascii	"\357\333\032\256\343h\367-\352j\257\376\324o\346\303"
 150      E368F72D 
 150      EA6AAFFE 
 150      D46FE6C3 
 151 0318 A4C1EF90 		.ascii	"\244\301\357\220%\014%h\210P\355E:\300?\221L\210\272"
 151      250C2568 
 151      8850ED45 
 151      3AC03F91 
 151      4C88BA
 152 032b BE62F76A 		.ascii	"\276b\367j\332\214\321n\200~\007\200\016\373\314\214"
 152      DA8CD16E 
 152      807E0780 
 152      0EFBCC8C 
 153 033b 170412C8 		.ascii	"\027\004\022\310i\354r\020\272\363\216\334\217R\033"
 153      69EC7210 
 153      BAF38EDC 
 153      8F521B
 154 034a 5E3EDD48 		.ascii	"^>\335H\033\021\232\275#6\372\320\236\333I;p\236\034"
 154      1B119ABD 
 154      2336FAD0 
 154      9EDB493B 
 154      709E1C
 155 035d 9EDF06A3 		.ascii	"\236\337\006\243j\027\264\337G\331\250n+\322q\3554\220"
 155      6A17B4DF 
 155      47D9A86E 
 155      2BD271ED 
 155      3490
 156 036f 9981742F 		.ascii	"\231\201t/\254\010X\360Fz\312\027\213:\330Z\317`A\023"
 156      AC0858F0 
 156      467ACA17 
 156      8B3AD85A 
 156      CF604113 
 157 0383 D8D2BD2B 		.ascii	"\330\322\275+\2219m\332v\021\375\327\353s\324q\214\376"
 157      91396DDA 
 157      7611FDD7 
 157      EB73D471 
 157      8CFE
 158 0395 BF2FB299 		.ascii	"\277/\262\231F\\\001\015\317\337\263S\233\221N\"T\347"
 158      465C010D 
 158      CFDFB353 
 158      9B914E22 
ARM GAS  /tmp/ccVWKWym.s 			page 12


 158      54E7
 159 03a7 A8A1362F 		.ascii	"\250\2416/\354\272\037y\032B\240\256\"\353\214\344\267"
 159      ECBA1F79 
 159      1A42A0AE 
 159      22EB8CE4 
 159      B7
 160 03b8 CC487EF3 		.ascii	"\314H~\363\014\341\017d\013lb\030G\276\345\346\002\331"
 160      0CE10F64 
 160      0B6C6218 
 160      47BEE5E6 
 160      02D9
 161 03ca EBC670D9 		.ascii	"\353\306p\331Xd\361\0025\325\361\362Y\312f\024\237\346"
 161      5864F102 
 161      35D5F1F2 
 161      59CA6614 
 161      9FE6
 162 03dc C9ED254E 		.ascii	"\311\355%N:\022\310\000\322\372\310\352\311\247\316"
 162      3A12C800 
 162      D2FAC8EA 
 162      C9A7CE
 163 03eb 1DB87B99 		.ascii	"\035\270{\231\252\216\347\257\012;\362;\375/\242\257"
 163      AA8EE7AF 
 163      0A3BF23B 
 163      FD2FA2AF 
 164 03fb 141C9182 		.ascii	"\024\034\221\202N\376\016$\277\270\230\221\277`%\177"
 164      4EFE0E24 
 164      BFB89891 
 164      BF60257F 
 165 040b FD938F1F 		.ascii	"\375\223\217\037\340\344/\270\"\277a\360\371\\\362\216"
 165      E0E42FB8 
 165      22BF61F0 
 165      F95CF28E 
 166 041b 9144F38C 		.ascii	"\221D\363\214S\347.\337\3712\022\371\014\307\313\211"
 166      53E72EDF 
 166      F93212F9 
 166      0CC7CB89 
 167 042b 62AB6B3C 		.ascii	"b\253k<h\214\272\372D\237i \2203\031\356G5\\A\314\336"
 167      688CBAFA 
 167      449F6920 
 167      903319EE 
 167      47355C41 
 168 0441 9FAFDBA8 		.ascii	"\237\257\333\250\252\317\224\350<\234\363\214\0304)"
 168      AACF94E8 
 168      3C9CF38C 
 168      183429
 169 0450 62D32006 		.ascii	"b\323 \006\000\016v\301\015\230\243\0375%\267\030\301"
 169      000E76C1 
 169      0D98A31F 
 169      3525B718 
 169      C1
 170 0461 2E7A0633 		.ascii	".z\0063s\366\256\021\354\222\033\260\361\316\234m3\202"
 170      73F6AE11 
 170      EC921BB0 
 170      F1CE9C6D 
 170      3382
 171 0473 FDC93398 		.ascii	"\375\3113\230\231\263.#\330\027n\300&:s\266\303\010"
 171      99B32E23 
ARM GAS  /tmp/ccVWKWym.s 			page 13


 171      D8176EC0 
 171      263A73B6 
 171      C308
 172 0485 76DD3398 		.ascii	"v\3353\230\231\263\003F\260\033n\300\2026\234e\036\247"
 172      99B30346 
 172      B01B6EC0 
 172      82369C65 
 172      1EA7
 173 0497 59F5E3EC 		.ascii	"Y\365\343\354\352\002\026\226%z@\360\350\323$\213\321"
 173      EA021696 
 173      257A40F0 
 173      E8D3248B 
 173      D1
 174 04a8 52E23580 		.ascii	"R\3425\200\231\344\206y\364\334j\272\264Y\355\235\254"
 174      99E48679 
 174      F4DC6ABA 
 174      B459ED9D 
 174      AC
 175 04b9 CF650BDD 		.ascii	"\317e\013\335 \346q\230\025{\015\023c\253g0\213+30S"
 175      20E67198 
 175      157B0D13 
 175      63AB6730 
 175      8B2B3330 
 176 04ce A8C9EC6C 		.ascii	"\250\311\354l\223\023\227e\203\235i\251)\322\265\364"
 176      93139765 
 176      839D69A9 
 176      29D2B5F4 
 177 04de FBA3DEB6 		.ascii	"\373\243\336\266.\020\014&Z\341\206\377<>:\264w\345"
 177      2E100C26 
 177      5AE186FF 
 177      3C3E3AB4 
 177      77E5
 178 04f0 F7D45492 		.ascii	"\367\324T\222\032\366\343N\\\353\233\317s\332\304\376"
 178      1AF6E34E 
 178      5CEB9BCF 
 178      73DAC4FE 
 179 0500 5B814DA2 		.ascii	"[\201M\242\253Klgc\027@\303\363\337\376!\002-B\2407"
 179      AB4B6C67 
 179      631740C3 
 179      F3DFFE21 
 179      022D42A0 
 180 0515 470DB479 		.ascii	"G\015\264y\341*\276\321lE\240\215%\326\330M-\323:5O"
 180      E12ABED1 
 180      6C45A08D 
 180      25D6D84D 
 180      2DD33A35 
 181 052a BC19CD6B 		.ascii	"\274\031\315k\212\377\266\332\302\212\303j-\2238\005"
 181      8AFFB6DA 
 181      C28AC36A 
 181      2D933805 
 182 053a 83406AC3 		.ascii	"\203@j\303\320\215%\364j\223\272l\262{\355\254\327\355"
 182      D08D25F4 
 182      6A93BA6C 
 182      B27BEDAC 
 182      D7ED
 183 054c F5226A67 		.ascii	"\365\"jgw\216v\230\372\275\211\361?\236\305\270\323"
 183      778E7698 
ARM GAS  /tmp/ccVWKWym.s 			page 14


 183      FABD89F1 
 183      3F9EC5B8 
 183      D3
 184 055d 2CC6CBBB 		.ascii	",\306\313\273[\275\212qI\027c%\212q\350\257 \306I\317"
 184      5BBD8A71 
 184      49176325 
 184      8A71E8AF 
 184      20C649CF 
 185 0571 624C3688 		.ascii	"bL6\210\301\226\370_\264\362\320\364]\322\232\177q\205"
 185      C196F85F 
 185      B4F2D0F4 
 185      5DD29A7F 
 185      7185
 186 0583 8740C277 		.ascii	"\207@\302wM+\233\344\361>\032\344\325\205V5j\362Z\337"
 186      4D2B9BE4 
 186      F13E1AE4 
 186      D5855635 
 186      6AF25ADF 
 187 0597 4A6D77C0 		.ascii	"Jmw\300\317|\316 \357\254\357h\226\033j\362\371~\014"
 187      CF7CCE20 
 187      EFACEF68 
 187      961B6AF2 
 187      F97E0C
 188 05aa 821CEC93 		.ascii	"\202\034\354\223\277\010\254)\331\371\254\276u\301\363"
 188      BF08AC29 
 188      D9F9ACBE 
 188      75C1F3
 189 05b9 88AB7F21 		.ascii	"\210\253\177!\334\301~\257\233\215E\237h\316\361&:\307"
 189      DCC17EAF 
 189      9B8D459F 
 189      68CEF126 
 189      3AC7
 190 05cb D739CE71 		.ascii	"\3279\316q\322\032\002\334\254\275\347\373G)G\346\021"
 190      D21A02DC 
 190      ACBDE7FB 
 190      472947E6 
 190      11
 191 05dc C8EFFC2E 		.ascii	"\310\357\374.\342s\320\321N0\342\257i>Vp\001\257\357"
 191      E273D0D1 
 191      4E30E2AF 
 191      693E5670 
 191      01AFEF
 192 05ef 694FF434 		.ascii	"iO\3644\322\026\334/u\010lO\273\304o\273\247\315\267"
 192      D216DC2F 
 192      75086C4F 
 192      BBC46FBB 
 192      A7CDB7
 193 0602 1368C72E 		.ascii	"\023h\307.\235B\316\236v\237\276\247e\357\\l\005L{Z"
 193      9D42CE9E 
 193      769FBEA7 
 193      65EF5C6C 
 193      054C7B5A 
 194 0616 911E86FD 		.ascii	"\221\036\206\375?\357;Z\215\232\214\230eP\244\233\005"
 194      3FEF3B5A 
 194      8D9A8C98 
 194      6550A49B 
 194      05
ARM GAS  /tmp/ccVWKWym.s 			page 15


 195 0627 36A36E11 		.ascii	"6\243n\021n7j\277\303\263\366\203F\355'\207\373WR\306"
 195      6E376ABF 
 195      C3B3F683 
 195      46ED2787 
 195      FB5752C6 
 196 063b BFCDEE65 		.ascii	"\277\315\356e\272q\355\2229N\030X\242\251~+\252~\233"
 196      BA71ED92 
 196      394E1858 
 196      A2A97E2B 
 196      AA7E9B
 197 064e 83EAA73B 		.ascii	"\203\352\247;\001\011\244\017\273t\345\250~\350\220"
 197      0109A40F 
 197      BB74E5A8 
 197      7EE890
 198 065d AEFA2E57 		.ascii	"\256\372.W\252?l\253\372.\357\252\327\360\216d\217\023"
 198      AA3F6CAB 
 198      FA2EEFAA 
 198      D7F08E64 
 198      8F13
 199 066f 447AD433 		.ascii	"Dz\3243X0\237\035\273\014v\334\201v\354\006;\2124i\266"
 199      58309F1D 
 199      BB0C76DC 
 199      8176EC06 
 199      3B8A3469 
 200 0684 E607566B 		.ascii	"\346\007Vk\232T\247\025\357t\022AM.\0350\307\320sn\274"
 200      9A54A715 
 200      EF741241 
 200      4D2E1D30 
 200      C7D0736E 
 201 0699 63B2B34A 		.ascii	"c\262\263JV\015\240Jx\314\271\350\031,h\002\333\376"
 201      560DA04A 
 201      78CCB9E8 
 201      192C6802 
 201      DBFE
 202 06ab 5C9BAB5D 		.ascii	"\\\233\253]\263J\215\253R\201\\C\272\275V\177\031N\037"
 202      B34A8DAB 
 202      52815C43 
 202      BABD567F 
 202      194E1F
 203 06be 785AF397 		.ascii	"xZ\363\227^\027\376\002\023\314\331\200\332Z\256;\356"
 203      5E17FE02 
 203      13CCD980 
 203      DA5AAE3B 
 203      EE
 204 06cf 86521D35 		.ascii	"\206R\0355\217\252\363x\313\360\205\367)\302\361U\366"
 204      8FAAF378 
 204      CBF085F7 
 204      29C2F155 
 204      F6
 205 06e0 562B9CC7 		.ascii	"V+\234\307\335\347\210\324;\331\233b\370\210L~\260\225"
 205      DDE788D4 
 205      3BD99B62 
 205      F8884C7E 
 205      B095
 206 06f2 4DB10751 		.ascii	"M\261\007Q\246\235\245\326Y\201k\306\340\210\275\006"
 206      A69DA5D6 
 206      59816BC6 
ARM GAS  /tmp/ccVWKWym.s 			page 16


 206      E088BD06 
 207 0702 47EC4347 		.ascii	"G\354CG\354GG\334\207\371~\243;:\315\362\007\214\253"
 207      EC4747DC 
 207      87F97EA3 
 207      3B3ACDF2 
 207      078CAB
 208 0715 F3F73DCB 		.ascii	"\363\367=\313\035\264X\307\211\314^#\231\003\245.|o"
 208      1DB458C7 
 208      89CC5E23 
 208      9903A52E 
 208      7C6F
 209 0727 9AA37A21 		.ascii	"\232\243z!\256\037^\252\357\261\370q\335\011\317\210"
 209      AE1F5EAA 
 209      EFB1F871 
 209      DD09CF88 
 210 0737 666FBEF2 		.ascii	"fo\276\362\234iEp\326\015\334t\033\006\355\036\343a"
 210      9C694570 
 210      D60DDC74 
 210      1B06ED1E 
 210      E361
 211 0749 AB48FF88 		.ascii	"\253H\377\210;\251C\224\031\350\010\346\3070?\203y3"
 211      3BA94394 
 211      19E808E6 
 211      C7303F83 
 211      7933
 212 075b 1A6E1EE6 		.ascii	"\032n\036\346Oc\376,\346/`\376\022\346\355\230\257\307"
 212      4F63FE2C 
 212      E62F60FE 
 212      12E6ED98 
 212      AFC7
 213 076d FC5DCC77 		.ascii	"\374]\314wa\276\033\363\036\314\217`~\314\215\003\354"
 213      61BE1BF3 
 213      1ECC8F60 
 213      7ECC8D03 
 213      EC
 214 077e 33DFEC64 		.ascii	"3\337\354d\216\311\371\225\013\261\234\224\177fqJ]\304"
 214      8EC9F995 
 214      0BB19C94 
 214      7F66714A 
 214      5DC4
 215 0790 0F04BB93 		.ascii	"\017\004\273\223\362\015/v\337\272\\\335\305\357\207"
 215      F20D2F76 
 215      DFBA5CDD 
 215      C5EF87
 216 079f 2C47E58C 		.ascii	",G\345\214\256\023O\247\204\334\273\227\257\035(\237"
 216      AE134FA7 
 216      84DCBB97 
 216      AF1D289F 
 217 07af B6A5BCFC 		.ascii	"\266\245\274\374\315\235\017\264mT[\236QG\322OQ\017"
 217      CD9D0FB4 
 217      6D545B9E 
 217      5147D24F 
 217      510F
 218 07c1 A45342EE 		.ascii	"\244SB\356\015\231Vv\277\276\273\376\373\017\177"
 218      0D995676 
 218      BFBEBBFE 
 218      FB0F7F
ARM GAS  /tmp/ccVWKWym.s 			page 17


 219 07d0 BA1E8FE7 		.ascii	"\272\036\217\347\316`\260\275\024\260\016\345b\313\372"
 219      CE60B0BD 
 219      14B00EE5 
 219      62CBFA
 220 07df AED8BCBE 		.ascii	"\256\330\274\276+\016d\013\331\243\330\014O\307\271"
 220      2B0E640B 
 220      D9A3D80C 
 220      4FC7B9
 221 07ee 6DEC2F63 		.ascii	"m\354/c\330-\\\036\336@3\177\267\016y\373X`\276\376"
 221      D82D5C1E 
 221      DE40337F 
 221      B70E79FB 
 221      5860BEFE 
 222 0802 650E6FAF 		.ascii	"e\016o\257S\313\331\241\345\362\317\242\235\\'\031\011"
 222      53CBD9A1 
 222      E5F2CFA2 
 222      9D5C2719 
 222      09
 223 0813 D89BEAA2 		.ascii	"\330\233\352\242\275\223\034\335q\213\223\223\254\313"
 223      BD931CDD 
 223      718B9393 
 223      ACCB
 224 0821 73B1F4B9 		.ascii	"s\261\364\271\325R\314\254\005\334w\361\030{\316\256"
 224      D552CCAC 
 224      05DC77F1 
 224      187BCEAE 
 225 0831 9839FB7B 		.ascii	"\2309\373{\262Z\355`7t\347\233\350R\265\275\027\346"
 225      B25AED60 
 225      3774E79B 
 225      E852B5BD 
 225      17E6
 226 0843 9B749ADE 		.ascii	"\233t\232\336\246\375\036\000\242xF\345\311|\207\265"
 226      A6FD1E00 
 226      A27846E5 
 226      C97C87B5 
 227 0853 B9E7AEFA 		.ascii	"\271\347\256\372\223E2\235\324\212\364\013a\002\261"
 227      9345329D 
 227      D48AF40B 
 227      6102B1
 228 0862 7F04B222 		.ascii	"\177\004\262\"\207y\221~\231e\2341\315\3249\224\336"
 228      8779917E 
 228      99659C31 
 228      CDD43994 
 228      DE
 229 0873 435BB34C 		.ascii	"C[\263L\333M=>\343\004\237Y\014~\256\337-}\205\363O"
 229      DB4D3D3E 
 229      E3049F59 
 229      0C7EAEDF 
 229      2D7D85F3 
 230 0888 9B855C41 		.ascii	"\233\205\\A \201\254\303.\303\271\353\360=\363\264\311"
 230      2081ACC3 
 230      2EC3B9EB 
 230      F03DF3B4 
 230      C9
 231 0899 7DD8D5E4 		.ascii	"}\330\325\344\336v\304q\035\233\312L\233\177k\340\375"
 231      DE76C471 
 231      1D9BCA4C 
ARM GAS  /tmp/ccVWKWym.s 			page 18


 231      9B7F6BE0 
 231      FD
 232 08aa C4E10F35 		.ascii	"\304\341\0175\336\323\310{ga\336\315@\002Ib\227&_\016"
 232      DED3C87B 
 232      6761DECD 
 232      40024962 
 232      97265F0E 
 233 08be EF875A34 		.ascii	"\357\207Z4\336\331\273\302\274\377q\220\363\256/M\006"
 233      DED9BBC2 
 233      BCFF7190 
 233      F3AE2F4D 
 233      06
 234 08cf 32B8A35B 		.ascii	"2\270\243[\232\034\342\007\251|\236;b\005\363\2640Q"
 234      9A1CE207 
 234      A97C9E3B 
 234      6205F3B4 
 234      3051
 235 08e1 93C738D8 		.ascii	"\223\3078\330Gxyx\3123X\320\304\331P\253\371\006\360"
 235      47787978 
 235      CA3358D0 
 235      C4D950AB 
 235      F906F0
 236 08f4 8C1BBC3C 		.ascii	"\214\033\274<\007\235\227\007\015\007\235\237z\0063"
 236      079D9707 
 236      0D079D9F 
 236      7A0633
 237 0903 33F7A511 		.ascii	"3\367\245\021\354\252\0330\273SG\273\307\350$\"m\361"
 237      ECAA1B30 
 237      BB5347BB 
 237      C7E82422 
 237      6DF1
 238 0915 B1F97C9E 		.ascii	"\261\371|\236\017gl\314\237\301\374Y\314\177\207\371"
 238      0F676CCC 
 238      9FC1FC59 
 238      CC7F87F9 
 239 0925 229F695F 		.ascii	"\"\237i_p#3Jl]\261\220K\250\311\315\316\303\343\011"
 239      7023334A 
 239      6C5DB190 
 239      4BA8C9CD 
 239      CEC3E309 
 240 0939 BD7BB961 		.ascii	"\275{\271at\2548\333H\347\241\013/\3651\3037\227\025"
 240      74AC38DB 
 240      48E7A10B 
 240      2FF531C3 
 240      379715
 241 094c 1C1D261C 		.ascii	"\034\035&\034\201,\307\036/\344\014\216\241\033\315"
 241      812CC71E 
 241      2FE40C8E 
 241      A11BCD
 242 095b DAE078C1 		.ascii	"\332\340x\301\305\340hJ^_\344n\327\320\236\321\310\337"
 242      C5E0684A 
 242      5E5FE46E 
 242      D7D09ED1 
 242      C8DF
 243 096d 18E43871 		.ascii	"\030\3448qZ\337\256\276\204rt\024\226\303\014\004\243"
 243      5ADFAEBE 
 243      84727414 
ARM GAS  /tmp/ccVWKWym.s 			page 19


 243      96C30C04 
 243      A3
 244 097e 1CBBACCA 		.ascii	"\034\273\254\312\025\3443]\220U\256\004\331\272H\367"
 244      15E4335D 
 244      9055AE04 
 244      D9BA48F7 
 245 098e FD153EE6 		.ascii	"\375\025>\346a\0073\270\243\333\256n\333\217\356\312"
 245      610733B8 
 245      A3DBAE6E 
 245      DB8FEECA 
 246 099e C18E7B06 		.ascii	"\301\216{\0063\373\376\366\375+'\252\355;\365\003)u"
 246      33FBFEF6 
 246      FD2B27AA 
 246      ED3BF503 
 246      2975
 247 09b0 BE7AE71B 		.ascii	"\276z\347\033Y\225\214\327\021\004\243\213\274s\027"
 247      59958CD7 
 247      1104A38B 
 247      BC7317
 248 09bf 1E48BDE6 		.ascii	"\036H\275\346c\365\037Z\024\353\032\250}x\376\315j\021"
 248      63F51F5A 
 248      14EB1AA8 
 248      7D78FECD 
 248      6A11
 249 09d1 CCBE08F3 		.ascii	"\314\276\010\363\351haR\233\027\276\316o\276\337B\240"
 249      E9686152 
 249      9B17BECE 
 249      6FBEDF42 
 249      A0
 250 09e2 3F9759D7 		.ascii	"?\227Y\327(>\313\372\311g^?\371\002\331B:\355#\337b"
 250      283ECBFA 
 250      C9675E3F 
 250      F902D942 
 250      3AED23DF 
 251 09f7 6381A4AD 		.ascii	"c\201\244\255\3462ITp\267\230\352\030\272\344\303;o"
 251      E6324954 
 251      70B798EA 
 251      18BAE4C3 
 251      3B6F
 252 0a09 E7DFDAE5 		.ascii	"\347\337\332\345]bl\364\215\342G]\031\303\237l\324~"
 252      5D626CF4 
 252      8DE2475D 
 252      19C39F6C 
 252      D47E
 253 0a1b ADB0017D 		.ascii	"\255\260\001}oA\271Y\325\226\305%\243\345\304\307\026"
 253      6F41B959 
 253      D596C525 
 253      A3E5C4C7 
 253      16
 254 0a2c 9FED5AC7 		.ascii	"\237\355Z\307\356\235@\226\224\273\360\361|\367lC\177"
 254      EE9D4096 
 254      94BBF0F1 
 254      7CF76C43 
 254      7F
 255 0a3d 5EA3EF01 		.ascii	"^\243\357\001q\317\266\334\015\240\335\354c\367\030"
 255      71CFB6DC 
 255      0DA0DDEC 
ARM GAS  /tmp/ccVWKWym.s 			page 20


 255      63F718
 256 0a4c 4304ECB8 		.ascii	"C\004\354\2700\306\257\306X\276\006\363W1\357\300\374"
 256      30C6AFC6 
 256      58BE06F3 
 256      5731EFC0 
 256      FC
 257 0a5d 5D9F8B5D 		.ascii	"]\237\213]\026\033\330\031\354W|\202\026MG\027,\276"
 257      161BD819 
 257      EC577C82 
 257      164D4717 
 257      2CBE
 258 0a6f C9060B91 		.ascii	"\311\006\013\221\256\365\014fRdr\311 \017\026|\354\303"
 258      AEF50C66 
 258      526472C9 
 258      200F167C 
 258      ECC3
 259 0a81 C6D28AE7 		.ascii	"\306\322\212\347\315\233\223\035\255\345\007\236\320"
 259      CD9B931D 
 259      ADE5079E 
 259      D0
 260 0a8e 03497B39 		.ascii	"\003I{9\365\0106>\237Q^0\030e\031\032e9\232`\033\346"
 260      F508363E 
 260      9F515E30 
 260      1865191A 
 260      65399A60 
 261 0aa4 7FC0BCCB 		.ascii	"\177\300\274\313<\331\276Un\231lM3\233\335\324oT\217"
 261      3CD9BE55 
 261      6E996C4D 
 261      339BDDD4 
 261      6F548F
 262 0ab7 9AEC3A02 		.ascii	"\232\354:\002\272v\177\226}^?\313N\342\014\325Yn;C\345"
 262      BA767F96 
 262      7D5E3FCB 
 262      4EE20CD5 
 262      596E3B43 
 263 0acc 3BCBDE85 		.ascii	";\313\336\205]\336\313]\207\236\325\327\241\357\025"
 263      5DDECB5D 
 263      879ED5D7 
 263      A1EF15
 264 0adb 9EA15A9A 		.ascii	"\236\241Z\232\223\233\227\276\226\235j\2333\003\370"
 264      939B97BE 
 264      969D6A9B 
 264      3303F8
 265 0aea 19C17947 		.ascii	"\031\301yGe\272\251\035\314\360\341\321I\355M\367\236"
 265      65BAA91D 
 265      CCF0E1D1 
 265      49ED4DF7 
 265      9E
 266 0afb C1747BD0 		.ascii	"\301t{\320t=fC\235\264\032\312\216^\236\323\322\243"
 266      743D6643 
 266      9DB41ACA 
 266      8E5E9ED3 
 266      D2A3
 267 0b0d 47F869A9 		.ascii	"G\370i\251[[-9\177\345>\234b\372\321RK\307z\264\024"
 267      5B5B2D39 
 267      7FE53E9C 
 267      62FAD152 
ARM GAS  /tmp/ccVWKWym.s 			page 21


 267      4BC77AB4 
 268 0b22 136AC062 		.ascii	"\023j\300b\245\344U)\310k]\374~\356,\0369\272?T\330"
 268      A5E45529 
 268      C86B5DFC 
 268      7EEE2C1E 
 268      39BA3F54 
 269 0b37 7F46BB34 		.ascii	"\177F\2734:\210Ck\355X\353\2348\252K\243\267\020f\340"
 269      3A88436B 
 269      ED58EB9C 
 269      38AA4BA3 
 269      B71066E0 
 270 0b4b AF65E601 		.ascii	"\257e\346\001\203\231\367\243\231\017\230\315\3349\326"
 270      8399F7A3 
 270      990F98CD 
 270      DC39D6
 271 0b5a AB9983F9 		.ascii	"\253\231\203\371\350\015\033N@o\340\011\350\010\036"
 271      E80D1B4E 
 271      406FE009 
 271      E8081E
 272 0b69 7DB5622C 		.ascii	"}\265b,\350\306\274\317\314\301\226\214\3424\002\346"
 272      E8C6BCCF 
 272      CCC1968C 
 272      E23402E6 
 273 0b79 5D2C433D 		.ascii	"],C=\3423\355\252\333\331Q\300\271W\214\273j\343\006"
 273      E233EDAA 
 273      DBD951C0 
 273      B9578CBB 
 273      6AE306
 274 0b8c DE709C64 		.ascii	"\336p\234d^n2\250c>\257?\332?\356\263\377\321~QF\202"
 274      5E6E32A8 
 274      633EAF3F 
 274      DA3FEEB3 
 274      FFD17E51 
 275 0ba2 AD560972 		.ascii	"\255V\011r\311\2360K\320\221Lu\016\234?H\237WU\213\004"
 275      C99E304B 
 275      D0914C75 
 275      0E9C3F48 
 275      9F57558B 
 276 0bb7 EC6EC774 		.ascii	"\354n\307t\232\241;>\204\232<\307\370;\201\205\202\207"
 276      9AA13B3E 
 276      849A3CC7 
 276      F83B8185 
 276      8287
 277 0bc9 DA221DC2 		.ascii	"\332\"\035\302\311$e\015f\335\203\333'\242+\247\334"
 277      C924650D 
 277      66DD83DB 
 277      27A22BA7 
 277      DC
 278 0bda ED1A6EF4 		.ascii	"\355\032n\364\362\323\371\005xb\325\207\342\247F=}\016"
 278      F2D3F905 
 278      7862D587 
 278      E2A7463D 
 278      7D0E
 279 0bec 5F4038CB 		.ascii	"_@8\313\312f\233\303\261\031c\357\254\317\020\030\367"
 279      CA669BC3 
 279      B11963EF 
 279      ACCF1018 
ARM GAS  /tmp/ccVWKWym.s 			page 22


 279      F7
 280 0bfd 7B261F34 		.ascii	"{&\0374\221\377Fbk\226\263\270\332:\354\006\253\300"
 280      91FF4662 
 280      6B96B3B8 
 280      DA3AEC06 
 280      ABC0
 281 0c0f 45838E75 		.ascii	"E\203\216u\3323V0g8q;\210\364\177q\340|\204\371y\314"
 281      DA335630 
 281      6738713B 
 281      88F47F71 
 281      E07C84F9 
 282 0c25 2F145EE5 		.ascii	"/\024^\345X\024z\332\201\023\206\377\251\257\314B[k"
 282      58147ADA 
 282      811386FF 
 282      A9AFCC42 
 282      5B6B
 283 0c37 39DDCCA8 		.ascii	"9\335\314\250\301Iy'\373f\"\275\350y\230}\3460\314\214"
 283      C1497927 
 283      FB6622BD 
 283      E879987D 
 283      E630CC8C 
 284 0c4b 3F92C9B6 		.ascii	"?\222\311\266b\327o\326Q\227\303\304\347\332\240\233"
 284      62D76FD6 
 284      5197C3C4 
 284      E7DAA09B 
 285 0c5b 4A3AD505 		.ascii	"J:\325\005I\230\011N\002W\031\273\375'\371Z]\246\302"
 285      4998094E 
 285      025719BB 
 285      FD27F95A 
 285      5DA6C2
 286 0c6e 38BC3885 		.ascii	"8\2748\205\313\302\006\346\345\003\311k\363\333`7\017"
 286      CBC206E6 
 286      E503C96B 
 286      F3DB6037 
 286      0F
 287 0c7f 6BF01118 		.ascii	"k\360\021\030\226\\m\002\271\222\023\244L#\213Q\373"
 287      965C6D02 
 287      B99213A4 
 287      4C238B51 
 287      FB
 288 0c90 1350BB95 		.ascii	"\023P\273\225|=\266M-5P\235\316\021\270\0119\311\344"
 288      7C3DB64D 
 288      2D35509D 
 288      CE11B809 
 288      39C9E4
 289 0ca3 F51E6AF7 		.ascii	"\365\036j\367\277\246\3402\363O\367\033t\012\3434\012"
 289      BFA6E032 
 289      F34FF71B 
 289      740AE334 
 289      0A
 290 0cb4 D73C2BF5 		.ascii	"\327<+\365+\007\245V\344u\034\221~\231\365\207[\311"
 290      2B07A556 
 290      E4751C91 
 290      7E99F587 
 290      5BC9
 291 0cc6 B3156DEA 		.ascii	"\263\025m\352\262\351Y\362\334\021Y\017>\016\271K\032"
 291      B2E959F2 
ARM GAS  /tmp/ccVWKWym.s 			page 23


 291      DC11590F 
 291      3E0EB94B 
 291      1A
 292 0cd7 BF5FD064 		.ascii	"\277_\320d]\240&GJx\265\371o\030\032]\256C\335\371,"
 292      5DA02647 
 292      4A78B5F9 
 292      6F181A5D 
 292      AE43DDF9 
 293 0cec FE7A5598 		.ascii	"\376zU\230\340\310\337\260\317\376\017Q\374\254\324"
 293      E0C8DFB0 
 293      CFFE0F51 
 293      FCACD4
 294 0cfb A9D7378E 		.ascii	"\251\3277\216\275\330-\203S\257\033\216\275\216\371"
 294      BDD82D83 
 294      53AF1B8E 
 294      BD8EF9
 295 0d0a 9C391C71 		.ascii	"\2349\034q\354u*\017\255\264c\257\376<\341P-r\352\265"
 295      EC752A0F 
 295      ADB463AF 
 295      FE3CE150 
 295      2D72EAB5 
 296 0d1e 374FAF46 		.ascii	"7O\257F\307^;\362\364j\312\366\322\376t\264\374\315"
 296      C75E3BF2 
 296      F46ACAF6 
 296      D2FE74B4 
 296      FCCD
 297 0d30 2BBF58CF 		.ascii	"+\277X\317~y\314\256v\032[~f\331(\037\317se\320R\224"
 297      7E79CCAE 
 297      761A5B7E 
 297      66D9281F 
 297      CF7365D0 
 298 0d46 7BAFF452 		.ascii	"{\257\364R\205\365T\035\377\323\323\244n|C\015\350W"
 298      85F5541D 
 298      FFD3D3A4 
 298      6E7C430D 
 298      E857
 299 0d58 2D226D2E 		.ascii	"-\"m.\312\373\317\243yEv\377<::\270R\373\347Q\267z{"
 299      CAFBCFA3 
 299      794576FF 
 299      3C3A3AB8 
 299      52FBE751 
 300 0d6f 29378540 		.ascii	")7\205@\336\316Oq\037\345N\375t~\212\013\314\024-*\375"
 300      DECE4F71 
 300      1FE54EFD 
 300      747E8A0B 
 300      CC142D2A 
 301 0d84 3C8FD117 		.ascii	"<\217\321\027fUJ\212\3025\242\374peM<*U\206\343Us+\253"
 301      66554A8A 
 301      C235A2FC 
 301      70654D3C 
 301      2A5586E3 
 302 0d9c A4D995E1 		.ascii	"\244\331\225\341\232\310\314H<Q\251\310\365\261'+\241"
 302      9AC8CC48 
 302      3C51A9C8 
 302      F5B1272B 
 302      A1
 303 0dad 202B9575 		.ascii	" +\225uqYIT\376\354\227\217\314x\244\001ZF\353\"\265"
ARM GAS  /tmp/ccVWKWym.s 			page 24


 303      71594954 
 303      FEEC978F 
 303      CC78A401 
 303      5A46EB22 
 304 0dc2 929CA87C 		.ascii	"\222\234\250|h\306\014h\256\314\255\223\022\223jHq4"
 304      68C60C68 
 304      AECCAD93 
 304      12936A48 
 304      7134
 305 0dd4 511D524A 		.ascii	"Q\035RJ\036\372\347_\007g\220;*\353\023r\245(G\357\216"
 305      1EFAE75F 
 305      0767903B 
 305      2AEB1372 
 305      A52847EF 
 306 0de9 C563D2DD 		.ascii	"\305c\322\335\22283R\031\211\205k\353\253\244\312\204"
 306      92383352 
 306      1989856B 
 306      EBABA4CA 
 306      84
 307 0dfa 52158929 		.ascii	"R\025\211)\320\303\017\037\367\336\023R\246\346i\034"
 307      D0C30F1F 
 307      F7DE1352 
 307      A6E6691C 
 308 0e0a 1581A198 		.ascii	"\025\201\241\230T\031\252\222f\211\365\265JH'\027\010"
 308      5419AA92 
 308      6689F5B5 
 308      4A482717 
 308      08
 309 0e1b 85B4EE95 		.ascii	"\205\264\356\225y%P\244\204\302d`\237\300\341\2440)"
 309      792550A4 
 309      84C26460 
 309      9FC0E1A4 
 309      3029
 310 0e2d 516A6449 		.ascii	"QjdI\254\242u\345\360}JHj\220\302\365\212\364#\327("
 310      ACA275E5 
 310      F07D4A48 
 310      6A90C2F5 
 310      8AF423D7 
 311 0e42 4CD6D03F 		.ascii	"L\326\320?\306\343\2657\205\330\327\220\230HH\262\022"
 311      C6E3B537 
 311      85D8D790 
 311      984848B2 
 311      12
 312 0e53 4A48BFA9 		.ascii	"JH\277\251\227bai\034VJ\321\010\360\032\177R\212\335"
 312      97626169 
 312      1C564AD1 
 312      08F01A7F 
 312      528ADD
 313 0e66 EB42C1BA 		.ascii	"\353B\301\272\264\341\032\306b\015\231\346\251ObnB\327"
 313      B4E11AC6 
 313      620D99E6 
 313      A94F626E 
 313      42D7
 314 0e78 4A29972D 		.ascii	"J)\227-\244\004\3025!^\236\352\015+\\S\0058%u\241\230"
 314      A404C235 
 314      215E9EEA 
 314      0D2B5C53 
ARM GAS  /tmp/ccVWKWym.s 			page 25


 314      05382575 
 315 0e8e D4A0C047 		.ascii	"\324\240\300G\235,\315\366+ur$\036RJ\3535\225\217\011"
 315      9D2CCDF6 
 315      2B757224 
 315      1E524AEB 
 315      35958F09 
 316 0ea2 85F42236 		.ascii	"\205\364\"6\211\304\375\341xL\201\036\367{v\247\232"
 316      89C4FDE1 
 316      784C811E 
 316      F77B76A7 
 316      9A
 317 0eb3 705C9680 		.ascii	"p\\\226\200d\031\253f6\015+\015\3770:\224\320\354\373"
 317      6419AB66 
 317      360D2B0D 
 317      FF303A94 
 317      D0ECFB
 318 0ec6 A24C09B2 		.ascii	"\242L\011\262T\015\336\024R\004y\252 \377X\220\177\""
 318      540DDE14 
 318      520479AA 
 318      20FF5890 
 318      7F22
 319 0ed8 C8F709F2 		.ascii	"\310\367\011\3624A\276\337'O\231\014i\212P+\303\307"
 319      3441BEDF 
 319      274F990C 
 319      698A502B 
 319      C3C7
 320 0eea BDC57521 		.ascii	"\275\305u!\240\346g\302\316\221d\370\214\327VI2\023"
 320      A0E667C2 
 320      CE9164F8 
 320      8CD75649 
 320      3213
 321 0efc 5E8C4AA5 		.ascii	"^\214J\245JB\021\025)\244\370\231\254\323@\247\\j(A"
 321      4A421115 
 321      29A4F899 
 321      ACD340A7 
 321      5C6A2841 
 322 0f10 4B7CE757 		.ascii	"K|\347W\242\361*\011\277\317\252\025\253\023~E\226f"
 322      A2F12A09 
 322      BFCFAA15 
 322      AB137E45 
 322      9666
 323 0f22 255029AC 		.ascii	"%P)\254P\"W\315\005\203\226J\015\021\005d\221J\346("
 323      502257CD 
 323      0583964A 
 323      0D110564 
 323      914AE628 
 324 0f36 F199FF5E 		.ascii	"\361\231\377^W&\315\226bJTL<\011-\2459\254\340\253\013"
 324      5726CD96 
 324      624A544C 
 324      3C092DA5 
 324      39ACE0AB 
 325 0f4b D557707B 		.ascii	"\325Wp{%B\265\021p e\\\306\202\274&P\027\232#F\224H"
 325      2542B511 
 325      7020655C 
 325      C682BC26 
 325      50179A23 
 326 0f62 AC7A9C5E 		.ascii	"\254z\234^\015\016W\017\324\307\033Zb\325\230\272\020"
ARM GAS  /tmp/ccVWKWym.s 			page 26


 326      0D0E570F 
 326      D4C71B5A 
 326      62D598BA 
 326      10
 327 0f73 90C56231 		.ascii	"\220\305b1\026\241B\252\223b0\356\252\213\243\340\354"
 327      16A142AA 
 327      936230EE 
 327      AA8BA3E0 
 327      EC
 328 0f84 0D1E9D52 		.ascii	"\015\036\235Ri`\3035\312\321\3413>'\006\352B$\020!\212"
 328      6960C335 
 328      CAD1E133 
 328      3E2706EA 
 328      42241021 
 329 0f99 BE02FC41 		.ascii	"\276\002\374A;\306\351"
 329      3BC6E9
 330 0fa0 1826BD58 		.ascii	"\030&\275X\213n\001\225u0T\312\3035\217$\252\177)\325"
 330      8B6E0195 
 330      753054CA 
 330      C3358F24 
 330      AA7F29D5 
 331 0fb4 4A62420A 		.ascii	"JbB\012\340\227\177\001a\356\363\304\206&#\260r\017"
 331      E0977F01 
 331      61EEF3C4 
 331      862623B0 
 331      720F
 332 0fc6 468CDAC8 		.ascii	"F\214\332\310\314\312\352p\330\0229\246N\2326i\2521"
 332      CCCAEA70 
 332      D81239A6 
 332      4E9A3669 
 332      AA31
 333 0fd8 D840E460 		.ascii	"\330@\344`\036\235\210\374\007\263\2242\253>\026\016"
 333      1E9D88FC 
 333      07B39432 
 333      AB3E160E 
 334 0fe8 2913C235 		.ascii	")\023\3025\277\252\251\232\001\200\212\364\030\2302"
 334      BFAAA99A 
 334      01808AF4 
 334      189832
 335 0ff7 12E65C3D 		.ascii	"\022\346\\=\006Z\022\346\210"
 335      065A12E6 
 335      88
 336 1000 65A05236 		.ascii	"e\240R6\254\244(\037J\274\\\316\350\317\325\3543\026"
 336      ACA4281F 
 336      4ABC5CCE 
 336      E8CFD5EC 
 336      3316
 337 1012 AAB3DFFD 		.ascii	"\252\263\337\3752WN\211\214\303\241XF\307\2225\307\222"
 337      32574E89 
 337      8CC3A158 
 337      46C79235 
 337      C792
 338 1024 B96305A0 		.ascii	"\271c\005\240\266^\226\301\370\3052\353t\323\354\210"
 338      B65E96C1 
 338      F8C532EB 
 338      74D3EC88 
 339 1034 ACD48BB5 		.ascii	"\254\324\213\265!%\022\205\200\252\001\337\014\3006"
ARM GAS  /tmp/ccVWKWym.s 			page 27


 339      21251285 
 339      80AA01DF 
 339      0CC036
 340 1043 2FC699EA 		.ascii	"/\306\231\352\270\325MU\376\331\012\032\202}\262Q\033"
 340      B8D54D55 
 340      FED90A1A 
 340      827DB251 
 340      1B
 341 1054 604CC30B 		.ascii	"`L\303\013m\334N\371If\334\262b)\264\252\222j\025\021"
 341      6DDC4EF9 
 341      4966DCB2 
 341      6229B4AA 
 341      926A1511 
 342 1068 0A5C25AC 		.ascii	"\012\\%\254\037+\225\260\376\242\\\006\037\265bBa\020"
 342      1F2B95B0 
 342      FEA25C06 
 342      1FB56242 
 342      6110
 343 107a 50C558A8 		.ascii	"P\305X\250\320TR%\315\254\257\346\036j\254\011\324\211"
 343      D0545225 
 343      CDACAFE6 
 343      1E6AAC09 
 343      D489
 344 108c B14898F9 		.ascii	"\261H\230\371\233\257jf\365=\336l\313\006\356x%\032"
 344      9BAF6A66 
 344      F53DDE6C 
 344      CB06EE78 
 344      251A
 345 109e 0A8B6056 		.ascii	"\012\213`V\031\014\022\217\001K\262\022\216\201JJ\342"
 345      190C128F 
 345      014BB212 
 345      8E814A4A 
 345      E2
 346 10af B3662524 		.ascii	"\263f%$EP\242B\270\306\257\371A)\013\264a\360\247\""
 346      4550A242 
 346      B8C6AFF9 
 346      41290BB4 
 346      61F0A722 
 347 10c3 365A8BE1 		.ascii	"6Z\213\341}}\035\324\211r\025\270\247_\013\353c\352"
 347      7D7D1DD4 
 347      897215B8 
 347      A75F0BEB 
 347      63EA
 348 10d5 444591E4 		.ascii	"DE\221\344\030\033\206\332\0240e\374$9^%*\342$\275b"
 348      181B86DA 
 348      143065FC 
 348      24395E25 
 348      2AE224BD 
 349 10ea DC235222 		.ascii	"\334#R\"!VK\211\037\005k\343\361:\302\235\343!Iy\024"
 349      21564B89 
 349      1F056BE3 
 349      F13AC29D 
 349      E3214979 
 350 10ff 4C294794 		.ascii	"L)G\224\271\217\217\325k\036\223jg=\376\177\250\347"
 350      B98F8FD5 
 350      6B1E936A 
 350      673DFE7F 
ARM GAS  /tmp/ccVWKWym.s 			page 28


 350      A8E7
 351 1111 284C     		.ascii	"(L"
 352              		.text
 353              		.section	.gnu.lto_.symtab.c4da0b4618e9de77,"",%progbits
 354 0000 70617474 		.ascii	"patternmsg\000\000\000\000\000\000\000\000\000\000\000"
 354      65726E6D 
 354      73670000 
 354      00000000 
 354      00000000 
 355 0015 00DB0100 		.ascii	"\000\333\001\000\000testmsg1\000\000\000\000\000\000"
 355      00746573 
 355      746D7367 
 355      31000000 
 355      000000
 356 0028 00000000 		.ascii	"\000\000\000\000\000\000\361\001\000\000wa\000\000\002"
 356      0000F101 
 356      00007761 
 356      000002
 357 0037 00000000 		.ascii	"\000\000\000\000\000\000\000\000\000r\001\000\000ch"
 357      00000000 
 357      00720100 
 357      006368
 358 0046 00000200 		.ascii	"\000\000\002\000\000\000\000\000\000\000\000\000w\001"
 358      00000000 
 358      00000000 
 358      7701
 359 0054 00007468 		.ascii	"\000\000threads\000\000\002\000\000\000\000\000\000"
 359      72656164 
 359      73000002 
 359      00000000 
 359      0000
 360 0066 000000D7 		.ascii	"\000\000\000\327\001\000\000_test_assert_sequence\000"
 360      0100005F 
 360      74657374 
 360      5F617373 
 360      6572745F 
 361 0083 00020000 		.ascii	"\000\002\000\000\000\000\000\000\000\000\000\275\000"
 361      00000000 
 361      000000BD 
 361      00
 362 0090 00007465 		.ascii	"\000\000test_emit_token\000\000\002\000\000\000\000"
 362      73745F65 
 362      6D69745F 
 362      746F6B65 
 362      6E000002 
 363 00a8 00000000 		.ascii	"\000\000\000\000\000\306\000\000\000chMsgRelease\000"
 363      00C60000 
 363      0063684D 
 363      73675265 
 363      6C656173 
 364 00be 00020000 		.ascii	"\000\002\000\000\000\000\000\000\000\000\000\312\000"
 364      00000000 
 364      000000CA 
 364      00
 365 00cb 00006368 		.ascii	"\000\000chMsgWait\000\000\002\000\000\000\000\000\000"
 365      4D736757 
 365      61697400 
ARM GAS  /tmp/ccVWKWym.s 			page 29


 365      00020000 
 365      00000000 
 366 00df 0000005C 		.ascii	"\000\000\000\\\001\000\000chThdCreateStatic\000\000"
 366      01000063 
 366      68546864 
 366      43726561 
 366      74655374 
 367 00f9 02000000 		.ascii	"\002\000\000\000\000\000\000\000\000\000_\001\000\000"
 367      00000000 
 367      00005F01 
 367      0000
 368 0107 63684D73 		.ascii	"chMsgSend\000\000\002\000\000\000\000\000\000\000\000"
 368      6753656E 
 368      64000002 
 368      00000000 
 368      00000000 
 369 011b 006D0100 		.ascii	"\000m\001\000\000"
 369      00
 370              		.text
 371              		.section	.gnu.lto_.opts,"",%progbits
 372 0000 272D6D63 		.ascii	"'-mcpu=cortex-m3' '-mno-thumb-interwork' '-mthumb' "
 372      70753D63 
 372      6F727465 
 372      782D6D33 
 372      2720272D 
 373 0033 272D4F32 		.ascii	"'-O2' '-fomit-frame-pointer' '-falign-functions=16'"
 373      2720272D 
 373      666F6D69 
 373      742D6672 
 373      616D652D 
 374 0066 20272D66 		.ascii	" '-ffunction-sections' '-fdata-sections' '-fno-comm"
 374      66756E63 
 374      74696F6E 
 374      2D736563 
 374      74696F6E 
 375 0099 6F6E2720 		.ascii	"on' '-flto'\000"
 375      272D666C 
 375      746F2700 
 376              		.text
 377              		.section	.text.msg1_execute,"ax",%progbits
 378              		.align	2
 379              		.p2align 4,,15
 380              		.thumb
 381              		.thumb_func
 382              		.type	msg1_execute, %function
 383              	msg1_execute:
 384              		@ args = 0, pretend = 0, frame = 0
 385              		@ frame_needed = 0, uses_anonymous_args = 0
 386 0000 10B5     		push	{r4, lr}
 387 0002 184B     		ldr	r3, .L2
 388 0004 184A     		ldr	r2, .L2+4
 389 0006 9B69     		ldr	r3, [r3, #24]
 390 0008 1068     		ldr	r0, [r2]
 391 000a 9A68     		ldr	r2, [r3, #8]
 392 000c 82B0     		sub	sp, sp, #8
 393 000e 0132     		adds	r2, r2, #1
 394 0010 0093     		str	r3, [sp]
ARM GAS  /tmp/ccVWKWym.s 			page 30


 395 0012 4FF4A471 		mov	r1, #328
 396 0016 154B     		ldr	r3, .L2+8
 397 0018 FFF7FEFF 		bl	chThdCreateStatic
 398 001c 144B     		ldr	r3, .L2+12
 399 001e 1860     		str	r0, [r3]
 400 0020 FFF7FEFF 		bl	chMsgWait
 401 0024 046B     		ldr	r4, [r0, #48]
 402 0026 2146     		mov	r1, r4
 403 0028 FFF7FEFF 		bl	chMsgRelease
 404 002c E0B2     		uxtb	r0, r4
 405 002e FFF7FEFF 		bl	test_emit_token
 406 0032 FFF7FEFF 		bl	chMsgWait
 407 0036 046B     		ldr	r4, [r0, #48]
 408 0038 2146     		mov	r1, r4
 409 003a FFF7FEFF 		bl	chMsgRelease
 410 003e E0B2     		uxtb	r0, r4
 411 0040 FFF7FEFF 		bl	test_emit_token
 412 0044 FFF7FEFF 		bl	chMsgWait
 413 0048 046B     		ldr	r4, [r0, #48]
 414 004a 2146     		mov	r1, r4
 415 004c FFF7FEFF 		bl	chMsgRelease
 416 0050 E0B2     		uxtb	r0, r4
 417 0052 FFF7FEFF 		bl	test_emit_token
 418 0056 0749     		ldr	r1, .L2+16
 419 0058 0120     		movs	r0, #1
 420 005a 02B0     		add	sp, sp, #8
 421              		@ sp needed
 422 005c BDE81040 		pop	{r4, lr}
 423 0060 FFF7FEBF 		b	_test_assert_sequence
 424              	.L3:
 425              		.align	2
 426              	.L2:
 427 0064 00000000 		.word	ch
 428 0068 00000000 		.word	wa
 429 006c 00000000 		.word	thread
 430 0070 00000000 		.word	threads
 431 0074 00000000 		.word	.LC0
 432              		.size	msg1_execute, .-msg1_execute
 433 0078 AFF30080 		.section	.text.thread,"ax",%progbits
 433      AFF30080 
 434              		.align	2
 435              		.p2align 4,,15
 436              		.thumb
 437              		.thumb_func
 438              		.type	thread, %function
 439              	thread:
 440              		@ args = 0, pretend = 0, frame = 0
 441              		@ frame_needed = 0, uses_anonymous_args = 0
 442 0000 10B5     		push	{r4, lr}
 443 0002 4121     		movs	r1, #65
 444 0004 0446     		mov	r4, r0
 445 0006 FFF7FEFF 		bl	chMsgSend
 446 000a 2046     		mov	r0, r4
 447 000c 4221     		movs	r1, #66
 448 000e FFF7FEFF 		bl	chMsgSend
 449 0012 2046     		mov	r0, r4
 450 0014 4321     		movs	r1, #67
ARM GAS  /tmp/ccVWKWym.s 			page 31


 451 0016 FFF7FEFF 		bl	chMsgSend
 452 001a 0020     		movs	r0, #0
 453 001c 10BD     		pop	{r4, pc}
 454              		.size	thread, .-thread
 455              		.global	patternmsg
 456              		.global	testmsg1
 457 001e 00BF     		.section	.rodata.testmsg1,"a",%progbits
 458              		.align	2
 459              		.type	testmsg1, %object
 460              		.size	testmsg1, 16
 461              	testmsg1:
 462 0000 04000000 		.word	.LC1
 463 0004 00000000 		.word	0
 464 0008 00000000 		.word	0
 465 000c 00000000 		.word	msg1_execute
 466              		.section	.rodata.str1.4,"aMS",%progbits,1
 467              		.align	2
 468              	.LC0:
 469 0000 41424300 		.ascii	"ABC\000"
 470              	.LC1:
 471 0004 4D657373 		.ascii	"Messages, loop\000"
 471      61676573 
 471      2C206C6F 
 471      6F7000
 472 0013 00       		.section	.rodata.patternmsg,"a",%progbits
 473              		.align	2
 474              		.type	patternmsg, %object
 475              		.size	patternmsg, 8
 476              	patternmsg:
 477 0000 00000000 		.word	testmsg1
 478 0004 00000000 		.word	0
 479              		.comm	__gnu_lto_v1,1,1
 480              		.ident	"GCC: (GNU Tools for ARM Embedded Processors) 4.8.4 20140526 (release) [ARM/embedded-4_8-br
ARM GAS  /tmp/ccVWKWym.s 			page 32


DEFINED SYMBOLS
                            *ABS*:0000000000000000 testmsg.c
     /tmp/ccVWKWym.s:378    .text.msg1_execute:0000000000000000 $t
     /tmp/ccVWKWym.s:383    .text.msg1_execute:0000000000000000 msg1_execute
     /tmp/ccVWKWym.s:427    .text.msg1_execute:0000000000000064 $d
     /tmp/ccVWKWym.s:439    .text.thread:0000000000000000 thread
     /tmp/ccVWKWym.s:434    .text.thread:0000000000000000 $t
     /tmp/ccVWKWym.s:476    .rodata.patternmsg:0000000000000000 patternmsg
     /tmp/ccVWKWym.s:461    .rodata.testmsg1:0000000000000000 testmsg1
     /tmp/ccVWKWym.s:458    .rodata.testmsg1:0000000000000000 $d
     /tmp/ccVWKWym.s:467    .rodata.str1.4:0000000000000000 $d
     /tmp/ccVWKWym.s:473    .rodata.patternmsg:0000000000000000 $d
                            *COM*:0000000000000001 __gnu_lto_v1
     /tmp/ccVWKWym.s:433    .text.msg1_execute:0000000000000078 $t

UNDEFINED SYMBOLS
chThdCreateStatic
chMsgWait
chMsgRelease
test_emit_token
_test_assert_sequence
ch
wa
threads
chMsgSend
