ARM GAS  /tmp/ccsa2nyi.s 			page 1


   1              		.syntax unified
   2              		.cpu cortex-m4
   3              		.eabi_attribute 27, 3
   4              		.eabi_attribute 28, 1
   5              		.fpu fpv4-sp-d16
   6              		.eabi_attribute 20, 1
   7              		.eabi_attribute 21, 1
   8              		.eabi_attribute 23, 3
   9              		.eabi_attribute 24, 1
  10              		.eabi_attribute 25, 1
  11              		.eabi_attribute 26, 1
  12              		.eabi_attribute 30, 2
  13              		.eabi_attribute 34, 1
  14              		.eabi_attribute 18, 4
  15              		.thumb
  16              		.file	"testdyn.c"
  17              		.section	.gnu.lto_.jmpfuncs.90002a6b458a2d19,"",%progbits
  18 0000 789CAD53 		.ascii	"x\234\255S;R\3030\020}\273\262b%v\230\014\223\031\206"
  18      3B52C330 
  18      107DBBB2 
  18      62257698 
  18      0C931986 
  19 0014 C617E012 		.ascii	"\306\027\340\0228\011w\240\206\312\205O@\243\222\222"
  19      380977A0 
  19      86CA854F 
  19      40A39292 
  20 0024 324D2EC0 		.ascii	"2M.\300i8\014\025\025\226\344(^\354\220\031\204\013"
  20      69380C15 
  20      1596E428 
  20      5EEC9019 
  20      840B
  21 0036 79BF6F35 		.ascii	"y\277o5\373\236\030\214\251\257\324\300m\3677\000\363"
  21      FB9E188C 
  21      A9AFD4C0 
  21      6DF73700 
  21      F3
  22 0047 233584CC 		.ascii	"#5\204\314\205{[\005\373\005_\366\325\256\032\242\226"
  22      857B5B05 
  22      FB055FF6 
  22      D5AE1AA2 
  22      96
  23 0058 FABEBEA0 		.ascii	"\372\276\276\240\003\365\331\275\313r\005:\330\375}"
  23      03F5D9BD 
  23      CB72053A 
  23      D8FD7D
  24 0067 434A14F9 		.ascii	"CJ\024\371\236\356\320c\240P\360\021\346\304l\366\334"
  24      9EEED063 
  24      A050F011 
  24      E6C46CF6 
  24      DC
  25 0078 6723B4AE 		.ascii	"g#\264\256\240\003\364\014\277\334i\"\2306\324\014\207"
  25      A003F40C 
  25      BFDC6922 
  25      9836D40C 
  25      87
  26 0089 A6411517 		.ascii	"\246A\025\027\357\257\310-\011jbL\214\344wx\267\326"
  26      EFAFC82D 
ARM GAS  /tmp/ccsa2nyi.s 			page 2


  26      096A624C 
  26      8CE47778 
  26      B7D6
  27 009b 59A6257A 		.ascii	"Y\246%z:\266\306\253\274]\003y:\204\021j\240S\363\274"
  27      3AB6C6AB 
  27      BC5D0379 
  27      3A84116A 
  27      A053F3BC 
  28 00af 25FE2990 		.ascii	"%\376)\220\363i!\217E\205\253\260\203b,\217l\214qq\243"
  28      F369218F 
  28      4585ABB0 
  28      83622C8F 
  28      6C8C7171 
  29 00c4 EBE146FF 		.ascii	"\353\341F\377\002p\223\012\240S\001L*\3009U\235\000"
  29      0270930A 
  29      A053014C 
  29      2AC03955 
  29      9D00
  30 00d6 8AA11A22 		.ascii	"\212\241\032\"?Q\267\336*\273P\351\324\207\345\221\225"
  30      3F51B7DE 
  30      2ABB50E9 
  30      D487E591 
  30      95
  31 00e7 D2331B49 		.ascii	"\3223\033I*\244\273\010\274;{\371\251bx.\253\214t\363"
  31      2AA4BB08 
  31      BC3B7BF9 
  31      A962782E 
  31      AB8C74F3 
  32 00fb 01E93399 		.ascii	"\001\3513\231\322\322\315\244\253\244\313\322\365[\371"
  32      D2D2CDA4 
  32      ABA4CBD2 
  32      F55BF9
  33 010a C7B70955 		.ascii	"\307\267\011Uo\300[pw\326\320\365f\273\003?\200w\370"
  33      6FC05B70 
  33      77D6D0F5 
  33      66BB033F 
  33      8077F8
  34 011d 06067ADF 		.ascii	"\006\006z\337\373"
  34      FB
  35              		.text
  36              		.section	.gnu.lto_.inline.90002a6b458a2d19,"",%progbits
  37 0000 789C8D51 		.ascii	"x\234\215Q\313\015\3020\014}N?\211hK\331\2005\030\201"
  37      CB0DC230 
  37      0C7D4E3F 
  37      89684BD9 
  37      80351881 
  38 0014 03EA8105 		.ascii	"\003\352\201\005X\210C\305\004\210!\020HHL\322\023\027"
  38      588843C5 
  38      04882110 
  38      48484CD2 
  38      1317
  39 0026 56801376 		.ascii	"V\200\023v\022\321\020Z\251=$~~\317\361s\255\2400\364"
  39      12D1105A 
  39      A93D247E 
  39      7ECFF173 
  39      ADA030F4 
  40 003a ED7CDAC0 		.ascii	"\355|\332\300t\330\023A\255\333\253B~\\Z\"\255\300\205"
ARM GAS  /tmp/ccsa2nyi.s 			page 3


  40      74D81341 
  40      ADDBAB42 
  40      7E5C5A22 
  40      ADC085
  41 004d 6DF37BFB 		.ascii	"m\363{\3734h\026HT\301\211\266\321\013 \003\343\236"
  41      34681648 
  41      54C189B6 
  41      D10B2003 
  41      E39E
  42 005f 494AAB0E 		.ascii	"IJ\253\016\230 \364d\202|\316\335I\242\224_\265\006"
  42      9820F464 
  42      827CCEDD 
  42      49A2945F 
  42      B506
  43 0071 E8A95377 		.ascii	"\350\251Sw\212\027\337 \203\256\311N\023\232L\370\326"
  43      8A17DF20 
  43      83AEC94E 
  43      139A4CF8 
  43      D6
  44 0082 A38CC103 		.ascii	"\243\214\301\003\235\014\267=\275\263/\353Z;\177\304"
  44      9D0CB73D 
  44      BDB32FEB 
  44      5A3B7FC4 
  45 0092 5AF2882C 		.ascii	"Z\362\210,\372\2370\2579\266\246\247F\362\226T\026\243"
  45      FA9F30AF 
  45      39B6A6A7 
  45      46F29654 
  45      16A3
  46 00a4 CE4A9477 		.ascii	"\316J\224w1f.\347\320\030\311\24420*\274\260b\301\346"
  46      31662EE7 
  46      D018C9A4 
  46      32302ABC 
  46      B062C1E6 
  47 00b8 76A061E7 		.ascii	"v\240a\347\375v\"h\177\030F\310\010F[\234V\024\211#"
  47      FD762268 
  47      7F1846C8 
  47      08465B9C 
  47      56148923 
  48 00cc 182C191F 		.ascii	"\030,\031\037\2072<\237"
  48      87323C9F 
  49              		.text
  50              		.section	.gnu.lto_.pureconst.90002a6b458a2d19,"",%progbits
  51 0000 789C6362 		.ascii	"x\234cb`b\020d\200\000\016\006IfIV\011v\011\016In\011"
  51      60621064 
  51      80000E06 
  51      49664956 
  51      0976090E 
  52 0017 1E0B5E49 		.ascii	"\036\013^I\000\012\272\001="
  52      000ABA01 
  52      3D
  53              		.text
  54              		.section	.gnu.lto_dyn1_execute.90002a6b458a2d19,"",%progbits
  55 0000 789CB556 		.ascii	"x\234\265V[L\\U\024\335\373\334\231;\303\314\000\005"
  55      5B4C5C55 
  55      14DDFBDC 
  55      993BC3CC 
  55      0005
ARM GAS  /tmp/ccsa2nyi.s 			page 4


  56 0012 11868723 		.ascii	"\021\206\207#\257\3206X\006\032\265\372\243\266\215"
  56      AFD03658 
  56      061AB5FA 
  56      A3B68D
  57 0021 89C6DF12 		.ascii	"\211\306\337\0225\372C\357 \334T\240\201i\223\302\007"
  57      35FA43EF 
  57      20DC54A0 
  57      816993C2 
  57      07
  58 0032 97471B8C 		.ascii	"\227G\033\214T\011\361\0035&\020\324Z\037A|\2441\362"
  58      5409F103 
  58      352610D4 
  58      5A1F417C 
  58      A431F2
  59 0045 31A9DA16 		.ascii	"1\251\332\026\023JM\210\266\265\211\304\017\255i\323"
  59      134A4D88 
  59      B6B589C4 
  59      0FAD69D3 
  60 0055 348D51D3 		.ascii	"4\215Q\323\324\216{\237\373\230'\3104\351Mf\237\263"
  60      D48E7B9F 
  60      FB9827C8 
  60      34E94D66 
  60      9FB3
  61 0067 F73967AF 		.ascii	"\3679g\257\265\327=\347\334\021  \375\371\206~7\374"
  61      B5D73DE7 
  61      DC112020 
  61      FDF9867E 
  61      37FC
  62 0079 00AF538B 		.ascii	"\000\257S\213\205\200b\342,\300\220W\010\345\213\223"
  62      858062E2 
  62      2CC09057 
  62      08E58B93 
  63 0089 0086CF73 		.ascii	"\000\206\317s\311\017F@\021\256d\327%\334\334\372<2"
  63      C90F4640 
  63      11AE64D7 
  63      25DCDCFA 
  63      3C32
  64 009b 18700B35 		.ascii	"\030p\0135\331U\2057\331\365\240\327\314\351\025\371"
  64      D9558537 
  64      D9F5A0D7 
  64      CCE915F9 
  65 00ab 0B3B289E 		.ascii	"\013;(\236\267RJ\341<\313\363I\317gy~\351\371E\376J"
  65      B7524AE1 
  65      3CCBF349 
  65      CF67797E 
  65      E9F945FE 
  66 00c0 98BCC042 		.ascii	"\230\274\300B\210\274\000\026\230\011\362\355N\001\""
  66      88BC0016 
  66      9809F2ED 
  66      4E0122
  67 00cf 77006150 		.ascii	"w\000aP(.\267\352\361\346\371\374\201\374\002\034|\036"
  67      282EB7EA 
  67      F1E6F9FC 
  67      81FC021C 
  67      7C1E
  68 00e1 B928B516 		.ascii	"\271(\265\026f\014cr\365\273\033\347\305\233o\304F\247"
  68      660C6372 
ARM GAS  /tmp/ccsa2nyi.s 			page 5


  68      F5BB1BE7 
  68      C59B6FC4 
  68      46A7
  69 00f3 8D5BF138 		.ascii	"\215[\3618\242\216$\300v\004\015\3419r\260Z6\302\225"
  69      A28E24C0 
  69      76040DE1 
  69      3972B05A 
  69      36C295
  70 0106 AA885C3B 		.ascii	"\252\210\\;\021\233?\2758\203\306\2441t=\036/\324Q\021"
  70      119B3FBD 
  70      3883C6A4 
  70      31743D1E 
  70      2FD45111 
  71 011a F0F08656 		.ascii	"\360\360\206VN\306.\236\036\367M\014\215\031\361\370"
  71      4EC62E9E 
  71      1EF74D0C 
  71      8D19F1F8 
  72 012a A0447C6C 		.ascii	"\240D|l#\353b\223\261\013G\216\226\033\323\303\023\306"
  72      23EB6293 
  72      B10B478E 
  72      961BD3C3 
  72      13C6
  73 013c 6D22ABA3 		.ascii	"m\"\253\243K\300\356\215\2554\276\216\2341Fc\361\370"
  73      4BC0EE8D 
  73      AD34BE8E 
  73      9C314663 
  73      F1F8
  74 014e E372D593 		.ascii	"\343r\325\223\033\344\371\363\251\361d<\267\200\247"
  74      1BE4F9F3 
  74      A9F1643C 
  74      B780A7
  75 015d FE6FE59C 		.ascii	"\376o\345\234\210\255\306\343\013_N\377z\015\213H\311"
  75      88ADC6E3 
  75      0B5F4EFF 
  75      7A0D8B48 
  75      C9
  76 016e 369CC55A 		.ascii	"6\234\305ZPAG\325K\306\343\343^\200{\20546CcE\324~D"
  76      504147D5 
  76      4BC6E3E3 
  76      5E807B85 
  76      34364363 
  77 0186 6D318F94 		.ascii	"m1\217\224\360H\031\233 \233r6\025l*\331T\221\361\206"
  77      F048199B 
  77      209B7236 
  77      156C2AD9 
  77      5491F186 
  78 019a D8D4B0A9 		.ascii	"\330\324\260\251#\003\365\334k`\263\331J\270\205\332"
  78      2303F5DC 
  78      6B60B3D9 
  78      4AB885DA 
  79 01aa F7A8DDCA 		.ascii	"\367\250\335\312\301F6\315\274\270\205L\0361t\303(\275"
  79      C14636CD 
  79      BCB8854C 
  79      1E3174C3 
  79      28BD
  80 01bc BDEA363C 		.ascii	"\275\3526<Fs\332\360\270\264L\000\2704z\366\220\345"
  80      4673DAF0 
ARM GAS  /tmp/ccsa2nyi.s 			page 6


  80      B8B44C00 
  80      B8347AF6 
  80      90E5
  81 01ce CDD38A82 		.ascii	"\315\323\212\202[e\011\206/\336\372\355\362\367\252"
  81      5B650986 
  81      2FDEFAED 
  81      F2F7AA
  82 01dd B5D24E61 		.ascii	"\265\322Na\314\276\037v\322\331\235\330\253?\315+@\031"
  82      CCBE1F76 
  82      D2D99DD8 
  82      AB3FCD2B 
  82      4019
  83 01ef 3F4137E5 		.ascii	"?A7\345\223\0115\224\247\252\003\233\033\341C\3030V"
  83      93093594 
  83      A7AA039B 
  83      1BE143C3 
  83      3056
  84 0201 4F9CFAF1 		.ascii	"O\234\372\361]\024\304\311\364\215Gu\364\275\015o\015"
  84      5D14C4C9 
  84      F48D4775 
  84      F4BD0D6F 
  84      0D
  85 0212 19C6261D 		.ascii	"\031\306&\035\375\003p\323\030\343^\240K.g\231\003R"
  85      FD0370D3 
  85      18E35EA0 
  85      4B2E6799 
  85      0352
  86 0224 DCBDECB7 		.ascii	"\334\275\354\267\341\034\245\246>:}\000\3468\365YE\033"
  86      E11CA5A6 
  86      3E3A7D00 
  86      E638F559 
  86      451B
  87 0236 7E4A7E07 		.ascii	"~J~\007\266X\211\373\250d'q>\021\340\\\036+\227\340"
  87      B65889FB 
  87      A8642771 
  87      3E11E05C 
  87      1E2B97E0 
  88 024a F5F3E6FA 		.ascii	"\365\363\346\372e8|}\370D\300\244\015\340P(\320P\221"
  88      65387C7D 
  88      F844C0A4 
  88      0DE05028 
  88      D05091
  89 025d D3CD88F1 		.ascii	"\323\315\210\361\202\216\205]\210\326\274\001\350\327"
  89      828E855D 
  89      88D6BC01 
  89      E8D7
  90 026b 7193ADA1 		.ascii	"q\223\255\241\014\351X\304lF\306F\256\034}\306\214u"
  90      0CE958C4 
  90      6C46C646 
  90      AE1C7DC6 
  90      8C75
  91 027d A04A8C18 		.ascii	"\240J\214\030Y\215\323S(\341\202\366\230\327\301*\326"
  91      598DD353 
  91      28E182F6 
  91      98D7C12A 
  91      D6
  92 028e D0E56079 		.ascii	"\320\345`yS\200x1\234S8\2255x\217\206n\207\305M#\250"
ARM GAS  /tmp/ccsa2nyi.s 			page 7


  92      53807831 
  92      9C533895 
  92      35788F86 
  92      6E87C54D 
  93 02a4 63490846 		.ascii	"cI\010F\360\035c\352\011\035\357M\260)\225\332,\236"
  93      F01D63EA 
  93      091DEF4D 
  93      B02995DA 
  93      2C9E
  94 02b6 F398916D 		.ascii	"\363\230\221m\3601\353\362\020\251\340\350R\3460\010"
  94      F031EBF2 
  94      10A9E0E8 
  94      52E63008 
  95 02c6 76C937C5 		.ascii	"v\3117\305hA\260\245W\234\275Md\255\332\376N\324\346"
  95      6841B0A5 
  95      579CBD4D 
  95      64ADDAFE 
  95      4ED4E6
  96 02d9 B36BBB9D 		.ascii	"\263k\273\235Y[ \267\332|\353\325v\344\256\324\206\211"
  96      595B20B7 
  96      DA7CEBD5 
  96      76E4AED4 
  96      8689
  97 02eb DA027217 		.ascii	"\332\002r\027\254.jw\270\011\216el\202\341\305\363t"
  97      AC2E6A77 
  97      B8098E65 
  97      6C82E1C5 
  97      F374
  98 02fd BDDA6214 		.ascii	"\275\332b\024\232S$JL\265\243E\016J\271\206j2\312\263"
  98      9A53244A 
  98      4CB5A345 
  98      0E4AB986 
  98      6A32CAB3 
  99 0311 2928B45E 		.ascii	")(\264^\307\012K\376\271\327\034\371\213m\371\377\315"
  99      C70A4BFE 
  99      B9D71CF9 
  99      8B6DF9FF 
  99      CD
 100 0322 94BF2437 		.ascii	"\224\277$7\371\213\327\223\377\225\273\"\277H\310_\302"
 100      F98BD793 
 100      FF95BB22 
 100      BF48C85F 
 100      C2
 101 0333 D44757CF 		.ascii	"\324GW\317\316z2\364\257\324\2543Kr\351X%a/M\375\345"
 101      CE7A32F4 
 101      AFD4AC33 
 101      4B72E958 
 101      25612F4D 
 102 0349 D459B60D 		.ascii	"\324Y\266\015\036\270\243\015\015p\006F\257\242\223"
 102      1EB8A30D 
 102      0D700646 
 102      AFA293
 103 0358 27713B58 		.ascii	"'q;XO+M\246o4_\201/\332\263\2029\242\341\032h\301,h"
 103      4F2B4DA6 
 103      6F345F81 
 103      2FDAB382 
 103      39A2E11A 
ARM GAS  /tmp/ccsa2nyi.s 			page 8


 104 0370 2EF8EA91 		.ascii	".\370\352\221\024\260\362\034\301D2\330\267\277;`\345"
 104      14B0F21C 
 104      C14432D8 
 104      B7BF3B60 
 104      E5
 105 0381 59C0DCB0 		.ascii	"Y\300\334\260\340M\001\253\310\021LY\003\254\"\013\230"
 105      E04D01AB 
 105      C8114C59 
 105      03AC220B 
 105      98
 106 0392 0AB39802 		.ascii	"\012\263\230\002V\231#\230k\015\260\312\014\260=\344"
 106      56992398 
 106      6B0DB0CA 
 106      0CB03DE4 
 107 03a2 FEB3044A 		.ascii	"\376\263\004J+]W\326\367\353\232bO\257\352\340\357\306"
 107      2B5D57D6 
 107      F7EB9A62 
 107      4FAFEAE0 
 107      EFC6
 108 03b4 32B8ED40 		.ascii	"2\270\355@\310\301\275O\343\373\315\302\243\177N4Y\307"
 108      C8C1BD4F 
 108      E3FBCDC2 
 108      A37F4E34 
 108      59C7
 109 03c6 50DA5B0B 		.ascii	"P\332[\013\361\2407\001v\001\320z\313\252\275\271<\262"
 109      F1A03701 
 109      7601D07A 
 109      CBAABDB9 
 109      3CB2
 110 03d8 E03C5829 		.ascii	"\340<X)U\226ad\365\362\210?cG\337\257\311O1\237\242"
 110      55966164 
 110      F5F2883F 
 110      6347DFAF 
 110      C94F319F 
 111 03ed 6AF3DAF9 		.ascii	"j\363\332\371C\263\021j\234Y5\032\372\022\204\204}\032"
 111      43B3116A 
 111      9C59351A 
 111      FA128484 
 111      7D1A
 112 03ff 6B43306E 		.ascii	"kC0n\235\306\272\304i\254O#Z\223F\2249\371`Q%N\207\247"
 112      9DC6BAC4 
 112      69AC4F23 
 112      5A934694 
 112      39F96051 
 113 0417 AF3A7AD4 		.ascii	"\257:z\324e\277\345\274\033\274\342F\226\235L\365\224"
 113      65BFE5BC 
 113      1BBCE246 
 113      969D4CF5 
 113      94
 114 0428 8C315DBC 		.ascii	"\2141]\274\341\223\004nXC`\276r\3523\005n\310\302\333"
 114      E193046E 
 114      584360BE 
 114      72EA3305 
 114      6EC8C2DB 
 115 043c 0F7FCACD 		.ascii	"\017\177\312\315\263\370\301\200=m\263}\233R\370i;\270"
 115      B3F8C180 
 115      3D6DB37D 
ARM GAS  /tmp/ccsa2nyi.s 			page 9


 115      9B52F869 
 115      3BB8
 116 044e C5FC14A7 		.ascii	"\305\374\024\247\021\333J\263i,\205T\343\032\244\\<"
 116      11DB4AB3 
 116      692C8554 
 116      E31AA45C 
 116      3C
 117 045f 3F935463 		.ascii	"?\223Tc\026R\001\370\205\367\326\311+\326\015o\022z"
 117      165201F8 
 117      85F7D6C9 
 117      2BD60D6F 
 117      127A
 118 0471 103E37C6 		.ascii	"\020>7\306X\005\311\"i\360x\332\240\231$\037\346\227"
 118      5805C922 
 118      69F078DA 
 118      A099241F 
 118      E697
 119 0483 CC2C6307 		.ascii	"\314,c\007\327I\263o\375,\005r\237\377@\377\373\223"
 119      D749B36F 
 119      FD2C0572 
 119      9FFF40FF 
 119      FB93
 120 0495 4F017294 		.ascii	"O\001r\224OR8\334\331\323\325\036\326z\"\207\302\221"
 120      4F5238DC 
 120      D9D3D51E 
 120      D67A2287 
 120      C291
 121 04a7 F68361AD 		.ascii	"\366\203a\255S\337\253\367\364\205\243\275\007\272\367"
 121      53DFABF7 
 121      F485A3BD 
 121      07BAF7
 122 04b6 85A3ED7D 		.ascii	"\205\243\355}\321poT\266\221C\335M\032(\335M\315\036"
 122      D1706F54 
 122      B69143DD 
 122      4D1A28DD 
 122      4DCD1E
 123 04c9 FDA568D7 		.ascii	"\375\245h\327\376\246\026W_\177\323v\354\026}\375b\177"
 123      FEA61657 
 123      5F7FD376 
 123      EC167DFD 
 123      627F
 124 04db CB8E7513 		.ascii	"\313\216u\023Q\207\322\350\335\332\313\007\"4\2513\332"
 124      5187D2E8 
 124      DDDACB07 
 124      2234A933 
 124      DA
 125 04ec D9DBDE16 		.ascii	"\331\333\336\026\351k\352\004\261\023\304.\020\273A"
 125      E96BEA04 
 125      B113C42E 
 125      10BB41
 126 04fb D9B90BFE 		.ascii	"\331\271\013\376\003n\320\345V"
 126      036ED0E5 
 126      56
 127              		.text
 128              		.section	.gnu.lto_thread.90002a6b458a2d19,"",%progbits
 129 0000 789C6362 		.ascii	"x\234cb`b@\007\222@\274\021\210\015\201\230\221\231"
 129      60624007 
ARM GAS  /tmp/ccsa2nyi.s 			page 10


 129      9240BC11 
 129      880D8198 
 129      9199
 130 0012 819169C2 		.ascii	"\201\221i\3029\006\206F\016&FF\020\203\201\221\241\236"
 130      39068646 
 130      0E264646 
 130      10838191 
 130      A19E
 131 0024 89B13E92 		.ascii	"\211\261>\222\021\254v=\323\201\007\377\377\257\233"
 131      11AC763D 
 131      D38107FF 
 131      FFAF9B
 132 0033 D7367F0F 		.ascii	"\3276\177\017\343L&V&\306\\F\006f\206L\260$+CKC\303"
 132      E34C2656 
 132      26C65C46 
 132      0666864C 
 132      B0242B43 
 133 004a 04050686 		.ascii	"\004\005\006\206d07\004H\202\014\010ed\002\321\314g"
 133      64303704 
 133      48820C08 
 133      656402D1 
 133      CC67
 134 005c 199A76B5 		.ascii	"\031\232v\265>\357\321Jd\\\310\310\312\220\316\310<"
 134      3EEFD14A 
 134      645CC8C8 
 134      CA90CEC8 
 134      3C
 135 006d 9B611623 		.ascii	"\233a\026#Pg:#S\004\220f\204\272\346<\003\013D\005\003"
 135      50673A23 
 135      53049066 
 135      84BAE63C 
 135      030B4405 
 136 0082 4335C3AF 		.ascii	"C5\303\257\206\216\006\201LF\246d\2504PW&\320\211\014"
 136      868E0681 
 136      4C46A664 
 136      A8345057 
 136      26D0890C 
 137 0096 17191A1F 		.ascii	"\027\031\032\037\314J\206\250\003if\201\371%\004\250"
 137      CC4A86A8 
 137      03696681 
 137      F92504A8 
 138 00a6 106819C8 		.ascii	"\020h\031\310\223\372\372\031\371\271\251\372\311\371"
 138      93FAFA19 
 138      F9B9A9FA 
 138      C9F9
 139 00b4 2995FA29 		.ascii	")\225\372)\251e\372\311\031\231I\231\371\305\372%E\245"
 139      A965FAC9 
 139      19994999 
 139      F9C5FA25 
 139      45A5
 140 00c6 79D9FA25 		.ascii	"y\331\372%\251\305%\372E%`:\2452O/\231\001\0000\364"
 140      A9C525FA 
 140      4525603A 
 140      A5324F2F 
 140      99010030 
 141 00db 3BF9     		.ascii	";\371"
 142              		.text
ARM GAS  /tmp/ccsa2nyi.s 			page 11


 143              		.section	.gnu.lto_dyn1_setup.90002a6b458a2d19,"",%progbits
 144 0000 789C6362 		.ascii	"x\234cb`b@\007\222@\274\037\210\015\201\230\221\231"
 144      60624007 
 144      9240BC1F 
 144      880D8198 
 144      9199
 145 0012 819169C2 		.ascii	"\201\221i\3029\006\206F\016&FF\020\203\201\221\241\236"
 145      39068646 
 145      0E264646 
 145      10838191 
 145      A19E
 146 0024 89B13E92 		.ascii	"\211\261>\222\021\254v=\323\201\007\377\377\257\333"
 146      11AC763D 
 146      D38107FF 
 146      FFAFDB
 147 0033 D3367F0E 		.ascii	"\3236\177\016\343,&f\240\010+CKC\303\004\005\006\206"
 147      E32C2666 
 147      A0082B43 
 147      4B43C304 
 147      050686
 148 0046 64B08A10 		.ascii	"d\260\212\020 \011\322\026\312\310\004\242\231\3173"
 148      2009D216 
 148      CAC804A2 
 148      99CF33
 149 0055 B43D58F1 		.ascii	"\264=X\361\230+\221q!#+P\272\232\341WCG\203@&#P9\304"
 149      982B9171 
 149      21232B50 
 149      BA9AE157 
 149      43478340 
 150 006e 44900847 		.ascii	"D\220\010G&#c.#\003T\021DMCe&#\2236\303\252\006 \230"
 150      2623632E 
 150      23035411 
 150      444D4365 
 150      26239336 
 151 0087 C898C9C8 		.ascii	"\310\230\311\310\234\313\310\230\004\321\002S\030\001"
 151      9CCBC898 
 151      04D10253 
 151      1801
 152 0095 14669920 		.ascii	"\024f\231 \304\220\011\342\\dh|\260R\031f\017\004\204"
 152      C49009E2 
 152      5C64687C 
 152      B0521966 
 152      0F0484
 153 00a8 00ED003A 		.ascii	"\000\355\000:\002\344e}\375\214\374\334T\375\344\374"
 153      02E4657D 
 153      FD8CFCDC 
 153      54FDE4FC 
 154 00b8 944AFD94 		.ascii	"\224J\375\224\3242\375\344\214\314\244\314\374b\375"
 154      D432FDE4 
 154      8CCCA4CC 
 154      FC62FD
 155 00c7 92A2D2BC 		.ascii	"\222\242\322\274l\375\222\324\342\022\375\242\0220\235"
 155      6CFD92D4 
 155      E212FDA2 
 155      12309D
 156 00d6 5299A797 		.ascii	"R\231\247\227\314\000\000G\034C\246"
 156      CC000047 
ARM GAS  /tmp/ccsa2nyi.s 			page 12


 156      1C43A6
 157              		.text
 158              		.section	.gnu.lto_dyn3_setup.90002a6b458a2d19,"",%progbits
 159 0000 789C6362 		.ascii	"x\234cb`b@\007\222@\274\037\210\015\201\230\221\231"
 159      60624007 
 159      9240BC1F 
 159      880D8198 
 159      9199
 160 0012 819169C2 		.ascii	"\201\221i\3029\006\206F\016&FF\020\203\201\221\241\236"
 160      39068646 
 160      0E264646 
 160      10838191 
 160      A19E
 161 0024 89B13E92 		.ascii	"\211\261>\222\021\254v=\323\201\007\377\377\257\333"
 161      11AC763D 
 161      D38107FF 
 161      FFAFDB
 162 0033 D3377F0E 		.ascii	"\3237\177\016\343.&f\240\010+CKC\303\004\005\006\206"
 162      E32E2666 
 162      A0082B43 
 162      4B43C304 
 162      050686
 163 0046 64B08A10 		.ascii	"d\260\212\020 \011\322\026\312\310\004\242\231\3173"
 163      2009D216 
 163      CAC804A2 
 163      99CF33
 164 0055 B43D58F1 		.ascii	"\264=X\361\234+\221q!#+P\272\232\341WCG\203@&#P9\304"
 164      9C2B9171 
 164      21232B50 
 164      BA9AE157 
 164      43478340 
 165 006e 44900847 		.ascii	"D\220\010G&#c.#\003T\021DMCe&#\2236\303\252\006 \230"
 165      2623632E 
 165      23035411 
 165      444D4365 
 165      26239336 
 166 0087 C898C9C8 		.ascii	"\310\230\311\310\234\313\310\230\004\321\002S\030\001"
 166      9CCBC898 
 166      04D10253 
 166      1801
 167 0095 14669920 		.ascii	"\024f\231 \304\220\011\342\\dh|\260R\035f\017\004\204"
 167      C49009E2 
 167      5C64687C 
 167      B0521D66 
 167      0F0484
 168 00a8 00ED003A 		.ascii	"\000\355\000:\002\344e}\375\214\374\334T\375\344\374"
 168      02E4657D 
 168      FD8CFCDC 
 168      54FDE4FC 
 169 00b8 944AFD94 		.ascii	"\224J\375\224\3242\375\344\214\314\244\314\374b\375"
 169      D432FDE4 
 169      8CCCA4CC 
 169      FC62FD
 170 00c7 92A2D2BC 		.ascii	"\222\242\322\274l\375\222\324\342\022\375\242\0220\235"
 170      6CFD92D4 
 170      E212FDA2 
 170      12309D
ARM GAS  /tmp/ccsa2nyi.s 			page 13


 171 00d6 5299A797 		.ascii	"R\231\247\227\314\000\000m\270C\326"
 171      CC00006D 
 171      B843D6
 172              		.text
 173              		.section	.gnu.lto_dyn2_execute.90002a6b458a2d19,"",%progbits
 174 0000 789CB557 		.ascii	"x\234\265W\333O\034e\024?\347\233\275\316^fw\021a\213"
 174      DB4F1C65 
 174      143FE79B 
 174      BDCE5E66 
 174      7711618B 
 175 0014 C0022101 		.ascii	"\300\002!\001\241;)\202F\037\032{\361?(\211M|\241\003"
 175      A13B2982 
 175      461F1A7B 
 175      F13F2889 
 175      4D7CA103 
 176 0028 EE4E74C1 		.ascii	"\356Nt\301\300VS\215\351PhB\264\017D\305\340-iS\321"
 176      C056538D 
 176      E9506842 
 176      B40F44C5 
 176      E02D6953 
 177 003d 6A4C48AA 		.ascii	"jLH\252Fc\372@\033\037\264\326R\243mZ]\355\306D\373"
 177      4663FA40 
 177      1B1FB4D6 
 177      52A36D5A 
 177      5DEDC644 
 178 0052 A0B14D7C 		.ascii	"\240\261M|\260\365\322\365\234\271\355\302\002\202\011"
 178      B0F5D2F5 
 178      9CB9EDC2 
 178      028209
 179 0061 93F07DE7 		.ascii	"\223\360}\347;{.\277\337\371\256\010\020\260\374\273"
 179      3B7B2EBF 
 179      DFF9AE08 
 179      10B0FCBB 
 180 0071 417FB742 		.ascii	"A\177\267B\000S\324c\015\240\230>\0170\036\020\350\261"
 180      0053D463 
 180      0DA0983E 
 180      0F301E10 
 180      E8B1
 181 0083 04C9124E 		.ascii	"\004\311\022N\007<BZ\330\016\206\354\275\240\200\021"
 181      073C425A 
 181      D80E86EC 
 181      BDA08011 
 182 0093 F60ADF07 		.ascii	"\366\012\337\007g\200\206r!DC\237\360W\016\375\"P9\014"
 182      67808672 
 182      2144439F 
 182      F0570EFD 
 182      2250390C 
 183 00a7 8860E530 		.ascii	"\210`\3450(B\334\313\262\251\014\313\030\262R\205D\342"
 183      2842DCCB 
 183      B2A90CCB 
 183      18B25285 
 183      44E2
 184 00b9 924AFAF0 		.ascii	"\222J\372\360'M\244\016\213\304)\352\345\3107\244\013"
 184      274DA40E 
 184      8BC429EA 
 184      E5C837A4 
 184      0B
ARM GAS  /tmp/ccsa2nyi.s 			page 14


 185 00ca 4730C646 		.ascii	"G0\306F\030\025\2113\022i\225\363g\331W\261\324\247"
 185      18158933 
 185      126995F3 
 185      67D957B1 
 185      D4A7
 186 00dc 03311135 		.ascii	"\0031\0215\321\305MtqLX!\023\210,\000\302A!y\274>\177"
 186      D1C54D74 
 186      714C5821 
 186      13882C00 
 186      C2412179 
 187 00f3 202887C2 		.ascii	" (\207\302\221\250\022\213'\360\340^\344\012\210V8f"
 187      91A8128B 
 187      27F0E05E 
 187      E40A8856 
 187      3866
 188 0105 18D3C59F 		.ascii	"\030\323\305\237\346_I>w\364\320\264q\273TB\035\251"
 188      E65F493E 
 188      77F4D0B4 
 188      71BB5442 
 188      1DA9
 189 0117 563D081A 		.ascii	"V=\010\032\302\3034\300\224\331\011\317\322\342Y\236"
 189      C2C334C0 
 189      94D909CF 
 189      D2E2599E 
 190 0127 0B5F9FFD 		.ascii	"\013_\237\375\002\215\027\214\361\033\245\222b:>\360"
 190      028D178C 
 190      F11BA592 
 190      623A3EF0 
 191 0137 5F8EF362 		.ascii	"_\216\363b\241X*\035\271x\364\307\0370q/\302\000\036"
 191      A1582A1D 
 191      B978F4C7 
 191      1F30712F 
 191      C2001E
 192 014a C75672B4 		.ascii	"\307Vr\264z\211\372c\324\007@GI\266\225!\032x\"\324"
 192      7A89FA63 
 192      D4074047 
 192      49B69521 
 192      1A7822D4 
 193 015e 781596E2 		.ascii	"x\025\226\342,\325\260T\313R\035KI\226\032Xjd\251\231"
 193      2CD5B054 
 193      CB521D4B 
 193      49961A58 
 193      6A64A999 
 194 0172 9B14372D 		.ascii	"\233\0247-\334\264r\323F\215\257\235\233\016n:\355\340"
 194      DCB472D3 
 194      468DAF9D 
 194      9B0E6E3A 
 194      EDE0
 195 0184 5D9CA99B 		.ascii	"]\234\251\2335inT[\275\215\325=\254\351e\347>j\374\204"
 195      35696E54 
 195      5BBD8DD5 
 195      3DACE965 
 195      E73E6AFC 
 196 0199 DE0B9344 		.ascii	"\336\013\223D;e\331\000S\245o\017\265T\374~\024\324"
 196      3B65D900 
 196      53A56F0F 
 196      B554FC7E 
ARM GAS  /tmp/ccsa2nyi.s 			page 15


 196      14D4
 197 01ab 495FC2A1 		.ascii	"I_\302\241o_\277z\251\3276u|\214\343o\251\256\277#,"
 197      6F5FBF7A 
 197      A9D73675 
 197      7C8CE36F 
 197      A9AEBF23 
 198 01c0 3C7FF1A4 		.ascii	"<\177\361\244\004\224r\016\275\024\314\214\246\241\271"
 198      0494720E 
 198      BD14CC8C 
 198      A6A1B9
 199 01cf 5433D8DB 		.ascii	"T3\330\333\005\357\032\206Q\274\365\341\334\335\004"
 199      05EF1A86 
 199      51BCF5E1 
 199      DCDD04
 200 01de C11A19F7 		.ascii	"\301\032\031\367\353\030x\015^\0357\214\230\216\301"
 200      EB18780D 
 200      5E1D378C 
 200      988EC1
 201 01ed 67E04F63 		.ascii	"g\340Oc\212%9g:s\305e\263\316\373x<\200oS`\222\321\225"
 201      8A253967 
 201      3A73C565 
 201      B3CEFB78 
 201      3C806F53 
 202 0205 0118E0EC 		.ascii	"\001\030\340\354\311-\003x\202\306\031\354\263\003\217"
 202      C92D0378 
 202      82C619EC 
 202      B3038F
 203 0214 11433770 		.ascii	"\021C7p\210\322s,\257\035K\260\377;\366\220\276~\224"
 203      88D2732C 
 203      AF1D4BB0 
 203      FF3BF690 
 203      BE7E94
 204 0227 60613B73 		.ascii	"`a;s-\024>\236i\266\010d0\260\025\336c\3670\007\232"
 204      2D143E9E 
 204      69B60864 
 204      30B015DE 
 204      63F73007 
 205 023c 6629C208 		.ascii	"f)\302\010gY\212\346L~\0345\012\026CtW\305\"x\255\030"
 205      67598AE6 
 205      4C7E1C35 
 205      0A164374 
 205      57C52278 
 206 0252 002E2545 		.ascii	"\000.%E\243$`k\002:\306r(l#\312\244c\234\251LLM|4\243"
 206      A324606B 
 206      023AC672 
 206      286C23CA 
 206      A4639CA9 
 207 026c 3AF9658A 		.ascii	":\371e\212\311\011\000]\234\036\240m }\006\223?\217"
 207      C909005D 
 207      9C1EA06D 
 207      207D0693 
 207      3F8F
 208 027e FB1D33CB 		.ascii	"\373\0353\313Fr\263_\001KC;\342\204DQ\244\233^v\365"
 208      4672B35F 
 208      014B433B 
 208      E2844451 
 208      A49B5E76 
ARM GAS  /tmp/ccsa2nyi.s 			page 16


 209 0293 5AD34929 		.ascii	"Z\323I)\256\315\354u|\2512}l\354)\321\247\230\320\335"
 209      AECDEC75 
 209      7CA9327D 
 209      6CEC29D1 
 209      A798D0DD 
 210 02a7 B811177B 		.ascii	"\270\021\027{BC\317\252\330C\266\262FC\2075k\352u\274"
 210      4243CFAA 
 210      D843B6B2 
 210      46438735 
 210      6BEA75BC 
 211 02bb A309F26F 		.ascii	"\243\011\362o\030\263\017\352Xk/\012Zww\232S\366\371"
 211      18B30FEA 
 211      586B2F0A 
 211      5A77779A 
 211      53F6F9
 212 02ce 053B0D97 		.ascii	"\005;\015\227\230\276>\232\034w\272\352\334\304\365"
 212      98BE3E9A 
 212      1C77BAEA 
 212      DCC4F5
 213 02dd 39B3688C 		.ascii	"9\263h\214\260\036\234\025Q\336}\204\321\256\332/eJ"
 213      B01E9C15 
 213      51DE7D84 
 213      D1AEDA2F 
 213      654A
 214 02ef 8A43E976 		.ascii	"\212C\351v5\245\370\372()kQzj3(a\231\222\263\020\256"
 214      35A5F8FA 
 214      28296B51 
 214      7A6A3328 
 214      619992B3 
 215 0305 9729D538 		.ascii	"\227)\3258\224\376\251\246T\273>J5kQzz3(\2112\245Z\233"
 215      94FEA9A6 
 215      54BB3E4A 
 215      356B517A 
 215      7A332889 
 216 031d D2EF654A 		.ascii	"\322\357eJu\016\245\277\253)%\327G\251n-J\317n\006%"
 216      750EA5BF 
 216      AB2925D7 
 216      47A96E2D 
 216      4ACF6E06 
 217 0332 A94C2969 		.ascii	"\251L)iS\372\243L\251\301\241\364W5\245\306\365QjX\213"
 217      53FAA34C 
 217      A9C1A1F4 
 217      5735A5C6 
 217      F5516A58 
 218 0347 92819BC1 		.ascii	"\222\201\233\301\311S\346\324hF+\334\234O:\260\233\267"
 218      C953E6D4 
 218      68462BDC 
 218      9C4F3AB0 
 218      9BB7
 219 0359 42F7FFDA 		.ascii	"B\367\377\332\231\000tF\375\212n\234\362\351\353\036"
 219      99007446 
 219      FD8A6E9C 
 219      F2E9EB1E 
 220 0369 653E7833 		.ascii	"e>x3\302G\356#\216Qj\203\311p\225d\251\025\222\371a"
 220      C247EE23 
 220      8E516A83 
 220      C9709564 
ARM GAS  /tmp/ccsa2nyi.s 			page 17


 220      A91592F9 
 221 037e 2EB42459 		.ascii	".\264$Y\313\006\223\211U\222\265\254\220,\000\347\202"
 221      CB069389 
 221      5592B5AC 
 221      902C00E7 
 221      82
 222 038f 4B92B56E 		.ascii	"K\222\265n0\231\264J\262\326\025\222\005\341\245\000"
 222      3099B44A 
 222      B2D61592 
 222      05E1A500 
 223 039f 5D089F5E 		.ascii	"]\010\237^s\255\032\253\254\366\320-\372~T\352\307\220"
 223      73AD1AAB 
 223      ACF6D02D 
 223      FA7E54EA 
 223      C790
 224 03b1 7DA5FF26 		.ascii	"}\245\377&9\306m\031\006\340^X\031lw\261%5\232#\007"
 224      39C66D19 
 224      06E05E58 
 224      196C77B1 
 224      25359A23 
 225 03c6 D3166463 		.ascii	"\323\026dc\035\033\226Aj\347\037}\345TW@\262''\350,"
 225      1D1B9641 
 225      6AE71F7D 
 225      E5545740 
 225      B22727E8 
 226 03db 09D9C419 		.ascii	"\011\331\304\031\206#>i\021&\212\213\207CU\227\343]"
 226      86233E69 
 226      11268A8B 
 226      87435597 
 226      E35D
 227 03ed 9AF91EE1 		.ascii	"\232\371\036\341%\335\310h\016\027/\0179\031:\\\253"
 227      25DDC868 
 227      0E172F0F 
 227      39193A5C 
 227      AB
 228 03fe 268D4AEB 		.ascii	"&\215J\353\002\022\316\326hn\202\011{k\244\312[\243"
 228      0212CED6 
 228      686E8209 
 228      7B6BA4CA 
 228      5BA3
 229 0410 6519D08E 		.ascii	"e\031\320\216e@\031S\004\012\222\304\230;m\250\341S"
 229      65401953 
 229      040A92C4 
 229      983B6DA8 
 229      E153
 230 0422 DF65F987 		.ascii	"\337e\371\207(\234\013\023\330\311ba\316\015\320\345"
 230      289C0B13 
 230      D8C96261 
 230      CE0DD0E5 
 231 0432 E268D5A8 		.ascii	"\342h\325\250\352\000+ma\035\333\314\203\341\262[\340"
 231      EA002B6D 
 231      611DDBCC 
 231      83E1B25B 
 231      E0
 232 0443 6EF2E4E8 		.ascii	"n\362\344\350\346\234V\3249\275J\235%\366\251\256sz"
 232      E69C56D4 
 232      39BD4A9D 
ARM GAS  /tmp/ccsa2nyi.s 			page 18


 232      25F6A9AE 
 232      737A
 233 0455 05F80A4C 		.ascii	"\005\370\012L\206\255\033\375\372\313\356\243A\315\240"
 233      86AD1BFD 
 233      FACBEEA3 
 233      41CDA0
 234 0464 58F66888 		.ascii	"X\366h\210\301U\005\227\276\031D\325\233Ad\2603\202"
 234      C1550597 
 234      BE1944D5 
 234      9B4164B0 
 234      3382
 235 0476 E4AF58CF 		.ascii	"\344\257X\317\2058\274(\231%\370\336\235\211m\033\251"
 235      8538BC28 
 235      9925F8DE 
 235      9D896D1B 
 235      A9
 236 0487 C0A25B81 		.ascii	"\300\242[\201\036\362\254\256@\305\354/-\200\207]\314"
 236      1EF2ACAE 
 236      40C5EC2F 
 236      2D80875D 
 236      CC
 237 0498 0258E813 		.ascii	"\002X\350\023\274f\277\242\377\001*\3273\222\222\267"
 237      BC66BFA2 
 237      FF012AD7 
 237      339292B7 
 238 04a8 A4AA6647 		.ascii	"\244\252fGrC\25262x@\035\034zR\325\262\372>}dL\315\217"
 238      7243AA36 
 238      3278401D 
 238      1C7A52D5 
 238      B2FA3E7D 
 239 04c0 EE1F7E4C 		.ascii	"\356\037~L\315\017\215\345\325\321\274\331\017\036\030"
 239      CD0F8DE5 
 239      D5D1BCD9 
 239      0F1E18
 240 04cf 4E6BE0D7 		.ascii	"Nk\340\327\037\315\347\236H\337\203\372}kz\222@~\372"
 240      1FCDE79E 
 240      48DF83FA 
 240      7D6B7A92 
 240      407EFA
 241 04e2 B0F6F8FE 		.ascii	"\260\366\370\376A2\312\346\263\243C\003\203c\351,\210"
 241      4132CAE6 
 241      B3A34303 
 241      8363E92C 
 241      88
 242 04f3 1D207682 		.ascii	"\035 v\202\330\005b7\210\207\300\273c\347\256\335\360"
 242      D8056237 
 242      8887C0BB 
 242      63E7AEDD 
 242      F0
 243 0504 2F6DB0DE 		.ascii	"/m\260\336\313"
 243      CB
 244              		.text
 245              		.section	.gnu.lto_dyn2_setup.90002a6b458a2d19,"",%progbits
 246 0000 789C6362 		.ascii	"x\234cb`b@\007\222@<\027\210\015\201\230\221\231\201"
 246      60624007 
 246      92403C17 
 246      880D8198 
ARM GAS  /tmp/ccsa2nyi.s 			page 19


 246      919981
 247 0013 9169C239 		.ascii	"\221i\3029\006\206F\016&FF\020\203\201\221\241\236\211"
 247      0686460E 
 247      26464610 
 247      838191A1 
 247      9E89
 248 0025 B13E9211 		.ascii	"\261>\222\021\254v=\323\201\007\377\377\257\333\326"
 248      AC763DD3 
 248      8107FFFF 
 248      AFDBD6
 249 0034 35FF0DE3 		.ascii	"5\377\015\343J&f\240\010+CKC\303\004\005\006\206d\260"
 249      4A2666A0 
 249      082B434B 
 249      43C30405 
 249      068664B0 
 250 0048 8A102009 		.ascii	"\212\020 \011\322\026\312\310\004\242\231\3173\264="
 250      D216CAC8 
 250      04A299CF 
 250      33B43D
 251 0057 98FB942B 		.ascii	"\230\373\224+\221q!#+P\272\232\341WCG\203@&#P9\304D"
 251      91712123 
 251      2B50BA9A 
 251      E1574347 
 251      83402623 
 252 006f 90084726 		.ascii	"\220\010G&#c.#\003TQ\004c&#\323\005f0\015\264!\223\221"
 252      23632E23 
 252      03545104 
 252      632623D3 
 252      0566300D 
 253 0087 8581E122 		.ascii	"\205\201\341\"C\343\203y\2520S  \004h\002\320\012\220"
 253      43E38379 
 253      AA305320 
 253      20046802 
 253      D00A90
 254 009a 87F4F533 		.ascii	"\207\364\3653\362sS\365\223\363S*\365SR\313\364\223"
 254      F27353F5 
 254      93F3532A 
 254      F55352CB 
 254      F493
 255 00ac 33329332 		.ascii	"32\2232\363\213\365K\212J\363\262\365KR\213K\364\213"
 255      F38BF54B 
 255      8A4AF3B2 
 255      F54B528B 
 255      4BF48B
 256 00bf 4AC0744A 		.ascii	"J\300tJe\236^2\003\000\301\212:\262"
 256      659E5E32 
 256      0300C18A 
 256      3AB2
 257              		.text
 258              		.section	.gnu.lto_regfind.90002a6b458a2d19,"",%progbits
 259 0000 789C5D51 		.ascii	"x\234]Q\261n\023A\020}o\357\366l9)\220(h(\242\224\024"
 259      B16E1341 
 259      107D6FEF 
 259      F66C3929 
 259      90286828 
 260 0017 39898206 		.ascii	"9\211\202\006\032\376!\226\240\303\3349\227S\022\033"
 260      1AFE2196 
ARM GAS  /tmp/ccsa2nyi.s 			page 20


 260      A0C3DC39 
 260      9753121B 
 261 0027 2517A488 		.ascii	"%\027\244\210\"\033\371\012\012+\262\350,\\\020!D\023"
 261      221BF90A 
 261      0A2BB2E8 
 261      2C5C1021 
 261      4413
 262 0039 892A453A 		.ascii	"\211*E:SA\001\261R\246;%\212\000)\215\225\016!\314\254"
 262      534101B1 
 262      52A63B25 
 262      8A00298D 
 262      950E21CC 
 263 004e 37368491 		.ascii	"76\204\221v\337\315\314\275y3\263\012\012\377\333\003"
 263      76DFCDCC 
 263      BD7933B3 
 263      0A0AFFDB 
 263      03
 264 005f 39DF09DC 		.ascii	"9\337\011\334\027d\000\252\316\021\260SV\364\334\207"
 264      176400AA 
 264      CE11B053 
 264      56F4DC87 
 265 006f A774FB13 		.ascii	"\247t\373\023`*~^\202\231\325.\376\320'-\202\330V\236"
 265      602A7E5E 
 265      8299D52E 
 265      FED0272D 
 265      82D8569E 
 266 0083 F6B9FD98 		.ascii	"\366\271\375\230\266\232\232\307\2361\257\212\363\323"
 266      B69A9AC7 
 266      9E31AF8A 
 266      F3D3
 267 0091 1FEC9A7E 		.ascii	"\037\354\232~\376\306\374\032\215\310\224\242|\227\210"
 267      FEC6FC1A 
 267      8DC894A2 
 267      7C9788
 268 00a0 8847E270 		.ascii	"\210G\342pn\014\312\277\336\212\343\366\273\273\355"
 268      6E0CCABF 
 268      DE8AE3F6 
 268      BBBBED
 269 00af 5BA6301D 		.ascii	"[\2460\035\363[\250)=\205{\177\231e\307\344u\346\007"
 269      F35BA829 
 269      3D857B7F 
 269      9965C7E4 
 269      75E607
 270 00c2 D52F46A3 		.ascii	"\325/F\243\375\341\376i\2177g\211\032\3678/\2225\276"
 270      FDE1FE69 
 270      8F376789 
 270      1AF7382F 
 270      9235BE
 271 00d5 150CAEFC 		.ascii	"\025\014\256\374\022\327\2102\244d\345*2c\035\341k\344"
 271      12D78832 
 271      A464E52A 
 271      32631DE1 
 271      6BE4
 272 00e7 C674E65C 		.ascii	"\306t\346\\\320\221`%\305\026\345\226\311\253T\002\336"
 272      D0916025 
 272      C516E596 
 272      C9AB5402 
ARM GAS  /tmp/ccsa2nyi.s 			page 21


 272      DE
 273 00f8 00AD62F7 		.ascii	"\000\255b\367\033k|G\215\204\301\013\3744/\315\215\224"
 273      1B6B7C47 
 273      8D84C10B 
 273      FC342FCD 
 273      8D94
 274 010a 7E44D753 		.ascii	"~D\327S*\211\261U\245\262\254\310\373\212\326\240u\326"
 274      2A89B155 
 274      A5B2ACC8 
 274      FB8AD6A0 
 274      75D6
 275 011c BB33E194 		.ascii	"\2733\341\224\0232a\011\220\304a\2531\011\317$T\222"
 275      13326109 
 275      90C461AB 
 275      3109CF24 
 275      5492
 276 012e 0406C88B 		.ascii	"\004\006\310\213\356\373`\022\257L%\202\210\356\371"
 276      EEFB6012 
 276      AF4C2582 
 276      88EEF9
 277 013d 12BB5029 		.ascii	"\022\273P)\360\031\371\305\307\203\243i7\025\273\232"
 277      F019F9C5 
 277      C783A369 
 277      3715BB9A 
 278 014d 7FB67202 		.ascii	"\177\266r\002\021\012\324\305\360\266\344t\3572>\201"
 278      110AD4C5 
 278      F0B6E474 
 278      EF323E81 
 279 015d B2BFC8C4 		.ascii	"\262\277\310\304\352\313\360\211h\352\366\345\252\035"
 279      EACBF089 
 279      68EAF6E5 
 279      AA1D
 280 016b 5143DE98 		.ascii	"QC\336\230U\372v\306c\354\024\257\223i_\256\326\242"
 280      55FA76C6 
 280      63EC14AF 
 280      93695FAE 
 280      D6A2
 281 017d 8C9797AC 		.ascii	"\214\227\227\254~\030.7\327\352a\324\214\267\302\270"
 281      7E182E37 
 281      D7EA61D4 
 281      8CB7C2B8 
 282 018d FE3C8C96 		.ascii	"\376<\214\226\323\247is#\314\3267\033+aV\337\310\302"
 282      D3A76973 
 282      23CCD637 
 282      1B2B6156 
 282      DFC8C2
 283 01a0 F56C8CF1 		.ascii	"\365l\214\361Vc!\202\267\224=\323K\315\315F\374\007"
 283      56632182 
 283      B7943DD3 
 283      4BCDCD46 
 283      FC07
 284 01b2 811F8EBD 		.ascii	"\201\037\216\275"
 285              		.text
 286              		.section	.gnu.lto_dyn3_execute.90002a6b458a2d19,"",%progbits
 287 0000 789C9556 		.ascii	"x\234\225V\337k\034u\020\237\331\037\267\267\367c\223"
 287      DF6B1C75 
 287      109FD91F 
ARM GAS  /tmp/ccsa2nyi.s 			page 22


 287      B7B7F763 
 287      93
 288 0011 78C698C6 		.ascii	"x\306\230\306\204k\014%\244!K\254!\265\365A\377\207"
 288      846B0C25 
 288      A4214BAC 
 288      21B5F541 
 288      FF87
 289 0023 16F431DD 		.ascii	"\026\3641\335\013\271E\223HrU\212\017\375V#\024|)>E"
 289      0BB94593 
 289      4872558A 
 289      0FFD5623 
 289      147C293E 
 290 0038 454829AD 		.ascii	"EH)\255\340\213`\021$\344!\340\203\021\177\244\276\004"
 290      E08B6011 
 290      24E421E0 
 290      83117FA4 
 290      BE04
 291 004a 6DAB065F 		.ascii	"m\253\006_\212(\366\241*\245\212\347\314\354\36769w"
 291      8A28F6A1 
 291      2AA58AE7 
 291      CCECF736 
 291      3977
 292 005c 572E0B37 		.ascii	"W.\0137\373\375\354\316\314g>3\337\275]\003\014\370"
 292      FBFDECCE 
 292      CC673E33 
 292      DFBD5D03 
 292      0CF8
 293 006e EFB145BF 		.ascii	"\357\261E\277\177\\\200E:c\027\240q\351k\200\013y\303"
 293      7F5C8045 
 293      3A6317A0 
 293      71E96B80 
 293      0B79C3
 294 0081 F0767C50 		.ascii	"\360v|P\005s}\010T\311\324\310\022did\013\2625\312\011"
 294      05737D08 
 294      54C9D4C8 
 294      12646964 
 294      0BB235CA 
 295 0096 CA69E408 		.ascii	"\312i\344\010r4\312\013\312k\344\012r5*\010*hT\024T"
 295      7234CA0B 
 295      CA6BE40A 
 295      72352A08 
 295      2A685414 
 296 00ab D4A824A8 		.ascii	"\324\250$\250\244QYP\031\275\250D\017\221\027\200p\336"
 296      A4515950 
 296      19BDA844 
 296      0F911780 
 296      70DE
 297 00bd 302D3BE7 		.ascii	"0-;\347\344\335B\261T\366\360\374\363\310\312p\030."
 297      E4DD42B1 
 297      54F6F0FC 
 297      F3C8CA70 
 297      182E
 298 00cf 2BF5D6EE 		.ascii	"+\365\326\356\033\277\374\214o\253\315\2255\365w\263"
 298      1BBFFC8C 
 298      6FABCD95 
 298      35F577B3 
 299 00df 89182275 		.ascii	"\211\030\"u\341\011\204\000\3419\002X\225\223a\265\267"
ARM GAS  /tmp/ccsa2nyi.s 			page 23


 299      E1098400 
 299      E1390258 
 299      959361B5 
 299      B7
 300 00f0 E5436373 		.ascii	"\345Ccs\267\331\334\370c\355\247\037\261\362\264\011"
 300      B7D9DCF8 
 300      63EDA71F 
 300      B1F2B409 
 301 0100 219A36CC 		.ascii	"!\2326\314\340eJ\232#`9dl\227M\221a\211W\036\233n\206"
 301      E0654A9A 
 301      23603964 
 301      6C974D91 
 301      6189571E 
 302 0117 3DBCAAB0 		.ascii	"=\274\252\260\351e\323\307\246\237\315\000\233Av\031"
 302      E965D3C7 
 302      A69FCD00 
 302      9B417619 
 303 0127 E25595CD 		.ascii	"\342U\225\315a\206\303\274\032as\204\315(\23316\343"
 303      6186C3BC 
 303      1A617384 
 303      CD289B31 
 303      36E3
 304 0139 6C26D8C5 		.ascii	"l&\330\305\347\325$\233cl\246\330L\2639\316\346\004"
 304      E7D5249B 
 304      636CA6D8 
 304      4CB339CE 
 304      E604
 305 014b 19384926 		.ascii	"\0318I&G\325\333\260\242\324\245jT/\260T:N\221\345\206"
 305      47D5DBB0 
 305      A2D4A56A 
 305      542FB054 
 305      3A4E91E5 
 306 0160 9D4683CF 		.ascii	"\235F\203\317\346W\360\332\315\215[;Oj\347V\224\272"
 306      E657F0DA 
 306      CD8D5B3B 
 306      4F6AE756 
 306      94BA
 307 0172 72CD8F33 		.ascii	"r\315\2173\264\026\233_\354\\7\201\032p\005mJ'\371\002"
 307      B4169B5F 
 307      EC5C3781 
 307      1A70056D 
 307      4A27F902 
 308 0186 94DD3487 		.ascii	"\224\3354\207'\216\302\007J\251\335[\037_\035\243\""
 308      278EC207 
 308      4AA9DD5B 
 308      1F5F1DA3 
 308      22
 309 0197 22A49E0A 		.ascii	"\"\244\236\012\321y\027\336\271\240Tw\210\371W\341\201"
 309      D17917DE 
 309      B9A05477 
 309      88F957E1 
 309      81
 310 01a8 BAC82B77 		.ascii	"\272\310+w^\202\271\347\256t\372\014\343\031\274J\211"
 310      5E82B9E7 
 310      AE74FA0C 
 310      E319BC4A 
 310      89
ARM GAS  /tmp/ccsa2nyi.s 			page 24


 311 01b9 698DF11A 		.ascii	"i\215\361\032\200\013\\\375\350\320\014^#<\207'u\342"
 311      800B5CFD 
 311      E8D00C5E 
 311      233C8727 
 311      75E2
 312 01cb 65D21827 		.ascii	"e\322\030'.\020=\347\002\235\313\340\370\367[\361\257"
 312      2E103DE7 
 312      029DCBE0 
 312      F8F75BF1 
 312      AF
 313 01dc 5FFCF4CD 		.ascii	"_\374\364\315\333\327\235\250\35494)\011;\233M:\272"
 313      DBD79DA8 
 313      EC393429 
 313      093B9B4D 
 313      3ABA
 314 01ee C8631B56 		.ascii	"\310c\033VU\275u\327\216k,\006hJ\276\350\212z%\304\322"
 314      55BD75D7 
 314      8E6B2C06 
 314      684ABEE8 
 314      8A7A25C4 
 315 0203 3C62E428 		.ascii	"<b\344(\245\227o\230\234\217\357\347C\364\002\264\364"
 315      A5976F98 
 315      9C8FEFE7 
 315      43F402B4 
 315      F4
 316 0214 4DBEB2AA 		.ascii	"M\276\262\252\324_\344\3235\004\363\357\251\325gB\354"
 316      D45FE4D3 
 316      3504F3EF 
 316      A9D56742 
 316      EC
 317 0225 D68DA3E9 		.ascii	"\326\215\243\351\364D\262>\371\255\277E\233;\012\324"
 317      F444B23E 
 317      F9ADBF45 
 317      9B3B0AD4 
 318 0235 B5874811 		.ascii	"\265\207H\021\212\034{\277\034SoG\222\262m\266\"\034"
 318      8A1C7BBF 
 318      1C536F47 
 318      92B26DB6 
 318      221C
 319 0247 0A62270B 		.ascii	"\012b'\013E\202\335\272\356\306\002*A\324\201\250V\344"
 319      4582DDBA 
 319      EEC6022A 
 319      41D481A8 
 319      56E4
 320 0259 98101FE6 		.ascii	"\230\020\037\346\207}\345W\214\335\371\246\275\177\323"
 320      877DE557 
 320      8CDDF9A6 
 320      BD7FD3
 321 0268 9F26BEF5 		.ascii	"\237&\276\365!s\033Vv\327?\323]k5\201\262\366\006\262"
 321      21731B56 
 321      76D73FD3 
 321      5D6B3581 
 321      B2F606B2 
 322 027c B978E476 		.ascii	"\271x\344v\210\217DJ\356\357))\036XI\211\202D\211\321"
 322      888F444A 
 322      EEEF2929 
 322      1E584989 
ARM GAS  /tmp/ccsa2nyi.s 			page 25


 322      824489D1 
 323 0290 AEC4CB50 		.ascii	"\256\304\313PbpLR\211\227\242\304\202\273EQ\262q'\251"
 323      62704C52 
 323      8997A2C4 
 323      82BB4551 
 323      B27127A9 
 324 02a4 A42F4067 		.ascii	"\244/@gO\311\243z&wc%\335\007V\322CAi3\251d(\341\355"
 324      4FC9A37A 
 324      26776325 
 324      DD0756D2 
 324      43416933 
 325 02bd D3935452 		.ascii	"\323\223TRIQb\303\015\213\225\254m\305\033\2717\316"
 325      495162C3 
 325      0D8B95AC 
 325      6DC51BB9 
 325      37CE
 326 02cf DA1F607E 		.ascii	"\332\037`~O\311\2416\356\276\014n\2133$\271\373R\270"
 326      4FC9A136 
 326      EEBE0C6E 
 326      8B3324B9 
 326      FB52B8
 327 02e2 73700785 		.ascii	"sp\007\205\373\363\230\273\277#\356\201\014n\311\220"
 327      FBF398BB 
 327      BF23EE81 
 327      0C6EC990 
 328 02f2 E41E48E1 		.ascii	"\344\036H\341v\340&\310\004\277\354x\202\367\342\011"
 328      76E026C8 
 328      04BFEC78 
 328      82F7E209 
 329 0302 0E1E7882 		.ascii	"\016\036x\202C\024$\023\204\366\011V3\224\3448&\251"
 329      43142413 
 329      84F60956 
 329      3394E438 
 329      26A9
 330 0314 A49AA224 		.ascii	"\244\232\242$\017\217\313\277\355\326\275\330\355\260"
 330      0F8FCBBF 
 330      EDD6BDD8 
 330      EDB0
 331 0322 D437905E 		.ascii	"\3247\220^\237\225V\3370\005\245\3257\222Q\237\3031"
 331      9F9556DF 
 331      3005A5D5 
 331      3792519F 
 331      C331
 332 0334 C9FA4652 		.ascii	"\311\372FR\352s\301\223!o\307C>\322\321\220G3\250\363"
 332      EA73C193 
 332      216FC743 
 332      3ED2D190 
 332      4733A8F3 
 333 0348 9C21493D 		.ascii	"\234!I=\232B]\000[\250\277\215\251\307:\242\036\317"
 333      9A425D00 
 333      5BA8BF8D 
 333      A9C73AA2 
 333      1ECF
 334 035a A0763943 		.ascii	"\240v9C\222z<\205\272\010\206P\177\227\334]\217\005"
 334      927A3C85 
 334      BA088650 
 334      7F97DC5D 
ARM GAS  /tmp/ccsa2nyi.s 			page 26


 334      8F05
 335 036c FAE5246F 		.ascii	"\372\345$o\213\337\371\365?\030m\261\255?\343\234\023"
 335      8BDFF9F5 
 335      3F186DB1 
 335      AD3FE39C 
 335      13
 336 037d 071EA14F 		.ascii	"\007\036\241OA2\302\256\366\021Nf\210)pLR\314d\212\230"
 336      4132C2AE 
 336      F6114E66 
 336      8829704C 
 336      52CC648A 
 337 0392 1244CFE9 		.ascii	"\022D\317\351\367q\037\217u\324\307\251\014\352\"gH"
 337      F7711F8F 
 337      75D4C7A9 
 337      0CEA2267 
 337      48
 338 03a3 524FA550 		.ascii	"RO\245P\227A\036\323\265\037b\352\351lj\352\341F\334"
 338      97411ED3 
 338      B51F62EA 
 338      E96C6AEA 
 338      E146DC
 339 03b6 8FE3E4BA 		.ascii	"\217\343\344\272\257\232}\003h/\246\304\276RL\304\350"
 339      AF9A7D03 
 339      682FA6C4 
 339      BE524CC4 
 339      E8
 340 03c7 C9F7CB37 		.ascii	"\311\367\3137\364\015\270W\307)\372t\240\253\374\"\361"
 340      F40DB857 
 340      C729FA74 
 340      A0ABFC22 
 340      F1
 341 03d8 FDFAE2FC 		.ascii	"\375\372\342\374\254\037,\326\316\371\265\331\227\375"
 341      AC1F2CD6 
 341      CEF9B5D9 
 341      97FD
 342 03e6 A01E9E09 		.ascii	"\240\036\236\011\027\227\375\306\322\331\205\027\374"
 342      1797FDC6 
 342      D2D98517 
 342      FC
 343 03f3 C6EC72C3 		.ascii	"\306\354r\303_j\310\271vna\"\000\243\361\322\364\377"
 343      5F6AC8B9 
 343      766E6122 
 343      00A3F1D2 
 343      F4FF
 344 0405 86D08202 		.ascii	"\206\320\202\002\302\205\340\305\2635r\2527\352K\263"
 344      C285E0C5 
 344      B33572AA 
 344      37EA4BB3 
 345 0415 33B5E589 		.ascii	"3\265\345\211:\030\317\302\277?oB\241"
 345      3A18CFC2 
 345      BF3F6F42 
 345      A1
 346              		.text
 347              		.section	.gnu.lto_.symbol_nodes.90002a6b458a2d19,"",%progbits
 348 0000 789C4D8F 		.ascii	"x\234M\217\313R\324@\024\206\317\337=\231\011\220Q$"
 348      CB52D440 
 348      1486CFDF 
ARM GAS  /tmp/ccsa2nyi.s 			page 27


 348      3D990990 
 348      5124
 349 0012 30E1328A 		.ascii	"0\3412\212\302\332G\340%X\271\345I\316H\253 \013\261"
 349      C2DA47E0 
 349      2558B9E5 
 349      49CE48AB 
 349      200BB1
 350 0025 60AB5596 		.ascii	"`\253U\226y\015W\246\012\252\220\202\035l\225\006\361"
 350      790D57A6 
 350      0AAA9082 
 350      1D6C9506 
 350      F1
 351 0036 82784354 		.ascii	"\202xCTP\244O'eg\026\371\316\327\347\362\327(RtGS\371"
 351      50A44F27 
 351      656716F9 
 351      CED7E7F2 
 351      D7285274 
 352 004d 536FC1A0 		.ascii	"So\301\240\307[D\314O\036\316E\277\241\211)\332\003"
 352      C75B44CC 
 352      4F1ECE45 
 352      BFA18929 
 352      DA03
 353 005f 3558AB7D 		.ascii	"5X\253}0\325\232\337\320pMu\000V\265\327s@^\217\300"
 353      30D59ADF 
 353      D0704D75 
 353      0056B5D7 
 353      73405E8F 
 354 0074 3ABCAAF7 		.ascii	":\274\252\367\340Fm\350\017\"\271k\241\344\356;pT\233"
 354      E0466DE8 
 354      0F22B96B 
 354      A1E4EE3B 
 354      70549B
 355 0087 FD086E56 		.ascii	"\375\010nV\372tqN}\002\267j\253\237\321\214\334\352"
 355      FA74714E 
 355      7D02B76A 
 355      AB9FD18C 
 355      DCEA
 356 0099 215A820F 		.ascii	"!Z\202\017\210\005\307\350s\300\017p\\\216\366z\300"
 356      8805C7E8 
 356      73C00F70 
 356      5C8EF67A 
 356      C0
 357 00aa 17705FB0 		.ascii	"\027p_\260\237\340\376`\247\340\201`'\340$\330Wp;\330"
 357      9FE0FE60 
 357      A7E08160 
 357      27E024D8 
 357      57703BD8 
 358 00be 77F09560 		.ascii	"w\360\225`\277\300W\203\235\201\007\203\375\003_\013"
 358      BFC05783 
 358      9D810783 
 358      FD035F0B 
 359 00ce 76011E0A 		.ascii	"v\001\036\012\366\027\234\006\353)\036\016v_\361H\260"
 359      F6179C06 
 359      EB291E0E 
 359      765FF148 
 359      B0
 360 00df 7B8A3BC1 		.ascii	"{\212;\301\214\342,\330\274\342\321`w\025\217\3757M"
ARM GAS  /tmp/ccsa2nyi.s 			page 28


 360      8CE22CD8 
 360      BCE2D160 
 360      77158FFD 
 360      374D
 361 00f1 2915AF2F 		.ascii	")\025\257/\03432oJZ\317\224\362\007G\223\232F\311zf"
 361      1C33326F 
 361      4A5ACF94 
 361      F2074793 
 361      9A46C97A 
 362 0106 942F083B 		.ascii	"\224/\010;d=\207\310>\022\216P\276|\320\3204L\205gJ"
 362      643D87C8 
 362      3E128E50 
 362      BE7CD0D0 
 362      344C8567 
 363 011b 666507D2 		.ascii	"fe\007\322/*\332\325\256\326c\224KL4NF\330\252\030_"
 363      2F2ADAD5 
 363      AED66394 
 363      4B4C344E 
 363      46D8AA18 
 364 0130 27FBECB4 		.ascii	"'\373\354\264\245\343n\031\353XH\234\243\217s4K%\255"
 364      A5E36E19 
 364      EB58489C 
 364      A38F7334 
 364      4B25AD
 365 0143 A73BB72C 		.ascii	"\247;\267,t\261+\353M\035\273X\317\0112\253\207]\351"
 365      74B12BEB 
 365      4D1DBB58 
 365      CF0932AB 
 365      875DE9
 366 0156 179E1354 		.ascii	"\027\236\023T\354ljq\263\3538p\243\314KnV\234$\373\342"
 366      EC6C6A71 
 366      B3EB3870 
 366      A3CC4B6E 
 366      569C24FB 
 367 016b F8B66EBB 		.ascii	"\370\266n\273\277+\336v{\222\337\236&\263\266\326\024"
 367      BF2BDE76 
 367      7B92DF9E 
 367      26B3B6D6 
 367      14
 368 017c B79E5394 		.ascii	"\267\236S\224\257\357*q\263!L\350\345\306\214o\013\022"
 368      AFEF2A71 
 368      B3214CE8 
 368      E5C68C6F 
 368      0B12
 369 018e 7AFE2AF3 		.ascii	"z\376*\363\313\202)2[\211\357U\330\206\037\231\365\023"
 369      CB822932 
 369      5B89EF55 
 369      D8861F99 
 369      F513
 370 01a0 B352CFA7 		.ascii	"\263R\317\247R\347\356{\213\254\257\213\216\177\367"
 370      52E7EE7B 
 370      8BACAF8B 
 370      8E7FF7
 371 01af 57F24CEA 		.ascii	"W\362L\352\275\262\036\247KQ\225\371\333"
 371      BDB21EA7 
 371      4B5195F9 
 371      DB
ARM GAS  /tmp/ccsa2nyi.s 			page 29


 372              		.text
 373              		.section	.gnu.lto_.refs.90002a6b458a2d19,"",%progbits
 374 0000 789C758D 		.ascii	"x\234u\215Q\016\200 \014C\273N\004!(\306\037/\355\235"
 374      510E8020 
 374      0C43BB4E 
 374      042128C6 
 374      1F2FED9D 
 375 0014 2D6AF8B3 		.ascii	"-j\370\263\315^\326\244\313\010\342\302\253\0030v\271"
 375      CD5ED6A4 
 375      CB08E2C2 
 375      AB033076 
 375      B9
 376 0025 4D835FC6 		.ascii	"M\203_\306\260r\320\314\214\235g\202aa\226{\377\207"
 376      B072D0CC 
 376      8C9D6782 
 376      6161967B 
 376      FF87
 377 0037 E3563D2B 		.ascii	"\343V=+\314^\237O\356+76\356b \264\025&\245\310\212"
 377      CC5E9F4F 
 377      EE2B3736 
 377      EE6220B4 
 377      1526A5C8 
 378 004c 1BDA7802 		.ascii	"\033\332x\002\317"
 378      CF
 379              		.text
 380              		.section	.gnu.lto_.decls.90002a6b458a2d19,"",%progbits
 381 0000 789CBD5C 		.ascii	"x\234\275\\yt\024U\272\257\252\356N\247\223\310\346"
 381      79741455 
 381      BAAFAAEE 
 381      4EA793C8 
 381      E6
 382 0011 3201515B 		.ascii	"2\001Q[G\035\234\247\204\004\024<\357\215\300\303Q\346"
 382      471D9CA7 
 382      8404143C 
 382      EF8DC0C3 
 382      51E6
 383 0023 BDD1F128 		.ascii	"\275\321\361(s\216\347\274wNO\321\251\220~f\233\352"
 383      738EE7BC 
 383      774E4FD1 
 383      A9907E66 
 383      9BEA
 384 0035 0AC29B3F 		.ascii	"\012\302\233?,\002\"#\016\204\204%l1(`D\220E\001\311"
 384      2C022223 
 384      0E848425 
 384      6C312860 
 384      44904501 
 385 004a B0140A21 		.ascii	"\260\024\012!\200@X\303&\304\240@@\201\000\262C\336"
 385      804058C3 
 385      26C4A040 
 385      408100B2 
 385      43DE
 386 005c 7797EAAE 		.ascii	"w\227\352\256\252\256\252\256\3128\257\317\371j\275"
 386      AAAEAAAE 
 386      CA38AFCF 
 386      F96ABD
 387 006b F777BFFD 		.ascii	"\367w\277\375\336\272u\2539\206c\202>\206i\207\337W"
 387      DEBA75AB 
ARM GAS  /tmp/ccsa2nyi.s 			page 30


 387      39866382 
 387      3E866987 
 387      DF57
 388 007d FFC5305B 		.ascii	"\377\3050[\323\030&\3000\314s@\235\200\340\0263\017"
 388      D31826C0 
 388      30CC7340 
 388      9D80E016 
 388      330F
 389 008f 6812CB30 		.ascii	"h\022\3130\223\201\246\000M\005\232\0064\003\250\012"
 389      9381A600 
 389      4D059A06 
 389      3403A80A 
 390 009f 6816D062 		.ascii	"h\026\320b\240%@\213\240\254\037\010\016\231\245\260"
 390      A025408B 
 390      A0AC1F08 
 390      0E99A5B0 
 391 00af E901FB4D 		.ascii	"\351\001\373M\260\337\012\264\003\250\021h/\320\001"
 391      B0DF0AB4 
 391      03A81168 
 391      2FD001
 392 00be A0434027 		.ascii	"\240C@'\200N\002\235\005j\003\272\012t\035\3506P*\307"
 392      804E029D 
 392      056A03BA 
 392      0A741DE8 
 392      36502AC7 
 393 00d2 30770175 		.ascii	"0w\001u\005\372\005\320\375@\217\000\375\012\350)\240"
 393      05FA05D0 
 393      FD408F00 
 393      FD0AE829 
 393      A0
 394 00e3 6CA07E40 		.ascii	"l\240~@\377\0124\020\010Xg\006\303~\010\320o\201^\004"
 394      FF0A3410 
 394      08586706 
 394      C37E08D0 
 394      6F815E04 
 395 00f7 9A03F43E 		.ascii	"\232\003\364>\320\207@k\2006\0035\002i\177\210\267\307"
 395      D087406B 
 395      80360335 
 395      02697F88 
 395      B7C7
 396 0109 A8AC48E6 		.ascii	"\250\254H\346\014 /\320\022\240\201T\236\026\240#P\356"
 396      0C202FD0 
 396      12A08154 
 396      9E16A023 
 396      50EE
 397 011b 1CECFF00 		.ascii	"\034\354\377\000\365\207\002\035\006:\201\256sDG\347"
 397      F587021D 
 397      063A81AE 
 397      734447E7 
 398 012b E1FE0F40 		.ascii	"\341\376\017@G9\275\236\356\000\315\205k\337\000\035"
 398      4739BD9E 
 398      EE00CD85 
 398      6BDF001D 
 399 013b 030A00FD 		.ascii	"\003\012\000\375\005\350\006\\?\016\373SHw\260\337\006"
 399      05E8065C 
 399      3F0EFB53 
 399      4877B0DF 
ARM GAS  /tmp/ccsa2nyi.s 			page 31


 399      06
 400 014c FB662EAE 		.ascii	"\373f.\256\353\213@\036\300}\031\256\205\200~\204\343"
 400      EB8B401E 
 400      C07D19AE 
 400      85807E84 
 400      E3
 401 015d 74CAEFB7 		.ascii	"t\312\357\267p\376=G\364\206t\265\211\352\353:\325\347"
 401      70FE3D47 
 401      F48674B5 
 401      89EAEB3A 
 401      D5E7
 402 016f 55AA4F54 		.ascii	"U\252OT\037\351a0\325\205\366\207\352 \231\007\301\376"
 402      1FE96130 
 402      D585F687 
 402      EA209907 
 402      C1FE
 403 0181 27A0D370 		.ascii	"'\240\323p\277\023\320\177\263\344>G\313 \033\240K\365"
 403      BF13D07F 
 403      B3E43E47 
 403      CB201BA0 
 403      4BF5
 404 0193 ACBE3EB2 		.ascii	"\254\276>\262g\012\354[\251\374\252? \314n\\\334\007"
 404      670AEC5B 
 404      A9FCAA3F 
 404      20CC6E5C 
 404      DC07
 405 01a5 385A16D9 		.ascii	"8Z\026\331\221\323\330H\373kt\201\325\230\004\013\371"
 405      91D3D848 
 405      FB6B7481 
 405      D598040B 
 405      F9
 406 01b6 D7A3D486 		.ascii	"\327\243\324\206\252=\235\330q\036\354k\200\316 \275"
 406      AA3D9DD8 
 406      711EEC6B 
 406      80CE20BD 
 407 01c6 72C4AF7F 		.ascii	"r\304\257\177\011\373\037\014\366\354\311\305\355\211"
 407      09FB1F0C 
 407      F6ECC9C5 
 407      ED89
 408 01d4 EC877834 		.ascii	"\354\207x4\332P\215\007d\303\037\341<\223K\264e\032"
 408      DA508D07 
 408      64C31FE1 
 408      3C934BB4 
 408      651A
 409 01e6 E555B5E5 		.ascii	"\345U\265\345#\324\3077\031l\210|\337K\355\370>\365"
 409      23D4C737 
 409      196C887C 
 409      DF4BEDF8 
 409      3EF5
 410 01f8 6DA32D0F 		.ascii	"m\243-\017P]\235\243|\243c\024\213\275\270\270-Q\231"
 410      505D9DA3 
 410      7CA36314 
 410      8BBDB8B8 
 410      2D5199
 411 020b 5F515DFE 		.ascii	"_Q]\376\326P\037\305b*\325\217\2523\244\247\363P.\007"
 411      D6501FC5 
 411      622AD58F 
ARM GAS  /tmp/ccsa2nyi.s 			page 32


 411      AA33A4A7 
 411      F3502E07 
 412 021f E802506F 		.ascii	"\350\002PoZ\307C\313g\3238Dx\315\006\337@q\375\240\001"
 412      5AC743CB 
 412      67D33844 
 412      78CD06DF 
 412      4071FDA0 
 413 0234 4FCD0B56 		.ascii	"O\315\013V\372?Jm\217x7\306\3170M\254\250\274\264\001"
 413      FA3F4A6D 
 413      8F7837C6 
 413      CF304DAC 
 413      A8BCB401 
 414 0248 FD1BD045 		.ascii	"\375\033\320E\204\001\327\237\007\272\004\307OS\233"
 414      8401D79F 
 414      07BA04C7 
 414      4F539B
 415 0257 6875FD1A 		.ascii	"hu\375\032\334\033\302\022\235\237\320\350\\\215\035"
 415      DC1BC212 
 415      9D9FD0E8 
 415      5C8D1D
 416 0266 A4EF8134 		.ascii	"\244\357\2014\227 \331\372Q\377RcG\373Kg\336\225\345"
 416      9720D9FA 
 416      51FF5263 
 416      47FB4B67 
 416      DE95E5
 417 0279 32B966BC 		.ascii	"2\271f\274<\264\241S7f\212\014\277\340\004\204\372:"
 417      3CB4A153 
 417      37668A0C 
 417      BFE00484 
 417      FA3A
 418 028b CBB39D02 		.ascii	"\313\263\235\002\214\314\341\243\214\000\023dPj\231"
 418      8CCCE1A3 
 418      8C001364 
 418      506A99
 419 029a 2FCBE5CD 		.ascii	"/\313\345\315\013\336\177P\366\362\354\007l7\000\356"
 419      0BDE7F50 
 419      F6F2EC07 
 419      6C3700EE 
 420 02aa CF32BF66 		.ascii	"\3172\277f>\206z\345\262\374\301/\015\272\303\277\344"
 420      3E867AE5 
 420      B2FCC12F 
 420      0DBAC3BF 
 420      E4
 421 02bb B81CF37B 		.ascii	"\270\034\363{\226\341\331\205\000\310\263\013\330_\223"
 421      96E1D985 
 421      00C8B30B 
 421      D85F93
 422 02ca 866465F7 		.ascii	"\206de\367\370\014\324\020\272\316\320;&\277\207\231"
 422      F80CD410 
 422      BACED03B 
 422      26BF8799 
 423 02da 1A1042D9 		.ascii	"\032\020B\331[?\247\273\\\363%\253\223\351>f\032j\033"
 423      5B3FA7BB 
 423      5CF325AB 
 423      93E93E66 
 423      1A6A1B
 424 02ed 4E6456E2 		.ascii	"NdV\342\331\201\351*\003A\265}/\306\340\331O\330\373"
ARM GAS  /tmp/ccsa2nyi.s 			page 33


 424      D981E92A 
 424      0341B57D 
 424      2FC6E0D9 
 424      4FD8FB
 425 0300 A84B601D 		.ascii	"\250K`\035\005\230\011q\024\306\264\026\325F\333\370"
 425      05980971 
 425      14C6B416 
 425      D546DBF8 
 426 0310 0397D832 		.ascii	"\003\227\3302\300\347\331%l\000jOdY\035\263<\353\013"
 426      C0E7D925 
 426      6C006A4F 
 426      64591DB3 
 426      3CEB0B
 427 0323 68F9C5E7 		.ascii	"h\371\305\347j\001\204\207o\323\003\324{uFe\376\350"
 427      6A018487 
 427      6FD303D4 
 427      7B754665 
 427      FEE8
 428 0335 8955B069 		.ascii	"\211U\260i|\377\266\325O\310r*\317.\002\2719\210Y}\323"
 428      7CFFB6D5 
 428      4FC8722A 
 428      CF2E02B9 
 428      3988597D 
 429 034a 3A5D1019 		.ascii	":]\020\031\255\344_\001\000\346*N\270\3071M\254j/38"
 429      ADE45F01 
 429      00E62A4E 
 429      B8C7314D 
 429      AC6A2F33 
 430 035f 7AA8635E 		.ascii	"z\250c^k+\271\371\3733\015\236Y\262R\325\347n\246\002"
 430      6B2BB9F9 
 430      FB330D9E 
 430      59B252D5 
 430      E76EA602 
 431 0373 D94749D1 		.ascii	"\331GI\321:\307 \025!\0257\326\202\033[\311\336\255"
 431      3AC72015 
 431      211537D6 
 431      821B5BC9 
 431      DEAD
 432 0385 778E69F5 		.ascii	"w\216i\365\236 \271\234\3347f\214\237\334C\256y/\223"
 432      9E20B99C 
 432      DC37668C 
 432      9FDC43AE 
 432      792F93
 433 0398 5A55192F 		.ascii	"ZU\031/O`\307,\357i\336\"U\355\272\311\273>\240v]\203"
 433      4F60C72C 
 433      EF69DE22 
 433      55EDBAC9 
 433      BB3EA076 
 434 03ae ED5ACBE9 		.ascii	"\355Z\313\351\225\353\006\254\251r\327F\012\266\026"
 434      95EB06AC 
 434      A972D746 
 434      0AB616
 435 03bd 831DEC38 		.ascii	"\203\035\3548XMeSO\024\026\0330\320t\217\321\333\002"
 435      584D6553 
 435      4F14161B 
 435      30D0748F 
 435      D1DB02
ARM GAS  /tmp/ccsa2nyi.s 			page 34


 436 03d0 066F0BE8 		.ascii	"\006o\013\350\275-\020\210\037\264\253?}\334\376S\353"
 436      BD2D1088 
 436      1FB4AB3F 
 436      7DDCFE53 
 436      EB
 437 03e1 70CC3C8F 		.ascii	"p\314<\217jP3!\223{\317\346\223\265,\212t\232Xj\006"
 437      6A503321 
 437      937BCFE6 
 437      93B52C8A 
 437      749A586A 
 438 03f6 69225407 		.ascii	"i\"T\007\205\270\332dL*3\353\331 \271\234\314odey\375"
 438      85B8DA64 
 438      4C2A33EB 
 438      D920B99C 
 438      CC6F6465 
 439 040c 7656AEC8 		.ascii	"vV\256\310\240^Z\223b\225\012\020\322\026\243\203\316"
 439      A05E5A93 
 439      62950A10 
 439      D216A383 
 439      CE
 440 041d AEE782E4 		.ascii	"\256\347\202\344rr\007\235;~nb\362\322\351(\241\275"
 440      7272079D 
 440      3B7E6E62 
 440      F2D2E928 
 440      A1BD
 441 042f 6D6CBA0A 		.ascii	"ml\272\012\3021\037a\225n\261(\236L\245eJu}F9\317\263"
 441      C2311F61 
 441      956EB128 
 441      9E4CA565 
 441      4A757D46 
 442 0446 F3701659 		.ascii	"\363p\026Y\334Q\260\330\217c\226c\214M\035\314\020e"
 442      DC51B0D8 
 442      8F639663 
 442      8C4D1DCC 
 442      1065
 443 0458 CA67349B 		.ascii	"\312g4\233\253I\3653\327x\301\004\236\276\350\250\337"
 443      AB49F533 
 443      D778C104 
 443      9EBEE8A8 
 443      DF
 444 0469 6930EA3C 		.ascii	"i0\352<\206\314g\206\221j%\227\254\034~\241\234W;D\215"
 444      86CC6786 
 444      916A2597 
 444      AC1C7EA1 
 444      9C573B44 
 445 047e 37C9AC5A 		.ascii	"7\311\254Z\267\013\023K\032\225\307V\365\306\311}\037"
 445      B70B134B 
 445      1A95C756 
 445      F5C6C97D 
 445      1F
 446 048f EE697F32 		.ascii	"\356i\1772DzR\030\216\271\215\2534\031C\340'>H\256&"
 446      447A5218 
 446      8EB98DAB 
 446      341943E0 
 446      273E48AE 
 447 04a4 8F80ABDF 		.ascii	"\217\200\253\337\007 \000L\2322\313r3Z\232\273o\225"
 447      0720004C 
ARM GAS  /tmp/ccsa2nyi.s 			page 35


 447      9A32CB72 
 447      335A9ABB 
 447      6F95
 448 04b6 E52E3C7B 		.ascii	"\345.<{\004s\274\326k\312\261u\300r\314\327\270\312"
 448      0473BCD6 
 448      6BCAB175 
 448      C072CCD7 
 448      B8CA
 449 04c8 3103C7CD 		.ascii	"1\003\307\3157O6\364\250\302\310\307\034\015\006\366"
 449      374F36F4 
 449      A8C2C8C7 
 449      1C0D06F6 
 450 04d8 9BC59389 		.ascii	"\233\305\223\211\0245^\265\371\347\343bLoQ2\261\336"
 450      14355EB5 
 450      F9E7E362 
 450      4C6F5132 
 450      B1DE
 451 04ea 4F60292A 		.ascii	"O`)*|I\365\256\207\341\230\331\270\312\311D)\232\357"
 451      7C49F5AE 
 451      87E198D9 
 451      B8CAC944 
 451      299AEF
 452 04fd 27529C74 		.ascii	"'R\234t$\305M*\005\317\266\340\300\\\020\203\355XP\335"
 452      24C54D2A 
 452      05CFB6E0 
 452      C05C1083 
 452      ED5850DD 
 453 0511 21514EC0 		.ascii	"!QN\300\026\273\006\013\352\300*\267\220\010u>Rj:{\272"
 453      16BB060B 
 453      EAC02AB7 
 453      9008753E 
 453      526A3A7B 
 454 0526 FB3A2CFE 		.ascii	"\373:,\3769\034\323\267|\246}\240\023\244\312\315jw"
 454      391CD3B7 
 454      7CA67DA0 
 454      13A4CACD 
 454      6A77
 455 0538 DA86A1C6 		.ascii	"\332\206\241\306\245t\024\252r\306\332g\261\261/c\240"
 455      A57414AA 
 455      72C6DA67 
 455      B1B12F63 
 455      A0
 456 0549 BFA518BB 		.ascii	"\277\245\030\273S\277\241;\365\353\2739\177 ~@\007o"
 456      53BFA13B 
 456      F5EBBB39 
 456      7F207E40 
 456      076F
 457 055b FFDCE21C 		.ascii	"\377\334\342\034S\225\342\300r\3269\250\371\306\311"
 457      5395E2C0 
 457      72D639A8 
 457      F9C6C9
 458 056a C69E3365 		.ascii	"\306\2363ee\234G\215G\313~\215c\336\307m]7z\362\272"
 458      659C478D 
 458      47CB7E8D 
 458      63DEC76D 
 458      5D377AF2 
 459 057f C93F96B1 		.ascii	"\311?\226\261c\260\001\256;r\345\325\333g8\013\310\024"
ARM GAS  /tmp/ccsa2nyi.s 			page 36


 459      63B001AE 
 459      3B72E5D5 
 459      DB67380B 
 459      C814
 460 0591 B5FD5CDC 		.ascii	"\265\375\\\334\376G\270\375;\306\366\233.\235~\216D"
 460      FE47B8FD 
 460      3BC6F69B 
 460      2E9D7E8E 
 460      44
 461 05a2 D21D47CD 		.ascii	"\322\035G\315\037\3375\325\254\177}\356^;\327X7y\313"
 461      1FDF35D5 
 461      AC7F7DEE 
 461      5E3BD758 
 461      3779CB
 462 05b5 452A6419 		.ascii	"E*d\031\207B\246-\3019\006\246k\033\303\347\272\201"
 462      8742A62D 
 462      C13906A6 
 462      6B1BC3E7 
 462      BA81
 463 05c7 F28D18FB 		.ascii	"\362\215\030\373\035\212X\220S\031\370\361\012Y\376"
 463      1D8A5890 
 463      5319F8F1 
 463      0A59FE
 464 05d6 6B8ACAC3 		.ascii	"k\212\312\303\035\327\210A\235&.\356\3029\200\200\225"
 464      1DD78841 
 464      9D262EEE 
 464      C2398080 
 464      95
 465 05e7 F91D8059 		.ascii	"\371\035\200YzR\231rY\0136\3365\230\236\263+Z\260w\235"
 465      7A529972 
 465      590B36DE 
 465      35989EB3 
 465      2B5AB077 
 466 05fc 8075B1E6 		.ascii	"\200u\261\346\354\232\026l\222k0=g7\264`\025N\3002\255"
 466      EC9A166C 
 466      926B303D 
 466      6737B460 
 466      154EC032 
 467 0611 39BBA505 		.ascii	"9\273\245\005\233\356\032L\317\331\035-\330,'`Ak\316"
 467      9BEE1A4C 
 467      CFD91D2D 
 467      D82C2760 
 467      416BCE
 468 0624 CAF768C0 		.ascii	"\312\367h\300\252]\203\3519\253\320\202}\340\004\254"
 468      AA5D83E9 
 468      39ABD082 
 468      7DE004AC 
 469 0634 97356753 		.ascii	"\2275gS\265`\013]\203\3519\233\256\005[\344\004\254"
 469      B5600B5D 
 469      83E9399B 
 469      AE055BE4 
 469      04AC
 470 0646 8F356755 		.ascii	"\2175gUZ\260O]\203\3519\233\245\005[\341\004l\2005g"
 470      5AB04F5D 
 470      83E9399B 
 470      A5055BE1 
 470      046C8035 
ARM GAS  /tmp/ccsa2nyi.s 			page 37


 471 065b 73B460AB 		.ascii	"s\264`\253\\\203\3519[\246\005\253s\0026\310\232\263"
 471      5C83E939 
 471      5BA605AB 
 471      730236C8 
 471      9AB3
 472 066d 155AB075 		.ascii	"\025Z\260u\256\301\364\234}\256\005S\234\200\015\265"
 472      AEC1F49C 
 472      7DAE0553 
 472      9C800DB5 
 473 067d E66C9516 		.ascii	"\346l\225\026\354+\327`z\316\276\320\202\325;\001{\305"
 473      EC2BD760 
 473      7ACEBED0 
 473      82D53B01 
 473      7BC5
 474 068f 9AB33A2D 		.ascii	"\232\263:-\330V\327`z\316\326j\301\276v\002\366\272"
 474      D856D760 
 474      7ACED66A 
 474      C1BE7602 
 474      F6BA
 475 06a1 3567EBB5 		.ascii	"5g\353\265`\215\256\301\364\2345j\301\3669\001\373\223"
 475      608DAEC1 
 475      F49C356A 
 475      C1F63901 
 475      FB93
 476 06b3 0967B19F 		.ascii	"\011g\261\237Y=\324M\337\326>;7\371\325!\216\313>\232"
 476      593DD44D 
 476      DFD63E3B 
 476      37F9D521 
 476      8ECB3E9A 
 477 06c7 89631CF1 		.ascii	"\211c\034\361\273\035\222\351\344FO\006=\353h?O\206"
 477      BB1D92E9 
 477      E4464F06 
 477      3DEB683F 
 477      4F86
 478 06d9 E7DF3A41 		.ascii	"\347\337:A\264\351\000gm\321\214\365[]\203\031\\\031"
 478      B4E90067 
 478      6DD18CF5 
 478      5B5D8319 
 478      5C19
 479 06eb 81E9C64E 		.ascii	"\201\351\306Nt\200\335\274@\311\254\212\217\336RU,4"
 479      7480DDBC 
 479      40C9AC8A 
 479      8FDE5255 
 479      2C34
 480 06fd 3744866A 		.ascii	"7D\206j\345\262\314\305\012\313\231\231\346eyv\003\367"
 480      E5B2CCC5 
 480      0ACB9999 
 480      E6657976 
 480      03F7
 481 070f 186C152E 		.ascii	"\030l\025.\020\343\202\034\253Gd\352\250\315o6\303\214"
 481      10E3821C 
 481      AB4764EA 
 481      A8CD6F36 
 481      C38C
 482 0721 01ECAB5A 		.ascii	"\001\354\253Zy\302:N\343\011W\234\250\311\246k?\276"
 482      79C23A4E 
 482      E309579C 
ARM GAS  /tmp/ccsa2nyi.s 			page 38


 482      A8C9A66B 
 482      3FBE
 483 0733 65CE2FE4 		.ascii	"e\316/\344f\205\325\310k\253\034\364H\324H\037\2116"
 483      6685D5C8 
 483      6BAB1CF4 
 483      48D4481F 
 483      8936
 484 0745 71E8F1E3 		.ascii	"q\350\361\343\266\337\3649\306\011R\345\222\177\301"
 484      B6DFF439 
 484      C60952E5 
 484      927FC1
 485 0754 CF315B30 		.ascii	"\3171[0\320\370\324\216\002U\316\250\036\200\201\266"
 485      D0F8D48E 
 485      0255CEA8 
 485      1E8081B6 
 486 0764 61A04906 		.ascii	"a\240I\006 \236e\015\017D\254\376\221\205\015\304\017"
 486      209E650D 
 486      0F44ACFE 
 486      91850DC4 
 486      0F
 487 0775 12E6087F 		.ascii	"\022\346\010\177\306\262\360\034\224j0\227N\234\244"
 487      C6B2F01C 
 487      946A3097 
 487      4E9CA4
 488 0784 832708BA 		.ascii	"\203'\010\272\203\017\255\371T\226\307\246\2701X\003"
 488      830FADF9 
 488      5496C7A6 
 488      B8315803 
 489 0794 35D82EAC 		.ascii	"5\330.\254\236\232\004\365l\341\334\351\207cj]\313\321"
 489      9E9A04F5 
 489      6CE1DCE9 
 489      87636A5D 
 489      CBD1
 490 07a6 CB2087D2 		.ascii	"\313 \207\322\313\275\034\007\251\034\373\260\034\313"
 490      CBBD1C07 
 490      A91CFBB0 
 490      1CCB
 491 07b4 7E0639BE 		.ascii	"~\0069\276p-G\037\215\034hz\244\261\367\032\234\004"
 491      702D471F 
 491      8D1C687A 
 491      A4B1F71A 
 491      9C04
 492 07c6 1D4DB81E 		.ascii	"\035M\270\036\342\014\023\256\207\266"
 492      E20C13AE 
 492      87B6
 493 07d0 A1995D74 		.ascii	"\241\231]t\331\301\274\3266\315\354\205\354l\366\342"
 493      D9C1BCD6 
 493      36CDEC85 
 493      EC6CF6E2 
 494 07e0 02D5D851 		.ascii	"\002\325\330Q\254\261\015f\021\346\014i\357\246\345"
 494      ACB10D66 
 494      11E60C69 
 494      EFA6E5
 495 07ef 74F6E238 		.ascii	"t\366\3428\206\332\334a\250\312\246\325$X[0\320\216"
 495      86DADC61 
 495      A8CAA6D5 
 495      24585B30 
ARM GAS  /tmp/ccsa2nyi.s 			page 39


 495      D08E
 496 0801 042BA618 		.ascii	"\004+\246\030\214\230\2427\"\234\242\226\256\341\271"
 496      8C98A237 
 496      229CA296 
 496      AEE1B9
 497 0810 F9B7E815 		.ascii	"\371\267\350\025t\342g\376\337\353AO\214\331G\006t\331"
 497      74E267FE 
 497      DFEB414F 
 497      8CD94706 
 497      74D9
 498 0822 13C71DE8 		.ascii	"\023\307\035\350\3115\264\027%F:\366\017!\226)\237M"
 498      C935B417 
 498      25463AF6 
 498      0F219629 
 498      9F4D
 499 0834 5467E006 		.ascii	"Tg\340\006\242~\364\324?\010\267{\273\37393\245\007"
 499      A27EF4D4 
 499      3F08B77B 
 499      BBFB3933 
 499      A507
 500 0846 F1BAB358 		.ascii	"\361\272\263X\240s\011\026n3\346c'SH7:*H\354\3071c\002"
 500      A0730916 
 500      6E33E663 
 500      27534837 
 500      3A2A48EC 
 501 085e 0E7ACBA0 		.ascii	"\016z\313\240\235\265\256\321pO:\017\025\233_>\235\331"
 501      9DB5AED1 
 501      704F3A0F 
 501      159B5F3E 
 501      9DD9
 502 0870 8095D1C6 		.ascii	"\200\225\321\306\241\231\331\267\003\346\363\3136\363"
 502      A199D9B7 
 502      03E6F3CB 
 502      36F3
 503 087e 59537195 		.ascii	"YSq\225\313\\\302\314lcw2\237\204n9\230\316\322\315"
 503      CB5CC2CC 
 503      6C637732 
 503      9F846E39 
 503      98CED2CD 
 504 0892 CCF2EC19 		.ascii	"\314\362\354\031\226\243\260\035\325\247\316\204q\376"
 504      96A3B01D 
 504      D5A7CE84 
 504      71FE
 505 08a0 78F60A1E 		.ascii	"x\366\012\036\030]\345\036\326\352~\276k\335\007\265"
 505      185DE51E 
 505      D6EA7EBE 
 505      6BDD07B5 
 506 08b0 BA576E6E 		.ascii	"\272Wnn\237\303\022\376\311L\375\247F\274A\332A+=\264"
 506      9FC312FE 
 506      C94CFDA7 
 506      46BC41DA 
 506      412B3DB4 
 507 08c4 7C409795 		.ascii	"|@\227\225\212\235x\264I\202n\215\023\346l\236\251\253"
 507      8A9D78B4 
 507      49826E8D 
 507      13E66C9E 
 507      A9AB
ARM GAS  /tmp/ccsa2nyi.s 			page 40


 508 08d6 091871F8 		.ascii	"\011\030q\370\015\256\301\202:\260u\223L\337\2545Y\000"
 508      0DAEC182 
 508      3AB07593 
 508      4CDFAC35 
 508      5900
 509 08e8 22EDCB1E 		.ascii	"\"\355\313\036\315\230p\233\223\366m\036\303\367\357"
 509      CD98709B 
 509      93F66D1E 
 509      C3F7EF
 510 08f7 545F6491 		.ascii	"T_d\221I\357}\256\361\364\362\264M\322e\244\343N\340"
 510      49EF7DAE 
 510      F1F4F2B4 
 510      4DD265A4 
 510      E34EE0
 511 090a 063976BC 		.ascii	"\0069v\274\370+\013\236=\315\"\307ke\037\206\355Y\274"
 511      F82B0B9E 
 511      3DCD22C7 
 511      6B651F86 
 511      ED59BC
 512 091d FD116FAF 		.ascii	"\375\021o\257\341\355\027\034\332\326\341\355Z\274\375"
 512      E1ED171C 
 512      DAD6E1ED 
 512      5ABCFD
 513 092c 0A6F77E2 		.ascii	"\012ow\342\355^\274=\210\267\027\360\366:\336\336\304"
 513      ED5EBC3D 
 513      88B717F0 
 513      F63ADEDE 
 513      C4
 514 093d DBDB78DB 		.ascii	"\333\333x\333\216\267e\036\264\035\347\321\270\267\225"
 514      8EB7651E 
 514      B41DE7D1 
 514      B8B795
 515 094c 5D5AF4CB 		.ascii	"]Z\364\313\020\324\250;\326\341\367!\007\342\357Cx\366"
 515      10D4A83B 
 515      D6E1F721 
 515      07E2EF43 
 515      78F6
 516 095e 07D76041 		.ascii	"\007\327`A;M\036\323h\262\031k\362[\254\267\361\036"
 516      3B4D1ED3 
 516      68B2196B 
 516      F25BACB7 
 516      F11E
 517 0970 5D209F0A 		.ascii	"] \237\012\250o\350l\002\317Z\204\346\212c\353u\257"
 517      A86FE86C 
 517      02CF5A84 
 517      E68A63EB 
 517      75AF
 518 0982 88CE1BF1 		.ascii	"\210\316\033\361\222>\210\352UrGh\350c\010\225}6\241"
 518      923E88EA 
 518      55724768 
 518      E8630895 
 518      7D36A1
 519 0995 32511B2A 		.ascii	"2Q\033*W]\267m\253\301&\215\006\017a\015\036\306\032"
 519      575DB76D 
 519      ABC1268D 
 519      060F610D 
 519      1EC61A
ARM GAS  /tmp/ccsa2nyi.s 			page 41


 520 09a8 9C803DE6 		.ascii	"\234\200=\346]\275\036\357\004\014\357e\365\257B5\207"
 520      5DBD1EEF 
 520      040CEF65 
 520      F5AF4235 
 520      87
 521 09b9 CE0261A1 		.ascii	"\316\002a\241\246\361Z\334\370\307\270\361\317\361v"
 521      A6F15ADC 
 521      F8C7B8F1 
 521      CFF176
 522 09c8 2FEBC05D 		.ascii	"/\353\300]\347\305'\031t\032\355\312\224\343\267\036"
 522      E7C52719 
 522      741AEDCA 
 522      94E3B71E 
 523 09d8 559DC8E3 		.ascii	"U\235\310\343)\255\237\251\326\367\320\372\223=]\361"
 523      29AD9FA9 
 523      D6F7D0FA 
 523      933D5DF1 
 524 09e8 916E3448 		.ascii	"\221n4H&P,Z,\367\304\037\2013\002\361\003.\011\247\223"
 524      26502C5A 
 524      2CF7C41F 
 524      813302F1 
 524      032E09A7 
 525 09fd 3CE69C1A 		.ascii	"<\346\234\032VO\035\345\254\233\256\360\350\226O\321"
 525      564F1DE5 
 525      AC9BAEF0 
 525      E8964FD1 
 526 0a0d 37214916 		.ascii	"7!I\0261\241rS<\272\2406\323T\315 \203\252\272\350\005"
 526      31A17253 
 526      3CBAA036 
 526      D354CD20 
 526      83AABAE8 
 527 0a22 E3D969AE 		.ascii	"\343\331i\256U5\335BUl\022v\247Z\250Jk\324-qN\345)1"
 527      5535DD42 
 527      556C1276 
 527      A75AA84A 
 527      6BD42D71 
 528 0a3a 372CEF46 		.ascii	"7,\357F!\252\\3;\323\202\331\311\335\222p;\303\202["
 528      21AA5C33 
 528      3BD382D9 
 528      C9DD9270 
 528      3BC3825B 
 529 0a4e 93176F7F 		.ascii	"\223\027o\177R\353\242\365\215t\2745s\305\365\314\261"
 529      52EBA2F5 
 529      8D74BC35 
 529      73C5F5CC 
 529      B1
 530 0a5f F83965B6 		.ascii	"\3709e\266\007\215\022\326\245%}\023\256\203A,T{\014"
 530      078D12D6 
 530      A5257D13 
 530      AE83412C 
 530      547B0C
 531 0a72 8B0F2AEB 		.ascii	"\213\017*\353\361\242>t=\3718k\232\315{|\273a\336v\314"
 531      F1A23E74 
 531      3DF9386B 
 531      9ACD7B7C 
 531      BB61DE76 
 532 0a87 E907C6B6 		.ascii	"\351\007\306\266/\241\205\017\0378j\371\247\326\255"
ARM GAS  /tmp/ccsa2nyi.s 			page 42


 532      2FA1850F 
 532      1F386AF9 
 532      A7D6AD
 533 0a96 68E90F84 		.ascii	"h\351\017\204\261\007\345\325\246\030`G\007x\226iB\233"
 533      B107E5D5 
 533      A6186047 
 533      07789669 
 533      429B
 534 0aa8 428FE366 		.ascii	"B\217\343f\252\3357\243.t3,\2339\345\032/\250\303\233"
 534      AADD37A3 
 534      2E74332C 
 534      9B39E51A 
 534      2FA8C39B 
 535 0abc 457A48B2 		.ascii	"EzH\262\272\360\212\0230\263\276\305\354\247\365\014"
 535      BAF08A13 
 535      30B3BEC5 
 535      ECA7F50C 
 536 0acc 9E7DDF83 		.ascii	"\236}\337\203Rl\015\316\354\265x\273\310\311\210`\226"
 536      526C0DCE 
 536      ECB578BB 
 536      C8C98860 
 536      96
 537 0add 8368D4E4 		.ascii	"\203h\324\344\215^j}\037\255\277\304u(~j\021\212\336"
 537      8D5E6A7D 
 537      1FADBFC4 
 537      75287E6A 
 537      118ADE
 538 0af0 249C2E8E 		.ascii	"$\234.\216sJ\037\177\246\325\035\352>\273\014\315\332"
 538      734A1F7F 
 538      A6D51DEA 
 538      3EBB0CCD 
 538      DA
 539 0b01 9094C031 		.ascii	"\220\224\3001K\323Y\206\316|\350\027\313\032\222\010"
 539      4BD35986 
 539      CE7CE817 
 539      CB1A9208 
 540 0b11 C7AC4A47 		.ascii	"\307\254JG\226X\3561L\200\314\300K\"\321\345\344\023"
 540      9658EE31 
 540      4C80CCC0 
 540      4B22D1E5 
 540      E413
 541 0b23 202BEBD3 		.ascii	" +\353\323\344\026\2055]\234k\222\264V\032C\211,\243"
 541      E4168535 
 541      5D9C6B92 
 541      B4561A43 
 541      892CA3
 542 0b36 5BE92096 		.ascii	"[\351 \226\320J8\334\226j\025h\213\254\251T\333{@m\256"
 542      D04A38DC 
 542      966A1568 
 542      8BACA954 
 542      DB7B406D 
 543 0b4b 51EDFBBE 		.ascii	"Q\355\373\276pm\2305\026\206y\226\262\3021_a\245\255"
 543      706D9835 
 543      16867996 
 543      B2C2315F 
 543      61A5AD
 544 0b5e 8CBBAFA1 		.ascii	"\214\273\257\241\335d\321%+s^(\037\237A\230\343\230"
ARM GAS  /tmp/ccsa2nyi.s 			page 43


 544      DD64D125 
 544      2B735E28 
 544      1F9F4198 
 544      E398
 545 0b70 7A677054 		.ascii	"zgpT$S\274j-\336Vgx5~k\274eZ\274\257\235\341]H\263\306"
 545      2453BC6A 
 545      2DDE5667 
 545      78357E6B 
 545      BC655ABC 
 546 0b8b 5BA1C5DB 		.ascii	"[\241\305\333\345\014O\351d\202\027\373q\314\236\230"
 546      E50C4FE9 
 546      648217FB 
 546      71CC9E98 
 547 0b9b EB5A789B 		.ascii	"\353Zx\233\215\031xv\251IVp\001\360\020S-+\027\232\217"
 547      8D197876 
 547      A9495670 
 547      01F01053 
 547      2D2B179A 
 548 0bb0 ACBF9E59 		.ascii	"\254\277\236Y\215f\036\344;\355o\261d\360\3021og\350"
 548      8D661EE4 
 548      3BED6FB1 
 548      64F0C231 
 548      6F67E8
 549 0bc3 7BB74799 		.ascii	"{\267G\231\017e\271B\276\232;\224>k\275\207\013l\362"
 549      0F65B942 
 549      BE9A3B94 
 549      3E6BBD87 
 549      0B6CF2
 550 0bd6 3C64EA84 		.ascii	"<d\352\204\352b\220\307\231\005\310e\327}\367\312P2"
 550      EA6290C7 
 550      9905C865 
 550      D77DF7CA 
 550      5032
 551 0be8 64626C2A 		.ascii	"dbl*Q\2616{t\013\363\011\233JS\375$H\346eJ{\373@\306"
 551      51B1367B 
 551      740BF309 
 551      9B4A53FD 
 551      2448E665 
 552 0c01 3014B358 		.ascii	"0\024\263X\270\202\327\205\322\221X|\364\3051\223\014"
 552      B882D785 
 552      D291587C 
 552      F4C53193 
 552      0C
 553 0c12 A2C5B894 		.ascii	"\242\305\270\224ke\017FC\345\267\002\223\232\037\317"
 553      6B650F46 
 553      43E5B702 
 553      939A1FCF 
 554 0c22 6E37656B 		.ascii	"n7ek-\364\011c\232\333\333\037\"mq\314lG\350;\214\350"
 554      2DF40963 
 554      9ADBDB1F 
 554      226D71CC 
 554      6C47E83B 
 555 0c38 3BCDD177 		.ascii	";\315\321w\032\320\027:Bo4\242\3576Eo\334f@_\356\010"
 555      1AD0173A 
 555      426F34A2 
 555      EF36456F 
 555      DC66405F 
ARM GAS  /tmp/ccsa2nyi.s 			page 44


 556 0c4e 7DAF117D 		.ascii	"}\257\021}\237)\372*#\372zG\350\007\214\350M\246\350"
 556      9F29FA2A 
 556      23FA7A47 
 556      E8078CE8 
 556      4DA6E8
 557 0c61 5355CDE8 		.ascii	"SU\315\350|!\225y\007O\371\277-\217a\377\034\363w\213"
 557      7C219579 
 557      074FF9BF 
 557      2D8F61FF 
 557      1CF3778B 
 558 0c75 17713C7B 		.ascii	"\027q<{\304\223\212rM\206\345k4T\000\375P}r\254\036"
 558      C4938A72 
 558      4D86E56B 
 558      345400FD 
 558      507D72AC 
 559 0c8a D9BC453B 		.ascii	"\331\274E;l\034\375\223Gj\315\360\037\362\207yx\265"
 559      6C1CFD93 
 559      476ACDF0 
 559      1FF28779 
 559      78B5
 560 0c9c A3F022CF 		.ascii	"\243\360\"\317\256M\270\304!\313\370ja\343\001V&\377"
 560      AE4DB8C4 
 560      21CBF86A 
 560      61E30156 
 560      26FF
 561 0cae FDE82B99 		.ascii	"\375\350+\231*\213\272Z:\331)\203\307M5z\300\350k\207"
 561      2A8BBA5A 
 561      3AD92983 
 561      C74D357A 
 561      C0E86B87 
 562 0cc2 1DD9EB84 		.ascii	"\035\331\353\204\321^\337%\2427\227C\007\277\361\376"
 562      D15EDF25 
 562      A2379743 
 562      07BFF1FE 
 563 0cd2 AA15F238 		.ascii	"\252\025\3628\222e\014\001\214\370\266\322\346)\243"
 563      92650C01 
 563      8CF8B6D2 
 563      E629A3
 564 0ce1 367D81F8 		.ascii	"6}\201\3701\265\217A\271\247\022\030'\205\316\230r\266"
 564      31B58F41 
 564      B9A71218 
 564      2785CE98 
 564      72B6
 565 0cf3 F94A233B 		.ascii	"\371J#;S\376r\234\334\336\376\2261\263,a\255\373\330"
 565      53FE729C 
 565      DCDEFE96 
 565      31B32C61 
 565      ADFBD8
 566 0d06 1F8C8CA1 		.ascii	"\037\214\214\241G\\zb\2304\260\2039\357I\3271\251\223"
 566      475C7A62 
 566      9834B083 
 566      39EF49D7 
 566      31A993
 567 0d19 E4B28524 		.ascii	"\344\262\205$\027,t\274\265c:\276h\255c\203$\212\315"
 567      172C74BC 
 567      B5633ABE 
 567      68AD6383 
ARM GAS  /tmp/ccsa2nyi.s 			page 45


 567      248ACD
 568 0d2c 53EF4F76 		.ascii	"S\357Ov\222\214\271\313\\\222+f\222(\327\352\337\223"
 568      928CB9CB 
 568      5C922B66 
 568      9228D7EA 
 568      DF93
 569 0d3e 59BD37CE 		.ascii	"Y\2757\316\260\000\270f\252\212\371W\032\330\011\025"
 569      B000B866 
 569      AA8AF957 
 569      1AD80915 
 570 0d4e F2ADF676 		.ascii	"\362\255\366v\217\213\336\342F\262\347v\216\371\330"
 570      8F8BDEE2 
 570      46B2E776 
 570      8EF9D8
 571 0d5d 828D5BA6 		.ascii	"\202\215[\246l\034:\333\332}\256\225EP\004[qr\307\306"
 571      6C1C3ADB 
 571      DA7DAE95 
 571      4550045B 
 571      7172C7C6 
 572 0d71 B9883F69 		.ascii	"\271\210?io\236\323\235\033L\206\372s\263f\350c\355"
 572      6F9ED39D 
 572      1B4C86FA 
 572      73B366E8 
 572      63ED
 573 0d83 9AF31B1F 		.ascii	"\232\363\033\037\370\030O\366\217\365\242\2743\277\223"
 573      F8184FF6 
 573      8FF5A2BC 
 573      33BF93
 574 0d92 F19DCA14 		.ascii	"\361\235\312\024\217a]\247a\226\302\2400&\301\366\213"
 574      8F615DA7 
 574      6196C2A0 
 574      3026C1F6 
 574      8B
 575 0da3 3B99EBEC 		.ascii	";\231\353\354\035\257\211\316j\026\304m\357\374\203"
 575      1DAF89CE 
 575      6A16C46D 
 575      EFFC83
 576 0db2 B5BF7A1D 		.ascii	"\265\277z\035\350\313\300\226b\301\326{flAp\265\365"
 576      E8CBC096 
 576      62C1D67B 
 576      666C4170 
 576      B5F5
 577 0dc4 B00C2E1B 		.ascii	"\260\014.\033\237\232d\344\014\205\220\201\223\257-"
 577      9F9A64E4 
 577      0C859081 
 577      93AF2D
 578 0dd3 382937E5 		.ascii	"8)7\345\344\273K\035\361\355\012[\015\021\273%Q\330"
 578      E4BB4B1D 
 578      F1ED0A5B 
 578      0D11BB25 
 578      51D8
 579 0de5 510B36A7 		.ascii	"Q\0136\247\233\2629s\305\306\007gZ)\314\306\224UFFg"
 579      9BB23973 
 579      C5C60767 
 579      5A29CCC6 
 579      94554646 
 580 0dfa 7912A2F0 		.ascii	"y\022\242\360G\013Nf\231rr\350\354\326\036\035\212\302"
ARM GAS  /tmp/ccsa2nyi.s 			page 46


 580      470B4E66 
 580      997272E8 
 580      ECD61E1D 
 580      8AC2
 581 0e0c 3966AC58 		.ascii	"9f\254XD\035\211\037&Y,\\\267\340|\236\205\016w?\330"
 581      441D891F 
 581      26592C5C 
 581      B7E07C9E 
 581      850E773F 
 582 0e21 11A7FBD0 		.ascii	"\021\247\373\320\226qS\306*;\2333\266\320\2141\245n"
 582      967153C6 
 582      2A3B9B33 
 582      B6D08C31 
 582      A56E
 583 0e33 8B5590DA 		.ascii	"\213U\220\332pUk\313\2251\251-b\315\330\254\266`s\261"
 583      70556BCB 
 583      9531A92D 
 583      62CDD8AC 
 583      B66073B1 
 584 0e47 A9FE36DC 		.ascii	"\251\3766\334\374\266W\207,\377\251\221U\2231\334i\013"
 584      FCB65787 
 584      2CFFA991 
 584      559331DC 
 584      690B
 585 0e59 5696996A 		.ascii	"V\226\231jl\3726+\215\331\361\261\302\233\370\374r\315"
 585      6CFA362B 
 585      8DD9F1B1 
 585      C29BF8FC 
 585      72CD
 586 0e6b A2DDCF4C 		.ascii	"\242\335\317LU\260\346|\353\300\216\270\320Jo\007?\001"
 586      55B0E67C 
 586      EBC08EB8 
 586      D04A6F07 
 586      3F01
 587 0e7d 9ED1D2BC 		.ascii	"\236\321\322\274\220.\350X\355E\323n\177\355\3623\274"
 587      902EE858 
 587      ED45D36E 
 587      7FEDF233 
 587      BC
 588 0e8e A5377A6B 		.ascii	"\2457zk\027s\035\324Y$\200C\335;\242\203\265\016\274"
 588      17731DD4 
 588      59248043 
 588      DD3BA283 
 588      B50EBC
 589 0ea1 A0DA8293 		.ascii	"\240\332\202\223\365\246^\260\022=\305\316#O\261\304"
 589      F5A65EB0 
 589      123DC5CE 
 589      234FB1C4 
 590 0eb1 CB38E613 		.ascii	"\3138\346\023\013\004E\217\360\0103OV\032\341q\275\355"
 590      0B04458F 
 590      F008334F 
 590      561AE171 
 590      BDED
 591 0ec3 245B21CB 		.ascii	"$[!\313\023\306\242\225#l\273G\375\366|u\014F\235\012"
 591      13C6A295 
 591      236CBB47 
 591      FDF67C75 
ARM GAS  /tmp/ccsa2nyi.s 			page 47


 591      0C469D0A 
 592 0ed7 D07D568E 		.ascii	"\320}V\216\020\277\214#\"4\322\253=\371\3672y\334rP"
 592      10BF8C23 
 592      2234D2AB 
 592      3DF9F732 
 592      79DC7250 
 593 0eeb 08800D24 		.ascii	"\010\200\015$\223\021\034\263.\001\314d\032l\223\036"
 593      93111CB3 
 593      2E01CC64 
 593      1A6C931E 
 594 0efb 0E33B7F5 		.ascii	"\0163\267\365\024b\256A\226AD\366!u\256\374K#\\\302"
 594      1462AE41 
 594      964144F6 
 594      2175AEFC 
 594      4B235CC2 
 595 0f0f CC787D02 		.ascii	"\314x}\002k7O^\013-.CF#r\232}\037\343Qa\3721Z\377{\240"
 595      6B374F5E 
 595      0B2D2E43 
 595      4623729A 
 595      7D1FE351 
 596 0f2a 0E0F681A 		.ascii	"\016\017h\032\274\250\355z\203z\223\342p\314\036\\e"
 596      BCA8ED7A 
 596      837A93E2 
 596      70CC1E5C 
 596      65
 597 0f3b BB37715D 		.ascii	"\2737q]\304\353d]\004\272\225|\246o\356\2019\332Os\265"
 597      C4EB645D 
 597      04BA957C 
 597      A66FEE81 
 597      39DA4F73 
 598 0f50 2D36C7B4 		.ascii	"-6\307\264\331S\313\371\301\036\353\311r:\314\371\321"
 598      D953CBF9 
 598      C11EEBC9 
 598      723ACCF9 
 598      D1
 599 0f61 E49CEB71 		.ascii	"\344\234\353q8\246\025W\331\223\310\271\362\037\204"
 599      38A61557 
 599      D993C8B9 
 599      F21F84
 600 0f70 F33D8E38 		.ascii	"\363=\2168\337\273G\277\"\342j\014\226\266\353\356\305"
 600      DFBB47BF 
 600      22E26A0C 
 600      96B6EBEE 
 600      C5
 601 0f81 ACB28FAC 		.ascii	"\254\262\217\254d&/\375\333\215`\256\336\312\312\312"
 601      64262FFD 
 601      DB8D60AE 
 601      DECACACA 
 602 0f91 4102761D 		.ascii	"A\002v\035s6\276\253[\260\240\216\263\343\025"
 602      7336BEAB 
 602      5BB0A08E 
 602      B3E315
 603 0fa0 FAAF0ADF 		.ascii	"\372\257\012\337s\202g\263\322\370\302\036\315J\343"
 603      738267B3 
 603      D2F8C21E 
 603      CD4AE3
 604 0faf A9AEC1F4 		.ascii	"\251\256\301\364\314]\321\202\315q\002f\266\036\327"
ARM GAS  /tmp/ccsa2nyi.s 			page 48


 604      CC5DD182 
 604      CD710266 
 604      B61ED7
 605 0fbe ECA7F511 		.ascii	"\354\247\365\021\236\335\347E/\034\366{\321\253\206"
 605      9EDDE745 
 605      2F1CF67B 
 605      D1AB86
 606 0fcd 26BC3D84 		.ascii	"&\274=\204\267G\360\366\033\274=\356\325\275b^\330U"
 606      B747F0F6 
 606      1BBC3DEE 
 606      D5BD625E 
 606      D855
 607 0fdf 0D11534F 		.ascii	"\015\021SOL>}\274\322:8L\277\377\235\321\322\330\363"
 607      4C3E7DBC 
 607      D23A384C 
 607      BFFF9DD1 
 607      D2D8F3
 608 0ff2 2076E113 		.ascii	" v\341\02388\026wM\032\034\306\017\200"
 608      38381677 
 608      4D1A1CC6 
 608      0F80
 609 1000 BFC4554E 		.ascii	"\277\304UN&\006\307\301\201\364CT\007\301Q\246\\\237"
 609      2606C7C1 
 609      81F44354 
 609      07C151A6 
 609      5C9F
 610 1012 ECF073DA 		.ascii	"\354\360s\332X\363\367h\3058}?\371*\370,\026\343Pr1"
 610      58F3F768 
 610      C5387D3F 
 610      F92AF82C 
 610      16E35072 
 611 1027 F43810E3 		.ascii	"\3648\020\343\270\3129\0231~C\3048\347H\2145\223U\317"
 611      B8CA3913 
 611      317E43C4 
 611      38E7488C 
 611      359355CF 
 612 103b 3F831FFC 		.ascii	"?\203\037\374n\304`m\374\313\322\240eJ\035\371\372\212"
 612      6EC4606D 
 612      FCCBD2A0 
 612      654A1DF9 
 612      FA8A
 613 104d 80957573 		.ascii	"\200\225us\013\246\367\374u\273\324Wwd\014\361\256\023"
 613      0BA6F7FC 
 613      75BBD457 
 613      77640CF1 
 613      AE13
 614 105f 3C9B951C 		.ascii	"<\233\225\034\353w\031\327\354\223\247}\333q\214r\177"
 614      EB7719D7 
 614      EC93A77D 
 614      DB718C72 
 614      7F
 615 1070 2DD6E735 		.ascii	"-\326\3475,Re7\275\245\034\242!C\334\364Z\377\235\210"
 615      2C526537 
 615      BDA51CA2 
 615      2143DCF4 
 615      5AFF9D88 
 616 1084 E11EC4B9 		.ascii	"\341\036\304\271kQu\252C_\207?\247~=\201g\352\347;\001"
ARM GAS  /tmp/ccsa2nyi.s 			page 49


 616      6B5175AA 
 616      435F873F 
 616      A77E3D81 
 616      67EAE73B 
 617 1099 74BE18E4 		.ascii	"t\276\030\344\234&q\\\300\211\243\015'\210Kx\373\023"
 617      9C26715C 
 617      C089A30D 
 617      27884B78 
 617      FB13
 618 10ab DE5EC5DB 		.ascii	"\336^\305\333\333\332\224a\245\2333\336\3648\366E/G"
 618      DBDA9461 
 618      A59B33DE 
 618      F438F645 
 618      2F47
 619 10bd 23B4633E 		.ascii	"#\264c>x+\356\203<{\3315\230\336\007\247\354\321\372"
 619      782BEE83 
 619      3C7BD935 
 619      98DE07A7 
 619      ECD1FA
 620 10d0 20CF5E71 		.ascii	" \317^q\202g\343\203\364\2631\342\320\237tc]\202\005"
 620      8267E383 
 620      F4B331E2 
 620      D09F7463 
 620      5D8205
 621 10e3 ED8C7252 		.ascii	"\355\214rRc\224\323\330(\255\330\004\355x+\373\320v"
 621      6394D3D8 
 621      28ADD804 
 621      ED782BFB 
 621      D076
 622 10f5 8C4F97C1 		.ascii	"\214O\227\301Ww3dp\323EB\226_\014\310\312\332\003\031"
 622      57773364 
 622      70D34542 
 622      965F0CC8 
 622      CADA0319 
 623 1109 B1BF6F70 		.ascii	"\261\277op\260Z\365ZO\262Z\365m\037\312{\353\273\231"
 623      B05AF55A 
 623      4FB25AF5 
 623      6D1FCA7B 
 623      EBBB99
 624 111c E63DBB65 		.ascii	"\346=\273e\014;p\225\011\276\304Q\331\357I\336C\267"
 624      0C3B7095 
 624      09BEC451 
 624      D9EF49DE 
 624      43B7
 625 112e 92E4BD71 		.ascii	"\222\344\275qc\225\225\225\013\343\351{l,~\327\333\314"
 625      63959595 
 625      0BE3E97B 
 625      6C2C7ED7 
 625      DBCC
 626 1140 6CEABE8B 		.ascii	"l\352\276\213\371&\306\206K\0375\267\\\\\036\236}\327"
 626      F926C686 
 626      4B1F35B7 
 626      5C5C1E9E 
 626      7DD7
 627 1152 872C3751 		.ascii	"\207,7Qo\247SF;\231\265g\371\205\247\2544\035 n\354"
 627      6FA75346 
 627      3B99B567 
ARM GAS  /tmp/ccsa2nyi.s 			page 50


 627      F985A7AC 
 627      341D206E 
 628 1167 D452AB57 		.ascii	"\324R\253W_\354\217W\321\227cCU\337\355\322PH\250J\237"
 628      5FEC8F57 
 628      D1976343 
 628      55DFEDD2 
 628      5048A84A 
 629 117c 71AD8910 		.ascii	"q\255\211\020$W\223\367K7\277\307kM\334\254\012\277"
 629      245793F7 
 629      4B37BFC7 
 629      6B4DDCAC 
 629      0ABF
 630 118e 90495685 		.ascii	"\220IV\205O\367\241\320Zj\340\270\203\253\302Wc\230"
 630      4FF7A1D0 
 630      5A6AE0B8 
 630      83ABC257 
 630      6398
 631 11a0 CA9FCBCE 		.ascii	"\312\237\313\316\225\032;O\305v\236\246\267\363\372"
 631      951A3B4F 
 631      C5769EA6 
 631      B7F3FA
 632 11af BB1DD8D9 		.ascii	"\273\035\330\331l\241\260y{\3335\031a\007\316\010;q"
 632      6CA1B079 
 632      7BDB3519 
 632      6107CE08 
 632      3B71
 633 11c1 2E68C1DB 		.ascii	".h\301\333q8#L\326s\2601\2468\323\347\"\204:\333\247"
 633      7138234C 
 633      D673B031 
 633      A638D3E7 
 633      22843ADB 
 634 11d6 7B4CAB41 		.ascii	"{L\253AO\220\255O.\322<\246\251\353\032PLif6\364\203"
 634      4F90AD4F 
 634      2ED23CA6 
 634      A9EB1A50 
 634      4C696636 
 635 11ec 180435D7 		.ascii	"\030\0045\327\327\225\036\251\313H\200\205M\011,$\324"
 635      D7951EA9 
 635      CB488085 
 635      4D092C24 
 635      D4
 636 11fd ABD6B370 		.ascii	"\253\326\263p\241\\y\177\"\014%\347\225\311\360t\337"
 636      A15C797F 
 636      220C25E7 
 636      95C9F074 
 636      DF
 637 120e CEC6DB8F 		.ascii	"\316\306\333\217u\320\212\335\337\033\304\246\371\023"
 637      75D08ADD 
 637      DF1BC4A6 
 637      F913
 638 121c BC522B89 		.ascii	"\274R+\211\346\257\015\340y\233rn\246\366\257<\234\001"
 638      E6AF0DE0 
 638      799B726E 
 638      A6F6AF3C 
 638      9C01
 639 122e 8B5CD370 		.ascii	"\213\\\323p\274L\201\347\344\326\201;\312\320;w\243"
 639      BC4C81E7 
ARM GAS  /tmp/ccsa2nyi.s 			page 51


 639      E4D6813B 
 639      CAD03B77 
 639      A3
 640 123f D2744CAB 		.ascii	"\322tL\253\261&\313\254\315\260\366k\320Y\322\321/\317"
 640      B126CBAC 
 640      CDB0F66B 
 640      D059D2D1 
 640      2FCF
 641 1251 7EE4439C 		.ascii	"~\344C\234\325\032\323\347\264\272C\357\320\377u\250"
 641      D51AD3E7 
 641      B4BA43EF 
 641      D0FF75A8 
 642 1261 75149FD7 		.ascii	"u\024\237\327o7\220\265`\353\360w\251\373\261\305j\335"
 642      6F3790B5 
 642      60EBF077 
 642      A9FBB1C5 
 642      6ADD
 643 1273 87891AEE 		.ascii	"\207\211\032\356\255\030\3160\232\332f3\232Z\342\323"
 643      AD18CE30 
 643      9ADA6633 
 643      9A5AE2D3 
 644 1283 64E3C3AE 		.ascii	"d\343\303\256\233\017\352\232\277%4\364!\220\034\323"
 644      9B0FEA9A 
 644      BF2534F4 
 644      21901CD3 
 645 1293 EC042BC9 		.ascii	"\354\004+\311ra\025\253\3255V0\301\227\210\035xv\021"
 645      726115AB 
 645      D5355630 
 645      C197881D 
 645      787611
 646 12a6 0ED6C578 		.ascii	"\016\326\305x\273\024o\227\373\222\216\254\014\012]"
 646      BB146F97 
 646      FB928EAC 
 646      0C0A5D
 647 12b5 68C1099E 		.ascii	"h\301\011\2368\364\245\033\3326u!}D\240J\026\305x\366"
 647      38F4A51B 
 647      DA367521 
 647      7D44A04A 
 647      16C578F6 
 648 12c9 739FDB15 		.ascii	"s\237\333\025K+}\346+\226<\032\256\342\245@\301m\306"
 648      4B2B7DE6 
 648      2B963C1A 
 648      AEE2A540 
 648      C16DC6
 649 12dc 4C91C8C5 		.ascii	"L\221\310\305*\232)\3721\237\311\023\224A<;\037\330"
 649      2A9A29FA 
 649      319FC913 
 649      94413C3B 
 649      1FD8
 650 12ee 8A59EE2F 		.ascii	"\212Y\356/\314\015\271J\206P\3348\324C\304\301\351\244"
 650      CC0DB94A 
 650      8650DC38 
 650      D443C4C1 
 650      E9A4
 651 1300 51697B67 		.ascii	"Qi{g.<\231\322tB4\3071\267\2227W\007\315=\310\274}\317"
 651      2E3C99D2 
 651      744234C7 
ARM GAS  /tmp/ccsa2nyi.s 			page 52


 651      31B79237 
 651      5707CD3D 
 652 1318 5C3955DF 		.ascii	"\\9U\337\354B\034s\310\212\244M\345\322\026\326\311"
 652      EC421C73 
 652      C88AA44D 
 652      E5D216D6 
 652      C9
 653 1329 0ABD86D8 		.ascii	"\012\275\206\330\004\336\023\264\211\015\256\365\252"
 653      04DE13B4 
 653      890DAEF5 
 653      AA
 654 1336 58E8B597 		.ascii	"X\350\265\227\255\363\300p(\356\023\0172\323A\246\252"
 654      ADF3C070 
 654      28EE130F 
 654      32D341A6 
 654      AA
 655 1347 41F1E689 		.ascii	"A\361\346\2113\"a&\310\312e?\361\371\330\242\026\342"
 655      33226126 
 655      C8CA653F 
 655      F1F9D8A2 
 655      16E2
 656 1359 A4088F44 		.ascii	"\244\010\217D*qWZ\372Z\254\264v\201\015\345\202U\025"
 656      2A71575A 
 656      FA5AACB4 
 656      76810DE5 
 656      825515
 657 136c 34BD9BCE 		.ascii	"4\275\233\316\"\273'\232XD\271'\251E\352\215\016\220"
 657      22BB279A 
 657      5844B927 
 657      A945EA8D 
 657      0E90
 658 137e 6089BDDB 		.ascii	"`\211\275\333\035YB\216u\204}(\3646\327\226\330na\211"
 658      1D59428E 
 658      75847D28 
 658      F436D796 
 658      D86E6189 
 659 1392 AC2496D8 		.ascii	"\254$\226\330\252\265\304Vj\211mf\226\330\227\256\352"
 659      AAB5C456 
 659      6A896D66 
 659      96D897AE 
 659      EA
 660 13a3 F680034B 		.ascii	"\366\200\003K\034\214\225\336\233h\011NUP\265\336\022"
 660      1C8C95DE 
 660      9B68094E 
 660      5550B5DE 
 660      12
 661 13b4 7B279B58 		.ascii	"{'\233X\342FrK\354Nj\211\375\273\034YbY,&\036\247\320"
 661      E246724B 
 661      EC4E6A89 
 661      FDBB1C59 
 661      62592C26 
 662 13cb FB5D5BE2 		.ascii	"\373][\342\200\205%\036Kb\211}ZK\214\275\227Xb\277\231"
 662      8085251E 
 662      4B62897D 
 662      5A4B8CBD 
 662      975862BF 
 663 13e0 250E7456 		.ascii	"%\016tVu\333\350\300\022\207c\245O$Z\202x\236\232\242"
ARM GAS  /tmp/ccsa2nyi.s 			page 53


 663      75DBE8C0 
 663      128763A5 
 663      4F245A82 
 663      789E9AA2 
 664 13f4 0D59BDC1 		.ascii	"\015Y\275\301b\264\210\0328\3543_\016LV\256X\325:bY"
 664      62B4881A 
 664      38EC335F 
 664      0E4C56AE 
 664      58D53A62 
 665 1409 EB8E4DAD 		.ascii	"\353\216M\255\243\226\265\346\306SnB\255o,k\241\327"
 665      A396B5E6 
 665      C6536E42 
 665      AD6F2C6B 
 665      A1D7
 666 141b F956B58E 		.ascii	"\371V\265\216Y\326:e\303\341q\313Z\027mj5\307k\321\325"
 666      59D63A65 
 666      C3E171CB 
 666      5A176D6A 
 666      35C76BD1 
 667 1430 926BCEB7 		.ascii	"\222k\316\267\375\347Ru\265\344\230q\203\015/\223\316"
 667      FDE75275 
 667      B5E49871 
 667      830D2F93 
 667      CE
 668 1441 D9ACF469 		.ascii	"\331\254\364i\361%\276\313[t\257\351\032\2532yE\255"
 668      F125BECB 
 668      5B74AFE9 
 668      1AAB3279 
 668      45AD
 669 1453 1C505F31 		.ascii	"\034P_1\363\354\267>\333\025\223'|\011\357\232\320\212"
 669      F3ECB73E 
 669      DB159327 
 669      7C09EF9A 
 669      D08A
 670 1465 493C7F81 		.ascii	"I<\177\201\3365m\220\037N%\357\0229f\255}\213dY\031"
 670      DE356D90 
 670      1F4E25EF 
 670      123966AD 
 670      7D8B6459 
 671 147a CF7E6FDF 		.ascii	"\317~o\337\342I}\213\006\225N\2621\337iKCT\330\324j"
 671      E2497D8B 
 671      06954EB2 
 671      31DF694B 
 671      4354D8D4 
 672 148f B5AC5563 		.ascii	"\265\254Uc\343`g,k}h\323\326Y\313Zslj\375`Y\253\312"
 672      E360672C 
 672      6B7D68D3 
 672      D659CB5A 
 672      736C6AFD 
 673 14a7 A6D68F96 		.ascii	"\246\326\217\226\265jmj\235\263\254\265\302\246\326"
 673      B56A6D6A 
 673      9DB3ACB5 
 673      C2A6D6
 674 14b6 79CB5A9F 		.ascii	"y\313Z\237\332\324\272`Yk\255M\2556\313Z\207m\302\355"
 674      DAD4BA60 
 674      596BAD4D 
 674      AD36CB5A 
ARM GAS  /tmp/ccsa2nyi.s 			page 54


 674      876DC2ED 
 675 14ca A265AD95 		.ascii	"\242e\255\2256m]\322\014_\373e\345\027\027\012Y\341"
 675      366D5DD2 
 675      0C5FFB65 
 675      E517170A 
 675      59E1
 676 14dc E2DCD159 		.ascii	"\342\334\321Y\271\302\310\254p~dx\2448\232%\211\245"
 676      B9C2C8AC 
 676      707E6478 
 676      A4389A25 
 676      89A5
 677 14ee 456F64C1 		.ascii	"Eod\301\201(eE\212\302\005\245\271P(?_\340Kz\3473w\025"
 677      81286545 
 677      8AC205A5 
 677      B950283F 
 677      5FE04B7A 
 678 1506 0A85C5E2 		.ascii	"\012\205\305\342\350\020:\015I)/\276\374\307\340\020"
 678      E8103A0D 
 678      49292FBE 
 678      FCC7E010 
 679 1516 265D7331 		.ascii	"&]s1'\2534*f\025D\206g\215\010\207\263x\261\360\251"
 679      27AB342A 
 679      66154486 
 679      678D0887 
 679      B378B1F0 
 680 152b A2E222E1 		.ascii	"\242\342\"\341)\201\037\036\311\352\327{@\357~1\314"
 680      29811F1E 
 680      C9EAD77B 
 680      40EF7E31 
 680      CC
 681 153c A8949B2B 		.ascii	"\250\224\233+\344\001fJ4\362\277BH\352\357\212\037h"
 681      E401664A 
 681      34F2BF42 
 681      48EAEF8A 
 681      1F68
 682 154e 325C2C0A 		.ascii	"2\\,\012P=\003\016G\010R^iQ8$\245\345\207J\304\342\221"
 682      503D030E 
 682      4708525E 
 682      69513824 
 682      A5E5874A 
 683 1565 915C414C 		.ascii	"\221\\AL\307<\302\006\216\237u\200]R,J\321\254\301\257"
 683      C73CC206 
 683      8E9F7580 
 683      5D522C4A 
 683      D1ACC1AF 
 684 1579 BE34E4A5 		.ascii	"\2764\344\245QP\200\242\247E\2457\370\202\310\210\242"
 684      515080A2 
 684      A745A537 
 684      F882C888 
 684      A2
 685 158a 90F42816 		.ascii	"\220\364(\026M/\222F\230H\221\004\345SKa\377L\277\220"
 685      4D2F9246 
 685      98489104 
 685      E5534B61 
 685      FF4CBF90 
 686 159e D4CFA674 		.ascii	"\324\317\246t!\017\014\024\011Y!P\000_Z \205\244\321"
 686      210F0C14 
ARM GAS  /tmp/ccsa2nyi.s 			page 55


 686      09592150 
 686      005F5A20 
 686      85A4D1
 687 15b1 254214B5 		.ascii	"%B\024\265\026\012\251\365}\270Uo\2210J\362\"I\330R"
 687      160AA9F5 
 687      7DB8556F 
 687      91304AF2 
 687      2249D852 
 688 15c5 2FD2139B 		.ascii	"/\322\023\233\237\222\037\312\023\005\241\257;uI\243"
 688      9F921FCA 
 688      1305A1AF 
 688      3B7549A3 
 689 15d5 00DE5F58 		.ascii	"\000\336_X*\011\243\000\033\357\007\270B\210\216\216"
 689      2A09A300 
 689      1BEF07B8 
 689      42888E8E 
 690 15e5 AA5C7696 		.ascii	"\252\\v\226\362EPk4\364\347R\241\024,\327%\234\037\322"
 690      F245506B 
 690      34F4E752 
 690      A1142CD7 
 690      259C1FD2 
 691 15f9 5D72E75A 		.ascii	"]r\347Z\321p~.\322\034\201\010I\201\030\\JI\010\311"
 691      D1707E2E 
 691      D21C8108 
 691      4981185C 
 691      4A4908C9 
 692 160d 0FBB1251 		.ascii	"\017\273\022Q\0309\324\265\021\213\013K\"\005\202\030"
 692      1839D4B5 
 692      118B0B4B 
 692      22058218 
 693 161d CD7A71C8 		.ascii	"\315zq\310\020(\256\362\357\227J\304HqH\302\266\352"
 693      1028AEF2 
 693      EF974AC4 
 693      487148C2 
 693      B6EA
 694 162f 9B035E43 		.ascii	"\233\003^C\324\216\016q[\221b\177\270\270\010T$\245"
 694      D48E0E71 
 694      5B91627F 
 694      B8B80854 
 694      24A5
 695 1641 23C010DC 		.ascii	"#\300\020\334\013K\243~\3231'\012\215\354_\210\304\023"
 695      0B4BA37E 
 695      D331270A 
 695      8DEC5F88 
 695      C413
 696 1653 8511E00D 		.ascii	"\205\021\340\015!\311\023\315~\006\250?\320\000\240"
 696      21C913CD 
 696      7E06A83F 
 696      D000A0
 697 1662 673DD19C 		.ascii	"g=\321\234>@\331@9@}\201\372\001=\015\004\345r\240\\"
 697      3E40D940 
 697      39407D81 
 697      FA013D0D 
 697      04E572A0 
 698 1677 0E94CB81 		.ascii	"\016\224\313\201r}\241\\\337lN\354\307\211Os\3423\234"
 698      727DA15C 
 698      DF6C4EEC 
ARM GAS  /tmp/ccsa2nyi.s 			page 56


 698      C7894F73 
 698      E2339C
 699 168a D89F1307 		.ascii	"\330\237\023\007p\342\263\0361\273\017P6W \302\256\257"
 699      70E2B31E 
 699      31BB0F50 
 699      365720C2 
 699      AEAF
 700 169c AF2404DC 		.ascii	"\257$\004\334\372\221\356\336\024D\330\027\027@\010"
 700      FA91EEDE 
 700      1444D817 
 700      174008
 701 16ab 78C3F9BC 		.ascii	"x\303\371\274\210\024\312\027\012\251RT\342%\260\234"
 701      8814CA17 
 701      0AA95254 
 701      E225B09C 
 702 16bb 1F893D00 		.ascii	"\037\211=\000TN\024\000GP\034\337\363K\205\305\271\002"
 702      544E1400 
 702      47501CDF 
 702      F34B85C5 
 702      B902
 703 16cd 3ECF2BE0 		.ascii	">\317+\340GD\375\222(\344E\261~\320\201\2570:\002nR"
 703      4744FD92 
 703      28E445B1 
 703      7ED081AF 
 703      303A026E 
 704 16e2 A5417555 		.ascii	"\245AuU}b\356h\270\225*\214\212H\240(!\345M\251x\370"
 704      7D62EE68 
 704      B8952A8C 
 704      8A48A028 
 704      21E54DA9 
 705 16f8 FF94A40B 		.ascii	"\377\224\244\013#\205\"\251\220\217\276\001E\2047\321"
 705      238522A9 
 705      908FBE01 
 705      458437D1 
 706 1708 81A72454 		.ascii	"\201\247$T\332I\365\232\202H\024\202\240\263\306\217"
 706      DA49F59A 
 706      82481482 
 706      A0B3C68F 
 707 1718 D0954049 		.ascii	"\320\225@I\350M>\"E\212F\244\225\204\000\025\373\226"
 707      E84D3E22 
 707      458A46A4 
 707      95840015 
 707      FB96
 708 172a 0F1FC205 		.ascii	"\017\037\302\005\241D(\202\240\033\001\245\300\273Q"
 708      A1442882 
 708      A01B01A5 
 708      C0BB51
 709 1739 F934C41B 		.ascii	"\3714\304\033_\200\355\007\027K\212\213\013\374\205"
 709      5F80ED07 
 709      174B8A8B 
 709      0BFC85
 710 1748 C423615F 		.ascii	"\304#a_\374f\221 \246\024b\217\362\345\243:\356\002"
 710      FC669120 
 710      A614628F 
 710      F2E5A33A 
 710      EE02
 711 175a 00D20C42 		.ascii	"\000\322\014B\214j\262 :\017!\037\201\035I4\376\222"
ARM GAS  /tmp/ccsa2nyi.s 			page 57


 711      8C6AB220 
 711      3A0F211F 
 711      811D4934 
 711      FE92
 712 176c 7CDC80BF 		.ascii	"|\334\200\277\220\270n'\330\203\002\204\260\024B\321"
 712      90B86E27 
 712      D8830284 
 712      B01442D1 
 713 177c 9B5E5812 		.ascii	"\233^X\022\313OO\332\266.\011Q\011\265\217\366(G\016"
 713      CB4F4FDA 
 713      B62E0951 
 713      09B58FF6 
 713      28470E
 714 178f 2FCDCB13 		.ascii	"/\315\313\023\304\014t\032\"\307QnX\037nX67,\207\033"
 714      C40C741A 
 714      22C7516E 
 714      581F6E58 
 714      36372C87 
 715 17a4 D6971BD6 		.ascii	"\326\227\033\326\217{\223\317r\014\231;\272\250w\230"
 715      8F7B93CF 
 715      720C993B 
 715      BAA87798 
 716 17b4 4921DA66 		.ascii	"I!\332fK2\340<;$\214\022\302\220\030\322\360IT\220J"
 716      4B32E03C 
 716      3B248C12 
 716      C29018D2 
 716      F0495490 
 717 17c9 4BD0615F 		.ascii	"K\320a_r\210\212"
 717      72888A
 718 17d0 E4688BE4 		.ascii	"\344h\213\344\220\353\276\320\277#=\203w\347E\212r9"
 718      90EBBED0 
 718      BF233D83 
 718      77E7458A 
 718      7239
 719 17e2 0917ECAB 		.ascii	"\011\027\354\253\026\314\010a\216\371hT\020\245\214"
 719      16CC0861 
 719      8EF96854 
 719      10A58C
 720 17f1 70FE50C8 		.ascii	"p\376P\310d\257\201\177\225F\357\325\336\001(0SQX\350"
 720      64AF817F 
 720      9546EFD5 
 720      DE012830 
 720      535158E8 
 721 1805 8A2F22AB 		.ascii	"\212/\"\253\253\236\220F*\275\000)\317]\017\001l\360"
 721      AB9E9046 
 721      2ABD0029 
 721      CF5D0F01 
 721      6CF0
 722 1817 85913028 		.ascii	"\205\2210(\317]=\332.\316\023\244S\271;\234?,?w\010"
 722      CF5D3DDA 
 722      2ECE13A4 
 722      53B93B9C 
 722      3F2C3F77 
 723 182c 5C968417 		.ascii	"\\\226\204\027\304\342B\304O:akpAAq\2703fZ(DL\027\277"
 723      C4E242C4 
 723      4F3A616B 
 723      70414171 
ARM GAS  /tmp/ccsa2nyi.s 			page 58


 723      B833665A 
 724 1845 21147521 		.ascii	"!\024u!\367\376\200\355\376\273\242\210\004\205_\001"
 724      F7FE80ED 
 724      FEBBA288 
 724      04855F01 
 725 1855 25E1C2DD 		.ascii	"%\341\302\335\015`/aWB\267\323H)$i\027r\030Gp\347\252"
 725      0D602F61 
 725      5742B7D3 
 725      48292469 
 725      17721847 
 726 186c 600C0807 		.ascii	"`\014\010\007q4\312\325\341\374W\205\021/\203+\016\303"
 726      7134CAD5 
 726      E1FC5785 
 726      112F832B 
 726      0EC3
 727 187e 7275C1E7 		.ascii	"ru\301\347/D\304(\275\020@\211=R\010\241\236\2069{\255"
 727      2F44C428 
 727      BD104089 
 727      3D5208A1 
 727      9E86397B 
 728 1893 40104A32 		.ascii	"@\020J2\360\341\253B\201\300G\205t|28\027\316\363|\250"
 728      F0E1AB42 
 728      81C04785 
 728      747C3238 
 728      17CEF37C 
 729 18a8 2BCAF622 		.ascii	"+\312\366\"\201=\205%\331p+\204\352\013\205$m\223\343"
 729      813D8525 
 729      D9702B84 
 729      EA0B8524 
 729      6D93E3
 730 18bb 0C843B9A 		.ascii	"\014\204;\232\006\365]p9~\356\027I<\246\2108\315\372"
 730      06F55D70 
 730      397EEE17 
 730      493CA688 
 730      38CDFA
 731 18ce 449CAA44 		.ascii	"D\234\252D\232\252D\222\252\002p\265T\024!c\370DT\351"
 731      9AAA4492 
 731      AA0270B5 
 731      54142163 
 731      F84454E9 
 732 18e2 DE911151 		.ascii	"\336\221\021Q*\345!\324\200OQ\315\026\367\001\260\311"
 732      2AE521D4 
 732      804F51CD 
 732      16F701B0 
 732      C9
 733 18f3 8DCEBA6B 		.ascii	"\215\316\272k\244s\322]\362\217\224H\210\302\036u+\251"
 733      A473D25D 
 733      F28F9448 
 733      88C21E75 
 733      2BA9
 734 1905 B0CF150A 		.ascii	"\260\317\025\012$\036\016\210\275\321\035t\224\202J"
 734      241E0E88 
 734      BDD11D74 
 734      94824A
 735 1914 F0623AEC 		.ascii	"\360b:\354\012\370\250\204j\303%\324H'*t\2560\274t\004"
 735      0AF8A884 
 735      6AC325D4 
ARM GAS  /tmp/ccsa2nyi.s 			page 59


 735      48272A74 
 735      AE30BC74 
 736 1929 495CDA2B 		.ascii	"I\\\332+\201\022\276(\022Fy\312\223;|D\216;\367C\235"
 736      8112BE28 
 736      124679CA 
 736      933B7C44 
 736      8E3BF743 
 737 193e 4517A930 		.ascii	"E\027\2510\024\206\001\300p\221\227\"\3050\366\360\213"
 737      148601C0 
 737      70919722 
 737      C530F6F0 
 737      8B
 738 194f 52B80884 		.ascii	"R\270\010\204N)\316\313\203\260\343\244B.\234\357\247"
 738      4E29CECB 
 738      83B0E3A4 
 738      422E9CEF 
 738      A7
 739 1960 AE9A8ACC 		.ascii	"\256\232\212\314\021\006KyQr\367\341\260\204k\274\230"
 739      11064B79 
 739      5172F7E1 
 739      B0846BBC 
 739      98
 740 1971 0B39CFAF 		.ascii	"\0139\317\257\206l\011/I\202X\004a\221J3@v\227\336b"
 740      866C092F 
 740      49825804 
 740      61914A33 
 740      407697DE 
 741 1986 712E2FF1 		.ascii	"q./\361\275\325\013O<O\202&8\370\225\337E\237\014R\374"
 741      BDD50B4F 
 741      3C4F8226 
 741      38F895DF 
 741      459F0C52 
 742 199b 6018792B 		.ascii	"`\030y+\360\021\314\003\207\015\"\027`T\214\234>N\252"
 742      F011CC03 
 742      870D2217 
 742      60548C9C 
 742      3E4EAA
 743 19ae 907C1944 		.ascii	"\220|\031D\2112V\263\357\343\372\232\252\323\006\371"
 743      893256B3 
 743      EFE3FA9A 
 743      AAD306F9 
 744 19be A25C3881 		.ascii	"\242\\8\201\014\207\022B\224\351\212\335\357EAz\005"
 744      0C871242 
 744      94E98ADD 
 744      EF45417A 
 744      05
 745 19cf 1C468C48 		.ascii	"\034F\214H\243_\277K\275\362\232P\220\367\372\377\001"
 745      A35FBF4B 
 745      BDF29A50 
 745      90F7FAFF 
 745      01
 746 19e0 D82E45FD 		.ascii	"\330.E\375"
 747              		.text
 748              		.section	.gnu.lto_.symtab.90002a6b458a2d19,"",%progbits
 749 0000 70617474 		.ascii	"patterndyn\000\000\000\000\000\000\000\000\000\000\000"
 749      65726E64 
 749      796E0000 
ARM GAS  /tmp/ccsa2nyi.s 			page 60


 749      00000000 
 749      00000000 
 750 0015 00A30200 		.ascii	"\000\243\002\000\000testdyn1\000\000\000\000\000\000"
 750      00746573 
 750      7464796E 
 750      31000000 
 750      000000
 751 0028 00000000 		.ascii	"\000\000\000\000\000\000\271\002\000\000testdyn2\000"
 751      0000B902 
 751      00007465 
 751      73746479 
 751      6E3200
 752 003b 00000000 		.ascii	"\000\000\000\000\000\000\000\000\000\000\000\305\002"
 752      00000000 
 752      000000C5 
 752      02
 753 0048 00007465 		.ascii	"\000\000testdyn3\000\000\000\000\000\000\000\000\000"
 753      73746479 
 753      6E330000 
 753      00000000 
 753      000000
 754 005b 000000D0 		.ascii	"\000\000\000\320\002\000\000ch\000\000\002\000\000\000"
 754      02000063 
 754      68000002 
 754      000000
 755 006a 00000000 		.ascii	"\000\000\000\000\000\000G\002\000\000threads\000\000"
 755      00004702 
 755      00007468 
 755      72656164 
 755      730000
 756 007d 02000000 		.ascii	"\002\000\000\000\000\000\000\000\000\000\234\002\000"
 756      00000000 
 756      00009C02 
 756      00
 757 008a 00746573 		.ascii	"\000test\000\000\002\000\000\000\000\000\000\000\000"
 757      74000002 
 757      00000000 
 757      00000000 
 758 009a 00430200 		.ascii	"\000C\002\000\000wa\000\000\002\000\000\000\000\000"
 758      00776100 
 758      00020000 
 758      000000
 759 00a9 00000000 		.ascii	"\000\000\000\000\237\002\000\000_test_assert\000\000"
 759      9F020000 
 759      5F746573 
 759      745F6173 
 759      73657274 
 760 00bf 02000000 		.ascii	"\002\000\000\000\000\000\000\000\000\000\346\001\000"
 760      00000000 
 760      0000E601 
 760      00
 761 00cc 00636848 		.ascii	"\000chHeapStatus\000\000\002\000\000\000\000\000\000"
 761      65617053 
 761      74617475 
 761      73000002 
 761      00000000 
 762 00e2 000000EB 		.ascii	"\000\000\000\353\001\000\000_test_assert_sequence\000"
ARM GAS  /tmp/ccsa2nyi.s 			page 61


 762      0100005F 
 762      74657374 
 762      5F617373 
 762      6572745F 
 763 00ff 00020000 		.ascii	"\000\002\000\000\000\000\000\000\000\000\000\361\001"
 763      00000000 
 763      000000F1 
 763      01
 764 010c 00007465 		.ascii	"\000\000test_wait_threads\000\000\002\000\000\000\000"
 764      73745F77 
 764      6169745F 
 764      74687265 
 764      61647300 
 765 0126 00000000 		.ascii	"\000\000\000\000\000\367\001\000\000chHeapFree\000\000"
 765      00F70100 
 765      00636848 
 765      65617046 
 765      72656500 
 766 013b 02000000 		.ascii	"\002\000\000\000\000\000\000\000\000\000\371\001\000"
 766      00000000 
 766      0000F901 
 766      00
 767 0148 00636854 		.ascii	"\000chThdCreateFromHeap\000\000\002\000\000\000\000"
 767      68644372 
 767      65617465 
 767      46726F6D 
 767      48656170 
 768 0163 00000000 		.ascii	"\000\000\000\000\000\375\001\000\000chHeapAlloc\000"
 768      00FD0100 
 768      00636848 
 768      65617041 
 768      6C6C6F63 
 769 0178 00020000 		.ascii	"\000\002\000\000\000\000\000\000\000\000\000\010\002"
 769      00000000 
 769      00000008 
 769      02
 770 0185 00007465 		.ascii	"\000\000test_emit_token\000\000\002\000\000\000\000"
 770      73745F65 
 770      6D69745F 
 770      746F6B65 
 770      6E000002 
 771 019d 00000000 		.ascii	"\000\000\000\000\000\015\002\000\000chHeapObjectIni"
 771      000D0200 
 771      00636848 
 771      6561704F 
 771      626A6563 
 772 01b5 74000002 		.ascii	"t\000\000\002\000\000\000\000\000\000\000\000\000\021"
 772      00000000 
 772      00000000 
 772      0011
 773 01c3 02000063 		.ascii	"\002\000\000chPoolAlloc\000\000\002\000\000\000\000"
 773      68506F6F 
 773      6C416C6C 
 773      6F630000 
 773      02000000 
 774 01d8 00000000 		.ascii	"\000\000\000\000\000\027\002\000\000chThdCreateFrom"
 774      00170200 
ARM GAS  /tmp/ccsa2nyi.s 			page 62


 774      00636854 
 774      68644372 
 774      65617465 
 775 01f0 4D656D6F 		.ascii	"MemoryPool\000\000\002\000\000\000\000\000\000\000\000"
 775      7279506F 
 775      6F6C0000 
 775      02000000 
 775      00000000 
 776 0205 001B0200 		.ascii	"\000\033\002\000\000chPoolFree\000\000\002\000\000\000"
 776      00636850 
 776      6F6F6C46 
 776      72656500 
 776      00020000 
 777 021a 00000000 		.ascii	"\000\000\000\000\000\000\"\002\000\000chPoolObjectI"
 777      00002202 
 777      00006368 
 777      506F6F6C 
 777      4F626A65 
 778 0231 6E697400 		.ascii	"nit\000\000\002\000\000\000\000\000\000\000\000\000"
 778      00020000 
 778      00000000 
 778      000000
 779 0240 27020000 		.ascii	"'\002\000\000chRegNextThread\000\000\002\000\000\000"
 779      63685265 
 779      674E6578 
 779      74546872 
 779      65616400 
 780 0259 00000000 		.ascii	"\000\000\000\000\000\000-\002\000\000chRegFirstThre"
 780      00002D02 
 780      00006368 
 780      52656746 
 780      69727374 
 781 0271 61640000 		.ascii	"ad\000\000\002\000\000\000\000\000\000\000\000\0001"
 781      02000000 
 781      00000000 
 781      000031
 782 0280 02000063 		.ascii	"\002\000\000chThdSleep\000\000\002\000\000\000\000\000"
 782      68546864 
 782      536C6565 
 782      70000002 
 782      00000000 
 783 0295 00000000 		.ascii	"\000\000\000\0004\002\000\000chThdRelease\000\000\002"
 783      34020000 
 783      63685468 
 783      6452656C 
 783      65617365 
 784 02ac 00000000 		.ascii	"\000\000\000\000\000\000\000\000\000;\002\000\000ch"
 784      00000000 
 784      003B0200 
 784      006368
 785 02bb 54686441 		.ascii	"ThdAddRef\000\000\002\000\000\000\000\000\000\000\000"
 785      64645265 
 785      66000002 
 785      00000000 
 785      00000000 
 786 02cf 003F0200 		.ascii	"\000?\002\000\000"
 786      00
ARM GAS  /tmp/ccsa2nyi.s 			page 63


 787              		.text
 788              		.section	.gnu.lto_.opts,"",%progbits
 789 0000 272D6D63 		.ascii	"'-mcpu=cortex-m4' '-mfloat-abi=hard' '-mfpu=fpv4-sp"
 789      70753D63 
 789      6F727465 
 789      782D6D34 
 789      2720272D 
 790 0033 2D643136 		.ascii	"-d16' '-mno-thumb-interwork' '-mthumb' '-O2' '-fomi"
 790      2720272D 
 790      6D6E6F2D 
 790      7468756D 
 790      622D696E 
 791 0066 742D6672 		.ascii	"t-frame-pointer' '-falign-functions=16' '-ffunction"
 791      616D652D 
 791      706F696E 
 791      74657227 
 791      20272D66 
 792 0099 2D736563 		.ascii	"-sections' '-fdata-sections' '-fno-common' '-flto' "
 792      74696F6E 
 792      73272027 
 792      2D666461 
 792      74612D73 
 793 00cc 272D6673 		.ascii	"'-fsingle-precision-constant'\000"
 793      696E676C 
 793      652D7072 
 793      65636973 
 793      696F6E2D 
 794              		.text
 795              		.section	.text.dyn1_execute,"ax",%progbits
 796              		.align	2
 797              		.p2align 4,,15
 798              		.thumb
 799              		.thumb_func
 800              		.type	dyn1_execute, %function
 801              	dyn1_execute:
 802              		@ args = 0, pretend = 0, frame = 8
 803              		@ frame_needed = 0, uses_anonymous_args = 0
 804 0000 70B5     		push	{r4, r5, r6, lr}
 805 0002 334B     		ldr	r3, .L12
 806 0004 3348     		ldr	r0, .L12+4
 807 0006 9B69     		ldr	r3, [r3, #24]
 808 0008 334C     		ldr	r4, .L12+8
 809 000a 9D68     		ldr	r5, [r3, #8]
 810 000c 84B0     		sub	sp, sp, #16
 811 000e 03A9     		add	r1, sp, #12
 812 0010 FFF7FEFF 		bl	chHeapStatus
 813 0014 314B     		ldr	r3, .L12+12
 814 0016 0093     		str	r3, [sp]
 815 0018 6A1E     		subs	r2, r5, #1
 816 001a 314B     		ldr	r3, .L12+16
 817 001c 2D48     		ldr	r0, .L12+4
 818 001e 4FF4E871 		mov	r1, #464
 819 0022 FFF7FEFF 		bl	chThdCreateFromHeap
 820 0026 2F4B     		ldr	r3, .L12+20
 821 0028 2060     		str	r0, [r4]
 822 002a AA1E     		subs	r2, r5, #2
 823 002c 0093     		str	r3, [sp]
ARM GAS  /tmp/ccsa2nyi.s 			page 64


 824 002e 4FF4E871 		mov	r1, #464
 825 0032 2B4B     		ldr	r3, .L12+16
 826 0034 2748     		ldr	r0, .L12+4
 827 0036 FFF7FEFF 		bl	chThdCreateFromHeap
 828 003a 02A9     		add	r1, sp, #8
 829 003c 6060     		str	r0, [r4, #4]
 830 003e 2548     		ldr	r0, .L12+4
 831 0040 FFF7FEFF 		bl	chHeapStatus
 832 0044 0299     		ldr	r1, [sp, #8]
 833 0046 2348     		ldr	r0, .L12+4
 834 0048 FFF7FEFF 		bl	chHeapAlloc
 835 004c 264B     		ldr	r3, .L12+24
 836 004e 0093     		str	r3, [sp]
 837 0050 4FF4E871 		mov	r1, #464
 838 0054 0646     		mov	r6, r0
 839 0056 EA1E     		subs	r2, r5, #3
 840 0058 214B     		ldr	r3, .L12+16
 841 005a 1E48     		ldr	r0, .L12+4
 842 005c FFF7FEFF 		bl	chThdCreateFromHeap
 843 0060 A060     		str	r0, [r4, #8]
 844 0062 3046     		mov	r0, r6
 845 0064 FFF7FEFF 		bl	chHeapFree
 846 0068 2168     		ldr	r1, [r4]
 847 006a 21B1     		cbz	r1, .L2
 848 006c 6168     		ldr	r1, [r4, #4]
 849 006e 11B1     		cbz	r1, .L2
 850 0070 A168     		ldr	r1, [r4, #8]
 851 0072 19B3     		cbz	r1, .L10
 852 0074 0021     		movs	r1, #0
 853              	.L2:
 854 0076 0120     		movs	r0, #1
 855 0078 FFF7FEFF 		bl	_test_assert
 856 007c 08B1     		cbz	r0, .L11
 857              	.L1:
 858 007e 04B0     		add	sp, sp, #16
 859              		@ sp needed
 860 0080 70BD     		pop	{r4, r5, r6, pc}
 861              	.L11:
 862 0082 FFF7FEFF 		bl	test_wait_threads
 863 0086 0220     		movs	r0, #2
 864 0088 1849     		ldr	r1, .L12+28
 865 008a FFF7FEFF 		bl	_test_assert_sequence
 866 008e 0028     		cmp	r0, #0
 867 0090 F5D1     		bne	.L1
 868 0092 02A9     		add	r1, sp, #8
 869 0094 0F48     		ldr	r0, .L12+4
 870 0096 FFF7FEFF 		bl	chHeapStatus
 871 009a 421E     		subs	r2, r0, #1
 872 009c 5142     		rsbs	r1, r2, #0
 873 009e 5141     		adcs	r1, r1, r2
 874 00a0 0320     		movs	r0, #3
 875 00a2 FFF7FEFF 		bl	_test_assert
 876 00a6 0028     		cmp	r0, #0
 877 00a8 E9D1     		bne	.L1
 878 00aa 0299     		ldr	r1, [sp, #8]
 879 00ac 039B     		ldr	r3, [sp, #12]
 880 00ae CB1A     		subs	r3, r1, r3
ARM GAS  /tmp/ccsa2nyi.s 			page 65


 881 00b0 5942     		rsbs	r1, r3, #0
 882 00b2 5941     		adcs	r1, r1, r3
 883 00b4 0420     		movs	r0, #4
 884 00b6 FFF7FEFF 		bl	_test_assert
 885 00ba E0E7     		b	.L1
 886              	.L10:
 887 00bc E368     		ldr	r3, [r4, #12]
 888 00be 002B     		cmp	r3, #0
 889 00c0 D9D1     		bne	.L2
 890 00c2 2169     		ldr	r1, [r4, #16]
 891 00c4 D1F10101 		rsbs	r1, r1, #1
 892 00c8 38BF     		it	cc
 893 00ca 0021     		movcc	r1, #0
 894 00cc D3E7     		b	.L2
 895              	.L13:
 896 00ce 00BF     		.align	2
 897              	.L12:
 898 00d0 00000000 		.word	ch
 899 00d4 00000000 		.word	.LANCHOR0
 900 00d8 00000000 		.word	threads
 901 00dc 00000000 		.word	.LC0
 902 00e0 00000000 		.word	thread
 903 00e4 04000000 		.word	.LC1
 904 00e8 08000000 		.word	.LC2
 905 00ec 0C000000 		.word	.LC3
 906              		.size	dyn1_execute, .-dyn1_execute
 907              		.section	.text.thread,"ax",%progbits
 908              		.align	2
 909              		.p2align 4,,15
 910              		.thumb
 911              		.thumb_func
 912              		.type	thread, %function
 913              	thread:
 914              		@ args = 0, pretend = 0, frame = 0
 915              		@ frame_needed = 0, uses_anonymous_args = 0
 916 0000 08B5     		push	{r3, lr}
 917 0002 0078     		ldrb	r0, [r0]	@ zero_extendqisi2
 918 0004 FFF7FEFF 		bl	test_emit_token
 919 0008 0020     		movs	r0, #0
 920 000a 08BD     		pop	{r3, pc}
 921              		.size	thread, .-thread
 922 000c AFF30080 		.section	.text.dyn1_setup,"ax",%progbits
 923              		.align	2
 924              		.p2align 4,,15
 925              		.thumb
 926              		.thumb_func
 927              		.type	dyn1_setup, %function
 928              	dyn1_setup:
 929              		@ args = 0, pretend = 0, frame = 0
 930              		@ frame_needed = 0, uses_anonymous_args = 0
 931              		@ link register save eliminated.
 932 0000 0248     		ldr	r0, .L16
 933 0002 0349     		ldr	r1, .L16+4
 934 0004 4FF41162 		mov	r2, #2320
 935 0008 FFF7FEBF 		b	chHeapObjectInit
 936              	.L17:
 937              		.align	2
ARM GAS  /tmp/ccsa2nyi.s 			page 66


 938              	.L16:
 939 000c 00000000 		.word	.LANCHOR0
 940 0010 00000000 		.word	test
 941              		.size	dyn1_setup, .-dyn1_setup
 942 0014 AFF30080 		.section	.text.dyn3_setup,"ax",%progbits
 942      AFF30080 
 942      AFF30080 
 943              		.align	2
 944              		.p2align 4,,15
 945              		.thumb
 946              		.thumb_func
 947              		.type	dyn3_setup, %function
 948              	dyn3_setup:
 949              		@ args = 0, pretend = 0, frame = 0
 950              		@ frame_needed = 0, uses_anonymous_args = 0
 951              		@ link register save eliminated.
 952 0000 0248     		ldr	r0, .L19
 953 0002 0349     		ldr	r1, .L19+4
 954 0004 4FF41162 		mov	r2, #2320
 955 0008 FFF7FEBF 		b	chHeapObjectInit
 956              	.L20:
 957              		.align	2
 958              	.L19:
 959 000c 00000000 		.word	.LANCHOR0
 960 0010 00000000 		.word	test
 961              		.size	dyn3_setup, .-dyn3_setup
 962 0014 AFF30080 		.section	.text.dyn2_execute,"ax",%progbits
 962      AFF30080 
 962      AFF30080 
 963              		.align	2
 964              		.p2align 4,,15
 965              		.thumb
 966              		.thumb_func
 967              		.type	dyn2_execute, %function
 968              	dyn2_execute:
 969              		@ args = 0, pretend = 0, frame = 0
 970              		@ frame_needed = 0, uses_anonymous_args = 0
 971 0000 324B     		ldr	r3, .L35
 972 0002 9B69     		ldr	r3, [r3, #24]
 973 0004 70B5     		push	{r4, r5, r6, lr}
 974 0006 324C     		ldr	r4, .L35+4
 975 0008 9D68     		ldr	r5, [r3, #8]
 976 000a 04F11006 		add	r6, r4, #16
 977              	.L23:
 978 000e 54F8041F 		ldr	r1, [r4, #4]!
 979 0012 3048     		ldr	r0, .L35+8
 980 0014 FFF7FEFF 		bl	chPoolFree
 981 0018 B442     		cmp	r4, r6
 982 001a F8D1     		bne	.L23
 983 001c 2E4A     		ldr	r2, .L35+12
 984 001e 2F4B     		ldr	r3, .L35+16
 985 0020 2C48     		ldr	r0, .L35+8
 986 0022 2F4C     		ldr	r4, .L35+20
 987 0024 691E     		subs	r1, r5, #1
 988 0026 FFF7FEFF 		bl	chThdCreateFromMemoryPool
 989 002a A91E     		subs	r1, r5, #2
 990 002c 2060     		str	r0, [r4]
ARM GAS  /tmp/ccsa2nyi.s 			page 67


 991 002e 2A4A     		ldr	r2, .L35+12
 992 0030 2C4B     		ldr	r3, .L35+24
 993 0032 2848     		ldr	r0, .L35+8
 994 0034 FFF7FEFF 		bl	chThdCreateFromMemoryPool
 995 0038 E91E     		subs	r1, r5, #3
 996 003a 6060     		str	r0, [r4, #4]
 997 003c 264A     		ldr	r2, .L35+12
 998 003e 2A4B     		ldr	r3, .L35+28
 999 0040 2448     		ldr	r0, .L35+8
 1000 0042 FFF7FEFF 		bl	chThdCreateFromMemoryPool
 1001 0046 291F     		subs	r1, r5, #4
 1002 0048 A060     		str	r0, [r4, #8]
 1003 004a 234A     		ldr	r2, .L35+12
 1004 004c 274B     		ldr	r3, .L35+32
 1005 004e 2148     		ldr	r0, .L35+8
 1006 0050 FFF7FEFF 		bl	chThdCreateFromMemoryPool
 1007 0054 691F     		subs	r1, r5, #5
 1008 0056 E060     		str	r0, [r4, #12]
 1009 0058 1F4A     		ldr	r2, .L35+12
 1010 005a 1E48     		ldr	r0, .L35+8
 1011 005c 244B     		ldr	r3, .L35+36
 1012 005e FFF7FEFF 		bl	chThdCreateFromMemoryPool
 1013 0062 2168     		ldr	r1, [r4]
 1014 0064 2061     		str	r0, [r4, #16]
 1015 0066 49B1     		cbz	r1, .L24
 1016 0068 6168     		ldr	r1, [r4, #4]
 1017 006a 39B1     		cbz	r1, .L24
 1018 006c A168     		ldr	r1, [r4, #8]
 1019 006e 29B1     		cbz	r1, .L24
 1020 0070 E168     		ldr	r1, [r4, #12]
 1021 0072 19B1     		cbz	r1, .L24
 1022 0074 D0F10101 		rsbs	r1, r0, #1
 1023 0078 38BF     		it	cc
 1024 007a 0021     		movcc	r1, #0
 1025              	.L24:
 1026 007c 0120     		movs	r0, #1
 1027 007e FFF7FEFF 		bl	_test_assert
 1028 0082 00B1     		cbz	r0, .L34
 1029              	.L21:
 1030 0084 70BD     		pop	{r4, r5, r6, pc}
 1031              	.L34:
 1032 0086 FFF7FEFF 		bl	test_wait_threads
 1033 008a 0220     		movs	r0, #2
 1034 008c 1949     		ldr	r1, .L35+40
 1035 008e FFF7FEFF 		bl	_test_assert_sequence
 1036 0092 0028     		cmp	r0, #0
 1037 0094 F6D1     		bne	.L21
 1038 0096 0424     		movs	r4, #4
 1039              	.L29:
 1040 0098 0E48     		ldr	r0, .L35+8
 1041 009a FFF7FEFF 		bl	chPoolAlloc
 1042 009e 011C     		adds	r1, r0, #0
 1043 00a0 18BF     		it	ne
 1044 00a2 0121     		movne	r1, #1
 1045 00a4 0320     		movs	r0, #3
 1046 00a6 FFF7FEFF 		bl	_test_assert
 1047 00aa 0028     		cmp	r0, #0
ARM GAS  /tmp/ccsa2nyi.s 			page 68


 1048 00ac EAD1     		bne	.L21
 1049 00ae 013C     		subs	r4, r4, #1
 1050 00b0 F2D1     		bne	.L29
 1051 00b2 0848     		ldr	r0, .L35+8
 1052 00b4 FFF7FEFF 		bl	chPoolAlloc
 1053 00b8 D0F10101 		rsbs	r1, r0, #1
 1054 00bc 38BF     		it	cc
 1055 00be 0021     		movcc	r1, #0
 1056 00c0 0420     		movs	r0, #4
 1057 00c2 BDE87040 		pop	{r4, r5, r6, lr}
 1058 00c6 FFF7FEBF 		b	_test_assert
 1059              	.L36:
 1060 00ca 00BF     		.align	2
 1061              	.L35:
 1062 00cc 00000000 		.word	ch
 1063 00d0 FCFFFFFF 		.word	wa-4
 1064 00d4 00000000 		.word	.LANCHOR1
 1065 00d8 00000000 		.word	thread
 1066 00dc 00000000 		.word	.LC0
 1067 00e0 00000000 		.word	threads
 1068 00e4 04000000 		.word	.LC1
 1069 00e8 08000000 		.word	.LC2
 1070 00ec 10000000 		.word	.LC4
 1071 00f0 14000000 		.word	.LC5
 1072 00f4 18000000 		.word	.LC6
 1073              		.size	dyn2_execute, .-dyn2_execute
 1074 00f8 AFF30080 		.section	.text.dyn2_setup,"ax",%progbits
 1074      AFF30080 
 1075              		.align	2
 1076              		.p2align 4,,15
 1077              		.thumb
 1078              		.thumb_func
 1079              		.type	dyn2_setup, %function
 1080              	dyn2_setup:
 1081              		@ args = 0, pretend = 0, frame = 0
 1082              		@ frame_needed = 0, uses_anonymous_args = 0
 1083              		@ link register save eliminated.
 1084 0000 0248     		ldr	r0, .L38
 1085 0002 4FF4E871 		mov	r1, #464
 1086 0006 0022     		movs	r2, #0
 1087 0008 FFF7FEBF 		b	chPoolObjectInit
 1088              	.L39:
 1089              		.align	2
 1090              	.L38:
 1091 000c 00000000 		.word	.LANCHOR1
 1092              		.size	dyn2_setup, .-dyn2_setup
 1093              		.section	.text.regfind,"ax",%progbits
 1094              		.align	2
 1095              		.p2align 4,,15
 1096              		.thumb
 1097              		.thumb_func
 1098              		.type	regfind, %function
 1099              	regfind:
 1100              		@ args = 0, pretend = 0, frame = 0
 1101              		@ frame_needed = 0, uses_anonymous_args = 0
 1102 0000 38B5     		push	{r3, r4, r5, lr}
 1103 0002 0546     		mov	r5, r0
ARM GAS  /tmp/ccsa2nyi.s 			page 69


 1104 0004 FFF7FEFF 		bl	chRegFirstThread
 1105 0008 0024     		movs	r4, #0
 1106 000a 0346     		mov	r3, r0
 1107              	.L42:
 1108 000c 1846     		mov	r0, r3
 1109 000e AB42     		cmp	r3, r5
 1110 0010 08BF     		it	eq
 1111 0012 44F00104 		orreq	r4, r4, #1
 1112 0016 FFF7FEFF 		bl	chRegNextThread
 1113 001a 0346     		mov	r3, r0
 1114 001c 0028     		cmp	r0, #0
 1115 001e F5D1     		bne	.L42
 1116 0020 2046     		mov	r0, r4
 1117 0022 38BD     		pop	{r3, r4, r5, pc}
 1118              		.size	regfind, .-regfind
 1119 0024 AFF30080 		.section	.text.dyn3_execute,"ax",%progbits
 1119      AFF30080 
 1119      AFF30080 
 1120              		.align	2
 1121              		.p2align 4,,15
 1122              		.thumb
 1123              		.thumb_func
 1124              		.type	dyn3_execute, %function
 1125              	dyn3_execute:
 1126              		@ args = 0, pretend = 0, frame = 0
 1127              		@ frame_needed = 0, uses_anonymous_args = 0
 1128 0000 10B5     		push	{r4, lr}
 1129 0002 4A4B     		ldr	r3, .L48
 1130 0004 4A49     		ldr	r1, .L48+4
 1131 0006 9B69     		ldr	r3, [r3, #24]
 1132 0008 4A48     		ldr	r0, .L48+8
 1133 000a 9A68     		ldr	r2, [r3, #8]
 1134 000c 4A4B     		ldr	r3, .L48+12
 1135 000e 82B0     		sub	sp, sp, #8
 1136 0010 013A     		subs	r2, r2, #1
 1137 0012 0091     		str	r1, [sp]
 1138 0014 4FF4E871 		mov	r1, #464
 1139 0018 FFF7FEFF 		bl	chThdCreateFromHeap
 1140 001c 0446     		mov	r4, r0
 1141 001e 0120     		movs	r0, #1
 1142 0020 A17F     		ldrb	r1, [r4, #30]	@ zero_extendqisi2
 1143 0022 B1EB000C 		subs	ip, r1, r0
 1144 0026 DCF10001 		rsbs	r1, ip, #0
 1145 002a 51EB0C01 		adcs	r1, r1, ip
 1146 002e FFF7FEFF 		bl	_test_assert
 1147 0032 08B1     		cbz	r0, .L47
 1148              	.L43:
 1149 0034 02B0     		add	sp, sp, #8
 1150              		@ sp needed
 1151 0036 10BD     		pop	{r4, pc}
 1152              	.L47:
 1153 0038 2046     		mov	r0, r4
 1154 003a FFF7FEFF 		bl	chThdAddRef
 1155 003e A17F     		ldrb	r1, [r4, #30]	@ zero_extendqisi2
 1156 0040 0220     		movs	r0, #2
 1157 0042 B1EB000E 		subs	lr, r1, r0
 1158 0046 DEF10001 		rsbs	r1, lr, #0
ARM GAS  /tmp/ccsa2nyi.s 			page 70


 1159 004a 51EB0E01 		adcs	r1, r1, lr
 1160 004e FFF7FEFF 		bl	_test_assert
 1161 0052 0028     		cmp	r0, #0
 1162 0054 EED1     		bne	.L43
 1163 0056 2046     		mov	r0, r4
 1164 0058 FFF7FEFF 		bl	chThdRelease
 1165 005c A17F     		ldrb	r1, [r4, #30]	@ zero_extendqisi2
 1166 005e 4A1E     		subs	r2, r1, #1
 1167 0060 5142     		rsbs	r1, r2, #0
 1168 0062 5141     		adcs	r1, r1, r2
 1169 0064 0320     		movs	r0, #3
 1170 0066 FFF7FEFF 		bl	_test_assert
 1171 006a 0028     		cmp	r0, #0
 1172 006c E2D1     		bne	.L43
 1173 006e 2046     		mov	r0, r4
 1174 0070 FFF7FEFF 		bl	regfind
 1175 0074 0146     		mov	r1, r0
 1176 0076 0420     		movs	r0, #4
 1177 0078 FFF7FEFF 		bl	_test_assert
 1178 007c 0028     		cmp	r0, #0
 1179 007e D9D1     		bne	.L43
 1180 0080 2046     		mov	r0, r4
 1181 0082 FFF7FEFF 		bl	regfind
 1182 0086 0146     		mov	r1, r0
 1183 0088 0520     		movs	r0, #5
 1184 008a FFF7FEFF 		bl	_test_assert
 1185 008e 0028     		cmp	r0, #0
 1186 0090 D0D1     		bne	.L43
 1187 0092 2046     		mov	r0, r4
 1188 0094 FFF7FEFF 		bl	chThdRelease
 1189 0098 A17F     		ldrb	r1, [r4, #30]	@ zero_extendqisi2
 1190 009a D1F10101 		rsbs	r1, r1, #1
 1191 009e 38BF     		it	cc
 1192 00a0 0021     		movcc	r1, #0
 1193 00a2 0620     		movs	r0, #6
 1194 00a4 FFF7FEFF 		bl	_test_assert
 1195 00a8 0028     		cmp	r0, #0
 1196 00aa C3D1     		bne	.L43
 1197 00ac 217F     		ldrb	r1, [r4, #28]	@ zero_extendqisi2
 1198 00ae D1F10101 		rsbs	r1, r1, #1
 1199 00b2 38BF     		it	cc
 1200 00b4 0021     		movcc	r1, #0
 1201 00b6 0720     		movs	r0, #7
 1202 00b8 FFF7FEFF 		bl	_test_assert
 1203 00bc 0028     		cmp	r0, #0
 1204 00be B9D1     		bne	.L43
 1205 00c0 2046     		mov	r0, r4
 1206 00c2 FFF7FEFF 		bl	regfind
 1207 00c6 0146     		mov	r1, r0
 1208 00c8 0820     		movs	r0, #8
 1209 00ca FFF7FEFF 		bl	_test_assert
 1210 00ce 0028     		cmp	r0, #0
 1211 00d0 B0D1     		bne	.L43
 1212 00d2 2046     		mov	r0, r4
 1213 00d4 FFF7FEFF 		bl	regfind
 1214 00d8 0146     		mov	r1, r0
 1215 00da 0920     		movs	r0, #9
ARM GAS  /tmp/ccsa2nyi.s 			page 71


 1216 00dc FFF7FEFF 		bl	_test_assert
 1217 00e0 0028     		cmp	r0, #0
 1218 00e2 A7D1     		bne	.L43
 1219 00e4 4FF4FA70 		mov	r0, #500
 1220 00e8 FFF7FEFF 		bl	chThdSleep
 1221 00ec 217F     		ldrb	r1, [r4, #28]	@ zero_extendqisi2
 1222 00ee B1F10F03 		subs	r3, r1, #15
 1223 00f2 5942     		rsbs	r1, r3, #0
 1224 00f4 5941     		adcs	r1, r1, r3
 1225 00f6 0A20     		movs	r0, #10
 1226 00f8 FFF7FEFF 		bl	_test_assert
 1227 00fc 0028     		cmp	r0, #0
 1228 00fe 99D1     		bne	.L43
 1229 0100 2046     		mov	r0, r4
 1230 0102 FFF7FEFF 		bl	regfind
 1231 0106 0146     		mov	r1, r0
 1232 0108 0B20     		movs	r0, #11
 1233 010a FFF7FEFF 		bl	_test_assert
 1234 010e 0028     		cmp	r0, #0
 1235 0110 90D1     		bne	.L43
 1236 0112 2046     		mov	r0, r4
 1237 0114 FFF7FEFF 		bl	regfind
 1238 0118 80F00101 		eor	r1, r0, #1
 1239 011c C9B2     		uxtb	r1, r1
 1240 011e 0C20     		movs	r0, #12
 1241 0120 02B0     		add	sp, sp, #8
 1242              		@ sp needed
 1243 0122 BDE81040 		pop	{r4, lr}
 1244 0126 FFF7FEBF 		b	_test_assert
 1245              	.L49:
 1246 012a 00BF     		.align	2
 1247              	.L48:
 1248 012c 00000000 		.word	ch
 1249 0130 00000000 		.word	.LC0
 1250 0134 00000000 		.word	.LANCHOR0
 1251 0138 00000000 		.word	thread
 1252              		.size	dyn3_execute, .-dyn3_execute
 1253              		.global	patterndyn
 1254              		.global	testdyn3
 1255              		.global	testdyn2
 1256              		.global	testdyn1
 1257 013c AFF30080 		.section	.rodata.testdyn1,"a",%progbits
 1258              		.align	2
 1259              		.type	testdyn1, %object
 1260              		.size	testdyn1, 16
 1261              	testdyn1:
 1262 0000 78000000 		.word	.LC9
 1263 0004 00000000 		.word	dyn1_setup
 1264 0008 00000000 		.word	0
 1265 000c 00000000 		.word	dyn1_execute
 1266              		.section	.rodata.testdyn2,"a",%progbits
 1267              		.align	2
 1268              		.type	testdyn2, %object
 1269              		.size	testdyn2, 16
 1270              	testdyn2:
 1271 0000 48000000 		.word	.LC8
 1272 0004 00000000 		.word	dyn2_setup
ARM GAS  /tmp/ccsa2nyi.s 			page 72


 1273 0008 00000000 		.word	0
 1274 000c 00000000 		.word	dyn2_execute
 1275              		.section	.rodata.testdyn3,"a",%progbits
 1276              		.align	2
 1277              		.type	testdyn3, %object
 1278              		.size	testdyn3, 16
 1279              	testdyn3:
 1280 0000 20000000 		.word	.LC7
 1281 0004 00000000 		.word	dyn3_setup
 1282 0008 00000000 		.word	0
 1283 000c 00000000 		.word	dyn3_execute
 1284              		.section	.bss.mp1,"aw",%nobits
 1285              		.align	2
 1286              		.set	.LANCHOR1,. + 0
 1287              		.type	mp1, %object
 1288              		.size	mp1, 12
 1289              	mp1:
 1290 0000 00000000 		.space	12
 1290      00000000 
 1290      00000000 
 1291              		.section	.rodata.str1.4,"aMS",%progbits,1
 1292              		.align	2
 1293              	.LC0:
 1294 0000 4100     		.ascii	"A\000"
 1295 0002 0000     		.space	2
 1296              	.LC1:
 1297 0004 4200     		.ascii	"B\000"
 1298 0006 0000     		.space	2
 1299              	.LC2:
 1300 0008 4300     		.ascii	"C\000"
 1301 000a 0000     		.space	2
 1302              	.LC3:
 1303 000c 414200   		.ascii	"AB\000"
 1304 000f 00       		.space	1
 1305              	.LC4:
 1306 0010 4400     		.ascii	"D\000"
 1307 0012 0000     		.space	2
 1308              	.LC5:
 1309 0014 4500     		.ascii	"E\000"
 1310 0016 0000     		.space	2
 1311              	.LC6:
 1312 0018 41424344 		.ascii	"ABCD\000"
 1312      00
 1313 001d 000000   		.space	3
 1314              	.LC7:
 1315 0020 44796E61 		.ascii	"Dynamic APIs, registry and references\000"
 1315      6D696320 
 1315      41504973 
 1315      2C207265 
 1315      67697374 
 1316 0046 0000     		.space	2
 1317              	.LC8:
 1318 0048 44796E61 		.ascii	"Dynamic APIs, threads creation from memory pool\000"
 1318      6D696320 
 1318      41504973 
 1318      2C207468 
 1318      72656164 
ARM GAS  /tmp/ccsa2nyi.s 			page 73


 1319              	.LC9:
 1320 0078 44796E61 		.ascii	"Dynamic APIs, threads creation from heap\000"
 1320      6D696320 
 1320      41504973 
 1320      2C207468 
 1320      72656164 
 1321 00a1 000000   		.section	.rodata.patterndyn,"a",%progbits
 1322              		.align	2
 1323              		.type	patterndyn, %object
 1324              		.size	patterndyn, 16
 1325              	patterndyn:
 1326 0000 00000000 		.word	testdyn1
 1327 0004 00000000 		.word	testdyn2
 1328 0008 00000000 		.word	testdyn3
 1329 000c 00000000 		.word	0
 1330              		.section	.bss.heap1,"aw",%nobits
 1331              		.align	3
 1332              		.set	.LANCHOR0,. + 0
 1333              		.type	heap1, %object
 1334              		.size	heap1, 32
 1335              	heap1:
 1336 0000 00000000 		.space	32
 1336      00000000 
 1336      00000000 
 1336      00000000 
 1336      00000000 
 1337              		.comm	__gnu_lto_v1,1,1
 1338              		.ident	"GCC: (GNU Tools for ARM Embedded Processors) 4.8.4 20140526 (release) [ARM/embedded-4_8-br
ARM GAS  /tmp/ccsa2nyi.s 			page 74


DEFINED SYMBOLS
                            *ABS*:0000000000000000 testdyn.c
     /tmp/ccsa2nyi.s:796    .text.dyn1_execute:0000000000000000 $t
     /tmp/ccsa2nyi.s:801    .text.dyn1_execute:0000000000000000 dyn1_execute
     /tmp/ccsa2nyi.s:898    .text.dyn1_execute:00000000000000d0 $d
     /tmp/ccsa2nyi.s:913    .text.thread:0000000000000000 thread
     /tmp/ccsa2nyi.s:908    .text.thread:0000000000000000 $t
     /tmp/ccsa2nyi.s:923    .text.dyn1_setup:0000000000000000 $t
     /tmp/ccsa2nyi.s:928    .text.dyn1_setup:0000000000000000 dyn1_setup
     /tmp/ccsa2nyi.s:939    .text.dyn1_setup:000000000000000c $d
     /tmp/ccsa2nyi.s:943    .text.dyn3_setup:0000000000000000 $t
     /tmp/ccsa2nyi.s:948    .text.dyn3_setup:0000000000000000 dyn3_setup
     /tmp/ccsa2nyi.s:959    .text.dyn3_setup:000000000000000c $d
     /tmp/ccsa2nyi.s:963    .text.dyn2_execute:0000000000000000 $t
     /tmp/ccsa2nyi.s:968    .text.dyn2_execute:0000000000000000 dyn2_execute
     /tmp/ccsa2nyi.s:1062   .text.dyn2_execute:00000000000000cc $d
     /tmp/ccsa2nyi.s:1075   .text.dyn2_setup:0000000000000000 $t
     /tmp/ccsa2nyi.s:1080   .text.dyn2_setup:0000000000000000 dyn2_setup
     /tmp/ccsa2nyi.s:1091   .text.dyn2_setup:000000000000000c $d
     /tmp/ccsa2nyi.s:1094   .text.regfind:0000000000000000 $t
     /tmp/ccsa2nyi.s:1099   .text.regfind:0000000000000000 regfind
     /tmp/ccsa2nyi.s:1120   .text.dyn3_execute:0000000000000000 $t
     /tmp/ccsa2nyi.s:1125   .text.dyn3_execute:0000000000000000 dyn3_execute
     /tmp/ccsa2nyi.s:1248   .text.dyn3_execute:000000000000012c $d
     /tmp/ccsa2nyi.s:1325   .rodata.patterndyn:0000000000000000 patterndyn
     /tmp/ccsa2nyi.s:1279   .rodata.testdyn3:0000000000000000 testdyn3
     /tmp/ccsa2nyi.s:1270   .rodata.testdyn2:0000000000000000 testdyn2
     /tmp/ccsa2nyi.s:1261   .rodata.testdyn1:0000000000000000 testdyn1
     /tmp/ccsa2nyi.s:1258   .rodata.testdyn1:0000000000000000 $d
     /tmp/ccsa2nyi.s:1267   .rodata.testdyn2:0000000000000000 $d
     /tmp/ccsa2nyi.s:1276   .rodata.testdyn3:0000000000000000 $d
     /tmp/ccsa2nyi.s:1285   .bss.mp1:0000000000000000 $d
     /tmp/ccsa2nyi.s:1289   .bss.mp1:0000000000000000 mp1
     /tmp/ccsa2nyi.s:1292   .rodata.str1.4:0000000000000000 $d
     /tmp/ccsa2nyi.s:1322   .rodata.patterndyn:0000000000000000 $d
     /tmp/ccsa2nyi.s:1331   .bss.heap1:0000000000000000 $d
     /tmp/ccsa2nyi.s:1335   .bss.heap1:0000000000000000 heap1
                            *COM*:0000000000000001 __gnu_lto_v1
     /tmp/ccsa2nyi.s:942    .text.dyn1_setup:0000000000000014 $t
     /tmp/ccsa2nyi.s:962    .text.dyn3_setup:0000000000000014 $t
     /tmp/ccsa2nyi.s:1074   .text.dyn2_execute:00000000000000f8 $t
     /tmp/ccsa2nyi.s:1257   .text.dyn3_execute:000000000000013c $t

UNDEFINED SYMBOLS
chHeapStatus
chThdCreateFromHeap
chHeapAlloc
chHeapFree
_test_assert
test_wait_threads
_test_assert_sequence
ch
threads
test_emit_token
chHeapObjectInit
test
chPoolFree
ARM GAS  /tmp/ccsa2nyi.s 			page 75


chThdCreateFromMemoryPool
chPoolAlloc
wa
chPoolObjectInit
chRegFirstThread
chRegNextThread
chThdAddRef
chThdRelease
chThdSleep
