ARM GAS  /tmp/ccgfFyQX.s 			page 1


   1              		.syntax unified
   2              		.cpu cortex-m3
   3              		.fpu softvfp
   4              		.eabi_attribute 20, 1
   5              		.eabi_attribute 21, 1
   6              		.eabi_attribute 23, 3
   7              		.eabi_attribute 24, 1
   8              		.eabi_attribute 25, 1
   9              		.eabi_attribute 26, 1
  10              		.eabi_attribute 30, 2
  11              		.eabi_attribute 34, 1
  12              		.eabi_attribute 18, 4
  13              		.thumb
  14              		.file	"testthd.c"
  15              		.section	.gnu.lto_.jmpfuncs.34321f362e082505,"",%progbits
  16 0000 789CBD91 		.ascii	"x\234\275\221=\016\202@\020\205\337\314\302\202\222"
  16      3D0E8240 
  16      1085DFCC 
  16      C28292
  17 000f 184D8825 		.ascii	"\030M\210%g\221\277;\330k\303\031l(=\002\215\367\361"
  17      6791BF3B 
  17      D86BC319 
  17      6C283D02 
  17      8DF7F1
  18 0022 289EC1CA 		.ascii	"(\236\301\312eY\310`,\314b\244\341\361\336\373&\354"
  18      6559C860 
  18      2CCC62A4 
  18      E1F1DEFB 
  18      26EC
  19 0034 2C83F1E9 		.ascii	",\203\361\351\351\024\2607o\0150\037\251!\220Q\027<"
  19      E914B037 
  19      6F0D301F 
  19      A9219051 
  19      173C
  20 0046 DBAEDD36 		.ascii	"\333\256\3356D\031\350\326v\207\206\034\036\232\324"
  20      4419E8D6 
  20      7687861C 
  20      1E9AD4
  21 0055 D6EED6B0 		.ascii	"\326\356\326\260\315k\337T'\302\344X6\310\020\017l\350"
  21      CD6BDF54 
  21      27C2E458 
  21      36C8100F 
  21      6CE8
  22 0067 8126FEE8 		.ascii	"\201&\376\350\306\037\335\371\243\251D\025Q\317\177"
  22      C61FDDF9 
  22      A3A94415 
  22      51CF7F
  23 0076 B552FAE3 		.ascii	"\265R\372\343\371\026lu\301]\246?\272\020=.4\261\275"
  23      F9166C75 
  23      C15DA63F 
  23      BA103D2E 
  23      34B1BD
  24 0089 41AF855E 		.ascii	"A\257\205^\271}\272\317XD\221\320z^\013E\024\010\255"
  24      B97DBACF 
  24      584491D0 
  24      7A5E0B45 
  24      1408AD
ARM GAS  /tmp/ccgfFyQX.s 			page 2


  25 009c E6351611 		.ascii	"\3465\026\021\271(\002YC?\314|%0\233*1\023\375\337("
  25      B9280259 
  25      433FCC7C 
  25      25309B2A 
  25      3113FDDF 
  26 00b1 3109237A 		.ascii	"1\011#z\236|z\367\315\221\363\242\254jp\016.\300%\270"
  26      9E7C7AF7 
  26      CD91F3A2 
  26      AC6A700E 
  26      2EC025B8 
  27 00c5 02D77801 		.ascii	"\002\327x\001v9\224\361"
  27      763994F1 
  28              		.text
  29              		.section	.gnu.lto_.inline.34321f362e082505,"",%progbits
  30 0000 789C6362 		.ascii	"x\234cb`b\300\006^3Bh6\006\206\303\014\215\214\214\014"
  30      6062C006 
  30      5E334268 
  30      360686C3 
  30      0C8D8C8C 
  31 0015 4C4617DA 		.ascii	"LF\027\332\230\031\330\026\310\203\3253\3630\20042r"
  31      9819D816 
  31      C883D533 
  31      F3308034 
  31      3272
  32 0027 01D9EC02 		.ascii	"\001\331\354\002\014\014\254\023\374\030\200\210d6\320"
  32      0C0CAC13 
  32      FC188088 
  32      6436D0
  33 0036 443EA0E1 		.ascii	"D>\240\341\214 \026\013\310:\220\371\214/\330Y $\310"
  33      8C20160B 
  33      C83A90F9 
  33      8C2FD859 
  33      2024C8
  34 0049 2A266EA0 		.ascii	"*&n\240=\023\374X\031N0\364\203\334aq`+vw@\025R\342"
  34      3D13FC58 
  34      194E30F4 
  34      83DC6171 
  34      602B7677 
  35 0061 1C36865F 		.ascii	"\0346\206_\014z@;\352>\3640\302\355`\341\005\3311\301"
  35      0C7A403B 
  35      EA3EF430 
  35      C2ED60E1 
  35      05D931C1 
  36 0075 0F9D06D9 		.ascii	"\017\235\006\331\315\210)L\2314T\230\235AF\027\350\016"
  36      CD88294C 
  36      99345498 
  36      9D414617 
  36      E80E
  37 0087 8947DD08 		.ascii	"\211G\335\010w\200\375\307\300\312\007\012\253\011~"
  37      7780FDC7 
  37      C0CA070A 
  37      AB097E
  38 0096 13FCA0FE 		.ascii	"\023\374\240\376\005\351\204\010p0(Z\0015\311|\233\216"
  38      05E98408 
  38      7030285A 
  38      0135C97C 
  38      9B8E
ARM GAS  /tmp/ccgfFyQX.s 			page 3


  39 00a8 D0040E19 		.ascii	"\320\004\016\0314=\030|\260\"\006\000\323W?\251"
  39      343D187C 
  39      B0220600 
  39      D3573FA9 
  40              		.text
  41              		.section	.gnu.lto_.pureconst.34321f362e082505,"",%progbits
  42 0000 789C6362 		.ascii	"x\234cb`b\340e\200\0006\006IfIV+6+v+\016+\000\010\002"
  42      6062E065 
  42      80003606 
  42      49664956 
  42      2B362B76 
  43 001a 014F     		.ascii	"\001O"
  44              		.text
  45              		.section	.gnu.lto_thd1_execute.34321f362e082505,"",%progbits
  46 0000 789CB596 		.ascii	"x\234\265\226KO\023Q\024\307\317\275\245\264<*\024\220"
  46      4B4F1351 
  46      14C7CFBD 
  46      A5B43C2A 
  46      1490
  47 0012 8709EF87 		.ascii	"\207\011\357\207F#\263\321\030w\362\372\006\230\350"
  47      4623B3D1 
  47      1877F2FA 
  47      0698E8
  48 0021 12A6A41D 		.ascii	"\022\246\244\035\265`h!!.\030D\015\011\033L\\\024\214"
  48      B5606821 
  48      212E1844 
  48      0D091B4C 
  48      5C148C
  49 0034 0BA3A231 		.ascii	"\013\243\2421F\243\211\211A\026$&\200\001\001\027\032"
  49      46A38989 
  49      41162426 
  49      80010117 
  49      1A
  50 0045 43581030 		.ascii	"CX\0200~\004$\276\3529w\332\351M\247\235\244\244L\322"
  50      7E0424BE 
  50      EA3977DA 
  50      E94DA79D 
  50      A4A44CD2 
  51 0059 3BFF3373 		.ascii	";\3773s\3569\377{\177\275M9pH\276\252\360s\242\000`"
  51      EE39FF7B 
  51      7FBD4D39 
  51      7048BEAA 
  51      F073A200 
  52 006e 14EFCC01 		.ascii	"\024\357\314\001\214O\255\001\214\2719c$\200\301(g\243"
  52      8C4FAD01 
  52      8CB93963 
  52      2480C128 
  52      67A3
  53 0080 9799C87D 		.ascii	"\227\231\310}\305\027\266\243\321\227\367\356<\236g"
  53      C517B6A3 
  53      D197F7EE 
  53      3C9E67
  54 008f D3FC3807 		.ascii	"\323\3748\007\215\201\003\007\346\304\201\273(tS\230"
  54      8D810307 
  54      E6C481BB 
  54      28745398 
  55 009f 4F612185 		.ascii	"Oa!\205\036\012\213(\364RXBa\031\205\345\024VPXEa5\015"
ARM GAS  /tmp/ccgfFyQX.s 			page 4


  55      1E0A8B28 
  55      F4525842 
  55      611985E5 
  55      14565058 
  56 00b7 3538386A 		.ascii	"588jI\325\221\252'\325@\252\221T\023\251fR-\244\320"
  56      49D591AA 
  56      27D540AA 
  56      915413A9 
  56      66522DA4 
  57 00cc 8E136EE9 		.ascii	"\216\023n\351\372T\035\200*\354u\343H\236/2Nw\307'\270"
  57      FA541D80 
  57      2AEC75E3 
  57      489E2F32 
  57      4E77C727 
  58 00e1 B915D95D 		.ascii	"\271\025\331]\316\351a\017\321\240\237\361\323\360B"
  58      CEE9610F 
  58      D1A09FF1 
  58      D3F042
  59 00f0 2FD658CE 		.ascii	"/\326X\316}\230\031\233\"\345\274\001\277\364\010\251"
  59      7D98199B 
  59      22E5BC01 
  59      BFF408A9 
  60 0100 DCA02871 		.ascii	"\334\240(q\211\241\204\270rI\333\204\3056\2676\277\236"
  60      89A184B8 
  60      7249DB84 
  60      C536B736 
  60      BF9E
  61 0112 317B1A42 		.ascii	"1{\032B\1774\253HF\014\2610\271\370\332\213\365\214"
  61      7F34AB48 
  61      460CB130 
  61      B9F8DA8B 
  61      F58C
  62 0124 C62A13A5 		.ascii	"\306*\023\245U&\366\336\317\252O\301s]\327\267\277\274"
  62      5526F6DE 
  62      CFAA4FC1 
  62      735DD7B7 
  62      BFBC
  63 0136 7D721217 		.ascii	"}r\022\027cD\372y\215\271\311\227Nn\362\310\327\004"
  63      6344FA79 
  63      8DB9C997 
  63      4E6EF2C8 
  63      D704
  64 0148 A9FCA098 		.ascii	"\251\374\240\230Mn\362\205\217^\012{\330,\026F\315L"
  64      4D6EF285 
  64      8F5E0A7B 
  64      D82C1646 
  64      CD4C
  65 015a 6D388CBC 		.ascii	"m8\214\2749\326\303\236\212\325\326\304\012\207p\257"
  65      39D6C39E 
  65      8AD5D6C4 
  65      0A8770AF 
  66 016a CCC205D8 		.ascii	"\314\302\005\330\236j\361X-N\363\237\305\347\217O|\230"
  66      9E6AF158 
  66      2D4EF39F 
  66      C5E78F4F 
  66      7C98
  67 017c 5CBC9B17 		.ascii	"\\\274\233\027\337/\007\026\241d\366;\032\215\026a\306"
ARM GAS  /tmp/ccgfFyQX.s 			page 5


  67      DF2F0716 
  67      A164F63B 
  67      1A8D1661 
  67      C6
  68 018d 3A54C6DF 		.ascii	":T\306\3379M\207\205\252`A+\343\224\355Y\3464\227\336"
  68      394D8785 
  68      AA60412B 
  68      E394ED59 
  68      E63497DE 
  69 01a1 BB357644 		.ascii	"\2735vDe\261\375\007zR\251\261\242\032\270\362@\217"
  69      65B1FD07 
  69      7A52A9B1 
  69      A21AB8F2 
  69      408F
  70 01b3 5CD05871 		.ascii	"\\\320Xql\203\220\246W\330\377\270\3412\236\020(\274"
  70      6C8390A6 
  70      57D8FFB8 
  70      E1329E10 
  70      28BC
  71 01c5 CEA251D3 		.ascii	"\316\242Q\323z\211\331\2614(\374S\263\322\024\254\374"
  71      7A89D9B1 
  71      3428FC53 
  71      B3D214AC 
  71      FC
  72 01d6 5492D8BF 		.ascii	"T\222\330\277\223\330\2732f\317\016\310~\305\216}m6"
  72      93D8BB32 
  72      66CF0EC8 
  72      7EC58E7D 
  72      6D36
  73 01e8 D8CF49EC 		.ascii	"\330\317I\354\347\222\330\277\027\253\255K\303\276\326"
  73      E792D8BF 
  73      17ABAD4B 
  73      C3BED6
  74 01f7 C27E5E62 		.ascii	"\302~^b\277\"\261wc\021\301\376\217\225}~*\366\256\004"
  74      BF22B177 
  74      6311C1FE 
  74      8F957D7E 
  74      2AF6AE04 
  75 020b 7BB71DFB 		.ascii	"{\267\035\373\340a\2607Y\371i\247\210\3757\211}a\306"
  75      E061B037 
  75      59F969A7 
  75      88FD3789 
  75      7D61C6
  76 021e ECA55FC9 		.ascii	"\354\245_\311\314\316\375\222\015\373\372l\260_\223"
  76      CCCEFD92 
  76      0DFBFA6C 
  76      B05F93
  77 022d D8AF25B1 		.ascii	"\330\257%\261_\027\253mH\303\276\336\302~C>\367K\011"
  77      5F17AB6D 
  77      48C3BEDE 
  77      C27E433E 
  77      F74B09
  78 0240 F61E2C22 		.ascii	"\366\036,\"\330\377\265\262/J\305\2760\301\336c\307"
  78      D8FFB5B2 
  78      2F4AC5BE 
  78      30C1DE63 
  78      C7
ARM GAS  /tmp/ccgfFyQX.s 			page 6


  79 0251 FEFA61B0 		.ascii	"\376\372a\2607Y\2419\203\375\276\304\336\2331{\307A"
  79      3759A139 
  79      83FDBEC4 
  79      DE9B317B 
  79      C741
  80 0263 CFBD1DFB 		.ascii	"\317\275\035\373\306l\260\337\221\330\357$\261\337\025"
  80      C66CB0DF 
  80      91D8EF24 
  80      B1DF15
  81 0272 AB6D4AC3 		.ascii	"\253mJ\303\276\321\302\376\273|\356%\366%XD\260\377"
  81      BED1C2FE 
  81      BB7CEE25 
  81      F6255844 
  81      B0FF
  82 0284 67655F96 		.ascii	"ge_\226\212\2757\301\276\304\216}\3500\330\233\254\320"
  82      8ABD37C1 
  82      BEC48E7D 
  82      E830D89B 
  82      ACD0
  83 0296 9CC13EF2 		.ascii	"\234\301>\362#\301\276<c\3669\007=\367\2536\354\233"
  83      23C1BE3C 
  83      63F63907 
  83      3DF7AB36 
  83      EC9B
  84 02a8 B3C17E4F 		.ascii	"\263\301~Ob\277\227\304\376\247XmK\032\366\315\026\366"
  84      62BF97C4 
  84      FEA7586D 
  84      4B1AF6CD 
  84      16F6
  85 02ba FBF2B95F 		.ascii	"\373\362\271_M\260\257\300\"\202}\324\312\276*\025\373"
  85      4DB0AFC0 
  85      22827DD4 
  85      CABE2A15 
  85      FB
  86 02cb F204FB0A 		.ascii	"\362\004\373\012;\366\303\207\301\336d\205\346\310\352"
  86      3BF6C387 
  86      C1DE6485 
  86      E6C8EA
  87 02da F8F6F478 		.ascii	"\370\366\364xA\254\001\230s\313Tc\261\330\363(e\335"
  87      41AC0198 
  87      73CB5463 
  87      B1D8F328 
  87      65DD
  88 02ec DE9E512D 		.ascii	"\336\236Q-I\345\252\364%\360\260\270\363\212\032\030"
  88      49E5AAF4 
  88      25F0B0B8 
  88      F38A1A18 
  89 02fc 319C5726 		.ascii	"1\234W&\234c\257\317\300\342%\214\253\033\271\340\037"
  89      9C63AFCF 
  89      C0E2258C 
  89      AB1BB9E0 
  89      1F
  90 030d 4E32A928 		.ascii	"N2\251(\201\201`\237\242\016\370F\024_\337\260\242\006"
  90      8181609F 
  90      A20EF846 
  90      145FDFB0 
  90      A206
ARM GAS  /tmp/ccgfFyQX.s 			page 7


  91 031f B45E6D20 		.ascii	"\264^m \244\204\007\207\372\257*\341\276PX\031\014\213"
  91      A4840787 
  91      FAAF2AE1 
  91      BE505819 
  91      0C8B
  92 0331 7B38E06B 		.ascii	"{8\340kU\341\234m>\012\314\326\372\325kC>L\012\204\003"
  92      55E19C6D 
  92      3E0ACCD6 
  92      FAD56B43 
  92      3E4C0A84 
  93 0346 837D3DBE 		.ascii	"\203}=\276Pk\000x\027\360N\340\035\300\333\201\267A"
  93      506B0078 
  93      17F04EE0 
  93      1DC0DB81 
  93      B741
  94 0358 6E5B7B47 		.ascii	"n[{Gg\027\374\007#\235\304\223"
  94      6717FC07 
  94      239DC493 
  95              		.text
  96              		.section	.gnu.lto_thread.34321f362e082505,"",%progbits
  97 0000 789C5D4F 		.ascii	"x\234]O1N\002Q\020}o\2265\226Z\332y\002~\274\013&Z\342"
  97      314E0251 
  97      107D6F96 
  97      35965ADA 
  97      79027EBC 
  98 0018 DF0DFB43 		.ascii	"\337\015\373C`\023\370\222\020\013\026\242\011%\265"
  98      6013F892 
  98      100B16A2 
  98      0925B5
  99 0027 565E00AD 		.ascii	"V^\000\255\255\274\200\020\302\005\340\026\012\305:"
  99      ADBC8010 
  99      C205E016 
  99      0AC53A
 100 0036 7FC1C649 		.ascii	"\177\301\306I\336\274\231\314{\231\031\201\340\177\\"
 100      DEBC99CC 
 100      7B991981 
 100      E07F5C
 101 0045 28DE1557 		.ascii	"(\336\025W\012F\240\314\026\300\370T\310P\200\030\011"
 101      0A46A0CC 
 101      16C0F854 
 101      C8508018 
 101      09
 102 0056 47B7ACB4 		.ascii	"G\267\254\264o\362\271)\313\371\367\317v\312\363X\330"
 102      6FF2B929 
 102      CBF9F7CF 
 102      76CAF358 
 102      D8
 103 0067 2122B86A 		.ascii	"!\"\270j\026\343\261(f\227\200\255\332\206\346\340\277"
 103      16E3B128 
 103      669780AD 
 103      DA86E6E0 
 103      BF
 104 0078 A6048EBE 		.ascii	"\246\004\216\2760\371x\332\257\245\311W\306h1z\3013"
 104      30F978DA 
 104      AFA5C957 
 104      C668317A 
 104      C133
ARM GAS  /tmp/ccgfFyQX.s 			page 8


 105 008a D5D9A2DC 		.ascii	"\325\331\242\334(\363x\314\022\265\203\002x\300\256"
 105      28F378CC 
 105      12B58302 
 105      78C0AE
 106 0099 9816678E 		.ascii	"\230\026g\216b\217cu9\275\020+\2147\345\311A\027\314"
 106      628F6375 
 106      39BD102B 
 106      8C37E5C9 
 106      4117CC
 107 00ac B5BF571A 		.ascii	"\265\277W\032*\324e\341Gc\262\274\223\032\233'C\223"
 107      2AD465E1 
 107      4763B2BC 
 107      931A9B27 
 107      4393
 108 00be A4036333 		.ascii	"\244\003c3w\347\362\276\361\275\373n\333\370\264\357"
 108      77E7F2BE 
 108      F1BDFB6E 
 108      DBF8B4EF 
 109 00ce 4DCF57EC 		.ascii	"M\317W\354\263\244n\361\013\210\364<y"
 109      B3A46EF1 
 109      0B88F43C 
 109      79
 110              		.text
 111              		.section	.gnu.lto_thd2_execute.34321f362e082505,"",%progbits
 112 0000 789CB596 		.ascii	"x\234\265\226QhSg\024\307\317\371\322\230X\223\245\251"
 112      51685367 
 112      14C7CFF9 
 112      D2985893 
 112      A5A9
 113 0012 9D8DDD5A 		.ascii	"\235\215\335Z\252\265\326v\326\353\203c\014\366\240"
 113      AAB5D676 
 113      D6EB8363 
 113      0CF6A0
 114 0021 B60A3EF8 		.ascii	"\266\012>\370\262:\330\236Fz\023\232\253K#I:\024\037"
 114      B23AD89E 
 114      467A139A 
 114      AB4B2349 
 114      3A141F
 115 0034 BC5A1D82 		.ascii	"\274Z\035\202C\272\2672\361At*\"\023\2051\321>8|\351"
 115      43BAB732 
 115      F141742A 
 115      22138531 
 115      D13E387C 
 116 0049 28AB8E31 		.ascii	"(\253\2161\331J\0362\327\3227A\031L\266jv\316\227{o"
 116      D94A1E32 
 116      D7D23741 
 116      194CB66A 
 116      76CE977B 
 117 005e 3E729BB8 		.ascii	">r\233\270\224\366B\276{N\356\371\316\367\377\316\357"
 117      94F642BE 
 117      7B4EEEF9 
 117      CEF7FFCE 
 117      EF
 118 006f 7CC91520 		.ascii	"|\311\025 \240\374ZO\237\376\000@\216\356\350\001\024"
 118      A0FC5A4F 
 118      9FFE0040 
 118      8EEEE801 
ARM GAS  /tmp/ccgfFyQX.s 			page 9


 118      14
 119 0080 63D30027 		.ascii	"c\323\000'\374\002\221\015@8.\360\370'(co\212\373\371"
 119      FC02910D 
 119      40382EF0 
 119      F8272863 
 119      6F8AFBF9 
 120 0094 42E1DB85 		.ascii	"B\341\333\205/.O\340\005\321+\300@\360\320\200^\032"
 120      2F2E4FE0 
 120      05D12BC0 
 120      40F0D080 
 120      5E1A
 121 00a6 848F5D3F 		.ascii	"\204\217]?\273\365\354\006\330\015\262\033b7\314n#\273"
 121      BBF5EC06 
 121      D80DB21B 
 121      6237CC6E 
 121      23BB
 122 00b8 4DEC36B3 		.ascii	"M\3546\263\033a\267\205\335V\0366\360\260\221\006O\007"
 122      1B61B785 
 122      DD561E36 
 122      F0B09106 
 122      4F07
 123 00ca 5B9BD8EA 		.ascii	"[\233\330\352dk3[]lma\253\233\255\036\266H\223\027N"
 123      646B335B 
 123      5D6C6D61 
 123      AB9BAD1E 
 123      B6489317 
 124 00df 99E6583B 		.ascii	"\231\346X;\200.5\036\240\221\205\177\204\202\357\236"
 124      802E351E 
 124      A091857F 
 124      8482EF9E 
 125 00ef 9FE0646E 		.ascii	"\237\340dn\374\371d]\024/\222\312!\024\275p\303l0\260"
 125      FCF9645D 
 125      142F92CA 
 125      2114BD70 
 125      C36C30B0 
 126 0103 EE3C7C7D 		.ascii	"\356<|}b\214-\3571\370\307\034gkUR\246\370\030\311\004"
 126      628C2DEF 
 126      31F8C71C 
 126      676B5552 
 126      A6F818C9 
 127 0118 DBF261A9 		.ascii	"\333\362a\251V\224l&7\363x\207\263f\3210/]\321\024!"
 127      56946C26 
 127      37F37887 
 127      B366D130 
 127      2F5DD114 
 128 012d 45E3FED9 		.ascii	"E\343\376\331\331[a\232[\\XG\231FG\011`\0107\274\003"
 128      D95B619A 
 128      5B5C5847 
 128      99464709 
 128      600837BC 
 129 0142 D74DD3CC 		.ascii	"\327M\323\314\377\372\3357=\264\231\242g\276o\240\237"
 129      FFFADD37 
 129      3DB499A2 
 129      67BE6FA0 
 129      9F
 130 0153 7599AC66 		.ascii	"u\231\254f5\353:\303V}R\316f5\365R\307 \273Q\274B\211"
 130      35EB3AC3 
ARM GAS  /tmp/ccgfFyQX.s 			page 10


 130      567D52CE 
 130      6635F552 
 130      C720BB51 
 131 016a C946C72E 		.ascii	"\311F\307.*\034\277\335\022\305\253r\267\033\255\304"
 131      2A1CBFDD 
 131      12C5AB72 
 131      B71BADC4 
 132 017a 19AA9593 		.ascii	"\031\252\225\223x\015-\317\271\204\225K\360\374k\366"
 132      780D2DCF 
 132      B984954B 
 132      F0FC6BF6 
 133 018a FCD1330F 		.ascii	"\374\3213\017\316\316~\265\332\256\227\207\222p0.\024"
 133      CECE7EB5 
 133      DAAE9787 
 133      9270302E 
 133      14
 134 019b 0A851045 		.ascii	"\012\205\020E<\204\210\375\314\353(\014\350\222\005"
 134      3C8488FD 
 134      CCEB280C 
 134      E89205
 135 01aa EF4C7074 		.ascii	"\357LptpR\360\\~\3567\360\015\035\255\372\003\177\023"
 135      7052F05C 
 135      7EEE37F0 
 135      0D1DADFA 
 135      037F13
 136 01bd 3130D406 		.ascii	"10\324\006\007/\230\343;\015l\260\012D4\303R\376\217"
 136      072F98E3 
 136      3B0D6CB0 
 136      0A4434C3 
 136      52FE8F
 137 01d0 8F7CC56F 		.ascii	"\217|\305o\030\024]\357\222PGz\243\263\342\332\244\324"
 137      18145DEF 
 137      9250477A 
 137      A3B3E2DA 
 137      A4D4
 138 01e2 CF8BAD5D 		.ascii	"\317\213\255]\204\325\020\247d\366w\024\366\276\232"
 138      84D510A7 
 138      64F67714 
 138      F6BE9A
 139 01f1 D92BE7A4 		.ascii	"\331+\347\244&\366S\325\330w,\007\373\273\012\373\273"
 139      26F653D5 
 139      D8772C07 
 139      FBBB0AFB 
 139      BB
 140 0202 65ECEFC9 		.ascii	"e\354\357\311\335n\252\300\276\303\305~Ba?\245\260\367"
 140      DD6EAAC0 
 140      BEC3C57E 
 140      42613FA5 
 140      B0F7
 141 0214 5312C9FE 		.ascii	"S\022\311\376_7\373\372\305\330\373J\354\375\325\330"
 141      5F37FBFA 
 141      C5D8FB4A 
 141      ECFDD5D8 
 142 0224 275782BD 		.ascii	"'W\202\275Cj\210+\305\354\177S\330\007jf_\267\324s?"
 142      436A882B 
 142      C5EC7F53 
 142      D8076A66 
ARM GAS  /tmp/ccgfFyQX.s 			page 11


 142      5FB7D473 
 143 0239 57857DE7 		.ascii	"W\205}\347r\260\237V\330O\227\261\177(w\273\271\002"
 143      72B09F56 
 143      D84F97B1 
 143      7F2877BB 
 143      B902
 144 024b FB4E17FB 		.ascii	"\373N\027\373G\352\271\237+\261\017R\022\311\276\340"
 144      47EAB99F 
 144      2BB10F52 
 144      12C9BEE0 
 145 025b 661F5A8C 		.ascii	"f\037Z\214}\240\304>X\215\375\341\225`\357\260\"qE\366"
 145      7DA0C43E 
 145      588DFDE1 
 145      9560EFB0 
 145      227145F6 
 146 026f 2F14F6E1 		.ascii	"/\024\366\341\232\331{\226z\356\253\261\357Z\016\366"
 146      9AD97B96 
 146      7AEEABB1 
 146      EF5A0EF6 
 147 027f 4F14F64F 		.ascii	"O\024\366O\312\330\377)w\273\245\002\373.\027\373Y\365"
 147      CAD8FF29 
 147      77BBA502 
 147      FB2E17FB 
 147      59F5
 148 0291 DC2BEC1B 		.ascii	"\334+\354\033)\211d\377\312\315\276i1\366\341\022\373"
 148      298964FF 
 148      CACDBE69 
 148      31F6E112 
 148      FB
 149 02a2 C66AEC33 		.ascii	"\306j\3543+\301\336aE\342\000\246\341\344\263\247\017"
 149      2BC1DE61 
 149      45E200A6 
 149      E1E4B3A7 
 149      0F
 150 02b3 6E7FE971 		.ascii	"n\177\351q\320Xk\361\253\014\302\367\244\231rx\212/"
 150      D0586BF1 
 150      AB0CC2F7 
 150      A4997278 
 150      8A2F
 151 02c5 426D3089 		.ascii	"Bm0\211\266$+]S;[\316\363)\353\371\233N3\344rw\316}"
 151      B6242B5D 
 151      533B5BCE 
 151      F329EBF9 
 151      9B4E33E4 
 152 02dd 6057A3B9 		.ascii	"`W\243\271\346\316R^\300j\373U\231\377#T\251\261\272"
 152      E6CE525E 
 152      C06AFB55 
 152      99FF2354 
 152      A9B1BA
 153 02f0 97A3B116 		.ascii	"\227\243\261\026\224\306Z(k\254\227r\263=\025\032\253"
 153      94C65A28 
 153      6BAC9772 
 153      B33D151A 
 153      AB
 154 0301 DBD558AF 		.ascii	"\333\325X\257\324\037\225\371\037|v\271\"\224D6\326"
 154      D41F95F9 
 154      1F7C76B9 
ARM GAS  /tmp/ccgfFyQX.s 			page 12


 154      22944436 
 154      D6
 155 0312 4B7763B5 		.ascii	"Kwc\265\250\215\345\265\2006\227\032+R\255\261~\301"
 155      A88DE5B5 
 155      8036971A 
 155      2B52ADB1 
 155      7EC1
 156 0324 95E82C87 		.ascii	"\225\350,\207\025\251\373\277\235\025\305\277\310\220"
 156      15A9FBBF 
 156      9D15C5BF 
 156      C890
 157 0332 9D044A27 		.ascii	"\235\004J'E\361olSz(\177\256\325\336xk/l]\222*.\237"
 157      45F16F6C 
 157      537A287F 
 157      AED5DE78 
 157      6B2F6C5D 
 158 034a 5D0A7026 		.ascii	"]\012p&\255\323\255v\243\314\0066s\320h\376\367\321"
 158      ADD3AD76 
 158      A3CC0636 
 158      73D068FE 
 158      F7D1
 159 035c 35AEC088 		.ascii	"5\256\300\210n\375g\032\270\236\243N\347gtWP\213\216"
 159      6EFD671A 
 159      B89EA34E 
 159      E7677457 
 159      508B8E
 160 036f 7E67E920 		.ascii	"~g\351 \332%\177\253\015\036[%\177\273T\362V\200\237"
 160      DA257FAB 
 160      0D1E5B25 
 160      7FBB54F2 
 160      56809F
 161 0382 019DAAC8 		.ascii	"\001\235\252\310\353\000u\024\275\207\263hMK\244\222"
 161      EB007514 
 161      BD87B368 
 161      4D4BA492 
 162 0392 714D4FC5 		.ascii	"qMO\305\216j\261\370\347\232\2360\006\215TF\313\246"
 162      8E6AB1F8 
 162      E79A9E30 
 162      068D5446 
 162      CBA6
 163 03a4 47860F69 		.ascii	"G\206\017i\331x&\253\245\263\362\236M\304\266\351\360"
 163      D97826AB 
 163      A5B3F29E 
 163      4DC4B6E9 
 163      F0
 164 03b5 5ED57832 		.ascii	"^\325x2(\332\030\326?\033\211QP\"\233H\307\243\261\314"
 164      28DA18D6 
 164      3F1B8951 
 164      50229B48 
 164      C7A3B1CC 
 165 03c9 B604887E 		.ascii	"\266\004\210~\020{@\354\002\261\033v\276.G\374HV\353"
 165      107B40EC 
 165      02B11B76 
 165      BE2E47FC 
 165      4856EB
 166 03dc DB3FB06F 		.ascii	"\333?\260o\240\224*\225\216\177\252'\367\216\014\353"
 166      A0942A95 
ARM GAS  /tmp/ccgfFyQX.s 			page 13


 166      8E7FAA27 
 166      F78E0CEB 
 167 03ec 94AC61FF 		.ascii	"\224\254a\377\300\207\355\203\321L\374p\332\330\332"
 167      C087ED83 
 167      D14CFC70 
 167      DAD8DA
 168 03fb DEB91D44 		.ascii	"\336\271\035D\032|\311x2\225>\012\242\017V\355\332\335"
 168      1A7CC978 
 168      32953E0A 
 168      A20F56ED 
 168      DADD
 169 040d D7BF07FE 		.ascii	"\327\277\007\376\003\006\366\035Q"
 169      0306F61D 
 169      51
 170              		.text
 171              		.section	.gnu.lto_thd3_execute.34321f362e082505,"",%progbits
 172 0000 789CAD57 		.ascii	"x\234\255W]H\034W\024>wfg\377w\273V\022\210\310fU4h"
 172      5D481C57 
 172      143E7766 
 172      67FF77BB 
 172      561288C8 
 173 0018 4C46A3C1 		.ascii	"LF\243\301\226\304\237\370\027}H\037j\204\366\251\254"
 173      96C49FF8 
 173      177D481F 
 173      6A84F6A9 
 173      AC
 174 0029 EBA24BAB 		.ascii	"\353\242K\253\206u-\015}\310\370C\261Xh\220\032\322"
 174      86752D0D 
 174      7DC8F843 
 174      B1586890 
 174      1AD2
 175 003b 96824192 		.ascii	"\226\202A\222\226R\222ji)!\304\2456%\266\030[H|\210"
 175      9652926A 
 175      692921C4 
 175      A53625B6 
 175      185B487C 
 176 0050 5AA46D5A 		.ascii	"Z\244mZ\002Bi\336Z\032\266\367\334\231\235\231\335\231"
 176      024269DE 
 176      5A1AB6F7 
 176      DC999D99 
 176      DD99
 177 0062 510BBBE0 		.ascii	"Q\013\273\340\231s\346\236s\356\271\337w\356\334+\007"
 177      9973E69E 
 177      73EEB9DF 
 177      77EEDC2B 
 177      07
 178 0073 1C64FFEE 		.ascii	"\034d\377\356\342_\000`\231>\3113@\270\213\367\000F"
 178      E25F0060 
 178      993EC933 
 178      40B88BF7 
 178      0046
 179 0085 9D1CE75F 		.ascii	"\235\034\347_\023Ar\3637\203 yy\305\2621\313\246X\002"
 179      134172F3 
 179      37832079 
 179      79C5B231 
 179      CBA65802 
 180 0099 B304C5B2 		.ascii	"\263\004\305\2623\313\256X\016f9\024\313\311,\247b\271"
ARM GAS  /tmp/ccgfFyQX.s 			page 14


 180      33CBAE58 
 180      0E663914 
 180      CBC92CA7 
 180      62B9
 181 00ab 98E5522C 		.ascii	"\230\345R,7\263\334\212\345a\226G\261\274\314\362r\376"
 181      37B3DC8A 
 181      E5619647 
 181      B1BCCCF2 
 181      72FE
 182 00bd 5BF4E9F6 		.ascii	"[\364\351\366\335\247\357\274>\342\227K\364\023\202"
 182      DDA7EFBC 
 182      3EE2974B 
 182      F41382
 183 00cc 0A10B8C0 		.ascii	"\012\020\270\300\3616\301\356p\272\334\036\257\317O"
 183      F136C1EE 
 183      70BADC1E 
 183      AFCF4F
 184 00db 2EBC4C70 		.ascii	".\274Lpe\244\030\256H\322\364\326\243\324]\356})91+"
 184      65A418AE 
 184      48D2F4D6 
 184      A3D45DEE 
 184      7D293931 
 185 00f0 FD9B4A11 		.ascii	"\375\233J\021\022#\024\205c\004\"\004^\242\006\011\261"
 185      12231485 
 185      63042204 
 185      5EA20609 
 185      B1
 186 0101 0767CB84 		.ascii	"\007g\313\204\345\006\227\334J\245\266\027g\177\331"
 186      E50697DC 
 186      4AA5B617 
 186      677FD9
 187 0110 20CFBEC0 		.ascii	" \317\276\300C\214\360\002\204\311\025\232\324N\015"
 187      438CF002 
 187      84C9159A 
 187      D44E0D
 188 011f 9B13850B 		.ascii	"\233\023\205\013\205\007\205O\031\363\243\021@\221\207"
 188      8507854F 
 188      19F3A311 
 188      409187
 189 012e 221FC53E 		.ascii	"\"\037\305>\014\336\217\342\000\212\002|W\210\"\250"
 189      0CDE8FE2 
 189      008A027C 
 189      578822A8 
 190 013e 041D44A3 		.ascii	"\004\035D\243\010E1:\224\240V\212\242\014\315C\250\225"
 190      0845313A 
 190      94A0568A 
 190      A20CCD43 
 190      A895
 191 0150 A3A840B3 		.ascii	"\243\250@\263R\011:\202oD\024U\370\272\032\265\032\024"
 191      52093A82 
 191      6F441455 
 191      F8BA1AB5 
 191      1A14
 192 0162 B5681E47 		.ascii	"\265h\036G\255\016\305I*\204z*\240\001\265F\324\232"
 192      AD0EC549 
 192      2A847A2A 
 192      A001B546 
ARM GAS  /tmp/ccgfFyQX.s 			page 15


 192      D49A
 193 0174 503B855A 		.ascii	"P;\205Z3j-(Z\321lC\255\035\305i\024\035(:QPD\004\230"
 193      336A2D28 
 193      5AD16C43 
 193      AD1DC569 
 193      141D283A 
 194 018d 90A48B21 		.ascii	"\220\244\213!yv@\370\350\357,\225HB7\341\360\311\257"
 194      797640F8 
 194      E8EF2C95 
 194      484237E1 
 194      F0C9AF
 195 01a0 C0D8C35B 		.ascii	"\300\330\303[\353k\265\212s:J\232\273&\252\031\322J"
 195      EB6BB58A 
 195      733A4A9A 
 195      BB26AA19 
 195      D24A
 196 01b2 F2876FC7 		.ascii	"\362\207o\307x\240\313\231\243\371#\204\345\213\020"
 196      78A0CB99 
 196      A3F92384 
 196      E58B10
 197 01c1 D6A17DE4 		.ascii	"\326\241}\344\344a\370T\222\244\255\365/\257V\320\371"
 197      E461F854 
 197      92A4ADF5 
 197      2FAF56D0 
 197      F9
 198 01d2 654B7A3E 		.ascii	"eKz>F\354\037\302\007\243\222\024\210\021\307\233\360"
 198      46EC1FC2 
 198      07A39214 
 198      8811C79B 
 198      F0
 199 01e3 8F34899A 		.ascii	"\2174\211\232s\200\005#\217N\306^\017\332ar\025\013"
 199      73800523 
 199      8F4EC65E 
 199      0FDA6172 
 199      150B
 200 01f5 EFC1CC8A 		.ascii	"\357\301\314\212\016\200\005^^(\010\223k\324\356#\365"
 200      0E80055E 
 200      5E280893 
 200      6BD4EE23 
 200      F5
 201 0206 4AE261BA 		.ascii	"J\342a\272x5\261\213N\217\271\004%\027\207\361\037\247"
 201      7835B18B 
 201      4E8FB904 
 201      251787F1 
 201      1FA7
 202 0218 E3C72797 		.ascii	"\343\307'\227\246\356\2149\344\262\373\010O\223\240"
 202      A6EE8C39 
 202      E4B2FB08 
 202      4F93A0
 203 0227 338F53AE 		.ascii	"3\217S\256\302D\322\236\036\021\324\372\334\021\302"
 203      C244D29E 
 203      1E11D4FA 
 203      DC11C2
 204 0236 83BC2E3E 		.ascii	"\203\274.>F<,\313\352\370\215\367\370\264\253\235z\323"
 204      463C2CCB 
 204      EAF88DF7 
 204      F8B4AB9D 
ARM GAS  /tmp/ccgfFyQX.s 			page 16


 204      7AD3
 205 0248 3C984048 		.ascii	"<\230@H\277s\252\341\336\010\221\273\023\347\361\021"
 205      BF73AAE1 
 205      DE0891BB 
 205      13E7F111 
 206 0258 F48F113F 		.ascii	"\364\217\021?n\335\211m\242\272\343`F\023w\323Io\006"
 206      6EDD896D 
 206      A2BAE360 
 206      461377D3 
 206      496F06
 207 026b 19259FAD 		.ascii	"\031%\237\255\257\331\366F\311w\307\254\030i\310\005"
 207      AFD9F646 
 207      C977C7AC 
 207      1869C805 
 208 027b 23F33A46 		.ascii	"#\363:F\346\263\030Y`\353h\264`\244\301\300\310\027"
 208      E6B31859 
 208      60EB68B4 
 208      60A4C1C0 
 208      C817
 209 028d 2A23AB4B 		.ascii	"*#\253K\264\3564\020.\306Ic\006\226\036\013,9\3647b"
 209      B4EE3410 
 209      2EC64963 
 209      06961E0B 
 209      2C39F437 
 210 02a2 E931C1D2 		.ascii	"\3511\301\322\006\177zx\312\357\326\273wT?\237\031\303"
 210      067F7A78 
 210      CAEFD6BB 
 210      77543F9F 
 210      19C3
 211 02b4 82C6F0AF 		.ascii	"\202\306\360\257\032\303~V\225/\243\252\200EU<\372\033"
 211      1AC37E56 
 211      952FA3AA 
 211      8045553C 
 211      FA1B
 212 02c6 AB0A9854 		.ascii	"\253\012\230T%\300\217\266\377\307\360\324\212%\303"
 212      25C08FB6 
 212      FFC7F0D4 
 212      8A25C3
 213 02d5 4DB960F8 		.ascii	"M\271`\370\266\216\341\333Y\014/\262u\234\262`\270\311"
 213      B68EE1DB 
 213      590C2FB2 
 213      759CB260 
 213      B8C9
 214 02e7 C07052C7 		.ascii	"\300pR\3070\255;\015D\036\335*4M\006\226\371\026X\332"
 214      30AD3B0D 
 214      441EDD2A 
 214      344D0696 
 214      F91658DA 
 215 02fb D0DF8865 		.ascii	"\320\337\210e\276\011\226v\370\203\360\367`l~si\301"
 215      BE099676 
 215      F883F0F7 
 215      606C7E73 
 215      69C1
 216 030d ABC22647 		.ascii	"\253\302&G\000\0363\004\256S\226ie\274|\216\006a\221"
 216      001E3304 
 216      AE539669 
 216      65BC7C8E 
ARM GAS  /tmp/ccgfFyQX.s 			page 17


 216      066191
 217 0320 7C245D6E 		.ascii	"|$]n\212\321sS\231/\020BM\035\377F\031\317\223\347\260"
 217      8AD17353 
 217      992F1042 
 217      4D1DFF46 
 217      19CF93E7 
 218 0335 202A3975 		.ascii	" *9u\177L\320HQ\330h\316\005\033\253:6V566fgN\244\241"
 218      7F4CD048 
 218      51D868CE 
 218      051BAB3A 
 218      36563536 
 219 034f D827670E 		.ascii	"\330'g\016\310l\020FEs\026\025J\365\343\223j?\357\247"
 219      C86C1046 
 219      45731615 
 219      4AF5E393 
 219      6A3FEFA7 
 220 0363 81ECB3C7 		.ascii	"\201\354\263\307\311);\345\201\275\345\242\341\000\024"
 220      C9293BE5 
 220      81BDE5A2 
 220      E10014
 221 0372 E9BF28D2 		.ascii	"\351\277(\322\357\360;B\035&\337S\205A\013:h\303d\205"
 221      EFF03B42 
 221      1D26DF53 
 221      85410B3A 
 221      68C36485 
 222 0386 047704D5 		.ascii	"\004w\004\325\242\373\037Xv\177K.\360\336\320\341\275"
 222      A2FB1F58 
 222      767F4B2E 
 222      F0DED0E1 
 222      BD
 223 0397 91D5FD9B 		.ascii	"\221\325\375\233\014\270V\213\356o1t\377\317\372\023"
 223      0CB8568B 
 223      EE6F3174 
 223      FFCFFA13 
 224 03a7 E781DAFD 		.ascii	"\347\201\332\375\007\322\007\016\247l\015\225\223\002"
 224      07D2070E 
 224      A76C0D95 
 224      9302
 225 03b5 36D89AB1 		.ascii	"6\330\232\261/\012-\366\005\3637\356\213B\223}\341\200"
 225      2F0A2DF6 
 225      05F337EE 
 225      8B42937D 
 225      E180
 226 03c7 87C0BE7C 		.ascii	"\207\300\276|\327\265/_p\227\263mqF\255\352 \365\316"
 226      D7B52F5F 
 226      7097B36D 
 226      7146ADEA 
 226      20F5CE
 227 03da 3EDB8A2C 		.ascii	">\333\212,\252\262\243\277\261\252\"\223\252\234Pb\365"
 227      AAB2A3BF 
 227      B1AA2293 
 227      AA9C5062 
 227      F5
 228 03eb E14B2E6F 		.ascii	"\341K.op\206\355\324\226\013z\037\353\350}\254\333N"
 228      7086EDD4 
 228      960B7A1F 
 228      EBE87DAC 
ARM GAS  /tmp/ccgfFyQX.s 			page 18


 228      DB4E
 229 03fd BF69CB2D 		.ascii	"\277i\313->\014\025\372\366o\263\330J\032m%\214\266"
 229      3E0C15FA 
 229      F66FB3D8 
 229      4A1A6D25 
 229      8CB6
 230 040f E20C804A 		.ascii	"\342\014\200J-\000r\240\277\021\240R\023\200\\\340\267"
 230      2D0072A0 
 230      BF11A052 
 230      13805CE0 
 230      B7
 231 0420 0668D308 		.ascii	"\006h\323\010P{.\000z\242\003\350\211\016\240m\015\240"
 231      507B2E00 
 231      7AA203E8 
 231      890EA06D 
 231      0DA0
 232 0432 B22C80DA 		.ascii	"\262,\200\332\365\000\361f\000\035bggY\006@\345\026"
 232      F500F166 
 232      001D6267 
 232      67590640 
 232      E516
 233 0444 0039D1DF 		.ascii	"\0009\321\337\010P\271\011@n\020x\334\\\343\251\231"
 233      0850B909 
 233      406E1078 
 233      DC5CE3A9 
 233      99
 234 0455 E7D27E15 		.ascii	"\347\322~\025\351\315\205\205d\334\346*\315:\276B\353"
 234      E9CD8585 
 234      64DCE62A 
 234      CD3ABE42 
 234      EB
 235 0466 F8B94B6A 		.ascii	"\370\271Kj\275GX\275\225\031\365\212\026\365\272\320"
 235      BD4758BD 
 235      9519F58A 
 235      16F5BAD0 
 236 0476 DF58AF68 		.ascii	"\337X\257hR\257\0078KB\337~d$\364t.\010}\252#\364\251"
 236      52AF0738 
 236      4B42DF7E 
 236      6424F474 
 236      2E087DAA 
 237 048d 8ED04FB4 		.ascii	"\216\320O\264\345Ve\021zz\327\216\257f@We\000Tc\001"
 237      E5566511 
 237      7A7AD78E 
 237      AF664057 
 237      65005463 
 238 04a2 901BFD8D 		.ascii	"\220\033\375\215\000\325\230\000\344\005b\015\320\357"
 238      00D59800 
 238      E405620D 
 238      D0EF
 239 04b0 46803A72 		.ascii	"F\200:r\001\320[\234\006\020\323\025\200>\327\000\252"
 239      01D05B9C 
 239      0610D315 
 239      803ED700 
 239      AA
 240 04c1 CD02A863 		.ascii	"\315\002\250c\327\216?\316\000\252\315\000\250\316\002"
 240      D78E3FCE 
 240      00AACD00 
ARM GAS  /tmp/ccgfFyQX.s 			page 19


 240      A8CE02
 241 04d0 200FFA1B 		.ascii	" \017\372\033\001\2523\001\210^?\367v\301\321\235\272"
 241      01AA3301 
 241      885E3FF7 
 241      76C1D19D 
 241      BA
 242 04e1 211CDAF3 		.ascii	"!\034\332\363\251\233\234\3326\271\312t\346\002\350"
 242      A99B9CDA 
 242      36B9CA74 
 242      E602E8
 243 04f0 691DD0D3 		.ascii	"i\035\320\323*\320\313\033[\227N\350\357\036R\267\036"
 243      2AD0CB1B 
 243      5B974EE8 
 243      EF1E52B7 
 243      1E
 244 0501 EA4EB3CB 		.ascii	"\352N\263\313G\275\034\371\365W\177\363{\214\344\265"
 244      47BD1CF9 
 244      F5577FF3 
 244      7B8CE4B5 
 245 0511 C85C5D5B 		.ascii	"\310\\][dF\374\354\277\346\237`\324\251\275=K\327H\337"
 245      6446FCEC 
 245      BFE69F60 
 245      D4A9BD3D 
 245      4BD748DF 
 246 0525 628028F6 		.ascii	"b\200(\366\017\015D\305\310P\357y\2617\372\272\030\351"
 246      0F0D44C5 
 246      C850EF79 
 246      B137FABA 
 246      18E9
 247 0537 8FF5C486 		.ascii	"\217\365\304\206\206\305D|d\360U1\021\035N\210\361\004"
 247      86C5447C 
 247      64F05531 
 247      111D4E88 
 247      F104
 248 0549 7B26FA7B 		.ascii	"{&\372{\217F\200;W]\267c\010Uh@l0\362\332H/u\352O\364"
 248      8F46803B 
 248      575DB763 
 248      08556840 
 248      6C30F2DA 
 249 0563 C7A3E1DE 		.ascii	"\307\243\341\336\341\243\375\320\264[\\\364\215\204"
 249      E1A3FDD0 
 249      B45B5CF4 
 249      8D84
 250 0571 D872A6AB 		.ascii	"\330r\246\253\263K\013\037\212G_\211\014\264\217\014"
 250      B34B0B1F 
 250      8A475F89 
 250      0CB48F0C 
 251 0581 466882C0 		.ascii	"Fh\202\300\231\256\027C=\341\341\350\271x\2542TZ\005"
 251      99AE1743 
 251      3DE1E1E8 
 251      B978AC32 
 251      545A05
 252 0594 5C1C1C03 		.ascii	"\\\034\034\003\321\201\241\370y\370\017=\302\003\207"
 252      D181A1F8 
 252      79F80F3D 
 252      C20387
 253              		.text
ARM GAS  /tmp/ccgfFyQX.s 			page 20


 254              		.section	.gnu.lto_thd4_execute.part.0.34321f362e082505,"",%progbits
 255 0000 789CCD54 		.ascii	"x\234\315TMHTQ\030\375\276w\337\233\0375\233EP\213\030"
 255      4D485451 
 255      18FDBE77 
 255      DF9B1F35 
 255      9B45508B 
 256 0015 06A155E1 		.ascii	"\006\241U\341-\333\265\3110\002\301\3318#\324J\3067"
 256      2DDBB5C9 
 256      3002C1D9 
 256      3823D44A 
 256      C637
 257 0027 8F994733 		.ascii	"\217\231G3\216\274y\212\322\302\2533\013\313\026\"."
 257      8EBC798A 
 257      D2C2AB33 
 257      0BCB1622 
 257      2E
 258 0038 C4126A21 		.ascii	"\304\022j!\211R\032\255\262E\366\003\265\321jQP\264"
 258      89521AAD 
 258      B245F603 
 258      B5D16A51 
 258      50B4
 259 004a 1872A318 		.ascii	"\030r\243\030I\3330\246\373\343\214\243\210b\264\350"
 259      49DB30A6 
 259      FBE38CA3 
 259      8862B4E8 
 260 005a C2DC7BE7 		.ascii	"\302\334{\347\235{\316\367\235{\336\214\006\032\354"
 260      9D7BCEF7 
 260      9D7BDE8C 
 260      061AEC
 261 0069 1E17F827 		.ascii	"\036\027\370'h\000\034G\000\364\000\032#\313|c\240&"
 261      68001C47 
 261      00F4001A 
 261      23CB7C63 
 261      A026
 262 007b 574DD33F 		.ascii	"WM\323?Q`Ud!\010\254\206\240.\236\016\370tD\261\001"
 262      51605564 
 262      2108AC86 
 262      A02E9E0E 
 262      F87444B1 
 263 0090 847E4323 		.ascii	"\204~C#:\366_C\241e\324\301}\306&\012S\317\327p|lq\360"
 263      3AF65F43 
 263      A165D4C1 
 263      7DC6260A 
 263      53CFD770 
 264 00a8 1EDB2C16 		.ascii	"\036\333,\026\021m\001\232\010W\371\016\003r\321v5\242"
 264      116D019A 
 264      0857F90E 
 264      0372D176 
 264      35A2
 265 00ba 886C7E9A 		.ascii	"\210l~\232\031\222D\3767\316\350\342\346p\315{6\304"
 265      199244FE 
 265      37CEE8E2 
 265      E670CD7B 
 265      36C4
 266 00cc 8AC57ECE 		.ascii	"\212\305~\316\321\240\001\017\240\315i\254P,>]\367\037"
 266      D1A0010F 
 266      A0CD69AC 
ARM GAS  /tmp/ccgfFyQX.s 			page 21


 266      502C3E5D 
 266      F71F
 267 00de 43B09168 		.ascii	"C\260\221h|\002\302']\027\223\301'\303#\000\257\000"
 267      7C02C227 
 267      5D1793C1 
 267      27C32300 
 267      AF00
 268 00f0 7C10C329 		.ascii	"|\020\303)\254\003\277\300\304MB\236\261\221\220z(\033"
 268      AC03BFC0 
 268      C44D429E 
 268      B191907A 
 268      281B
 269 0102 E423CA67 		.ascii	"\344#\312gq\355Q4\304J\332P\223\3532\014\376\334\030"
 269      71ED5134 
 269      C44ADA50 
 269      93EB320C 
 269      FEDC18
 270 0115 5B39B145 		.ascii	"[9\261E\002\256\365\200\037\221\371 \364\022\221:Q\321"
 270      02AEF580 
 270      1F91F920 
 270      F412913A 
 270      51D1
 271 0127 07E1264E 		.ascii	"\007\341&N\262\361F\233G\315\207\350\333\033\022\273"
 271      B2F1469B 
 271      47CD87E8 
 271      DB1B12BB 
 272 0137 327E7B0B 		.ascii	"2~{\013\367)\027K\360\362\313\335\331\027\323\243XV"
 272      F729174B 
 272      F0F2CBDD 
 272      D917D3A3 
 272      5856
 273 0149 579BC595 		.ascii	"W\233\305\225\311\257\204\224j\231(;L \236\206\031\226"
 273      C9AF8494 
 273      6A99283B 
 273      4C209E86 
 273      1996
 274 015b 1F287CBE 		.ascii	"\037(|\276\365z\024u\033\375w`b`\204\005l\254\022\305"
 274      F57A1475 
 274      1BFD7760 
 274      62608405 
 274      6CAC12C5 
 275 016f AA191FBA 		.ascii	"\252\031\037\272\254[-\365;\004/\206s\252\337%\030\374"
 275      AC5B2DF5 
 275      3B042F86 
 275      73AADF25 
 275      18FC
 276 0181 91AB8DE1 		.ascii	"\221\253\215\341#\3765\201ZB\250rw\2177\306\314\375"
 276      23FE3581 
 276      5A42A872 
 276      778F37C6 
 276      CCFD
 277 0193 CCC57006 		.ascii	"\314\305p\006\2112\003\025fb\370\020\203\312\306;\310"
 277      89320315 
 277      6662F810 
 277      83CAC63B 
 277      C8
 278 01a4 CF7FCB96 		.ascii	"\317\177\313\226\2507\340\027O\222\367Tc\242JMp\365"
ARM GAS  /tmp/ccgfFyQX.s 			page 22


 278      A837E017 
 278      4F92F754 
 278      63A24A4D 
 278      70F5
 279 01b6 5511C511 		.ascii	"U\021\305\021\321En(\367\373\244:\235@\302;\0218\254"
 279      D1456E28 
 279      F7FBA43A 
 279      9D40C23B 
 279      1138AC
 280 01c9 7A4181A4 		.ascii	"zA\201\244\004\351%h\315+\213xJ\200Q.Qk\362\326J%\216"
 280      04E92568 
 280      CD2B8B78 
 280      4A80512E 
 280      516BF2D6 
 281 01e0 12A5C72F 		.ascii	"\022\245\307/&\000\360\026\362\337\261\314\020\270Q"
 281      2600F016 
 281      F2DFB1CC 
 281      10B851
 282 01ef F902B571 		.ascii	"\371\002\265q\342B\220\034\316\177ho\377\207\215\321"
 282      E242901C 
 282      CE7F686F 
 282      FF878DD1 
 283 01ff F377313E 		.ascii	"\363w1>\333\031\343\202t\346M\210\227\355\237\304(."
 283      DB19E382 
 283      74E64D88 
 283      97ED9FC4 
 283      282E
 284 0211 FFD5F0C7 		.ascii	"\377\325\360\307\\9\000\037\227\227\001\304U\310\205"
 284      5C39001F 
 284      979701C4 
 284      55C885
 285 0220 D937557B 		.ascii	"\3317U{\245\254\203\362\345\333\016\370\311dY\305_R"
 285      A5AC83F2 
 285      E5DB0EF8 
 285      C96459C5 
 285      5F52
 286 0232 B12A53AC 		.ascii	"\261*S\254P\330\031\242\256\012\373e\210*)]\376\020"
 286      50D819A2 
 286      AE0AFB65 
 286      882A295D 
 286      FE10
 287 0244 3FF0BFC6 		.ascii	"?\360\277\306\355\374\242\3742\371S\341\201\322d&mQ"
 287      EDFCA2FC 
 287      32F953E1 
 287      81D26426 
 287      6D51
 288 0256 3313EFA3 		.ascii	"3\023\357\243q\253\207\232I\273\303\316d\251\353tw^"
 288      71AB879A 
 288      49BBC3CE 
 288      64A9EB74 
 288      775E
 289 0268 A7AE9575 		.ascii	"\247\256\225u\251\343\312\325M\306\353M\320];m5\356"
 289      A9E3CAD5 
 289      4DC6EB4D 
 289      D05D3B6D 
 289      35EE
 290 027a 4BE21BAB 		.ascii	"K\342\033\253\327\245M\341Hs\204\332\235f\252;.\316"
ARM GAS  /tmp/ccgfFyQX.s 			page 23


 290      D7A54DE1 
 290      487384DA 
 290      9D66AA3B 
 290      2ECE
 291 028c 3A56BB99 		.ascii	":V\273\231\276\322\335i\326'!\020\216\264\206:bY\253"
 291      BED2DD69 
 291      D6272110 
 291      8EB4863A 
 291      6259AB
 292 029f CBB1CF84 		.ascii	"\313\261\317\204N\235\005\315\001o\332Jg\234>h:H<\031"
 292      4E9D05CD 
 292      016FDA4A 
 292      679C3E68 
 292      3A483C19 
 293 02b3 4BD1AE8C 		.ascii	"K\321\256\214\343fi$\032>\337@[Z.\323hs\270\347\034"
 293      E3666924 
 293      1A3EDF40 
 293      5B5A2ED3 
 293      6873B8E7 
 294 02c8 CDBAEDA9 		.ascii	"\315\272\355\251T\234\353_<H\203{R\022\227Z\303M\341"
 294      549CEB5F 
 294      3C48837B 
 294      5212975A 
 294      C34DE1
 295 02db 5E7E4036 		.ascii	"^~@6(\3149\234\377\007\356\330z\232"
 295      28CC399C 
 295      FF07EED8 
 295      7A9A
 296              		.text
 297              		.section	.gnu.lto_thd4_execute.34321f362e082505,"",%progbits
 298 0000 789CAD54 		.ascii	"x\234\255T\277O\024A\024~o\177\034'w\236pP\230h.\327"
 298      BF4F1441 
 298      147E6F7F 
 298      1C27779E 
 298      70509868 
 299 0016 5869187F 		.ascii	"Xi\030\177\374\001b0&$\\\303\035\211Vd\231\335p\033"
 299      FC016230 
 299      26245CC3 
 299      1D895664 
 299      99DD701B 
 300 002a EF38DC5D 		.ascii	"\3578\334]\010\304\202\205\273D\242\015!\024FCa\242"
 300      08C48285 
 300      BB44A20D 
 300      21144643 
 300      61A2
 301 003c 0129440B 		.ascii	"\001)D\013,hDba\003\304\306\302P\220XI\214\306\226\230"
 301      2C684462 
 301      6103C4C6 
 301      C2509058 
 301      498CC696 
 302 0051 E09B5976 		.ascii	"\340\233YvE@\010\306I\366\315\233yo\276\371\336\373"
 302      454008C6 
 302      49F6CD9B 
 302      796FBEF9 
 302      DEFB
 303 0063 76570105 		.ascii	"vW\001\005\366\216Vz\0065\2004\002`\014P\231X\005\030"
 303      F68E567A 
ARM GAS  /tmp/ccgfFyQX.s 			page 24


 303      06358034 
 303      02600C50 
 303      99580518 
 304 0077 8D2B8AFE 		.ascii	"\215+\212\376\221\201_\257.f\300O\252;+M\2564\324E\022"
 304      91815FAF 
 304      2E66C04F 
 304      AA3B2B4D 
 304      AE34D445 
 305 008c EA886206 		.ascii	"\352\210b\006\204\021E\325t\034\271\205\022r^Y\332\330"
 305      841145D5 
 305      741CB985 
 305      12725E59 
 305      DAD8
 306 009e DE7EB1F5 		.ascii	"\336~\261\365\340\351:.*gt\260\021b\302\304\311`BxI"
 306      E0E93A2E 
 306      2A6774B0 
 306      1162C2C4 
 306      C9604278 
 307 00b3 615262D9 		.ascii	"aRb\331HFI\223Q\233\204\327,<\302\320\241\346\373\023"
 307      48464993 
 307      519B84D7 
 307      2C3CC2D0 
 307      A1E6FB13 
 308 00c7 59002E31 		.ascii	"Y\000.1\013d\305]]\250\210Y]\203\352\306\370L\275\201"
 308      0B64C55D 
 308      5DA88859 
 308      5D83EAC6 
 308      F84CBD81 
 309 00db 4F50A7F0 		.ascii	"OP\247\360]\330\362\307\375\006\0335\216\001\007[\354"
 309      5DD8F2C7 
 309      FD061B35 
 309      8E01075B 
 309      EC
 310 00ec AFC2D88F 		.ascii	"\257\302\330\217\315\251\317\247#\2600\237(#\270\252"
 310      CDA9CFA7 
 310      23B0309F 
 310      2823B8AA 
 311 00fc 68871AF4 		.ascii	"h\207\032\364$\0035\234\366\037\266\332\324\003\032"
 311      2403359C 
 311      F61FB6DA 
 311      D4031A
 312 010b 37D1C6BA 		.ascii	"7\321\306\272\254\360\242\370\275\235x<\350\333\012"
 312      ACF0A2F8 
 312      BD9D783C 
 312      E8DB0A
 313 011a 2C7FFA39 		.ascii	",\177\3729\363vv\022#\364\300Y\232\237^W\325\360.\216"
 313      F3767612 
 313      23F4C059 
 313      9A9F5E57 
 313      D5F02E8E 
 314 012e F2782F36 		.ascii	"\362x/6\236\2079\2776\272\361\346\376\273I\324l<\361"
 314      9E8739BF 
 314      36BAF1E6 
 314      FEBB49D4 
 314      6C3CF1
 315 0141 181E8D4E 		.ascii	"\030\036\215N\010\316\365\342\262\204OC\223\367&$~\217"
 315      08CEF5E2 
ARM GAS  /tmp/ccgfFyQX.s 			page 25


 315      B2844F43 
 315      93F72624 
 315      7E8F
 316 0153 A8C3C0B9 		.ascii	"\250\303\300\271\200\357\012\214}\253\246\014|N\313"
 316      80EF0A8C 
 316      7DABA60C 
 316      7C4ECB
 317 0162 5E4C139C 		.ascii	"^L\023\234\254\356\325\346\024?\2548\003\237Q7e1\260"
 317      ACEED5E6 
 317      143FAC38 
 317      039F5137 
 317      6531B0
 318 0175 AB180367 		.ascii	"\253\030\003g1\023\224\261\006\265\227\313w\366\365"
 318      311394B1 
 318      06B597CB 
 318      77F6F5
 319 0184 31C9A50A 		.ascii	"1\311\245\012A#\300\244v\236\024$\252\343\325\205\263"
 319      4123C0A4 
 319      769E1424 
 319      AAE3D585 
 319      B3
 320 0195 41722FEA 		.ascii	"Ar/\352DD\204U\023\202\230\032Fba\304\2227\304\302\375"
 320      44448455 
 320      1382981A 
 320      466261C4 
 320      9237C4C2 
 321 01aa 78849FE2 		.ascii	"x\204\237\342\250E\370\2470@\213\331\330\000\360\036"
 321      A845F8A7 
 321      30408BD9 
 321      D800F01E 
 322 01ba 6A5F313A 		.ascii	"j_1:!\342\270\373}\355\"b\213\031\365x\305g\017.\376"
 322      21E2B8FB 
 322      7DED2262 
 322      8B19F578 
 322      C5670F2E 
 323 01cf B81A36FD 		.ascii	"\270\0326\375\233\206\257\377\324pAV\326Lp\377Q\303"
 323      9B86AFFF 
 323      D4704156 
 323      D64C70FF 
 323      51C3
 324 01e1 49F7181A 		.ascii	"I\367\030\032~\2114L\020\221\2035L\206\221=\032\246"
 324      7E89344C 
 324      10918335 
 324      4C86913D 
 324      1AA6
 325 01f3 FEA2A112 		.ascii	"\376\242\241\022\240%\367k\230:@C\015\276'\304G\034"
 325      A025F76B 
 325      983A4043 
 325      0DBE27C4 
 325      471C
 326 0205 DFC7BA91 		.ascii	"\337\307\272\221\007\015 \272\3510[\227\337\374\007"
 326      070D20BA 
 326      E9305B97 
 326      DFFC07
 327 0214 FA2DFDC6 		.ascii	"\372-\375\306(\020$\355\212^0V\254\224-\306+\34603\255"
 327      281024ED 
 327      8A5E3056 
ARM GAS  /tmp/ccgfFyQX.s 			page 26


 327      AC942DC6 
 327      2BE63033 
 328 0229 41C68B76 		.ascii	"A\306\213v\217]q\231\347\014\364\335f\236\345z\314\361"
 328      8F5D7199 
 328      E70CF4DD 
 328      669EE57A 
 328      CCF1
 329 023b E4EC15CD 		.ascii	"\344\354\025\315\026\016\255\207\346\223c\015y\254-"
 329      160EAD87 
 329      E693630D 
 329      79AC2D
 330 024a 976FCF33 		.ascii	"\227o\3173\273\217\227\006L\221\353X\335\274|c\240\217"
 330      BB8F9706 
 330      4C91EB58 
 330      DDBC7C63 
 330      A08F
 331 025c B714A121 		.ascii	"\267\024\241!\227\357\314\366\030\256\325\357\330\027"
 331      97EFCCF6 
 331      18AED5EF 
 331      D817
 332 026a B2E72E82 		.ascii	"\262\347.\202\342@]\331*W\234ah;\012\274h\224X\177\305"
 332      E2405DD9 
 332      2A579C61 
 332      683B0ABC 
 332      6894587F 
 333 027f F15C962F 		.ascii	"\361\\\226/\344\256\\f\035\035\327Y\241=7x\211\271^"
 333      E4AE5C66 
 333      1D1DD759 
 333      A13D3778 
 333      89B95E
 334 0292 77A96412 		.ascii	"w\251d\022\376\325\2430\250\234\000\342Zg\256-7D\011"
 334      FED5A330 
 334      A89C00E2 
 334      5A67AE2D 
 334      374409
 335 02a5 92A06797 		.ascii	"\222\240g\227-\207\316\377\002k\370O\220"
 335      2D87CEFF 
 335      026BF84F 
 335      90
 336              		.text
 337              		.section	.gnu.lto_.symbol_nodes.34321f362e082505,"",%progbits
 338 0000 789C4D8F 		.ascii	"x\234M\217\271N\303@\024E\337\035gl\003!\013K\302R\344"
 338      B94EC340 
 338      1445DF1D 
 338      676C0321 
 338      0B4BC252 
 339 0015 4BF80E6A 		.ascii	"K\370\016j>\202\372E\262\204X\012\0205T\356\330\367"
 339      3E82FA45 
 339      B284580A 
 339      103554EE 
 339      D8F7
 340 0027 5D6C9682 		.ascii	"]l\226\202\224\002$\012\322\222\270\345\033\020\363"
 340      9402240A 
 340      D292B8E5 
 340      1B10F3
 341 0036 662C262E 		.ascii	"f,&.||f\336\275\236Q\244hY\221{\324>\030\264\365N\304"
 341      7C7C66DE 
ARM GAS  /tmp/ccgfFyQX.s 			page 27


 341      BD9E51A4 
 341      6859917B 
 341      D43E18B4 
 342 004d BCB3B6A4 		.ascii	"\274\263\266\244/`\276H\337\001\006j\017LC\233WP\262"
 342      2F60BE48 
 342      DF01066A 
 342      0F4C439B 
 342      5750B2
 343 0060 7A08567E 		.ascii	"z\010V~U\035\203\203!\035\200K\205\356\256B\235\202"
 343      551D8383 
 343      211D804B 
 343      85EEAE42 
 343      9D82
 344 0072 F550C539 		.ascii	"\365P\3059\002m\372\017P\022\034A\013N\020\012\316\020"
 344      026DFA0F 
 344      50121C41 
 344      0B4E100A 
 344      CE10
 345 0084 19E0061C 		.ascii	"\031\340\006\034\272D\273\015\\\203#o\227\340\330\333"
 345      BA44BB0D 
 345      5C83236F 
 345      97E0D8DB 
 346 0094 2D78C4DB 		.ascii	"-x\304\333\003x\324\333=x\314\333\023\270\354\355\021"
 346      0378D4DB 
 346      3D78CCDB 
 346      13B8ECED 
 346      11
 347 00a5 3CEEED05 		.ascii	"<\356\355\005\\\361\366\012\256z\313\3005o\317\340\372"
 347      5CF1F60A 
 347      AE7ACBC0 
 347      356FCFE0 
 347      FA
 348 00b6 BF0554A3 		.ascii	"\277\005T\243\244\377k\231\255\374\264\254\257;f\033"
 348      A4FF6B99 
 348      ADFCB4AC 
 348      AF3B661B 
 349 00c6 856F0AAB 		.ascii	"\205o\012\253\224YV(\027\006uJ\277MN\027y]\344u\221"
 349      94595628 
 349      1706754A 
 349      BF4D4E17 
 349      795DE475 
 350 00db D7455E4F 		.ascii	"\327E^OR*\363z\202\322m\241\351\2614=\302p\232r\351"
 350      522AF37A 
 350      82D26DA1 
 350      E9B1343D 
 350      C2709A72 
 351 00f0 09A728ED 		.ascii	"\011\247(\355;f\235N(\353\311[OY/\230w\027,>\232\262"
 351      3B669D4E 
 351      28EBC95B 
 351      4F592F98 
 351      77172C3E 
 352 0106 9B7E96AD 		.ascii	"\233~\226\2559$_\256b\321\006\347l\314\276\363y\273"
 352      39245FAE 
 352      62D106E7 
 352      6CCCBEF3 
 352      79BB
 353 0118 DD0AA226 		.ascii	"\335\012\242&%]S\034\315\230Ba\223r\371a\324p\027\210"
ARM GAS  /tmp/ccgfFyQX.s 			page 28


 353      255D531C 
 353      CD984261 
 353      9372F961 
 353      D4701788 
 354 012c 67299183 		.ascii	"g)\221\203\304\015w\220\330\314\313\205\214\333y\343"
 354      C40D7790 
 354      D8CCCB85 
 354      8CDB79E3 
 355 013c A9E4E388 		.ascii	"\251\344\343\210\006\335\236\242?A\231\264)"
 355      06DD9EA2 
 355      3F4199B4 
 355      29
 356              		.text
 357              		.section	.gnu.lto_.refs.34321f362e082505,"",%progbits
 358 0000 789C8D8D 		.ascii	"x\234\215\2151\016\2000\020\303\022s\255\340\332n\360"
 358      310E8030 
 358      10C31273 
 358      ADE0DA6E 
 358      F0
 359 0011 66BE0D12 		.ascii	"f\276\015\022#C\033\017^,\005\241[\337N\311\202\315"
 359      23431B0F 
 359      5E2C05A1 
 359      5BDF4EC9 
 359      82CD
 360 0023 31F35556 		.ascii	"1\363UVKE\326\367\342G\034$\215\316p\"7\212;\325\203"
 360      4B45D6F7 
 360      E2471C24 
 360      8DCE7022 
 360      378A3BD5 
 361 0038 5D0F9F87 		.ascii	"]\017\237\207\001\364"
 361      01F4
 362              		.text
 363              		.section	.gnu.lto_.decls.34321f362e082505,"",%progbits
 364 0000 789CBD5C 		.ascii	"x\234\275\\{t\024U\236\256\252\356t\322$$\001W\027\037"
 364      7B741455 
 364      9EAEAAEE 
 364      74D22424 
 364      0157171F 
 365 0014 0BEDAECE 		.ascii	"\013\355\256\316\3618#\341\265#\272\253\342DG\234\225"
 365      F13823E1 
 365      B523BAAB 
 365      E244479C 
 365      95
 366 0025 194EC073 		.ascii	"\031N\300s8g\377h\213NAzM:\231\352\012\217\365\354X"
 366      3867FF68 
 366      8B4E417A 
 366      4D3A99EA 
 366      0A8FF5EC 
 367 003a 4978890C 		.ascii	"Ix\211\014\217\010L$\001\2020\362\362\201BD\036\201"
 367      8F084C24 
 367      018230F2 
 367      F2814244 
 367      1E81
 368 004c 123409A0 		.ascii	"\0224\011\240\004\302\033F\010\"(>X\202\210H\200\354"
 368      04C21B46 
 368      0822283E 
 368      58828848 
ARM GAS  /tmp/ccgfFyQX.s 			page 29


 368      80EC
 369 005e EFDE5BD5 		.ascii	"\357\336[\325}ouUwU\034\267\316\2717\267\252\356\375"
 369      7D6F7555 
 369      77551CB7 
 369      CEB937B7 
 369      AAEEFD
 370 0071 EEF77BDC 		.ascii	"\356\367{\334wu\004N\340\262\274\034\327\005\327\340"
 370      7775044E 
 370      E0B2BC1C 
 370      D705D7E0 
 371 0081 6738EE9F 		.ascii	"g8\356\237\374\034\227\316q\334\243\034\371\233\006"
 371      FC1C97CE 
 371      71DCA31C 
 371      F99B06
 372 0090 611984D7 		.ascii	"a\031\204\327 \254\204\260\001B\003\004\017G\256\336"
 372      20AC84B0 
 372      01420304 
 372      0F47AEDE 
 373 00a0 103642D8 		.ascii	"\0206B\330\012A\203\260\023B\023\204\335\020>\201p\030"
 373      0A4183B0 
 373      13421384 
 373      DD103E81 
 373      7018
 374 00b2 C2510851 		.ascii	"\302Q\010Q\236\343&Bx\001\302\377@\250\2040\015\302"
 374      9EE32642 
 374      7801C2FF 
 374      40A88430 
 374      0DC2
 375 00c4 2B105E85 		.ascii	"+\020^\205P\013!\003\362-\201\277\313!\\\203p\023\302"
 375      500B2103 
 375      F22D81BF 
 375      CB215C83 
 375      7013C2
 376 00d7 2D02C7F5 		.ascii	"-\002\307\365\205p/\204<\201c.T\347\035\020\036\323"
 376      85702F84 
 376      3C81632E 
 376      54E71D10 
 376      1ED3
 377 00e9 B91E8770 		.ascii	"\271\036\207p\016B=\224[\012a(\344\007\321\270\265\220"
 377      0E423D94 
 377      5B0A6128 
 377      E407D1B8 
 377      B590
 378 00fb 5E01E121 		.ascii	"^\001\341!\270?\001\367\017\013D.Z\236c\020:!\317\277"
 378      B83F01F7 
 378      0F0B442E 
 378      5A9E6310 
 378      3A21CFBF 
 379 010f C1BB0C08 		.ascii	"\301\273\014\010\215p\377\357B\\\366\275\272\314k \317"
 379      8D70FFEF 
 379      425CF6BD 
 379      BACC6B20 
 379      CF
 380 0120 160867F5 		.ascii	"\026\010g\365:\021\207G \337\343\002\221s\243.\363'"
 380      3A118747 
 380      20DFE302 
 380      9173A32E 
ARM GAS  /tmp/ccgfFyQX.s 			page 30


 380      F327
 381 0132 7A7E5A1E 		.ascii	"z~Z\036\372\332\250\353v9\204\203\020\236\204\362\012"
 381      FADAA8EB 
 381      76398483 
 381      109E84F2 
 381      0A
 382 0143 E459ADBF 		.ascii	"\344Y\255\277\027\364<Ho\250\350&\2668\326u\337\237"
 382      17F43C48 
 382      6FA8E826 
 382      B638D675 
 382      DF9F
 383 0155 41F6F390 		.ascii	"A\366\363\220\376-\374\035\016a\022\357\\\027~\235\223"
 383      FE2DFC1D 
 383      0E6112EF 
 383      5C177E9D 
 383      93
 384 0166 59172FE8 		.ascii	"Y\027/\350vw\242\023\344;\275u9\262!d\351\262\265\352"
 384      7677A213 
 384      E43BBD75 
 384      39B22164 
 384      E9B2B5EA 
 385 017a F2996579 		.ascii	"\362\231ey\032\376V\301\375\357t\231\376\304\023y\014"
 385      1AFE56C1 
 385      FDEF7499 
 385      FEC41379 
 385      0C
 386 018b 19BC268E 		.ascii	"\031\274&\216!\236\344\333I\361\254\324\375\021QYn\342"
 386      219EE4DB 
 386      49F1ACD4 
 386      FD115159 
 386      6EE2
 387 019d 83FCB817 		.ascii	"\203\374\270\027\204\227x\226\217G\347D\327\365\037"
 387      84977896 
 387      8F47E744 
 387      D7F51F
 388 01ac 109E81F0 		.ascii	"\020\236\201\360'\010/B\230\016eT\235\327|\035?\244"
 388      27082F42 
 388      980E6554 
 388      9DD77C1D 
 388      3FA4
 389 01be DF23DC0A 		.ascii	"\337#\334\012\201\365\177\363\205\332\317-T]\351:\217"
 389      81F57FF3 
 389      85DACF2D 
 389      545DE93A 
 389      8F
 390 01cf 2950AE8E 		.ascii	")P\256\216wW\367TH7sq\016>\035\037\2659\232GS\"\015"
 390      7757F754 
 390      48377371 
 390      0E3E1D1F 
 390      B5399A47 
 391 01e6 2E939BA9 		.ascii	".\223\233\251\252\225j\3754uxKv/n\256\012W\240&\333"
 391      AA956AFD 
 391      3475784B 
 391      762F6EAE 
 391      0A57A026 
 392 01fb CFCD408F 		.ascii	"\317\315@\217\333\377\252\366\351\303qcx\221\207G\031"
 392      DBFFAAF6 
ARM GAS  /tmp/ccgfFyQX.s 			page 31


 392      E9C37163 
 392      78918747 
 392      19
 393 020c 3891E5C7 		.ascii	"8\221\345\307\025\335\313\255\200\254\220_\020\371\345"
 393      15DDCBAD 
 393      80AC905F 
 393      10F9E5
 394 021b BC1F1C5A 		.ascii	"\274\037\034Z\260\020\023]\344=\272Pq\2226R]|\014}\200"
 394      B010135D 
 394      E43DBA50 
 394      71923652 
 394      5D7C0C7D 
 395 0230 81EED34B 		.ascii	"\201\356\323K\275\306\367\302)\314E\325)\342\034z\211"
 395      BDC6F7C2 
 395      29CC45D5 
 395      29E21C7A 
 395      89
 396 0241 8051C2AB 		.ascii	"\200Q\302\253\227x\235\252'\313\037O\244\351L\354\312"
 396      97789DAA 
 396      27CB1F4F 
 396      A4E94CEC 
 396      CA
 397 0252 2DE3332D 		.ascii	"-\3433-\365q\033\267@\257Y\345\025\206\2065\026\326"
 397      F5711BB7 
 397      40AF59E5 
 397      15868635 
 397      16D6
 398 0264 C9DCF6D6 		.ascii	"\311\334\366\326/\276\364\250j\206\310\257\306z\031"
 398      2FBEF4A8 
 398      6A86C8AF 
 398      C67A19
 399 0273 C973F773 		.ascii	"\311s\367s\253\211\262v\374\322JI\316\241;\233>|\207"
 399      AB89B276 
 399      FCD24A49 
 399      CEA13B9B 
 399      3E7C87
 400 0286 AF043A22 		.ascii	"\257\004:\"\377&\006\257\344y\020\340\015\376~\327P"
 400      FF2606AF 
 400      E47910E0 
 400      0DFE7ED7 
 400      50
 401 0297 0DBB370E 		.ascii	"\015\2737\016\305,\327a\240\355& \221\367\371Y+\302"
 401      C52CD761 
 401      A0ED2620 
 401      91F7F959 
 401      2BC2
 402 02a9 BD9101A1 		.ascii	"\275\221\001\241\301-\252\351*\032Y\370\027\365'\350"
 402      C12DAAE9 
 402      2A1A59F8 
 402      17F527E8 
 403 02b9 269DFB7F 		.ascii	"&\235\373\177/gg\330U\374m8\345\301\375-<x,\023\242"
 403      2F6767D8 
 403      55FC6D38 
 403      E5C1FD2D 
 403      3C782C13 
 404 02ce 673DB15A 		.ascii	"g=\261Z\354\012\256\3443imX\265\222\372a5\331\304\211"
 404      EC0AAEE4 
ARM GAS  /tmp/ccgfFyQX.s 			page 32


 404      33696D58 
 404      B592FA61 
 404      35D9C489 
 405 02e2 75905C03 		.ascii	"u\220\\\003D\320A\032\\;\360{6\016\314\247\240\273!"
 405      44D0411A 
 405      5C3BF07B 
 405      360ECCA7 
 405      A0BB21
 406 02f5 EEC0FDB8 		.ascii	"\356\300\375\270%\252v\261}\375\354m}_U\265)jW\327\213"
 406      25AA76B1 
 406      7DFDEC6D 
 406      7D5F55B5 
 406      296A57D7 
 407 030a BA2204EE 		.ascii	"\272\"\004\356G\223\215\357\341\226\253j\265\372C\341"
 407      47938DEF 
 407      E196AB6A 
 407      B5FA43E1 
 408 031a 70AC1901 		.ascii	"p\254\031\001z\025\224a#\337\317\262&\234\011\256_p"
 408      7A159461 
 408      23DFCFB2 
 408      269C09AE 
 408      5F70
 409 032c 7F45F234 		.ascii	"\177E\3624~>r8\361q.I!\235\341\373<3\270\023\226\332"
 409      7E3E7238 
 409      F1712E49 
 409      219DE1FB 
 409      3C33B813 
 410 0342 82A6D9B7 		.ascii	"\202\246\331\267\253\365\225ZW\327c\034\323\330D\376"
 410      ABF5955A 
 410      57D7631C 
 410      D3D844FE 
 411 0352 D15B6DA5 		.ascii	"\321[m\245m\324\255\032\267$\264\003\201\025-\306R]"
 411      6DD4AD1A 
 411      B724B403 
 411      81152DC6 
 411      525D
 412 0364 A57A301A 		.ascii	"\245z0\032\312\277\025H2>\266\315\222\326\365\246\254"
 412      CABF1548 
 412      323EB6CD 
 412      92D6F5A6 
 412      AC
 413 0375 B915ED5D 		.ascii	"\271\025\355]]\375H]\0027\307\021\272fF\377\300\032"
 413      5DFD485D 
 413      0237C711 
 413      BA6646FF 
 413      C01A
 414 0387 BDD9845E 		.ascii	"\275\331\204^\347\010}\247\031\375CK\364k{fe\020x\347"
 414      E7087DA7 
 414      19FD434B 
 414      F46B7B66 
 414      651078E7 
 415 039b 0A6DB650 		.ascii	"\012m\266P\350jkRsYRMfR-V\244\324wU\325\017\236\330"
 415      E86A6B52 
 415      7359524D 
 415      66522D56 
 415      A4D47755 
 416 03b3 85060B22 		.ascii	"\205\006\013\"s\243#\231w\233\341\367$\302\267CWv\370"
ARM GAS  /tmp/ccgfFyQX.s 			page 33


 416      73A32399 
 416      779BE1F7 
 416      24C2B743 
 416      5776F8
 417 03c6 6F15FCBC 		.ascii	"o\025\374\274\252\372\026\365bWW\016\353I\031\334t<"
 417      AAFA16F5 
 417      6257570E 
 417      EB4919DC 
 417      743C
 418 03d8 924D552B 		.ascii	"\222MU+\370?\246\036\312Z\371\014`\367\203\375X\206"
 418      F83FA61E 
 418      CA5AF90C 
 418      60F783FD 
 418      5886
 419 03ea 32A00B95 		.ascii	"2\240\013\225'i#\305\333\267\317\275\346~(\315o\244"
 419      276923C5 
 419      DBB7CFBD 
 419      E67E28CD 
 419      6FA4
 420 03fc 99AE85E9 		.ascii	"\231\256\205\351O\022P\016\306[9c,l\257\033\011\012"
 420      4F12500E 
 420      C65B3963 
 420      2C6CAF1B 
 420      090A
 421 040e 25990E59 		.ascii	"%\231\016YiL\273\3324K\345Y/|\305c\015p\304R\345\265"
 421      694CBBDA 
 421      344BE559 
 421      2F7CC563 
 421      0D70C452 
 422 0424 B5970FD8 		.ascii	"\265\227\017\330\251\234\021\25177\017\317)\250\321"
 422      A99C11A9 
 422      37370FCF 
 422      29A8D1
 423 0433 A8DE6B48 		.ascii	"\250\336kH\366\004\027\037\331\226|\270\214\257\302"
 423      F604171F 
 423      D9967CB8 
 423      8CAFC2
 424 0442 23DB09BE 		.ascii	"#\333\011\2767\360Y\350e\371\244\004\022\270\245\270"
 424      37F059E8 
 424      65F9A404 
 424      12B8A5B8 
 425 0452 C849284E 		.ascii	"\310I(N\012\022\303\266\257?\323~g\215\252\346\222W"
 425      0A12C3B6 
 425      AF3FD37E 
 425      678DAAE6 
 425      9257
 426 0464 9C8594FA 		.ascii	"\234\205\224\372u7W\017\304\265\316i\213\241W\332\001"
 426      7537570F 
 426      C4B5CE69 
 426      8BA157DA 
 426      01
 427 0475 C8C779D4 		.ascii	"\310\307y\324+\236\214\301ZY&\326W\033^\221\3557\341"
 427      2B9E8CC1 
 427      5A5926D6 
 427      571B5E91 
 427      ED37E1
 428 0488 DD84EE44 		.ascii	"\335\204\356D4\300\316\272\006\0130`\2574\327ar\372"
ARM GAS  /tmp/ccgfFyQX.s 			page 34


 428      34C0CEBA 
 428      060B3060 
 428      AF34D761 
 428      72FA
 429 049a 0CCDC140 		.ascii	"\014\315\301@\377\2661\0359\207\007\372o\274\0263\006"
 429      FFB6311D 
 429      398707FA 
 429      6FBC1633 
 429      06
 430 04ab 47409DD3 		.ascii	"G@\235\323>\372@\237|\234\307P\227\273\015\3250s\353"
 430      3EFA409F 
 430      7C9CC750 
 430      97BB0DD5 
 430      3073EB
 431 04be 4398D337 		.ascii	"C\230\3237\030\350\206\327<\371H7M>\322\331\311@\272"
 431      18E886D7 
 431      3CF94837 
 431      4D3ED2D9 
 431      C940BA
 432 04d1 3F9E4073 		.ascii	"?\236@s\200\034\356g\316.p3\322\034\030.\3367\230\274"
 432      801CEE67 
 432      CE2E7033 
 432      D21C182E 
 432      DE3798BC 
 433 04e5 406D7FF7 		.ascii	"@m\177\367\314\276\273\320\210\354\321\035\271\336g"
 433      CCBEBBD0 
 433      88ECD11D 
 433      B9DE67
 434 04f4 A723186F 		.ascii	"\247#\030op]\035fG>\365\325\276\007\210#w8r\344\215"
 434      705D1D66 
 434      473EF5D5 
 434      BE078823 
 434      773872E4 
 435 0509 7BFE827D 		.ascii	"{\376\202}%e\203\024\214\352\357\301\325\357\307\325"
 435      25658314 
 435      8CEAEFC1 
 435      D5EFC7D5 
 436 0519 5F3157DF 		.ascii	"_1W\337y\341\313GI\365W\034U\377N\333\374\304\352m\007"
 436      79E1CB47 
 436      49F5571C 
 436      55FF4EDB 
 436      FCC4EA6D 
 437 052e 22DD334E 		.ascii	"\"\3353N}u\361\276\245\270\222k\270\275\324\372\314"
 437      7D75F1BE 
 437      A5B8926B 
 437      B8BDD4FA 
 437      CC
 438 053f AEF118DD 		.ascii	"\256\361\030\335\013\032s\272X\006\201[\3413\330w\253"
 438      0B1A73BA 
 438      5806815B 
 438      E133D877 
 438      AB
 439 0550 B982982D 		.ascii	"\271\202\230-O\257\206\021\353%\237\301a\245k\304\000"
 439      4FAF8611 
 439      EB259FC1 
 439      61A56BC4 
 439      00
ARM GAS  /tmp/ccgfFyQX.s 			page 35


 440 0561 A3880D6D 		.ascii	"\243\210\015m\270\003 `k\234\200\331\372Q\245\366\036"
 440      B8032060 
 440      6B9C80D9 
 440      FA51A5F6 
 440      1E
 441 0572 0DF6A66B 		.ascii	"\015\366\246k0\226\331\3734\330:'`\271\366\3146\323"
 441      3096D9FB 
 441      34D83A27 
 441      60B9F6CC 
 441      36D3
 442 0584 60EB5D83 		.ascii	"`\353]\203\261\314\266\322`\3579\001\353c\317l\033\015"
 442      B1CCB6D2 
 442      60EF3901 
 442      EB63CF6C 
 442      1B0D
 443 0596 B6D93518 		.ascii	"\266\3315\030\313l\037\015\266\315\011X\300\202Y\354"
 443      CB6C1F0D 
 443      B6CD0958 
 443      C08259EC 
 444 05a6 B21BEDBF 		.ascii	"\262\033\355\277\217\217\366\002\367\201\317\350\020"
 444      8F8FF602 
 444      F781CFE8 
 444      10
 445 05b3 5CFA3417 		.ascii	"\\\3724\027\307\370\310\347\266\003c\344F\303\350]\233"
 445      C7F8C8E7 
 445      B60363E4 
 445      46C3E85D 
 445      9B
 446 05c4 F57641C6 		.ascii	"\365vA\306\262=N\020\2238\314\242fj`<\340\032\314\344"
 446      B23D4E10 
 446      9338CCA2 
 446      666A603C 
 446      E01ACCE4 
 447 05d8 CA088CE9 		.ascii	"\312\010\214\351jb\233\030Z\237\232xg\307L\375D~\005"
 447      6A629B18 
 447      5A9F9A78 
 447      67C74CFD 
 447      447E05
 448 05eb 7FAFD31D 		.ascii	"\177\257\323\035\212\004\023-\020(\023\235p\302?\211"
 448      8A04132D 
 448      1028139D 
 448      70C23F89 
 449 05fb 8F9E6AAE 		.ascii	"\217\236j\256\373G\265]\343\251\255\027;\326\306>\303"
 449      FB47B55D 
 449      E3A9AD17 
 449      3BD6C63E 
 449      C3
 450 060c 397D607F 		.ascii	"9}`\177U@\203\350g>\313\321\330\001P\347\2647\177\211"
 450      554083E8 
 450      673ECBD1 
 450      D80150E7 
 450      B4377F89 
 451 0620 81EA30D0 		.ascii	"\201\3520\320\327\335\006j\230\271\204\354),\305@\337"
 451      D7DD066A 
 451      98B984EC 
 451      292CC540 
 451      DF
ARM GAS  /tmp/ccgfFyQX.s 			page 36


 452 0631 25F4DDBC 		.ascii	"%\364\335\274iX\347\331\2017\246y]\361?W^\230q\230\255"
 452      6958E7D9 
 452      8137A679 
 452      5DF13F57 
 452      5E987198 
 453 0646 C58893B2 		.ascii	"\305\210\223\262\023\200\306p\264\337\246\267T\265\312"
 453      1380C670 
 453      B4DFA6B7 
 453      54B5CA
 454 0655 E75C3B6F 		.ascii	"\347\\;o\033\366Z\201\26535\335\254\035\244~wb\3749"
 454      1BF65A81 
 454      B53335DD 
 454      AC1DA47E 
 454      7762FC39 
 455 0669 DDAD18F7 		.ascii	"\335\255\030\367\231\304\320\356s+\306\377\032b\254"
 455      99C4D0EE 
 455      732BC6FF 
 455      1A62AC
 456 0678 C6622CF8 		.ascii	"\306b,\370;\210\261\330\265\030\003(1\320\014\177_\377"
 456      3B88B1D8 
 456      B5180328 
 456      31D00C7F 
 456      5FFF
 457 068a 4DB86BBA 		.ascii	"M\270k\272\205\253N>\271B|\336\022naf6\332\261\335|"
 457      85AB4E3E 
 457      B9427CDE 
 457      126E6166 
 457      36DAB1DD 
 458 069f 803C4E35 		.ascii	"\200<N5\253Q\265\037v\327\351\253\003\262\275\267\002"
 458      AB51B51F 
 458      76D7E9AB 
 458      03B2BDB7 
 458      02
 459 06b0 734765BB 		.ascii	"sGe\2733\335P\265\371{p'H\300\326\376$\260Jm\375\313"
 459      33DD50B5 
 459      F97B7027 
 459      48C0D6FE 
 459      24B04A6D 
 460 06c6 C6D205EF 		.ascii	"\306\322\005\357\347l\370\211p\373\367\270]l\314\371"
 460      E76CF889 
 460      70FBF7B8 
 460      5D6CCCF9 
 461 06d6 4A778E8D 		.ascii	"Jw\216\215\3309\266$8\307ys\027\340d\356\335\334]9b"
 461      D839B624 
 461      38C77973 
 461      17E064EE 
 461      DDDC5D39 
 462 06eb 97C0ED35 		.ascii	"\227\300\3555\373\230\323\221:\346cWu\037K9\2017\272"
 462      FB98D391 
 462      3AE66357 
 462      751F4B39 
 462      8137BA
 463 06fe D5934D15 		.ascii	"\325\223M\025\374\024\274^j\024\320\222\266\315\244"
 463      FC14BC5E 
 463      6A14D092 
 463      B6CDA4
 464 070d 0D072B81 		.ascii	"\015\007+\201\323\270\210&$,i\367\335N\246\342\350\225"
ARM GAS  /tmp/ccgfFyQX.s 			page 37


 464      D3B88826 
 464      242C69F7 
 464      DD4EA6E2 
 464      E895
 465 071f 839500B3 		.ascii	"\203\225\000\263\244\025\371\317`QO\312vW\241\214\015"
 465      A415F9CF 
 465      60514FCA 
 465      7657A18C 
 465      0D
 466 0730 E3FC447E 		.ascii	"\343\374D~\207\200\006\324\235\302\335\264\362;\\+?"
 466      878006D4 
 466      9DC2DDB4 
 466      F23B5C2B 
 466      3F
 467 0741 402B5FEB 		.ascii	"@+_\353\334S\307#\376\026\213\227a\364\324%\266\231"
 467      DC53C723 
 467      FE168B97 
 467      61F4D425 
 467      B699
 468 0753 B0779EAE 		.ascii	"\260w\236\256\371&\254\371N\033\315\017\263\003\022"
 468      F926ACF9 
 468      4E1BCD0F 
 468      B30312
 469 0762 B8973350 		.ascii	"\270\2273P\221]\211\232o\271\203h~\227#\315\037\262"
 469      915D899A 
 469      6FB98368 
 469      7E9723CD 
 469      1FB2
 470 0774 D4FC2EF7 		.ascii	"\324\374.\367\232\327\361\016\3077\023D\376s\327`\201"
 470      9AD7F10E 
 470      C7371344 
 470      FE73D760 
 470      81
 471 0785 6466DC45 		.ascii	"df\334E\231q\0176\343\307`F\221\377\2045f]\206\311\230"
 471      99710F36 
 471      E3C76046 
 471      91FF8435 
 471      665D86C9 
 472 079a 8CE6F4E4 		.ascii	"\214\346\364\344}v\"\250\332+{\331\036t\245\031\317"
 472      7D7622A8 
 472      DA2B7BD9 
 472      1E74A519 
 472      CF
 473 07ab 4A8A01F6 		.ascii	"J\212\001\366*Y\262\027\253\204\3648o\272\006\0130`"
 473      2A59B217 
 473      AB84F438 
 473      6FBA060B 
 473      3060
 474 07bd 8DB3173B 		.ascii	"\215\263\027;Z3\253<='\025\270\367q\275\207\314\356"
 474      5A33AB3C 
 474      3D2715B8 
 474      F771BD87 
 474      CCEE
 475 07cf 72       		.ascii	"r"
 476 07d0 63F9FEE9 		.ascii	"c\371\376\351|\005\366\304C\016\374\005\206\227\263"
 476      7C05F6C4 
 476      430EFC05 
ARM GAS  /tmp/ccgfFyQX.s 			page 38


 476      8697B3
 477 07df 7EB53ACB 		.ascii	"~\265:\313\360\333K1\324$\252N\342-\235\347w\361\030"
 477      F0DB4B31 
 477      D424AA4E 
 477      E22D9DE7 
 477      77F118
 478 07f2 8ECCB1AF 		.ascii	"\216\314\261\257\231\341\\\256=oJ-\003\334)\2064H\355"
 478      99E15CAE 
 478      3D6F4A2D 
 478      03DC2986 
 478      3448ED
 479 0805 C42634C0 		.ascii	"\304&4\300\236\3042U\372\315c\002\321\014\345\210\207"
 479      9EC43255 
 479      FACD6302 
 479      D10CE588 
 479      87
 480 0816 28473C82 		.ascii	"(G<\202\035\361(v\304\3438\376\033\355\216vc\374\247"
 480      1DF12876 
 480      C4E338FE 
 480      1BED8E76 
 480      63FCA7
 481 0829 F4DC7CA6 		.ascii	"\364\334|\246\337\255\334\001\223u\354\2529HW3\317\357"
 481      DFADDC01 
 481      9375ECAA 
 481      39485733 
 481      CFEF
 482 083b C0F786DA 		.ascii	"\300\367\206\332\252\027\365\352\017o\322WXd\263\256"
 482      AA17F5EA 
 482      0F6FD257 
 482      5864B3AE 
 483 084b D63522EB 		.ascii	"\3265\"\353\315\035\263\231\371\300\353N\340\206Y\020"
 483      CD1DB399 
 483      F9C0EB4E 
 483      E0865910 
 484 085b B4BAE89D 		.ascii	"\264\272\350\235V\221o\307\353\250\323<2\320\031\034"
 484      56916FC7 
 484      EBA8D33C 
 484      32D0191C 
 485 086b 9FC5F145 		.ascii	"\237\305\361E\034\317\305\206\253\306\361|\034\327\340"
 485      1CCFC586 
 485      ABC6F17C 
 485      1CD7E0
 486 087a 78398E57 		.ascii	"x9\216W\341\370M\034o\305\361G8n\305\361~\034\037\300"
 486      E1F84D1C 
 486      6FC5F147 
 486      386EC5F1 
 486      7E1C1FC0 
 487 088e F1191C9F 		.ascii	"\361\031\034\237u\342\000\307\331#<\273l\307,\216\010"
 487      75E200C7 
 487      D9233CBB 
 487      6CC72C8E 
 487      08
 488 089f F5B4F359 		.ascii	"\365\264\363YO\343\332\323\017\277\215\007\205\363\270"
 488      4FE3DAD3 
 488      0FBF8D07 
 488      85F3B8
 489 08ae 133A9DE0 		.ascii	"\023:\235\340\342i\246YO\032;\353I\363\307\023\361\015"
ARM GAS  /tmp/ccgfFyQX.s 			page 39


 489      E269A659 
 489      4F1A3BEB 
 489      49F3C713 
 489      F10D
 490 08c0 CA18A773 		.ascii	"\312\030\247sd\322d}d\200\316\366\222p\253\255\375f"
 490      64D2647D 
 490      6480CEF6 
 490      9270ABAD 
 490      FD66
 491 08d2 9EBE6B7B 		.ascii	"\236\276k{A@N\360e\002\271\225\274iK\315t\374iR\017"
 491      41404EF0 
 491      6502B995 
 491      BC694BCD 
 491      74FC6952 
 492 08e7 9770F870 		.ascii	"\227p\370p\321\004i\340\\\022,\217k\026\036\261=\256"
 492      D10469E0 
 492      5C122C8F 
 492      6B161EB1 
 492      3DAE
 493 08f9 497A4E75 		.ascii	"IzNuY0\331j9^Y0T*{XS\271bI\245\266\366{\333c\014\342"
 493      5930D96A 
 493      395E5930 
 493      542A7B58 
 493      53B96249 
 494 0915 42765CAE 		.ascii	"Bv\\\256\232\271\020\177c\270T\333p\271f\305E\333\332"
 494      9AB9107F 
 494      63B854DB 
 494      70B966C5 
 494      45DBDA
 495 0928 4A9DC91C 		.ascii	"J\235\311\034\303g2\213m\000\256\333\350\325\376\030"
 495      C367328B 
 495      6D00AEDB 
 495      E8D5FE18 
 496 0938 8C1C51D9 		.ascii	"\214\034Q\331\011s\323,L\374|*v\342e\222m\215\015\265"
 496      0973D32C 
 496      4CFC7C2A 
 496      76E26592 
 496      6D8D0DB5 
 497 094c 0A8FA59E 		.ascii	"\012\217\245\236O|\277\336\236\332\271$\207^U\036\023"
 497      4F7CBFDE 
 497      9EDAB924 
 497      875E551E 
 497      13
 498 095d B5738936 		.ascii	"\265s\2116\337h\303e\252\025\027\255s\316\254\333\325"
 498      DF68C365 
 498      AA1517AD 
 498      73CEACDB 
 498      D5
 499 096e 656E0F9D 		.ascii	"en\017\235\247\263<\364\276A\235\246\336\267*\33670"
 499      A7B33CF4 
 499      BE419DA6 
 499      DEB72ADE 
 499      3730
 500 0980 9F00C4E6 		.ascii	"\237\000\304\346\242\033\357\307+\242\227<\350y\213"
 500      A21BEFC7 
 500      2BA2973C 
 500      E8798B
ARM GAS  /tmp/ccgfFyQX.s 			page 40


 501 098f 89AB63A0 		.ascii	"\211\253c\240\372\316i\267\251^\221\237\205a\332\272"
 501      FACE69B7 
 501      A95E919F 
 501      8561DABA 
 502 099f 0BD3DE30 		.ascii	"\013\323\3360s%9z\231\203\201N\3640\367\006\036SW\345"
 502      7325397A 
 502      9983814E 
 502      F430F706 
 502      1E5357E5 
 503 09b3 61BB2A8F 		.ascii	"a\273*\217?\236\350\352\362p?cf\223\231\317\331\230"
 503      3F9EE8EA 
 503      F2703F63 
 503      669399CF 
 503      D998
 504 09c5 B9DAD2E5 		.ascii	"\271\332\322\345\032\026~\332\315\3260\337\354rtkx\311"
 504      1A167EDA 
 504      CDD630DF 
 504      EC72746B 
 504      78C9
 505 09d7 E367DEE9 		.ascii	"\343g\336\351\367&\252\0356Tk,\251.\252\355\362\274"
 505      F726AA1D 
 505      36546B2C 
 505      A92EAAED 
 505      F2BC
 506 09e9 AAEE303E 		.ascii	"\252\3560>\326@\256\006s\226Lk\210E\326\322\036>\271"
 506      D640AE06 
 506      73964C6B 
 506      8845D6D2 
 506      1E3EB9
 507 09fc DF5E5A44 		.ascii	"\337^ZD\322N\332:O\342\341\377\"\233\272\027\263u\377"
 507      D24EDA3A 
 507      4FE2E1FF 
 507      229BBA17 
 507      B375FF
 508 0a0f 33B74C5D 		.ascii	"3\267L]7W[\3722,\316\226\201\363\335\354\352\342\215"
 508      37575BFA 
 508      322CCE96 
 508      81F3DDEC 
 508      EAE28D
 509 0a22 6FC85AB2 		.ascii	"o\310Z\262c\303\224\226\354\330'\361\004\307\270\342"
 509      63C39496 
 509      ECD827F1 
 509      04C7B8E2 
 510 0a32 48CC998F 		.ascii	"H\314\231\217\310/\363\364\342\254/\201[\235\300\\\344"
 510      C82FF3F4 
 510      E2AC2F81 
 510      5B9DC05C 
 510      E4
 511 0a43 5F8BB346 		.ascii	"_\213\263F\214A[\260\226\017\276Q\251Ny\011}O\304wy"
 511      8C415BB0 
 511      960FBE51 
 511      A94E7909 
 511      7D4FC477 
 512 0a58 ACA6B11E 		.ascii	"\254\246\261\036z\261\020k\313\027\214C\352\025\036"
 512      7AB1106B 
 512      CB178C43 
 512      EA151E
ARM GAS  /tmp/ccgfFyQX.s 			page 41


 513 0a67 34977DC3 		.ascii	"4\227}\303T]J X(\340\"+=\211+\3721d]\211^\245^',>l\273"
 513      545D4A20 
 513      5828E022 
 513      2B3D892B 
 513      FA31645D 
 514 0a84 226E8FCD 		.ascii	"\"n\217\315\300\357\242\250\237<tZ\247\276\026S\337"
 514      C0EFA2A8 
 514      9F3C745A 
 514      A7BE1653 
 514      DF
 515 0a95 919A3A0B 		.ascii	"\221\232:\013$p\255\270\310[\211\324\265\337\021\352"
 515      2470ADB8 
 515      C85B89D4 
 515      B5DF11EA 
 516 0aa5 6F39A27E 		.ascii	"o9\242~\240\215P7\0269\237\306`\273\267\3109H\016d\310"
 516      A08D5037 
 516      16399FC6 
 516      60BBB7C8 
 516      39480E64 
 517 0aba 8CF9AC19 		.ascii	"\214\371\254\031\314\325\022G\325\216\022\260\016\374"
 517      CCD51247 
 517      D58E12B0 
 517      0EFC
 518 0ac8 0DC237AE 		.ascii	"\015\3027\256\301\002\014\263S\325\354\227\004\227\234"
 518      C1020CB3 
 518      53D5EC97 
 518      04979C
 519 0ad7 E0253930 		.ascii	"\340%90\271\330F\035\230\\s\015\306\222\273B\203Uf9"
 519      B9D8461D 
 519      985C730D 
 519      C692BB42 
 519      83556639 
 520 0aeb 00B33ABD 		.ascii	"\000\263:\275\260\272h\037\021\371u\036\2642x\307\203"
 520      B0BA681F 
 520      11F9751E 
 520      B43278C7 
 520      83
 521 0afc 66EEEB71 		.ascii	"f\356\353q\334\200\343\2158\336\204\343-\036f\207aV"
 521      DC80E38D 
 521      38DE84E3 
 521      2D1E6687 
 521      6156
 522 0b0e 96D1462C 		.ascii	"\226\321F,=1\225K\250Z\203}\353x\316(\236E5\216%g+\370"
 522      3D31954B 
 522      A85A837D 
 522      EB78CE28 
 522      9E45358E 
 523 0b26 A9B8716C 		.ascii	"\251\270ql\307\215\243:+e\343`p\004n\025.\261#\261m"
 523      C78DA33A 
 523      2B65E360 
 523      70046E15 
 523      2EB123B1 
 524 0b3b 1C7D8CB4 		.ascii	"\034}\214\264\215\035\016\332F\245\366\343\034g\333"
 524      8D1D0EDA 
 524      46A5F6E3 
 524      1C67DB
 525 0b4a 0FF53185 		.ascii	"\017\3651\205\374\003%\306\311\223\306\266W3\026c{j"
ARM GAS  /tmp/ccgfFyQX.s 			page 42


 525      FC0325C6 
 525      C993C6B6 
 525      57331663 
 525      7B6A
 526 0b5c 31582068 		.ascii	"1X h\343\270\310n\0139\036!r\354v$\307\2469\206\347"
 526      E3B8C86E 
 526      0B391E21 
 526      72EC7624 
 526      C7A63986 
 527 0b71 3779907F 		.ascii	"7y\220\177\265\307`\223\370\227\255A+\265\315\255\330"
 527      B5C76093 
 527      F897AD41 
 527      2BB5CDAD 
 527      D8
 528 0b82 5909D897 		.ascii	"Y\011\330\227\256\301X\317ol\255\353\243\326\177\300"
 528      AEC158CF 
 528      6F6CADEB 
 528      A3D67FC0 
 529 0b92 1B73B28B 		.ascii	"\033s\262\213f<f\336\224z[d[\253\371\350\321\371\274"
 529      663C66DE 
 529      947A5B64 
 529      5BABF9E8 
 529      D1F9BC
 530 0ba5 F29079B2 		.ascii	"\362\220y\262\341\344\023\325\230\333\302\204\237,\355"
 530      E1E413D5 
 530      98DBC284 
 530      9F2CED
 531 0bb4 0E62C5FC 		.ascii	"\016b\305\374h\262\267i\245\210\352\262]\007{,\007a"
 531      68B2B769 
 531      A588EAB2 
 531      5D077B2C 
 531      0761
 532 0bc6 AB77D05B 		.ascii	"\253w\320[\364t`\200\244G\311-\217\032G\311xcb\246\023"
 532      F4746080 
 532      A447C92D 
 532      8F1A47C9 
 532      786362A6 
 533 0bdb 40AB8ED1 		.ascii	"@\253\216\321\352\242\335W\344?\306\335\317'\270\233"
 533      EAA2DD57 
 533      E43FC6DD 
 533      CF27B89B 
 534 0beb 69C5F17E 		.ascii	"i\305\361~\034\037\300\361\011\217\203\255\004\344u"
 534      1C1FC0F1 
 534      098F83AD 
 534      04E475
 535 0bfa 31ECBD1E 		.ascii	"1\354\275\036Ao\350\335\363\344\353qO\026\371}\256\301"
 535      416FE8DD 
 535      F3E4EB71 
 535      4F16F97D 
 535      AEC1
 536 0c0c 18456AF3 		.ascii	"\030Ej\363\332hO\026\37163\236KO^W\235\265\3579\243"
 536      DA684F16 
 536      F936339E 
 536      4B4F5E57 
 536      9DB5EF39 
 537 0c21 59CCEBC9 		.ascii	"Y\314\353\311\273\004\313Mf\224\035\224Q>\304F\371\010"
 537      BB04CB4D 
ARM GAS  /tmp/ccgfFyQX.s 			page 43


 537      66941D94 
 537      513EC446 
 537      F908
 538 0c33 9BE0531C 		.ascii	"\233\340S\034\237\304\361)v\034X\334\3234\0160\235\256"
 538      9FC4F129 
 538      761C58DC 
 538      D3340E30 
 538      9DAE
 539 0c45 D5A844AB 		.ascii	"\325\250D\253G\325\266\036\006];?\256\371\3028\2569"
 539      47D5B61E 
 539      065D3B3F 
 539      AEF9C238 
 539      AE39
 540 0c57 837BCF15 		.ascii	"\203{\317\025=]\037\327\254\307E\316YL\356\236!\275"
 540      3D5D1FD7 
 540      ACC745CE 
 540      594CEE9E 
 540      21BD
 541 0c69 E7B9D4BD 		.ascii	"\347\271\324\275\347\224*\255\341\225\327\343\243@U"
 541      E7942AAD 
 541      E195D7E3 
 541      A34055
 542 0c78 ACFD2E14 		.ascii	"\254\375.\024\354\247\361\314\267\010;c4\\\372\250\265"
 542      ECA7F1CC 
 542      B7083B63 
 542      345CFAA8 
 542      B5
 543 0c89 E5CE5196 		.ascii	"\345\316Q\226\373\022[\356<k\247O\314v\262\252/\311"
 543      FB125BEE 
 543      3C6BA74F 
 543      CC76B2AA 
 543      2FC9
 544 0c9b 89C091C3 		.ascii	"\211\300\221\303\344D\300\251\251\016\\\350x\020\257"
 544      E444C0A9 
 544      A90E5CE8 
 544      7810AF
 545 0caa 612F6043 		.ascii	"a/`CM\311vi($T\207\311H\332wR\200<u\360\205\350Y\274"
 545      4DC97669 
 545      28245487 
 545      C948DA77 
 545      52803C75 
 546 0cc3 ADEE7C83 		.ascii	"\255\356|\203\260\365\214~,z\031\267\254\005&\302\335"
 546      B0F58C7E 
 546      2C7A19B7 
 546      AC0526C2 
 546      DD
 547 0cd4 3C165D8C 		.ascii	"<\026]\214a:\376^f\356\240\314|\011\233\371;\326\314"
 547      613AFE5E 
 547      66EEA0CC 
 547      7C099BF9 
 547      3BD6CC
 548 0ce7 2BB2DD9A 		.ascii	"+\262\335\2329\220\254\276\225T}\253q}kp'\260\015\307"
 548      3990ACBE 
 548      95547DAB 
 548      717D6B70 
 548      27B00DC7 
 549 0cfb 9FE1F85B 		.ascii	"\237\341\370[\226\301\312\230\342,WW\010\365Gv\265W"
ARM GAS  /tmp/ccgfFyQX.s 			page 44


 549      96C1CA98 
 549      E22C5757 
 549      08F54776 
 549      B557
 550 0d0d 8FD6C6E7 		.ascii	"\217\326\306\347^\343\253UX\033\253\032\254P\373\321"
 550      5EE3AB55 
 550      581BAB1A 
 550      AC50FBD1 
 551 0d1d 0B4B6A8B 		.ascii	"\013Kj\213\217\235\011!\250N\217\333\037p\\\367X\377"
 551      8F9D0921 
 551      A84E8FDB 
 551      1F705CF7 
 551      58FF
 552 0d2f 80C31B93 		.ascii	"\200\303\033\223`\215Y\202\304jo\260\022\254\323\332"
 552      608D5982 
 552      C46A6FB0 
 552      12ACD3DA 
 553 0d3f D7EFFDFC 		.ascii	"\327\357\375\374\000?_U\023%`\026\331\206\337C\037\226"
 553      003F5F55 
 553      13256016 
 553      D986DF43 
 553      1F96
 554 0d51 E4A4EA5D 		.ascii	"\344\244\352]`\220\362\334F\344+\275h(\251\362\232\272"
 554      6090F2DC 
 554      46E42BBD 
 554      6828A9F2 
 554      9ABA
 555 0d63 B286C38D 		.ascii	"\262\206\303\215}\260'\2437\016\346\2637Z\310\001\324"
 555      7DB027A3 
 555      370EE6B3 
 555      375AC801 
 555      D4
 556 0d74 02BCF7BC 		.ascii	"\002\274\367\274\005K\217\212vo\360\354<\217\341L\363"
 556      054B8F8A 
 556      766FF0EC 
 556      3C8FE14C 
 556      F3
 557 0d85 9A469B1D 		.ascii	"\232F\233\035pDo\206\227\352\0275\327\325\007\230\352"
 557      70446F86 
 557      97EA1735 
 557      D7D50798 
 557      EA
 558 0d96 AF4B2D03 		.ascii	"\257K-\003\010\244\30059\301Jq\226f`\265\272\306\012"
 558      08A4C035 
 558      39C14A71 
 558      966660B5 
 558      BAC60A
 559 0da9 24B42662 		.ascii	"$\264&b\007\221\237\352E\355f:\216g\342x\2267\345\034"
 559      07919FEA 
 559      45ED663A 
 559      8E67E278 
 559      9637E51C 
 560 0dbd C7A4D00A 		.ascii	"\307\244\320\012\033&\010\177\2667\323T\267\215#\323"
 560      1B26087F 
 560      B637D354 
 560      B78D23D3 
 561 0dcd CD0C15B2 		.ascii	"\315\014\025\262\365\3679\336^z\352:\275\367H\335\012"
ARM GAS  /tmp/ccgfFyQX.s 			page 45


 561      F5F739DE 
 561      5E7AEA3A 
 561      BDF748DD 
 561      0A
 562 0dde DC91D4CD 		.ascii	"\334\221\324\315f\256\2274\233!\334zu\2066R\344\273"
 562      66AE9734 
 562      9B21DC7A 
 562      75863652 
 562      E4BB
 563 0df0 A0F9C654 		.ascii	"\240\371\306T\377\002wM\255\201\221x\366\331\301\204"
 563      FF02774D 
 563      AD819178 
 563      F6D9C184 
 564 0e00 0E6A5A17 		.ascii	"\016jZ\027\367i[\246-\206\225\242\276yE$\027\270\317"
 564      F7695BA6 
 564      2D8695A2 
 564      BE794524 
 564      17B8CF
 565 0e13 12BA19A6 		.ascii	"\022\272\031\246q\340MB\250\255/\367u\366b5\203\252"
 565      71E04D42 
 565      A8AD2FF7 
 565      75F66235 
 565      83AA
 566 0e25 75184120 		.ascii	"u\030A V Uj\215M\274\315\257,\231\237{\034\215Uq\247"
 566      5620556A 
 566      8D4DBCCD 
 566      AF2C999F 
 566      7B1C8D55 
 567 0e3b 5EC5AB5E 		.ascii	"^\305\253^\267\335\317\"\257u\367sGR\343\213|M\334\246"
 567      B7DDCF22 
 567      AF75F773 
 567      4752E38B 
 567      7C4DDCA6 
 568 0e4f 7DB9EB20 		.ascii	"}\271\353 S\315\260x\365\304\231P\011\322\226\210[\321"
 568      53CDB078 
 568      F5C49950 
 568      09D29688 
 568      5BD1
 569 0e61 F7B37461 		.ascii	"\367\263tag\250Z\233\217<f\177k\245\327\313\033*Y\230"
 569      67A85A9B 
 569      8F3C667F 
 569      6BA5D7CB 
 569      1B2A5998 
 570 0e75 C3DA60BA 		.ascii	"\303\332`\272\205\015jrR\332`)cqK\3357\363D\272\276"
 570      850D6A72 
 570      52DA6029 
 570      63714BDD 
 570      37F344BA 
 571 0e8a DCB29C9F 		.ascii	"\334\262\234\237\"V\272!\226\226(\226`\324V\303\212"
 571      2256BA21 
 571      96962896 
 571      60D456C3 
 571      8A
 572 0e9b D5F8B285 		.ascii	"\325\370\262\205X\215\251\305z=\245X\333\3678r\251\226"
 572      588DA9C5 
 572      7A3DA558 
 572      DBF73872 
ARM GAS  /tmp/ccgfFyQX.s 			page 46


 572      A996
 573 0ead 18F4ED3A 		.ascii	"\030\364\355:\364\032\327.\265\326\306\245\372\244p"
 573      F41AD72E 
 573      B5D6C6A5 
 573      FAA470
 574 0ebc A9D5B44B 		.ascii	"\251\325\264K5\351\272_\323\035\335\037\3144t\2773Q"
 574      35E9BA5F 
 574      D31DDD1F 
 574      CC3474BF 
 574      3351
 575 0ece F71E4325 		.ascii	"\367\036C%\213X\335\237\232m\241\373\366\324\272_\227"
 575      8B58DD9F 
 575      9A6DA1FB 
 575      F6D4BA5F 
 575      97
 576 0edf 52F71D7B 		.ascii	"R\367\035{\035\351>\021z\203k\3357\330\350>\207\325"
 576      1DE93E11 
 576      7A836BDD 
 576      37D8E83E 
 576      87D5
 577 0ef1 4142B9F5 		.ascii	"AB\271\365\264\356\317\353\272\337\320\035\335_\311"
 577      B4EECFEB 
 577      BADFD01D 
 577      DD5FC9
 578 0f00 3674BF3B 		.ascii	"6t\277;Q\367\344\327W\306x`\032B\226\306;\337\004~\357"
 578      51F7E4D7 
 578      57C67860 
 578      1A4296C6 
 578      3BDF047E 
 579 0f15 7BAD7F6F 		.ascii	"{\255\177oMv\325\355Jm\262-u,\311\370\277\331\266Tg"
 579      4D76D5ED 
 579      4A6DB22D 
 579      752CC9F8 
 579      BFD9B654 
 580 0f2a 12865B6C 		.ascii	"\022\206[lK\355MR\327V\257\371g\270\265\265\247.\363"
 580      4BED4D52 
 580      D756AFF9 
 580      67B8B5B5 
 580      A72EF3
 581 0f3d D5552A39 		.ascii	"\325U*9\226\251\237\341uq\362\271\315\233x0s-\207]8"
 581      96A99FE1 
 581      7571F2B9 
 581      CD9B7830 
 581      732D875D 
 582 0f52 E83F9BAC 		.ascii	"\350?\233\254T\337]\245\372\215\357\004`B\344M\372c"
 582      54DF5DA5 
 582      FA8DEF04 
 582      6042E44D 
 582      FA63
 583 0f64 DCED5EAB 		.ascii	"\334\355^\253_\216\036i\253\323\177\214\273]\275;\303"
 583      5F8E1E69 
 583      ABD37F8C 
 583      BB5DBD3B 
 583      C3
 584 0f75 C551F80E 		.ascii	"\305Q\370\016\013\242\263r\223\022=\316\023W\373 9\321"
 584      0BA2B372 
 584      93123DCE 
ARM GAS  /tmp/ccgfFyQX.s 			page 47


 584      1357FB20 
 584      39D1
 585 0f87 9D2C5193 		.ascii	"\235,Q\223)\320\347\000v\234>\212\233\302\246\201\016"
 585      29D0E700 
 585      769C3E8A 
 585      9BC2A681 
 585      0E
 586 0f98 358AA4EB 		.ascii	"5\212\244\353E\232\\\267"
 586      459A5CB7 
 587 0fa0 CF669BF6 		.ascii	"\317f\233\366\351\263\346{5\011\337\026[\207\253J\262"
 587      E9B3E67B 
 587      3509DF16 
 587      5B87AB4A 
 587      B2
 588 0fb1 69B7CBB6 		.ascii	"i\267\313\266\324\315$u\355\216\227\302\262V%]\301\212"
 588      D4CD2475 
 588      ED8E97C2 
 588      B256255D 
 588      C18A
 589 0fc3 FC57F8D3 		.ascii	"\374W\370\323\236\324\013R\253E\205\317\200z\216\213"
 589      9ED40B52 
 589      AB4585CF 
 589      807A8E8B 
 590 0fd3 2D86BF7F 		.ascii	"-\206\277\177\355x\204\234D}\214\273\345\323\271\226"
 590      ED78849C 
 590      447D8CBB 
 590      E5D3B996 
 591 0fe3 CB777B1C 		.ascii	"\313w{\034\374U\202ia\242\3358\236\205\216\307[S/K\246"
 591      FC558269 
 591      61A2DD38 
 591      9E858EC7 
 591      5B532F4B 
 592 0ff8 54695DC7 		.ascii	"Ti]\307\215O\020\367"
 592      8D4F10F7 
 593 1000 78D100FE 		.ascii	"x\321\000\376-\246\320\332\275u\011\340\315=\2017\365"
 593      2DA6D0DA 
 593      BD7509E0 
 593      CD3D8137 
 593      F5
 594 1011 0858876B 		.ascii	"\010X\207k\260\000\003VM\203}\357\004\314n\231\001`"
 594      B0000356 
 594      4D837DEF 
 594      04CC6E99 
 594      0160
 595 1023 F369B06B 		.ascii	"\363i\260k\256\301Xf\013i\260.'`v\207Y\000VC\203U\366"
 595      AEC15866 
 595      0B69B02E 
 595      27607687 
 595      59005643 
 596 103a 720BC632 		.ascii	"r\013\3062[D\203Ms\002f\367S\034\000\253\243\301f\271"
 596      5B44834D 
 596      730266F7 
 596      531C00AB 
 596      A3C166B9 
 597 104e 0663992D 		.ascii	"\006c\231-\241\301\252\235\200\005\354\231\255\243\301"
 597      A1C1AA9D 
 597      8005EC99 
ARM GAS  /tmp/ccgfFyQX.s 			page 48


 597      ADA3C1
 598 105d FEE21A8C 		.ascii	"\376\342\032\214e\366.\015V\353\004\314n\013\017\300"
 598      65F62E0D 
 598      56EB04CC 
 598      6E0B0FC0 
 599 106d 36D0604B 		.ascii	"6\320`K]\203\261\314\336\243\301\226;\001\263\373<x"
 599      5D83B1CC 
 599      DEA3C196 
 599      3B01B3FB 
 599      3C78
 600 107f 4A85F6FE 		.ascii	"J\205\366\376\177\316\025\351\265(B\265\231\244\321"
 600      7FCE15E9 
 600      B52842B5 
 600      99A4D1
 601 108e D9CE279B 		.ascii	"\331\316'\233\313}\353z\254\270`3V\320\337\304\304s"
 601      CB7DEB7A 
 601      ACB86033 
 601      56D0DFC4 
 601      C473
 602 10a0 A1AD2EB3 		.ascii	"\241\255.\263\330,\013+\271Y%n\246\225\270\326\211\022"
 602      D82C0B2B 
 602      B959256E 
 602      A695B8D6 
 602      8912
 603 10b2 87D9836D 		.ascii	"\207\331\203m\245\301\3269\001\033n\357+\333h\260\015"
 603      A5C1D639 
 603      011B6EEF 
 603      2BDB68B0 
 603      0D
 604 10c3 AEC15866 		.ascii	"\256\301Xf\373h\260MN\300F\3323k\243\301\266\272\006"
 604      FB68B04D 
 604      4EC046DA 
 604      336BA3C1 
 604      B6BA06
 605 10d6 A3995568 		.ascii	"\243\231Uh\007\343\216\207~h\300x\3360\266\267e\262"
 605      07E38E87 
 605      7E68C078 
 605      DE30B6B7 
 605      65B2
 606 10e8 519E67CA 		.ascii	"Q\236g\312&\362\327c\263\370\367xf\257$v+p;\314\274"
 606      26F2D763 
 606      B3F8F778 
 606      66AF2476 
 606      2B703BCC 
 607 10fd 19143D39 		.ascii	"\031\024=9\306B\011V\027=\322\212\374>/\232\012\354"
 607      C6420956 
 607      173DD28A 
 607      FC3E2F9A 
 607      0AEC
 608 110f C7DB4A07 		.ascii	"\307\333J\007p|\010\307Gp|\014\307'p\374)\216O\341\370"
 608      707C08C7 
 608      47707C0C 
 608      C72770FC 
 608      298E4FE1 
 609 1124 348ECFE0 		.ascii	"4\216\317\340\370,\216\277\300\361y\034\177\215\343"
 609      F82C8EBF 
 609      C0F1791C 
ARM GAS  /tmp/ccgfFyQX.s 			page 49


 609      7F8DE3
 610 1133 8B38BE84 		.ascii	"\2138\276\204\343\3138\276\202\343\2538\276Foa\231\246"
 610      E3CB38BE 
 610      82E3AB38 
 610      BE466F61 
 610      99A6
 611 1145 3A1F27D9 		.ascii	":\037'\331\254\272i;A\232\236dZ\325e[j~\222Rj\232y\366"
 611      ACBA693B 
 611      419A9E64 
 611      5AD5655B 
 611      6A7E9252 
 612 115d BFE4AD4B 		.ascii	"\277\344\255K\375\214\177\302s7\371\322J\340^\356m3"
 612      FD8C7FC2 
 612      7337F9D2 
 612      4AE05EEE 
 612      6D33
 613 116f 335EB74A 		.ascii	"3^\267JM3\276'\203ugZlfl\372\307B\370ueZ\262\231q]\022"
 613      4D33BE27 
 613      8375675A 
 613      6C666CFA 
 613      C742F875 
 614 118a 9A53D2EC 		.ascii	"\232S\322\354\204kN\262\264\231\032/\305yCE\242<<\257"
 614      846B4EB2 
 614      B4991A2F 
 614      C5794345 
 614      A23C3CAF 
 615 119e A8B444CA 		.ascii	"\250\264D\312\013\225\026N\316+\224&\344\205\212\302"
 615      0B95164E 
 615      CE2B9426 
 615      E4858AC2 
 616 11ae 63C3A5D1 		.ascii	"c\303\245\321<E.\217<\237\007\011Y\311++\225\225h\336"
 616      3C452E8F 
 616      3C9F0709 
 616      59C92B2B 
 616      959568DE 
 617 11c2 E30523F2 		.ascii	"\343\005#\362GL\202\234%e\341bI\216\346=\225\237\017"
 617      474C829C 
 617      2565E162 
 617      498EE63D 
 617      959F0F
 618 11d5 D995C965 		.ascii	"\331\225\311eR\264\177\021\227V\022\035\037T|O\375\376"
 618      52B47F11 
 618      9756121D 
 618      1F547C4F 
 618      FDFE
 619 11e7 D9403E77 		.ascii	"\331@>wO^yT\316\023\345\222\007\"\245\021\351\001I\034"
 619      4F5E7954 
 619      CE13E592 
 619      0722A511 
 619      E901491C 
 620 11fb 1BCE0B47 		.ascii	"\033\316\013GB\305\345\205R^T)\014G\024(\221\016\177"
 620      42C5E585 
 620      525E5429 
 620      0C471428 
 620      910E7F
 621 120e 060F0A2A 		.ascii	"\006\017\012*C\222d.\021\201PD\312\013\026J\343\304"
 621      4392642E 
ARM GAS  /tmp/ccgfFyQX.s 			page 50


 621      11815044 
 621      CA0B164A 
 621      E3C4
 622 1220 F2622568 		.ascii	"\362b%hT\347\017\006\365\342yI%P\244\250\202d@\177\225"
 622      54E70F06 
 622      F5E27949 
 622      2550A4A8 
 622      8264407F 
 623 1235 A2C2FE21 		.ascii	"\242\302\376!\316\247\024\311\222X\310\227e\301\375"
 623      CEA714C9 
 623      9258C897 
 623      65C1FD
 624 1244 C0A03449 		.ascii	"\300\2404I\012\225+\022\272\031D\337\0146nn\201\233"
 624      0A952B12 
 624      BA1944DF 
 624      0C366E6E 
 624      819B
 625 1256 21C64DFF 		.ascii	"!\306M\3772QV\372\017\310\242\237\375\3121\001\244\246"
 625      325156FA 
 625      0FC8A29F 
 625      FDCA3101 
 625      A4A6
 626 1268 E06F4A4B 		.ascii	"\340oJK\213o\015\242\333\240\030\215J\262\022\214J\177"
 626      8B6F0DA2 
 626      DBA0188D 
 626      4AB2128C 
 626      4A7F
 627 127a 2C972221 		.ascii	",\227\"!\251\027~8Q\014\203\230\230c\364A\007\3261T"
 627      A9177E38 
 627      510C8398 
 627      9863F441 
 627      07D63154 
 628 128e 05A62085 		.ascii	"\005\246 \205\240\226\241\256\312E'G\015\265f\020\214"
 628      A096A1AE 
 628      CA452747 
 628      0DB56610 
 628      8C
 629 129f A0E20F15 		.ascii	"\240\342\017\025\351$\206\270\303\012\201\222\2138_"
 629      E92486B8 
 629      C30A8192 
 629      8B385F
 630 12ae 5930224D 		.ascii	"Y0\"MR\340O\231,MHW\312\344piP\311(\327m\326#\0304\222"
 630      52E04F99 
 630      2C4D4857 
 630      CAE47069 
 630      50C928D7 
 631 12c8 384BB834 		.ascii	"8K\2704=T\032Q\240\304C\256\375\261(T*KPe&z\214\234"
 631      3D541A51 
 631      A0C443AE 
 631      FDB12854 
 631      2A4B5065 
 632 12e0 22A44C7A 		.ascii	"\"\244Lz\244{(\301\011\017\226 %\310\322xp\307\240\""
 632      A47B28C1 
 632      090F9620 
 632      25C8D278 
 632      70C7A022 
 633 12f4 C84304F9 		.ascii	"\310C\004\371_\005\371\327\202\374\240 \017\025\344"
ARM GAS  /tmp/ccgfFyQX.s 			page 51


 633      5F05F9D7 
 633      82FCA020 
 633      0F15E4
 634 1303 873CF2C0 		.ascii	"\207<\362\300\001\020\006\012\3052\374\031\234V\026"
 634      0110060A 
 634      C532FC19 
 634      9C5616
 635 1312 84DAD291 		.ascii	"\204\332\322\221\260\023%\031\376\226\026\027J2\022"
 635      B0132519 
 635      FE961617 
 635      4A3212
 636 1321 5E2C9132 		.ascii	"^,\2212\224\250\"*RPIG\262\016\005\235\022\251!\005"
 636      94A8222A 
 636      52504947 
 636      B20E059D 
 636      12A92105 
 637 1335 39F1BB74 		.ascii	"9\361\273t\245\244\264P\302\367\343\212\305\361\321"
 637      A5A4B450 
 637      C2F7E38A 
 637      C5F1D1
 638 1344 744596C6 		.ascii	"tE\226\306E\261RP\302'\027N\206f\225!M\012+ \213\344"
 638      45B15250 
 638      C227174E 
 638      86669521 
 638      4D0A2B20 
 639 135a 9BA8948E 		.ascii	"\233\250\224\216\375\257\262Li\202\024QJ\304\350\363"
 639      FDAFB24C 
 639      69821451 
 639      4AC4E8F3 
 640 136a 90539A88 		.ascii	"\220S\232\210\022\236\262`y\266n\377`q\030\334H\311"
 640      129EB260 
 640      79B66EFF 
 640      607118DC 
 640      48C9
 641 137c 8959903C 		.ascii	"\211Y\220<\361\227a\327\012G\306\347\030\217\301\355"
 641      F19761D7 
 641      0A47C6E7 
 641      188FC1ED 
 642 138c CAA1F65C 		.ascii	"\312\241\366\\*'~\324\243,\010\325\342d\032N\302\003"
 642      2A277ED4 
 642      A32C08D5 
 642      E2641A4E 
 642      C203
 643 139e A94C8A40 		.ascii	"\251L\212@\303\035\237V\002.?i\260+\247(Q&\241\366^"
 643      C31D9F56 
 643      022E3F69 
 643      B02BA728 
 643      5126A1F6 
 644 13b3 42D0E16F 		.ascii	"B\320\341o\351\304\010\250\013#\201\010%\330W\200\037"
 644      E9C408A8 
 644      0B238108 
 644      25D85780 
 644      1F
 645 13c4 E4434C7B 		.ascii	"\344CL{ \351\305b\354\026\360\260\014\032\314 \334G"
 645      20E9C562 
 645      EC16F0B0 
 645      0C1ACC20 
ARM GAS  /tmp/ccgfFyQX.s 			page 52


 645      DC47
 646 13d6 1487C7E6 		.ascii	"\024\207\307\346\215\017\205L}\305\220\376C\373\017"
 646      8D0F854C 
 646      7DC590FE 
 646      43FB0F
 647 13e5 A1BB17E8 		.ascii	"\241\273\027\350+\220\013F\303\377\215T\253\214+\217"
 647      2B900B46 
 647      C3FF8D54 
 647      AB8C2B8F 
 648 13f5 84824AAF 		.ascii	"\204\202J\257P\321\350\242\302|\000V\244Q\240\373p("
 648      50D1E8A2 
 648      C27C0056 
 648      A451A0FB 
 648      7028
 649 1407 073737A9 		.ascii	"\00777\251\0045\267\322\347\245H\017\234\003\336\311"
 649      0435B7D2 
 649      E7A5480F 
 649      9C03DEC9 
 650 1417 4A1695F9 		.ascii	"J\026\225\371\351,\272\261\346\222L\2222\022\330\311"
 650      E92CBAB1 
 650      E6924C92 
 650      3212D8C9 
 651 1427 6165B21F 		.ascii	"ae\262\037\265\236p\211\244{\367\300_\307\274\033'I"
 651      B59E7089 
 651      A47BF7C0 
 651      5FC7BC1B 
 651      2749
 652 1439 F662492A 		.ascii	"\366bI*\353\303\264y\\db8RX:1'\236\347\331\210\022."
 652      EBC3B479 
 652      5C646238 
 652      52583A31 
 652      279EE7D9 
 653 1450 CEA6BA81 		.ascii	"\316\246\272\201p\350ya\242\230\011\006B\325H%\244a"
 653      70E87961 
 653      A2980906 
 653      42D54825 
 653      A461
 654 1462 927416B2 		.ascii	"\222t\026\262\330d\335\332=\341q\374>]&\252\366\311"
 654      D864DDDA 
 654      3DE171FC 
 654      3E5D26AA 
 654      F6C9
 655 1474 B871A5C9 		.ascii	"\270q\245\311\330Me\335Me\342\246~xZ.\313\340Ji2*t\353"
 655      D84D65DD 
 655      4D65E2A6 
 655      7E785A2E 
 655      CBE04A69 
 656 148c 84B0AC94 		.ascii	"\204\260\254\224\213\305\230\233l\270\321m\000l\361"
 656      8BC5989B 
 656      6CB8D16D 
 656      006CF1
 657 149b 22877946 		.ascii	"\"\207yF|\210y\224>A\301fE\177Q\037\220\001\177\013"
 657      7C887994 
 657      3E41C166 
 657      457F511F 
 657      90017F0B 
 658 14af A5624584 		.ascii	"\245bE\204\004\261\010z\203R>\224C\2243\341O\261\010"
ARM GAS  /tmp/ccgfFyQX.s 			page 53


 658      04B1087A 
 658      83523E94 
 658      439433E1 
 658      4FB108
 659 14c2 BD349486 		.ascii	"\2754\224\206G\250\222l]\350Bil\371x\342\321\364\023"
 659      47A8926C 
 659      5DE84269 
 659      6CF978E2 
 659      D1F413
 660 14d5 7F991809 		.ascii	"\177\231\030\011\207\220\177z\012\307\216\037\344\256"
 660      87907F7A 
 660      0AC78E1F 
 660      E4AE
 661 14e3 AF440D3D 		.ascii	"\257D\015=W)\011\206D\360*\031\374\2414\002\224d%\024"
 661      57290986 
 661      44F02A19 
 661      FCA13402 
 661      94642514 
 662 14f7 01A17DA5 		.ascii	"\001\241}\245\343\306E%EPJ\204PQ\272\33662\220]BbT\362"
 662      E3C64525 
 662      45504A84 
 662      5051BADE 
 662      3632905D 
 663 150f A2D69D06 		.ascii	"\242\326\235\006\357\313\313\340\231(\203\015#\351\372"
 663      EFCBCBE0 
 663      9928830D 
 663      23E9FA
 664 151e 60D0A34C 		.ascii	"`\320\243LT\024I\216\300\000\221\241\2179\003s\373\313"
 664      5414498E 
 664      C00091A1 
 664      8F390373 
 664      FBCB
 665 1530 A585A222 		.ascii	"\245\205\242\"\3667\036\3349\232 \376* E\220\235\240"
 665      F6371EDC 
 665      399A20FE 
 665      2A204590 
 665      9DA0
 666 1542 5905D0BB 		.ascii	"Y\005\320\273\300\277\014\344\214R\203\3543\015\212"
 666      C0BF0CE4 
 666      8C5283EC 
 666      330D8A
 667 1551 651A7C7B 		.ascii	"e\032|{,S\231\356\217\001\030\325#\343\245X\226!\271"
 667      2C5399EE 
 667      8F0118D5 
 667      23E3A558 
 667      9621B9
 668 1564 B12CA07E 		.ascii	"\261,\240~qr\224#-\341\251\270\013\217\351i<\031%\025"
 668      71729423 
 668      2DE1A9B8 
 668      0B8FE969 
 668      3C192515 
 669 1578 8F1BF3DB 		.ascii	"\217\033\363\333T\212,\022\213\365\336s\324\350\021"
 669      548A2C12 
 669      8BF5DE73 
 669      D4E811
 670 1587 8307E53D 		.ascii	"\203\007\345=\363\314\023y\243\237\0361a 4\276\022\324"
 670      F3CC1379 
ARM GAS  /tmp/ccgfFyQX.s 			page 54


 670      A39F1E31 
 670      612034BE 
 670      12D4
 671 1599 A7879172 		.ascii	"\247\207\221r3c7A\305\223_0\020\302 \357\250\021\371"
 671      33633741 
 671      C5935F30 
 671      10C220EF 
 671      A811F9
 672 15ac 05DE279E 		.ascii	"\005\336'\236~\262@\030U\340y\362\251\202\264\374\374"
 672      7EB24018 
 672      55E079F2 
 672      A982B4FC 
 672      FC
 673 15bd 11050371 		.ascii	"\021\005\003q<\310\233\237\377d\201'\377\367\243=#G"
 673      3CC89B9F 
 673      FF648127 
 673      FFF7A33D 
 673      2347
 674 15cf E57B1E2F 		.ascii	"\345{\036/(\360\024\344\303=\024\370\315\023\243\013"
 674      28F014E4 
 674      C33D14F8 
 674      CD13A30B 
 675 15df 3C4FA092 		.ascii	"<O\240\222#\036/\020\376@J\015\206\374c\012\362\177"
 675      231E2F10 
 675      FE404A0D 
 675      86FC630A 
 675      F27F
 676 15f1 0AD96071 		.ascii	"\012\331`q1\032\254z\223Tp\274\244\004C\245\3450\016"
 676      311AAC7A 
 676      935470BC 
 676      A40443A5 
 676      E5300E
 677 1604 C9FF078B 		.ascii	"\311\377\007\213C\243\272"
 677      43A3BA
 678              		.text
 679              		.section	.gnu.lto_.symtab.34321f362e082505,"",%progbits
 680 0000 70617474 		.ascii	"patternthd\000\000\000\000\000\000\000\000\000\000\000"
 680      65726E74 
 680      68640000 
 680      00000000 
 680      00000000 
 681 0015 00FE0100 		.ascii	"\000\376\001\000\000testthd1\000\000\000\000\000\000"
 681      00746573 
 681      74746864 
 681      31000000 
 681      000000
 682 0028 00000000 		.ascii	"\000\000\000\000\000\000\023\002\000\000testthd2\000"
 682      00001302 
 682      00007465 
 682      73747468 
 682      643200
 683 003b 00000000 		.ascii	"\000\000\000\000\000\000\000\000\000\000\000\036\002"
 683      00000000 
 683      0000001E 
 683      02
 684 0048 00007465 		.ascii	"\000\000testthd3\000\000\000\000\000\000\000\000\000"
 684      73747468 
ARM GAS  /tmp/ccgfFyQX.s 			page 55


 684      64330000 
 684      00000000 
 684      000000
 685 005b 00000025 		.ascii	"\000\000\000%\002\000\000testthd4\000\000\000\000\000"
 685      02000074 
 685      65737474 
 685      68643400 
 685      00000000 
 686 006f 00000000 		.ascii	"\000\000\000\000\000\000\000/\002\000\000wa\000\000"
 686      0000002F 
 686      02000077 
 686      610000
 687 007e 02000000 		.ascii	"\002\000\000\000\000\000\000\000\000\000\236\001\000"
 687      00000000 
 687      00009E01 
 687      00
 688 008b 00636800 		.ascii	"\000ch\000\000\002\000\000\000\000\000\000\000\000\000"
 688      00020000 
 688      00000000 
 688      000000
 689 009a A3010000 		.ascii	"\243\001\000\000threads\000\000\002\000\000\000\000"
 689      74687265 
 689      61647300 
 689      00020000 
 689      0000
 690 00ac 00000000 		.ascii	"\000\000\000\000\000\372\001\000\000_test_assert_se"
 690      00FA0100 
 690      005F7465 
 690      73745F61 
 690      73736572 
 691 00c4 7175656E 		.ascii	"quence\000\000\002\000\000\000\000\000\000\000\000\000"
 691      63650000 
 691      02000000 
 691      00000000 
 691      0000
 692 00d6 CD000000 		.ascii	"\315\000\000\000test_wait_threads\000\000\002\000\000"
 692      74657374 
 692      5F776169 
 692      745F7468 
 692      72656164 
 693 00f0 00000000 		.ascii	"\000\000\000\000\000\000\000\326\000\000\000chThdCr"
 693      000000D6 
 693      00000063 
 693      68546864 
 693      4372
 694 0102 65617465 		.ascii	"eateStatic\000\000\002\000\000\000\000\000\000\000\000"
 694      53746174 
 694      69630000 
 694      02000000 
 694      00000000 
 695 0117 00D80000 		.ascii	"\000\330\000\000\000test_emit_token\000\000\002\000"
 695      00746573 
 695      745F656D 
 695      69745F74 
 695      6F6B656E 
 696 012f 00000000 		.ascii	"\000\000\000\000\000\000\000\000s\001\000\000chThdS"
 696      00000000 
ARM GAS  /tmp/ccgfFyQX.s 			page 56


 696      73010000 
 696      63685468 
 696      6453
 697 0141 74617274 		.ascii	"tart\000\000\002\000\000\000\000\000\000\000\000\000"
 697      00000200 
 697      00000000 
 697      00000000 
 698 0151 77010000 		.ascii	"w\001\000\000chThdCreateI\000\000\002\000\000\000\000"
 698      63685468 
 698      64437265 
 698      61746549 
 698      00000200 
 699 0168 00000000 		.ascii	"\000\000\000\000\000{\001\000\000_test_assert\000\000"
 699      007B0100 
 699      005F7465 
 699      73745F61 
 699      73736572 
 700 017f 02000000 		.ascii	"\002\000\000\000\000\000\000\000\000\000}\001\000\000"
 700      00000000 
 700      00007D01 
 700      0000
 701 018d 63685468 		.ascii	"chThdSetPriority\000\000\002\000\000\000\000\000\000"
 701      64536574 
 701      5072696F 
 701      72697479 
 701      00000200 
 702 01a6 00000082 		.ascii	"\000\000\000\202\001\000\000chThdSleep\000\000\002\000"
 702      01000063 
 702      68546864 
 702      536C6565 
 702      70000002 
 703 01bb 00000000 		.ascii	"\000\000\000\000\000\000\000\000\206\001\000\000_te"
 703      00000000 
 703      86010000 
 703      5F7465
 704 01ca 73745F61 		.ascii	"st_assert_time_window\000\000\002\000\000\000\000\000"
 704      73736572 
 704      745F7469 
 704      6D655F77 
 704      696E646F 
 705 01e7 00000000 		.ascii	"\000\000\000\000\223\001\000\000chThdSleepUntil\000"
 705      93010000 
 705      63685468 
 705      64536C65 
 705      6570556E 
 706 01ff 00020000 		.ascii	"\000\002\000\000\000\000\000\000\000\000\000\231\001"
 706      00000000 
 706      00000099 
 706      01
 707 020c 00007465 		.ascii	"\000\000test_wait_tick\000\000\002\000\000\000\000\000"
 707      73745F77 
 707      6169745F 
 707      7469636B 
 707      00000200 
 708 0224 00000000 		.ascii	"\000\000\000\000\233\001\000\000"
 708      9B010000 
 709              		.text
ARM GAS  /tmp/ccgfFyQX.s 			page 57


 710              		.section	.gnu.lto_.opts,"",%progbits
 711 0000 272D6D63 		.ascii	"'-mcpu=cortex-m3' '-mno-thumb-interwork' '-mthumb' "
 711      70753D63 
 711      6F727465 
 711      782D6D33 
 711      2720272D 
 712 0033 272D4F32 		.ascii	"'-O2' '-fomit-frame-pointer' '-falign-functions=16'"
 712      2720272D 
 712      666F6D69 
 712      742D6672 
 712      616D652D 
 713 0066 20272D66 		.ascii	" '-ffunction-sections' '-fdata-sections' '-fno-comm"
 713      66756E63 
 713      74696F6E 
 713      2D736563 
 713      74696F6E 
 714 0099 6F6E2720 		.ascii	"on' '-flto'\000"
 714      272D666C 
 714      746F2700 
 715              		.text
 716              		.section	.text.thd1_execute,"ax",%progbits
 717              		.align	2
 718              		.p2align 4,,15
 719              		.thumb
 720              		.thumb_func
 721              		.type	thd1_execute, %function
 722              	thd1_execute:
 723              		@ args = 0, pretend = 0, frame = 0
 724              		@ frame_needed = 0, uses_anonymous_args = 0
 725 0000 F0B5     		push	{r4, r5, r6, r7, lr}
 726 0002 274F     		ldr	r7, .L2
 727 0004 274E     		ldr	r6, .L2+4
 728 0006 BB69     		ldr	r3, [r7, #24]
 729 0008 274D     		ldr	r5, .L2+8
 730 000a 9A68     		ldr	r2, [r3, #8]
 731 000c 2749     		ldr	r1, .L2+12
 732 000e 83B0     		sub	sp, sp, #12
 733 0010 2B46     		mov	r3, r5
 734 0012 0091     		str	r1, [sp]
 735 0014 3068     		ldr	r0, [r6]
 736 0016 053A     		subs	r2, r2, #5
 737 0018 4FF4A471 		mov	r1, #328
 738 001c FFF7FEFF 		bl	chThdCreateStatic
 739 0020 BB69     		ldr	r3, [r7, #24]
 740 0022 234C     		ldr	r4, .L2+16
 741 0024 9A68     		ldr	r2, [r3, #8]
 742 0026 2349     		ldr	r1, .L2+20
 743 0028 7368     		ldr	r3, [r6, #4]
 744 002a 2060     		str	r0, [r4]
 745 002c 0091     		str	r1, [sp]
 746 002e 043A     		subs	r2, r2, #4
 747 0030 1846     		mov	r0, r3
 748 0032 4FF4A471 		mov	r1, #328
 749 0036 2B46     		mov	r3, r5
 750 0038 FFF7FEFF 		bl	chThdCreateStatic
 751 003c BA69     		ldr	r2, [r7, #24]
 752 003e B368     		ldr	r3, [r6, #8]
ARM GAS  /tmp/ccgfFyQX.s 			page 58


 753 0040 9268     		ldr	r2, [r2, #8]
 754 0042 1D49     		ldr	r1, .L2+24
 755 0044 6060     		str	r0, [r4, #4]
 756 0046 0091     		str	r1, [sp]
 757 0048 033A     		subs	r2, r2, #3
 758 004a 1846     		mov	r0, r3
 759 004c 4FF4A471 		mov	r1, #328
 760 0050 2B46     		mov	r3, r5
 761 0052 FFF7FEFF 		bl	chThdCreateStatic
 762 0056 BA69     		ldr	r2, [r7, #24]
 763 0058 F368     		ldr	r3, [r6, #12]
 764 005a 9268     		ldr	r2, [r2, #8]
 765 005c 1749     		ldr	r1, .L2+28
 766 005e A060     		str	r0, [r4, #8]
 767 0060 0091     		str	r1, [sp]
 768 0062 023A     		subs	r2, r2, #2
 769 0064 1846     		mov	r0, r3
 770 0066 4FF4A471 		mov	r1, #328
 771 006a 2B46     		mov	r3, r5
 772 006c FFF7FEFF 		bl	chThdCreateStatic
 773 0070 BA69     		ldr	r2, [r7, #24]
 774 0072 3369     		ldr	r3, [r6, #16]
 775 0074 9268     		ldr	r2, [r2, #8]
 776 0076 1249     		ldr	r1, .L2+32
 777 0078 E060     		str	r0, [r4, #12]
 778 007a 013A     		subs	r2, r2, #1
 779 007c 0091     		str	r1, [sp]
 780 007e 1846     		mov	r0, r3
 781 0080 4FF4A471 		mov	r1, #328
 782 0084 2B46     		mov	r3, r5
 783 0086 FFF7FEFF 		bl	chThdCreateStatic
 784 008a 2061     		str	r0, [r4, #16]
 785 008c FFF7FEFF 		bl	test_wait_threads
 786 0090 0C49     		ldr	r1, .L2+36
 787 0092 0120     		movs	r0, #1
 788 0094 03B0     		add	sp, sp, #12
 789              		@ sp needed
 790 0096 BDE8F040 		pop	{r4, r5, r6, r7, lr}
 791 009a FFF7FEBF 		b	_test_assert_sequence
 792              	.L3:
 793 009e 00BF     		.align	2
 794              	.L2:
 795 00a0 00000000 		.word	ch
 796 00a4 00000000 		.word	wa
 797 00a8 00000000 		.word	thread
 798 00ac 00000000 		.word	.LC0
 799 00b0 00000000 		.word	threads
 800 00b4 04000000 		.word	.LC1
 801 00b8 08000000 		.word	.LC2
 802 00bc 0C000000 		.word	.LC3
 803 00c0 10000000 		.word	.LC4
 804 00c4 14000000 		.word	.LC5
 805              		.size	thd1_execute, .-thd1_execute
 806 00c8 AFF30080 		.section	.text.thread,"ax",%progbits
 806      AFF30080 
 807              		.align	2
 808              		.p2align 4,,15
ARM GAS  /tmp/ccgfFyQX.s 			page 59


 809              		.thumb
 810              		.thumb_func
 811              		.type	thread, %function
 812              	thread:
 813              		@ args = 0, pretend = 0, frame = 0
 814              		@ frame_needed = 0, uses_anonymous_args = 0
 815 0000 08B5     		push	{r3, lr}
 816 0002 0078     		ldrb	r0, [r0]	@ zero_extendqisi2
 817 0004 FFF7FEFF 		bl	test_emit_token
 818 0008 0020     		movs	r0, #0
 819 000a 08BD     		pop	{r3, pc}
 820              		.size	thread, .-thread
 821 000c AFF30080 		.section	.text.thd2_execute,"ax",%progbits
 822              		.align	2
 823              		.p2align 4,,15
 824              		.thumb
 825              		.thumb_func
 826              		.type	thd2_execute, %function
 827              	thd2_execute:
 828              		@ args = 0, pretend = 0, frame = 0
 829              		@ frame_needed = 0, uses_anonymous_args = 0
 830 0000 F0B5     		push	{r4, r5, r6, r7, lr}
 831 0002 2B4F     		ldr	r7, .L6
 832 0004 2B4E     		ldr	r6, .L6+4
 833 0006 BB69     		ldr	r3, [r7, #24]
 834 0008 2B4D     		ldr	r5, .L6+8
 835 000a 9A68     		ldr	r2, [r3, #8]
 836 000c 2B49     		ldr	r1, .L6+12
 837 000e 83B0     		sub	sp, sp, #12
 838 0010 2B46     		mov	r3, r5
 839 0012 0091     		str	r1, [sp]
 840 0014 7068     		ldr	r0, [r6, #4]
 841 0016 043A     		subs	r2, r2, #4
 842 0018 4FF4A471 		mov	r1, #328
 843 001c FFF7FEFF 		bl	chThdCreateStatic
 844 0020 BB69     		ldr	r3, [r7, #24]
 845 0022 274C     		ldr	r4, .L6+16
 846 0024 9A68     		ldr	r2, [r3, #8]
 847 0026 2749     		ldr	r1, .L6+20
 848 0028 3368     		ldr	r3, [r6]
 849 002a 6060     		str	r0, [r4, #4]
 850 002c 0091     		str	r1, [sp]
 851 002e 053A     		subs	r2, r2, #5
 852 0030 1846     		mov	r0, r3
 853 0032 4FF4A471 		mov	r1, #328
 854 0036 2B46     		mov	r3, r5
 855 0038 FFF7FEFF 		bl	chThdCreateStatic
 856 003c BA69     		ldr	r2, [r7, #24]
 857 003e 3369     		ldr	r3, [r6, #16]
 858 0040 9268     		ldr	r2, [r2, #8]
 859 0042 2149     		ldr	r1, .L6+24
 860 0044 2060     		str	r0, [r4]
 861 0046 0091     		str	r1, [sp]
 862 0048 013A     		subs	r2, r2, #1
 863 004a 1846     		mov	r0, r3
 864 004c 4FF4A471 		mov	r1, #328
 865 0050 2B46     		mov	r3, r5
ARM GAS  /tmp/ccgfFyQX.s 			page 60


 866 0052 FFF7FEFF 		bl	chThdCreateStatic
 867 0056 BA69     		ldr	r2, [r7, #24]
 868 0058 F368     		ldr	r3, [r6, #12]
 869 005a 9268     		ldr	r2, [r2, #8]
 870 005c 1B49     		ldr	r1, .L6+28
 871 005e 2061     		str	r0, [r4, #16]
 872 0060 0091     		str	r1, [sp]
 873 0062 023A     		subs	r2, r2, #2
 874 0064 1846     		mov	r0, r3
 875 0066 4FF4A471 		mov	r1, #328
 876 006a 2B46     		mov	r3, r5
 877 006c FFF7FEFF 		bl	chThdCreateStatic
 878 0070 2023     		movs	r3, #32
 879 0072 E060     		str	r0, [r4, #12]
 880              	@ 546 "/home/cody/dev/chibios/trunk/os/ext/CMSIS/include/core_cmFunc.h" 1
 881 0074 83F31188 		MSR basepri, r3
 882              	@ 0 "" 2
 883              		.thumb
 884 0078 BB69     		ldr	r3, [r7, #24]
 885 007a 1549     		ldr	r1, .L6+32
 886 007c 9A68     		ldr	r2, [r3, #8]
 887 007e B068     		ldr	r0, [r6, #8]
 888 0080 2B46     		mov	r3, r5
 889 0082 0091     		str	r1, [sp]
 890 0084 033A     		subs	r2, r2, #3
 891 0086 4FF4A471 		mov	r1, #328
 892 008a FFF7FEFF 		bl	chThdCreateI
 893 008e 0023     		movs	r3, #0
 894 0090 A060     		str	r0, [r4, #8]
 895              	@ 546 "/home/cody/dev/chibios/trunk/os/ext/CMSIS/include/core_cmFunc.h" 1
 896 0092 83F31188 		MSR basepri, r3
 897              	@ 0 "" 2
 898              		.thumb
 899 0096 A068     		ldr	r0, [r4, #8]
 900 0098 FFF7FEFF 		bl	chThdStart
 901 009c FFF7FEFF 		bl	test_wait_threads
 902 00a0 0C49     		ldr	r1, .L6+36
 903 00a2 0120     		movs	r0, #1
 904 00a4 03B0     		add	sp, sp, #12
 905              		@ sp needed
 906 00a6 BDE8F040 		pop	{r4, r5, r6, r7, lr}
 907 00aa FFF7FEBF 		b	_test_assert_sequence
 908              	.L7:
 909 00ae 00BF     		.align	2
 910              	.L6:
 911 00b0 00000000 		.word	ch
 912 00b4 00000000 		.word	wa
 913 00b8 00000000 		.word	thread
 914 00bc 04000000 		.word	.LC1
 915 00c0 00000000 		.word	threads
 916 00c4 00000000 		.word	.LC0
 917 00c8 10000000 		.word	.LC4
 918 00cc 0C000000 		.word	.LC3
 919 00d0 08000000 		.word	.LC2
 920 00d4 14000000 		.word	.LC5
 921              		.size	thd2_execute, .-thd2_execute
 922 00d8 AFF30080 		.section	.text.thd3_execute,"ax",%progbits
ARM GAS  /tmp/ccgfFyQX.s 			page 61


 922      AFF30080 
 923              		.align	2
 924              		.p2align 4,,15
 925              		.thumb
 926              		.thumb_func
 927              		.type	thd3_execute, %function
 928              	thd3_execute:
 929              		@ args = 0, pretend = 0, frame = 0
 930              		@ frame_needed = 0, uses_anonymous_args = 0
 931 0000 F8B5     		push	{r3, r4, r5, r6, r7, lr}
 932 0002 4B4E     		ldr	r6, .L14
 933 0004 B369     		ldr	r3, [r6, #24]
 934 0006 9C68     		ldr	r4, [r3, #8]
 935 0008 651C     		adds	r5, r4, #1
 936 000a 2846     		mov	r0, r5
 937 000c FFF7FEFF 		bl	chThdSetPriority
 938 0010 B0EB040C 		subs	ip, r0, r4
 939 0014 DCF10001 		rsbs	r1, ip, #0
 940 0018 0746     		mov	r7, r0
 941 001a 51EB0C01 		adcs	r1, r1, ip
 942 001e 0120     		movs	r0, #1
 943 0020 FFF7FEFF 		bl	_test_assert
 944 0024 00B1     		cbz	r0, .L13
 945              	.L8:
 946 0026 F8BD     		pop	{r3, r4, r5, r6, r7, pc}
 947              	.L13:
 948 0028 B369     		ldr	r3, [r6, #24]
 949 002a 0220     		movs	r0, #2
 950 002c 9968     		ldr	r1, [r3, #8]
 951 002e B5EB010E 		subs	lr, r5, r1
 952 0032 DEF10001 		rsbs	r1, lr, #0
 953 0036 51EB0E01 		adcs	r1, r1, lr
 954 003a FFF7FEFF 		bl	_test_assert
 955 003e 0028     		cmp	r0, #0
 956 0040 F1D1     		bne	.L8
 957 0042 3846     		mov	r0, r7
 958 0044 FFF7FEFF 		bl	chThdSetPriority
 959 0048 281A     		subs	r0, r5, r0
 960 004a 4142     		rsbs	r1, r0, #0
 961 004c 4141     		adcs	r1, r1, r0
 962 004e 0320     		movs	r0, #3
 963 0050 FFF7FEFF 		bl	_test_assert
 964 0054 0028     		cmp	r0, #0
 965 0056 E6D1     		bne	.L8
 966 0058 B369     		ldr	r3, [r6, #24]
 967 005a 0420     		movs	r0, #4
 968 005c 9968     		ldr	r1, [r3, #8]
 969 005e 621A     		subs	r2, r4, r1
 970 0060 5142     		rsbs	r1, r2, #0
 971 0062 5141     		adcs	r1, r1, r2
 972 0064 FFF7FEFF 		bl	_test_assert
 973 0068 0028     		cmp	r0, #0
 974 006a DCD1     		bne	.L8
 975 006c 2023     		movs	r3, #32
 976              	@ 546 "/home/cody/dev/chibios/trunk/os/ext/CMSIS/include/core_cmFunc.h" 1
 977 006e 83F31188 		MSR basepri, r3
 978              	@ 0 "" 2
ARM GAS  /tmp/ccgfFyQX.s 			page 62


 979              		.thumb
 980 0072 B369     		ldr	r3, [r6, #24]
 981 0074 9A68     		ldr	r2, [r3, #8]
 982 0076 0232     		adds	r2, r2, #2
 983 0078 9A60     		str	r2, [r3, #8]
 984              	@ 546 "/home/cody/dev/chibios/trunk/os/ext/CMSIS/include/core_cmFunc.h" 1
 985 007a 80F31188 		MSR basepri, r0
 986              	@ 0 "" 2
 987              		.thumb
 988 007e B369     		ldr	r3, [r6, #24]
 989 0080 A71C     		adds	r7, r4, #2
 990 0082 9968     		ldr	r1, [r3, #8]
 991 0084 0520     		movs	r0, #5
 992 0086 7B1A     		subs	r3, r7, r1
 993 0088 5942     		rsbs	r1, r3, #0
 994 008a 5941     		adcs	r1, r1, r3
 995 008c FFF7FEFF 		bl	_test_assert
 996 0090 0028     		cmp	r0, #0
 997 0092 C8D1     		bne	.L8
 998 0094 2846     		mov	r0, r5
 999 0096 FFF7FEFF 		bl	chThdSetPriority
 1000 009a B0EB040C 		subs	ip, r0, r4
 1001 009e DCF10001 		rsbs	r1, ip, #0
 1002 00a2 51EB0C01 		adcs	r1, r1, ip
 1003 00a6 0620     		movs	r0, #6
 1004 00a8 FFF7FEFF 		bl	_test_assert
 1005 00ac 0028     		cmp	r0, #0
 1006 00ae BAD1     		bne	.L8
 1007 00b0 B369     		ldr	r3, [r6, #24]
 1008 00b2 0720     		movs	r0, #7
 1009 00b4 9968     		ldr	r1, [r3, #8]
 1010 00b6 B7EB010E 		subs	lr, r7, r1
 1011 00ba DEF10001 		rsbs	r1, lr, #0
 1012 00be 51EB0E01 		adcs	r1, r1, lr
 1013 00c2 FFF7FEFF 		bl	_test_assert
 1014 00c6 0028     		cmp	r0, #0
 1015 00c8 ADD1     		bne	.L8
 1016 00ca B369     		ldr	r3, [r6, #24]
 1017 00cc 0820     		movs	r0, #8
 1018 00ce D96B     		ldr	r1, [r3, #60]
 1019 00d0 6F1A     		subs	r7, r5, r1
 1020 00d2 7942     		rsbs	r1, r7, #0
 1021 00d4 7941     		adcs	r1, r1, r7
 1022 00d6 FFF7FEFF 		bl	_test_assert
 1023 00da 0028     		cmp	r0, #0
 1024 00dc A3D1     		bne	.L8
 1025 00de E71C     		adds	r7, r4, #3
 1026 00e0 3846     		mov	r0, r7
 1027 00e2 FFF7FEFF 		bl	chThdSetPriority
 1028 00e6 281A     		subs	r0, r5, r0
 1029 00e8 4142     		rsbs	r1, r0, #0
 1030 00ea 4141     		adcs	r1, r1, r0
 1031 00ec 0920     		movs	r0, #9
 1032 00ee FFF7FEFF 		bl	_test_assert
 1033 00f2 0028     		cmp	r0, #0
 1034 00f4 97D1     		bne	.L8
 1035 00f6 B369     		ldr	r3, [r6, #24]
ARM GAS  /tmp/ccgfFyQX.s 			page 63


 1036 00f8 0A20     		movs	r0, #10
 1037 00fa 9968     		ldr	r1, [r3, #8]
 1038 00fc 7A1A     		subs	r2, r7, r1
 1039 00fe 5142     		rsbs	r1, r2, #0
 1040 0100 5141     		adcs	r1, r1, r2
 1041 0102 FFF7FEFF 		bl	_test_assert
 1042 0106 0028     		cmp	r0, #0
 1043 0108 8DD1     		bne	.L8
 1044 010a B369     		ldr	r3, [r6, #24]
 1045 010c 0B20     		movs	r0, #11
 1046 010e D96B     		ldr	r1, [r3, #60]
 1047 0110 7B1A     		subs	r3, r7, r1
 1048 0112 5942     		rsbs	r1, r3, #0
 1049 0114 5941     		adcs	r1, r1, r3
 1050 0116 FFF7FEFF 		bl	_test_assert
 1051 011a 0028     		cmp	r0, #0
 1052 011c 83D1     		bne	.L8
 1053 011e 2023     		movs	r3, #32
 1054              	@ 546 "/home/cody/dev/chibios/trunk/os/ext/CMSIS/include/core_cmFunc.h" 1
 1055 0120 83F31188 		MSR basepri, r3
 1056              	@ 0 "" 2
 1057              		.thumb
 1058 0124 B369     		ldr	r3, [r6, #24]
 1059 0126 9C60     		str	r4, [r3, #8]
 1060 0128 DC63     		str	r4, [r3, #60]
 1061              	@ 546 "/home/cody/dev/chibios/trunk/os/ext/CMSIS/include/core_cmFunc.h" 1
 1062 012a 80F31188 		MSR basepri, r0
 1063              	@ 0 "" 2
 1064              		.thumb
 1065 012e 7AE7     		b	.L8
 1066              	.L15:
 1067              		.align	2
 1068              	.L14:
 1069 0130 00000000 		.word	ch
 1070              		.size	thd3_execute, .-thd3_execute
 1071 0134 AFF30080 		.section	.text.thd4_execute,"ax",%progbits
 1071      AFF30080 
 1071      AFF30080 
 1072              		.align	2
 1073              		.p2align 4,,15
 1074              		.thumb
 1075              		.thumb_func
 1076              		.type	thd4_execute, %function
 1077              	thd4_execute:
 1078              		@ args = 0, pretend = 0, frame = 0
 1079              		@ frame_needed = 0, uses_anonymous_args = 0
 1080 0000 70B5     		push	{r4, r5, r6, lr}
 1081 0002 FFF7FEFF 		bl	test_wait_tick
 1082 0006 2026     		movs	r6, #32
 1083              	@ 546 "/home/cody/dev/chibios/trunk/os/ext/CMSIS/include/core_cmFunc.h" 1
 1084 0008 86F31188 		MSR basepri, r6
 1085              	@ 0 "" 2
 1086              		.thumb
 1087 000c 4FF08045 		mov	r5, #1073741824
 1088 0010 6C6A     		ldr	r4, [r5, #36]
 1089 0012 0023     		movs	r3, #0
 1090 0014 A4B2     		uxth	r4, r4
ARM GAS  /tmp/ccgfFyQX.s 			page 64


 1091              	@ 546 "/home/cody/dev/chibios/trunk/os/ext/CMSIS/include/core_cmFunc.h" 1
 1092 0016 83F31188 		MSR basepri, r3
 1093              	@ 0 "" 2
 1094              		.thumb
 1095 001a 6420     		movs	r0, #100
 1096 001c FFF7FEFF 		bl	chThdSleep
 1097 0020 04F16401 		add	r1, r4, #100
 1098 0024 04F16502 		add	r2, r4, #101
 1099 0028 89B2     		uxth	r1, r1
 1100 002a 92B2     		uxth	r2, r2
 1101 002c 0120     		movs	r0, #1
 1102 002e FFF7FEFF 		bl	_test_assert_time_window
 1103 0032 00B1     		cbz	r0, .L20
 1104              	.L16:
 1105 0034 70BD     		pop	{r4, r5, r6, pc}
 1106              	.L20:
 1107              	@ 546 "/home/cody/dev/chibios/trunk/os/ext/CMSIS/include/core_cmFunc.h" 1
 1108 0036 86F31188 		MSR basepri, r6
 1109              	@ 0 "" 2
 1110              		.thumb
 1111 003a 6C6A     		ldr	r4, [r5, #36]
 1112 003c A4B2     		uxth	r4, r4
 1113              	@ 546 "/home/cody/dev/chibios/trunk/os/ext/CMSIS/include/core_cmFunc.h" 1
 1114 003e 80F31188 		MSR basepri, r0
 1115              	@ 0 "" 2
 1116              		.thumb
 1117 0042 6420     		movs	r0, #100
 1118 0044 FFF7FEFF 		bl	chThdSleep
 1119 0048 04F16401 		add	r1, r4, #100
 1120 004c 04F16502 		add	r2, r4, #101
 1121 0050 89B2     		uxth	r1, r1
 1122 0052 92B2     		uxth	r2, r2
 1123 0054 0220     		movs	r0, #2
 1124 0056 FFF7FEFF 		bl	_test_assert_time_window
 1125 005a 0028     		cmp	r0, #0
 1126 005c EAD1     		bne	.L16
 1127              	@ 546 "/home/cody/dev/chibios/trunk/os/ext/CMSIS/include/core_cmFunc.h" 1
 1128 005e 86F31188 		MSR basepri, r6
 1129              	@ 0 "" 2
 1130              		.thumb
 1131 0062 6C6A     		ldr	r4, [r5, #36]
 1132 0064 A4B2     		uxth	r4, r4
 1133              	@ 546 "/home/cody/dev/chibios/trunk/os/ext/CMSIS/include/core_cmFunc.h" 1
 1134 0066 80F31188 		MSR basepri, r0
 1135              	@ 0 "" 2
 1136              		.thumb
 1137 006a 4FF47A70 		mov	r0, #1000
 1138 006e FFF7FEFF 		bl	chThdSleep
 1139 0072 04F57A71 		add	r1, r4, #1000
 1140 0076 04F2E932 		addw	r2, r4, #1001
 1141 007a 89B2     		uxth	r1, r1
 1142 007c 92B2     		uxth	r2, r2
 1143 007e 0320     		movs	r0, #3
 1144 0080 FFF7FEFF 		bl	_test_assert_time_window
 1145 0084 0028     		cmp	r0, #0
 1146 0086 D5D1     		bne	.L16
 1147              	@ 546 "/home/cody/dev/chibios/trunk/os/ext/CMSIS/include/core_cmFunc.h" 1
ARM GAS  /tmp/ccgfFyQX.s 			page 65


 1148 0088 86F31188 		MSR basepri, r6
 1149              	@ 0 "" 2
 1150              		.thumb
 1151 008c 6D6A     		ldr	r5, [r5, #36]
 1152 008e ADB2     		uxth	r5, r5
 1153              	@ 546 "/home/cody/dev/chibios/trunk/os/ext/CMSIS/include/core_cmFunc.h" 1
 1154 0090 80F31188 		MSR basepri, r0
 1155              	@ 0 "" 2
 1156              		.thumb
 1157 0094 05F16404 		add	r4, r5, #100
 1158 0098 A4B2     		uxth	r4, r4
 1159 009a 2046     		mov	r0, r4
 1160 009c FFF7FEFF 		bl	chThdSleepUntil
 1161 00a0 05F16502 		add	r2, r5, #101
 1162 00a4 2146     		mov	r1, r4
 1163 00a6 92B2     		uxth	r2, r2
 1164 00a8 0420     		movs	r0, #4
 1165 00aa BDE87040 		pop	{r4, r5, r6, lr}
 1166 00ae FFF7FEBF 		b	_test_assert_time_window
 1167              		.size	thd4_execute, .-thd4_execute
 1168              		.global	patternthd
 1169              		.global	testthd4
 1170              		.global	testthd3
 1171              		.global	testthd2
 1172              		.global	testthd1
 1173 00b2 00BFAFF3 		.section	.rodata.testthd1,"a",%progbits
 1173      0080AFF3 
 1173      0080AFF3 
 1173      0080
 1174              		.align	2
 1175              		.type	testthd1, %object
 1176              		.size	testthd1, 16
 1177              	testthd1:
 1178 0000 64000000 		.word	.LC9
 1179 0004 00000000 		.word	0
 1180 0008 00000000 		.word	0
 1181 000c 00000000 		.word	thd1_execute
 1182              		.section	.rodata.testthd2,"a",%progbits
 1183              		.align	2
 1184              		.type	testthd2, %object
 1185              		.size	testthd2, 16
 1186              	testthd2:
 1187 0000 48000000 		.word	.LC8
 1188 0004 00000000 		.word	0
 1189 0008 00000000 		.word	0
 1190 000c 00000000 		.word	thd2_execute
 1191              		.section	.rodata.testthd3,"a",%progbits
 1192              		.align	2
 1193              		.type	testthd3, %object
 1194              		.size	testthd3, 16
 1195              	testthd3:
 1196 0000 2C000000 		.word	.LC7
 1197 0004 00000000 		.word	0
 1198 0008 00000000 		.word	0
 1199 000c 00000000 		.word	thd3_execute
 1200              		.section	.rodata.testthd4,"a",%progbits
 1201              		.align	2
ARM GAS  /tmp/ccgfFyQX.s 			page 66


 1202              		.type	testthd4, %object
 1203              		.size	testthd4, 16
 1204              	testthd4:
 1205 0000 1C000000 		.word	.LC6
 1206 0004 00000000 		.word	0
 1207 0008 00000000 		.word	0
 1208 000c 00000000 		.word	thd4_execute
 1209              		.section	.rodata.patternthd,"a",%progbits
 1210              		.align	2
 1211              		.type	patternthd, %object
 1212              		.size	patternthd, 20
 1213              	patternthd:
 1214 0000 00000000 		.word	testthd1
 1215 0004 00000000 		.word	testthd2
 1216 0008 00000000 		.word	testthd3
 1217 000c 00000000 		.word	testthd4
 1218 0010 00000000 		.word	0
 1219              		.section	.rodata.str1.4,"aMS",%progbits,1
 1220              		.align	2
 1221              	.LC0:
 1222 0000 4500     		.ascii	"E\000"
 1223 0002 0000     		.space	2
 1224              	.LC1:
 1225 0004 4400     		.ascii	"D\000"
 1226 0006 0000     		.space	2
 1227              	.LC2:
 1228 0008 4300     		.ascii	"C\000"
 1229 000a 0000     		.space	2
 1230              	.LC3:
 1231 000c 4200     		.ascii	"B\000"
 1232 000e 0000     		.space	2
 1233              	.LC4:
 1234 0010 4100     		.ascii	"A\000"
 1235 0012 0000     		.space	2
 1236              	.LC5:
 1237 0014 41424344 		.ascii	"ABCDE\000"
 1237      4500
 1238 001a 0000     		.space	2
 1239              	.LC6:
 1240 001c 54687265 		.ascii	"Threads, delays\000"
 1240      6164732C 
 1240      2064656C 
 1240      61797300 
 1241              	.LC7:
 1242 002c 54687265 		.ascii	"Threads, priority change\000"
 1242      6164732C 
 1242      20707269 
 1242      6F726974 
 1242      79206368 
 1243 0045 000000   		.space	3
 1244              	.LC8:
 1245 0048 54687265 		.ascii	"Threads, enqueuing test #2\000"
 1245      6164732C 
 1245      20656E71 
 1245      75657569 
 1245      6E672074 
 1246 0063 00       		.space	1
ARM GAS  /tmp/ccgfFyQX.s 			page 67


 1247              	.LC9:
 1248 0064 54687265 		.ascii	"Threads, enqueuing test #1\000"
 1248      6164732C 
 1248      20656E71 
 1248      75657569 
 1248      6E672074 
 1249              		.comm	__gnu_lto_v1,1,1
 1250 007f 00       		.ident	"GCC: (GNU Tools for ARM Embedded Processors) 4.8.4 20140526 (release) [ARM/embedded-4_8-br
ARM GAS  /tmp/ccgfFyQX.s 			page 68


DEFINED SYMBOLS
                            *ABS*:0000000000000000 testthd.c
     /tmp/ccgfFyQX.s:717    .text.thd1_execute:0000000000000000 $t
     /tmp/ccgfFyQX.s:722    .text.thd1_execute:0000000000000000 thd1_execute
     /tmp/ccgfFyQX.s:795    .text.thd1_execute:00000000000000a0 $d
     /tmp/ccgfFyQX.s:812    .text.thread:0000000000000000 thread
     /tmp/ccgfFyQX.s:807    .text.thread:0000000000000000 $t
     /tmp/ccgfFyQX.s:822    .text.thd2_execute:0000000000000000 $t
     /tmp/ccgfFyQX.s:827    .text.thd2_execute:0000000000000000 thd2_execute
     /tmp/ccgfFyQX.s:911    .text.thd2_execute:00000000000000b0 $d
     /tmp/ccgfFyQX.s:923    .text.thd3_execute:0000000000000000 $t
     /tmp/ccgfFyQX.s:928    .text.thd3_execute:0000000000000000 thd3_execute
     /tmp/ccgfFyQX.s:1069   .text.thd3_execute:0000000000000130 $d
     /tmp/ccgfFyQX.s:1072   .text.thd4_execute:0000000000000000 $t
     /tmp/ccgfFyQX.s:1077   .text.thd4_execute:0000000000000000 thd4_execute
     /tmp/ccgfFyQX.s:1213   .rodata.patternthd:0000000000000000 patternthd
     /tmp/ccgfFyQX.s:1204   .rodata.testthd4:0000000000000000 testthd4
     /tmp/ccgfFyQX.s:1195   .rodata.testthd3:0000000000000000 testthd3
     /tmp/ccgfFyQX.s:1186   .rodata.testthd2:0000000000000000 testthd2
     /tmp/ccgfFyQX.s:1177   .rodata.testthd1:0000000000000000 testthd1
     /tmp/ccgfFyQX.s:1174   .rodata.testthd1:0000000000000000 $d
     /tmp/ccgfFyQX.s:1183   .rodata.testthd2:0000000000000000 $d
     /tmp/ccgfFyQX.s:1192   .rodata.testthd3:0000000000000000 $d
     /tmp/ccgfFyQX.s:1201   .rodata.testthd4:0000000000000000 $d
     /tmp/ccgfFyQX.s:1210   .rodata.patternthd:0000000000000000 $d
     /tmp/ccgfFyQX.s:1220   .rodata.str1.4:0000000000000000 $d
                            *COM*:0000000000000001 __gnu_lto_v1
     /tmp/ccgfFyQX.s:806    .text.thd1_execute:00000000000000c8 $t
     /tmp/ccgfFyQX.s:922    .text.thd2_execute:00000000000000d8 $t
     /tmp/ccgfFyQX.s:1071   .text.thd3_execute:0000000000000134 $t

UNDEFINED SYMBOLS
chThdCreateStatic
test_wait_threads
_test_assert_sequence
ch
wa
threads
test_emit_token
chThdCreateI
chThdStart
chThdSetPriority
_test_assert
test_wait_tick
chThdSleep
_test_assert_time_window
chThdSleepUntil
