ARM GAS  /tmp/cc22EEWW.s 			page 1


   1              		.syntax unified
   2              		.cpu cortex-m3
   3              		.fpu softvfp
   4              		.eabi_attribute 20, 1
   5              		.eabi_attribute 21, 1
   6              		.eabi_attribute 23, 3
   7              		.eabi_attribute 24, 1
   8              		.eabi_attribute 25, 1
   9              		.eabi_attribute 26, 1
  10              		.eabi_attribute 30, 2
  11              		.eabi_attribute 34, 1
  12              		.eabi_attribute 18, 4
  13              		.thumb
  14              		.file	"testpools.c"
  15              		.section	.gnu.lto_.jmpfuncs.484ef6c7b7c7f27e,"",%progbits
  16 0000 789C6362 		.ascii	"x\234cb`b\300\006t\031!4\013\003\003#\0033S5\303\257"
  16      6062C006 
  16      74192134 
  16      0B030323 
  16      03335335 
  17 0016 868E0681 		.ascii	"\206\216\006\201LF\206\\\210\004S\004c&#\343\011&(\013"
  17      4C46865C 
  17      88045304 
  17      632623E3 
  17      0926280B 
  18 002a 64083303 		.ascii	"d\0103\003\023\246:\240v,\232!\272\231\361K\263\200"
  18      13A63AA0 
  18      762C9A21 
  18      BA99F14B 
  18      B380
  19 003c D8B8AC66 		.ascii	"\330\270\254f\026\0002\340R,\311\214\004\354b\005\261"
  19      160032E0 
  19      522CC98C 
  19      04EC6205 
  19      B1
  20 004d 59E15C26 		.ascii	"Y\341\\&\374\252\031qHcq\015\314= \013\000\310\225/"
  20      FCAA1971 
  20      4863710D 
  20      CC3D200B 
  20      00C8952F 
  21 0061 43       		.ascii	"C"
  22              		.text
  23              		.section	.gnu.lto_.inline.484ef6c7b7c7f27e,"",%progbits
  24 0000 789C6362 		.ascii	"x\234cb`b\300\006\366@i\026\006\006f&F\260\"\266\005"
  24      6062C006 
  24      F6406916 
  24      06066626 
  24      46B022B6 
  25 0015 F260B58C 		.ascii	"\362`\265\214\014\354\374\250\",\274@U\014 \254\363"
  25      0CECFCA8 
  25      222CBC40 
  25      550C20AC 
  25      F3
  26 0026 9D112825 		.ascii	"\235\021(%\3230\203\015.\311\314\003R<\301\017D3\002"
  26      D330830D 
  26      2EC9CC03 
  26      523CC10F 
ARM GAS  /tmp/cc22EEWW.s 			page 2


  26      443302
  27 0039 95C2780C 		.ascii	"\225\302x\014`\036\003\230\0077\000,\012\"A\242\254"
  27      601E0398 
  27      0737002C 
  27      0A2241A2 
  27      AC
  28 004a 0C0A6B40 		.ascii	"\014\012k@\306\211\264\235fF\330\316\005\265\020\331"
  28      C689B49D 
  28      6646D8CE 
  28      05B510D9 
  29 005a 14541B40 		.ascii	"\024T\033@fM\360c`\000\000\2755\017\300"
  29      664DF063 
  29      600000BD 
  29      350FC0
  30              		.text
  31              		.section	.gnu.lto_.pureconst.484ef6c7b7c7f27e,"",%progbits
  32 0000 789C6362 		.ascii	"x\234cb`b\340d\200\000\026\006\006F\011f\011V\011\000"
  32      6062E064 
  32      80001606 
  32      06460966 
  32      09560900 
  33 0014 02160063 		.ascii	"\002\026\000c"
  34              		.text
  35              		.section	.gnu.lto_null_provider.484ef6c7b7c7f27e,"",%progbits
  36 0000 789C6362 		.ascii	"x\234cb`b@\007\222@\034\005\304\306@\314\310\314\300"
  36      60624007 
  36      92401C05 
  36      C4C640CC 
  36      C8CCC0
  37 0013 C834E11C 		.ascii	"\3104\341\034\003C#\007\023##\210\301\300\310P\317\304"
  37      03432307 
  37      13232388 
  37      C1C0C850 
  37      CFC4
  38 0025 581FC908 		.ascii	"X\037\311\010V\273\236\351\300\203\377\377\327\375x"
  38      56BB9EE9 
  38      C083FFFF 
  38      D7FD78
  39 0034 FAA88351 		.ascii	"\372\250\203Q\020d\024+CKC\303\004\005\006\206d\260"
  39      1064142B 
  39      434B43C3 
  39      04050686 
  39      64B0
  40 0046 82102009 		.ascii	"\202\020 \011\322\025\312\310\004\242\231/24>\370\317"
  40      D215CAC8 
  40      04A2992F 
  40      32343EF8 
  40      CF
  41 0057 96C8B890 		.ascii	"\226\310\270\220\221\225!\2021\223\021ni\010##H\001"
  41      91952182 
  41      3193116E 
  41      69082323 
  41      4801
  42 0069 C80843FD 		.ascii	"\310\010C\375\214\374\334T\375\344\374\224J\375\224"
  42      8CFCDC54 
  42      FDE4FC94 
  42      4AFD94
ARM GAS  /tmp/cc22EEWW.s 			page 3


  43 0078 D432FDE4 		.ascii	"\3242\375\344\214\314\244\314\374b\375\222\242\322\274"
  43      8CCCA4CC 
  43      FC62FD92 
  43      A2D2BC
  44 0087 6CFD92D4 		.ascii	"l\375\222\324\342\022\375\242\0220]\220\237\237S\254"
  44      E212FDA2 
  44      12305D90 
  44      9F9F53AC 
  45 0097 97CC0000 		.ascii	"\227\314\000\000\241\035,\352"
  45      A11D2CEA 
  46              		.text
  47              		.section	.gnu.lto_pools1_setup.484ef6c7b7c7f27e,"",%progbits
  48 0000 789C6362 		.ascii	"x\234cb`b@\007\222@<\027\210\215\201\230\221\231\201"
  48      60624007 
  48      92403C17 
  48      888D8198 
  48      919981
  49 0013 9169C239 		.ascii	"\221i\3029\006\206F\016&FF\020\203\201\221\241\236\211"
  49      0686460E 
  49      26464610 
  49      838191A1 
  49      9E89
  50 0025 B13E9211 		.ascii	"\261>\222\021\254v=\323\201\007\377\377\257\233\322"
  50      AC763DD3 
  50      8107FFFF 
  50      AF9BD2
  51 0034 B6E40EE3 		.ascii	"\266\344\016\343\014&f\240\010+CKC\303\004\005\006\206"
  51      0C2666A0 
  51      082B434B 
  51      43C30405 
  51      0686
  52 0046 64B08A10 		.ascii	"d\260\212\020 \011\322\026\312\310\004\242\231\3173"
  52      2009D216 
  52      CAC804A2 
  52      99CF33
  53 0055 B43DE879 		.ascii	"\264=\350y\314\225\310\270\220\221\025(]\315\360\253"
  53      CC95C8B8 
  53      90911528 
  53      5DCDF0AB 
  54 0065 A1A34120 		.ascii	"\241\243A \223\021\250\034b\"H\204#\223\2211\227\221"
  54      9311A81C 
  54      62224884 
  54      23939131 
  54      9791
  55 0077 01AA2882 		.ascii	"\001\252(\2021\223\221\351\004\023\230\006\332\220\311"
  55      319391E9 
  55      04139806 
  55      DA90C9
  56 0086 C8C2C070 		.ascii	"\310\302\300p\221\241\361A\2572\314\024\010\010\001"
  56      91A1F141 
  56      AF32CC14 
  56      080801
  57 0095 9A00B402 		.ascii	"\232\000\264\002\344!C\375\214\374\334T\375\344\374"
  57      E42143FD 
  57      8CFCDC54 
  57      FDE4FC
  58 00a4 944AFD94 		.ascii	"\224J\375\224\3242\375\344\214\314\244\314\374b\375"
ARM GAS  /tmp/cc22EEWW.s 			page 4


  58      D432FDE4 
  58      8CCCA4CC 
  58      FC62FD
  59 00b3 92A2D2BC 		.ascii	"\222\242\322\274l\375\222\324\342\022\375\242\0220]"
  59      6CFD92D4 
  59      E212FDA2 
  59      12305D
  60 00c2 909F9F53 		.ascii	"\220\237\237S\254\227\314\000\000\366\177;'"
  60      AC97CC00 
  60      00F67F3B 
  60      27
  61              		.text
  62              		.section	.gnu.lto_pools1_execute.part.0.484ef6c7b7c7f27e,"",%progbits
  63 0000 789C9D54 		.ascii	"x\234\235T=hSQ\024>\347\336\367s\337O~\324I\020)\356"
  63      3D685351 
  63      143EE7DE 
  63      F773DF4F 
  63      7ED44910 
  64 0016 FA50ECEC 		.ascii	"\372P\354\354\354\236\200\216\365\265\244\017\255\221"
  64      EC9E808E 
  64      F5B5A40F 
  64      AD91
  65 0024 360AE290 		.ascii	"6\012\342\220\227&J\227B\320\245\250\203\245\253\340"
  65      97264A97 
  65      42D0A5A8 
  65      83A5ABE0 
  66 0034 24958243 		.ascii	"$\225\202C\235\252\320\226.\322B\207\210R\007\235\234"
  66      9DAAD096 
  66      2ED24287 
  66      8852079D 
  66      9C
  67 0045 C4C178CE 		.ascii	"\304\301x\316}?5I;\350\203\334s\317=\347;\367\373\276"
  67      7D3F3549 
  67      3BE883DC 
  67      73CF3DE7 
  67      3BF7FBBE 
  68 0059 BC448080 		.ascii	"\274D\200\200\341\247K\237\246\0010N\021\013\200~w\213"
  68      E1A74B9F 
  68      A601304E 
  68      110B807E 
  68      778B
  69 006b 363E0A1D 		.ascii	"6>\012\035\005\032:\312$\256+C\310\305u\200\3305\333"
  69      051A3ACA 
  69      24AE2B43 
  69      C8C57580 
  69      D835DB
  70 007e 05887D13 		.ascii	"\005\210}\023\225\256[\302{'\351\324\336\372@E\337N"
  70      95AE5BC2 
  70      7B27E9D4 
  70      DEFA4045 
  70      DF4E
  71 0090 8ED79512 		.ascii	"\216\327\225\022V\322\356\350vGx\037\003\312\334\265"
  71      56D2EEE8 
  71      7647781F 
  71      03CADCB5 
  72 00a0 B394B9E8 		.ascii	"\263\224\271\350qWKy\210\274\001\204\246/\244aZ\266"
  72      71574B79 
ARM GAS  /tmp/cc22EEWW.s 			page 5


  72      88BC0184 
  72      A62FA461 
  72      5AB6
  73 00b2 725C0F9B 		.ascii	"r\\\017\233\327\221\031\3429X\216\343n\357\341\301\233"
  73      D79119E2 
  73      39588EE3 
  73      6EEFE1C1 
  73      9B
  74 00c3 D3F18BF9 		.ascii	"\323\361\213\371n\374\273\337\307\010I\313e\204\020"
  74      6EFCBBDF 
  74      C70849CB 
  74      658410
  75 00d2 E11A2538 		.ascii	"\341\032%8\246\2030\006\305\275\022q\257\337\337\373"
  75      A6833006 
  75      C5BD1271 
  75      AFDFDFFB 
  76 00e2 A1CE204C 		.ascii	"\241\316 L\3402M\022\020\241\224ibpb\322bX\274\330\351"
  76      E0324D12 
  76      10A19469 
  76      627062D2 
  76      6258BCD8 
  77 00f7 B14AA3C3 		.ascii	"\261J\243\303e\227+\036/>\247\005\336\025\323\206R\032"
  77      65972B1E 
  77      2F3EA705 
  77      DE15D386 
  77      521A
  78 0109 E931A143 		.ascii	"\3511\241C\034\307\262<\324\314+\264\222\356\012\372"
  78      1CC7B23C 
  78      D4CC2BB4 
  78      92EE0AFA 
  79 0119 14641505 		.ascii	"\024d\025\005\007\200=(2Yj\360\367_O\003TQ\002\271$"
  79      07803D28 
  79      32596AF0 
  79      F75F4F03 
  79      545102B9 
  80 012e 37617E7F 		.ascii	"7a~\177\367\333O\234\300\0254\241\206\342<\274\214\313"
  80      F7DB4F9C 
  80      C01534A1 
  80      86E23CBC 
  80      8CCB
  81 0140 119ACFE0 		.ascii	"\021\232\317\340i\253\313;\353\001\374\212\227xg\317"
  81      69ABCB3B 
  81      EB01FC8A 
  81      977867CF 
  82 0150 E81B788E 		.ascii	"\350\033x\216\255\245\326\020s\331\333`&3\000\030\260"
  82      ADA5D610 
  82      73D9DB60 
  82      26330018 
  82      B0
  83 0161 C00015A6 		.ascii	"\300\000\025\246\015|\242\"tf0\275\210o\212\320\005"
  83      0D7CA222 
  83      746630BD 
  83      886F8AD0 
  83      05
  84 0172 D884F642 		.ascii	"\330\204\366B{u\361jv\277\244\231\232h6\271\212\006"
  84      7B75F16A 
  84      76BFA499 
ARM GAS  /tmp/cc22EEWW.s 			page 6


  84      9A6836B9 
  84      8A06
  85 0184 D0172537 		.ascii	"\320\027%7\240s\320\262\263\266\244\347\320\371=\300"
  85      A073D0B2 
  85      B3B6A4E7 
  85      D0F93DC0 
  86 0194 1A16052D 		.ascii	"\032\026\005-R.9\21423\335\245T\267\361|U\353\266\340"
  86      522E398C 
  86      3233DDA5 
  86      54B7F17C 
  86      55EBB6E0 
  87 01a8 C9B8DC86 		.ascii	"\311\270\334\206Nom%Wm\344\224\275\020\3051\224#\262"
  87      4E6F6D25 
  87      576DE494 
  87      BD10C531 
  87      9423B2
  88 01bb 94F9EECA 		.ascii	"\224\371\356\312\014f\022\222\247\313\001\003j\211e"
  88      0C661292 
  88      A7CB0103 
  88      6A8965
  89 01ca 7A5C214C 		.ascii	"z\\!L\212\332\264\242dL\204%\000R\363=\277\335\342\342"
  89      8ADAB4A2 
  89      644C8425 
  89      0052F33D 
  89      BFDDE2E2 
  90 01de C05B5425 		.ascii	"\300[T%\203?]\222\332\234\257\207\346\250\032\332C\346"
  90      833F5D92 
  90      DA9CAF87 
  90      E6A81ADA 
  90      43E6
  91 01f0 28F87265 		.ascii	"(\370re\310\033{\304\033\273\206%\223\274Qv\342\215"
  91      C81B7BC4 
  91      1BBB8625 
  91      93BC5176 
  91      E28D
  92 0202 033BAEB6 		.ascii	"\003;\256\266\340m\230\201\234\177q`;w\300%\344Q\016"
  92      E06D9881 
  92      9C7F7160 
  92      3B77C025 
  92      E4510E
  93 0215 78C73860 		.ascii	"x\3078`0f\324\001\357\010\007\\xl\020\311G\275\215\317"
  93      3066D401 
  93      EF08075C 
  93      786C10C9 
  93      47BD8DCF 
  94 0229 EEC89B55 		.ascii	"\356\310\233U\016\323\366Q\222<\352D9+\234\014\321\314"
  94      0ED3F651 
  94      923CEA44 
  94      392B9C0C 
  94      D1CC
  95 023b D99F628E 		.ascii	"\331\237b\216\235\336\373\\\265\377\177\252\013\204"
  95      9DDEFB5C 
  95      B5FF7FAA 
  95      0B84
  96 0249 1C55FD17 		.ascii	"\034U\375\027\275A\321\032\242E'\312<~5w\350?\350Pn"
  96      BD41D11A 
  96      A24527CA 
ARM GAS  /tmp/cc22EEWW.s 			page 7


  96      3C7E3577 
  96      E83FE850 
  97 025e 857E28ED 		.ascii	"\205~(\355\0023\270\030L\327g\246\202\260>y?\230\234"
  97      0233B818 
  97      4CD767A6 
  97      82B03E79 
  97      3F989C
  98 0271 BA1784D3 		.ascii	"\272\027\204\323\321\215\250>\0274f\357\336\276\031"
  98      D18DA83E 
  98      173466EF 
  98      DEBE19
  99 0280 34A6E61A 		.ascii	"4\246\346\032\301lC\307;\365\372\255\271\013!`\364\007"
  99      C16C43C7 
  99      3BF5FAAD 
  99      B90B2160 
  99      F407
 100 0292 D1D30A90 		.ascii	"\321\323\012\220"
 101              		.text
 102              		.section	.gnu.lto_pools1_execute.484ef6c7b7c7f27e,"",%progbits
 103 0000 789C9553 		.ascii	"x\234\225S\277k\024A\024\376\336\314\376\230\373\225"
 103      BF6B1441 
 103      14FEDECC 
 103      FE98FB95 
 104 0010 CB898D8D 		.ascii	"\313\211\215\215\004{]\004m\255\265\317\201\226qs\344"
 104      047B5D04 
 104      6DADB5CF 
 104      81967173 
 104      E4
 105 0021 163D4F72 		.ascii	"\026=Or\247 \026\331\313\236\220B\341*\011ZhH\023D\020"
 105      A72016D9 
 105      CB9E9042 
 105      E12A095A 
 105      68481344 
 106 0036 0BC1C2C2 		.ascii	"\013\301\302\302XI 9\005\013\205\024\207\305U\376\001"
 106      58492039 
 106      050B8514 
 106      87C555FE 
 106      01
 107 0047 7A8AE77B 		.ascii	"z\212\347{\373\343bLR8\260\363\346\275y\337\367\336"
 107      FBE3624C 
 107      5238B0F3 
 107      E6BD79DF 
 107      F7DE
 108 0059 7C33ABA0 		.ascii	"|3\253\240\360\357\250\361wQ\003\347\331R\016\244z;"
 108      F0EFA8F1 
 108      775103E7 
 108      D9520EA4 
 108      7A3B
 109 006b 40C728B2 		.ascii	"@\307(\262\223\205V\346\235F\230\267v\266\200\260h%"
 109      938556E6 
 109      9D4698B7 
 109      76B680B0 
 109      6825
 110 007d F14D632B 		.ascii	"\361Mc+\375`\223#y'*q\334Q\346\315I\366\334O\036{.\031"
 110      FD609323 
 110      79272A71 
 110      DC51E6CD 
ARM GAS  /tmp/cc22EEWW.s 			page 8


 110      49F6DC4F 
 111 0095 C9224324 		.ascii	"\311\"C$\026\204%\245-\333q\015-]!)K\247\260\026\206"
 111      168425A5 
 111      2DDB710D 
 111      2D5D2129 
 111      4BA7B016 
 112 00aa BDC1BDE1 		.ascii	"\275\301\275\341\353\023\341\323\345^\370{<\246\200"
 112      EB13E1D3 
 112      E55EF87B 
 112      3CA680
 113 00b9 B8C17304 		.ascii	"\270\301s\004\237p\231\035\232\211\215\262\366w\374"
 113      9F70991D 
 113      9A898DB2 
 113      F677FC
 114 00c8 42BD1D8C 		.ascii	"B\275\035\214\307\277^n|\335\242\312q\302\034\2551\233"
 114      C7BF5E6E 
 114      7CDDA2CA 
 114      71C21CAD 
 114      319B
 115 00da 8580B493 		.ascii	"\205\200\264\223:F\234\034OVA\246b\032\236\222pY\"\025"
 115      3A469C1C 
 115      4F5641A6 
 115      621A9E92 
 115      70592215 
 116 00ee 9998CB46 		.ascii	"\231\230\313F\227\273\230I\266!\205y\314\362<*\243J"
 116      97BB9849 
 116      B6218579 
 116      CCF23C2A 
 116      A34A
 117 0100 8A8DDEC6 		.ascii	"\212\215\336\306\362\356\367\341\0075G\353dc\201\254"
 117      F2EEF7E1 
 117      073547EB 
 117      646381AC 
 118 0110 D3781E4E 		.ascii	"\323x\036N\007d?\306\243NOV\316]\214\302UY\271\215\230"
 118      07643FC6 
 118      A34E4F56 
 118      CE5D8CC2 
 118      5559B98D 
 119 0125 40BA7691 		.ascii	"@\272v\221\255\376\356\275\017'\341\001\004\264\" \343"
 119      ADFEEEBD 
 119      0F27E101 
 119      04B42220 
 119      E3
 120 0136 53922311 		.ascii	"S\222#\021\023P\256A\224&q5a\310\333\334n!a\250\222"
 120      1350AE41 
 120      94267135 
 120      61C8DBDC 
 120      6E2161A8 
 121 014b 060BAFFB 		.ascii	"\006\013\257\373\350\016\236\254S\326\225\231\320\025"
 121      E80E9EAC 
 121      53D69599 
 121      D015
 122 0159 7D5247D0 		.ascii	"}RG\320\005T\002\266\021}\326\031,\307H\251\240\223"
 122      055402B6 
 122      117DD619 
 122      2CC748A9 
 122      A093
ARM GAS  /tmp/cc22EEWW.s 			page 9


 123 016b E6EC2C5E 		.ascii	"\346\354,^\230\320M\371\311f|\2242\011&\240i\340=\272"
 123      98D04DF9 
 123      C9667C94 
 123      320926A0 
 123      69E03DBA 
 124 017f DF26D50B 		.ascii	"\337&\325\013\262\271\357\232\252\354>\274\300\342E"
 124      B2B9EF9A 
 124      AAEC3EBC 
 124      C0E245
 125 018e 2BD1CFFB 		.ascii	"+\321\317\373\227\262\304\342\002Q\254\011M\362l\360"
 125      97B2C4E2 
 125      0251AC09 
 125      4DF26CF0 
 126 019e 13D14C37 		.ascii	"\023\321L7\354\270YZ\222\263G\370\005\224*\25164\263"
 126      ECB8595A 
 126      92B347F8 
 126      05942AA9 
 126      3634B3
 127 01b1 58AB3981 		.ascii	"X\2539\201:\210J\261\020\317\374\0149\365?:\364':\224"
 127      3A884AB1 
 127      10CFFC0C 
 127      39F53F3A 
 127      F4273A94 
 128 01c5 1979980E 		.ascii	"\031y\230\016\225#tP\2029\250C\345\020\035\\\374p\271"
 128      95237450 
 128      8239A843 
 128      E5101D5C 
 128      FC70B9
 129 01d8 C9C81CB8 		.ascii	"\311\310\034\270\370\212\237\346\006t,9\245\223\236"
 129      F88A9FE6 
 129      06742C39 
 129      A5939E
 130 01e7 D2D97D55 		.ascii	"\322\331}U\027\254\221\007\370\221\377\302=\302Y~,\243"
 130      17AC9107 
 130      F891FFC2 
 130      3DC2597E 
 130      2CA3
 131 01f9 B29CECAC 		.ascii	"\262\234\354\254Wo6j\236\337\234\277\343\315\327n{~"
 131      576F366A 
 131      9EDF9CBF 
 131      E3CDD76E 
 131      7B7E
 132 020b 3DB81A34 		.ascii	"=\270\0324[^{\361\326\215k^\273\326j{\213\355\330\336"
 132      5B5E7BF1 
 132      D68D6B5E 
 132      BBD66A7B 
 132      8BEDD8DE 
 133 021f 6C36AFB7 		.ascii	"l6\257\267\316\370\240\340\017\316p\311u"
 133      CEF8A0E0 
 133      0FCE70C9 
 133      75
 134              		.text
 135              		.section	.gnu.lto_.symbol_nodes.484ef6c7b7c7f27e,"",%progbits
 136 0000 789C4D8C 		.ascii	"x\234M\214Kn\302@\020D\253\246\335\261\203s\000\"q9"
 136      4B6EC240 
 136      1044ABA6 
 136      DDB18373 
ARM GAS  /tmp/cc22EEWW.s 			page 10


 136      00227139 
 137 0014 4ED2084B 		.ascii	"N\322\010K!\331\345\000A\002y\307\377\027\304\336\213"
 137      21D9E500 
 137      410279C7 
 137      FF17C4DE 
 137      8B
 138 0025 482C7206 		.ascii	"H,r\006$\256\340l\035fl\024\2477O\257\252\273\035\034"
 138      24AEE06C 
 138      1D666C14 
 138      A7374FAF 
 138      AABB1D1C 
 139 0039 BA44336E 		.ascii	"\272D3nN\003\336\277\001\263\217\267\276[\320\330\252"
 139      4E03DEBF 
 139      01B38FB7 
 139      BE5BD0D8 
 139      AA
 140 004a CE88C8C4 		.ascii	"\316\210\310\304\035i\356\236\216_\251\033\022\006\267"
 140      1D69EE9E 
 140      8E5FA91B 
 140      1206B7
 141 0059 A4C9BFDD 		.ascii	"\244\311\277\3355\235\032tE\361\340'-j\312\301\200<"
 141      359D1A74 
 141      45F1E027 
 141      2D6ACAC1 
 141      803C
 142 006b D0B4B51D 		.ascii	"\320\264\265\035\355\241\265=-nmKK\376L\230 \273T\024"
 142      EDA1B53D 
 142      2D6E6D4B 
 142      4BFE4C98 
 142      20BB5414 
 143 007f 49919FAB 		.ascii	"I\221\237\253H\244\203\353W`\202\242f\212lT\366B^\274"
 143      48A483EB 
 143      576082A2 
 143      668A6C54 
 143      F6425EBC 
 144 0093 04A628A6 		.ascii	"\004\246(\246\277q\360\254\346#\362S\371,\372\204<\374"
 144      BF71F0AC 
 144      E623F253 
 144      F92CFA84 
 144      3CFC
 145 00a5 51BF37F1 		.ascii	"Q\2777\361\271\246M\357=\013w\336\353{\025\014G?1nT"
 145      B9A64DEF 
 145      3D0B77DE 
 145      EB7B150C 
 145      473F316E 
 146 00ba F15161   		.ascii	"\361Qa"
 147              		.text
 148              		.section	.gnu.lto_.refs.484ef6c7b7c7f27e,"",%progbits
 149 0000 789C35C7 		.ascii	"x\2345\307\301\015\0000\010\303\300\304\2052K\367_\020"
 149      C10D0030 
 149      08C3C0C4 
 149      85324BF7 
 149      5F10
 150 0012 A48AF3CB 		.ascii	"\244\212\363\313\010=}6\324Q\260\004\221\373\276\324"
 150      083D7D36 
 150      D451B004 
 150      91FBBED4 
ARM GAS  /tmp/cc22EEWW.s 			page 11


 151 0022 64520D10 		.ascii	"dR\015\020\271\000\224"
 151      B90094
 152              		.text
 153              		.section	.gnu.lto_.decls.484ef6c7b7c7f27e,"",%progbits
 154 0000 789C9D57 		.ascii	"x\234\235W}l\024E\024\237\331\273BK\217\002UH\021l\017"
 154      7D6C1445 
 154      149FD9BB 
 154      424B8F02 
 154      5548116C 
 155 0015 232412E8 		.ascii	"#$\022\350QC\"\211\011\005M\024\023?\370\207\304?L\316"
 155      51432289 
 155      09054D14 
 155      133FF887 
 155      C43F4CCE 
 156 0029 EDDD424F 		.ascii	"\355\335BO\333\273\262\267\307\207\376\341P\004*!X\012"
 156      DBBBB2B7 
 156      C787FEE1 
 156      50042A21 
 156      580A
 157 003b 84D6D2DA 		.ascii	"\204\326\322\332\"E\360/\020\005\015)\271T\322\236\020"
 157      2245F02F 
 157      10050D29 
 157      B954D29E 
 157      10
 158 004c 0860A310 		.ascii	"\010`\243\020>r\0114\006\024\254bm\300\302\371\346\343"
 158      3E720934 
 158      0614AC62 
 158      6DC0C2F9 
 158      E6E3
 159 005e EE76B7BB 		.ascii	"\356v\267\273\313\325I\336\356\354\314\373\370\2757"
 159      CBD549DE 
 159      EEECCCFB 
 159      F8BD37
 160 006d 6F66DE4A 		.ascii	"of\336JHB\277c\204R\320\366\027#T+!\224\207\020Z\214"
 160      4842BF63 
 160      8452D0F6 
 160      1723542B 
 160      21948710 
 161 0083 F8BB53BC 		.ascii	"\370\273S\274\217\001\035\001:\201x+\000\352\006\352"
 161      8F011D01 
 161      3A81782B 
 161      00EA06EA 
 162 0093 01EA053A 		.ascii	"\001\352\005:\015t\026\350'\240K@W\201n\002\271\201"
 162      0D7416E8 
 162      27A04B40 
 162      57816E02 
 162      B981
 163 00a5 6E03DD01 		.ascii	"n\003\335\001\372\013h\"F\206Fu\320\241J\361\215\305"
 163      FA0B6822 
 163      46864675 
 163      D0A14AF1 
 163      8DC5
 164 00b7 98B9F508 		.ascii	"\230\271\365\010\034%\330\210\351\234\230\227\004\317"
 164      1C25D888 
 164      E99C9897 
 164      04CF
 165 00c5 59A1E3B6 		.ascii	"Y\241\343\266I\236b|R\340)\002\362\010\233\327\201\376"
ARM GAS  /tmp/cc22EEWW.s 			page 12


 165      499E627C 
 165      52E02902 
 165      F2089BD7 
 165      81FE
 166 00d7 00BA0B34 		.ascii	"\000\272\0134\035\004\237\022\372\373\201f@\3772\274"
 166      1D049F12 
 166      FAFB8166 
 166      40FF32BC 
 167 00e7 67626EEF 		.ascii	"gbn\357\232\260\237\216C\332\3668\241_\357\373Y\341"
 167      9AB09F8E 
 167      43DAF638 
 167      A15FEFFB 
 167      59E1
 168 00f9 87247C37 		.ascii	"\207$|7\343\241\361z\"\007<O\013<\324\346\200\015\246"
 168      E3A1F17A 
 168      22073C4F 
 168      0B3CD4E6 
 168      800DA6
 169 010c 52E8F709 		.ascii	"R\350\367\011\275yB\367M\035\226^\007\034\205h+!\365"
 169      BD7942F7 
 169      4D1D965E 
 169      071C8568 
 169      2B21F5
 170 011f A4633359 		.ascii	"\244c3Y\226(*F;\0104o\002\020\275\215e\\T\200\336e\035"
 170      96282A46 
 170      3B08346F 
 170      0210BD8D 
 170      655C5480 
 171 0136 4F010338 		.ascii	"O\001\0038\033\355'\24419p\243\204\270e\274\017\027"
 171      1BED27A4 
 171      313970A3 
 171      84B865BC 
 171      0F17
 172 0148 83DA1731 		.ascii	"\203\332\0271\232\213\016\201T#!\373\346\230V\227\265"
 172      9A8B0E81 
 172      542321FB 
 172      E6985697 
 172      B5
 173 0159 C7694548 		.ascii	"\307iEH\306\007@\227\214\273\360\\n\203\304w\366z\250"
 173      C6074097 
 173      8CBBF05C 
 173      6E83C477 
 173      F67AA8
 174 016c 0D3A8EC4 		.ascii	"\015:\216\304\214E\233\205:\000}|\367\346\266\351\244"
 174      8C459B85 
 174      3A007D7C 
 174      F7E6B6E9 
 174      A4
 175 017d A3075B39 		.ascii	"\243\007[9\3231Ng\327\233\266\353f!Y\216A\365Wf\323"
 175      D3314E67 
 175      D79BB6EB 
 175      6621598E 
 175      41F55766 
 176 0192 F7642F1F 		.ascii	"\367d/\037}\274\341\241[?b\322\344\221\361!\260-\241"
 176      7DBCE1A1 
 176      5B3F62D2 
 176      E491F121 
ARM GAS  /tmp/cc22EEWW.s 			page 13


 176      B02DA1
 177 01a5 77D2FAAC 		.ascii	"w\322\372\254\314\211.o\202\301\334\254\344(\012\252"
 177      CC892E6F 
 177      82C1DCAC 
 177      E4280AAA 
 178 01b5 5E340905 		.ascii	"^4\011\005\261\010\330\030\255\010\314{z\367\262`\025"
 178      B108D818 
 178      AD08CC7B 
 178      7AF7B260 
 178      15
 179 01c6 A0866CB0 		.ascii	"\240\206l\260\254M\213\365\376~\313\317\367p=!0q\004"
 179      AC4D8BF5 
 179      FE7ECBCF 
 179      F7703D21 
 179      307104
 180 01d9 C424F439 		.ascii	"\304$\3649\306\206\320\3108\317\340\013\373N3P}lZt\350"
 180      C686D0C8 
 180      38CFE00B 
 180      FB4E3350 
 180      7D6C5A74 
 181 01ee 493389FA 		.ascii	"I3\211\372q\000\217\325\021\257\336\221d\327\215\204"
 181      71008FD5 
 181      11AFDE91 
 181      64D78D84 
 182 01fe AB85C43F 		.ascii	"\253\205\304?v\031\226}\032\332\315\226}3\340\325d\\"
 182      7619967D 
 182      1ADACD96 
 182      7D33E0D5 
 182      645C
 183 0210 59681BD4 		.ascii	"Yh\033\324\343x\032\353\271\330\346@\3349\031\257p9"
 183      E3781AEB 
 183      B9D8E640 
 183      DC3919AF 
 183      7039
 184 0222 2E8788C9 		.ascii	".\207\210\311\2253\307\237#$_\306\307\330\312\3371E"
 184      9533C79F 
 184      23245FC6 
 184      C7D8CADF 
 184      3145
 185 0234 C400899B 		.ascii	"\304\000\211\233\262\203q\002\024X\347\331\2509\011"
 185      B2837102 
 185      1458E7D9 
 185      A83909
 186 0243 3DC82566 		.ascii	"=\310%f\371N)f\320\237\335v2\376\022\317\206\347A<\013"
 186      F94E2966 
 186      D09FDD76 
 186      32FE12CF 
 186      86E7413C 
 187 0258 9E87D9F3 		.ascii	"\236\207\331\363[x:\306\202\252\350\314\246f\031j'\347"
 187      5B783AC6 
 187      82AAE8CC 
 187      A666196A 
 187      27E7
 188 026a 07936D4D 		.ascii	"\007\223mM'K\351\272\220T\352#\021f\011}'\031\003\364"
 188      274BE9BA 
 188      9054EA23 
 188      1166097D 
ARM GAS  /tmp/cc22EEWW.s 			page 14


 188      271903F4 
 189 027e 2CFA8290 		.ascii	",\372\202\220&\262GY\226N\252^\306\321\215\313,Mq.h"
 189      26B24759 
 189      964EAA5E 
 189      C6D18DCB 
 189      2C4D712E 
 190 0293 7350178D 		.ascii	"sP\027\215l\367\315\345\313\330\352\"\007!\001\361$"
 190      6CF7CDE5 
 190      CBD8EA22 
 190      072101F1 
 190      24
 191 02a4 96F46E53 		.ascii	"\226\364nS\230\361\301\370\356\336\355\260\017\352\343"
 191      98F1C1F8 
 191      EEDEEDB0 
 191      0FEAE3
 192 02b3 A9542532 		.ascii	"\251T%2%\315\342\251\266\356\376 \222&\233'\022:c\362"
 192      25CDE2A9 
 192      B6EEFE20 
 192      92269B27 
 192      123A63F2 
 193 02c7 4D808476 		.ascii	"M\200\204v\220\270\2306\312\337\003 \015\301?e\011\253"
 193      90B89836 
 193      CADF0320 
 193      0DC13F65 
 193      09AB
 194 02d9 BD775B7E 		.ascii	"\275w[~\343\206d*U\226;\250>\013P\227\254A5\032A\365"
 194      E386642A 
 194      55963BA8 
 194      3E0B5097 
 194      AC41351A 
 195 02ef 9A4125AC 		.ascii	"\232A%\254@\221\257\011)\200\345L\021\211G@Bws\362\371"
 195      4091AF09 
 195      2980E54C 
 195      11894740 
 195      427773F2 
 196 0304 B459FD99 		.ascii	"\264Y\375\231\321\352\223\215\311\256\3418n!=<crw\373"
 196      D1EA938D 
 196      C9AEE138 
 196      6E213D3C 
 196      637277FB 
 197 0318 9C7903D3 		.ascii	"\234y\003\323\\4\354f\375\3441\236\250\206\015.\241"
 197      5C34EC66 
 197      FDE4319E 
 197      A8860D2E 
 197      A1
 198 0329 87A3FCE0 		.ascii	"\207\243\374\340L\027\255\200\306\373\373\266\021<\326"
 198      4C17AD80 
 198      C6FBFBB6 
 198      113CD6
 199 0338 D5E97784 		.ascii	"\325\351w\204Yi\205j\273\313\032\325/\226\250.\364m"
 199      5969856A 
 199      BBCB1AD5 
 199      2F96A82E 
 199      F46D
 200 034a 9B4E3A2D 		.ascii	"\233N:-3\331\341\370\273l\005\313\204\243\305\006\307"
 200      33D9E1F8 
 200      BB6C05CB 
ARM GAS  /tmp/cc22EEWW.s 			page 15


 200      84A3C506 
 200      C7
 201 035b 15CB656C 		.ascii	"\025\313elm\275\272\001\357\330\330\221 \203\364\210"
 201      6DBDBA01 
 201      EFD8D891 
 201      2083F488 
 202 036b 3740C947 		.ascii	"7@\311G[\350\266Mn\"\033\360\352\314i\222\237\006E\353"
 202      5BE8B64D 
 202      6E221BF0 
 202      EACC6992 
 202      9F0645EB 
 203 037f 067EFD42 		.ascii	"\006~\375B\202B\222]\307\371`\376\242\313\252\236`\010"
 203      8242925D 
 203      C7F960FE 
 203      A2CBAA9E 
 203      6008
 204 0391 28036D54 		.ascii	"(\003mT\236\367\323=l\177V]3\273\014\327Q\246/4\232"
 204      9EF7D33D 
 204      6C7F565D 
 204      33BB0CD7 
 204      51A62F34 
 205 03a6 2270C926 		.ascii	"\"p\311&\0027,#pj8\201\033\232\310H*\345\032C\036\017"
 205      02372C23 
 205      706A3881 
 205      1B9AC848 
 205      2AE51A43 
 206 03bc E49020E6 		.ascii	"\344\220 \346\2646\301\034\260\201y\313\010\363\031"
 206      B436C11C 
 206      B08179CB 
 206      08F319
 207 03cb D449E2E7 		.ascii	"\324I\342\347\223{/~\203\341\350#\344Q*\205\323\205"
 207      937B2F7E 
 207      83E1E823 
 207      E4512A85 
 207      D385
 208 03dd DC504685 		.ascii	"\334PF\205]\221\366\233P\266\020\035%\015\361\005\\"
 208      5D91F69B 
 208      50B6101D 
 208      250DF105 
 208      5C
 209 03ee 905F1994 		.ascii	"\220_\031\224\223\027)\374\362\020w}B\022\327\010\375"
 209      931729FC 
 209      F210777D 
 209      4212D708 
 209      FD
 210 03ff 3E216E0A 		.ascii	">!n\012\012b\020\262\345\312\257\365x'\201l!\220\271"
 210      0A6210B2 
 210      E5CAAFF5 
 210      7827816C 
 210      2190B9
 211 0412 B86C0A6A 		.ascii	"\270l\012j\024eb\346\362\214\263\313\323!r\225\226W"
 211      146562E6 
 211      F28CB3CB 
 211      D3217295 
 211      9657
 212 0424 6756533A 		.ascii	"gVS:z\202}\020OA\326MB\367GEP\306\177f\243GA\037\216"
 212      7A827D10 
ARM GAS  /tmp/cc22EEWW.s 			page 16


 212      4F41D64D 
 212      42F74745 
 212      50C67F66 
 213 043d C3DDF6F7 		.ascii	"\303\335\366\367\005\274\213\020\023\350\216%&\324\351"
 213      05BC8B10 
 213      13E88E25 
 213      26D4E9
 214 044c E213D65E 		.ascii	"\342\023\326^W\\\021\234v`2\2639\0026-\252c#\233\214"
 214      575C119C 
 214      766032B3 
 214      3902362D 
 214      AA63239B 
 215 0461 FFC1348C 		.ascii	"\377\3014\214\303\246:\025\002\330]\302J\220\341\234"
 215      C3A63A15 
 215      02D85DC2 
 215      4A90E19C 
 216 0471 6AD5FB0F 		.ascii	"j\325\373\017\023\264V5T&\242\006Lv\305K\232\213\036"
 216      13B45635 
 216      5426A206 
 216      4C76C54B 
 216      9A8B1E
 217 0484 B72B33CC 		.ascii	"\267+3\314\244\244\304\232W\306#\254\210x\310s\224M"
 217      A4A4C49A 
 217      57C623AC 
 217      8878C873 
 217      944D
 218 0496 F17EBA97 		.ascii	"\361~\272\227\302\324\357Mn\333}\355,j\227\007\017\364"
 218      C2D4EF4D 
 218      6EDB7DED 
 218      2C6A9707 
 218      0FF4
 219 04a8 F5F15637 		.ascii	"\365\361V7\026\341\372\177\005\362\277\267F\007\212"
 219      16E1FA7F 
 219      05F2BFB7 
 219      46078A
 220 04b7 5F7B76E6 		.ascii	"_{v\3467H:\363\237\216\331\274\327`~DI,\340*%\264;\027"
 220      37483AF3 
 220      9F8ED9BC 
 220      D7607E44 
 220      492CE02A 
 221 04cf 5D56E59E 		.ascii	"]V\345\236\320\365H\247\253}\314\272\274\243V\207g\230"
 221      D0F548A7 
 221      AB7DCCBA 
 221      BCA35687 
 221      6798
 222 04e1 8CEFB3FA 		.ascii	"\214\357\263\372\220H\364\271\221=7I\217\255\025M\001"
 222      9048F4B9 
 222      913D3749 
 222      8FAD154D 
 222      01
 223 04f2 1DB24142 		.ascii	"\035\262AB\365o\311\006\324\250r\211\021\250n\373q!"
 223      F56FC906 
 223      D4A87289 
 223      11A86EFB 
 223      7121
 224 0504 6B361937 		.ascii	"k6\0317H|\347\263\034&\031\014\300a\007\341\023)\233"
 224      487CE7B3 
ARM GAS  /tmp/cc22EEWW.s 			page 17


 224      1C26190C 
 224      C06107E1 
 224      13299B
 225 0517 889E826C 		.ascii	"\210\236\202lG\237\271Y.\372;\3436\235\237\243@l\225"
 225      479FB959 
 225      2EFA3BE3 
 225      369D9FA3 
 225      406C95
 226 052a F4E727FC 		.ascii	"\364\347'\374d\336\203\363(\263n\037\242\007\244\231"
 226      64DE83F3 
 226      28B36E1F 
 226      A207A499 
 227 053a C0093354 		.ascii	"\300\0113T\301}a\347\344\371x\313\2266\375a=\304\016"
 227      C17D61E7 
 227      E4F978CB 
 227      9636FD61 
 227      3DC40E
 228 054d EBA36663 		.ascii	"\353\243fc\3063\203Z\333\016\326J\321Iw\033\311\327"
 228      C633835A 
 228      DB0ED64A 
 228      D149771B 
 228      C9D7
 229 055f 595DC235 		.ascii	"Y]\3025\360%\344&\343\255}\306?\347\364\371\331\\\304"
 229      F025E426 
 229      E3AD7DC6 
 229      3FE7F4F9 
 229      D95CC4
 230 0572 779E3091 		.ascii	"w\2360\221\314\230\230)L\354\034sTw\331Du\206c\346\310"
 230      CC989829 
 230      4CEC1C73 
 230      5477D944 
 230      758663E6 
 231 0587 B8299B10 		.ascii	"\270)\233\020\245\350\002\370\324\274$k\236g\"u\246"
 231      A5E802F8 
 231      D4BC246B 
 231      9E672275 
 231      A6
 232 0598 81C4F78E 		.ascii	"\201\304\367\216\347\011\237)\270y\206R}|\233\362\\"
 232      E7099F29 
 232      B8798652 
 232      7D7C9BF2 
 232      5C
 233 05a9 15DC8733 		.ascii	"\025\334\2073\334\372RU\240\340\376\246s\321\224\276"
 233      DCFA5255 
 233      A0E0FEA6 
 233      73D194BE 
 234 05b9 E71CCE83 		.ascii	"\347\034\316\203\346,Z\223\324\335\354\212\217\222j"
 234      E62C5A93 
 234      D4DDEC8A 
 234      8F926A
 235 05c8 B195EA77 		.ascii	"\261\225\352w\260\365\231\255\324e\007\251V[\251k\016"
 235      B0F599AD 
 235      D46507A9 
 235      565BA96B 
 235      0E
 236 05d9 527B6DA5 		.ascii	"R{m\245\006\034\244\332l\245\372\034\244\332uG\300\""
 236      061CA4DA 
ARM GAS  /tmp/cc22EEWW.s 			page 18


 236      6CA5FA1C 
 236      A4DA7547 
 236      C022
 237 05eb 5F75A456 		.ascii	"_u\244V\361\005\"\301\365\276\240\262\306\027\250\016"
 237      F10522C1 
 237      F5BEA0B2 
 237      C617A80E 
 238 05fb 55852251 		.ascii	"U\205\"Q\237\246\306\302\357\373\240\243j\276P8P\023"
 238      9FA6C6C2 
 238      EFFBA0A3 
 238      6ABE5038 
 238      5013
 239 060d 0B025375 		.ascii	"\013\002Su\255R[\027\211\324D\313\253\321D\350G\324"
 239      AD525B17 
 239      89D444CB 
 239      ABD144E8 
 239      47D4
 240 061f F57EFAED 		.ascii	"\365~\372\355\327\306\275\372\346\012\357\313\250\220"
 240      D7C6BDFA 
 240      E60AEFCB 
 240      A890
 241 062d 7D552B72 		.ascii	"}U+rPQ\307\327U\373\303\312:m|m\035{?\357\213EU_M\250"
 241      5051C7D7 
 241      55FBC3CA 
 241      3A6D7C6D 
 241      1D7B3FEF 
 242 0647 CAB72A10 		.ascii	"\312\267*\020\360\311j\355\374p$\254\314W\344\252\220"
 242      F0C96AED 
 242      FC7024AC 
 242      CC57E4AA 
 242      90
 243 0658 6F61F9A2 		.ascii	"oa\371\242\362\205\031;Q-\030TV\202\215q\321\320\007"
 243      F285193B 
 243      512D1854 
 243      56828D71 
 243      D1D007
 244 066b 8A5F2B02 		.ascii	"\212_+\002\015\221\252\367\224\200\346\247\003/\214"
 244      0D91AAF7 
 244      9480E6A7 
 244      032F8C
 245 067a 157220A2 		.ascii	"\025r \242*\240\315\003\335U\212\2662\026\016\370\265"
 245      2AA0CD03 
 245      DD558AB6 
 245      32160EF8 
 245      B5
 246 068b 42D059A7 		.ascii	"B\320Y\247F\326\204\000i\205\243BM\211jT%}s\347\003"
 246      46D68400 
 246      6985A342 
 246      4D896A54 
 246      257D73E7 
 247 06a0 68623856 		.ascii	"hb8VS\223\221wST\0366W\341\217*Z\254n\252\370P\326)"
 247      53939177 
 247      53541E36 
 247      57E18F2A 
 247      5AAC6EAA 
 248 06b8 8198A694 		.ascii	"\201\230\246\224\327\311\252V\276\240\3108:9P\275\034"
 248      D7C9AA56 
ARM GAS  /tmp/cc22EEWW.s 			page 19


 248      BEA0C838 
 248      3A3950BD 
 248      1C
 249 06c9 06DE629E 		.ascii	"\006\336b\236\275\026\016i\023\370\300+\252\242\024"
 249      BD160E69 
 249      13F8C02B 
 249      AAA214
 250 06d8 F2EED29A 		.ascii	"\362\356\322\232\232H`^\316\360\300\311<\377K \347\361"
 250      9A48605E 
 250      CEF0C0C9 
 250      3CFF4B20 
 250      E7F1
 251 06ea D34FBF1C 		.ascii	"\323O\277\034\215*\2526\211\353z=\"\007\227\252\252"
 251      8D2AAA36 
 251      89EB7A3D 
 251      220797AA 
 251      AA
 252 06fb BCDE555B 		.ascii	"\274\336U[W!\255\225\363)K@\216*\356@\265\254\272\303"
 252      5721AD95 
 252      F3294B40 
 252      8E2AEE40 
 252      B5ACBAC3 
 253 070f 72AD92C7 		.ascii	"r\255\222\307\300\303\204\254\006#k\303\343\005PO\235"
 253      C0C384AC 
 253      06236BC3 
 253      E305504F 
 253      9D
 254 0720 AC698A1A 		.ascii	"\254i\212\032f\360'd\342PQ\\\256F\202\262&\227g\207"
 254      66F02764 
 254      E250515C 
 254      AE4682B2 
 254      26976787 
 255 0734 66BEC1B2 		.ascii	"f\276\301\262\302K\015F\347yW\307\224\230\002\240\331"
 255      C24B0D46 
 255      E77957C7 
 255      949802A0 
 255      D9
 256 0745 1BFD079F 		.ascii	"\033\375\007\237\265~\021"
 256      B57E11
 257              		.text
 258              		.section	.gnu.lto_.symtab.484ef6c7b7c7f27e,"",%progbits
 259 0000 70617474 		.ascii	"patternpools\000\000\000\000\000\000\000\000\000\000"
 259      65726E70 
 259      6F6F6C73 
 259      00000000 
 259      00000000 
 260 0016 0000F200 		.ascii	"\000\000\362\000\000\000testpools1\000\000\000\000\000"
 260      00007465 
 260      7374706F 
 260      6F6C7331 
 260      00000000 
 261 002b 00000000 		.ascii	"\000\000\000\000\000\000\000\015\001\000\000wa\000\000"
 261      0000000D 
 261      01000077 
 261      610000
 262 003a 02000000 		.ascii	"\002\000\000\000\000\000\000\000\000\000\355\000\000"
 262      00000000 
ARM GAS  /tmp/cc22EEWW.s 			page 20


 262      0000ED00 
 262      00
 263 0047 00636850 		.ascii	"\000chPoolObjectInit\000\000\002\000\000\000\000\000"
 263      6F6F6C4F 
 263      626A6563 
 263      74496E69 
 263      74000002 
 264 0060 00000000 		.ascii	"\000\000\000\000\315\000\000\000chPoolFree\000\000\002"
 264      CD000000 
 264      6368506F 
 264      6F6C4672 
 264      65650000 
 265 0075 00000000 		.ascii	"\000\000\000\000\000\000\000\000\000\323\000\000\000"
 265      00000000 
 265      00D30000 
 265      00
 266 0082 6368506F 		.ascii	"chPoolAlloc\000\000\002\000\000\000\000\000\000\000"
 266      6F6C416C 
 266      6C6F6300 
 266      00020000 
 266      00000000 
 267 0097 0000D800 		.ascii	"\000\000\330\000\000\000_test_assert\000\000\002\000"
 267      00005F74 
 267      6573745F 
 267      61737365 
 267      72740000 
 268 00ad 00000000 		.ascii	"\000\000\000\000\000\000\000\000\334\000\000\000chP"
 268      00000000 
 268      DC000000 
 268      636850
 269 00bc 6F6F6C4C 		.ascii	"oolLoadArray\000\000\002\000\000\000\000\000\000\000"
 269      6F616441 
 269      72726179 
 269      00000200 
 269      00000000 
 270 00d2 0000E400 		.ascii	"\000\000\344\000\000\000"
 270      0000
 271              		.text
 272              		.section	.gnu.lto_.opts,"",%progbits
 273 0000 272D6D63 		.ascii	"'-mcpu=cortex-m3' '-mno-thumb-interwork' '-mthumb' "
 273      70753D63 
 273      6F727465 
 273      782D6D33 
 273      2720272D 
 274 0033 272D4F32 		.ascii	"'-O2' '-fomit-frame-pointer' '-falign-functions=16'"
 274      2720272D 
 274      666F6D69 
 274      742D6672 
 274      616D652D 
 275 0066 20272D66 		.ascii	" '-ffunction-sections' '-fdata-sections' '-fno-comm"
 275      66756E63 
 275      74696F6E 
 275      2D736563 
 275      74696F6E 
 276 0099 6F6E2720 		.ascii	"on' '-flto'\000"
 276      272D666C 
 276      746F2700 
ARM GAS  /tmp/cc22EEWW.s 			page 21


 277              		.text
 278              		.section	.text.null_provider,"ax",%progbits
 279              		.align	2
 280              		.p2align 4,,15
 281              		.thumb
 282              		.thumb_func
 283              		.type	null_provider, %function
 284              	null_provider:
 285              		@ args = 0, pretend = 0, frame = 0
 286              		@ frame_needed = 0, uses_anonymous_args = 0
 287              		@ link register save eliminated.
 288 0000 0020     		movs	r0, #0
 289 0002 7047     		bx	lr
 290              		.size	null_provider, .-null_provider
 291 0004 AFF30080 		.section	.text.pools1_setup,"ax",%progbits
 291      AFF30080 
 291      AFF30080 
 292              		.align	2
 293              		.p2align 4,,15
 294              		.thumb
 295              		.thumb_func
 296              		.type	pools1_setup, %function
 297              	pools1_setup:
 298              		@ args = 0, pretend = 0, frame = 0
 299              		@ frame_needed = 0, uses_anonymous_args = 0
 300              		@ link register save eliminated.
 301 0000 0248     		ldr	r0, .L3
 302 0002 4FF4A471 		mov	r1, #328
 303 0006 0022     		movs	r2, #0
 304 0008 FFF7FEBF 		b	chPoolObjectInit
 305              	.L4:
 306              		.align	2
 307              	.L3:
 308 000c 00000000 		.word	.LANCHOR0
 309              		.size	pools1_setup, .-pools1_setup
 310              		.section	.text.pools1_execute,"ax",%progbits
 311              		.align	2
 312              		.p2align 4,,15
 313              		.thumb
 314              		.thumb_func
 315              		.type	pools1_execute, %function
 316              	pools1_execute:
 317              		@ args = 0, pretend = 0, frame = 0
 318              		@ frame_needed = 0, uses_anonymous_args = 0
 319 0000 38B5     		push	{r3, r4, r5, lr}
 320 0002 2C4B     		ldr	r3, .L18
 321 0004 2C48     		ldr	r0, .L18+4
 322 0006 1D68     		ldr	r5, [r3]
 323 0008 0522     		movs	r2, #5
 324 000a 2946     		mov	r1, r5
 325 000c FFF7FEFF 		bl	chPoolLoadArray
 326 0010 0524     		movs	r4, #5
 327              	.L9:
 328 0012 2948     		ldr	r0, .L18+4
 329 0014 FFF7FEFF 		bl	chPoolAlloc
 330 0018 011C     		adds	r1, r0, #0
 331 001a 18BF     		it	ne
ARM GAS  /tmp/cc22EEWW.s 			page 22


 332 001c 0121     		movne	r1, #1
 333 001e 0120     		movs	r0, #1
 334 0020 FFF7FEFF 		bl	_test_assert
 335 0024 A0BB     		cbnz	r0, .L5
 336 0026 013C     		subs	r4, r4, #1
 337 0028 F3D1     		bne	.L9
 338 002a 2348     		ldr	r0, .L18+4
 339 002c FFF7FEFF 		bl	chPoolAlloc
 340 0030 D0F10101 		rsbs	r1, r0, #1
 341 0034 38BF     		it	cc
 342 0036 0021     		movcc	r1, #0
 343 0038 0220     		movs	r0, #2
 344 003a FFF7FEFF 		bl	_test_assert
 345 003e 38BB     		cbnz	r0, .L5
 346 0040 1C4C     		ldr	r4, .L18
 347 0042 2946     		mov	r1, r5
 348 0044 1C48     		ldr	r0, .L18+4
 349 0046 04F11005 		add	r5, r4, #16
 350 004a FFF7FEFF 		bl	chPoolFree
 351 004e AC42     		cmp	r4, r5
 352 0050 06D0     		beq	.L11
 353              	.L16:
 354 0052 54F8041F 		ldr	r1, [r4, #4]!
 355 0056 1848     		ldr	r0, .L18+4
 356 0058 FFF7FEFF 		bl	chPoolFree
 357 005c AC42     		cmp	r4, r5
 358 005e F8D1     		bne	.L16
 359              	.L11:
 360 0060 0524     		movs	r4, #5
 361              	.L14:
 362 0062 1548     		ldr	r0, .L18+4
 363 0064 FFF7FEFF 		bl	chPoolAlloc
 364 0068 011C     		adds	r1, r0, #0
 365 006a 18BF     		it	ne
 366 006c 0121     		movne	r1, #1
 367 006e 0320     		movs	r0, #3
 368 0070 FFF7FEFF 		bl	_test_assert
 369 0074 60B9     		cbnz	r0, .L5
 370 0076 013C     		subs	r4, r4, #1
 371 0078 F3D1     		bne	.L14
 372 007a 0F48     		ldr	r0, .L18+4
 373 007c FFF7FEFF 		bl	chPoolAlloc
 374 0080 D0F10101 		rsbs	r1, r0, #1
 375 0084 38BF     		it	cc
 376 0086 0021     		movcc	r1, #0
 377 0088 0420     		movs	r0, #4
 378 008a FFF7FEFF 		bl	_test_assert
 379 008e 00B1     		cbz	r0, .L17
 380              	.L5:
 381 0090 38BD     		pop	{r3, r4, r5, pc}
 382              	.L17:
 383 0092 1021     		movs	r1, #16
 384 0094 0848     		ldr	r0, .L18+4
 385 0096 094A     		ldr	r2, .L18+8
 386 0098 FFF7FEFF 		bl	chPoolObjectInit
 387 009c 0648     		ldr	r0, .L18+4
 388 009e FFF7FEFF 		bl	chPoolAlloc
ARM GAS  /tmp/cc22EEWW.s 			page 23


 389 00a2 BDE83840 		pop	{r3, r4, r5, lr}
 390 00a6 D0F10101 		rsbs	r1, r0, #1
 391 00aa 38BF     		it	cc
 392 00ac 0021     		movcc	r1, #0
 393 00ae 0520     		movs	r0, #5
 394 00b0 FFF7FEBF 		b	_test_assert
 395              	.L19:
 396              		.align	2
 397              	.L18:
 398 00b4 00000000 		.word	wa
 399 00b8 00000000 		.word	.LANCHOR0
 400 00bc 00000000 		.word	null_provider
 401              		.size	pools1_execute, .-pools1_execute
 402              		.global	patternpools
 403              		.global	testpools1
 404              		.section	.rodata.str1.4,"aMS",%progbits,1
 405              		.align	2
 406              	.LC0:
 407 0000 4D656D6F 		.ascii	"Memory Pools, queue/dequeue\000"
 407      72792050 
 407      6F6F6C73 
 407      2C207175 
 407      6575652F 
 408              		.section	.rodata.patternpools,"a",%progbits
 409              		.align	2
 410              		.type	patternpools, %object
 411              		.size	patternpools, 8
 412              	patternpools:
 413 0000 00000000 		.word	testpools1
 414 0004 00000000 		.word	0
 415              		.section	.data.mp1,"aw",%progbits
 416              		.align	2
 417              		.set	.LANCHOR0,. + 0
 418              		.type	mp1, %object
 419              		.size	mp1, 12
 420              	mp1:
 421 0000 00000000 		.word	0
 422 0004 48010000 		.word	328
 423 0008 00000000 		.word	0
 424              		.section	.rodata.testpools1,"a",%progbits
 425              		.align	2
 426              		.type	testpools1, %object
 427              		.size	testpools1, 16
 428              	testpools1:
 429 0000 00000000 		.word	.LC0
 430 0004 00000000 		.word	pools1_setup
 431 0008 00000000 		.word	0
 432 000c 00000000 		.word	pools1_execute
 433              		.comm	__gnu_lto_v1,1,1
 434              		.ident	"GCC: (GNU Tools for ARM Embedded Processors) 4.8.4 20140526 (release) [ARM/embedded-4_8-br
ARM GAS  /tmp/cc22EEWW.s 			page 24

