ARM GAS  /tmp/cc6FwhuH.s 			page 1


   1              		.syntax unified
   2              		.cpu cortex-m3
   3              		.fpu softvfp
   4              		.eabi_attribute 20, 1
   5              		.eabi_attribute 21, 1
   6              		.eabi_attribute 23, 3
   7              		.eabi_attribute 24, 1
   8              		.eabi_attribute 25, 1
   9              		.eabi_attribute 26, 1
  10              		.eabi_attribute 30, 2
  11              		.eabi_attribute 34, 1
  12              		.eabi_attribute 18, 4
  13              		.thumb
  14              		.file	"testevt.c"
  15              		.section	.gnu.lto_.jmpfuncs.f88661e0708021cf,"",%progbits
  16 0000 789CAD54 		.ascii	"x\234\255T;b\2030\014\225d\233_\235B.\220\336\241'("
  16      3B628330 
  16      0C95649B 
  16      5F9D422E 
  16      90DEA127 
  17 0015 C925BA77 		.ascii	"\311%\272wb\310\332\245\013c\217\220\245\367\351\231"
  17      62C8DAA5 
  17      0B638F90 
  17      A5F7E999 
  18 0025 BAA4FE09 		.ascii	"\272\244\376\011\010\266\311\3202\200d\275'\277'\003"
  18      08B6C9D0 
  18      328064BD 
  18      27BF2703 
  19 0035 0404A9EB 		.ascii	"\004\004\251\353I\001T\346\251\001\220^q@8\231\210\343"
  19      490154E6 
  19      A901905E 
  19      71403899 
  19      88E3
  20 0047 23185A88 		.ascii	"#\030Z\210{\000\001\344b\224f\375\003~\306\313\330\015"
  20      7B0001E4 
  20      629466FD 
  20      037EC6CB 
  20      D80D
  21 0059 4807C0AF 		.ascii	"H\007\300\257\361\3622\240p-i.\3113\372%\313R%0_\314"
  21      F1F232A0 
  21      702D692E 
  21      C933FA25 
  21      CB522530 
  22 006f B84F8B2B 		.ascii	"\270O\213+\316\350\201\014\240{\000\227\311$\300\326"
  22      CEE8810C 
  22      A07B0097 
  22      C924C0D6 
  23 007f 4B0A4175 		.ascii	"K\012Au5W\233\202\232[\314\366d\\\221\2130\003\316\313"
  23      35579B82 
  23      9A5BCCF6 
  23      645C918B 
  23      3003CECB 
  24 0093 555EADF2 		.ascii	"U^\255\362\232Uv\013\305ml\211\330R\302\006\323\036"
  24      9A55760B 
  24      C56D6C89 
  24      D852C206 
  24      D31E
ARM GAS  /tmp/cc6FwhuH.s 			page 2


  25 00a5 6D7CDB5E 		.ascii	"m|\333^\370\312\316\343|M\231sTA6~\373\361M]\353\267"
  25      F8CACEE3 
  25      7C4D9973 
  25      5441367E 
  25      FBF14D5D 
  26 00bb E06E3A98 		.ascii	"\340n:\230\346\000\205?\263\007\337E&\205\271i\310\377"
  26      E600853F 
  26      B307DF45 
  26      2685B969 
  26      C8FF
  27 00cd 1C25DBD2 		.ascii	"\034%\333\322\261\255Pq\202\202\305fi\221q[6W\303\253"
  27      B1AD5071 
  27      8282C566 
  27      6991715B 
  27      3657C3AB 
  28 00e1 B3BB5471 		.ascii	"\263\273Tqe\036$\203\312,\275X\210T\177\024)\263\273"
  28      651E2483 
  28      CA2CBD58 
  28      88547F14 
  28      29B3BB
  29 00f4 886C85B2 		.ascii	"\210l\205\262\025\314\0323n4\222\355\371\316_$rQ?\003"
  29      15CC1A33 
  29      6E3492ED 
  29      F9CE5F24 
  29      72513F03 
  30 0108 B4A9B7D3 		.ascii	"\264\251\267\323\237\",q\211\327uBuA\306$\312&\273\346"
  30      9F222C71 
  30      89D77542 
  30      7541C624 
  30      CA26BBE6 
  31 011c D6EB3644 		.ascii	"\326\3536D\335\207\270\351\357\327\177\223\210\241\243"
  31      DD87B8E9 
  31      EFD77F93 
  31      88A1A3
  32 012b FFC91604 		.ascii	"\377\311\026\0047  \373\343\011\250\207_\255\247\356"
  32      372020FB 
  32      E309A887 
  32      5FADA7EE 
  33 013b 63       		.ascii	"c"
  34              		.text
  35              		.section	.gnu.lto_.inline.f88661e0708021cf,"",%progbits
  36 0000 789C6362 		.ascii	"x\234cb`b\300\0068\231!4\017\003\003+/#X\021\333\002"
  36      6062C006 
  36      38992134 
  36      0F03032B 
  36      2F235811 
  37 0016 79B05A26 		.ascii	"y\260Z&n\006\006F \304.\316\204C\234Y\303\314\006(\256"
  37      6E060646 
  37      20C42ECE 
  37      84439C59 
  37      C3CC0628 
  38 002b 70221D2E 		.ascii	"p\"\035.\301\302\313\000R\310\314\003\246 \274\011~"
  38      C1C2CB00 
  38      52C8CC03 
  38      A620BC09 
  38      7E
  39 003c F8B9AC7C 		.ascii	"\370\271\254|@6H3\234\301\206\303Bv\034\342\0348\304"
ARM GAS  /tmp/cc6FwhuH.s 			page 3


  39      40364833 
  39      9CC186C3 
  39      42761CE2 
  39      1C38C4
  40 004f 39355E32 		.ascii	"95^2\232\002%\0261\376pBs\342\004?4\327@)F.\006T\207"
  40      9A022516 
  40      31FE7042 
  40      73E2043F 
  40      34D74029 
  41 0068 32829DC5 		.ascii	"2\202\235\305\014\344M\360\203\272B\000\350\324\011"
  41      0CE44DF0 
  41      83BA4200 
  41      E8D409
  42 0077 7E4011A8 		.ascii	"~@\021\250rL\017`1\005\331\267\020\323 \342H\246M\360"
  42      724C0F60 
  42      3105D9B7 
  42      10D320E2 
  42      48A64DF0 
  43 008b C3A30FC2 		.ascii	"\303\243\017\302\203F\024\255\214'l5\017\003\207$jP"
  43      834614AD 
  43      8C276C35 
  43      0F038724 
  43      6A50
  44 009d 83030E68 		.ascii	"\203\003\016h<D\236\237\201[\025\213<<\311@8\002\014"
  44      3C449E9F 
  44      815B158B 
  44      3C3CC940 
  44      38020C
  45 00b0 8A7A4055 		.ascii	"\212z@U|{\234\321S\016j\354\240s!\332'\370\0112\250"
  45      7C7B9CD1 
  45      530E6AEC 
  45      A07321DA 
  45      27F80932 
  46 00c5 EA03F50B 		.ascii	"\352\003\365\013\315\360\200\353G\361\033Q\2061\000"
  46      CDF080EB 
  46      47F11B51 
  46      863100
  47 00d4 00FE3F37 		.ascii	"\000\376?7\255"
  47      AD
  48              		.text
  49              		.section	.gnu.lto_.pureconst.f88661e0708021cf,"",%progbits
  50 0000 789C6362 		.ascii	"x\234cb`b\220d\200\000\036\006\011F\011&\011f\0116\011"
  50      60629064 
  50      80001E06 
  50      09460926 
  50      09660936 
  51 0015 76090E09 		.ascii	"v\011\016\011N+\036\011~\011\001\011A\011\000\026\330"
  51      4E2B1E09 
  51      7E090109 
  51      41090016 
  51      D8
  52 0026 01CC     		.ascii	"\001\314"
  53              		.text
  54              		.section	.gnu.lto_h3.f88661e0708021cf,"",%progbits
  55 0000 789C6362 		.ascii	"x\234cb`b@\007\222@\\\013\304\206@\314\310\314\300\310"
  55      60624007 
  55      92405C0B 
ARM GAS  /tmp/cc6FwhuH.s 			page 4


  55      C48640CC 
  55      C8CCC0C8 
  56 0014 34E11C03 		.ascii	"4\341\034\003C#\007\023##\210\301\300\310P\317\304X"
  56      43230713 
  56      232388C1 
  56      C0C850CF 
  56      C458
  57 0026 1FC90856 		.ascii	"\037\311\010V\273\236\351\300\203\377\377\327]i\233"
  57      BB9EE9C0 
  57      83FFFFD7 
  57      5D699B
  58 0035 2FC10CE4 		.ascii	"/\301\014\344\2622\26444LP``H\006K\207\000I\220\236"
  58      B232B434 
  58      344C5060 
  58      6048064B 
  58      87004990 
  59 004a 50462610 		.ascii	"PF&\020\315|\236\241\345@~\"\343BFV\240d5\303\257\206"
  59      CD7C9EA1 
  59      E5407E22 
  59      E3424656 
  59      A06435C3 
  60 0060 8E06814C 		.ascii	"\216\006\201LF\240b\210a\021\214\231\214\214\316\014"
  60      46A06288 
  60      61118C99 
  60      8C8CCE0C 
  61 0070 9940D50C 		.ascii	"\231@\325\014\027\031\032\0170\302\224B@\010P\031\320"
  61      17191A0F 
  61      30C29442 
  61      40085019 
  61      D0
  62 0081 149083F5 		.ascii	"\024\220\203\365\3653\362sS\365\223\363S*\365SR\313"
  62      F533F273 
  62      53F593F3 
  62      532AF553 
  62      52CB
  63 0093 F4933332 		.ascii	"\364\22332\2232\363\213\365K\212J\363\262\365KR\213"
  63      9332F38B 
  63      F54B8A4A 
  63      F3B2F54B 
  63      528B
  64 00a5 4BF48B4A 		.ascii	"K\364\213J\300tjY\211^2\003\000b91\327"
  64      C0746A59 
  64      895E3203 
  64      00623931 
  64      D7
  65              		.text
  66              		.section	.gnu.lto_h2.f88661e0708021cf,"",%progbits
  67 0000 789C6362 		.ascii	"x\234cb`b@\007\222@\\\013\304\206@\314\310\314\300\310"
  67      60624007 
  67      92405C0B 
  67      C48640CC 
  67      C8CCC0C8 
  68 0014 34E11C03 		.ascii	"4\341\034\003C#\007\023##\210\301\300\310P\317\304X"
  68      43230713 
  68      232388C1 
  68      C0C850CF 
  68      C458
ARM GAS  /tmp/cc6FwhuH.s 			page 5


  69 0026 1FC90856 		.ascii	"\037\311\010V\273\236\351\300\203\377\377\327]j\233"
  69      BB9EE9C0 
  69      83FFFFD7 
  69      5D6A9B
  70 0035 2FC10CE4 		.ascii	"/\301\014\344\2622\26444LP``H\006K\207\000I\220\236"
  70      B232B434 
  70      344C5060 
  70      6048064B 
  70      87004990 
  71 004a 50462610 		.ascii	"PF&\020\315|\236\241\345@~\"\343BFV\240d5\303\257\206"
  71      CD7C9EA1 
  71      E5407E22 
  71      E3424656 
  71      A06435C3 
  72 0060 8E06814C 		.ascii	"\216\006\201LF\240b\210a\021\214\231\214\214N\014\231"
  72      46A06288 
  72      61118C99 
  72      8C8C4E0C 
  72      99
  73 0071 40D50C17 		.ascii	"@\325\014\027\031\032\0170\302\224B@\010P\031\320\024"
  73      191A0F30 
  73      C2944240 
  73      085019D0 
  73      14
  74 0082 9083F5F5 		.ascii	"\220\203\365\3653\362sS\365\223\363S*\365SR\313\364"
  74      33F27353 
  74      F593F353 
  74      2AF55352 
  74      CBF4
  75 0094 93333293 		.ascii	"\22332\2232\363\213\365K\212J\363\262\365KR\213K\364"
  75      32F38BF5 
  75      4B8A4AF3 
  75      B2F54B52 
  75      8B4BF4
  76 00a7 8B4AC074 		.ascii	"\213J\300tjY\211^2\003\000`\2441\324"
  76      6A59895E 
  76      32030060 
  76      A431D4
  77              		.text
  78              		.section	.gnu.lto_h1.f88661e0708021cf,"",%progbits
  79 0000 789C6362 		.ascii	"x\234cb`b@\007\222@\\\013\304\206@\314\310\314\300\310"
  79      60624007 
  79      92405C0B 
  79      C48640CC 
  79      C8CCC0C8 
  80 0014 34E11C03 		.ascii	"4\341\034\003C#\007\023##\210\301\300\310P\317\304X"
  80      43230713 
  80      232388C1 
  80      C0C850CF 
  80      C458
  81 0026 1FC90856 		.ascii	"\037\311\010V\273\236\351\300\203\377\377\327]h\233"
  81      BB9EE9C0 
  81      83FFFFD7 
  81      5D689B
  82 0035 2FC10CE4 		.ascii	"/\301\014\344\2622\26444LP``H\006K\207\000I\220\236"
  82      B232B434 
  82      344C5060 
ARM GAS  /tmp/cc6FwhuH.s 			page 6


  82      6048064B 
  82      87004990 
  83 004a 50462610 		.ascii	"PF&\020\315|\236\241\345@~\"\343BFV\240d5\303\257\206"
  83      CD7C9EA1 
  83      E5407E22 
  83      E3424656 
  83      A06435C3 
  84 0060 8E06814C 		.ascii	"\216\006\201LF\240b\210a\021\214\231\214\214\216\014"
  84      46A06288 
  84      61118C99 
  84      8C8C8E0C 
  85 0070 9940D50C 		.ascii	"\231@\325\014\027\031\032\0170\302\224B@\010P\031\320"
  85      17191A0F 
  85      30C29442 
  85      40085019 
  85      D0
  86 0081 149083F5 		.ascii	"\024\220\203\365\3653\362sS\365\223\363S*\365SR\313"
  86      F533F273 
  86      53F593F3 
  86      532AF553 
  86      52CB
  87 0093 F4933332 		.ascii	"\364\22332\2232\363\213\365K\212J\363\262\365KR\213"
  87      9332F38B 
  87      F54B8A4A 
  87      F3B2F54B 
  87      528B
  88 00a5 4BF48B4A 		.ascii	"K\364\213J\300tjY\211^2\003\000_\0171\321"
  88      C0746A59 
  88      895E3203 
  88      005F0F31 
  88      D1
  89              		.text
  90              		.section	.gnu.lto_evt1_execute.f88661e0708021cf,"",%progbits
  91 0000 789C9D55 		.ascii	"x\234\235U\335K\024Q\024?g>vFW]\335\314oD|\215\034\224"
  91      DD4B1451 
  91      143F673E 
  91      7646575D 
  91      DDCC6F44 
  92 0018 B0C7BEFE 		.ascii	"\260\307\276\376\204\024\212\236\326qq\007?\226t\025"
  92      84148A9E 
  92      D6717107 
  92      3F967415 
  93 0028 CA07AFBA 		.ascii	"\312\007\257\272\222\320\213\017\021R$\312\022Q\020"
  93      92D08B0F 
  93      115224CA 
  93      125110
  94 0037 5152BD08 		.ascii	"QR\275\010\255}\200\266\250\005>X\230.\221O\206\004"
  94      AD7D80B6 
  94      A8053E58 
  94      982E914F 
  94      8604
  95 0049 E58B04DB 		.ascii	"\345\213\004\333\2713;\353~\270\253ya\316=g\3569\277"
  95      B9333BEB 
  95      7EB8AB79 
  95      61CE3D67 
  95      EE39BF
  96 005c 73EEEFDC 		.ascii	"s\356\357\334\231+\200\000\351\303\240\347\264\002\320"
ARM GAS  /tmp/cc6FwhuH.s 			page 7


  96      992B8000 
  96      E9C3A0E7 
  96      B402D0
  97 006b 4F33E601 		.ascii	"O3\346\001\012\023\313\000\303\252 (sg\201\345\213\253"
  97      0A13CB00 
  97      C3AA2028 
  97      736781E5 
  97      8BAB
  98 007d 65C00AC4 		.ascii	"e\300\012\304\270%\231\226\024\267d\323\222\005eU#\313"
  98      B8259996 
  98      14B764D3 
  98      92056555 
  98      23CB
  99 008f 31574B96 		.ascii	"1WK\226\003U\013@\261\025\025\221+\2000$\210\222\354"
  99      03550B40 
  99      B1151591 
  99      2B803024 
  99      8892EC
 100 00a2 50541CBA 		.ascii	"PT\034\272\212<\265P\0173,<\021\375\260\035\025\206"
 100      8A3CB550 
 100      0F332C3C 
 100      11FDB01D 
 100      1586
 101 00b4 593838CD 		.ascii	"Y88\315\376\306b\210\006R\231M\010:\302\0252p\332\232"
 101      FEC66288 
 101      0652994D 
 101      083AC215 
 101      3270DA9A 
 102 00c8 85D2D4C2 		.ascii	"\205\322\324\302\255`\366[Z`\301p,v\316\014k>4\354\231"
 102      AD60F65B 
 102      5A60C170 
 102      2C76CE0C 
 102      6B3E34EC 
 103 00dd 108EC662 		.ascii	"\020\216\306b\353/\247\277\177\301\222:\025\014\024"
 103      EB2FA7BF 
 103      7FC1923A 
 103      150C14
 104 00ec 9D5C1472 		.ascii	"\235\\\024r\341\342\302\315E9\011\251\202k\225\\\253"
 104      E1E2C2CD 
 104      453909A9 
 104      826B955C 
 104      AB
 105 00fd E25A35D7 		.ascii	"\342Z5\327j\270F82\004\031\233\250\363\340\014\326\203"
 105      6AB84638 
 105      3204199B 
 105      A8F3E00C 
 105      D683
 106 010f 07432481 		.ascii	"\007C$\201\347\246\321B\222o\271\025\005>\213K0\022"
 106      E7A6D142 
 106      926FB915 
 106      053E8B4B 
 106      3012
 107 0121 59DFD819 		.ascii	"Y\337\330\031\221\3431vp8\362mF\006\012~\2102\205\232"
 107      91E33176 
 107      7038F26D 
 107      46060A7E 
 107      8832859A 
ARM GAS  /tmp/cc6FwhuH.s 			page 8


 108 0135 B1A7E009 		.ascii	"\261\247\340\011c,\272\273{\327A\311\356\303\275a\306"
 108      632CBABB 
 108      7BD741C9 
 108      EEC3BD61 
 108      C6
 109 0146 8A0D9407 		.ascii	"\212\015\224\007a\217\215s\315\321m\372\361\2559\314"
 109      618F8D73 
 109      CDD16DFA 
 109      F1AD39CC 
 110 0156 0DB571DB 		.ascii	"\015\265q\333\203\217\010\003,\257\350\326\316'\301"
 110      838F0803 
 110      2CAFE8D6 
 110      CE27C1
 111 0165 F2B4B069 		.ascii	"\362\264\260i\254\300\255_{w\226k\323K\270\2751\237"
 111      ACC0AD5F 
 111      7B77966B 
 111      D34BB8BD 
 111      319F
 112 0177 5442FC78 		.ascii	"TB\374x$\222):\212\036|jA\360\267j\012\354 \334\244"
 112      2492293A 
 112      8A1E7C6A 
 112      41F0B76A 
 112      0AEC20DC 
 113 018c 226D0ACC 		.ascii	"\"m\012\314W\274.\325b>/F\2033\232\237=}\344\010\351"
 113      57BC2ED5 
 113      623E2F46 
 113      83339A9F 
 113      3D7DE408 
 114 01a1 5F1C963E 		.ascii	"_\034\226>\224\226^\310HO\035\370\272>\2655\353\314"
 114      94965EC8 
 114      484F1DF8 
 114      BA3EB535 
 114      EBCC
 115 01b3 D8FE66E3 		.ascii	"\330\376f\343~z\211\247\351\300r\273\007\217\247\256"
 115      7E7A89A7 
 115      E9C072BB 
 115      078FA7AE 
 116 01c3 FD5F0F5E 		.ascii	"\375_\017^[\225.\301\350\332h\221\007_\221\331\201\025"
 116      5B952EC1 
 116      E8DA6891 
 116      075F91D9 
 116      8115
 117 01d5 8418EFCB 		.ascii	"\204\030\357\313{\177FWdK\357@5\201\356\324\255E\023"
 117      7B7F4657 
 117      644BEF40 
 117      3581EED4 
 117      AD4513
 118 01e8 BF003984 		.ascii	"\277\0009\204\201\205\000\013\020\374\211\011w\276("
 118      8185000B 
 118      10FC8909 
 118      77BE28
 119 01f7 261FEC56 		.ascii	"&\037\354V2W\313\304\025\030\213\276y\227o\247H\240"
 119      3257CBC4 
 119      15188BBE 
 119      79976FA7 
 119      48A0
 120 0209 16E9F15A 		.ascii	"\026\351\361Z\217\324F\003]\271X\373\221\311Z\345\261"
ARM GAS  /tmp/cc6FwhuH.s 			page 9


 120      8FD44603 
 120      5DB958FB 
 120      91C95AE5 
 120      B1
 121 021a 599B4F65 		.ascii	"Y\233Oe-l\356\257\212\020\343\254\005{\263\263\346\314"
 121      2D6CEEAF 
 121      8A10E3AC 
 121      057BB3B3 
 121      E6CC
 122 022c C29AC021 		.ascii	"\302\232\300!2Ys\036\300\232\004\213\016\223\265\305"
 122      3259731E 
 122      C09A048B 
 122      0E93B5C5 
 123 023c E3B1163A 		.ascii	"\343\261\026:2k[\231\254U\037\233\265H*k\037\315\375"
 123      326B5B99 
 123      AC551F9B 
 123      B5482A6B 
 123      1FCDFD
 124 024f D510A27D 		.ascii	"\325\020\242}\326\322Y\243\272\346D\233\210B\362M!\322"
 124      D6D259A3 
 124      BAE6449B 
 124      8842F24D 
 124      21D2
 125 0261 95854891 		.ascii	"\225\205H\221;g\022\351:\200H\031\376\240I\344\312h"
 125      3B6712E9 
 125      3A804819 
 125      FEA049E4 
 125      CA68
 126 0273 2691C53A 		.ascii	"&\221\305:*\011\"'\031\273l`I7b\322g\353V\210\277\023"
 126      2A092227 
 126      19BB6C60 
 126      493762D2 
 126      67EB5688 
 127 0289 BCA8B1E8 		.ascii	"\274\250\261\350\232n'r'\020JuT\367\353\222L \3720N"
 127      9A6E2772 
 127      27104A75 
 127      54F7EB92 
 127      4C20FA30 
 128 029e D6C2F507 		.ascii	"\326\302\365\007l\362\274\201e\373m(O+\327}@\271\016"
 128      6CF2BC81 
 128      65FB6D28 
 128      4F2BD77D 
 128      40B90E
 129 02b1 D8E4BFE6 		.ascii	"\330\344\277\346\267\333\202\345e\235\37730\313\306"
 129      B7DB82E5 
 129      659DFF33 
 129      30CBC6
 130 02c0 F9156432 		.ascii	"\371\025d2\226\264\030J[\264@\024x\276d\241,\370s\300"
 130      96B4184A 
 130      5BB44014 
 130      78BE64A1 
 130      2CF873C0 
 131 02d4 74E64651 		.ascii	"t\346FQ\315k\3423]\226\373\005\266\320}@o\371/Q\323"
 131      CD6BE233 
 131      5D96FB05 
 131      B6D07D40 
 131      6FF92F51 
ARM GAS  /tmp/cc6FwhuH.s 			page 10


 132 02e9 7CFE6EAF 		.ascii	"|\376n\257\246\373\333oh\355\336\001M\367\031m\206\277"
 132      A6FBDB6F 
 132      68EDDE01 
 132      4DF7196D 
 132      86BF
 133 02fb 4F0BF4F6 		.ascii	"O\013\364\366\367tj\001o_@\353\015\230\263w \320\240"
 133      F7746A01 
 133      6F5F40EB 
 133      0D98B377 
 133      20D0A0
 134 030e 83E8ED6A 		.ascii	"\203\350\355j\244\247\2519g\034)\024e\364\350]\375\355"
 134      A4A7A939 
 134      671C2914 
 134      65F4E85D 
 134      FDED
 135 0320 E4E4F30E 		.ascii	"\344\344\363\016x{\002}\015>\220.\\\274\004\377\000"
 135      787B027D 
 135      0D3E902E 
 135      5CBC04FF 
 135      00
 136 0331 8358EBF5 		.ascii	"\203X\353\365"
 137              		.text
 138              		.section	.gnu.lto_evt1_setup.f88661e0708021cf,"",%progbits
 139 0000 789C6362 		.ascii	"x\234cb`b@\007\222@\334\016\304\206@\314\310\314\300"
 139      60624007 
 139      9240DC0E 
 139      C48640CC 
 139      C8CCC0
 140 0013 C834E11C 		.ascii	"\3104\341\034\003C#\007\023##\210\301\300\310P\317\304"
 140      03432307 
 140      13232388 
 140      C1C0C850 
 140      CFC4
 141 0025 581FC908 		.ascii	"X\037\311\010V\273\236\351\300\203\377\377\327mk\233"
 141      56BB9EE9 
 141      C083FFFF 
 141      D76D6B9B 
 142 0035 FF867126 		.ascii	"\377\206q&\0233P\204\225\241\245\241a\202\002\003C2"
 142      13335084 
 142      95A1A5A1 
 142      61820203 
 142      4332
 143 0047 58450890 		.ascii	"XE\010\220\004i\013ed\002\321\314\347\031Z\036\314]"
 143      04690B65 
 143      6402D1CC 
 143      E7195A1E 
 143      CC5D
 144 0059 CC97C8B8 		.ascii	"\314\227\310\270\220\221\025(]\315\360\253\241\243A"
 144      90911528 
 144      5DCDF0AB 
 144      A1A341
 145 0068 209311A8 		.ascii	" \223\021\250\034bb\004c&#\343\177 \340g\310\004\352"
 145      1C626204 
 145      632623E3 
 145      7F20E067 
 145      C804EA
 146 007b 61B8C8D0 		.ascii	"a\270\310\320\370`\2362L=\004\204\000\325\002\015\003"
ARM GAS  /tmp/cc6FwhuH.s 			page 11


 146      F8609E32 
 146      4C3D0484 
 146      00D5020D 
 146      03
 147 008c 395D5F3F 		.ascii	"9]_?#?7U?9?\245R?%\265L?9#3)3\277X\277\244\2504/[\277"
 147      233F3755 
 147      3F393FA5 
 147      523F25B5 
 147      4C3F3923 
 148 00ac 24B5B844 		.ascii	"$\265\270D\277\250\004L\247\226\225\350%3\000\000)\257"
 148      BFA8044C 
 148      A79695E8 
 148      25330000 
 148      29AF
 149 00be 38DA     		.ascii	"8\332"
 150              		.text
 151              		.section	.gnu.lto_evt2_setup.f88661e0708021cf,"",%progbits
 152 0000 789C6362 		.ascii	"x\234cb`b@\007\222@\334\016\304\206@\314\310\314\300"
 152      60624007 
 152      9240DC0E 
 152      C48640CC 
 152      C8CCC0
 153 0013 C834E11C 		.ascii	"\3104\341\034\003C#\007\023##\210\301\300\310P\317\304"
 153      03432307 
 153      13232388 
 153      C1C0C850 
 153      CFC4
 154 0025 581FC908 		.ascii	"X\037\311\010V\273\236\351\300\203\377\377\327M\350"
 154      56BB9EE9 
 154      C083FFFF 
 154      D74DE8
 155 0034 9ABF8771 		.ascii	"\232\277\207q\005\0233P\204\225\241\245\241a\202\002"
 155      05133350 
 155      8495A1A5 
 155      A1618202 
 156 0044 03433258 		.ascii	"\003C2XE\010\220\004i\013ed\002\321\314\347\031Z\036"
 156      45089004 
 156      690B6564 
 156      02D1CCE7 
 156      195A1E
 157 0057 742DE54B 		.ascii	"t-\345Kd\\\310\310\012\224\256f\370\325\320\321 \220"
 157      645CC8C8 
 157      0A94AE66 
 157      F8D5D0D1 
 157      2090
 158 0069 C908540E 		.ascii	"\311\010T\01611\2021\223\221\361?\020\3603d\002\365"
 158      31318231 
 158      9391F13F 
 158      10F03364 
 158      02F5
 159 007b 305C6468 		.ascii	"0\\dh|\320\255\012S\017\001!@\265@\303@N\327\327\317"
 159      7CD0AD0A 
 159      530F0121 
 159      40B540C3 
 159      404ED7D7 
 160 0090 C8CF4DD5 		.ascii	"\310\317M\325O\316O\251\324OI-\323O\316\310L\312\314"
 160      4FCE4FA9 
ARM GAS  /tmp/cc6FwhuH.s 			page 12


 160      D44F492D 
 160      D34FCEC8 
 160      4CCACC
 161 00a3 2FD62F29 		.ascii	"/\326/)*\315\313\326/I-.\321/*\001\323\251e%z\311\014"
 161      2ACDCBD6 
 161      2F492D2E 
 161      D12F2A01 
 161      D3A96525 
 162 00ba 00F02838 		.ascii	"\000\360(8u"
 162      75
 163              		.text
 164              		.section	.gnu.lto_evt3_setup.f88661e0708021cf,"",%progbits
 165 0000 789C6362 		.ascii	"x\234cb`b@\007\222@\334\016\304\206@\314\310\314\300"
 165      60624007 
 165      9240DC0E 
 165      C48640CC 
 165      C8CCC0
 166 0013 C834E11C 		.ascii	"\3104\341\034\003C#\007\023##\210\301\300\310P\317\304"
 166      03432307 
 166      13232388 
 166      C1C0C850 
 166      CFC4
 167 0025 581FC908 		.ascii	"X\037\311\010V\273\236\351\300\203\377\377\327}\352"
 167      56BB9EE9 
 167      C083FFFF 
 167      D77DEA
 168 0034 9F7F8671 		.ascii	"\237\177\206q?\0233P\204\225\241\245\241a\202\002\003"
 168      3F133350 
 168      8495A1A5 
 168      A1618202 
 168      03
 169 0045 43325845 		.ascii	"C2XE\010\220\004i\013ed\002\321\314\347\031Z\036\374"
 169      08900469 
 169      0B656402 
 169      D1CCE719 
 169      5A1EFC
 170 0058 5ECE97C8 		.ascii	"^\316\227\310\270\220\221\025(]\315\360\253\241\243"
 170      B8909115 
 170      285DCDF0 
 170      ABA1A3
 171 0067 41209311 		.ascii	"A \223\021\250\034bb\004c&#\343\177 \340g\310\004\352"
 171      A81C6262 
 171      04632623 
 171      E37F20E0 
 171      67C804EA 
 172 007b 61B8C8D0 		.ascii	"a\270\310\320\370\340\217:L=\004\204\000\325\002\015"
 172      F8E08F3A 
 172      4C3D0484 
 172      00D5020D 
 173 008b 03395D5F 		.ascii	"\0039]_?#?7U?9?\245R?%\265L?9#3)3\277X\277\244\2504"
 173      3F233F37 
 173      553F393F 
 173      A5523F25 
 173      B54C3F39 
 174 00a9 2F5BBF24 		.ascii	"/[\277$\265\270D\277\250\004L\247\226\225\350%3\000"
 174      B5B844BF 
 174      A8044CA7 
ARM GAS  /tmp/cc6FwhuH.s 			page 13


 174      9695E825 
 174      3300
 175 00bb 00A73C39 		.ascii	"\000\247<9\351"
 175      E9
 176              		.text
 177              		.section	.gnu.lto_evt2_execute.f88661e0708021cf,"",%progbits
 178 0000 789CCD59 		.ascii	"x\234\315Y}lS\327\025\277\367\371\371+v\034;N\322\254"
 178      7D6C53D7 
 178      15BFF7F9 
 178      F92B761C 
 178      3B4ED2AC 
 179 0014 F9200B0D 		.ascii	"\371 \013\015eM\203I\232\221!\001M\025D\025\225\240"
 179      654D8349 
 179      9A912101 
 179      4D154415 
 179      95A0
 180 0026 A9D0C290 		.ascii	"\251\320\302\220P\3448\026y\020\223\312v\322\360\321"
 180      50E43816 
 180      791093CA 
 180      76D2F0D1 
 181 0036 F242829A 		.ascii	"\362B\202\232.]\205\202\332fP\246 \026\322\225MhD\242"
 181      2E5D8582 
 181      DA6650A6 
 181      2016D295 
 181      4D6844A2 
 182 004a 6B09530A 		.ascii	"k\011S\012\315H\310h\326-e\023B\253EW\261\222\221\256"
 182      CD48C868 
 182      D62D6513 
 182      42AB4557 
 182      B19291AE 
 183 005e B03FDA6E 		.ascii	"\260?\332nZv\317}\367\275g\373\275\227\030\024U\263"
 183      5A76CF7D 
 183      F7BD67FB 
 183      BD971814 
 183      55B3
 184 0070 C4F13BF7 		.ascii	"\304\361;\367\235\217\337=\367\334\363K\002\2078\224"
 184      9D8FDF3D 
 184      F7DCF34B 
 184      02873894 
 185 0080 FC29C008 		.ascii	"\374)\300\010-\317C\350\010\371\306\331\010s\207>D\250"
 185      2DCF43E8 
 185      08F9C6D9 
 185      0873873E 
 185      44A8
 186 0092 C3C671DE 		.ascii	"\303\306q\336\341*$\246\231\246r\220\35041\215\247\032"
 186      E12A24A6 
 186      99A67290 
 186      E834318D 
 186      A71A
 187 00a4 CF3433D5 		.ascii	"\31743\325\314L\263P\315\3024+\325\254L\263Q\315\306"
 187      CC4CB350 
 187      CDC2342B 
 187      D5AC4CB3 
 187      51CDC6
 188 00b7 343BD5EC 		.ascii	"4;\325\354LK\243Z\032\323\034Ts0\315I5'\323\322\251"
 188      4C4BA35A 
 188      1AD31C54 
ARM GAS  /tmp/cc6FwhuH.s 			page 14


 188      7330CD49 
 188      3527D3D2 
 189 00cc 96CE3417 		.ascii	"\226\3164\027\325\\L\313\240Z\006\323\334Ts3\315C5\017"
 189      D55C4CCB 
 189      A05A06D3 
 189      DC547333 
 189      CD43350F 
 190 00e0 E79DF211 		.ascii	"\347\235\362\021-s\270\220h\2318K\332\250W~\310\302"
 190      2D73B890 
 190      6899384B 
 190      DAA8577E 
 190      C8C2
 191 00f2 181E1046 		.ascii	"\030\036\020F\3739\023o\266Xm\3664\2073\335\225\341"
 191      FB39136F 
 191      B6586DF6 
 191      348733DD 
 191      95E1
 192 0104 F6647AB3 		.ascii	"\366dz\263\360\376\037a(\027_\214\216\213bol\364\324"
 192      F0FE1F61 
 192      28175F8C 
 192      8E8B626F 
 192      6CF4D4
 193 0117 D7F8A7E2 		.ascii	"\327\370\247\342HW\277\370\237\331Y\214\005LJ[\201Q"
 193      4857BFF8 
 193      9FD9598C 
 193      054C4A5B 
 193      8151
 194 0129 00A32D44 		.ascii	"\000\243-D\301E\364\213\343\023k\015\276#\207F>\371"
 194      C145F48B 
 194      E3136B0D 
 194      BE238746 
 194      3EF9
 195 013b F1EB58EC 		.ascii	"\361\353X\354?pH\374/q\025\260\211C\225\252g\277\364"
 195      3F7048FC 
 195      2F7115B0 
 195      894395AA 
 195      67BFF4
 196 014e CD65E9B9 		.ascii	"\315e\351\271\212w\3711\261kdv\366q\352\366\203\224"
 196      8A77F931 
 196      B16B6476 
 196      F671EAF6 
 196      8394
 197 0160 DCC4DE91 		.ascii	"\334\304\336\221//\277\232+\366w\310\031y\016\255R]"
 197      2F2FBF9A 
 197      2BF677C8 
 197      19790EAD 
 197      525D
 198 0172 DD926752 		.ascii	"\335\222gRk\234\346Fb\263\263\327?\356\2771\206\275"
 198      6B9CE646 
 198      62B3B3D7 
 198      3FEEBF31 
 198      86BD
 199 0184 AF600BF2 		.ascii	"\257`\013\362\343\343\270\030Y\221\200\315v\020\016"
 199      E3E3B818 
 199      599180CD 
 199      76100E
 200 0193 B6E204C5 		.ascii	"\266\342\004\305\005\302\315V<\240xAd\263\225\034Pr"
ARM GAS  /tmp/cc6FwhuH.s 			page 15


 200      05C2CD56 
 200      3CA07841 
 200      64B3951C 
 200      5072
 201 01a5 41E49195 		.ascii	"A\344\221\225A\262\222O\024K\001\021\326ED\330\212\231"
 201      41B2924F 
 201      144B0111 
 201      D64544D8 
 201      8A99
 202 01b7 E162A2D8 		.ascii	"\341b\242\330K\300p\011\210\245 \036a\357JA)\003Q\316"
 202      4BC07009 
 202      88A5201E 
 202      61EF4A41 
 202      290351CE 
 203 01cb 562A40A9 		.ascii	"V*@\251\004\261\202\255T\201\262\022\304*\226h5$Z\003"
 203      04B182AD 
 203      5481B212 
 203      C42A9668 
 203      35245A03 
 204 01df 89AA2151 		.ascii	"\211\252!Q\0153\\\013\211\326\201\341\223 jA<\305\336"
 204      0D335C0B 
 204      89D681E1 
 204      93206A41 
 204      3CC5DE
 205 01f2 AD076503 		.ascii	"\255\007e\003\210gY\220\315\020d\013\004\331\012A\266"
 205      88675990 
 205      CD10640B 
 205      04D90A41 
 205      B6
 206 0203 81733D18 		.ascii	"\201s=\030\370\231K\003(\215 \232@\354\000\261\023D"
 206      F8994B03 
 206      288D209A 
 206      40EC00B1 
 206      1344
 207 0215 0844183C 		.ascii	"\010D\030<#D\360Qpo%\"\255\015\326\236\207\265vX\333"
 207      2344F051 
 207      706F2522 
 207      AD0DD69E 
 207      87B57658 
 208 022a 0D6B7B60 		.ascii	"\015k{`m/\254\355\203\265\027`\355E\"\034\373!\212\210"
 208      6D2FACED 
 208      83B51760 
 208      ED45221C 
 208      FB218A88 
 209 023e E1B103A4 		.ascii	"\341\261\003\244\231\034\220\031u\211\342\241\")\277"
 209      991C9019 
 209      7589E2A1 
 209      2229BF
 210 024d 1F9FA072 		.ascii	"\037\237\240r\200J\200\214\340|\311g\023\221\320\327"
 210      804A808C 
 210      E07CC967 
 210      1391D0D7 
 211 025d CF600EBE 		.ascii	"\317`\016\276M\223\250+v~ \315\217\177A\243\354E\337"
 211      4D93A82B 
 211      767E20CD 
 211      8F7F41A3 
 211      EC45DF
ARM GAS  /tmp/cc6FwhuH.s 			page 16


 212 0270 88DDA25B 		.ascii	"\210\335\242[\300\316\000\246\366\264\031\3501\247#"
 212      C0CE00A6 
 212      F6B419E8 
 212      31A723
 213 027f 04C6BF1D 		.ascii	"\004\306\277\035\300\222\361vl\211\267\346\024k\353"
 213      C092F176 
 213      6C89B7E6 
 213      146BEB
 214 028e 2CF96448 		.ascii	",\371dH\036WP\347d\347\354k&\331\305J\274\250\015\004"
 214      1E5750E7 
 214      64E7EC6B 
 214      26D9C54A 
 214      BCA80D04 
 215 02a2 9F446679 		.ascii	"\237Dfy\335\256\204r\005\260I\011\225\201\301G =\211"
 215      DDAE8472 
 215      05B04909 
 215      9581C147 
 215      203D89
 216 02b5 C650D73F 		.ascii	"\306P\327?\224\314vxi\216\357\317g\210\327T\016\335"
 216      94CC7678 
 216      698EEFCF 
 216      6788D754 
 216      0EDD
 217 02c7 CE988AD0 		.ascii	"\316\230\212\320\221\"\302\301\327\025\204N\342Em\270"
 217      9122C2C1 
 217      D715844E 
 217      E2456DB8 
 218 02d7 44842E03 		.ascii	"D\204.\003\204\034\370h\021\272t\020\362h\334B\021^"
 218      841CF868 
 218      11BA7410 
 218      F268DC42 
 218      115E
 219 02e9 5611BA53 		.ascii	"V\021\272SDxZE\350!^\324\206OD\3505@h\002\037-B\257"
 219      44785A45 
 219      E8215ED4 
 219      864F44E8 
 219      35406802 
 220 0301 0E4233FA 		.ascii	"\016B3\372\027\246\010\177\257\"\314\216G\310\033#|"
 220      17A6087F 
 220      AF22CC8E 
 220      47C81B23 
 220      7C
 221 0312 47459843 		.ascii	"GE\230C\274\250\015JD\230k\200\220\007\037-\302\\\035"
 221      BCA80D4A 
 221      44986B80 
 221      90071F2D 
 221      C25C1D
 222 0325 84167409 		.ascii	"\204\026t\011\232\2663vM\247i=\001f.\340L\204>D\007"
 222      9AB63376 
 222      4DA7693D 
 222      01662EE0 
 222      4C843E44 
 223 033a BEECBB78 		.ascii	"\276\354\273x\346\025\023\273\032\010\311\016d\250c"
 223      E61513BB 
 223      1A08C90E 
 223      64A863
 224 0349 F4324140 		.ascii	"\3642A@\012n\222H\260\2200\3361\261\257Z\300^\031VV"
ARM GAS  /tmp/cc6FwhuH.s 			page 17


 224      0A6E9248 
 224      B09030DE 
 224      31B1AF5A 
 224      C05E1956 
 225 035e 113C29EF 		.ascii	"\021<)\357\217\261\367\331\022\224+\350\302\265\341"
 225      8FB1F7D9 
 225      12942BE8 
 225      C2B5E1
 226 036d A1F7DFEA 		.ascii	"\241\367\337\352\305Jx\351a\344\346\317\256\233Lr\262"
 226      C54A78E9 
 226      61E4E6CF 
 226      AE9B4C72 
 226      B2
 227 037e 00414C3E 		.ascii	"\000AL>\333q\270\024\275-vu\304\216\366|\320\213y\001"
 227      DB71B814 
 227      BD2D7675 
 227      C48EF67C 
 227      D08B7901 
 228 0392 E71C4547 		.ascii	"\347\034EG\310\004&\250\037\200d\271\"\371\3604o.\215"
 228      C80426A8 
 228      1F8064B9 
 228      22F9F034 
 228      6F2E8D
 229 03a5 DF0037C4 		.ascii	"\337\0007\304\217\317I\200\257\240\0033\235.?~\217\026"
 229      8FCF4980 
 229      AFA00333 
 229      9D2E3F7E 
 229      8F16
 230 03b7 2642C2D1 		.ascii	"&B\302\321\375\375\232\354\3179\347\366\374\370,y\240"
 230      FDFD9AEC 
 230      CF39E7F6 
 230      FCF82C79 
 230      A0
 231 03c8 DB4171DB 		.ascii	"\333Aq\333\361\343wq\241\274\221\316\356\213\023\267"
 231      F1E37771 
 231      A1BC91CE 
 231      EE8B13B7 
 232 03d8 EF28A797 		.ascii	"\357(\247\227G\022\200\003_!%\276\336\367\3168/\277"
 232      47128003 
 232      5F2125BE 
 232      DEF7CE38 
 232      2FBF
 233 03ea CC2F43BF 		.ascii	"\314/C\277\004\320\337Q\340?\010\345\357\203\247\274"
 233      04D0DF51 
 233      E03F08E5 
 233      EF83A7BC 
 234 03fa 10966B97 		.ascii	"\020\226k\227\247\034n~\334\361\221`\327\206\317\336"
 234      A71C6E7E 
 234      DCF19160 
 234      D786CFDE 
 235 040a BA6C492A 		.ascii	"\272lI*\231x\342\244O\231`J\035{f\316x\260ZG\332L\001"
 235      9978E2A4 
 235      4F99604A 
 235      1D7B66CE 
 235      78B05A47 
 236 0421 6C93CA19 		.ascii	"l\223\312\031\205r\212bl\350OW\177\21692\035%]\\)\340"
 236      85728A62 
ARM GAS  /tmp/cc6FwhuH.s 			page 18


 236      6CE84F57 
 236      7F8E3932 
 236      1D255D5C 
 237 0437 02802602 		.ascii	"\002\200&\002\240B\2453\026\205\3508\003@\213Xyi\350"
 237      A042A533 
 237      1685E838 
 237      03408B58 
 237      7969E8
 238 044a 51285803 		.ascii	"Q(X\003\346\224g\011d\337\231\007\375\370wt\303\255"
 238      E6946709 
 238      64DF9907 
 238      FDF87774 
 238      C3AD
 239 045c 2C70840C 		.ascii	",p\204\014_%p\021\001\000\261l,\026=\356K\262?\251g"
 239      5F257011 
 239      0100B16C 
 239      2C163DEE 
 239      4BB23FA9 
 240 0471 CF4CAF5D 		.ascii	"\317L\257].Y\001\011\022wc\340F\344\312\357\026)\010"
 240      2E590109 
 240      127763E0 
 240      46E4CAEF 
 240      162908
 241 0484 BF1BC076 		.ascii	"\277\033\300v$\355-\237^\2121\230,\005\360\336&\340"
 241      24ED2D9F 
 241      5E8A3198 
 241      2C05F0DE 
 241      26E0
 242 0496 E20096DB 		.ascii	"\342\000\226\333\235\244\026\360b\212s\374\017Vi\021"
 242      9DA416F0 
 242      628A73FC 
 242      0F566911 
 243 04a6 0E857CBE 		.ascii	"\016\205|\276O\020)\030\037RB\227\204\350d\201\250%"
 243      4F102918 
 243      1F524297 
 243      84E86481 
 243      A825
 244 04b8 3AE7B21D 		.ascii	":\347\262\035J\002\227\376\257\352\245/Ni,uw\316\252"
 244      4A0297FE 
 244      AFEAA52F 
 244      4E692C75 
 244      77CEAA
 245 04cb 977EB1DC 		.ascii	"\227~\261\3346Ut\213\026y\275D\011\265$\200\035\352"
 245      3655748B 
 245      1679BD44 
 245      09B52480 
 245      1DEA
 246 04dd A567ADB6 		.ascii	"\245g\255\266X\300\017'\335\373\022\235{oE\331&:f\216"
 246      58C00F27 
 246      DDFB129D 
 246      7B6F45D9 
 246      263A668E 
 247 04f1 3F209B2D 		.ascii	"? \233-!0\365\270d\251\301\224\261\200\217v\312,\325"
 247      2130F5B8 
 247      64A9C194 
 247      B1808F76 
 247      CA2CD5
ARM GAS  /tmp/cc6FwhuH.s 			page 19


 248 0504 C96643D2 		.ascii	"\311fC\322\240\376\\\255\310#)\216\301So(\025)%^zc\260"
 248      A0FE5CAD 
 248      C823298E 
 248      C1536F28 
 248      1529255E 
 249 051b CC00A015 		.ascii	"\314\000\240\025|\264\000\313t\000\332\021G\247\340"
 249      7CB400CB 
 249      7400DA11 
 249      47A7E0
 250 052a F4418766 		.ascii	"\364A\207f\012.\015`'5\023\360\367\244\203\375j^\202"
 250      0A2E0D60 
 250      273513F0 
 250      F7A483FD 
 250      6A5E82
 251 053d 37AB04FF 		.ascii	"7\253\004\377\265\272\347\362x\353t\343=O\253{\256 "
 251      B5BAE7F2 
 251      78EB74E3 
 251      3D4FAB7B 
 251      AE20
 252 054f 5ED4C69C 		.ascii	"^\324\306\234\270\347J\203=\333\300G\273\347J\235=\247"
 252      B8E74A83 
 252      3DDBC047 
 252      BBE74A9D 
 252      3DA7
 253 0561 21899BFE 		.ascii	"!\211\233\376\255\002\\\221\342\241\334U\001V\021/\275"
 253      AD025C91 
 253      E2A1DC55 
 253      0156112F 
 253      BD
 254 0572 43596900 		.ascii	"CYi\000\320\016>Z\200+u\000\222\346\246\207\362\362"
 254      D00E3E5A 
 254      802B7500 
 254      92E6A687 
 254      F2F2
 255 0584 E0C25053 		.ascii	"\340\302PS\334\354.\202Wz\263\373\336H\250\355\376H"
 255      DCEC2E82 
 255      577AB3FB 
 255      DE48A8ED 
 255      FE48
 256 0596 E8D34412 		.ascii	"\350\323D\022\272A+\360<\011\267\260$\3243zW9\246U$"
 256      BA412BF0 
 256      3C09B7B0 
 256      24D4337A 
 256      5739A655 
 257 05ab 4102097D 		.ascii	"A\002\011}uC%\241\325\337\036\011M\214\016\031\223P"
 257      754325A1 
 257      D5DF1E09 
 257      4D8C0E19 
 257      9350
 258 05bd FBC290D0 		.ascii	"\373\302\220\320\3558\022\272\235DB3t\303\273\015H\250"
 258      ED3812BA 
 258      9D444233 
 258      74C3BB0D 
 258      48A8
 259 05cf 5D43425F 		.ascii	"]CB_\304\221\320\304\350a\205\204\326\220 F$T\255GB"
 259      C491D0C4 
 259      E8618584 
ARM GAS  /tmp/cc6FwhuH.s 			page 20


 259      D6902046 
 259      2454AD47 
 260 05e4 AB55125A 		.ascii	"\253U\022Z\243GB\355\013MB\325\322\370\371\311\240r"
 260      A34742ED 
 260      0B4D42D5 
 260      D2F8F9C9 
 260      A072
 261 05f6 C76A521A 		.ascii	"\307jR\032?\335\235\347\336T\332f\255\3346I$\264\316"
 261      3FDD9DE7 
 261      DE54DA66 
 261      ADDC3649 
 261      24B4CE
 262 0609 8084D2A4 		.ascii	"\200\204\322\244V[\253%\241u:\027\234\214U\211\204\316"
 262      565BAB25 
 262      A1753A17 
 262      9C8C5589 
 262      84CE
 263 061b E7CB664F 		.ascii	"\347\313fO\022\230z$Tk0N\034\340\243\035'\265:\331\322"
 263      12987A24 
 263      546B304E 
 263      1CE0A31D 
 263      27B53AD9 
 264 0630 91F4EB59 		.ascii	"\221\364\353Y\237Z\221\247R\234w7\325\212\254'^z\363"
 264      9F5A91A7 
 264      529C7737 
 264      D58AAC27 
 264      5E7AF3
 265 0643 6E830140 		.ascii	"n\203\001@'\370h\001n\320\001\350b\363\356\310K\363"
 265      27F86801 
 265      6ED001E8 
 265      62F3EEC8 
 265      4BF3
 266 0655 91106993 		.ascii	"\221\020i\223\211\341;\267~\365C\315\365\232<aVo\227"
 266      89E13BB7 
 266      7EF543CD 
 266      F59A3C61 
 266      566F97
 267 0668 0B1CD89D 		.ascii	"\013\034\330\235:\374\347\231\006\362\373\255\322I*"
 267      3AFCE799 
 267      06F2FBAD 
 267      D2492A
 268 0677 FF968628 		.ascii	"\377\226\206(^\000T\312Z\237\207\030\0078\263\014 \366"
 268      5E0054CA 
 268      5A9F8718 
 268      0738B30C 
 268      20F6
 269 0689 D9CD8F38 		.ascii	"\331\315\2178\311R\231G\206\030z\246\356\013\003\257"
 269      C9529947 
 269      86187AA6 
 269      EE0B03AF 
 270 0699 87A13B0E 		.ascii	"\207\241;\016\303\301[\014\003\257`\230D/\375s|\342"
 270      C3C15B0C 
 270      03AF6098 
 270      442FFD73 
 270      7CE2
 271 06ab C6E7264D 		.ascii	"\306\347&M\035\246.\306a\310\220*\254d{4\200\335~\374"
 271      1DA62EC6 
ARM GAS  /tmp/cc6FwhuH.s 			page 21


 271      61C8902A 
 271      AC647B34 
 271      80DD7EFC 
 272 06bf 2A679657 		.ascii	"*g\226Wm\011{\333\213\366\020\224\362\357\374t\011\200"
 272      6D097BDB 
 272      8BF61094 
 272      F2EFFC74 
 272      0980
 273 06d1 95E1C4E6 		.ascii	"\225\341\304\346X6G\376\236\217\347\317\17789?\237\224"
 273      583647FE 
 273      9E8FE7CF 
 273      7F38393F 
 273      9F94
 274 06e3 7F20293F 		.ascii	"\177 )?\257\223\2773v\352\377\226\035\367\334\037;\276"
 274      AF93BF33 
 274      76EAFF96 
 274      1DF7DC1F 
 274      3BBE
 275 06f5 C925B0E3 		.ascii	"\311%\260\343Q\016\356\313^\022n\201\331\361\252\312"
 275      510EEECB 
 275      5E126E81 
 275      D9F1AACA 
 276 0705 8ECF9204 		.ascii	"\216\317\222\004\011\354\370\233i\225\0357\177\213\354"
 276      09ECF89B 
 276      69951D37 
 276      7F8BEC
 277 0714 78750E76 		.ascii	"xu\016v\334\2670\354x\222S\331\361$\227\310\216\203"
 277      DCB730EC 
 277      789253D9 
 277      F12497C8 
 277      8E83
 278 0726 B4D62F18 		.ascii	"\264\326/\030\260\343>\015;\276\305\305\261\343U\225"
 278      B0E33E0D 
 278      3BBEC5C5 
 278      B1E35595 
 279 0736 1DB79020 		.ascii	"\035\267\220 F\354\270U\217\0357\253\354\270EeG\217"
 279      46ECB855 
 279      8F1D37AB 
 279      ECB84565 
 279      478F
 280 0748 7221BE11 		.ascii	"r!\276\021s\005\354+D}&\371\217\012\354\325B\263\346"
 280      7305EC2B 
 280      447D26F9 
 280      8F0AECD5 
 280      42B3E6
 281 075b 5689354F 		.ascii	"V\2115O\313\034\221\370\023~\246\342#\377\204O\011\363"
 281      CB1C91F8 
 281      137EA6E2 
 281      23FF844F 
 281      09F3
 282 076d D3634A27 		.ascii	"\323cJ'm\223;)\2110\353\015\0103]\352\276mZ\302\254"
 282      6D933B29 
 282      8930EB0D 
 282      08335DEA 
 282      BE6D5AC2 
 283 0782 D761880C 		.ascii	"\327a\210\014Fa\357\252\024\346O\221\302\246U\214\015"
 283      4661EFAA 
ARM GAS  /tmp/cc6FwhuH.s 			page 22


 283      14E64F91 
 283      C2A6558C 
 283      0D
 284 0793 C44B8FC2 		.ascii	"\304K\217\302\032\015(\314\005>Z\012k\324\001\350f\024"
 284      1A0D28CC 
 284      053E5A0A 
 284      6BD401E8 
 284      6614
 285 07a5 766E5E0A 		.ascii	"vn^\012\233D\007c\303\227\264\243ky@\372\213QjsY\300"
 285      9B440763 
 285      C397B4A3 
 285      6B7940FA 
 285      8B516A73 
 286 07bb E53454FF 		.ascii	"\3454T\377yk*\221\346\230\2604\022\275\255w\3768|V3"
 286      796B2A91 
 286      E698B034 
 286      12BDAD77 
 286      FE387C56 
 287 07d0 E17A3E79 		.ascii	"\341z>yL\275\227YR\257\274(\323\332\033\237\015a\363"
 287      4CBD9759 
 287      52AFBC28 
 287      D3DA1B9F 
 287      0D61F3
 288 07e3 BD91EB05 		.ascii	"\275\221\353\005\345\346\374\005\206\334\373\364\342"
 288      E5E6FC05 
 288      86DCFBF4 
 288      E2
 289 07f0 ED273119 		.ascii	"\355'1\031\331}\360\005\326\362\355\260r\204M\3048\341"
 289      D97DF005 
 289      D6F2EDB0 
 289      72844DC4 
 289      38E1
 290 0802 EC76189C 		.ascii	"\354v\030\234]\006\030k\317n\207\316\331y\350OcF\005"
 290      5D06186B 
 290      CF6E87CE 
 290      D979E84F 
 290      634605
 291 0815 98D02980 		.ascii	"\230\320)\200\210S\253\200.\265\217'V`\214V\240\003"
 291      8853AB80 
 291      2EB58F27 
 291      56608C56 
 291      A003
 292 0827 43545683 		.ascii	"CTV\203\277\261\032\360\3725\330\011\346\011E\010\031"
 292      BFB11AF0 
 292      FA35D809 
 292      E6094508 
 292      19
 293 0838 14C10DD6 		.ascii	"\024\301\015\326\332\"\204t\212\220I\213pa\232\223\214"
 293      DA228474 
 293      8A90498B 
 293      70619A93 
 293      8C
 294 0849 A466AB44 		.ascii	"\244f\253DCb7\374W\022\205\020\367r \351\245\024\303"
 294      436237FC 
 294      57128510 
 294      F77220E9 
 294      A514C3
ARM GAS  /tmp/cc6FwhuH.s 			page 23


 295 085c 4BFF2700 		.ascii	"K\377'\000\014\377~\032\317\021g\347\334a\262h\230\217"
 295      0CFF7E1A 
 295      CF1167E7 
 295      DC61B268 
 295      988F
 296 086e 50874D05 		.ascii	"P\207M\005\270\211\314p\262\0123\314\347kj\011\005}"
 296      B889CC70 
 296      B20A33CC 
 296      E76B6A09 
 296      057D
 297 0880 8196C6DD 		.ascii	"\201\226\306\335\276\306`\233/\320$4\010-\021_4\334"
 297      BEC6609B 
 297      2FD02434 
 297      082D115F 
 297      34DC
 298 0892 BA6BA72F 		.ascii	"\272k\247/\032\214D}\341(\375\016\266E\227\005\020\016"
 298      1A8C447D 
 298      E128FD0E 
 298      B6459705 
 298      100E
 299 08a4 9982CDE5 		.ascii	"\231\202\315\345\344_\205#\352\017o\017F\353\243B(X"
 299      E45F8523 
 299      EA0F6F0F 
 299      46EBA342 
 299      2858
 300 08b6 3D6714F2 		.ascii	"=g\024\362\020l\217\372j\3526\326n\364\011\273\002\315"
 300      106C8FFA 
 300      6AEA36D6 
 300      6EF409BB 
 300      02CD
 301 08c8 AD8D601B 		.ascii	"\255\215`\033\016\326\007B\353Zw\005\2265!w\335\306"
 301      0ED60742 
 301      EB5A7705 
 301      96352177 
 301      DDC6
 302 08da A78B1AFC 		.ascii	"\247\213\032\374\221\340sa\341\321\242\222\345\210\013"
 302      91E07361 
 302      E1D1A292 
 302      E5880B
 303 08e9 236B2818 		.ascii	"#k(\030j\011\357F5\363\005o\3627\373\236k\011G#\276"
 303      6A09EF46 
 303      35F3056F 
 303      F237FB9E 
 303      6B094723 
 304 08fe 8D9BEA1E 		.ascii	"\215\233\352\036\253\360\255_\277\326\267\251\266\256"
 304      ABF0AD5F 
 304      BFD6B7A9 
 304      B6AE
 305 090c ADDC1789 		.ascii	"\255\334\027\211\326777\222\370\217\317\027\203lR\012"
 305      D6373737 
 305      92F88FCF 
 305      17836C52 
 305      0A
 306 091d F1C4D375 		.ascii	"\361\304\323u5u\355\304\200\002\204\315\205\211\177"
 306      3575EDC4 
 306      800284CD 
 306      85897F
ARM GAS  /tmp/cc6FwhuH.s 			page 24


 307 092c 550AFECA 		.ascii	"U\012\376\312\316\232\242M\341\240\2771B\374V\334\223"
 307      CE9AA24D 
 307      E1A0BF31 
 307      42FC56DC 
 307      93
 308 093d 5FB02DB8 		.ascii	"_\260-\270+\012n\334\023\350\177T\030\004,"
 308      2B0A6EDC 
 308      13E87F54 
 308      18042C
 309              		.text
 310              		.section	.gnu.lto_thread1.f88661e0708021cf,"",%progbits
 311 0000 789C6362 		.ascii	"x\234cb`b@\007\222@\274\007\210\015\201\230\221\231"
 311      60624007 
 311      9240BC07 
 311      880D8198 
 311      9199
 312 0012 819169C2 		.ascii	"\201\221i\3029\006\206F\016&FF\020\203\201\221\241\236"
 312      39068646 
 312      0E264646 
 312      10838191 
 312      A19E
 313 0024 89B13E92 		.ascii	"\211\261>\222\021\254v=\323\201\007\377\377\257\233"
 313      11AC763D 
 313      D38107FF 
 313      FFAF9B
 314 0033 756AFE1A 		.ascii	"uj\376\032\306\225L\254\314\214\271`qV\206\226\206\206"
 314      C6954CAC 
 314      CC8CB960 
 314      71568696 
 314      8686
 315 0045 090A0C0C 		.ascii	"\011\012\014\014\311`n\010\220\004\351\015ed\002\321"
 315      C9606E08 
 315      9004E90D 
 315      656402D1 
 316 0055 CCE7195A 		.ascii	"\314\347\031Z\036\364\247&2.dd\005\312V3\374j\350h\020"
 316      1EF4A726 
 316      322E6464 
 316      05CA5633 
 316      FC6AE868 
 317 006a C86404AA 		.ascii	"\310d\004\252\206\230\032\301\230\311\310h\304\220\011"
 317      86981AC1 
 317      98C9C868 
 317      C49009
 318 0079 54CE709E 		.ascii	"T\316p\236\241\365\301\214\243\354\030\212\231\223\031"
 318      A1F5C18C 
 318      A3EC188A 
 318      999319
 319 0088 214E4F67 		.ascii	"!NOgd\006\251ga\004\252\007\252\270\310\320\370`&\324"
 319      6406A967 
 319      6104AA07 
 319      AAB8C8D0 
 319      F86026D4 
 320 009c 6C90381B 		.ascii	"l\2208\033\314[!@\303\201\226\2034\351\353g\344\347"
 320      CC5B2140 
 320      C3819683 
 320      34E9EB67 
 320      E4E7
ARM GAS  /tmp/cc6FwhuH.s 			page 25


 321 00ae A6EA27E7 		.ascii	"\246\352'\347\247T\352\247\244\226\351'gd&e\346\027"
 321      A754EAA7 
 321      A496E927 
 321      67642665 
 321      E617
 322 00c0 EB971495 		.ascii	"\353\227\024\225\346e\353\227\244\026\227\350\027\225"
 322      E665EB97 
 322      A41697E8 
 322      1795
 323 00ce 80E9D4B2 		.ascii	"\200\351\324\262\022\275d\006\000\011\343@q"
 323      12BD6406 
 323      0009E340 
 323      71
 324              		.text
 325              		.section	.gnu.lto_thread2.f88661e0708021cf,"",%progbits
 326 0000 789C8590 		.ascii	"x\234\205\220\275J\003A\024\205\317\235\270&\245\235"
 326      BD4A0341 
 326      1485CF9D 
 326      B826A59D 
 327 0010 D8F90419 		.ascii	"\330\371\004\031\260\360\035\354#h\031g\007v\320\354"
 327      B0F01DEC 
 327      23681967 
 327      0776D0EC 
 328 0020 4276B220 		.ascii	"Bv\262 \026\331@\004;\203/ b\023Rhk!\222Z!\213\340\003"
 328      16D94004 
 328      3B832F20 
 328      62135268 
 328      6B21925A 
 329 0038 6C6D953A 		.ascii	"lm\225:M\274\263\273*\004\177\006f\356\345\334o\016"
 329      4DBCB3BB 
 329      2A047F06 
 329      66EEE5DC 
 329      6F0E
 330 004a 872B20B0 		.ascii	"\207+ \260z\266\370\356\021\020p\245\032H\214f\300\240"
 330      7AB6F8EE 
 330      111070A5 
 330      1A488C66 
 330      C0A0
 331 005c 21885C03 		.ascii	"!\210\\\003B_P\377\220\012\366^L\363\345\362\356\341"
 331      425F50FF 
 331      900AF65E 
 331      4CF3E5F2 
 331      EEE1
 332 006e F9FA9126 		.ascii	"\371\372\221&\242\316\212\207a\232\216\266\001U\020"
 332      A2CE8A87 
 332      619A8EB6 
 332      015510
 333 007d 2D7EDDB7 		.ascii	"-~\335\267}\022\256\3262\234\317\337\237.7\277\260\262"
 333      7D12AED6 
 333      329CCFDF 
 333      9F2E37BF 
 333      B0B2
 334 008f 99BE6457 		.ascii	"\231\276dW\036\320\246\033\362\370gi\2163,\322\213t"
 334      1ED0A61B 
 334      F2F86769 
 334      8E332CD2 
 334      8B74
ARM GAS  /tmp/cc6FwhuH.s 			page 26


 335 00a1 C3104BA2 		.ascii	"\303\020K\242M\267<\253\324\206!\352P\305\343\200\014"
 335      4DB73CAB 
 335      D48621EA 
 335      50C5E380 
 335      0C
 336 00b2 DBC3705A 		.ascii	"\333\303pZd\030\346c]\015\276\035\326\224\033\242d\275"
 336      6418E663 
 336      5D0DBE1D 
 336      D6941BA2 
 336      64BD
 337 00c4 1D66D71D 		.ascii	"\035f\327\035\373K\230\267\377\303\214W\303\320\017"
 337      FB4B98B7 
 337      FFC38C57 
 337      C3D00F
 338 00d3 615E31C8 		.ascii	"a^1\310'U\030\247\327?w\334bW^\207[\276\224A\324\321"
 338      275518A7 
 338      D73F77DC 
 338      62575E87 
 338      5BBE9441 
 339 00e9 5245FEA9 		.ascii	"RE\376\251\364u\"U`\216L\024K\333\355\205\307\322\352"
 339      F4752255 
 339      608E4C14 
 339      4BDBED85 
 339      C7D2EA
 340 00fc D8CAAE2D 		.ascii	"\330\312\256-\252NlSa\367O\236\033\246M\250Nz>C\201"
 340      AA4E6C53 
 340      61F74F9E 
 340      1BA64DA8 
 340      4E7A3E43 
 341 0111 4E7468E3 		.ascii	"Nth\343f\200\017\004\312x\271"
 341      66800F04 
 341      CA78B9
 342              		.text
 343              		.section	.gnu.lto_evt3_execute.part.0.f88661e0708021cf,"",%progbits
 344 0000 789C8592 		.ascii	"x\234\205\222=K\003A\020\206g\366+1\012\352\037\220"
 344      3D4B0341 
 344      108667F6 
 344      2B310AEA 
 344      1F90
 345 0012 E00F7041 		.ascii	"\340\017pA\177\205}\002Z\306\313\241\207\304\2009\003"
 345      7F857D02 
 345      5AC6CBA1 
 345      87C48039 
 345      03
 346 0023 62919544 		.ascii	"b\221\225D\260\014v\021\021E\021\264\261Oei\243\301"
 346      B00C7611 
 346      114511B4 
 346      B14F6569 
 346      A3C1
 347 0035 C63A8D9D 		.ascii	"\306:\215\235`)\212p\316n>.\232\204,\334\2743s\373\316"
 347      60298A70 
 347      CE6E3E2E 
 347      9A842CDC 
 347      BC3373FB 
 348 004a 3EDC1E03 		.ascii	">\334\036\003\006\377\327*=7\324^!\305\004\240\252?"
 348      06FFD72A 
 348      3D37D45E 
ARM GAS  /tmp/cc6FwhuH.s 			page 27


 348      21C504A0 
 348      AA3F
 349 005c 53A29039 		.ascii	"S\242\2209eL\276j0)\336\\\0003\303\273\225p\225@i\367"
 349      654CBE6A 
 349      3029DE5C 
 349      0033C3BB 
 349      95709540 
 350 0072 1C2625A2 		.ascii	"\034&%\242M\000\241\242\030\027\022+\353hG\343\"\\\032"
 350      4D00A1A2 
 350      1817122B 
 350      EB6847E3 
 350      225C1A
 351 0085 73D27E8B 		.ascii	"s\322~\213\276\260a\036j\027\346'\212\020\003$\214e"
 351      BEB0611E 
 351      6A17E627 
 351      8A100324 
 351      8C65
 352 0097 040F618D 		.ascii	"\004\017a\215\012L;a\342/\327=3\355(j\334\245\346\021"
 352      0A4C3B61 
 352      E22FD73D 
 352      33ED286A 
 352      DCA5E611 
 353 00ab 727849B3 		.ascii	"rxI\263\030\004\310\271\015\242\333\221\266P6$\272\235"
 353      1804C8B9 
 353      0DA2DB91 
 353      B6503624 
 353      BA9D
 354 00bd A42DC82D 		.ascii	"\244-\310-\241fL=\335i\202=\212V\206\242\005\315\240"
 354      A1664C3D 
 354      DD69823D 
 354      8A5686A2 
 354      05CDA0
 355 00d0 B2CAB3C8 		.ascii	"\262\312\263\310\234\266\340\250}z\2139\274B\011\233"
 355      9CB6E0A8 
 355      7D7A8B39 
 355      BC42099B 
 356 00e0 8807F06D 		.ascii	"\210\007\360m\216\315\\\200\302Cgt\2002\2425\353R\225"
 356      8ECD5C80 
 356      C2436774 
 356      8032A235 
 356      EB5295
 357 00f3 A2631200 		.ascii	"\242c\022\000OPmU?\256y\317\311\310\354\266ZO\013d\257"
 357      4F506D55 
 357      3FAE79CF 
 357      C9C8ECB6 
 357      5A4F0B64 
 358 0108 CFFB1393 		.ascii	"\317\373\023\223\036\262\376\304)a=\001\246\000\036"
 358      1EB2FEC4 
 358      29613D01 
 358      A6001E
 359 0117 A1F6DE07 		.ascii	"\241\366\336\007\340\366%\037\374\030Y*\233\013\016"
 359      E0F6251F 
 359      FC18592A 
 359      9B0B0E
 360 0126 F42C0615 		.ascii	"\364,\006\025\203\240|\"\350g\014*\311<\012T\215\001"
 360      83A07C22 
 360      E8670C2A 
ARM GAS  /tmp/cc6FwhuH.s 			page 28


 360      C93C0A54 
 360      8D01
 361 0138 759E6150 		.ascii	"u\236aP5\002T\300\307\264\003=\217A\023\203\240b\"h"
 361      350254C0 
 361      C7B4033D 
 361      8F411383 
 361      A0622268 
 362 014c 148326C9 		.ascii	"\024\203&\311<\014\0120\206SY\213\343\354\300Hw\277"
 362      3C0C0A30 
 362      8653598B 
 362      E3ECC048 
 362      77BF
 363 015e 2FF48FC6 		.ascii	"/\364\217\306\210\031\272S\352Z\227\326[\305\202\257"
 363      8819BA53 
 363      EA5A97D6 
 363      5BC582AF 
 364 016e BD627E5F 		.ascii	"\275b~_\347\375\262\366\266\202\215\240X\322\341\356"
 364      E7FDB2F6 
 364      B6828DA0 
 364      58D2E1EE 
 365 017e DECEB60E 		.ascii	"\336\316\266\016\375R\250wC\247~9\\\362\000\013\277"
 365      FD52A877 
 365      43A77E39 
 365      5CF2000B 
 365      BF
 366 018f 9BC7AD16 		.ascii	"\233\307\255\026"
 367              		.text
 368              		.section	.gnu.lto_evt3_execute.f88661e0708021cf,"",%progbits
 369 0000 789C8593 		.ascii	"x\234\205\223\277/\004A\024\307\337\233\231\035{\326"
 369      BF2F0441 
 369      14C7DF9B 
 369      991D7BD6 
 370 0010 8F4BA845 		.ascii	"\217K\250E\374\001&\341\017\321\220P\262.l\204KX\022"
 370      FC0126E1 
 370      0FD19050 
 370      B22E6C84 
 370      4B5812
 371 0023 5118B993 		.ascii	"Q\030\271\223(DDEwBA\245\224h(5\034\215\372\"\021\215"
 371      28444445 
 371      774241A5 
 371      94682835 
 371      1C8DFA22 
 372 0039 449444B2 		.ascii	"D\224D\262\336\233\373\261\207\023\223\354{\373}3\337"
 372      DE9BFBB1 
 372      871393EC 
 372      7BFB7D33 
 372      DF
 373 004a F73ED9CC 		.ascii	"\367>\331\314\012\020\360s\215\320\363F\345a\312\330"
 373      0A10F073 
 373      8DD0F346 
 373      E561CAD8 
 374 005a 0628766F 		.ascii	"\006(vo\0016|!\364\203\001\333./\372\300v\310\232RN"
 374      01367C21 
 374      F48301DB 
 374      2E2FFAC0 
 374      76C89A52 
 375 006f A99AF29C 		.ascii	"\251\232\362\234\362P\263\0055\"g@X\027Ry\032\327'\220"
ARM GAS  /tmp/cc6FwhuH.s 			page 29


 375      F250B305 
 375      35226740 
 375      58175279 
 375      1AD72790 
 376 0083 07E0001C 		.ascii	"\007\340\000\034Z\273WyJ\336\361\300^\025K\3663I\020"
 376      5ABB5779 
 376      4ADEF1C0 
 376      5E154BF6 
 376      334910
 377 0096 23249821 		.ascii	"#$\230!\204\020a\234\004\366\273$\324w\2723qUI\222\227"
 377      8410619C 
 377      04F6BB24 
 377      D477BA33 
 377      71554992 
 378 00ab A4F47882 		.ascii	"\244\364x\202\275=\022&\361\220\372)\210Pj\016~\255"
 378      BD3D1226 
 378      F190FA29 
 378      88506A0E 
 378      7EAD
 379 00bd 92611170 		.ascii	"\222a\021p\350\254U\272Xd9P\033\017\212\326\356\366"
 379      E8AC55BA 
 379      58643950 
 379      1B0F8AD6 
 379      EEF6
 380 00cf 57778067 		.ascii	"Ww\200g\322\032\245\310\304c(8\3132lV\266Oq\022\217"
 380      D21AA5C8 
 380      C4632838 
 380      CB326C56 
 380      B64F7112 
 381 00e4 D0831994 		.ascii	"\320\203\031\224k\360a\267l6B\025\24238B/\241\325\355"
 381      6BF061B7 
 381      6C364215 
 381      A2333842 
 381      2FA1D5ED 
 382 00f8 5E3550FB 		.ascii	"^5P\3736\200\033(\224\013\347\307\262\356TdvG\331S\006"
 382      36801B28 
 382      940BE7C7 
 382      B2EE5464 
 382      7647D953 
 383 010d AF5ED78D 		.ascii	"\257^\327\215\216~\210\242\3211\203\354\211\260\035"
 383      8E7E88A2 
 383      D13183EC 
 383      89B01D
 384 011c E01A8A2F 		.ascii	"\340\032\212/\015\000\315\233\262\371k\214\221\274\350"
 384      0D00CD9B 
 384      B2F96B8C 
 384      91BCE8
 385 012b 73A03B29 		.ascii	"s\240;)\250\337\014*\377\005\275LA3dn\005\032\374\001"
 385      A8DF0C2A 
 385      FF05BD4C 
 385      4133646E 
 385      051AFC01 
 386 013f 2AD8F31B 		.ascii	"*\330\363\0334h\001\252\3405p\240\373)hg3\250\372\027"
 386      346801AA 
 386      E03570A0 
 386      FB296867 
 386      33A8FA17 
ARM GAS  /tmp/cc6FwhuH.s 			page 30


 387 0153 F43905ED 		.ascii	"\3649\005\355\"s+\320\354\037\240\222=\277A\263-@=\270"
 387      22732BD0 
 387      EC1FA092 
 387      3DBF41B3 
 387      2D403DB8 
 388 0167 53045AF0 		.ascii	"S\004Z\360\253\207\000\032-\203\260:\217\220:\352\247"
 388      AB87001A 
 388      2D83B03A 
 388      8F903AEA 
 388      A7
 389 0178 B5BB29F7 		.ascii	"\265\273)\367\364\203\244=F\351vP\225\307\0333\233\237"
 389      F483A43D 
 389      46E97650 
 389      95C71B33 
 389      9B9F
 390 018a CF99303F 		.ascii	"\317\2310?\275j\246s+&\234\215\246\242\374\222\211\027"
 390      BD6AA673 
 390      2B269C8D 
 390      A6A2FC92 
 390      8917
 391 019c 9717E64C 		.ascii	"\227\027\346L\234[\212\315b\354rn%\036\014\001\347\277"
 391      9C5B8ACD 
 391      62EC726E 
 391      251E0C01 
 391      E7BF
 392 01ae 004B62BD 		.ascii	"\000Kb\275f"
 392      66
 393              		.text
 394              		.section	.gnu.lto_.symbol_nodes.f88661e0708021cf,"",%progbits
 395 0000 789C4D91 		.ascii	"x\234M\221Io\023A\020F\353\233\366\330\0360\330C\300"
 395      496F1341 
 395      1046EB9B 
 395      F6D81E30 
 395      D843C0
 396 0013 8E97C409 		.ascii	"\216\227\304\011\213Y\316H\234\3701$\022\276%\022Hp"
 396      8B59CE48 
 396      9CF83124 
 396      12BE2512 
 396      4870
 397 0025 AC889692 		.ascii	"\254\210\226\222\220\023\342LNsb_\303\276\017$\020\300"
 397      9013E24C 
 397      4E73625F 
 397      C3BE0F24 
 397      10C0
 398 0037 4180C215 		.ascii	"A\200\302\025d\301\317@tuO\322\343C\275y\335U_\317\264"
 398      64C1CF40 
 398      74754FD2 
 398      E343BD79 
 398      DD555FCF 
 399 004c 030AE844 		.ascii	"\003\012\350D\201\334/\270\015\016\350\322\200\210\371"
 399      81DC2FB8 
 399      0D0EE8D2 
 399      8088F9
 400 005b CAC553C1 		.ascii	"\312\305S\301-\260\312\351Mp!\247w\301\241\327\360\032"
 400      2DB0CAE9 
 400      4D7021A7 
 400      77C1A1D7 
ARM GAS  /tmp/cc6FwhuH.s 			page 31


 400      F01A
 401 006d 506015DE 		.ascii	"P`\025\336\001\031\0047\300\305\\\357}p)\247\217\301"
 401      01190437 
 401      C0C55CEF 
 401      7D7029A7 
 401      8FC1
 402 007f E59C3E04 		.ascii	"\345\234>\004G\271\244U(b\012\277\242`\020<\000#\267"
 402      47B9A455 
 402      28620ABF 
 402      A260103C 
 402      0023B7
 403 0092 F901A16C 		.ascii	"\371\001\241l^G \307\254\200)\027\364\027\274#\323\345"
 403      5E4720C7 
 403      AC802917 
 403      F417BC23 
 403      D3E5
 404 00a4 45044FC0 		.ascii	"E\004O\300;s\243\317P\014\315\350=\224\004\217P\026"
 404      3B73A3CF 
 404      500CCDE8 
 404      3D94048F 
 404      5016
 405 00b6 3C456480 		.ascii	"<Ed\200\327\340\212k\235\233\003^\201wy{\011\336\355"
 405      D7E08A6B 
 405      9D9B035E 
 405      8177797B 
 405      09DEED
 406 00c9 ED39B8EA 		.ascii	"\3559\270\352\355\005\270\346\355\0158\366\366\026\274"
 406      ED05B8E6 
 406      ED0D38F6 
 406      F616BC
 407 00d8 C7DB3A78 		.ascii	"\307\333:x\304\333G\360^o\237\301\373\274\255\201\353"
 407      C4DB47F0 
 407      5E6F9FC1 
 407      FBBCAD81 
 407      EB
 408 00e9 DEDE831B 		.ascii	"\336\336\203\033\336>\201G\275\245\340\246\267w\340"
 408      DE3E8147 
 408      BDA5E0A6 
 408      B777E0
 409 00f8 96B70D70 		.ascii	"\226\267\015p\333\333\027p\307\333\000<\346\355\033"
 409      DBDB1770 
 409      C7DB003C 
 409      E6ED1B
 410 0107 78DCDB77 		.ascii	"x\334\333wp\327\333\017\360\304\266)\252\223\376\365"
 410      70D7DB0F 
 410      F0C4B629 
 410      AA93FEF5 
 411 0117 0F0A1983 		.ascii	"\017\012\031\203\214\252MI\306\324\262I\311oa\213\206"
 411      8CAA4D49 
 411      C6D4B249 
 411      C96F618B 
 411      86
 412 0128 577BA2E9 		.ascii	"W{\242\351\374\237\202\250^\330\264\333zI8J\351RG\251"
 412      FC9F82A8 
 412      5ED8B4DB 
 412      7A49384A 
 412      E95247A9 
ARM GAS  /tmp/cc6FwhuH.s 			page 32


 413 013c 060D0D8A 		.ascii	"\006\015\015\212\035\027V\312X\316\030\035\310x\320"
 413      1D1756CA 
 413      58CE181D 
 413      C878D0
 414 014b 1D123569 		.ascii	"\035\0225i\270\345&\\T`l~\323\355Zv(Y\350X\025LR\262"
 414      B8E5265C 
 414      54606C7E 
 414      D3ED5A76 
 414      2859E858 
 415 0163 AE543441 		.ascii	"\256T4A\303\201\262\275\033\006\3434\024\230\267\273"
 415      C381B2BD 
 415      1B06E334 
 415      1498B7BB 
 416 0173 6C07F488 		.ascii	"l\007\364\210\025S\307H\327\345\340\304\324\375\224"
 416      1553C748 
 416      D7E5E0C4 
 416      D4FD94
 417 0182 D6655D37 		.ascii	"\326e]7\244'm\330\347\226D\246-I\324]\333\323\225<="
 417      A4276DD8 
 417      E79644A6 
 417      2D49D45D 
 417      DBD3953C 
 418 0197 654F9CB2 		.ascii	"eO\234\262\307O\333\347iIKN\253\250M\272/5\351\333\331"
 418      C74FDBE7 
 418      69494B4E 
 418      ABA84DBA 
 418      2F35E9DB 
 419 01ac BE9D9D51 		.ascii	"\276\235\235QQ\227\322\031;;k\363gm\376\031\231JM57"
 419      5197D219 
 419      3B3B6BF3 
 419      676DFE19 
 419      994A4D35 
 420 01c1 68AB3E6B 		.ascii	"h\253>k\327\317IM\316\253J\317]J\345\220\273\224\352"
 420      D7CF494D 
 420      CEAB4ACF 
 420      5D4AE590 
 420      BB94EA
 421 01d4 61E7D5DE 		.ascii	"a\347\325\336\266\333\177\242f\276g\365g\240j\307H["
 421      B6DB7FA2 
 421      66BE67F5 
 421      67A06AC7 
 421      485B
 422 01e6 1A5F39AE 		.ascii	"\032_9\256jGI\013\232Y\327\0217\035o1[\217][\354\206"
 422      6A47490B 
 422      9A59D711 
 422      371D6F31 
 422      5B8F5D5B 
 423 01fc E22C23CE 		.ascii	"\342,#\3162\343\032]X;I\377\001\015\313,K"
 423      32E31A5D 
 423      583B49FF 
 423      010DCB2C 
 423      4B
 424              		.text
 425              		.section	.gnu.lto_.refs.f88661e0708021cf,"",%progbits
 426 0000 789C5D8B 		.ascii	"x\234]\213\333\016\2000\010CKq\352\324m\361\226\370"
 426      DB0E8030 
 426      08434B71 
ARM GAS  /tmp/cc6FwhuH.s 			page 33


 426      EAD46DF1 
 426      96F8
 427 0012 B7FEBA80 		.ascii	"\267\376\272\200\361EHJ\351\001\202\270\361VQ\351\030"
 427      F145484A 
 427      E90182B8 
 427      F15651E9 
 427      18
 428 0023 8DBF2627 		.ascii	"\215\277&'\232H\012qeL\230\271H\371\246S\251\254vY#"
 428      9A480A71 
 428      654C98B9 
 428      48F9A653 
 428      A9AC7659 
 429 0038 6B52C2FB 		.ascii	"kR\302\373\277\345\301\232'\272q\347\301\323\264\247"
 429      BFE5C19A 
 429      27BA71E7 
 429      C1D3B4A7 
 430 0048 9A1B986D 		.ascii	"\232\033\230m\033\271\342\001\332\037\003J"
 430      1BB9E201 
 430      DA1F034A 
 431              		.text
 432              		.section	.gnu.lto_.decls.f88661e0708021cf,"",%progbits
 433 0000 789CBD5C 		.ascii	"x\234\275\\yt\024u\236\257\252\356\316Ab\010\240\014"
 433      79741475 
 433      9EAFAAEE 
 433      CE416208 
 433      A00C
 434 0012 A3BB63F4 		.ascii	"\243\273c\364\315\354sg\035\302\341\216\314\276\267"
 434      CDEC7367 
 434      1DC2E18E 
 434      CCBEB7
 435 0021 02131DF5 		.ascii	"\002\023\035\365\255\314\360\202\276\361\275\375\243"
 435      ADCCF082 
 435      BEF1BDFD 
 435      A3
 436 002e 2D3A05E9 		.ascii	"-:\005\351\261\323\311tW8v\337<+\001AA!$\242A\021\202"
 436      B1D3C974 
 436      573876DF 
 436      3C2B0141 
 436      412124A2 
 437 0045 1C42BC18 		.ascii	"\034B\274\030\020\302\021\240\271C\200$\204#\034\032"
 437      10C211A0 
 437      B9438024 
 437      84231C1A 
 438 0055 03C8E5C8 		.ascii	"\003\310\345\310!g\024B\366\373;\252\272\352\327U\325"
 438      21671442 
 438      F6FB3BAA 
 438      BAEAD755 
 438      D5
 439 0066 551967EB 		.ascii	"U\031g\353\275\337\257\216\376\375>\277\357\375;\352"
 439      BDDFAF8E 
 439      FEFD3EBF 
 439      EFFD3BEA 
 440 0076 572D7002 		.ascii	"W-p\002\267\303\307q\335p\214~\211\343\274\031\034w"
 440      B7C3C771 
 440      DD708C7E 
 440      89E3BC19 
 440      1C77
ARM GAS  /tmp/cc6FwhuH.s 			page 34


 441 0088 0FC7714F 		.ascii	"\017\307qO@\312\202\264\010\022\374\314-\201\264\024"
 441      40CA82B4 
 441      0812FCCC 
 441      2D81B414 
 442 0098 D28790EA 		.ascii	"\322\207\220\352!\355\2044\226\347\270T8\007\341\034"
 442      21ED8434 
 442      96E7B854 
 442      3807E11C 
 443 00a8 825404C9 		.ascii	"\202T\004\311\003\367\305pF\307C\220&\301\365_ \225"
 443      03F7C570 
 443      46C74390 
 443      26C1F55F 
 443      2095
 444 00ba 419A0669 		.ascii	"A\232\006i\006\244Y\220*!\315\205T\015\351=H\013 }\000"
 444      06A45990 
 444      2A21CD85 
 444      540DE93D 
 444      480B207D 
 445 00cf 6929A415 		.ascii	"i)\244\025\220VAZ\007i\023\244m\220\366@\332\017\251"
 445      9056415A 
 445      076913A4 
 445      6D90F640 
 445      DA0FA9
 446 00e2 19D26148 		.ascii	"\031\322aHm\220\316@:\017\351\033H\337B\272\004\351"
 446      6D90CE40 
 446      3A0FE91B 
 446      48DF42BA 
 446      04E9
 447 00f4 1AA45B90 		.ascii	"\032\244[\220\356@\342\005\240\007R/\304\003\2343 \365"
 447      EE40E205 
 447      A007522F 
 447      C4039C33 
 447      20F5
 448 0106 86D40FD2 		.ascii	"\206\324\017\322\000H\305\220\242\220^\203\364\026\244"
 448      0048C590 
 448      A2905E83 
 448      F416A4
 449 0115 85026738 		.ascii	"\205\002g8\312(?+\004\"\207e\224/\201\376\266\224\347"
 449      CA283F2B 
 449      04228765 
 449      942F81FE 
 449      B694E7
 450 0128 128E6936 		.ascii	"\022\216i6u\246Y\324\231aSg\206E\035$\303\001pn\242"
 450      75A659D4 
 450      99615367 
 450      86451D24 
 450      C301706E 
 451 013d 7ACA84F4 		.ascii	"z\312\204\364\021\222\021\234wQ\375\324\012q\035m\207"
 451      1192119C 
 451      7751FDD4 
 451      0A711D6D 
 451      87
 452 014e F34702D1 		.ascii	"\363G\002\321\345z\270\376\030\2567\303\371\023!\256"
 452      E57AB8FE 
 452      18AE37C3 
 452      F91321AE 
 453 015e D3D570FF 		.ascii	"\323\325p\377\251\020\327u-\222!\234\367AJ\247m~\006"
ARM GAS  /tmp/cc6FwhuH.s 			page 35


 453      A910D775 
 453      2D92219C 
 453      F7414AA7 
 453      6D7E06
 454 0171 BFAF1588 		.ascii	"\277\257\025\210N\266\011q\035\255\242zC4#9\373\030"
 454      4EB60971 
 454      1DADA27A 
 454      43342339 
 454      FB18
 455 0183 5956521E 		.ascii	"YVR\036\033\004BO\243\216\307J\252_\366\230kSg\256E"
 455      1B04424F 
 455      A38EC74A 
 455      AA5FF698 
 455      6B5367AE 
 456 0198 9D6A9B3A 		.ascii	"\235j\233:\325\026u\220\375\015\2412Pe\211\344\212\354"
 456      D5167590 
 456      FD0DA132 
 456      506589E4 
 456      8AEC
 457 01aa 18C97438 		.ascii	"\030\311t8G\260\3328\202}\232#rFm42r\335\003\327g\251"
 457      47B0DA38 
 457      827D9A23 
 457      72466D34 
 457      3272DD03 
 458 01c1 2F6C41ED 		.ascii	"/lA\355\303\375>H\373!\335\205t\037\244{!uC\362\302"
 458      C3FD3E48 
 458      FB21DD85 
 458      741FA47B 
 458      217543F2 
 459 01d6 EF3970FE 		.ascii	"\3579p\376\251@\200\217\302\211\367\020\177:\012\251"
 459      A940808F 
 459      C289F710 
 459      7F3A0AA9 
 460 01e6 049E0B70 		.ascii	"\004\236\013p\357\201\324\202\374\010\356g\363\211\372"
 460      EF81D482 
 460      FC08EE67 
 460      F389FA
 461 01f5 DD4EFD4F 		.ascii	"\335N\375O\325)\242\345k\270~\020\322 H\247\250\016"
 461      D529A2E5 
 461      6BB87E10 
 461      D22048A7 
 461      A80E
 462 0207 EFA3BCAA 		.ascii	"\357\243\274\252\376\262\216\312\003\371\221\027\332"
 462      FEB28ECA 
 462      03F99117 
 462      DA
 463 0214 488594E1 		.ascii	"H\205\224\341!\276\365\027\352k\373\251\217\351\365"
 463      21BEF517 
 463      EA6BFBA9 
 463      8FE9F5
 464 0223 3E89FAE0 		.ascii	">\211\372\340&j\003\250=\275O\251~\246?\376B\355\260"
 464      266A03A8 
 464      3DBD4FA9 
 464      7EA63FFE 
 464      42EDB0
 465 0236 B787C8F0 		.ascii	"\267\207\310\360:\334g{\210\314/\303\365#T/\036Z\366"
 465      3ADC677B 
ARM GAS  /tmp/cc6FwhuH.s 			page 36


 465      88CC2FC3 
 465      F523542F 
 465      1E5AF6
 466 0249 1AF567F4 		.ascii	"\032\365g\364\370\025Fg\250\37548\367\361\304\343P'"
 466      F8154667 
 466      A8FD3438 
 466      F7F1C4E3 
 466      5027
 467 025b 6FC456F1 		.ascii	"o\304V\361\274\264|_\017\211\013\327t6\312\322\210b"
 467      BCB47C5F 
 467      0F890BD7 
 467      7436CAD2 
 467      8862
 468 026d 50066307 		.ascii	"P\006c\007H\377\375=\204vd\017]\214\276\321\341\243"
 468      48FFFD3D 
 468      8476640F 
 468      5D8CBED1 
 468      E1A3
 469 027f 75EF5099 		.ascii	"u\357P\231\252q\207=P|\273\307\006\037\321\316\342\377"
 469      AA71873D 
 469      507CBBC7 
 469      061FD1CE 
 469      E2FF
 470 0291 041E2EA4 		.ascii	"\004\036.\244\355\244P\014\266\235\005&6\235\316\275"
 470      EDA4500C 
 470      B69D0526 
 470      369DCEBD 
 471 02a1 A628E54A 		.ascii	"\246(\345J\307Re\000\204\211\027y\221\317J\007\241\241"
 471      C7526500 
 471      84891779 
 471      91CF4A07 
 471      A1A1
 472 02b3 8BCC742C 		.ascii	"\213\314t,\325_pK\024E\251P\024A\344\027\361\351 \025"
 472      D55F704B 
 472      1445A950 
 472      1441E417 
 472      F1E92015 
 473 02c7 C104071D 		.ascii	"\301\004\007\035\344wt\240\352\344Z\275\352\3062\233"
 473      E47774A0 
 473      EAE45ABD 
 473      EAC6329B 
 474 02d7 81DAAA99 		.ascii	"\201\332\252\231\246<\323\220\325\207\003HE\251\031"
 474      A63CD390 
 474      D5870348 
 474      45A919
 475 02e6 519D454A 		.ascii	"Q\235EJ\320\266s\324\266\275\024s)\337'N\251Bk\343\022"
 475      D0B673D4 
 475      B6BD1473 
 475      29DF274E 
 475      A9426BE3 
 476 02fb 563596E9 		.ascii	"V5\226\351\250\310L\217_x(\235V\365\226\360\031*+f\244"
 476      A8C84C8F 
 476      5F78289D 
 476      56F596F0 
 476      192A2B66 
 477 0310 E6346469 		.ascii	"\3464di\217c\360\270?7\227\022\244\360\262\310?q\237"
 477      8F63F0B8 
ARM GAS  /tmp/cc6FwhuH.s 			page 37


 477      3F379712 
 477      A4F0B2C8 
 477      3F719F
 478 0323 25702DDF 		.ascii	"%p-\337\037_y\260I\03191'\007\013\275\242\343\362\271"
 478      1F5F79B0 
 478      49193931 
 478      27070BBD 
 478      A2E3F2B9 
 479 0337 F31E4549 		.ascii	"\363\036EI\023\371\217\261\340G\363\334/\271\025D\033"
 479      13F98FB1 
 479      E047F3DC 
 479      2FB91544 
 479      1B
 480 0348 DB069A69 		.ascii	"\333\006\232i\3019t\325\356\035\177\345\313\201t\221"
 480      C13974D5 
 480      EE1D7FE5 
 480      CB817491 
 481 0358 5F89C1A7 		.ascii	"_\211\301\247\361<\220\372\031\377K\327P\233\032\353"
 481      F13C90FA 
 481      19FF4BD7 
 481      509B1AEB 
 482 0368 86612A57 		.ascii	"\206a*Wc\240\355\014\220\310\247\244\033\315\004\356"
 482      63A0ED0C 
 482      90C8A7A4 
 482      1BCD04EE 
 483 0378 D502080D 		.ascii	"\325\002\010\015nQK\235hl\301\277B\237\240\233T\356"
 483      6E514B9D 
 483      686CC1BF 
 483      429FA09B 
 483      54EE
 484 038a FFBD9EC8 		.ascii	"\377\275\236\310\277\340\321j\332\360\274q\326\2212"
 484      BFE0D16A 
 484      DAF0BC71 
 484      D69132
 485 0399 2C3E83A5 		.ascii	",>\203\245\020U\233U\023\371\265\374/8\207\205Q\361"
 485      10559B55 
 485      13F9B5FC 
 485      2F388785 
 485      51F1
 486 03ab 7580AC93 		.ascii	"u\200\254\223\242\356R\340\246\012\254\204\327\305M"
 486      A2EE52E0 
 486      A60AAC84 
 486      D7C54D
 487 03ba D7B43A6D 		.ascii	"\327\264:m\345%\265\225L\3744n\330\"_\007\025\314K\211"
 487      E525B595 
 487      4CFC346E 
 487      D8225F07 
 487      15CC4B89 
 488 03ce FC06D72E 		.ascii	"\374\006\327.\270\321\302\005\005\003\221j)K\230\017"
 488      B8D1C205 
 488      0503916A 
 488      294B980F 
 489 03de E36CD140 		.ascii	"\343l\321@\345\300\034g\177C\235\246\036\233c\205`b"
 489      E5C01C67 
 489      7F439DA6 
 489      1E9B6385 
 489      6062
ARM GAS  /tmp/cc6FwhuH.s 			page 38


 490 03f0 D78E80AA 		.ascii	"\327\216\200\252\246\357\334J]d\013\206\232\337c\250"
 490      A6EFDC4A 
 490      5D640B86 
 490      9ADF63A8 
 491 0400 4D33EA7F 		.ascii	"M3\352\177\203i\332\206\201\226&(0\225q\221T\243\311"
 491      8369DA86 
 491      81962628 
 491      30957191 
 491      54A3C9
 492 0413 A6A6C72F 		.ascii	"\246\246\307/\220\245\366\346\376\301\305\015\226\332"
 492      90A5F6E6 
 492      FEC1C50D 
 492      96DA
 493 0421 979B83F5 		.ascii	"\227\233\203\365\236\222\204\313\215M\315\2031\227\273"
 493      9E9284CB 
 493      8D4DCD83 
 493      3197BB
 494 0430 F8BEC0E5 		.ascii	"\370\276\300\345J\206\313\2440\002\267\005W\331\003"
 494      4A86CBA4 
 494      3002B705 
 494      57D903
 495 043f D54945D2 		.ascii	"\325IE\322\371\304\352\246\335\253x\311s\203+\030\217"
 495      F9C4EAA6 
 495      DDAB78C9 
 495      73832B18 
 495      8F
 496 0450 87B81AA0 		.ascii	"\207\270\032\2409\266~\332\373?Uj\266\361f,\344\350"
 496      39B67EDA 
 496      FB3F556A 
 496      B6F1662C 
 496      E4E8
 497 0462 9AAEE1D5 		.ascii	"\232\256\341\325\266\357\325X\210\235\350\342sD\276"
 497      B6EFD558 
 497      889DE8E2 
 497      7344BE
 498 0471 09D3BFCF 		.ascii	"\011\323\277\317\234~k\014\201\373\022W9\300\322\177"
 498      9C7E6B0C 
 498      81FB1257 
 498      39C0D27F 
 499 0481 43CC214F 		.ascii	"C\314!O\223S\177\353\302\036^\251\314\024\371\375\300"
 499      93537FEB 
 499      C21E5EA9 
 499      CC14F9FD 
 499      C0
 500 0492 80C07DAB 		.ascii	"\200\300}\253\001\232\011Ls/\235\023\031\341\356H\015"
 500      019A094C 
 500      732F9D13 
 500      19E1EE48 
 500      0D
 501 04a3 83920AC2 		.ascii	"\203\222\012\302\253\002=\031\327\345\321wv\360X\227"
 501      AB023D19 
 501      D7E5D177 
 501      76F05897 
 502 04b3 47B12C3E 		.ascii	"G\261,>\361$\227\205\001F\340\326\342*'\030Yt\314Y\320"
 502      F1249785 
 502      0146E0D6 
 502      E22A2718 
ARM GAS  /tmp/cc6FwhuH.s 			page 39


 502      5974CC59 
 503 04c8 5EC69761 		.ascii	"^\306\227a\257:\341H\"\267\251>E\276\015\213\344\206"
 503      AF3AE148 
 503      22B7A93E 
 503      45BE0D8B 
 503      E486
 504 04da 86DB3391 		.ascii	"\206\3333\221\334\335\225Y!\252`w\\\203\345\030\300"
 504      DCDD9559 
 504      21AA6077 
 504      5C83E518 
 504      C0
 505 04eb AA76CFC7 		.ascii	"\252v\317\307\3049\017\005\237\251}\372i\034\012\246"
 505      C4390F05 
 505      9FA97DFA 
 505      691C0AA6 
 506 04fb 78D950B0 		.ascii	"x\331P\260\205w\035\013\004n\246\327\001\037iVBAZ93"
 506      85771D0B 
 506      046EA6D7 
 506      011F6956 
 506      42415A39 
 507 0510 87AF9AA2 		.ascii	"\207\257\232\2424\014r\340\245\225\270\261\363\254f"
 507      340C72E0 
 507      A595B8B1 
 507      F3AC66
 508 051f 6F9C6AF9 		.ascii	"o\234j\371U\265\242d\223\237\222+\266n\357;\316\034"
 508      55B5A264 
 508      939F922B 
 508      B66EEF3B 
 508      CE1C
 509 0531 55509BFF 		.ascii	"UP\233\3779n\376\020n\376b\202a\235;\377\004i\376\242"
 509      396EFE10 
 509      6EFE6282 
 509      619D3BFF 
 509      0469FEA2 
 510 0545 A3E6FFDA 		.ascii	"\243\346\377\332\372Vb\363\226\3438\252\275\033\247"
 510      FA5662F3 
 510      96E338AA 
 510      BD1BA7
 511 0554 AE3CB210 		.ascii	"\256<\262\0207\362\035\266\237\005>V}\303\231\236x\270"
 511      37F21DB6 
 511      9F053E56 
 511      7DC3999E 
 511      78B8
 512 0566 A12316B8 		.ascii	"\241#\026\270\017}*\365=2_`\263\341\331\025\253\024"
 512      0F7D2AF5 
 512      3D325F60 
 512      B3E1D915 
 512      AB14
 513 0578 E5F51495 		.ascii	"\345\365\024\225\206Z\327\210F\033\376\274\025;\004"
 513      865AD788 
 513      461BFEBC 
 513      153B04
 514 0587 01FBC409 		.ascii	"\001\373\304\011\230\245!\225\307\326\352\301V\272\006"
 514      98A52195 
 514      C7D6EAC1 
 514      56BA06
 515 0596 3352B64E 		.ascii	"3R\266N\017\266\332\011X\2665e\033\364`k]\203\031)\253"
ARM GAS  /tmp/cc6FwhuH.s 			page 40


 515      0FB6DA09 
 515      58B63565 
 515      1BF4606B 
 515      5D831929 
 516 05ab D783AD77 		.ascii	"\327\203\255w\0026\300\232\262\315z\260M\256\301\214"
 516      0236C09A 
 516      B2CD7AB0 
 516      4DAEC18C 
 517 05bb 94B5E8C1 		.ascii	"\224\265\350\301\266:\001\3131\241L;\254\206f\337\306"
 517      B63A01CB 
 517      31A14C3B 
 517      AC8666DF 
 517      C6
 518 05cc 87666865 		.ascii	"\207fheP\015\010.m\232\213c4\370\334F0\003\337\020\301"
 518      500D082E 
 518      6D9A8B63 
 518      34F8DC46 
 518      3003DF10 
 519 05e1 CE2E2211 		.ascii	"\316.\"\021L\215\355MN\020m\014\346\335\335\272\216"
 519      4C8DED4D 
 519      4E106D0C 
 519      E6DDDDBA 
 519      8E
 520 05f2 E2886B30 		.ascii	"\342\210k0\306\224\021\230!\324hS\357\330\200\352x\260"
 520      C6941198 
 520      21D46853 
 520      EFD880EA 
 520      78B0
 521 0604 33CCBD45 		.ascii	"3\314\275E\376\003\2305$\233W[\251\350\015A\247\242"
 521      FE039835 
 521      249B575B 
 521      A9E80D41 
 521      A7A2
 522 0616 7627F4DB 		.ascii	"v'\364\333\330\350W\273\347\377D\351\210\361\272\005"
 522      D8E857BB 
 522      E7FF44E9 
 522      88F1BA05 
 523 0626 032BAA69 		.ascii	"\003+\252i\250l>K;\272\012\001utg|\246\203g\007@U\323"
 523      A86C3E4B 
 523      3BBA0A01 
 523      7574677C 
 523      A6836707 
 524 063d 3FF9370C 		.ascii	"?\3717\014T\205\201.\365\030h\323\214\005d\242\3726"
 524      5485812E 
 524      F51868D3 
 524      8C0564A2 
 524      FA36
 525 064f 06BA9910 		.ascii	"\006\272\231\020\273\331\236\2277\366\274\232\344\251"
 525      BBD99E97 
 525      37F6BC9A 
 525      E4A9
 526 065d E0FF5165 		.ascii	"\340\377Qe\005NIa\264e`'i\020\350\230\323\3365\207\277"
 526      054E4961 
 526      B4656027 
 526      6910E898 
 526      D3DE3587 
 527 0672 56AE540F 		.ascii	"V\256T\017r.\235\317T}\275\207\245\363Z\012+\035$~w"
ARM GAS  /tmp/cc6FwhuH.s 			page 41


 527      722E9DCF 
 527      547DBD87 
 527      A5F35A0A 
 527      2B1D247E 
 528 0687 6C54B866 		.ascii	"lT\270f\343\021#\033\013vT\272e\343\262\312F\015f\243"
 528      E311231B 
 528      0B7654BA 
 528      65E3B2CA 
 528      460D66A3 
 529 069b FA4760A3 		.ascii	"\372G`\243\3065\033\203tl\240\301\325\215J\022\232\372"
 529      C6351B83 
 529      746CA0C1 
 529      D58D4A12 
 529      9AFA
 530 06ad 7195F683 		.ascii	"q\225\366\203+\274\342%\3643N\037\2165\242I\011z\234"
 530      2BBCE225 
 530      F4334E1F 
 530      8E35A249 
 530      097A9C
 531 06c0 6C54A3C4 		.ascii	"lT\243\304n5\352\006\244\216\226o\232\325\001\351r,"
 531      6E35EA06 
 531      A48E966F 
 531      9AD501E9 
 531      722C
 532 06d2 B00F1304 		.ascii	"\260\017\023\004\266\222u\013\027\353)0\240\300x\210"
 532      B692750B 
 532      17EB2930 
 532      A0C07888 
 533 06e2 F89E8C77 		.ascii	"\370\236\214w\360\310\264R\215\353\204\302\317\377."
 533      F0C8B452 
 533      8DEB84C2 
 533      CFFF2E
 534 06f1 C4F2D8EA 		.ascii	"\304\362\330\352\231\352\204b8\356p\377N\270\003{\347"
 534      99EA8462 
 534      38EE70FF 
 534      4EB8037B 
 534      E7
 535 0702 5338B2E0 		.ascii	"S8\262\340\260\243\247x\332!p{Y\213s\332oS+h\337\013"
 535      B0A3A778 
 535      DA21707B 
 535      598B73DA 
 535      6F532B68 
 536 0718 BD8DD369 		.ascii	"\275\215\323i\373\261\266]e\374T<#\373\\@\223\275f\306"
 536      FBB1B65D 
 536      65FC543C 
 536      23FB5C40 
 536      93BD66C6 
 537 072c 041C4C09 		.ascii	"\004\034L\011\332q\225:!a\262\267_\235\354\241\337\034"
 537      DA71953A 
 537      2161B2B7 
 537      5F9DECA1 
 537      DF1C
 538 073e CC090C93 		.ascii	"\314\011\014\223=\221\377\212\027(nO\205i\260\3348\201"
 538      3D91FF8A 
 538      17286E4F 
 538      8569B0DC 
 538      3881
ARM GAS  /tmp/cc6FwhuH.s 			page 42


 539 0750 22BF5E40 		.ascii	"\"\277^@]\353\006\341!\275\340/\271\026|\216A\360\267"
 539      5DEB06E1 
 539      21BDE02F 
 539      B9167C8E 
 539      41F0B7
 540 0763 F7CEE711 		.ascii	"\367\316\347\021\375&\323\230\021\372A\214*\372w\232"
 540      FD26D398 
 540      11FA418C 
 540      2AFA779A 
 541 0773 E650D16F 		.ascii	"\346P\321o\302\242\357\264\020\375\010+ \010\324\251"
 541      C2A2EFB4 
 541      10FD082B 
 541      2008D4A9 
 542 0783 A84A2C41 		.ascii	"\250J,A\364\355\207T\321\307\034\211\376\260\251\350"
 542      F4ED8754 
 542      D1C71C89 
 542      FEB0A9E8 
 543 0793 63EE454F 		.ascii	"c\356EO\361\216\304\347\331\"\177\3225X\216\235\036"
 543      F18EC4E7 
 543      D9227FD2 
 543      35588E9D 
 543      1E
 544 07a4 633A3D6E 		.ascii	"c:=n\303z\334\016z\024\371\035Fm\316Ke\264i\020\035"
 544      C37ADC0E 
 544      7A14F91D 
 544      466DCE4B 
 544      65B46910 
 545 07b9 BD7CC48A 		.ascii	"\275|\304\212\005%V\325\244\2726\211<KX<3.\006Y\213"
 545      052556D5 
 545      A4BA3689 
 545      3C4B583C 
 545      332E0659 
 546 07ce 6441     		.ascii	"dA"
 547 07d0 13160989 		.ascii	"\023\026\011\211\023\265\256\301r\014`\233f9[\347R\264"
 547      13B5AEC1 
 547      720C609B 
 547      66395BE7 
 547      52B4
 548 07e2 35AA6C2C 		.ascii	"5\252l,\2245\270\335}\254\275\334\272\3352\235\332\313"
 548      9435B8DD 
 548      7DACBDDC 
 548      BADD329D 
 548      DACB
 549 07f4 3E07F602 		.ascii	">\007\366\002=\315\231t\274PE\014\367\262\206j#j\033"
 549      3DCD9974 
 549      BC50450C 
 549      F7B2866A 
 549      236A1B
 550 0807 6BB9ADAE 		.ascii	"k\271\255\256{\221\341\366-\026\316\3454\364\256\203"
 550      7B91E1F6 
 550      2D16CEE5 
 550      34F4AE83 
 551 0817 752FA360 		.ascii	"u/\243`\324\005\300\365\250\257=\214y\352Ne\273B\"\031"
 551      D405C0F5 
 551      A8AF3D8C 
 551      79EA4E65 
 551      BB422219 
ARM GAS  /tmp/cc6FwhuH.s 			page 43


 552 082b 9D21EED3 		.ascii	"\235!\356\323\031b\0236\304fl\210\007p~Po\216V\335\375"
 552      19621336 
 552      C4666C88 
 552      07707E50 
 552      6F8E56DD 
 553 0840 21FD307D 		.ascii	"!\3750}z\232[\276s\030\355X5\263W\337\314\2544\007\266"
 553      7A9A5BBE 
 553      7318ED58 
 553      35B357DF 
 553      CCAC3407 
 554 0855 37CC52BC 		.ascii	"7\314R\274\020\327\017W\251\2352Y\307\252v\215h\264"
 554      10D70F57 
 554      A99D3259 
 554      C7AA768D 
 554      68B4
 555 0867 E6EF6619 		.ascii	"\346\357f\031:\345\305N\340F\230\020hv\350W!E\376K<"
 555      3AE5C54E 
 555      E0469810 
 555      6876E857 
 555      2145FE4B 
 556 087c A56AE791 		.ascii	"\245j\347\221\202:p~\012\347\347p>\035+\356u\234\317"
 556      823A707E 
 556      0AE7E770 
 556      3E1D2BEE 
 556      759CCF
 557 088f C4F96C9C 		.ascii	"\304\371l\234\277\213\363\2058_\202\363\3258\257\307"
 557      BF8BF385 
 557      385F82F3 
 557      D538AFC7 
 558 089f F92E9C37 		.ascii	"\371.\2347\340\274\021\347\307q\376\205\023\003h\343"
 558      E0BC11E7 
 558      C771FE85 
 558      130368E3 
 559 08af 9925A28F 		.ascii	"\231%\242\217\322\334.\372\032d\331\261q\326\2169\252"
 559      D2DC2EFA 
 559      1A64D9B1 
 559      71D68E39 
 559      AA
 560 08c0 7648ACA9 		.ascii	"vH\254\251s\202h\343No\241X\356b\215S}\005s\012\207"
 560      738268E3 
 560      4E6FA158 
 560      EE628D53 
 560      7D05730A 
 561 08d5 CDAD693F 		.ascii	"\315\255i?\312\032g\223k&X\261\354\322\304B\010ks\202"
 561      CA1A6793 
 561      6B2658B1 
 561      ECD2C442 
 561      086B7382 
 562 08e9 68B64260 		.ascii	"h\266B`ne\007tVv\020[\331!lSGp\376\025\266\210\2238"
 562      6E650774 
 562      5676105B 
 562      D9216C53 
 562      4770FE15 
 563 0901 3FEBC42E 		.ascii	"?\353\304.\366\353\227XN\246\251oF~\224\201\320\036"
 563      F6EB9758 
 563      4EA6A96F 
 563      467E9481 
ARM GAS  /tmp/cc6FwhuH.s 			page 44


 563      D01E
 564 0913 1DA97B31 		.ascii	"\035\251{1\251\373x\007$\355\264xE\316\274\013G\275"
 564      A9FB7807 
 564      24EDB478 
 564      45CEBC0B 
 564      47BD
 565 0925 A515C437 		.ascii	"\245\025\3047\202\341e8] M\362\326\025\225\273 \030"
 565      82E16538 
 565      5D204DF2 
 565      D61595BB 
 565      2018
 566 0937 DCC4D16E 		.ascii	"\334\304\321n\202l\025D\240 \027\005\267\2572/\011\346"
 566      826C1544 
 566      A0201705 
 566      B7AF322F 
 566      09E6
 567 0949 AF32F924 		.ascii	"\2572\371$\344~+\260\357.\225i\312#\313\343\216c\240"
 567      E47E2BB0 
 567      EF2E9569 
 567      CA23CBE3 
 567      8E63A0
 568 095c 4D1B0FD6 		.ascii	"M\033\017\326\375\022;\316el\237\027\030\307q\014TS"
 568      FD123BCE 
 568      656C9F17 
 568      18C7710C 
 568      5453
 569 096e 35BD3F7A 		.ascii	"5\275?zcv\025\303\\\353)L\307\246\031\037\222\367\226"
 569      637615C3 
 569      5CEB294C 
 569      C7A6191F 
 569      92F796
 570 0981 3730D09D 		.ascii	"70\320\235\004G\3660~\3541\372\261'=~\321\335\355\341"
 570      0447F630 
 570      7EEC31FA 
 570      B1273D7E 
 570      D1DDEDE1 
 571 0995 FE81851F 		.ascii	"\376\201\205\037\344\026(\261+\035\013kO\376\353\002"
 571      E41628B1 
 571      2B1D0B6B 
 571      4FFEEB02 
 572 09a5 B43CAEDC 		.ascii	"\264<\256\334\355~\205'\346\006\361/\335H\370\317\271"
 572      ED7E8527 
 572      E606F12F 
 572      DD48F8CF 
 572      B9
 573 09b6 C58A52A9 		.ascii	"\305\212R\251|_\360\014\355o\266\340\002\235\302\203"
 573      7C5FF00C 
 573      ED6FB6E0 
 573      029DC283 
 574 09c6 A6FA5457 		.ascii	"\246\372TW\365\377\205[\212\254f\323\327\243\237!F\316"
 574      F5FF855B 
 574      8AAC66D3 
 574      D7A39F21 
 574      46CE
 575 09d8 D954A274 		.ascii	"\331T\242t\177/\030\266\370\0202c\3576fV\224utw?\250"
 575      7F2F18B6 
 575      F8103263 
ARM GAS  /tmp/cc6FwhuH.s 			page 45


 575      EF366656 
 575      94757477 
 576 09ee 52B8D59E 		.ascii	"R\270\325\236B\221\277-\240\021tWO(\264\252D)\274kJ"
 576      4291BF2D 
 576      A0117457 
 576      4F28B4AA 
 576      4429BC6B 
 577 0a03 E1E15DB3 		.ascii	"\341\341]\263\240C.\217uw\017\347\310V\005\201\333c"
 577      A0432E8F 
 577      75770FE7 
 577      C8560581 
 577      DB63
 578 0a15 46648572 		.ascii	"Fd\205r\003\021I\266\250\354\303%\312<VT~L\002?%s\243"
 578      031149B6 
 578      A8ECC325 
 578      CA3C5654 
 578      7E4C023F 
 579 0a2c 327A007E 		.ascii	"2z\000~\343\302\321J\006\215\227{\314\350j\335\245I"
 579      E3C2D14A 
 579      068D977B 
 579      CCE86ADD 
 579      A549
 580 0a3e 8E10D59C 		.ascii	"\216\020\325\234\204(\221\237\352A\242\233\326\023\242"
 580      8428919F 
 580      EA41A29B 
 580      D613A2
 581 0a4d A6B1444D 		.ascii	"\246\261DM7%\252\205%\252\325!Q3zB\324\014\226\250\231"
 581      3725AA85 
 581      25AAD521 
 581      51337A42 
 581      D40C96A8 
 582 0a62 A6441D57 		.ascii	"\246D\035W\211r\276Si\266\247?\275R\003\262\300\035"
 582      8972BE53 
 582      69B6A73F 
 582      BD5203B2 
 582      C01D
 583 0a74 6658D168 		.ascii	"fX\321hR\226+\036\215\246Y,M\025\2464\255\215\013\012"
 583      52962B1E 
 583      8DA6592C 
 583      4D15A634 
 583      AD8D0B0A 
 584 0a88 B52570A7 		.ascii	"\265%p\247\034\241W\262\350U\246\350\025\215\014\372"
 584      1CA157B2 
 584      E855A6E8 
 584      158D0CFA 
 585 0a98 4547E873 		.ascii	"EG\350sY\364\267M\321\25763\350\235\216\320\253Y\364"
 585      59F4B74D 
 585      D1AF3633 
 585      E89D8ED0 
 585      AB59F4
 586 0aab 79E6DA62 		.ascii	"y\346\332bi\237\322\313\011\372{,\372|S\364;\315o\244"
 586      699FD2CB 
 586      09FA7B2C 
 586      FA7C53F4 
 586      3BCD6FA4 
 587 0abf B9358685 		.ascii	"\2715\206\205&\306PaNT\205\221\250\005,Q5fD)\020\246"
 587      26C65061 
ARM GAS  /tmp/cc6FwhuH.s 			page 46


 587      4E548591 
 587      A8052C51 
 587      35664429 
 588 0ad5 D31518DD 		.ascii	"\323\025\030\335\241\255\205\204\347%\216x\376\200\205"
 588      A1AD8584 
 588      E7258E78 
 588      FE8085
 589 0ae4 5F9C08DF 		.ascii	"_\234\010\337Q\321qp\365w\367W\257R\246\222\256\300"
 589      51D17170 
 589      F577F757 
 589      AF52A692 
 589      AEC0
 590 0af6 39DFCB3C 		.ascii	"9\337\313<\314\010e\021vX\335\020E\340\332\023\010%"
 590      CC086511 
 590      7658DD10 
 590      45E0DA13 
 590      0825
 591 0b08 45979B51 		.ascii	"E\227\233Q\022\273\272\353\015\2057\021\177\0327\035"
 591      12BBBAEB 
 591      0D853711 
 591      7F1A371D 
 592 0b18 AF6ABFAA 		.ascii	"\257j\277\252\224\361\177\326:b\313\355\227\037y\322"
 592      94F17FD6 
 592      3A62CBED 
 592      971F79D2 
 593 0b28 D012552F 		.ascii	"\320\022U/\263\235\177\270uT\000\035\250>\271V\257l"
 593      B39D7FB8 
 593      7554001D 
 593      A83EB956 
 593      AF6C
 594 0b3a 5E13D5B2 		.ascii	"^\023\325\262\354\372\322\325k\346\325\270\3356\315"
 594      ECFAD2D5 
 594      6BE6D5B8 
 594      DD36CD
 595 0b49 959E0C03 		.ascii	"\225\236\014\003)\006i]\267\220\326_M\365\266\241i\237"
 595      2906695D 
 595      B790D65F 
 595      4DF5B6A1 
 595      699F
 596 0b5b 304FD936 		.ascii	"0O\3316\025L\343\025\316\271\332V\033\371`h_\021\337"
 596      154CE315 
 596      CEB9DA56 
 596      1BF96068 
 596      5F11DF
 597 0b6e DF965073 		.ascii	"\337\226PsM\234vM\010\365$\3742\214\314\3100g\244\316"
 597      4D9C764D 
 597      08F524FC 
 597      328CCCC8 
 597      3067A4CE 
 598 0b82 9491D6D5 		.ascii	"\224\221\326\325[\037\260b\004)\305\212\236\365\326"
 598      5B1FB062 
 598      0429C58A 
 598      9EF5D6
 599 0b91 1AD174CC 		.ascii	"\032\321t\314\020VmAX\275\271\204g\355\350\211\2047"
 599      10566D41 
 599      58BDB984 
 599      67EDE889 
ARM GAS  /tmp/cc6FwhuH.s 			page 47


 599      8437
 600 0ba3 B374A1E9 		.ascii	"\263t\241\351\200vC\247+\014aK-\010\333j\352(\235\273"
 600      807643A7 
 600      2B0C614B 
 600      2D08DB6A 
 600      EA289DBB 
 601 0bb7 CD1DC596 		.ascii	"\315\035\305\226\254\355N\310b\025\253\335\237\022\314"
 601      ACED4EC8 
 601      6215ABDD 
 601      9F12CC
 602 0bc6 14BDC682 		.ascii	"\024\275\306\202\354\006S\262\253\032g\377TYD\306J\014"
 602      EC0653B2 
 602      AB1A67FF 
 602      545944C6 
 602      4A0C
 603 0bd8 DDF5363E 		.ascii	"\335\3656>\323\310\022^\237\030hZ,\010\331g\021\362"
 603      D3C8125E 
 603      9F18685A 
 603      2C08D967 
 603      11F2
 604 0bea 4E3E100F 		.ascii	"N>\020\017yjT=g\201\321d\312\314u\213`eo\263-v6{Y0\312"
 604      796A543D 
 604      6781D164 
 604      CACC758B 
 604      60656FB3 
 605 0c05 FCB2A9CC 		.ascii	"\374\262\251\314\277\267 \363\220)\253\033\233\232\256"
 605      BFB720F3 
 605      9029AB1B 
 605      9B9AAE
 606 0c14 F273A6D4 		.ascii	"\362s\246\3244(W\320\372\000\221\246\300Uf\232\203\034"
 606      342857D0 
 606      FA0091A6 
 606      C055669A 
 606      831C
 607 0c26 3105E93E 		.ascii	"1\005\351>\265\365\211\367\255\272\2106\233\220q\224"
 607      B5F589F7 
 607      ADBA8836 
 607      9B907194 
 608 0c36 65777886 		.ascii	"ewx\206a{\267\243e\222\257\316\236\374\217\317\360f"
 608      617BB7A3 
 608      6592AFCE 
 608      9EFC8FCF 
 608      F066
 609 0c48 A2131E34 		.ascii	"\242\023\0364x\236q\017;\275\3621\323+\237q\022\344"
 609      789E710F 
 609      3BBDF231 
 609      D32B9F71 
 609      12E4
 610 0c5a 4B8F5FC4 		.ascii	"K\217_\304\367yj4\2356\230:\023\020\321\264\303\206"
 610      F7796A34 
 610      9D36983A 
 610      1310D1B4 
 610      C386
 611 0c6c 3690CC3F 		.ascii	"6\220\314?\257\300\264ux\320\004iN\002m\027\004f\247"
 611      AFC0B475 
 611      78D00469 
 611      4E026D17 
ARM GAS  /tmp/cc6FwhuH.s 			page 48


 611      0466A7
 612 0c7f 13334167 		.ascii	"\0233Ag\244\223\250\357y\367\230\253\352k\013\323\276"
 612      A493A8EF 
 612      79F798AB 
 612      EA6B0BD3 
 612      BE
 613 0c90 F080A5AA 		.ascii	"\360\200\245\252.\333,8\2345\031\306|d\321\3649sS\233"
 613      2EDB2C38 
 613      9C3519C6 
 613      7C64D1F4 
 613      3973539B 
 614 0ca4 656A6A1B 		.ascii	"ejj\033,@.\230\272\325[\215\232[\251\000\273-\000\376"
 614      2C402E98 
 614      BAD55B8D 
 614      9A5BA900 
 614      BB2D00FE 
 615 0cb8 660AB036 		.ascii	"f\012\2606\021\340\210\005\300ES\200\367f\274a\025\245"
 615      11E08805 
 615      C0455380 
 615      F766BC61 
 615      15A5
 616 0cca 6CA2EB65 		.ascii	"l\242\353e\326\322\333\364\321\325\274\233<mA\327US"
 616      D6D2DBF4 
 616      D1D5BC9B 
 616      3C6D41D7 
 616      5553
 617 0cdc F1DE3D75 		.ascii	"\361\336=uax\017z\243\353,a\310\010\030B.[\020r\323"
 617      61780F7A 
 617      A3EB2C61 
 617      C8081842 
 617      2E5B1072 
 618 0cf1 62E0B1BB 		.ascii	"b\340\261\273'\335b\247m\377c\336\277\374`A\330mS\315"
 618      27DD62A7 
 618      6DFF63DE 
 618      BFFC6041 
 618      D86D53CD 
 619 0d05 1DE859FF 		.ascii	"\035\350Y\377\322e\326\277$\011\302\263\262\314\011"
 619      D265D6BF 
 619      2409C2B3 
 619      B2CC09
 620 0d14 53BC6684 		.ascii	"S\274f\204\265\352m\262\013\333\344\007\026\000\345"
 620      B5EA6DB2 
 620      0BDBE407 
 620      1600E5
 621 0d23 A6008712 		.ascii	"\246\000\207\022\001\326Z\000L5\002<\314-RZZ:\026\326"
 621      01D65A00 
 621      4C35023C 
 621      CC2D525A 
 621      5A3A16D6 
 622 0d37 1EBB7F53 		.ascii	"\036\273\177S9Z\357Q:\273\371n\230$,\347\373\000J\243"
 622      395AEF51 
 622      3ABBF96E 
 622      98242CE7 
 622      FB004AA3 
 623 0d4b 8642A5F3 		.ascii	"\206B\245\363\222*\035\365\253\206i\024\3571n\265\362"
 623      922A1DF5 
 623      AB866914 
ARM GAS  /tmp/cc6FwhuH.s 			page 49


 623      EF316EB5 
 623      F2
 624 0d5c 5A6C10A9 		.ascii	"Zl\020\251\250\255\235\376/\367\203\002q|5\257~KA'\335"
 624      A8AD9DFE 
 624      2FF78302 
 624      717C35AF 
 624      7E4B4127 
 625 0d71 B400AF16 		.ascii	"\264\000\257\026\330\250\025\230f( \250\005\016j\005"
 625      D8A81598 
 625      662820A8 
 625      050E6A05 
 626 0d81 B4050E44 		.ascii	"\264\005\016Dz\254%v\353d\003\257T*8\250\250{\346\017"
 626      7AAC2576 
 626      EB6403AF 
 626      542A38A8 
 626      A87BE60F 
 627 0d95 B0642728 		.ascii	"\260d'(\365\015\003\331\331\244\"Y\276E-\246\021\363"
 627      F50D03D9 
 627      D9A42259 
 627      BE452DA6 
 627      11F3
 628 0da7 13F999DE 		.ascii	"\023\371\231\336\207\015\255uJ\015\212\202,Hm\352p\322"
 628      870DAD75 
 628      4A0D8A82 
 628      2C486DEA 
 628      70D2
 629 0db9 A62A1C36 		.ascii	"\246*\03465[\337\324J\024\252\277\177t]9\012\325D'\026"
 629      355BDFD4 
 629      4A14AABF 
 629      7F745D39 
 629      0AD54427 
 630 0dce 1F50D93A 		.ascii	"\037P\331:\325p\266/\301\207\376\213\025\335F[\230\261"
 630      D570B62F 
 630      C187FE8B 
 630      15DD465B 
 630      98B1
 631 0de0 7BFB70E6 		.ascii	"{\373p\346\207\300\035K0(\221\177'nL\210hp\3769\355"
 631      87C01D4B 
 631      3028917F 
 631      276E4C88 
 631      6870FE39 
 632 0df5 DD3BF94A 		.ascii	"\335;\371J\245\206H\211\177\320\354\205\241G\245\022"
 632      A5864889 
 632      7FD0EC85 
 632      A147A512 
 633 0e05 BD96D596 		.ascii	"\275\226\325\226l/-\342\247\340\367\246\363\274H\256"
 633      6C2F2DE2 
 633      A7E0F7A6 
 633      F3BC48AE 
 634 0e15 5F30CD25 		.ascii	"_0\315%\005\022\270\363\270\312|o\302\356\211\235\257"
 634      0512B8F3 
 634      B8CA7C6F 
 634      C2EE899D 
 634      AF
 635 0e26 D257B2E8 		.ascii	"\322W\262\3507\316L\"\344\240\257d\337?b\271\373\240"
 635      37CE4C22 
 635      E4A0AF64 
ARM GAS  /tmp/cc6FwhuH.s 			page 50


 635      DF3F62B9 
 635      FBA0
 636 0e38 437BD9F9 		.ascii	"C{\331\371O:\332\333\016\237\244\264\327`\332\257&\247"
 636      4F3ADADB 
 636      0E9FA4B4 
 636      D760DAAF 
 636      26A7
 637 0e4a DD082470 		.ascii	"\335\010$p\335\270\312\342D\332\017M\245\264/vD\373"
 637      DDB8CAE2 
 637      44DA0F4D 
 637      A5B42F76 
 637      44FB
 638 0e5c C15642BB 		.ascii	"\301VB\273\372B\371\315\336*.m\330\345\013\345Cd\037"
 638      FA42F9CD 
 638      DE2A2E6D 
 638      D8E50BE5 
 638      43641F
 639 0e6f 2C793B39 		.ascii	",y;9\227\005s\365\376K\211\035%`\347\261\343\314w\015"
 639      970573F5 
 639      FE4B891D 
 639      2560E7B1 
 639      E3CC770D 
 640 0e83 9663A0EC 		.ascii	"\226c\240\354\253J\343\007\015\0378\301\263\331\247"
 640      AB4AE307 
 640      0D1F38C1 
 640      B3D9A7
 641 0e92 7AA555B7 		.ascii	"z\245U\267O\265\3265\230\221\270\233z\260UN\300\314"
 641      4FB5D635 
 641      9891B89B 
 641      7AB0554E 
 641      C0CC
 642 0ea4 368D9A1D 		.ascii	"6\215\232\035z#\021\371\245^\364\322i\231\027\275\015"
 642      7A2311F9 
 642      A55EF4D2 
 642      699917BD 
 642      0D
 643 0eb5 5B8EF35A 		.ascii	"[\216\363Z\234\177\214\363Oq\276\322k\330\315Q\337["
 643      9C7F8CF3 
 643      4F71BED2 
 643      6BD8CD51 
 643      DF5B
 644 0ec7 F5125353 		.ascii	"\365\022SSLf\022Jl\215\265{\030z\007\315\263\317\224"
 644      4C66124A 
 644      6C8DB57B 
 644      187A07CD 
 644      B3CF94
 645 0eda F1AF927D 		.ascii	"\361\257\222}Q\330;\266\365N\352\035\006\034\201;\212"
 645      51D83BB6 
 645      F54EEA1D 
 645      061C813B 
 645      8A
 646 0eeb 6BD42538 		.ascii	"k\324%8G{\327\024u[\224\003\347(\217}?\273\347\3374"
 646      477BD714 
 646      755B9403 
 646      E7288F7D 
 646      3FBBE7DF 
 647 0f00 8197B7AB 		.ascii	"\201\227\267\253\233\214\3521\037\227\223\363\301~\330"
ARM GAS  /tmp/cc6FwhuH.s 			page 51


 647      9B8CEA31 
 647      1F9793F3 
 647      C17ED8
 648 0f0f D48DAB6C 		.ascii	"\324\215\253lId\344\242\312\310\026G\214\254\237\255"
 648      4964E4A2 
 648      CAC81647 
 648      8CAC9FAD 
 649 0f1f DAFE462F 		.ascii	"\332\376F/\262\260\212l\025\327\306\302,UZ\036\333\320"
 649      B2B08A6C 
 649      15D7C6C2 
 649      2C555A1E 
 649      DBD0
 650 0f31 8CCD9580 		.ascii	"\214\315\225\200U\273\0063\332\376\246\346\371\003\224"
 650      55BB0633 
 650      DAFEA6E6 
 650      F90394
 651 0f40 9AADBCFA 		.ascii	"\232\255\274\372\372\255\206\3053\274\"K\0265\312c\233"
 651      FAAD86C5 
 651      33BC224B 
 651      1635CA63 
 651      9B
 652 0f51 9BD93DDF 		.ascii	"\233\331=\337\316\007\225\215\336\036\274&\325\014\367"
 652      CE07958D 
 652      DE1EBC26 
 652      D50CF7
 653 0f60 8B32FAE1 		.ascii	"\2132\372\341\342\036,\230\025\331F\2053SA\324\226\025"
 653      E21E2C98 
 653      15D94685 
 653      335341D4 
 653      9615
 654 0f72 1D4D5ED3 		.ascii	"\035M^\323\216\330\3547\210\027N\024`\267\207\277\375"
 654      8ED8EC37 
 654      88174E14 
 654      60B787BF 
 654      FD
 655 0f83 FA62F50D 		.ascii	"\372b\365\015=~-\267\301\011\240\363\027\364[t\001h"
 655      3D7E2DB7 
 655      C109A0F3 
 655      17F45B74 
 655      0168
 656 0f95 2B0E40DB 		.ascii	"+\016@\333p\240\331\201\363]8"
 656      70A0D981 
 656      F35D38
 657 0fa0 6FC0798B 		.ascii	"o\300y\213>\364X\311\006Y\235\206\275\335+PW\357\231"
 657      3EF458C9 
 657      06599D86 
 657      BDDD2B50 
 657      57EF99
 658 0fb3 25DF895B 		.ascii	"%\337\211[2\214\253\\\203\031\004\031\233\323\252\267"
 658      328CAB5C 
 658      83190419 
 658      9BD3AAB7 
 659 0fc3 6491DFCD 		.ascii	"d\221\337\315\342\271\264\344\225\225\231-/\251n\261"
 659      E2B9B4E4 
 659      9595992D 
 659      2FA96EB1 
 660 0fd3 359B7709 		.ascii	"5\233w\011\226m\247\224:\235R\326c\245l\300*h\305\371"
ARM GAS  /tmp/cc6FwhuH.s 			page 52


 660      966DA794 
 660      3A9D52D6 
 660      63A56CC0 
 660      2A68C5F9 
 661 0fe7 419C1F32 		.ascii	"A\234\0372\366\004\373\263\231\236\300\020v\315\372"
 661      F604FBB3 
 661      999EC010 
 661      76CDFA
 662 0ff6 25BD7894 		.ascii	"%\275x\224X\375\021W\333c"
 662      58FD1157 
 662      DB63
 663 1000 CFA9DB63 		.ascii	"\317\251\333c\217\342\360y(\3334|\332m\217=\215\253"
 663      8FE2F079 
 663      28DB347C 
 663      DA6D8F3D 
 663      8DAB
 664 1012 9C481C24 		.ascii	"\234H\034$\235Q\007I'\222\207\317\251Sbk\252\226\305"
 664      9D510749 
 664      279287CF 
 664      A953626B 
 664      AA96C5
 665 1025 FB81299A 		.ascii	"\373\201)\232\003\277i\263\374a\370\012\344\232F\207"
 665      03BF69B3 
 665      FC61F80A 
 665      E49A4687 
 666 1035 4B233557 		.ascii	"K#5W\335\011\235\352\276\304\252k7*\252\213U\224Y{6"
 666      DD099DEA 
 666      BEC4AA6B 
 666      372AAA8B 
 666      5594597B 
 667 104a 1B30DB8E 		.ascii	"\0330\333\216\220\015\230NuUU{\365q\362q%\326\324\347"
 667      900D984E 
 667      7555557B 
 667      F571F271 
 667      25D6D4E7 
 668 105e 7D5C6A0A 		.ascii	"}\\j\012\257\0271Z\212]\223r\310\323\344\335\333\355"
 668      AF17315A 
 668      8A5D9372 
 668      C8D3E4DD 
 668      DBED
 669 1070 337817A3 		.ascii	"3x\027\243\363%\300\346\323t\247\324\005/r\237\235\014"
 669      F325C0E6 
 669      D374A7D4 
 669      052F729F 
 669      9D0C
 670 1082 C13DDC29 		.ascii	"\301=\334)\265\037\303\234\375\261\324|V\247\346sX\315"
 670      B51FC39C 
 670      FDB1D47C 
 670      56A7E673 
 670      58CD
 671 1094 E78D6A3E 		.ascii	"\347\215j>\324\307\255\232s\354\332\233\257ko\001no"
 671      D4C7AD9A 
 671      73ECDA9B 
 671      AF6B6F01 
 671      6E6F
 672 10a6 218E02AB 		.ascii	"!\216\002\253q\336\206\363SF\012\3324\301\231N\261\020"
 672      71DE86F3 
ARM GAS  /tmp/cc6FwhuH.s 			page 53


 672      53460ADA 
 672      34C1994E 
 672      B110
 673 10b8 EA25E394 		.ascii	"\352%\343\224\257\006/)>Zk:O5,\376\032\307B\010\352"
 673      AF062F29 
 673      3E5A6B3A 
 673      4F352CFE 
 673      1AC74208 
 674 10cd 8AD7ED2E 		.ascii	"\212\327\355.\242\357\274\346\273\210\274\032\007\307"
 674      A2EFBCE6 
 674      BB88BC1A 
 674      07C7
 675 10db 590E129B 		.ascii	"Y\016\022\233\275j\344`e\254ca\355\326\347\366\353V"
 675      BD6AE460 
 675      65AC6361 
 675      EDD6E7F6 
 675      EB56
 676 10ed 3F2C66DA 		.ascii	"?,f\332\252\335C\244\261\331\030|\012(H\272MV\344o\341"
 676      AADD43A4 
 676      B1D9187C 
 676      0A2848BA 
 676      4D56E46F 
 677 1102 BEA4938D 		.ascii	"\276\244\223\215e\007W\037S\367\017w:\033\323v5\220"
 677      6507571F 
 677      53F70F77 
 677      3A1BD376 
 677      3590
 678 1114 1DBF2842 		.ascii	"\035\277(B\011\334\3370\377\235=\356?o_\300p\314\320"
 678      09DCDF30 
 678      FF9D3DEE 
 678      3F6F5FC0 
 678      70CCD0
 679 1127 06BD00B1 		.ascii	"\006\275\000\261\322I\227W\027\031\257\270n>\307\320"
 679      D2499757 
 679      1719AFB8 
 679      6E3EC7D0 
 680 1137 3CFAD09E 		.ascii	"<\372\320\236@\012\334M'XI6/\253X\335\256\261r\022\374"
 680      400ADC4D 
 680      27584936 
 680      2FAB58DD 
 680      AEB17212 
 681 114c 89E841E4 		.ascii	"\211\350A\344\177\300\236s\007\347\3358/\363%\035\346"
 681      7FC09E73 
 681      07E7DD38 
 681      2FF3251D 
 681      E6
 682 115d 3002BD69 		.ascii	"0\002\275iA\011\302\237\342\313`\33265!\3432\016\252"
 682      4109C29F 
 682      E2CB60DA 
 682      363521E3 
 682      320EAA
 683 1170 64514CE4 		.ascii	"dQL\344\247\372\372\320\253e\3728\250\273\025\270\351"
 683      A7FAFAD0 
 683      AB65FA38 
 683      A8BB15B8 
 683      E9
 684 1181 7D59D74F 		.ascii	"}Y\327O\200y\325\247_\310\032!\362\327\275\314R_\265"
ARM GAS  /tmp/cc6FwhuH.s 			page 54


 684      8079D5A7 
 684      5FC81A21 
 684      F2D7BDCC 
 684      525FB5
 685 1194 02BE74E0 		.ascii	"\002\276t\3409\017\241\007y\327\225\226X\335\364\367"
 685      390FA107 
 685      79D79596 
 685      58DDF4F7 
 686 11a4 61BE08EE 		.ascii	"a\276\010\356u\267\273\233'\254\013\\e\362\346^\207"
 686      75B7BB9B 
 686      27AC0B5C 
 686      65F2E65E 
 686      87
 687 11b5 E67EC6BD 		.ascii	"\346~\306\275\327\367}%\315\330\354M\3544H\015\244\315"
 687      D7F77D25 
 687      CDD8EC4D 
 687      EC34480D 
 687      A4CD
 688 11c7 D8FADDBC 		.ascii	"\330\372\335\274\351_\0151\333\030+\264/\340\037\246"
 688      E95F0D31 
 688      DB182BB4 
 688      2FE01FA6 
 689 11d7 4DCCF2B9 		.ascii	"M\314\362\271\215@\263}\346\021H5\000\253zo\306\225"
 689      8D40B37D 
 689      E6114835 
 689      00AB7A6F 
 689      C695
 690 11e9 FA33EE63 		.ascii	"\3723\356c\340\251zD\274ybMd\2453\266!\225\030\255\266"
 690      E0A97A44 
 690      BC79624D 
 690      64A533B6 
 690      219518AD 
 691 11fe 5D875819 		.ascii	"]\207X\031\302#\256F\354\215\226\336\254\225\326o\035"
 691      C223AE46 
 691      EC8D96DE 
 691      AC95D66F 
 691      1D
 692 120f A254F0AA 		.ascii	"\242T\360\252\200\336\356g\320\310\334\331&\032iN\256"
 692      80DEEE67 
 692      D0C8DCD9 
 692      261A694E 
 692      AE
 693 1220 91B9AC01 		.ascii	"\221\271\254\001$h\342\235fG\2328\252A?@\241\347\271"
 693      2468E29D 
 693      66479A38 
 693      AA413F40 
 693      A1E7B9
 694 1233 D6C4BB16 		.ascii	"\326\304\273\026\232\270?\211&\252\365\2328J51\317L"
 694      9AB83F89 
 694      26AAF59A 
 694      384A3531 
 694      CF4C
 695 1245 13D5BD55 		.ascii	"\023\325\275U\331\316u\240\211\371Z\351\367\0225!\250"
 695      D9CE75A0 
 695      89F95AE9 
 695      F7123521 
 695      A8
ARM GAS  /tmp/cc6FwhuH.s 			page 55


 696 1256 027AD7A8 		.ascii	"\002z\327\250\211\303\225&\232\270\236\\\0235I5\321"
 696      89C39526 
 696      9AB89E5C 
 696      13354935 
 696      D1
 697 1267 D6EA4813 		.ascii	"\326\352H\023\257i\320\252\000\226\270\326\304R\013"
 697      AF69D0AA 
 697      0096B8D6 
 697      C4520B
 698 1276 4D641B65 		.ascii	"Md\033e\220Po\261^\023]T\023K\3144q\264\257*\333j\007"
 698      90506FB1 
 698      5E135D54 
 698      134BCC34 
 698      71B4AF2A 
 699 128d 9AF8422B 		.ascii	"\232\370B+\375A\242&\310\200F\215\261LX^f\323\317\255"
 699      FD41A226 
 699      C880468D 
 699      B14C585E 
 699      66D3CFAD 
 700 12a1 F0996FDA 		.ascii	"\360\231o\332&;'\254j\325Z\326ZoS\353#\313Z\233mj}l"
 700      263B27AC 
 700      6AD55AD6 
 700      5A6F53EB 
 700      23CB5A9B 
 701 12b9 596BB54D 		.ascii	"Yk\265M\255O,k\325\332\324\3724^\213n\031\336\330tq"
 701      AD4F2C6B 
 701      D5DAD4FA 
 701      345E8B6E 
 701      19DED874 
 702 12ce 1B5F3945 		.ascii	"\033_9E!\257wk\322\234/\322\254\364\231\274\371c^\250"
 702      21AF776B 
 702      D29C2FD2 
 702      ACF499BC 
 702      F9635EA8 
 703 12e2 CDEE67BA 		.ascii	"\315\356g\272\261\367\230\364\014).p\013I\011\237\325"
 703      B1F798F4 
 703      0C292E70 
 703      0B49099F 
 703      D5
 704 12f3 4E50BAE9 		.ascii	"NP\272\351\236\356\204;\246\337\011\212*\351\016\221"
 704      9EEE843B 
 704      A6DF098A 
 704      2AE90E91 
 705 1303 5FE54B78 		.ascii	"_\345Kx\313\206v\377\355%{\013\027\306\262\2353Wg\306"
 705      CB8676FF 
 705      ED257B0B 
 705      17C6B29D 
 705      335767C6 
 706 1317 9CE5B61A 		.ascii	"\234\345\266\032\363\327\234\213\315\231\377Re^\344"
 706      F3D79C8B 
 706      CD99FF52 
 706      655EE4
 707 1326 3FF7A1D1 		.ascii	"?\367\241\321\344Z{\346I\265X\367\314z\230\015\012\352"
 707      E45A7BE6 
 707      49B558F7 
 707      CC7A980D 
 707      0AEA
ARM GAS  /tmp/cc6FwhuH.s 			page 56


 708 1338 7F23ADC1 		.ascii	"\177#\255\301\340\326U\367\353\252\316iZC\252\222\017"
 708      E0D655F7 
 708      EBAACE69 
 708      5A43AA92 
 708      0F
 709 1349 3FD627A9 		.ascii	"?\326'\251J\271!\"\217u\315\354?\343%M\346kY\231o4\225"
 709      4AB92122 
 709      8F75CDEC 
 709      3FE3254D 
 709      E66B5999 
 710 1360 7945B32A 		.ascii	"yE\263*\363\012\326\242\354\366\321lw`R1\207R\335\346"
 710      F30AD6A2 
 710      ECF6D16C 
 710      77605231 
 710      8752DDE6 
 711 1374 C8A4CA95 		.ascii	"\310\244\312\225c_ \223\"\033\313\014\265\014;\021)"
 711      635F2093 
 711      221BCB0C 
 711      B50C3B11 
 711      29
 712 1385 813B8DDC 		.ascii	"\201;\215\334\262K\2116\236\327`\351\257gmj\355\211"
 712      B24B8936 
 712      9ED760E9 
 712      AF676D6A 
 712      ED89
 713 1397 D7B2E809 		.ascii	"\327\262\350\011\206\251URi\225F\327\035\301^\213\216"
 713      86A95552 
 713      699546D7 
 713      1DC15E8B 
 713      8E
 714 13a8 2085B68C 		.ascii	" \205\266\214\221\246\330N\350E>\206\277\243I>?7\233"
 714      91A6D84E 
 714      E8453E86 
 714      BFA3493E 
 714      3F379B
 715 13bb 63A5A850 		.ascii	"c\245\250P/q\332\332\300\341\315\307\303\344\345\334"
 715      2F71DADA 
 715      C0E1CDC7 
 715      C3E4E5DC 
 716 13cb 7E1FEA5D 		.ascii	"~\037\352]\347\335\233\374\305\242\001\007\021\325\342"
 716      E7DD9BFC 
 716      C5A20107 
 716      11D5E2
 717 13da 635633BA 		.ascii	"cV3\272\216g\242/C\320\363\344\353M\335\307\325\017"
 717      8E67A22F 
 717      43D0F3E4 
 717      EB4DDDC7 
 717      D50F
 718 13ec 60F7F9F0 		.ascii	"`\367\371\360\037\327a\022P\335\036L\322\000\257\342"
 718      1FD76112 
 718      50DD1E4C 
 718      D200AFE2 
 719 13fc 045EE424 		.ascii	"\004^\344$`+\\\203\345\030\300*\365`\2378\001\263\232"
 719      602B5C83 
 719      E518C02A 
 719      F5609F38 
 719      01B39A
ARM GAS  /tmp/cc6FwhuH.s 			page 57


 720 140f 7301D85B 		.ascii	"s\001\330[z\260U\256\301\214\224\275\255\007\253s\002"
 720      7AB055AE 
 720      C18C94BD 
 720      AD07AB73 
 720      02
 721 1420 66F57A0F 		.ascii	"f\365z\017\300\252\365`\033\\\203\031){W\017\266\331"
 721      C0AAF560 
 721      1B5C8319 
 721      297B570F 
 721      B6D9
 722 1432 0998D57F 		.ascii	"\011\230\325\177\302\000\330|=\330\016\327`F\312\026"
 722      C200D87C 
 722      3DD80ED7 
 722      6046CA16 
 723 1442 E8C11A9D 		.ascii	"\350\301\032\235\200\345XS\266R\017\326\354\032\314"
 723      80E55853 
 723      B6520FD6 
 723      EC1ACC
 724 1451 48D92A3D 		.ascii	"H\331*=\330A'`V+\232\000\366\271\036\254\3155\230\221"
 724      D8412760 
 724      562B9A00 
 724      F6B91EAC 
 724      CD359891 
 725 1465 B2B57AB0 		.ascii	"\262\265z\260\023N\300\254>N\237Z\026[\367\337\025\242"
 725      134EC0AC 
 725      3E4E9F5A 
 725      165BF7DF 
 725      15A2
 726 1477 7E628E50 		.ascii	"~b\216P-\206\361\372b[x\313b\"\177\311\301\374\375+"
 726      2D86F1FA 
 726      625B78CB 
 726      62227FC9 
 726      C1FCFD2B 
 727 148b 966E238C 		.ascii	"\226n#\214\031\341F)l\320K\341\264\023)\214\260\006"
 727      19E14629 
 727      6CD04BE1 
 727      B413298C 
 727      B006
 728 149d ABD7839D 		.ascii	"\253\327\203\235w\002\366\214\265\2627\353\301\276u"
 728      7702F68C 
 728      B5B237EB 
 728      C1BE75
 729 14ac 0D66A4AC 		.ascii	"\015f\244\254E\017\366\235\023\260\321\326\224\265\352"
 729      450FF69D 
 729      13B0D1D6 
 729      94B5EA
 730 14bb C1AEBB06 		.ascii	"\301\256\273\006\323SV\026;\024\267\034\364G\025\006"
 730      D3535616 
 730      3B14B71C 
 730      F4471506 
 731 14cb D319610C 		.ascii	"\323\031a\014\227\206b:\323a\212\301\034J\263\234K\202"
 731      9786623A 
 731      D3618AC1 
 731      1C4AB39C 
 731      4B82
 732 14dd C172B45B 		.ascii	"\301r\264[\201\373\201\245\333\200B/_4\021\202\331\241"
 732      81FB81A5 
ARM GAS  /tmp/cc6FwhuH.s 			page 58


 732      DB80422F 
 732      5F341182 
 732      D9A1
 733 14ef EF2A45FE 		.ascii	"\357*E\376\200\017\365\345\255>\374\362\011\347Gp~\024"
 733      800FF5E5 
 733      AD3EFCF2 
 733      09E74770 
 733      7E14
 734 1501 E7C771FE 		.ascii	"\347\307q\376\005\316\333q\336\201\363S8\377\032\347"
 734      05CEDB71 
 734      DE81F353 
 734      38FF1AE7 
 735 1511 67717E1E 		.ascii	"gq~\036\347\337\340\374[\234_\301\371U\234_\307\371"
 735      E7DFE0FC 
 735      5B9C5FC1 
 735      F9559C5F 
 735      C7F9
 736 1523 4D9C77E2 		.ascii	"M\234w\342\374\007\375\202\0343J\332o\241 D\373]\313"
 736      FC07FD82 
 736      1C334ADA 
 736      6FA12044 
 736      FB5DCB
 737 1536 B1D55BF1 		.ascii	"\261\325[\361\245\256\204Z\335\226\265\346\331,\363"
 737      A5AE845A 
 737      DD96B5E6 
 737      D92CF3
 738 1545 292956B5 		.ascii	"))V\265\216\332\214\343\312,k]\261\241\260\334\262V"
 738      8EDA8CE3 
 738      CA2C6B5D 
 738      B1A1B0DC 
 738      B256
 739 1557 8B4D5B53 		.ascii	"\213M[SR\3309\336\335sW\037\234\247\304\360\326\316"
 739      52D839DE 
 739      DD73571F 
 739      9CA7C4F0 
 739      D6CE
 740 1569 87C88053 		.ascii	"\207\310\200S\340\266\337\307n\014\243\003\342\225\313"
 740      E0B6DFC7 
 740      6E0CA303 
 740      E295CB
 741 1578 159FBA41 		.ascii	"\025\237\272AR\344\247\246h\003b\346{b\374\363\253)"
 741      52E4A7A6 
 741      680362E6 
 741      7B62FCF3 
 741      AB29
 742 158a 26C3FF8E 		.ascii	"&\303\377\216\356S\337\375\327g\352w\250eSG2S\200\323"
 742      EE53DFFD 
 742      D767EA77 
 742      A8655347 
 742      325380D3 
 743 159e 36DB365F 		.ascii	"6\3336_KI\334\260|\304\212\324U\313\225tu\247\267\310"
 743      4B49DCB0 
 743      7CC48AD4 
 743      55CB9574 
 743      75A7B7C8 
 744 15b2 4F4FB1FD 		.ascii	"OO\261\375\322\363u3Rcm\255\363\351\227\236[\224\207"
 744      D2F37533 
ARM GAS  /tmp/cc6FwhuH.s 			page 59


 744      52636DAD 
 744      F3E9979E 
 744      5B9487
 745 15c5 D8B98ADD 		.ascii	"\330\271\212\335&\3707L\010=oOh\033O\026=f\332\023\372"
 745      26F8374C 
 745      083D6F4F 
 745      681B4F16 
 745      3D66DA13 
 746 15da 668ADD24 		.ascii	"f\212\335$\343\272\215\352g[\032\314e\233Z\025\226\265"
 746      E3BA8DEA 
 746      675B1ACC 
 746      659B5A15 
 746      96B5
 747 15ec 3A6D6ACD 		.ascii	":mj\315I0\263\215M\227\266\353\227\022\310\022\201\300"
 747      4930B38D 
 747      4D97B6EB 
 747      9712C812 
 747      81C0
 748 15fe DD64A442 		.ascii	"\335d\244Bglm\354\214\255\322B,\266\213\000\250\222"
 748      676C6DEC 
 748      8CADD242 
 748      2CB68B00 
 748      A892
 749 1610 EE10F92A 		.ascii	"\356\020\371*[\351u\331p\364\266\245\034\026\332\324"
 749      5BE975D9 
 749      70F4B6A5 
 749      1C16DAD4 
 750 1620 7A275E8B 		.ascii	"z'^\213\363\006\012\305\3103\271\205\305ERn\240\270"
 750      F3060AC5 
 750      C833B985 
 750      C545526E 
 750      A0B8
 751 1632 60726E81 		.ascii	"`rn\2014!7P\030\034\033,\216\346\312\221\322\360\313"
 751      34213750 
 751      181C1B2C 
 751      8EE6CA91 
 751      D2F0CB
 752 1645 B9701191 		.ascii	"\271p\021\221sK\212#r4wd\376\250\274Q\223\240dQI0$E"
 752      734B8A23 
 752      72347764 
 752      FEA8BC51 
 752      93A06451 
 753 165d A2B94FE7 		.ascii	"\242\271O\347\345Aqyr\211\024\035X\310\245K\023\244"
 753      E5417179 
 753      7289141D 
 753      58C8A54B 
 753      13A4
 754 166f B01C2CF0 		.ascii	"\260\034,\360\313)O\377\376\205\234<\356\347\271\245"
 754      CB294FFF 
 754      FE859C3C 
 754      EEE7B9A5 
 755 167f D148AE18 		.ascii	"\321H\256\030)\372U\2708,\375J\022\307\006s\203\341"
 755      29FA55B8 
 755      382CFD4A 
 755      12C70673 
 755      83E1
 756 1691 40A8B440 		.ascii	"@\250\264@\312\215\312\005\301\260\014\265R\3414t\210"
ARM GAS  /tmp/cc6FwhuH.s 			page 60


 756      CA8DCA05 
 756      C1B00CB5 
 756      52E13474 
 756      88
 757 16a2 5F7ECCA6 		.ascii	"_~\314\246p\221\010D\205\245\\\177\2014N,\015\311~\255"
 757      70910844 
 757      85A55C7F 
 757      81344E2C 
 757      0DC97EAD 
 758 16b6 49BF9F56 		.ascii	"I\277\237V\377\265\003.T\270@!\246\024\001dH\023\012"
 758      FFB5032E 
 758      54B84021 
 758      A6140164 
 758      48130A
 759 16c9 C5700170 		.ascii	"\305p\001p\343\2273\360\323\"1\372\262_N+\245\270\275"
 759      E39733F0 
 759      D32231FA 
 759      B25F4E2B 
 759      A5B8BD
 760 16dc FC7EF532 		.ascii	"\374~\3652\013\377\356\217\026\227F\002\222_\316\324"
 760      0BFFEE8F 
 760      16974602 
 760      925FCED4 
 761 16ec DF66939B 		.ascii	"\337f\223\233P0*Ka\004\226e|\220*\205\374ai\222<\314"
 761      50302A4B 
 761      61049665 
 761      7C902A85 
 761      FC616992 
 762 1702 1599D1C9 		.ascii	"\025\231\321\311Q\225\3234\2710\"\211 \333\364@\241"
 762      5195D334 
 762      B9302289 
 762      20DBF440 
 762      A1
 763 1713 9F5C3FE6 		.ascii	"\237\\?\346\016+PX\0008)%\230\0168\225D\244\011\251"
 763      0E2B5058 
 763      00382925 
 763      980E3895 
 763      44A409A9 
 764 1727 72492458 		.ascii	"rI$X\354'\267\301\342\324@qX\206_\177\343\332$\012\003"
 764      EC27B7C1 
 764      E2D44071 
 764      58865F7F 
 764      E3DA240A 
 765 173c C51109C9 		.ascii	"\305\021\011\311\023=F:\011\310\223\376\263g(\376\011"
 765      133D463A 
 765      09C893FE 
 765      B36728FE 
 765      09
 766 174d 8F172186 		.ascii	"\217\027!\206#\322x\260\006\277,D\036\023\"\377.D~-"
 766      23D278B0 
 766      06BF2C44 
 766      1E1322FF 
 766      2E447E2D 
 767 1761 441E1722 		.ascii	"D\036\027\"\303\204\310o<\221\301\203 \015\026B\021"
 767      C384C86F 
 767      3C91C183 
 767      200D1642 
ARM GAS  /tmp/cc6FwhuH.s 			page 61


 767      11
 768 1772 380DF595 		.ascii	"8\015\365\225\370\241\265T\304\330D\220t\211\2778T "
 768      F8A1B554 
 768      C4D84490 
 768      7489BF38 
 768      5420
 769 1784 4510A362 		.ascii	"E\020\243b\221\224&GeQ\006u\245\"5\016\003\371\021\205"
 769      91942647 
 769      65510675 
 769      A522350E 
 769      03F91185 
 770 1798 C21594C4 		.ascii	"\302\025\224\304\277\245\312E\305\005\022\276\037\027"
 770      BFA5CA45 
 770      C50512BE 
 770      1F17
 771 17a6 12C74753 		.ascii	"\022\307GS\345\2104.\212\205\202.|E\321\361p\023)\230"
 771      E588342E 
 771      8A85822E 
 771      7C45D1F1 
 771      70132998 
 772 17ba 0C1769D2 		.ascii	"\014\027i\322\244\240\014\034I)\023\345\342\261\177"
 772      A4A00C1C 
 772      492913E5 
 772      E2B17F
 773 17c9 2A499126 		.ascii	"*I\221&\"\203\361"
 773      2283F1
 774 17d0 94F84BB3 		.ascii	"\224\370K\263\210V\242X\347~\271\267\246'\362$\275\304"
 774      8856A258 
 774      E77EB9B7 
 774      A627F224 
 774      BDC4
 775 17e2 3F510CCA 		.ascii	"?Q\014\312\301\360\370\336\352\343?\227J\245\320n\266"
 775      C1F0F8DE 
 775      EAE33F97 
 775      4AA5D06E 
 775      B6
 776 17f3 AE247ED4 		.ascii	"\256$~\324\253\304\017M\341K\037\276\204\007R\211\024"
 776      ABC40F4D 
 776      E14B1FBE 
 776      84075289 
 776      14
 777 1804 068F19EF 		.ascii	"\006\217\031\357+*\005\015\015u\245\372\"y\022r\264"
 777      2B2A050D 
 777      0D75A5FA 
 777      22791272 
 777      B4
 778 1815 22820EE7 		.ascii	"\"\202\016\347\342\211\310$1\022pV\204-\002\350\203"
 778      E289C824 
 778      31127056 
 778      842D02E8 
 778      83
 779 1826 7288D25E 		.ascii	"r\210\322^\210o1\204\015\002\036\226\024\027\2072\300"
 779      886F3184 
 779      0D021E96 
 779      14178732 
 779      C0
 780 1837 7C55534E 		.ascii	"|USN\207k\342?\304\003\260\314\300c\3401\276D\277O$"
ARM GAS  /tmp/cc6FwhuH.s 			page 62


 780      876BE23F 
 780      C403B0CC 
 780      C063E031 
 780      BE44BF4F 
 781 184c 8294A204 		.ascii	"\202\224\242\004\032\331q\260H\242n5\370\327\232[\241"
 781      1AD971B0 
 781      48A26E35 
 781      F8D79A5B 
 781      A1
 782 185d CB5C5B5E 		.ascii	"\313\\[^d)*#n\320Y\232 \017\014p\251DVC\370\022z5X("
 782      64292A23 
 782      6ED0599A 
 782      200F0C70 
 782      A9445643 
 783 1877 1C2A040B 		.ascii	"\034*\004\013\204\302!B\341`\240I\036\354\227&I\001"
 783      84C22142 
 783      E160A049 
 783      1EEC9726 
 783      4901
 784 1889 E0AE17BE 		.ascii	"\340\256\027\276\211Jri\011\272\034\022\277\034J.3\361"
 784      894A7269 
 784      09BA1C12 
 784      BF1C4A2E 
 784      33F1
 785 189b 535ABA1F 		.ascii	"SZ\272\037~No\006\226\210\021y\340\240L\375\263G\035"
 785      7E4E6F06 
 785      96881179 
 785      E0A04CFD 
 785      B3471D
 786 18ae 530AE2EE 		.ascii	"S\012\342\356\215\316~\251(\010\266P\374\262\024\366"
 786      8DCE7EA9 
 786      2808B650 
 786      FCB214F6 
 787 18be F97F0B82 		.ascii	"\371\177\013\202\274\317\217\037\213\321\250\004~\022"
 787      BCCF8F1F 
 787      8BD1A804 
 787      7E12
 788 18cc 954023E1 		.ascii	"\225@#\341\200tO\240\360\251\011\362\223\301h\211(\007"
 788      80744FA0 
 788      F0A909F2 
 788      93C16889 
 788      2807
 789 18de 0A33F565 		.ascii	"\0123\365ez\343\237^\010\2037 \371G\356\307\367\371"
 789      7AE39F5E 
 789      08833720 
 789      F947EEC7 
 789      F7F9
 790 18f0 F46E14D8 		.ascii	"\364n\024\330\336\037\203r\341\357\220\270\373\343\237"
 790      DE1F8372 
 790      E1EF90B8 
 790      FBE39F
 791 18ff 9E96E491 		.ascii	"\236\226\344\221\341\202\274\220$F\236\302Z\352\203"
 791      E182BC90 
 791      24469EC2 
 791      5AEA83
 792 190e D190EDA9 		.ascii	"\321\220\355\251V6\300@\004\326\314\304`\270\240xb&"
 792      5636C040 
ARM GAS  /tmp/cc6FwhuH.s 			page 63


 792      04D6CCC4 
 792      60B8A078 
 792      6226
 793 1920 46F82314 		.ascii	"F\370#\024\035\031\012=\356\312\306(40>\004\007\362"
 793      1D190A3D 
 793      EECAC628 
 793      34303E04 
 793      07F2
 794 1932 50706CEE 		.ascii	"Ppl\356\370@\200\011\350\217\015\0346\3601}\037\000"
 794      F8408009 
 794      E88F0D1C 
 794      36F0317D 
 794      1F00
 795 1944 011D05A5 		.ascii	"\001\035\005\245h\360\177\220\003\312\343J\303\001\277"
 795      68F07F90 
 795      03CAE34A 
 795      C301BF
 796 1953 DC2750F8 		.ascii	"\334'P\370|aA\036\000\312\322\030\360\320` K\307C0\360"
 796      7C61411E 
 796      00CAD218 
 796      F0D06020 
 796      4BC74330 
 797 1968 B28ECEF0 		.ascii	"\262\216\316\360\344,|3\262\240\200\260\033\377\355"
 797      E42C7C33 
 797      B2A080B0 
 797      1BFFED
 798 1977 0F612903 		.ascii	"\017a)\003\337\214\011\216\017\213\241^\030uLH\222J"
 798      DF8C098E 
 798      0F8BA15E 
 798      18754C48 
 798      924A
 799 1989 FAE1C7BF 		.ascii	"\372\341\307\277\215\024\213\005\0011*c\351\365\323"
 799      8D148B05 
 799      01312A63 
 799      E9F5D3
 800 1998 D77B1E64 		.ascii	"\327{\036dR\\*\367\323\267\223\370,\024\242\317R\240"
 800      525C2AF7 
 800      D3B793F8 
 800      2C14A2CF 
 800      52A0
 801 19aa 17814EC4 		.ascii	"\027\201N\304#E\007C\032\"L\024\241a?\262z\251\210D"
 801      23450743 
 801      1A224C14 
 801      A1613FB2 
 801      7AA98844 
 802 19be 6C729D89 		.ascii	"lr\235\211d4\231\006\010P\272?~\237\032!\336\231\022"
 802      64349906 
 802      0850BA3F 
 802      7E9F1A21 
 802      DE9912
 803 19d1 C191D817 		.ascii	"\301\221\330\027\3011-BcZ\204\304\264txZ\032\211\000"
 803      C1312D42 
 803      635A84C4 
 803      B474785A 
 803      1A8900
 804 19e4 9BBE08AA 		.ascii	"\233\276\010\252t\337\204`D.\025CX\207\0215\362\200"
 804      74DF8460 
ARM GAS  /tmp/cc6FwhuH.s 			page 64


 804      442E1543 
 804      58871135 
 804      F280
 805 19f6 1DF84D7E 		.ascii	"\035\370M~\350mxF\302\216\341Q\352\004\031\273+:\243"
 805      E86D7846 
 805      C28EE151 
 805      EA0419BB 
 805      2B3AA3
 806 1a09 CE210DCE 		.ascii	"\316!\015\316\005RH\026\341\202(\006\375\202\256RP\011"
 806      05524816 
 806      E1822806 
 806      FD82AE52 
 806      5009
 807 1a1b 319201A7 		.ascii	"1\222\001\247\020\310\017\325\206G\250\221,\312t\201"
 807      10C80FD5 
 807      8647A891 
 807      2CCA7481 
 808 1a2b 34B6743C 		.ascii	"4\266t<\011\202\372'\351%b8\030@!\315S0v\374\020w\026"
 808      0982FA27 
 808      E9256238 
 808      184021CD 
 808      533076FC 
 809 1a42 867A856C 		.ascii	"\206z\205l\271\310\037\020\301\270\"`\026\305a )\"\007"
 809      B9C81F10 
 809      C1B82260 
 809      16C56120 
 809      292207
 810 1a55 A09F9553 		.ascii	"\240\237\225S\212\307\215\003\227\026\344\"!PH\003C"
 810      8AC78D03 
 810      9716E422 
 810      21504803 
 810      43
 811 1a66 340D990D 		.ascii	"4\015\231\015hX\362\242\256\300\207]\036\236\211\021"
 811      6858F2A2 
 811      AEC0875D 
 811      1E9E8911 
 812 1a76 B0F570AA 		.ascii	"\260\365p\252\032$\300\351\300\225\302\340\351i4\312"
 812      1A24C0E9 
 812      C095C2E0 
 812      E96934CA 
 813 1a86 0CCE1E18 		.ascii	"\014\316\036\030).\020eq\240\372\340ab\\\217\346\020"
 813      292E1065 
 813      71A0FAE0 
 813      61625C8F 
 813      E610
 814 1a98 3F24ADE7 		.ascii	"?$\255\347\300\310!\247\200z-\247V\036\362\200Z\026"
 814      C0C821A7 
 814      807A2DA7 
 814      561EF280 
 814      5A16
 815 1aaa D92B2E33 		.ascii	"\331+.3V\2654\255\320\320>j!\231\230P\224#\236\376\207"
 815      56B534AD 
 815      D0D03E6A 
 815      21999850 
 815      94239EFE 
 816 1abf B17F9202 		.ascii	"\261\177\222\002\362\263\341\240\014\226T\322'\301\333"
 816      F2B3E1A0 
ARM GAS  /tmp/cc6FwhuH.s 			page 65


 816      0C9654D2 
 816      27C1DB
 817 1ace 3D52083A 		.ascii	"=R\010:\035\342\330\370\307g\243\317\341\300\014}\303"
 817      1DE2D8F8 
 817      C767A3CF 
 817      E1C00C7D 
 817      C3
 818 1adf B3BF4B26 		.ascii	"\263\277K&\320B1D\273\3341\317\217\032:$\367\271\347"
 818      D0423144 
 818      BBDC31CF 
 818      8F1A3A24 
 818      F7B9E7
 819 1af2 9ECC7DFE 		.ascii	"\236\314}\376\331Q\023\006\203/\026\2411N\020\0119C"
 819      D9511306 
 819      832F16A1 
 819      314E1009 
 819      3943
 820 1b04 BBF1CB9E 		.ascii	"\273\361\313\236\274\374\301\220\206x\307\214\312\313"
 820      BCFCC190 
 820      8678C78C 
 820      CACB
 821 1b12 F73EF9EC 		.ascii	"\367>\371\354S\371\302\230|\317SO\347\373\362\362F\345"
 821      53F9C298 
 821      7CCF534F 
 821      E7FBF2F2 
 821      46E5
 822 1b24 0FC6F910 		.ascii	"\017\306\371\020o^\336S\371\236\274\337?\357\031=&\317"
 822      6F5EDE53 
 822      F99EBCDF 
 822      3FEF193D 
 822      26CF
 823 1b36 33323FDF 		.ascii	"32?\337\223\237\007\367P\341\267O>\237\357y\022\325"
 823      939F07F7 
 823      50E1B74F 
 823      3E9FEF79 
 823      12D5
 824 1b48 1C35325F 		.ascii	"\03452_\370\003\2515\024\312\277\230\237\367\367\020"
 824      F803A935 
 824      14CABF98 
 824      9FF7F710 
 825 1b58 EB0F85D0 		.ascii	"\353\017\205\320h\246/\271\362\217\227d\177\240\270"
 825      68A62FB9 
 825      F28F9764 
 825      7FA0B8
 826 1b67 14062F11 		.ascii	"\024\006/\021\022< \012\216\0067\212\004\345\311/\336"
 826      123C200A 
 826      8E06378A 
 826      04E5C92F 
 826      DE
 827 1b78 A33E1923 		.ascii	"\243>\031#\205\306\275\230e\364\375\377\003 \\_o"
 827      85C6BD98 
 827      65F4FDFF 
 827      03205C5F 
 827      6F
 828              		.text
 829              		.section	.gnu.lto_.symtab.f88661e0708021cf,"",%progbits
 830 0000 70617474 		.ascii	"patternevt\000\000\000\000\000\000\000\000\000\000\000"
ARM GAS  /tmp/cc6FwhuH.s 			page 66


 830      65726E65 
 830      76740000 
 830      00000000 
 830      00000000 
 831 0015 00730200 		.ascii	"\000s\002\000\000testevt1\000\000\000\000\000\000\000"
 831      00746573 
 831      74657674 
 831      31000000 
 831      00000000 
 832 0029 00000000 		.ascii	"\000\000\000\000\000\210\002\000\000testevt2\000\000"
 832      00880200 
 832      00746573 
 832      74657674 
 832      320000
 833 003c 00000000 		.ascii	"\000\000\000\000\000\000\000\000\000\000\224\002\000"
 833      00000000 
 833      00009402 
 833      00
 834 0049 00746573 		.ascii	"\000testevt3\000\000\000\000\000\000\000\000\000\000"
 834      74657674 
 834      33000000 
 834      00000000 
 834      000000
 835 005c 00009F02 		.ascii	"\000\000\237\002\000\000wa\000\000\002\000\000\000\000"
 835      00007761 
 835      00000200 
 835      000000
 836 006b 00000000 		.ascii	"\000\000\000\000\000\023\002\000\000ch\000\000\002\000"
 836      00130200 
 836      00636800 
 836      000200
 837 007a 00000000 		.ascii	"\000\000\000\000\000\000\000\000\030\002\000\000thr"
 837      00000000 
 837      18020000 
 837      746872
 838 0089 65616473 		.ascii	"eads\000\000\002\000\000\000\000\000\000\000\000\000"
 838      00000200 
 838      00000000 
 838      00000000 
 839 0099 6F020000 		.ascii	"o\002\000\000test_emit_token\000\000\002\000\000\000"
 839      74657374 
 839      5F656D69 
 839      745F746F 
 839      6B656E00 
 840 00b2 00000000 		.ascii	"\000\000\000\000\000\000\245\001\000\000_test_asser"
 840      0000A501 
 840      00005F74 
 840      6573745F 
 840      61737365 
 841 00c7 745F7365 		.ascii	"t_sequence\000\000\002\000\000\000\000\000\000\000\000"
 841      7175656E 
 841      63650000 
 841      02000000 
 841      00000000 
 842 00dc 00A90100 		.ascii	"\000\251\001\000\000chEvtDispatch\000\000\002\000\000"
 842      00636845 
 842      76744469 
ARM GAS  /tmp/cc6FwhuH.s 			page 67


 842      73706174 
 842      63680000 
 843 00f3 00000000 		.ascii	"\000\000\000\000\000\000\000\262\001\000\000_test_a"
 843      000000B2 
 843      0100005F 
 843      74657374 
 843      5F61
 844 0105 73736572 		.ascii	"ssert\000\000\002\000\000\000\000\000\000\000\000\000"
 844      74000002 
 844      00000000 
 844      00000000 
 844      00
 845 0116 B8010000 		.ascii	"\270\001\000\000chEvtUnregister\000\000\002\000\000"
 845      63684576 
 845      74556E72 
 845      65676973 
 845      74657200 
 846 012e 00000000 		.ascii	"\000\000\000\000\000\000\000\275\001\000\000chEvtRe"
 846      000000BD 
 846      01000063 
 846      68457674 
 846      5265
 847 0140 67697374 		.ascii	"gisterMaskWithFlags\000\000\002\000\000\000\000\000"
 847      65724D61 
 847      736B5769 
 847      7468466C 
 847      61677300 
 848 015b 00000000 		.ascii	"\000\000\000\000\302\001\000\000chEvtGetAndClearEve"
 848      C2010000 
 848      63684576 
 848      74476574 
 848      416E6443 
 849 0176 6E747300 		.ascii	"nts\000\000\002\000\000\000\000\000\000\000\000\000"
 849      00020000 
 849      00000000 
 849      000000
 850 0185 C9010000 		.ascii	"\311\001\000\000test_wait_threads\000\000\002\000\000"
 850      74657374 
 850      5F776169 
 850      745F7468 
 850      72656164 
 851 019f 00000000 		.ascii	"\000\000\000\000\000\000\000\315\001\000\000_test_a"
 851      000000CD 
 851      0100005F 
 851      74657374 
 851      5F61
 852 01b1 73736572 		.ascii	"ssert_time_window\000\000\002\000\000\000\000\000\000"
 852      745F7469 
 852      6D655F77 
 852      696E646F 
 852      77000002 
 853 01cb 000000CF 		.ascii	"\000\000\000\317\001\000\000chEvtWaitAll\000\000\002"
 853      01000063 
 853      68457674 
 853      57616974 
 853      416C6C00 
 854 01e1 00000000 		.ascii	"\000\000\000\000\000\000\000\000\000\325\001\000\000"
ARM GAS  /tmp/cc6FwhuH.s 			page 68


 854      00000000 
 854      00D50100 
 854      00
 855 01ee 63685468 		.ascii	"chThdCreateStatic\000\000\002\000\000\000\000\000\000"
 855      64437265 
 855      61746553 
 855      74617469 
 855      63000002 
 856 0208 000000D7 		.ascii	"\000\000\000\327\001\000\000test_wait_tick\000\000\002"
 856      01000074 
 856      6573745F 
 856      77616974 
 856      5F746963 
 857 0220 00000000 		.ascii	"\000\000\000\000\000\000\000\000\000\345\001\000\000"
 857      00000000 
 857      00E50100 
 857      00
 858 022d 63684576 		.ascii	"chEvtWaitAny\000\000\002\000\000\000\000\000\000\000"
 858      74576169 
 858      74416E79 
 858      00000200 
 858      00000000 
 859 0243 0000E801 		.ascii	"\000\000\350\001\000\000chEvtAddEvents\000\000\002\000"
 859      00006368 
 859      45767441 
 859      64644576 
 859      656E7473 
 860 025b 00000000 		.ascii	"\000\000\000\000\000\000\000\000\352\001\000\000chE"
 860      00000000 
 860      EA010000 
 860      636845
 861 026a 76745761 		.ascii	"vtWaitOne\000\000\002\000\000\000\000\000\000\000\000"
 861      69744F6E 
 861      65000002 
 861      00000000 
 861      00000000 
 862 027e 00EC0100 		.ascii	"\000\354\001\000\000chEvtSignal\000\000\002\000\000"
 862      00636845 
 862      76745369 
 862      676E616C 
 862      00000200 
 863 0293 00000000 		.ascii	"\000\000\000\000\000\000\000\356\001\000\000chThdSl"
 863      000000EE 
 863      01000063 
 863      68546864 
 863      536C
 864 02a5 65657000 		.ascii	"eep\000\000\002\000\000\000\000\000\000\000\000\000"
 864      00020000 
 864      00000000 
 864      000000
 865 02b4 F3010000 		.ascii	"\363\001\000\000chEvtBroadcastFlags\000\000\002\000"
 865      63684576 
 865      7442726F 
 865      61646361 
 865      7374466C 
 866 02cf 00000000 		.ascii	"\000\000\000\000\000\000\000\000\367\001\000\000chE"
 866      00000000 
ARM GAS  /tmp/cc6FwhuH.s 			page 69


 866      F7010000 
 866      636845
 867 02de 76745761 		.ascii	"vtWaitOneTimeout\000\000\002\000\000\000\000\000\000"
 867      69744F6E 
 867      6554696D 
 867      656F7574 
 867      00000200 
 868 02f7 000000FC 		.ascii	"\000\000\000\374\001\000\000chEvtWaitAnyTimeout\000"
 868      01000063 
 868      68457674 
 868      57616974 
 868      416E7954 
 869 0312 00020000 		.ascii	"\000\002\000\000\000\000\000\000\000\000\000\001\002"
 869      00000000 
 869      00000001 
 869      02
 870 031f 00006368 		.ascii	"\000\000chEvtWaitAllTimeout\000\000\002\000\000\000"
 870      45767457 
 870      61697441 
 870      6C6C5469 
 870      6D656F75 
 871 033a 00000000 		.ascii	"\000\000\000\000\000\000\003\002\000\000"
 871      00000302 
 871      0000
 872              		.text
 873              		.section	.gnu.lto_.opts,"",%progbits
 874 0000 272D6D63 		.ascii	"'-mcpu=cortex-m3' '-mno-thumb-interwork' '-mthumb' "
 874      70753D63 
 874      6F727465 
 874      782D6D33 
 874      2720272D 
 875 0033 272D4F32 		.ascii	"'-O2' '-fomit-frame-pointer' '-falign-functions=16'"
 875      2720272D 
 875      666F6D69 
 875      742D6672 
 875      616D652D 
 876 0066 20272D66 		.ascii	" '-ffunction-sections' '-fdata-sections' '-fno-comm"
 876      66756E63 
 876      74696F6E 
 876      2D736563 
 876      74696F6E 
 877 0099 6F6E2720 		.ascii	"on' '-flto'\000"
 877      272D666C 
 877      746F2700 
 878              		.text
 879              		.section	.text.h3,"ax",%progbits
 880              		.align	2
 881              		.p2align 4,,15
 882              		.thumb
 883              		.thumb_func
 884              		.type	h3, %function
 885              	h3:
 886              		@ args = 0, pretend = 0, frame = 0
 887              		@ frame_needed = 0, uses_anonymous_args = 0
 888              		@ link register save eliminated.
 889 0000 4320     		movs	r0, #67
 890 0002 FFF7FEBF 		b	test_emit_token
ARM GAS  /tmp/cc6FwhuH.s 			page 70


 891              		.size	h3, .-h3
 892 0006 00BFAFF3 		.section	.text.h2,"ax",%progbits
 892      0080AFF3 
 892      0080
 893              		.align	2
 894              		.p2align 4,,15
 895              		.thumb
 896              		.thumb_func
 897              		.type	h2, %function
 898              	h2:
 899              		@ args = 0, pretend = 0, frame = 0
 900              		@ frame_needed = 0, uses_anonymous_args = 0
 901              		@ link register save eliminated.
 902 0000 4220     		movs	r0, #66
 903 0002 FFF7FEBF 		b	test_emit_token
 904              		.size	h2, .-h2
 905 0006 00BFAFF3 		.section	.text.h1,"ax",%progbits
 905      0080AFF3 
 905      0080
 906              		.align	2
 907              		.p2align 4,,15
 908              		.thumb
 909              		.thumb_func
 910              		.type	h1, %function
 911              	h1:
 912              		@ args = 0, pretend = 0, frame = 0
 913              		@ frame_needed = 0, uses_anonymous_args = 0
 914              		@ link register save eliminated.
 915 0000 4120     		movs	r0, #65
 916 0002 FFF7FEBF 		b	test_emit_token
 917              		.size	h1, .-h1
 918 0006 00BFAFF3 		.section	.text.evt1_execute,"ax",%progbits
 918      0080AFF3 
 918      0080
 919              		.align	2
 920              		.p2align 4,,15
 921              		.thumb
 922              		.thumb_func
 923              		.type	evt1_execute, %function
 924              	evt1_execute:
 925              		@ args = 0, pretend = 0, frame = 40
 926              		@ frame_needed = 0, uses_anonymous_args = 0
 927 0000 10B5     		push	{r4, lr}
 928 0002 1F4C     		ldr	r4, .L9
 929 0004 8AB0     		sub	sp, sp, #40
 930 0006 2046     		mov	r0, r4
 931 0008 6946     		mov	r1, sp
 932 000a 0122     		movs	r2, #1
 933 000c 4FF0FF33 		mov	r3, #-1
 934 0010 2460     		str	r4, [r4]
 935 0012 FFF7FEFF 		bl	chEvtRegisterMaskWithFlags
 936 0016 2046     		mov	r0, r4
 937 0018 05A9     		add	r1, sp, #20
 938 001a 0222     		movs	r2, #2
 939 001c 4FF0FF33 		mov	r3, #-1
 940 0020 FFF7FEFF 		bl	chEvtRegisterMaskWithFlags
 941 0024 2168     		ldr	r1, [r4]
ARM GAS  /tmp/cc6FwhuH.s 			page 71


 942 0026 0120     		movs	r0, #1
 943 0028 091B     		subs	r1, r1, r4
 944 002a 18BF     		it	ne
 945 002c 0121     		movne	r1, #1
 946 002e FFF7FEFF 		bl	_test_assert
 947 0032 08B1     		cbz	r0, .L8
 948              	.L4:
 949 0034 0AB0     		add	sp, sp, #40
 950              		@ sp needed
 951 0036 10BD     		pop	{r4, pc}
 952              	.L8:
 953 0038 6946     		mov	r1, sp
 954 003a 2046     		mov	r0, r4
 955 003c FFF7FEFF 		bl	chEvtUnregister
 956 0040 2168     		ldr	r1, [r4]
 957 0042 0220     		movs	r0, #2
 958 0044 091B     		subs	r1, r1, r4
 959 0046 18BF     		it	ne
 960 0048 0121     		movne	r1, #1
 961 004a FFF7FEFF 		bl	_test_assert
 962 004e 0028     		cmp	r0, #0
 963 0050 F0D1     		bne	.L4
 964 0052 05A9     		add	r1, sp, #20
 965 0054 2046     		mov	r0, r4
 966 0056 FFF7FEFF 		bl	chEvtUnregister
 967 005a 2168     		ldr	r1, [r4]
 968 005c 0320     		movs	r0, #3
 969 005e 0B1B     		subs	r3, r1, r4
 970 0060 5942     		rsbs	r1, r3, #0
 971 0062 5941     		adcs	r1, r1, r3
 972 0064 FFF7FEFF 		bl	_test_assert
 973 0068 0028     		cmp	r0, #0
 974 006a E3D1     		bne	.L4
 975 006c 0548     		ldr	r0, .L9+4
 976 006e 0721     		movs	r1, #7
 977 0070 FFF7FEFF 		bl	chEvtDispatch
 978 0074 0449     		ldr	r1, .L9+8
 979 0076 0420     		movs	r0, #4
 980 0078 FFF7FEFF 		bl	_test_assert_sequence
 981 007c DAE7     		b	.L4
 982              	.L10:
 983 007e 00BF     		.align	2
 984              	.L9:
 985 0080 00000000 		.word	.LANCHOR0
 986 0084 00000000 		.word	.LANCHOR1
 987 0088 00000000 		.word	.LC0
 988              		.size	evt1_execute, .-evt1_execute
 989 008c AFF30080 		.section	.text.evt1_setup,"ax",%progbits
 990              		.align	2
 991              		.p2align 4,,15
 992              		.thumb
 993              		.thumb_func
 994              		.type	evt1_setup, %function
 995              	evt1_setup:
 996              		@ args = 0, pretend = 0, frame = 0
 997              		@ frame_needed = 0, uses_anonymous_args = 0
 998              		@ link register save eliminated.
ARM GAS  /tmp/cc6FwhuH.s 			page 72


 999 0000 4FF0FF30 		mov	r0, #-1
 1000 0004 FFF7FEBF 		b	chEvtGetAndClearEvents
 1001              		.size	evt1_setup, .-evt1_setup
 1002 0008 AFF30080 		.section	.text.evt2_setup,"ax",%progbits
 1002      AFF30080 
 1003              		.align	2
 1004              		.p2align 4,,15
 1005              		.thumb
 1006              		.thumb_func
 1007              		.type	evt2_setup, %function
 1008              	evt2_setup:
 1009              		@ args = 0, pretend = 0, frame = 0
 1010              		@ frame_needed = 0, uses_anonymous_args = 0
 1011              		@ link register save eliminated.
 1012 0000 4FF0FF30 		mov	r0, #-1
 1013 0004 FFF7FEBF 		b	chEvtGetAndClearEvents
 1014              		.size	evt2_setup, .-evt2_setup
 1015 0008 AFF30080 		.section	.text.evt3_setup,"ax",%progbits
 1015      AFF30080 
 1016              		.align	2
 1017              		.p2align 4,,15
 1018              		.thumb
 1019              		.thumb_func
 1020              		.type	evt3_setup, %function
 1021              	evt3_setup:
 1022              		@ args = 0, pretend = 0, frame = 0
 1023              		@ frame_needed = 0, uses_anonymous_args = 0
 1024              		@ link register save eliminated.
 1025 0000 4FF0FF30 		mov	r0, #-1
 1026 0004 FFF7FEBF 		b	chEvtGetAndClearEvents
 1027              		.size	evt3_setup, .-evt3_setup
 1028 0008 AFF30080 		.section	.text.evt2_execute,"ax",%progbits
 1028      AFF30080 
 1029              		.align	2
 1030              		.p2align 4,,15
 1031              		.thumb
 1032              		.thumb_func
 1033              		.type	evt2_execute, %function
 1034              	evt2_execute:
 1035              		@ args = 0, pretend = 0, frame = 40
 1036              		@ frame_needed = 0, uses_anonymous_args = 0
 1037 0000 2DE9F04F 		push	{r4, r5, r6, r7, r8, r9, r10, fp, lr}
 1038 0004 0720     		movs	r0, #7
 1039 0006 8DB0     		sub	sp, sp, #52
 1040 0008 FFF7FEFF 		bl	chEvtAddEvents
 1041 000c 4FF0FF30 		mov	r0, #-1
 1042 0010 FFF7FEFF 		bl	chEvtWaitOne
 1043 0014 B0F10109 		subs	r9, r0, #1
 1044 0018 D9F10001 		rsbs	r1, r9, #0
 1045 001c 51EB0901 		adcs	r1, r1, r9
 1046 0020 0120     		movs	r0, #1
 1047 0022 FFF7FEFF 		bl	_test_assert
 1048 0026 10B1     		cbz	r0, .L17
 1049              	.L14:
 1050 0028 0DB0     		add	sp, sp, #52
 1051              		@ sp needed
 1052 002a BDE8F08F 		pop	{r4, r5, r6, r7, r8, r9, r10, fp, pc}
ARM GAS  /tmp/cc6FwhuH.s 			page 73


 1053              	.L17:
 1054 002e 4FF0FF30 		mov	r0, #-1
 1055 0032 FFF7FEFF 		bl	chEvtWaitOne
 1056 0036 B0F10208 		subs	r8, r0, #2
 1057 003a D8F10001 		rsbs	r1, r8, #0
 1058 003e 51EB0801 		adcs	r1, r1, r8
 1059 0042 0220     		movs	r0, #2
 1060 0044 FFF7FEFF 		bl	_test_assert
 1061 0048 0028     		cmp	r0, #0
 1062 004a EDD1     		bne	.L14
 1063 004c 4FF0FF30 		mov	r0, #-1
 1064 0050 FFF7FEFF 		bl	chEvtWaitOne
 1065 0054 B0F1040C 		subs	ip, r0, #4
 1066 0058 DCF10001 		rsbs	r1, ip, #0
 1067 005c 51EB0C01 		adcs	r1, r1, ip
 1068 0060 0320     		movs	r0, #3
 1069 0062 FFF7FEFF 		bl	_test_assert
 1070 0066 0028     		cmp	r0, #0
 1071 0068 DED1     		bne	.L14
 1072 006a 4FF0FF30 		mov	r0, #-1
 1073 006e FFF7FEFF 		bl	chEvtGetAndClearEvents
 1074 0072 D0F10101 		rsbs	r1, r0, #1
 1075 0076 38BF     		it	cc
 1076 0078 0021     		movcc	r1, #0
 1077 007a 0420     		movs	r0, #4
 1078 007c FFF7FEFF 		bl	_test_assert
 1079 0080 0446     		mov	r4, r0
 1080 0082 0028     		cmp	r0, #0
 1081 0084 D0D1     		bne	.L14
 1082 0086 FFF7FEFF 		bl	test_wait_tick
 1083 008a 4FF02009 		mov	r9, #32
 1084              	@ 546 "/home/cody/dev/chibios/trunk/os/ext/CMSIS/include/core_cmFunc.h" 1
 1085 008e 89F31188 		MSR basepri, r9
 1086              	@ 0 "" 2
 1087              		.thumb
 1088 0092 4FF08048 		mov	r8, #1073741824
 1089 0096 D8F82450 		ldr	r5, [r8, #36]
 1090 009a ADB2     		uxth	r5, r5
 1091              	@ 546 "/home/cody/dev/chibios/trunk/os/ext/CMSIS/include/core_cmFunc.h" 1
 1092 009c 84F31188 		MSR basepri, r4
 1093              	@ 0 "" 2
 1094              		.thumb
 1095 00a0 7D4F     		ldr	r7, .L18
 1096 00a2 DFF810A2 		ldr	r10, .L18+28
 1097 00a6 BB69     		ldr	r3, [r7, #24]
 1098 00a8 DAF80060 		ldr	r6, [r10]
 1099 00ac 9A68     		ldr	r2, [r3, #8]
 1100 00ae 4FF4A471 		mov	r1, #328
 1101 00b2 013A     		subs	r2, r2, #1
 1102 00b4 0093     		str	r3, [sp]
 1103 00b6 3046     		mov	r0, r6
 1104 00b8 784B     		ldr	r3, .L18+4
 1105 00ba FFF7FEFF 		bl	chThdCreateStatic
 1106 00be 784C     		ldr	r4, .L18+8
 1107 00c0 2060     		str	r0, [r4]
 1108 00c2 4FF0FF30 		mov	r0, #-1
 1109 00c6 FFF7FEFF 		bl	chEvtWaitOne
ARM GAS  /tmp/cc6FwhuH.s 			page 74


 1110 00ca 05F13201 		add	r1, r5, #50
 1111 00ce 05F13702 		add	r2, r5, #55
 1112 00d2 8346     		mov	fp, r0
 1113 00d4 89B2     		uxth	r1, r1
 1114 00d6 92B2     		uxth	r2, r2
 1115 00d8 0520     		movs	r0, #5
 1116 00da FFF7FEFF 		bl	_test_assert_time_window
 1117 00de 0028     		cmp	r0, #0
 1118 00e0 A2D1     		bne	.L14
 1119 00e2 BBF1010E 		subs	lr, fp, #1
 1120 00e6 DEF10001 		rsbs	r1, lr, #0
 1121 00ea 51EB0E01 		adcs	r1, r1, lr
 1122 00ee 0620     		movs	r0, #6
 1123 00f0 FFF7FEFF 		bl	_test_assert
 1124 00f4 0028     		cmp	r0, #0
 1125 00f6 97D1     		bne	.L14
 1126 00f8 4FF0FF30 		mov	r0, #-1
 1127 00fc FFF7FEFF 		bl	chEvtGetAndClearEvents
 1128 0100 D0F10101 		rsbs	r1, r0, #1
 1129 0104 38BF     		it	cc
 1130 0106 0021     		movcc	r1, #0
 1131 0108 0720     		movs	r0, #7
 1132 010a FFF7FEFF 		bl	_test_assert
 1133 010e 0028     		cmp	r0, #0
 1134 0110 8AD1     		bne	.L14
 1135 0112 FFF7FEFF 		bl	test_wait_threads
 1136 0116 0520     		movs	r0, #5
 1137 0118 FFF7FEFF 		bl	chEvtAddEvents
 1138 011c 4FF0FF30 		mov	r0, #-1
 1139 0120 FFF7FEFF 		bl	chEvtWaitAny
 1140 0124 451F     		subs	r5, r0, #5
 1141 0126 6942     		rsbs	r1, r5, #0
 1142 0128 6941     		adcs	r1, r1, r5
 1143 012a 0820     		movs	r0, #8
 1144 012c FFF7FEFF 		bl	_test_assert
 1145 0130 0028     		cmp	r0, #0
 1146 0132 7FF479AF 		bne	.L14
 1147 0136 4FF0FF30 		mov	r0, #-1
 1148 013a FFF7FEFF 		bl	chEvtGetAndClearEvents
 1149 013e D0F10101 		rsbs	r1, r0, #1
 1150 0142 38BF     		it	cc
 1151 0144 0021     		movcc	r1, #0
 1152 0146 0920     		movs	r0, #9
 1153 0148 FFF7FEFF 		bl	_test_assert
 1154 014c 8346     		mov	fp, r0
 1155 014e 0028     		cmp	r0, #0
 1156 0150 7FF46AAF 		bne	.L14
 1157 0154 FFF7FEFF 		bl	test_wait_tick
 1158              	@ 546 "/home/cody/dev/chibios/trunk/os/ext/CMSIS/include/core_cmFunc.h" 1
 1159 0158 89F31188 		MSR basepri, r9
 1160              	@ 0 "" 2
 1161              		.thumb
 1162 015c D8F82450 		ldr	r5, [r8, #36]
 1163 0160 ADB2     		uxth	r5, r5
 1164              	@ 546 "/home/cody/dev/chibios/trunk/os/ext/CMSIS/include/core_cmFunc.h" 1
 1165 0162 8BF31188 		MSR basepri, fp
 1166              	@ 0 "" 2
ARM GAS  /tmp/cc6FwhuH.s 			page 75


 1167              		.thumb
 1168 0166 BB69     		ldr	r3, [r7, #24]
 1169 0168 4FF4A471 		mov	r1, #328
 1170 016c 9A68     		ldr	r2, [r3, #8]
 1171 016e 3046     		mov	r0, r6
 1172 0170 013A     		subs	r2, r2, #1
 1173 0172 0093     		str	r3, [sp]
 1174 0174 494B     		ldr	r3, .L18+4
 1175 0176 FFF7FEFF 		bl	chThdCreateStatic
 1176 017a 2060     		str	r0, [r4]
 1177 017c 4FF0FF30 		mov	r0, #-1
 1178 0180 FFF7FEFF 		bl	chEvtWaitAny
 1179 0184 05F13201 		add	r1, r5, #50
 1180 0188 05F13702 		add	r2, r5, #55
 1181 018c 0646     		mov	r6, r0
 1182 018e 89B2     		uxth	r1, r1
 1183 0190 92B2     		uxth	r2, r2
 1184 0192 0A20     		movs	r0, #10
 1185 0194 FFF7FEFF 		bl	_test_assert_time_window
 1186 0198 0028     		cmp	r0, #0
 1187 019a 7FF445AF 		bne	.L14
 1188 019e 701E     		subs	r0, r6, #1
 1189 01a0 4142     		rsbs	r1, r0, #0
 1190 01a2 4141     		adcs	r1, r1, r0
 1191 01a4 0B20     		movs	r0, #11
 1192 01a6 FFF7FEFF 		bl	_test_assert
 1193 01aa 0028     		cmp	r0, #0
 1194 01ac 7FF43CAF 		bne	.L14
 1195 01b0 4FF0FF30 		mov	r0, #-1
 1196 01b4 FFF7FEFF 		bl	chEvtGetAndClearEvents
 1197 01b8 D0F10101 		rsbs	r1, r0, #1
 1198 01bc 38BF     		it	cc
 1199 01be 0021     		movcc	r1, #0
 1200 01c0 0C20     		movs	r0, #12
 1201 01c2 FFF7FEFF 		bl	_test_assert
 1202 01c6 8146     		mov	r9, r0
 1203 01c8 0028     		cmp	r0, #0
 1204 01ca 7FF42DAF 		bne	.L14
 1205 01ce 354E     		ldr	r6, .L18+12
 1206 01d0 354D     		ldr	r5, .L18+16
 1207 01d2 FFF7FEFF 		bl	test_wait_threads
 1208 01d6 3046     		mov	r0, r6
 1209 01d8 02A9     		add	r1, sp, #8
 1210 01da 0122     		movs	r2, #1
 1211 01dc 4FF0FF33 		mov	r3, #-1
 1212 01e0 3660     		str	r6, [r6]
 1213 01e2 2D60     		str	r5, [r5]
 1214 01e4 FFF7FEFF 		bl	chEvtRegisterMaskWithFlags
 1215 01e8 2846     		mov	r0, r5
 1216 01ea 07A9     		add	r1, sp, #28
 1217 01ec 0422     		movs	r2, #4
 1218 01ee 4FF0FF33 		mov	r3, #-1
 1219 01f2 FFF7FEFF 		bl	chEvtRegisterMaskWithFlags
 1220 01f6 FFF7FEFF 		bl	test_wait_tick
 1221 01fa 2023     		movs	r3, #32
 1222              	@ 546 "/home/cody/dev/chibios/trunk/os/ext/CMSIS/include/core_cmFunc.h" 1
 1223 01fc 83F31188 		MSR basepri, r3
ARM GAS  /tmp/cc6FwhuH.s 			page 76


 1224              	@ 0 "" 2
 1225              		.thumb
 1226 0200 D8F82430 		ldr	r3, [r8, #36]
 1227 0204 1FFA83F8 		uxth	r8, r3
 1228              	@ 546 "/home/cody/dev/chibios/trunk/os/ext/CMSIS/include/core_cmFunc.h" 1
 1229 0208 89F31188 		MSR basepri, r9
 1230              	@ 0 "" 2
 1231              		.thumb
 1232 020c BA69     		ldr	r2, [r7, #24]
 1233 020e 274B     		ldr	r3, .L18+20
 1234 0210 9268     		ldr	r2, [r2, #8]
 1235 0212 4FF4A471 		mov	r1, #328
 1236 0216 013A     		subs	r2, r2, #1
 1237 0218 0093     		str	r3, [sp]
 1238 021a DAF80000 		ldr	r0, [r10]
 1239 021e 244B     		ldr	r3, .L18+24
 1240 0220 FFF7FEFF 		bl	chThdCreateStatic
 1241 0224 2060     		str	r0, [r4]
 1242 0226 0520     		movs	r0, #5
 1243 0228 FFF7FEFF 		bl	chEvtWaitAll
 1244 022c 08F13201 		add	r1, r8, #50
 1245 0230 08F13702 		add	r2, r8, #55
 1246 0234 89B2     		uxth	r1, r1
 1247 0236 92B2     		uxth	r2, r2
 1248 0238 0D20     		movs	r0, #13
 1249 023a FFF7FEFF 		bl	_test_assert_time_window
 1250 023e 0028     		cmp	r0, #0
 1251 0240 7FF4F2AE 		bne	.L14
 1252 0244 4FF0FF30 		mov	r0, #-1
 1253 0248 FFF7FEFF 		bl	chEvtGetAndClearEvents
 1254 024c D0F10101 		rsbs	r1, r0, #1
 1255 0250 38BF     		it	cc
 1256 0252 0021     		movcc	r1, #0
 1257 0254 0E20     		movs	r0, #14
 1258 0256 FFF7FEFF 		bl	_test_assert
 1259 025a 0028     		cmp	r0, #0
 1260 025c 7FF4E4AE 		bne	.L14
 1261 0260 FFF7FEFF 		bl	test_wait_threads
 1262 0264 3046     		mov	r0, r6
 1263 0266 02A9     		add	r1, sp, #8
 1264 0268 FFF7FEFF 		bl	chEvtUnregister
 1265 026c 2846     		mov	r0, r5
 1266 026e 07A9     		add	r1, sp, #28
 1267 0270 FFF7FEFF 		bl	chEvtUnregister
 1268 0274 3168     		ldr	r1, [r6]
 1269 0276 0F20     		movs	r0, #15
 1270 0278 8A1B     		subs	r2, r1, r6
 1271 027a 5142     		rsbs	r1, r2, #0
 1272 027c 5141     		adcs	r1, r1, r2
 1273 027e FFF7FEFF 		bl	_test_assert
 1274 0282 0028     		cmp	r0, #0
 1275 0284 7FF4D0AE 		bne	.L14
 1276 0288 2968     		ldr	r1, [r5]
 1277 028a 1020     		movs	r0, #16
 1278 028c 4B1B     		subs	r3, r1, r5
 1279 028e 5942     		rsbs	r1, r3, #0
 1280 0290 5941     		adcs	r1, r1, r3
ARM GAS  /tmp/cc6FwhuH.s 			page 77


 1281 0292 FFF7FEFF 		bl	_test_assert
 1282 0296 C7E6     		b	.L14
 1283              	.L19:
 1284              		.align	2
 1285              	.L18:
 1286 0298 00000000 		.word	ch
 1287 029c 00000000 		.word	thread1
 1288 02a0 00000000 		.word	threads
 1289 02a4 00000000 		.word	.LANCHOR0
 1290 02a8 00000000 		.word	.LANCHOR2
 1291 02ac 04000000 		.word	.LC1
 1292 02b0 00000000 		.word	thread2
 1293 02b4 00000000 		.word	wa
 1294              		.size	evt2_execute, .-evt2_execute
 1295 02b8 AFF30080 		.section	.text.thread2,"ax",%progbits
 1295      AFF30080 
 1296              		.align	2
 1297              		.p2align 4,,15
 1298              		.thumb
 1299              		.thumb_func
 1300              		.type	thread2, %function
 1301              	thread2:
 1302              		@ args = 0, pretend = 0, frame = 0
 1303              		@ frame_needed = 0, uses_anonymous_args = 0
 1304 0000 08B5     		push	{r3, lr}
 1305 0002 0021     		movs	r1, #0
 1306 0004 0548     		ldr	r0, .L21
 1307 0006 FFF7FEFF 		bl	chEvtBroadcastFlags
 1308 000a 3220     		movs	r0, #50
 1309 000c FFF7FEFF 		bl	chThdSleep
 1310 0010 0348     		ldr	r0, .L21+4
 1311 0012 0021     		movs	r1, #0
 1312 0014 FFF7FEFF 		bl	chEvtBroadcastFlags
 1313 0018 0020     		movs	r0, #0
 1314 001a 08BD     		pop	{r3, pc}
 1315              	.L22:
 1316              		.align	2
 1317              	.L21:
 1318 001c 00000000 		.word	.LANCHOR0
 1319 0020 00000000 		.word	.LANCHOR2
 1320              		.size	thread2, .-thread2
 1321 0024 AFF30080 		.section	.text.thread1,"ax",%progbits
 1321      AFF30080 
 1321      AFF30080 
 1322              		.align	2
 1323              		.p2align 4,,15
 1324              		.thumb
 1325              		.thumb_func
 1326              		.type	thread1, %function
 1327              	thread1:
 1328              		@ args = 0, pretend = 0, frame = 0
 1329              		@ frame_needed = 0, uses_anonymous_args = 0
 1330 0000 10B5     		push	{r4, lr}
 1331 0002 0446     		mov	r4, r0
 1332 0004 3220     		movs	r0, #50
 1333 0006 FFF7FEFF 		bl	chThdSleep
 1334 000a 2046     		mov	r0, r4
ARM GAS  /tmp/cc6FwhuH.s 			page 78


 1335 000c 0121     		movs	r1, #1
 1336 000e FFF7FEFF 		bl	chEvtSignal
 1337 0012 0020     		movs	r0, #0
 1338 0014 10BD     		pop	{r4, pc}
 1339              		.size	thread1, .-thread1
 1340 0016 00BFAFF3 		.section	.text.evt3_execute,"ax",%progbits
 1340      0080AFF3 
 1340      0080
 1341              		.align	2
 1342              		.p2align 4,,15
 1343              		.thumb
 1344              		.thumb_func
 1345              		.type	evt3_execute, %function
 1346              	evt3_execute:
 1347              		@ args = 0, pretend = 0, frame = 0
 1348              		@ frame_needed = 0, uses_anonymous_args = 0
 1349 0000 08B5     		push	{r3, lr}
 1350 0002 0021     		movs	r1, #0
 1351 0004 4FF0FF30 		mov	r0, #-1
 1352 0008 FFF7FEFF 		bl	chEvtWaitOneTimeout
 1353 000c D0F10101 		rsbs	r1, r0, #1
 1354 0010 38BF     		it	cc
 1355 0012 0021     		movcc	r1, #0
 1356 0014 0120     		movs	r0, #1
 1357 0016 FFF7FEFF 		bl	_test_assert
 1358 001a 00B1     		cbz	r0, .L28
 1359              	.L24:
 1360 001c 08BD     		pop	{r3, pc}
 1361              	.L28:
 1362 001e 0146     		mov	r1, r0
 1363 0020 4FF0FF30 		mov	r0, #-1
 1364 0024 FFF7FEFF 		bl	chEvtWaitAnyTimeout
 1365 0028 D0F10101 		rsbs	r1, r0, #1
 1366 002c 38BF     		it	cc
 1367 002e 0021     		movcc	r1, #0
 1368 0030 0220     		movs	r0, #2
 1369 0032 FFF7FEFF 		bl	_test_assert
 1370 0036 0028     		cmp	r0, #0
 1371 0038 F0D1     		bne	.L24
 1372 003a 0146     		mov	r1, r0
 1373 003c 4FF0FF30 		mov	r0, #-1
 1374 0040 FFF7FEFF 		bl	chEvtWaitAllTimeout
 1375 0044 D0F10101 		rsbs	r1, r0, #1
 1376 0048 38BF     		it	cc
 1377 004a 0021     		movcc	r1, #0
 1378 004c 0320     		movs	r0, #3
 1379 004e FFF7FEFF 		bl	_test_assert
 1380 0052 0028     		cmp	r0, #0
 1381 0054 E2D1     		bne	.L24
 1382 0056 0A21     		movs	r1, #10
 1383 0058 4FF0FF30 		mov	r0, #-1
 1384 005c FFF7FEFF 		bl	chEvtWaitOneTimeout
 1385 0060 D0F10101 		rsbs	r1, r0, #1
 1386 0064 38BF     		it	cc
 1387 0066 0021     		movcc	r1, #0
 1388 0068 0420     		movs	r0, #4
 1389 006a FFF7FEFF 		bl	_test_assert
ARM GAS  /tmp/cc6FwhuH.s 			page 79


 1390 006e 0028     		cmp	r0, #0
 1391 0070 D4D1     		bne	.L24
 1392 0072 0A21     		movs	r1, #10
 1393 0074 4FF0FF30 		mov	r0, #-1
 1394 0078 FFF7FEFF 		bl	chEvtWaitAnyTimeout
 1395 007c D0F10101 		rsbs	r1, r0, #1
 1396 0080 38BF     		it	cc
 1397 0082 0021     		movcc	r1, #0
 1398 0084 0520     		movs	r0, #5
 1399 0086 FFF7FEFF 		bl	_test_assert
 1400 008a 0028     		cmp	r0, #0
 1401 008c C6D1     		bne	.L24
 1402 008e 0A21     		movs	r1, #10
 1403 0090 4FF0FF30 		mov	r0, #-1
 1404 0094 FFF7FEFF 		bl	chEvtWaitAllTimeout
 1405 0098 BDE80840 		pop	{r3, lr}
 1406 009c D0F10101 		rsbs	r1, r0, #1
 1407 00a0 38BF     		it	cc
 1408 00a2 0021     		movcc	r1, #0
 1409 00a4 0620     		movs	r0, #6
 1410 00a6 FFF7FEBF 		b	_test_assert
 1411              		.size	evt3_execute, .-evt3_execute
 1412              		.global	patternevt
 1413              		.global	testevt3
 1414              		.global	testevt2
 1415              		.global	testevt1
 1416 00aa 00BFAFF3 		.section	.rodata.patternevt,"a",%progbits
 1416      0080
 1417              		.align	2
 1418              		.type	patternevt, %object
 1419              		.size	patternevt, 16
 1420              	patternevt:
 1421 0000 00000000 		.word	testevt1
 1422 0004 00000000 		.word	testevt2
 1423 0008 00000000 		.word	testevt3
 1424 000c 00000000 		.word	0
 1425              		.section	.rodata.testevt2,"a",%progbits
 1426              		.align	2
 1427              		.type	testevt2, %object
 1428              		.size	testevt2, 16
 1429              	testevt2:
 1430 0000 1C000000 		.word	.LC3
 1431 0004 00000000 		.word	evt2_setup
 1432 0008 00000000 		.word	0
 1433 000c 00000000 		.word	evt2_execute
 1434              		.section	.rodata.str1.4,"aMS",%progbits,1
 1435              		.align	2
 1436              	.LC0:
 1437 0000 41424300 		.ascii	"ABC\000"
 1438              	.LC1:
 1439 0004 4100     		.ascii	"A\000"
 1440 0006 0000     		.space	2
 1441              	.LC2:
 1442 0008 4576656E 		.ascii	"Events, timeouts\000"
 1442      74732C20 
 1442      74696D65 
 1442      6F757473 
ARM GAS  /tmp/cc6FwhuH.s 			page 80


 1442      00
 1443 0019 000000   		.space	3
 1444              	.LC3:
 1445 001c 4576656E 		.ascii	"Events, wait and broadcast\000"
 1445      74732C20 
 1445      77616974 
 1445      20616E64 
 1445      2062726F 
 1446 0037 00       		.space	1
 1447              	.LC4:
 1448 0038 4576656E 		.ascii	"Events, registration and dispatch\000"
 1448      74732C20 
 1448      72656769 
 1448      73747261 
 1448      74696F6E 
 1449 005a 0000     		.section	.rodata.testevt1,"a",%progbits
 1450              		.align	2
 1451              		.type	testevt1, %object
 1452              		.size	testevt1, 16
 1453              	testevt1:
 1454 0000 38000000 		.word	.LC4
 1455 0004 00000000 		.word	evt1_setup
 1456 0008 00000000 		.word	0
 1457 000c 00000000 		.word	evt1_execute
 1458              		.section	.rodata.evhndl,"a",%progbits
 1459              		.align	2
 1460              		.set	.LANCHOR1,. + 0
 1461              		.type	evhndl, %object
 1462              		.size	evhndl, 12
 1463              	evhndl:
 1464 0000 00000000 		.word	h1
 1465 0004 00000000 		.word	h2
 1466 0008 00000000 		.word	h3
 1467              		.section	.rodata.testevt3,"a",%progbits
 1468              		.align	2
 1469              		.type	testevt3, %object
 1470              		.size	testevt3, 16
 1471              	testevt3:
 1472 0000 08000000 		.word	.LC2
 1473 0004 00000000 		.word	evt3_setup
 1474 0008 00000000 		.word	0
 1475 000c 00000000 		.word	evt3_execute
 1476              		.section	.data.es1,"aw",%progbits
 1477              		.align	2
 1478              		.set	.LANCHOR0,. + 0
 1479              		.type	es1, %object
 1480              		.size	es1, 4
 1481              	es1:
 1482 0000 00000000 		.word	es1
 1483              		.section	.data.es2,"aw",%progbits
 1484              		.align	2
 1485              		.set	.LANCHOR2,. + 0
 1486              		.type	es2, %object
 1487              		.size	es2, 4
 1488              	es2:
 1489 0000 00000000 		.word	es2
 1490              		.comm	__gnu_lto_v1,1,1
ARM GAS  /tmp/cc6FwhuH.s 			page 81


 1491              		.ident	"GCC: (GNU Tools for ARM Embedded Processors) 4.8.4 20140526 (release) [ARM/embedded-4_8-br
ARM GAS  /tmp/cc6FwhuH.s 			page 82


DEFINED SYMBOLS
                            *ABS*:0000000000000000 testevt.c
     /tmp/cc6FwhuH.s:880    .text.h3:0000000000000000 $t
     /tmp/cc6FwhuH.s:885    .text.h3:0000000000000000 h3
     /tmp/cc6FwhuH.s:893    .text.h2:0000000000000000 $t
     /tmp/cc6FwhuH.s:898    .text.h2:0000000000000000 h2
     /tmp/cc6FwhuH.s:906    .text.h1:0000000000000000 $t
     /tmp/cc6FwhuH.s:911    .text.h1:0000000000000000 h1
     /tmp/cc6FwhuH.s:919    .text.evt1_execute:0000000000000000 $t
     /tmp/cc6FwhuH.s:924    .text.evt1_execute:0000000000000000 evt1_execute
     /tmp/cc6FwhuH.s:985    .text.evt1_execute:0000000000000080 $d
     /tmp/cc6FwhuH.s:990    .text.evt1_setup:0000000000000000 $t
     /tmp/cc6FwhuH.s:995    .text.evt1_setup:0000000000000000 evt1_setup
     /tmp/cc6FwhuH.s:1003   .text.evt2_setup:0000000000000000 $t
     /tmp/cc6FwhuH.s:1008   .text.evt2_setup:0000000000000000 evt2_setup
     /tmp/cc6FwhuH.s:1016   .text.evt3_setup:0000000000000000 $t
     /tmp/cc6FwhuH.s:1021   .text.evt3_setup:0000000000000000 evt3_setup
     /tmp/cc6FwhuH.s:1029   .text.evt2_execute:0000000000000000 $t
     /tmp/cc6FwhuH.s:1034   .text.evt2_execute:0000000000000000 evt2_execute
     /tmp/cc6FwhuH.s:1286   .text.evt2_execute:0000000000000298 $d
     /tmp/cc6FwhuH.s:1327   .text.thread1:0000000000000000 thread1
     /tmp/cc6FwhuH.s:1301   .text.thread2:0000000000000000 thread2
     /tmp/cc6FwhuH.s:1296   .text.thread2:0000000000000000 $t
     /tmp/cc6FwhuH.s:1318   .text.thread2:000000000000001c $d
     /tmp/cc6FwhuH.s:1322   .text.thread1:0000000000000000 $t
     /tmp/cc6FwhuH.s:1341   .text.evt3_execute:0000000000000000 $t
     /tmp/cc6FwhuH.s:1346   .text.evt3_execute:0000000000000000 evt3_execute
     /tmp/cc6FwhuH.s:1420   .rodata.patternevt:0000000000000000 patternevt
     /tmp/cc6FwhuH.s:1471   .rodata.testevt3:0000000000000000 testevt3
     /tmp/cc6FwhuH.s:1429   .rodata.testevt2:0000000000000000 testevt2
     /tmp/cc6FwhuH.s:1453   .rodata.testevt1:0000000000000000 testevt1
     /tmp/cc6FwhuH.s:1417   .rodata.patternevt:0000000000000000 $d
     /tmp/cc6FwhuH.s:1426   .rodata.testevt2:0000000000000000 $d
     /tmp/cc6FwhuH.s:1435   .rodata.str1.4:0000000000000000 $d
     /tmp/cc6FwhuH.s:1450   .rodata.testevt1:0000000000000000 $d
     /tmp/cc6FwhuH.s:1459   .rodata.evhndl:0000000000000000 $d
     /tmp/cc6FwhuH.s:1463   .rodata.evhndl:0000000000000000 evhndl
     /tmp/cc6FwhuH.s:1468   .rodata.testevt3:0000000000000000 $d
     /tmp/cc6FwhuH.s:1477   .data.es1:0000000000000000 $d
     /tmp/cc6FwhuH.s:1481   .data.es1:0000000000000000 es1
     /tmp/cc6FwhuH.s:1484   .data.es2:0000000000000000 $d
     /tmp/cc6FwhuH.s:1488   .data.es2:0000000000000000 es2
                            *COM*:0000000000000001 __gnu_lto_v1
     /tmp/cc6FwhuH.s:989    .text.evt1_execute:000000000000008c $t
     /tmp/cc6FwhuH.s:1295   .text.evt2_execute:00000000000002b8 $t
     /tmp/cc6FwhuH.s:1321   .text.thread2:0000000000000024 $t

UNDEFINED SYMBOLS
test_emit_token
chEvtRegisterMaskWithFlags
_test_assert
chEvtUnregister
chEvtDispatch
_test_assert_sequence
chEvtGetAndClearEvents
chEvtAddEvents
chEvtWaitOne
ARM GAS  /tmp/cc6FwhuH.s 			page 83


test_wait_tick
chThdCreateStatic
_test_assert_time_window
test_wait_threads
chEvtWaitAny
chEvtWaitAll
ch
threads
wa
chEvtBroadcastFlags
chThdSleep
chEvtSignal
chEvtWaitOneTimeout
chEvtWaitAnyTimeout
chEvtWaitAllTimeout
