ARM GAS  /tmp/cc76wJM6.s 			page 1


   1              		.syntax unified
   2              		.cpu cortex-m3
   3              		.fpu softvfp
   4              		.eabi_attribute 20, 1
   5              		.eabi_attribute 21, 1
   6              		.eabi_attribute 23, 3
   7              		.eabi_attribute 24, 1
   8              		.eabi_attribute 25, 1
   9              		.eabi_attribute 26, 1
  10              		.eabi_attribute 30, 2
  11              		.eabi_attribute 34, 1
  12              		.eabi_attribute 18, 4
  13              		.thumb
  14              		.file	"testqueues.c"
  15              		.section	.gnu.lto_.jmpfuncs.5cf793ed88900310,"",%progbits
  16 0000 789C9D53 		.ascii	"x\234\235S=\326\2020\020\234\335\020\010\240\357y\002"
  16      3DD68230 
  16      109CDD10 
  16      08A0EF79 
  16      02
  17 0011 CFF2FD78 		.ascii	"\317\362\375x\010{+\012O`C\351\021l<\211\027\340L6\012"
  17      087B2B0A 
  17      4F6043E9 
  17      116C3C89 
  17      17E04C36 
  18 0026 2B210113 		.ascii	"+!\001\023Qi \314\316\3162\2630\030\241\353\222\000"
  18      516920CC 
  18      CECE32B3 
  18      3018A1EB 
  18      9200
  19 0038 697BCF01 		.ascii	"i{\317\001\002\363\001\327\372X\257*\302\236\004\347"
  19      02F301D7 
  19      FA58AF2A 
  19      C29E04E7 
  20 0048 2D55444D 		.ascii	"-UDM{P\320\317p_\300m\027\007\252\235\307m\021h(\207"
  20      7B50D0CF 
  20      705FC06D 
  20      1707AA9D 
  20      C76D1168 
  21 005e EA3DD180 		.ascii	"\352=\321\200\246#\211\314\227\260u\357I\230\350\360"
  21      A62389CC 
  21      97B075EF 
  21      4998E8F0 
  22 006e 22214F99 		.ascii	"\"!O\231\222\227\261\217\274\335Tg\202-N\340\210\272"
  22      9297B18F 
  22      BCDD5467 
  22      822D4EE0 
  22      88BA
  23 0080 D73E752C 		.ascii	"\327>u,\263\006\235\353\323OE9\"\015\201$\356\225\261"
  23      B3069DEB 
  23      D34F4539 
  23      220D8124 
  23      EE95B1
  24 0093 82AE7FEA 		.ascii	"\202\256\177\352ie\337\364\344\347\236\346sJ\356\215"
  24      6965DFF4 
  24      E4E79EE6 
  24      734AEE8D 
ARM GAS  /tmp/cc76wJM6.s 			page 2


  25 00a3 51BCF2AA 		.ascii	"Q\274\362\252\233\227\002\330\203ZB2\177\224f\215,\236"
  25      9B9702D8 
  25      835A4232 
  25      7F94668D 
  25      2C9E
  26 00b5 2B2E765E 		.ascii	"+.v^\376\211c-bf\012\\\026C\341\262{Y\016G\216\372\325"
  26      FE89632D 
  26      62660A5C 
  26      1643E1B2 
  26      7B590E47 
  27 00cc 17C871E1 		.ascii	"\027\310q\341\317kW\213\246\233a\203\217\207\035\350"
  27      CF6B578B 
  27      A69B6183 
  27      8F871DE8 
  28 00dc E27664E4 		.ascii	"\342vd\344\367t\177\337\211\375\225i\0342\315\314\014"
  28      F7747FDF 
  28      89FD9569 
  28      1C32CDCC 
  28      0C
  29 00ed 95CF0C15 		.ascii	"\225\317\014\025X\202\342sJ\351)J\214\263\277\3734\316"
  29      5882E273 
  29      4AE9294A 
  29      8CB3BFFB 
  29      34CE
  30 00ff E538CE00 		.ascii	"\3458\316\000\177\364\227\372\311B\377\376\375op\007"
  30      7FF497FA 
  30      C942FFFE 
  30      FD6F7007 
  31 010f EB8FACA1 		.ascii	"\353\217\254\241"
  32              		.text
  33              		.section	.gnu.lto_.inline.5cf793ed88900310,"",%progbits
  34 0000 789C9551 		.ascii	"x\234\225Q9\016\3020\020\234\265\235\004r\">@\007\015"
  34      390EC230 
  34      109CB59D 
  34      0472223E 
  34      40070D
  35 0013 052FC98B 		.ascii	"\005/\311\213x\000\022MJ\012\012:J$\036\202\340\013"
  35      7800124D 
  35      4A0A0A3A 
  35      4A241E82 
  35      E00B
  36 0025 1488860F 		.ascii	"\024\210\206\017 \012\2746&\261\204#\341\306\332\331"
  36      200ABC36 
  36      26B18423 
  36      E1C6DAD9 
  37 0035 9DF1CC5A 		.ascii	"\235\361\314Z@\340\327Y~\340! \005\231\241x71 !.}D\346"
  37      40E0D759 
  37      7EE02120 
  37      0599A178 
  37      37312021 
  38 004d E05A221D 		.ascii	"\340Z\"\035\353\2068W\337N\\\001\021\232\032|%\225O"
  38      EB863857 
  38      DF4E5C01 
  38      119A1A7C 
  38      25954F
  39 0060 53057380 		.ascii	"S\005s\200\244\2277\300\201V\244\373[:>\204G\026\356"
  39      A49737C0 
ARM GAS  /tmp/cc76wJM6.s 			page 3


  39      8156A4FB 
  39      5B3A3E84 
  39      4716EE
  40 0073 6A6A5518 		.ascii	"jjU\030m\221\021\210+\207Zc9\231\222U\225Q\365\007\232"
  40      6D911188 
  40      2B875A63 
  40      39999255 
  40      9551F507 
  41 0088 3A3CD1C7 		.ascii	":<\321\307\201}\222W\342\300d\244\215\353\351.\201\322"
  41      817D9257 
  41      E2C064A4 
  41      8DEBE92E 
  41      81D2
  42 009a D6AF2535 		.ascii	"\326\257%5u\206\331I\323\304\342yo3u\006[K\256\316\261"
  42      7586D949 
  42      D3C4E279 
  42      6F337506 
  42      5B4BAECE 
  43 00af A70DEF61 		.ascii	"\247\015\357aG\257\265\352\354\236X'\220\273k-\234$"
  43      47AFB5EA 
  43      EC9E5827 
  43      90BB6B2D 
  43      9C24
  44 00c1 68DACFF6 		.ascii	"h\332\317\366\317r\242\322\376\255\313[`za\237\363\333"
  44      CF72A2D2 
  44      FEADCB5B 
  44      607A619F 
  44      F3DB
  45 00d3 3590977F 		.ascii	"5\220\227\177P\262\226\003\360\006\262\230?\225"
  45      50B29603 
  45      F006B298 
  45      3F95
  46              		.text
  47              		.section	.gnu.lto_.pureconst.5cf793ed88900310,"",%progbits
  48 0000 789C6362 		.ascii	"x\234cb`b\020f\200\000N\006\006F\011f\011V\011v\011"
  48      60621066 
  48      80004E06 
  48      06460966 
  48      09560976 
  49 0015 0E2B6E2B 		.ascii	"\016+n+\036+^+\000\014\353\001\245"
  49      1E2B5E2B 
  49      000CEB01 
  49      A5
  50              		.text
  51              		.section	.gnu.lto_notify.5cf793ed88900310,"",%progbits
  52 0000 789C6362 		.ascii	"x\234cb`b@\007\222@\034\010\304&@\314\310\314\300\310"
  52      60624007 
  52      92401C08 
  52      C42640CC 
  52      C8CCC0C8 
  53 0014 34E11C03 		.ascii	"4\341\034\003C#\007\023##\210\301\300\310P\317\304X"
  53      43230713 
  53      232388C1 
  53      C0C850CF 
  53      C458
  54 0026 1FC90856 		.ascii	"\037\311\010V\273\236\351\300\203\377\377\327}\332\370"
  54      BB9EE9C0 
ARM GAS  /tmp/cc76wJM6.s 			page 4


  54      83FFFFD7 
  54      7DDAF8
  55 0035 A89A1164 		.ascii	"\250\232\021d\022+CKC\303\004\005\006\206d\260|\010"
  55      122B434B 
  55      43C30405 
  55      068664B0 
  55      7C08
  56 0047 9004690A 		.ascii	"\220\004i\012\005J\002i\346\213\014\214\211\214\013"
  56      054A0269 
  56      E68B0C8C 
  56      898C0B
  57 0056 1959E176 		.ascii	"\031Y\341v\20502\202$@Z\215\3643\362sS\365\223\363S"
  57      85303282 
  57      24405A8D 
  57      F433F273 
  57      53F593F3 
  58 006b 2AF55352 		.ascii	"*\365SR\313\364\22332\2232\363\213\365K\212J\363\262"
  58      CBF49333 
  58      329332F3 
  58      8BF54B8A 
  58      4AF3B2
  59 007e F54B528B 		.ascii	"\365KR\213K\364\213J\300taijij\261^2\003\000\351\300"
  59      4BF48B4A 
  59      C0746169 
  59      6A696AB1 
  59      5E320300 
  60 0094 29CE     		.ascii	")\316"
  61              		.text
  62              		.section	.gnu.lto_thread1.5cf793ed88900310,"",%progbits
  63 0000 789C6362 		.ascii	"x\234cb`b@\007\222@<\033\210M\200\230\221\231\201\221"
  63      60624007 
  63      92403C1B 
  63      884D8098 
  63      91998191 
  64 0014 69C23906 		.ascii	"i\3029\006\206F\016&FF\020\203\201\221\241\236\211\261"
  64      86460E26 
  64      46461083 
  64      8191A19E 
  64      89B1
  65 0026 3E9211AC 		.ascii	">\222\021\254v=\323\201\007\377\377\257\273vl~\017\343"
  65      763DD381 
  65      07FFFFAF 
  65      BB766C7E 
  65      0FE3
  66 0038 6C2666A0 		.ascii	"l&f\240\010+CKC\303\004\005\006\206d\260\212\020 \011"
  66      082B434B 
  66      43C30405 
  66      068664B0 
  66      8A102009 
  67 004c D216CAC8 		.ascii	"\322\026\312\310\004\242\231\3173\264>X\267\230+\221"
  67      04A299CF 
  67      33B43E58 
  67      B7982B91 
  68 005c 7121232B 		.ascii	"q!#+P\272\232\341WCG\203@&#P9\304D\220\010G&#c.#\003"
  68      50BA9AE1 
  68      57434783 
  68      40262350 
ARM GAS  /tmp/cc76wJM6.s 			page 5


  68      39C44490 
  69 0078 54510463 		.ascii	"TQ\004c&#\323\011F\206L\240c\030.24>X\237\014\221\001"
  69      2623D309 
  69      46864CA0 
  69      63182E32 
  69      343E589F 
  70 008f 49B0C05C 		.ascii	"I\260\300\\\035\002\324\017\264\000\344\035#\375\214"
  70      1D02D40F 
  70      B400E41D 
  70      23FD8C
  71 009e FCDC54FD 		.ascii	"\374\334T\375\344\374\224J\375\224\3242\375\344\214"
  71      E4FC944A 
  71      FD94D432 
  71      FDE48C
  72 00ad CCA4CCFC 		.ascii	"\314\244\314\374b\375\222\242\322\274l\375\222\324\342"
  72      62FD92A2 
  72      D2BC6CFD 
  72      92D4E2
  73 00bc 12FDA212 		.ascii	"\022\375\242\0220]X\232Z\232Z\254\227\314\000\000'\314"
  73      305D589A 
  73      5A9A5AAC 
  73      97CC0000 
  73      27CC
  74 00ce 3C04     		.ascii	"<\004"
  75              		.text
  76              		.section	.gnu.lto_queues1_setup.5cf793ed88900310,"",%progbits
  77 0000 789C5D50 		.ascii	"x\234]P\261J\304@\024\234yI\316\330\331\332\011\326"
  77      B14AC440 
  77      149C7949 
  77      CED8D9DA 
  77      09D6
  78 0012 E782F829 		.ascii	"\347\202\370)'h\251{\301[$\006/\211 \026\227\210\205"
  78      2768A97B 
  78      C15B2406 
  78      2F892016 
  78      978885
  79 0025 65CA70DA 		.ascii	"e\312p\332\0106\202\350\017XX\211\215\212\275\305\325"
  79      083682E8 
  79      0F585889 
  79      8D8ABDC5 
  79      D5
  80 0036 7E82CDB9 		.ascii	"~\202\315\271\233\\@|\260\373f\337\274\231}\273\002"
  80      9B5C407C 
  80      B0FB66DF 
  80      BC997DBB 
  80      02
  81 0047 C1FF58B5 		.ascii	"\301\377X\265K\010l\331L\017\224\352\035(C!\035\000"
  81      4B086CD9 
  81      4C0F94EA 
  81      1D284321 
  81      1D00
  82 0059 31114E76 		.ascii	"1\021Nv\331\364>\312\363l>\177xz\271\275\346T|\201i"
  82      D9F43ECA 
  82      F36C3E7F 
  82      787AB9BD 
  82      E6547C81 
  83 006e EA012E8A 		.ascii	"\352\001.\212\242Z\003ts\034\330\335i\267).{o8\377\252"
ARM GAS  /tmp/cc76wJM6.s 			page 6


  83      A25A0374 
  83      731CD8DD 
  83      69B7292E 
  83      7B6F38FF 
  84 0083 BF5FBD3D 		.ascii	"\277_\275=\3360\300\001\245\217\373b\305\220W\230\226"
  84      DE30C001 
  84      A58FFB62 
  84      C5905798 
  84      96
  85 0094 95437286 		.ascii	"\225Cr\206\237\242v\310\213\033\213\035Z\210\016\371"
  85      9FA276C8 
  85      8B1B8B1D 
  85      5A880EF9 
  86 00a4 7FC6FD40 		.ascii	"\177\306\375@]\324Ak\0058\335\245\323\005\232\355\210"
  86      5DD4416B 
  86      0538DDA5 
  86      D3059AED 
  86      88
  87 00b5 AE121AF6 		.ascii	"\256\022\032\366br\321d/t&K~\307\205\232\262\340\034"
  87      6272D164 
  87      2F74264B 
  87      7EC7859A 
  87      B2E01C
  88 00c8 614586CB 		.ascii	"aE\206\313\300'\312\331\335z\347\334\306\300\272\332"
  88      C027CAD9 
  88      DD7AE7DC 
  88      C6C0BADA 
  89 00d8 27B85FDB 		.ascii	"'\270_\333T\243$\216\224N\206\247j\030\235(=2\373&I"
  89      54A3248E 
  89      944E86A7 
  89      6A189D28 
  89      3D32FB26 
  90 00ed 5536CE8F 		.ascii	"U6\316\217\016U\026\245\231\032gM>\316\243<J74~\001"
  90      0E5516A5 
  90      991A674D 
  90      3ECEA33C 
  90      4A37347E 
  91 0102 1BAC4E9D 		.ascii	"\033\254N\235"
  92              		.text
  93              		.section	.gnu.lto_thread2.5cf793ed88900310,"",%progbits
  94 0000 789C6362 		.ascii	"x\234cb`b@\007\222@\274\010\210M\200\230\221\231\201"
  94      60624007 
  94      9240BC08 
  94      884D8098 
  94      919981
  95 0013 9169C239 		.ascii	"\221i\3029\006\206F\016&FF\020\203\201\221\241\236\211"
  95      0686460E 
  95      26464610 
  95      838191A1 
  95      9E89
  96 0025 B13E9211 		.ascii	"\261>\222\021\254v=\323\201\007\377\377\257\333rz\376"
  96      AC763DD3 
  96      8107FFFF 
  96      AFDB727A 
  96      FE
  97 0036 1FC6B54C 		.ascii	"\037\306\265L\314@\021V\206\226\206\206\011\012\014"
  97      CC401156 
ARM GAS  /tmp/cc76wJM6.s 			page 7


  97      86968686 
  97      090A0C
  98 0045 0CC96015 		.ascii	"\014\311`\025!@\022\244-\224\221\011D3\237gh{pw)W\""
  98      214012A4 
  98      2D949109 
  98      44339F67 
  98      687B7077 
  99 005c E3424656 		.ascii	"\343BFV\240t5\303\257\206\216\006\201LF\240r\210\211"
  99      A07435C3 
  99      AF868E06 
  99      814C46A0 
  99      728889
 100 006f 20118E4C 		.ascii	" \021\216LF\306\\F\006\250\242\010\306L\240f0\305|\202"
 100      46C65C46 
 100      06A8A208 
 100      C64CA066 
 100      30C57C82 
 101 0083 91219391 		.ascii	"\221!\223\221\205\201\341\"C\343\203{\251\020\005 \011"
 101      8581E122 
 101      43E3837B 
 101      A9100520 
 101      09
 102 0094 5698E343 		.ascii	"V\230\343C\200\306\000\355\001\371\312H?#?7U?9?\245"
 102      80C600ED 
 102      01F9CA48 
 102      3F233F37 
 102      553F393F 
 103 00a9 523F25B5 		.ascii	"R?%\265L?9#3)3\277X\277\244\2504/[\277$\265\270D\277"
 103      4C3F3923 
 103      332933BF 
 103      58BFA4A8 
 103      342F5BBF 
 104 00c2 A8044C17 		.ascii	"\250\004L\027\226\246\226\246\026\353%3\000\000\336"
 104      96A696A6 
 104      16EB2533 
 104      0000DE
 105 00d1 BA3D9B   		.ascii	"\272=\233"
 106              		.text
 107              		.section	.gnu.lto_queues2_setup.5cf793ed88900310,"",%progbits
 108 0000 789C5D50 		.ascii	"x\234]P=K\304@\024\234yI4v\266v6\226\272 \376\224\023"
 108      3D4BC440 
 108      149C7949 
 108      3476B676 
 108      3696BA20 
 109 0017 B4D4BDE0 		.ascii	"\264\324\275\340-G\014^\022A,.\021\013\013\213\224\341"
 109      2D470C5E 
 109      12412C2E 
 109      110B0B8B 
 109      94E1
 110 0029 AC044B3F 		.ascii	"\254\004K?\012\377\200\255\210\212\235\205\305\375\014"
 110      0AFF80AD 
 110      888A9D85 
 110      C5FD0C
 111 0038 B1397793 		.ascii	"\2619w\223\013\210\017v\337\354\2337\263oW \370\037"
 111      0B880F76 
 111      DFEC9B37 
 111      B36F5720 
ARM GAS  /tmp/cc76wJM6.s 			page 8


 111      F81F
 112 004a 2B760981 		.ascii	"+v\011\201-\233\351\201R\275\001e(\244\003 \306\302"
 112      2D9BE981 
 112      52BD0165 
 112      28A40320 
 112      C6C2
 113 005c F12E9BDE 		.ascii	"\361.\233\336\007y\232\316f\367\223\227\233K\336\211"
 113      07799ACE 
 113      66F79397 
 113      9B4BDE89 
 114 006c 2F304D3D 		.ascii	"/0M=\300yQT\253\200n\216=\273;\3556\305e\357\025g_\337"
 114      C0795154 
 114      AB806E8E 
 114      3DBB3BED 
 114      36C565EF 
 115 0084 8FCFDE1E 		.ascii	"\217\317\336\036\257\031\340\200\262\216\333b\331\220"
 115      AF19E080 
 115      B28EDB62 
 115      D990
 116 0092 57989495 		.ascii	"W\230\224\225Cr\212\237\242v\310\213\033\213\035Z\210"
 116      43728A9F 
 116      A276C88B 
 116      1B8B1D5A 
 116      88
 117 00a3 0EF97FC6 		.ascii	"\016\371\177\306}G]\324Ak\0058\335\205\323\005\232\355"
 117      7D475DD4 
 117      416B0538 
 117      DD85D305 
 117      9AED
 118 00b5 88AE121A 		.ascii	"\210\256\022\032.\304\344\274\311^\350L\026\375\216"
 118      2EC4E4BC 
 118      C95EE84C 
 118      16FD8E
 119 00c4 0B3565CE 		.ascii	"\0135e\3169\302\212\014\227\200\017\224\323\317\265"
 119      39C28A0C 
 119      97800F94 
 119      D3CFB5
 120 00d3 CEB98D9E 		.ascii	"\316\271\215\236u\265Op\277\266\251\006I\034)\235\364"
 120      75B54F70 
 120      BFB6A906 
 120      491C299D 
 120      F4
 121 00e4 4F543F3A 		.ascii	"OT?:Vz`\366M\222\252l\224\037\016U\026\245\231\032e"
 121      567A60F6 
 121      4D92AA6C 
 121      941F0E55 
 121      16A5991A 
 122 00f9 4D3ECAA3 		.ascii	"M>\312\243<J74~\0014\273N\336"
 122      3C4A3734 
 122      7E0134BB 
 122      4EDE
 123              		.text
 124              		.section	.gnu.lto_queues1_execute.part.3.5cf793ed88900310,"",%progbits
 125 0000 789CCD58 		.ascii	"x\234\315Xkl\034W\025>gf\037\263\273\263\336\207\355"
 125      6B6C1C57 
 125      153E6766 
 125      1FB3BBB3 
ARM GAS  /tmp/cc76wJM6.s 			page 9


 125      DE87ED
 126 0013 7D79ED38 		.ascii	"}y\3558\316;q\274N%@\025Rhi\205\324\037\255\004i\245"
 126      CE3B71BC 
 126      4E254015 
 126      52686985 
 126      D41FAD04 
 127 0029 F0032167 		.ascii	"\360\003!g\262\265Gd\343\342GE\305\217\214\343\320\006"
 127      B2B54764 
 127      E3E24745 
 127      C58F8CE3 
 127      D006
 128 003b B5345164 		.ascii	"\2654Qd\211\020\204T\324\026B\032JpU\004\025\022\016"
 128      89108454 
 128      D416421A 
 128      4A705504 
 128      15120E
 129 004e 49519BA8 		.ascii	"IQ\233\250\336\264\205H@~\370\027**\215\332\002*EQ\315"
 129      DEB48548 
 129      407EF817 
 129      2A2A8DDA 
 129      022A4551 
 130 0063 39F7CEDC 		.ascii	"9\367\316\334};v\262\010\346\307\235{\357\336\357\273"
 130      7D3B76B2 
 130      08E6C79D 
 130      7BEFDEEF 
 130      BB
 131 0074 E79C7BBE 		.ascii	"\347\234{\2763;\243\201\006\365\327\303\010po\006 I"
 131      333BA381 
 131      06F5D7C3 
 131      08706F06 
 131      2049
 132 0086 77EC03EC 		.ascii	"w\354\003\354=\276H\235^\324\304]\323\364_\367\201\023"
 132      3DBE489D 
 132      5ED4C45D 
 132      D3F45FF7 
 132      8113
 133 0098 F6FDBE00 		.ascii	"\366\375\276\000\216\251c\236gg\014\037\006d\307/;\347"
 133      8EA9639E 
 133      67670C1F 
 133      0664C72F 
 133      3BE7
 134 00aa 8D80E65F 		.ascii	"\215\200\346_\330M\013\203Wb\2640\250\031W\011\020\016"
 134      D84D0B83 
 134      5762B430 
 134      A8195709 
 134      100E
 135 00bc BD4260D3 		.ascii	"\275B`\323\360`!-/\330\302\202-\214\246\234\216\310"
 135      F060212D 
 135      2FD8C282 
 135      2D8CA69C 
 135      8EC8
 136 00ce CE79C3D4 		.ascii	"\316y\303\324\"\202$*H\242Z^\220t\010\222\016-&\260"
 136      2282242A 
 136      48A25A5E 
 136      90740892 
 136      0E2D26B0 
 137 00e2 71818D79 		.ascii	"q\201\215y\224qL\312NBv\316\033I-!H:\005I\247K\322%"
ARM GAS  /tmp/cc76wJM6.s 			page 10


 137      94714CCA 
 137      4E4276CE 
 137      1B492D21 
 137      483A0549 
 138 00fa 48BADC51 		.ascii	"H\272\334Q\267\030uk)1J\213Q\312\243Lk\0311\235\025"
 138      B718756B 
 138      29314A8B 
 138      51CAA34C 
 138      6B19319D 
 139 010f D3196F3A 		.ascii	"\323\031o:\253\345\304t\217\230\316y\323=^'\217\310"
 139      ABE5C474 
 139      8F98CE79 
 139      D33D5E27 
 139      8FC8
 140 0121 1D4038D4 		.ascii	"\035@8\324\253\351>\177 h\204\302\0213\332\021\213'"
 140      ABE93E7F 
 140      206884C2 
 140      1133DA11 
 140      8B27
 141 0133 929D5DDD 		.ascii	"\222\235]\335\251t&\233\353\311\343\241/#\307\335\034"
 141      A974269B 
 141      EBC9E3A1 
 141      2F23C7DD 
 141      1C
 142 0144 801F3ACE 		.ascii	"\200\037:\316\251\245W\257\277\203\337\233[8\362\214"
 142      A9A557AF 
 142      BF83DF9B 
 142      5B38F28C 
 143 0154 73637919 		.ascii	"scy\031\321\346\037-\204\275\324\303~q\323|\265'&\201"
 143      D1E61F2D 
 143      84BDD4C3 
 143      7E71D37C 
 143      B5272681 
 144 0168 CEFC6927 		.ascii	"\316\374i'$@\272\215\372-`V\273\317\213\247\035\335"
 144      2440BA8D 
 144      FA2D6056 
 144      BBCF8BA7 
 144      1DDD
 145 017a C3F82A18 		.ascii	"\303\370*\030Cb\360\177\2109Y\343\217\177U\376\034_"
 145      4362F07F 
 145      883959E3 
 145      8F7F55FE 
 145      1C5F
 146 018c FAF34FCE 		.ascii	"\372\363O\316\216\325\004<\240\301\001\\U,\304a}wna"
 146      8ED5043C 
 146      A0C1015C 
 146      552CC461 
 146      7D776E61 
 147 01a0 4661FF7B 		.ascii	"Fa\377{\316\235X\370\370\361\357d\235g\016\037w>\241"
 147      CE9D58F8 
 147      F8F1EF64 
 147      9D670E1F 
 147      773EA1
 148 01b3 BDE8BC34 		.ascii	"\275\350\2744\230Z\225\231'\026>z\374\351jdP\203Go\206"
 148      985A9599 
 148      27163E7A 
 148      FCE96A64 
ARM GAS  /tmp/cc76wJM6.s 			page 11


 148      5083476F 
 149 01c8 FC99E62C 		.ascii	"\374\231\346,-/\177|&D\033\331hh\324\370tn|\324\370"
 149      2D2F7F7C 
 149      26441BD9 
 149      6868D4F8 
 149      746E7CD4 
 150 01dd FDD48402 		.ascii	"\375\324\204\0020\202/\342\000\004\335\273A\223\301"
 150      30822FE2 
 150      0004DDBB 
 150      4193C1
 151 01ec 10AF0973 		.ascii	"\020\257\011s\023\341\306t\177\213\322 \334\301M\314"
 151      13E1C674 
 151      7F8BD220 
 151      DCC14DCC 
 152 01fc 9D89D320 		.ascii	"\235\211\323 \222\240\301Y\032$ym'7]L\322\315\275\024"
 152      92A0C159 
 152      1A24796D 
 152      27375D4C 
 152      D2CDBD14 
 153 0210 37697775 		.ascii	"7iwu\206\241Ynr\356L\017\343\363.\276\227\327\366q\263"
 153      86A1596E 
 153      72EE4C0F 
 153      E3F32EBE 
 153      97D7F671 
 154 0225 CE9DE9E7 		.ascii	"\316\235\351\347\301zn\006\230q\003\3676r\263\211\207"
 154      C17A6E06 
 154      987103F7 
 154      3672B389 
 154      87
 155 0236 9BB9B785 		.ascii	"\233\271\267\205\233\255L\263\215\032s;5\372\016j\242"
 155      9BAD4CB3 
 155      8D1A733B 
 155      35FA0E6A 
 155      A2
 156 0247 833CDCC9 		.ascii	"\203<\334\311\353\206xI\201\233a\216\302.\020\247\005"
 156      EB867849 
 156      819B618E 
 156      C22E10A7 
 156      05
 157 0258 7E384299 		.ascii	"~8B\231\323/\015\221\373\2113\244\353Aj\313Y\272\365"
 157      D32F0D91 
 157      FB8933A4 
 157      EB416ACB 
 157      59BAF5
 158 026b D24D7F08 		.ascii	"\322M\177\0105\276-\302\341\017\376ua\376)\335\005\002"
 158      35BE2DC2 
 158      E10FFE75 
 158      61FE29DD 
 158      0502
 159 027d 81CE7182 		.ascii	"\201\316q\202ru@\370\025\351\225\012\261.\253q\037\\"
 159      727540F8 
 159      15E9950A 
 159      B12EAB71 
 159      1F5C
 160 028f C21F3827 		.ascii	"\302\0378'\357\262\261\203\207|81q$\352\3677\334\337"
 160      EFB2B183 
 160      877C3831 
ARM GAS  /tmp/cc76wJM6.s 			page 12


 160      7124EAF7 
 160      37DCDF
 161 02a2 E3F2A888 		.ascii	"\343\362\250\210\035W$\036\301\227\250#\210\372\253"
 161      1D57241E 
 161      C197A823 
 161      88FAAB
 162 02b1 8846F017 		.ascii	"\210F\360\027T\340\305U\206o\235\373\360N\211\035E\374"
 162      54E0C555 
 162      866F9DFB 
 162      F04E891D 
 162      45FC
 163 02c3 26FCDB39 		.ascii	"&\374\3339\352\304mLX(s\221g\014\033\223%\364v`\272"
 163      EAC46D4C 
 163      58287391 
 163      670C1B93 
 163      25F47660 
 164 02d8 4EA08074 		.ascii	"N\240\200t\001\274\001\263e\335CkD\300?\032\224\335"
 164      01BC01B3 
 164      65DD436B 
 164      44C03F1A 
 164      94DD
 165 02ea F2C243BC 		.ascii	"\362\302C\274\203\337[\240+\372n\013\345\003\210\327"
 165      83DF5BA0 
 165      2BFA6E0B 
 165      E50388D7 
 166 02fa 077506DB 		.ascii	"\007u\006\333\230\002x\015\216\374\015\325\362\275R"
 166      9802780D 
 166      8EFC0DD5 
 166      F2BD52
 167 0309 5795EB21 		.ascii	"W\225\353!\362f9\304Q\3759E\325\\\255\357\320\334w\311"
 167      F26639C4 
 167      51FD3945 
 167      D55CADEF 
 167      D0DC77C9 
 168 031d E8832B31 		.ascii	"\350\203+1}-\221\\\221\315\017\013\273u\016\352{WS\212"
 168      7D2D915C 
 168      91CD0F0B 
 168      BB750EEA 
 168      7B57538A 
 169 0331 5076162E 		.ascii	"Pv\026.\277w>\350\261[\\\251\201\234\364\251\230\244"
 169      BF773EE8 
 169      B15B5CA9 
 169      819CF4A9 
 169      98A4
 170 0343 2DF48DE0 		.ascii	"-\364\215\340E\271u\363\260g\250lP\340\263\034\370\303"
 170      45B975F3 
 170      B067A86C 
 170      50E0B31C 
 170      F8C3
 171 0355 EFCECEAB 		.ascii	"\357\316\316\253P\371G9Pe\360y\266+\326\234%\011y\221"
 171      50F94739 
 171      5065F079 
 171      B62BD69C 
 171      25097991 
 172 0369 8D3DE2C8 		.ascii	"\215=\342\310\216\316\276\373\364\003\03648\212\001"
 172      8ECEBEFB 
 172      F4031E34 
ARM GAS  /tmp/cc76wJM6.s 			page 13


 172      388A01
 173 0378 710AA89C 		.ascii	"q\012\250\234\010\000=\277t:\213\277\314\004\275e\001"
 173      08003DBF 
 173      743A8BBF 
 173      CC04BD65 
 173      01
 174 0389 F7A4BCEB 		.ascii	"\367\244\274\353\217 g\000|\247ub\361\277\023bh\320"
 174      8F206700 
 174      7CA77562 
 174      F1BF1362 
 174      68D0
 175 039b 8DE62AB2 		.ascii	"\215\346*\262\376\346\311IN\276\362\352\267\257+/\215"
 175      FEE6C949 
 175      4EBEF2EA 
 175      B7AF2B2F 
 175      8D
 176 03ac EFC3A919 		.ascii	"\357\303\251\031\207\275\252\370\307\021r\363(ix\260"
 176      87BDAAF8 
 176      C71172F3 
 176      286978B0 
 177 03bc D9F28597 		.ascii	"\331\362\205\227/?\320\270\373(\206\210e\257|\266\312"
 177      2F3FD0B8 
 177      FB288688 
 177      65AF7CB6 
 177      CA
 178 03cd E4FFED67 		.ascii	"\344\377\355g=\366p\213\354\3641\2541;\303M\262\323"
 178      3DF6708B 
 178      ECF431AC 
 178      313BC34D 
 178      B2D3
 179 03df 808B6DCE 		.ascii	"\200\213m\316\316\020<\025hGv\262\253o)W#\312\325\274"
 179      CE103C15 
 179      684776B2 
 179      AB6F2957 
 179      23CAD5BC 
 180 03f3 45A7AD5C 		.ascii	"E\247\255\\\365\213\270fl\354\355\203?\270\265\246\317"
 180      F58BB866 
 180      6CECED83 
 180      3FB8B5A6 
 180      CF
 181 0404 DBD1C675 		.ascii	"\333\321\306uu!\2104\011A\030\256\351k\016A\213\363"
 181      75218834 
 181      094118AE 
 181      E96B0E41 
 181      8BF3
 182 0416 978C11B8 		.ascii	"\227\214\021\270\336\241s\276_x\362\237o\252b\023\035"
 182      DEA173BE 
 182      5F78F29F 
 182      6FAA6213 
 182      1D
 183 0427 455326B3 		.ascii	"ES&\263\232\352\240YQ\234\356\206\252\262S\245\205\025"
 183      9AEAA059 
 183      519CEE86 
 183      AAB253A5 
 183      8515
 184 0439 8A1AA1BD 		.ascii	"\212\032\241\275\202vt\366\307\307\224:b\264M\235:L"
 184      827674F6 
ARM GAS  /tmp/cc76wJM6.s 			page 14


 184      C7C7943A 
 184      62B44D9D 
 184      3A4C
 185 044b B894AC13 		.ascii	"\270\224\254\023\207\331 \016\323\025G\230\305\021\213"
 185      87D9200E 
 185      D3154798 
 185      C5118B
 186 045a 487144DD 		.ascii	"HqD\335\330\254M\034-N\224\"r\355\332/\217\355\366l"
 186      D8AC4D1C 
 186      2D4E9422 
 186      72EDDA2F 
 186      8FEDF66C 
 187 046e 88EF84B3 		.ascii	"\210\357\204\263\354d?\213\3448\367\326\263\233'\271"
 187      EC643F8B 
 187      E438F7D6 
 187      B39B27B9 
 188 047e 3750128E 		.ascii	"7P\022\2163\335\200:\355@\325\237\2152<\261\240\312"
 188      33DD803A 
 188      ED40D59F 
 188      8D323CB1 
 188      A0CA
 189 0490 7442056C 		.ascii	"tB\005l\203\305>\250\020:_\251\213Y\\HI\376w\311p\206"
 189      83C53EA8 
 189      103A5FA9 
 189      8B595C48 
 189      49FE77C9 
 190 04a6 6C94EA9B 		.ascii	"l\224\352\233\375\3151u*I\"\024\313|P\3630\350l!\267"
 190      FDCD3175 
 190      2A492214 
 190      CB7C50F3 
 190      30E86C21 
 191 04bb 00631AE5 		.ascii	"\000c\032\345\326\331$\327:8Zm\3125Ykn\250\375\272n"
 191      D6D924D7 
 191      3A385A6D 
 191      CA35596B 
 191      6EA8FDBA 
 192 04d0 BFD67413 		.ascii	"\277\326t\023KM\2559\3749\217=\325\302\371 \303\032"
 192      4B4DAD39 
 192      FC398F3D 
 192      D5C2F920 
 192      C31A
 193 04e2 9D4F3571 		.ascii	"\235O5q>FK\332[k\342\360\001\264\243\326\264\341o\211"
 193      3E464BDA 
 193      5B6BE2F0 
 193      01B4A3D6 
 193      B4E16F89 
 194 04f6 34280117 		.ascii	"4(\001\027u\251\374\313\237T\224\237\031\305t\235\362"
 194      75A9FCCB 
 194      9F54949F 
 194      19C5749D 
 194      F2
 195 0507 B3347BEB 		.ascii	"\2634{\353\312\317V\224\377\367\212\362s\264M\235\362"
 195      CACF5694 
 195      FFF78AF2 
 195      73B44D9D 
 195      F2
 196 0518 93F0B2AF 		.ascii	"\223\360\262\257N\371\351\006\345\247]\345\307Y\371"
ARM GAS  /tmp/cc76wJM6.s 			page 15


 196      4EF9E906 
 196      E5A75DE5 
 196      C759F9
 197 0527 B984547E 		.ascii	"\271\204T~\247\033\332\366)\377\2719\245\374\236\266"
 197      A71BDAF6 
 197      29FFB939 
 197      A5FC9EB6 
 198 0537 293FBF6A 		.ascii	")?\277j\345\367\354\225/\"\015\312\177aN\235J/\021\272"
 198      E5F7EC95 
 198      2F220DCA 
 198      7F614E9D 
 198      4A2F11BA 
 199 054b CB6A94DF 		.ascii	"\313j\224\337\327\"\371\015\3064&\177_\223\344\357\202"
 199      D722F90D 
 199      C634267F 
 199      5F93E4EF 
 199      82
 200 055c 41FA97F5 		.ascii	"A\372\227\365\304\322\223\317\253e\353n\337\366\227"
 200      C4D293CF 
 200      AB65EB6E 
 200      DFF697
 201 056b 2AB6F713 		.ascii	"*\266\367\023a3\333\327\267\260=\304\230F\333\3277\261"
 201      6133DBD7 
 201      B7B03DC4 
 201      9846DBD7 
 201      37B1
 202 057d BD1B126D 		.ascii	"\275\033\022m-Z\257\377N\363\266\033\270\375\242\265"
 202      2D5AAFFF 
 202      4EF3B61B 
 202      B8FDA2B5 
 203 058d 81586A8A 		.ascii	"\201Xj\212\326[_\364\3307\266\360=\314\260F\33776\361"
 203      D65B5FF4 
 203      D837B6F0 
 203      3DCCB046 
 203      DF3736F1 
 204 05a1 3D05E1F6 		.ascii	"=\005\341\366\326\2544\004\377OJ\026\305\352\375\023"
 204      D6AC3404 
 204      FF4F4A16 
 204      C5EAFD13 
 205 05b1 6F1F584B 		.ascii	"o\037XK\351\251~\223*\303\221\245S\317\007\033\340\233"
 205      E9A97E93 
 205      2AC391A5 
 205      53CF071B 
 205      E09B
 206 05c3 2C345AC0 		.ascii	",4Z\300m\334,,oKQiC\004\344#tQe\343\246\325g\243\322"
 206      6DDC2C2C 
 206      6F4B5169 
 206      4304E423 
 206      745165E3 
 207 05dc DD668255 		.ascii	"\335f\202U\245\237\322\335\226\026\271\027aLc\356mi"
 207      A59FD2DD 
 207      9616B917 
 207      614C63EE 
 207      6D69
 208 05ee 927B19F0 		.ascii	"\222{\031\360\2657\367\262\240\267#\367D9\377\307\334"
 208      B537F7B2 
 208      A0B723F7 
ARM GAS  /tmp/cc76wJM6.s 			page 16


 208      4439FFC7 
 208      DC
 209 05ff 7D9EED5B 		.ascii	"}\236\355[\327\\\316\253\334$\262?\335\270\376\327K"
 209      D75CCEAB 
 209      DC24B23F 
 209      DDB8FED7 
 209      4B
 210 0610 81BA974F 		.ascii	"\201\272\227O\347\331\037\025\324\347\213\312\033\351"
 210      E7D91F15 
 210      D4E78BCA 
 210      1BE9
 211 061e E27C022B 		.ascii	"\342|\002+\257\244!f\260\350/<p%\330\266\003\3168\216"
 211      AFA42166 
 211      B0E82F3C 
 211      7025D8B6 
 211      03CE388E 
 212 0632 B3F4D1E2 		.ascii	"\263\364\321\342\325\347\370\365\334\224c\347N\033\267"
 212      D5E7F8F5 
 212      DC9463E7 
 212      4E1BB7
 213 0641 A893DDAA 		.ascii	"\250\223\335\252\316e[I\234\013\033\264M\230\262\017"
 213      CE655B49 
 213      9C0B1BB4 
 213      4D98B20F 
 214 0651 859F2F68 		.ascii	"\205\237/h~\356\243\352K#O\316\347F\360\254\306\016"
 214      7EEEA3EA 
 214      4B234FCE 
 214      E746F0AC 
 214      C60E
 215 0663 6F778927 		.ascii	"ow\211'm\324\025\361v2\200\271L\227K\204\362\247\036"
 215      6DD415F1 
 215      763280B9 
 215      4C974B84 
 215      F2A71E
 216 0676 7EF6E885 		.ascii	"~\366\350\205\313\213'B^\310v\020\011/\216\242\310\232"
 216      CB8B2742 
 216      5EC87610 
 216      092F8EA2 
 216      C89A
 217 0688 8C373FA8 		.ascii	"\2147?\250\254\333a\321{\204\364k\253H\234\3274\306"
 217      ACDB61D1 
 217      7B84F46B 
 217      AB489CD7 
 217      34C6
 218 069a B9A21AB4 		.ascii	"\271\242\032\264\320\254\322d\204\265\265S\330\371\372"
 218      D0ACD264 
 218      84B5B553 
 218      D8F9FA
 219 06a9 1557927C 		.ascii	"\025W\222|(t}\212,R6\016)\372BI\274\3173\270\320\344"
 219      28747D8A 
 219      2C52360E 
 219      29FA4249 
 219      BCCF33B8 
 220 06bf 5CC8925B 		.ascii	"\\\310\222[P\352\2122++\231\355\274\005\231\015\021"
 220      50EA8A32 
 220      2B2B99ED 
 220      BC05990D 
ARM GAS  /tmp/cc76wJM6.s 			page 17


 220      11
 221 06d0 AC99CC0A 		.ascii	"\254\231\314\012-df2\246Qf\205&2\313\201\326^\231\365"
 221      2D646632 
 221      A6516685 
 221      2632CB81 
 221      D65E99F5 
 222 06e4 00B6E70D 		.ascii	"\000\266\347\015x\366\375\017\337>\207\015\025v\330"
 222      78F6FD0F 
 222      DF3E870D 
 222      1576D8
 223 06f3 A21733BE 		.ascii	"\242\0273\276l\334%\312\370\322\231\242\347\340p\315"
 223      6CDC25CA 
 223      F8D299A2 
 223      E7E070CD 
 224 0703 D719B1AA 		.ascii	"\327\031\261\252y\031\277#\354}\227\251\212\362.\"\020"
 224      7919BF23 
 224      EC7D97A9 
 224      8AF22E22 
 224      10
 225 0714 1FC4969B 		.ascii	"\037\304\226\233~\020\253\262\2416\332Q\306\212h\313"
 225      7E10ABB2 
 225      A136DA51 
 225      C68A68CB 
 226 0724 08E4F953 		.ascii	"\010\344\371S\342\2330cT\302\362 \011\252\234e\314\035"
 226      E29B3063 
 226      54C2F220 
 226      09AA9C65 
 226      CC1D
 227 0736 85B1F152 		.ascii	"\205\261\361R\261`\215\357\177\254\260\277\370h\301"
 227      B1608DEF 
 227      7FACB0BF 
 227      F868C1
 228 0745 1AB3F7D9 		.ascii	"\032\263\367\331\343\223\205\251\211\351\203_+L\025"
 228      E39385A9 
 228      89E9835F 
 228      2B4C15
 229 0754 27A70A13 		.ascii	"'\247\012\023S\342\376\365\351\342tqr\310\202O\257\010"
 229      53E2FEF5 
 229      E9E27471 
 229      72C8824F 
 229      AF08
 230 0766 A10E01EC 		.ascii	"\241\016\001\354\203\326\201\351\375\264h\314\205\215"
 230      83D681E9 
 230      FDB468CC 
 230      858D
 231 0774 41D07E78 		.ascii	"A\320~x\252\364\310\3200\036D\373\256\233Q\024\2771"
 231      AAF4C8D0 
 231      301E44FB 
 231      AE9B5114 
 231      BF31
 232 0786 55B8E7FE 		.ascii	"U\270\347\376=\367\355\2510\215O\024\277j\225\2760}"
 232      3DF7EDA9 
 232      308D4F14 
 232      BF6A95BE 
 232      307D
 233 0798 D022B2F8 		.ascii	"\320\"\262\370\375{\276\324\277od\262\370\310\204=\330"
 233      FD7BBED4 
ARM GAS  /tmp/cc76wJM6.s 			page 18


 233      BF6F64B2 
 233      F8C8843D 
 233      D8
 234 07a9 BF6918B4 		.ascii	"\277i\030\264\011\010\226\212\245\361\211\307\300\177"
 234      0908968A 
 234      A5F189C7 
 234      C07F
 235 07b7 F7E7EFB9 		.ascii	"\367\347\357\271\027>\263&+\247\306&\212#\373\331\314"
 235      173EB326 
 235      2BA7C626 
 235      8A23FBD9 
 235      CC
 236 07c8 FF008C54 		.ascii	"\377\000\214TeY"
 236      6559
 237              		.text
 238              		.section	.gnu.lto_queues1_execute.5cf793ed88900310,"",%progbits
 239 0000 789CBD55 		.ascii	"x\234\275U]h\023K\024>g&\233\335\354n\322\336\372$B"
 239      5D68134B 
 239      143E6726 
 239      9BDDEC6E 
 239      D2DEFA24 
 240 0015 098208FE 		.ascii	"\011\202\010\376t\333\212\212\017\212\"\010>\350\203"
 240      74DB8A8A 
 240      0F8A2208 
 240      3EE883
 241 0024 B5A04F92 		.ascii	"\265\240O\222n\327f\3214\232&r\305\007\267?BA\021\021"
 241      6ED766D1 
 241      349A2672 
 241      C507B73F 
 241      42411111 
 242 0038 1FFC4150 		.ascii	"\037\374APD\360\017\377\020\205\242\020[\225\212\324"
 242      44F00FFF 
 242      1085A210 
 242      5B958AD4 
 243 0048 DACB55B0 		.ascii	"\332\313U\260\010\026\301VP\312\275\027\237Dn<\263\223"
 243      0816C156 
 243      50CABD17 
 243      9F446E3C 
 243      B393
 244 005a 8DA9D55A 		.ascii	"\215\251\325ZQ\\\310\231\2313\347|\347\314w\346L\030"
 244      515CC899 
 244      9933E77C 
 244      E7CC77E6 
 244      4C18
 245 006c 30F8F23B 		.ascii	"0\370\362;E\277\233a\200\277h\304\030 ;\364\030\240"
 245      45BF9B61 
 245      80BF68C4 
 245      18203BF4 
 245      18A0
 246 007e 5D638CDF 		.ascii	"]c\214\337\256\006O\017\375m\201gr\214Ju\010\303r\242"
 246      AE064F0F 
 246      FD6D8167 
 246      728C4A75 
 246      08C372A2 
 247 0092 C8C95D2D 		.ascii	"\310\311]-\314\224\374\0122T\237T\220\241\312\264\027"
 247      CC94FC0A 
 247      32549F54 
ARM GAS  /tmp/cc76wJM6.s 			page 19


 247      90A1CAB4 
 247      17
 248 00a3 06AD2237 		.ascii	"\006\255\"7z\201\226\032\323\273\347\212\245\220f\004"
 248      7A81961A 
 248      D3BBE78A 
 248      A5906604 
 249 00b3 75E9AC33 		.ascii	"u\351\2543\343\031\301\352f\017\2050\215\000\334\224"
 249      E319C1EA 
 249      660F8530 
 249      8D00DC94 
 250 00c3 138C228A 		.ascii	"\023\214\"\212\021\020\3662\036R\302\252\026\321\015"
 250      1110F632 
 250      1E52C2AA 
 250      16D10D
 251 00d2 338A7B37 		.ascii	"3\212{7\243\310\230\315\206\323\236wx\344\365\370\010"
 251      A3C898CD 
 251      86D39E77 
 251      78E4F5F8 
 251      08
 252 00e3 1EF3F25D 		.ascii	"\036\363\362]\247\274\217\205\002\242\213t\272\305\010"
 252      A7BC8F85 
 252      02A28B74 
 252      BAC508
 253 00f2 36C2265A 		.ascii	"6\302&Z`\334\037Xh\342q}\337C#/\317_J\036;R\346\313"
 253      60DC1F58 
 253      68E2717D 
 253      DF43232F 
 253      CF5F4A1E 
 254 010a 19B47ECF 		.ascii	"\031\264~\317\367\012\313\217\024\012\227\337?8{\033"
 254      F70ACB8F 
 254      140A97DF 
 254      3F387B1B 
 255 011a 2FB0E508 		.ascii	"/\260\345\010\011<\215\263A\001\012\255\222\010\031"
 255      093C8DB3 
 255      41010AAD 
 255      920819
 256 0129 24145388 		.ascii	"$\024S\210Xq\257J\250k\204\260H\204k\205\250\023\366"
 256      5871AF4A 
 256      A86B84B0 
 256      48846B85 
 256      A813F6
 257 013c F5647086 		.ascii	"\365dp\206\014\026\211=\302V\240\213\362\212K/\020\211"
 257      0C16893D 
 257      C256A08B 
 257      F28A4B2F 
 257      1089
 258 014e D0B791E4 		.ascii	"\320\267\221\344\340LhDF\003\177\014\035\377\216\367"
 258      E04C6844 
 258      46037F0C 
 258      1DFF8EF7 
 259 015e 5D3FC08B 		.ascii	"]?\300\213\266@\020gQ\001\237)\204[\310Ey\271\254q5"
 259      B6401067 
 259      51019F29 
 259      845BC845 
 259      79B9AC71 
 260 0173 F4E349EF 		.ascii	"\364\343I\357\350J\027U\261\024\307\321\342bV\332\177"
 260      E84A1755 
ARM GAS  /tmp/cc76wJM6.s 			page 20


 260      B114C7D1 
 260      E26256DA 
 260      7F
 261 0184 54DC8FC8 		.ascii	"T\334\217\310\303\015@G\317\375\207/Qb\266\240r\002"
 261      C30D4047 
 261      CFFD872F 
 261      5162B6A0 
 261      7202
 262 0196 8E9393BE 		.ascii	"\216\223\223\276\007>x\335^\245\213F\012\003$C\373\034"
 262      073E78DD 
 262      5EA58B46 
 262      0A032443 
 262      FB1C
 263 01a8 7A003A07 		.ascii	"z\000:\007\373\356<Z?9\251\026\254!\030a\257\213\345"
 263      FBEE3C5A 
 263      3F39A916 
 263      AC211861 
 263      AF8BE5
 264 01bb 20ECBBFA 		.ascii	" \354\273\372\337\322\000^-\341\2326\372\300>2\235\203"
 264      DFD2005E 
 264      2DE19A36 
 264      FAC03E32 
 264      9D83
 265 01cd DC5C8C02 		.ascii	"\334\\\214\002\364C\327\273R6\252\330\234P\216F:n!\""
 265      F443D7BB 
 265      5236AAD8 
 265      9C508E46 
 265      3A6E2122 
 266 01e1 48B946A4 		.ascii	"H\271F\244\230Sr\222\300s4\3619\2002\016\022x\021\253"
 266      98537292 
 266      C07334F1 
 266      3980320E 
 266      127811AB 
 267 01f5 CB1143F0 		.ascii	"\313\021C\360\244B \342O\242\375\010D|\252\204\024\310"
 267      A44220E2 
 267      4FA2FD08 
 267      447CAA84 
 267      14C8
 268 0207 AFE05499 		.ascii	"\257\340T\231\267}\373G\207x@\206\321\"\030#\342\273"
 268      B77DFB47 
 268      87784086 
 268      D1221823 
 268      E2BB
 269 0219 4B2A93B4 		.ascii	"K*\223\264\002.\266\312gZ\011\202\226X\256\260Q\366"
 269      022EB6CA 
 269      675A0982 
 269      9658AEB0 
 269      51F6
 270 022b BED068B2 		.ascii	"\276\320h\262\232E#\362v\261R\002v^9\270>\300\214Q\230"
 270      9A4523F2 
 270      76B15202 
 270      765E39B8 
 270      3EC08C51 
 271 0240 624D827C 		.ascii	"bM\202|\302@\215\311\2512\243\355j`&mx)\353\347 5\000"
 271      C2408DC9 
 271      A932A3ED 
 271      6A60266D 
ARM GAS  /tmp/cc76wJM6.s 			page 21


 271      7829EBE7 
 272 0257 A1739C50 		.ascii	"\241s\234P\2247\021\341\252\026\271\235\306\025\376"
 272      943711E1 
 272      AA16B99D 
 272      C615FE
 273 0266 2D0413AB 		.ascii	"-\004\023\253\303\037O\334\177\252\224p\344$\277\177"
 273      C31F4FDC 
 273      7FAA9470 
 273      E424BF7F 
 274 0276 AC2EC0B4 		.ascii	"\254.\300\264\221\313\213l\315\207\013\236\347\211g"
 274      91CB8B6C 
 274      CD870B9E 
 274      E78967
 275 0285 63217530 		.ascii	"c!u0\265F\273'X\375\343\253\335\341\3437\241\037\257"
 275      B546BB27 
 275      58FDE3AB 
 275      DDE1E337 
 275      A11FAF
 276 0298 37E8928E 		.ascii	"7\350\222\216\341\2533\022x\327\247\254v>\314\2336\014"
 276      E1AB3312 
 276      78D7A7AC 
 276      763ECC9B 
 276      360C
 277 02aa 96C1F4C3 		.ascii	"\226\301\364\303\275\261\366!\014p,\202*\277.\032\\"
 277      BDB1F621 
 277      0C702C82 
 277      2ABF2E1A 
 277      5C
 278 02bb 62E2BA0C 		.ascii	"b\342\272\014\3773+0\251\363C\351\323\013\305&\204\352"
 278      FF332B30 
 278      A9F343E9 
 278      D30BC526 
 278      84EA
 279 02cd 7A5716AA 		.ascii	"zW\026\252\256\324\307\301\267\221^\216\236\030o$-U"
 279      AED4C7C1 
 279      B7915E8E 
 279      9E186F24 
 279      2D55
 280 02df 96A28E77 		.ascii	"\226\242\216w\306\002\353E-X/;\376\325\262\340\236T"
 280      C602EB45 
 280      2D582F3B 
 280      FED5B2E0 
 280      9E54
 281 02f1 7DA3E399 		.ascii	"}\243\343\231\260\237\334\361U_t\374s\250\027\032\216"
 281      B09FDCF1 
 281      555F74FC 
 281      73A8171A 
 281      8E
 282 0302 A0FD3FF0 		.ascii	"\240\375?\360\2527\354/\000\"\376\301\015\270\027\371"
 282      AA37EC2F 
 282      0022FEC1 
 282      0DB817F9 
 283 0312 65974B72 		.ascii	"e\227Kri\302\2010\037\204NmR+U\331\305\274\\\234\021"
 283      69C28130 
 283      1F844E6D 
 283      522B55D9 
 283      C5BC5C9C 
ARM GAS  /tmp/cc76wJM6.s 			page 22


 284 0327 5847C503 		.ascii	"XG\305\003=D\377a\345\374 )\005x\275\225L\247\034\313"
 284      3D44FF61 
 284      E5FC2029 
 284      0578BD95 
 284      4CA71CCB 
 285 033b 4E37EFB6 		.ascii	"N7\357\266\232\235]\226\235t\233\334t\233\225\315\344"
 285      9A9D5D96 
 285      9D749BDC 
 285      749B95CD 
 285      E4
 286 034c 5AB75959 		.ascii	"Z\267YY\247-ke\262\376\2703\347\344\234\266\032\033"
 286      A72D6B65 
 286      B2FEB833 
 286      E7E49CB6 
 286      1A1B
 287 035e D05D32A5 		.ascii	"\320]2\245\023M\310\305m\265\267\347\232\311(YtL\202"
 287      134DC8C5 
 287      6DB5B7E7 
 287      9AC92859 
 287      744C82
 288 0371 EA6ECDA6 		.ascii	"\352n\315\246v\324\324\256\374\236\273\363g\326Z\275"
 288      76D4D4AE 
 288      FC9EBBF3 
 288      67D65ABD 
 289 0381 AE616DC3 		.ascii	"\256am\303g\224t\306\331b\247\326\344Zm\002\252\\\327"
 289      679474C6 
 289      D962A7D6 
 289      E45A6D02 
 289      AA5CD7
 290 0394 B021DE94 		.ascii	"\260!\336\224hsvd\334\005\3619\265\3002\240\246\234"
 290      68737664 
 290      DC05F139 
 290      B5C032A0 
 290      A69C
 291 03a6 543AB31B 		.ascii	"T:\263\033>\001\225(\266\006"
 291      3E019528 
 291      B606
 292              		.text
 293              		.section	.gnu.lto_queues2_execute.part.4.5cf793ed88900310,"",%progbits
 294 0000 789CB518 		.ascii	"x\234\265\030kl[\345\365\234{\375\266\343$\316\323I"
 294      6B6C5BE5 
 294      F59C7BFD 
 294      B6E324CE 
 294      D349
 295 0012 9BA66943 		.ascii	"\233\246iC\037i\342\246O\372\207\261\201&\365\007\374"
 295      1F69E2A6 
 295      4FFA87B1 
 295      8126F507 
 295      FC
 296 0023 585B89ED 		.ascii	"X[\211\355\017rn\275\3442\322@\036\214j?z\023g[P`\312"
 296      0F726EBD 
 296      E432D240 
 296      1E8C6A3F 
 296      7A13675B 
 297 003a 18121DB4 		.ascii	"\030\022\035\264\022\033\014*D\333\364\301\244\266\373"
 297      121B0C2A 
 297      44DBF4C1 
ARM GAS  /tmp/cc76wJM6.s 			page 23


 297      A4B6FB
 298 0049 915136DA 		.ascii	"\221Q6\332\261\325e\322\2126*\024M{\241\"\326\202\230"
 298      B1D565D2 
 298      8A362A14 
 298      4D7BA122 
 298      D68298
 299 005c 26D8E69D 		.ascii	"&\330\346\235\363}\367~\216\343\353\326N\215#}\217\343"
 299      F37DF77E 
 299      8EE3EBD6 
 299      4E8D237D 
 299      8FE3
 300 006e F37E7DC7 		.ascii	"\363~}\307\321@\203\305\237\235\010p:\016PO;\266\002"
 300      D14083C5 
 300      9F9D0870 
 300      3A0E504F 
 300      3BB602
 301 0081 B6CC5CA2 		.ascii	"\266\314\\\242C\013jb\327\320\303\373x@\227\207_\006"
 301      430B6A62 
 301      D7D0C3FB 
 301      78409787 
 301      5F06
 302 0093 3C9A3E77 		.ascii	"<\232>w\027X!\357\345j\260\"^\315w5L7\377\3517\200\256"
 302      175821EF 
 302      E56AB022 
 302      5ECD7735 
 302      4C37FFE9 
 303 00aa 3E2D30B5 		.ascii	">-0\265\206\257\274F\374\030\220\304\001-x%A\340\320"
 303      86AFBC46 
 303      FC1890C4 
 303      012D7825 
 303      41E0D0
 304 00bd D9360207 		.ascii	"\3316\002\0071.\301!-.\300a\001\016k\021q\253\022\267"
 304      312EC121 
 304      2D2EC061 
 304      010E6B11 
 304      71AB12B7 
 305 00d1 88835465 		.ascii	"\210\203Te#E\0058\252U\213[\215\270U;H5Z\255\000\307"
 305      23450538 
 305      AA558B5B 
 305      8DB8553B 
 305      48355AAD 
 306 00e7 04B8D601 		.ascii	"\004\270\326\001\307\264:\001\256\027\340:\007\\o\263"
 306      C7B43A01 
 306      AE17E03A 
 306      075C6FB3 
 307 00f7 6C10E006 		.ascii	"l\020\340\006\373\326(n\215Z\223\2705\213[\223C\322"
 307      FBD6286E 
 307      8D5A93B8 
 307      358B5B93 
 307      43D2
 308 0109 EC1CE288 		.ascii	"\354\034\342\210|\000\204\003-\232\356\361\372\374\201"
 308      7C008403 
 308      2D9AEEF1 
 308      FAFC81
 309 0118 60281CA9 		.ascii	"`(\034\251\212V\327\324\306\352\352\033\032\233\232"
 309      8A56D7D4 
 309      C6EAEA1B 
ARM GAS  /tmp/cc76wJM6.s 			page 24


 309      1A9B9A
 310 0127 E378E0EB 		.ascii	"\343x\340\353\310\256\215v\300O,\353\271\371\237\235"
 310      C8AE8D76 
 310      C04F2CEB 
 310      B9F99F9D 
 311 0137 FD009F7D 		.ascii	"\375\000\237}fn\374\005\353?\331,\242\311_\032\010\017"
 311      666EFC05 
 311      EB3FD92C 
 311      A2C95F1A 
 311      080F
 312 0149 D0090362 		.ascii	"\320\011\003b\3230?(\222\320:y\304\012\012\"\335D=G"
 312      D3303F28 
 312      92D03A79 
 312      C40A0A22 
 312      DD443D47 
 313 015d D32E693C 		.ascii	"\323.i<_\010\215\247D\232cG,\335\241)\315\236\231\371"
 313      5F088DA7 
 313      449A6347 
 313      2CDDA129 
 313      CD9E99F9 
 314 0171 F74E9C1E 		.ascii	"\367N\234\036\370\3613s\223\312\021^\015\036\306\222"
 314      F8F13373 
 314      93CA115E 
 314      0D1EC692 
 315 0181 E42DDD89 		.ascii	"\344-\335\211\345+z0\317!\276\222\034\342f\\\022_A\355"
 315      E52B7A30 
 315      CF21BE92 
 315      1CE2665C 
 315      125F41ED 
 316 0195 0BB5EEE9 		.ascii	"\013\265\356\351\271\354\364SM\326\2745c\375\217\350"
 316      B9ECF453 
 316      4DD6BC35 
 316      63FD8FE8 
 317 01a5 4CF46B30 		.ascii	"L\364k0\212\245Q^y;23>ee\263\007(Q4x\254\2448<=\367"
 317      8AA5515E 
 317      793B3233 
 317      3E6565B3 
 317      07285134 
 318 01c0 87E91FC4 		.ascii	"\207\351\037\304\255\027&\034\201\001\015\036\277\025"
 318      AD17261C 
 318      81010D1E 
 318      BF15
 319 01ce E571CD9A 		.ascii	"\345q\315\232\317f\317|\034|\010\301\304\240\006I<\212"
 319      CF66CF7C 
 319      1C7C08C1 
 319      C4A00649 
 319      3C8A
 320 01e0 1DA0D37E 		.ascii	"\035\240\323~\202v\217\275{\351\313\220\217\027?-\201"
 320      82768FBD 
 320      7BE9CB90 
 320      8F173F2D 
 320      81
 321 01f1 00815F26 		.ascii	"\000\201_&p\220.\020\342%\314K\204YT\361)\312K5-\341"
 321      70902E10 
 321      E225CC4B 
 321      845954F1 
 321      29CA4B35 
ARM GAS  /tmp/cc76wJM6.s 			page 25


 322 0207 1A423D4E 		.ascii	"\032B=N\250\265\014\211\361R\307\034\352\371\324\300"
 322      A8B50C89 
 322      F152C71C 
 322      EAF9D4C0 
 323 0217 4B236335 		.ascii	"K#c5\321\022i\246\305\023\247\245\252\205\257\255,n"
 323      D11269A6 
 323      C513A7A5 
 323      AA85AFAD 
 323      2C6E
 324 0229 192DDEE5 		.ascii	"\031-\336\345|j\343\323\012^\332\231\301J^:h\321W1\227"
 324      7C6AE3D3 
 324      0A5EDA99 
 324      C14A5E3A 
 324      68D15731 
 325 023e D5BC7432 		.ascii	"\325\274t2\336\035\214\262\206Ok\371\264\216\227\365"
 325      DE1D8CB2 
 325      864F6BF9 
 325      B48E97F5 
 326 024e 8CDCC5CB 		.ascii	"\214\334\305\313\006\306\353\346\245\207\345&l\3556"
 326      06C6EBE6 
 326      A587E526 
 326      6CED36
 327 025d 32A49797 		.ascii	"2\244\227\227M6d3_\266\360\262\225\351\266\361i;/w\262"
 327      4D366433 
 327      5FB6F0B2 
 327      95E9B6F1 
 327      693B2F77 
 328 0272 913B40A4 		.ascii	"\221;@\244\001\371e\222\362\253]:I\022\212\344\240\317"
 328      01F96592 
 328      F2AB5D3A 
 328      49128AE4 
 328      A0CF
 329 0284 6E5AA90F 		.ascii	"nZ\251\017\357\306\026\332\364=\224m\264]\202\211\033"
 329      EFC616DA 
 329      F43D946D 
 329      B45D8289 
 329      1B
 330 0295 9F9D3FF9 		.ascii	"\237\235?\371\244n\023\002\021\235B/\343#\375\235\243"
 330      A46E1302 
 330      119D422F 
 330      E323FD9D 
 330      A3
 331 02a6 B640CF80 		.ascii	"\266@\317\200.\337\2026\370-\036\266\016\336mb\224\257"
 331      2EDF8236 
 331      F82D1EB6 
 331      0EDE6D62 
 331      94AF
 332 02b8 1CBE6A11 		.ascii	"\034\276j\0214\365}\306\376\276&\027\320=\304b\356."
 332      34F57DC6 
 332      FEBE2617 
 332      D03DC462 
 332      EE2E
 333 02ca 16844A86 		.ascii	"\026\204J\206\322\362\250\320O\211\314\227\232\304\237"
 333      D2F2A8D0 
 333      4F89CC97 
 333      9AC49F
 334 02d9 D3414869 		.ascii	"\323AHi_ %\211g\260M\"g`\362\372Oo\274\204I<G\014\372"
ARM GAS  /tmp/cc76wJM6.s 			page 26


 334      5F202589 
 334      67B04D22 
 334      6760F2FA 
 334      4F6FBC84 
 335 02f2 11BF039F 		.ascii	"\021\277\003\237YSV\215\211\265\006\312LfH\300\304\330"
 335      5953568D 
 335      89B506CA 
 335      4C6648C0 
 335      C4D8
 336 0304 2082C422 		.ascii	" \202\304\"G\325\001\374\016&\256\245\333\034:\255\237"
 336      47D501FC 
 336      0E26AEA5 
 336      DB1C3AAD 
 336      9F
 337 0315 B1DD7C71 		.ascii	"\261\335|q\256\300\027\013\264\202\342Z\275qc\026\035"
 337      AEC0170B 
 337      B482E25A 
 337      BD716316 
 337      1D
 338 0326 6AA554BD 		.ascii	"j\245T\275\201\362M%\211&6\260\026\351\251\364\347\317"
 338      81F24D25 
 338      892636B0 
 338      16E9A9F4 
 338      E7CF
 339 0338 DE2F1DD0 		.ascii	"\336/\035\320\217\236~\324\231s\300\251\302=\324b\351"
 339      8F9E7ED4 
 339      9973C0A9 
 339      C23DD462 
 339      E9
 340 0349 09D12FC0 		.ascii	"\011\321/\300\344\337\306\375\016\232\304\321\225\213"
 340      E4DFC6FD 
 340      0E9AC4D1 
 340      958B
 341 0357 FF081202 		.ascii	"\377\010\022\002\240\035\321\211\213\376\217 \223zK"
 341      A01DD189 
 341      8BFE8F20 
 341      937A4B
 342 0366 0FF0AD5D 		.ascii	"\017\360\255]M\016\373\323/\236\377\365\025\357\242"
 342      4D0EFBD3 
 342      2F9EFFF5 
 342      15EFA2
 343 0375 20CE4DBF 		.ascii	" \316M\277\265\331\341i\240.\255\363v\301\253\226eq"
 343      B5D9E169 
 343      A02EADF3 
 343      76C1AB96 
 343      6571
 344 0387 9BEBA6BC 		.ascii	"\233\353\246\274\177\036\236\033\267\330\001\215\312"
 344      7F1E9E1B 
 344      B7D8018D 
 344      CA
 345 0394 151C0F3B 		.ascii	"\025\034\017;\205b\202\177\037\012y\027\244j,m\266."
 345      8562827F 
 345      1F0A7917 
 345      A46A2C6D 
 345      B62E
 346 03a6 896F097B 		.ascii	"\211o\011{}]\260\276d6\270\200\315\005x\363\357\343"
 346      7D5DB0BE 
ARM GAS  /tmp/cc76wJM6.s 			page 27


 346      6436B880 
 346      CD0578F3 
 346      EFE3
 347 03b8 EFA0C3C7 		.ascii	"\357\240\303\307\333\317\015:\227\230>xM\323Y\324\365"
 347      DBCF0D3A 
 347      97983E78 
 347      4DD359D4 
 347      F5
 348 03c9 5607C52F 		.ascii	"V\007\305/D\351\245\211\322\362DM~\270@\224\237\361"
 348      44E9A589 
 348      D2F2444D 
 348      7EB84094 
 348      9FF1
 349 03db 721112E5 		.ascii	"r\021\022\345\347\207\263Q\252\273\000\207\205\244~"
 349      E787B351 
 349      AABB0087 
 349      85A47E
 350 03ea 948E3AD8 		.ascii	"\224\216:\330\301~\016^\006\276;\373\347G\235 \207\224"
 350      C17E0E5E 
 350      06BE3BFB 
 350      E7479D20 
 350      8794
 351 03fc E4260365 		.ascii	"\344&\003e\223\264\303N\370&6K\221\250\320\037\220\017"
 351      93B4C34E 
 351      F826364B 
 351      91A8D01F 
 351      900F
 352 040e 412E2702 		.ascii	"A.'\002\014\361\"\370\336\177\352\305\363>q\001\360"
 352      0CF122F8 
 352      DE7FEAC5 
 352      F33E7101 
 352      F0
 353 041f 0BC383F0 		.ascii	"\013\303\203\360f\260\374\314(\222\356\322\227!x\322"
 353      66B0FCCC 
 353      2892EED2 
 353      972178D2 
 354 042f 975FE44B 		.ascii	"\227_\344K\343\306N\370X9!\254\234\0207\354\026!\234"
 354      E3C64EF8 
 354      583921AC 
 354      9C1037EC 
 354      16219C
 355 0442 E01145D5 		.ascii	"\340\021E\325lbK\033\274k\367\234VG\242\211\313\026"
 355      6C624B1B 
 355      BC6BF79C 
 355      5647A289 
 355      CB16
 356 0454 3927BCC8 		.ascii	"9'\274\3109\254p\030f5V\370\004\371 r\233\305A\025?"
 356      39AC7018 
 356      663556F8 
 356      04F92072 
 356      9BC54115 
 357 0469 3B31E248 		.ascii	";1\342H\213\334\242\013\235Z\320\205\322\031\335!\253"
 357      8BDCA20B 
 357      9D5AD085 
 357      D219DD21 
 357      AB
 358 047a 224A1612 		.ascii	"\"J\026\022\374o\326\376\340\001f\355u\020\242E2B\020"
ARM GAS  /tmp/cc76wJM6.s 			page 28


 358      FC6FD6FE 
 358      E00166ED 
 358      7510A245 
 358      324210
 359 048d 176644D4 		.ascii	"\027fD\324\305\350\010\234\301\262\215\276i\334\253"
 359      C5E8089C 
 359      C1B28DBE 
 359      69DCAB
 360 049c E05F5089 		.ascii	"\340_P\211\270SA\\\275\372\341\241/9\332Ww\303kl\352"
 360      B853415C 
 360      BDFAE1A1 
 360      2F39DA57 
 360      77C36B6C 
 361 04b1 722EC519 		.ascii	"r.\305\031>\265\261\371\007\371\264bP\270\225\331\255"
 361      3EB5B1F9 
 361      07F9B462 
 361      50B895D9 
 361      AD
 362 04c2 506EF02E 		.ascii	"Pn\360.\2605\003\337\237Sn\253Qnk7\354\372\227\020\353"
 362      B03503DF 
 362      9F536EAB 
 362      516E6B37 
 362      ECFA9710 
 363 04d7 C1BC8890 		.ascii	"\301\274\210\220LQ\264r\020Z\311!\352\220!J\177rHE\251"
 363      4C51B472 
 363      105AC921 
 363      EA90214A 
 363      7F724845 
 364 04ec 96180A34 		.ascii	"\226\030\0124\017\344\005'V$8>\246)\014N\314%8Q\350"
 364      0FE40527 
 364      5624383E 
 364      A6290C4E 
 364      CC253851 
 365 0501 A9544292 		.ascii	"\251TB\2227\317\376\352\342%\245u\235jh\272kC\0138d"
 365      37CFFEEA 
 365      E225A575 
 365      9D6A68BA 
 365      6B430B38 
 366 0516 E9CCF9D7 		.ascii	"\351\314\371\327\257=T(\275\037\353\211\213jj\\\245"
 366      AF3D5428 
 366      BD1FEB89 
 366      8B6A6A5C 
 366      A5
 367 0527 BF5709DF 		.ascii	"\277W\011\337P\304v?\223\025\332\336\340b{5,\253l^\326"
 367      50C4763F 
 367      9315DADE 
 367      E0627B35 
 367      2CAB6C5E 
 368 053c 40AC6269 		.ascii	"@\254bi\371\357C;\035\335\033\313N\313\005f\2127\364"
 368      F9EF433B 
 368      1DDD1BCB 
 368      4ECB0566 
 368      8A37F4
 369 054f 9F1FFCC6 		.ascii	"\237\037\374\306\267\350\015\265^|9\241\206\242\334"
 369      B7E80DB5 
 369      5E7C39A1 
 369      86A2DC
ARM GAS  /tmp/cc76wJM6.s 			page 29


 370 055e C39A3955 		.ascii	"\303\2329U\213\271\247\225;7m\001\031\215&\373\205\375"
 370      8BB9A795 
 370      3B376D01 
 370      198D26FB 
 370      85FD
 371 0570 FCD29597 		.ascii	"\374\322\225\227x\230\210\310\273\265\303\304U*\326"
 371      789888C8 
 371      BBB5C3C4 
 371      552AD6
 372 057f AB555C3A 		.ascii	"\253U\\:\007\305\344\301\012u\012U\3728\216I\314\262"
 372      07C5E4C1 
 372      0A750A55 
 372      FA388E49 
 372      CCB2
 373 0591 7E7D1C33 		.ascii	"~}\0343\373,\225<x\262%\211\226\306\0067\333\214Gh\024"
 373      FB2C953C 
 373      78B22589 
 373      96C60637 
 373      DB8C4768 
 374 05a6 568CEF20 		.ascii	"V\214\357 \005\230W\304\346\345e\372q\315\246OO\235"
 374      059857C4 
 374      E6E565FA 
 374      71CDA64F 
 374      4F9D
 375 05b8 9FCEFC28 		.ascii	"\237\316\374(\350\270,NL\030\271\012E\3424;\360\026"
 375      E8B82C4E 
 375      4C18B90A 
 375      45E2343B 
 375      F016
 376 05ca A5DD1A83 		.ascii	"\245\335\032\203^$iW\243H\234\013\032\323\331Ms\255"
 376      5E246957 
 376      A3489C0B 
 376      1AD3D94D 
 376      73AD
 377 05dc 81213B78 		.ascii	"\201!;x\374e\230\013s\235\320\363\342e{$\342\240\320"
 377      FC65980B 
 377      739DD0F3 
 377      E2657B24 
 377      E2A0D0
 378 05ef 672B69A4 		.ascii	"g+i\244t\\\257\330w\015\212\244e\342.\227\270\220&\356"
 378      745CAFD8 
 378      770D8AA4 
 378      65E22E97 
 378      B89026EE 
 379 0603 B3DF92C7 		.ascii	"\263\337\222\307\244\367\376\372z\301\230\364vf\301"
 379      A4F7FEFA 
 379      7AC198F4 
 379      7666C1
 380 0612 98149672 		.ascii	"\230\024\226r[\2351\351\350\261\256\222\347\033\037"
 380      5B9D31E9 
 380      E8B1AE92 
 380      E71B1F
 381 0621 B3F9A1E3 		.ascii	"\263\371\241\343\353\211kT\3433\"R\313\210\241\000}"
 381      EB896B54 
 381      E3332252 
 381      CB88A100 
 381      7D
ARM GAS  /tmp/cc76wJM6.s 			page 30


 382 0632 C3812C2F 		.ascii	"\303\201,/gn\362\027\343\333F\214DX\237P\240\025BZ\233"
 382      676EF217 
 382      E3DB468C 
 382      44589F50 
 382      A015425A 
 383 0647 40FC4841 		.ascii	"@\374HA\333\3739\357\305<\025s`+\313\236\247\224\012"
 383      DBFB39EF 
 383      C53C1573 
 383      602BCB9E 
 383      A7940A
 384 065a E9277840 		.ascii	"\351'x@\222l:\004\367\225v\207\272\230{4W\321wn\355"
 384      926C3A04 
 384      F7957687 
 384      BA987B34 
 384      57D1776E 
 385 066f 78759196 		.ascii	"xu\221\226\024`\232\302\226\264\332\245%\325B\270\262"
 385      14609AC2 
 385      96B4DAA5 
 385      25D542B8 
 385      B2
 386 0680 2D2906FE 		.ascii	"-)\006\376\312LH\351\353\023\237\316\242C\255,\335`"
 386      CA4C48E9 
 386      EB139FCE 
 386      A243AD2C 
 386      DD60
 387 0692 D8056962 		.ascii	"\330\005ibw\3452Z\374\232\371t\264@Z\217Ao?\200\373"
 387      77E5325A 
 387      FC9AF974 
 387      B4405A8F 
 387      416F3F80 
 388 06a7 6C935882 		.ascii	"l\223X\202\374\"\346\226\343\261r\213r\372\335\302\242"
 388      FC22E696 
 388      E3B1728B 
 388      72FADDC2 
 388      A2
 389 06b8 EC5C7251 		.ascii	"\354\\rQ\036\317+\236c\"q\251Sv:E)!k\312.J7\276k\211"
 389      1ECF2B9E 
 389      632271A9 
 389      53763A45 
 389      29216BCA 
 390 06d2 912A4A09 		.ascii	"\221*J\011Z'\244\255UE)\241\353\373\355f)\212R\302\272"
 390      5A27A4AD 
 390      554529A1 
 390      EBFBED66 
 390      298A52C2 
 391 06e7 CA2E4AA5 		.ascii	"\312.J\245\002U\0379\315)\233\015\202\177W^\345u\027"
 391      02551F39 
 391      CD299B0D 
 391      827F575E 
 391      E57517
 392 06fa A9BC20E3 		.ascii	"\251\274 \343\027V^\267K\345\325\201\247\262\225W\017"
 392      17565EB7 
 392      4BE5D581 
 392      A7B29557 
 392      0F
 393 070b 7AC58681 		.ascii	"z\305\206\201\277\034V3jO\305f\324D\3113j\217\350vZ"
 393      BF1C5633 
ARM GAS  /tmp/cc76wJM6.s 			page 31


 393      6A4FC566 
 393      D444C933 
 393      6A8FE876 
 394 0720 E18C7AED 		.ascii	"\341\214z\355\260j\212\033\211\241\215\226\027\232\336"
 394      B06A8A1B 
 394      89A18D96 
 394      179ADE
 395 072f 22A10931 		.ascii	"\"\241\0111Mahz]B\323\000\250\223\346\363\347^Qh\233"
 395      4D61687A 
 395      5D42D300 
 395      A893E6F3 
 395      E75E5168 
 396 0744 6E5FF74F 		.ascii	"n_\367Or\272o&\206n\272o)\242{\230i\012u\337\342\242"
 396      72BA6F26 
 396      866EBA6F 
 396      29A27B98 
 396      690A75DF 
 397 075a 7B234065 		.ascii	"{#@e\347\353\367\225\326[o\177\276\336F\\\362\347\353"
 397      E7EBF795 
 397      D65B6F7F 
 397      BEDE465C 
 397      F2E7EB
 398 076d 6F3BDCB7 		.ascii	"o;\334\267\027\261=\302d\205\266ow\261\275i\011\266"
 398      17B13DC2 
 398      6485B66F 
 398      77B1BD69 
 398      09B6
 399 077f DFB4A49A 		.ascii	"\337\264\244\232\241\"?\3732\360\275\331\211\375\216"
 399      A1223FFB 
 399      32F0BDD9 
 399      89FD8E
 400 078e E6772A43 		.ascii	"\346w*C7\032\362\177\214.\257\013\263\353\225\333&\376"
 400      371AF27F 
 400      8C2EAF0B 
 400      B3EB95DB 
 400      26FE
 401 07a0 57EFE645 		.ascii	"W\357\346E\277\243w\020\037\361;:\353\372;z\301\023"
 401      BFA37710 
 401      1FF13B3A 
 401      EBFA3B7A 
 401      C113
 402 07b2 96EFCD2A 		.ascii	"\226\357\315*\246\025\336\224\026\306\371\3774\357\300"
 402      A615DE94 
 402      16C6F9FF 
 402      34EFC0
 403 07c1 782067F6 		.ascii	"x g\366n\252\351\313\325l\303\246\304\300\320"
 403      6EAAE9CB 
 403      D56CC3A6 
 403      C4C0D0
 404 07d0 602A610C 		.ascii	"`*a\014\355\335\237\330\233z,a\014\230}\346\320Hbtx"
 404      EDDD9FD8 
 404      9B7A2C61 
 404      0C987DE6 
 404      D0486274 
 405 07e5 6CDFB712 		.ascii	"l\337\267\022\243\251\221\321\304\360\250\330\037\035"
 405      A3A991D1 
 405      C4F0A8D8 
ARM GAS  /tmp/cc76wJM6.s 			page 32


 405      1F1D
 406 07f3 4B8DA546 		.ascii	"K\215\245Fz\014\330vS\022:\020\201\271\317xxl/!\015"
 406      7A0CD876 
 406      53123A10 
 406      81B9CF78 
 406      786C2F21 
 407 0808 D86403E0 		.ascii	"\330d\003\3407\2779:\370HO/\032\270\017\315\273o\305"
 407      37BF393A 
 407      F8484F2F 
 407      1AB80FCD 
 407      BB6FC5
 408 081b 24F5F868 		.ascii	"$\365\370h\342\236\373v\355\334\225\34354\234z\320\030"
 408      E29EFB76 
 408      EDDC95E3 
 408      35349C7A 
 408      D018
 409 082d FCEAD83E 		.ascii	"\374\352\330>\203\330\325\334\267\353k\355}\311\221"
 409      83D8D5DC 
 409      B7EB6BED 
 409      7DC991
 410 083c D423C3E6 		.ascii	"\324#\303\346\206\366\316\215\240\015\203\1770584\274"
 410      86F6CE8D 
 410      A00D837F 
 410      30353834 
 410      BC
 411 084d 1FBC5FFE 		.ascii	"\037\274_\376\312=\367\302\366\262\364\034\035\030N"
 411      CA3DF7C2 
 411      F6B2F41C 
 411      1D184E
 412 085c 25F7B2A2 		.ascii	"%\367\262\242\377\007V(\316a"
 412      FF075628 
 412      CE61
 413              		.text
 414              		.section	.gnu.lto_queues2_execute.5cf793ed88900310,"",%progbits
 415 0000 789CAD55 		.ascii	"x\234\255UohSW\024?\347\336\344\375I^\332l\012\"\203"
 415      6F685357 
 415      143FE7DE 
 415      E4FD495E 
 415      DA6C0A22 
 416 0015 128431DA 		.ascii	"\022\2041\332\264}\233\260\355\2338\006\003?\350\007"
 416      B47D9BB0 
 416      ED9B3806 
 416      033FE807 
 417 0025 DB82FB30 		.ascii	"\333\202\3730J\372\372L\236.\215K\223\241\354\203\257"
 417      4AFAFA4C 
 417      9E2E8D4B 
 417      93A1EC83 
 417      AF
 418 0036 B68E820E 		.ascii	"\266\216\202\016d\010\363\317\006\212\010\342\376U\021"
 418      6408F3CF 
 418      068A08E2 
 418      FE5511
 419 0045 06E258D6 		.ascii	"\006\342X\326\252(\242U\031\202\177`\335>\314\201\342"
 419      AA28A255 
 419      19827F60 
 419      DD3ECC81 
 419      E2
ARM GAS  /tmp/cc76wJM6.s 			page 33


 420 0056 DCA781E8 		.ascii	"\334\247\201\350\262s\336\315K\236v\233\025\014\344"
 420      B273DECD 
 420      4B9E769B 
 420      150CE4
 421 0065 DE73CF3D 		.ascii	"\336s\317=\347\367;\377n\"@\300\223\237\003\364\035"
 421      E7F73BFF 
 421      6E2240C0 
 421      939F03F4 
 421      1D
 422 0076 D400AED2 		.ascii	"\324\000\256\322\216m\200b\327%\2001C\010y+\011~\"v"
 422      8E6D8062 
 422      D7258031 
 422      4308792B 
 422      097E2276 
 423 008a 621AC0B7 		.ascii	"b\032\300\267\244\210O\276\302G^\255\030\306\225U\\"
 423      A4884FBE 
 423      C2475EAD 
 423      18C69555 
 423      5C
 424 009b 68A73A48 		.ascii	"h\247:H\255\377d\223Z\303\224R\353h*\301P\302\217\206"
 424      ADFF6493 
 424      5AC39452 
 424      EB682AC1 
 424      50C28F86 
 425 00af 298CDA0A 		.ascii	")\214\332\0122L\\n'\303\204H\006nV\340\226\014\335,"
 425      324C5C6E 
 425      27C38448 
 425      066E56E0 
 425      960CDD2C 
 426 00c3 25600A91 		.ascii	"%`\012\221w@\330*d,\256\351\206\231HZ)\334\372.r\304"
 426      7740D82A 
 426      642CAEE9 
 426      8699485A 
 426      29DCFA2E 
 427 00d9 62191CF4 		.ascii	"b\031\034\364\375O\347\316\234\374\005\367\372\265\211"
 427      FD4FE7CE 
 427      9CFC05F7 
 427      FAB589
 428 00e8 03FEC37A 		.ascii	"\003\376\303z\035\321C\312\356u\004\007a\035\0350\023"
 428      1DD143CA 
 428      EE750407 
 428      611D1D30 
 428      13
 429 00f9 6C22F678 		.ascii	"l\"\366x\272\201\357\256\271\237\217\235(\354\335\035"
 429      BA81EFAE 
 429      B99F8F9D 
 429      28ECDD1D 
 430 0109 F1950246 		.ascii	"\361\225\002F\236\346\373\255\250\315\325\353\337\\"
 430      9EE6FBAD 
 430      A8CDD5EB 
 430      DF5C
 431 0117 BD70F873 		.ascii	"\275p\370s<%\336D\310\341A\\\006\032x\0303i\211'x\261"
 431      3C25DE44 
 431      C8E1415C 
 431      061A7818 
 431      33698927 
 432 012d 1AEA363A 		.ascii	"\032\3526:@\232\357:i\321\272x\311\262\256\233\014\016"
ARM GAS  /tmp/cc76wJM6.s 			page 34


 432      409AEF3A 
 432      69D1BA78 
 432      C9B2AE9B 
 432      0C0E
 433 013f 91410FDF 		.ascii	"\221A\017\337\365\362B\330q\230\240\2702\312\0258\020"
 433      F5F242D8 
 433      7198A0B8 
 433      32CA1538 
 433      10
 434 0150 FAF4D33A 		.ascii	"\372\364\323:\273\024\006P\320&/\301\266?\357\315\034"
 434      BB140650 
 434      D0262FC1 
 434      B63FEFCD 
 434      1C
 435 0161 DF291BB6 		.ascii	"\337)\033\266@8\2071\016A\245\020\276C\311\355\225\252"
 435      40388731 
 435      0E41A510 
 435      BE43C9ED 
 435      95AA
 436 0173 C71D700E 		.ascii	"\307\035p\016\277\360\367\254\364P\347#\247cdXj\336"
 436      BFF0F7AC 
 436      F450E723 
 436      A7636458 
 436      6ADE
 437 0185 5F68DC9B 		.ascii	"_h\334\233*\271\213\260\355\306\303\375g\257\305\233"
 437      2AB98BB0 
 437      EDC6C3FD 
 437      67AFC59B 
 438 0195 E84AA8ED 		.ascii	"\350J\250\355\370ky\310\344`\020V\036;\263p\324\367"
 438      F86B79C8 
 438      E4601056 
 438      1E3BB370 
 438      D4F7
 439 01a7 7D2E630F 		.ascii	"}.c\017\245\265\037\366\215\371~\332\303\304G\360\300"
 439      A5B51FF6 
 439      8DF97EDA 
 439      C3C447F0 
 439      C0
 440 01b8 9F642959 		.ascii	"\237d)Y\304\2207\031\340\017\3619\207_\253\200\231m"
 440      C4903719 
 440      E00FF139 
 440      875FAB80 
 440      996D
 441 01ca 6A510EBF 		.ascii	"jQ\016\277\242c\036\273\262\320\265`\030\214\300\234"
 441      A2631EBB 
 441      B2D0B560 
 441      188CC09C 
 442 01da 83D3B7C7 		.ascii	"\203\323\267\307\256`\210\323IP\255v\015PA\356J\311"
 442      AE6088D3 
 442      4950AD76 
 442      0D5041EE 
 442      4AC9
 443 01ec 54F75F0A 		.ascii	"T\367_\012M\262\001\225\2650*\361\030\325\304\335\010"
 443      4DB20195 
 443      B5302AF1 
 443      18D5C4DD 
 443      08
ARM GAS  /tmp/cc76wJM6.s 			page 35


 444 01fd 5596EDAC 		.ascii	"U\226\355\254\350t\364S\037\257/\221\003tM\315\"\326"
 444      E874F453 
 444      1FAF2F91 
 444      03744DCD 
 444      22D6
 445 020f 7BE36DA1 		.ascii	"{\343m\241uO\036\273\251\225\260}\352\327\367T)\363"
 445      754F1EBB 
 445      A995B07D 
 445      EAD7F754 
 445      29F3
 446 0221 A8359953 		.ascii	"\2505\231S\016\252w\311\230\324I\262\367\350)\006\224"
 446      0EAA77C9 
 446      98D449B2 
 446      F7E82906 
 446      94
 447 0232 D834E7CB 		.ascii	"\3304\347\313\310@^\207n\326H\004\371\367'\207f\202"
 447      C8405E87 
 447      6ED64804 
 447      F9F72787 
 447      6682
 448 0244 6B09100B 		.ascii	"k\011\020\013\022\327\240n.p^rx\204\204`> 2\0379\374"
 448      12D7A06E 
 448      2E705E72 
 448      78848460 
 448      3E20321F 
 449 025a 123BA2B5 		.ascii	"\022;\242\265\324\341r;C\342sA3\240\266\202ktgf\307"
 449      D4E1723B 
 449      43E27341 
 449      33A0B682 
 449      6B746766 
 450 026f A36919E6 		.ascii	"\243i\031\346h\346\271\273\027a|\262\251J\220\226\341"
 450      68E6B9BB 
 450      17617CB2 
 450      A94A9096 
 450      E1
 451 0280 DADF022E 		.ascii	"\332\337\002.\340\307\367\377\230\272\211\363F\2240"
 451      E0C7F7FF 
 451      98BA89F3 
 451      469430
 452 028f 5A332A15 		.ascii	"Z3*\025I\263\274i\007c9\374A\305\312ZC5\273\021?q0\301"
 452      49B3BC69 
 452      076339FC 
 452      41C5CA5A 
 452      4335BB11 
 453 02a7 0BF5BAA4 		.ascii	"\013\365\272\244\267\370\242\342\037\277\375\331\232"
 453      B7F8A2E2 
 453      1FBFFDD9 
 453      9A
 454 02b4 30048BA2 		.ascii	"0\004\213\242jt&\014\337\004\372\201\222\324\237\337"
 454      6A74260C 
 454      DF04FA81 
 454      92D49FDF 
 455 02c4 C6F4D04C 		.ascii	"\306\364\320L\331\310H\203\224\006@?\"\011\305\370\335"
 455      D9C84883 
 455      9406403F 
 455      2209C5F8 
 455      DD
ARM GAS  /tmp/cc76wJM6.s 			page 36


 456 02d5 64D744A3 		.ascii	"d\327D\243\216\317\326\232\350\323\215\024\223*x\362"
 456      8ECFD69A 
 456      E8D38D14 
 456      932A78F2 
 457 02e5 CCF94722 		.ascii	"\314\371G\"\214\241\215\346\232\347\362_\207\332h\221"
 457      8CA18DE6 
 457      9AE7F25F 
 457      87DA6891 
 458 02f5 508AB333 		.ascii	"P\212\2633\337\337\3310\237>\217\275\004\323\034n\036"
 458      DFDFD930 
 458      9F3E8FBD 
 458      04D31C6E 
 458      1E
 459 0306 D9E38321 		.ascii	"\331\343\203!|\372?FV\260\333\374\221M?1\262\234~\022"
 459      7CFA3F46 
 459      56B0DBFC 
 459      914D3F31 
 459      B29C7E12 
 460 031a 766A9CFE 		.ascii	"vj\234\3761J\337z.\243d\301iS\316\302\270\021\2024\203"
 460      314ADF7A 
 460      2EA364C1 
 460      6953CEC2 
 460      B8118234 
 461 032f 5CE42850 		.ascii	"\\\344(Pj\353\342\320:\305\217\363\012\375\331\264 "
 461      6AEBE2D0 
 461      3AC58FF3 
 461      0AFDD9B4 
 461      20
 462 0340 FA69E866 		.ascii	"\372i\350f\2272\370r\273P*\272\266S\032\336b\017\273"
 462      9732F872 
 462      BB502ABA 
 462      B6531ADE 
 462      620FBB
 463 0353 1FDA4EC1 		.ascii	"\037\332N\301\033\362J\243v\245\\\035\331hW\334\321"
 463      1BF24AA3 
 463      76A55C1D 
 463      D96857DC 
 463      D1
 464 0364 8A5DAE04 		.ascii	"\212]\256\004\373\007U\267\352\216\366:\200\336\033"
 464      FB0755B7 
 464      EA8EF63A 
 464      80DE1B
 465 0373 FFEB4402 		.ascii	"\377\353D\002\271x#\316\373\325a2*4\034\013\240{\353"
 465      B97823CE 
 465      FBD56132 
 465      2A341C0B 
 465      A07BEB
 466 0386 2BC54DBD 		.ascii	"+\305M\275\257\255|\232\273\273\271b\277\275\272oU_"
 466      AFAD7C9A 
 466      BBBBB962 
 466      BFBDBA6F 
 466      555F
 467 0398 0BA55476 		.ascii	"\013\245Tv\007\235\342;\325\021\207\200\322\253\373"
 467      079DE23B 
 467      D5118780 
 467      D2ABFB
 468 03a7 D6668672 		.ascii	"\326f\206r\243\356\246\262\327\235y\371U\020e\320\213"
ARM GAS  /tmp/cc76wJM6.s 			page 37


 468      A3EEA6B2 
 468      D79D79F9 
 468      551065D0 
 468      8B
 469 03b8 6EB154DE 		.ascii	"n\261T\336\002\377\000I\373\263\304"
 469      02FF0049 
 469      FBB3C4
 470              		.text
 471              		.section	.gnu.lto_.symbol_nodes.5cf793ed88900310,"",%progbits
 472 0000 789C4D8F 		.ascii	"x\234M\217\313j\024Q\020\206\353?gz\346\350\234\211"
 472      CB6A1451 
 472      1086EB3F 
 472      677AE6E8 
 472      9C89
 473 0012 7132E999 		.ascii	"q2\351\231\321h\334\370\024\352+\370\016\256\004\205"
 473      D168DCF8 
 473      14EA2BF8 
 473      0EAE0485 
 474 0022 E4112AD8 		.ascii	"\344\021*\330\013/\201 \272\023\005\245w\336\357\367"
 474      0B2F8120 
 474      BA1305A5 
 474      77DEEFF7 
 475 0032 6B5A67D4 		.ascii	"kZg\324H\002*\270P\214:\242 \342F\310R\254:-\236\356"
 475      48022AB8 
 475      508C3AA2 
 475      20E246C8 
 475      52AC3A2D 
 476 0048 45FFFD55 		.ascii	"E\377\375U\375\365w\225!C;,\225\2179\013&:\272L\304"
 476      FDF57795 
 476      21433B2C 
 476      958F390B 
 476      263ABA4C 
 477 005d 7CF2F01E 		.ascii	"|\362\360\036s\021\214\210\3119P\215\255\271\000\266"
 477      73118C88 
 477      C939508D 
 477      ADB900B6 
 478 006d 95EA5D18 		.ascii	"\225\352]\030b2W\301\246R=\017\250\367\012\270V\011"
 478      623257C1 
 478      A6523D0F 
 478      A8F70AB8 
 478      5609
 479 007f FC0D4EFE 		.ascii	"\374\015N\376\341\251CH\026ae4y\210\232&\\\002\327+"
 479      E1A94348 
 479      16616534 
 479      79889A26 
 479      5C02D72B 
 480 0093 DE63861B 		.ascii	"\336c\206\033\321k\256\201]%\377\006\222DF/\243\256"
 480      D16BAE81 
 480      5D25FF06 
 480      9244462F 
 480      A3AE
 481 00a5 721D0D95 		.ascii	"r\035\015\225'p\022\204\307\340u\245un\016x\012^\037"
 481      27701284 
 481      C7E075A5 
 481      756E0E78 
 481      0A5E1F
 482 00b8 E939B819 		.ascii	"\3519\270\031\351\005\330G\272\005nE\272\011\036\213"
ARM GAS  /tmp/cc76wJM6.s 			page 38


 482      E905D847 
 482      BA056E45 
 482      BA091E8B 
 483 00c8 741BBC21 		.ascii	"t\033\274!\322\035\360x\244{\340\215\221\356\203\333"
 483      D21DF078 
 483      A47BE08D 
 483      91EE83DB 
 484 00d8 911E8027 		.ascii	"\221\036\200'\"=\002w\"=\003OF\032\200\323HCp\367?Y"
 484      223D0277 
 484      223D034F 
 484      461A80D3 
 484      484370F7 
 485 00ee B429FBF4 		.ascii	"\264)\373\364\007\326NP\256\232tJnL\226\354\2724\232"
 485      07D64E50 
 485      AE9A744A 
 485      6E4C96EC 
 485      BA349A
 486 0101 B1AE4DB9 		.ascii	"\261\256M\271\274\267P6\243\225l\277uS4\332\033\272"
 486      BCB75036 
 486      A3956CBF 
 486      755334DA 
 486      1BBA
 487 0113 A371EB36 		.ascii	"\243q\3536S\361E$\245\\E\014\253&\364\336\217Y\267\211"
 487      53F14524 
 487      A55C450C 
 487      AB26F4DE 
 487      8F59B789 
 488 0127 7215A113 		.ascii	"r\025\241\023\333\003\251\244\224\275{\025<\371\361"
 488      DB03A9A4 
 488      94BD7B15 
 488      3CF9F1
 489 0136 9D61E2F5 		.ascii	"\235a\342\365[\243\335bEU\202\026\006}\353\372\224-"
 489      5BA3DD62 
 489      45558216 
 489      067DEBFA 
 489      942D
 490 0148 FDB2A1FF 		.ascii	"\375\262\241\377\362\253p\217\212\301p\267\256\223\005"
 490      F2AB708F 
 490      8AC170B7 
 490      AE9305
 491 0157 95FA675D 		.ascii	"\225\372g]2\245B\227m\312O\202\246\245O8_\222\271\246"
 491      32A54297 
 491      6DCA4F82 
 491      A6A54F38 
 491      5F92B9A6 
 492 016b A303CB92 		.ascii	"\243\003\313\222\343\245?k}\207\362Y\375\226\223|8\306"
 492      E3A53F6B 
 492      7D87F259 
 492      FD96937C 
 492      38C6
 493 017d 4F53B12F 		.ascii	"OS\261/|\377p\001\276\273\320\377\326\263~\033\025\253"
 493      7CFF7001 
 493      BEBBD0FF 
 493      D6B37E1B 
 493      15AB
 494 018f B05E4E57 		.ascii	"\260^NW\021\313Go\375\224\254\357\003\275\351\206\324"
 494      11CB476F 
ARM GAS  /tmp/cc76wJM6.s 			page 39


 494      FD94ACEF 
 494      03BDE986 
 494      D4
 495 01a0 955D3A97 		.ascii	"\225]:\227\253Hq\341\203\261~+\025\363\252}\032\035"
 495      AB4871E1 
 495      83B17E2B 
 495      15F3AA7D 
 495      1A1D
 496 01b2 19D683EB 		.ascii	"\031\326\203\353\340\317i\353{\224\237Yk\204\376i\321"
 496      E0CF69EB 
 496      7B949F59 
 496      6B84FE69 
 496      D1
 497 01c3 96D4F586 		.ascii	"\226\324\365\206\226l5\224\235\225\365\326\226\247\305"
 497      966C3594 
 497      9D95F5D6 
 497      96A7C5
 498 01d2 F9B584FE 		.ascii	"\371\265\204\376\002gX\353\177"
 498      026758EB 
 498      7F
 499              		.text
 500              		.section	.gnu.lto_.refs.5cf793ed88900310,"",%progbits
 501 0000 789C454D 		.ascii	"x\234EM[\016\2000\010+\335\003u\316\307\207\211\367"
 501      5B0E8030 
 501      082BDD03 
 501      75CEC787 
 501      89F7
 502 0012 BF893713 		.ascii	"\277\2117\0236\315h\240\224B \210\007=DHe\213\363\003"
 502      36CD68A0 
 502      94422088 
 502      073D4448 
 502      658BF303 
 503 0026 4240340D 		.ascii	"B@4\015I\314\232\351\030\236\232\227\211k\362\023x\306"
 503      49CC9AE9 
 503      189E9A97 
 503      896BF213 
 503      78C6
 504 0038 C1BDF38A 		.ascii	"\301\275\363\212\210\231\"\213\353T\320g\206{eF\203"
 504      8899228B 
 504      EB54D067 
 504      867B6546 
 504      83
 505 0049 716CBD6F 		.ascii	"ql\275o&\333\374\247\035\376\245\351T\207\303\215;\017"
 505      26DBFCA7 
 505      1DFEA5E9 
 505      5487C38D 
 505      3B0F
 506 005b CBC062AC 		.ascii	"\313\300b\254\254x\001\272\356\003\321"
 506      AC7801BA 
 506      EE03D1
 507              		.text
 508              		.section	.gnu.lto_.decls.5cf793ed88900310,"",%progbits
 509 0000 789CBD5C 		.ascii	"x\234\275\\\015p\024U\236\357\356\231I2$\020p\205c\353"
 509      0D701455 
 509      9EEFEE99 
 509      49322410 
 509      708563EB 
ARM GAS  /tmp/cc76wJM6.s 			page 40


 510 0014 B6D6B8B7 		.ascii	"\266\326\270\267{e\271.\001\344\024\257n\225=wU\352"
 510      7B65B92E 
 510      01E414AF 
 510      6E953D77 
 510      55EA
 511 0026 CE5577D9 		.ascii	"\316Uw\331:\257j\257\306f2\220Y\3639\323Q\270\253\255"
 511      3AAF6AAF 
 511      C6663290 
 511      59F339D3 
 511      51B8ABAD 
 512 003a ED041210 		.ascii	"\355\004\022\020\020\222\340\032>\022\010\010\036\340"
 512      1092E01A 
 512      3E120808 
 512      1EE0
 513 0048 5A0610C1 		.ascii	"Z\006\020\301Ed\"\230\004\"&\204\360-2\010Y\020\005"
 513      45642298 
 513      04222684 
 513      F02D3208 
 513      591005
 514 005b 42F083F0 		.ascii	"B\360\203\360\225\373\277\257\236\356\227\356\236\356"
 514      95FBBFAF 
 514      9EEE97EE 
 514      9EEE
 515 0069 51AFAB5E 		.ascii	"Q\257\253^\317\353\356\367~\357\377\375^\277~o$A\022"
 515      CFEBEEF7 
 515      7EEFFFFD 
 515      5EBF7E6F 
 515      244112
 516 007c BC698230 		.ascii	"\274i\2020\000\3073\277\027\204\022\277 \014\021\004"
 516      00C733BF 
 516      178412BF 
 516      200C1104 
 517 008c E1414859 		.ascii	"\341AHY\220VA\362@zL\024\204\337Cz\010\362\317\300o"
 517      905641F2 
 517      407A4C14 
 517      84DF437A 
 517      08F2CFC0 
 518 00a1 3FFCFA20 		.ascii	"?\374\372 \345A>\004i:\244?@B\307hHQ\310\317\200\364"
 518      E5413E04 
 518      693AA43F 
 518      4042C768 
 518      4851C8CF 
 519 00b7 4748E590 		.ascii	"GH\345\220*!\315\205\264\000\322\"H\213!\275\014i9\244"
 519      2A21CD85 
 519      B400D222 
 519      488B21BD 
 519      0C6939A4 
 520 00cb 5720AD87 		.ascii	"W \255\207\264\021\322[\220\336\205\364\036\2446H\035"
 520      B411D25B 
 520      90DE85F4 
 520      1EA43648 
 520      1D
 521 00dc 900E40FA 		.ascii	"\220\016@\372\030R\034\322\031H\027 \001\231\302e\370"
 521      18521CD2 
 521      19481720 
 521      0199C265 
 521      F8
ARM GAS  /tmp/cc76wJM6.s 			page 41


 522 00ed BD4B1284 		.ascii	"\275K\022\204\177\2014\011R\035\244e\220\232 \275\003"
 522      7F813409 
 522      521DA465 
 522      909A20BD 
 522      03
 523 00fe E9364930 		.ascii	"\3516I0\034Q1\221\027\271kv \232\021_-R\202\367:\270"
 523      1C513191 
 523      17B96B76 
 523      209A115F 
 523      2D5282F7 
 524 0114 378C9695 		.ascii	"7\214\226\225h\031D\273Hi\320\037\210W$?$\247\007\241"
 524      681944BB 
 524      4869D01F 
 524      8857243F 
 524      24A707A1 
 525 0128 F0CF21B5 		.ascii	"\360\317!\265B\362\302u\033\305d\262\254\247u=\264\036"
 525      42F2C275 
 525      1BC564B2 
 525      ACA7753D 
 525      B41E
 526 013a 9205A209 		.ascii	"\222\005\242\011\265\201x\342\261\221,AU\302\036)\241"
 526      B58178E2 
 526      B1912C41 
 526      55C21E29 
 526      A1
 527 014b 0354770D 		.ascii	"\003Tw\015G\337\037\251L\321\255\2738\031T\332\320\267"
 527      47DF1FA9 
 527      4CD1ADBB 
 527      381954DA 
 527      D0B7
 528 015d 97E232FA 		.ascii	"\227\3422\3726\350\350\253\244:\322\323\307c#\375\336"
 528      36E8E8AB 
 528      A43AD2D3 
 528      C76323FD 
 528      DE
 529 016e 4BF91B26 		.ascii	"K\371\033&\020\373\211A\332F\351Cm \331\"\036\372\250"
 529      10FB8941 
 529      DA46E943 
 529      6D20D922 
 529      1EFAA8
 530 0181 0E101D6F 		.ascii	"\016\020\035oBJ\207\324\016x\273\340w\037\374vPY!\036"
 530      424A87D4 
 530      0E78BBE0 
 530      771FFC76 
 530      5059211E 
 531 0195 3741C14E 		.ascii	"7A\301N\270\336*\022\2750\235\354\207\374N\370\355\222"
 531      B8DE2A12 
 531      BD309DEC 
 531      87FC4EF8 
 531      ED92
 532 01a7 1276B84B 		.ascii	"\022v\270K4\362u\000\322\036\270\327\015\277\235\210"
 532      34F27500 
 532      D21EB8D7 
 532      0DBF9D88 
 533 01b7 37F8FD05 		.ascii	"7\370\375\005\244\203\220\266\000\316!\211\330n7\244"
 533      A48390B6 
 533      00CE2189 
ARM GAS  /tmp/cc76wJM6.s 			page 42


 533      D86E37A4 
 534 01c7 25903F0C 		.ascii	"%\220?\014i\015\244\012j\317\250\255G\341\372i\324\226"
 534      690DA40A 
 534      6ACFA8AD 
 534      47E1FA69 
 534      D496
 535 01d9 40F89AAB 		.ascii	"@\370\232\253\263\325#\022\261\005\336fO\302\375\323"
 535      B3D52312 
 535      B105DE66 
 535      4FC2FDD3 
 536 01e9 12B1DD19 		.ascii	"\022\261\335\031\324~\275\324^\364\366\252?\220o\334"
 536      D47EBDD4 
 536      5EF4F6AA 
 536      3F906FDC 
 537 01f9 4E65C4E4 		.ascii	"Ne\304\344\347\245\362C\262z\\4\312\010\311\031\311"
 537      E7A5F243 
 537      B27A5C34 
 537      CA08C919 
 537      C9
 538 020a 88C906C9 		.ascii	"\210\311\006\311\012\311\015\311k5\344\317B\376\005"
 538      0AC90DC9 
 538      6B35E4CF 
 538      42FE05
 539 0219 CAC353F0 		.ascii	"\312\303S\360\373[H\217R\373^@\351G|\234\223\010Of\366"
 539      FB5B488F 
 539      52FB5E40 
 539      E9477C9C 
 539      93084F66 
 540 022e 8C7C7502 		.ascii	"\214|u\002\323!\245\011\265\033\243\264!\275\366\351"
 540      D321A509 
 540      B51BA3B4 
 540      21BDF6E9 
 541 023e F4FAB868 		.ascii	"\364\372\270h\255\323\213\324\276N\351t'\353tk\247\307"
 541      ADD38BD4 
 541      BE4EE974 
 541      27EB746B 
 541      A7C7
 542 0250 4B54EF3D 		.ascii	"KT\357=.u\330\213\332\025\211\317 \371 \235\"\177\311"
 542      2E75D88B 
 542      DA1589CF 
 542      20F9209D 
 542      227FC9
 543 0263 E064A2D7 		.ascii	"\340d\242\327\361\023p\375\357\220\262)\377q\252\337"
 543      F11370FD 
 543      EF90B229 
 543      FF71AADF 
 544 0273 CB1291D9 		.ascii	"\313\022\221\331{4\016\351u\214|\356\252D\364|\201\372"
 544      7B340EE9 
 544      758C7CEE 
 544      AA44F47C 
 544      81FA
 545 0285 9F57181C 		.ascii	"\237W\030\034\237\364\007\212\201#]\350\033\311\212"
 545      9FF4078A 
 545      81235DE8 
 545      1BC98A
 546 0294 F9A75EE7 		.ascii	"\371\247^\347{\244D\034\270\005\371j\023\235\247\321"
 546      7BA4441C 
ARM GAS  /tmp/cc76wJM6.s 			page 43


 546      B805F96A 
 546      139DA7D1 
 547 02a4 F6180F03 		.ascii	"\366\030\017\003\022\241q\221E\234\310\024\346\251j"
 547      12A17191 
 547      459CC814 
 547      E6A96A
 548 02b3 85DA58A5 		.ascii	"\205\332X\245>\3266\3546\241F\205#\247\015\250|Z\224"
 548      3ED636EC 
 548      36A14685 
 548      23A70DA8 
 548      7C5A94
 549 02c6 C5617EA1 		.ascii	"\305a~\241Q\302\271,\277\360c(\375\023a\215\252V\307"
 549      51C2B92C 
 549      BFF06328 
 549      FD13618D 
 549      AA56C7
 550 02d9 D75E894B 		.ascii	"\327^\211K\252\232!\213\253\305\333 J< \012w\013\353"
 550      AA9A218B 
 550      ABC5DB20 
 550      4A3C200A 
 550      770BEB
 551 02ec A162B5AA 		.ascii	"\241b\265\252~\362\017\234a\341\303!p\254\246\345\007"
 551      7EF20F9C 
 551      61E1C321 
 551      70ACA6E5 
 551      07
 552 02fd AA57165F 		.ascii	"\252W\026_\305\260\277\026A\022k\305\273\235bH\302\177"
 552      C5B0BF16 
 552      41126BC5 
 552      BB9D6248 
 552      C27F
 553 030f A21AEBA1 		.ascii	"\242\032\353\2412\251\207A\325\330\216\252,\004\212"
 553      32A98741 
 553      D5D88EAA 
 553      2C048A
 554 031e EE0B0644 		.ascii	"\356\013\006D\303q\247\320\210\012\357l\251\027\325"
 554      C371A7D0 
 554      880AEF6C 
 554      A917D5
 555 032d C6F74493 		.ascii	"\306\367D\223\326&\261\3062\022\222\370\363\234\017"
 555      D626B1C6 
 555      321292F8 
 555      F39C0F
 556 033c 6BC4D9AA 		.ascii	"k\304\331\252\012\017^\307D/\027M\251n\234d\005$\011"
 556      0A0F5EC7 
 556      442F174D 
 556      A96E9C64 
 556      052409
 557 034f AFE12A4D 		.ascii	"\257\341*M\034\331\361\376\366\356r\261\034C79 \275"
 557      1CD9F1FE 
 557      F6EE72B1 
 557      1C433739 
 557      20BD
 558 0361 2276B0AA 		.ascii	"\"v\260\252\341\373\210\364\244*\365\262\366\177\231"
 558      E1FB88F4 
 558      A42AF5B2 
 558      F67F99
ARM GAS  /tmp/cc76wJM6.s 			page 44


 559 0370 60E4A539 		.ascii	"`\344\2459\273E\254\322-\230\215\313\346lX\303H\302"
 559      BB45ACD2 
 559      2D988DCB 
 559      E66C58C3 
 559      48C2
 560 0382 355C65DB 		.ascii	"5\\e\333 6\346\177\314\330\330\346\210\215\353\224\015"
 560      2036E67F 
 560      CCD8D8E6 
 560      888DEB94 
 560      0D
 561 0393 597C1358 		.ascii	"Y|\023X\221\204\331\022\303\245\015\347\260v\221\017"
 561      9184D912 
 561      C3A50DE7 
 561      B076910F 
 562 03a3 D12C3968 		.ascii	"\321,9h\001#\336\255\226\254j\231\201\315w\015\226c"
 562      0123DEAD 
 562      96AC6A99 
 562      81CD770D 
 562      9663
 563 03b5 005BDC5A 		.ascii	"\000[\334Z\217\211\363\013s\0232\026L\301\250`\017v"
 563      8F89F30B 
 563      73133216 
 563      4CC1A860 
 563      0F76
 564 03c7 7DB85F9C 		.ascii	"}\270_\234\205\371\217A5I8.\031E\353\034\252\256\356"
 564      85F98F41 
 564      3549382E 
 564      1945EB1C 
 564      AAAEEE
 565 03da FD66B102 		.ascii	"\375f\261\002C\355\302Ps=\251B\035X\366\316\003X\335"
 565      43EDC250 
 565      733DA942 
 565      1D58F6CE 
 565      0358DD
 566 03ed 2D18A885 		.ascii	"-\030\250\205\003\222\305tM\214\3325+\200\320\360c\232"
 566      0392C574 
 566      4D8CDA35 
 566      2B80D0F0 
 566      639A
 567 03ff 4143CA6C 		.ascii	"AC\312l\341;..\011\373=\016T\227ae\007j\374\352\374"
 567      E13B2E2E 
 567      09FB3D0E 
 567      54976165 
 567      076AFCEA 
 568 0414 1E71A91A 		.ascii	"\036q\251\032\233\355a.\231f%#I8\202\333j\347m\271f"
 568      9BED612E 
 568      99662523 
 568      493882DB 
 568      6AE76DB9 
 569 0429 E5850A6A 		.ascii	"\345\205\012j\313\355\216lyk{\2353\227\344\002\3312"
 569      CBED8E6C 
 569      796B7B9D 
 569      3397E402 
 569      D932
 570 043b 2F6ABF93 		.ascii	"/j\277\223o\277\341\364\271\007\227\250\352p\362(y\363"
 570      6FBFE1F4 
 570      B90797A8 
ARM GAS  /tmp/cc76wJM6.s 			page 45


 570      EA70F228 
 570      79F3
 571 044d 1BBB5E1A 		.ascii	"\033\273^\032\334\274,>8\322\3164jV\266\366Q&\273\261"
 571      DCBC2C3E 
 571      38D2CE34 
 571      6A56B6F6 
 571      5126BBB1 
 572 0461 CF9CF1F2 		.ascii	"\317\234\361\362\306\361P\246Q}p\255+ \011\0274\362"
 572      C6F150A6 
 572      517D70AD 
 572      2B200917 
 572      34F2
 573 0473 537259E0 		.ascii	"SrY\340\263m\362\372M\252\372B\032\243\241\3275b\216"
 573      B36DF2FA 
 573      4DAAFA42 
 573      1AA3A1D7 
 573      35628E
 574 0486 41126F76 		.ascii	"A\022ov\341 @\300\2568\001\263\264\244\212\330[z\260"
 574      E12040C0 
 574      AE3801B3 
 574      B4A48AD8 
 574      5B7AB0
 575 0499 AF5C8319 		.ascii	"\257\\\203\031)\333\246\007\353w\0026\334\232\262\277"
 575      29DBA607 
 575      EB770236 
 575      DC9AB2BF 
 576 04a9 EAC16EB8 		.ascii	"\352\301n\270\0063R\366\216\036l\300\011\330hk\312\336"
 576      063352F6 
 576      8E1E6CC0 
 576      09D8686B 
 576      CADE
 577 04bb D583CDF2 		.ascii	"\325\203\315\362\271\0053R\326\251\007\233\343\004,"
 577      B9053352 
 577      D6A9079B 
 577      E3042C
 578 04ca C78432ED 		.ascii	"\307\2042\3550\253\207\314\272C\324\354\\\022\346\371"
 578      30AB87CC 
 578      BA43D4EC 
 578      5C12E6F9 
 579 04da 58487069 		.ascii	"XHpi\323B\002c\241\317m\0103\360\015}\351\337V\211\213"
 579      D3420263 
 579      A1CF6D08 
 579      33F00D7D 
 579      E9DF5689 
 580 04ef 67A96D63 		.ascii	"g\251mcY\177\366\222\023D\033\203Y\326\252\353\034\353"
 580      597FF692 
 580      13441B83 
 580      59D6AAEB 
 580      1CEB
 581 0501 5D8371A6 		.ascii	"]\203q\246\214\300\014\261\206vH\361\265\261\321K\022"
 581      8CC00CB1 
 581      867648F1 
 581      B5B1D14B 
 581      12
 582 0512 D12E8361 		.ascii	"\321.\203a\241\241\"\011m0r\224\264\302\352\350\321"
 582      A1A12209 
 582      6D307294 
ARM GAS  /tmp/cc76wJM6.s 			page 46


 582      B4C2EAE8 
 582      D1
 583 0523 E66565F1 		.ascii	"\346ee\361\262\370\0238\367\211~\215\012\222g\271\001"
 583      B2F81338 
 583      F7897E8D 
 583      0A9267B9 
 583      01
 584 0534 11C9798D 		.ascii	"\021\311y\215\317l\020\212\001\354\253ZY\302%\275%\254"
 584      CF6C108A 
 584      01ECAB5A 
 584      59C225BD 
 584      25AC
 585 0546 7722261B 		.ascii	"w\"&\033W8\331Z\377wj<&\352\370\265\025\016\214!j\367"
 585      5738D95A 
 585      FF776A3C 
 585      26EAF8B5 
 585      150E8C21 
 586 055c B131C457 		.ascii	"\2611\304W\270\277n\362\231v\374\016\240\352\352^\377"
 586      B8BF6EF2 
 586      9976FC0E 
 586      A0EAEA5E 
 586      FF
 587 056d 29EEF8FB 		.ascii	")\356\370\3731\320\333)\003\035X\266b\"\006\272\201"
 587      31D0DB29 
 587      031D58B6 
 587      622206BA 
 587      81
 588 057e 819A7D7C 		.ascii	"\201\232}|'!r#\010\321\330\307k\262\247\242\377\256"
 588      27217223 
 588      08D1D8C7 
 588      6BB2A7A2 
 588      FFAE
 589 0590 CA4A423B 		.ascii	"\312JB;\257/\003;I\243\015\014\304o\326\210W*\324%c"
 589      AF2F033B 
 589      49A30D0C 
 589      C46FD688 
 589      572AD425 
 590 05a5 5D68ACEB 		.ascii	"]h\254\353\003\246\261r\011\311\347\300 \371\364\273"
 590      03A6B172 
 590      09C9E7C0 
 590      20F9F4BB 
 591 05b5 14108C1C 		.ascii	"\024\020\214\034]3r\227\221\221\371\273k\3353\242\231"
 591      5D337297 
 591      9191F9BB 
 591      6BDD33A2 
 591      99
 592 05c6 5E1566E4 		.ascii	"^\025f\344\364\267\300\310g\256\031\031\253c\004\275"
 592      F4B7C0C8 
 592      67AE1919 
 592      AB6304BD 
 593 05d6 537C594B 		.ascii	"S|YK\342\340\367\204Z\373\261\034\242g\276\364=\343"
 593      E2E0F784 
 593      5AFBB11C 
 593      A267BEF4 
 593      3DE3
 594 05e8 1BE1D1BD 		.ascii	"\033\341\321\275b\016\271\235\374\205\360\353\275\272"
 594      620EB99D 
ARM GAS  /tmp/cc76wJM6.s 			page 47


 594      FC85F0EB 
 594      BDBA
 595 05f6 11BFEA68 		.ascii	"\021\277\352h\304_\333\301D\266\020\213\254\317\314"
 595      C45FDBC1 
 595      44B6108B 
 595      ACCFCC
 596 0605 C91C41D5 		.ascii	"\311\034A\325\035\336\275\221\216\370k0\324\325\224"
 596      1DDEBD91 
 596      8EF86B30 
 596      D4D594
 597 0614 A10E1CDB 		.ascii	"\241\016\034\333J\374\365%\014\244\246\361jL\343\264"
 597      4AFCF525 
 597      0CA4A6F1 
 597      6A4CE3B4 
 598 0624 9866D422 		.ascii	"\230f\324\"\\\242\226\256\242\361\270\370'z\007]\244"
 598      5CA296AE 
 598      A2F1B8F8 
 598      277A075D 
 598      A4
 599 0635 0BFFEFF5 		.ascii	"\013\377\357\365\2407\306\344#\015\2462\302D\026\324"
 599      A037C6E4 
 599      230DA632 
 599      C24416D4 
 600 0645 53CB7A52 		.ascii	"S\313zR\242\244\232o\204X\021\333<\237\275\266>\204"
 600      A2A49A6F 
 600      845811DB 
 600      3C9FBDB6 
 600      3E84
 601 0657 FAD265DF 		.ascii	"\372\322e\337\020n\177\273\353\027\315\332nfv\015\230"
 601      106E7FBB 
 601      EB17CDDA 
 601      6E66760D 
 601      98
 602 0668 A3558354 		.ascii	"\243U\203T\274\213\367T'\357]\257\247\312\211vH\302"
 602      BC8BF754 
 602      27EF5DAF 
 602      A7CA8976 
 602      48C2
 603 067a 9B690EBA 		.ascii	"\233i\016\272\314\034\033u\265\177M\325\225\364\345"
 603      CC1C1B75 
 603      B57F4DD5 
 603      95F4E5
 604 0689 8D4DCCB4 		.ascii	"\215M\314\264\266\224\323\211\231W$4\243\261\215\223"
 604      B694D389 
 604      99572434 
 604      A3B18D93 
 605 0699 8683B7C0 		.ascii	"\206\203\267\300V\\\345Ui\320\214\306>6\243\201\236"
 605      565CE555 
 605      69D08CC6 
 605      3E36A381 
 605      9E
 606 06aa 39780B34 		.ascii	"9x\0134\314h\310\342;\242DqS\225\250A\211\011\002eq"
 606      CC68C8E2 
 606      3BA24471 
 606      5395A841 
 606      89090265 
 607 06bf 9D84C647 		.ascii	"\235\204\306G\353\245;\365\322?\354Z\3729z\351\307\256"
ARM GAS  /tmp/cc76wJM6.s 			page 48


 607      EBA53BF5 
 607      D23FEC5A 
 607      FA397AE9 
 607      C7AE
 608 06d1 B7933931 		.ascii	"\267\223916\307u\212\307\233\244\037\273\322\354]\226"
 608      36C7758A 
 608      C79BA41F 
 608      BBD2EC5D 
 608      96
 609 06e2 DA8CD57E 		.ascii	"\332\214\325~\210\007\235\304\357>wB\334X+\260\212\330"
 609      88079DC4 
 609      EF3E7742 
 609      DC582BB0 
 609      8AD8
 610 06f4 0A02464C 		.ascii	"\012\002FL\276\3175X\216\001l\307BgSh\252\250\037\016"
 610      BECF3558 
 610      8E016CC7 
 610      42675368 
 610      AAA81F0E 
 611 0708 4BC24DDC 		.ascii	"K\302M\334\356f\336R\352\256u\316\241\226\262\331\201"
 611      EE66DE52 
 611      EAAE75CE 
 611      A196B2D9 
 611      81
 612 0719 A54067D3 		.ascii	"\245@g\323\343Wk\263\230\234\267\2463T\0339\233\331"
 612      E3576BB3 
 612      989CB7A6 
 612      33541B39 
 612      9BD9
 613 072b 099B49FB 		.ascii	"\011\233I\373t\217\210\341\310\360~'\017\347\362\265"
 613      748F88E1 
 613      C8F07E27 
 613      0FE7F2B5 
 614 073b F756A86D 		.ascii	"\367V\250m\254;\301\320Y\335\343o\243\356\366\035\354"
 614      AC3BC1D0 
 614      59DDE36F 
 614      A3EEF61D 
 614      EC
 615 074c 86ADE97C 		.ascii	"\206\255\351|P\"\222\321\331\363f\235=o\301\366\374"
 615      502292D1 
 615      D9F3669D 
 615      3D6FC1F6 
 615      FC
 616 075d 16D833A8 		.ascii	"\026\3303\250\025\237\377\252\267m\253\036\177\273\244"
 616      159FFFAA 
 616      B76DAB1E 
 616      7FBBA4
 617 076c 1BAF77B8 		.ascii	"\033\257w\270\346;\207\323\216U3\233\364\315\034Jw`"
 617      E63B87D3 
 617      8E55339B 
 617      F4CD1C4A 
 617      7760
 618 077e 7B132DC5 		.ascii	"{\023-\305\013a\345\340b\326%\221\231\302\270kD\243"
 618      0B61E5E0 
 618      62D62591 
 618      99C2B86B 
 618      44A3
ARM GAS  /tmp/cc76wJM6.s 			page 49


 619 0790 355F5E68 		.ascii	"5_^h\350\222>s\0027\311\204@\263C?\323\013J\301\257"
 619      E8923E73 
 619      0237C984 
 619      40B3433F 
 619      D30B4AC1 
 620 07a5 65DB45A4 		.ascii	"e\333E\244\240\035\370\274\023\237\367\342\363y|\376"
 620      A01DF8BC 
 620      139FF7E2 
 620      F3797CFE 
 621 07b5 1C9F2FE2 		.ascii	"\034\237/\342\363\227\370\254b\205V\342\363<|^\215\317"
 621      F397F8AC 
 621      628556E2 
 621      F33C7C5E 
 621      8DCF
 622 07c7 AFE1F3EB 		.ascii	"\257\341\363\353\370\374\006>o"
 622      F8FC063E 
 622      6F
 623 07d0 C4E7667C 		.ascii	"\304\347f|\336\345\304\000H\240\325\314\214\305\334"
 623      DEE5C400 
 623      48A0D5CC 
 623      8CC5DC
 624 07df A6946791 		.ascii	"\246\224g\221\017%f\221e\361]\327`\274E\031$\331\244"
 624      0F256691 
 624      65F15DD7 
 624      60BC4519 
 624      24D9A4
 625 07f2 93E4262C 		.ascii	"\223\344&,\311\315X>\357\033\303\370\225t\366y#\245"
 625      C9CD583E 
 625      EF1BC3F8 
 625      9574F679 
 625      23A5
 626 0804 7010AF3C 		.ascii	"p\020\257<\337\346\301\023\240\316\307\024\327\007\342"
 626      DFE6C113 
 626      A0CEC714 
 626      D707E2
 627 0813 FFFC069E 		.ascii	"\377\374\006\236pl\303\361\265)\203\367^\0377\242\360"
 627      706CC3F1 
 627      B52983F7 
 627      5E1F37A2 
 627      F0
 628 0824 1947143E 		.ascii	"\031G\024>\177\"\243\215(\266fp\214\270\013D\361\265"
 628      7F22A38D 
 628      28B66670 
 628      8CB80B44 
 628      F1B5
 629 0836 E73B0923 		.ascii	"\347;\011#\334\274&z\021\2612\210}zWmvM@\216\301\030"
 629      DCBC267A 
 629      11B13288 
 629      7D7A576D 
 629      764D408E 
 630 084c BA893120 		.ascii	"\272\2111 LI\330\353\004\314f\012\346\210\036\254\323"
 630      4C49D8EB 
 630      04CC660A 
 630      E6881EAC 
 630      D3
 631 085d 359891B2 		.ascii	"5\230\221\262cz\260#N\300l&*N\264\324\017\356\015G\011"
 631      637AB023 
ARM GAS  /tmp/cc76wJM6.s 			page 50


 631      4EC06C26 
 631      2A4EB4D4 
 631      0FEE0D47 
 632 0872 7FA66F1C 		.ascii	"\177\246o\034\252\250X\316%#\221\037\226F\341\234\007"
 632      AAA858CE 
 632      2523911F 
 632      9646E19C 
 632      07
 633 0883 2F241038 		.ascii	"/$\0208e\275jA\026\252y4\241,Y\374\235G3/kK\215\325"
 633      65BD6A41 
 633      16AA7934 
 633      A12C59FC 
 633      9D47332F 
 634 089b 55DD8E3E 		.ascii	"U\335\216>\362\035\302\214\30793\345\232F\204Y5\375"
 634      F21DC28C 
 634      C73933E5 
 634      9A468459 
 634      35FD
 635 08ad 9164081C 		.ascii	"\221d\010\034\006\333\346\236I\302y\327\0026j\353d\225"
 635      06DBE69E 
 635      49C279D7 
 635      02366AEB 
 635      6495
 636 08bf 21405F71 		.ascii	"!@_q\002\227c\242/\263C\377!\024B*\016+\177\301a\245"
 636      029763A2 
 636      2FB343FF 
 636      2114422A 
 636      0E2B7FC1 
 637 08d5 1587D10F 		.ascii	"\025\207\321\017\360\271\003\237\367\343\363\001|>\210"
 637      F0B9039F 
 637      F7E3F301 
 637      7C3E88
 638 08e4 CF1FEB43 		.ascii	"\317\037\353C\317w\203j\245\201U\211\271\266T>N\307"
 638      CF77836A 
 638      A5815589 
 638      B9B6543E 
 638      4EC7
 639 08f6 0ECE1985 		.ascii	"\016\316\031\205,\341\024\036n\\\033\024\260^\025\271"
 639      2CE1141E 
 639      6E5C1B14 
 639      B05E15B9 
 640 0906 E1C677CE 		.ascii	"\341\306w\316P\\2gh\204P\215\031Z2\214L@\322\372w\261"
 640      505C3267 
 640      6884508D 
 640      195A328C 
 640      4C40D2FA 
 641 091c FA3E5ABF 		.ascii	"\372>Z\277G\032\201s\206w}\\\302\252\305\277I\211I\316"
 641      471A8173 
 641      86777D5C 
 641      C2AAC5BF 
 641      498949CE 
 642 0930 2C7F22E3 		.ascii	",\177\"\343MB\351\031\013J9\237G\003w+\210sF\247\247"
 642      4D42E919 
 642      0B4A399F 
 642      4703772B 
 642      887346A7 
 643 0945 DF8692F8 		.ascii	"\337\206\222\3700*w\326\350\\\264\217R\253\324\273\326"
ARM GAS  /tmp/cc76wJM6.s 			page 51


 643      302A77D6 
 643      E85CB48F 
 643      52ABD4BB 
 643      D6
 644 0956 25143E9C 		.ascii	"%\024>\234\325\222\004\335'\370\255w\343\211\215\363"
 644      D59204DD 
 644      27F8AD77 
 644      E3898DF3 
 645 0966 B88B7AC1 		.ascii	"\270\213z\301o:\243\231\034\250\261\256\016\033\316"
 645      6F3AA399 
 645      1CA8B1AE 
 645      0E1BCE
 646 0975 050CB338 		.ascii	"\005\014\2638U\230\370\201e\377K>\255\366b\240z?o\201"
 646      5598F881 
 646      65FF4B3E 
 646      ADF662A0 
 646      7A3F6F81 
 647 0989 1EAECBF4 		.ascii	"\036\256\313\364\030\273L\217?\221\031\030\360\010\337"
 647      18BB4C8F 
 647      3F911918 
 647      F008DF
 648 0998 61E13B84 		.ascii	"a\341;\204\025jgo|\345k{\016\21350\362T{Q\017M\002\244"
 648      156A676F 
 648      7CE56B7B 
 648      0E8B3530 
 648      F2547B51 
 649 09b0 241CE328 		.ascii	"$\034\343(\377\261\360\212\252\326\2525\241\307H\204"
 649      FFB1F08A 
 649      AAD6AA35 
 649      A1C74884 
 650 09c0 8617415C 		.ascii	"\206\027A\\\342\212t\207\251V\2658\376\217\302Zd>\333"
 650      E28A7487 
 650      A956B538 
 650      FE8FC25A 
 650      643EDB
 651 09d3 D52747E3 		.ascii	"\325'G\343\016C\240\225\014\264~!\031V\246 \322b\275"
 651      0E43A095 
 651      0CB47E21 
 651      1956A620 
 651      D262BD
 652 09e6 B1C3558B 		.ascii	"\261\303U\213 BV\304\006\006\036\242\306%\011g\314\351"
 652      204256C4 
 652      06061EA2 
 652      C6250967 
 652      CCE9
 653 09f8 EACF7B8C 		.ascii	"\352\317{\214\306\321\317q\201\253\226d=\244\247j\307"
 653      C6D1CF71 
 653      81AB9664 
 653      3DA4A76A 
 653      C7
 654 0a09 99271F23 		.ascii	"\231'\037#&-\330T\242D\366\233\022\371f{Vuy|`\340\016"
 654      262DD854 
 654      A244F69B 
 654      12F9667B 
 654      5675797C 
 655 0a20 46E1457B 		.ascii	"F\341E{\012e\361\272\204\006\2207S\241\320\252\022\245"
 655      0A65F1BA 
ARM GAS  /tmp/cc76wJM6.s 			page 52


 655      84069037 
 655      53A1D0AA 
 655      12A5
 656 0a32 F0962985 		.ascii	"\360\226)\205;Z\026jbt\336\201WxF\321\034\363_I\370"
 656      3B5A166A 
 656      6274DE81 
 656      577846D1 
 656      1CF35F49 
 657 0a47 8A634DA3 		.ascii	"\212cM\243R]\247z4\355\226{8\355\316\362\230\221\265"
 657      525DA77A 
 657      34ED967B 
 657      38EDCEF2 
 657      9891B5
 658 0a5a 2C2138D4 		.ascii	",!8\324\226$\314\036\342\004\275\222G\2572E\377\242"
 658      9624CC1E 
 658      E204BD92 
 658      47AF3245 
 658      FFA2
 659 0a6c 65410681 		.ascii	"eA\006\201w\316\362\013&,\327\232\023Um$j.O\324<3\242"
 659      77CEF20B 
 659      262CD79A 
 659      13556D24 
 659      6A2E4FD4 
 660 0a83 D44DAAEA 		.ascii	"\324M\252\352Wa \254J\214\347\365\216x^\300\303\277"
 660      576120AC 
 660      4A8CE7F5 
 660      8E785EC0 
 660      C3BF
 661 0a95 68CA7357 		.ascii	"h\312sW\273{\236\253Mx~\333\021\317\213x\242j\034\362"
 661      BB7B9EAB 
 661      4D787EDB 
 661      11CF8B78 
 661      A26A1CF2 
 662 0aa9 DCE988E7 		.ascii	"\334\351\210\347\305<\374K\203\341\343\325\361\312k"
 662      C53CFC4B 
 662      83E1E3D5 
 662      F1CA6B
 663 0ab8 7BC4A5EA 		.ascii	"{\304\245\352{\263\241\211?\361\326m\327U\325y\270\256"
 663      7BB3A189 
 663      3FF1D66D 
 663      D755D579 
 663      B8AE
 664 0aca 0A8D3CB4 		.ascii	"\012\215<\264\213\363\244\0175\364]0\262\034D8)\264"
 664      8BF3A40F 
 664      35F45D30 
 664      B21C4438 
 664      29B4
 665 0adc CC8CB2D8 		.ascii	"\314\214\262\330\333\213\026|_]\345\326\355\352m\351"
 665      DB8B167C 
 665      5F5DE5D6 
 665      EDEA6DE9 
 666 0aec A22F32DA 		.ascii	"\242/2\332u\033\241S\273>\304='\241\204c\343\222\005"
 666      751BA153 
 666      BB3EC43D 
 666      27A18463 
 666      E39205
 667 0aff 1BAB4DD9 		.ascii	"\033\253M\3318\331a\311\206\235|\327\360|\240\201\220"
ARM GAS  /tmp/cc76wJM6.s 			page 53


 667      38D961C9 
 667      869D7CD7 
 667      F07CA081 
 667      90
 668 0b10 7641BF1A 		.ascii	"vA\277\032%\221\367-\013B\327\231\022z4%yo\260\245\363"
 668      2591F72D 
 668      0B42D799 
 668      127A3425 
 668      796FB0A5 
 669 0b25 5B91F78B 		.ascii	"[\221\367\213\231\346l4\231\262\26135yo\262\265\033"
 669      99E66C34 
 669      99B2B133 
 669      35796FB2 
 669      B51B
 670 0b37 2A6F8EB0 		.ascii	"*o\216\260z\013\302\266\230z\332\362\355\315\177\277"
 670      7A0BC2B6 
 670      987ADAF2 
 670      EDCD7FBF 
 671 0b47 64933AFB 		.ascii	"d\223:\373\005\365\326\300\237D\003i\031\302\034\374"
 671      05F5D6C0 
 671      9F440369 
 671      19C21CFC 
 672 0b57 45B1522D 		.ascii	"E\261R-\027K\265\361\221\305\227~Y\334\346\311\200\326"
 672      174BB5F1 
 672      91C5977E 
 672      59DCE6C9 
 672      80D6
 673 0b69 BB322DBF 		.ascii	"\2732-\277\323\243\002\350@\365I\236\345l>\323o\345"
 673      D3A302E8 
 673      40F5499E 
 673      E56C3ED3 
 673      6FE5
 674 0b7b 25E0F327 		.ascii	"%\340\363'\362\024\221\023\300\021\013\001\3540\325"
 674      F2149113 
 674      C0110B01 
 674      EC30D5
 675 0b8a CC472D0B 		.ascii	"\314G-\013T\321m|\335\311S\325\207?\220\032\310\350"
 675      54D16D7C 
 675      DDC953D5 
 675      873F901A 
 675      C8E8
 676 0b9c B120A3D9 		.ascii	"\261 \243\331\224\214>K2\020\223Vt\354\262\226\016\367"
 676      948C3E4B 
 676      32109356 
 676      74ECB296 
 676      0EF7
 677 0bae 82DC6733 		.ascii	"\202\334g3\221\322\342\3114Ph`\343K\0136ZM\315i\355"
 677      91D2E2C9 
 677      34506860 
 677      E34B0B36 
 677      5A4DCD69 
 678 0bc3 B5FD9681 		.ascii	"\265\375\226\201\273\315\306\320\367|\243\000i\036h"
 678      BBCDC6D0 
 678      F77CA300 
 678      691E68
 679 0bd2 E6679953 		.ascii	"\346g\231S\376\241\251\002v\244\024h:\315\350\346\350"
 679      FEA1A902 
ARM GAS  /tmp/cc76wJM6.s 			page 54


 679      76A41468 
 679      3ACDE8E6 
 679      E8
 680 0be3 586E4147 		.ascii	"XnAG\227\251\004\033N7?\330`\356\220d\256\322\212\224"
 680      97A9041B 
 680      4E373FD8 
 680      60EE9064 
 680      AED28A94 
 681 0bf7 6E9E9487 		.ascii	"n\236\224\2072\255%\0263\204j\316V\316YL\246\320\267"
 681      32AD2516 
 681      33846ACE 
 681      56CE594C 
 681      A6D0B7
 682 0c0a F18DAD78 		.ascii	"\361\215\255x^\346\250\007\015\314?\316\342\337\205"
 682      5EE6A807 
 682      0DCC3FCE 
 682      E2DF85
 683 0c19 CE4ADC52 		.ascii	"\316J\334R\302\263\203\346_\354#\353\337,\344u\302\""
 683      C2B383E6 
 683      5FEC23EB 
 683      DF2CE475 
 683      C222
 684 0c2b 809DD205 		.ascii	"\200\235\322\00506\032\271j\201q\322|\270q+\265\341"
 684      30361AB9 
 684      6A8171D2 
 684      7CB8712B 
 684      B5E1
 685 0c3d C629B36E 		.ascii	"\306)\263n\206\343f\336PsJN\233Z\341\225E/ZY\241\235"
 685      86E366DE 
 685      50734A4E 
 685      9B5AE195 
 685      452F5A59 
 686 0c53 FBF4D8F4 		.ascii	"\373\364\330\364wnWo\311\3425<e\222d\311\207\345l\201"
 686      776E576F 
 686      C9E2353C 
 686      659264C9 
 686      87E56C81 
 687 0c67 2198B874 		.ascii	"!\230\270t\331\305\026\302\372\334TX'Rr\331\213\016"
 687      D9C516C2 
 687      FADC5458 
 687      275272D9 
 687      8B0E
 688 0c79 94B6C682 		.ascii	"\224\266\306\202\216^#\035?\022V\251\261\316\370\212"
 688      8E5E231D 
 688      3F1256A9 
 688      B1CEF88A 
 689 0c89 D7F68F2E 		.ascii	"\327\366\217.Wc\263U\365\306\300\200(\262=\024oh \246"
 689      5763B355 
 689      F5C6C080 
 689      28B23D14 
 689      6F6820A6 
 690 0c9d 735BB8DB 		.ascii	"s[\270\333\240x\023\204\315\352\334\030\032'\257\306"
 690      A0781384 
 690      CDEADC18 
 690      1A27AFC6 
 691 0cad 535768BA 		.ascii	"SWh\272\212\334\313!_\016\311\367\203\377\021\256\241"
 691      8ADCCB21 
ARM GAS  /tmp/cc76wJM6.s 			page 55


 691      5F0EC9F7 
 691      83FF11AE 
 691      A1
 692 0cbe 59081263 		.ascii	"Y\010\022c.{~D@\3207\005\263'\002\231\360BM\372\310"
 692      2E7B7E44 
 692      40D03705 
 692      B3270299 
 692      F0424DFA 
 693 0cd3 8BE607AC 		.ascii	"\213\346\007\254\244\351\244\325\334\323liB\254J\235"
 693      A4E9A4D5 
 693      DCD36C69 
 693      42AC4A9D 
 694 0ce3 2B966FFC 		.ascii	"+\226o\374\201\246e\303g\011mQq\307j\272\220\345\232"
 694      81A665C3 
 694      67096D51 
 694      71C76ABA 
 694      90E59A
 695 0cf6 074D8B6C 		.ascii	"\007M\213l\032j:\277\342\010\254\256\256\203\255\203"
 695      1A6A3ABF 
 695      E208ACAE 
 695      AE83AD83 
 696 0d06 BF89C176 		.ascii	"\277\211\301v\244\016\326x\340\030\336r\242z\361:\370"
 696      A40ED678 
 696      E018DE72 
 696      A27AF13A 
 696      F8
 697 0d17 A17C80F2 		.ascii	"\241|\200\362s\2235~\243\241\373\375\211\314\000;\370"
 697      7393357E 
 697      A3A1FBFD 
 697      89CC003B 
 697      F8
 698 0d28 156ADF61 		.ascii	"\025j\337a\035\312X\354v\306Y\233D\001\372=ng\015gy"
 698      1DCA58EC 
 698      76C6599B 
 698      4401FA3D 
 698      6E670D67 
 699 0d3d CD670DE9 		.ascii	"\315g\015\351\"2\313zW\023N\374Sa\003\372\356\275\022"
 699      2232CB7A 
 699      57134EFC 
 699      536103FA 
 699      EEBD12
 700 0d50 6C7C3421 		.ascii	"l|4!\341\247\302\335l\342\026L&A\3604\206r.\213\302"
 700      E1A7C2DD 
 700      6CE2164C 
 700      2641F034 
 700      86722E8B 
 701 0d65 5479B9AF 		.ascii	"Ty\271\257\347\020\254G\323\225g^'\037\317\227\267\014"
 701      E710AC47 
 701      D395675E 
 701      271FCF97 
 701      B70C
 702 0d77 513F8989 		.ascii	"Q?\211\211\244]I\330\217u\211\252\232\013IcS\307\233"
 702      A45D49D8 
 702      8F7589AA 
 702      9A0B4963 
 702      53C79B
 703 0d8a 11B0FE91 		.ascii	"\021\260\376\221\352\252,\006\327\355\014\216\312\337"
ARM GAS  /tmp/cc76wJM6.s 			page 56


 703      EAAA2C06 
 703      D7ED0C8E 
 703      CADF
 704 0d98 146F851E 		.ascii	"\024o\205\036\357\2603\274j\2375^\223\036\357\2303\274"
 704      EFB033BC 
 704      6A9F355E 
 704      931EEF98 
 704      33BC
 705 0daa 23E9D678 		.ascii	"#\351\326x\233\364x'\234\3415\0161\301\323\016\024\363"
 705      9BF47827 
 705      9CE1350E 
 705      31C1D30E 
 705      14F3
 706 0dbc 20F636B4 		.ascii	" \3666\2647\210\352\252\005\240S\030\261\322%{v\346"
 706      3788EAAA 
 706      05A05318 
 706      B1D2257B 
 706      76E6
 707 0dce 00EFD9B8 		.ascii	"\000\357\331\270\365\305^n\341^]\213'\207\334Nn\016"
 707      F5C55E6E 
 707      E15E5D8B 
 707      2787DC4E 
 707      6E0E
 708 0de0 5B983920 		.ascii	"[\2309 \036$\341\202\206h\336frs\330\332\362\242\210"
 708      1E24E182 
 708      8668DE66 
 708      7273D8DA 
 708      F2A288
 709 0df3 D6EDEAE7 		.ascii	"\326\355\352\347\355u\237\034MLz\251\327\255\017.\263"
 709      ED759F1C 
 709      4D4C7AA9 
 709      D7AD0F2E 
 709      B3
 710 0e04 F0C1B359 		.ascii	"\360\301\263Y\224\026I\350M\235\021\355\220\204\257"
 710      941649E8 
 710      4D9D11ED 
 710      9084AF
 711 0e13 F9FEC684 		.ascii	"\371\376\306\204\374z\257\326\201\311\342\313\336;Y"
 711      FC7AAFD6 
 711      81C9E2CB 
 711      DE3B59
 712 0e22 762ECBE2 		.ascii	"v.\313\342+\364m\344\227\302.u\256\346\367h\004N\373"
 712      2BF46DE4 
 712      97C22E75 
 712      AEE6F768 
 712      044EFB
 713 0e35 18141B20 		.ascii	"\030\024\033 \004h\261\200\271y\255\367G\326\230z\231"
 713      0468B180 
 713      B979ADF7 
 713      47D6987A 
 713      99
 714 0e46 90AF2EDF 		.ascii	"\220\257.\337\004\215|\261\371f\010\007\023\010\344"
 714      048D7CB1 
 714      F9660807 
 714      1308E4
 715 0e55 23209DBE 		.ascii	"# \235\276&_\200\020\275tK\014\351\344c/?R]\256\242"
 715      265F8010 
ARM GAS  /tmp/cc76wJM6.s 			page 57


 715      BD744B0C 
 715      E9E4632F 
 715      3F525DAE 
 716 0e6a 0122FB0E 		.ascii	"\001\"\373\016u#y\367\276\336\313w\357\247\244\344\335"
 716      752379F7 
 716      BEDECB77 
 716      EFA7A4E4 
 716      DD
 717 0e7b 3B198FAC 		.ascii	";\031\217\254\363\016\356\336\015O\214\335\273W\337"
 717      F30EEEDE 
 717      0D4F8CDD 
 717      BB57DF
 718 0e8a BDBB10CA 		.ascii	"\275\273\020\312<S\305g\244\246\361y\337\252\306\347"
 718      3C53C567 
 718      A4A6F179 
 718      DFAAC6E7 
 719 0e9a 7D638DCF 		.ascii	"}c\215\317K]\343M\350\315\242\377\236m\025\350\315B"
 719      4B5DE34D 
 719      E8CDA2FF 
 719      9E6D15E8 
 719      CD42
 720 0eac BD3A200E 		.ascii	"\275: \016xX\220h\033\246\015\237bv\233\257\350\013"
 720      78589068 
 720      1BA60D9F 
 720      62769BAF 
 720      E80B
 721 0ebe 8E49504B 		.ascii	"\216IPK \0316^\311\342N\032]\006\037\262X\347\2258,"
 721      2019365E 
 721      C9E24E1A 
 721      5D061FB2 
 721      58E79538 
 722 0ed3 728F1E24 		.ascii	"r\217\036$.\307\373\333\007\336\027k\325\3066\210n0"
 722      2EC7FBDB 
 722      07DE176B 
 722      D5C63688 
 722      6E30
 723 0ee5 9CB8C36C 		.ascii	"\234\270\303lA\227\207Q\211\226\315i\237\334.\256\242"
 723      41978751 
 723      8996CD69 
 723      9FDC2EAE 
 723      A2
 724 0ef6 4B4D9B71 		.ascii	"KM\233qp\035\340\306MI\201\340\205{\030\252\262\233"
 724      701DE0C6 
 724      4D4981E0 
 724      857B18AA 
 724      B29B
 725 0f08 EFF4FBE7 		.ascii	"\357\364\373\347\277_I\227\314\355v\324\3537\034\262"
 725      BF5F4997 
 725      CCED76D4 
 725      EB371CB2 
 726 0f18 DCB01BD7 		.ascii	"\334\260\033\327\026\243\375@G{\353\301S\224\3666L\373"
 726      16A3FD40 
 726      477BEBC1 
 726      5394F636 
 726      4CFB
 727 0f2a 9F8725A5 		.ascii	"\237\207%\245\335\010$\011\253q\225\366\301\264w\317"
 727      DD082409 
ARM GAS  /tmp/cc76wJM6.s 			page 58


 727      AB7195F6 
 727      C1B477CF 
 728 0f3a 66DB031D 		.ascii	"f\333\003\035\321~\240\313\270\260\262I\3035\033\260"
 728      D17EA0CB 
 728      B8B0B249 
 728      C3351BB0 
 729 0f4a 26EBA12A 		.ascii	"&\353\241*b\335d_\024Y=\266\215\007K\272\310\305H\334"
 729      62DD645F 
 729      14593DB6 
 729      8D074BBA 
 729      C8C548DC 
 730 0f5e 1102D68E 		.ascii	"\021\002\326\216)\333\351\032,\307@\331\311Z\343\246"
 730      29DBE91A 
 730      2CC740D9 
 730      C95AE3A6 
 731 0f6e DEF79DE0 		.ascii	"\336\367\235\340\331,\232\351\355\322\355[\332\347\032"
 731      D92C9AE9 
 731      EDD2ED5B 
 731      DAE71A
 732 0f7d CC48DC57 		.ascii	"\314H\334Wz\260\203N\300\314\026\315\230\035z#\201("
 732      7AB0834E 
 732      C0CC16CD 
 732      981D7A23 
 732      8128
 733 0f8f E945AFCA 		.ascii	"\351E\257\312\037z\321\312\201N|\356\302\347n|>"
 733      1F7AD1CA 
 733      814E7CEE 
 733      C2E76E7C 
 733      3E
 734 0fa0 84CF4774 		.ascii	"\204\317GtQ\010\2509\251y\211\251)&\037\264l\261v\217"
 734      5108A839 
 734      A97989A9 
 734      29261FB4 
 734      6CB1768F 
 735 0fb4 6758F52C 		.ascii	"gX\365,\235w\314\351)\027+\261\011\177\204\275\243'"
 735      9D77CCE9 
 735      29172BB1 
 735      097F84BD 
 735      A327
 736 0fc6 B9771870 		.ascii	"\271w\030p$\341:\256qr\220s\264\337\234E\235\343\244"
 736      24E13AAE 
 736      71729073 
 736      B4DF9C45 
 736      9DE3A4
 737 0fd9 03E7A888 		.ascii	"\003\347\250\210\365/r\270\235]\223\310\355:>Z?f\373"
 737      F52F72B8 
 737      9D5D93C8 
 737      ED3A3E5A 
 737      3F66FB
 738 0fec F2CF603E 		.ascii	"\362\317`>j\263\223\362a\004\002/\307U\316\016f\344"
 738      6AB393F2 
 738      6104022F 
 738      C755CE0E 
 738      66E4
 739 0ffe 0263     		.ascii	"\002c"
 740 1000 E4AC2346 		.ascii	"\344\254#F\336^\304l\377\264\027Y\330f\015\327\306\302"
 740      DE5EC46C 
ARM GAS  /tmp/cc76wJM6.s 			page 59


 740      FFB41759 
 740      D8660DD7 
 740      C6C2
 741 1012 2C555A11 		.ascii	",UZ\021\373k\0076W\002\266\3355\230\321\366wt\324\217"
 741      FB6B0736 
 741      5702B6DD 
 741      3598D1F6 
 741      7774D48F 
 742 1026 561B9B45 		.ascii	"V\033\233E\266|b\027\217gX\342\220,jT\304\336\355\340"
 742      B67C6217 
 742      8F6758E2 
 742      902C6A54 
 742      C4DEEDE0 
 743 103a F7003A9F 		.ascii	"\367\000:\237l\351\363\246\260vD3\334\217\312\351\234"
 743      6CE9F3A6 
 743      B0764433 
 743      DC8FCAE9 
 743      9C
 744 104b C0652C98 		.ascii	"\300e,\230\0178\205\363S\334^\3535`_y\255\327\200q\317"
 744      0F3885F3 
 744      53DC5EEB 
 744      35605F79 
 744      ADD78071 
 745 1060 205E3851 		.ascii	" ^8Q\200\335\236\316\366/^a\313~\361\352\205\023N\000"
 745      80DD9ECE 
 745      F62F5E61 
 745      CB7EF1EA 
 745      85134E00 
 746 1074 CD42A3D9 		.ascii	"\315B\243\331\241\267_Y\374\024\007\240\3638\320|\216"
 746      A1B75F59 
 746      FC1407A0 
 746      F338D07C 
 746      8E
 747 1085 CF17F1B9 		.ascii	"\317\027\361\271\027\237\257\352C\217\225l\220\325i"
 747      179FAFEA 
 747      438F956C 
 747      90D569
 748 1094 D89FE151 		.ascii	"\330\237\341Q\306\311\224-\371F\302\222e\361\202k0\203"
 748      C6C9942D 
 748      F946C292 
 748      65F1826B 
 748      3083
 749 10a6 2063355D 		.ascii	" c5]zK\226\305K<\236KKn\252\315\352|\206\271\305\231"
 749      7A4B96C5 
 749      4B3C9E4B 
 749      4B6EAACD 
 749      EA7C86B9 
 750 10bc 6CD125D8 		.ascii	"l\321%\330p;\245\234\324)\345\024V\312'X\005\327\360"
 750      703BA59C 
 750      D429E514 
 750      56CA2758 
 750      05D7F0
 751 10cf F93A3EDF 		.ascii	"\371:>\3370\366\004\275\331\\O`\010\273f\375\222^<j"
 751      30F604BD 
 751      D95C4F60 
 751      08BB66FD 
 751      925E3C6A 
ARM GAS  /tmp/cc76wJM6.s 			page 60


 752 10e3 EC9D4320 		.ascii	"\354\235C k\347\273g\316\262\3353\252\017\205\317\257"
 752      6BE7BB67 
 752      CEB2DD33 
 752      AA0F85CF 
 752      AF
 753 10f4 CDC3A7DD 		.ascii	"\315\303\247\335\356\231\252\341\250\312,\337\240AR"
 753      EE99AAE1 
 753      A8CA2CDF 
 753      A04152
 754 1103 0F1B24A1 		.ascii	"\017\033$\241gI\302\347\354Y\261-\213_M\364\003\263"
 754      6749C2E7 
 754      EC59B12D 
 754      8B5F4DF4 
 754      03B3
 755 1115 3407EEB5 		.ascii	"4\007\356\265\371Fe\330\256\373\262F\207K#5W]\202!Y"
 755      F94665D8 
 755      AEFBB246 
 755      874B2335 
 755      575D8221 
 756 112a ACF421D5 		.ascii	"\254\364!\325U\371\014\212j\034\316)\312\254=\233\335"
 756      55F90C8A 
 756      6A1CCE29 
 756      CAAC3D9B 
 756      DD
 757 113b 31870F91 		.ascii	"1\207\017\221U\267Nu\265\364\225\276\373\361z\263\371"
 757      55B74E75 
 757      B5F495BE 
 757      FBF17AB3 
 757      F9
 758 114c 58538787 		.ascii	"XS\207\207\273\324\024bj!\247\245\330\225P\016\271\233"
 758      BBD41462 
 758      6A21A7A5 
 758      D895500E 
 758      B99B
 759 115e BC7BBBDE 		.ascii	"\274{\273\336\203w\231\270\331\250\326\3126\252\325"
 759      837799B8 
 759      D9A8D6CA 
 759      36AAD5
 760 116d F890039D 		.ascii	"\370\220\003\235\343HNq\243Z/\206Y\370m)z\241N\321\213"
 760      E3484E71 
 760      A35A2F86 
 760      59F86D29 
 760      7AA14ED1 
 761 1182 B0A2AB8D 		.ascii	"\260\242\253\215\212\376\332\265\242s\354\332\333\255"
 761      8AFEDAB5 
 761      A273ECDA 
 761      DBAD
 762 1190 8B092D38 		.ascii	"\213\011-8&\264\3428p\034\237\007\360y\236\221\202k"
 762      26B4E238 
 762      701C9F07 
 762      F0799E91 
 762      826B
 763 11a2 9AE04C5F 		.ascii	"\232\340L_\262\360\264\215\317\360\322\327\210\336T"
 763      B2F0B48D 
 763      CFF0D2D7 
 763      88DE54
 764 11b1 3FBD6783 		.ascii	"?\275g\203\351\233\252\341\223\241q4\204\240\226\370"
ARM GAS  /tmp/cc76wJM6.s 			page 61


 764      E99BAAE1 
 764      93A17134 
 764      84A096F8 
 765 11c1 46D01C5B 		.ascii	"F\320\034[_\012$\334\344I\030\\o\251\221\204\246X|\345"
 765      5F0A24DC 
 765      E449185C 
 765      6FA99184 
 765      A6587CE5 
 766 11d5 6B977FBE 		.ascii	"k\227\177\276\017:\353$/\313\314t\301Tl\366^U\216\020"
 766      0F3AEB24 
 766      2FCBCC74 
 766      C1546CF6 
 766      5E558E10 
 767 11e9 4DDF370D 		.ascii	"M\3377\015\305dq\205\017u\007+\371p\264|\373Q\266Ek"
 767      C5647185 
 767      0F75072B 
 767      F970B47C 
 767      FB51B645 
 768 11fe A52373EF 		.ascii	"\245#s\357\277\331F6U]\302\257\013\013G\210\0246\265"
 768      BFD94636 
 768      555DC2AF 
 768      0B0B4788 
 768      1436B5
 769 1211 2EF0FAA7 		.ascii	".\360\372\247\030\216\033\235\240\357\222V\276\272\306"
 769      188E1B9D 
 769      A0EF9256 
 769      BEBAC6
 770 1220 A70B6E8B 		.ascii	"\247\013n\213]7\237ch\376F\010\215;\020\244$,u\202\225"
 770      5D379F63 
 770      68FE4608 
 770      8D3B10A4 
 770      242C7582 
 771 1235 647F18C3 		.ascii	"d\177\030\303Z\355\032\213\367\015\246\007Y\\\345C\246"
 771      5AED1A8B 
 771      F70DA607 
 771      595CE543 
 771      A6
 772 1246 FF0A3EBF 		.ascii	"\377\012>\277\212\317\353|IG*\234@\033,(A\370\033|\231"
 772      8ACFEB7C 
 772      49472A9C 
 772      401B2C28 
 772      41F81B7C 
 773 125b 5CDB663D 		.ascii	"\\\333f=\254q\"\006\3251/%\213\257\371\334\316\372\376"
 773      AC712206 
 773      D5312F25 
 773      8BAFF9DC 
 773      CEFAFE
 774 126e C5673EEB 		.ascii	"\305g>\353\253\377~\230(\005\2677\214\340\274n\020\021"
 774      ABFF7E98 
 774      2805B737 
 774      8CE0BC6E 
 774      1011
 775 1280 AFFBF4B3 		.ascii	"\257\373\364\263\211\240\227\345@\225\24664\263\265"
 775      89A097E5 
 775      4095A636 
 775      34B3B5
 776 128f 04CDD736 		.ascii	"\004\315\3276?\350!\314 \317\354\355\214\035\237\327"
ARM GAS  /tmp/cc76wJM6.s 			page 62


 776      3FE821CC 
 776      20CFECED 
 776      8C1D9FD7 
 777 129f 00AF8BE0 		.ascii	"\000\257\213\340\232\267\006\006D\"6I\330\306\267f\364"
 777      9AB70606 
 777      44223649 
 777      D8C6B766 
 777      F4
 778 12b0 2DD4DC46 		.ascii	"-\324\334Fh\356\207\302\356\021\015j\206\256\331I\004"
 778      68EE87C2 
 778      EE110D6A 
 778      86AED949 
 778      04
 779 12c1 81A890B4 		.ascii	"\201\250\220\264\031;\261Wt\262\012~\235\326\304H\332"
 779      193BB157 
 779      74B20A7E 
 779      9DD6C448 
 779      DA
 780 12d2 C45BAEC5 		.ascii	"\304[\256\305\272\325B\254\267\333Z\216,nI\030\304\017"
 780      BAD542AC 
 780      B7DB5A8E 
 780      2C6E4918 
 780      C40F
 781 12e4 8523C0D3 		.ascii	"\205#\300\323\222I\211\346\211%\"f\346\252\261\217\207"
 781      924989E6 
 781      89252266 
 781      E6AAB18F 
 781      87
 782 12f5 1083D756 		.ascii	"\020\203\327V\274\022\013Ex\304M\211\255\322\322}Zi"
 782      BC120B45 
 782      78C44D89 
 782      ADD2D27D 
 782      5A69
 783 1307 FD6A4E4A 		.ascii	"\375jNJ\205\310\004\324\225m\320H\335\"\023\215\\L\256"
 783      85C804D4 
 783      956DD048 
 783      DD22138D 
 783      5C4CAE
 784 131a 911D0603 		.ascii	"\221\035\006\0030\323\304\322\016G\232h\322\240\331"
 784      30D3C4D2 
 784      0E479A68 
 784      D2A0D9
 785 1329 32D166D7 		.ascii	"2\321f\327\232x\317B\023#\223h\"\246\327\3045\252\211"
 785      9A78CF42 
 785      13239368 
 785      22A6D7C4 
 785      35AA89
 786 133c 66334D2C 		.ascii	"f3M,\313f\262\255t\240\211\025Z\351\305\2035Af\346Y"
 786      CB66B2AD 
 786      74A08915 
 786      5AE9C583 
 786      354166E6 
 787 1351 54E00249 		.ascii	"T\340\002I\235Mdn\361\231o\237\000exGX\326j\265\254"
 787      9D4D646E 
 787      F1996F9F 
 787      00657847 
 787      58D66AB5 
ARM GAS  /tmp/cc76wJM6.s 			page 63


 788 1366 556FD356 		.ascii	"Uo\323V\233e\25556\265\366X\326\332`Sko\242\026\265"
 788      9B65AD35 
 788      36B5F658 
 788      D6DA6053 
 788      6B6FA216 
 789 137b 91C6499C 		.ascii	"\221\306I\234\221\030^\207\360\274\227k\033\371\300"
 789      91185E87 
 789      F0BC976B 
 789      1BF9C0
 790 138a C2464463 		.ascii	"\302FDc\323\274yNd\345\322)\316>\327-\177h\321r\232"
 790      D3BC794E 
 790      64E5D229 
 790      CE3ED72D 
 790      7F68D172 
 791 139f B9A836D9 		.ascii	"\271\2506\331\210\252\303R\300[mjuZ\326\332iSk\277e"
 791      88AAC352 
 791      C05B6D6A 
 791      755AD6DA 
 791      69536BBF 
 792 13b4 AD5D36B5 		.ascii	"\255]6\265\272,k\355\261\251u\300\262V\247M\255n\313"
 792      BA2C6BED 
 792      B1A975C0 
 792      B256A74D 
 792      AD6ECB
 793 13c7 5ACD16A3 		.ascii	"Z\315\026\243f\374\351\305\262V\267M[\207,k-\361Y;\337"
 793      66FCE9C5 
 793      B256B74D 
 793      5B872C6B 
 793      2DF1593B 
 794 13dc E1442DB2 		.ascii	"\341D-\262X=\276\366\374y\011m.E_\357\356t\261\274\353"
 794      583DBEF6 
 794      FC79096D 
 794      2E455FEF 
 794      EE74B1BC 
 795 13f1 A82FF9E2 		.ascii	"\250/\371\342\276\232\333L\367\205\274\215v\324\254"
 795      BE9ADB4C 
 795      F785BC8D 
 795      76D4AC
 796 1400 C2C3C9A5 		.ascii	"\302\303\311\245\270\304\021\237\325\306\020\2729\216"
 796      B8C4119F 
 796      D5C610BA 
 796      398E
 797 140e AE963F6E 		.ascii	"\256\226?n\330\031bU\213\022x\334gX\216D\331m8}\371"
 797      D8196255 
 797      8B1278DC 
 797      67588E44 
 797      D96D387D 
 798 1423 DFDE407F 		.ascii	"\337\336@\177\265\207V\304\225\317\376\005\307q\314"
 798      B58756C4 
 798      95CFFE05 
 798      C771CC
 799 1432 E62D3BEE 		.ascii	"\346-;\356\033\274o\240\201\343\220\222Z\241nZ\247\372"
 799      1BBC6FA0 
 799      81E39092 
 799      5AA16E5A 
 799      A7FA
 800 1444 D94A4259 		.ascii	"\331JBY<iO\352)3Rc\207\273\352\351&\226\235\352\235"
ARM GAS  /tmp/cc76wJM6.s 			page 64


 800      3C694FEA 
 800      29335263 
 800      87BBEAE9 
 800      26969DEA 
 801 1459 192E163B 		.ascii	"\031.\026;\2361!\364\015{B\337\024I\237q\332\236\320"
 801      9E3121F4 
 801      0D7B42DF 
 801      14499F71 
 801      DA9ED0
 802 146c 1E23A19C 		.ascii	"\036#\241\234\341\275`c\256g\007\031\336\373;?\321\014"
 802      E1BD6063 
 802      AE670719 
 802      DEFB3B3F 
 802      D10C
 803 147e 6FD57017 		.ascii	"o\325p\027\353z?u`y;\314-o'\263<Y<\201\337\217\3169"
 803      EB7A3F75 
 803      60793BCC 
 803      2D6F27B3 
 803      3C593C81 
 804 1496 B2BC0AF5 		.ascii	"\262\274\012\365\350Gh/\027YRm\250eX\035H\011\374\314"
 804      E847682F 
 804      1759526D 
 804      A865581D 
 804      4809FCCC 
 805 14aa 564AA76C 		.ascii	"VJ\247l\244t\321\322\251{lj]\262\254u\321\246V/\257"
 805      A474D1D2 
 805      A97B6C6A 
 805      5DB2AC75 
 805      D1A6562F 
 806 14bf 9158F531 		.ascii	"\221X\3651\262=ie\254\23277;}\364\361\3720Y3\270\307"
 806      B23D6965 
 806      AC9A3737 
 806      3B7DF4F1 
 806      FA305933 
 807 14d5 5C1F0790 		.ascii	"\\\037\007\220>\342xo\335!\\\342\262\245>\342\222\265"
 807      3EE2786F 
 807      DD215CE2 
 807      B2A53EE2 
 807      92B5
 808 14e7 3E2EDBEB 		.ascii	">.\333\353\343\013S\367\032x\271\316\332\275\354\326"
 808      E30B53F7 
 808      1A78B9CE 
 808      DABDECD6 
 809 14f7 93F63BE0 		.ascii	"\223\366;\340\367\2309\277\207\031\277\262\370\025\266"
 809      F79839BF 
 809      8719BFB2 
 809      F815B6
 810 1506 BFAB0EF9 		.ascii	"\277\253\016\371=\201#_\033\333\265g\357\245\327m\355"
 810      3D81235F 
 810      1BDBB567 
 810      EFA5D76D 
 810      ED
 811 1517 AFDAC626 		.ascii	"\257\332\306&n\015\262\211\206\343/'\244\344f\371\257"
 811      6E0DB289 
 811      86E32F27 
 811      A4E466F9 
 811      AF
ARM GAS  /tmp/cc76wJM6.s 			page 65


 812 1528 9AE66037 		.ascii	"\232\346`7\014'\265\263\346R\333\316Km\300^j\264\332"
 812      0C27B5B3 
 812      E652DBCE 
 812      4B6DC05E 
 812      6AB4DA
 813 153b 97FF359A 		.ascii	"\227\3775\232\375\355\337%\014<`a&\0329\246\335\214"
 813      FDEDDF25 
 813      0C3C6061 
 813      261A39A6 
 813      DD8C
 814 154d 556394CF 		.ascii	"Uc\224\317Yi\306\177\030\277/7\277\2700\224\033,\316"
 814      5969C67F 
 814      18BF2F37 
 814      BFB83094 
 814      1B2CCE
 815 1560 9B999B17 		.ascii	"\233\231\233\027z.7\230\037\236\032.\216\346*\221\262"
 815      7A2E3798 
 815      1F9E1A2E 
 815      8EE62A91 
 815      B2
 816 1571 A2677321 		.ascii	"\242gs!\023Qr\303E\301\202\262<(\224_Z\026*\013E\307"
 816      135172C3 
 816      45C182B2 
 816      3C28945F 
 816      5A162A0B 
 817 1587 E40B43C3 		.ascii	"\344\013C\303E%eJ\000_\007\224\264G\177\375\273\234"
 817      4525654A 
 817      005F0794 
 817      B4477FFD 
 817      BB9C
 818 1599 878521E1 		.ascii	"\207\205!\341bv'\203e'\272\302\217\316\214*3Kp\013\331"
 818      62762783 
 818      6527BAC2 
 818      8FCE8C2A 
 818      334B700B 
 819 15ae 4A7E2424 		.ascii	"J~$$\347E\031\342\360`~\300pk\202;\344`~\036\240f\020"
 819      E74519E2 
 819      F0607EC0 
 819      706B823B 
 819      E4607E1E 
 820 15c5 8880E2D7 		.ascii	"\210\200\342\327\340\322J\002E\241\031\012\374\224D"
 820      E0D24A02 
 820      45A1190A 
 820      FC9444
 821 15d4 42CF3DE6 		.ascii	"B\317=\346\000\265\2448\242Ds\177\361\233\307\037~|"
 821      00B5A438 
 821      A244737F 
 821      F19BC71F 
 821      7E7C
 822 15e6 06942C2C 		.ascii	"\006\224,,\011\027\204\"\321\334G\037~\030\2123\372"
 822      09178422 
 822      D1DC471F 
 822      7E188A33 
 822      FA
 823 15f7 D3959208 		.ascii	"\323\225\222\010\010A\371qnY4\222+G\012\177VT\\\024"
 823      0841F971 
 823      6E593492 
ARM GAS  /tmp/cc76wJM6.s 			page 66


 823      2B470A7F 
 823      56545C14 
 824 160b FA59489E 		.ascii	"\372YH\236\032\326\310\212*y\341\"\005\221U\006\277"
 824      1AD6C88A 
 824      2A79E122 
 824      05915506 
 824      BF
 825 161c F78E0F28 		.ascii	"\367\216\017(\023lJ\027\312@LQ(7\220\027\232&\227\025"
 825      136C4A17 
 825      CA404C51 
 825      28379017 
 825      9A269715 
 826 1630 2801D6D4 		.ascii	"(\001\326\324\220@\200\325\307\\\204\213\323\203\305"
 826      904080D5 
 826      C75C848B 
 826      D383C5
 827 163f 450A30F5 		.ascii	"E\0120\365\200kn\362\203\305\221\020`f\242\333\001@"
 827      806B6EF2 
 827      83C59110 
 827      6066A2DB 
 827      0140
 828 1651 0D2A337E 		.ascii	"\015*3~\236\032J\340\271\373\013\021o\221\320t`(\240"
 828      9E1A4AE0 
 828      B9FB0B11 
 828      6F91D074 
 828      6028A0
 829 1664 48910952 		.ascii	"H\221\011R\344\237\244\310}R\344~)2Q\212<\340\211\214"
 829      E49FA4C8 
 829      7D52E47E 
 829      2932518A 
 829      3CE0898C 
 830 1678 1B0B699C 		.ascii	"\033\013i\234T\020\201\237{}%\001h-\035\351\343\371"
 830      5410819F 
 830      7B7D2501 
 830      682D1DE9 
 830      E3F9
 831 168a 50047E8B 		.ascii	"P\004~\213\013\362B\021o0_\216 %\311\205\241\014%\252"
 831      0BF24211 
 831      6F305F8E 
 831      2025C985 
 831      A10C25AA 
 832 169e C80A5843 		.ascii	"\310\012XC:bx\"\250\221\260\0169(\216\237\245+\205\305"
 832      3A627822 
 832      A891B00E 
 832      39288E9F 
 832      A52B85C5 
 833 16b2 79217C3D 		.ascii	"y!|=\255@\236\036MW\"\241iQ,\031\224\361\025F\247\303"
 833      AD409E1E 
 833      4D5722A1 
 833      69512C19 
 833      94F11546 
 834 16c8 432A2EA8 		.ascii	"C*.\250\316\004\027\311\233\011\2172B3\302\0120\032"
 834      CE0417C9 
 834      9B098F32 
 834      4233C20A 
 834      301A
 835 16da 4A7B5E29 		.ascii	"J{^)\236\372\207\222\314\320s\241\"\245P\216>\013EB"
ARM GAS  /tmp/cc76wJM6.s 			page 67


 835      9EFA8792 
 835      CCD073A1 
 835      22A5508E 
 835      3E0B4542 
 836 16ee CFA38CA7 		.ascii	"\317\243\214\247$P6\214YbA8\012z\310\326\331&\272\343"
 836      2450368C 
 836      59624138 
 836      0A7AC8D6 
 836      D926BAE3 
 837 1702 2F093C2F 		.ascii	"/\011</\207\225p\321\364!%\001@\305\366\352\303Y\270"
 837      879570D1 
 837      F4212501 
 837      40C5F6EA 
 837      C359B8
 838 1715 112A0915 		.ascii	"\021*\011\025\201\336\247\373\012\313@G\367\2722\343"
 838      81DEA7FB 
 838      0ACB4047 
 838      F7BA32E3 
 839 1725 426506B2 		.ascii	"Be\006\262\255B\342\002\360[\374|\021\210\012#\001\205"
 839      AD42E202 
 839      F05BFC7C 
 839      11880A23 
 839      0185
 840 1737 85D894A1 		.ascii	"\205\330\224\241y(\207\010\031\202\230\226\013\260I"
 840      79288708 
 840      19829896 
 840      0BB049
 841 1746 C0CD92E2 		.ascii	"\300\315\222\342\342\002\177)\243m<\266\265\202\360"
 841      E2027F29 
 841      A36D3CB6 
 841      B582F0
 842 1755 D4DCE9C1 		.ascii	"\324\334\351\301 gs\023\306L\0343Ao\247`s\320pZ4\374"
 842      20677313 
 842      C64C1C33 
 842      416FA760 
 842      73D0705A 
 843 176b DF205BC0 		.ascii	"\337 [\300\010\026\227\201\205E2J\003S\313\246M\013"
 843      08169781 
 843      8545324A 
 843      0353CBA6 
 843      4D0B
 844 177d 457CA501 		.ascii	"E|\245\001\245\270$\035\300#%J\004~#y\360\353/-*V\302"
 844      A5B8241D 
 844      C023254A 
 844      047E2379 
 844      F0EB2F2D 
 845 1794 D3664240 		.ascii	"\323fB@(\015\220lZ)\210\250\350\331a\305e\212.\202\370"
 845      280D906C 
 845      5A2988A8 
 845      E8D961C5 
 845      658A2E82 
 846 17a9 91E7870B 		.ascii	"\221\347\207\013Q\344@\372\034w_@\241V\215\262\343m"
 846      51E440FA 
 846      1C775F40 
 846      A1568DB2 
 846      E36D
 847 17bb 65A484A2 		.ascii	"e\244\204\242\012\222\022\372\245\001*(\244\221\326"
ARM GAS  /tmp/cc76wJM6.s 			page 68


 847      0A9212FA 
 847      A5012A28 
 847      A491D6
 848 17ca A4D29274 		.ascii	"\244\322\222t\242\231"
 848      A299
 849 17d0 7122CB8D 		.ascii	"q\"\313\215\037JJ\215\013DCJY\011\275\032O\256F\261"
 849      1F4A4A8D 
 849      0B44434A 
 849      5909BD1A 
 849      4FAE46B1 
 850 17e4 67A119A1 		.ascii	"g\241\031\241 HuL\211\034Q\306\334\233\315\335\036\305"
 850      2048754C 
 850      891C51C6 
 850      DC9BCDDD 
 850      1EC5
 851 17f6 2A198A4D 		.ascii	"*\031\212M\310\346n\017\013\346O~\352\321\2202\005X"
 851      C8E66E0F 
 851      0BE64F7E 
 851      EAD19032 
 851      0558
 852 1808 0386F1E5 		.ascii	"\003\206\361\345\023S\377\020\012*\223\213\302\350\362"
 852      1353FF10 
 852      0A2A938B 
 852      C2E8F2
 853 1817 89A79E2C 		.ascii	"\211\247\236,\323=}B\3674\003\025\206\247\223\357q\314"
 853      D33D7D42 
 853      F7340315 
 853      86A793EF 
 853      71CC
 854 1829 3D68C817 		.ascii	"=h\310\027\370WPrV\000]\006\344h4\024Q\262q>T\030\006"
 854      F8575072 
 854      56005D06 
 854      E4683414 
 854      51B2713E 
 855 1840 4B2D7E36 		.ascii	"K-~6T4R\377\020\270\006\232\213\202\241l\324\334o@<"
 855      543452FF 
 855      10B8069A 
 855      8B82A16C 
 855      D4DC6F40 
 856 1855 949A21E4 		.ascii	"\224\232!\344\032\2042\371~W&J\035\001\207\300ieE\301"
 856      1A8432F9 
 856      7E57264A 
 856      1D0187C0 
 856      696545C1 
 857 1869 80322298 		.ascii	"\2002\"\230?%?\357a\270\255\204~\013>\032\016\216\300"
 857      3F253FEF 
 857      61B8AD84 
 857      7E0B3E1A 
 857      0E8EC0
 858 187c 14203B64 		.ascii	"\024 ;d~\223\201\230\007IM\036\2162\377\021\011+\241"
 858      7E938198 
 858      07494D1E 
 858      8E32FF11 
 858      092BA1
 859 188f 04214F50 		.ascii	"\004!OPB\244p\351\220\250\362\254\\\020\236^D-\345\276"
 859      42A470E9 
 859      90A8F2AC 
ARM GAS  /tmp/cc76wJM6.s 			page 69


 859      5C109E5E 
 859      442DE5BE 
 860 18a3 099AA5A0 		.ascii	"\011\232\245\240\2544e\2544e\2344e\2744\345^i\312\204"
 860      AC3465AC 
 860      34659C34 
 860      65BC34E5 
 860      5E69CA84 
 861 18b7 2CDC0EB1 		.ascii	",\334\016\261\320\250\364\274\234F\262^t[*.\315\004"
 861      D0A8F4BC 
 861      9C46B25E 
 861      745B2A2E 
 861      CD04
 862 18c9 BF458617 		.ascii	"\277E\206\027*$\035\002\311g!\202fR\327\036\012\267"
 862      2A241D02 
 862      C9672182 
 862      6652D71E 
 862      0AB7
 863 18db 13D7E911 		.ascii	"\023\327\351\021b\260i\021\034f}\021\034\260\"4`EH\300"
 863      62B06911 
 863      1C667D11 
 863      1CB02234 
 863      604548C0 
 864 18ef F2C3DDB2 		.ascii	"\362\303\335\262H\004\342\206/\202*\215|.\034Q\312\344"
 864      4804E286 
 864      2F822A8D 
 864      7C2E1C51 
 864      CAE4
 865 1901 820032F0 		.ascii	"\202\0002\360\010\213\031\243\000\330\344A\266\341\036"
 865      088B19A3 
 865      00D8E441 
 865      B6E11E
 866 1910 E9F60CB7 		.ascii	"\351\366\014\267\322\237S\260\223\243_\324ae\300o^\250"
 866      D29F53B0 
 866      93A35FD4 
 866      6165C06F 
 866      5EA8
 867 1922 40912143 		.ascii	"@\221!C\304\215\236\240\\\032*!G2\341\247@\216*\250"
 867      C48D9EA0 
 867      5C1A2A21 
 867      4732E1A7 
 867      408E2AA8 
 868 1936 36DC428D 		.ascii	"6\334B\215\014\243L\347\205\246\226M'\341K\177\307_"
 868      0CA34CE7 
 868      85A6964D 
 868      27E14B7F 
 868      C75F
 869 1948 22178583 		.ascii	"\"\027\205\203(Zy\362\246N\267w\276A\332G!\177\270R"
 869      285A79F2 
 869      A64EB777 
 869      BE41DA47 
 869      217FB852 
 870 195c 18088296 		.ascii	"\030\010\202\226\246F@\331\305\240\252\364\210\022,"
 870      A64640D9 
 870      C5A0AAF4 
 870      88122C
 871 196b 02A6D38A 		.ascii	"\002\246\323\212\247M\003EJJ\241\024\314Og\252G\332"
 871      A74D0345 
ARM GAS  /tmp/cc76wJM6.s 			page 70


 871      4A4AA114 
 871      CC4F67AA 
 871      47DA
 872 197d 08CAD190 		.ascii	"\010\312\321\220\027\205x\037vC\270'G\362 \270\245S"
 872      1785781F 
 872      7643B827 
 872      47F220B8 
 872      A553
 873 198f 4F1A5A22 		.ascii	"O\032Z\"+\020o\212\210\203e&|}\334\367\306D\212\363"
 873      2B106F8A 
 873      88836526 
 873      7C7DDCF7 
 873      C6448AF3 
 874 19a3 64451EA3 		.ascii	"dE\036\243\2737\362)\374{O\016\036\246\344\220\273\202"
 874      BB37F229 
 874      FC7B4F0E 
 874      1EA6E490 
 874      BB82
 875 19b5 AED6F851 		.ascii	"\256\326\370Q\254\004\211C\254H:uXO\270\264\204\230"
 875      AC048943 
 875      AC483A75 
 875      584FB8B4 
 875      8498
 876 19c7 2D5C3C09 		.ascii	"-\\<\011\252\006\203\234\371\364Pv\347\267\241\202i"
 876      AA06839C 
 876      F9F45076 
 876      E7B7A182 
 876      69
 877 19d8 4F67A2B2 		.ascii	"Og\242\262\223\243\217\224\025\024L\316BF:9\372\253"
 877      93A38F94 
 877      15144CCE 
 877      42463A39 
 877      FAAB
 878 19ea C21265E6 		.ascii	"\302\022e\346dOqiI\026\265g\3744\235:\2728\365\377\000"
 878      644F7169 
 878      4916B567 
 878      FC349D3A 
 878      BA38F5FF 
 879 19ff BCCB0A1F 		.ascii	"\274\313\012\037"
 880              		.text
 881              		.section	.gnu.lto_.symtab.5cf793ed88900310,"",%progbits
 882 0000 70617474 		.ascii	"patternqueues\000\000\000\000\000\000\000\000\000\000"
 882      65726E71 
 882      75657565 
 882      73000000 
 882      00000000 
 883 0017 00009A02 		.ascii	"\000\000\232\002\000\000testqueues1\000\000\000\000"
 883      00007465 
 883      73747175 
 883      65756573 
 883      31000000 
 884 002c 00000000 		.ascii	"\000\000\000\000\000\000\000\000\260\002\000\000tes"
 884      00000000 
 884      B0020000 
 884      746573
 885 003b 74717565 		.ascii	"tqueues2\000\000\000\000\000\000\000\000\000\000\000"
 885      75657332 
ARM GAS  /tmp/cc76wJM6.s 			page 71


 885      00000000 
 885      00000000 
 885      000000
 886 004e 00BC0200 		.ascii	"\000\274\002\000\000wa\000\000\002\000\000\000\000\000"
 886      00776100 
 886      00020000 
 886      000000
 887 005d 00000000 		.ascii	"\000\000\000\000<\002\000\000ch\000\000\002\000\000"
 887      3C020000 
 887      63680000 
 887      020000
 888 006c 00000000 		.ascii	"\000\000\000\000\000\000\000@\002\000\000threads\000"
 888      00000040 
 888      02000074 
 888      68726561 
 888      647300
 889 007f 00020000 		.ascii	"\000\002\000\000\000\000\000\000\000\000\000\227\002"
 889      00000000 
 889      00000097 
 889      02
 890 008c 00007465 		.ascii	"\000\000test\000\000\002\000\000\000\000\000\000\000"
 890      73740000 
 890      02000000 
 890      00000000 
 891 009c 00001202 		.ascii	"\000\000\022\002\000\000chIQGetTimeout\000\000\002\000"
 891      00006368 
 891      49514765 
 891      7454696D 
 891      656F7574 
 892 00b4 00000000 		.ascii	"\000\000\000\000\000\000\000\000\226\001\000\000chI"
 892      00000000 
 892      96010000 
 892      636849
 893 00c3 514F626A 		.ascii	"QObjectInit\000\000\002\000\000\000\000\000\000\000"
 893      65637449 
 893      6E697400 
 893      00020000 
 893      00000000 
 894 00d8 00009B01 		.ascii	"\000\000\233\001\000\000chOQPutTimeout\000\000\002\000"
 894      00006368 
 894      4F515075 
 894      7454696D 
 894      656F7574 
 895 00f0 00000000 		.ascii	"\000\000\000\000\000\000\000\000\243\001\000\000chO"
 895      00000000 
 895      A3010000 
 895      63684F
 896 00ff 514F626A 		.ascii	"QObjectInit\000\000\002\000\000\000\000\000\000\000"
 896      65637449 
 896      6E697400 
 896      00020000 
 896      00000000 
 897 0114 0000A901 		.ascii	"\000\000\251\001\000\000chIQPutI\000\000\002\000\000"
 897      00006368 
 897      49515075 
 897      74490000 
 897      020000
ARM GAS  /tmp/cc76wJM6.s 			page 72


 898 0127 00000000 		.ascii	"\000\000\000\000\000\000\000\261\001\000\000_test_a"
 898      000000B1 
 898      0100005F 
 898      74657374 
 898      5F61
 899 0139 73736572 		.ascii	"ssert\000\000\002\000\000\000\000\000\000\000\000\000"
 899      74000002 
 899      00000000 
 899      00000000 
 899      00
 900 014a B6010000 		.ascii	"\266\001\000\000test_emit_token\000\000\002\000\000"
 900      74657374 
 900      5F656D69 
 900      745F746F 
 900      6B656E00 
 901 0162 00000000 		.ascii	"\000\000\000\000\000\000\000\276\001\000\000_test_a"
 901      000000BE 
 901      0100005F 
 901      74657374 
 901      5F61
 902 0174 73736572 		.ascii	"ssert_sequence\000\000\002\000\000\000\000\000\000\000"
 902      745F7365 
 902      7175656E 
 902      63650000 
 902      02000000 
 903 018c 0000C201 		.ascii	"\000\000\302\001\000\000chIQReadTimeout\000\000\002"
 903      00006368 
 903      49515265 
 903      61645469 
 903      6D656F75 
 904 01a4 00000000 		.ascii	"\000\000\000\000\000\000\000\000\000\310\001\000\000"
 904      00000000 
 904      00C80100 
 904      00
 905 01b1 63684951 		.ascii	"chIQResetI\000\000\002\000\000\000\000\000\000\000\000"
 905      52657365 
 905      74490000 
 905      02000000 
 905      00000000 
 906 01c6 00CF0100 		.ascii	"\000\317\001\000\000chThdCreateStatic\000\000\002\000"
 906      00636854 
 906      68644372 
 906      65617465 
 906      53746174 
 907 01e0 00000000 		.ascii	"\000\000\000\000\000\000\000\000\323\001\000\000tes"
 907      00000000 
 907      D3010000 
 907      746573
 908 01ef 745F7761 		.ascii	"t_wait_threads\000\000\002\000\000\000\000\000\000\000"
 908      69745F74 
 908      68726561 
 908      64730000 
 908      02000000 
 909 0207 0000DE01 		.ascii	"\000\000\336\001\000\000chOQGetI\000\000\002\000\000"
 909      00006368 
 909      4F514765 
 909      74490000 
ARM GAS  /tmp/cc76wJM6.s 			page 73


 909      020000
 910 021a 00000000 		.ascii	"\000\000\000\000\000\000\000\340\001\000\000chOQWri"
 910      000000E0 
 910      01000063 
 910      684F5157 
 910      7269
 911 022c 74655469 		.ascii	"teTimeout\000\000\002\000\000\000\000\000\000\000\000"
 911      6D656F75 
 911      74000002 
 911      00000000 
 911      00000000 
 912 0240 00E40100 		.ascii	"\000\344\001\000\000chOQResetI\000\000\002\000\000\000"
 912      0063684F 
 912      51526573 
 912      65744900 
 912      00020000 
 913 0255 00000000 		.ascii	"\000\000\000\000\000\000\355\001\000\000"
 913      0000ED01 
 913      0000
 914              		.text
 915              		.section	.gnu.lto_.opts,"",%progbits
 916 0000 272D6D63 		.ascii	"'-mcpu=cortex-m3' '-mno-thumb-interwork' '-mthumb' "
 916      70753D63 
 916      6F727465 
 916      782D6D33 
 916      2720272D 
 917 0033 272D4F32 		.ascii	"'-O2' '-fomit-frame-pointer' '-falign-functions=16'"
 917      2720272D 
 917      666F6D69 
 917      742D6672 
 917      616D652D 
 918 0066 20272D66 		.ascii	" '-ffunction-sections' '-fdata-sections' '-fno-comm"
 918      66756E63 
 918      74696F6E 
 918      2D736563 
 918      74696F6E 
 919 0099 6F6E2720 		.ascii	"on' '-flto'\000"
 919      272D666C 
 919      746F2700 
 920              		.text
 921              		.section	.text.notify,"ax",%progbits
 922              		.align	2
 923              		.p2align 4,,15
 924              		.thumb
 925              		.thumb_func
 926              		.type	notify, %function
 927              	notify:
 928              		@ args = 0, pretend = 0, frame = 0
 929              		@ frame_needed = 0, uses_anonymous_args = 0
 930              		@ link register save eliminated.
 931 0000 7047     		bx	lr
 932              		.size	notify, .-notify
 933 0002 00BFAFF3 		.section	.text.thread1,"ax",%progbits
 933      0080AFF3 
 933      0080AFF3 
 933      0080
 934              		.align	2
ARM GAS  /tmp/cc76wJM6.s 			page 74


 935              		.p2align 4,,15
 936              		.thumb
 937              		.thumb_func
 938              		.type	thread1, %function
 939              	thread1:
 940              		@ args = 0, pretend = 0, frame = 0
 941              		@ frame_needed = 0, uses_anonymous_args = 0
 942 0000 08B5     		push	{r3, lr}
 943 0002 C821     		movs	r1, #200
 944 0004 0248     		ldr	r0, .L3
 945 0006 FFF7FEFF 		bl	chIQGetTimeout
 946 000a 0020     		movs	r0, #0
 947 000c 08BD     		pop	{r3, pc}
 948              	.L4:
 949 000e 00BF     		.align	2
 950              	.L3:
 951 0010 00000000 		.word	.LANCHOR0
 952              		.size	thread1, .-thread1
 953 0014 AFF30080 		.section	.text.queues1_setup,"ax",%progbits
 953      AFF30080 
 953      AFF30080 
 954              		.align	2
 955              		.p2align 4,,15
 956              		.thumb
 957              		.thumb_func
 958              		.type	queues1_setup, %function
 959              	queues1_setup:
 960              		@ args = 0, pretend = 0, frame = 0
 961              		@ frame_needed = 0, uses_anonymous_args = 0
 962 0000 00B5     		push	{lr}
 963 0002 064A     		ldr	r2, .L6
 964 0004 83B0     		sub	sp, sp, #12
 965 0006 0023     		movs	r3, #0
 966 0008 1168     		ldr	r1, [r2]
 967 000a 0093     		str	r3, [sp]
 968 000c 0448     		ldr	r0, .L6+4
 969 000e 0422     		movs	r2, #4
 970 0010 044B     		ldr	r3, .L6+8
 971 0012 FFF7FEFF 		bl	chIQObjectInit
 972 0016 03B0     		add	sp, sp, #12
 973              		@ sp needed
 974 0018 5DF804FB 		ldr	pc, [sp], #4
 975              	.L7:
 976              		.align	2
 977              	.L6:
 978 001c 00000000 		.word	wa
 979 0020 00000000 		.word	.LANCHOR0
 980 0024 00000000 		.word	notify
 981              		.size	queues1_setup, .-queues1_setup
 982 0028 AFF30080 		.section	.text.thread2,"ax",%progbits
 982      AFF30080 
 983              		.align	2
 984              		.p2align 4,,15
 985              		.thumb
 986              		.thumb_func
 987              		.type	thread2, %function
 988              	thread2:
ARM GAS  /tmp/cc76wJM6.s 			page 75


 989              		@ args = 0, pretend = 0, frame = 0
 990              		@ frame_needed = 0, uses_anonymous_args = 0
 991 0000 08B5     		push	{r3, lr}
 992 0002 0021     		movs	r1, #0
 993 0004 C822     		movs	r2, #200
 994 0006 0248     		ldr	r0, .L9
 995 0008 FFF7FEFF 		bl	chOQPutTimeout
 996 000c 0020     		movs	r0, #0
 997 000e 08BD     		pop	{r3, pc}
 998              	.L10:
 999              		.align	2
 1000              	.L9:
 1001 0010 00000000 		.word	.LANCHOR1
 1002              		.size	thread2, .-thread2
 1003 0014 AFF30080 		.section	.text.queues2_setup,"ax",%progbits
 1003      AFF30080 
 1003      AFF30080 
 1004              		.align	2
 1005              		.p2align 4,,15
 1006              		.thumb
 1007              		.thumb_func
 1008              		.type	queues2_setup, %function
 1009              	queues2_setup:
 1010              		@ args = 0, pretend = 0, frame = 0
 1011              		@ frame_needed = 0, uses_anonymous_args = 0
 1012 0000 00B5     		push	{lr}
 1013 0002 064A     		ldr	r2, .L12
 1014 0004 83B0     		sub	sp, sp, #12
 1015 0006 0023     		movs	r3, #0
 1016 0008 1168     		ldr	r1, [r2]
 1017 000a 0093     		str	r3, [sp]
 1018 000c 0448     		ldr	r0, .L12+4
 1019 000e 0422     		movs	r2, #4
 1020 0010 044B     		ldr	r3, .L12+8
 1021 0012 FFF7FEFF 		bl	chOQObjectInit
 1022 0016 03B0     		add	sp, sp, #12
 1023              		@ sp needed
 1024 0018 5DF804FB 		ldr	pc, [sp], #4
 1025              	.L13:
 1026              		.align	2
 1027              	.L12:
 1028 001c 00000000 		.word	wa
 1029 0020 00000000 		.word	.LANCHOR1
 1030 0024 00000000 		.word	notify
 1031              		.size	queues2_setup, .-queues2_setup
 1032 0028 AFF30080 		.section	.text.queues1_execute,"ax",%progbits
 1032      AFF30080 
 1033              		.align	2
 1034              		.p2align 4,,15
 1035              		.thumb
 1036              		.thumb_func
 1037              		.type	queues1_execute, %function
 1038              	queues1_execute:
 1039              		@ args = 0, pretend = 0, frame = 0
 1040              		@ frame_needed = 0, uses_anonymous_args = 0
 1041 0000 2DE9F041 		push	{r4, r5, r6, r7, r8, lr}
 1042 0004 2024     		movs	r4, #32
ARM GAS  /tmp/cc76wJM6.s 			page 76


 1043 0006 82B0     		sub	sp, sp, #8
 1044              	@ 546 "/home/cody/dev/chibios/trunk/os/ext/CMSIS/include/core_cmFunc.h" 1
 1045 0008 84F31188 		MSR basepri, r4
 1046              	@ 0 "" 2
 1047              		.thumb
 1048 000c 904B     		ldr	r3, .L40
 1049 000e 0120     		movs	r0, #1
 1050 0010 9968     		ldr	r1, [r3, #8]
 1051 0012 D1F10101 		rsbs	r1, r1, #1
 1052 0016 38BF     		it	cc
 1053 0018 0021     		movcc	r1, #0
 1054 001a FFF7FEFF 		bl	_test_assert
 1055 001e 0646     		mov	r6, r0
 1056 0020 E8B9     		cbnz	r0, .L36
 1057              	@ 546 "/home/cody/dev/chibios/trunk/os/ext/CMSIS/include/core_cmFunc.h" 1
 1058 0022 80F31188 		MSR basepri, r0
 1059              	@ 0 "" 2
 1060              	@ 546 "/home/cody/dev/chibios/trunk/os/ext/CMSIS/include/core_cmFunc.h" 1
 1061 0026 84F31188 		MSR basepri, r4
 1062              	@ 0 "" 2
 1063              		.thumb
 1064 002a 4124     		movs	r4, #65
 1065              	.L18:
 1066 002c 884D     		ldr	r5, .L40
 1067 002e 2146     		mov	r1, r4
 1068 0030 0134     		adds	r4, r4, #1
 1069 0032 2846     		mov	r0, r5
 1070 0034 E4B2     		uxtb	r4, r4
 1071 0036 FFF7FEFF 		bl	chIQPutI
 1072 003a 452C     		cmp	r4, #69
 1073 003c F6D1     		bne	.L18
 1074 003e 0023     		movs	r3, #0
 1075              	@ 546 "/home/cody/dev/chibios/trunk/os/ext/CMSIS/include/core_cmFunc.h" 1
 1076 0040 83F31188 		MSR basepri, r3
 1077              	@ 0 "" 2
 1078              		.thumb
 1079 0044 2023     		movs	r3, #32
 1080              	@ 546 "/home/cody/dev/chibios/trunk/os/ext/CMSIS/include/core_cmFunc.h" 1
 1081 0046 83F31188 		MSR basepri, r3
 1082              	@ 0 "" 2
 1083              		.thumb
 1084 004a 6A69     		ldr	r2, [r5, #20]
 1085 004c AB69     		ldr	r3, [r5, #24]
 1086 004e 9A42     		cmp	r2, r3
 1087 0050 3BD0     		beq	.L39
 1088              	.L19:
 1089 0052 3146     		mov	r1, r6
 1090 0054 0220     		movs	r0, #2
 1091 0056 FFF7FEFF 		bl	_test_assert
 1092 005a 0446     		mov	r4, r0
 1093 005c 28B1     		cbz	r0, .L20
 1094              	.L36:
 1095 005e 0023     		movs	r3, #0
 1096              	@ 546 "/home/cody/dev/chibios/trunk/os/ext/CMSIS/include/core_cmFunc.h" 1
 1097 0060 83F31188 		MSR basepri, r3
 1098              	@ 0 "" 2
 1099              		.thumb
ARM GAS  /tmp/cc76wJM6.s 			page 77


 1100              	.L14:
 1101 0064 02B0     		add	sp, sp, #8
 1102              		@ sp needed
 1103 0066 BDE8F081 		pop	{r4, r5, r6, r7, r8, pc}
 1104              	.L20:
 1105              	@ 546 "/home/cody/dev/chibios/trunk/os/ext/CMSIS/include/core_cmFunc.h" 1
 1106 006a 80F31188 		MSR basepri, r0
 1107              	@ 0 "" 2
 1108              		.thumb
 1109 006e 2023     		movs	r3, #32
 1110              	@ 546 "/home/cody/dev/chibios/trunk/os/ext/CMSIS/include/core_cmFunc.h" 1
 1111 0070 83F31188 		MSR basepri, r3
 1112              	@ 0 "" 2
 1113              		.thumb
 1114 0074 7648     		ldr	r0, .L40
 1115 0076 2146     		mov	r1, r4
 1116 0078 FFF7FEFF 		bl	chIQPutI
 1117 007c 0430     		adds	r0, r0, #4
 1118 007e 14BF     		ite	ne
 1119 0080 0021     		movne	r1, #0
 1120 0082 0121     		moveq	r1, #1
 1121 0084 0320     		movs	r0, #3
 1122 0086 FFF7FEFF 		bl	_test_assert
 1123 008a C8B9     		cbnz	r0, .L37
 1124              	@ 546 "/home/cody/dev/chibios/trunk/os/ext/CMSIS/include/core_cmFunc.h" 1
 1125 008c 80F31188 		MSR basepri, r0
 1126              	@ 0 "" 2
 1127              		.thumb
 1128 0090 0424     		movs	r4, #4
 1129              	.L23:
 1130 0092 6F4D     		ldr	r5, .L40
 1131 0094 4FF6FF71 		movw	r1, #65535
 1132 0098 2846     		mov	r0, r5
 1133 009a FFF7FEFF 		bl	chIQGetTimeout
 1134 009e C0B2     		uxtb	r0, r0
 1135 00a0 FFF7FEFF 		bl	test_emit_token
 1136 00a4 013C     		subs	r4, r4, #1
 1137 00a6 F4D1     		bne	.L23
 1138 00a8 2026     		movs	r6, #32
 1139              	@ 546 "/home/cody/dev/chibios/trunk/os/ext/CMSIS/include/core_cmFunc.h" 1
 1140 00aa 86F31188 		MSR basepri, r6
 1141              	@ 0 "" 2
 1142              		.thumb
 1143 00ae A968     		ldr	r1, [r5, #8]
 1144 00b0 0420     		movs	r0, #4
 1145 00b2 D1F10101 		rsbs	r1, r1, #1
 1146 00b6 38BF     		it	cc
 1147 00b8 0021     		movcc	r1, #0
 1148 00ba FFF7FEFF 		bl	_test_assert
 1149 00be 48B1     		cbz	r0, .L24
 1150              	.L37:
 1151              	@ 546 "/home/cody/dev/chibios/trunk/os/ext/CMSIS/include/core_cmFunc.h" 1
 1152 00c0 84F31188 		MSR basepri, r4
 1153              	@ 0 "" 2
 1154              		.thumb
 1155 00c4 02B0     		add	sp, sp, #8
 1156              		@ sp needed
ARM GAS  /tmp/cc76wJM6.s 			page 78


 1157 00c6 BDE8F081 		pop	{r4, r5, r6, r7, r8, pc}
 1158              	.L39:
 1159 00ca AE68     		ldr	r6, [r5, #8]
 1160 00cc 0036     		adds	r6, r6, #0
 1161 00ce 18BF     		it	ne
 1162 00d0 0126     		movne	r6, #1
 1163 00d2 BEE7     		b	.L19
 1164              	.L24:
 1165              	@ 546 "/home/cody/dev/chibios/trunk/os/ext/CMSIS/include/core_cmFunc.h" 1
 1166 00d4 84F31188 		MSR basepri, r4
 1167              	@ 0 "" 2
 1168              		.thumb
 1169 00d8 0520     		movs	r0, #5
 1170 00da 5E49     		ldr	r1, .L40+4
 1171 00dc FFF7FEFF 		bl	_test_assert_sequence
 1172 00e0 0028     		cmp	r0, #0
 1173 00e2 BFD1     		bne	.L14
 1174              	@ 546 "/home/cody/dev/chibios/trunk/os/ext/CMSIS/include/core_cmFunc.h" 1
 1175 00e4 86F31188 		MSR basepri, r6
 1176              	@ 0 "" 2
 1177              		.thumb
 1178 00e8 4124     		movs	r4, #65
 1179              	.L27:
 1180 00ea 594D     		ldr	r5, .L40
 1181 00ec 2146     		mov	r1, r4
 1182 00ee 0134     		adds	r4, r4, #1
 1183 00f0 2846     		mov	r0, r5
 1184 00f2 E4B2     		uxtb	r4, r4
 1185 00f4 FFF7FEFF 		bl	chIQPutI
 1186 00f8 452C     		cmp	r4, #69
 1187 00fa F6D1     		bne	.L27
 1188 00fc 0023     		movs	r3, #0
 1189              	@ 546 "/home/cody/dev/chibios/trunk/os/ext/CMSIS/include/core_cmFunc.h" 1
 1190 00fe 83F31188 		MSR basepri, r3
 1191              	@ 0 "" 2
 1192              		.thumb
 1193 0102 554E     		ldr	r6, .L40+8
 1194 0104 0822     		movs	r2, #8
 1195 0106 7168     		ldr	r1, [r6, #4]
 1196 0108 2846     		mov	r0, r5
 1197 010a FFF7FEFF 		bl	chIQReadTimeout
 1198 010e 041F     		subs	r4, r0, #4
 1199 0110 6142     		rsbs	r1, r4, #0
 1200 0112 6141     		adcs	r1, r1, r4
 1201 0114 0620     		movs	r0, #6
 1202 0116 FFF7FEFF 		bl	_test_assert
 1203 011a 0446     		mov	r4, r0
 1204 011c 0028     		cmp	r0, #0
 1205 011e A1D1     		bne	.L14
 1206 0120 2027     		movs	r7, #32
 1207              	@ 546 "/home/cody/dev/chibios/trunk/os/ext/CMSIS/include/core_cmFunc.h" 1
 1208 0122 87F31188 		MSR basepri, r7
 1209              	@ 0 "" 2
 1210              		.thumb
 1211 0126 A968     		ldr	r1, [r5, #8]
 1212 0128 0720     		movs	r0, #7
 1213 012a D1F10101 		rsbs	r1, r1, #1
ARM GAS  /tmp/cc76wJM6.s 			page 79


 1214 012e 38BF     		it	cc
 1215 0130 0021     		movcc	r1, #0
 1216 0132 FFF7FEFF 		bl	_test_assert
 1217 0136 0028     		cmp	r0, #0
 1218 0138 C2D1     		bne	.L37
 1219              	@ 546 "/home/cody/dev/chibios/trunk/os/ext/CMSIS/include/core_cmFunc.h" 1
 1220 013a 80F31188 		MSR basepri, r0
 1221              	@ 0 "" 2
 1222              	@ 546 "/home/cody/dev/chibios/trunk/os/ext/CMSIS/include/core_cmFunc.h" 1
 1223 013e 87F31188 		MSR basepri, r7
 1224              	@ 0 "" 2
 1225              		.thumb
 1226 0142 4124     		movs	r4, #65
 1227              	.L31:
 1228 0144 424D     		ldr	r5, .L40
 1229 0146 2146     		mov	r1, r4
 1230 0148 0134     		adds	r4, r4, #1
 1231 014a 2846     		mov	r0, r5
 1232 014c E4B2     		uxtb	r4, r4
 1233 014e FFF7FEFF 		bl	chIQPutI
 1234 0152 452C     		cmp	r4, #69
 1235 0154 F6D1     		bne	.L31
 1236 0156 0023     		movs	r3, #0
 1237              	@ 546 "/home/cody/dev/chibios/trunk/os/ext/CMSIS/include/core_cmFunc.h" 1
 1238 0158 83F31188 		MSR basepri, r3
 1239              	@ 0 "" 2
 1240              		.thumb
 1241 015c 7468     		ldr	r4, [r6, #4]
 1242 015e 0222     		movs	r2, #2
 1243 0160 2146     		mov	r1, r4
 1244 0162 2846     		mov	r0, r5
 1245 0164 FFF7FEFF 		bl	chIQReadTimeout
 1246 0168 0238     		subs	r0, r0, #2
 1247 016a 4142     		rsbs	r1, r0, #0
 1248 016c 4141     		adcs	r1, r1, r0
 1249 016e 0820     		movs	r0, #8
 1250 0170 FFF7FEFF 		bl	_test_assert
 1251 0174 DFF8E080 		ldr	r8, .L40+8
 1252 0178 0028     		cmp	r0, #0
 1253 017a 7FF473AF 		bne	.L14
 1254 017e 0346     		mov	r3, r0
 1255 0180 2146     		mov	r1, r4
 1256 0182 0222     		movs	r2, #2
 1257 0184 2846     		mov	r0, r5
 1258 0186 FFF7FEFF 		bl	chIQReadTimeout
 1259 018a 821E     		subs	r2, r0, #2
 1260 018c 5142     		rsbs	r1, r2, #0
 1261 018e 5141     		adcs	r1, r1, r2
 1262 0190 0920     		movs	r0, #9
 1263 0192 FFF7FEFF 		bl	_test_assert
 1264 0196 0746     		mov	r7, r0
 1265 0198 0028     		cmp	r0, #0
 1266 019a 7FF463AF 		bne	.L14
 1267 019e 2026     		movs	r6, #32
 1268              	@ 546 "/home/cody/dev/chibios/trunk/os/ext/CMSIS/include/core_cmFunc.h" 1
 1269 01a0 86F31188 		MSR basepri, r6
 1270              	@ 0 "" 2
ARM GAS  /tmp/cc76wJM6.s 			page 80


 1271              		.thumb
 1272 01a4 A968     		ldr	r1, [r5, #8]
 1273 01a6 0A20     		movs	r0, #10
 1274 01a8 D1F10101 		rsbs	r1, r1, #1
 1275 01ac 38BF     		it	cc
 1276 01ae 0021     		movcc	r1, #0
 1277 01b0 FFF7FEFF 		bl	_test_assert
 1278 01b4 0446     		mov	r4, r0
 1279 01b6 10B1     		cbz	r0, .L32
 1280              	.L35:
 1281              	@ 546 "/home/cody/dev/chibios/trunk/os/ext/CMSIS/include/core_cmFunc.h" 1
 1282 01b8 87F31188 		MSR basepri, r7
 1283              	@ 0 "" 2
 1284              		.thumb
 1285 01bc 52E7     		b	.L14
 1286              	.L32:
 1287              	@ 546 "/home/cody/dev/chibios/trunk/os/ext/CMSIS/include/core_cmFunc.h" 1
 1288 01be 80F31188 		MSR basepri, r0
 1289              	@ 0 "" 2
 1290              	@ 546 "/home/cody/dev/chibios/trunk/os/ext/CMSIS/include/core_cmFunc.h" 1
 1291 01c2 86F31188 		MSR basepri, r6
 1292              	@ 0 "" 2
 1293              		.thumb
 1294 01c6 2146     		mov	r1, r4
 1295 01c8 2846     		mov	r0, r5
 1296 01ca FFF7FEFF 		bl	chIQPutI
 1297 01ce 2846     		mov	r0, r5
 1298 01d0 FFF7FEFF 		bl	chIQResetI
 1299              	@ 546 "/home/cody/dev/chibios/trunk/os/ext/CMSIS/include/core_cmFunc.h" 1
 1300 01d4 84F31188 		MSR basepri, r4
 1301              	@ 0 "" 2
 1302              	@ 546 "/home/cody/dev/chibios/trunk/os/ext/CMSIS/include/core_cmFunc.h" 1
 1303 01d8 86F31188 		MSR basepri, r6
 1304              	@ 0 "" 2
 1305              		.thumb
 1306 01dc A968     		ldr	r1, [r5, #8]
 1307 01de 0B20     		movs	r0, #11
 1308 01e0 D1F10101 		rsbs	r1, r1, #1
 1309 01e4 38BF     		it	cc
 1310 01e6 0021     		movcc	r1, #0
 1311 01e8 FFF7FEFF 		bl	_test_assert
 1312 01ec 0746     		mov	r7, r0
 1313 01ee 0028     		cmp	r0, #0
 1314 01f0 7FF466AF 		bne	.L37
 1315              	@ 546 "/home/cody/dev/chibios/trunk/os/ext/CMSIS/include/core_cmFunc.h" 1
 1316 01f4 80F31188 		MSR basepri, r0
 1317              	@ 0 "" 2
 1318              		.thumb
 1319 01f8 184B     		ldr	r3, .L40+12
 1320 01fa D8F80000 		ldr	r0, [r8]
 1321 01fe 9B69     		ldr	r3, [r3, #24]
 1322 0200 4FF4A471 		mov	r1, #328
 1323 0204 9A68     		ldr	r2, [r3, #8]
 1324 0206 164B     		ldr	r3, .L40+16
 1325 0208 0132     		adds	r2, r2, #1
 1326 020a 0097     		str	r7, [sp]
 1327 020c FFF7FEFF 		bl	chThdCreateStatic
ARM GAS  /tmp/cc76wJM6.s 			page 81


 1328 0210 144B     		ldr	r3, .L40+20
 1329 0212 1860     		str	r0, [r3]
 1330              	@ 546 "/home/cody/dev/chibios/trunk/os/ext/CMSIS/include/core_cmFunc.h" 1
 1331 0214 86F31188 		MSR basepri, r6
 1332              	@ 0 "" 2
 1333              		.thumb
 1334 0218 A968     		ldr	r1, [r5, #8]
 1335 021a 0C20     		movs	r0, #12
 1336 021c D1F10101 		rsbs	r1, r1, #1
 1337 0220 38BF     		it	cc
 1338 0222 0021     		movcc	r1, #0
 1339 0224 FFF7FEFF 		bl	_test_assert
 1340 0228 0028     		cmp	r0, #0
 1341 022a C5D1     		bne	.L35
 1342              	@ 546 "/home/cody/dev/chibios/trunk/os/ext/CMSIS/include/core_cmFunc.h" 1
 1343 022c 80F31188 		MSR basepri, r0
 1344              	@ 0 "" 2
 1345              		.thumb
 1346 0230 FFF7FEFF 		bl	test_wait_threads
 1347 0234 2846     		mov	r0, r5
 1348 0236 0A21     		movs	r1, #10
 1349 0238 FFF7FEFF 		bl	chIQGetTimeout
 1350 023c B0F1FF33 		subs	r3, r0, #-1
 1351 0240 5942     		rsbs	r1, r3, #0
 1352 0242 5941     		adcs	r1, r1, r3
 1353 0244 0D20     		movs	r0, #13
 1354 0246 02B0     		add	sp, sp, #8
 1355              		@ sp needed
 1356 0248 BDE8F041 		pop	{r4, r5, r6, r7, r8, lr}
 1357 024c FFF7FEBF 		b	_test_assert
 1358              	.L41:
 1359              		.align	2
 1360              	.L40:
 1361 0250 00000000 		.word	.LANCHOR0
 1362 0254 00000000 		.word	.LC0
 1363 0258 00000000 		.word	wa
 1364 025c 00000000 		.word	ch
 1365 0260 00000000 		.word	thread1
 1366 0264 00000000 		.word	threads
 1367              		.size	queues1_execute, .-queues1_execute
 1368 0268 AFF30080 		.section	.text.queues2_execute,"ax",%progbits
 1368      AFF30080 
 1369              		.align	2
 1370              		.p2align 4,,15
 1371              		.thumb
 1372              		.thumb_func
 1373              		.type	queues2_execute, %function
 1374              	queues2_execute:
 1375              		@ args = 0, pretend = 0, frame = 0
 1376              		@ frame_needed = 0, uses_anonymous_args = 0
 1377 0000 2DE9F043 		push	{r4, r5, r6, r7, r8, r9, lr}
 1378 0004 2023     		movs	r3, #32
 1379 0006 83B0     		sub	sp, sp, #12
 1380              	@ 546 "/home/cody/dev/chibios/trunk/os/ext/CMSIS/include/core_cmFunc.h" 1
 1381 0008 83F31188 		MSR basepri, r3
 1382              	@ 0 "" 2
 1383              		.thumb
ARM GAS  /tmp/cc76wJM6.s 			page 82


 1384 000c 8A4B     		ldr	r3, .L65
 1385 000e 5969     		ldr	r1, [r3, #20]
 1386 0010 9A69     		ldr	r2, [r3, #24]
 1387 0012 9142     		cmp	r1, r2
 1388 0014 5FD0     		beq	.L63
 1389 0016 0021     		movs	r1, #0
 1390              	.L43:
 1391 0018 0120     		movs	r0, #1
 1392 001a FFF7FEFF 		bl	_test_assert
 1393 001e 0028     		cmp	r0, #0
 1394 0020 38D1     		bne	.L62
 1395              	@ 546 "/home/cody/dev/chibios/trunk/os/ext/CMSIS/include/core_cmFunc.h" 1
 1396 0022 80F31188 		MSR basepri, r0
 1397              	@ 0 "" 2
 1398              		.thumb
 1399 0026 4124     		movs	r4, #65
 1400              	.L47:
 1401 0028 834D     		ldr	r5, .L65
 1402 002a 2146     		mov	r1, r4
 1403 002c 0134     		adds	r4, r4, #1
 1404 002e 2846     		mov	r0, r5
 1405 0030 4FF6FF72 		movw	r2, #65535
 1406 0034 E4B2     		uxtb	r4, r4
 1407 0036 FFF7FEFF 		bl	chOQPutTimeout
 1408 003a 452C     		cmp	r4, #69
 1409 003c F4D1     		bne	.L47
 1410 003e 4FF02009 		mov	r9, #32
 1411              	@ 546 "/home/cody/dev/chibios/trunk/os/ext/CMSIS/include/core_cmFunc.h" 1
 1412 0042 89F31188 		MSR basepri, r9
 1413              	@ 0 "" 2
 1414              		.thumb
 1415 0046 A968     		ldr	r1, [r5, #8]
 1416 0048 0220     		movs	r0, #2
 1417 004a D1F10101 		rsbs	r1, r1, #1
 1418 004e 38BF     		it	cc
 1419 0050 0021     		movcc	r1, #0
 1420 0052 FFF7FEFF 		bl	_test_assert
 1421 0056 0646     		mov	r6, r0
 1422 0058 E0B9     		cbnz	r0, .L62
 1423              	@ 546 "/home/cody/dev/chibios/trunk/os/ext/CMSIS/include/core_cmFunc.h" 1
 1424 005a 80F31188 		MSR basepri, r0
 1425              	@ 0 "" 2
 1426              		.thumb
 1427 005e 0424     		movs	r4, #4
 1428 0060 8046     		mov	r8, r0
 1429              	.L50:
 1430 0062 2027     		movs	r7, #32
 1431              	@ 546 "/home/cody/dev/chibios/trunk/os/ext/CMSIS/include/core_cmFunc.h" 1
 1432 0064 89F31188 		MSR basepri, r9
 1433              	@ 0 "" 2
 1434              		.thumb
 1435 0068 734D     		ldr	r5, .L65
 1436 006a 2846     		mov	r0, r5
 1437 006c FFF7FEFF 		bl	chOQGetI
 1438              	@ 546 "/home/cody/dev/chibios/trunk/os/ext/CMSIS/include/core_cmFunc.h" 1
 1439 0070 88F31188 		MSR basepri, r8
 1440              	@ 0 "" 2
ARM GAS  /tmp/cc76wJM6.s 			page 83


 1441              		.thumb
 1442 0074 C0B2     		uxtb	r0, r0
 1443 0076 FFF7FEFF 		bl	test_emit_token
 1444 007a 013C     		subs	r4, r4, #1
 1445 007c F1D1     		bne	.L50
 1446              	@ 546 "/home/cody/dev/chibios/trunk/os/ext/CMSIS/include/core_cmFunc.h" 1
 1447 007e 87F31188 		MSR basepri, r7
 1448              	@ 0 "" 2
 1449              		.thumb
 1450 0082 6A69     		ldr	r2, [r5, #20]
 1451 0084 AB69     		ldr	r3, [r5, #24]
 1452 0086 9A42     		cmp	r2, r3
 1453 0088 2AD0     		beq	.L64
 1454              	.L51:
 1455 008a 3146     		mov	r1, r6
 1456 008c 0320     		movs	r0, #3
 1457 008e FFF7FEFF 		bl	_test_assert
 1458 0092 28B1     		cbz	r0, .L52
 1459              	.L62:
 1460 0094 0023     		movs	r3, #0
 1461              	@ 546 "/home/cody/dev/chibios/trunk/os/ext/CMSIS/include/core_cmFunc.h" 1
 1462 0096 83F31188 		MSR basepri, r3
 1463              	@ 0 "" 2
 1464              		.thumb
 1465              	.L42:
 1466 009a 03B0     		add	sp, sp, #12
 1467              		@ sp needed
 1468 009c BDE8F083 		pop	{r4, r5, r6, r7, r8, r9, pc}
 1469              	.L52:
 1470              	@ 546 "/home/cody/dev/chibios/trunk/os/ext/CMSIS/include/core_cmFunc.h" 1
 1471 00a0 80F31188 		MSR basepri, r0
 1472              	@ 0 "" 2
 1473              		.thumb
 1474 00a4 0420     		movs	r0, #4
 1475 00a6 6549     		ldr	r1, .L65+4
 1476 00a8 FFF7FEFF 		bl	_test_assert_sequence
 1477 00ac 0446     		mov	r4, r0
 1478 00ae 0028     		cmp	r0, #0
 1479 00b0 F3D1     		bne	.L42
 1480 00b2 2026     		movs	r6, #32
 1481              	@ 546 "/home/cody/dev/chibios/trunk/os/ext/CMSIS/include/core_cmFunc.h" 1
 1482 00b4 86F31188 		MSR basepri, r6
 1483              	@ 0 "" 2
 1484              		.thumb
 1485 00b8 5F4D     		ldr	r5, .L65
 1486 00ba 2846     		mov	r0, r5
 1487 00bc FFF7FEFF 		bl	chOQGetI
 1488 00c0 0330     		adds	r0, r0, #3
 1489 00c2 14BF     		ite	ne
 1490 00c4 0021     		movne	r1, #0
 1491 00c6 0121     		moveq	r1, #1
 1492 00c8 0520     		movs	r0, #5
 1493 00ca FFF7FEFF 		bl	_test_assert
 1494 00ce 60B1     		cbz	r0, .L54
 1495              	@ 546 "/home/cody/dev/chibios/trunk/os/ext/CMSIS/include/core_cmFunc.h" 1
 1496 00d0 84F31188 		MSR basepri, r4
 1497              	@ 0 "" 2
ARM GAS  /tmp/cc76wJM6.s 			page 84


 1498              		.thumb
 1499 00d4 E1E7     		b	.L42
 1500              	.L63:
 1501 00d6 9968     		ldr	r1, [r3, #8]
 1502 00d8 0031     		adds	r1, r1, #0
 1503 00da 18BF     		it	ne
 1504 00dc 0121     		movne	r1, #1
 1505 00de 9BE7     		b	.L43
 1506              	.L64:
 1507 00e0 AE68     		ldr	r6, [r5, #8]
 1508 00e2 0036     		adds	r6, r6, #0
 1509 00e4 18BF     		it	ne
 1510 00e6 0126     		movne	r6, #1
 1511 00e8 CFE7     		b	.L51
 1512              	.L54:
 1513              	@ 546 "/home/cody/dev/chibios/trunk/os/ext/CMSIS/include/core_cmFunc.h" 1
 1514 00ea 80F31188 		MSR basepri, r0
 1515              	@ 0 "" 2
 1516              		.thumb
 1517 00ee 544F     		ldr	r7, .L65+8
 1518 00f0 0346     		mov	r3, r0
 1519 00f2 7C68     		ldr	r4, [r7, #4]
 1520 00f4 0822     		movs	r2, #8
 1521 00f6 2146     		mov	r1, r4
 1522 00f8 2846     		mov	r0, r5
 1523 00fa FFF7FEFF 		bl	chOQWriteTimeout
 1524 00fe B0F10408 		subs	r8, r0, #4
 1525 0102 D8F10001 		rsbs	r1, r8, #0
 1526 0106 51EB0801 		adcs	r1, r1, r8
 1527 010a 0620     		movs	r0, #6
 1528 010c FFF7FEFF 		bl	_test_assert
 1529 0110 8046     		mov	r8, r0
 1530 0112 0028     		cmp	r0, #0
 1531 0114 C1D1     		bne	.L42
 1532              	@ 546 "/home/cody/dev/chibios/trunk/os/ext/CMSIS/include/core_cmFunc.h" 1
 1533 0116 86F31188 		MSR basepri, r6
 1534              	@ 0 "" 2
 1535              		.thumb
 1536 011a A968     		ldr	r1, [r5, #8]
 1537 011c 0720     		movs	r0, #7
 1538 011e D1F10101 		rsbs	r1, r1, #1
 1539 0122 38BF     		it	cc
 1540 0124 0021     		movcc	r1, #0
 1541 0126 FFF7FEFF 		bl	_test_assert
 1542 012a 8146     		mov	r9, r0
 1543 012c 10B1     		cbz	r0, .L56
 1544              	@ 546 "/home/cody/dev/chibios/trunk/os/ext/CMSIS/include/core_cmFunc.h" 1
 1545 012e 88F31188 		MSR basepri, r8
 1546              	@ 0 "" 2
 1547              		.thumb
 1548 0132 B2E7     		b	.L42
 1549              	.L56:
 1550              	@ 546 "/home/cody/dev/chibios/trunk/os/ext/CMSIS/include/core_cmFunc.h" 1
 1551 0134 80F31188 		MSR basepri, r0
 1552              	@ 0 "" 2
 1553              		.thumb
 1554 0138 424B     		ldr	r3, .L65+12
ARM GAS  /tmp/cc76wJM6.s 			page 85


 1555 013a 3868     		ldr	r0, [r7]
 1556 013c 9B69     		ldr	r3, [r3, #24]
 1557 013e 4FF4A471 		mov	r1, #328
 1558 0142 9A68     		ldr	r2, [r3, #8]
 1559 0144 CDF80090 		str	r9, [sp]
 1560 0148 0132     		adds	r2, r2, #1
 1561 014a 3F4B     		ldr	r3, .L65+16
 1562 014c FFF7FEFF 		bl	chThdCreateStatic
 1563 0150 3E4B     		ldr	r3, .L65+20
 1564 0152 1860     		str	r0, [r3]
 1565              	@ 546 "/home/cody/dev/chibios/trunk/os/ext/CMSIS/include/core_cmFunc.h" 1
 1566 0154 86F31188 		MSR basepri, r6
 1567              	@ 0 "" 2
 1568              		.thumb
 1569 0158 2969     		ldr	r1, [r5, #16]
 1570 015a EA68     		ldr	r2, [r5, #12]
 1571 015c AB68     		ldr	r3, [r5, #8]
 1572 015e 8A1A     		subs	r2, r1, r2
 1573 0160 D11A     		subs	r1, r2, r3
 1574 0162 B1F1040C 		subs	ip, r1, #4
 1575 0166 DCF10001 		rsbs	r1, ip, #0
 1576 016a 51EB0C01 		adcs	r1, r1, ip
 1577 016e 0820     		movs	r0, #8
 1578 0170 FFF7FEFF 		bl	_test_assert
 1579 0174 0746     		mov	r7, r0
 1580 0176 10B1     		cbz	r0, .L57
 1581              	@ 546 "/home/cody/dev/chibios/trunk/os/ext/CMSIS/include/core_cmFunc.h" 1
 1582 0178 89F31188 		MSR basepri, r9
 1583              	@ 0 "" 2
 1584              		.thumb
 1585 017c 8DE7     		b	.L42
 1586              	.L57:
 1587              	@ 546 "/home/cody/dev/chibios/trunk/os/ext/CMSIS/include/core_cmFunc.h" 1
 1588 017e 80F31188 		MSR basepri, r0
 1589              	@ 0 "" 2
 1590              		.thumb
 1591 0182 FFF7FEFF 		bl	test_wait_threads
 1592              	@ 546 "/home/cody/dev/chibios/trunk/os/ext/CMSIS/include/core_cmFunc.h" 1
 1593 0186 86F31188 		MSR basepri, r6
 1594              	@ 0 "" 2
 1595              		.thumb
 1596 018a 2846     		mov	r0, r5
 1597 018c FFF7FEFF 		bl	chOQResetI
 1598              	@ 546 "/home/cody/dev/chibios/trunk/os/ext/CMSIS/include/core_cmFunc.h" 1
 1599 0190 87F31188 		MSR basepri, r7
 1600              	@ 0 "" 2
 1601              	@ 546 "/home/cody/dev/chibios/trunk/os/ext/CMSIS/include/core_cmFunc.h" 1
 1602 0194 86F31188 		MSR basepri, r6
 1603              	@ 0 "" 2
 1604              		.thumb
 1605 0198 2969     		ldr	r1, [r5, #16]
 1606 019a EA68     		ldr	r2, [r5, #12]
 1607 019c AB68     		ldr	r3, [r5, #8]
 1608 019e 891A     		subs	r1, r1, r2
 1609 01a0 B1EB030E 		subs	lr, r1, r3
 1610 01a4 DEF10001 		rsbs	r1, lr, #0
 1611 01a8 51EB0E01 		adcs	r1, r1, lr
ARM GAS  /tmp/cc76wJM6.s 			page 86


 1612 01ac 0920     		movs	r0, #9
 1613 01ae FFF7FEFF 		bl	_test_assert
 1614 01b2 0346     		mov	r3, r0
 1615 01b4 10B1     		cbz	r0, .L58
 1616              	@ 546 "/home/cody/dev/chibios/trunk/os/ext/CMSIS/include/core_cmFunc.h" 1
 1617 01b6 87F31188 		MSR basepri, r7
 1618              	@ 0 "" 2
 1619              		.thumb
 1620 01ba 6EE7     		b	.L42
 1621              	.L58:
 1622              	@ 546 "/home/cody/dev/chibios/trunk/os/ext/CMSIS/include/core_cmFunc.h" 1
 1623 01bc 80F31188 		MSR basepri, r0
 1624              	@ 0 "" 2
 1625              		.thumb
 1626 01c0 0222     		movs	r2, #2
 1627 01c2 2146     		mov	r1, r4
 1628 01c4 2846     		mov	r0, r5
 1629 01c6 FFF7FEFF 		bl	chOQWriteTimeout
 1630 01ca 0238     		subs	r0, r0, #2
 1631 01cc 4142     		rsbs	r1, r0, #0
 1632 01ce 4141     		adcs	r1, r1, r0
 1633 01d0 0A20     		movs	r0, #10
 1634 01d2 FFF7FEFF 		bl	_test_assert
 1635 01d6 0346     		mov	r3, r0
 1636 01d8 0028     		cmp	r0, #0
 1637 01da 7FF45EAF 		bne	.L42
 1638 01de 2146     		mov	r1, r4
 1639 01e0 0222     		movs	r2, #2
 1640 01e2 2846     		mov	r0, r5
 1641 01e4 FFF7FEFF 		bl	chOQWriteTimeout
 1642 01e8 821E     		subs	r2, r0, #2
 1643 01ea 5142     		rsbs	r1, r2, #0
 1644 01ec 5141     		adcs	r1, r1, r2
 1645 01ee 0B20     		movs	r0, #11
 1646 01f0 FFF7FEFF 		bl	_test_assert
 1647 01f4 0028     		cmp	r0, #0
 1648 01f6 7FF450AF 		bne	.L42
 1649              	@ 546 "/home/cody/dev/chibios/trunk/os/ext/CMSIS/include/core_cmFunc.h" 1
 1650 01fa 86F31188 		MSR basepri, r6
 1651              	@ 0 "" 2
 1652              		.thumb
 1653 01fe A968     		ldr	r1, [r5, #8]
 1654 0200 0C20     		movs	r0, #12
 1655 0202 D1F10101 		rsbs	r1, r1, #1
 1656 0206 38BF     		it	cc
 1657 0208 0021     		movcc	r1, #0
 1658 020a FFF7FEFF 		bl	_test_assert
 1659 020e 0028     		cmp	r0, #0
 1660 0210 7FF440AF 		bne	.L62
 1661 0214 0021     		movs	r1, #0
 1662              	@ 546 "/home/cody/dev/chibios/trunk/os/ext/CMSIS/include/core_cmFunc.h" 1
 1663 0216 81F31188 		MSR basepri, r1
 1664              	@ 0 "" 2
 1665              		.thumb
 1666 021a 0A22     		movs	r2, #10
 1667 021c 0648     		ldr	r0, .L65
 1668 021e FFF7FEFF 		bl	chOQPutTimeout
ARM GAS  /tmp/cc76wJM6.s 			page 87


 1669 0222 B0F1FF33 		subs	r3, r0, #-1
 1670 0226 5942     		rsbs	r1, r3, #0
 1671 0228 5941     		adcs	r1, r1, r3
 1672 022a 0D20     		movs	r0, #13
 1673 022c 03B0     		add	sp, sp, #12
 1674              		@ sp needed
 1675 022e BDE8F043 		pop	{r4, r5, r6, r7, r8, r9, lr}
 1676 0232 FFF7FEBF 		b	_test_assert
 1677              	.L66:
 1678 0236 00BF     		.align	2
 1679              	.L65:
 1680 0238 00000000 		.word	.LANCHOR1
 1681 023c 00000000 		.word	.LC0
 1682 0240 00000000 		.word	wa
 1683 0244 00000000 		.word	ch
 1684 0248 00000000 		.word	thread2
 1685 024c 00000000 		.word	threads
 1686              		.size	queues2_execute, .-queues2_execute
 1687              		.global	patternqueues
 1688              		.global	testqueues2
 1689              		.global	testqueues1
 1690              		.section	.rodata.testqueues1,"a",%progbits
 1691              		.align	2
 1692              		.type	testqueues1, %object
 1693              		.size	testqueues1, 16
 1694              	testqueues1:
 1695 0000 20000000 		.word	.LC2
 1696 0004 00000000 		.word	queues1_setup
 1697 0008 00000000 		.word	0
 1698 000c 00000000 		.word	queues1_execute
 1699              		.section	.rodata.testqueues2,"a",%progbits
 1700              		.align	2
 1701              		.type	testqueues2, %object
 1702              		.size	testqueues2, 16
 1703              	testqueues2:
 1704 0000 08000000 		.word	.LC1
 1705 0004 00000000 		.word	queues2_setup
 1706 0008 00000000 		.word	0
 1707 000c 00000000 		.word	queues2_execute
 1708              		.section	.rodata.str1.4,"aMS",%progbits,1
 1709              		.align	2
 1710              	.LC0:
 1711 0000 41424344 		.ascii	"ABCD\000"
 1711      00
 1712 0005 000000   		.space	3
 1713              	.LC1:
 1714 0008 51756575 		.ascii	"Queues, output queues\000"
 1714      65732C20 
 1714      6F757470 
 1714      75742071 
 1714      75657565 
 1715 001e 0000     		.space	2
 1716              	.LC2:
 1717 0020 51756575 		.ascii	"Queues, input queues\000"
 1717      65732C20 
 1717      696E7075 
 1717      74207175 
ARM GAS  /tmp/cc76wJM6.s 			page 88


 1717      65756573 
 1718 0035 000000   		.section	.rodata.patternqueues,"a",%progbits
 1719              		.align	2
 1720              		.type	patternqueues, %object
 1721              		.size	patternqueues, 12
 1722              	patternqueues:
 1723 0000 00000000 		.word	testqueues1
 1724 0004 00000000 		.word	testqueues2
 1725 0008 00000000 		.word	0
 1726              		.section	.data.oq,"aw",%progbits
 1727              		.align	2
 1728              		.set	.LANCHOR1,. + 0
 1729              		.type	oq, %object
 1730              		.size	oq, 36
 1731              	oq:
 1732 0000 00000000 		.word	oq
 1733 0004 00000000 		.word	oq
 1734 0008 04000000 		.word	4
 1735 000c 48010000 		.word	test+328
 1736 0010 4C010000 		.word	test+332
 1737 0014 48010000 		.word	test+328
 1738 0018 48010000 		.word	test+328
 1739 001c 00000000 		.word	notify
 1740 0020 00000000 		.word	0
 1741              		.section	.data.iq,"aw",%progbits
 1742              		.align	2
 1743              		.set	.LANCHOR0,. + 0
 1744              		.type	iq, %object
 1745              		.size	iq, 36
 1746              	iq:
 1747 0000 00000000 		.word	iq
 1748 0004 00000000 		.word	iq
 1749 0008 00000000 		.word	0
 1750 000c 00000000 		.word	test
 1751 0010 04000000 		.word	test+4
 1752 0014 00000000 		.word	test
 1753 0018 00000000 		.word	test
 1754 001c 00000000 		.word	notify
 1755 0020 00000000 		.word	0
 1756              		.comm	__gnu_lto_v1,1,1
 1757              		.ident	"GCC: (GNU Tools for ARM Embedded Processors) 4.8.4 20140526 (release) [ARM/embedded-4_8-br
ARM GAS  /tmp/cc76wJM6.s 			page 89


DEFINED SYMBOLS
                            *ABS*:0000000000000000 testqueues.c
     /tmp/cc76wJM6.s:922    .text.notify:0000000000000000 $t
     /tmp/cc76wJM6.s:927    .text.notify:0000000000000000 notify
     /tmp/cc76wJM6.s:934    .text.thread1:0000000000000000 $t
     /tmp/cc76wJM6.s:939    .text.thread1:0000000000000000 thread1
     /tmp/cc76wJM6.s:951    .text.thread1:0000000000000010 $d
     /tmp/cc76wJM6.s:954    .text.queues1_setup:0000000000000000 $t
     /tmp/cc76wJM6.s:959    .text.queues1_setup:0000000000000000 queues1_setup
     /tmp/cc76wJM6.s:978    .text.queues1_setup:000000000000001c $d
     /tmp/cc76wJM6.s:983    .text.thread2:0000000000000000 $t
     /tmp/cc76wJM6.s:988    .text.thread2:0000000000000000 thread2
     /tmp/cc76wJM6.s:1001   .text.thread2:0000000000000010 $d
     /tmp/cc76wJM6.s:1004   .text.queues2_setup:0000000000000000 $t
     /tmp/cc76wJM6.s:1009   .text.queues2_setup:0000000000000000 queues2_setup
     /tmp/cc76wJM6.s:1028   .text.queues2_setup:000000000000001c $d
     /tmp/cc76wJM6.s:1033   .text.queues1_execute:0000000000000000 $t
     /tmp/cc76wJM6.s:1038   .text.queues1_execute:0000000000000000 queues1_execute
     /tmp/cc76wJM6.s:1361   .text.queues1_execute:0000000000000250 $d
     /tmp/cc76wJM6.s:1369   .text.queues2_execute:0000000000000000 $t
     /tmp/cc76wJM6.s:1374   .text.queues2_execute:0000000000000000 queues2_execute
     /tmp/cc76wJM6.s:1680   .text.queues2_execute:0000000000000238 $d
     /tmp/cc76wJM6.s:1722   .rodata.patternqueues:0000000000000000 patternqueues
     /tmp/cc76wJM6.s:1703   .rodata.testqueues2:0000000000000000 testqueues2
     /tmp/cc76wJM6.s:1694   .rodata.testqueues1:0000000000000000 testqueues1
     /tmp/cc76wJM6.s:1691   .rodata.testqueues1:0000000000000000 $d
     /tmp/cc76wJM6.s:1700   .rodata.testqueues2:0000000000000000 $d
     /tmp/cc76wJM6.s:1709   .rodata.str1.4:0000000000000000 $d
     /tmp/cc76wJM6.s:1719   .rodata.patternqueues:0000000000000000 $d
     /tmp/cc76wJM6.s:1727   .data.oq:0000000000000000 $d
     /tmp/cc76wJM6.s:1731   .data.oq:0000000000000000 oq
     /tmp/cc76wJM6.s:1742   .data.iq:0000000000000000 $d
     /tmp/cc76wJM6.s:1746   .data.iq:0000000000000000 iq
                            *COM*:0000000000000001 __gnu_lto_v1
     /tmp/cc76wJM6.s:953    .text.thread1:0000000000000014 $t
     /tmp/cc76wJM6.s:982    .text.queues1_setup:0000000000000028 $t
     /tmp/cc76wJM6.s:1003   .text.thread2:0000000000000014 $t
     /tmp/cc76wJM6.s:1032   .text.queues2_setup:0000000000000028 $t
     /tmp/cc76wJM6.s:1368   .text.queues1_execute:0000000000000268 $t

UNDEFINED SYMBOLS
chIQGetTimeout
chIQObjectInit
wa
chOQPutTimeout
chOQObjectInit
_test_assert
chIQPutI
test_emit_token
_test_assert_sequence
chIQReadTimeout
chIQResetI
chThdCreateStatic
test_wait_threads
ch
threads
chOQGetI
ARM GAS  /tmp/cc76wJM6.s 			page 90


chOQWriteTimeout
chOQResetI
test
