ARM GAS  /tmp/ccP0CSKa.s 			page 1


   1              		.syntax unified
   2              		.cpu cortex-m4
   3              		.eabi_attribute 27, 3
   4              		.eabi_attribute 28, 1
   5              		.fpu fpv4-sp-d16
   6              		.eabi_attribute 20, 1
   7              		.eabi_attribute 21, 1
   8              		.eabi_attribute 23, 3
   9              		.eabi_attribute 24, 1
  10              		.eabi_attribute 25, 1
  11              		.eabi_attribute 26, 1
  12              		.eabi_attribute 30, 2
  13              		.eabi_attribute 34, 1
  14              		.eabi_attribute 18, 4
  15              		.thumb
  16              		.file	"testthd.c"
  17              		.section	.gnu.lto_.jmpfuncs.fcb8b00a7c7179dc,"",%progbits
  18 0000 789CBD91 		.ascii	"x\234\275\221;\016\3020\020Dg\327\211\023\210\204@\212"
  18      3B0EC230 
  18      104467D7 
  18      89138884 
  18      408A
  19 0012 287316F2 		.ascii	"(s\026\362k\251\351\251r\006\232\224\224\224\021\022"
  19      6BA9E9A9 
  19      72069A94 
  19      94941112 
  20 0022 77E2189C 		.ascii	"w\342\030\234\201\012\307\371h#(\220\203p\343\261g\336"
  20      810AC7F9 
  20      68232890 
  20      8370E3B1 
  20      67DE
  21 0034 CADE6530 		.ascii	"\312\336e0>\255\253\002\266f\327\000\363\201*\002\031"
  21      3EADAB02 
  21      B666D700 
  21      F3812A02 
  21      19
  22 0045 75C2B36E 		.ascii	"u\302\263n\352uE\224\200nu\263\253\250\307}\343\332"
  22      EA754594 
  22      806E75B3 
  22      ABA8C77D 
  22      E3DA
  23 0057 D85DB547 		.ascii	"\330]\265G\233<\267Iu$\2147\226\365\022\204\035\353"
  23      9B3CB749 
  23      75248C37 
  23      96F51284 
  23      1DEB
  24 0069 3BA0913B 		.ascii	";\240\221;\272rG7\356h,QE\324\362_\265\224\376\370\277"
  24      BA724737 
  24      EE682C51 
  24      45D4F25F 
  24      B594FEF8 
  25 007e 195D9D31 		.ascii	"\031]\2351\313\370G\003\321CC#\233\353\364R\350E\337"
  25      CBF84703 
  25      D1434323 
  25      9BEBF452 
  25      E845DF
  26 0091 CFFE180A 		.ascii	"\317\376\030\012+\020ZOc\276\260<\241\3254\306\302\242"
ARM GAS  /tmp/ccP0CSKa.s 			page 2


  26      2B105A4F 
  26      63BEB03C 
  26      A1D534C6 
  26      C2A2
  27 00a3 DE0A40F6 		.ascii	"\336\012@\366B_\366f\350\002\263\256\0225\321\276F\211"
  27      425FF666 
  27      E802B3AE 
  27      1235D1BE 
  27      4689
  28 00b5 4A18D047 		.ascii	"J\030\320G0\032\364f\230O\247Y^\224\340\024\234\201"
  28      301AF466 
  28      984FA759 
  28      5E94E014 
  28      9C81
  29 00c7 7370012E 		.ascii	"sp\001.\361\002\231\214\226R"
  29      F102998C 
  29      9652
  30              		.text
  31              		.section	.gnu.lto_.inline.fcb8b00a7c7179dc,"",%progbits
  32 0000 789C6362 		.ascii	"x\234cb`b\300\006^3Bh6\006\206\303\014\215\214\214\014"
  32      6062C006 
  32      5E334268 
  32      360686C3 
  32      0C8D8C8C 
  33 0015 4C4617DA 		.ascii	"LF\027\332\230\031\330\026\310\203\3253\3630\20042r"
  33      9819D816 
  33      C883D533 
  33      F3308034 
  33      3272
  34 0027 01D9EC02 		.ascii	"\001\331\354\002\014\014\254\023\374\030\200\210d6\320"
  34      0C0CAC13 
  34      FC188088 
  34      6436D0
  35 0036 443EA0E1 		.ascii	"D>\240\341\214 \026\013\310:\220\371\214/\330Y $\310"
  35      8C20160B 
  35      C83A90F9 
  35      8C2FD859 
  35      2024C8
  36 0049 2A266EA0 		.ascii	"*&n\240=\023\374X\031N0\364\203\334aq`+vw@\025R\342"
  36      3D13FC58 
  36      194E30F4 
  36      83DC6171 
  36      602B7677 
  37 0061 1C36865F 		.ascii	"\0346\206_\014z@;\352>\3640\302\355`\341\005\3311\301"
  37      0C7A403B 
  37      EA3EF430 
  37      C2ED60E1 
  37      05D931C1 
  38 0075 0F9D06D9 		.ascii	"\017\235\006\331\315\210)L\2314T\230\235AF\027\350\016"
  38      CD88294C 
  38      99345498 
  38      9D414617 
  38      E80E
  39 0087 8947DD08 		.ascii	"\211G\335\010w\200\375\307\300\312\007\012\253\011~"
  39      7780FDC7 
  39      C0CA070A 
  39      AB097E
ARM GAS  /tmp/ccP0CSKa.s 			page 3


  40 0096 13FCA0FE 		.ascii	"\023\374\240\376\005\351\204\010p0(Z\0015\311|\233\216"
  40      05E98408 
  40      7030285A 
  40      0135C97C 
  40      9B8E
  41 00a8 D0040E19 		.ascii	"\320\004\016\0314=\030|\260\"\006\000\323W?\251"
  41      343D187C 
  41      B0220600 
  41      D3573FA9 
  42              		.text
  43              		.section	.gnu.lto_.pureconst.fcb8b00a7c7179dc,"",%progbits
  44 0000 789C6362 		.ascii	"x\234cb`b\340e\200\0006\006IfIV+6+v+\016+\000\010\002"
  44      6062E065 
  44      80003606 
  44      49664956 
  44      2B362B76 
  45 001a 014F     		.ascii	"\001O"
  46              		.text
  47              		.section	.gnu.lto_thd1_execute.fcb8b00a7c7179dc,"",%progbits
  48 0000 789CB596 		.ascii	"x\234\265\226KO\023Q\024\307\317\275\245\266@kiA\036"
  48      4B4F1351 
  48      14C7CFBD 
  48      A5B6406B 
  48      69411E
  49 0013 26BC1F1A 		.ascii	"&\274\037\032\215\314Fc\334\311\353\033`\242K\230\022"
  49      8DCC4663 
  49      DCC9EB1B 
  49      60A24B98 
  49      12
  50 0024 3A6AC1D0 		.ascii	":j\301\320BB\\0\210\032\0226\230\270(\030\027FEc\214"
  50      42425C30 
  50      881A1236 
  50      98B82818 
  50      17464563 
  51 0039 46131383 		.ascii	"F\023\023\203,HL@\003\002.4\206\260 `\374\010H|\325"
  51      2C484C40 
  51      03022E34 
  51      86B02060 
  51      FC08487C 
  52 004e 73EEB4D3 		.ascii	"s\356\264\323\233N\231\244\244L\322;\3773s\3569\377"
  52      9B4E99A4 
  52      A44CD23B 
  52      FF3373EE 
  52      39FF
  53 0060 7B7FBD4D 		.ascii	"{\177\275M9pH\277*\360s\274\020`\004\357\314\001\214"
  53      397048BF 
  53      2AF073BC 
  53      106004EF 
  53      CC018C
  54 0073 4FAE008C 		.ascii	"O\256\000\214\2729c$\200\301\010g#\227\230\310}\311"
  54      BA396324 
  54      80C10867 
  54      239798C8 
  54      7DC9
  55 0085 E737E3F1 		.ascii	"\3477\343\361\027wo?\232cS\374\030\007\215\201\003\007"
  55      17776F3F 
  55      9A6353FC 
ARM GAS  /tmp/ccP0CSKa.s 			page 4


  55      18078D81 
  55      0307
  56 0097 E6C481BB 		.ascii	"\346\304\201\273(tSX@\241\207B/\205>\012\375\024\006"
  56      28745358 
  56      40A18742 
  56      2F853E0A 
  56      FD1406
  57 00aa 282CA1B0 		.ascii	"(,\241\260\224\3022\012+(\254\244\241\012\007G5\251"
  57      94C2320A 
  57      2B28ACA4 
  57      A10A0747 
  57      35A9
  58 00bc 1A52B5A4 		.ascii	"\032R\265\244\352H\325\223j \325H\252\211\024\332q\302"
  58      EA48D593 
  58      6A20D548 
  58      AA8914DA 
  58      71C2
  59 00ce 4D5D9FAC 		.ascii	"M]\237\254\001P\205\275N\034\311\363\005\306\351\356"
  59      015085BD 
  59      4E1CC9F3 
  59      05C6E9EE 
  60 00de F8043736 		.ascii	"\370\00476b\333\037\362\272\330\0034\330\313\370)x\256"
  60      62DB1FF2 
  60      BAD80334 
  60      D8CBF829 
  60      78AE
  61 00f0 17692CEF 		.ascii	"\027i,\357\036L\217N\222r^\207_z\214\324\241\260(q\221"
  61      1E4C8F4E 
  61      92725E87 
  61      5F7A8CD4 
  61      A1B02871 
  62 0105 A184A472 		.ascii	"\241\204\244rI\333\204\305\3267\326\277\2366{\032B\177"
  62      49DB84C5 
  62      D637D6BF 
  62      9E367B1A 
  62      427F
  63 0117 38A34846 		.ascii	"8\243HF\0141?\261\360\312\217\365\214\306*\023\245U"
  63      0C313FB1 
  63      F0CA8FF5 
  63      8CC62A13 
  63      A555
  64 0129 26F6BE97 		.ascii	"&\366\276\227U\236\204g\272\256o~y\363\370\004.\306"
  64      559E8467 
  64      BAAE6F7E 
  64      79F3F804 
  64      2EC6
  65 013b 88F4731A 		.ascii	"\210\364s\032s\223/\235\334\344\223\257qR\005a1\233"
  65      73932F9D 
  65      DCE493AF 
  65      71520561 
  65      319B
  66 014d DC14081F 		.ascii	"\334\024\010\037\335\024v\261\031,\214\232\231\332p"
  66      DD1476B1 
  66      192C8C9A 
  66      99DA70
  67 015c 187B7DB4 		.ascii	"\030{}\264\213=\021\253\255J\024\216\340^\231\205\013"
  67      8B3D11AB 
ARM GAS  /tmp/ccP0CSKa.s 			page 5


  67      AD4A148E 
  67      E05E9985 
  67      0B
  68 016d B13DD5E2 		.ascii	"\261=\325\342\211Z\234\346?M\316\037\033\177?\261p'"
  68      895A9CE6 
  68      3F4DCE1F 
  68      1B7F3FB1 
  68      7027
  69 017f 3FB95F0E 		.ascii	"?\271_\016,B\311\354w<\036\367a\306*\224'\3379M\207"
  69      2C42C9EC 
  69      773C1EF7 
  69      61C62A94 
  69      27DF394D 
  70 0194 1E55B0A0 		.ascii	"\036U\260\240\225q\312\366\2569h.\275wk\354\260\312"
  70      9571CAF6 
  70      AE39682E 
  70      BD776BEC 
  70      B0CA
  71 01a6 12FB0FF4 		.ascii	"\022\373\017\364\244\\c\276*\270|_\217\235\327XQb\203"
  71      A45C63BE 
  71      2AB87C5F 
  71      8F9DD758 
  71      516283
  72 01b9 90A65FD8 		.ascii	"\220\246_\330\377\270\3462\236\020(\274\316\240Q\323"
  72      FFB8E632 
  72      9E1028BC 
  72      CEA051D3 
  73 01c9 7AC0EC58 		.ascii	"z\300\354X\034\026\376\251Yq\006V\275T\222\330\277\225"
  73      1C16FEA9 
  73      59710656 
  73      BD5492D8 
  73      BF95
  74 01db D8BBB266 		.ascii	"\330\273\262f\317\366\311~\311\216}u.\330\317J\354g"
  74      CFF6C97E 
  74      C98E7D75 
  74      2ED8CF4A 
  74      EC67
  75 01ed D3D8BF13 		.ascii	"\323\330\277\023\253\255\331\203}\265\205\375\234\304"
  75      ABADD983 
  75      7DB585FD 
  75      9CC4
  76 01fb 7E4962EF 		.ascii	"~Ib\357\306\"\202\375\037+\373\202L\354])\366n;\366"
  76      C62282FD 
  76      1F2BFB82 
  76      4CEC5D29 
  76      F66E3BF6 
  77 020f E183606F 		.ascii	"\341\203`o\262\352\245\235\"\366\337$\366\236\254\331"
  77      B2EAA59D 
  77      22F6DF24 
  77      F69EACD9 
  78 021f 4BBF92D9 		.ascii	"K\277\222\331\235\373E\033\366\265\271`\277\"\261_I"
  78      9DFB451B 
  78      F6B5B960 
  78      BF22B15F 
  78      49
  79 0230 63BF2A56 		.ascii	"c\277*V[\267\007\373Z\013\3735\371\334/\246\330{\261"
  79      5BB707FB 
ARM GAS  /tmp/ccP0CSKa.s 			page 6


  79      5A0BFB35 
  79      F9DC2FA6 
  79      D87BB1
  80 0243 8860FFD7 		.ascii	"\210`\377\327\312\336\227\211\275'\305\336k\307\376"
  80      CADE9789 
  80      BD27C5DE 
  80      6BC7FE
  81 0252 DA41B037 		.ascii	"\332A\2607Y\2419\203\375\256\304\336\2375{\307~\317"
  81      59A13983 
  81      FDAEC4DE 
  81      9F357BC7 
  81      7ECF
  82 0264 BD1DFBFA 		.ascii	"\275\035\373\372\\\260\337\222\330o\245\261\337\026"
  82      5CB0DF92 
  82      D86FA5B1 
  82      DF16
  83 0272 AB6DD883 		.ascii	"\253m\330\203}\275\205\375w\371\334K\354\003XD\260\377"
  83      7DBD85FD 
  83      77F9DC4B 
  83      EC035844 
  83      B0FF
  84 0284 67655F92 		.ascii	"ge_\222\211\275?\305>`\307>r\020\354MVh\316`\037\373"
  84      89BD3FC5 
  84      3E60C73E 
  84      7210EC4D 
  84      5668CE60 
  85 029a 91625F9A 		.ascii	"\221b_\2325\373\274\375\236\373e\033\366\215\271`\277"
  85      35FBBCFD 
  85      9EFB651B 
  85      F68DB960 
  85      BF
  86 02ab 23B1DF49 		.ascii	"#\261\337Ic\377S\254\266i\017\366\215\026\366\273\362"
  86      63FF53AC 
  86      B6690FF6 
  86      8D16F6BB 
  86      F2
  87 02bc B95F4EB1 		.ascii	"\271_N\261/\303\"\202}\334\312\276\"\023\373\322\024"
  87      2FC32282 
  87      7DDCCABE 
  87      2213FBD2 
  87      14
  88 02cd FB323BF6 		.ascii	"\3732;\366C\007\301\336d\205\346\310\352\330\346\324"
  88      4307C1DE 
  88      6485E6C8 
  88      EAD8E6D4 
  89 02dd 5861A201 		.ascii	"Xa\242\001\230sKTc\261\330\363\010e\335\332\234V-I\245"
  89      98734B54 
  89      63B1D8F3 
  89      0865DDDA 
  89      9C562D49 
  90 02f2 AAF425F0 		.ascii	"\252\364%\360\262\244\363\262*\0306\234\227\247\234"
  90      B2A4F3B2 
  90      2A18369C 
  90      97A79C
  91 0301 63AFCFC0 		.ascii	"c\257\317\300\222%\214\253\023\271\340\037N2\251(\241"
  91      92258CAB 
  91      13B9E01F 
ARM GAS  /tmp/ccP0CSKa.s 			page 7


  91      4E32A928 
  91      A1
  92 0312 FE708FA2 		.ascii	"\376p\217\242\366\007\207\225`\317\220\242\206\264n"
  92      F6078795 
  92      60CF90A2 
  92      86B46E
  93 0321 AD3FA244 		.ascii	"\255?\242D\007\006\373\256(\321\236HT\031\210\212{4"
  93      0706FBAE 
  93      28D19E48 
  93      5419888A 
  93      7B34
  94 0333 146C56E1 		.ascii	"\024lV\341\254m>\012\314\326\372\324\253\203AL\012E"
  94      AC6D3E0A 
  94      CCD6FAD4 
  94      AB83414C 
  94      0A45
  95 0345 43033D5D 		.ascii	"C\003=]\301Hs\010x\007\360v\340m\300[\201\267\300\241"
  95      C1487308 
  95      7807F076 
  95      E06DC05B 
  95      81B7C0A1 
  96 0359 96D6B6F6 		.ascii	"\226\326\266\366\016\370\017\033\256\304\300"
  96      0EF80F1B 
  96      AEC4C0
  97              		.text
  98              		.section	.gnu.lto_thread.fcb8b00a7c7179dc,"",%progbits
  99 0000 789C5D4F 		.ascii	"x\234]O1N\002Q\020}o\2265\226Z\332y\002~\274\013&Z\342"
  99      314E0251 
  99      107D6F96 
  99      35965ADA 
  99      79027EBC 
 100 0018 DF0DFB43 		.ascii	"\337\015\373C`\023\370\222\020\013\026\242\011%\265"
 100      6013F892 
 100      100B16A2 
 100      0925B5
 101 0027 565E00AD 		.ascii	"V^\000\255\255\274\200\020\302\005\340\026\012\305:"
 101      ADBC8010 
 101      C205E016 
 101      0AC53A
 102 0036 7FC1C649 		.ascii	"\177\301\306I\336\274\231\314{\231\031\201\340\177\\"
 102      DEBC99CC 
 102      7B991981 
 102      E07F5C
 103 0045 28DE1557 		.ascii	"(\336\025W\012F\240\314\026\300\370T\310P\200\030\011"
 103      0A46A0CC 
 103      16C0F854 
 103      C8508018 
 103      09
 104 0056 47B7ACB4 		.ascii	"G\267\254\264o\362\271)\313\371\367\317v\312\363X\330"
 104      6FF2B929 
 104      CBF9F7CF 
 104      76CAF358 
 104      D8
 105 0067 2122B86A 		.ascii	"!\"\270j\026\343\261(f\227\200\255\332\206\346\340\277"
 105      16E3B128 
 105      669780AD 
 105      DA86E6E0 
ARM GAS  /tmp/ccP0CSKa.s 			page 8


 105      BF
 106 0078 A6048EBE 		.ascii	"\246\004\216\2760\371x\332\257\245\311W\306h1z\3013"
 106      30F978DA 
 106      AFA5C957 
 106      C668317A 
 106      C133
 107 008a D5D9A2DC 		.ascii	"\325\331\242\334(\363x\314\022\265\203\002x\300\256"
 107      28F378CC 
 107      12B58302 
 107      78C0AE
 108 0099 9816678E 		.ascii	"\230\026g\216b\217cu9\275\020+\2147\345\311A\027\314"
 108      628F6375 
 108      39BD102B 
 108      8C37E5C9 
 108      4117CC
 109 00ac B5BF571A 		.ascii	"\265\277W\032*\324e\341Gc\262\274\223\032\233'C\223"
 109      2AD465E1 
 109      4763B2BC 
 109      931A9B27 
 109      4393
 110 00be A4036333 		.ascii	"\244\003c3w\347\362\276\361\275\373n\333\370\264\357"
 110      77E7F2BE 
 110      F1BDFB6E 
 110      DBF8B4EF 
 111 00ce 4DCF57EC 		.ascii	"M\317W\354\263\244n\361\013\210\364<y"
 111      B3A46EF1 
 111      0B88F43C 
 111      79
 112              		.text
 113              		.section	.gnu.lto_thd2_execute.fcb8b00a7c7179dc,"",%progbits
 114 0000 789CB596 		.ascii	"x\234\265\226QhSg\024\307\317\371ncbMLS\353\032;[\252"
 114      51685367 
 114      14C7CFF9 
 114      6E63624D 
 114      4C53EB1A 
 115 0017 B5D656EB 		.ascii	"\265\326V\353\335\303D\006{P[\007>\370b\025\266\247"
 115      DDC34406 
 115      7B505B07 
 115      3EF86215 
 115      B6A7
 116 0029 91DE84E6 		.ascii	"\221\336\204\346\272\245\221$\225\311\036\274\332M\004"
 116      BAA59124 
 116      95C91EBC 
 116      DA4D04
 117 0038 45BAB7B2 		.ascii	"E\272\267\262\341\303\330\346\306\030\016\2051\321>"
 117      E1C3D8E6 
 117      C6180E85 
 117      31D13E
 118 0047 28BE38CA 		.ascii	"(\2768\312j\307\230l%\017\231\253\370&(\203\215Y\215"
 118      6AC7986C 
 118      250F99AB 
 118      F8262883 
 118      8D598D
 119 005a E77CB9F7 		.ascii	"\347|\271\367\346#\267\311Li/\344\273\347\344\236\357"
 119      E623B7C9 
 119      4C692FE4 
 119      BBE7E49E 
ARM GAS  /tmp/ccP0CSKa.s 			page 9


 119      EF
 120 006b 7CFFEFFC 		.ascii	"|\377\357\374\316\227\\\001\002*\257\015\364\031\014"
 120      CE975C01 
 120      022AAF0D 
 120      F4190C
 121 007a 02E4E98E 		.ascii	"\002\344\351\216\032\240\230\230\0018\025\020\210l\000"
 121      1AA09898 
 121      01381510 
 121      886C00
 122 0089 C2498127 		.ascii	"\302I\201'\337A\031\373\275\270Y(\026//\234\371r\012"
 122      DF4119FB 
 122      BDB85928 
 122      162F2F9C 
 122      F9720A
 123 009c 2F8A7E01 		.ascii	"/\212~\001&\202F\003\372h\020~v\003\3546\262\033d7\304"
 123      26824603 
 123      FA68107E 
 123      7603EC36 
 123      B21B6437 
 124 00b1 6E98DD08 		.ascii	"n\230\335\010\273\315\354\266\260\333\312n\224\3356"
 124      BBCDECB6 
 124      B0DBCA6E 
 124      94DD36
 125 00c0 76DB79D8 		.ascii	"v\333y\330\304\303f\032\264.\266\266\260\325\315\326"
 125      C4C3661A 
 125      B42EB6B6 
 125      B0D5CDD6 
 126 00d0 56B67AD8 		.ascii	"V\266z\330\332\306V/[}l\221&\037|dY\023\235\000\206"
 126      DAC6562F 
 126      5B7D6C91 
 126      261F7C64 
 126      59139D00 
 127 00e5 D4789846 		.ascii	"\324x\230F\026~\004\005\337\265\237\341t~\362\311\235"
 127      167E0405 
 127      DFB59FE1 
 127      747EF2C9 
 127      9D
 128 00f6 86187E4E 		.ascii	"\206\030~N*GP\364\303wV\223\211\015\237\301\247\247"
 128      2A4750F4 
 128      C3775693 
 128      890D9FC1 
 128      A7A7
 129 0108 26D8F27D 		.ascii	"&\330\362}\010\377Y\223l\255J\311\024o#\231\340X~,\327"
 129      08FF5993 
 129      6CAD4AC9 
 129      146F2399 
 129      E0587E2C 
 130 011d 8A92CDE5 		.ascii	"\212\222\315\345\347\356\275\356\256Y2\254/.\351\212"
 130      E7EEBDEE 
 130      AE5932AC 
 130      2F2EE98A 
 131 012d 909271F3 		.ascii	"\220\222q\363\334\374\225\010\315--l\240Lc\240\0040"
 131      DCFC9508 
 131      CD2D2D6C 
 131      A04C63A0 
 131      0430
 132 013f 829BB6C3 		.ascii	"\202\233\266\303\267\226e\025~\373\341\253>\332L\311"
ARM GAS  /tmp/ccP0CSKa.s 			page 10


 132      B7966515 
 132      7EFBE1AB 
 132      3EDA4CC9 
 133 014f B3DE3031 		.ascii	"\263\33601\300\272,V\263\232u\235e\2531%g\263\232F\251"
 133      C0BA2C56 
 133      B39A759D 
 133      65AB3125 
 133      67B39A46 
 134 0164 6398DD18 		.ascii	"c\230\335\030^\242\304d\243k\227\024N^m\213\341\327"
 134      5EA2C464 
 134      A36B9714 
 134      4E5E6D8B 
 134      E1D7
 135 0176 72B79BED 		.ascii	"r\267\233\355\304Y\252\225\233x\015-\317\271\204\235"
 135      C459AA95 
 135      9B780D2D 
 135      CFB9849D 
 136 0186 4BF0FC6F 		.ascii	"K\360\374o\234\371\343go\237\233\377d\265S/\215\222"
 136      9CF9E367 
 136      6F9F9BFF 
 136      64B5532F 
 136      8D92
 137 0198 70302E14 		.ascii	"p0.\024\213\3050E\334\205\250\363\314\347*\014\032\222"
 137      8BC53045 
 137      DC85A8F3 
 137      CCE72A0C 
 137      1A92
 138 01aa 05EF4C70 		.ascii	"\005\357LpthV\343\271\374<`\342Z\003\355\372\003\177"
 138      746856E3 
 138      B9FC3C60 
 138      E25A03ED 
 138      FA037F
 139 01bd 133531DC 		.ascii	"\02351\334\001G/Z\223{Ll\262\013D4#R\376O\263\376\322"
 139      01472F5A 
 139      937B4C6C 
 139      B20B4434 
 139      2352FE4F 
 140 01d4 370C8AAE 		.ascii	"7\014\212\256]$\324\225\336\354\256\270.%\365\363b\353"
 140      5D24D495 
 140      DEECAEB8 
 140      2E25F5F3 
 140      62EB
 141 01e6 166135C2 		.ascii	"\026a5\302)\231\3755\205\275\277n\366\3129\251\213\375"
 141      2999FD35 
 141      85BDBF6E 
 141      F6CA39A9 
 141      8BFD
 142 01f8 742DF65D 		.ascii	"t-\366]\313\301\376\272\302\376z\005\373\033r\267[\252"
 142      CBC1FEBA 
 142      C2FE7A05 
 142      FB1B72B7 
 142      5BAA
 143 020a B0EFF2B0 		.ascii	"\260\357\362\260\237R\330O+\354\003\224D\262\177\352"
 143      9F52D84F 
 143      2BEC0394 
 143      44B27FEA 
 144 021a 65DFB818 		.ascii	"e\337\270\030{\177\231}\240\026\373\324J\260wI\215p"
ARM GAS  /tmp/ccP0CSKa.s 			page 11


 144      7B7F997D 
 144      A016FBD4 
 144      4AB07749 
 144      8D70
 145 022c A598FDEF 		.ascii	"\245\230\375\357\012\373`\335\354\033\226z\356\037\324"
 145      0AFB60DD 
 145      EC1B967A 
 145      EE1FD4
 146 023b 60DFBD1C 		.ascii	"`\337\275\034\354g\024\3663\025\354\357\312\335n\255"
 146      EC6714F6 
 146      3315ECEF 
 146      CADD6EAD 
 147 024b C2BEDBC3 		.ascii	"\302\276\333\303~V=\367\017\312\354C\224D\262/z\331"
 147      7E563DF7 
 147      0FCAEC43 
 147      9444B22F 
 147      7AD9
 148 025d 8717631F 		.ascii	"\207\027c\037,\263\017\325b\177l%\330\273\254H\\\211"
 148      2CB30FD5 
 148      627F6C25 
 148      D8BBAC48 
 148      5C89
 149 026f FDBF0AFB 		.ascii	"\375\277\012\373H\335\354\265\245\236\373Z\354{\226"
 149      48DDECB5 
 149      A59EFB5A 
 149      EC7B96
 150 027e 83FD7D85 		.ascii	"\203\375}\205\375\375\012\366\177\311\335n\253\302\276"
 150      FDFD0AF6 
 150      7FC9DD6E 
 150      ABC2BE
 151 028d C7C37E5E 		.ascii	"\307\303~^=\367\012\373fJ\"\331?\367\262oY\214}\244"
 151      3DF70AFB 
 151      664A22D9 
 151      3FF7B26F 
 151      598C7DA4 
 152 02a1 CCBEB916 		.ascii	"\314\276\271\026\373\354J\260wY\2218\200\0318\375\370"
 152      FBEC4AB0 
 152      77599138 
 152      801938FD 
 152      F8
 153 02b2 D1EDABE7 		.ascii	"\321\355\253\3475\027\215\275\026\277\312 \374H\232"
 153      35178DBD 
 153      16BFCA20 
 153      FC489A
 154 02c1 2987567A 		.ascii	")\207Vz\021\352\200;\350H\262\323\265t\262\345>\237"
 154      11EA803B 
 154      E848B2D3 
 154      B574B2E5 
 154      3E9F
 155 02d3 B69FAF77 		.ascii	"\266\237\257w\233!\237\277v\341M\247\032\255uw\226\362"
 155      9B219FBF 
 155      76E14DA7 
 155      1AAD7577 
 155      96F2
 156 02e5 0256DFAF 		.ascii	"\002V\337\257\312\303?\303\325\032\253w9\032kAi\254"
 156      CAC33FC3 
 156      D51AAB77 
ARM GAS  /tmp/ccP0CSKa.s 			page 12


 156      391A6B41 
 156      69AC
 157 02f7 858AC67A 		.ascii	"\205\212\306z&7\333W\245\261z=\215\365\\\375Qyx\313"
 157      2637DB57 
 157      A5B17A3D 
 157      8DF55CFD 
 157      517978CB 
 158 030b EF942B4A 		.ascii	"\357\224+JIdc=\3636V\233\332X>\033hk\271\261\242\265"
 158      4964633D 
 158      F336569B 
 158      DA583E1B 
 158      686BB9B1 
 159 0321 1AEB575C 		.ascii	"\032\353W\\\211\316rY\221\272\227\355\254\030\376M\206"
 159      89CE7259 
 159      91BA97ED 
 159      AC18FE4D 
 159      86
 160 0332 EC24503A 		.ascii	"\354$P:)\206\377`\207\322C\205\013\355\316\306\333\373"
 160      2986FF60 
 160      87D24385 
 160      0BEDCEC6 
 160      DBFB
 161 0344 61C79254 		.ascii	"a\307\222Tq\371\234R\200;\351\025\303n7\312lb+\007\215"
 161      71F99C52 
 161      803BE915 
 161      C36E37CA 
 161      6C622B07 
 162 0359 17FE185F 		.ascii	"\027\376\030_\343\011\214\032\366\177\246\211\0338\352"
 162      E3098C1A 
 162      F67FA689 
 162      1B38EA
 163 0368 E3C29CE1 		.ascii	"\343\302\234\341\011j30\340.\035B\247\344\257v\300="
 163      096A3330 
 163      E02E1D42 
 163      A7E4AF76 
 163      C03D
 164 037a BBE41BCB 		.ascii	"\273\344\033\313%o\007\370\005\320\255\212\274\016S"
 164      256F07F8 
 164      05D0AD8A 
 164      BC0E53
 165 0389 47D17B38 		.ascii	"G\321{8\213\326\365d:\225\320\215t\374\204\036O\034"
 165      8BD6F564 
 165      3A95D08D 
 165      74FC841E 
 165      4F1C
 166 039b D78DA439 		.ascii	"\327\215\2449l\246\263z.36\372\236\236Kdsz&'\357\271"
 166      6CA6B37A 
 166      2E3336FA 
 166      9E9E4B64 
 166      737A2627 
 167 03b1 647CA701 		.ascii	"d|\247\001\273k\306\223A\321\346\250\361\376X\234\202"
 167      BB6BC693 
 167      41D1E6A8 
 167      F1FE589C 
 167      82
 168 03c2 92B96426 		.ascii	"\222\271d&\021\213gw&A\014\202\330\017b/\210}\260\347"
 168      118B6777 
ARM GAS  /tmp/ccP0CSKa.s 			page 13


 168      26410C82 
 168      D80F622F 
 168      887DB0E7 
 169 03d6 FF72243E 		.ascii	"\377r$>\310\351\003\007\207\016\014\225S\2453\211w\215"
 169      C8E90307 
 169      870E0C95 
 169      53A53389 
 169      778D
 170 03e8 D45B63A3 		.ascii	"\324[c\243\006%k:8t\250s8\226M\034\313\230;:\273_\003"
 170      06256B3A 
 170      3874A873 
 170      38964D1C 
 170      CB983B3A 
 171 03ff 91017F2A 		.ascii	"\221\001\177*\221JgN\200\030\200U{\367\015\014\356\207"
 171      914A674E 
 171      80188055 
 171      7BF70D0C 
 171      EE87
 172 0411 173D261D 		.ascii	"\027=&\035~"
 172      7E
 173              		.text
 174              		.section	.gnu.lto_thd3_execute.fcb8b00a7c7179dc,"",%progbits
 175 0000 789CAD57 		.ascii	"x\234\255W]H\034W\024>wfg\377w\273V\022\210\310fU4h"
 175      5D481C57 
 175      143E7766 
 175      67FF77BB 
 175      561288C8 
 176 0018 4C46A3C1 		.ascii	"LF\243\301\226\304\237\370\027}H\037j\204\366\251\254"
 176      96C49FF8 
 176      177D481F 
 176      6A84F6A9 
 176      AC
 177 0029 EBA24BAB 		.ascii	"\353\242K\253\206u-\015}\310\370C\261Xh\220\032\322"
 177      86752D0D 
 177      7DC8F843 
 177      B1586890 
 177      1AD2
 178 003b 96824192 		.ascii	"\226\202A\222\226R\222ji)!\304\2456%\266\030[H|\210"
 178      9652926A 
 178      692921C4 
 178      A53625B6 
 178      185B487C 
 179 0050 5AA46D5A 		.ascii	"Z\244mZ\002Bi\336Z\032\266\367\334\231\235\231\335\231"
 179      024269DE 
 179      5A1AB6F7 
 179      DC999D99 
 179      DD99
 180 0062 510BBBE0 		.ascii	"Q\013\273\340\231s\346\236s\356\271\337w\356\334+\007"
 180      9973E69E 
 180      73EEB9DF 
 180      77EEDC2B 
 180      07
 181 0073 1C64FFEE 		.ascii	"\034d\377\356\342_\000`\231>\3113@\270\213\367\000F"
 181      E25F0060 
 181      993EC933 
 181      40B88BF7 
 181      0046
ARM GAS  /tmp/ccP0CSKa.s 			page 14


 182 0085 9D1CE75F 		.ascii	"\235\034\347_\023Ar\3637\203 yy\305\2621\313\246X\002"
 182      134172F3 
 182      37832079 
 182      79C5B231 
 182      CBA65802 
 183 0099 B304C5B2 		.ascii	"\263\004\305\2623\313\256X\016f9\024\313\311,\247b\271"
 183      33CBAE58 
 183      0E663914 
 183      CBC92CA7 
 183      62B9
 184 00ab 98E5522C 		.ascii	"\230\345R,7\263\334\212\345a\226G\261\274\314\362r\376"
 184      37B3DC8A 
 184      E5619647 
 184      B1BCCCF2 
 184      72FE
 185 00bd 5BF4E9F6 		.ascii	"[\364\351\366\335\247\357\274>\342\227K\364\023\202"
 185      DDA7EFBC 
 185      3EE2974B 
 185      F41382
 186 00cc 0A10B8C0 		.ascii	"\012\020\270\300\3616\301\356p\272\334\036\257\317O"
 186      F136C1EE 
 186      70BADC1E 
 186      AFCF4F
 187 00db 2EBC4C70 		.ascii	".\274Lpe\244\030\256H\322\364\326\243\324]\356})91+"
 187      65A418AE 
 187      48D2F4D6 
 187      A3D45DEE 
 187      7D293931 
 188 00f0 FD9B4A11 		.ascii	"\375\233J\021\022#\024\205c\004\"\004^\242\006\011\261"
 188      12231485 
 188      63042204 
 188      5EA20609 
 188      B1
 189 0101 0767CB84 		.ascii	"\007g\313\204\345\006\227\334J\245\266\027g\177\331"
 189      E50697DC 
 189      4AA5B617 
 189      677FD9
 190 0110 20CFBEC0 		.ascii	" \317\276\300C\214\360\002\204\311\025\232\324N\015"
 190      438CF002 
 190      84C9159A 
 190      D44E0D
 191 011f 9B13850B 		.ascii	"\233\023\205\013\205\007\205O\031\363\243\021@\221\207"
 191      8507854F 
 191      19F3A311 
 191      409187
 192 012e 221FC53E 		.ascii	"\"\037\305>\014\336\217\342\000\212\002|W\210\"\250"
 192      0CDE8FE2 
 192      008A027C 
 192      578822A8 
 193 013e 041D44A3 		.ascii	"\004\035D\243\010E1:\224\240V\212\242\014\315C\250\225"
 193      0845313A 
 193      94A0568A 
 193      A20CCD43 
 193      A895
 194 0150 A3A840B3 		.ascii	"\243\250@\263R\011:\202oD\024U\370\272\032\265\032\024"
 194      52093A82 
 194      6F441455 
ARM GAS  /tmp/ccP0CSKa.s 			page 15


 194      F8BA1AB5 
 194      1A14
 195 0162 B5681E47 		.ascii	"\265h\036G\255\016\305I*\204z*\240\001\265F\324\232"
 195      AD0EC549 
 195      2A847A2A 
 195      A001B546 
 195      D49A
 196 0174 503B855A 		.ascii	"P;\205Z3j-(Z\321lC\255\035\305i\024\035(:QPD\004\230"
 196      336A2D28 
 196      5AD16C43 
 196      AD1DC569 
 196      141D283A 
 197 018d 90A48B21 		.ascii	"\220\244\213!yv@\370\350\357,\225HB7\341\360\311\257"
 197      797640F8 
 197      E8EF2C95 
 197      484237E1 
 197      F0C9AF
 198 01a0 C0D8C35B 		.ascii	"\300\330\303[\353k\265\212s:J\232\273&\252\031\322J"
 198      EB6BB58A 
 198      733A4A9A 
 198      BB26AA19 
 198      D24A
 199 01b2 F2876FC7 		.ascii	"\362\207o\307x\240\313\231\243\371#\204\345\213\020"
 199      78A0CB99 
 199      A3F92384 
 199      E58B10
 200 01c1 D6A17DE4 		.ascii	"\326\241}\344\344a\370T\222\244\255\365/\257V\320\371"
 200      E461F854 
 200      92A4ADF5 
 200      2FAF56D0 
 200      F9
 201 01d2 654B7A3E 		.ascii	"eKz>F\354\037\302\007\243\222\024\210\021\307\233\360"
 201      46EC1FC2 
 201      07A39214 
 201      8811C79B 
 201      F0
 202 01e3 8F34899A 		.ascii	"\2174\211\232s\200\005#\217N\306^\017\332ar\025\013"
 202      73800523 
 202      8F4EC65E 
 202      0FDA6172 
 202      150B
 203 01f5 EFC1CC8A 		.ascii	"\357\301\314\212\016\200\005^^(\010\223k\324\356#\365"
 203      0E80055E 
 203      5E280893 
 203      6BD4EE23 
 203      F5
 204 0206 4AE261BA 		.ascii	"J\342a\272x5\261\213N\217\271\004%\027\207\361\037\247"
 204      7835B18B 
 204      4E8FB904 
 204      251787F1 
 204      1FA7
 205 0218 E3C72797 		.ascii	"\343\307'\227\246\356\2149\344\262\373\010O\223\240"
 205      A6EE8C39 
 205      E4B2FB08 
 205      4F93A0
 206 0227 338F53AE 		.ascii	"3\217S\256\302D\322\236\036\021\324\372\334\021\302"
 206      C244D29E 
ARM GAS  /tmp/ccP0CSKa.s 			page 16


 206      1E11D4FA 
 206      DC11C2
 207 0236 83BC2E3E 		.ascii	"\203\274.>F<,\313\352\370\215\367\370\264\253\235z\323"
 207      463C2CCB 
 207      EAF88DF7 
 207      F8B4AB9D 
 207      7AD3
 208 0248 3C984048 		.ascii	"<\230@H\277s\252\341\336\010\221\273\023\347\361\021"
 208      BF73AAE1 
 208      DE0891BB 
 208      13E7F111 
 209 0258 F48F113F 		.ascii	"\364\217\021?n\335\211m\242\272\343`F\023w\323Io\006"
 209      6EDD896D 
 209      A2BAE360 
 209      461377D3 
 209      496F06
 210 026b 19259FAD 		.ascii	"\031%\237\255\257\331\366F\311w\307\254\030i\310\005"
 210      AFD9F646 
 210      C977C7AC 
 210      1869C805 
 211 027b 23F33A46 		.ascii	"#\363:F\346\263\030Y`\353h\264`\244\301\300\310\027"
 211      E6B31859 
 211      60EB68B4 
 211      60A4C1C0 
 211      C817
 212 028d 2A23AB4B 		.ascii	"*#\253K\264\3564\020.\306Ic\006\226\036\013,9\3647b"
 212      B4EE3410 
 212      2EC64963 
 212      06961E0B 
 212      2C39F437 
 213 02a2 E931C1D2 		.ascii	"\3511\301\322\006\177zx\312\357\326\273wT?\237\031\303"
 213      067F7A78 
 213      CAEFD6BB 
 213      77543F9F 
 213      19C3
 214 02b4 82C6F0AF 		.ascii	"\202\306\360\257\032\303~V\225/\243\252\200EU<\372\033"
 214      1AC37E56 
 214      952FA3AA 
 214      8045553C 
 214      FA1B
 215 02c6 AB0A9854 		.ascii	"\253\012\230T%\300\217\266\377\307\360\324\212%\303"
 215      25C08FB6 
 215      FFC7F0D4 
 215      8A25C3
 216 02d5 4DB960F8 		.ascii	"M\271`\370\266\216\341\333Y\014/\262u\234\262`\270\311"
 216      B68EE1DB 
 216      590C2FB2 
 216      759CB260 
 216      B8C9
 217 02e7 C07052C7 		.ascii	"\300pR\3070\255;\015D\036\335*4M\006\226\371\026X\332"
 217      30AD3B0D 
 217      441EDD2A 
 217      344D0696 
 217      F91658DA 
 218 02fb D0DF8865 		.ascii	"\320\337\210e\276\011\226v\370\203\360\367`l~si\301"
 218      BE099676 
 218      F883F0F7 
ARM GAS  /tmp/ccP0CSKa.s 			page 17


 218      606C7E73 
 218      69C1
 219 030d ABC22647 		.ascii	"\253\302&G\000\0363\004\256S\226ie\274|\216\006a\221"
 219      001E3304 
 219      AE539669 
 219      65BC7C8E 
 219      066191
 220 0320 7C245D6E 		.ascii	"|$]n\212\321sS\231/\020BM\035\377F\031\317\223\347\260"
 220      8AD17353 
 220      992F1042 
 220      4D1DFF46 
 220      19CF93E7 
 221 0335 202A3975 		.ascii	" *9u\177L\320HQ\330h\316\005\033\253:6V566fgN\244\241"
 221      7F4CD048 
 221      51D868CE 
 221      051BAB3A 
 221      36563536 
 222 034f D827670E 		.ascii	"\330'g\016\310l\020FEs\026\025J\365\343\223j?\357\247"
 222      C86C1046 
 222      45731615 
 222      4AF5E393 
 222      6A3FEFA7 
 223 0363 81ECB3C7 		.ascii	"\201\354\263\307\311);\345\201\275\345\242\341\000\024"
 223      C9293BE5 
 223      81BDE5A2 
 223      E10014
 224 0372 E9BF28D2 		.ascii	"\351\277(\322\357\360;B\035&\337S\205A\013:h\303d\205"
 224      EFF03B42 
 224      1D26DF53 
 224      85410B3A 
 224      68C36485 
 225 0386 047704D5 		.ascii	"\004w\004\325\242\373\037Xv\177K.\360\336\320\341\275"
 225      A2FB1F58 
 225      767F4B2E 
 225      F0DED0E1 
 225      BD
 226 0397 91D5FD9B 		.ascii	"\221\325\375\233\014\270V\213\356o1t\377\317\372\023"
 226      0CB8568B 
 226      EE6F3174 
 226      FFCFFA13 
 227 03a7 E781DAFD 		.ascii	"\347\201\332\375\007\322\007\016\247l\015\225\223\002"
 227      07D2070E 
 227      A76C0D95 
 227      9302
 228 03b5 36D89AB1 		.ascii	"6\330\232\261/\012-\366\005\3637\356\213B\223}\341\200"
 228      2F0A2DF6 
 228      05F337EE 
 228      8B42937D 
 228      E180
 229 03c7 87C0BE7C 		.ascii	"\207\300\276|\327\265/_p\227\263mqF\255\352 \365\316"
 229      D7B52F5F 
 229      7097B36D 
 229      7146ADEA 
 229      20F5CE
 230 03da 3EDB8A2C 		.ascii	">\333\212,\252\262\243\277\261\252\"\223\252\234Pb\365"
 230      AAB2A3BF 
 230      B1AA2293 
ARM GAS  /tmp/ccP0CSKa.s 			page 18


 230      AA9C5062 
 230      F5
 231 03eb E14B2E6F 		.ascii	"\341K.op\206\355\324\226\013z\037\353\350}\254\333N"
 231      7086EDD4 
 231      960B7A1F 
 231      EBE87DAC 
 231      DB4E
 232 03fd BF69CB2D 		.ascii	"\277i\313->\014\025\372\366o\263\330J\032m%\214\266"
 232      3E0C15FA 
 232      F66FB3D8 
 232      4A1A6D25 
 232      8CB6
 233 040f E20C804A 		.ascii	"\342\014\200J-\000r\240\277\021\240R\023\200\\\340\267"
 233      2D0072A0 
 233      BF11A052 
 233      13805CE0 
 233      B7
 234 0420 0668D308 		.ascii	"\006h\323\010P{.\000z\242\003\350\211\016\240m\015\240"
 234      507B2E00 
 234      7AA203E8 
 234      890EA06D 
 234      0DA0
 235 0432 B22C80DA 		.ascii	"\262,\200\332\365\000\361f\000\035bggY\006@\345\026"
 235      F500F166 
 235      001D6267 
 235      67590640 
 235      E516
 236 0444 0039D1DF 		.ascii	"\0009\321\337\010P\271\011@n\020x\334\\\343\251\231"
 236      0850B909 
 236      406E1078 
 236      DC5CE3A9 
 236      99
 237 0455 E7D27E15 		.ascii	"\347\322~\025\351\315\205\205d\334\346*\315:\276B\353"
 237      E9CD8585 
 237      64DCE62A 
 237      CD3ABE42 
 237      EB
 238 0466 F8B94B6A 		.ascii	"\370\271Kj\275GX\275\225\031\365\212\026\365\272\320"
 238      BD4758BD 
 238      9519F58A 
 238      16F5BAD0 
 239 0476 DF58AF68 		.ascii	"\337X\257hR\257\0078KB\337~d$\364t.\010}\252#\364\251"
 239      52AF0738 
 239      4B42DF7E 
 239      6424F474 
 239      2E087DAA 
 240 048d 8ED04FB4 		.ascii	"\216\320O\264\345Ve\021zz\327\216\257f@We\000Tc\001"
 240      E5566511 
 240      7A7AD78E 
 240      AF664057 
 240      65005463 
 241 04a2 901BFD8D 		.ascii	"\220\033\375\215\000\325\230\000\344\005b\015\320\357"
 241      00D59800 
 241      E405620D 
 241      D0EF
 242 04b0 46803A72 		.ascii	"F\200:r\001\320[\234\006\020\323\025\200>\327\000\252"
 242      01D05B9C 
ARM GAS  /tmp/ccP0CSKa.s 			page 19


 242      0610D315 
 242      803ED700 
 242      AA
 243 04c1 CD02A863 		.ascii	"\315\002\250c\327\216?\316\000\252\315\000\250\316\002"
 243      D78E3FCE 
 243      00AACD00 
 243      A8CE02
 244 04d0 200FFA1B 		.ascii	" \017\372\033\001\2523\001\210^?\367v\301\321\235\272"
 244      01AA3301 
 244      885E3FF7 
 244      76C1D19D 
 244      BA
 245 04e1 211CDAF3 		.ascii	"!\034\332\363\251\233\234\3326\271\312t\346\002\350"
 245      A99B9CDA 
 245      36B9CA74 
 245      E602E8
 246 04f0 691DD0D3 		.ascii	"i\035\320\323*\320\313\033[\227N\350\357\036R\267\036"
 246      2AD0CB1B 
 246      5B974EE8 
 246      EF1E52B7 
 246      1E
 247 0501 EA4EB3CB 		.ascii	"\352N\263\313G\275\034\371\365W\177\363{\214\344\265"
 247      47BD1CF9 
 247      F5577FF3 
 247      7B8CE4B5 
 248 0511 C85C5D5B 		.ascii	"\310\\][dF\374\354\277\346\237`\324\251\275=K\327H\337"
 248      6446FCEC 
 248      BFE69F60 
 248      D4A9BD3D 
 248      4BD748DF 
 249 0525 628028F6 		.ascii	"b\200(\366\017\015D\305\310P\357y\2617\372\272\030\351"
 249      0F0D44C5 
 249      C850EF79 
 249      B137FABA 
 249      18E9
 250 0537 8FF5C486 		.ascii	"\217\365\304\206\206\305D|d\360U1\021\035N\210\361\004"
 250      86C5447C 
 250      64F05531 
 250      111D4E88 
 250      F104
 251 0549 7B26FA7B 		.ascii	"{&\372{\217F\200;W]\267c\010Uh@l0\362\332H/u\352O\364"
 251      8F46803B 
 251      575DB763 
 251      08556840 
 251      6C30F2DA 
 252 0563 C7A3E1DE 		.ascii	"\307\243\341\336\341\243\375\320\264[\\\364\215\204"
 252      E1A3FDD0 
 252      B45B5CF4 
 252      8D84
 253 0571 D872A6AB 		.ascii	"\330r\246\253\263K\013\037\212G_\211\014\264\217\014"
 253      B34B0B1F 
 253      8A475F89 
 253      0CB48F0C 
 254 0581 466882C0 		.ascii	"Fh\202\300\231\256\027C=\341\341\350\271x\2542TZ\005"
 254      99AE1743 
 254      3DE1E1E8 
 254      B978AC32 
ARM GAS  /tmp/ccP0CSKa.s 			page 20


 254      545A05
 255 0594 5C1C1C03 		.ascii	"\\\034\034\003\321\201\241\370y\370\017=\302\003\207"
 255      D181A1F8 
 255      79F80F3D 
 255      C20387
 256              		.text
 257              		.section	.gnu.lto_thd4_execute.part.0.fcb8b00a7c7179dc,"",%progbits
 258 0000 789CCD54 		.ascii	"x\234\315TMHTQ\024>\347\335\373\346\351d%mj\021\303"
 258      4D485451 
 258      143EE7DD 
 258      FBE6E964 
 258      256D6A11 
 259 0015 200441E1 		.ascii	" \004A\341-\333\265\3110\002\301q\341\214P+\031\337"
 259      2DDBB5C9 
 259      3002C171 
 259      E18C502B 
 259      19DF
 260 0027 3C9C4733 		.ascii	"<\234G3\216\274y\212\322\302;9\013+\027S\270(C\250@"
 260      8EBC798A 
 260      D2C23B39 
 260      0B2B1753 
 260      B82843A8 
 261 003c 0A25EC67 		.ascii	"\012%\354g\225-\262\037(\210\214\026\005E\213\2516Y"
 261      952DB21F 
 261      28888C16 
 261      05458BA9 
 261      3659
 262 004e 81B40D63 		.ascii	"\201\264\015c\272?\316\250!i\321\242\013s\357\345\236"
 262      BA3FCEA8 
 262      2169D1A2 
 262      0B73EFE5 
 262      9E
 263 005f FB7DE73B 		.ascii	"\373}\347;\347\273o\0140\340\327qP\374>S\200\355\010"
 263      E7BB6F0C 
 263      30E0D771 
 263      50FC3E53 
 263      80ED08
 264 0072 800140B3 		.ascii	"\200\001@\2630'6&\032j5\014\372\232\001\017\222\231"
 264      30273626 
 264      1A6A350C 
 264      FA9A010F 
 264      9299
 265 0084 10F01A82 		.ascii	"\020\360\032\202T\236\346\252(\242\334\000\302\240i"
 265      549EE6AA 
 265      28A2DC00 
 265      C2A069
 266 0093 108A83C7 		.ascii	"\020\212\203\307Qr\231up\205\363\261\342\304\375y\274"
 266      51729975 
 266      7085F3B1 
 266      E2C4FD79 
 266      BC
 267 00a4 383A9BBF 		.ascii	"8:\233\277\314\027K%DW\006m\204cb\207a\265\030t\265"
 267      CC174B25 
 267      4457066D 
 267      84636287 
 267      61B51874 
 268 00b9 0A0DE4B7 		.ascii	"\012\015\344\267\257\363j\005\"\377\033\346\374\354"
ARM GAS  /tmp/ccP0CSKa.s 			page 21


 268      AFF36A05 
 268      22FF1BE6 
 268      FCEC
 269 00c7 E2B39A42 		.ascii	"\342\263\232Bn\230\227J\203\002c@\003\256\003\2336x"
 269      6E98974A 
 269      83026340 
 269      03AE039B 
 269      3678
 270 00d9 B154BAFB 		.ascii	"\261T\272\373\245z\033\202B\270H\210\234\250\230\250"
 270      A57A1B82 
 270      42B84888 
 270      9CA898A8 
 271 00e9 29CF0210 		.ascii	")\317\002\020\307\011\254\003K\036\313\376A\236\363"
 271      C709AC03 
 271      4B1ECBFE 
 271      419EF3
 272 00f8 42581F2A 		.ascii	"BX\037*Yb\304\304,\233\035CS\256\244\035\015\265\316"
 272      5962C4C4 
 272      2C9B1D43 
 272      53AEA41D 
 272      0DB5CE
 273 010b C1A96F0B 		.ascii	"\301\251o\013\243\037w,\201@p]\023W\224+\010\375DzM"
 273      A31F772C 
 273      8140705D 
 273      1357942B 
 273      08FD447A 
 274 0120 B4E12138 		.ascii	"\264\341!8\215\343\374B\243\253\343Rm ,w\225\370\310"
 274      8DE3FC42 
 274      A3ABE352 
 274      6D202C77 
 274      95F8C8
 275 0133 52DCD2DA 		.ascii	"R\334\322\332\237\303\303\267#S\017vW\270\365f\366\375"
 275      9FC3C3B7 
 275      23530F76 
 275      57B8F566 
 275      F6FD
 276 0145 F83B524E 		.ascii	"\370;RNd\243\222\327\205\270\007&y>W|s\346\361Uiv\325"
 276      64A392D7 
 276      85B80726 
 276      793E577C 
 276      73E6F155 
 277 015c 2518CB15 		.ascii	"%\030\313\025x\255\213\3252S\220\213AU\322\240\"\357"
 277      78AD8BD5 
 277      3253908B 
 277      4155D2A0 
 277      22EF
 278 016e 94B8384E 		.ascii	"\224\2708Nk1\033)#\216\223\242?J6\254\220\035\307\033"
 278      6B311B29 
 278      238E93A2 
 278      3F4A36AC 
 278      901DC71B 
 279 0182 18D2825F 		.ascii	"\030\322\202_@\376\346\207l\031z\022\276\363a)`\223"
 279      40FEE687 
 279      6C197A12 
 279      BEF36129 
 279      6093
 280 0194 8DFAC54B 		.ascii	"\215\372\305K,)\264\212>\327\310\352\206\206\207~\354"
ARM GAS  /tmp/ccP0CSKa.s 			page 22


 280      2C29B48A 
 280      3ED7C8EA 
 280      8686877E 
 280      EC
 281 01a5 D4B7BBD0 		.ascii	"\324\267\273\320\020%\224\343:H\312!R\016\235kUI\002"
 281      102594E3 
 281      3A48CA21 
 281      520E9D6B 
 281      554902
 282 01b8 E500ADA4 		.ascii	"\345\000\255\244\330l+\353t\212-D\363\211g\265\025\340"
 282      D86C2BEB 
 282      748A2D44 
 282      F38967B5 
 282      15E0
 283 01ca 29E4BF62 		.ascii	")\344\277b\005!\343\253\236H\273\000\316\204\244\217"
 283      0521E3AB 
 283      9E48BB00 
 283      CE84A48F 
 284 01da B71646ED 		.ascii	"\267\026F\355\015\326\037^\273\376?2\314\374;\303\356"
 284      0DD61F5E 
 284      BBFE3F32 
 284      CCFC3BC3 
 284      EE
 285 01eb FD4BC364 		.ascii	"\375K\303d\233\037\235}5Tiu@\350R\255\376di?\213SO\202"
 285      9B1F9D7D 
 285      35546975 
 285      40E852AD 
 285      FE64693F 
 286 0203 6B19AA7B 		.ascii	"k\031\252{(\000\313^\336\031\257\320XK40o\255tl\005"
 286      2800CB5E 
 286      DE19AFD0 
 286      584B3430 
 286      6FAD746C 
 287 0218 C56AC3A8 		.ascii	"\305j\303\250Nm)\303\264+T}^/\305\337\334\262W1\321"
 287      4E6D29C3 
 287      B42B547D 
 287      5E2FC5DF 
 287      DCB25731 
 288 022d 3B712AAB 		.ascii	";q*\253`,\231I;\314\316$\006X\302\351cv\322\355t3Y\346"
 288      602C9949 
 288      3BCCCE24 
 288      0658C2E9 
 288      6376D2ED 
 289 0245 7BBDDD27 		.ascii	"{\275\335'\230\357d}\346\371j\365\223\211z\033\250\357"
 289      98EF647D 
 289      E6F96AF5 
 289      93897A1B 
 289      A8EF
 290 0257 A69DC6DF 		.ascii	"\246\235\306\337\202\304\306\351\367YS$\332\034en\267"
 290      82C4C6E9 
 290      F7595324 
 290      DA1C656E 
 290      B7
 291 0268 9DEA4DC8 		.ascii	"\235\352M\310\273\236\323a\247\217\366v\333\365I\250"
 291      BB9ED361 
 291      A78FF676 
 291      DBF549A8 
ARM GAS  /tmp/ccP0CSKa.s 			page 23


 292 0278 8D44DBC2 		.ascii	"\215D\333\302\235\361\254\323\343\271{\303\273\366\201"
 292      9DF1ACD3 
 292      E3B97BC3 
 292      BBF681
 293 0287 E1819576 		.ascii	"\341\201\225v\322\031o\000\232\326#O\306S\254'\343\371"
 293      D2196F00 
 293      9AD6234F 
 293      C653AC27 
 293      E3F9
 294 0299 59168D45 		.ascii	"Y\026\215E\0164\260\226\226#,\326\034\351\333\317\262"
 294      0E34B096 
 294      96232CD6 
 294      1CE9DBCF 
 294      B2
 295 02aa 7E472A95 		.ascii	"~G*\225\020\374\207\326\343\0205i\212\303m\221\246H"
 295      10FC87D6 
 295      E3103569 
 295      8AC36D91 
 295      A648
 296 02bc BFB8A004 		.ascii	"\277\270\240\004\312\342<\201\377\011\256\253q\225"
 296      CAE23C81 
 296      FF09AEAB 
 296      7195
 297              		.text
 298              		.section	.gnu.lto_thd4_execute.fcb8b00a7c7179dc,"",%progbits
 299 0000 789CAD54 		.ascii	"x\234\255TMk\023Q\024\275w&\223\304$\306&+\005\011\331"
 299      4D6B1351 
 299      14BD7726 
 299      93C424C6 
 299      262B0509 
 300 0015 0882D2E7 		.ascii	"\010\202\322\347\307\017\260\022)\024\232M\223\202\256"
 300      C70FB012 
 300      29149A4D 
 300      9382AE
 301 0024 4AF23234 		.ascii	"J\36224\203\371\2503\323\322\342\242\023\023\260\350"
 301      83F9A833 
 301      D3D2E2A2 
 301      1313B0E8 
 302 0034 A64817A2 		.ascii	"\246H\027\242t\241(\225\202_\013]dc-.\334\330\342\306"
 302      74A12895 
 302      825F0B5D 
 302      64632D2E 
 302      DCD8E2C6 
 303 0048 85745170 		.ascii	"\205tQpcKA\334v\323\3367/\023K\323\332V\034\310}\357"
 303      634B41DC 
 303      76D3DE37 
 303      2F134BD3 
 303      DA561CC8 
 304 005e E5DC77EE 		.ascii	"\345\334w\356=\367d\242\200\002\273\237\036\372\364"
 304      3DF764A2 
 304      8002BB9F 
 304      1EFAF4
 305 006d FA00E208 		.ascii	"\372\000\342\010\200~@ez\011\240\026T\024\355\033\003"
 305      807E4065 
 305      7A09A016 
 305      5414ED1B 
 305      03
ARM GAS  /tmp/ccP0CSKa.s 			page 24


 306 007e 27A43613 		.ascii	"'\2446\023\340D\324\326\311\347\236|\250\211$\324\020"
 306      E044D4D6 
 306      C9E79E7C 
 306      A88924D4 
 306      10
 307 008f C50A0893 		.ascii	"\305\012\010\223\212\352\323p\362\006\272\224\257\225"
 307      8AEAD370 
 307      F206BA94 
 307      AF95
 308 009d 85D5ADAD 		.ascii	"\205\325\255\255W\233\367\237\255`S9\245\201\201\340"
 308      579BF79F 
 308      AD605339 
 308      A58181E0 
 309 00ad 17214801 		.ascii	"\027!H\001\303b\027\021!*\2161\012J\\\004\272\251A\303"
 309      C3621711 
 309      212A8E31 
 309      0A4A5C04 
 309      BAA941C3 
 310 00c1 71A69300 		.ascii	"q\246\223\000\334e\312R\024\025\006\011\244U]\206\372"
 310      DC65CA52 
 310      14150609 
 310      A4555D86 
 310      FA
 311 00d2 EAD45C28 		.ascii	"\352\324\\(\207OP#\3706l:SN\227\201*GY\331@R\262\004"
 311      874F5023 
 311      F8366C3A 
 311      534E9781 
 311      2A4759D9 
 312 00ea 777EAFCF 		.ascii	"w~\257\317\3748\331&\363\362\251Q\004K\025CP\345$\022"
 312      FC38D926 
 312      F3F2A951 
 312      044B1543 
 312      50E52412 
 313 00fe D0C059E7 		.ascii	"\320\300Y\347a\217!\361\353h\240?)vm\374n\013\017\310"
 313      618F21F1 
 313      EB68A03F 
 313      29766DFC 
 313      6E0B0FC8 
 314 0112 697D81C5 		.ascii	"i}\201\305\357\033s\037\317\266\271\345f\341\345\354"
 314      EF1B731F 
 314      CFB6B9E5 
 314      66E1E5EC 
 315 0122 8AEA15E2 		.ascii	"\212\352\025\342\256\024\030\306\3309\230w\032\265\325"
 315      AE1418C6 
 315      D8399877 
 315      1AB5D5
 316 0131 0FF73E3D 		.ascii	"\017\367>=E\242\016>\206G\265i\321\3601Q)\344\320\343"
 316      45A20E3E 
 316      8647B569 
 316      D1F03151 
 316      29E4D0E3 
 317 0145 738B865C 		.ascii	"s\213\206\\\362\274\020\221\303y\331\314ad\344\3609"
 317      F2BC1091 
 317      C379D9CC 
 317      6164E4F0 
 317      39
 318 0156 AAB26DD8 		.ascii	"\252\262m\330\321v\016_`B6\274\014\2157\213\267:&\026"
ARM GAS  /tmp/ccP0CSKa.s 			page 25


 318      D1760E5F 
 318      604236BC 
 318      0C8D378B 
 318      B73A2616 
 319 016a E674CF93 		.ascii	"\346t\317\223\014?\0034\271\210PW\237\252\277;-\263"
 319      0C3F0334 
 319      B9885057 
 319      9FAABF3B 
 319      2DB3
 320 017c 87512309 		.ascii	"\207Q#\011\036.A\325\203\374\036\264\026p\213\370= "
 320      1E2E41D5 
 320      83FC1EB4 
 320      16708BF8 
 320      3D20
 321 018e D82E719C 		.ascii	"\330.q\234\0133Z%\242(\371\374\006\236\000\370\014\215"
 321      0B335A25 
 321      A228F9FC 
 321      069E00F8 
 321      0C8D
 322 01a0 0D6CDF10 		.ascii	"\015l\337\0208\356\374I\016Ro\315\204J\003x\273>\303"
 322      38EEFC49 
 322      0E526FCD 
 322      844A0378 
 322      BB3EC3
 323 01b3 0FA93FB9 		.ascii	"\017\251?\271\267\376#\031\026\3777\303\336\377o\303"
 323      B7FE2319 
 323      16FF37C3 
 323      DEFF6FC3 
 324 01c3 1E584731 		.ascii	"\036XG1l\255mX\230$\354cX\304\203v\033\026\335\3070"
 324      6CAD6D58 
 324      9824EC63 
 324      58C48376 
 324      1B16DDC7 
 325 01d8 45F2453A 		.ascii	"E\362E:\015\213\356a\230\017~\205\305\353\031\354h\274"
 325      0D8BEE61 
 325      980F7E85 
 325      C5EB19EC 
 325      68BC
 326 01ea 8BCB1950 		.ascii	"\213\313\031P\3031/[s\337\346\257\3647\363\207#K\224"
 326      C3312F5B 
 326      73DFE6AF 
 326      F437F387 
 326      234B94
 327 01fd F4AD1807 		.ascii	"\364\255\030\007c\305jYg\274Z\230`\005}\214\361\242"
 327      63C56A59 
 327      67BC5A98 
 327      60057D8C 
 327      F1A2
 328 020f 9137AA16 		.ascii	"\2217\252\026\263\315\321\312Mf\353\226\315L\333]\355"
 328      B3CDD1CA 
 328      4D66EB96 
 328      CD4CDB5D 
 328      ED
 329 0220 62A19B43 		.ascii	"b\241\233C\317_\363i\243\217\333,\225\316\364e\230Q"
 329      CF5FF369 
 329      A38FDB2C 
 329      95CEF465 
ARM GAS  /tmp/ccP0CSKa.s 			page 26


 329      9851
 330 0232 E1A5D182 		.ascii	"\341\245\321\202\3105\365!^\356\035\255\360\356\"t\245"
 330      C835F521 
 330      5EEE1DAD 
 330      F0EE2274 
 330      A5
 331 0243 3303C97C 		.ascii	"3\003\311|\316\322GL\343|\362\314\005PL\010\224\365"
 331      CED2474C 
 331      E37CF2CC 
 331      05504C08 
 331      94F5
 332 0255 72D59C80 		.ascii	"r\325\234\200\324A\344\305\\\211\215TM\333b\231l\372"
 332      D441E4C5 
 332      5C898D54 
 332      4DDB6299 
 332      6CFA
 333 0267 F225D6DF 		.ascii	"\362%\326\337\177\215e\373\322c\027\231e\017\225J\005"
 333      7F8D65FB 
 333      D2631799 
 333      650F954A 
 333      05
 334 0278 E2BF7210 		.ascii	"\342\277r\020\007\311\221\024W\007\322\251\3648%\270"
 334      07C99114 
 334      5707D2A9 
 334      F43825B8 
 335 0288 0DDA4659 		.ascii	"\015\332FY7\351\3766\337\265G6"
 335      37E9FE36 
 335      DFB54736 
 336              		.text
 337              		.section	.gnu.lto_.symbol_nodes.fcb8b00a7c7179dc,"",%progbits
 338 0000 789C4D8F 		.ascii	"x\234M\217\271N\303@\024E\337\035g\354\000!\013K\302"
 338      B94EC340 
 338      1445DF1D 
 338      67EC0021 
 338      0B4BC2
 339 0013 52E44BF8 		.ascii	"R\344K\370\016j>\202\372E\262\204X\012\020%\202\006"
 339      0E6A3E82 
 339      FA45B284 
 339      580A1025 
 339      8206
 340 0025 7F4AA420 		.ascii	"\177J\244 \245\000\211\202\264\004\263\023v\304*!\346"
 340      A5008982 
 340      B404B313 
 340      76C42A21 
 340      E6
 341 0036 CD8C98B8 		.ascii	"\315\214\230\270\360\361yo\356\265\255H\321\262\"w\251"
 341      F0F1796F 
 341      EEB5AD48 
 341      D1B22277 
 341      A9
 342 0047 1C0CDA3A 		.ascii	"\034\014\332:$b\336][\322\003\230'\322/\200\201:\003"
 342      2462DE5D 
 342      5BD20398 
 342      27D22F80 
 342      813A03
 343 005a D3D0F201 		.ascii	"\323\320\362\001J\246\027`\025\246\352\012\034\015\351"
 343      4AA61760 
ARM GAS  /tmp/ccP0CSKa.s 			page 27


 343      15A6EA0A 
 343      1C0DE9
 344 0069 8EE282D7 		.ascii	"\216\342\202\327\275U\250\033\260\036\252\270C\244M"
 344      BD55A81B 
 344      B01EAAB8 
 344      43A44D
 345 0078 FF390A82 		.ascii	"\3779\012\202Kh\3015b\301-\022\003<\201c\227h\265\200"
 345      4B68C135 
 345      62C12D12 
 345      033C8163 
 345      9768B580 
 346 008c 477012EC 		.ascii	"Gp\022\354\036\\\014\366\014\036\011\366\006\036\015"
 346      1E5C0CF6 
 346      0C1E09F6 
 346      061E0D
 347 009b F60A1E0B 		.ascii	"\366\012\036\013\366\001.\005{\007\217\007\373\002\227"
 347      F6012E05 
 347      7B078F07 
 347      FB0297
 348 00aa 837D832B 		.ascii	"\203}\203+\301~\300\325`\237\340\332\277ET\245\264\377"
 348      C17EC0D5 
 348      609FE0DA 
 348      BF4554A5 
 348      B4FF
 349 00bc 6BD95E19 		.ascii	"k\331^\0314\255\257;\2667\274o\012+\324\266,S.\214j"
 349      34ADAF3B 
 349      B637BC6F 
 349      0A2BD4B6 
 349      2C532E8C 
 350 00d1 949D9A9C 		.ascii	"\224\235\232\234\366y\355\363\332\347\265\317\353I\312"
 350      F679EDF3 
 350      DAE7B5CF 
 350      EB49CA
 351 00e0 E4BC9EA0 		.ascii	"\344\274\236\240l[hz,M\2170\236\246\\z\342)\312\372"
 351      6C5B687A 
 351      2C4D8F30 
 351      9EA65C7A 
 351      E229CAFA 
 352 00f4 8EED4E27 		.ascii	"\216\355N'\226yz\320S\326=\363\356\202\305QC\266\331"
 352      96797AD0 
 352      53D63DF3 
 352      EE82C551 
 352      43B6D9
 353 0107 71C99A43 		.ascii	"q\311\232Cz\342*\026mp\316\306\354=\237\267\353f\224"
 353      7AE22A16 
 353      6D70CEC6 
 353      EC3D9FB7 
 353      EB6694
 354 011a 344C9129 		.ascii	"4L\221)NfL\261\320\270\2740\251\273\017(\316RjYw?Tl"
 354      4E664CB1 
 354      D0B8BC30 
 354      A9BB0F28 
 354      CE526A59 
 355 0132 50DEF72E 		.ascii	"P\336\367.\347\305-\023\332\357\366\024\375\001\017"
 355      E7C52D13 
 355      DAEFF614 
 355      FD010F
ARM GAS  /tmp/ccP0CSKa.s 			page 28


 356 0141 BAB9E2   		.ascii	"\272\271\342"
 357              		.text
 358              		.section	.gnu.lto_.refs.fcb8b00a7c7179dc,"",%progbits
 359 0000 789C8D8D 		.ascii	"x\234\215\2151\016\2000\020\303\022s\255\340\332n\360"
 359      310E8030 
 359      10C31273 
 359      ADE0DA6E 
 359      F0
 360 0011 66BE0D12 		.ascii	"f\276\015\022#C\033\017^,\005\241[\337N\311\202\315"
 360      23431B0F 
 360      5E2C05A1 
 360      5BDF4EC9 
 360      82CD
 361 0023 31F35556 		.ascii	"1\363UVKE\326\367\342G\034$\215\316p\"7\212;\325\203"
 361      4B45D6F7 
 361      E2471C24 
 361      8DCE7022 
 361      378A3BD5 
 362 0038 5D0F9F87 		.ascii	"]\017\237\207\001\364"
 362      01F4
 363              		.text
 364              		.section	.gnu.lto_.decls.fcb8b00a7c7179dc,"",%progbits
 365 0000 789CBD5C 		.ascii	"x\234\275\\{t\024U\236\256\252\356N\322$$\001G\027\037"
 365      7B741455 
 365      9EAEAAEE 
 365      4ED22424 
 365      0147171F 
 366 0014 47DAD999 		.ascii	"G\332\331\231=\036g$$aF\234sF\230\211\256\272Gf9\001"
 366      3D1E6724 
 366      2461469C 
 366      73469889 
 366      AEBA4766 
 367 002a 773967FE 		.ascii	"w9g\376h\213NAzM:\231\352\012\217\335\263g\012\242\202"
 367      688B4E41 
 367      7A4D3A99 
 367      EA0A8FDD 
 367      B3670AA2 
 368 003f C22004C4 		.ascii	"\302 \004\304@H \240<v\024\031\036\341!\301R\020\","
 368      404820A0 
 368      3C761419 
 368      1EE121C1 
 368      5210222C 
 369 0053 8467780A 		.ascii	"\204gx\012q\200`\020\005\224w\200\354\357\336[\325}"
 369      71806010 
 369      05947780 
 369      ECEFDE5B 
 369      D57D
 370 0065 6F755577 		.ascii	"ouUwU\324\255\223{\273\036\367~\367\373=\356\273*\002"
 370      55D4AD93 
 370      7BBB1EF7 
 370      7EF7FB3D 
 370      EEBB2A02 
 371 0079 27705E2F 		.ascii	"'p^/\307u\303\321\1778\307=\357\347\270t\216\343\236"
 371      C775C3D1 
 371      7F38C73D 
 371      EFE7B874 
 371      8EE39E
ARM GAS  /tmp/ccP0CSKa.s 			page 29


 372 008c E2C8AF0F 		.ascii	"\342\310\257\017B#\204\305\020\226AX\013a\235\376\014"
 372      422384C5 
 372      10964158 
 372      0B619DFE 
 372      0C
 373 009d 1D7D21AC 		.ascii	"\035}!\254\207\260\031\202\006a+\204\355\020vB\330\015"
 373      87B01982 
 373      06612B84 
 373      ED107642 
 373      D80D
 374 00af A10DC211 		.ascii	"\241\015\302\021\010\263y\216{\033B\035\204z\010\213"
 374      08B3798E 
 374      7B1B421D 
 374      847A088B 
 375 00bf 212C85F0 		.ascii	"!,\205\360>\2045\020\326A\310\200t\033\340\267\031\302"
 375      3E843510 
 375      D641C880 
 375      741BE0B7 
 375      19C2
 376 00d1 4F048EEB 		.ascii	"O\004\216\353\007\341q\010\203!\014\201\360\274\300"
 376      07E17108 
 376      83210C81 
 376      F0BCC0
 377 00e0 31072AF3 		.ascii	"1\007*\363\001\010Ct>\307 t@\330\004\3717B(\206\364"
 377      01084374 
 377      3EC72074 
 377      40D804F9 
 377      37422886 
 378 00f5 201AF729 		.ascii	" \032\367)\234o\2010\002\256\217\303\365H\201\310E\313"
 378      9C6F8130 
 378      02AE8FC3 
 378      F54881C8 
 378      45CB
 379 0107 7314C2BD 		.ascii	"s\024\302\275p\377E\010?\205\320\014\327\377&\304e\337"
 379      70FF4508 
 379      3F85D00C 
 379      D7FF26C4 
 379      65DF
 380 0119 03C10361 		.ascii	"\003\301\003a\033\340\034\202pV/\023q\370wH\367G\201"
 380      1BE01C82 
 380      70562F13 
 380      71F87748 
 380      F74781
 381 012c C8B95E97 		.ascii	"\310\271^\227y\267\236\236\226\207>\326\353\272]\002"
 381      79B79E9E 
 381      96873ED6 
 381      EBBA5D02 
 382 013c E1208420 		.ascii	"\341 \204 <\237\003\351V\350\317\005=\015\322\033\374"
 382      3C9F03E9 
 382      56E8CF05 
 382      3D0DD21B 
 382      FC
 383 014d 711BD9EC 		.ascii	"q\033\331\354X\327\017\377\010\262w\302\371K\360;\032"
 383      58D70FFF 
 383      08B277C2 
 383      F94BF03B 
 383      1A
ARM GAS  /tmp/ccP0CSKa.s 			page 30


 384 015e 422DEF5C 		.ascii	"B-\357\\\027~\235\223Y\027u\272\335\235\350\004\371"
 384      177E9D93 
 384      591775BA 
 384      DD9DE804 
 384      F9
 385 016f 4E5F5D8E 		.ascii	"N_]\216l\010Y\272l\255\272|fYB\360\273\004\256Kt\231"
 385      6C0859BA 
 385      6CADBA7C 
 385      665942F0 
 385      BB04AE4B 
 386 0185 1A78228F 		.ascii	"\032x\"\217!\203\327\304\261\232'\351\266R<\027\353"
 386      2183D7C4 
 386      B19A27E9 
 386      B6523C17 
 386      EB
 387 0196 FE88748C 		.ascii	"\376\210t\2148\321\007\362\343\\\010+\370D>t9\022\204"
 387      38D107F2 
 387      E35C082B 
 387      F8443E74 
 387      391284
 388 01a9 31485F10 		.ascii	"1H_\020\346AX\006\351\347\353\234V\352\330\377\255_"
 388      E6415806 
 388      E9E7EB9C 
 388      56EAD8FF 
 388      AD5F
 389 01bb 23CC3A81 		.ascii	"#\314:\201\365}\363\261S\327\203Q\026*\277\001\3624"
 389      F57DF3B1 
 389      53D78351 
 389      162ABF01 
 389      F234
 390 01cd F1EECA5D 		.ascii	"\361\356\312]\010\347;\270x\371i:6\252k4\207\355\211"
 390      08E73BB8 
 390      78F9693A 
 390      36AA6B34 
 390      87ED89
 391 01e0 14B84CEE 		.ascii	"\024\270L\356\015U\235\254.zM}\256%\273\0177S\205#P"
 391      0D559DAC 
 391      2E7A4D7D 
 391      AE25BB0F 
 391      37538523 
 392 01f5 9BEDE7A6 		.ascii	"\233\355\347\246\242\333\355\357\252\375\372q\334(^"
 392      A2DBEDEF 
 392      AAFDFA71 
 392      DC285E
 393 0204 E4E15606 		.ascii	"\344\341V\006>\311\362\343\202~\316\275\003I!\275 \362"
 393      3EC9F2E3 
 393      827ECEBD 
 393      034921BD 
 393      20F2
 394 0216 4B783F38 		.ascii	"Kx?8\262`!\":\310st\240\354\344\3348\353\346c\350\003"
 394      B2602122 
 394      3AC87374 
 394      A0ECE4DC 
 394      38EBE663 
 395 022c 0DF4343D 		.ascii	"\015\3644=\327b\276\017>\303\\T\235\"N\241\347\010\030"
 395      D762BE0F 
 395      3EC35C54 
ARM GAS  /tmp/ccP0CSKa.s 			page 31


 395      9D224EA1 
 395      E70818
 396 023f 39BC7A8E 		.ascii	"9\274z\216\245T9Y\376\370\211Ogb\227\257\221\317\264"
 396      A5543959 
 396      FEF8894F 
 396      676297AF 
 396      91CFB4
 397 0252 D4C77DDC 		.ascii	"\324\307}\334[z\311*\25704\254\261\260Nf\266\267\236"
 397      5B7AC92A 
 397      AF3034AC 
 397      B1B04E66 
 397      B6B79E
 398 0265 FBD2A3AA 		.ascii	"\373\322\243\252\031\"\277\002\353e8\317=\306\255 \312"
 398      1922BF02 
 398      EB6538CF 
 398      3DC6AD20 
 398      CA
 399 0276 FAE41756 		.ascii	"\372\344\027VJr\016\335\265}\333\337\370\311@G\344\337"
 399      4A720EDD 
 399      B57DDBDF 
 399      F8C94047 
 399      E4DF
 400 0288 C7E09379 		.ascii	"\307\340\223y\036\004x\217\177\3145\324\272\235\353"
 400      1E04788F 
 400      7FCC35D4 
 400      BA9DEB
 401 0297 076396AB 		.ascii	"\007c\226\2530\320G& \221O\363\263V\204k#\001B\203K"
 401      30D04726 
 401      20914FF3 
 401      B356846B 
 401      23014283 
 402 02ac 54D20DD4 		.ascii	"T\322\015\324\243\360\177\326\357\240\213t\356\377="
 402      A3F07FD6 
 402      EFA08B74 
 402      EEFF3D
 403 02bb 9F9D6197 		.ascii	"\237\235a\227\363\367\3413\017ng\341\306\220L\210^\364"
 403      F3F7E133 
 403      0F6E67E1 
 403      C6904C88 
 403      5EF4
 404 02cd C44AB1CB 		.ascii	"\304J\261\313\270\214\317\244\265aUK\026\015\255\315"
 404      B88CCFA4 
 404      B561554B 
 404      160DADCD 
 405 02dd 264EAC83 		.ascii	"&N\254\203\344\032 \202\016\262\316\265\0037\33180\237"
 405      E41A2082 
 405      0EB2CEB5 
 405      0337D938 
 405      309F
 406 02ef 82EEDAB8 		.ascii	"\202\356\332\270\003\367\347\032T\355R\373\232\031["
 406      03F7E71A 
 406      54ED52FB 
 406      9A195B
 407 02fe 1E9EA76A 		.ascii	"\036\236\247j\257\250\335\335\177\326\025!p7M6\376\031"
 407      AFA8DDDD 
 407      7FD61521 
 407      70374D36 
ARM GAS  /tmp/ccP0CSKa.s 			page 32


 407      FE19
 408 0310 B744556B 		.ascii	"\267DUk\324\353%\317a\315\010\234*\240\004\353\371\376"
 408      D4EB25CF 
 408      61CD089C 
 408      2AA004EB 
 408      F9FE
 409 0322 9625E144 		.ascii	"\226%\341Dp\374\023\367.\222\247\371\314\360\347\210"
 409      70FC13F7 
 409      2E92A7F9 
 409      CCF0E788 
 410 0332 8F734932 		.ascii	"\217sI2\351\0147\360L'@Xjom\237q\277\272h\262\326\335"
 410      E90C37F0 
 410      4C274058 
 410      6A6F6D9F 
 410      71BFBA68 
 411 0349 3D84632A 		.ascii	"=\204c*\233\310?u\257\255\264\315\272U\343\226\204z"
 411      9BC83F75 
 411      AFADB4CD 
 411      BA55E396 
 411      847A
 412 035b 20B0A2C5 		.ascii	" \260\242\305X\252\313U\017FC\3517\003I\306\307\266"
 412      58AACB55 
 412      0F4643E9 
 412      370349C6 
 412      C7B6
 413 036d 58D2BABD 		.ascii	"X\322\272\275=k\346\244v\030(\221\262\004\356MG\350"
 413      3D6BE6A4 
 413      76182891 
 413      B204EE4D 
 413      47E8
 414 037f 9A19FD63 		.ascii	"\232\031\375ck\364\035&\364\005\216\320\267\232\321"
 414      6BF41D26 
 414      F4058ED0 
 414      B79AD1
 415 038e B759A2DF 		.ascii	"\267Y\242\337\3325=\203\300;W\350\016\013\205\256\260"
 415      DA353D83 
 415      C03B57E8 
 415      0E0B85AE 
 415      B0
 416 039f 26359325 		.ascii	"&5\223%\265\335L\252\305\212\224\272ZU\375\340\211\335"
 416      B5DD4CAA 
 416      C58A94BA 
 416      5A55FDE0 
 416      89DD
 417 03b1 A8B32032 		.ascii	"\250\263 27;\222y\247\031~W\"|;4em'&\361\263\252\027"
 417      373B9279 
 417      A7197E57 
 417      227C3B34 
 417      656D2726 
 418 03c9 B5A897BA 		.ascii	"\265\250\227\272\273sXO\312\340\246\340\236\354Uu\022"
 418      BB73584F 
 418      CAE0A6E0 
 418      9EEC5575 
 418      12
 419 03da FFA7D45D 		.ascii	"\377\247\324]Y+\237\001\354\256\333\367e(\001:P~rn\234"
 419      592B9F01 
 419      ECAEDBF7 
ARM GAS  /tmp/ccP0CSKa.s 			page 33


 419      6528013A 
 419      507E726E 
 420 03ef F1F6F573 		.ascii	"\361\366\365s\217\271\035\362\371\215s\246ia\332\223"
 420      8FB91DF2 
 420      F98D73A6 
 420      6961DA93 
 421 03ff 049483F1 		.ascii	"\004\224\203\361Z\316\030\013\333\353N\202BI\242CV\032"
 421      5ACE180B 
 421      DBEB4E82 
 421      4249A243 
 421      561A
 422 0411 D36E6C9F 		.ascii	"\323nl\237\256\362\254\027\316\366X\003\034\266Ty]\335"
 422      AEF2AC17 
 422      CEF65803 
 422      1CB65479 
 422      5DDD
 423 0423 9503762A 		.ascii	"\225\003v*gD\352\313\315\302c\012\2527Z\3445${\232\213"
 423      6744EACB 
 423      CDC2630A 
 423      AA375AE4 
 423      35247B9A 
 424 0438 F76C0DDB 		.ascii	"\367l\015\333\032\371j\334\263\035\347\373\002\237\271"
 424      1AF96ADC 
 424      B31DE7FB 
 424      029FB9
 425 0447 5E964F4A 		.ascii	"^\226OJ \201[\210\263\234\204\354$#1l\373\232\323\355"
 425      20815B88 
 425      B39C84EC 
 425      2423316C 
 425      FB9AD3ED 
 426 045b 0FD6AA6A 		.ascii	"\017\326\252j.y\304YH\251\037\217p\213\200\270\326\365"
 426      2E79C459 
 426      48A91F8F 
 426      708B80B8 
 426      D6F5
 427 046d 5A3DB44A 		.ascii	"Z=\264J\237\000\3621\036\265\212'c\260V\226\211\265"
 427      9F00F231 
 427      1EB58A27 
 427      63B05696 
 427      89B5
 428 047f D5865764 		.ascii	"\325\206Wd\373Mxw\2419\021\015\260\263\256\301\002\014"
 428      FB4D7877 
 428      A139110D 
 428      B0B3AEC1 
 428      020C
 429 0491 D8EC1D0B 		.ascii	"\330\354\035\01309}\204\346\240\243\377\300\030\216"
 429      30397D84 
 429      E6A0A3FF 
 429      C0188E
 430 04a0 74E08EFE 		.ascii	"t\340\216\376\202\327b\304\340\010\250\353\265O?\326"
 430      82D762C4 
 430      E008A8EB 
 430      B54F3FD6 
 431 04b0 071F9D18 		.ascii	"\007\037\235\030\352J\217\241\326\275\261\371I\314\351"
 431      EA4A8FA1 
 431      D6BDB1F9 
 431      49CCE9
ARM GAS  /tmp/ccP0CSKa.s 			page 34


 432 04bf 0206BAE3 		.ascii	"\002\006\272\3435\017>\322M\203\217tv0\220\356\217\237"
 432      350F3ED2 
 432      4D838F74 
 432      763090EE 
 432      8F9F
 433 04d1 A031400E 		.ascii	"\2401@\016\367#'\027\270\251>\007\206\213\267\015&/"
 433      F7232717 
 433      B8A93E07 
 433      868BB70D 
 433      262F
 434 04e3 50DB579F 		.ascii	"P\333W\237\336\373\020\352\221=\272#/J\263\323\021\364"
 434      DEFB10EA 
 434      913DBA23 
 434      2F4AB3D3 
 434      11F4
 435 04f5 37B8ACCB 		.ascii	"7\270\254\313fG>u~\357\343\304\221/;r\344\365\273\336"
 435      66473E75 
 435      7EEFE3C4 
 435      912F3B72 
 435      E4F5BBDE 
 436 0509 C6BE92B2 		.ascii	"\306\276\222\262B\246\031\305\227\340\342\367\341\342"
 436      42A619C5 
 436      97E0E2F7 
 436      E1E2
 437 0517 AF998BEF 		.ascii	"\257\231\213\357\372\346\313\247H\361\327\034\025\177"
 437      FAE6CBA7 
 437      48F1D71C 
 437      157F
 438 0525 AA754E62 		.ascii	"\252uNb\361\266\035\221\356\031\247\316_zt!.\344\026"
 438      F1B61D91 
 438      EE19A7CE 
 438      5F7A7421 
 438      2EE416
 439 0538 AE2F7569 		.ascii	"\256/uif\327\030B\267\202\306\230.\226@\340\336I3\330"
 439      66D71842 
 439      B782C698 
 439      2E9640E0 
 439      DE4933D8 
 440 054c F7A8BA82 		.ascii	"\367\250\272\202\230\332\220\025\320c\275\236fpX\356"
 440      98DA9015 
 440      D063BD9E 
 440      667058EE 
 441 055c 1A31C028 		.ascii	"\0321\300(\342\333V\334\000\020\260\367\234\200\331"
 441      E2DB56DC 
 441      0010B0F7 
 441      9C80D9
 442 056b FAD164ED 		.ascii	"\372\321d\355\012\015\266\3125\030\313\354\032\015\266"
 442      0A0DB6CA 
 442      3518CBEC 
 442      1A0DB6
 443 057a D60958AE 		.ascii	"\326\011X\256=\263\0334\330\006\327`,\263[4\330f'`\375"
 443      3DB31B34 
 443      D806D760 
 443      2CB35B34 
 443      D8662760 
 444 058f EC99DDA6 		.ascii	"\354\231\335\246\3014\327`,\263\2734\3306'`\001{f3\367"
 444      C134D760 
ARM GAS  /tmp/ccP0CSKa.s 			page 35


 444      2CB3BB34 
 444      D8362760 
 444      017B6633 
 445 05a4 53602DAE 		.ascii	"S`-\256\301Xf54\330\377:\001{\324\236\331\034\032l\257"
 445      C1586635 
 445      34D8FF3A 
 445      017BD49E 
 445      D91C1A6C 
 446 05b9 6B3096D9 		.ascii	"k0\226\331\\\032\354\240\023\260\201\366\314ji\260#"
 446      5C1AECA0 
 446      13B081F6 
 446      CC6A69B0 
 446      23
 447 05ca AEC15866 		.ascii	"\256\301Xf\363i\260\023N\300\006\3333[@\203\265\273"
 447      F369B013 
 447      4EC006DB 
 447      335B4083 
 447      B5BB
 448 05dc 066399AD 		.ascii	"\006c\231\255\242\301\3168\001\033j\317l5\015v\3165"
 448      A2C1CE38 
 448      011B6ACF 
 448      6C350D76 
 448      CE35
 449 05ee 18CB6C2D 		.ascii	"\030\313l-\015v\336\011\330s\366\314\232h\260\257]\203"
 449      0D76DE09 
 449      D873F6CC 
 449      9A68B0AF 
 449      5D83
 450 0600 B1CC36D0 		.ascii	"\261\3146\320`\227\234\200\015\267g\266\211\006\373"
 450      60979C80 
 450      0DB767B6 
 450      8906FB
 451 060f CE3518CB 		.ascii	"\3165\030\313l3\015v\315\011\330({f[h\260[\256\301X"
 451      6C330D76 
 451      CD09D828 
 451      7B665B68 
 451      B05BAEC1 
 452 0624 667B69B0 		.ascii	"f{i\260\273N\300^\262`\026;\254\362\241n\372j|\366\""
 452      BB4EC05E 
 452      B260163B 
 452      ACF2A16E 
 452      FA6A7CF6 
 453 0639 7093D28D 		.ascii	"p\223\322\215\001\216\313>\232\213c\274\232\356v@\306"
 453      018ECB3E 
 453      9A8B63BC 
 453      9AEE7640 
 453      C6
 454 064a C88DA605 		.ascii	"\310\215\246\005\017m\322\373y26\237\346\0041I\0078"
 454      0F6DD2FB 
 454      7932369F 
 454      E6043149 
 454      0738
 455 065c 7F0735D0 		.ascii	"\177\0075\320\237\355\032\314\344\312\010\214\031:\305"
 455      9FED1ACC 
 455      E4CA088C 
 455      193AC5
 456 066b 1665B57E 		.ascii	"\026e\265~\265\361\301\0333\225\025\371w\370\237;]q"
ARM GAS  /tmp/ccP0CSKa.s 			page 36


 456      B5F1C11B 
 456      339515F9 
 456      77F89F3B 
 456      5D71
 457 067d 4D30D13A 		.ascii	"M0\321:\2012Q\235\023\376I\372\334S;\026\374\203\332"
 457      8132519D 
 457      13FE49FA 
 457      DC533B16 
 457      FC83DA
 458 0690 AEF1D452 		.ascii	"\256\361\324R\262\035kc\335\264C\237\250l\024\320\244"
 458      B21D6B63 
 458      DDB4439F 
 458      A86C14D0 
 458      A4
 459 06a1 6071BAE5 		.ascii	"`q\272\345\354\302\001P\327k\357\377\002\003m\306@\177"
 459      ECC20150 
 459      D76BEFFF 
 459      02036DC6 
 459      407F
 460 06b3 ED31D0BA 		.ascii	"\3551\320\2727\032\310\032\351G\030h\215\011H\344y\323"
 460      371AC81A 
 460      E9471868 
 460      8D0948E4 
 460      79D3
 461 06c5 34856727 		.ascii	"4\205g'\0221\315\353\212\377\261\322\012\\\263\331Z"
 461      1231CDEB 
 461      8AFFB1D2 
 461      0A5CB3D9 
 461      5A
 462 06d6 8C382907 		.ascii	"\2148)\0075P\031\216\364\337\270RU\253\323\234k\347"
 462      3550198E 
 462      F4DFB852 
 462      55ABD39C 
 462      6BE7
 463 06e8 03C35EDB 		.ascii	"\003\303^\333\260v>M\320\016R\277;1v\273\026\343Q\223"
 463      B0763E4D 
 463      D00E52BF 
 463      3B3176BB 
 463      16E35193 
 464 06fc 18DAA36E 		.ascii	"\030\332\243n\305\270h\210\361\031\026\343\320\017 "
 464      C5B86888 
 464      F11916E3 
 464      D00F20
 465 070b C6E7AEC5 		.ascii	"\306\347\256\305\030H\211\201V,\366\016\330\210\233"
 465      18488981 
 465      562CF60E 
 465      D8889B
 466 071a A67BB89A 		.ascii	"\246{\270\232\344\223E\274\274$\334\303\314\324\264"
 466      E49345BC 
 466      BC24DCC3 
 466      CCD4B4
 467 0729 A33BF900 		.ascii	"\243;\371\000\271\235j\226\246j\327w.\320W;\310v\305"
 467      B99D6A96 
 467      A66AD777 
 467      2ED0573B 
 467      C876C5
 468 073c 19CC1DE5 		.ascii	"\031\314\035\345u\3314\353xsv\341F\220\200}\365\275"
ARM GAS  /tmp/ccP0CSKa.s 			page 37


 468      75D934EB 
 468      787376E1 
 468      4690807D 
 468      F5BD
 469 074e C0266B6B 		.ascii	"\300&kk\246\031K1x}\372\312\367\204\333\267\313\355"
 469      A6194B31 
 469      787DFACA 
 469      F784DBB7 
 469      CBED
 470 0760 E2C99BE7 		.ascii	"\342\311\233\347u\3478\214\235\243+\3019:\315M\200\223"
 470      75E7388C 
 470      9DA32BC1 
 470      393ACD4D 
 470      8093
 471 0772 B5842919 		.ascii	"\265\204)\031=\224#v\010\334\214\014\007\355s\300\326"
 471      3D942376 
 471      08DC8C0C 
 471      07ED73C0 
 471      D6
 472 0783 4EE06337 		.ascii	"N\340c7t\037K\271 a4\253'\267O\342_\301\353?\237\013"
 472      741F4BB9 
 472      206134AB 
 472      27B74FE2 
 472      5FC1EB3F 
 473 0799 6889AE26 		.ascii	"h\211\256&\303r\211.\331\312F#\316\322.$,\321\355\275"
 473      C372892E 
 473      D9CA4623 
 473      CED22E24 
 473      2CD1EDBD 
 474 07ad 9F2C2DA0 		.ascii	"\237,-\240G\016V6\230%:\221\377;/\350\260=U(c\3038?"
 474      470E5636 
 474      98253A91 
 474      FF3B2FE8 
 474      B03D5528 
 475 07c5 80165087 		.ascii	"\200\026P\207zZx\204V\376\337"
 475      7A5A7884 
 475      56FEDF
 476 07d0 5C2B3F40 		.ascii	"\\+?@+_\353\332\265\200G\374-\026c\206\322C\227\330"
 476      2B5FEBDA 
 476      B58047FC 
 476      2D166386 
 476      D24397D8 
 477 07e4 E2E89E59 		.ascii	"\342\350\236Y\272\346;\260\346?\264\321\374P; \201\333"
 477      BAE63BB0 
 477      E63FB4D1 
 477      FC503B20 
 477      81DB
 478 07f6 85B37426 		.ascii	"\205\263t&j\276\345\001\242\371NG\232?d\251\371N\367"
 478      6ABEE501 
 478      A2F94E47 
 478      9A3F64A9 
 478      F94EF7
 479 0809 9AD7F1DA 		.ascii	"\232\327\361\332\342\213\243\"\177\3065X \231\031;)"
 479      E28BA322 
 479      7FC63558 
 479      2099193B 
 479      29
ARM GAS  /tmp/ccP0CSKa.s 			page 38


 480 081a 337E85CD 		.ascii	"3~\205\315x\001\314(\362_\263\306<a6&\2439\375\324v"
 480      7801CC28 
 480      F25FB3C6 
 480      3C613626 
 480      A339FDD4 
 481 082f A6AC6AB3 		.ascii	"\246\254j\263\367\260-\3509'\316\221d~\333\260\007\253"
 481      F7B02DE8 
 481      3927CE91 
 481      647EDBB0 
 481      07AB
 482 0841 84B4385F 		.ascii	"\204\2648_\273\006\0130`\3153\352\035\255\001\252<="
 482      BB060B30 
 482      60CD33EA 
 482      1DAD01AA 
 482      3C3D
 483 0853 2615B81B 		.ascii	"&\025\270\033\270\334\253fw\271\263l\337\024~\022\366"
 483      B8DCAB66 
 483      77B9B36C 
 483      DF147E12 
 483      F6
 484 0864 C4AB0EFC 		.ascii	"\304\253\016\374\005\272\227\263~\265&\313\360\333\325"
 484      05BA97B3 
 484      7EB526CB 
 484      F0DBD5
 485 0873 7E033589 		.ascii	"~\0035\211\252\223xKW\347g<\206#c\354Mf\270\224S\000"
 485      AA93784B 
 485      57E7673C 
 485      862363EC 
 485      4D66B894 
 486 0889 16EEAED4 		.ascii	"\026\356\256\3242\320\235bH\205\324\216oD\035\354],"
 486      32D09D62 
 486      4885D48E 
 486      6F441DEC 
 486      5D2C
 487 089b D3277E73 		.ascii	"\323'~s\237@4C9\342U\312\021\257cG\274\201\035\361\026"
 487      9F403443 
 487      39E255CA 
 487      11AF6347 
 487      BC811DF1 
 488 08b0 8E6FD3EE 		.ascii	"\216o\323\356h\327\307\337\241\307\346;]\313\0350Y\307"
 488      68D7C7DF 
 488      A1C7E63B 
 488      5DCB1D30 
 488      59C7
 489 08c2 AE982B74 		.ascii	"\256\230+t1\373\374\016|\317~9\004\265\352\277\331\250"
 489      31FBFC0E 
 489      7CCF7E39 
 489      04B5EABF 
 489      D9A8
 490 08d4 CFB0C8E6 		.ascii	"\317\260\310\346\303q\327\210\2547_\236\301\214\007"
 490      C371D788 
 490      AC375F9E 
 490      C18C07
 491 08e3 3A9CC00D 		.ascii	":\234\300\015\265 hu\320;G\320\005\340y\324\027<2\320"
 491      B5206875 
 491      D03B47D0 
 491      05E079D4 
ARM GAS  /tmp/ccP0CSKa.s 			page 39


 491      173C32D0 
 492 08f7 691C9FC5 		.ascii	"i\034\237\305\361%\034\257\302\206[\215\343\2658\336"
 492      F1251CAF 
 492      C2865B8D 
 492      E3B538DE 
 493 0907 80E3AD38 		.ascii	"\200\343\2558n\301\361n\034\237\300\361Y\034_\304\361"
 493      6EC1F16E 
 493      1C9FC0F1 
 493      591C5FC4 
 493      F1
 494 0918 651C7F87 		.ascii	"e\034\177\207\343j\017\212_\3658p\200c\354+\011v\311"
 494      E36A0F8A 
 494      5FF53870 
 494      8063EC2B 
 494      0976C9
 495 092b 8E5ABCF2 		.ascii	"\216Z\274\362\240\237;\037\3654\177\360\305o>\300\235"
 495      A09F3B1F 
 495      F5347FF0 
 495      C56F3EC0 
 495      9D
 496 093c C2EB1E64 		.ascii	"\302\353\036d\266\306^f\027\367\231F=>v\324\343\363"
 496      B6C65E66 
 496      17F79946 
 496      3D3E76D4 
 496      E3F3
 497 094e C74FE21B 		.ascii	"\307O\342\033.1N\035d\320d\275\005\212\336UH\302\255"
 497      2E314E1D 
 497      64D064BD 
 497      058ADE55 
 497      48C2AD
 498 0961 AEEEC22C 		.ascii	"\256\356\302,}\027j\206\007\257\316'\220[\306\233\266"
 498      7D176A86 
 498      07AFCE27 
 498      905BC69B 
 498      B6
 499 0972 084CAF73 		.ascii	"\010L\257s\230\324\303%l\246\2562A\03285\036\313\355"
 499      98D4C325 
 499      6CA6AE32 
 499      411A3835 
 499      1ECBED
 500 0985 E7B9876D 		.ascii	"\347\271\207m\267\237\223\356\273\317\361\230l\265\004"
 500      B79F93EE 
 500      BBCFF198 
 500      6CB504
 501 0994 CF2C182A 		.ascii	"\317,\030*\237\330P\231kI\245\256\356\252\355\266,q"
 501      9FD85099 
 501      6B49A5AE 
 501      EEAAEDB6 
 501      2C71
 502 09a6 213B2EB5 		.ascii	"!;.\265f.\304\337\030.\373m\270\314\267\342\242mn\245"
 502      662EC4DF 
 502      182EFB6D 
 502      B8CCB7E2 
 502      A26D6EA5 
 503 09ba F6988FE2 		.ascii	"\366\230\217\342=\346\317m\000\026\330\350\325~[\237"
 503      3DE6CF6D 
 503      0016D8E8 
ARM GAS  /tmp/ccP0CSKa.s 			page 40


 503      D57E5B9F 
 504 09ca 6CB9DB09 		.ascii	"l\271\333\011\323`\026&\276\337\036\333\3017\311v\336"
 504      D3601626 
 504      BEDF1EDB 
 504      C137C976 
 504      DE
 505 09db 865AA3B5 		.ascii	"\206Z\243\265\236\217_]cO\255#\311&\376\0223\265\216"
 505      9E8F5F5D 
 505      634FAD23 
 505      C926FE12 
 505      33B58E
 506 09ee 449B5FB7 		.ascii	"D\233_\267\341\362\256\245\236\273\336\234~\277\332"
 506      E1F2AEA5 
 506      9EBBDE9C 
 506      7EBFDA
 507 09fd E8F6259A 		.ascii	"\350\366%\232e,\017\027\273\300\015M\217\221\267\333"
 507      652C0F17 
 507      BBC00D4D 
 507      8F91B7DB 
 508 0a0d 70D33035 		.ascii	"p\32305\363\007\230\021\231\344\257\311\264\226\377"
 508      F3079811 
 508      99E4AFC9 
 508      B496FF
 509 0a1c 3D1B37F9 		.ascii	"=\0337\371\274\207n\2622\231\233 \361\350g\372\265\211"
 509      BC876EB2 
 509      32999B20 
 509      F1E867FA 
 509      B589
 510 0a2e 6ABD0DD5 		.ascii	"j\275\015\325\325\226T\347\327u{\346\251\237\030oe!"
 510      D59654E7 
 510      D7757BE6 
 510      A99F186F 
 510      6521
 511 0a40 1B085C93 		.ascii	"\033\010\\\223\015\304Zki\333N\356\263\227\026\221\264"
 511      0DC45A6B 
 511      69DB4EEE 
 511      B3971691 
 511      B4
 512 0a51 93B6C993 		.ascii	"\223\266\311\223\370\226\317v\233\262\327\263e\377\224"
 512      F896CF76 
 512      9BB2D7B3 
 512      65FF94
 513 0a60 6B5457CD 		.ascii	"kTW\315\324\026N\203YK#\264\275w\273\273y\343e\321\226"
 513      D4164E83 
 513      594B23B4 
 513      BD77BBBB 
 513      79E365D1 
 514 0a75 EC58FBAD 		.ascii	"\354X\373\255%\333\337M\334\2525\2168\022\263\271+\362"
 514      25DBDF4D 
 514      DCAA358E 
 514      3812B3B9 
 514      2BF2
 515 0a87 1F7AFA70 		.ascii	"\037z\372p\326\207\300\035J`.\362\233\343\254\021c\320"
 515      D687C01D 
 515      4A602EF2 
 515      9BE3AC11 
 515      63D0
ARM GAS  /tmp/ccP0CSKa.s 			page 41


 516 0a99 164C7283 		.ascii	"\026Lr\203\357MV_y\035\2758\310w{\2546\277=\006\313"
 516      EF4D565F 
 516      791DBD38 
 516      C8777BAC 
 516      36BF3D06 
 517 0aae 411CE5E4 		.ascii	"A\034\345\344\337\030o\243l\361\240A\336\021Sq)\201"
 517      DF186FA3 
 517      6CF1A041 
 517      DE115371 
 517      2981
 518 0ac0 04EE0CCE 		.ascii	"\004\356\014\316\362\261'q\252;\212L\270\320\243\324"
 518      F2B12771 
 518      AA3B8A4C 
 518      B8D0A3D4 
 519 0ad0 03E8FA36 		.ascii	"\003\350\3726\333\251b{lh\372\020E\375\344\241/t\352"
 519      DBA9627B 
 519      6C68FA10 
 519      45FDE4A1 
 519      2F74EA
 520 0ae3 9F62EADF 		.ascii	"\237b\352\337\244\246\316\002\011\\\027\316\322\222"
 520      A4A6CE02 
 520      095C17CE 
 520      D292
 521 0af1 485DFB17 		.ascii	"H]\373\027B\275\305\021\365\003\373\011uc\364\377z\226"
 521      42BDC511 
 521      F503FB09 
 521      7563F4FF 
 521      7A96
 522 0b03 01DBB3D1 		.ascii	"\001\333\263\321\377A\262SA\206\222\263\314`\256\306"
 522      FF41B253 
 522      418692B3 
 522      CC60AEC6 
 523 0b13 FEAA7684 		.ascii	"\376\252v\204\200]\306/\033\325\272\006\0130\314N\325"
 523      805DC62F 
 523      1BD5BA06 
 523      0B30CC4E 
 523      D5
 524 0b24 B0AF0C35 		.ascii	"\260\257\01458\301K\262\223pi?\265\223\260\3245\030"
 524      38C14BB2 
 524      9370693F 
 524      B593B0D4 
 524      3518
 525 0b36 4BEE1A0D 		.ascii	"K\356\032\015\266\322\011\230\325\262\276\325A\373\210"
 525      B6D20998 
 525      D5B2BED5 
 525      41FB88
 526 0b45 C8EFF4A0 		.ascii	"\310\357\364\240!\363.<\244\335\215\343V\034\357\303"
 526      21F32E3C 
 526      A4DD8DE3 
 526      561CEFC3 
 527 0b55 F1011C1F 		.ascii	"\361\001\034\037\242\207\272\002\267!\313\250#\226\236"
 527      A287BA02 
 527      B721CBA8 
 527      23969E
 528 0b64 98CA2554 		.ascii	"\230\312%Tm\235}\355\260\232\270A\305>;\211\177\025"
 528      6D9D7DED 
 528      B09AB841 
ARM GAS  /tmp/ccP0CSKa.s 			page 42


 528      C53E3B89 
 528      7F15
 529 0b76 D78EA3B8 		.ascii	"\327\216\243\270vl\311JY;\314S\343\2038\313\211\304"
 529      766CC94A 
 529      593BCC53 
 529      E38338CB 
 529      89C4
 530 0b88 DA716408 		.ascii	"\332qd\010\251\035'\034\324\216\311\332\3157\235\315"
 530      A91D271C 
 530      D48EC9DA 
 530      CD379DCD 
 531 0b98 CC17C58A 		.ascii	"\314\027\305\212\377\011%\307\311\223\306\212\320\027"
 531      FF0925C7 
 531      C993C68A 
 531      D017
 532 0ba6 588EAF52 		.ascii	"X\216\257R\313\301\002A-\307Y\316X\310\361[\"\307\031"
 532      CBC10241 
 532      2DC759CE 
 532      58C8F15B 
 532      22C719
 533 0bb9 47726C7C 		.ascii	"Grl|\323\360\375v<\036\237\336\333\200\355\331\212\320"
 533      D3F0FD76 
 533      3C1E9FDE 
 533      DB80EDD9 
 533      8AD0
 534 0bcb 26F27E05 		.ascii	"&\362~\005\001\233\343\032\214\365\375\346\326\330\332"
 534      019BE31A 
 534      8CF5FDE6 
 534      D6D8DA
 535 0bda 0C1EAE2C 		.ascii	"\014\036\256,p\202\227d\305`K\253yW\316\371\220\353"
 535      70829764 
 535      C5604BAB 
 535      7957CEF9 
 535      90EB
 536 0bec A279B8E1 		.ascii	"\242y\270\341\344m\364\230\337\302X\230\314z\276\301"
 536      E46DF498 
 536      DFC25898 
 536      CC7ABEC1 
 537 0bfc 8A79B737 		.ascii	"\212y\2677ko\323$\012\225e\307\343;\217e7l\365\014\332"
 537      6B6FD324 
 537      0A9565C7 
 537      E33B8F65 
 537      376CF50C 
 538 0c11 0BD70A63 		.ascii	"\013\327\012c\014\200\326\027\2372vY\361\234\275\311"
 538      0C80D617 
 538      9F327659 
 538      F19CBDC9 
 539 0c21 09A055D3 		.ascii	"\011\240U\323hu\320\356\013\035\003n\200\316\341\206"
 539      6875D0EE 
 539      0B1D036E 
 539      80CEE186 
 540 0c31 A613C75F 		.ascii	"\246\023\307_\341\370k\034_u2\313F^\027\303\376\322"
 540      E1F86B1C 
 540      5F7532CB 
 540      465E17C3 
 540      FED2
 541 0c43 23E815BD 		.ascii	"#\350\025\275g\236|;\356\311\"\177\3365\030\243Hm\326"
ARM GAS  /tmp/ccP0CSKa.s 			page 43


 541      679E7C3B 
 541      EEC9227F 
 541      DE3518A3 
 541      486DD6
 542 0c56 7EDA9345 		.ascii	"~\332\223E\376\202\023\274$\236\254\277^B\252Eso\336"
 542      FE8213BC 
 542      249EACBF 
 542      5E42AA45 
 542      736FDE
 543 0c69 25582099 		.ascii	"%X \231QNPF9\211\215r\012\233\340:\216o\340\370&\333"
 543      514E5046 
 543      39898D72 
 543      0A9BE03A 
 543      8E6FE0F8 
 544 0c7f 137CD6DB 		.ascii	"\023|\326\333\324\023\260\255\256U\307D\353G\3256\267"
 544      D413B0AD 
 544      AE55C744 
 544      EB47D536 
 544      B7
 545 0c90 813CCEB7 		.ascii	"\201<\316\2672\316\031[\031wp\363\271\267\267e\363\231"
 545      32CE195B 
 545      197770F3 
 545      B9B7B765 
 545      F399
 546 0ca2 6C2BE314 		.ascii	"l+\343\024\316\242z\023\307w/\220\346\023=J\321|\276"
 546      CEA27A13 
 546      C7772F90 
 546      E6133D4A 
 546      D17CBE
 547 0cb5 52ADAD9B 		.ascii	"R\255\255\233\2754\336\015T\307*p\223`?\222g\366\351"
 547      BD34DE0D 
 547      54C72A70 
 547      93603F92 
 547      67F6E9
 548 0cc8 2FC668B8 		.ascii	"/\306h\270tRk\323\305\345\021\371\311^d\272j/c\250\233"
 548      74526BD3 
 548      C5E511F9 
 548      C95E64BA 
 548      6A2F63A8 
 549 0cdd 66435995 		.ascii	"fCY\225g\373*\230\252\035n#~\354\330T\027/?\201\347"
 549      67FB2A98 
 549      AA1D6E23 
 549      7EECD854 
 549      172F3F81 
 550 0cf2 9B53BDC8 		.ascii	"\233S\275\310P\253\262]\032\012\0115\315d$\355;)@\356"
 550      50ABB25D 
 550      1A0A0935 
 550      CD6424ED 
 550      3B2940EE 
 551 0d06 3A781BFC 		.ascii	":x\033\374,^rv>An=\255o\031\316\360\242\252\365\261"
 551      2C5E7276 
 551      3E416E3D 
 551      AD6F19CE 
 551      F0A2AAF5 
 552 0d1b 89700FB7 		.ascii	"\211p\017\267\014?\3030\323~(3O\243\314<\035\233\371"
 552      0C3FC330 
 552      D37E2833 
ARM GAS  /tmp/ccP0CSKa.s 			page 44


 552      4FA3CC3C 
 552      1D9BF9
 553 0d2e 2FAC99F7 		.ascii	"/\254\231\367f;0\263\325&\206uy\037S-\302V\334\"l\303"
 553      663B30B3 
 553      D5268675 
 553      791F532D 
 553      C256DC22 
 554 0d44 ADC0111C 		.ascii	"\255\300\021\034\337\306\361\024\226\301\201\230\342"
 554      DFC6F114 
 554      96C18198 
 554      E2
 555 0d51 2C275808 		.ascii	",'X\010u\266\227\231\360-B\323\343\216\305|\215\012"
 555      75B69799 
 555      F02D42D3 
 555      E38EC57C 
 555      8D0A
 556 0d63 D3635583 		.ascii	"\323cU\203Ij\177znI-\177\261C!\004\365\226\327\355\307"
 556      496A7F7A 
 556      6E492D7F 
 556      B1432104 
 556      F596D7ED 
 557 0d78 5A73BDD6 		.ascii	"Zs\275\326\037kyc\022\264%H\220P\354\333\254\004\253"
 557      1F6B7963 
 557      12B42548 
 557      9050ECDB 
 557      AC04AB
 558 0d8b B4F6357B 		.ascii	"\264\3665{\316\034\340\347\250j\242\004\314<\333\360"
 558      CE1CE0E7 
 558      A86AA204 
 558      CC3CDBF0 
 559 0d9b 7B68C392 		.ascii	"{h\303\222\014UO\002\203\224#Z\221_\340E}I\275\271)"
 559      0C554F02 
 559      8394235A 
 559      915FE045 
 559      7D49BDB9 
 560 0db0 5BD7D6DC 		.ascii	"[\327\326\334\017{r\275\243\232r\363N\013\331\234A\355"
 560      0F7B72BD 
 560      A39A72F3 
 560      4E0BD99C 
 560      41ED
 561 0dc2 93C09DC3 		.ascii	"\223\300\235\303\322\327\273\367\330\330^\017\2063\015"
 561      D2D7BBF7 
 561      D8D85E0F 
 561      86330D
 562 0dd1 6C9A6D56 		.ascii	"l\232mV\207\021\275\305^\252]\274\340\272\370\000S\374"
 562      8711BDC5 
 562      5EAA5DBC 
 562      E0BAF800 
 562      53FC
 563 0de3 6DA96520 		.ascii	"m\251e \201\024\270o\235`\245\330g2\260\272\\c\005\022"
 563      8114B86F 
 563      9D60A5D8 
 563      6732B0BA 
 563      5C630512 
 564 0df7 6A13B183 		.ascii	"j\023\261\203\310/\364\242z\323\210\343wp\274\324\233"
 564      C82FF4A2 
 564      7AD388E3 
ARM GAS  /tmp/ccP0CSKa.s 			page 45


 564      7770BCD4 
 564      9B
 565 0e08 72906352 		.ascii	"r\220cRh\235\015\023\204\277\334\233i*\333\306\221\351"
 565      689D0D13 
 565      84BFDC9B 
 565      692ADBC6 
 565      91E9
 566 0e1a 6A8632D9 		.ascii	"j\2062\331\372\373\012\275\232\305\253\217\371R\340"
 566      FAFB0ABD 
 566      9AC5AB8F 
 566      F952E0
 567 0e29 AA735256 		.ascii	"\252sRV\233\377\321\253\315 n\215:U\033.\362\363\000"
 567      9BFFD1AB 
 567      CD206E8D 
 567      3A551B2E 
 567      F2F300
 568 0e3c 37A6FAFF 		.ascii	"7\246\372\377\342n\251\265\320\023\3178[H\350\240\252"
 568      E26EA9B5 
 568      D013CF38 
 568      5B48E8A0 
 568      AA
 569 0e4d 7569AFF6 		.ascii	"ui\257\366\341k\3650Y\324\327\257\210\344\0027\303\\"
 569      E16BF530 
 569      59D4D7AF 
 569      88E40237 
 569      C35C
 570 0e5f 1A5B39F0 		.ascii	"\032[9\360:!\224\3660\367vN\275\232A\225:\224 \020+"
 570      3A2194F6 
 570      30F7764E 
 570      BD9A4195 
 570      3A942010 
 571 0e74 9022B5E6 		.ascii	"\220\"\265\346\355\274\315\027\325\314\247]GbE<\250"
 571      EDBCCD17 
 571      D5CCA75D 
 571      4762453C 
 571      A8
 572 0e85 17B1C675 		.ascii	"\027\261\306u\363\263\326\246\371y \251\361E~u\334\246"
 572      F3B3D6A6 
 572      F97920A9 
 572      F1457E75 
 572      DCA6
 573 0e97 0F73CB41 		.ascii	"\017s\313A\246\332\241\361\342\2113\241\034\244.\021"
 573      A6DAA1F1 
 573      E28933A1 
 573      1CA42E11 
 574 0ea7 B7A2AF97 		.ascii	"\267\242\257\227\352\302NU\265\375i\3446\373]\245^."
 574      EAC24E55 
 574      B5FD69E4 
 574      36FB5DA5 
 574      5E2E
 575 0eb9 6FA8646E 		.ascii	"o\250dn\016k\203)\0266\330\226\332\006\033\031\213["
 575      0E6B8329 
 575      1636D896 
 575      DA061B19 
 575      8B5B
 576 0ecb EA7E074F 		.ascii	"\352~\007O\244{\230\333\375\275\304J7\304\322\022\305"
 576      A47B98DB 
ARM GAS  /tmp/ccP0CSKa.s 			page 46


 576      FDBDC44A 
 576      37C4D212 
 576      C5
 577 0edc 128CD26A 		.ascii	"\022\214\322jY\261\232\247Y\210\325\231Z,-\245X\037"
 577      59B19AA7 
 577      5988D599 
 577      5A2C2DA5 
 577      581F
 578 0eee ED72E452 		.ascii	"\355r\344R-1\350\373u\350m\256]\352S\033\227\352\227"
 578      2D31E8FB 
 578      75E86DAE 
 578      5DEA531B 
 578      97EA97
 579 0f01 C2A5B6D2 		.ascii	"\302\245\266\322.\365\255\256\373m=\321\375\301LC\367"
 579      2EF5ADAE 
 579      FB6D3DD1 
 579      FDC14C43 
 579      F7
 580 0f12 5B1375EF 		.ascii	"[\023u\3571T2\237\325\375\251\031\026\272\237\236\233"
 580      3154329F 
 580      D5FDA919 
 580      16BA9F9E 
 580      9B
 581 0f23 52F73B53 		.ascii	"R\367;S\352\376\362\036G\272O\204\336\343Z\367\2556"
 581      EAFEF21E 
 581      47BA4F84 
 581      DEE35AF7 
 581      AD36
 582 0f35 BACF6175 		.ascii	"\272\317au\220\220o7\255\373\267r\211\356\367\364D\367"
 582      90906F37 
 582      ADFBB772 
 582      89EEF7F4 
 582      44F7
 583 0f47 D7B20DDD 		.ascii	"\327\262\015\335\357L\324=\371\322\322\350\017L]\310"
 583      EF4CD43D 
 583      F9D2D2E8 
 583      0F4C5DC8 
 584 0f57 464F1F5B 		.ascii	"FO\037[~\373\275\326\377[\201,\254\333\345:`\233\353"
 584      7EFBBDD6 
 584      FF5B812C 
 584      ACDBE53A 
 584      609BEB
 585 0f6a 6892FEFF 		.ascii	"h\222\376\377\240m\256\267\274\366\014\017\331\346\332"
 585      A06DAEB7 
 585      BCF60C0F 
 585      D9E6DA
 586 0f79 93A4AC36 		.ascii	"\223\244\2546\257\371\223\373\272\272SW\370\232j\225"
 586      AFF993FB 
 586      BABA5357 
 586      F89A6A95 
 587 0f89 ECCC2C9A 		.ascii	"\354\314,\232\352u\261+x\304\233\2707\2634\227\2358"
 587      EA75B12B 
 587      78C49BB8 
 587      37B33497 
 587      9D38
 588 0f9b E89F484F 		.ascii	"\350\237HOV"
 588      56
ARM GAS  /tmp/ccP0CSKa.s 			page 47


 589 0fa0 572F57FD 		.ascii	"W/W\375\306\036\272\310\037\366&\375\360\376\2507a\027"
 589      C61EBAC8 
 589      1FF626FD 
 589      F0FEA837 
 589      6117
 590 0fb2 49BBA41D 		.ascii	"I\273\244\035\306\213\011h\317\360#\365\221\014\027"
 590      C68B0968 
 590      CFF023F5 
 590      910C17
 591 0fc1 DBC4272C 		.ascii	"\333\304',\210nHN\364\030O\\\355xr\242\237\263DM\246"
 591      886E484E 
 591      F4184F5C 
 591      ED7872A2 
 591      9FB3444D 
 592 0fd6 9893643D 		.ascii	"\230\223d=\353T\334\0246\025t\260\221%]\317\322\356"
 592      EB54DC14 
 592      361574B0 
 592      91255DCF 
 592      D2EE
 593 0fe8 BA7E7E61 		.ascii	"\272~~aS?\323\254\371\326&\341\373w[\207[\222$\327i"
 593      533FD3AC 
 593      F9D626E1 
 593      FB775B87 
 593      5B9224D7 
 594 0ffd DB5C0D   		.ascii	"\333\\\015"
 595 1000 49729D89 		.ascii	"Ir\235\211\347\302\262V'\235\301\212\374y\374\332K\352"
 595      E7C2B256 
 595      279DC18A 
 595      FC79FCDA 
 595      4BEA
 596 1012 09A9D5A4 		.ascii	"\011\251\325\244\"\366\025\351K\\l2\\\277\364X\204l"
 596      22F615E9 
 596      4B5C6C32 
 596      5CBFF458 
 596      846C
 597 1024 4675E066 		.ascii	"Fu\340f\371/}R/\26738x\302l\236\276\3379\226\245z\311"
 597      F92F7D52 
 597      2FB73338 
 597      78C26C9E 
 597      BEDF3996 
 598 103b FDD40B2C 		.ascii	"\375\324\013,\335\307\214\205\263\263xB>\017S\350\354"
 598      DDC78C85 
 598      B3B37842 
 598      3E0F53E8 
 598      EC
 599 104c D9BC04F0 		.ascii	"\331\274\004\360f\036\307\013g\004\254\3365X\200\001"
 599      661EC70B 
 599      6704ACDE 
 599      35588001 
 600 105c ABA1C11A 		.ascii	"\253\241\301\032\235\200\331M3\000l\016\015\266\324"
 600      9D80D94D 
 600      33006C0E 
 600      0DB6D4
 601 106b 3518CB6C 		.ascii	"5\030\313l.\015\366W'`v\373Y\000VK\203\255t\015\306"
 601      2E0DF657 
 601      276076FB 
 601      5900564B 
ARM GAS  /tmp/ccP0CSKa.s 			page 48


 601      83AD740D 
 602 1080 329B4F83 		.ascii	"2\233O\203\255v\002f\367\231\012\200-\240\3016\270\006"
 602      AD760266 
 602      F7990A80 
 602      2DA0C136 
 602      B806
 603 1092 639935D0 		.ascii	"c\2315\320`[\234\200\005\354\231\255\242\301\266\272"
 603      605B9C80 
 603      05EC99AD 
 603      A2C1B6BA 
 604 10a2 066399AD 		.ascii	"\006c\231\255\246\301v8\001\263{\341\025\300\326\322"
 604      A6C17638 
 604      01B37BE1 
 604      15C0D6D2 
 605 10b2 60BB5C83 		.ascii	"`\273\\\203\261\314\232h\260V'`v\257\316\2762I\333\360"
 605      B1CC9A68 
 605      B0562760 
 605      76AFCEBE 
 605      3249DBF0 
 606 10c6 C799223D 		.ascii	"\307\231\"=\027E\2506\2034:Yg\262\261\334\024\237\333"
 606      1745A836 
 606      83343A59 
 606      67B2B1DC 
 606      149FDB
 607 10d9 BE62AACF 		.ascii	"\276b\252\317\272\257\210\357\364\320\251\320R\227Y"
 607      BAAF88EF 
 607      F4D0A9D0 
 607      529759
 608 10e8 6CCBC56F 		.ascii	"l\313\305o\273\267|A\211\233h%\036v\242\304\241\366"
 608      BBB77C41 
 608      899B6825 
 608      1E76A2C4 
 608      A1F6
 609 10fa 609B69B0 		.ascii	"`\233i\260\023N\300\354>\357\004\260-4X\273k0\226\331"
 609      134EC0EC 
 609      3EEF04B0 
 609      2D3458BB 
 609      6B3096D9 
 610 110e 5E1AECAC 		.ascii	"^\032\354\254\0230\273\317;\001l?\015\366\245k0\232"
 610      1330BBCF 
 610      3B016C3F 
 610      0DF6A56B 
 610      309A
 611 1120 D924ED60 		.ascii	"\331$\355`\334\361\320K\370\214\347\015e[[&\031\345"
 611      DCF1D04B 
 611      F88CE70D 
 611      655B5B26 
 611      19E5
 612 1132 79A66422 		.ascii	"y\246d\"?\327g\214\342\233xf\255$v)p\337\230y3(\372"
 612      3FD7678C 
 612      E29B7866 
 612      AD247629 
 612      70DF9879 
 613 1149 A9D597A4 		.ascii	"\251\325\227\244V\007\335\323\302P\000/\013\177\205"
 613      5607DDD3 
 613      C250002F 
 613      0B7F85
ARM GAS  /tmp/ccP0CSKa.s 			page 49


 614 1158 9795BEC6 		.ascii	"\227\225\276\306\361E\034_\306\361w8\276\212\343\353"
 614      F1451C5F 
 614      C6F17738 
 614      BE8AE3EB 
 615 1168 38BE89E3 		.ascii	"8\276\211\343.\034\337\301q7\216'\371\360\233\2568~"
 615      2E1CDFC1 
 615      71378E27 
 615      F9F09BAE 
 615      387E
 616 117a 15C76FE0 		.ascii	"\025\307o\340x:\216g\340x&\216kp<\307G-a\231\206:\035"
 616      783A8E67 
 616      E078268E 
 616      6B703CC7 
 616      472D6199 
 617 1191 4916AB6A 		.ascii	"I\026\253j}v\003\244eI\006H\363ls\255L\222k\276\317"
 617      7D7603A4 
 617      65490648 
 617      F36C73AD 
 617      4C926BBE 
 618 11a6 3CFA6FFB 		.ascii	"<\372o\373\340\333\376\306?\334z\204\274l%p\353\373"
 618      E0DBFEC6 
 618      3FDC7A84 
 618      BC6C2570 
 618      EBFB
 619 11b8 261D1993 		.ascii	"&\035\031\223W\312`\336\351K:2^\340K62nJB\263\301V\270"
 619      57CA60DE 
 619      E94B3A32 
 619      5EE04B36 
 619      326E4A42 
 620 11d0 1D49A636 		.ascii	"\035I\2466\013\343\2718o\250T\224\237\313+\255(\227"
 620      0BE3B938 
 620      6FA85494 
 620      9FCB2BAD 
 620      2897
 621 11e2 F2421525 		.ascii	"\362B\025%\023\363J\244qy\241\322\360\350pE4O\221\253"
 621      13F34AA4 
 621      7179A1D2 
 621      F0E87045 
 621      344F91AB 
 622 11f6 222FE7C1 		.ascii	"\"/\347\301\211\254\344UV\310J4\357w\305\303\212\206"
 622      89ACE455 
 622      56C84A34 
 622      EF77C5C3 
 622      8A86
 623 1208 4D8094E5 		.ascii	"M\200\224\345\225\3412I\216\346=[T\004\311\225\211\225"
 623      95E13249 
 623      8EE63D5B 
 623      5404C995 
 623      8995
 624 121a 52744029 		.ascii	"Rt@)\347+\217\216\015*i\317\376\341\305@\021\367\263"
 624      E72B8F8E 
 624      0D2A69CF 
 624      FEE1C540 
 624      11F7B3
 625 122d BCAAA89C 		.ascii	"\274\252\250\234'\312\345\217G*\"\322\343\2228:\234"
 625      27CAE58F 
 625      472A22D2 
ARM GAS  /tmp/ccP0CSKa.s 			page 50


 625      E392383A 
 625      9C
 626 123e 178E84CA 		.ascii	"\027\216\204\312\252J\244\274\250R\022\216(\220#\035"
 626      AA4AA4BC 
 626      A852128E 
 626      2890231D 
 627 124e 7E0A0B82 		.ascii	"~\012\013\202\312\240$\211\313E \024\221\362\202%\322"
 627      CAA02489 
 627      CB452014 
 627      91F28225 
 627      D2
 628 125f 18B1AA4C 		.ascii	"\030\261\252L\011\032\305\371\203A={^R\011\024)\252"
 628      091AC5F9 
 628      83413D7B 
 628      5E520914 
 628      29AA
 629 1271 2019D0AF 		.ascii	" \031\320\257RZ2 \304\245)\245\262$\226\360\225Yp\235"
 629      525A3220 
 629      C4A529A5 
 629      B22496F0 
 629      9559709D 
 630 1285 1F942648 		.ascii	"\037\224&H\241*EB\027\005\364E\241qq\017\\\0142.\006"
 630      A12A4542 
 630      1705F445 
 630      A171710F 
 630      5C0C322E 
 631 129a 548AB232 		.ascii	"T\212\2622``\026}\357\227\216\011 5\005\177_QQvo\020"
 631      6060167D 
 631      EF978E09 
 631      2035057F 
 631      5F515176 
 632 12b0 5D06C568 		.ascii	"]\006\305hT\222\225`T\372S\225\024\011I}\360\315\361"
 632      54929560 
 632      54FA5395 
 632      1409497D 
 632      F0CDF1
 633 12c3 6218C4C4 		.ascii	"b\030\304\304\034\243O8\260\216\241*0\005\311\004\245"
 633      1CA34F38 
 633      B08EA12A 
 633      3005C904 
 633      A5
 634 12d4 0C76952F 		.ascii	"\014v\225/:1j\2505\203`\004\025\177\250T'1\310\035V"
 634      3A316AA8 
 634      35836004 
 634      157FA854 
 634      2731C81D 
 635 12e9 08945CCA 		.ascii	"\010\224\\\312\245U\006#\322\004\005~*ei\\\272R)\207"
 635      A5550623 
 635      D204057E 
 635      2A65695C 
 635      BA522987 
 636 12fd 2B824A46 		.ascii	"+\202JF\225n\263^\301\240q\212\223\204+\322C\025\021"
 636      956EB35E 
 636      C1A0718A 
 636      93842BD2 
 636      431511
 637 1310 05723CE9 		.ascii	"\005r<\351\332\037KC\025\262\004Ef\242\333\310)B\312"
ARM GAS  /tmp/ccP0CSKa.s 			page 51


 637      DA1F4B43 
 637      15B20445 
 637      66A2DBC8 
 637      2942CA
 638 1323 84DFF60C 		.ascii	"\204\337\366\014%8\356\211r\244\004Y\032\013\356\030"
 638      2538EE89 
 638      72A40459 
 638      1A0BEE18 
 639 1333 543CD1FC 		.ascii	"T<\321\374_Cx\002\302`\010Oz\242\005\003!\344C(\200"
 639      5F437802 
 639      C260084F 
 639      7AA20503 
 639      21E44328 
 640 1348 50086110 		.ascii	"P\010a\020\204_A\200t\005\220\256\000\322\025@\272B"
 640      845F4180 
 640      740590AE 
 640      00D21540 
 640      BA42
 641 135a 4857982F 		.ascii	"HW\230/\310\203\004\371W\202\374kA~B\220\007\013\362"
 641      C88304F9 
 641      5782FC6B 
 641      417E4290 
 641      070BF2
 642 136d 931E397F 		.ascii	"\223\0369\177 \204|\241L\206\237B_e\020\330\246#e\215"
 642      20847CA1 
 642      4C869F42 
 642      5F6510D8 
 642      A623658D 
 643 1381 9764F8AD 		.ascii	"\227d\370\255(+\221d\244<\261\\\312P\242\212\250HA%"
 643      282B9164 
 643      A43CB15C 
 643      CA50A28A 
 643      A8484125 
 644 1395 1DE96A30 		.ascii	"\035\351j0\330\204h\015\316 %~\226\256\224W\224H\370"
 644      D884680D 
 644      CE20257E 
 644      96AE9457 
 644      9448F8
 645 13a8 7A4C9938 		.ascii	"zL\23186\232\256\310\322\230(V*:I\223K&B\265\314\220"
 645      369AAEC8 
 645      D2982856 
 645      2A3A4993 
 645      4B2642B5 
 646 13be 268415D0 		.ascii	"&\204\025\320\205\2246^\251\030\375\037\225\231\322"
 646      8594365E 
 646      A918FD1F 
 646      9599D2
 647 13cd 3829A294 		.ascii	"8)\242\224\213\321\227!\2454\036\235x*\203U\331\272"
 647      8BD19721 
 647      A5341E9D 
 647      782A8355 
 647      D9BA
 648 13df FF04CBC2 		.ascii	"\377\004\313\302\340\206JN\314\003\310\035\177%v\315"
 648      E0864A4E 
 648      CC03C81D 
 648      7F2576CD 
 649 13ef 70646C8E 		.ascii	"pdl\216q\033\334\266\012J\317\245R\342[\275*\203P,>"
ARM GAS  /tmp/ccP0CSKa.s 			page 52


 649      711BDCB6 
 649      0A4ACFA5 
 649      52E25BBD 
 649      2A83502C 
 650 1404 F5E153B8 		.ascii	"\365\341S\270!UJ\021\250\370c}\345Pe&\024\272r\252r"
 650      21554A11 
 650      A8F8637D 
 650      E5506526 
 650      14BA72AA 
 651 1419 65026A2F 		.ascii	"e\002j/\312\011:\374V\214\217\200\2720\022\210P\216"
 651      CA093AFC 
 651      568C8F80 
 651      BA301288 
 651      508E
 652 142b 7D0DF841 		.ascii	"}\015\370A:\304\264\027\222^,\303n\0057+\241\302\025"
 652      3AC4B417 
 652      925E2CC3 
 652      6E05372B 
 652      A1C215
 653 143e E036A62C 		.ascii	"\3406\246,<:ol(djk\006\015\030<`\020\335<A[\203\\8\032"
 653      3C3A6F6C 
 653      28646A6B 
 653      060D183C 
 653      6010DD3C 
 654 1458 FE4FA45A 		.ascii	"\376O\244ZeLU$\024T\372\204JG\226\226\024\001\260\""
 654      654C5524 
 654      1454FA84 
 654      4A479696 
 654      1401B022 
 655 146c 8D00DD87 		.ascii	"\215\000\335\207C9\270\272J\345\250\272V\274,Ez\341"
 655      4339B8BA 
 655      4AE5A8BA 
 655      56BC2C45 
 655      7AE1
 656 147e 14F04C56 		.ascii	"\024\360LV\262\250\304\317g\321\225=\227$\222\224\341"
 656      B2A8C4CF 
 656      67D1953D 
 656      97249294 
 656      E1
 657 148f C04E0E2B 		.ascii	"\300N\016+\023\375\250\366\205\313\241$=\177\231$U\366"
 657      13FDA8F6 
 657      85CBA124 
 657      3D7F9924 
 657      55F6
 658 14a1 63DA07FC 		.ascii	"c\332\007\374x|8RR1>'\236\346\305\210\022.\313\246\232"
 658      787C3852 
 658      52313E27 
 658      9EE6C588 
 658      122ECBA6 
 659 14b6 8C70E865 		.ascii	"\214p\350ea\274\230\011\306@\220R9\251\304\344<\013"
 659      61BC9809 
 659      C6409052 
 659      39A9C4E4 
 659      3C0B
 660 14c8 5967A26E 		.ascii	"Yg\242n\331\336p;~\235.\023\265\246\311\270\"\372d\354"
 660      D9DE703B 
 660      7E9D2E13 
ARM GAS  /tmp/ccP0CSKa.s 			page 53


 660      B5A6C9B8 
 660      22FA64EC 
 661 14dc 92B2EE92 		.ascii	"\222\262\356\2222qI?\334\255\222ep\033\237\2142\335"
 661      3271493F 
 661      DCAD9265 
 661      701B9F8C 
 661      32DD
 662 14ee 3B2E2C2B 		.ascii	";.,+Ub\031\346&\033.s\037\000[<\310a\356\021\177an\245"
 662      556219E6 
 662      261B2E73 
 662      1F005B3C 
 662      C861EE11 
 663 1506 8F53B009 		.ascii	"\217S\260\011\321/j/2\340\267D*SD8!\332GO\320Y\032J"
 663      D12F6A2F 
 663      32E0B744 
 663      2A534438 
 663      21DA474F 
 664 151e 21CA99F0 		.ascii	"!\312\231\360S&B\213\016\271\341\026*$[\027\272D\032"
 664      5326428B 
 664      0EB9E116 
 664      2A245B17 
 664      BA441A
 665 1531 5D359678 		.ascii	"]5\226x/}\307_)F\302!\344\213\236\222\321c\013\334\265"
 665      2F7DC75F 
 665      2946C221 
 665      E48B9E92 
 665      D1630BDC 
 666 1546 ABA851C8 		.ascii	"\253\250Q\310U\312\203!\021<H\006\333WD\200\222\254"
 666      55CA8321 
 666      113C4806 
 666      DB574480 
 666      92AC
 667 1558 84222074 		.ascii	"\204\" tZ\305\2301QI\021\224r!T\232\256\327\203\014"
 667      5AC59831 
 667      51491194 
 667      7221549A 
 667      AED7830C 
 668 156c 64979018 		.ascii	"d\227\220\030\225\274\250&\373\340yU%\334\023e\260a"
 668      95BCA826 
 668      FBE07955 
 668      25DC1365 
 668      B061
 669 157e 245DEF38 		.ascii	"$]\3578zU\212\212\"\311\021\350L2\364\376)?w\200\\Q"
 669      7A558A8A 
 669      22C911E8 
 669      4C32F4FE 
 669      293F7780 
 670 1594 222AE200 		.ascii	"\"*\342\000\343\306\203#\011\342/\003R\004\331\011\252"
 670      E3C68323 
 670      09E22F03 
 670      5204D909 
 670      AA
 671 15a5 50003D0B 		.ascii	"P\000=\013\374c>g\344*\260OT\020KTx\177,Q\245\356{\001"
 671      FC633E67 
 671      E42AB04F 
 671      54104B54 
 671      787F2C51 
ARM GAS  /tmp/ccP0CSKa.s 			page 54


 672 15bd 180144C6 		.ascii	"\030\001D\306J\261$\203rcI@\375\342\304(G\274\376\331"
 672      4AB12483 
 672      72634940 
 672      FDE2C428 
 672      47BCFED9 
 673 15d1 B8BB8EEA 		.ascii	"\270\273\216\352m\334\031!\225\215\031\365\317\251\024"
 673      6DDC1921 
 673      958D19F5 
 673      CFA914
 674 15e0 592A96E9 		.ascii	"Y*\226\351-\355\210\221\303\012\013\362^x\341\351\274"
 674      2DED8891 
 674      C30A0BF2 
 674      5E78E1E9 
 674      BC
 675 15f1 91CF0F1B 		.ascii	"\221\317\017\033\227\017\025\255\034\265\377a\244\334"
 675      970F15AD 
 675      1CB5FF61 
 675      A4DC
 676 15ff CCD80534 		.ascii	"\314\330\0054\272E\305\371\020\012\274#\206\025\025"
 676      BA45C5F9 
 676      100ABC23 
 676      861515
 677 160e 7B9F7EFE 		.ascii	"{\237~\376\231baD\261\347\231g\213}EE\303\212\363q\\"
 677      99626144 
 677      B1E79967 
 677      8B7D4545 
 677      C38AF371 
 678 1623 E02D2A7A 		.ascii	"\340-*z\246\330S\364\207\221\236\341#\212<\277+.\366"
 678      A6D853F4 
 678      87919EE1 
 678      238A3CBF 
 678      2B2EF6
 679 1636 1417C135 		.ascii	"\024\027\3015d\370\375\323#\213=O\243\234\303~W,\374"
 679      64F8FDD3 
 679      238B3D4F 
 679      A39CC37E 
 679      572CFC
 680 1649 2BC95508 		.ascii	"+\311U\010\351G\025\027}\037\262\301\2622\324\261\365"
 680      E9471517 
 680      7D1FB2C1 
 680      B232D4B1 
 680      F5
 681 165a 2567C1B1 		.ascii	"%g\301\261\222\022\014UTA\237%\377\037\031il\352"
 681      92120C55 
 681      54419F25 
 681      FF1F1969 
 681      6CEA
 682              		.text
 683              		.section	.gnu.lto_.symtab.fcb8b00a7c7179dc,"",%progbits
 684 0000 70617474 		.ascii	"patternthd\000\000\000\000\000\000\000\000\000\000\000"
 684      65726E74 
 684      68640000 
 684      00000000 
 684      00000000 
 685 0015 00180200 		.ascii	"\000\030\002\000\000testthd1\000\000\000\000\000\000"
 685      00746573 
 685      74746864 
ARM GAS  /tmp/ccP0CSKa.s 			page 55


 685      31000000 
 685      000000
 686 0028 00000000 		.ascii	"\000\000\000\000\000\000-\002\000\000testthd2\000\000"
 686      00002D02 
 686      00007465 
 686      73747468 
 686      64320000 
 687 003c 00000000 		.ascii	"\000\000\000\000\000\000\000\000\000\0008\002\000\000"
 687      00000000 
 687      00003802 
 687      0000
 688 004a 74657374 		.ascii	"testthd3\000\000\000\000\000\000\000\000\000\000\000"
 688      74686433 
 688      00000000 
 688      00000000 
 688      000000
 689 005d 003F0200 		.ascii	"\000?\002\000\000testthd4\000\000\000\000\000\000\000"
 689      00746573 
 689      74746864 
 689      34000000 
 689      00000000 
 690 0071 00000000 		.ascii	"\000\000\000\000\000I\002\000\000wa\000\000\002\000"
 690      00490200 
 690      00776100 
 690      000200
 691 0080 00000000 		.ascii	"\000\000\000\000\000\000\000\000\270\001\000\000ch\000"
 691      00000000 
 691      B8010000 
 691      636800
 692 008f 00020000 		.ascii	"\000\002\000\000\000\000\000\000\000\000\000\275\001"
 692      00000000 
 692      000000BD 
 692      01
 693 009c 00007468 		.ascii	"\000\000threads\000\000\002\000\000\000\000\000\000"
 693      72656164 
 693      73000002 
 693      00000000 
 693      0000
 694 00ae 00000014 		.ascii	"\000\000\000\024\002\000\000_test_assert_sequence\000"
 694      0200005F 
 694      74657374 
 694      5F617373 
 694      6572745F 
 695 00cb 00020000 		.ascii	"\000\002\000\000\000\000\000\000\000\000\000\315\000"
 695      00000000 
 695      000000CD 
 695      00
 696 00d8 00007465 		.ascii	"\000\000test_wait_threads\000\000\002\000\000\000\000"
 696      73745F77 
 696      6169745F 
 696      74687265 
 696      61647300 
 697 00f2 00000000 		.ascii	"\000\000\000\000\000\326\000\000\000chThdCreateStat"
 697      00D60000 
 697      00636854 
 697      68644372 
 697      65617465 
ARM GAS  /tmp/ccP0CSKa.s 			page 56


 698 010a 69630000 		.ascii	"ic\000\000\002\000\000\000\000\000\000\000\000\000\330"
 698      02000000 
 698      00000000 
 698      0000D8
 699 0119 00000074 		.ascii	"\000\000\000test_emit_token\000\000\002\000\000\000"
 699      6573745F 
 699      656D6974 
 699      5F746F6B 
 699      656E0000 
 700 0131 00000000 		.ascii	"\000\000\000\000\000\000\223\001\000\000chThdStart\000"
 700      00009301 
 700      00006368 
 700      54686453 
 700      74617274 
 701 0146 00020000 		.ascii	"\000\002\000\000\000\000\000\000\000\000\000\227\001"
 701      00000000 
 701      00000097 
 701      01
 702 0153 00006368 		.ascii	"\000\000chThdCreateI\000\000\002\000\000\000\000\000"
 702      54686443 
 702      72656174 
 702      65490000 
 702      02000000 
 703 0169 00000000 		.ascii	"\000\000\000\000\233\001\000\000_test_assert\000\000"
 703      9B010000 
 703      5F746573 
 703      745F6173 
 703      73657274 
 704 017f 02000000 		.ascii	"\002\000\000\000\000\000\000\000\000\000\235\001\000"
 704      00000000 
 704      00009D01 
 704      00
 705 018c 00636854 		.ascii	"\000chThdSetPriority\000\000\002\000\000\000\000\000"
 705      68645365 
 705      74507269 
 705      6F726974 
 705      79000002 
 706 01a5 00000000 		.ascii	"\000\000\000\000\242\001\000\000chThdSleep\000\000\002"
 706      A2010000 
 706      63685468 
 706      64536C65 
 706      65700000 
 707 01ba 00000000 		.ascii	"\000\000\000\000\000\000\000\000\000\246\001\000\000"
 707      00000000 
 707      00A60100 
 707      00
 708 01c7 5F746573 		.ascii	"_test_assert_time_window\000\000\002\000\000\000\000"
 708      745F6173 
 708      73657274 
 708      5F74696D 
 708      655F7769 
 709 01e6 00000000 		.ascii	"\000\000\000\000\000\255\001\000\000chThdSleepUntil"
 709      00AD0100 
 709      00636854 
 709      6864536C 
 709      65657055 
 710 01fe 00000200 		.ascii	"\000\000\002\000\000\000\000\000\000\000\000\000\263"
ARM GAS  /tmp/ccP0CSKa.s 			page 57


 710      00000000 
 710      00000000 
 710      B3
 711 020b 01000074 		.ascii	"\001\000\000test_wait_tick\000\000\002\000\000\000\000"
 711      6573745F 
 711      77616974 
 711      5F746963 
 711      6B000002 
 712 0223 00000000 		.ascii	"\000\000\000\000\000\265\001\000\000"
 712      00B50100 
 712      00
 713              		.text
 714              		.section	.gnu.lto_.opts,"",%progbits
 715 0000 272D6D63 		.ascii	"'-mcpu=cortex-m4' '-mfloat-abi=hard' '-mfpu=fpv4-sp"
 715      70753D63 
 715      6F727465 
 715      782D6D34 
 715      2720272D 
 716 0033 2D643136 		.ascii	"-d16' '-mno-thumb-interwork' '-mthumb' '-O2' '-fomi"
 716      2720272D 
 716      6D6E6F2D 
 716      7468756D 
 716      622D696E 
 717 0066 742D6672 		.ascii	"t-frame-pointer' '-falign-functions=16' '-ffunction"
 717      616D652D 
 717      706F696E 
 717      74657227 
 717      20272D66 
 718 0099 2D736563 		.ascii	"-sections' '-fdata-sections' '-fno-common' '-flto' "
 718      74696F6E 
 718      73272027 
 718      2D666461 
 718      74612D73 
 719 00cc 272D6673 		.ascii	"'-fsingle-precision-constant'\000"
 719      696E676C 
 719      652D7072 
 719      65636973 
 719      696F6E2D 
 720              		.text
 721              		.section	.text.thd1_execute,"ax",%progbits
 722              		.align	2
 723              		.p2align 4,,15
 724              		.thumb
 725              		.thumb_func
 726              		.type	thd1_execute, %function
 727              	thd1_execute:
 728              		@ args = 0, pretend = 0, frame = 0
 729              		@ frame_needed = 0, uses_anonymous_args = 0
 730 0000 F0B5     		push	{r4, r5, r6, r7, lr}
 731 0002 274F     		ldr	r7, .L2
 732 0004 274E     		ldr	r6, .L2+4
 733 0006 BB69     		ldr	r3, [r7, #24]
 734 0008 274D     		ldr	r5, .L2+8
 735 000a 9A68     		ldr	r2, [r3, #8]
 736 000c 274B     		ldr	r3, .L2+12
 737 000e 3068     		ldr	r0, [r6]
 738 0010 274C     		ldr	r4, .L2+16
ARM GAS  /tmp/ccP0CSKa.s 			page 58


 739 0012 83B0     		sub	sp, sp, #12
 740 0014 053A     		subs	r2, r2, #5
 741 0016 0093     		str	r3, [sp]
 742 0018 4FF4E871 		mov	r1, #464
 743 001c 2B46     		mov	r3, r5
 744 001e FFF7FEFF 		bl	chThdCreateStatic
 745 0022 BB69     		ldr	r3, [r7, #24]
 746 0024 2349     		ldr	r1, .L2+20
 747 0026 9A68     		ldr	r2, [r3, #8]
 748 0028 7368     		ldr	r3, [r6, #4]
 749 002a 2060     		str	r0, [r4]
 750 002c 0091     		str	r1, [sp]
 751 002e 043A     		subs	r2, r2, #4
 752 0030 1846     		mov	r0, r3
 753 0032 4FF4E871 		mov	r1, #464
 754 0036 2B46     		mov	r3, r5
 755 0038 FFF7FEFF 		bl	chThdCreateStatic
 756 003c BA69     		ldr	r2, [r7, #24]
 757 003e B368     		ldr	r3, [r6, #8]
 758 0040 9268     		ldr	r2, [r2, #8]
 759 0042 1D49     		ldr	r1, .L2+24
 760 0044 6060     		str	r0, [r4, #4]
 761 0046 0091     		str	r1, [sp]
 762 0048 033A     		subs	r2, r2, #3
 763 004a 1846     		mov	r0, r3
 764 004c 4FF4E871 		mov	r1, #464
 765 0050 2B46     		mov	r3, r5
 766 0052 FFF7FEFF 		bl	chThdCreateStatic
 767 0056 BA69     		ldr	r2, [r7, #24]
 768 0058 F368     		ldr	r3, [r6, #12]
 769 005a 9268     		ldr	r2, [r2, #8]
 770 005c 1749     		ldr	r1, .L2+28
 771 005e A060     		str	r0, [r4, #8]
 772 0060 0091     		str	r1, [sp]
 773 0062 023A     		subs	r2, r2, #2
 774 0064 1846     		mov	r0, r3
 775 0066 4FF4E871 		mov	r1, #464
 776 006a 2B46     		mov	r3, r5
 777 006c FFF7FEFF 		bl	chThdCreateStatic
 778 0070 BA69     		ldr	r2, [r7, #24]
 779 0072 3369     		ldr	r3, [r6, #16]
 780 0074 9268     		ldr	r2, [r2, #8]
 781 0076 1249     		ldr	r1, .L2+32
 782 0078 E060     		str	r0, [r4, #12]
 783 007a 013A     		subs	r2, r2, #1
 784 007c 0091     		str	r1, [sp]
 785 007e 1846     		mov	r0, r3
 786 0080 4FF4E871 		mov	r1, #464
 787 0084 2B46     		mov	r3, r5
 788 0086 FFF7FEFF 		bl	chThdCreateStatic
 789 008a 2061     		str	r0, [r4, #16]
 790 008c FFF7FEFF 		bl	test_wait_threads
 791 0090 0C49     		ldr	r1, .L2+36
 792 0092 0120     		movs	r0, #1
 793 0094 03B0     		add	sp, sp, #12
 794              		@ sp needed
 795 0096 BDE8F040 		pop	{r4, r5, r6, r7, lr}
ARM GAS  /tmp/ccP0CSKa.s 			page 59


 796 009a FFF7FEBF 		b	_test_assert_sequence
 797              	.L3:
 798 009e 00BF     		.align	2
 799              	.L2:
 800 00a0 00000000 		.word	ch
 801 00a4 00000000 		.word	wa
 802 00a8 00000000 		.word	thread
 803 00ac 00000000 		.word	.LC0
 804 00b0 00000000 		.word	threads
 805 00b4 04000000 		.word	.LC1
 806 00b8 08000000 		.word	.LC2
 807 00bc 0C000000 		.word	.LC3
 808 00c0 10000000 		.word	.LC4
 809 00c4 14000000 		.word	.LC5
 810              		.size	thd1_execute, .-thd1_execute
 811 00c8 AFF30080 		.section	.text.thread,"ax",%progbits
 811      AFF30080 
 812              		.align	2
 813              		.p2align 4,,15
 814              		.thumb
 815              		.thumb_func
 816              		.type	thread, %function
 817              	thread:
 818              		@ args = 0, pretend = 0, frame = 0
 819              		@ frame_needed = 0, uses_anonymous_args = 0
 820 0000 08B5     		push	{r3, lr}
 821 0002 0078     		ldrb	r0, [r0]	@ zero_extendqisi2
 822 0004 FFF7FEFF 		bl	test_emit_token
 823 0008 0020     		movs	r0, #0
 824 000a 08BD     		pop	{r3, pc}
 825              		.size	thread, .-thread
 826 000c AFF30080 		.section	.text.thd2_execute,"ax",%progbits
 827              		.align	2
 828              		.p2align 4,,15
 829              		.thumb
 830              		.thumb_func
 831              		.type	thd2_execute, %function
 832              	thd2_execute:
 833              		@ args = 0, pretend = 0, frame = 0
 834              		@ frame_needed = 0, uses_anonymous_args = 0
 835 0000 F0B5     		push	{r4, r5, r6, r7, lr}
 836 0002 2B4F     		ldr	r7, .L6
 837 0004 2B4E     		ldr	r6, .L6+4
 838 0006 BB69     		ldr	r3, [r7, #24]
 839 0008 2B4D     		ldr	r5, .L6+8
 840 000a 9A68     		ldr	r2, [r3, #8]
 841 000c 2B4B     		ldr	r3, .L6+12
 842 000e 7068     		ldr	r0, [r6, #4]
 843 0010 2B4C     		ldr	r4, .L6+16
 844 0012 83B0     		sub	sp, sp, #12
 845 0014 043A     		subs	r2, r2, #4
 846 0016 0093     		str	r3, [sp]
 847 0018 4FF4E871 		mov	r1, #464
 848 001c 2B46     		mov	r3, r5
 849 001e FFF7FEFF 		bl	chThdCreateStatic
 850 0022 BB69     		ldr	r3, [r7, #24]
 851 0024 2749     		ldr	r1, .L6+20
ARM GAS  /tmp/ccP0CSKa.s 			page 60


 852 0026 9A68     		ldr	r2, [r3, #8]
 853 0028 3368     		ldr	r3, [r6]
 854 002a 6060     		str	r0, [r4, #4]
 855 002c 0091     		str	r1, [sp]
 856 002e 053A     		subs	r2, r2, #5
 857 0030 1846     		mov	r0, r3
 858 0032 4FF4E871 		mov	r1, #464
 859 0036 2B46     		mov	r3, r5
 860 0038 FFF7FEFF 		bl	chThdCreateStatic
 861 003c BA69     		ldr	r2, [r7, #24]
 862 003e 3369     		ldr	r3, [r6, #16]
 863 0040 9268     		ldr	r2, [r2, #8]
 864 0042 2149     		ldr	r1, .L6+24
 865 0044 2060     		str	r0, [r4]
 866 0046 0091     		str	r1, [sp]
 867 0048 013A     		subs	r2, r2, #1
 868 004a 1846     		mov	r0, r3
 869 004c 4FF4E871 		mov	r1, #464
 870 0050 2B46     		mov	r3, r5
 871 0052 FFF7FEFF 		bl	chThdCreateStatic
 872 0056 BA69     		ldr	r2, [r7, #24]
 873 0058 F368     		ldr	r3, [r6, #12]
 874 005a 9268     		ldr	r2, [r2, #8]
 875 005c 1B49     		ldr	r1, .L6+28
 876 005e 2061     		str	r0, [r4, #16]
 877 0060 0091     		str	r1, [sp]
 878 0062 023A     		subs	r2, r2, #2
 879 0064 1846     		mov	r0, r3
 880 0066 4FF4E871 		mov	r1, #464
 881 006a 2B46     		mov	r3, r5
 882 006c FFF7FEFF 		bl	chThdCreateStatic
 883 0070 2023     		movs	r3, #32
 884 0072 E060     		str	r0, [r4, #12]
 885              	@ 546 "/home/cody/dev/chibios/trunk/os/ext/CMSIS/include/core_cmFunc.h" 1
 886 0074 83F31188 		MSR basepri, r3
 887              	@ 0 "" 2
 888              		.thumb
 889 0078 BB69     		ldr	r3, [r7, #24]
 890 007a B068     		ldr	r0, [r6, #8]
 891 007c 9A68     		ldr	r2, [r3, #8]
 892 007e 144B     		ldr	r3, .L6+32
 893 0080 0093     		str	r3, [sp]
 894 0082 033A     		subs	r2, r2, #3
 895 0084 2B46     		mov	r3, r5
 896 0086 4FF4E871 		mov	r1, #464
 897 008a FFF7FEFF 		bl	chThdCreateI
 898 008e 0023     		movs	r3, #0
 899 0090 A060     		str	r0, [r4, #8]
 900              	@ 546 "/home/cody/dev/chibios/trunk/os/ext/CMSIS/include/core_cmFunc.h" 1
 901 0092 83F31188 		MSR basepri, r3
 902              	@ 0 "" 2
 903              		.thumb
 904 0096 A068     		ldr	r0, [r4, #8]
 905 0098 FFF7FEFF 		bl	chThdStart
 906 009c FFF7FEFF 		bl	test_wait_threads
 907 00a0 0C49     		ldr	r1, .L6+36
 908 00a2 0120     		movs	r0, #1
ARM GAS  /tmp/ccP0CSKa.s 			page 61


 909 00a4 03B0     		add	sp, sp, #12
 910              		@ sp needed
 911 00a6 BDE8F040 		pop	{r4, r5, r6, r7, lr}
 912 00aa FFF7FEBF 		b	_test_assert_sequence
 913              	.L7:
 914 00ae 00BF     		.align	2
 915              	.L6:
 916 00b0 00000000 		.word	ch
 917 00b4 00000000 		.word	wa
 918 00b8 00000000 		.word	thread
 919 00bc 04000000 		.word	.LC1
 920 00c0 00000000 		.word	threads
 921 00c4 00000000 		.word	.LC0
 922 00c8 10000000 		.word	.LC4
 923 00cc 0C000000 		.word	.LC3
 924 00d0 08000000 		.word	.LC2
 925 00d4 14000000 		.word	.LC5
 926              		.size	thd2_execute, .-thd2_execute
 927 00d8 AFF30080 		.section	.text.thd3_execute,"ax",%progbits
 927      AFF30080 
 928              		.align	2
 929              		.p2align 4,,15
 930              		.thumb
 931              		.thumb_func
 932              		.type	thd3_execute, %function
 933              	thd3_execute:
 934              		@ args = 0, pretend = 0, frame = 0
 935              		@ frame_needed = 0, uses_anonymous_args = 0
 936 0000 F8B5     		push	{r3, r4, r5, r6, r7, lr}
 937 0002 4B4E     		ldr	r6, .L14
 938 0004 B369     		ldr	r3, [r6, #24]
 939 0006 9C68     		ldr	r4, [r3, #8]
 940 0008 651C     		adds	r5, r4, #1
 941 000a 2846     		mov	r0, r5
 942 000c FFF7FEFF 		bl	chThdSetPriority
 943 0010 B0EB040C 		subs	ip, r0, r4
 944 0014 DCF10001 		rsbs	r1, ip, #0
 945 0018 0746     		mov	r7, r0
 946 001a 51EB0C01 		adcs	r1, r1, ip
 947 001e 0120     		movs	r0, #1
 948 0020 FFF7FEFF 		bl	_test_assert
 949 0024 00B1     		cbz	r0, .L13
 950              	.L8:
 951 0026 F8BD     		pop	{r3, r4, r5, r6, r7, pc}
 952              	.L13:
 953 0028 B369     		ldr	r3, [r6, #24]
 954 002a 9968     		ldr	r1, [r3, #8]
 955 002c B5EB010E 		subs	lr, r5, r1
 956 0030 DEF10001 		rsbs	r1, lr, #0
 957 0034 51EB0E01 		adcs	r1, r1, lr
 958 0038 0220     		movs	r0, #2
 959 003a FFF7FEFF 		bl	_test_assert
 960 003e 0028     		cmp	r0, #0
 961 0040 F1D1     		bne	.L8
 962 0042 3846     		mov	r0, r7
 963 0044 FFF7FEFF 		bl	chThdSetPriority
 964 0048 281A     		subs	r0, r5, r0
ARM GAS  /tmp/ccP0CSKa.s 			page 62


 965 004a 4142     		rsbs	r1, r0, #0
 966 004c 4141     		adcs	r1, r1, r0
 967 004e 0320     		movs	r0, #3
 968 0050 FFF7FEFF 		bl	_test_assert
 969 0054 0028     		cmp	r0, #0
 970 0056 E6D1     		bne	.L8
 971 0058 B369     		ldr	r3, [r6, #24]
 972 005a 9968     		ldr	r1, [r3, #8]
 973 005c 621A     		subs	r2, r4, r1
 974 005e 5142     		rsbs	r1, r2, #0
 975 0060 5141     		adcs	r1, r1, r2
 976 0062 0420     		movs	r0, #4
 977 0064 FFF7FEFF 		bl	_test_assert
 978 0068 0028     		cmp	r0, #0
 979 006a DCD1     		bne	.L8
 980 006c 2023     		movs	r3, #32
 981              	@ 546 "/home/cody/dev/chibios/trunk/os/ext/CMSIS/include/core_cmFunc.h" 1
 982 006e 83F31188 		MSR basepri, r3
 983              	@ 0 "" 2
 984              		.thumb
 985 0072 B369     		ldr	r3, [r6, #24]
 986 0074 9A68     		ldr	r2, [r3, #8]
 987 0076 0232     		adds	r2, r2, #2
 988 0078 9A60     		str	r2, [r3, #8]
 989              	@ 546 "/home/cody/dev/chibios/trunk/os/ext/CMSIS/include/core_cmFunc.h" 1
 990 007a 80F31188 		MSR basepri, r0
 991              	@ 0 "" 2
 992              		.thumb
 993 007e B369     		ldr	r3, [r6, #24]
 994 0080 9968     		ldr	r1, [r3, #8]
 995 0082 A71C     		adds	r7, r4, #2
 996 0084 7B1A     		subs	r3, r7, r1
 997 0086 5942     		rsbs	r1, r3, #0
 998 0088 5941     		adcs	r1, r1, r3
 999 008a 0520     		movs	r0, #5
 1000 008c FFF7FEFF 		bl	_test_assert
 1001 0090 0028     		cmp	r0, #0
 1002 0092 C8D1     		bne	.L8
 1003 0094 2846     		mov	r0, r5
 1004 0096 FFF7FEFF 		bl	chThdSetPriority
 1005 009a B0EB040C 		subs	ip, r0, r4
 1006 009e DCF10001 		rsbs	r1, ip, #0
 1007 00a2 51EB0C01 		adcs	r1, r1, ip
 1008 00a6 0620     		movs	r0, #6
 1009 00a8 FFF7FEFF 		bl	_test_assert
 1010 00ac 0028     		cmp	r0, #0
 1011 00ae BAD1     		bne	.L8
 1012 00b0 B369     		ldr	r3, [r6, #24]
 1013 00b2 9968     		ldr	r1, [r3, #8]
 1014 00b4 B7EB010E 		subs	lr, r7, r1
 1015 00b8 DEF10001 		rsbs	r1, lr, #0
 1016 00bc 51EB0E01 		adcs	r1, r1, lr
 1017 00c0 0720     		movs	r0, #7
 1018 00c2 FFF7FEFF 		bl	_test_assert
 1019 00c6 0028     		cmp	r0, #0
 1020 00c8 ADD1     		bne	.L8
 1021 00ca B369     		ldr	r3, [r6, #24]
ARM GAS  /tmp/ccP0CSKa.s 			page 63


 1022 00cc D96B     		ldr	r1, [r3, #60]
 1023 00ce 6F1A     		subs	r7, r5, r1
 1024 00d0 7942     		rsbs	r1, r7, #0
 1025 00d2 7941     		adcs	r1, r1, r7
 1026 00d4 0820     		movs	r0, #8
 1027 00d6 FFF7FEFF 		bl	_test_assert
 1028 00da 0028     		cmp	r0, #0
 1029 00dc A3D1     		bne	.L8
 1030 00de E71C     		adds	r7, r4, #3
 1031 00e0 3846     		mov	r0, r7
 1032 00e2 FFF7FEFF 		bl	chThdSetPriority
 1033 00e6 281A     		subs	r0, r5, r0
 1034 00e8 4142     		rsbs	r1, r0, #0
 1035 00ea 4141     		adcs	r1, r1, r0
 1036 00ec 0920     		movs	r0, #9
 1037 00ee FFF7FEFF 		bl	_test_assert
 1038 00f2 0028     		cmp	r0, #0
 1039 00f4 97D1     		bne	.L8
 1040 00f6 B369     		ldr	r3, [r6, #24]
 1041 00f8 9968     		ldr	r1, [r3, #8]
 1042 00fa 7A1A     		subs	r2, r7, r1
 1043 00fc 5142     		rsbs	r1, r2, #0
 1044 00fe 5141     		adcs	r1, r1, r2
 1045 0100 0A20     		movs	r0, #10
 1046 0102 FFF7FEFF 		bl	_test_assert
 1047 0106 0028     		cmp	r0, #0
 1048 0108 8DD1     		bne	.L8
 1049 010a B369     		ldr	r3, [r6, #24]
 1050 010c D96B     		ldr	r1, [r3, #60]
 1051 010e 7B1A     		subs	r3, r7, r1
 1052 0110 5942     		rsbs	r1, r3, #0
 1053 0112 5941     		adcs	r1, r1, r3
 1054 0114 0B20     		movs	r0, #11
 1055 0116 FFF7FEFF 		bl	_test_assert
 1056 011a 0028     		cmp	r0, #0
 1057 011c 83D1     		bne	.L8
 1058 011e 2023     		movs	r3, #32
 1059              	@ 546 "/home/cody/dev/chibios/trunk/os/ext/CMSIS/include/core_cmFunc.h" 1
 1060 0120 83F31188 		MSR basepri, r3
 1061              	@ 0 "" 2
 1062              		.thumb
 1063 0124 B369     		ldr	r3, [r6, #24]
 1064 0126 9C60     		str	r4, [r3, #8]
 1065 0128 DC63     		str	r4, [r3, #60]
 1066              	@ 546 "/home/cody/dev/chibios/trunk/os/ext/CMSIS/include/core_cmFunc.h" 1
 1067 012a 80F31188 		MSR basepri, r0
 1068              	@ 0 "" 2
 1069              		.thumb
 1070 012e 7AE7     		b	.L8
 1071              	.L15:
 1072              		.align	2
 1073              	.L14:
 1074 0130 00000000 		.word	ch
 1075              		.size	thd3_execute, .-thd3_execute
 1076 0134 AFF30080 		.section	.text.thd4_execute,"ax",%progbits
 1076      AFF30080 
 1076      AFF30080 
ARM GAS  /tmp/ccP0CSKa.s 			page 64


 1077              		.align	2
 1078              		.p2align 4,,15
 1079              		.thumb
 1080              		.thumb_func
 1081              		.type	thd4_execute, %function
 1082              	thd4_execute:
 1083              		@ args = 0, pretend = 0, frame = 0
 1084              		@ frame_needed = 0, uses_anonymous_args = 0
 1085 0000 70B5     		push	{r4, r5, r6, lr}
 1086 0002 FFF7FEFF 		bl	test_wait_tick
 1087 0006 2026     		movs	r6, #32
 1088              	@ 546 "/home/cody/dev/chibios/trunk/os/ext/CMSIS/include/core_cmFunc.h" 1
 1089 0008 86F31188 		MSR basepri, r6
 1090              	@ 0 "" 2
 1091              		.thumb
 1092 000c 4FF08045 		mov	r5, #1073741824
 1093 0010 0023     		movs	r3, #0
 1094 0012 6C6A     		ldr	r4, [r5, #36]
 1095              	@ 546 "/home/cody/dev/chibios/trunk/os/ext/CMSIS/include/core_cmFunc.h" 1
 1096 0014 83F31188 		MSR basepri, r3
 1097              	@ 0 "" 2
 1098              		.thumb
 1099 0018 4FF47A70 		mov	r0, #1000
 1100 001c FFF7FEFF 		bl	chThdSleep
 1101 0020 04F57A71 		add	r1, r4, #1000
 1102 0024 04F2E932 		addw	r2, r4, #1001
 1103 0028 0120     		movs	r0, #1
 1104 002a FFF7FEFF 		bl	_test_assert_time_window
 1105 002e 00B1     		cbz	r0, .L20
 1106              	.L16:
 1107 0030 70BD     		pop	{r4, r5, r6, pc}
 1108              	.L20:
 1109              	@ 546 "/home/cody/dev/chibios/trunk/os/ext/CMSIS/include/core_cmFunc.h" 1
 1110 0032 86F31188 		MSR basepri, r6
 1111              	@ 0 "" 2
 1112              		.thumb
 1113 0036 6C6A     		ldr	r4, [r5, #36]
 1114              	@ 546 "/home/cody/dev/chibios/trunk/os/ext/CMSIS/include/core_cmFunc.h" 1
 1115 0038 80F31188 		MSR basepri, r0
 1116              	@ 0 "" 2
 1117              		.thumb
 1118 003c 4FF47A70 		mov	r0, #1000
 1119 0040 FFF7FEFF 		bl	chThdSleep
 1120 0044 04F57A71 		add	r1, r4, #1000
 1121 0048 04F2E932 		addw	r2, r4, #1001
 1122 004c 0220     		movs	r0, #2
 1123 004e FFF7FEFF 		bl	_test_assert_time_window
 1124 0052 0028     		cmp	r0, #0
 1125 0054 ECD1     		bne	.L16
 1126              	@ 546 "/home/cody/dev/chibios/trunk/os/ext/CMSIS/include/core_cmFunc.h" 1
 1127 0056 86F31188 		MSR basepri, r6
 1128              	@ 0 "" 2
 1129              		.thumb
 1130 005a 6C6A     		ldr	r4, [r5, #36]
 1131              	@ 546 "/home/cody/dev/chibios/trunk/os/ext/CMSIS/include/core_cmFunc.h" 1
 1132 005c 80F31188 		MSR basepri, r0
 1133              	@ 0 "" 2
ARM GAS  /tmp/ccP0CSKa.s 			page 65


 1134              		.thumb
 1135 0060 42F21070 		movw	r0, #10000
 1136 0064 FFF7FEFF 		bl	chThdSleep
 1137 0068 04F51C51 		add	r1, r4, #9984
 1138 006c 0A46     		mov	r2, r1
 1139 006e 1132     		adds	r2, r2, #17
 1140 0070 1031     		adds	r1, r1, #16
 1141 0072 0320     		movs	r0, #3
 1142 0074 FFF7FEFF 		bl	_test_assert_time_window
 1143 0078 0028     		cmp	r0, #0
 1144 007a D9D1     		bne	.L16
 1145              	@ 546 "/home/cody/dev/chibios/trunk/os/ext/CMSIS/include/core_cmFunc.h" 1
 1146 007c 86F31188 		MSR basepri, r6
 1147              	@ 0 "" 2
 1148              		.thumb
 1149 0080 6C6A     		ldr	r4, [r5, #36]
 1150              	@ 546 "/home/cody/dev/chibios/trunk/os/ext/CMSIS/include/core_cmFunc.h" 1
 1151 0082 80F31188 		MSR basepri, r0
 1152              	@ 0 "" 2
 1153              		.thumb
 1154 0086 04F57A75 		add	r5, r4, #1000
 1155 008a 2846     		mov	r0, r5
 1156 008c FFF7FEFF 		bl	chThdSleepUntil
 1157 0090 2946     		mov	r1, r5
 1158 0092 04F2E932 		addw	r2, r4, #1001
 1159 0096 0420     		movs	r0, #4
 1160 0098 BDE87040 		pop	{r4, r5, r6, lr}
 1161 009c FFF7FEBF 		b	_test_assert_time_window
 1162              		.size	thd4_execute, .-thd4_execute
 1163              		.global	patternthd
 1164              		.global	testthd4
 1165              		.global	testthd3
 1166              		.global	testthd2
 1167              		.global	testthd1
 1168              		.section	.rodata.testthd1,"a",%progbits
 1169              		.align	2
 1170              		.type	testthd1, %object
 1171              		.size	testthd1, 16
 1172              	testthd1:
 1173 0000 64000000 		.word	.LC9
 1174 0004 00000000 		.word	0
 1175 0008 00000000 		.word	0
 1176 000c 00000000 		.word	thd1_execute
 1177              		.section	.rodata.testthd2,"a",%progbits
 1178              		.align	2
 1179              		.type	testthd2, %object
 1180              		.size	testthd2, 16
 1181              	testthd2:
 1182 0000 48000000 		.word	.LC8
 1183 0004 00000000 		.word	0
 1184 0008 00000000 		.word	0
 1185 000c 00000000 		.word	thd2_execute
 1186              		.section	.rodata.testthd3,"a",%progbits
 1187              		.align	2
 1188              		.type	testthd3, %object
 1189              		.size	testthd3, 16
 1190              	testthd3:
ARM GAS  /tmp/ccP0CSKa.s 			page 66


 1191 0000 2C000000 		.word	.LC7
 1192 0004 00000000 		.word	0
 1193 0008 00000000 		.word	0
 1194 000c 00000000 		.word	thd3_execute
 1195              		.section	.rodata.testthd4,"a",%progbits
 1196              		.align	2
 1197              		.type	testthd4, %object
 1198              		.size	testthd4, 16
 1199              	testthd4:
 1200 0000 1C000000 		.word	.LC6
 1201 0004 00000000 		.word	0
 1202 0008 00000000 		.word	0
 1203 000c 00000000 		.word	thd4_execute
 1204              		.section	.rodata.patternthd,"a",%progbits
 1205              		.align	2
 1206              		.type	patternthd, %object
 1207              		.size	patternthd, 20
 1208              	patternthd:
 1209 0000 00000000 		.word	testthd1
 1210 0004 00000000 		.word	testthd2
 1211 0008 00000000 		.word	testthd3
 1212 000c 00000000 		.word	testthd4
 1213 0010 00000000 		.word	0
 1214              		.section	.rodata.str1.4,"aMS",%progbits,1
 1215              		.align	2
 1216              	.LC0:
 1217 0000 4500     		.ascii	"E\000"
 1218 0002 0000     		.space	2
 1219              	.LC1:
 1220 0004 4400     		.ascii	"D\000"
 1221 0006 0000     		.space	2
 1222              	.LC2:
 1223 0008 4300     		.ascii	"C\000"
 1224 000a 0000     		.space	2
 1225              	.LC3:
 1226 000c 4200     		.ascii	"B\000"
 1227 000e 0000     		.space	2
 1228              	.LC4:
 1229 0010 4100     		.ascii	"A\000"
 1230 0012 0000     		.space	2
 1231              	.LC5:
 1232 0014 41424344 		.ascii	"ABCDE\000"
 1232      4500
 1233 001a 0000     		.space	2
 1234              	.LC6:
 1235 001c 54687265 		.ascii	"Threads, delays\000"
 1235      6164732C 
 1235      2064656C 
 1235      61797300 
 1236              	.LC7:
 1237 002c 54687265 		.ascii	"Threads, priority change\000"
 1237      6164732C 
 1237      20707269 
 1237      6F726974 
 1237      79206368 
 1238 0045 000000   		.space	3
 1239              	.LC8:
ARM GAS  /tmp/ccP0CSKa.s 			page 67


 1240 0048 54687265 		.ascii	"Threads, enqueuing test #2\000"
 1240      6164732C 
 1240      20656E71 
 1240      75657569 
 1240      6E672074 
 1241 0063 00       		.space	1
 1242              	.LC9:
 1243 0064 54687265 		.ascii	"Threads, enqueuing test #1\000"
 1243      6164732C 
 1243      20656E71 
 1243      75657569 
 1243      6E672074 
 1244              		.comm	__gnu_lto_v1,1,1
 1245 007f 00       		.ident	"GCC: (GNU Tools for ARM Embedded Processors) 4.8.4 20140526 (release) [ARM/embedded-4_8-br
ARM GAS  /tmp/ccP0CSKa.s 			page 68


DEFINED SYMBOLS
                            *ABS*:0000000000000000 testthd.c
     /tmp/ccP0CSKa.s:722    .text.thd1_execute:0000000000000000 $t
     /tmp/ccP0CSKa.s:727    .text.thd1_execute:0000000000000000 thd1_execute
     /tmp/ccP0CSKa.s:800    .text.thd1_execute:00000000000000a0 $d
     /tmp/ccP0CSKa.s:817    .text.thread:0000000000000000 thread
     /tmp/ccP0CSKa.s:812    .text.thread:0000000000000000 $t
     /tmp/ccP0CSKa.s:827    .text.thd2_execute:0000000000000000 $t
     /tmp/ccP0CSKa.s:832    .text.thd2_execute:0000000000000000 thd2_execute
     /tmp/ccP0CSKa.s:916    .text.thd2_execute:00000000000000b0 $d
     /tmp/ccP0CSKa.s:928    .text.thd3_execute:0000000000000000 $t
     /tmp/ccP0CSKa.s:933    .text.thd3_execute:0000000000000000 thd3_execute
     /tmp/ccP0CSKa.s:1074   .text.thd3_execute:0000000000000130 $d
     /tmp/ccP0CSKa.s:1077   .text.thd4_execute:0000000000000000 $t
     /tmp/ccP0CSKa.s:1082   .text.thd4_execute:0000000000000000 thd4_execute
     /tmp/ccP0CSKa.s:1208   .rodata.patternthd:0000000000000000 patternthd
     /tmp/ccP0CSKa.s:1199   .rodata.testthd4:0000000000000000 testthd4
     /tmp/ccP0CSKa.s:1190   .rodata.testthd3:0000000000000000 testthd3
     /tmp/ccP0CSKa.s:1181   .rodata.testthd2:0000000000000000 testthd2
     /tmp/ccP0CSKa.s:1172   .rodata.testthd1:0000000000000000 testthd1
     /tmp/ccP0CSKa.s:1169   .rodata.testthd1:0000000000000000 $d
     /tmp/ccP0CSKa.s:1178   .rodata.testthd2:0000000000000000 $d
     /tmp/ccP0CSKa.s:1187   .rodata.testthd3:0000000000000000 $d
     /tmp/ccP0CSKa.s:1196   .rodata.testthd4:0000000000000000 $d
     /tmp/ccP0CSKa.s:1205   .rodata.patternthd:0000000000000000 $d
     /tmp/ccP0CSKa.s:1215   .rodata.str1.4:0000000000000000 $d
                            *COM*:0000000000000001 __gnu_lto_v1
     /tmp/ccP0CSKa.s:811    .text.thd1_execute:00000000000000c8 $t
     /tmp/ccP0CSKa.s:927    .text.thd2_execute:00000000000000d8 $t
     /tmp/ccP0CSKa.s:1076   .text.thd3_execute:0000000000000134 $t

UNDEFINED SYMBOLS
chThdCreateStatic
test_wait_threads
_test_assert_sequence
ch
wa
threads
test_emit_token
chThdCreateI
chThdStart
chThdSetPriority
_test_assert
test_wait_tick
chThdSleep
_test_assert_time_window
chThdSleepUntil
