ARM GAS  /tmp/ccE1UpoD.s 			page 1


   1              		.syntax unified
   2              		.cpu cortex-m4
   3              		.eabi_attribute 27, 3
   4              		.eabi_attribute 28, 1
   5              		.fpu fpv4-sp-d16
   6              		.eabi_attribute 20, 1
   7              		.eabi_attribute 21, 1
   8              		.eabi_attribute 23, 3
   9              		.eabi_attribute 24, 1
  10              		.eabi_attribute 25, 1
  11              		.eabi_attribute 26, 1
  12              		.eabi_attribute 30, 2
  13              		.eabi_attribute 34, 1
  14              		.eabi_attribute 18, 4
  15              		.thumb
  16              		.file	"testmbox.c"
  17              		.section	.gnu.lto_.jmpfuncs.e2289244930944c1,"",%progbits
  18 0000 789C9591 		.ascii	"x\234\225\221IZ\302@\020F\253:$\001\034@\234'\004\007"
  18      495AC240 
  18      1046AB3A 
  18      24011C40 
  18      9C270407 
  19 0014 5071B882 		.ascii	"Pq\270\202a\270\003kvYp\0027\275\364\010\331x\001\216"
  19      61B8036B 
  19      76597002 
  19      37BDF408 
  19      D978018E 
  20 0028 E846D331 		.ascii	"\350F\3231\026\377'\241\351d\223\367\245^U\245\377V"
  20      16FF27A1 
  20      E96493F7 
  20      A55E55A5 
  20      FF56
  21 003a A4A8E849 		.ascii	"\244\250\350I|\2420}\247U\245\246\0343\275\232\3179"
  21      7CA2307D 
  21      A755A5A6 
  21      1C33BD9A 
  21      CF39
  22 004c BF003F03 		.ascii	"\277\000?\003?\031f\365N_\372C7c\3469\023\224\007\300"
  22      3F1966F5 
  22      4E5FFA43 
  22      3763E639 
  22      139407C0 
  23 0060 8FC00FC0 		.ascii	"\217\300\017\300\367)\231\376\304\364\2536\361\247N"
  23      F72999FE 
  23      C4F4AB36 
  23      F1A74E
  24 006f DE62F6B2 		.ascii	"\336b\366\2629,Z\377\267ee\223\010=\340\2735rV\255D"
  24      392C5AFF 
  24      B7656593 
  24      083DE0BB 
  24      357256AD 
  25 0084 E2DD5ABD 		.ascii	"\342\335Z\275\241x7Vo$\336\265\325\033\213\327\265z"
  25      A1783756 
  25      6F24DEB5 
  25      D51B8BD7 
  25      B57A
  26 0096 13F13A70 		.ascii	"\023\361:p\246+\3406\360\245[~\027\233\362;\007>s\374"
ARM GAS  /tmp/ccE1UpoD.s 			page 2


  26      A62BE036 
  26      F0A55B7E 
  26      179BF23B 
  26      073E73FC 
  27 00aa BF53C7F3 		.ascii	"\277S\307\363\2368\346w\354x\037G\216\367{\010g:\000"
  27      9E38E677 
  27      EC781F47 
  27      8EF77B08 
  27      673A00
  28 00bd DE076E6D 		.ascii	"\336\007nm\012f\317\260W(\230\272\277\314\270\011]\015"
  28      0A66CFB0 
  28      572898BA 
  28      BFCCB809 
  28      5D0D
  29 00cf E05DFB84 		.ascii	"\340]\373\204\340;}\032b\357\224\262\267\335\256\177"
  29      E03B7D1A 
  29      62EF94B2 
  29      B7DDAE7F 
  30 00df ABD4D03A 		.ascii	"\253\324\320:\374|\015\270\012\034Z\357`*^\260f\363"
  30      FC7C0DB8 
  30      0A1C5AEF 
  30      602A5EB0 
  30      66F3
  31 00f1 D2FB97A2 		.ascii	"\322\373\227\242\3578\270Rv\260gm\210\212\243P\245\202"
  31      EF38B852 
  31      76B0676D 
  31      888AA350 
  31      A582
  32 0103 CB6AAA70 		.ascii	"\313j\252p\211|\011\007\264\320\332PU\2506g\236\345"
  32      897C0907 
  32      B4D0DA50 
  32      55A83667 
  32      9EE5
  33 0115 8367FCB7 		.ascii	"\203g\374\267!\337Q7\211\004\321p4\236\320\017\036,"
  33      21DF5137 
  33      8904D170 
  33      349ED00F 
  33      1E2C
  34 0127 D4CA     		.ascii	"\324\312"
  35              		.text
  36              		.section	.gnu.lto_.inline.e2289244930944c1,"",%progbits
  37 0000 789C6362 		.ascii	"x\234cb`b\300\006\362\240\302L\014,\013X\0362020\275"
  37      6062C006 
  37      F2A0C24C 
  37      0C2C0B58 
  37      1E323032 
  38 0016 626E38C0 		.ascii	"bn8\300\304\300\266@\036,\303\302\013\222\233\340\207"
  38      C4C0B640 
  38      1E2CC3C2 
  38      0B929BE0 
  38      87
  39 0027 8B66E266 		.ascii	"\213f\342f\000j\302\257\212\201\211\233\221\201\021"
  39      006AC2AF 
  39      8A81899B 
  39      918111
  40 0036 C463848A 		.ascii	"\304c\204\212\202h\034\232\030\250\307\035\254\356\300"
  40      82681C9A 
ARM GAS  /tmp/ccE1UpoD.s 			page 3


  40      18A8C71D 
  40      ACEEC0
  41 0045 50C6CAC7 		.ascii	"P\306\312\307\300\300\214'\260\321\345!\374\011~\014"
  41      C0C08C27 
  41      B0D1E521 
  41      FC097E0C 
  42 0055 D8FDC5CA 		.ascii	"\330\375\305\312\307\210\3278\222\\\201S\032\301G\266"
  42      C788D738 
  42      925C8153 
  42      1AC147B6 
  43 0065 15EE2860 		.ascii	"\025\356(`\322``\347\007\0070Jb\002ia\000\000G\0305"
  43      D26060E7 
  43      0707304A 
  43      62026961 
  43      00004718 
  44 007a FA       		.ascii	"\372"
  45              		.text
  46              		.section	.gnu.lto_.pureconst.e2289244930944c1,"",%progbits
  47 0000 789C6362 		.ascii	"x\234cb`b`e\200\000&\006+&\011\000\001f\000`"
  47      60626065 
  47      80002606 
  47      2B260900 
  47      01660060 
  48              		.text
  49              		.section	.gnu.lto_mbox1_execute.e2289244930944c1,"",%progbits
  50 0000 789CCD5B 		.ascii	"x\234\315[kpTE\026\356\2763y\020\362\"!!!!LHx\205\220"
  50      6B705445 
  50      16EEBE33 
  50      7910F222 
  50      21212121 
  51 0019 81000102 		.ascii	"\201\000\001\002\2047\202\022Q\021\021\327\225\015C"
  51      84378212 
  51      511111D7 
  51      950D43
  52 0028 4CA6D800 		.ascii	"L\246\330\000\313c\225\345\007\003!\004\\^\"\025#,\210"
  52      CB6395E5 
  52      07032104 
  52      5C5E2215 
  52      232C88
  53 003b A83C0C02 		.ascii	"\250<\014\002\002e\261\220-\003\030 \020@-T^\345fY\004"
  53      0265B190 
  53      2D031820 
  53      10402D54 
  53      5EE56659 
  54 0050 1F14AFB2 		.ascii	"\037\024\257\262\324b-\262}\316\355\356\231\341\366"
  54      D4622DB2 
  54      7DCEEDEE 
  54      99E1F6
  55 005f 0D193258 		.ascii	"\015\0312X\231\037g\3569}\317\271\3379_O\367\351\033"
  55      991F67EE 
  55      397DCFB9 
  55      DF395F4F 
  55      F7E91B
  56 0072 D08846EE 		.ascii	"\320\210F\356\377\364\262\022ry !u\354\232\216#T[}\232"
  56      FFF4B212 
  56      72792021 
  56      75EC9A8E 
ARM GAS  /tmp/ccE1UpoD.s 			page 4


  56      23545B7D 
  57 0087 9085C19A 		.ascii	"\220\205\301\232fY\332\231\270B\254 C-4W7[i\220~\021"
  57      6659DA99 
  57      B842AC20 
  57      432D3457 
  57      375B6990 
  58 009d A0E51EB6 		.ascii	"\240\345\036\266\260\361\300\323'\010\273!P\267\037"
  58      B0F1C0D3 
  58      2708BB21 
  58      50B71F
  59 00ac 0A0ED202 		.ascii	"\012\016\322\002\252r\230=\370\263\010f\016\326r+\373"
  59      AA72983D 
  59      F8B30866 
  59      0ED6722B 
  59      FB
  60 00bd 32ADC5D9 		.ascii	"2\255\305\331X\246\265\340Z\010j!\\k\211ZK\256\205\242"
  60      58A6B5E0 
  60      5A086A21 
  60      5C6B895A 
  60      4BAE85A2 
  61 00d1 16CAB530 		.ascii	"\026\312\2650\324\302\264p\324\"P\013\027X\"\264H4\267"
  61      D4C2B470 
  61      D422500B 
  61      175822B4 
  61      4834B7
  62 00e4 4273A430 		.ascii	"Bs\2440\267\322\242\020y4\"\217\022\346h\032\253_\264"
  62      B7D2A210 
  62      7934228F 
  62      12E6681A 
  62      AB5FB4
  63 00f7 E6C86374 		.ascii	"\346\310ct\3441\272\375Pp\254\326z\305!f\011iS\034\306"
  63      E431BAFD 
  63      5070ACD6 
  63      7AC52166 
  63      0969531C 
  64 010c EC6D3884 		.ascii	"\354m8\2048\214\036\307\265x\324\342\271\326\026\265"
  64      388C1EC7 
  64      B578D4E2 
  64      B9D616B5 
  65 011c B65C4B40 		.ascii	"\266\\K@-\201k\211\250%r\255\035j\355\270\226\204Z\222"
  65      2D816B89 
  65      A82572AD 
  65      1D6AEDB8 
  65      96845A92 
  66 0130 D61E351B 		.ascii	"\326\0365\033j\355\005P\233\226\214\346\016hN\026\346"
  66      6AED0550 
  66      9B968CE6 
  66      0E684E16 
  66      E6
  67 0141 0E5A0A9A 		.ascii	"\016Z\012\232S\321\234\"\314\251<dG4w\344Z'\324:q\255"
  67      53D19C22 
  67      CCA93C64 
  67      473477E4 
  67      5A27D43A 
  68 0157 336A9DB9 		.ascii	"3j\235\271\326\005\265.\\\353\212ZW-\027k\226\2065K"
  68      D605B52E 
  68      5CEB8A5A 
ARM GAS  /tmp/ccE1UpoD.s 			page 5


  68      572D176B 
  68      9686354B 
  69 016b A3DD2138 		.ascii	"\243\335!8\355\306+\225\256W*]7\037\012\356\256u\323"
  69      EDC62B95 
  69      AE572A5D 
  69      371F0AEE 
  69      AE75D3
  70 017e 2B958195 		.ascii	"+\225\201\225\312\340\241\354\030\312\256\365@\255'"
  70      CAE0A1EC 
  70      18CAAEF5 
  70      40AD27
  71 018d 6A3D04CE 		.ascii	"j=\004\316\236Z&\232{\2419S\230{q\337\336h\356\315\265"
  71      9E5A269A 
  71      7BA13953 
  71      987B71DF 
  71      DE68EECD 
  72 01a2 3EA8F5E1 		.ascii	">\250\365\341Z\026jY\\\353\213Z_\256\365C\255\037\327"
  72      5A166A59 
  72      5CEB8B5A 
  72      5FAEF543 
  72      AD1FD7
  73 01b5 FAA3D69F 		.ascii	"\372\243\326\237'\223\215\311d\323A\230\314\000\236"
  73      27938DC9 
  73      64D34198 
  73      CC009E
  74 01c4 CC403D99 		.ascii	"\314@=\231\201\272\371P\360 m\200\236L\016&\223\303"
  74      81BAF950 
  74      F0206D80 
  74      9E4C0E26 
  74      93C3
  75 01d6 430DC650 		.ascii	"C\015\306P\203\265!\250\015E\255\212\010\330\207\210"
  75      83B521A8 
  75      0D45AD8A 
  75      08D88788 
  76 01e6 360C0786 		.ascii	"6\014\007\206\343\300a9p\204p\377\0218\360)\321F\242"
  76      E3C06139 
  76      708470FF 
  76      1138F029 
  76      D146A2
  77 01f9 3A0AD56A 		.ascii	":\012\325jy\337Q\242=\206\003\243q\340\230\0348N\264"
  77      79DF51A2 
  77      3D8603A3 
  77      71E0981C 
  77      384EB4
  78 020c 3138F038 		.ascii	"18\3608\016\324\310\201\023D{\342\254\235\015\214\255"
  78      0ED4C881 
  78      13447BE2 
  78      AC9D0D8C 
  78      AD
  79 021d 4C620327 		.ascii	"Lb\003'\345@-\241O\352W\247\344\325iB)\\\021J\026h\026"
  79      E5402DA1 
  79      4FEA57A7 
  79      E4D56942 
  79      295C114A 
  80 0234 6B406050 		.ascii	"k@`Pp\213\220\226\241a\341\021\221\255\242\242[\307"
  80      708B9096 
  80      A161E111 
ARM GAS  /tmp/ccE1UpoD.s 			page 6


  80      91ADA2A2 
  80      5BC7
  81 0246 C4B6898B 		.ascii	"\304\266\211\213o\233\220\330.\251\275-\271CJj\307N"
  81      6F9B90D8 
  81      2EA9BD2D 
  81      B9434A6A 
  81      C74E
  82 0258 9DBB744D 		.ascii	"\235\273tM\353\226\336=\303\336\243gf\257\336}\262\372"
  82      EB96DE3D 
  82      C3DEA367 
  82      66AFDE7D 
  82      B2FA
  83 026a F6EB9F3D 		.ascii	"\366\353\237=`\340\240\234\301U\344\0209L\216\220OI"
  83      60E0A09C 
  83      C155E410 
  83      394C8E90 
  83      4F49
  84 027c 35394A8E 		.ascii	"59J\216\221\343\244\206\234 'I-9E\330S\026L\242\260"
  84      91E3A486 
  84      9C202749 
  84      2D3945D8 
  84      53164CA2 
  85 0291 88583B90 		.ascii	"\210X;\220w\\\256\325u%\365u\332[k\253\026or\375V_O"
  85      775CAED5 
  85      7525F575 
  85      DA5B6BAB 
  85      166F72FD 
  86 02a8 A993B205 		.ascii	"\251\223\262\005\247\027%\016J\236g\012\265\341\227"
  86      A717250E 
  86      4A9E670A 
  86      B5E197
  87 02b7 66F55E81 		.ascii	"f\365^\201t\337\252\203G\227\307\2736-Z\355\272\307"
  87      74DFAA83 
  87      4797C7BB 
  87      362D5AED 
  87      BAC7
  88 02c9 5C9DD4A2 		.ascii	"\\\235\324\242\221\354\306xV\255v}2\365\270kqU}\375"
  88      91ECC678 
  88      56AD767D 
  88      32F5B86B 
  88      71557DFD 
  89 02dd 60F41ADC 		.ascii	"`\364\032\334\250\347\255\251\372\327\222\225\236\317"
  89      A8E7ADA9 
  89      FAD79295 
  89      9ECF
  90 02eb B36A64C4 		.ascii	"\263jd\304\203<wiUu\365\365\265{\337\273\\I\243oj\224"
  90      833C7769 
  90      5575F5F5 
  90      B57BDFBB 
  90      5C49A36F 
  91 0301 E4D1ADB4 		.ascii	"\344\321\255\264\003\313Q\377\266\360o+\377\016#N\032"
  91      03CB51FF 
  91      B6F06F2B 
  91      FF0E234E 
  91      1A
  92 0312 1001228A 		.ascii	"\020\001\"\212\011k4\023$\206\215\275\313\306b\301\034"
  92      096B3413 
ARM GAS  /tmp/ccE1UpoD.s 			page 7


  92      24868DBD 
  92      CBC662C1 
  92      1C
  93 0323 07229EDF 		.ascii	"\007\"\236\337\235\300G\022\301\230\004\302\306-\311"
  93      9DC04712 
  93      C19804C2 
  93      C62DC9
  94 0332 A0A480E8 		.ascii	"\240\244\200\350\304-]@I\003\221\316-\335A\261\203\310"
  94      C42D5D40 
  94      490391CE 
  94      2DDD41B1 
  94      83C8
  95 0344 E496DEA0 		.ascii	"\344\226\336\240d\201\350\007\"\033D\016\210! F0\021"
  95      6481E807 
  95      221B440E 
  95      88212046 
  95      3011
  96 0356 3812C428 		.ascii	"8\022\304(PG\203\030\313=sA\031\007\342)fy\207Y\236"
  96      50478318 
  96      CB3D7341 
  96      1907E229 
  96      66798759 
  97 036b 664AD078 		.ascii	"fJ\320x\016t\002\214<\007\031M\204\214&q\257\027\300"
  97      0E74028C 
  97      3C07194D 
  97      848C2671 
  97      AF17C0
  98 037e FC228897 		.ascii	"\374\"\210\227\270e2(y \246\300\203\034 \246\202\372"
  98      B8653228 
  98      7920A6C0 
  98      831C20A6 
  98      82FA
  99 0390 32880250 		.ascii	"2\210\002P\013A8A\235\006\242\210{N\007e&\210\331\334"
  99      0B413841 
  99      9D06A288 
  99      7B4E0765 
  99      2688D9DC 
 100 03a4 32179457 		.ascii	"2\027\224W@\314\0031\037\304\002\020\013)\310\022\220"
 100      40CC0331 
 100      1FC40210 
 100      0B29C812 
 100      90
 101 03b5 814B5096 		.ascii	"\201KP\226\242e\031\312\225\224\373\257B\365u\224o\010"
 101      A26519CA 
 101      9594FBAF 
 101      42F57594 
 101      6F08
 102 03c7 E35A54CB 		.ascii	"\343ZT\313P\226\013\343[\250\256G\271A\0307\242\272"
 102      50960BE3 
 102      5BA8AE47 
 102      B9411837 
 102      A2BA
 103 03d9 09E56661 		.ascii	"\011\345fa|\017\325-(\267\342\243\267\241\334\216\226"
 103      7C0FD52D 
 103      28B7E2A3 
 103      B7A1DC8E 
 103      96
ARM GAS  /tmp/ccE1UpoD.s 			page 8


 104 03ea 0A943BC5 		.ascii	"\012\224;\305\315\273Q\335\203r/\345u\335\007j\320\307"
 104      CDBB51DD 
 104      83722FE5 
 104      75DD076A 
 104      D0C7
 105 03fc 6222EDC7 		.ascii	"b\"\355\307\321\003(+QV\241<\214\262\032\203\037Ey\014"
 105      D103282B 
 105      5156A13C 
 105      8CB21A83 
 105      1F45790C 
 106 0410 2D35286B 		.ascii	"-5(k\305#N\241z\006\345\347\302\370\005\252gQ~%\214"
 106      C5234EA1 
 106      7A06E5E7 
 106      C2F805AA 
 106      67517E25 
 107 0425 5FA37A1E 		.ascii	"_\243z\036\345Ea\274\204\3527(\353\204\3612\252WP~\213"
 107      E54561BC 
 107      84EA3728 
 107      EB84F132 
 107      AA57507E 
 108 043a 8FBE8AF2 		.ascii	"\217\276\212\362\032Z\276Gy]\334|\003\325[(o\213\034"
 108      1A5ABE47 
 108      795DDC7C 
 108      03D55B28 
 108      6F8B1C
 109 044d EF608E3F 		.ascii	"\357`\216?\211\034\177\306\321_Q\336Ey\017\245K\003"
 109      891C7FC6 
 109      D15F51DE 
 109      45790FA5 
 109      4B03
 110 045f 590C3270 		.ascii	"Y\0142p1\312\022\264\224\242|\015\345r\224\253Q\256"
 110      31CA12B4 
 110      94A27C0D 
 110      E57294AB 
 110      51AE
 111 0471 41598677 		.ascii	"AY\206w\276\211\262\034-\353PnD\313\333(7\241e3\312"
 111      BE89B21C 
 111      2DEB506E 
 111      44CBDB28 
 111      37A16533 
 112 0486 AD20C936 		.ascii	"\255 \3116\224\333Q~\200\262\002\345\016\224\037\242"
 112      94DB517E 
 112      80B202E5 
 112      0E941FA2 
 113 0496 DC897217 		.ascii	"\334\211r\027\312\335(?ByN\374\332/\211\013\366\011"
 113      CADD283F 
 113      42794EFC 
 113      DA2F890B 
 113      F609
 114 04a8 208BD912 		.ascii	" \213\331\022f\323\253\220G\337G\251\2179p\201|\226"
 114      66D3AB90 
 114      47DF47A9 
 114      8F397081 
 114      7C96
 115 04ba C95BA964 		.ascii	"\311[\251d\002\325\330\227\3454Yt{\345\221=\313-\334"
 115      02D5D897 
 115      E5345974 
ARM GAS  /tmp/ccE1UpoD.s 			page 9


 115      7BE5913D 
 115      CB2DDC
 116 04cd 8FB0BBB7 		.ascii	"\217\260\273\267\323\000\202\0136%\245\324\002\215\232"
 116      D300820B 
 116      3625A5D4 
 116      028D9A
 117 04dc 45EFD692 		.ascii	"E\357\326\222H9\335\340*\037\342\244\301\240\302\272"
 117      4839DDE0 
 117      2A1FE2A4 
 117      C1A0C2BA 
 118 04ec D4C20657 		.ascii	"\324\302\006Wr|=\037\017\321W\251Sd\321\201\352]e\237"
 118      727C3D1F 
 118      0FD157A9 
 118      5364D181 
 118      EA5D659F 
 119 0500 54871352 		.ascii	"T\207\023R@\267j\353\311\272\205.W\244\223\266\234O"
 119      40B76AEB 
 119      C9BA852E 
 119      57A493B6 
 119      9C4F
 120 0512 EEBA96BA 		.ascii	"\356\272\226\272\352\276\375!\316IC\213\250x*\204\014"
 120      EABEFD21 
 120      CE49438B 
 120      A8782A84 
 120      0C
 121 0523 4B15CEC5 		.ascii	"K\025\316\305g,\272\275\200\206\201;\214\022\300v\206"
 121      672CBABD 
 121      8086813B 
 121      8C12C076 
 121      86
 122 0534 04888108 		.ascii	"\004\210\201\010=\022\213\031\356\240\230 \006\261R"
 122      3D128B19 
 122      EEA09820 
 122      06B152
 123 0543 7072D208 		.ascii	"pr\322\010\302\366\211\305\327\251\274\035\006\003<"
 123      C2F689C5 
 123      D7A9BC1D 
 123      06033C
 124 0552 57D2092C 		.ascii	"W\322\011,\305\375QP\210\217X!B\033\254C\036\335\301"
 124      C5FD5150 
 124      888F5821 
 124      421BAC43 
 124      1EDDC1
 125 0565 2E306FE2 		.ascii	".0o\342\221w\036\335E\223<#ZyD\352\227h\001\244*\307"
 125      91771EDD 
 125      45933C23 
 125      5A7944EA 
 125      976801A4 
 126 057b C2AAB1F4 		.ascii	"\302\252\261\364\310\311K\267\203D&Q\005\224b\246\303"
 126      C8C94BB7 
 126      83442651 
 126      059462A6 
 126      C3
 127 058c F442DF28 		.ascii	"\364B\337(\336#\263\214f\303P\245%Um\205)F\326)\322"
 127      DE23B38C 
 127      66C350A5 
 127      25556D85 
ARM GAS  /tmp/ccE1UpoD.s 			page 10


 127      2946D629 
 128 05a1 41F5DE5B 		.ascii	"A\365\336[\267\270&y1\300\234!j\253z\366\201\015#J'"
 128      B7B82679 
 128      31C09C21 
 128      6AAB7AF6 
 128      810D234A 
 129 05b6 A2F8C715 		.ascii	"\242\370\307\025\262\344\261,\032RA\274\251\2103\241"
 129      B2E4B12C 
 129      1A5241BC 
 129      A98833A1 
 130 05c6 42031F23 		.ascii	"B\003\037#\025q\012*\002\311\271\001\230j\361\177W\214"
 130      15710A2A 
 130      02C9B901 
 130      986AF17F 
 130      578C
 131 05d8 1137C68B 		.ascii	"\0217\306\213L\251\274/\210\260\236\302\302\302]](\013"
 131      4CA9BC2F 
 131      88B09EC2 
 131      C2C25D5D 
 131      280B
 132 05ea A2DF6391 		.ascii	"\242\337c\221\321\316\023\335\302z\202m\026\026%\260"
 132      D1CE13DD 
 132      C27A826D 
 132      161625B0 
 133 05fa BC05B806 		.ascii	"\274\005\270\006\223\317\",\2544u\225\305\201\3025\301"
 133      93CF222C 
 133      AC347595 
 133      C581C235 
 133      C1
 134 060b B33816CF 		.ascii	"\2638\026\317\342L6LO\313P\242,\320/+\344dMd\021U\005"
 134      E24C364C 
 134      4FCB50A2 
 134      2CD02F2B 
 134      E4644D64 
 135 0622 4A322990 		.ascii	"J2)\220\005|\214\005JR\024\250\005\371\324\212\350O"
 135      057C8C05 
 135      4A5214A8 
 135      05F9D48A 
 135      E84F
 136 0634 B8D1DB4C 		.ascii	"\270\321\333L\251\235`D\377<~ES\017\344\273VJ\344\311"
 136      A99D6044 
 136      FF3C7E45 
 136      530FE4BB 
 136      564AE4C9 
 137 0648 2C1A22AF 		.ascii	",\032\"\257\027\037\272\300+\205\024\223\024\254\340"
 137      171FBAC0 
 137      2B851493 
 137      14ACE0
 138 0657 6C4C2145 		.ascii	"lL!E\221B\010\331F}\376\271\331\324?\2203\244\344\326"
 138      914208D9 
 138      467DFEB9 
 138      D9D43F90 
 138      33A4E4D6 
 139 066b 17FFFC93 		.ascii	"\027\377\374\223x\\'\211\256\265\203Z=+1QU\011'\215"
 139      785C2789 
 139      AEB5835A 
 139      3D2B3151 
ARM GAS  /tmp/ccE1UpoD.s 			page 11


 139      5509278D 
 140 067f 21A4712B 		.ascii	"!\244q+\340\203\177\253P\312#5\327d\352]\030\234\006"
 140      E0837FAB 
 140      50CA2335 
 140      D764EA5D 
 140      189C06
 141 0692 4B996652 		.ascii	"K\231fRJt6\2262MQ\312\226\244'N\206s\356\311\220\356"
 141      4A743696 
 141      324D51CA 
 141      96A4274E 
 141      8673EEC9 
 142 06a8 CB54564C 		.ascii	"\313TVL\206k\356\311\320\235Ek0\003\273I\006\201\340"
 142      866BEEC9 
 142      D09D456B 
 142      3003BB49 
 142      0681E0
 143 06bb 6CCCC0AE 		.ascii	"l\314\300\256\310 \224\204\373s.\3549(\347B\246\347"
 143      C8209484 
 143      FB732EEC 
 143      3928E742 
 143      A6E7
 144 06cd 5C08F02C 		.ascii	"\\\010\360,\304_~\247\271pCf\336\233\301i\260\222Y&"
 144      C45F7EA7 
 144      B9704366 
 144      DE9BC169 
 144      B0925926 
 145 06e1 950C0267 		.ascii	"\225\014\002gc%\263\024\225\014#V\177U\322{\333\336"
 145      6325B314 
 145      950C2356 
 145      7F55D27B 
 145      DBDE
 146 06f3 66DCB6AB 		.ascii	"f\334\266\253\3576r\333\356\007\356\252\2450\333$\341"
 146      EF3672DB 
 146      EE07EEAA 
 146      A530DB24 
 146      E1
 147 0704 60703226 		.ascii	"`p2&\234\255H8\234X\374\273kG\020\352\217M\333\227\020"
 147      9CAD4838 
 147      9C58FCBB 
 147      6B4710EA 
 147      8F4DDB97 
 148 0719 0D13F083 		.ascii	"\015\023\360\203N\300vE\337\244\" NA@\016\270\253\372"
 148      4EC07645 
 148      DFA42220 
 148      4E41400E 
 148      B8ABFA
 149 072c A6212604 		.ascii	"\246!&\004\264\000'#\001C\024\004D\022\337\327\361\006"
 149      B4002723 
 149      01431404 
 149      4412DFD7 
 149      F106
 150 073e 0968C586 		.ascii	"\011h\305\206\232\015\001\027jwG\210\354Gt#i\254}\227"
 150      9A0D0117 
 150      6A774788 
 150      EC477423 
 150      69AC7D97 
 151 0752 34C4CAE2 		.ascii	"4\304\312\342\001\007\274t\241\3509E4)\020\343\005\021"
ARM GAS  /tmp/ccE1UpoD.s 			page 12


 151      0107BC74 
 151      A1E83945 
 151      342910E3 
 151      0511
 152 0764 60A42F01 		.ascii	"`\244/\001\250\014\340A\344(\206\202\305\361\342p\264"
 152      A80CE041 
 152      E4288682 
 152      C5F1E270 
 152      B4
 153 0775 09872170 		.ascii	"\011\207!p\277\221\303\321\012\016\243\364\222\373\217"
 153      BF91C3D1 
 153      0A0EA3F4 
 153      92FB8F
 154 0784 C368FF70 		.ascii	"\303h\377p\250\007k\315f\030\333\337nm\376\244P$1V\346"
 154      A8076BCD 
 154      6618DBDF 
 154      6E6DFEA4 
 154      50243156 
 155 0799 DCC6C1DA 		.ascii	"\334\306\301\332E\370\360e\375\017^\277\210\371\344"
 155      45F8F065 
 155      FD0F5EBF 
 155      88F9E4
 156 07a8 6FACE0E2 		.ascii	"o\254\340\342\000$\177$\262m\213\343\373\335\315U\262"
 156      00247F24 
 156      B26D8BE3 
 156      FBDDCD55 
 156      B2
 157 07b9 9CB92CBA 		.ascii	"\234\271,\272j\255\032gR\346\226\340c,\3638E\231cX\""
 157      6AAD1A67 
 157      52E696E0 
 157      632CF338 
 157      45996358 
 158 07ce 6C3E     		.ascii	"l>"
 159 07d0 D494D7D7 		.ascii	"\324\224\327\327i\342\276\247tp8Q~\224<?\315\006\340"
 159      69E2BEA7 
 159      74703851 
 159      7E943C3F 
 159      CD06E0
 160 07e3 E9565137 		.ascii	"\351VQ7\371\360x\007k{\341\303nr\322\266\210\177i\361"
 160      F9F07807 
 160      6B7BE1C3 
 160      6E72D2B6 
 160      887F69F1 
 161 07f7 B5558384 		.ascii	"\265U\203\204\353\370\002\252\335\327'\307\262\347z"
 161      EBF802AA 
 161      DDD727C7 
 161      B2E77A
 162 0806 77C91A6F 		.ascii	"w\311\032o\327\304\347<\321x\227\034\015]\362\370\230"
 162      D7C4E73C 
 162      D178971C 
 162      0D5DF2F8 
 162      98
 163 0817 7341E0D8 		.ascii	"sA\340\330\206\221\3026\324\272{\016\3418A\002Ip\350"
 163      8691C236 
 163      D4BA7B0E 
 163      E1384102 
 163      4970E8
ARM GAS  /tmp/ccE1UpoD.s 			page 13


 164 082a E73FBD0A 		.ascii	"\347?\275\012\241\210\220-G\211I\344\002?\376\265\023"
 164      A188902D 
 164      478949E4 
 164      023FFEB5 
 164      13
 165 083b 2577029F 		.ascii	"%w\002\237^\325\231\240\250\016\343Bo\372w\255\225\311"
 165      5ED599A0 
 165      A80EE342 
 165      6FFA77AD 
 165      95C9
 166 084d 3C27A0CA 		.ascii	"<'\240\312\343\315\0072\306D6\254\037o\342\204iR#{`"
 166      E3CD0732 
 166      C64436AC 
 166      1F6FE284 
 166      6952237B 
 167 0862 E6ACECDE 		.ascii	"\346\254\354\336\367\256\225\014\274\300\242\251\246"
 167      F7AE950C 
 167      BCC0A2A9 
 167      A6
 168 086f C18B26D3 		.ascii	"\301\213&\323 \014|\214\323\340EE\242\361X\325%u+Jd"
 168      200C7C8C 
 168      D3E04545 
 168      A2F158D5 
 168      25752B4A 
 169 0884 BFF692E9 		.ascii	"\277\366\222\351|\236\370P\363\371\240;\221\311,\272"
 169      7C9EF850 
 169      F3F9A03B 
 169      91C92CBA 
 170 0894 2A913C93 		.ascii	"*\221<\223D\302\301\307\230H\236\"\221\266\310\330\242"
 170      44C2C1C7 
 170      98489E22 
 170      91B6C8D8 
 170      A2
 171 08a5 0BDFBD2B 		.ascii	"\013\337\275+o\233\342\313\022'\376\370\343\271F:\232"
 171      6F9BE2CB 
 171      1227FEF8 
 171      E3B9463A 
 171      9A
 172 08b6 BC464E65 		.ascii	"\274FNe(X\034\257d_6I6\002\3567&\373\262\"\331\004\236"
 172      28581CAF 
 172      645F3649 
 172      3602EE37 
 172      26FBB222 
 173 08cd ECD22DF2 		.ascii	"\354\322-\362\266\202\246&[\370p;\212G\262N\206\202"
 173      B682A626 
 173      5BF8703B 
 173      8A47B24E 
 173      8682
 174 08df C5F14A76 		.ascii	"\305\361Jv\232I\262\221p\2771\331i\212d\023\371\024"
 174      9A49B291 
 174      70BF31D9 
 174      698A6413 
 174      F914
 175 08f1 DDE09EA2 		.ascii	"\335\340\236\242EM\233\242x\274\020\323\363\177\356"
 175      454D9BA2 
 175      78BC10D3 
 175      F37FEE
ARM GAS  /tmp/ccE1UpoD.s 			page 14


 176 0900 E9399D45 		.ascii	"\3519\235En\260)\236i\222M+p6f3S\221M\273\207\330\336"
 176      6EB0299E 
 176      69924D2B 
 176      70366633 
 176      53914DBB 
 177 0917 6C30A43E 		.ascii	"l0\244>^,\372R\036/fKp\355\035|\027S\276OQ\024\305I"
 177      5E2CFA52 
 177      1E2F664B 
 177      70ED1D7C 
 177      1753BE4F 
 178 092f 6D7E3E6A 		.ascii	"m~>j,\373R\356*s\031\264\006\253\372\212IU\243\300\331"
 178      2CFB52EE 
 178      2A7319B4 
 178      06ABFA8A 
 178      4955A3C0 
 179 0944 58D55714 		.ascii	"X\325W\024UM\362_U\275\217\032\037(:\335\212\370\306"
 179      554DF25F 
 179      55BD8F1A 
 179      1F283ADD 
 179      8AF8C6
 180 0957 1D35E681 		.ascii	"\0355\346\201\273\252\323\235o\222p48\031\023\236\257"
 180      BBAAD39D 
 180      6F927034 
 180      3819139E 
 180      AF
 181 0968 48B8BDBF 		.ascii	"H\270\275\277\273$[s\352t=\216\032\025F\002Jv*\010P"
 181      BB245B73 
 181      EA743D8E 
 181      1A154602 
 181      4A762A08 
 182 097d 1D351680 		.ascii	"\0355\026\200\273j\277YHM\030h\015^F\006\026R\005\005"
 182      BB6ABF59 
 182      484D1868 
 182      0D5E4606 
 182      16520505 
 183 0991 C9FEA6A0 		.ascii	"\311\376\246\240Cs\242\340B\355\225\030\221~\011m\352"
 183      4373A2E0 
 183      42ED9518 
 183      917E096D 
 183      EA
 184 09a2 6963894F 		.ascii	"ic\211O\021\224[i)\005 \020\312\213\312efT\306\240\217"
 184      11945B69 
 184      29052010 
 184      CA8BCA65 
 184      6654C6A0 
 185 09b7 91CB652A 		.ascii	"\221\313e*.S\374\315ej\263\341\022v\211;_\313]b\245"
 185      2E53FCCD 
 185      656AB3E1 
 185      1276893B 
 185      5FCB5D62 
 186 09cc BB5E8D78 		.ascii	"\273^\215x#9T\177\013\205\033\345\273e\222\213U\024"
 186      2339547F 
 186      0B851BE5 
 186      BB65928B 
 186      5514
 187 09de 02A97E59 		.ascii	"\002\251~Y\257\233\321\021\213nF:^W\321\321\221\367"
 187      AF9BD111 
ARM GAS  /tmp/ccE1UpoD.s 			page 15


 187      8B6E463A 
 187      5E57D1D1 
 187      91F7
 188 09f0 FA35EE2D 		.ascii	"\3725\356-\377\015\237p\017\363\300]\341\306\275\226"
 188      FF0D9F70 
 188      0FF3C05D 
 188      E1C6BD96 
 189 0a00 422015EE 		.ascii	"B \025\35623\334m\320\315\210\273L\205\273\023\307}"
 189      3233DC6D 
 189      D0CD88BB 
 189      4C85BB13 
 189      C77D
 190 0a12 D28DBBDC 		.ascii	"\322\215\273\334'\334\303=p\357u\343~\213B \025\356"
 190      27DCC33D 
 190      70EF75E3 
 190      7E8B4220 
 190      15EE
 191 0a24 F566B8E3 		.ascii	"\365f\270\343\320\315\210{\275\012wg\216\373\224\033"
 191      D0CD887B 
 191      BD0A7767 
 191      8EFB941B 
 192 0a34 F7069F70 		.ascii	"\367\006\237p\217\360\300}\320\215{#\205@*\334\233\314"
 192      8FF0C07D 
 192      D08D7B23 
 192      85402ADC 
 192      9BCC
 193 0a46 70C7A39B 		.ascii	"p\307\243\233\021\367&\025\356.\034\367\0317\356\315"
 193      11F72615 
 193      EE2E1CF7 
 193      1937EECD 
 194 0a56 3EE11EF9 		.ascii	">\341\036\371(\336\262^\227\255\317{\024\000\251\362"
 194      28DEB25E 
 194      97ADCF7B 
 194      1400A9F2 
 195 0a66 DF62967F 		.ascii	"\337b\226\177[t3\346\277E\225\177W~\0168\376\261\274"
 195      5B7433E6 
 195      BF45957F 
 195      577E0E38 
 195      FEB1BC
 196 0a79 6F6B93D7 		.ascii	"ok\223\327\352mM_\253\267S\000\002\241\274\222\2560"
 196      EA6D4D5F 
 196      ABB75300 
 196      02A1BC92 
 196      AE30
 197 0a8b 4B3A017D 		.ascii	"K:\001}\214IW\250\222N\203\312\223\363\344\234xM\320"
 197      8C4957A8 
 197      924E83CA 
 197      93F3E49C 
 197      784DD0
 198 0a9e B5F26221 		.ascii	"\265\362b!\014t\323\327\\\337\230\264\251\231\304?\343"
 198      0C74D3D7 
 198      5CDF98B4 
 198      A999C43F 
 198      E3
 199 0aaf 5C94EF78 		.ascii	"\\\224\357xvR\323\346\372\217\277\177s}\362\3463\002"
 199      7652D3E6 
 199      FA8FBF7F 
ARM GAS  /tmp/ccE1UpoD.s 			page 16


 199      737DF2E6 
 199      3302
 200 0ac1 D86E0AE0 		.ascii	"\330n\012\340T3l\217Y\261\023\321\315X\354=\252b\247"
 200      54336C8F 
 200      59B113D1 
 200      CD58EC3D 
 200      AA62A7
 201 0ad4 EB33ACA6 		.ascii	"\3533\254\246\374\300\177\344\254\336K\225\357\211\366"
 201      FCC07FE4 
 201      ACDE4B95 
 201      EF89F6
 202 0ae3 51187AE0 		.ascii	"Q\030z\340\233\242}\324\375\252\350f\231|\273\3621\363"
 202      9BA27DD4 
 202      FDAAE866 
 202      997CBBF2 
 202      31F3
 203 0af5 B6DCF7AE 		.ascii	"\266\334\367\256\250;+\216\367\273\"\213\341]\221\245"
 203      A83B2B8E 
 203      F7BB228B 
 203      E15D91A5 
 204 0b05 809ED3D2 		.ascii	"\200\236\323\322(\004H\327_\024e\360E\341\207|\341\265"
 204      280448D7 
 204      5F1465F0 
 204      45E1877C 
 204      E1B5
 205 0b17 DF5D0AEF 		.ascii	"\337]\012\3577E\355|{S\264_U!\373\243:z\354P\034=\016"
 205      3745ED7C 
 205      7B53B45F 
 205      5521FBA3 
 205      3A7AEC50 
 206 0b2e 34F2E871 		.ascii	"4\362\350q\200\202\277\352\354Qi6-\222\320\3158-*UI"
 206      8082BFEA 
 206      EC516936 
 206      2D92D0CD 
 206      382D2A55 
 207 0b43 F7F077BF 		.ascii	"\367\360w\277\324\263\331\364K\336\307\217\017\025\307"
 207      D4B3D9F4 
 207      4BDEC78F 
 207      0F15C7
 208 0b52 8F838D3C 		.ascii	"\217\203\215<~TQ\360W\3756\017\233\221\320\036\335\214"
 208      7E5451F0 
 208      57FD360F 
 208      9B91D01E 
 208      DD8C
 209 0b64 241C5691 		.ascii	"$\034V\221\220\351o\022z\371\207\004<=\354k#\260W7y"
 209      90E96F12 
 209      7AF98704 
 209      3C3DEC6B 
 209      23B05737 
 210 0b79 473ADAF4 		.ascii	"G:\332\364\035\351\030\005 \020\312\213\210\0323\"l"
 210      1DE91805 
 210      2010CA8B 
 210      881A3322 
 210      6C
 211 0b8a E86324A2 		.ascii	"\350c$\242FEDo?\277\323\371\267\354\326k\275\272\231"
 211      4645446F 
 211      3FBFD3F9 
ARM GAS  /tmp/ccE1UpoD.s 			page 17


 211      B7ECD66B 
 211      BDBA99
 212 0b9d 07FDCD78 		.ascii	"\007\375\315x\244G\027v\355M\231\373)\012\201T\363\360"
 212      A4471776 
 212      ED4D99FB 
 212      290A8154 
 212      F3F0
 213 0baf 8C59FAC9 		.ascii	"\214Y\372\311\350fL\377\214*\375>|\301\275\353\356\302"
 213      E8664CFF 
 213      8C2AFD3E 
 213      7CC1BDEB 
 213      EEC2
 214 0bc1 3EF709B7 		.ascii	">\367\011\267g\367x\323\215\373\013\012\201T\270\317"
 214      67F778D3 
 214      8DFB0B0A 
 214      8154B8CF 
 215 0bd1 9AE1EE80 		.ascii	"\232\341\356\200nF\334gU\270\2638\356\337\334\270\277"
 215      6E46DC67 
 215      55B8B338 
 215      EEDFDCB8 
 215      BF
 216 0be2 F209B767 		.ascii	"\362\011\267g\267\376\213\033\367\327\024\002\251p\237"
 216      B7FE8B1B 
 216      F7D71402 
 216      A9709F
 217 0bf1 37C39D82 		.ascii	"7\303\235\202nF\334\347U\270\373\212\277\204\270q_\364"
 217      6E46DCE7 
 217      55B8FB8A 
 217      BF84B871 
 217      5FF4
 218 0c03 09B7E7E9 		.ascii	"\011\267\347\351\250\336\215\373\022\205@*\334\337\230"
 218      A8DE8DFB 
 218      1285402A 
 218      DCDF98
 219 0c12 E14E4537 		.ascii	"\341NE7#\356oT\270\373q\334KK%\356:\237p\017}\004\335"
 219      23EE6F54 
 219      B8FB71DC 
 219      4B4B25EE 
 219      3A9F700F 
 220 0c29 FAB26A99 		.ascii	"\372\262j\231\377e\012\200T\371_1\313\277#\272\031\363"
 220      FF650A80 
 220      54F95F31 
 220      CBBF23BA 
 220      19F3
 221 0c3b BFA2CABF 		.ascii	"\277\242\312\277\277\370\023\305ey\337\267M^\033\257"
 221      BFF813C5 
 221      6579DFB7 
 221      4D5E1BAF 
 222 0c4b 367D6DBC 		.ascii	"6}m\274F\001\010\204\362J\372{\263\244;\241\2171\351"
 222      46010884 
 222      F24AFA7B 
 222      B3A43BA1 
 222      8F31E9
 223 0c5e EF554967 		.ascii	"\357UIg\363n\375\222\350\326\373\327\336\306n}\200\237"
 223      F36EFD92 
 223      E8D6FBD7 
 223      DEC66E7D 
ARM GAS  /tmp/ccE1UpoD.s 			page 18


 223      809F
 224 0c70 BBF5CBB7 		.ascii	"\273\365\313\267e\267~\275Yu\353\177\257\035/\200\335"
 224      65B77EBD 
 224      5975EB7F 
 224      AF1D2F80 
 224      DD
 225 0c81 A0004E35 		.ascii	"\240\000N5\303n\231\025\2733\272\031\213}KU\354\201"
 225      C36E9915 
 225      BB33BA19 
 225      8B7D4B55 
 225      EC81
 226 0c93 BC5BDF7F 		.ascii	"\274[\337\177\325\335\255\337Vw\353w(\014=\260[\277"
 226      D5DDADDF 
 226      5677EB77 
 226      280C3DB0 
 226      5BBF
 227 0ca5 E3D1ADEF 		.ascii	"\343\321\255\357\375\207\354\326\177b\336\326\373\272"
 227      FD87ECD6 
 227      7F62DED6 
 227      FBBA
 228 0cb3 F541866E 		.ascii	"\365A\206n\335j\350\326\255l\271\320\262)\004\030\250"
 228      DD6AE8D6 
 228      AD6CB9D0 
 228      B2290418 
 228      A8
 229 0cc4 77EB397C 		.ascii	"w\3539|QX_ \274~6\353\326\273\370\326\255\377\254\252"
 229      51585F20 
 229      BC7E36EB 
 229      D6BBF8D6 
 229      ADFFACAA 
 230 0cd8 D0E047D5 		.ascii	"\320\340G\325\255\357T4\212\327\032\331\255\377\012"
 230      ADEF5434 
 230      8AD71AD9 
 230      ADFF0A
 231 0ce7 873865B7 		.ascii	"\2078e\267~\327lZtE7\343\264\270\253Jz\210\277\033\305"
 231      7ED76C5A 
 231      744537E3 
 231      B4B8AB4A 
 231      7A88BF1B 
 232 0cfc A1CDB45B 		.ascii	"\241\315\264[\337e$\341}\025\011\252n\375\036\005\177"
 232      DF6524E1 
 232      7D1509AA 
 232      6EFD1E05 
 232      7F
 233 0d0d D56FD3A5 		.ascii	"\325o\323\245\231\220\220\206nF\022\\\232\202\204a\376"
 233      99909086 
 233      6E46125C 
 233      9A828461 
 233      FE
 234 0d1e 2661B81F 		.ascii	"&a\270\037\273\365_\023\005\366b\255\251;\322b\237\""
 234      BBF55F13 
 234      05F662AD 
 234      A93BD262 
 234      9F22
 235 0d30 2877A412 		.ascii	"(w\244\022\015\200@(/\"J\315\210\350\206>F\"JUD\214"
 235      0D804028 
 235      2F224ACD 
ARM GAS  /tmp/ccE1UpoD.s 			page 19


 235      88E8863E 
 235      46224A55 
 236 0d46 C0156771 		.ascii	"\300\025gq]Ei\220a\345Kv\360\377(\000\226`\257\211\343"
 236      5D456990 
 236      61E54B76 
 236      F0FF2800 
 236      9660AF89 
 237 0d5b 8435D45F 		.ascii	"\2045\324_\033\226\367\332\261[\261v\334h\344\332\361"
 237      1B96F7DA 
 237      B15BB176 
 237      DC68E4DA 
 237      F1
 238 0d6c 9A06FEAA 		.ascii	"\232\006\376\252\265c\271Y\265\322\321\315X\255\345"
 238      B563B959 
 238      B5D2D1CD 
 238      58ADE5
 239 0d7b AA6A8DF4 		.ascii	"\252j\215\364\367\264\035\325L\327\216\217\024k\207"
 239      F7B41DD5 
 239      4CD78E8F 
 239      146B87
 240 0d8a 8A04D5DA 		.ascii	"\212\004\325\332\261Z\003\177\325\332\261\306\214\204"
 240      B15A037F 
 240      D5DAB1C6 
 240      8C84
 241 0d98 EEE86624 		.ascii	"\356\350f$a\215\212\204\307\374M\302\350\346D\302\205"
 241      618D8A84 
 241      C7FC4DC2 
 241      E8E644C2 
 241      85
 242 0da9 DAEFDA89 		.ascii	"\332\357\332\211\364\313|Z<T\377\216\345\315\246/?\345"
 242      F4CB7C5A 
 242      3C54FF8E 
 242      E5CDA62F 
 242      3FE5
 243 0dbb 1A008150 		.ascii	"\032\000\201P^\\\2563\3432\003}\214\\\256Sq9\306\337"
 243      5E5CAE33 
 243      E332037D 
 243      8C5CAE53 
 243      7139C6DF 
 244 0dcf 5C3EDEBC 		.ascii	"\\>\336\274\270\274.\271\334\330d.\337~\310\315\310"
 244      B8BC2EB9 
 244      DCD8642E 
 244      DF7EC8CD 
 244      C8
 245 0de0 83CB4D1A 		.ascii	"\203\313M\032\000\201P^\\n6\343\322\216>F.7\253\270"
 245      0081505E 
 245      5C6E36E3 
 245      D28E3E46 
 245      2E37ABB8 
 246 0df4 7CC2DF5C 		.ascii	"|\302\337\\\216\365\327\236~\370G~\000\320\233\377\336"
 246      8EF5D79E 
 246      7EF8477E 
 246      00D09BFF 
 246      DE
 247 0e05 64AF6B29 		.ascii	"d\257k)\034\241\345\223r\341\377\332\301}\265;\302\032"
 247      1CA1E593 
 247      72E1FFDA 
ARM GAS  /tmp/ccE1UpoD.s 			page 20


 247      C17DB53B 
 247      C21A
 248 0e17 BEF349B8 		.ascii	"\276\363I\270\363s\2620\330\015\364YV\261[\251\360\324"
 248      F373B230 
 248      D80DF459 
 248      56B15BA9 
 248      F0D4
 249 0e29 1EF6C219 		.ascii	"\036\366\302\031E\371v\307\214\251\363\354S\363\377"
 249      45F976C7 
 249      8CA9F3EC 
 249      53F3FF
 250 0e38 6A77143A 		.ascii	"jw\024:\2478g\314\266\317\2315w\3724\373\234\374\331"
 250      A73867CC 
 250      B6CF9935 
 250      77FA34FB 
 250      9CFCD9
 251 0e4b 73ECB3E6 		.ascii	"s\354\263\346\340w\321\224\031\257f8H`\321\354\202\314"
 251      E077D194 
 251      19AF6638 
 251      4860D1EC 
 251      82CC
 252 0e5d 8C1E56F6 		.ascii	"\214\036V\366\325\023D&u\016i0\006\273\310\177u\216"
 252      D5134426 
 252      750E6930 
 252      06BBC87F 
 252      758E
 253 0e6f 7D78EEF8 		.ascii	"}x\356\3701\343\355\316\351\216?\317\235\012\367\316"
 253      31E3EDCE 
 253      E98E3FCF 
 253      9D0AF7CE 
 254 0e7f CA9FEC28 		.ascii	"\312\237\354(\0325w\272#\243\220D\346\216\177\3066%"
 254      1A3577BA 
 254      23A39044 
 254      E68E7FC6 
 254      3625
 255 0e91 6F76FECC 		.ascii	"ov\376\314Y\316t[\307\036D\233E\202\212\362\213f\314"
 255      59CE745B 
 255      C71E449B 
 255      45828AF2 
 255      8B66CC
 256 0ea4 9A47B21E 		.ascii	"\232G\262\036\024\234\301\223Q\013\001d\376l\0262p\350"
 256      149CC193 
 256      510B0164 
 256      FE6C1632 
 256      70E8
 257 0eb6 B0E12346 		.ascii	"\260\341#F\222\377\003AgO\246"
 257      92FF0341 
 257      674FA6
 258              		.text
 259              		.section	.gnu.lto_mbox1_setup.e2289244930944c1,"",%progbits
 260 0000 789C6362 		.ascii	"x\234cb`b@\007\222@|\031\210\215\200\230\221\231\201"
 260      60624007 
 260      92407C19 
 260      888D8098 
 260      919981
 261 0013 9169C239 		.ascii	"\221i\3029\006\206F\016&FF\020\203\201\221\241\236\211"
 261      0686460E 
ARM GAS  /tmp/ccE1UpoD.s 			page 21


 261      26464610 
 261      838191A1 
 261      9E89
 262 0025 B13E9211 		.ascii	"\261>\222\021\254v=\323\201\007\377\377\257\233wl\376"
 262      AC763DD3 
 262      8107FFFF 
 262      AF9B776C 
 262      FE
 263 0036 1AC6994C 		.ascii	"\032\306\231L\314@\021V\206\226\206\206\011\012\014"
 263      CC401156 
 263      86968686 
 263      090A0C
 264 0045 0CC96015 		.ascii	"\014\311`\025!@\022\244-\224\221\011D3\237gh{0s1W\""
 264      214012A4 
 264      2D949109 
 264      44339F67 
 264      687B3073 
 265 005c E3424656 		.ascii	"\343BFV\240t5\303\257\206\216\006\201LF\240r\210\211"
 265      A07435C3 
 265      AF868E06 
 265      814C46A0 
 265      728889
 266 006f 20118E4C 		.ascii	" \021\216LF\306\\F\006\250\"\210\232\206\311\214\231"
 266      46C65C46 
 266      06A82288 
 266      9A86C98C 
 266      99
 267 0080 8C4CDA0C 		.ascii	"\214L\332\014\253\032\200`#\220\315\014e\317\006\262"
 267      AB1A8060 
 267      2390CD0C 
 267      65CF06B2 
 268 0090 59721919 		.ascii	"Yr\031\031\223 \372\031\222\240\006AuG\000\245YY\031"
 268      9320FA19 
 268      92A00641 
 268      754700A5 
 268      595919
 269 00a3 3219D918 		.ascii	"2\031\331\030\030.24>\230\245\014\263\033\002B\200\312"
 269      182E3234 
 269      3E98A50C 
 269      B31B0242 
 269      80CA
 270 00b5 810E0305 		.ascii	"\201\016\003\005\203\201~F~n\252~r~J\245~Jj\231~rFf"
 270      83817E46 
 270      7E6EAA7E 
 270      727E4AA5 
 270      7E4A6A99 
 271 00cd 52667EB1 		.ascii	"Rf~\261~IQi^\266~Ijq\211~Q\011\230\316M\312\257\320"
 271      7E495169 
 271      5EB67E49 
 271      6A71897E 
 271      510998CE 
 272 00e5 4B660000 		.ascii	"Kf\000\000\266\353G\335"
 272      B6EB47DD 
 273              		.text
 274              		.section	.gnu.lto_.symbol_nodes.e2289244930944c1,"",%progbits
 275 0000 789C4D91 		.ascii	"x\234M\221\273JCA\020\206g\366\344~\265\262\260\320"
 275      BB4A4341 
ARM GAS  /tmp/ccE1UpoD.s 			page 22


 275      108667F6 
 275      E47EB5B2 
 275      B0D0
 276 0012 CA97F06D 		.ascii	"\312\227\360mT0\240\240\240`a\341\004\026\004\265P\264"
 276      5430A0A0 
 276      A06061E1 
 276      041604B5 
 276      50B4
 277 0024 B5CA4202 		.ascii	"\265\312B\002\012\012ZX\010Iq\012\301\"\235\265\222"
 277      0A0A5A58 
 277      0849710A 
 277      C1229DB5 
 277      92
 278 0035 A389269A 		.ascii	"\243\211&\232x\001\213\210\227\335\031p=\305\374\363"
 278      78018B88 
 278      97DD1970 
 278      3DC5FCF3 
 279 0045 CDFEBB33 		.ascii	"\315\376\2733\273G\201\202k\005\362\251;$\200\335&\000"
 279      BB478182 
 279      6B05F2A9 
 279      3B2480DD 
 279      2600
 280 0057 D1C1E674 		.ascii	"\321\301\346t\274\205\020\243@EH\370\257\372\212\010"
 280      BC8510A3 
 280      404548F8 
 280      AFFA8A08 
 281 0067 04F136AA 		.ascii	"\004\3616\252\270\225{\014\254`\007I\211\247\\F|A\012"
 281      B8957B0C 
 281      AC600749 
 281      89A75C46 
 281      7C410A
 282 007a 3CF59162 		.ascii	"<\365\221b\236\236\221\342\236\006H\011O=\244\244\247"
 282      9E9E91E2 
 282      9E064809 
 282      4F3DA4A4 
 282      A7
 283 008b 2E52CAD3 		.ascii	".R\312\323\023R\332\323\003R\306\323#R\326\323;R\356"
 283      1352DAD3 
 283      0352C6D3 
 283      2352D6D3 
 283      3B52EE
 284 009e 8F024840 		.ascii	"\217\002H@t\373m\265\000f\343f\212\231\265\010\321e"
 284      74FB6DB5 
 284      0066E366 
 284      8A99B508 
 284      D165
 285 00b0 27E1D85C 		.ascii	"'\341\330\\9-@\264\365\305~\263\3554\007\2729\311v'"
 285      392D40B4 
 285      F5C57EB3 
 285      ED3407BA 
 285      39C97627 
 286 00c4 45303B79 		.ascii	"E0;y&'Y\010\367\304\272\317\022\2162\214q\034\017 \017"
 286      26275908 
 286      F7C4BACF 
 286      128E328C 
 286      711C0F20 
 287 00d9 6682CD36 		.ascii	"f\202\3156\246!\232\011 \005\341\254\353\021\316\271"
ARM GAS  /tmp/ccE1UpoD.s 			page 23


 287      A6219A09 
 287      2005E1AC 
 287      EB11CEB9 
 288 00e9 BA2E394F 		.ascii	"\272.9OX\342|\236w-\3609\213\256\256\2278\2671\003f"
 288      58E27C9E 
 288      772DF039 
 288      8BAEAE97 
 288      38B73103 
 289 00fe 993D2BEC 		.ascii	"\231=+\354Y\345|\215\343\272\233\320\020w!\316+r\331"
 289      59E57C8D 
 289      E3BA9BD0 
 289      107721CE 
 289      2B72D9
 290 0111 0ACF6E8C 		.ascii	"\012\317n\214\220\021\252\012U\205jL\372P\256p\204\256"
 290      9011AA0A 
 290      55856A4C 
 290      FA50AE70 
 290      84AE
 291 0123 913E168B 		.ascii	"\221>\026\213\023;\362\011\362\314\247R<\223[\236\313"
 291      133BF209 
 291      F2CCA752 
 291      3C935B9E 
 291      CB
 292 0134 860B742F 		.ascii	"\206\013t/\240\353R\254\0135\204\032B-\241\226P$\024"
 292      A0EB52AC 
 292      0B35841A 
 292      422DA196 
 292      502414
 293 0147 09B5E54C 		.ascii	"\011\265\345L\021\335\345\356QW,=\356\036\366\271\273"
 293      11DDE5EE 
 293      51572C3D 
 293      EE1EF6B9 
 293      BB
 294 0158 1948F14D 		.ascii	"\031H\361M\332~\310\206\241\225$\204CY\373\224\265\037"
 294      DA7EC886 
 294      A1952484 
 294      4359FB94 
 294      B51F
 295 016a 11A3586A 		.ascii	"\021\243Xj*P#\240\355o\207_\007q\260\307"
 295      2A5023A0 
 295      ED6F875F 
 295      0771B0C7 
 296              		.text
 297              		.section	.gnu.lto_.refs.e2289244930944c1,"",%progbits
 298 0000 789C6362 		.ascii	"x\234cb`b\230\314\000\001\346\014\014\214LH\220\001"
 298      606298CC 
 298      0001E60C 
 298      0C8C4C48 
 298      9001
 299 0012 0A3179A8 		.ascii	"\0121y\25020\021b\304\031\220 \007#\0233\024\302\324"
 299      32301162 
 299      C4199020 
 299      07231333 
 299      14C2D4
 300 0025 33013133 		.ascii	"3\00113#\013\023+\0202110\000\000\247\272\001\204"
 300      230B132B 
 300      10323131 
ARM GAS  /tmp/ccE1UpoD.s 			page 24


 300      300000A7 
 300      BA0184
 301              		.text
 302              		.section	.gnu.lto_.decls.e2289244930944c1,"",%progbits
 303 0000 789CBD5B 		.ascii	"x\234\275[{p\024\307\231\357\236]\355j%\031l\347\205"
 303      7B7014C7 
 303      99EF9E5D 
 303      ED6A2519 
 303      6CE785
 304 0013 2BB978ED 		.ascii	"+\271x\355\313\203`\033! 6T]\014\261S\211\375\207\357"
 304      CB83601B 
 304      21203654 
 304      5D0CB153 
 304      89FD87EF 
 305 0027 52295295 		.ascii	"R)R\225\377\326\2034\240\215\265\217\354\216\014T\256"
 305      FFD68334 
 305      A08DB58F 
 305      EC8E0C54 
 305      AE
 306 0038 CE231984 		.ascii	"\316#\031\204Ll\020\002\033\331FB\200-^\201\360\024"
 306      4C6C1002 
 306      1BD94642 
 306      802D5E81 
 306      F014
 307 004a 36C23010 		.ascii	"6\3020\020K\210\367#`\036\266A\220@\034\347\316\207"
 307      4B88F723 
 307      601EB641 
 307      90401CE7 
 307      CE87
 308 005c 0376FC64 		.ascii	"\003v\374d\357\353\356\351\331\236\321\314\356\214\234"
 308      EFEBEEE9 
 308      D99ED1CC 
 308      EE8C9C
 309 006b DC56F574 		.ascii	"\334V\365t\317l\367\357\373}_\177\375\372fWB\022:\203"
 309      CF6CF7EF 
 309      FB7D5F7F 
 309      FDFA6657 
 309      42123A83 
 310 007f 11CAC1E7 		.ascii	"\021\312\301\347\201\177Chn\010\241\000B\350~H\345\220"
 310      817F4368 
 310      6E08A100 
 310      42E87E48 
 310      E590
 311 0091 4A202D87 		.ascii	"J -\207\364k\250\363\237\220\326B\371\277 \017C\336"
 311      F46BA8F3 
 311      9F90D642 
 311      F9BF200F 
 311      43DE
 312 00a3 007923A4 		.ascii	"\000y#\244g \251\220$x\366<\344\013 \335\004\345\025"
 312      6720A990 
 312      2478F63C 
 312      E40B20DD 
 312      04E515
 313 00b6 9077415A 		.ascii	"\220wAZ\003i\023\244m\220z \355\206\364:\244\375\220"
 313      036913A4 
 313      6D907A20 
 313      ED86F43A 
ARM GAS  /tmp/ccE1UpoD.s 			page 25


 313      A4FD90
 314 00c9 0E423A0E 		.ascii	"\016B:\016\3514\244\263\220\202\320\356\002\344\227"
 314      E934A4B3 
 314      9082D0EE 
 314      02E497
 315 00d8 091E008E 		.ascii	"\011\036\000\216 \240\302\207`\376+\344@\023\015\203"
 315      20A0C287 
 315      60FE2BE4 
 315      40130D83 
 316 00e8 54811827 		.ascii	"T\201\030'\302s\035\221\005\371wI\035hw\006\312\337"
 316      C2731D91 
 316      05F97749 
 316      1D687706 
 316      CADF
 317 00fa 921837A2 		.ascii	"\222\0307\242\303w\240\374]Hk\341~\244\304t8\201\231"
 317      C377A0FC 
 317      5D486BE1 
 317      7EA4C474 
 317      388199
 318 010d 3EDF83FB 		.ascii	">\337\203\373^\310W\300\263QP>\004\345\273 \337\011"
 318      5EC857C0 
 318      B351503E 
 318      04E5BB20 
 318      DF09
 319 011f F9DD525E 		.ascii	"\371\335R^\377nH\367\300\275\016\371h\3107cf\257W u"
 319      FF6E48F7 
 319      C0BD0EF9 
 319      68C83763 
 319      66AF5720 
 320 0134 435A6DD8 		.ascii	"CZm\330m\205\2417\327m\277\241\363A\303\006\333\014"
 320      6D85A137 
 320      D76DBFA1 
 320      F341C306 
 320      DB0C
 321 0146 3B10BB60 		.ascii	";\020\273`Cg\361\323e\330\270Rb\334\355\266>g\263\267"
 321      4367F1D3 
 321      65D8B852 
 321      62DCEDB6 
 321      3E67B3B7 
 322 015a 64B4396B 		.ascii	"d\2649k\224\271\015\305O9\232\247i\215Zg\223\366P\377"
 322      94B90DC5 
 322      4F399AA7 
 322      698D5A67 
 322      93F650FF 
 323 016e B05BD142 		.ascii	"\260[\321B\015>\321~\260\342/\260\214\207E\220.\321"
 323      0D3ED17E 
 323      B0E22FB0 
 323      8C874590 
 323      2ED1
 324 0180 5245048D 		.ascii	"RE\004\215\204\332\337F/iZ\313\300\234?\216\320\202"
 324      84DADF46 
 324      2F695ACB 
 324      C09C3F8E 
 324      D082
 325 0192 325E816F 		.ascii	"2^\201o\005\334\211\030\215Bk\240Y\213\246]\272\323"
 325      05DC8918 
 325      8D426BA0 
ARM GAS  /tmp/ccE1UpoD.s 			page 26


 325      598BA65D 
 325      BAD3
 326 01a4 064F3F45 		.ascii	"\006O?Ea\021\222q\027\200\311\370e<\212\011\321\364"
 326      61119271 
 326      1780C9F8 
 326      653C8A09 
 326      D1F4
 327 01b6 6B4A943D 		.ascii	"kJ\224=E\306s\207\317\035\250\023\330\353\037\374e?"
 327      45C67387 
 327      CF1DA813 
 327      D8EB1FFC 
 327      653F
 328 01c8 D65A2B2C 		.ascii	"\326Z+,\272DP3\021\312nL\271Q.6\230\327f[\323\321\343"
 328      BA445033 
 328      11CA6E4C 
 328      B9512E36 
 328      98D7665B 
 329 01df F8494D83 		.ascii	"\370IM\203/\326\342\010h\264\010c\213H\357P\327\016"
 329      2FD6E208 
 329      68B40863 
 329      8B48EF50 
 329      D70E
 330 01f1 BCBE0937 		.ascii	"\274\276\0117R\250\365\024j\327\220\241\332\217l\237"
 330      52A8F514 
 330      6AD790A1 
 330      DA8F6C9F 
 331 0201 A069A532 		.ascii	"\240i\2452\336H\201>\265\001\3118\024\021-A\357y\005"
 331      DE48813E 
 331      B501C938 
 331      14112D41 
 331      EF7905
 332 0214 8206B744 		.ascii	"\202\006\267D\322Gd\020\343'\214'\344&\214\376\337\333"
 332      D2476410 
 332      E3278C27 
 332      E4268CFE 
 332      DFDB
 333 0226 39A94920 		.ascii	"9\251I \326\340r\216'\2419\0226\334\300\251\272Qd\037"
 333      D6E0728E 
 333      27A13912 
 333      36DCC0A9 
 333      BA51641F 
 334 023a A382C509 		.ascii	"\243\202\305\011\006\346,k\277M\353\334\213\031\254"
 334      06E62C6B 
 334      BF4DEBDC 
 334      8B19AC
 335 0249 8416F8C6 		.ascii	"\204\026\370\306\213Z\234\3523\245\177\014\307z\316"
 335      8B5A9CEA 
 335      33A57F0C 
 335      C77ACE
 336 0258 0B56A92B 		.ascii	"\013V\251+7\375\206\200\265\3147\226\310K\323\027\366"
 336      37FD8680 
 336      B5CC3796 
 336      C84BD317 
 336      F6
 337 0269 2DC5444F 		.ascii	"-\305DO\207Q\365(o^\221\367\243M\177\330\031\240~\324"
 337      8751F528 
 337      6F5E91F7 
ARM GAS  /tmp/ccE1UpoD.s 			page 27


 337      A34D7FD8 
 337      19A07ED4 
 338 027d 4347EB5B 		.ascii	"CG\353[\222\325\217\212\241H\350\035\332b\227}x\276"
 338      92D58F8A 
 338      A148E81D 
 338      DA62977D 
 338      78BE
 339 028f B91C47D9 		.ascii	"\271\034G\331\343b\343S\323\337\276\034\201\341\351"
 339      E362E353 
 339      D3DFBE1C 
 339      81E1E9
 340 029e 206AB2A8 		.ascii	" j\262\250\257A\370\324\222#\013\361l:\206\366R\312"
 340      AF41F8D4 
 340      92230BF1 
 340      6C3A86F6 
 340      52CA
 341 02b0 EB028E94 		.ascii	"\353\002\216\224;'\273\001I\250\2076\351\265q\036x\365"
 341      3B27BB01 
 341      49A88736 
 341      E9B5711E 
 341      78F5
 342 02c2 FCC906DC 		.ascii	"\374\311\006\334@\241{=M,\247\232\230O\025\233%;\203"
 342      40A17B3D 
 342      4D2CA79A 
 342      984F159B 
 342      253B83
 343 02d5 5CFE8FF2 		.ascii	"\\\376\217\362\212\234\\\362:\246\226?@\325h\010\026"
 343      8A9C5CF2 
 343      3AA6963F 
 343      40D56808 
 343      16
 344 02e6 B5BC1546 		.ascii	"\265\274\025FB\363h\223\303\203\324\3508\317\3258\354"
 344      42F36893 
 344      C383D4E8 
 344      38CFD538 
 344      EC
 345 02f7 498D4F9B 		.ascii	"I\215O\233\370\320\330O]p\261\211;\244\241\246\337\350"
 345      F8D0D84F 
 345      5D70B189 
 345      3BA4A1A6 
 345      DFE8
 346 0309 AB689139 		.ascii	"\253h\2219\330\213\276\301\254\343l\321\276\245\224"
 346      D88BBEC1 
 346      ACE36CD1 
 346      BEA594
 347 0318 1C9D1A1B 		.ascii	"\034\235\032\033=M\330}G\370\204}\212N\216+\202\016"
 347      3D4DD87D 
 347      47F8847D 
 347      8A4E8E2B 
 347      820E
 348 032a B3AC27A8 		.ascii	"\263\254'\250k\363z\367\030\023\366\031\012\265v\310"
 348      6BF37AF7 
 348      1813F619 
 348      0AB576C8 
 349 033a 50EDF377 		.ascii	"P\355\363wN\244\335\375&\005\332\022\264O\330a\333\204"
 349      4EA4DDFD 
 349      2605DA12 
ARM GAS  /tmp/ccE1UpoD.s 			page 28


 349      B44FD861 
 349      DB84
 350 034c 1DB64EA0 		.ascii	"\035\266N\240\364k\243@\346\315\341\350\237\\\035V'"
 350      F46BA340 
 350      E6CDE1E8 
 350      9F5C1D56 
 350      27
 351 035d 2F5DE73A 		.ascii	"/]\347:\255i\003\257t\\\306\317k\372\354\000\037\222"
 351      AD6903AF 
 351      745CC6CF 
 351      6BFAEC00 
 351      1F92
 352 036f 21371B49 		.ascii	"!7\033I\250\227\312\032\260\373r\317\225c\367\264i\332"
 352      A897CA1A 
 352      B0FB72CF 
 352      9563F7B4 
 352      69DA
 353 0381 CDECABE2 		.ascii	"\315\354\253\342\256\274\375\340\022o#2\304\305\327"
 353      AEBCFDE0 
 353      126F2332 
 353      C4C5D7
 354 0390 50F1734B 		.ascii	"P\361sK\210\370\313v\361\247\337}\347~&\376\262'\361"
 354      88F8CB76 
 354      F1A7DF7D 
 354      E77E26FE 
 354      B227F1
 355 03a3 178E2E1E 		.ascii	"\027\216.\036,^\306\367\177\245\220g\364\\\271:r\031"
 355      2C5EC6F7 
 355      7FA59067 
 355      F45CB93A 
 355      7219
 356 03b5 15F2173A 		.ascii	"\025\362\027:b\216\227\330]cR\271(\213\336\013\025$"
 356      628E97D8 
 356      5D6352B9 
 356      288BDE0B 
 356      1524
 357 03c7 74CE643F 		.ascii	"t\316d?\264\265\361\364\273\372\2445\2335\355\251\020"
 357      B4B5F1F4 
 357      BBFAA435 
 357      9B35EDA9 
 357      10
 358 03d8 E770DE37 		.ascii	"\347p\3367b\324b\210\277\035\245S\000\003\273\344\005"
 358      62D46288 
 358      BF1DA553 
 358      0003BBE4 
 358      05
 359 03e9 ACC0F278 		.ascii	"\254\300\362x]\004\273\342\033\314\312\354C\021\354"
 359      5D04BBE2 
 359      1BCCCAEC 
 359      4311EC
 360 03f8 5D2F6037 		.ascii	"]/`7\2733\373H\004{\3177\230\225\331'\"\330\337\274"
 360      BB33FB48 
 360      047BCF37 
 360      9895D927 
 360      22D8DFBC 
 361 040c 808D7067 		.ascii	"\200\215pg\366\231\010\366\241o0+\263\033\"\330'^\300"
 361      F69908F6 
ARM GAS  /tmp/ccE1UpoD.s 			page 29


 361      A16F302B 
 361      B31B22D8 
 361      275EC0
 362 041f A2EECC5A 		.ascii	"\242\356\314ZN\010`7|\203Y\231\265\212`\215!\017`#\335"
 362      4E086037 
 362      7C835999 
 362      B58A608D 
 362      210F6023 
 363 0434 992D16C1 		.ascii	"\231-\026\301\232|\203Y\231='\202\315\363\0026\306\235"
 363      9A7C8359 
 363      993D2782 
 363      CDF30236 
 363      C69D
 364 0446 599B0836 		.ascii	"Y\233\0106\3377\230\225\331\013\"X\253\027\260\011\356"
 364      DF379895 
 364      D90B2258 
 364      AB17B009 
 364      EE
 365 0457 CC968A60 		.ascii	"\314\226\212`\317\371\006\2632\333(\202\275\340\005"
 365      CFF906B3 
 365      32DB2882 
 365      BDE005
 366 0466 6CB23BB3 		.ascii	"l\262;\263\315\"X\273o0+\263\255\"X\247\027\260\207"
 366      CD2258BB 
 366      6F302BB3 
 366      AD2258A7 
 366      17B087
 367 0479 DC99758B 		.ascii	"\334\231u\213`+}\203Y\231\275\"\202uy\001\373\251;\263"
 367      602B7D83 
 367      5999BD22 
 367      82757901 
 367      FBA93BB3 
 368 048d 1D22D81A 		.ascii	"\035\"\330\032\337`Vf;E\260\337z\001\373\205;\263]\""
 368      DF605666 
 368      3B45B0DF 
 368      7A01FB85 
 368      3BB35D22 
 369 04a1 D846DF60 		.ascii	"\330F\337`Vf\307D\260\255^\300\036u`f~\234\332\221e"
 369      5666C744 
 369      B0AD5EC0 
 369      1E756066 
 369      7E9CDA91 
 370 04b6 FA4FE2F9 		.ascii	"\372O\342\371u{\210op|\256\321(\217\321\023\362\273"
 370      757B886F 
 370      707CAED1 
 370      288FD113 
 370      F2BB
 371 04c8 21B3E80D 		.ascii	"!\263\350\015'\203+\313\361\242'5r\332d\273\363=^\020"
 371      27832BCB 
 371      F1A22735 
 371      72DA64BB 
 371      F33D5E10 
 372 04dc 0B2C802F 		.ascii	"\013,\200/\354\023\266\372\373}\203\331\\\231\200\015"
 372      EC13B6FA 
 372      FB7D83D9 
 372      5C99800D 
 373 04ec 8ED2346A 		.ascii	"\216\3224j\003/\353#\332\362\233\267R\216E\242Il\247"
ARM GAS  /tmp/ccE1UpoD.s 			page 30


 373      032FEB23 
 373      DAF29BB7 
 373      528E45A2 
 373      496CA7
 374 04ff D6A26992 		.ascii	"\326\242i\222YY\0331\302\271.\234\253\245o\303u\225"
 374      59591B31 
 374      C2B92E9C 
 374      ABA56FC3 
 374      7595
 375 0511 143159B0 		.ascii	"\0241Y\2602/\345h,\354x\310)NE\001\0127u\363\204\227"
 375      322FE568 
 375      2CEC78C8 
 375      294E4501 
 375      0A3775F3 
 376 0527 24C113DE 		.ascii	"$\301\023\336\360b\246\002K\373\205}K\277\246\015\350"
 376      F062A602 
 376      4BFB857D 
 376      4BBFA60D 
 376      E8
 377 0538 58D0B7A0 		.ascii	"X\320\267\240qH\010\3530?\021\255\223\310\351\343\355"
 377      714808EB 
 377      303F11AD 
 377      93C8E9E3 
 377      ED
 378 0549 90E331C6 		.ascii	"\220\3431\306\003\324\265y\353\357\242\307\230\015\024"
 378      03D4B579 
 378      EBEFA2C7 
 378      980D14
 379 0558 E8CA9081 		.ascii	"\350\312\220\201\332\347w\260\000\326&\012\364\236\015"
 379      DAE777B0 
 379      00D6260A 
 379      F49E0D
 380 0567 48C6D876 		.ascii	"H\306\330v\036\302\326\023\013\216\344\0139kw\375C\353"
 380      1EC2D613 
 380      0B8EE40B 
 380      396B77FD 
 380      43EB
 381 0579 4AE8237B 		.ascii	"J\350#{\177Y\324)\272{\032x\365\374\347\013\361\265"
 381      7F59D429 
 381      BA7B1A78 
 381      F5FCE70B 
 381      F1B5
 382 058b 46AD6D8C 		.ascii	"F\255m\214\217\036\353;\304{\254\233\332G\013\333\355"
 382      8F1EEB3B 
 382      C47BAC9B 
 382      DA470BDB 
 382      ED
 383 059c B341F267 		.ascii	"\263A\362g \0115\207\375*2\322\252H\307\353\255\376"
 383      20093587 
 383      FD2A32D2 
 383      AA48C7EB 
 383      ADFE
 384 05ae 15315DAF 		.ascii	"\0251]\257\207*\322\362\017P\244\315\267\"c\004EH\204"
 384      872AD2F2 
 384      0F50A4CD 
 384      B7226304 
 384      454884
ARM GAS  /tmp/ccE1UpoD.s 			page 31


 385 05c1 E4835636 		.ascii	"\344\203V6\017~\011\265\026>\231\022>\272\364%kp\353"
 385      0F7E09B5 
 385      163E9912 
 385      3EBAF425 
 385      6B70EB
 386 05d4 EC0112DC 		.ascii	"\354\001\022\334\"\217\213\007\267\376~`\251\021\\a"
 386      228F8B07 
 386      B7FE7E60 
 386      A9115C61 
 387 05e4 D1E36594 		.ascii	"\321\343e\224;i\353s\0350\360\026\037\2443.\003\353"
 387      3B69EB73 
 387      1D30F016 
 387      1FA4332E 
 387      03EB
 388 05f6 FA42608D 		.ascii	"\372B`\215\372\226\337\360\310\317$2\201\377\356\013"
 388      FA96DFF0 
 388      C8CF2432 
 388      81FFEE0B 
 389 0606 C21D3FE8 		.ascii	"\302\035?\350;V\323t\222\273\307~\352\036\335\203\334"
 389      3B56D374 
 389      92BBC77E 
 389      EA1EDD83 
 389      DC
 390 0617 E38C7D22 		.ascii	"\343\214}\"\360\022\272\330;TM\314\017,gv/\363u\320"
 390      F012BAD8 
 390      3B544DCC 
 390      0F2C6776 
 390      2FF375D0 
 391 062b 21E1C4BF 		.ascii	"!\341\304\277\033^V4\376\301c\233\247\373\032\214\330"
 391      1B5E5634 
 391      FEC1639B 
 391      A7FB1A8C 
 391      D8
 392 063c E6518904 		.ascii	"\346Q\211\004\005\017\333\254\341!\220\362\026mrB\032"
 392      050FDBAC 
 392      E12190F2 
 392      166D7242 
 392      1A
 393 064d 14143CCC 		.ascii	"\024\024<\314\203\202\344;\017\221\024KPP\306\307\261"
 393      8382E43B 
 393      0F91144B 
 393      5050C6C7 
 393      B1
 394 065e 64E00ED5 		.ascii	"d\340\016\325\242\226N\314\023\224\361I\272(\237\222"
 394      A2964ECC 
 394      1394F149 
 394      BA289F92 
 395 066e EE10ADFF 		.ascii	"\356\020\255\377\337\276\255\037\025\255\257\177z\220"
 395      DFBEAD1F 
 395      15ADAF7F 
 395      7A90
 396 067c C5C17998 		.ascii	"\305\301y\230\370C;\336dq\303d\024]\017\207\232\336"
 396      F8433BDE 
 396      6471C364 
 396      145D0F87 
 396      9ADE
 397 068e 7A441877 		.ascii	"zD\030w\015\245\036\310\0258\317u00\346\362s}\203E-"
ARM GAS  /tmp/ccE1UpoD.s 			page 32


 397      0DA51EC8 
 397      1538CF75 
 397      3030E6F2 
 397      737D8345 
 398 06a3 60AFCDF7 		.ascii	"`\257\315\367\026\205\326\260\270\007\203\243\037\225"
 398      1685D6B0 
 398      B80783A3 
 398      1F95
 399 06b1 7BC1EE29 		.ascii	"{\301\356)\357\2578>\327\360\224\013\036<\005f8\032"
 399      EFAF383E 
 399      D7F0940B 
 399      1E3C0566 
 399      381A
 400 06c3 BEE7763E 		.ascii	"\276\347v>d\242\026\260\263\223\237\360`4{Y\307\367"
 400      64A216B0 
 400      B3939FF0 
 400      60347B59 
 400      C7F7
 401 06d5 9427ED70 		.ascii	"\224'\355pE\267\274V8\362j\305\237a\330X\324\337|\225"
 401      45B7BC56 
 401      38F26AC5 
 401      9F61D858 
 401      D4DF7C95 
 402 06e9 CCF1EFD0 		.ascii	"\314\361\357\320a\370V\251}Rb\226\021\374\371\202\340"
 402      61F856A9 
 402      7D526296 
 402      11FCF982 
 402      E0
 403 06fa CF17A93F 		.ascii	"\317\027\251?_\002\177\2063\000\275^\021}\333m\231\371"
 403      5F027F86 
 403      3300BD5E 
 403      117DDB6D 
 403      99F9
 404 070c B3B849FC 		.ascii	"\263\270I\374\223o\275\243\266\336q\023s^\024\363W/"
 404      936FBDA3 
 404      B6DE7113 
 404      735E14F3 
 404      572F
 405 071e BEE77EFC 		.ascii	"\276\347~\374\207i\345\324\"~\242`\301\366\017|#Z\275"
 405      8769E5D4 
 405      227EA260 
 405      C1F60F7C 
 405      235ABD
 406 0731 F9FDF996 		.ascii	"\371\375\371\226%I\213x\200\233\354@\320\351#\276,\201"
 406      25498B78 
 406      809BEC40 
 406      D0E923BE 
 406      2C81
 407 0743 2916936E 		.ascii	")\026\223n:\206I\007\235\240\327\223\364z\201^\227\321"
 407      3A864907 
 407      9DA0D793 
 407      F47A815E 
 407      97D1
 408 0755 8E5B4EAF 		.ascii	"\216[N\257+\351u-\275n\243\327\035\364\272\233^\217"
 408      2BE9752D 
 408      BD6EA3D7 
 408      1DF4BA9B 
ARM GAS  /tmp/ccE1UpoD.s 			page 33


 408      5E8F
 409 0767 D0EB697A 		.ascii	"\320\353iz=K\257o\322\353\333\364\372?\364\372\277^"
 409      3D4BAF6F 
 409      D2EBDBF4 
 409      FA3FF4FA 
 409      BF5E
 410 0779 1C804DB4 		.ascii	"\034\200M\264\246\233\3619\267w\310/b\336\310\277\210"
 410      A69BF139 
 410      B777C82F 
 410      62DEC8BF 
 410      88
 411 078a 91F11F7C 		.ascii	"\221\361\037|\203\331=\312b\311^\301\222\373\250%\373"
 411      83D93DCA 
 411      62C95EC1 
 411      92FBA825 
 411      FB
 412 079b A9DDDEB7 		.ascii	"\251\335\336\267N\343\315\021\376zp(\323\2016\260i\321"
 412      4EE3CD11 
 412      FE7A7028 
 412      D38136B0 
 412      69D1
 413 07ad CE89F41D 		.ascii	"\316\211\364\035\202\237\027\366\247\370\236\342:\333"
 413      829F17F6 
 413      A7F89EE2 
 413      3ADB
 414 07bb 7246ECC3 		.ascii	"rF\354\303w\275}O\341\343m\265\204\236\263\353\344u"
 414      77BD7D4F 
 414      E1E36DB5 
 414      849EB3EB 
 414      E475
 415 07cd 4E72B6   		.ascii	"Nr\266"
 416 07d0 E42EC192 		.ascii	"\344.\301\222:\265\344\036j\311kVK.\215\330^\014?\312"
 416      3AB5E41E 
 416      6AC96B56 
 416      4B2E8DD8 
 416      5E0C3FCA 
 417 07e4 4555E4A5 		.ascii	"EU\344\245\272\036\325\265\201\336K\375\201\006bI\376"
 417      BA1ED5B5 
 417      81DE4BFD 
 417      81066249 
 417      FE
 418 07f5 AE779517 		.ascii	"\256w\225\027@\247s\215\263\032]\202\032\253\250\032"
 418      40A7738D 
 418      B31A5D82 
 418      1AABA81A 
 419 0805 ABA91A5B 		.ascii	"\253\251\032[\351\265\233^_\241\327\035\364\372\261"
 419      E9B59B5E 
 419      5FA1D71D 
 419      F4FAB1
 420 0814 9721B13C 		.ascii	"\227!\261<\037B\261\314\342\267\240\026:\213\267\015"
 420      1F42B1CC 
 420      E2B7A016 
 420      3A8BB70D 
 421 0824 63876F73 		.ascii	"c\207os\233o\264\017\031\355?\223n\241%\213\367\260"
 421      9B6FB40F 
 421      19ED3F93 
 421      6EA1258B 
ARM GAS  /tmp/ccE1UpoD.s 			page 34


 421      F7B0
 422 0836 F0908BC4 		.ascii	"\360\220\213\304\317\205\003~E$_()\302\364\323\374\264"
 422      CF85037E 
 422      45245F28 
 422      29C2F4D3 
 422      FCB4
 423 0848 EA7DFB7B 		.ascii	"\352}\373{jI\367(z\010\276A\035u\313 G\035\302\346\327"
 423      6A49F728 
 423      7A08BE41 
 423      1D75CB20 
 423      471DC2E6 
 424 085d D14ECD7F 		.ascii	"\321N\315\177\344\233r\275Ik\306\015\233\276a\362\262"
 424      E49B72BD 
 424      496BC60D 
 424      9BBE61F2 
 424      B2
 425 086e 0C4883D7 		.ascii	"\014H\203\327\216+W\277Gy=\031 \274^\263\361\362\003"
 425      8E2B57BF 
 425      47793D19 
 425      20BC5EB3 
 425      F1F203
 426 0881 756DDE51 		.ascii	"um\336Q\376\012\265\211\202\365\017\035\254\263\375"
 426      FE0AB589 
 426      82F50F1D 
 426      ACB3FD
 427 0890 C837C82F 		.ascii	"\3107\310/\213\236\242@\307\007Y+b3V\304j\254H$_\310"
 427      8B9EA240 
 427      C707592B 
 427      623356C4 
 427      6AAC4824 
 428 08a6 F18F3D1C 		.ascii	"\361\217=\034\360Ol\303\267\033\377\3025;\0260\000\032"
 428      F04F6CC3 
 428      B71BFFC2 
 428      353B1630 
 428      001A
 429 08b8 037EDDF4 		.ascii	"\003~\335\364\351\200\263\233N,\342\246\015\001\323"
 429      E980B39B 
 429      4E2CE2A6 
 429      0D01D3
 430 08c7 4DF94E08 		.ascii	"M\371N\010|#\317m\241\271\027j\271\325h\362L\300\266"
 430      7C23CF6D 
 430      A1B9176A 
 430      B9D568F2 
 430      4CC0B6
 431 08da 43FC78C3 		.ascii	"C\374x\303\305\021l~%_\025\337 \276\330W\246]\3221S"
 431      C5116C7E 
 431      255F15DF 
 431      20BED857 
 431      A65DD231 
 432 08ef 53424F95 		.ascii	"SBO\225a\003\325\331 E\027\005}\351\217[\232*8\334\323"
 432      6103D5D9 
 432      20451705 
 432      7DE98F5B 
 432      9A2A38DC 
 433 0904 DEE00C5B 		.ascii	"\336\340\014[;\342u\210x\013\274\341u\206\335\3616\212"
 433      3BE27588 
 433      780BBCE1 
ARM GAS  /tmp/ccE1UpoD.s 			page 35


 433      7586DDF1 
 433      368A
 434 0916 78ADDEF0 		.ascii	"x\255\336\360\256\226\271\343m\026\361\236\365\206\247"
 434      AE96B9E3 
 434      6D16F19E 
 434      F586A7
 435 0925 0F73C0B3 		.ascii	"\017s\300\263\367\314V\006L\300$\324\006\300F<\244\240"
 435      F7CC5606 
 435      4CC024D4 
 435      06C0463C 
 435      A4A0
 436 0937 4F48E845 		.ascii	"OH\350EJ\341\305\200-,\262\244/\020e\217\013\370\204"
 436      4AE1C580 
 436      2D2CB2A4 
 436      2F10658F 
 436      0BF884
 437 094a 8C9F0FDC 		.ascii	"\214\237\017\334\301\345o\357{\006\223P\2468\235o\310"
 437      C1E56FEF 
 437      7B069350 
 437      A6389D6F 
 437      C8
 438 095b 4FE74EDE 		.ascii	"O\347N\336\270\314\367P\351t\031*\013\370\026^B\253"
 438      B8CCF750 
 438      E974192A 
 438      0BF8165E 
 438      42AB
 439 096d 4D855C24 		.ascii	"M\205\\$\027\360I\363\343\277\351\355\250C\323\257\016"
 439      17F049F3 
 439      E3BFE9ED 
 439      A843D3AF 
 439      0E
 440 097e ECDE72F1 		.ascii	"\354\336r\361\266v\362\372]\273\221{\002\177\025=k("
 440      B676F2FA 
 440      5DBB917B 
 440      027F153D 
 440      6B28
 441 0990 A661D5F5 		.ascii	"\246a\325\365\267\003D\261\225\201\257\032\245\237\007"
 441      B70344B1 
 441      9581AF1A 
 441      A59F07
 442 099f B8260365 		.ascii	"\270&\003e\330f\373\357\240\227\011\236\266Z\013P4R"
 442      D866FBEF 
 442      A097099E 
 442      B65A0B50 
 442      3452
 443 09b1 7F45E076 		.ascii	"\177E\340vk\237\274\024\260\374h\226\021\323;`\377\330"
 443      6B9FBC14 
 443      B0FC6896 
 443      11D33B60 
 443      FFD8
 444 09c3 3090CBDD 		.ascii	"0\220\313\335\316dI\350=O\350]v\364U\203\321\007Z`\032"
 444      CE6449E8 
 444      3D4FE85D 
 444      76F45583 
 444      D1075A60 
 445 09d8 D9F3F5B6 		.ascii	"\331\363\365\266\315\332l\007\265K\321\\\032_\234\243"
 445      CDDA6C07 
ARM GAS  /tmp/ccE1UpoD.s 			page 36


 445      B54BD15C 
 445      1A5F9CA3 
 446 09e8 35E05F99 		.ascii	"5\340_\231Vs\211\373\313x]\240\224\274\230.s\215\332"
 446      567389FB 
 446      CB785DA0 
 446      94BC982E 
 446      738DDA
 447 09fb 930ADCFC 		.ascii	"\223\012\334\374\254\314K\005\202\366k\015\363\006\350"
 447      ACCC4B05 
 447      82F66B0D 
 447      F306E8
 448 0a0a AF63E141 		.ascii	"\257c\341AI$_6\020\363\246\247\326\327\312\355\366a"
 448      49245F36 
 448      10F3A6A7 
 448      D6D7CAED 
 448      F661
 449 0a1c 95363A1A 		.ascii	"\2256:\032`\366'\375\270\271U\373,\227\013 \357\275"
 449      60F627FD 
 449      B8B955FB 
 449      2C970B20 
 449      EFBD
 450 0a2e BED94E6B 		.ascii	"\276\331Nk9\335\336[x<\343\302c\253#\217\2176\354\377"
 450      39DDDE5B 
 450      783CE3C2 
 450      63AB238F 
 450      8F36ECFF 
 451 0a42 FAF3DADE 		.ascii	"\372\363\332\336\331Z.\367\204\235\010\321\323\215I"
 451      D95A2EF7 
 451      849D08D1 
 451      D38D49
 452 0a51 B7BB816C 		.ascii	"\267\273\201l?\200\021\266h\203P^\015\224[8Z\024Y\342"
 452      3F8011B6 
 452      6883505E 
 452      0D945B38 
 452      5A1459E2 
 453 0a65 A2C80E27 		.ascii	"\242\310\016'E\364\267\372\236\3260\363X\357\366\334"
 453      45F4B7FA 
 453      9ED630F3 
 453      58EFF6DC 
 454 0a75 69D78290 		.ascii	"i\327\202\220\265\321X\357Bc\227\243={o\364c7{\222\370"
 454      B5D158EF 
 454      426397A3 
 454      3D7B6FF4 
 454      63377B92 
 455 0a8a 911B13DD 		.ascii	"\221\033\023\335\251g\315\033\343\327\2606f\257\271"
 455      A967CD1B 
 455      E3D7B036 
 455      66AFB9
 456 0a99 30FBBDA3 		.ascii	"0\373\275\243\201\316\357s3P!^\275\005y\255e[T\033\257"
 456      81CEEF73 
 456      3350215E 
 456      BD0579AD 
 456      655B541B 
 457 0aae 7E175EFD 		.ascii	"~\027^\375\216\274\316\344y1q\022:\355\002p\300\021"
 457      8EBCCEE4 
 457      79317112 
 457      3AED0270 
ARM GAS  /tmp/ccE1UpoD.s 			page 37


 457      C011
 458 0ac0 E0EA9014 		.ascii	"\340\352\220\024;\344\305\340\346\375\015\311I\321\213"
 458      3BE4C5E0 
 458      E6FD0DC9 
 458      49D18B
 459 0acf 2E3C8F39 		.ascii	".<\2179\362<9$\236'\274t@\021\236\177u\341\371\206#"
 459      F23C3924 
 459      9E27BC74 
 459      40119E7F 
 459      75E1F986 
 460 0ae4 CF736287 		.ascii	"\317sb\207\234\240\035r\335\005\340\214#\300\356\271"
 460      9CA01D72 
 460      DD05E08C 
 460      23C0EEB9 
 461 0af4 4FDFA62D 		.ascii	"O\337\246-o\324s\271I>\346\266s\276:\344\272\243\242"
 461      6FD473B9 
 461      493EE6B6 
 461      73BE3AE4 
 461      BAA3A2
 462 0b07 8D15CE3C 		.ascii	"\215\025\316<\317[y\336\211\226k\372\261\201][.\206"
 462      CF5B79DE 
 462      89966BFA 
 462      B1815D5B 
 462      2E86
 463 0b19 C9A95823 		.ascii	"\311\251X#\3230\306\374_\013\013M\020\203\252>\350\037"
 463      D330C6FC 
 463      5F0B0B4D 
 463      1083AA3E 
 463      E81F
 464 0b2b 090306DE 		.ascii	"\011\003\006\336x\264Ek\326\037e-\331\241\367\327\350"
 464      78B4456B 
 464      D61F652D 
 464      D9A1F7D7 
 464      E8
 465 0b3c 13727822 		.ascii	"\023rx\"{\355\273\320(\266q\243\005\262\321\"\202\351"
 465      7BEDBBD0 
 465      28B671A3 
 465      05B2D122 
 465      82E9
 466 0b4e EAF7FEDD 		.ascii	"\352\367\376\335=\215\332\354M`\231\034\316Mb\333\017"
 466      3D8DDAEC 
 466      4D60991C 
 466      CE4D62DB 
 466      0F
 467 0b5f D8DED925 		.ascii	"\330\336\331%;m\202\256\344ua\373)\243\270 \220?S\263"
 467      3B6D82AE 
 467      E47561FB 
 467      29A3B820 
 467      903F53B3 
 468 0b73 93F78FD0 		.ascii	"\223\367\217\320\357\265f\215l1\346\022\355\210\011"
 468      EFB5668D 
 468      6C31E612 
 468      ED8809
 469 0b82 0BB293F1 		.ascii	"\013\262\223\361\345\300\235\356\240\006\221/\263o\272"
 469      E5C09DEE 
 469      A006912F 
 469      B36FBA
ARM GAS  /tmp/ccE1UpoD.s 			page 38


 470 0b91 8BE95A04 		.ascii	"\213\351Z\004\215\005\004\276\030\002\011&\260.\210"
 470      8D0504BE 
 470      18020926 
 470      B02E88
 471 0ba0 B2C0060B 		.ascii	"\262\300\006\013\237\230\217\366\322G\375\\\216ma\332"
 471      9F988FF6 
 471      D247FD5C 
 471      8E6D61DA 
 472 0bb0 EB12C4A1 		.ascii	"\353\022\304\241\356\225_\230(\035R\227\026\230\224"
 472      EE955F98 
 472      281D5297 
 472      169894
 473 0bbf 0B941711 		.ascii	"\013\224\027\021o\324\337\203E^$\016fhv\235k\346\007"
 473      6FD4DF83 
 473      455E240E 
 473      6668769D 
 473      6BE607
 474 0bd2 01B10090 		.ascii	"\001\261\000\220\021{\242\367$b\342C\325b\202\315\000"
 474      117BA2F7 
 474      2462E243 
 474      D56282CD 
 474      00
 475 0be3 CC90A9BB 		.ascii	"\314\220\251\273 X\251\227\360\321\266Q\327\267\035"
 475      2058A997 
 475      F0D1B651 
 475      D7B71D
 476 0bf2 EDC25A67 		.ascii	"\355\302Zg\243\006;\276\034\337\364\223\037\352\233"
 476      A3063BBE 
 476      1CDFF493 
 476      1FEA9B
 477 0c01 BDA2E723 		.ascii	"\275\242\347#\364p@\300\005\336^\274\000\343\244h,_"
 477      F47040C0 
 477      05DE5EBC 
 477      00E3A468 
 477      2C5F
 478 0c13 C64D4112 		.ascii	"\306MA\022\365\234\033\034t\204=\313_r\220\357\212\277"
 478      F59C1B1C 
 478      74843DCB 
 478      5F7290EF 
 478      8ABF
 479 0c25 0EFBF8F3 		.ascii	"\016\373\370\363~\366Z\202\374\224CB+\351(%M\013\204"
 479      7EF65A82 
 479      FC944342 
 479      2BE92825 
 479      4D0B84
 480 0c38 00F343C6 		.ascii	"\000\363C\306\341-G\377\240\277$\261M\266\353\201?("
 480      E12D47FF 
 480      A0BF24B1 
 480      4DB6EB81 
 480      3F28
 481 0c4a 84ED57FB 		.ascii	"\204\355W\373\026\037\265\210g\177^!\220\022\332\340"
 481      161FB588 
 481      677F5E21 
 481      9012DAE0 
 482 0c5a 05ABE89F 		.ascii	"\005\253\350\237W\030\326v\337XQ\233\271y?\310\370\251"
 482      5718D676 
 482      DF58519B 
ARM GAS  /tmp/ccE1UpoD.s 			page 39


 482      B9793FC8 
 482      F8A9
 483 0c6c 208912FE 		.ascii	" \211\022\376\206^\347\323kK\260h\304\320f\3209.L\010"
 483      865EE7D3 
 483      6B4BB068 
 483      C4D066D0 
 483      392E4C08 
 484 0c80 7E6BB0DC 		.ascii	"~k\260\334&\333)\360\204\220\340\246\254\221s5\031/"
 484      26DB29F0 
 484      8490E0A6 
 484      AC917335 
 484      192F
 485 0c92 0AFA3D99 		.ascii	"\012\372=\231.\016:\237L\305sL\276\026\330w\267}q\030"
 485      2E0E3A9F 
 485      4CC5734C 
 485      BE16D877 
 485      B77D7118 
 486 0ca6 44E2D9A0 		.ascii	"D\342\331\240\270*\301\244\360$\2602\373\215\214\352"
 486      B82AC1A4 
 486      F024B032 
 486      FB8D8CEA 
 487 0cb6 36BA1AFC 		.ascii	"6\272\032\374 \300\224!\003\363\3521\375\363\371\355"
 487      20C09421 
 487      03F3EA31 
 487      FDF3F9ED 
 488 0cc6 F981C9EC 		.ascii	"\371\201\311\354&\241\203\203\226\"\313\340\242k\017"
 488      26A18383 
 488      9622CBE0 
 488      A26B0F
 489 0cd5 88FB263A 		.ascii	"\210\373&:U\321\256\225\012b'3\004\326\207L\246\236"
 489      55D1AE95 
 489      0A622733 
 489      04D6874C 
 489      A69E
 490 0ce7 3B82BD44 		.ascii	";\202\275Dp5s\235\215\032\":|\233u\231\213Y\371\251"
 490      7035739D 
 490      8D1A223A 
 490      7C9B7599 
 490      8B59F9A9 
 491 0cfb D4AD5D7B 		.ascii	"\324\255]{\336#\276\211\376\014:\265M\316\213g\256H"
 491      DE23BE89 
 491      FE0C3AB5 
 491      4DCE8B67 
 491      AE48
 492 0d0d 9469D6F4 		.ascii	"\224i\326\364\226\341\314\343\315\263.sQ\202\307\306"
 492      96E1CCE3 
 492      CDB32E73 
 492      5182C7C6 
 493 0d1d 297356A3 		.ascii	")sV\243\366b\263\266x\3566X0\223rg4\235\315f\226\233"
 493      F662B3B6 
 493      78EE3658 
 493      30937267 
 493      349DCD66 
 494 0d33 3957C920 		.ascii	"9W\311 \263\322\244e\272\207\213E'\360\246a\243\301"
 494      B3D2A465 
 494      BA878B45 
 494      27F0A661 
ARM GAS  /tmp/ccE1UpoD.s 			page 40


 494      A3C1
 495 0d45 4BBE0DFA 		.ascii	"K\276\015\372\262\213AC\206*\266Q\327S`Q\355\012:\007"
 495      B28B4143 
 495      862AB651 
 495      D7536051 
 495      ED0A3A07 
 496 0d59 F4D971DB 		.ascii	"\364\331q\333\255\325*\327V'\012\264Z\355\332\252\267"
 496      ADD52AD7 
 496      56270AB4 
 496      5AEDDAAA 
 496      B7
 497 0d6a 40AB35AE 		.ascii	"@\2535\256\255\016\025h\265\326\265\325\316\002\255"
 497      AD0E1568 
 497      B5D6B5D5 
 497      CE02AD
 498 0d79 D6B9B6EA 		.ascii	"\326\271\266\352.\320\352\267\256\255\364\002\255\326"
 498      2ED0EAB7 
 498      AEADF402 
 498      ADD6
 499 0d87 BBB6DA5C 		.ascii	"\273\266\332\\\240\325\006\327V\347\012\264\372\235"
 499      A0D506D7 
 499      56E70AB4 
 499      FA9D
 500 0d95 30B7DE5B 		.ascii	"0\267\336[Y\233J(\225\325\251\232Y\2255\312\343\225"
 500      599B4A28 
 500      95D5A99A 
 500      599535CA 
 500      E395
 501 0da7 D5B5F1A9 		.ascii	"\325\265\361\251\361T\266R\315\324'\037\253\204BF\255"
 501      F154B652 
 501      CDD4271F 
 501      AB844246 
 501      AD
 502 0db8 8C27ABEB 		.ascii	"\214'\253\353\352k\240Rmbjj\246\222\035]\213\"\0119"
 502      EA6BA052 
 502      6D626A6A 
 502      A6921D5D 
 502      8B220939 
 503 0dcc 5E073731 		.ascii	"^\007715\364\223\177\377y\364A\364\220\007\234t*\243"
 503      35F4937F 
 503      FF79F441 
 503      F490079C 
 503      742AA3
 504 0ddf 662B7FF8 		.ascii	"f+\177\370\263G\036|d&\324L\244\343uJ&[\371\223\007"
 504      B3471E7C 
 504      6426D44C 
 504      A4E3754A 
 504      265BF993 
 505 0df4 1F84EAEA 		.ascii	"\037\204\352\352\2544E.Id\247\307\324oU\326g3\225r&"
 505      AC34452E 
 505      4964A7C7 
 505      D46F55D6 
 505      67339572 
 506 0e09 714F3295 		.ascii	"qO2\225T\356Q\344\251q\223FV\255\211'U\250\032\206l"
 506      54EE51E4 
 506      A9719346 
 506      56AD8927 
ARM GAS  /tmp/ccE1UpoD.s 			page 41


 506      55A81A86 
 507 0e1e DCD8983A 		.ascii	"\334\330\230:\276@\345\204\014L\222Je\254F\231&\327"
 507      BE40E584 
 507      0C4C924A 
 507      65AC4699 
 507      26D7
 508 0e30 D7A9312E 		.ascii	"\327\2511.'\022\213\031\315#\211\251\261\251\365\323"
 508      27128B19 
 508      CD2389A9 
 508      B1A9F5D3 
 509 0e40 A6299910 		.ascii	"\246)\231\020\224\324T\272\024\262\031\231\264\232!"
 509      94D454BA 
 509      14B21999 
 509      B49A21
 510 0e4f 854C0D14 		.ascii	"\205L\015\024\306\371\262RVI\200\200r\310\344tm*\243"
 510      C6F9B252 
 510      56498080 
 510      72C8E474 
 510      6D2AA3
 511 0e62 8008B33C 		.ascii	"\200\010\263<\301\037\322\254,\347;\\\255\315(rM6\366"
 511      C11FD2AC 
 511      2CE73B5C 
 511      ADCD2872 
 511      4D36F6
 512 0e75 AB7AA51E 		.ascii	"\253z\245\036 o\256\256\215Y\036\215\367\207\\][\003"
 512      206FAEAE 
 512      8D591E8D 
 512      F7875C5D 
 512      5B03
 513 0e87 A8A50C02 		.ascii	"\250\245\014\002\030\232p\241t,\251\314T!Kg\224\307"
 513      189A70A1 
 513      742CA9CC 
 513      54214B67 
 513      94C7
 514 0e99 C36A3A13 		.ascii	"\303j:\023O\305\324\322z\303Ze\261\030/\322*\361T\270"
 514      4FC5D4D2 
 514      7AC35A65 
 514      B1182FD2 
 514      2AF154B8 
 515 0ead 3A9554A1 		.ascii	":\225T\241\305D\337.P[\015\026!\246\"\217IwT\2533\177"
 515      C544DF2E 
 515      505B0D16 
 515      21A6228F 
 515      497754AB 
 516 0ec3 303494D8 		.ascii	"04\224\330\343\367\021\243\227f\224\351\340\01015\220"
 516      E3F711A3 
 516      976694E9 
 516      E0083135 
 516      90
 517 0ed4 ADBA17D2 		.ascii	"\255\272\027\322}\220&@\232\030\310\216\035\003\251"
 517      7D902640 
 517      9A18C88E 
 517      1D03A9
 518 0ee3 0AD25848 		.ascii	"\012\322XH\343 \215\207\364}HPo,\324\033\013\365\306"
 518      E3208D87 
 518      F47D4850 
 518      6F2CD41B 
ARM GAS  /tmp/ccE1UpoD.s 			page 42


 518      0BF5C6
 519 0ef6 42BD7150 		.ascii	"B\275qPo\\\225\224\031/e\276/e\356\2252\367I\231\011"
 519      6F5C9594 
 519      192F65BE 
 519      2F65EE95 
 519      32F74999 
 520 0f0b 52666220 		.ascii	"Rfb S5\006R\225T\227\201l\\I:\006l\303\304X3\224\014"
 520      53350652 
 520      95549781 
 520      6C5C493A 
 520      066CC3C4 
 521 0f23 E4A9BA1A 		.ascii	"\344\251\272\032%\023\254\256\2253\304\202rB)U\263\252"
 521      2513ACAE 
 521      9533C482 
 521      72422955 
 521      B3AA
 522 0f35 AC425785 		.ascii	"\254BW\205\211\301&\200\215\231\351\240\004\325\351"
 522      89C12680 
 522      8D99E9A0 
 522      04D5E9
 523 0f44 77613591 		.ascii	"wa5\221\252Q\350\375\264:yz6\254f\224iYjYR\010ejf\301"
 523      AA51E8FD 
 523      B43A797A 
 523      36AC6694 
 523      69596A59 
 524 0f5e 70285566 		.ascii	"p(Uf\306U0\210\022\232\241\246\246\3762]\256<\256$\325"
 524      C6553088 
 524      129AA1A6 
 524      A6FE325D 
 524      AE3CAE24 
 525 0f73 849C7D0C 		.ascii	"\204\234}\014j*3H!\220\216\325\017\343\356P\027\317"
 525      6A2A3348 
 525      21908ED5 
 525      0FE3EE50 
 525      17CF
 526 0f85 829F0F17 		.ascii	"\202\237\017\027\034\204<\211\244c3\344\270\032ON/K"
 526      1C843C89 
 526      A46333E4 
 526      B81A4F4E 
 526      2F4B
 527 0f97 C700953A 		.ascii	"\307\000\225:M\011-\302\003"
 527      4D092DC2 
 527      03
 528 0fa0 25AD2461 		.ascii	"%\255$aXM/I\324C_\372\363\367\204:\223\214\306\004\363"
 528      584D2F49 
 528      D4435FFA 
 528      F3F7843A 
 528      938CC604 
 529 0fb5 43C85333 		.ascii	"C\310S3\222`\022\212\004\014\023\324\237@<\324#D\312"
 529      9260128A 
 529      040C13D4 
 529      9F403CD4 
 529      2344CA
 530 0fc8 8872721D 		.ascii	"\210rr\035u\035x\230N\245\352\302\206\017\227T'\201"
 530      751D7898 
 530      4EA5EAC2 
 530      860F9754 
ARM GAS  /tmp/ccE1UpoD.s 			page 43


 530      2781
 531 0fda 79493606 		.ascii	"yI6\006y\031\014\276i\365uu0t\312\241\250$\322\352,"
 531      79190CBE 
 531      69F57575 
 531      3074CAA1 
 531      A824D2EA 
 532 0fef 2847C898 		.ascii	"(G\310\230\210'\300heY\3651\271.>=i"
 532      8827C068 
 532      6559F531 
 532      B92E3E3D 
 532      69
 533 1000 78E7BDE3 		.ascii	"x\347\275\343M\357$\305\273\013\352\240*Y\225hAr /M"
 533      4DEF24C5 
 533      BB0BEAA0 
 533      2A599568 
 533      4172202F 
 534 1015 19234DA9 		.ascii	"\031#M\251\222\246\214\225\246\214\223\246\214\227f"
 534      92A68C95 
 534      A68C93A6 
 534      8C9766
 535 1024 C815E41B 		.ascii	"\310\025\344\033c^\310\206X>\3063$\231(GW\243\233H^"
 535      635EC886 
 535      583EC633 
 535      24992847 
 535      57A39B48 
 536 1039 1553662A 		.ascii	"\025Sf*\325`\214rv\227U\324\372tI\354\001\320\273\""
 536      D5608C72 
 536      769755D4 
 536      FA7449EC 
 536      01D0BB22 
 537 104d 46A5C8D9 		.ascii	"F\245\310\331\254\222!C\360\221\007~\246\300\327_\021"
 537      AC922143 
 537      F091077E 
 537      A6C0D75F 
 537      11
 538 105e 1F437DB0 		.ascii	"\037C}\260M\262Z\031N\037*\2118\230(\365\230\222,#\365"
 538      4DB25A19 
 538      4E1F2A89 
 538      389828F5 
 538      98922C23 
 539 1073 7FACA8D5 		.ascii	"\177\254\250\325\265\017\017#\305\237\246\262\352\017"
 539      B50F0F23 
 539      C59FA6B2 
 539      EA0F
 540 1081 6BA1BF1F 		.ascii	"k\241\277\037\216\360[V\242uJ\371\263\233,ui\313\377"
 540      8EF05B56 
 540      A2754AF9 
 540      B39B2C75 
 540      69CBFF
 541 1094 98FA4BA5 		.ascii	"\230\372K\245Z}8\031W\003\211\251UA\"\247\224\\\252"
 541      5A7D3819 
 541      570389A9 
 541      554122A7 
 541      945CAA
 542 10a7 E5AC1224 		.ascii	"\345\254\022$\256\\B9\30339S\003\235\033\346\012\245"
 542      AE5C4239 
 542      C3333953 
ARM GAS  /tmp/ccE1UpoD.s 			page 44


 542      039D1BE6 
 542      0AA5
 543 10b9 65555532 		.ascii	"eUU2I\242W\204\253]u\313\350L\252FV\345\321\346\223"
 543      49A25784 
 543      AB5D75CB 
 543      E84CAA46 
 543      56E5D1E6 
 544 10ce E8236CB5 		.ascii	"\350#l\265P\262wGI?\203\237E\345dM\224\364c\252^\315"
 544      50B27747 
 544      493F839F 
 544      45E5644D 
 544      94F463AA 
 545 10e4 A2FF0364 		.ascii	"\242\377\003d\274a\320"
 545      BC61D0
 546              		.text
 547              		.section	.gnu.lto_.symtab.e2289244930944c1,"",%progbits
 548 0000 70617474 		.ascii	"patternmbox\000\000\000\000\000\000\000\000\000\000"
 548      65726E6D 
 548      626F7800 
 548      00000000 
 548      00000000 
 549 0015 00000202 		.ascii	"\000\000\002\002\000\000testmbox1\000\000\000\000\000"
 549      00007465 
 549      73746D62 
 549      6F783100 
 549      00000000 
 550 0029 00000000 		.ascii	"\000\000\000\000\000\000\000\030\002\000\000test\000"
 550      00000018 
 550      02000074 
 550      65737400 
 551 0039 00020000 		.ascii	"\000\002\000\000\000\000\000\000\000\000\000\345\001"
 551      00000000 
 551      000000E5 
 551      01
 552 0046 00005F74 		.ascii	"\000\000_test_assert\000\000\002\000\000\000\000\000"
 552      6573745F 
 552      61737365 
 552      72740000 
 552      02000000 
 553 005c 00000000 		.ascii	"\000\000\000\000\251\001\000\000chMBReset\000\000\002"
 553      A9010000 
 553      63684D42 
 553      52657365 
 553      74000002 
 554 0070 00000000 		.ascii	"\000\000\000\000\000\000\000\000\000\261\001\000\000"
 554      00000000 
 554      00B10100 
 554      00
 555 007d 5F746573 		.ascii	"_test_assert_sequence\000\000\002\000\000\000\000\000"
 555      745F6173 
 555      73657274 
 555      5F736571 
 555      75656E63 
 556 009a 00000000 		.ascii	"\000\000\000\000\265\001\000\000test_emit_token\000"
 556      B5010000 
 556      74657374 
 556      5F656D69 
ARM GAS  /tmp/ccE1UpoD.s 			page 45


 556      745F746F 
 557 00b2 00020000 		.ascii	"\000\002\000\000\000\000\000\000\000\000\000\273\001"
 557      00000000 
 557      000000BB 
 557      01
 558 00bf 00006368 		.ascii	"\000\000chMBFetchI\000\000\002\000\000\000\000\000\000"
 558      4D424665 
 558      74636849 
 558      00000200 
 558      00000000 
 559 00d4 000000BF 		.ascii	"\000\000\000\277\001\000\000chMBPostAheadI\000\000\002"
 559      01000063 
 559      684D4250 
 559      6F737441 
 559      68656164 
 560 00ec 00000000 		.ascii	"\000\000\000\000\000\000\000\000\000\304\001\000\000"
 560      00000000 
 560      00C40100 
 560      00
 561 00f9 63684D42 		.ascii	"chMBPostI\000\000\002\000\000\000\000\000\000\000\000"
 561      506F7374 
 561      49000002 
 561      00000000 
 561      00000000 
 562 010d 00C90100 		.ascii	"\000\311\001\000\000chMBFetch\000\000\002\000\000\000"
 562      0063684D 
 562      42466574 
 562      63680000 
 562      02000000 
 563 0121 00000000 		.ascii	"\000\000\000\000\000\000\313\001\000\000chMBPost\000"
 563      0000CB01 
 563      00006368 
 563      4D42506F 
 563      737400
 564 0134 00020000 		.ascii	"\000\002\000\000\000\000\000\000\000\000\000\321\001"
 564      00000000 
 564      000000D1 
 564      01
 565 0141 00006368 		.ascii	"\000\000chMBPostAhead\000\000\002\000\000\000\000\000"
 565      4D42506F 
 565      73744168 
 565      65616400 
 565      00020000 
 566 0158 00000000 		.ascii	"\000\000\000\000\327\001\000\000chMBObjectInit\000\000"
 566      D7010000 
 566      63684D42 
 566      4F626A65 
 566      6374496E 
 567 0170 02000000 		.ascii	"\002\000\000\000\000\000\000\000\000\000\331\001\000"
 567      00000000 
 567      0000D901 
 567      00
 568 017d 00       		.ascii	"\000"
 569              		.text
 570              		.section	.gnu.lto_.opts,"",%progbits
 571 0000 272D6D63 		.ascii	"'-mcpu=cortex-m4' '-mfloat-abi=hard' '-mfpu=fpv4-sp"
 571      70753D63 
ARM GAS  /tmp/ccE1UpoD.s 			page 46


 571      6F727465 
 571      782D6D34 
 571      2720272D 
 572 0033 2D643136 		.ascii	"-d16' '-mno-thumb-interwork' '-mthumb' '-O2' '-fomi"
 572      2720272D 
 572      6D6E6F2D 
 572      7468756D 
 572      622D696E 
 573 0066 742D6672 		.ascii	"t-frame-pointer' '-falign-functions=16' '-ffunction"
 573      616D652D 
 573      706F696E 
 573      74657227 
 573      20272D66 
 574 0099 2D736563 		.ascii	"-sections' '-fdata-sections' '-fno-common' '-flto' "
 574      74696F6E 
 574      73272027 
 574      2D666461 
 574      74612D73 
 575 00cc 272D6673 		.ascii	"'-fsingle-precision-constant'\000"
 575      696E676C 
 575      652D7072 
 575      65636973 
 575      696F6E2D 
 576              		.text
 577              		.section	.text.mbox1_execute,"ax",%progbits
 578              		.align	2
 579              		.p2align 4,,15
 580              		.thumb
 581              		.thumb_func
 582              		.type	mbox1_execute, %function
 583              	mbox1_execute:
 584              		@ args = 0, pretend = 0, frame = 8
 585              		@ frame_needed = 0, uses_anonymous_args = 0
 586 0000 2DE9F041 		push	{r4, r5, r6, r7, r8, lr}
 587 0004 2023     		movs	r3, #32
 588 0006 82B0     		sub	sp, sp, #8
 589              	@ 546 "/home/cody/dev/chibios/trunk/os/ext/CMSIS/include/core_cmFunc.h" 1
 590 0008 83F31188 		MSR basepri, r3
 591              	@ 0 "" 2
 592              		.thumb
 593 000c 9B4E     		ldr	r6, .L36
 594 000e 716A     		ldr	r1, [r6, #36]
 595 0010 B1F1050E 		subs	lr, r1, #5
 596 0014 DEF10001 		rsbs	r1, lr, #0
 597 0018 51EB0E01 		adcs	r1, r1, lr
 598 001c 0120     		movs	r0, #1
 599 001e FFF7FEFF 		bl	_test_assert
 600 0022 0028     		cmp	r0, #0
 601 0024 40F02381 		bne	.L31
 602              	@ 546 "/home/cody/dev/chibios/trunk/os/ext/CMSIS/include/core_cmFunc.h" 1
 603 0028 80F31188 		MSR basepri, r0
 604              	@ 0 "" 2
 605              		.thumb
 606 002c 4224     		movs	r4, #66
 607              	.L6:
 608 002e 934D     		ldr	r5, .L36
 609 0030 2146     		mov	r1, r4
ARM GAS  /tmp/ccE1UpoD.s 			page 47


 610 0032 2846     		mov	r0, r5
 611 0034 4FF0FF32 		mov	r2, #-1
 612 0038 FFF7FEFF 		bl	chMBPost
 613 003c D0F10101 		rsbs	r1, r0, #1
 614 0040 38BF     		it	cc
 615 0042 0021     		movcc	r1, #0
 616 0044 0220     		movs	r0, #2
 617 0046 0134     		adds	r4, r4, #1
 618 0048 FFF7FEFF 		bl	_test_assert
 619 004c 88B9     		cbnz	r0, .L1
 620 004e 462C     		cmp	r4, #70
 621 0050 EDD1     		bne	.L6
 622 0052 4121     		movs	r1, #65
 623 0054 2846     		mov	r0, r5
 624 0056 4FF0FF32 		mov	r2, #-1
 625 005a FFF7FEFF 		bl	chMBPostAhead
 626 005e D0F10101 		rsbs	r1, r0, #1
 627 0062 38BF     		it	cc
 628 0064 0021     		movcc	r1, #0
 629 0066 0320     		movs	r0, #3
 630 0068 FFF7FEFF 		bl	_test_assert
 631 006c 0028     		cmp	r0, #0
 632 006e 00F00981 		beq	.L33
 633              	.L1:
 634 0072 02B0     		add	sp, sp, #8
 635              		@ sp needed
 636 0074 BDE8F081 		pop	{r4, r5, r6, r7, r8, pc}
 637              	.L17:
 638              	@ 546 "/home/cody/dev/chibios/trunk/os/ext/CMSIS/include/core_cmFunc.h" 1
 639 0078 85F31188 		MSR basepri, r5
 640              	@ 0 "" 2
 641              	@ 546 "/home/cody/dev/chibios/trunk/os/ext/CMSIS/include/core_cmFunc.h" 1
 642 007c 86F31188 		MSR basepri, r6
 643              	@ 0 "" 2
 644              		.thumb
 645 0080 A169     		ldr	r1, [r4, #24]
 646 0082 D1F10101 		rsbs	r1, r1, #1
 647 0086 38BF     		it	cc
 648 0088 0021     		movcc	r1, #0
 649 008a 1F20     		movs	r0, #31
 650 008c FFF7FEFF 		bl	_test_assert
 651 0090 0028     		cmp	r0, #0
 652 0092 40F0B682 		bne	.L30
 653              	@ 546 "/home/cody/dev/chibios/trunk/os/ext/CMSIS/include/core_cmFunc.h" 1
 654 0096 85F31188 		MSR basepri, r5
 655              	@ 0 "" 2
 656              		.thumb
 657 009a E168     		ldr	r1, [r4, #12]
 658 009c A368     		ldr	r3, [r4, #8]
 659 009e CA1A     		subs	r2, r1, r3
 660 00a0 5142     		rsbs	r1, r2, #0
 661 00a2 5141     		adcs	r1, r1, r2
 662 00a4 3046     		mov	r0, r6
 663 00a6 FFF7FEFF 		bl	_test_assert
 664 00aa 0028     		cmp	r0, #0
 665 00ac E1D1     		bne	.L1
 666              	@ 546 "/home/cody/dev/chibios/trunk/os/ext/CMSIS/include/core_cmFunc.h" 1
ARM GAS  /tmp/ccE1UpoD.s 			page 48


 667 00ae 86F31188 		MSR basepri, r6
 668              	@ 0 "" 2
 669              		.thumb
 670 00b2 4521     		movs	r1, #69
 671 00b4 2046     		mov	r0, r4
 672 00b6 FFF7FEFF 		bl	chMBPostAheadI
 673 00ba D0F10101 		rsbs	r1, r0, #1
 674 00be 38BF     		it	cc
 675 00c0 0021     		movcc	r1, #0
 676 00c2 2120     		movs	r0, #33
 677 00c4 FFF7FEFF 		bl	_test_assert
 678 00c8 0028     		cmp	r0, #0
 679 00ca D2D1     		bne	.L1
 680 00cc 4421     		movs	r1, #68
 681 00ce 2046     		mov	r0, r4
 682 00d0 FFF7FEFF 		bl	chMBPostAheadI
 683 00d4 D0F10101 		rsbs	r1, r0, #1
 684 00d8 38BF     		it	cc
 685 00da 0021     		movcc	r1, #0
 686 00dc 2220     		movs	r0, #34
 687 00de FFF7FEFF 		bl	_test_assert
 688 00e2 0028     		cmp	r0, #0
 689 00e4 C5D1     		bne	.L1
 690 00e6 4321     		movs	r1, #67
 691 00e8 2046     		mov	r0, r4
 692 00ea FFF7FEFF 		bl	chMBPostAheadI
 693 00ee D0F10101 		rsbs	r1, r0, #1
 694 00f2 38BF     		it	cc
 695 00f4 0021     		movcc	r1, #0
 696 00f6 2320     		movs	r0, #35
 697 00f8 FFF7FEFF 		bl	_test_assert
 698 00fc 0028     		cmp	r0, #0
 699 00fe B8D1     		bne	.L1
 700 0100 4221     		movs	r1, #66
 701 0102 2046     		mov	r0, r4
 702 0104 FFF7FEFF 		bl	chMBPostAheadI
 703 0108 D0F10101 		rsbs	r1, r0, #1
 704 010c 38BF     		it	cc
 705 010e 0021     		movcc	r1, #0
 706 0110 2420     		movs	r0, #36
 707 0112 FFF7FEFF 		bl	_test_assert
 708 0116 0028     		cmp	r0, #0
 709 0118 ABD1     		bne	.L1
 710 011a 584C     		ldr	r4, .L36
 711 011c 4121     		movs	r1, #65
 712 011e 2046     		mov	r0, r4
 713 0120 FFF7FEFF 		bl	chMBPostAheadI
 714 0124 0023     		movs	r3, #0
 715 0126 0146     		mov	r1, r0
 716              	@ 546 "/home/cody/dev/chibios/trunk/os/ext/CMSIS/include/core_cmFunc.h" 1
 717 0128 83F31188 		MSR basepri, r3
 718              	@ 0 "" 2
 719              		.thumb
 720 012c CB1A     		subs	r3, r1, r3
 721 012e 5942     		rsbs	r1, r3, #0
 722 0130 5941     		adcs	r1, r1, r3
 723 0132 2520     		movs	r0, #37
ARM GAS  /tmp/ccE1UpoD.s 			page 49


 724 0134 FFF7FEFF 		bl	_test_assert
 725 0138 0028     		cmp	r0, #0
 726 013a 9AD1     		bne	.L1
 727 013c E168     		ldr	r1, [r4, #12]
 728 013e A368     		ldr	r3, [r4, #8]
 729 0140 B1EB0308 		subs	r8, r1, r3
 730 0144 D8F10001 		rsbs	r1, r8, #0
 731 0148 51EB0801 		adcs	r1, r1, r8
 732 014c 2620     		movs	r0, #38
 733 014e FFF7FEFF 		bl	_test_assert
 734 0152 0028     		cmp	r0, #0
 735 0154 8DD1     		bne	.L1
 736 0156 8046     		mov	r8, r0
 737 0158 0524     		movs	r4, #5
 738 015a 2027     		movs	r7, #32
 739              	.L20:
 740 015c 2026     		movs	r6, #32
 741              	@ 546 "/home/cody/dev/chibios/trunk/os/ext/CMSIS/include/core_cmFunc.h" 1
 742 015e 87F31188 		MSR basepri, r7
 743              	@ 0 "" 2
 744              		.thumb
 745 0162 464D     		ldr	r5, .L36
 746 0164 01A9     		add	r1, sp, #4
 747 0166 2846     		mov	r0, r5
 748 0168 FFF7FEFF 		bl	chMBFetchI
 749 016c 0146     		mov	r1, r0
 750              	@ 546 "/home/cody/dev/chibios/trunk/os/ext/CMSIS/include/core_cmFunc.h" 1
 751 016e 88F31188 		MSR basepri, r8
 752              	@ 0 "" 2
 753              		.thumb
 754 0172 D1F10101 		rsbs	r1, r1, #1
 755 0176 38BF     		it	cc
 756 0178 0021     		movcc	r1, #0
 757 017a 2720     		movs	r0, #39
 758 017c FFF7FEFF 		bl	_test_assert
 759 0180 0028     		cmp	r0, #0
 760 0182 7FF476AF 		bne	.L1
 761 0186 9DF80400 		ldrb	r0, [sp, #4]	@ zero_extendqisi2
 762 018a FFF7FEFF 		bl	test_emit_token
 763 018e 013C     		subs	r4, r4, #1
 764 0190 E4D1     		bne	.L20
 765 0192 2820     		movs	r0, #40
 766 0194 3A49     		ldr	r1, .L36+4
 767 0196 FFF7FEFF 		bl	_test_assert_sequence
 768 019a 0028     		cmp	r0, #0
 769 019c 7FF469AF 		bne	.L1
 770              	@ 546 "/home/cody/dev/chibios/trunk/os/ext/CMSIS/include/core_cmFunc.h" 1
 771 01a0 86F31188 		MSR basepri, r6
 772              	@ 0 "" 2
 773              		.thumb
 774 01a4 696A     		ldr	r1, [r5, #36]
 775 01a6 B1F1050C 		subs	ip, r1, #5
 776 01aa DCF10001 		rsbs	r1, ip, #0
 777 01ae 51EB0C01 		adcs	r1, r1, ip
 778 01b2 2920     		movs	r0, #41
 779 01b4 FFF7FEFF 		bl	_test_assert
 780 01b8 0028     		cmp	r0, #0
ARM GAS  /tmp/ccE1UpoD.s 			page 50


 781 01ba 40F0CB80 		bne	.L29
 782              	@ 546 "/home/cody/dev/chibios/trunk/os/ext/CMSIS/include/core_cmFunc.h" 1
 783 01be 84F31188 		MSR basepri, r4
 784              	@ 0 "" 2
 785              	@ 546 "/home/cody/dev/chibios/trunk/os/ext/CMSIS/include/core_cmFunc.h" 1
 786 01c2 86F31188 		MSR basepri, r6
 787              	@ 0 "" 2
 788              		.thumb
 789 01c6 A969     		ldr	r1, [r5, #24]
 790 01c8 D1F10101 		rsbs	r1, r1, #1
 791 01cc 38BF     		it	cc
 792 01ce 0021     		movcc	r1, #0
 793 01d0 2A20     		movs	r0, #42
 794 01d2 FFF7FEFF 		bl	_test_assert
 795 01d6 0028     		cmp	r0, #0
 796 01d8 40F0BC80 		bne	.L29
 797              	@ 546 "/home/cody/dev/chibios/trunk/os/ext/CMSIS/include/core_cmFunc.h" 1
 798 01dc 84F31188 		MSR basepri, r4
 799              	@ 0 "" 2
 800              		.thumb
 801 01e0 E968     		ldr	r1, [r5, #12]
 802 01e2 AB68     		ldr	r3, [r5, #8]
 803 01e4 B1EB030E 		subs	lr, r1, r3
 804 01e8 DEF10001 		rsbs	r1, lr, #0
 805 01ec 51EB0E01 		adcs	r1, r1, lr
 806 01f0 2B20     		movs	r0, #43
 807 01f2 FFF7FEFF 		bl	_test_assert
 808 01f6 0028     		cmp	r0, #0
 809 01f8 7FF43BAF 		bne	.L1
 810 01fc 2846     		mov	r0, r5
 811 01fe FFF7FEFF 		bl	chMBReset
 812              	@ 546 "/home/cody/dev/chibios/trunk/os/ext/CMSIS/include/core_cmFunc.h" 1
 813 0202 86F31188 		MSR basepri, r6
 814              	@ 0 "" 2
 815              		.thumb
 816 0206 696A     		ldr	r1, [r5, #36]
 817 0208 4F1F     		subs	r7, r1, #5
 818 020a 7942     		rsbs	r1, r7, #0
 819 020c 7941     		adcs	r1, r1, r7
 820 020e 2C20     		movs	r0, #44
 821 0210 FFF7FEFF 		bl	_test_assert
 822 0214 0028     		cmp	r0, #0
 823 0216 40F09D80 		bne	.L29
 824              	@ 546 "/home/cody/dev/chibios/trunk/os/ext/CMSIS/include/core_cmFunc.h" 1
 825 021a 84F31188 		MSR basepri, r4
 826              	@ 0 "" 2
 827              	@ 546 "/home/cody/dev/chibios/trunk/os/ext/CMSIS/include/core_cmFunc.h" 1
 828 021e 86F31188 		MSR basepri, r6
 829              	@ 0 "" 2
 830              		.thumb
 831 0222 A969     		ldr	r1, [r5, #24]
 832 0224 D1F10101 		rsbs	r1, r1, #1
 833 0228 38BF     		it	cc
 834 022a 0021     		movcc	r1, #0
 835 022c 2D20     		movs	r0, #45
 836 022e FFF7FEFF 		bl	_test_assert
 837 0232 0028     		cmp	r0, #0
ARM GAS  /tmp/ccE1UpoD.s 			page 51


 838 0234 40F08E80 		bne	.L29
 839              	@ 546 "/home/cody/dev/chibios/trunk/os/ext/CMSIS/include/core_cmFunc.h" 1
 840 0238 84F31188 		MSR basepri, r4
 841              	@ 0 "" 2
 842              	@ 546 "/home/cody/dev/chibios/trunk/os/ext/CMSIS/include/core_cmFunc.h" 1
 843 023c 86F31188 		MSR basepri, r6
 844              	@ 0 "" 2
 845              		.thumb
 846 0240 2968     		ldr	r1, [r5]
 847 0242 AB68     		ldr	r3, [r5, #8]
 848 0244 CA1A     		subs	r2, r1, r3
 849 0246 5142     		rsbs	r1, r2, #0
 850 0248 5141     		adcs	r1, r1, r2
 851 024a 2E20     		movs	r0, #46
 852 024c FFF7FEFF 		bl	_test_assert
 853 0250 0028     		cmp	r0, #0
 854 0252 7FD1     		bne	.L29
 855              	@ 546 "/home/cody/dev/chibios/trunk/os/ext/CMSIS/include/core_cmFunc.h" 1
 856 0254 84F31188 		MSR basepri, r4
 857              	@ 0 "" 2
 858              	@ 546 "/home/cody/dev/chibios/trunk/os/ext/CMSIS/include/core_cmFunc.h" 1
 859 0258 86F31188 		MSR basepri, r6
 860              	@ 0 "" 2
 861              		.thumb
 862 025c 2968     		ldr	r1, [r5]
 863 025e EB68     		ldr	r3, [r5, #12]
 864 0260 CB1A     		subs	r3, r1, r3
 865 0262 5942     		rsbs	r1, r3, #0
 866 0264 4FF02F00 		mov	r0, #47
 867 0268 5941     		adcs	r1, r1, r3
 868 026a FFF7FEFF 		bl	_test_assert
 869              	.L31:
 870 026e 0023     		movs	r3, #0
 871              	.L26:
 872              	@ 546 "/home/cody/dev/chibios/trunk/os/ext/CMSIS/include/core_cmFunc.h" 1
 873 0270 83F31188 		MSR basepri, r3
 874              	@ 0 "" 2
 875              		.thumb
 876 0274 02B0     		add	sp, sp, #8
 877              		@ sp needed
 878 0276 BDE8F081 		pop	{r4, r5, r6, r7, r8, pc}
 879              	.L37:
 880 027a 00BF     		.align	2
 881              	.L36:
 882 027c 00000000 		.word	.LANCHOR0
 883 0280 00000000 		.word	.LC0
 884              	.L33:
 885 0284 5821     		movs	r1, #88
 886 0286 0122     		movs	r2, #1
 887 0288 2846     		mov	r0, r5
 888 028a FFF7FEFF 		bl	chMBPost
 889 028e B0F1FF37 		subs	r7, r0, #-1
 890 0292 7942     		rsbs	r1, r7, #0
 891 0294 7941     		adcs	r1, r1, r7
 892 0296 0420     		movs	r0, #4
 893 0298 FFF7FEFF 		bl	_test_assert
 894 029c 0446     		mov	r4, r0
ARM GAS  /tmp/ccE1UpoD.s 			page 52


 895 029e 0028     		cmp	r0, #0
 896 02a0 7FF4E7AE 		bne	.L1
 897 02a4 2027     		movs	r7, #32
 898              	@ 546 "/home/cody/dev/chibios/trunk/os/ext/CMSIS/include/core_cmFunc.h" 1
 899 02a6 87F31188 		MSR basepri, r7
 900              	@ 0 "" 2
 901              		.thumb
 902 02aa 5821     		movs	r1, #88
 903 02ac 2846     		mov	r0, r5
 904 02ae FFF7FEFF 		bl	chMBPostI
 905 02b2 0146     		mov	r1, r0
 906              	@ 546 "/home/cody/dev/chibios/trunk/os/ext/CMSIS/include/core_cmFunc.h" 1
 907 02b4 84F31188 		MSR basepri, r4
 908              	@ 0 "" 2
 909              		.thumb
 910 02b8 B1F1FF34 		subs	r4, r1, #-1
 911 02bc 6142     		rsbs	r1, r4, #0
 912 02be 6141     		adcs	r1, r1, r4
 913 02c0 0520     		movs	r0, #5
 914 02c2 FFF7FEFF 		bl	_test_assert
 915 02c6 0028     		cmp	r0, #0
 916 02c8 7FF4D3AE 		bne	.L1
 917 02cc 5821     		movs	r1, #88
 918 02ce 0122     		movs	r2, #1
 919 02d0 2846     		mov	r0, r5
 920 02d2 FFF7FEFF 		bl	chMBPostAhead
 921 02d6 B0F1FF32 		subs	r2, r0, #-1
 922 02da 5142     		rsbs	r1, r2, #0
 923 02dc 5141     		adcs	r1, r1, r2
 924 02de 0620     		movs	r0, #6
 925 02e0 FFF7FEFF 		bl	_test_assert
 926 02e4 0446     		mov	r4, r0
 927 02e6 0028     		cmp	r0, #0
 928 02e8 7FF4C3AE 		bne	.L1
 929              	@ 546 "/home/cody/dev/chibios/trunk/os/ext/CMSIS/include/core_cmFunc.h" 1
 930 02ec 87F31188 		MSR basepri, r7
 931              	@ 0 "" 2
 932              		.thumb
 933 02f0 5821     		movs	r1, #88
 934 02f2 2846     		mov	r0, r5
 935 02f4 FFF7FEFF 		bl	chMBPostAheadI
 936 02f8 0146     		mov	r1, r0
 937              	@ 546 "/home/cody/dev/chibios/trunk/os/ext/CMSIS/include/core_cmFunc.h" 1
 938 02fa 84F31188 		MSR basepri, r4
 939              	@ 0 "" 2
 940              		.thumb
 941 02fe B1F1FF33 		subs	r3, r1, #-1
 942 0302 5942     		rsbs	r1, r3, #0
 943 0304 4FF00700 		mov	r0, #7
 944 0308 5941     		adcs	r1, r1, r3
 945 030a FFF7FEFF 		bl	_test_assert
 946 030e 8046     		mov	r8, r0
 947 0310 0028     		cmp	r0, #0
 948 0312 7FF4AEAE 		bne	.L1
 949              	@ 546 "/home/cody/dev/chibios/trunk/os/ext/CMSIS/include/core_cmFunc.h" 1
 950 0316 87F31188 		MSR basepri, r7
 951              	@ 0 "" 2
ARM GAS  /tmp/ccE1UpoD.s 			page 53


 952              		.thumb
 953 031a 696A     		ldr	r1, [r5, #36]
 954 031c D1F10101 		rsbs	r1, r1, #1
 955 0320 4FF00800 		mov	r0, #8
 956 0324 38BF     		it	cc
 957 0326 0021     		movcc	r1, #0
 958 0328 FFF7FEFF 		bl	_test_assert
 959 032c 0446     		mov	r4, r0
 960 032e 10B1     		cbz	r0, .L7
 961              	@ 546 "/home/cody/dev/chibios/trunk/os/ext/CMSIS/include/core_cmFunc.h" 1
 962 0330 88F31188 		MSR basepri, r8
 963              	@ 0 "" 2
 964              		.thumb
 965 0334 9DE6     		b	.L1
 966              	.L7:
 967              	@ 546 "/home/cody/dev/chibios/trunk/os/ext/CMSIS/include/core_cmFunc.h" 1
 968 0336 80F31188 		MSR basepri, r0
 969              	@ 0 "" 2
 970              	@ 546 "/home/cody/dev/chibios/trunk/os/ext/CMSIS/include/core_cmFunc.h" 1
 971 033a 87F31188 		MSR basepri, r7
 972              	@ 0 "" 2
 973              		.thumb
 974 033e A969     		ldr	r1, [r5, #24]
 975 0340 B1F10508 		subs	r8, r1, #5
 976 0344 D8F10001 		rsbs	r1, r8, #0
 977 0348 51EB0801 		adcs	r1, r1, r8
 978 034c 0920     		movs	r0, #9
 979 034e FFF7FEFF 		bl	_test_assert
 980 0352 10B1     		cbz	r0, .L8
 981              	.L29:
 982              	@ 546 "/home/cody/dev/chibios/trunk/os/ext/CMSIS/include/core_cmFunc.h" 1
 983 0354 84F31188 		MSR basepri, r4
 984              	@ 0 "" 2
 985              		.thumb
 986 0358 8BE6     		b	.L1
 987              	.L8:
 988              	@ 546 "/home/cody/dev/chibios/trunk/os/ext/CMSIS/include/core_cmFunc.h" 1
 989 035a 80F31188 		MSR basepri, r0
 990              	@ 0 "" 2
 991              	@ 546 "/home/cody/dev/chibios/trunk/os/ext/CMSIS/include/core_cmFunc.h" 1
 992 035e 87F31188 		MSR basepri, r7
 993              	@ 0 "" 2
 994              		.thumb
 995 0362 E968     		ldr	r1, [r5, #12]
 996 0364 AB68     		ldr	r3, [r5, #8]
 997 0366 B1EB030C 		subs	ip, r1, r3
 998 036a DCF10001 		rsbs	r1, ip, #0
 999 036e 4FF00A00 		mov	r0, #10
 1000 0372 51EB0C01 		adcs	r1, r1, ip
 1001 0376 FFF7FEFF 		bl	_test_assert
 1002 037a 0023     		movs	r3, #0
 1003 037c 0028     		cmp	r0, #0
 1004 037e 7FF477AF 		bne	.L26
 1005              	@ 546 "/home/cody/dev/chibios/trunk/os/ext/CMSIS/include/core_cmFunc.h" 1
 1006 0382 83F31188 		MSR basepri, r3
 1007              	@ 0 "" 2
 1008              		.thumb
ARM GAS  /tmp/ccE1UpoD.s 			page 54


 1009 0386 0525     		movs	r5, #5
 1010 0388 05E0     		b	.L11
 1011              	.L35:
 1012 038a 9DF80400 		ldrb	r0, [sp, #4]	@ zero_extendqisi2
 1013 038e FFF7FEFF 		bl	test_emit_token
 1014 0392 013D     		subs	r5, r5, #1
 1015 0394 10D0     		beq	.L34
 1016              	.L11:
 1017 0396 9C4C     		ldr	r4, .L38
 1018 0398 01A9     		add	r1, sp, #4
 1019 039a 2046     		mov	r0, r4
 1020 039c 4FF0FF32 		mov	r2, #-1
 1021 03a0 FFF7FEFF 		bl	chMBFetch
 1022 03a4 D0F10101 		rsbs	r1, r0, #1
 1023 03a8 38BF     		it	cc
 1024 03aa 0021     		movcc	r1, #0
 1025 03ac 0B20     		movs	r0, #11
 1026 03ae FFF7FEFF 		bl	_test_assert
 1027 03b2 0028     		cmp	r0, #0
 1028 03b4 E9D0     		beq	.L35
 1029 03b6 5CE6     		b	.L1
 1030              	.L34:
 1031 03b8 0C20     		movs	r0, #12
 1032 03ba 9449     		ldr	r1, .L38+4
 1033 03bc FFF7FEFF 		bl	_test_assert_sequence
 1034 03c0 0028     		cmp	r0, #0
 1035 03c2 7FF456AE 		bne	.L1
 1036 03c6 4721     		movs	r1, #71
 1037 03c8 2046     		mov	r0, r4
 1038 03ca 4FF0FF32 		mov	r2, #-1
 1039 03ce FFF7FEFF 		bl	chMBPost
 1040 03d2 D0F10101 		rsbs	r1, r0, #1
 1041 03d6 38BF     		it	cc
 1042 03d8 0021     		movcc	r1, #0
 1043 03da 0D20     		movs	r0, #13
 1044 03dc FFF7FEFF 		bl	_test_assert
 1045 03e0 0028     		cmp	r0, #0
 1046 03e2 7FF446AE 		bne	.L1
 1047 03e6 01A9     		add	r1, sp, #4
 1048 03e8 2046     		mov	r0, r4
 1049 03ea 4FF0FF32 		mov	r2, #-1
 1050 03ee FFF7FEFF 		bl	chMBFetch
 1051 03f2 D0F10101 		rsbs	r1, r0, #1
 1052 03f6 38BF     		it	cc
 1053 03f8 0021     		movcc	r1, #0
 1054 03fa 0E20     		movs	r0, #14
 1055 03fc FFF7FEFF 		bl	_test_assert
 1056 0400 0028     		cmp	r0, #0
 1057 0402 7FF436AE 		bne	.L1
 1058 0406 2168     		ldr	r1, [r4]
 1059 0408 A368     		ldr	r3, [r4, #8]
 1060 040a B1EB030E 		subs	lr, r1, r3
 1061 040e DEF10001 		rsbs	r1, lr, #0
 1062 0412 51EB0E01 		adcs	r1, r1, lr
 1063 0416 0F20     		movs	r0, #15
 1064 0418 FFF7FEFF 		bl	_test_assert
 1065 041c 0028     		cmp	r0, #0
ARM GAS  /tmp/ccE1UpoD.s 			page 55


 1066 041e 7FF428AE 		bne	.L1
 1067 0422 2168     		ldr	r1, [r4]
 1068 0424 E368     		ldr	r3, [r4, #12]
 1069 0426 CF1A     		subs	r7, r1, r3
 1070 0428 7942     		rsbs	r1, r7, #0
 1071 042a 7941     		adcs	r1, r1, r7
 1072 042c 1020     		movs	r0, #16
 1073 042e FFF7FEFF 		bl	_test_assert
 1074 0432 0028     		cmp	r0, #0
 1075 0434 7FF41DAE 		bne	.L1
 1076 0438 01A9     		add	r1, sp, #4
 1077 043a 2046     		mov	r0, r4
 1078 043c 0122     		movs	r2, #1
 1079 043e FFF7FEFF 		bl	chMBFetch
 1080 0442 B0F1FF30 		subs	r0, r0, #-1
 1081 0446 4142     		rsbs	r1, r0, #0
 1082 0448 4141     		adcs	r1, r1, r0
 1083 044a 1120     		movs	r0, #17
 1084 044c FFF7FEFF 		bl	_test_assert
 1085 0450 0028     		cmp	r0, #0
 1086 0452 7FF40EAE 		bne	.L1
 1087 0456 2027     		movs	r7, #32
 1088              	@ 546 "/home/cody/dev/chibios/trunk/os/ext/CMSIS/include/core_cmFunc.h" 1
 1089 0458 87F31188 		MSR basepri, r7
 1090              	@ 0 "" 2
 1091              		.thumb
 1092 045c 01A9     		add	r1, sp, #4
 1093 045e 2046     		mov	r0, r4
 1094 0460 FFF7FEFF 		bl	chMBFetchI
 1095 0464 0146     		mov	r1, r0
 1096              	@ 546 "/home/cody/dev/chibios/trunk/os/ext/CMSIS/include/core_cmFunc.h" 1
 1097 0466 85F31188 		MSR basepri, r5
 1098              	@ 0 "" 2
 1099              		.thumb
 1100 046a B1F1FF32 		subs	r2, r1, #-1
 1101 046e 5142     		rsbs	r1, r2, #0
 1102 0470 5141     		adcs	r1, r1, r2
 1103 0472 1220     		movs	r0, #18
 1104 0474 FFF7FEFF 		bl	_test_assert
 1105 0478 0028     		cmp	r0, #0
 1106 047a 7FF4FAAD 		bne	.L1
 1107              	@ 546 "/home/cody/dev/chibios/trunk/os/ext/CMSIS/include/core_cmFunc.h" 1
 1108 047e 87F31188 		MSR basepri, r7
 1109              	@ 0 "" 2
 1110              		.thumb
 1111 0482 616A     		ldr	r1, [r4, #36]
 1112 0484 4B1F     		subs	r3, r1, #5
 1113 0486 5942     		rsbs	r1, r3, #0
 1114 0488 5941     		adcs	r1, r1, r3
 1115 048a 1320     		movs	r0, #19
 1116 048c FFF7FEFF 		bl	_test_assert
 1117 0490 0028     		cmp	r0, #0
 1118 0492 7FF4ECAE 		bne	.L31
 1119 0496 0027     		movs	r7, #0
 1120              	@ 546 "/home/cody/dev/chibios/trunk/os/ext/CMSIS/include/core_cmFunc.h" 1
 1121 0498 87F31188 		MSR basepri, r7
 1122              	@ 0 "" 2
ARM GAS  /tmp/ccE1UpoD.s 			page 56


 1123              		.thumb
 1124 049c 2025     		movs	r5, #32
 1125              	@ 546 "/home/cody/dev/chibios/trunk/os/ext/CMSIS/include/core_cmFunc.h" 1
 1126 049e 85F31188 		MSR basepri, r5
 1127              	@ 0 "" 2
 1128              		.thumb
 1129 04a2 B169     		ldr	r1, [r6, #24]
 1130 04a4 584C     		ldr	r4, .L38
 1131 04a6 B1EB0708 		subs	r8, r1, r7
 1132 04aa D8F10001 		rsbs	r1, r8, #0
 1133 04ae 51EB0801 		adcs	r1, r1, r8
 1134 04b2 1420     		movs	r0, #20
 1135 04b4 FFF7FEFF 		bl	_test_assert
 1136 04b8 0646     		mov	r6, r0
 1137 04ba 10B1     		cbz	r0, .L13
 1138              	@ 546 "/home/cody/dev/chibios/trunk/os/ext/CMSIS/include/core_cmFunc.h" 1
 1139 04bc 87F31188 		MSR basepri, r7
 1140              	@ 0 "" 2
 1141              		.thumb
 1142 04c0 D7E5     		b	.L1
 1143              	.L13:
 1144              	@ 546 "/home/cody/dev/chibios/trunk/os/ext/CMSIS/include/core_cmFunc.h" 1
 1145 04c2 80F31188 		MSR basepri, r0
 1146              	@ 0 "" 2
 1147              	@ 546 "/home/cody/dev/chibios/trunk/os/ext/CMSIS/include/core_cmFunc.h" 1
 1148 04c6 85F31188 		MSR basepri, r5
 1149              	@ 0 "" 2
 1150              		.thumb
 1151 04ca E168     		ldr	r1, [r4, #12]
 1152 04cc A368     		ldr	r3, [r4, #8]
 1153 04ce B1EB030C 		subs	ip, r1, r3
 1154 04d2 DCF10001 		rsbs	r1, ip, #0
 1155 04d6 51EB0C01 		adcs	r1, r1, ip
 1156 04da 1520     		movs	r0, #21
 1157 04dc FFF7FEFF 		bl	_test_assert
 1158 04e0 10B1     		cbz	r0, .L14
 1159              	@ 546 "/home/cody/dev/chibios/trunk/os/ext/CMSIS/include/core_cmFunc.h" 1
 1160 04e2 86F31188 		MSR basepri, r6
 1161              	@ 0 "" 2
 1162              		.thumb
 1163 04e6 C4E5     		b	.L1
 1164              	.L14:
 1165              	@ 546 "/home/cody/dev/chibios/trunk/os/ext/CMSIS/include/core_cmFunc.h" 1
 1166 04e8 80F31188 		MSR basepri, r0
 1167              	@ 0 "" 2
 1168              	@ 546 "/home/cody/dev/chibios/trunk/os/ext/CMSIS/include/core_cmFunc.h" 1
 1169 04ec 85F31188 		MSR basepri, r5
 1170              	@ 0 "" 2
 1171              		.thumb
 1172 04f0 4121     		movs	r1, #65
 1173 04f2 2046     		mov	r0, r4
 1174 04f4 FFF7FEFF 		bl	chMBPostI
 1175 04f8 D0F10101 		rsbs	r1, r0, #1
 1176 04fc 38BF     		it	cc
 1177 04fe 0021     		movcc	r1, #0
 1178 0500 1620     		movs	r0, #22
 1179 0502 FFF7FEFF 		bl	_test_assert
ARM GAS  /tmp/ccE1UpoD.s 			page 57


 1180 0506 0028     		cmp	r0, #0
 1181 0508 7FF4B3AD 		bne	.L1
 1182 050c 4221     		movs	r1, #66
 1183 050e 2046     		mov	r0, r4
 1184 0510 FFF7FEFF 		bl	chMBPostI
 1185 0514 D0F10101 		rsbs	r1, r0, #1
 1186 0518 38BF     		it	cc
 1187 051a 0021     		movcc	r1, #0
 1188 051c 1720     		movs	r0, #23
 1189 051e FFF7FEFF 		bl	_test_assert
 1190 0522 0028     		cmp	r0, #0
 1191 0524 7FF4A5AD 		bne	.L1
 1192 0528 4321     		movs	r1, #67
 1193 052a 2046     		mov	r0, r4
 1194 052c FFF7FEFF 		bl	chMBPostI
 1195 0530 D0F10101 		rsbs	r1, r0, #1
 1196 0534 38BF     		it	cc
 1197 0536 0021     		movcc	r1, #0
 1198 0538 1820     		movs	r0, #24
 1199 053a FFF7FEFF 		bl	_test_assert
 1200 053e 0028     		cmp	r0, #0
 1201 0540 7FF497AD 		bne	.L1
 1202 0544 4421     		movs	r1, #68
 1203 0546 2046     		mov	r0, r4
 1204 0548 FFF7FEFF 		bl	chMBPostI
 1205 054c D0F10101 		rsbs	r1, r0, #1
 1206 0550 38BF     		it	cc
 1207 0552 0021     		movcc	r1, #0
 1208 0554 1920     		movs	r0, #25
 1209 0556 FFF7FEFF 		bl	_test_assert
 1210 055a 0646     		mov	r6, r0
 1211 055c 0028     		cmp	r0, #0
 1212 055e 7FF488AD 		bne	.L1
 1213 0562 2046     		mov	r0, r4
 1214 0564 4521     		movs	r1, #69
 1215 0566 FFF7FEFF 		bl	chMBPostI
 1216 056a 0146     		mov	r1, r0
 1217              	@ 546 "/home/cody/dev/chibios/trunk/os/ext/CMSIS/include/core_cmFunc.h" 1
 1218 056c 86F31188 		MSR basepri, r6
 1219              	@ 0 "" 2
 1220              		.thumb
 1221 0570 D1F10101 		rsbs	r1, r1, #1
 1222 0574 38BF     		it	cc
 1223 0576 0021     		movcc	r1, #0
 1224 0578 1A20     		movs	r0, #26
 1225 057a FFF7FEFF 		bl	_test_assert
 1226 057e 0028     		cmp	r0, #0
 1227 0580 7FF477AD 		bne	.L1
 1228 0584 E168     		ldr	r1, [r4, #12]
 1229 0586 A368     		ldr	r3, [r4, #8]
 1230 0588 B1EB030E 		subs	lr, r1, r3
 1231 058c DEF10001 		rsbs	r1, lr, #0
 1232 0590 51EB0E01 		adcs	r1, r1, lr
 1233 0594 1B20     		movs	r0, #27
 1234 0596 FFF7FEFF 		bl	_test_assert
 1235 059a 0028     		cmp	r0, #0
 1236 059c 7FF469AD 		bne	.L1
ARM GAS  /tmp/ccE1UpoD.s 			page 58


 1237 05a0 A846     		mov	r8, r5
 1238 05a2 0746     		mov	r7, r0
 1239 05a4 0525     		movs	r5, #5
 1240              	.L16:
 1241 05a6 2026     		movs	r6, #32
 1242              	@ 546 "/home/cody/dev/chibios/trunk/os/ext/CMSIS/include/core_cmFunc.h" 1
 1243 05a8 88F31188 		MSR basepri, r8
 1244              	@ 0 "" 2
 1245              		.thumb
 1246 05ac 164C     		ldr	r4, .L38
 1247 05ae 01A9     		add	r1, sp, #4
 1248 05b0 2046     		mov	r0, r4
 1249 05b2 FFF7FEFF 		bl	chMBFetchI
 1250 05b6 0146     		mov	r1, r0
 1251              	@ 546 "/home/cody/dev/chibios/trunk/os/ext/CMSIS/include/core_cmFunc.h" 1
 1252 05b8 87F31188 		MSR basepri, r7
 1253              	@ 0 "" 2
 1254              		.thumb
 1255 05bc D1F10101 		rsbs	r1, r1, #1
 1256 05c0 38BF     		it	cc
 1257 05c2 0021     		movcc	r1, #0
 1258 05c4 1C20     		movs	r0, #28
 1259 05c6 FFF7FEFF 		bl	_test_assert
 1260 05ca 0028     		cmp	r0, #0
 1261 05cc 7FF451AD 		bne	.L1
 1262 05d0 9DF80400 		ldrb	r0, [sp, #4]	@ zero_extendqisi2
 1263 05d4 FFF7FEFF 		bl	test_emit_token
 1264 05d8 013D     		subs	r5, r5, #1
 1265 05da E4D1     		bne	.L16
 1266 05dc 1D20     		movs	r0, #29
 1267 05de 0B49     		ldr	r1, .L38+4
 1268 05e0 FFF7FEFF 		bl	_test_assert_sequence
 1269 05e4 0028     		cmp	r0, #0
 1270 05e6 7FF444AD 		bne	.L1
 1271              	@ 546 "/home/cody/dev/chibios/trunk/os/ext/CMSIS/include/core_cmFunc.h" 1
 1272 05ea 86F31188 		MSR basepri, r6
 1273              	@ 0 "" 2
 1274              		.thumb
 1275 05ee 616A     		ldr	r1, [r4, #36]
 1276 05f0 4F1F     		subs	r7, r1, #5
 1277 05f2 7942     		rsbs	r1, r7, #0
 1278 05f4 7941     		adcs	r1, r1, r7
 1279 05f6 1E20     		movs	r0, #30
 1280 05f8 FFF7FEFF 		bl	_test_assert
 1281 05fc 0028     		cmp	r0, #0
 1282 05fe 3FF43BAD 		beq	.L17
 1283              	.L30:
 1284              	@ 546 "/home/cody/dev/chibios/trunk/os/ext/CMSIS/include/core_cmFunc.h" 1
 1285 0602 85F31188 		MSR basepri, r5
 1286              	@ 0 "" 2
 1287              		.thumb
 1288 0606 34E5     		b	.L1
 1289              	.L39:
 1290              		.align	2
 1291              	.L38:
 1292 0608 00000000 		.word	.LANCHOR0
 1293 060c 00000000 		.word	.LC0
ARM GAS  /tmp/ccE1UpoD.s 			page 59


 1294              		.size	mbox1_execute, .-mbox1_execute
 1295              		.section	.text.mbox1_setup,"ax",%progbits
 1296              		.align	2
 1297              		.p2align 4,,15
 1298              		.thumb
 1299              		.thumb_func
 1300              		.type	mbox1_setup, %function
 1301              	mbox1_setup:
 1302              		@ args = 0, pretend = 0, frame = 0
 1303              		@ frame_needed = 0, uses_anonymous_args = 0
 1304              		@ link register save eliminated.
 1305 0000 0248     		ldr	r0, .L41
 1306 0002 0349     		ldr	r1, .L41+4
 1307 0004 0522     		movs	r2, #5
 1308 0006 FFF7FEBF 		b	chMBObjectInit
 1309              	.L42:
 1310 000a 00BF     		.align	2
 1311              	.L41:
 1312 000c 00000000 		.word	.LANCHOR0
 1313 0010 00000000 		.word	test
 1314              		.size	mbox1_setup, .-mbox1_setup
 1315              		.global	patternmbox
 1316              		.global	testmbox1
 1317 0014 AFF30080 		.section	.data.mb1,"aw",%progbits
 1317      AFF30080 
 1317      AFF30080 
 1318              		.align	2
 1319              		.set	.LANCHOR0,. + 0
 1320              		.type	mb1, %object
 1321              		.size	mb1, 40
 1322              	mb1:
 1323 0000 00000000 		.word	test
 1324 0004 14000000 		.word	test+20
 1325 0008 00000000 		.word	test
 1326 000c 00000000 		.word	test
 1327 0010 10000000 		.word	mb1+16
 1328 0014 10000000 		.word	mb1+16
 1329 0018 00000000 		.word	0
 1330 001c 1C000000 		.word	mb1+28
 1331 0020 1C000000 		.word	mb1+28
 1332 0024 05000000 		.word	5
 1333              		.section	.rodata.patternmbox,"a",%progbits
 1334              		.align	2
 1335              		.type	patternmbox, %object
 1336              		.size	patternmbox, 8
 1337              	patternmbox:
 1338 0000 00000000 		.word	testmbox1
 1339 0004 00000000 		.word	0
 1340              		.section	.rodata.str1.4,"aMS",%progbits,1
 1341              		.align	2
 1342              	.LC0:
 1343 0000 41424344 		.ascii	"ABCDE\000"
 1343      4500
 1344 0006 0000     		.space	2
 1345              	.LC1:
 1346 0008 4D61696C 		.ascii	"Mailboxes, queuing and timeouts\000"
 1346      626F7865 
ARM GAS  /tmp/ccE1UpoD.s 			page 60


 1346      732C2071 
 1346      75657569 
 1346      6E672061 
 1347              		.section	.rodata.testmbox1,"a",%progbits
 1348              		.align	2
 1349              		.type	testmbox1, %object
 1350              		.size	testmbox1, 16
 1351              	testmbox1:
 1352 0000 08000000 		.word	.LC1
 1353 0004 00000000 		.word	mbox1_setup
 1354 0008 00000000 		.word	0
 1355 000c 00000000 		.word	mbox1_execute
 1356              		.comm	__gnu_lto_v1,1,1
 1357              		.ident	"GCC: (GNU Tools for ARM Embedded Processors) 4.8.4 20140526 (release) [ARM/embedded-4_8-br
ARM GAS  /tmp/ccE1UpoD.s 			page 61


DEFINED SYMBOLS
                            *ABS*:0000000000000000 testmbox.c
     /tmp/ccE1UpoD.s:578    .text.mbox1_execute:0000000000000000 $t
     /tmp/ccE1UpoD.s:583    .text.mbox1_execute:0000000000000000 mbox1_execute
     /tmp/ccE1UpoD.s:882    .text.mbox1_execute:000000000000027c $d
     /tmp/ccE1UpoD.s:885    .text.mbox1_execute:0000000000000284 $t
     /tmp/ccE1UpoD.s:1292   .text.mbox1_execute:0000000000000608 $d
     /tmp/ccE1UpoD.s:1296   .text.mbox1_setup:0000000000000000 $t
     /tmp/ccE1UpoD.s:1301   .text.mbox1_setup:0000000000000000 mbox1_setup
     /tmp/ccE1UpoD.s:1312   .text.mbox1_setup:000000000000000c $d
     /tmp/ccE1UpoD.s:1337   .rodata.patternmbox:0000000000000000 patternmbox
     /tmp/ccE1UpoD.s:1351   .rodata.testmbox1:0000000000000000 testmbox1
     /tmp/ccE1UpoD.s:1318   .data.mb1:0000000000000000 $d
     /tmp/ccE1UpoD.s:1322   .data.mb1:0000000000000000 mb1
     /tmp/ccE1UpoD.s:1334   .rodata.patternmbox:0000000000000000 $d
     /tmp/ccE1UpoD.s:1341   .rodata.str1.4:0000000000000000 $d
     /tmp/ccE1UpoD.s:1348   .rodata.testmbox1:0000000000000000 $d
                            *COM*:0000000000000001 __gnu_lto_v1
     /tmp/ccE1UpoD.s:1317   .text.mbox1_setup:0000000000000014 $t

UNDEFINED SYMBOLS
_test_assert
chMBPost
chMBPostAhead
chMBPostAheadI
chMBFetchI
test_emit_token
_test_assert_sequence
chMBReset
chMBPostI
chMBFetch
chMBObjectInit
test
