ARM GAS  /tmp/cc3AplIV.s 			page 1


   1              		.syntax unified
   2              		.cpu cortex-m3
   3              		.fpu softvfp
   4              		.eabi_attribute 20, 1
   5              		.eabi_attribute 21, 1
   6              		.eabi_attribute 23, 3
   7              		.eabi_attribute 24, 1
   8              		.eabi_attribute 25, 1
   9              		.eabi_attribute 26, 1
  10              		.eabi_attribute 30, 2
  11              		.eabi_attribute 34, 1
  12              		.eabi_attribute 18, 4
  13              		.thumb
  14              		.file	"testsem.c"
  15              		.section	.gnu.lto_.jmpfuncs.e614f6b1eeeb5e13,"",%progbits
  16 0000 789CAD54 		.ascii	"x\234\255T9n\303@\014\034ruZ\211b\003FJ?\302\275\001"
  16      396EC340 
  16      0C1C7275 
  16      5A896203 
  16      464A3FC2 
  17 0016 5FF943FA 		.ascii	"_\371C\372T*\334\246I\2432Op\343\377\344A\251Ry/)\024"
  17      542ADCA6 
  17      49A3324F 
  17      70E3FFE4 
  17      41A95279 
  18 002d 242D2221 		.ascii	"$-\"!\202\000q\311\231%w\226\024\2031\364\354b\340Y"
  18      820071C9 
  18      99257796 
  18      148331F4 
  18      EC62E059 
  19 0041 7F4B80F9 		.ascii	"\177K\200\371\225*jp\314\037\370\251?\353eEt!\3472q"
  19      952A6A70 
  19      CC1FF8A9 
  19      3FEB6545 
  19      7421E732 
  20 0056 D6F1D8DB 		.ascii	"\326\361\330\333\370\262\340_\244z\363H\343\271\032"
  20      F8B2E05F 
  20      A47AF348 
  20      E3B91A
  21 0065 4FB401DD 		.ascii	"O\264\001\335\352\353\276\242\330ok\211$1\311\006\221"
  21      EAEBBEA2 
  21      D86F6B89 
  21      2431C906 
  21      91
  22 0076 C3A42E37 		.ascii	"\303\244.7\365s\377\247kZ\371\205,\177\032\265\234O"
  22      F573FFA7 
  22      6B5AF985 
  22      2C7F1AB5 
  22      9C4F
  23 0088 5DCDA7AE 		.ascii	"]\315\247\256\347S;W\245\210\006\345K\376(s:\336C\332"
  23      E7533B57 
  23      A58806E5 
  23      4BFE2873 
  23      3ADE43DA 
  24 009c C882D13C 		.ascii	"\310\202\321<\030]\214\334\264\211g[\240\260\015\366"
  24      185D8CDC 
  24      B489675B 
ARM GAS  /tmp/cc3AplIV.s 			page 2


  24      A0B00DF6 
  25 00ac 40A4B4FB 		.ascii	"@\244\264\373\235\360\330\264],ZPYN\273\214\306C\354"
  25      9DF0D8B4 
  25      5D2C5A50 
  25      594EBB8C 
  25      C643EC
  26 00bf 97212DA9 		.ascii	"\227!-\251\231\232\246\275ahm\305\322.\203\033q{\322"
  26      999AA6BD 
  26      61686DC5 
  26      D22E831B 
  26      717BD2
  27 00d2 3C3085D9 		.ascii	"<0\205\331\267\302`\351\362\204\011\332s\004v\361\340"
  27      B7C260E9 
  27      F28409DA 
  27      730476F1 
  27      E0
  28 00e3 54103361 		.ascii	"T\0203a\347\302^\204\246V9L\341\204x\352\212)\225\354"
  28      E7C25E84 
  28      A656394C 
  28      E18478EA 
  28      8A2995EC 
  29 00f7 68345699 		.ascii	"h4V\2316\226\203\321\276\247\237\306\012\262\232\226"
  29      369683D1 
  29      BEA79FC6 
  29      0AB29A96 
  30 0107 75D25F42 		.ascii	"u\322_Bu.\011|@r8\236\316/`\375\236\301'\360\021wa\272"
  30      752E097C 
  30      4072389E 
  30      CE2F60FD 
  30      9EC127F0 
  31 011f D22B     		.ascii	"\322+"
  32              		.text
  33              		.section	.gnu.lto_.inline.e614f6b1eeeb5e13,"",%progbits
  34 0000 789C9552 		.ascii	"x\234\225R\273N\0031\020\234\365]\356\222{\221(\022"
  34      BB4E0331 
  34      109CF55D 
  34      EE927B91 
  34      2812
  35 0012 02247405 		.ascii	"\002$t\005H\210\177@\242K\201\220\225o\310\327\244t"
  35      48887F40 
  35      A24B8190 
  35      956FC8D7 
  35      A474
  36 0024 9F260505 		.ascii	"\237&\005\005E>&\005\022\010!\321\246\201:%k\373\234"
  36      453E2605 
  36      120821D1 
  36      A6813A25 
  36      6BFB9C
  37 0037 C4B97324 		.ascii	"\304\271s$\\x\355\235\365\316\316\256\005\004\272\326"
  37      5C78ED9D 
  37      F5CECEAE 
  37      0504BAD6 
  38 0047 75646D05 		.ascii	"udm\005\374\340\235\010b\272\371\215\220,k\023\037\227"
  38      FCE09D08 
  38      62BAF98D 
  38      902C6B13 
  38      1F97
ARM GAS  /tmp/cc3AplIV.s 			page 3


  39 0059 E0874A52 		.ascii	"\340\207JR\306\027\263E\205\366 \035\002=%\031rA\026"
  39      C617B345 
  39      85F6201D 
  39      023D2519 
  39      724116
  40 006c 16391F82 		.ascii	"\0269\037\202\373\341\253\377\236#\364/9\017mR\244\363"
  40      FBE1ABFF 
  40      9E23F42F 
  40      390F6D52 
  40      A4F3
  41 007e 3B539D49 		.ascii	";S\235I\252\244\315\235 \275 \243\322\025\3571#\251"
  41      AAA4CD9D 
  41      20BD20A3 
  41      D215EF31 
  41      23A9
  42 0090 7CB411D2 		.ascii	"|\264\021\322\017\001\203\020\220!\273e ^\326;\244%"
  42      0F018310 
  42      9021BB65 
  42      205ED63B 
  42      A425
  43 00a2 3D473EE6 		.ascii	"=G>\346f\222v\017^'\273\212\367\201J\026\350\225\035"
  43      6692760F 
  43      5E27BB8A 
  43      F7814A16 
  43      E8951D
  44 00b5 052B5916 		.ascii	"\005+Y\026\337xdd\266]Pk\022\316Z\236\323\336v\323\035"
  44      DF786464 
  44      B65D506B 
  44      12CE5A9E 
  44      D3DE76D3 
  45 00ca D248694C 		.ascii	"\322HiL\205/|\352\332\237W\037{\306\320\210\2179\275"
  45      852F7CEA 
  45      DA9F571F 
  45      7BC6D088 
  45      8F39BD
  46 00dd 3F2272D2 		.ascii	"?\"r\322\022b\253\314\032w=\264\260\260\036\253\222"
  46      1262ABCC 
  46      1A773DB4 
  46      B0B01EAB 
  46      92
  47 00ee 4A9EA1BE 		.ascii	"J\236\241\276g\350|=\365{\032\342j\022\0141\326\243"
  47      67E87C3D 
  47      F57B1AE2 
  47      6A120C31 
  47      D6A3
  48 0100 28DE9E8E 		.ascii	"(\336\236\216\207\344\013Ur\204\233\007\216\274\332"
  48      87E40B55 
  48      72849B07 
  48      8EBCDA
  49 010f BED06986 		.ascii	"\276\320i\206\216\377\215?)|I\255"
  49      8EFF8D3F 
  49      297C49AD 
  50              		.text
  51              		.section	.gnu.lto_.pureconst.e614f6b1eeeb5e13,"",%progbits
  52 0000 789C6362 		.ascii	"x\234cb`b\220e\200\000>\006+fI6\011v\011\016\011N\011"
  52      60629065 
  52      80003E06 
ARM GAS  /tmp/cc3AplIV.s 			page 4


  52      2B664936 
  52      0976090E 
  53 0017 2E2B6E2B 		.ascii	".+n+\036\011^+>+~I\001IAI\000(\262\002\273"
  53      1E095E2B 
  53      3E2B7E49 
  53      01494149 
  53      0028B202 
  54              		.text
  55              		.section	.gnu.lto_sem1_execute.e614f6b1eeeb5e13,"",%progbits
  56 0000 789CC597 		.ascii	"x\234\305\227]L\034U\024\307\317\2753\273\354\362\325"
  56      5D4C1C55 
  56      14C7CFBD 
  56      33BBECF2 
  56      D5
  57 0011 2D88ACA8 		.ascii	"-\210\254\250\353*\224\007?\030I\370.\245\237\230\030"
  57      EB2A9407 
  57      3F1849F8 
  57      2EA59F98 
  57      18
  58 0022 D317A989 		.ascii	"\323\027\251\211>\231e\330\300\250\013\315\356\322H"
  58      3E9965D8 
  58      C0A80BCD 
  58      EED248
  59 0031 7CE8F0A1 		.ascii	"|\350\360\241\301\324\007|P\211\246I\215ZM\323\250%"
  59      C1D4077C 
  59      5089A649 
  59      8D5A4DD3 
  59      A825
  60 0043 3131805A 		.ascii	"11\200Z\3234A[\241\032K+\331FRM\372\240i\360\2456\276"
  60      D334415B 
  60      A11A4B2B 
  60      D946524D 
  60      FAA069F0 
  61 005a D473EEEC 		.ascii	"\324s\356\354|\260\273l\273\353\0227a\366\234;\367\374"
  61      7CB0BB6C 
  61      BBEB1237 
  61      61F69C3B 
  61      F7FC
  62 006c EF39F777 		.ascii	"\3579\367w\3172\303\201C\352\347)\374\373\325\007\220"
  62      CF32C381 
  62      43EAE729 
  62      FCFBD507 
  62      90
  63 007d C06F5604 		.ascii	"\300oV\004\214O-\002\214z8w/+\240\027K\263\001\320K"
  63      8C4F2D02 
  63      8C7A3877 
  63      2F2BA017 
  63      4BB301D0 
  64 0092 252ECFE3 		.ascii	"%.\317\343w\261\353g\034+\225\231\333\230\3442\0157"
  64      77B1EB67 
  64      1C2B9599 
  64      DB98E432 
  64      0D37
  65 00a4 63640083 		.ascii	"cd\000\203\303\\\222]nv\3709&\324?\343\247Wo\335\372"
  65      C35C925D 
  65      6E76F839 
  65      26D43FE3 
ARM GAS  /tmp/cc3AplIV.s 			page 5


  65      A7576FDD 
  66 00b9 F4F26B1F 		.ascii	"\364\362k\037&\330Q\336-\201\306@\306\013s\343\205{"
  66      26D851DE 
  66      2D81C640 
  66      C60B73E3 
  66      857B
  67 00cb C8F5925B 		.ascii	"\310\365\222[Bn\031\271\345\344\372\310\255 \267\222"
  67      426E19B9 
  67      E5E4FAC8 
  67      AD20B792 
  68 00db DC2A72AB 		.ascii	"\334*r\253\311\365\223[Cn-^\244:r\353\311m\300\213\254"
  68      C9F5935B 
  68      436E2D5E 
  68      A43A72EB 
  68      C96DC08B 
  69 00f0 D058235D 		.ascii	"\320X#]\232h\254\031/\256\026\262Z\311j#\253\235\254"
  69      9A68AC19 
  69      2FAE16B2 
  69      5AC96A23 
  69      AB9DAC
  70 0103 0EB2B693 		.ascii	"\016\262\266\223\325I\326\016\262\272\310\332I\026\246"
  70      D549D60E 
  70      B2BAC8DA 
  70      4916A6
  71 0112 ED82095D 		.ascii	"\355\202\011]\237\012\002\250\242\214\003x\245\372\236"
  71      9F0A02A8 
  71      A28C0378 
  71      A5FA9E
  72 0121 619CBEA5 		.ascii	"a\234\276\245\037`,q\371\217\0059\304\336\307\351\375"
  72      1F602C71 
  72      F98F0539 
  72      C4DEC7E9 
  72      FD
  73 0132 4C7A0C4E 		.ascii	"Lz\014N\352>\215\271\337\203wG\247\310*z\005\376\321"
  73      EA3E8DB9 
  73      DF837747 
  73      A7C82A7A 
  73      05FED1
  74 0145 A7C9F244 		.ascii	"\247\311\362D\204\304\263\014M0-\257\003\000\212\255"
  74      84C4B30C 
  74      4D302DAF 
  74      03008AAD 
  75 0155 2456969B 		.ascii	"$V\226\233\2545\015C\377\340\270\342H\3040N\037\271"
  75      AC350D43 
  75      FFE0B8E2 
  75      48C4304E 
  75      1FB9
  76 0167 746A2BEA 		.ascii	"tj+\352\031\013\253LH\253LP\355gM\217\300\011]\327W"
  76      190BAB4C 
  76      48AB4C50 
  76      ED674D8F 
  76      C0095DD7 
  77 017c 2F7EF1D1 		.ascii	"/~\361\321\303X\214\341\351\355\032+\246\274t\312\246"
  77      C3588CE1 
  77      E9ED1A2B 
  77      A6BC74CA 
  77      A6
ARM GAS  /tmp/cc3AplIV.s 			page 6


  78 018d 84F29A24 		.ascii	"\204\362\232$\2534\"\242)\233R\221G/\271!v\2346\240"
  78      AB3422A2 
  78      299B5291 
  78      472FB921 
  78      769C36A0 
  79 01a1 9731CB36 		.ascii	"\2271\31362\234\236\251\011\261\217E\265\315I\341\030"
  79      329C9EA9 
  79      09B18F45 
  79      B5CD49E1 
  79      18
  80 01b2 EE95255C 		.ascii	"\356\225%\\\206\313\223\026Ojq\212\377\304\214\037\237"
  80      86CB9316 
  80      4F6A718A 
  80      FFC48C1F 
  80      9F
  81 01c3 3C73E4D2 		.ascii	"<s\344\322\233^s\277d\024\241\311\342\366\022\370\315"
  81      9B5E73BF 
  81      6414A1C9 
  81      E2F612F8 
  81      CD
  82 01d4 71B7955D 		.ascii	"q\267\225]\271\312$0\252\222h\346\226\005Nqt\337\243"
  82      B9CA2430 
  82      AA9268E6 
  82      96054E71 
  82      74DFA3
  83 01e7 319FCA92 		.ascii	"1\237\312\222{\0174\342\327\330\326\000\274pT\237\336"
  83      7B0F34E2 
  83      D7D8D600 
  83      BC70549F 
  83      DE
  84 01f8 A5B18AE4 		.ascii	"\245\261\212\344\346 \311J\221\372w\027\212\214\021"
  84      E620C94A 
  84      91FA7717 
  84      8A8C11
  85 0207 82849F66 		.ascii	"\202\204\237fL\322J\373.k\305\252\210\310\235\026\253"
  85      4CD24AFB 
  85      2E6BC5AA 
  85      88C89D16 
  85      AB
  86 0218 CAC00993 		.ascii	"\312\300\011\223\023j\211\233\016\356\236\234\271\263"
  86      136A899B 
  86      0EEE9E9C 
  86      B9B3
  87 0226 3CB99FCB 		.ascii	"<\271\237\313\306\275\245\020\334g\035\334gS\270\317"
  87      C6BDA510 
  87      DC671DDC 
  87      6753B8CF 
  88 0236 896A5B37 		.ascii	"\211j[7\340\336\222\306}\336\301\375\234\203\273\027"
  88      E0DE92C6 
  88      7DDEC1FD 
  88      9C83BB17 
  89 0246 450477B6 		.ascii	"E\004w\266\236{I&\356\036\233\2737\033\367\310fp\267"
  89      9E7B4926 
  89      EE1E9BBB 
  89      371BF7C8 
  89      6670B7
  90 0259 38617206 		.ascii	"8ar\006\367\351\3536\367\262\234\271;~ws\353\367D\026"
ARM GAS  /tmp/cc3AplIV.s 			page 7


  90      F7E9EB36 
  90      F7B29CB9 
  90      3B7E7773 
  90      EBF74416 
  91 026d EE6D85E0 		.ascii	"\356m\205\340\276\350\340\276\230\302}IT\333\276\001"
  91      BEE8E0BE 
  91      98C27D49 
  91      54DBBE01 
  92 027d F7B634EE 		.ascii	"\367\2664\356\027\234\375\236\260\271\227\243\210\340"
  92      179CFD9E 
  92      B0B997A3 
  92      88E0
  93 028b 2EADE7EE 		.ascii	".\255\347\356\313\304\275\314\346^\236\215\373\301\315"
  93      CBC4BDCC 
  93      E65E9E8D 
  93      FBC1CD
  94 029a E06E71C2 		.ascii	"\340nq\302\344\014\356_:\270W\344\314]\312\267\337\263"
  94      E40CEE5F 
  94      3AB857E4 
  94      CC5DCAB7 
  94      DFB3
  95 02ac 71EF2804 		.ascii	"q\357(\004\367\253\016\356WS\270\377&\252\335\276\001"
  95      F7AB0EEE 
  95      5753B8FF 
  95      26AADDBE 
  95      01
  96 02bd F78E34EE 		.ascii	"\367\2164\356\277;\373\335\301\275\022E\004wy=\367\252"
  96      BF3BFBDD 
  96      C1BD1245 
  96      0477793D 
  96      F7AA
  97 02cf 4CDC2B6C 		.ascii	"L\334+l\356\225\331\270\3076\203\273\305\251\237F\305"
  97      EE95D9B8 
  97      C73683BB 
  97      C5A99F46 
  97      C5
  98 02e0 FF7707F7 		.ascii	"\377w\007\367\352\234\271\313\371\366\373\225,\334;"
  98      EA9CB9CB 
  98      F9F6FB95 
  98      2CDC3B
  99 02ef 0BC1FD86 		.ascii	"\013\301\375\206\203\373\215\024\356\177\213jwl\300"
  99      83FB8D14 
  99      EE7F8B6A 
  99      776CC0
 100 02fe BD338DFB 		.ascii	"\2753\215\373Mg\277_\261\271\373QDp\347\353\271\327"
 100      4D67BF5F 
 100      B1B9FB51 
 100      4470E7EB 
 100      B9D7
 101 0310 64E25E6D 		.ascii	"d\342^ms\367g\343~h3\270[\23409Jubu\356LR\316X[\304"
 101      73F767E3 
 101      7E6833B8 
 101      5B9C3039 
 101      4A756275 
 102 032b DEAD1A85 		.ascii	"\336\255\032\205B2\277\352\010\223\254,\374\"\356\330"
 102      4232BFEA 
 102      0893AC2C 
ARM GAS  /tmp/cc3AplIV.s 			page 8


 102      FC22EED8 
 103 033b BC9457D8 		.ascii	"\274\224W\330W\371\205}\235_\3307\371\204\215\257.\214"
 103      57F9857D 
 103      9D5FD837 
 103      F9848DAF 
 103      2E8C
 104 034d 97A4C5DD 		.ascii	"\227\244\305\335\243\322\023\021\320,\261s\257\256\236"
 104      A3D21311 
 104      D02CB173 
 104      AFAE9E
 105 035c 574DCEB5 		.ascii	"WM\316\265\326\254{U|\2470w{\0133q\336\027\200\021\003"
 105      D6AC7B55 
 105      7CA73077 
 105      7B0B3371 
 105      DE178011 
 106 0371 E7FD36CE 		.ascii	"\347\3756\316\000\300\002L\374\311,\025\212q\374\200"
 106      00C0024C 
 106      FCC92C15 
 106      8A71FC80 
 107 0381 D2F3B704 		.ascii	"\322\363\267\004\263\001z\374^9\277\262,\337YG]\313"
 107      B3017AFC 
 107      5E39BFB2 
 107      2CDF5947 
 107      5DCB
 108 0393 D2515D85 		.ascii	"\322Q]\205\350\250\267\270\335Q\302vt\324\333\234*\331"
 108      E8A8B7B8 
 108      DD51C276 
 108      74D4DB9C 
 108      2AD9
 109 03a5 B9414775 		.ascii	"\271AGu\245u\324;\334\321Q\327\354\216\252C\221LO\314"
 109      A575D43B 
 109      DCD151D7 
 109      EC8EAA43 
 109      914C4FCC 
 110 03b9 F5B77962 		.ascii	"\365\267yb\256\373?\237\230\353\001\026a\354\257\311"
 110      AEFB3F9F 
 110      98EB0116 
 110      61ECAFC9 
 111 03c9 B3336F48 		.ascii	"\2633oH\026\026\363 \341\273\"\203o1g\324\220\214\367"
 111      1616F320 
 111      E1BB2283 
 111      6F3167D4 
 111      908CF7
 112 03dc D200FCC4 		.ascii	"\322\000\374\304\314\224\222r\017\004\311\262\356_L"
 112      CC949272 
 112      0F04C9B2 
 112      EE5F4C
 113 03eb DE0F1A4B 		.ascii	"\336\017\032K\340\251[\033\233;\311\322\016\347\203"
 113      E0A95B1B 
 113      9B3BC9D2 
 113      0EE783
 114 03fa 6AF2C738 		.ascii	"j\362\3078\375P\223\352C\034k\255\025g\373\330/\351"
 114      FD5093EA 
 114      431C6BAD 
 114      1567FBD8 
 114      2FE9
 115 040c 2D8147DB 		.ascii	"-\201G\333k\037\355;+\001_\216\270d\244\014\216\224"
ARM GAS  /tmp/cc3AplIV.s 			page 9


 115      6B1FED3B 
 115      2B015F8E 
 115      B864A40C 
 115      8E94
 116 041e 43EC040F 		.ascii	"C\354\004\017\230\311\216\257\315\314}\236\236\354\372"
 116      98C98EAF 
 116      CDCC7D9E 
 116      9EECFA
 117 042d 4ECA79B9 		.ascii	"N\312y\271`\346\345\220\343\354\331\327\257[\335\324"
 117      60E6E590 
 117      E3ECD9D7 
 117      AF5BDDD4 
 118 043d 8004A974 		.ascii	"\200\004\251tkY\332\223\344.W{\354E\360\350-If\220\202"
 118      6B59DA93 
 118      E42E577B 
 118      EC45F0E8 
 118      2D496690 
 119 0452 71344136 		.ascii	"q4A6\036\330]\346x\243\245R\247\262b\273\301\351\310"
 119      1ED85DE6 
 119      78A3A552 
 119      A7B262BB 
 119      C1E9C8
 120 0465 291ADB96 		.ascii	")\032\333\226\322\311\215\031:Y\206\265\022\011\213"
 120      D2C98D19 
 120      3A5986B5 
 120      12098B
 121 0474 3D85C596 		.ascii	"=\205\305\226\376\307\2555\024]\360}\005)\262\202\250"
 121      FEC7AD35 
 121      145DF07D 
 121      0529B282 
 121      A8
 122 0485 B9C59BFE 		.ascii	"\271\305\233\376\2170\352\261G\017`\223\343(\005(\312"
 122      8F30EAB1 
 122      470F6093 
 122      E3280528 
 122      CA
 123 0496 C05024AC 		.ascii	"\300P$\254\250C}#J_\370\220\242\016h\275\332PL\211G"
 123      A8437D23 
 123      4A5FF890 
 123      A20E68BD 
 123      DA504C89 
 124 04ab 87075F54 		.ascii	"\207\007_T\342\341X\\\211\306\305w,\034iP\2415\353|"
 124      E2E1585C 
 124      89C6C577 
 124      2C1C6950 
 124      A135EB7C 
 125 04bf 3470B636 		.ascii	"4p\2666\250\2764\334\207\223\006\342\003\321p\250/\326"
 125      A8BE34DC 
 125      879306E2 
 125      03D170A8 
 125      2FD6
 126 04d1 30007C37 		.ascii	"0\000|7\360=\300\367\002\337\007\274\033\334\273\367"
 126      F03DC0F7 
 126      02DF07BC 
 126      1BDCBBF7 
 127 04e1 ECDDD70D 		.ascii	"\354\335\327\015\273n\247\026~9\256\354\335\337\363"
 127      BB6EA716 
ARM GAS  /tmp/cc3AplIV.s 			page 10


 127      7E39AEEC 
 127      DDDFF3
 128 04f0 648F2D3A 		.ascii	"d\217-:\024\015?\257F\236\030\036TQ\326\267\277\347"
 128      140D3FAF 
 128      469E181E 
 128      5451D6B7 
 128      BFE7
 129 0502 E9606F28 		.ascii	"\351`o(\026>\030\325\036\015n{\034x\024\212\"\341\310"
 129      163E18D5 
 129      1E0D6E7B 
 129      1C78148A 
 129      22E1C8
 130 0515 507404FE 		.ascii	"Pt\004\376\005\327W\017Y"
 130      05D7570F 
 130      59
 131              		.text
 132              		.section	.gnu.lto_thread1.e614f6b1eeeb5e13,"",%progbits
 133 0000 789C6550 		.ascii	"x\234eP\261J\003A\020}o\356.Iikgm\341\342\277D0\245"
 133      B14A0341 
 133      107D6FEE 
 133      2E49696B 
 133      676DE1E2 
 134 0018 6E8E6491 		.ascii	"n\216d\221\363 w\012\301\"\227\030\301FH\035\213 V\202"
 134      F320770A 
 134      C1229718 
 134      C146481D 
 134      8B205682 
 135 002c 689FCACA 		.ascii	"h\237\312\312N\203\177p\255\277`\023g\357bc\026f\337"
 135      4E837F70 
 135      ADBF6013 
 135      67EF6263 
 135      1666DF
 136 003f EECC9BB7 		.ascii	"\356\314\233\267oV \370\277v5\2765\0165\030\2002\373"
 136      6F5620F8 
 136      BF7635BE 
 136      350E3518 
 136      8032FB
 137 0052 04C62D21 		.ascii	"\004\306-!\375\001\304H8\352\260\342\276\312[\271^\277"
 137      FD01C448 
 137      38EAB0E2 
 137      BECA5BB9 
 137      5EBF
 138 0064 2CDF17CF 		.ascii	",\337\027\317\234K#`B\204pU1\302\264(f{\200\255\256"
 138      9C4B2360 
 138      42847055 
 138      31C2B428 
 138      667B80AD 
 139 0079 6DDDBDC0 		.ascii	"m\335\275\300\021\305c\260\302\264\\\\7O\370\300H\313"
 139      11C563B0 
 139      C2B45C5C 
 139      374FF8C0 
 139      48CB
 140 008b 57F8296E 		.ascii	"W\370)n\213\035GZ\326\332>\323r\224\204\334\220\234"
 140      8B1D475A 
 140      D6DA3ED3 
 140      729484DC 
 140      909C
ARM GAS  /tmp/cc3AplIV.s 			page 11


 141 009d DAC10726 		.ascii	"\332\301\007&\313\233\307\273\375:\327cx\2179\365\305"
 141      CB9BC7BB 
 141      FD3AD763 
 141      788F39F5 
 141      C5
 142 00ae 1E8363C5 		.ascii	"\036\203c\305p3\305\012\341\226tdY\217\253]\216\015"
 142      7033C50A 
 142      E1967464 
 142      598FAB5D 
 142      8E0D
 143 00c0 E00BE3F2 		.ascii	"\340\013\343\362\311\326<\337\334\374\373\203\266zP"
 143      C9D63CDF 
 143      DCFCFB83 
 143      B67A50
 144 00cf 939E6D4C 		.ascii	"\223\236mL?Mbc\323\356\320t\343Kc\373\356\324\245\231"
 144      3F4D6263 
 144      D3EED074 
 144      E34B63FB 
 144      EED4A599 
 145 00e3 C90717E7 		.ascii	"\311\007\027\347g&\217\263\334\014\362\012\26389\260"
 145      67268FB3 
 145      DC0CF20A 
 145      B33839B0 
 146 00f3 F805C634 		.ascii	"\370\005\3064H\347"
 146      48E7
 147              		.text
 148              		.section	.gnu.lto_thread3.e614f6b1eeeb5e13,"",%progbits
 149 0000 789C6362 		.ascii	"x\234cb`b@\007\222@|\032\210\015\201\230\221\231\201"
 149      60624007 
 149      92407C1A 
 149      880D8198 
 149      919981
 150 0013 9169C239 		.ascii	"\221i\3029\006\206F\016&FF\020\203\201\221\241\236\211"
 150      0686460E 
 150      26464610 
 150      838191A1 
 150      9E89
 151 0025 B13E9211 		.ascii	"\261>\222\021\254v=\323\201\007\377\377\257\273tn\376"
 151      AC763DD3 
 151      8107FFFF 
 151      AFBB746E 
 151      FE
 152 0036 1FC65D4C 		.ascii	"\037\306]L,@\021V\206\226\206\206\011\012\014\014\311"
 152      2C401156 
 152      86968686 
 152      090A0C0C 
 152      C9
 153 0047 60152140 		.ascii	"`\025!@\022\244-\224\221\011D3\237ghy\260\246\235=\221"
 153      12A42D94 
 153      91094433 
 153      9F676879 
 153      B0A69D3D 
 154 005c 7121232B 		.ascii	"q!#+P\272\232\341WCG\203@&#P9\304D\220\010G&#c.#\003"
 154      50BA9AE1 
 154      57434783 
 154      40262350 
 154      39C44490 
ARM GAS  /tmp/cc3AplIV.s 			page 12


 155 0078 54512650 		.ascii	"TQ&P+\003H\337\332\343\230\372\230\223\031\231p\352"
 155      2B0348DF 
 155      DAE398FA 
 155      98931999 
 155      70EA
 156 008a 03BAE722 		.ascii	"\003\272\347\"C\343\203u\351\020\221\010\306L\260f\006"
 156      43E38375 
 156      E9109108 
 156      C64CB066 
 156      06
 157 009b 88C31841 		.ascii	"\210\303\030A\016\002i\326\327\317\310\317M\325O\316"
 157      0E0269D6 
 157      D7CFC8CF 
 157      4DD54FCE 
 158 00ab 4FA9D44F 		.ascii	"O\251\324OI-\323O\316\310L\312\314/\326/)*\315\313\326"
 158      492DD34F 
 158      CEC84CCA 
 158      CC2FD62F 
 158      292ACDCB 
 159 00c0 2F492D2E 		.ascii	"/I-.\321/*\001\323\305\251\271z\311\014\000\257\013"
 159      D12F2A01 
 159      D3C5A9B9 
 159      7AC90C00 
 159      AF0B
 160 00d2 46A6     		.ascii	"F\246"
 161              		.text
 162              		.section	.gnu.lto_sem1_setup.e614f6b1eeeb5e13,"",%progbits
 163 0000 789C6362 		.ascii	"x\234cb`b@\007\222@<\025\210\015\201\230\221\231\201"
 163      60624007 
 163      92403C15 
 163      880D8198 
 163      919981
 164 0013 9169C239 		.ascii	"\221i\3029\006\206F\016&FF\020\203\201\221\241\236\211"
 164      0686460E 
 164      26464610 
 164      838191A1 
 164      9E89
 165 0025 B13E9211 		.ascii	"\261>\222\021\254v=\323\201\007\377\377\257\333\320"
 165      AC763DD3 
 165      8107FFFF 
 165      AFDBD0
 166 0034 367F0FE3 		.ascii	"6\177\017\343L&f\240\010+CKC\303\004\005\006\206d\260"
 166      4C2666A0 
 166      082B434B 
 166      43C30405 
 166      068664B0 
 167 0048 8A102009 		.ascii	"\212\020 \011\322\026\312\310\004\242\231\3173\264>"
 167      D216CAC8 
 167      04A299CF 
 167      33B43E
 168 0057 9875982B 		.ascii	"\230u\230+\221q!#+P\272\232\341WCG\203@&#P9\304D\220"
 168      91712123 
 168      2B50BA9A 
 168      E1574347 
 168      83402623 
 169 0070 08472623 		.ascii	"\010G&#c.#\003TQ\004c&P3C&\320-\014\027\031\032\037"
 169      632E2303 
ARM GAS  /tmp/cc3AplIV.s 			page 13


 169      54510463 
 169      26503343 
 169      26D02D0C 
 170 0088 CC5686E9 		.ascii	"\314V\206\351\206\200\020\240N\240\321 \217\350\353"
 170      868010A0 
 170      4EA0D120 
 170      8FE8EB
 171 0097 67E4E7A6 		.ascii	"g\344\347\246\352'\347\247T\352\247\244\226\351'gd&"
 171      EA27E7A7 
 171      54EAA7A4 
 171      96E92767 
 171      6426
 172 00a9 65E617EB 		.ascii	"e\346\027\353\227\024\225\346e\353\227\244\026\227\350"
 172      971495E6 
 172      65EB97A4 
 172      1697E8
 173 00b8 179580E9 		.ascii	"\027\225\200\351\342\324\\\275d\006\000\321\2608\225"
 173      E2D45CBD 
 173      640600D1 
 173      B03895
 174              		.text
 175              		.section	.gnu.lto_sem2_setup.e614f6b1eeeb5e13,"",%progbits
 176 0000 789C6362 		.ascii	"x\234cb`b@\007\222@<\025\210\015\201\230\221\231\201"
 176      60624007 
 176      92403C15 
 176      880D8198 
 176      919981
 177 0013 9169C239 		.ascii	"\221i\3029\006\206F\016&FF\020\203\201\221\241\236\211"
 177      0686460E 
 177      26464610 
 177      838191A1 
 177      9E89
 178 0025 B13E9211 		.ascii	"\261>\222\021\254v=\323\201\007\377\377\257\233\324"
 178      AC763DD3 
 178      8107FFFF 
 178      AF9BD4
 179 0034 35FF0CE3 		.ascii	"5\377\014\343\012&f\240\010+CKC\303\004\005\006\206"
 179      0A2666A0 
 179      082B434B 
 179      43C30405 
 179      0686
 180 0046 64B08A10 		.ascii	"d\260\212\020 \011\322\026\312\310\004\242\231\3173"
 180      2009D216 
 180      CAC804A2 
 180      99CF33
 181 0055 B43EE83E 		.ascii	"\264>\350>\312\225\310\270\220\221\025(]\315\360\253"
 181      CA95C8B8 
 181      90911528 
 181      5DCDF0AB 
 182 0065 A1A34120 		.ascii	"\241\243A \223\021\250\034b\"H\204#\223\2211\227\221"
 182      9311A81C 
 182      62224884 
 182      23939131 
 182      9791
 183 0077 01AA2882 		.ascii	"\001\252(\2021\023\250\231!\023\350\026\206\213\014"
 183      3113A899 
 183      2113E816 
ARM GAS  /tmp/cc3AplIV.s 			page 14


 183      868B0C
 184 0086 8D0F7A54 		.ascii	"\215\017zTa\272! \004\250\023h4\310#\372\372\031\371"
 184      61BA2120 
 184      04A81368 
 184      34C823FA 
 184      FA19F9
 185 0099 B9A9FAC9 		.ascii	"\271\251\372\311\371)\225\372)\251e\372\311\031\231"
 185      F92995FA 
 185      29A965FA 
 185      C91999
 186 00a8 4999F9C5 		.ascii	"I\231\371\305\372%E\245y\331\372%\251\305%\372E%`\272"
 186      FA2545A5 
 186      79D9FA25 
 186      A9C525FA 
 186      452560BA 
 187 00bc 3835572F 		.ascii	"85W/\231\001\000\311\3648\200"
 187      990100C9 
 187      F43880
 188              		.text
 189              		.section	.gnu.lto_sem3_setup.e614f6b1eeeb5e13,"",%progbits
 190 0000 789C6362 		.ascii	"x\234cb`b@\007\222@<\025\210\015\201\230\221\231\201"
 190      60624007 
 190      92403C15 
 190      880D8198 
 190      919981
 191 0013 9169C239 		.ascii	"\221i\3029\006\206F\016&FF\020\203\201\221\241\236\211"
 191      0686460E 
 191      26464610 
 191      838191A1 
 191      9E89
 192 0025 B13E9211 		.ascii	"\261>\222\021\254v=\323\201\007\377\377\257\333\321"
 192      AC763DD3 
 192      8107FFFF 
 192      AFDBD1
 193 0034 37FF0FE3 		.ascii	"7\377\017\343N&f\240\010+CKC\303\004\005\006\206d\260"
 193      4E2666A0 
 193      082B434B 
 193      43C30405 
 193      068664B0 
 194 0048 8A102009 		.ascii	"\212\020 \011\322\026\312\310\004\242\231\3173\264>"
 194      D216CAC8 
 194      04A299CF 
 194      33B43E
 195 0057 98779C2B 		.ascii	"\230w\234+\221q!#+P\272\232\341WCG\203@&#P9\304D\220"
 195      91712123 
 195      2B50BA9A 
 195      E1574347 
 195      83402623 
 196 0070 08472623 		.ascii	"\010G&#c.#\003TQ\004c&P3C&\320-\014\027\031\032\037"
 196      632E2303 
 196      54510463 
 196      26503343 
 196      26D02D0C 
 197 0088 CC5787E9 		.ascii	"\314W\207\351\206\200\020\240N\240\321 \217\350\353"
 197      868010A0 
 197      4EA0D120 
 197      8FE8EB
ARM GAS  /tmp/cc3AplIV.s 			page 15


 198 0097 67E4E7A6 		.ascii	"g\344\347\246\352'\347\247T\352\247\244\226\351'gd&"
 198      EA27E7A7 
 198      54EAA7A4 
 198      96E92767 
 198      6426
 199 00a9 65E617EB 		.ascii	"e\346\027\353\227\024\225\346e\353\227\244\026\227\350"
 199      971495E6 
 199      65EB97A4 
 199      1697E8
 200 00b8 179580E9 		.ascii	"\027\225\200\351\342\324\\\275d\006\000'w9\025"
 200      E2D45CBD 
 200      64060027 
 200      773915
 201              		.text
 202              		.section	.gnu.lto_thread2.e614f6b1eeeb5e13,"",%progbits
 203 0000 789C7D91 		.ascii	"x\234}\221=K\003A\020\206g\366\214\371\260I\251M\270"
 203      3D4B0341 
 203      108667F6 
 203      8CF9B049 
 203      A94DB8
 204 0013 C64EB2E2 		.ascii	"\306N\262\342/\010\010\202E\032/\202Vr\331,d\321K\344"
 204      2F080882 
 204      451A2F82 
 204      5672D92C 
 204      64D14BE4 
 205 0027 EE220685 		.ascii	"\356\"\006\205\\4\250\225\244H\241\020\021\013A\033"
 205      5C34A895 
 205      A448A110 
 205      110B411B 
 206 0037 BF7E81B5 		.ascii	"\277~\201\265ED\374\003A\261I\245\255\010q\367.\011"
 206      4544FC03 
 206      41B149A5 
 206      AD0871F7 
 206      2E09
 207 0049 6220077B 		.ascii	"b \007{3\354\274\357\354\263\263\004\010\374\377\246"
 207      33ECBCEF 
 207      ECB3B304 
 207      08FCFFA6 
 208 0059 E43A4080 		.ascii	"\344:@\200c\031Q\003$\365\026@5B\020U\002\010\025\202"
 208      63195103 
 208      24F51640 
 208      35421055 
 208      02081582 
 209 006d 9555F4B5 		.ascii	"\225U\364\265\267\344\261\335\355\3364\237\316\177\360"
 209      B7E4B1DD 
 209      EDDE349F 
 209      CE7FF0
 210 007c 9A44E54E 		.ascii	"\232D\345N\010j\236W\327\001\230\257\310\310\277\262"
 210      086A9E57 
 210      D70198AF 
 210      C8C8BFB2 
 211 008c 2D235151 		.ascii	"-#QQ{\206Z\373\224\233x\201!Y\335\201o\357\310\213\013"
 211      7B865AFB 
 211      949B7881 
 211      2159DD81 
 211      6FEFC88B 
 212 00a1 94EAA0E1 		.ascii	"\224\352\240\341\012\012\3049\020R\016-\330\273\357"
ARM GAS  /tmp/cc3AplIV.s 			page 16


 212      0A0AC439 
 212      10520E2D 
 212      D8BBEF
 213 00b0 34D8A063 		.ascii	"4\330\240c\337%\021\020\034M\241k\001\177\002jx\346"
 213      DF251110 
 213      1C4DA16B 
 213      017F026A 
 213      78E6
 214 00c2 9DA484E4 		.ascii	"\235\244\204\344\3555\031\323U6\250\037\366\352\241"
 214      ED3519D3 
 214      5536A81F 
 214      F6EAA1
 215 00d1 E08E12E3 		.ascii	"\340\216\022\343\363\341uw\210c\234a0\020\265\023\021"
 215      F3E17577 
 215      88639C61 
 215      3010B513 
 215      11
 216 00e2 18B6B07F 		.ascii	"\030\266\260\177\254\300\210\362\355\267\233\037\261"
 216      ACC088F2 
 216      EDB79B1F 
 216      B1
 217 00ef 215F9405 		.ascii	"!_\224\005'KU\314\007\377\3524\336'G\221\233x)->)\374"
 217      274B55CC 
 217      07FFEA34 
 217      DE274791 
 217      9B78292D 
 218 0106 2135F10A 		.ascii	"!5\361\012\023\001\343\013T\357\336\214\300\252t\023"
 218      1301E30B 
 218      54EFDE8C 
 218      C0AA7413 
 219 0116 FD07CAC8 		.ascii	"\375\007\312\310Y\311Y*=\245\371\242\305)+\346\3124"
 219      59C9592A 
 219      3DA5F9A2 
 219      C5292BE6 
 219      CA34
 220 0128 C7B728CB 		.ascii	"\307\267(\313\213\254(:\324\265K\205u\352r\307\245\266"
 220      8BAC283A 
 220      D4B54B85 
 220      75EA72C7 
 220      A5B6
 221 013a EB47875B 		.ascii	"\353G\207[I\006\251\221z\231\360m\227\316\247\215E\203"
 221      4906A991 
 221      7A99F06D 
 221      97CEA78D 
 221      4583
 222 014c 8A02DB28 		.ascii	"\212\002\333(\345\224\326\346k\314Z(\025X2\017\361\264"
 222      E594D6E6 
 222      6BCC5A28 
 222      1558320F 
 222      F1B4
 223 015e B1A4674D 		.ascii	"\261\244gM\207o\332bF\237\236\005bC\330\342V\321.\303"
 223      876FDA62 
 223      469F9E05 
 223      6243D8E2 
 223      56D12EC3 
 224 0172 2FFA1F86 		.ascii	"/\372\037\2061"
 224      31
ARM GAS  /tmp/cc3AplIV.s 			page 17


 225              		.text
 226              		.section	.gnu.lto_chBSemSignal.e614f6b1eeeb5e13,"",%progbits
 227 0000 789C8D52 		.ascii	"x\234\215R\275k\024A\024\377\275\231]\357<\223\220F"
 227      BD6B1441 
 227      14FFBD99 
 227      5DEF3C93 
 227      9046
 228 0012 B00AD708 		.ascii	"\260\012\327\010\361\003W\304\324\006\004\301\" 9\003"
 228      F10357C4 
 228      D40604C1 
 228      22203903 
 229 0022 A690B03B 		.ascii	"\246\220\260;\267\344\006\335[\331\273\013\211)2\227"
 229      B7E406DD 
 229      5BD9BB0B 
 229      89293297 
 230 0032 5C918045 		.ascii	"\\\221\200E\270X\030?@\301#\321B\377\002\361J\013MH"
 230      B858183F 
 230      40C123D1 
 230      42FF02F1 
 230      4A0B4D48 
 231 0046 2B160141 		.ascii	"+\026\001AH\025m\014\304\"\316\354\336m\202\215\031"
 231      48156D0C 
 231      C422CEEC 
 231      DE6D828D 
 231      19
 232 0057 D899F766 		.ascii	"\330\231\367f\336\357c\337\014\003\303\277\343\212\376"
 232      DEEF63DF 
 232      0C03C3BF 
 232      E38AFE
 233 0066 6EE9ED15 		.ascii	"n\351\355\025\275\222\015b\313\033@=\313\030\337\353"
 233      BD920D62 
 233      CB1B403D 
 233      CB18DFEB 
 234 0076 83CA59AB 		.ascii	"\203\312Y\253\327\240z8Y\311\266Ed\002\020\346\030\267"
 234      D7A07A38 
 234      59C9B645 
 234      640210E6 
 234      18B7
 235 0088 686E9C62 		.ascii	"hn\234b\222\367\254\275}p\360\356w\363\303s\372\314"
 235      92F7ACBD 
 235      7D70F0EE 
 235      77F3C373 
 235      FACC
 236 009a 7A390584 		.ascii	"z9\005\204\014$!\253'Sb\243\241\324r\036\0201\340\266"
 236      0C2421AB 
 236      275362A3 
 236      A1D4721E 
 236      1031E0B6 
 237 00ae 9E0DCF18 		.ascii	"\236\015\317\0301\263\362\015\314\377\332}\374\375L"
 237      31B3F20D 
 237      CCFFDA7D 
 237      FCFD4C
 238 00bd 5AE6D22B 		.ascii	"Z\346\322+m&\026\"Ls\343\233'\346\007\260D/\324\223"
 238      6D261622 
 238      4C73E39B 
 238      27E607B0 
 238      442FD493 
ARM GAS  /tmp/cc3AplIV.s 			page 18


 239 00d1 6149717A 		.ascii	"aIqz\207$\361\274\211\322\363G\235s+\371\301/\230\377"
 239      8724F1BC 
 239      89D2F347 
 239      9D732BF9 
 239      C12F98FF 
 240 00e5 FAED65EB 		.ascii	"\372\355e\353|\312\235\004\352Ok\260\253#b\217\230\244"
 240      7CCA9D04 
 240      EA4F6BB0 
 240      AB23628F 
 240      98A4
 241 00f7 CC05BC55 		.ascii	"\314\005\274UJ\265\267\232\247%\331I\242\206$\235x\206"
 241      4AB5B79A 
 241      A725D949 
 241      A286249D 
 241      7886
 242 0109 A775A5FA 		.ascii	"\247u\245\372%e&\211\033\315l\314\355\031\234Ko\214"
 242      25652689 
 242      1BCD6CCC 
 242      ED199C4B 
 242      6F8C
 243 011b 57CF9074 		.ascii	"W\317\220tb\340\023\032?\352\275.\255\353T\363\032\210"
 243      62E0131A 
 243      3FEABD2E 
 243      ADEB54F3 
 243      1A88
 244 012d 7DB4ED63 		.ascii	"}\264\355c\304\261\327\307\265\271\375\205\265\326\271"
 244      C4B1D7C7 
 244      B5B9FD85 
 244      B5D6B9
 245 013c 6E617616 		.ascii	"nav\026\017u\307:\312w\217\247\234\212n\242\321\356"
 245      0F75C73A 
 245      CA778FA7 
 245      9C8A6EA2 
 245      D1EE
 246 014e 5001B3D8 		.ascii	"P\001\263\330W\213\006xR\020KK\264\204\244\\\327\203"
 246      578B0678 
 246      52104B4B 
 246      B484A45C 
 246      D783
 247 0160 15777F13 		.ascii	"\025w\177\023\013\333\037wr\335\236\247\300SB\2334C"
 247      0BDB1F77 
 247      72DD9EA7 
 247      C053429B 
 247      3443
 248 0172 520F709C 		.ascii	"R\017p\234;r\351\265\206\304w\202#w\342\322\032\015"
 248      3B72E9B5 
 248      86C47782 
 248      2377E2D2 
 248      1A0D
 249 0184 249A5BA8 		.ascii	"$\232[\250\377l\256\332)\026\311s c\304\324^uJa\340"
 249      FF6CAEDA 
 249      2916C973 
 249      2063C4D4 
 249      5E754A61 
 250 0199 3B222CCE 		.ascii	";\",\3168E\177\312\021%\351\311\260\342T\243Z\371\236"
 250      38457FCA 
 250      1125E9C9 
ARM GAS  /tmp/cc3AplIV.s 			page 19


 250      B0E254A3 
 250      5AF99E
 251 01ac A383A8EA 		.ascii	"\243\203\250\352\310\262\270_+\352\242\222W\361\203"
 251      C8B2B85F 
 251      2BEAA292 
 251      57F183
 252 01bb 4B250CFF 		.ascii	"K%\014\377\017\344OW\235\353#\205\233\205Cl\030\371"
 252      0FE44F57 
 252      9DEB2385 
 252      9B85436C 
 252      18F9
 253 01cd 1322B851 		.ascii	"\023\"\270Q+\013M\320?R\030\315{n\305\177\020\311\213"
 253      2B0B4DD0 
 253      3F5218CD 
 253      7B6EC57F 
 253      10C98B
 254 01e0 F9B397C1 		.ascii	"\371\263\227\301\"d\002?\010\243\031\374\005\004\315"
 254      2264023F 
 254      08A319FC 
 254      0504CD
 255 01ef B75A     		.ascii	"\267Z"
 256              		.text
 257              		.section	.gnu.lto_thread4.e614f6b1eeeb5e13,"",%progbits
 258 0000 789C6362 		.ascii	"x\234cb`b@\007\222@\334\011\304\206@\314\310\314\300"
 258      60624007 
 258      9240DC09 
 258      C48640CC 
 258      C8CCC0
 259 0013 C834E11C 		.ascii	"\3104\341\034\003C#\007\023##\210\301\300\310P\317\304"
 259      03432307 
 259      13232388 
 259      C1C0C850 
 259      CFC4
 260 0025 581FC908 		.ascii	"X\037\311\010V\273\236\351\300\203\377\377\327\3358"
 260      56BB9EE9 
 260      C083FFFF 
 260      D7DD38
 261 0034 3FBF8771 		.ascii	"?\277\207q?\023\013\023c.X\234\225\241\245\241a\202"
 261      3F130B13 
 261      632E589C 
 261      95A1A5A1 
 261      6182
 262 0046 02034332 		.ascii	"\002\003C2\230\033\002$AzC\031\231@4\363y\206\226\007"
 262      981B0224 
 262      417A4319 
 262      994034F3 
 262      79869607 
 263 005a EF9EB327 		.ascii	"\357\236\263'2.dd\005JW3\374j\350h\020\310d\004*\207"
 263      322E6464 
 263      054A5733 
 263      FC6AE868 
 263      10C86404 
 264 0070 189BCEC8 		.ascii	"\030\233\316\310\224\011b^dh|\360>\035\242.\2021\223"
 264      9409625E 
 264      64687CF0 
 264      3E1DA22E 
 264      823193
ARM GAS  /tmp/cc3AplIV.s 			page 20


 265 0083 11EED810 		.ascii	"\021\356\330\020\240,\320$\020__?#?7U?9?\245R?%\265"
 265      A02CD024 
 265      105F5F3F 
 265      233F3755 
 265      3F393FA5 
 266 009b 4C3F3923 		.ascii	"L?9#3)3\277X\277\244\2504/[\277$\265\270D\277\250\004"
 266      332933BF 
 266      58BFA4A8 
 266      342F5BBF 
 266      24B5B844 
 267 00b2 4C17A7E6 		.ascii	"L\027\247\346\352%3\000\000\272\3366\367"
 267      EA253300 
 267      00BADE36 
 267      F7
 268              		.text
 269              		.section	.gnu.lto_sem4_execute.e614f6b1eeeb5e13,"",%progbits
 270 0000 789CCD57 		.ascii	"x\234\315W]L\034U\024>g\366\177\331e\027\351\322\012"
 270      5D4C1C55 
 270      143E67F6 
 270      7FD96517 
 270      E9D20A
 271 0013 8280F4A1 		.ascii	"\202\200\364\241\024\273\264\324\020\333\322611\351"
 271      14BBB4D4 
 271      10DBD236 
 271      3131E9
 272 0022 437D9092 		.ascii	"C}\220\222\350S\335\03560\321\005\335]\214\325\230N"
 272      E853DD1D 
 272      3630D105 
 272      DD5D8CD5 
 272      984E
 273 0034 1113B03E 		.ascii	"\021\023\260>`\332&Dc\002\226\232\224P\255\340\223A"
 273      60DA2644 
 273      6302969A 
 273      9450ADE0 
 273      9341
 274 0046 83DDD696 		.ascii	"\203\335\326\226R\300\022\354\203!\221\324hb4i\233\370"
 274      52C012EC 
 274      832191D4 
 274      68623469 
 274      9BF8
 275 0058 648CEB39 		.ascii	"d\214\3539wvf\177A\253\223\350\004\316\334{\356=\177"
 275      7776667F 
 275      41AB93E8 
 275      04CEDC7B 
 275      EE3D7F
 276 006b DFF9C98E 		.ascii	"\337\371\311\216\004\022\344?I\372_-%\202\364W\006("
 276      0412E43F 
 276      49FA5F2D 
 276      2582F457 
 276      0628
 277 007d 0D2F029C 		.ascii	"\015/\002\234pJ\222e\246\025T\267u\245\002T\217\005"
 277      704A9265 
 277      A61554B7 
 277      75A50254 
 277      8F05
 278 008f 7D1ADB2A 		.ascii	"}\032\333*\331\004\333.\3306\235m\227\034\202\355\024"
 278      D904DB2E 
ARM GAS  /tmp/cc3AplIV.s 			page 21


 278      D8369D6D 
 278      971C82ED 
 278      14
 279 00a0 6C87CE76 		.ascii	"l\207\316vJ.\301v\013\266Kg\273\245\022\301\366\010"
 279      4A2EC176 
 279      0BB64B67 
 279      BBA512C1 
 279      F608
 280 00b2 7689CEF6 		.ascii	"v\211\316\366H\336\225 \261Kgj\210\355\325\331\245\350"
 280      48DE9520 
 280      B14B676A 
 280      88EDD5D9 
 280      A5E8
 281 00c4 D7163E7D 		.ascii	"\327\026>}\341G\344\005y|\\\262Xmv\207\323\345.\361"
 281      E147E405 
 281      797C5CB2 
 281      586D7687 
 281      D3E52EF1 
 282 00d8 784B7D7E 		.ascii	"xK}~<\376,rPX\017c\352\354\360\332\017\177\334\223N"
 282      3CFE2C72 
 282      50580F63 
 282      EAECF0DA 
 282      0F7FDC93 
 283 00ed A8B303A3 		.ascii	"\250\263\003\243\352\357\251\024\242\202\004\300.\004"
 283      EAEFA914 
 283      A28204C0 
 283      2E04
 284 00fb 19E119DA 		.ascii	"\031\341\031\332\340s\342%yr\021\371X\232]K\245&S\243"
 284      E073E225 
 284      797211F9 
 284      589A5D4B 
 284      A52653A3 
 285 010f B73FC24D 		.ascii	"\267?\302M\355\016P\320\342\"b\365\020\261y\211\330"
 285      ED0E50D0 
 285      E22262F5 
 285      10B17989 
 285      D8
 286 0120 7D441CE5 		.ascii	"}D\034\345|\020\340\203J^U\361\252\232I\035o\353y\325"
 286      7C10E083 
 286      4A5E55F1 
 286      AA9A491D 
 286      6FEB79D5 
 287 0134 C0641B6F 		.ascii	"\300d\033o\033y\325\304\244\231\267;y\325\302d\017\223"
 287      1B79D5C4 
 287      A499B73B 
 287      79D5C264 
 287      0F93
 288 0146 BDAC6F1F 		.ascii	"\275\254o\037\021g\033o\36739\300\204\274\261\301\200"
 288      11671B6F 
 288      F73339C0 
 288      84BCB1C1 
 288      80
 289 0157 AA0ED786 		.ascii	"\252\016\327\206p\214\202\002v\235\236#D\031\202\016"
 289      708C8202 
 289      769D9E23 
 289      4419820E 
 290 0167 94F86D59 		.ascii	"\224\370mY\2027\357\336\031~+\220\276\254K\315\236L"
ARM GAS  /tmp/cc3AplIV.s 			page 22


 290      8237EFDE 
 290      197E2B90 
 290      BEAC4BCD 
 290      9E4C
 291 0179 4DDB0042 		.ascii	"M\333\000Bx\026m$\211Z|\257\301o\352\240\352W\320%\243"
 291      78166D24 
 291      895A7CAF 
 291      C16FEAA0 
 291      EA57D025 
 292 018e 14C27374 		.ascii	"\024\302st\226\346\252\352\332wc\247\033\025to\207\011"
 292      96E6AAEA 
 292      DA7763A7 
 292      1B15746F 
 292      8709
 293 01a0 DAA94715 		.ascii	"\332\251G\025,\321,\207Y8}9\204\343\374b\354\010:\005"
 293      2CD12C87 
 293      59387D39 
 293      84E3FC62 
 293      EC083A05 
 294 01b4 BD00E4C0 		.ascii	"\275\000\344\300\332\320yG\276\375\371\324\367\226\214"
 294      DAD07947 
 294      BEFDF9D4 
 294      F7968C
 295 01c3 7D4BA17D 		.ascii	"}K\241}k\010'r\355\237\033\257\316\330\357\310\267?"
 295      6B082772 
 295      ED9F1BAF 
 295      CED8EFC8 
 295      B73F
 296 01d5 A1D93F9F 		.ascii	"\241\331?\237o\177\021\372\357\255&\247\336\266\030"
 296      6F7F11FA 
 296      EFAD26A7 
 296      DEB618
 297 01e4 1E684645 		.ascii	"\036hFE\225 \\ \333T\372\026\255\376k\340\013|_\035"
 297      95205C20 
 297      DB54FA16 
 297      ADFE6BE0 
 297      0B7C5F1D 
 298 01f8 39A820D7 		.ascii	"9\250 \327\275\320\343\253\345\225q\376e\372\334\257"
 298      BDD0E3AB 
 298      E59571FE 
 298      65FADCAF 
 299 0208 79BC00FD 		.ascii	"y\274\000\375\237]\031\272l\325tv\241\343=x\227\215"
 299      9F5D19BA 
 299      6CD57476 
 299      A1E33D78 
 299      978D
 300 021a 6B3E5324 		.ascii	"k>S$ezz\204\2622g\306\372\002\274q#\371\371\374S\205"
 300      657A7A84 
 300      B23267C6 
 300      FA02BC71 
 300      23F9F9FC 
 301 0230 7E75E11E 		.ascii	"~u\341\036\322\304\367\005.\204\340\305\376wP7\3412"
 301      D2C4F705 
 301      2E84E0C5 
 301      FE775037 
 301      E132
 302 0242 507A40D6 		.ascii	"Pz@\326\356\013\325\345\310r\012n\002\270\006\003\277"
ARM GAS  /tmp/cc3AplIV.s 			page 23


 302      EE0BD5E5 
 302      C8720A6E 
 302      02B80603 
 302      BF
 303 0253 64AEF3A1 		.ascii	"d\256\363\2415\273\212;H\355L\253\205\200\371\204\200"
 303      35BB8A3B 
 303      48ED4CAB 
 303      8580F984 
 303      80
 304 0264 F16C884B 		.ascii	"\361l\210K\010/\322B\340\000Y8\204p\032k\2625Za\245"
 304      082FD242 
 304      E0005938 
 304      84701A6B 
 304      B2355A61 
 305 0279 8235E2BF 		.ascii	"\2025\342\277\324Fx\256\256N\216\037\322\275\367<\012"
 305      D44678AE 
 305      AE4E8E1F 
 305      D2BDF73C 
 305      0A
 306 028a 931C6A80 		.ascii	"\223\034j\200p=1\314\253\012\016\177\204W\233\243\250"
 306      703D31CC 
 306      AB0A0E7F 
 306      84579BA3 
 306      A8
 307 029b 07BFD980 		.ascii	"\007\277\331\200aKV\240\244\354\333\231\037\177\272"
 307      614B56A0 
 307      A4ECDB99 
 307      1F7FBA
 308 02aa 6ECF2B3E 		.ascii	"n\317+>\365\354\207A\243}2\035\361\325\247\336LE\332"
 308      F5EC8741 
 308      A37D321D 
 308      F1D5A7DE 
 308      4C45DA
 309 02bd 41B49443 		.ascii	"A\264\224C\313\307^\255\352\326\246\027o\215\243D-\231"
 309      CBC75EAD 
 309      EAD6A617 
 309      6F8DA344 
 309      2D99
 310 02cf AEC2C715 		.ascii	"\256\302\307\025|\220=\023\251\2564\022S\025\025\035"
 310      7C903D13 
 310      A9AE3412 
 310      5315151D 
 311 02df C5FE5409 		.ascii	"\305\376T\011O\302\274\017\341%F$\214\222\261\326|\034"
 311      4FC2BC0F 
 311      E1254624 
 311      8C92B1D6 
 311      7C1C
 312 02f1 99AA0C61 		.ascii	"\231\252\014aR\304\273/\2558N\035o(~\210\034`]\216\264"
 312      52C4BB2F 
 312      AD384E1D 
 312      6F287E88 
 312      1C605D8E 
 313 0306 2ED13897 		.ascii	".\3218\227\215*\032L\316_9\355\322\021\363\222\022\276"
 313      8D2A1A4C 
 313      CE5F39ED 
 313      D211F392 
 313      12BE
ARM GAS  /tmp/cc3AplIV.s 			page 24


 314 0318 6C4FD1E3 		.ascii	"lO\321\343\023\345\263E?\363\031\036V\313\350\004-6"
 314      13E5B345 
 314      3FF3191E 
 314      56CBE804 
 314      2D36
 315 032a 8FA89E6B 		.ascii	"\217\250\236k\022\313\362\271S\301\032\031\323\372\250"
 315      12CBF2B9 
 315      53C11A19 
 315      D3FAA8
 316 0339 F95E358A 		.ascii	"\371^5\2128\315R\360a\341\367\334\327\016\215\3039\242"
 316      38CD52F0 
 316      61E1F7DC 
 316      D70E8DC3 
 316      39A2
 317 034b E7314594 		.ascii	"\3471E\224\277\346s\255a\252.\312\001\0130\352\212\244"
 317      BFE673AD 
 317      61AA2ECA 
 317      010B30EA 
 317      8AA4
 318 035d A98B6B61 		.ascii	"\251\213ka\011\006\356\336Y\276\216\005S\342\352J\326"
 318      0906EEDE 
 318      59BE8E05 
 318      53E2EA4A 
 318      D6
 319 036e 9470E74D 		.ascii	"\224p\347M\211z\231g\300r\336\2248\263=3%^\312\237\022"
 319      897A9967 
 319      C072DE94 
 319      38B33D33 
 319      255ECA9F 
 320 0383 CBDA94B8 		.ascii	"\313\332\224\270\251\305\361\310\337\035\017Y\205\233"
 320      A9C5F1C8 
 320      DF1D0F59 
 320      859B
 321 0391 3D0E720B 		.ascii	"=\016r\013\227\006\301\2021\010\312\315\031\004m\244"
 321      9706C182 
 321      3108CACD 
 321      19046DA4 
 322 03a1 2967107C 		.ascii	")g\020|p\312\350\354\300:\203\2003\331V8\010\002E\006"
 322      70CAE8EC 
 322      C03A8380 
 322      33D95638 
 322      08024506 
 323 03b5 810D4EFA 		.ascii	"\201\015N\372\315\035\004v\230\263\2331\010\270\"n\237"
 323      CD1D0476 
 323      98B39B31 
 323      08B8226E 
 323      9F
 324 03c6 7A5D1736 		.ascii	"z]\0276Bm\220\321\223\256\202\"\205\271\325\344\204"
 324      426D90D1 
 324      93AE8222 
 324      85B9D5E4 
 324      84
 325 03d7 CE2D1909 		.ascii	"\316-\031\011\2554'\241\373I\223\221P\2621\223\314\262"
 325      AD3427A1 
 325      FB499391 
 325      50B23193 
 325      CCB2
ARM GAS  /tmp/cc3AplIV.s 			page 25


 326 03e9 5145E71C 		.ascii	"QE\347\034\272MgT\257\223b\013_.Lqu\221\024;\340\033"
 326      BA4D6754 
 326      AF93620B 
 326      5F2E4C71 
 326      7591143B 
 327 03ff ABB92976 		.ascii	"\253\271)v\302\257hF\212\357G\305\206]\267b\000X\267"
 327      C2AF6846 
 327      8AEF47C5 
 327      865DB762 
 327      0058B7
 328 0412 7192DCB9 		.ascii	"q\222\334\271IZ\262\350r\365$*\262\202\220\203\177\303"
 328      495AB2E8 
 328      72F5242A 
 328      B2829083 
 328      7FC3
 329 0424 3AF85B59 		.ascii	":\370[Y\246\020\377\206\"\370\2738\032S\361w\303U0\253"
 329      A610FF86 
 329      22F8BB38 
 329      1A53F177 
 329      C35530AB 
 330 0438 C5A6CEFC 		.ascii	"\305\246\316\374\327-6t\313\310\3366sZ\354\000i\312"
 330      D72D3674 
 330      CBC8DE36 
 330      735AEC00 
 330      69CA
 331 044a 6DB12C1B 		.ascii	"m\261,\033\215t\236\223\342\246\015Z\254\2610\305ME"
 331      8D749E93 
 331      E2A60D5A 
 331      ACB130C5 
 331      4D45
 332 045c 525C02BB 		.ascii	"R\\\002\273\314\315\260\007\002\377\247\006\233\313"
 332      CCCDB007 
 332      02FFA706 
 332      9BCB
 333 046a C0D7FC0F 		.ascii	"\300\327\374\017\033l'\211\026k\260\226u\320\0272\205"
 333      1B6C2789 
 333      166BB096 
 333      75D01732 
 333      85
 334 047b E8B71441 		.ascii	"\350\267\024A\337\013^s\321/\005\2479?e/\375,i\242\032"
 334      DF0B5E73 
 334      D12F05A7 
 334      393F652F 
 334      FD2C69A2 
 335 0490 46BB615A 		.ascii	"F\273aZ\035\344/M\303\222\017\006\351\023\215/\336\030"
 335      1DE42F4D 
 335      C3920F06 
 335      E9138D2F 
 335      DE18
 336 04a2 6DD8F8AA 		.ascii	"m\330\370\252_|\315\335\244o\334\214\253G\350W%q\331"
 336      5F7CCDDD 
 336      A46FDC8C 
 336      AB47E857 
 336      2571D9
 337 04b5 7030D8DD 		.ascii	"p0\330\335\033\215\004\345\336\316c\301\316\310\313"
 337      1B8D04E5 
 337      DECE63C1 
ARM GAS  /tmp/cc3AplIV.s 			page 26


 337      CEC8CB
 338 04c4 41B95B09 		.ascii	"A\271[\011+\275\361`\"\326\327\363|0\021\211'\202\261"
 338      2BBDF160 
 338      22D6D7F3 
 338      7C301189 
 338      2782B1
 339 04d7 8478C723 		.ascii	"\204x\307#\321\0352X\303\364\336\275\241\020-HD\351"
 339      D11D3258 
 339      C3F4DEBD 
 339      A1102D48 
 339      44E9
 340 04e9 915FE8EB 		.ascii	"\221_\350\353\244K\335,\261\243\033\016\376\225P\344"
 340      A44BDD2C 
 340      B1A31B0E 
 340      FE9550E4 
 341 04f9 9544F089 		.ascii	"\225D\360\211\303\355\207\3323\262\275\261\310Q9\372"
 341      C3ED87DA 
 341      33B2BDB1 
 341      C85139FA 
 342 0509 645F8F4C 		.ascii	"d_\217L\012\374\207\333\237\256\015\207\342\221\027"
 342      0AFC87DB 
 342      9FAE0D87 
 342      E29117
 343 0518 634A53ED 		.ascii	"cJS\355\326f\220b\340\210F\242\275\261c\320z_\036%\272"
 343      D6669062 
 343      E08846A2 
 343      BDB163D0 
 343      7A5F1E25 
 344 052d 63915067 		.ascii	"c\221Pg\234t\376\011\277!m\236"
 344      9C74FE09 
 344      BF216D9E 
 345              		.text
 346              		.section	.gnu.lto_sem2_execute.part.2.e614f6b1eeeb5e13,"",%progbits
 347 0000 789CAD57 		.ascii	"x\234\255Wkl\024U\024\276gf\037\263\317\276\351\213"
 347      6B6C1455 
 347      14BE6766 
 347      1FB3CFBE 
 347      E98B
 348 0012 B62B8A0A 		.ascii	"\266+\212\012\024\006\012h\374%P4!\241\177hI\320?d;"
 348      14060A68 
 348      FC255034 
 348      21A17F68 
 348      49D03F64 
 349 0027 DDB413BB 		.ascii	"\335\264\023\273\224\354.\010\361\007S\026\224D4Mc\240"
 349      94EC2E08 
 349      F1075316 
 349      9444344D 
 349      63A0
 350 0039 82460C02 		.ascii	"\202F\014\002\015\"H\371\241\226\220\224\227\201\026"
 350      0D2248F9 
 350      A1969094 
 350      978116
 351 0048 299A0081 		.ascii	")\232\000\201\364\307\242\250\020\025\221h\"h\\\317"
 351      F4C7A2A8 
 351      10159168 
 351      22685CCF 
 352 0058 B97766B6 		.ascii	"\271wf\266t\267P\203\323\364\316\271\217\357\273\337"
ARM GAS  /tmp/cc3AplIV.s 			page 27


 352      74B75083 
 352      D3F4CEB9 
 352      8FEFBBDF 
 353 0068 39F7DCD3 		.ascii	"9\367\334\323\251\304$6\3669\212\277;\375\214\365\000"
 353      A9C42436 
 353      F6398ABF 
 353      3BFD8CF5 
 353      00
 354 0079 6390C720 		.ascii	"c\220\307 \330u\036\215 H\374-I\201K*3\274r\17753\374"
 354      D8751E8D 
 354      2048FC2D 
 354      49814B2A 
 354      33BC727F 
 355 0090 B2D973F0 		.ascii	"\262\331s\360\236\303\3549y\317\011^Bt*.)p\015p\330"
 355      9EC3EC39 
 355      79CF095E 
 355      42742A2E 
 355      29700D70 
 356 00a5 7DE81CC3 		.ascii	"}\350\034\303q\267\331UDW1\273\036\321\365\010\324q"
 356      71B7D955 
 356      445731BB 
 356      1ED1F508 
 356      D471
 357 00b7 C52BB9DE 		.ascii	"\305+\271\336:\216#^_2\200\343>\223\333\317\271\375"
 357      3A8E235E 
 357      5F3280E3 
 357      3E93DBCF 
 357      B9FD
 358 00c9 1010DC01 		.ascii	"\020\020\334\001\0002\030\260\015AIv8]n\305\343\365"
 358      003218B0 
 358      0D414976 
 358      385D6EC5 
 358      E3F5
 359 00db F903B0E1 		.ascii	"\371\003\260\341% g\224)\354C\303\330\221\332\263\377"
 359      25206794 
 359      29EC43C3 
 359      D891DAB3 
 359      FF
 360 00ec 266C7F67 		.ascii	"&l\177g\240s\227\361w:\015\240\323\244\006l\005Z\240"
 360      A07397F1 
 360      773A0DA0 
 360      D3A4066C 
 360      055AA0
 361 00ff F09704F7 		.ascii	"\360\227\004\367\207A\000\215O{\015'\007\311:\310\031"
 361      8741008D 
 361      4F7B0D27 
 361      07C93AC8 
 361      19
 362 0110 4CBEC048 		.ascii	"L\276\300H91\007{\015\331\302Lt\237\276^\303ca\034\031"
 362      3931077B 
 362      0DD9C24C 
 362      749FBE5E 
 362      C363611C 
 363 0125 4C48601C 		.ascii	"LH`\034\377\323>]\003W\006\267\226\033\2736v\031\377"
 363      FFD33E5D 
 363      035706B7 
 363      961BBB36 
ARM GAS  /tmp/cc3AplIV.s 			page 28


 363      7619FF
 364 0138 601C7470 		.ascii	"`\034tpJ\254\016&\262[\367\300\345\301\267\313\214]"
 364      4AAC0E26 
 364      B25BF7C0 
 364      E5C1B7CB 
 364      8C5D
 365 014a 9D165296 		.ascii	"\235\026R\226\33030\221xt\015\\\034\034\002\243\333"
 365      D8333091 
 365      78740D5C 
 365      1C1C02A3 
 365      DB
 366 015b E8BC9D4E 		.ascii	"\350\274\235N\347\351\340\222\330\242\207myH2R\351\364"
 366      E7E9E092 
 366      D8A2876D 
 366      79483252 
 366      E9F4
 367 016d DDA39EF9 		.ascii	"\335\243\236\371\300tpK\330(26\016\0076\036'u],\014"
 367      C074704B 
 367      D8283236 
 367      0E07361E 
 367      27755D2C 
 368 0182 7B610A73 		.ascii	"{a\012sc\207)\324xh\330K\226\217\032?6\336\000YAj\362"
 368      638729D4 
 368      7868D84B 
 368      968F1A3F 
 368      36DE0059 
 369 0199 08998F8D 		.ascii	"\010\231\217\215\\\200\310^D\026\342{?\276\213p\320"
 369      5C80C85E 
 369      4416E27B 
 369      3FBE8B70 
 369      D0
 370 01aa 574C4D89 		.ascii	"WLM\211\3119\211\000\245\324\224\021g9Y\025\324T\022"
 370      C9398900 
 370      A5D49411 
 370      67395915 
 370      D45412
 371 01bd E764B2AA 		.ascii	"\347d\262\252\250\2516\031j\250\023\302\006\257\015"
 371      A8A93619 
 371      6AA813C2 
 371      06AF0D
 372 01cc 73B24DE8 		.ascii	"s\262M\350tH\314\210\235\004+?!|\232\260\245\244m\202"
 372      7448CC88 
 372      9D042B3F 
 372      217C9AB0 
 372      A5A46D82 
 373 01e0 20BDE5E5 		.ascii	" \275\345\345 \361\367Wl\343\310\347}g\035a8\000N\326"
 373      20F1F757 
 373      6CE3C8E7 
 373      7D671D61 
 373      38004ED6 
 374 01f4 0A30931D 		.ascii	"\0120\223\0350\362u\010\354d;0\354h\005_c\367\214\036"
 374      30F27508 
 374      EC643B30 
 374      EC68055F 
 374      63F78C1E 
 375 0208 B2F2A29C 		.ascii	"\262\362\242\234\212b\227\307,\3135*\202Hv\365\275\357"
 375      8A6297C7 
ARM GAS  /tmp/cc3AplIV.s 			page 29


 375      2CCB352A 
 375      824876F5 
 375      BDEF
 376 021a 6E0CBA4C 		.ascii	"n\014\272L9\226.c\367^\325\326h\031\003C\327\373\012"
 376      39962E63 
 376      F75ED5D6 
 376      68190343 
 376      D7FB0A
 377 022d 9050ECAC 		.ascii	"\220P\354\254\001\347\326\200\237f+H3\330~\3030R\357"
 377      01E7D680 
 377      9F662B48 
 377      33D87EC3 
 377      3052EF
 378 0240 7E79E923 		.ascii	"~y\351#\2200\036\242o<\247C>I3HP\001I\333BVa\224\343"
 378      90301EA2 
 378      6F3CA743 
 378      3E493348 
 378      500149DB 
 379 0259 49502197 		.ascii	"IP!\227\322L\3350\034Fj\264\301\266\205\310\236\276"
 379      D24CDD30 
 379      1C466AB4 
 379      C1B685C8 
 379      9EBE
 380 026b 8A30F471 		.ascii	"\2120\364q\207e\2238\216\007m\023\027\241\000\342RL"
 380      87659338 
 380      8E076D13 
 380      17A100E2 
 380      524C
 381 027d 2E89F047 		.ascii	".\211\360G,|r\313\311\241\353\335\036+d\016$\241\305"
 381      2C7C72CB 
 381      C9A1EBDD 
 381      1E2B640E 
 381      24A1C5
 382 0290 9E343E14 		.ascii	"\2364>\024\230aVf\3159m\205\305\032]e\356\033\320\352"
 382      98615666 
 382      CD396D85 
 382      C51A5D65 
 382      EE1BD0EA 
 383 02a4 92331261 		.ascii	"\2223\022ai^\321a\222\006\346\021p\037\334\014\317\265"
 383      695ED161 
 383      9206E611 
 383      701FDC0C 
 383      CFB5
 384 02b6 946B3D7B 		.ascii	"\224k={\301-&\350`\360\231\217\252l\235e6}y\224G\216"
 384      C12D26E8 
 384      60F0998F 
 384      AA6C9D65 
 384      367D7994 
 385 02cc C0E539CE 		.ascii	"\300\3459\316\246\225\230\207\331\346\324\320\367`i"
 385      A6959887 
 385      D9E6D4D0 
 385      F76069
 386 02db 73D9E00A 		.ascii	"s\331\340\012M\270\306\304\010\305\2422\012\362(A\376"
 386      4DB8C6C4 
 386      08C5A232 
 386      0AF22841 
 386      FE
ARM GAS  /tmp/cc3AplIV.s 			page 30


 387 02ec DFE9264C 		.ascii	"\337\351&L&\216d\352\334f\2379\305l\212*\315\334M\207"
 387      268E64EA 
 387      DC669F39 
 387      C56C8A2A 
 387      CDDC4D87 
 388 0300 6A1EA3E1 		.ascii	"j\036\243\341\344g\333dk+7\356F4^\306\303\343\264\306"
 388      E467DB64 
 388      6B2B37EE 
 388      46345EC6 
 388      C3E3B4C6 
 389 0314 151B5FA3 		.ascii	"\025\033_\243\221\323\246\356\022\007at\274\247\354"
 389      91D3A6EE 
 389      12076174 
 389      BCA7EC
 390 0323 0CDBF4B3 		.ascii	"\014\333\364\263\255XY!\212h\346Y\216A\355\257\226y"
 390      AD585921 
 390      8A68E659 
 390      8E41EDAF 
 390      9679
 391 0335 E2A52FDC 		.ascii	"\342\245/\334{yl\216\275\371c]&\303\024\021\011\217"
 391      7B796C8E 
 391      BDF9635D 
 391      26C31411 
 391      098F
 392 0347 995A77DF 		.ascii	"\231Zw\337\270x\231\247\226\035\316\307l9\344\276)f"
 392      B87899A7 
 392      961DCEC7 
 392      6C39E4BE 
 392      2966
 393 0359 8A990332 		.ascii	"\212\231\0032\021\235\262s`8Y\030\206\223\\\226\027"
 393      119DB273 
 393      60385918 
 393      86935C96 
 393      17
 394 036a 39053275 		.ascii	"9\0052u\372H9\"f\260\351H\206\024\315 j\214\025\256"
 394      FA483922 
 394      66B0E948 
 394      8614CD20 
 394      6A8C15AE 
 395 037e D1BEFBC6 		.ascii	"\321\276\373\306\361\2353f\373\356\313\341\273\203\375"
 395      F19D3366 
 395      FBEECBE1 
 395      BB83FD
 396 038d EAE3BEDF 		.ascii	"\352\343\276\3378b\257\363\363\315\037\267}z\"\227O"
 396      3862AFF3 
 396      F3CD1FB7 
 396      7D7A2297 
 396      4F
 397 039e 95A64F4E 		.ascii	"\225\246ON\373\342&\207\355\303\012 I\256\303\012\216"
 397      FBE22687 
 397      EDC30A20 
 397      49AEC30A 
 397      8E
 398 03af 23D84598 		.ascii	"#\330E\230l\301\301\034\202\235\354\202C\246\024\032"
 398      6CC1C11C 
 398      829DEC82 
 398      43A6141A 
ARM GAS  /tmp/cc3AplIV.s 			page 31


 399 03bf D9E3CD4A 		.ascii	"\331\343\315J\241\251\032x\314\024z\222\261\363l\343"
 399      A1A91A78 
 399      CC147A92 
 399      B1F36CE3 
 400 03cf 6F374FF7 		.ascii	"o7O\367m\225\355#\265\203\010\370s\007}\301\204\227"
 400      6D95ED23 
 400      B58308F8 
 400      73077DC1 
 400      8497
 401 03e1 C5B74435 		.ascii	"\305\267D5KJ\357\033=\013tx\312\222\365t\210,{\376u"
 401      4B4AEF1B 
 401      3D0B7478 
 401      CA92F574 
 401      882C7BFE 
 402 03f6 737E9AE5 		.ascii	"s~\232\345\360\211\253#\373N\364v\303\330\214\371\370"
 402      F089AB23 
 402      FB4EF476 
 402      C3D88CF9 
 402      F8
 403 0407 931159CE 		.ascii	"\223\021Y\316\344\214W\344L\036\345\314\246\316\324"
 403      E48C57E4 
 403      4C1EE5CC 
 403      A6CED4
 404 0416 B1EE53DD 		.ascii	"\261\356S\335\340\320a\272]\036g\320f\265t3\035|\337"
 404      E0D061BA 
 404      5D1E67D0 
 404      66B57433 
 404      1D7CDF
 405 0429 5A33B42E 		.ascii	"Z3\264.\342\270l\227\234[\311`\030.\361\300\344\267"
 405      E2B86C97 
 405      9C5BC960 
 405      182EF1C0 
 405      E4B7
 406 043b 52F944FF 		.ascii	"R\371D\377\016\243\177\376\007\272\027\206o\320\340"
 406      0EA37FFE 
 406      07BA1786 
 406      6FD0E0
 407 044a EEB051EE 		.ascii	"\356\260Q\356\204\341\"\3352\363\344\260\032\335\272"
 407      84E122DD 
 407      32F3E4B0 
 407      1ADDBA
 408 0459 639F5E01 		.ascii	"c\237^\001n@\000\371T\221\035v\027\353+\240<\371)\231"
 408      6E4000F9 
 408      54911D76 
 408      17EB2BA0 
 408      3CF92999 
 409 046d DE566B2D 		.ascii	"\336Vk-\304\032W(\3606\266\030G\011\353[\310O\336\221"
 409      C41A5728 
 409      F036B618 
 409      4709EB5B 
 409      C84FDE91 
 410 0481 75443335 		.ascii	"uD35\3601\021\221b\035f\211\222rc\217\313\"(\031\267"
 410      F0311191 
 410      621D6689 
 410      9272638F 
 410      CB222819 
 411 0496 A4BC3A7E 		.ascii	"\244\274:~I\341\227i\337v;\317&!\017\317\277\264\365"
ARM GAS  /tmp/cc3AplIV.s 			page 32


 411      49E19769 
 411      DF763BCF 
 411      26210FCF 
 411      BFB4F5
 412 04a9 C086FB12 		.ascii	"\300\206\373\022\261t\234Dt\0238;\021Ks$\242\233\031"
 412      B1749C44 
 412      7413383B 
 412      114B7324 
 412      A29B19
 413 04bc 050FA81A 		.ascii	"\005\017\250\032\177,\313\252\032e\217P5\276\275\277"
 413      7F2CCBAA 
 413      1A658F50 
 413      35BEBDBF 
 414 04cc 6A5CE3B2 		.ascii	"j\\\343\262\312[\255\362\235:\335?m\242U\243b\034\337"
 414      CA5BADF2 
 414      9D3ADD3F 
 414      6DA255A3 
 414      621CDF
 415 04df 1562CCF6 		.ascii	"\025b\314\366\275\"\207\357\012\033\316\027U\243\337"
 415      BD2287EF 
 415      0A1BCE17 
 415      55A3DF
 416 04ee 5E57F9C8 		.ascii	"^W\371\310Uc2\222\344\252\032U\343\010\366\020&[pU\016"
 416      55633292 
 416      E4AA1A55 
 416      E308F610 
 416      265B7055 
 417 0503 C11EF601 		.ascii	"\301\036\366\001\011NnI\376\265M\265\026Vc\372\362\277"
 417      094E6E49 
 417      FEB54DB5 
 417      165663FA 
 417      F2BF
 418 0515 7160AFF3 		.ascii	"q`\257\363\262\333\3052\262\375\320\351\266V\211%\231"
 418      B2DBC532 
 418      B2FDD0E9 
 418      B6568925 
 418      99
 419 0526 0FBD2BAC 		.ascii	"\017\275+\254\320\374\303\350\354\225\221\304\363\247"
 419      D0FCC3E8 
 419      EC9591C4 
 419      F3A7
 420 0534 93903E76 		.ascii	"\223\220>vL\226)\227\177\211X\310\032[\267\252\361O"
 420      4C962997 
 420      7F8958C8 
 420      1A5BB7AA 
 420      F14F
 421 0546 2C53B797 		.ascii	",S\267\227gt\231\016\263\253Y\267,\212\312\034\353\250"
 421      6774990E 
 421      B3AB59B7 
 421      2C8ACA1C 
 421      EBA8
 422 0558 74A81BE3 		.ascii	"t\250\033\343OM\016\177\374\354 \010\177\276(\265\326"
 422      4F4D0E7F 
 422      FCEC2008 
 422      7FBE28B5 
 422      D6
 423 0569 85AC6B7B 		.ascii	"\205\254k{\266\210\307\317\225u\367\346j\020\310\310"
ARM GAS  /tmp/cc3AplIV.s 			page 33


 423      B688C7CF 
 423      9575F7E6 
 423      6A10C8C8 
 424 0579 F089AB1E 		.ascii	"\360\211\253\036\322a\236E\033\340\037t_\343?(\231\315"
 424      D2619E45 
 424      1BE01F74 
 424      5FE33F28 
 424      99CD
 425 058b 9AF0D307 		.ascii	"\232\360\323\007G\251j\250j[G4\242j\035-\353\325\226"
 425      47A96AA8 
 425      6A5B4734 
 425      A26A1D2D 
 425      EBD596
 426 059e C85A556B 		.ascii	"\310ZUk\323\233\365\216\270\232\210\255Y\365\212\232"
 426      D39BF58E 
 426      B89A88AD 
 426      59F58A9A 
 427 05ae 88C4136A 		.ascii	"\210\304\023j,\301\337\361Ht\226\306\344h\274\325\227"
 427      2CC1DFF1 
 427      487496C6 
 427      E468BCD5 
 427      97
 428 05bf 08C75A23 		.ascii	"\010\307Z#\211\225\011=\032\001\375\331\0072\240\201"
 428      8995093D 
 428      1A01FDD9 
 428      0732A081 
 429 05cf 787D95D6 		.ascii	"x}\225\326\276\246\005\027\265%\332b\221pK|V\033\233"
 429      BEA60517 
 429      B525DA62 
 429      91704B7C 
 429      561B9B
 430 05e2 F79F7071 		.ascii	"\367\237pq\255\255\005A\013\036\006\212\254K\250\365"
 430      ADAD0541 
 430      0B1E068A 
 430      AC4BA8F5 
 431 05f2 0D8D4B1A 		.ascii	"\015\215K\0323\330\216Xd\245\026}q\315*\015\011\362"
 431      33D88E58 
 431      64A5167D 
 431      71CD2A0D 
 431      09F2
 432 0604 1B1A9785 		.ascii	"\033\032\227\205\232\303\361\310\352\230^\033\232:\233"
 432      9AC3F1C8 
 432      EA985E1B 
 432      9A3A9B
 433 0613 4931E68E 		.ascii	"I1\346\216F\242\035\261\365\254\376a\344m\341vuuG,\021"
 433      46A21DB1 
 433      F5ACFE61 
 433      E46DE176 
 433      7575472C 
 434 0628 571B9B1A 		.ascii	"W\033\233\032\346\326\251K\227.V\233\2264\254\235\243"
 434      E6D6A94B 
 434      972E569B 
 434      9634AC9D 
 434      A3
 435 0639 C6132BDB 		.ascii	"\306\023+\333\333I\340\363\023\360JP,\\\326P\337\260"
 435      DB49E0F3 
 435      13F04A50 
ARM GAS  /tmp/cc3AplIV.s 			page 34


 435      2C5CD650 
 435      DFB0
 436 064b 0E177081 		.ascii	"\016\027p\201\024\313\030\342]\013\027\325/~\201\375"
 436      14CB18E2 
 436      5D0B17D5 
 436      2F7E81FD 
 437 065b 0BA16272 		.ascii	"\013\241br_"
 437      5F
 438              		.text
 439              		.section	.gnu.lto_sem2_execute.e614f6b1eeeb5e13,"",%progbits
 440 0000 789C7D53 		.ascii	"x\234}S\317k\023Q\020\376f\337\356f\223F\023s\363R\212"
 440      CF6B1351 
 440      10FE66DF 
 440      EE669346 
 440      1373F352 
 441 0015 478B5D28 		.ascii	"G\213](\376\037^Z\324c\262\011\315\252i\240I\005\361"
 441      FE1F5E5A 
 441      D463B209 
 441      CDAA69A0 
 441      4905F1
 442 0028 90579342 		.ascii	"\220W\223B\217\275\364\240\365\320\342\301_`\317\026"
 442      8FBDF4A0 
 442      F5D0E2C1 
 442      5F60CF16 
 443 0038 841C15A9 		.ascii	"\204\034\025\251\321C\025\304B\020zR\350]\2048\363\366"
 443      D14315C4 
 443      42107A52 
 443      E85D8438 
 443      F3F6
 444 004a 87B64D7D 		.ascii	"\207\266M}\2603ovg\276\371\276yo-X8\271\256\361s]\001"
 444      B0336F76 
 444      67BEF9BE 
 444      796F2D58 
 444      38B9AEF1 
 445 0061 B7D85306 		.ascii	"\267\330S\006d\255\177\000V<\313r?\373\3209\265;\011"
 445      64AD7F00 
 445      563CCB72 
 445      3FFBD039 
 445      B53B09
 446 0074 9D577164 		.ascii	"\235Wqd\233\310\216#\307D\016\271RB.\221x\020:\226\262"
 446      9BC88E23 
 446      C7440EB9 
 446      52422E91 
 446      78103A96 
 447 0089 1D973A37 		.ascii	"\035\227:7I\032\320%lk\275>\\}\371\216\036\352~oK\377"
 447      491AD025 
 447      6C6BBD3E 
 447      5C7DF98E 
 447      1EEA7E6F 
 448 009f 1E8D8842 		.ascii	"\036\215\210Bb2\263\204\200p\203\003\2322\316\262\217"
 448      6232B384 
 448      80708303 
 448      9A32CEB2 
 448      8F
 449 00b0 B3DBB1FA 		.ascii	"\263\333\261\372\303\321\350\361\376\326\367#*\225\024"
 449      C3D1E8F1 
 449      FED6F723 
ARM GAS  /tmp/cc3AplIV.s 			page 35


 449      2A9514
 450 00bf CAB4CD78 		.ascii	"\312\264\315x6BR\256\030OL\226\215\235\223]^L\201\215"
 450      364252AE 
 450      184F4C96 
 450      8D9D935D 
 450      5E4C818D 
 451 00d3 53941D03 		.ascii	"S\224\035\0038\350q\363\251\250\016\322\215\327\034"
 451      38E871F3 
 451      A9A80ED2 
 451      8DD71C
 452 00e2 5BE13A4F 		.ascii	"[\341:O\226x5\300\352\360\365!\225\351\0119X u\037\277"
 452      967835C0 
 452      EAF0F521 
 452      95E90939 
 452      5820751F 
 453 00f7 F49A2E86 		.ascii	"\364\232.\206\344\006d\012\020\275\321\255\2202\015"
 453      E406640A 
 453      10BDD1AD 
 453      90320D
 454 0106 42946808 		.ascii	"B\224h\010{\340FY`\017\335A\367\307\206J0l\206\221\357"
 454      7BE04659 
 454      600FDD41 
 454      F7C7864A 
 454      306C8691 
 455 011b F62859D4 		.ascii	"\366(Y\324\001\006p\222\0047m\222\013(:\026\311\237"
 455      01067092 
 455      04376D92 
 455      0B283A16 
 455      C99F
 456 012d 20290E29 		.ascii	" )\016)\017\274E\357g\312\311\225\217\352\337\321\314"
 456      0FBC45EF 
 456      67CAC995 
 456      8FEADFD1 
 456      CC
 457 013e 73B83BA9 		.ascii	"s\270;\251\366\360\340\353\267\315\375/N\2544\221\334"
 457      F6F0E0EB 
 457      B7CDFD2F 
 457      4EAC3491 
 457      DC
 458 014f 7F7F308B 		.ascii	"\177\1770\213\230i\020U.Pa\032/\264\326\303\203\347"
 458      98691055 
 458      2E50611A 
 458      2FB4D6C3 
 458      83E7
 459 0161 6FAEF090 		.ascii	"o\256\360\2206\361hE\013\205s)\031\221\027S9o\332T$"
 459      36F16845 
 459      0B857329 
 459      19911753 
 459      396FDA54 
 460 0176 2ED33311 		.ascii	".\3233\021\034\313,\225\351\251!Ud\304\250rx\370\352"
 460      1CCB2C95 
 460      E9A92155 
 460      64C4A872 
 460      78F8EA
 461 0189 22574CE3 		.ascii	"\"WL\3432\2031D%\236[<\251c\312\2753\224[\202xZ\271"
 461      32833144 
 461      259E5B3C 
ARM GAS  /tmp/cc3AplIV.s 			page 36


 461      A963CABD 
 461      33945B82 
 462 01a0 3746B98D 		.ascii	"7F\271\215\243\011\243|m'\315\313\232\346\205TSq\234"
 462      A309A37C 
 462      6D27CDCB 
 462      9AE68554 
 462      53719C
 463 01b3 A64CAC29 		.ascii	"\246L\254)\371\017DOzf9\0061gv\202p\376\014\302JjN\023"
 463      F90F444F 
 463      7A663906 
 463      31677682 
 463      70FE0CC2 
 464 01cb CE8F21EC 		.ascii	"\316\217!\354\340\243\315\327\254\353%\003I!/\004Q?"
 464      E0A3CDD7 
 464      ACEB2503 
 464      49212F04 
 464      513F
 465 01dd BE46A524 		.ascii	"\276F\245$\3335\267\362\023\377\206\1771\346x\242\374"
 465      DB35B7F2 
 465      13FF867F 
 465      31E678A2 
 465      FC
 466 01ee 56DAFB7E 		.ascii	"V\332\373~\275\331\250\371A\263z\317\257\326\356\372"
 466      BDD9A8F9 
 466      41B37ACF 
 466      AFD6EEFA 
 467 01fe 413DAC84 		.ascii	"A=\254\204\315\226\337^Z^\274\355\267k\255\266\277\324"
 467      CD96DF5E 
 467      5A5EBCED 
 467      B76BADB6 
 467      BFD4
 468 0210 36BE556B 		.ascii	"6\276Uk\314\004P\215\326\302\325\377\326\360\206+\302"
 468      CC04508D 
 468      D6C2D5FF 
 468      D6F0862B 
 468      C2
 469 0221 C5E0CE72 		.ascii	"\305\340\316r\225\223\352\255\240^\235\251\343\017w"
 469      9593EAAD 
 469      A05E9DA9 
 469      E30F77
 470 0230 ABEC1D   		.ascii	"\253\354\035"
 471              		.text
 472              		.section	.gnu.lto_sem3_execute.part.3.e614f6b1eeeb5e13,"",%progbits
 473 0000 789C8D52 		.ascii	"x\234\215R\317kSA\020\236\331\037m\222\326\037x\353"
 473      CF6B5341 
 473      109ED91F 
 473      6D92D61F 
 473      78EB
 474 0012 A5148F16 		.ascii	"\245\024\217\026\273\007=\371w\244\320\036\223M\232"
 474      BB073DF9 
 474      77A4D01E 
 474      934D9A
 475 0021 B7681A68 		.ascii	"\267h\032hRA<tc+x\354\241 \304\213\005\013\251\007\205"
 475      52413C74 
 475      632B78EC 
 475      A120C48B 
 475      050BA907 
ARM GAS  /tmp/cc3AplIV.s 			page 37


 476 0036 1E0B85DE 		.ascii	"\036\013\205\336\014\210\006\017U\020\017\357 \210 "
 476      0C88060F 
 476      55100FEF 
 476      208820
 477 0045 1E725384 		.ascii	"\036rS\2048\263\357\345\305\250\210\013of\336\354|3"
 477      38B3EFE5 
 477      C5A8880B 
 477      6F66DEEC 
 477      7C33
 478 0057 DFB7BB02 		.ascii	"\337\267\273\002\004\374\276n\320\367\211\322k\344q"
 478      04FCBE6E 
 478      D0F789D2 
 478      6BE471
 479 0066 0A50EFBE 		.ascii	"\012P\357\276\246@\243\010^\010\365\326\200/\310\343"
 479      A640A308 
 479      5E08F5D6 
 479      802FC8E3 
 480 0076 79F0B312 		.ascii	"y\360\263\022\025g\3339\205\310\001 li!\025n\255\"\367"
 480      1567DB39 
 480      85C80120 
 480      6C692115 
 480      6EAD22F7 
 481 008a 929761DF 		.ascii	"\222\227a\337\373N|\360\3653>\334;m?\366?\206CD\307"
 481      FB4E7CF0 
 481      F5333EDC 
 481      3B6D3FF6 
 481      3F864344 
 482 009f 9B166185 		.ascii	"\233\026a\205\"\314\005'p\222E\002\364\317\272^\006"
 482      22CC0527 
 482      70924502 
 482      F4CFBA5E 
 482      06
 483 00b0 90FC7FCC 		.ascii	"\220\374\177\314Q\327\347G\0309\306,$\0305\211y.|<\034"
 483      51D7E747 
 483      1839C62C 
 483      24183589 
 483      792E7C3C 
 484 00c5 7E1BE467 		.ascii	"~\033\344g\020\034*A\006$\033EFk\010cA\303\216\367\273"
 484      101C2A41 
 484      06241B45 
 484      466B0863 
 484      41C38EF7 
 485 00da 0BA119AD 		.ascii	"\013\241\031\255\"Y\226[D\315^.\243\010\276\017\367"
 485      2259965B 
 485      44CD5E2E 
 485      A308BE0F 
 485      F7
 486 00eb E3DE8B42 		.ascii	"\343\336\213B\011\237\320\006\300]\370\356\037\370\213"
 486      099FD006 
 486      C05DF8EE 
 486      1FF88B
 487 00fa 0EA72C26 		.ascii	"\016\247,&T9\223s8]GH\213\376\3148R\007\257\340\336"
 487      54399373 
 487      385D4748 
 487      8BFECC38 
 487      5207AFE0 
 488 010f FB0F9DB3 		.ascii	"\373\017\235\263w:\233\234\004\247/?^\203\264\322b\270"
ARM GAS  /tmp/cc3AplIV.s 			page 38


 488      773A9B9C 
 488      04A72F3F 
 488      5E83B4D2 
 488      62B8
 489 0121 BC1AE222 		.ascii	"\274\032\342\"<\365\336\307g\207'WI\303#\350\264=\217"
 489      3CF5DEC7 
 489      67872757 
 489      49C323E8 
 489      B43D8F
 490 0134 CD6704B8 		.ascii	"\315g\004\270=->\200B R\346\377\022\036\006\2364m\273"
 490      3D2D3E80 
 490      422052E6 
 490      FF121E06 
 490      9E346DBB 
 491 0148 BF7DA984 		.ascii	"\277}\251\204]\372\255\241\240\216\0112>\030\314\021"
 491      5DFAADA1 
 491      A08E0932 
 491      3E18CC11 
 492 0158 6211AE50 		.ascii	"b\021\256P3jQNe\214\004B\037t\022\327Pf\303f,\037{:"
 492      336A514E 
 492      658C0442 
 492      1F7412D7 
 492      5066C366 
 493 0170 6E567247 		.ascii	"nVrG\207\347\000z\260\363\005\263\362\225\344\025\214"
 493      87E7007A 
 493      B0F305B3 
 493      F295E415 
 493      8C
 494 0181 D732A18E 		.ascii	"\3272\241\216\347%+\357\015\262:\025\206\237\3174]\370"
 494      E7252BEF 
 494      0DB23A15 
 494      869FCF34 
 494      5DF8
 495 0193 9BA6E954 		.ascii	"\233\246\351T\323\3501\263\0369\352\240\251\011\027"
 495      D3E831B3 
 495      1E39EAA0 
 495      A90917
 496 01a2 4D12FEE5 		.ascii	"M\022\376\345v&\371*\206\004\276\011)\025n\366\015\275"
 496      7626F92A 
 496      8604BE09 
 496      29156EF6 
 496      0DBD
 497 01b4 F131D522 		.ascii	"\3611\325\"\235\003ey\2341Q\243^5\266Q\271c*\325\333"
 497      9D036579 
 497      9C3151A3 
 497      5E35B651 
 497      B9632AD5 
 498 01c9 C646AEEC 		.ascii	"\306F\256\354\032M\323\332\330\\\277iZ\325f\313l\264"
 498      1A4DD3DA 
 498      D85CBF69 
 498      5AD566CB 
 498      6CB4
 499 01db 826F56EB 		.ascii	"\202oV\353K\026\256\377\263\236\002\252v\353\366\326"
 499      4B16AEFF 
 499      B39E02AA 
 499      76EBF6D6 
 500 01eb 66858AA2 		.ascii	"f\205\212\242\246\215*K\021\374\004b\021\317\004"
ARM GAS  /tmp/cc3AplIV.s 			page 39


 500      A68D2A4B 
 500      11FC0462 
 500      11CF04
 501              		.text
 502              		.section	.gnu.lto_sem3_execute.e614f6b1eeeb5e13,"",%progbits
 503 0000 789C9554 		.ascii	"x\234\225T\335KTA\024?g\356\275\272\037n\373\241\346"
 503      DD4B5441 
 503      143F67EE 
 503      BDBA1F6E 
 503      FBA1E6
 504 0013 47253D27 		.ascii	"G%='y\0372\242\267\376\010\205\352m\235]\334Km\202\273"
 504      791F32A2 
 504      B7FE0885 
 504      EA6D9D5D 
 504      DC4B6D82 
 505 0028 06D183D7 		.ascii	"\006\321\203\327\326\310\247\220z\221\202 J\213\210"
 505      D6C8A790 
 505      7A918220 
 505      4A8B88
 506 0037 82420AF1 		.ascii	"\202B\012\361A\350!Ej\355A\003\321\330? \022z\210\360"
 506      41E82145 
 506      6AED4103 
 506      D1D83F20 
 506      127A88F0 
 507 004b C5CE993B 		.ascii	"\305\316\231;w\\\\\013\272p\317\234\2319\347w~\347\234"
 507      775C5C0B 
 507      BA70CF9C 
 507      9939E777 
 507      7EE79C
 508 005e 991120E0 		.ascii	"\231\021 \340\340w\201\376{6\300#\032\261\011PL\177"
 508      E07781FE 
 508      7B36C023 
 508      1AB10950 
 508      4C7F
 509 0070 06988808 		.ascii	"\006\230\210\010\341l\270\340\307\254\205\036\360[,"
 509      E16CB8E0 
 509      C7AC851E 
 509      F05B2C
 510 007f 3DB3D5CC 		.ascii	"=\263\325\314F\207\215\320A\344\021\020\306\205e;8~"
 510      46878DD0 
 510      41E41110 
 510      C685653B 
 510      387E
 511 0091 0915E46B 		.ascii	"\011\025\344k\261T\333\333{\365\363\356\323E\\\024m"
 511      B154DBDB 
 511      7BF5F3EE 
 511      D3455C14 
 511      6D
 512 00a2 023C048B 		.ascii	"\002<\004\213\004:$D\224\204\025#a\307YK\260H\362F\212"
 512      043A2444 
 512      94841523 
 512      61C7594B 
 512      B048F246 
 513 00b7 8493662D 		.ascii	"\204\223f-\303k\004\344\300\244\357O\237\004\220\012"
 513      C36B04E4 
 513      C0A4EF4F 
 513      9F04900A 
ARM GAS  /tmp/cc3AplIV.s 			page 40


 514 00c7 78802407 		.ascii	"x\200$\007\034D\301\243\365\011nm\375\376\261bg\361"
 514      1C44C1A3 
 514      F5096E6D 
 514      FDFEB162 
 514      67F1
 515 00d9 31410FA3 		.ascii	"1A\017\2438\015/\375\224\207M\017\341\301\3044k\315"
 515      380D2FFD 
 515      94874D0F 
 515      E1C1C434 
 515      6BCD
 516 00eb 3761D79F 		.ascii	"7a\327\237a-RT\020\027\221T\010\265h]\035\010lsks\243"
 516      612D5254 
 516      10179154 
 516      08B5685D 
 516      1D086C73 
 517 0102 DFC40C14 		.ascii	"\337\304\014\024\377\311\234[G$P\226V\267\337\246\011"
 517      FFC99C5B 
 517      47245096 
 517      56B7DFA6 
 517      09
 518 0113 2F082C51 		.ascii	"/\010,QAKT\305\035\306d/\274\360}\277\266>?{\212\222"
 518      414B54C5 
 518      1DC6642F 
 518      BCF07DBF 
 518      B63E3F7B 
 519 0129 0966FE79 		.ascii	"\011f\376y\017c\314\313g6q\3465\305ZKQy3\233\026\305"
 519      0F63CCCB 
 519      673671E6 
 519      35C55A4B 
 519      5179339B 
 520 013f 6388A759 		.ascii	"c\210\247Y\234#`\322\321\350\001\303\2317\335Y|\246"
 520      9C2360D2 
 520      D1E801C3 
 520      9937DD59 
 520      7CA6
 521 0151 B24D69E0 		.ascii	"\262Mi\340\022U\315\000'(<c\011\215%\330\377y\350_\231"
 521      1255CD00 
 521      27283C63 
 521      098D25D8 
 521      FF79E85F 
 522 0166 FAB0BA7D 		.ascii	"\372\260\272}?\032\326\313\"\0206V\014\252\320\031\256"
 522      3F1AD6CB 
 522      22103656 
 522      0CAAD019 
 522      AE
 523 0177 3B86DD11 		.ascii	";\206\335\021\251\372\300Y\011\266L.\013\366\343\375"
 523      A9FAC059 
 523      09B64C2E 
 523      0BF6E3FD 
 524 0187 88872989 		.ascii	"\210\207)\211\272\366\212?\231y\230V<W\326\232\203\015"
 524      BAF68A3F 
 524      99799856 
 524      3C57D69A 
 524      830D
 525 0199 EE087D67 		.ascii	"\356\010}g\211\221\341\2301\360\255EE\224\235[\017i"
 525      8991E198 
 525      31F0AD45 
ARM GAS  /tmp/cc3AplIV.s 			page 41


 525      45949D5B 
 525      0F69
 526 01ab CA302357 		.ascii	"\3120#W\341vm\361cL\307\001\343\333&\203\254@\223i/"
 526      E1766DF1 
 526      634CC701 
 526      E3DB2683 
 526      AC409369 
 527 01c0 A2A58D1A 		.ascii	"\242\245\215\032W<<\252;\374km\367rC7\277\235\331\357"
 527      573C3CAA 
 527      3BFC6B6D 
 527      F7724337 
 527      BF9DD9EF 
 528 01d4 65531039 		.ascii	"eS\0209\255\2338\177g\375+\212z\372\035\206\002\007"
 528      AD9B387F 
 528      67FD2B8A 
 528      7AFA1D86 
 528      0207
 529 01e6 D0A43B75 		.ascii	"\320\244;u\275-\006zo\352]\255d\262\370N\0255C\230\201"
 529      BD2D067A 
 529      6FEA5DAD 
 529      64B2F84E 
 529      15354398 
 530 01fb 676D76A7 		.ascii	"gmv\247\213<z\201NG\007A\014\241\255\274\303\024)e'"
 530      8B3C7A81 
 530      4E470741 
 530      0CA1ADBC 
 530      C3142965 
 531 0210 6C45D404 		.ascii	"lE\324\004\353\222\330lj\224DF\364\260\033`\031&\277"
 531      EB92D86C 
 531      6A944446 
 531      F4B01B60 
 531      1926BF
 532 0223 A331E74D 		.ascii	"\2431\347M\253\376z\017\322t\241\207\257\312\346\362"
 532      ABFE7A0F 
 532      D274A187 
 532      AFCAE6F2 
 533 0233 8EB18BA9 		.ascii	"\216\261\213\251\340\307LN\307\017\313\251]\347\344"
 533      E0C74C4E 
 533      C70FCBA9 
 533      5DE7E4
 534 0242 981B52A9 		.ascii	"\230\033R\251Z!B\234@\330\310>@8\361\027\302|n\342\215"
 534      5A21429C 
 534      40D8C83E 
 534      4038F117 
 534      C27C6EE2 
 535 0257 84138710 		.ascii	"\204\023\207\020\266a'nU\241\022i\350\371\011\251/\257"
 535      B661276E 
 535      55A11269 
 535      E8F909A9 
 535      2FAF
 536 0269 873DA1B5 		.ascii	"\207=\241\265\243\236\202/\364d\355c\014\320\211\246"
 536      A39E822F 
 536      F464ED63 
 536      0CD089A6 
 537 0279 553E5BAE 		.ascii	"U>[\256[\030)\346]9\222\273\341\346\362\327]Y\360\206"
 537      5B1829E6 
 537      5D3992BB 
ARM GAS  /tmp/cc3AplIV.s 			page 42


 537      E1E6F2D7 
 537      5D59F086 
 538 028d BC91925B 		.ascii	"\274\221\222[\036\035\273v\305-\347Kew\264\254\306R"
 538      1E1DBB76 
 538      C52DE74B 
 538      6577B4AC 
 538      C652
 539 029f BED827E1 		.ascii	"\276\330'\341\334?\355I!k\357\232\274:\226#\243B\271"
 539      DC3FED49 
 539      216BEF9A 
 539      BC3A9623 
 539      A342B9
 540 02b2 309ACFE6 		.ascii	"0\232\317\346J}\005\350\377/\277\222,\344\310\351\017"
 540      4A7D05E8 
 540      FF2FBF92 
 540      2CE4C8E9 
 540      0F
 541 02c3 E87742F0 		.ascii	"\350wB\360"
 542              		.text
 543              		.section	.gnu.lto_.symbol_nodes.e614f6b1eeeb5e13,"",%progbits
 544 0000 789C4D91 		.ascii	"x\234M\221\311n\023A\020\206\353\357\366\026;3\366@"
 544      C96E1341 
 544      1086EBEF 
 544      F6163B33 
 544      F640
 545 0012 60E2C4B1 		.ascii	"`\342\304\261\011\004r\343\3045\017\223'\251(#\261$"
 545      090472E3 
 545      C4350F93 
 545      27A92823 
 545      B124
 546 0024 02A344E2 		.ascii	"\002\243D\342\200\340\344\033\373\026\366}\300\006\003"
 546      80E0E41B 
 546      FB16F67D 
 546      C00603
 547 0033 4102C996 		.ascii	"A\002\311\226\020\022\220Qny\005\020\275)=s\371\364"
 547      10129051 
 547      6E790510 
 547      BD293D73 
 547      F9F4
 548 0045 55755557 		.ascii	"UuUW\365\010\022\324.\220\375\304Mp\201.n\0231_9\267"
 548      F50812D4 
 548      2E90FDC4 
 548      4D70812E 
 548      6E13315F 
 549 005b 5C7C0610 		.ascii	"\\|\006\020S\261\017\241 n\200)\227|\001\251\223\327"
 549      53B10FA1 
 549      206E8029 
 549      977C01A9 
 549      93D7
 550 006d 400596E2 		.ascii	"@\005\226\342\001X\372\244\270\016.\346\3646\270\224"
 550      0158FAA4 
 550      B80E2EE6 
 550      F436B894 
 551 007d D3FBE072 		.ascii	"\323\373\340rN\357\200EN\317\203+N\257\236]\026\217"
 551      4EEF8045 
 551      4ECF832B 
 551      4EAF9E5D 
ARM GAS  /tmp/cc3AplIV.s 			page 43


 551      168F
 552 008f C0C8651F 		.ascii	"\300\310e\037\203'r\272\013\256\356\037\206\270\013"
 552      832772BA 
 552      0BAEEE1F 
 552      86B80B
 553 009e AEE5B27B 		.ascii	"\256\345\262{\340\311\\v\013\034\3446x\212BQmp\013E"
 553      E0C95C76 
 553      0B1CE436 
 553      788A4251 
 553      6D700B45 
 554 00b2 8D7B2869 		.ascii	"\215{(i<DY\343\011*\012H\301\241\255XY\001^\201\353"
 554      3C4459E3 
 554      092A0A48 
 554      C1A1AD58 
 554      59015E81 
 555 00c7 DEDE821B 		.ascii	"\336\336\202\033\336\336\200#o\317\301\007\274\275\006"
 555      DEDE8023 
 555      6FCFC107 
 555      BCBD06
 556 00d6 1FF4F612 		.ascii	"\037\364\366\022<\345\355=\370\220\267w\340\303\336"
 556      3CE5ED3D 
 556      F890B777 
 556      E0C3DE
 557 00e5 3E80636F 		.ascii	">\200co_\300\323\336>\203\233\336\276\202g\274}\004"
 557      5FC0D3DE 
 557      3E839BDE 
 557      BE8267BC 
 557      7D04
 558 00f7 CF7A1B82 		.ascii	"\317z\033\202[\336>\201\347\274m\203\333\373&i\226\222"
 558      5BDE3E81 
 558      E7BC6D83 
 558      DBFB2669 
 558      9692
 559 0109 3FFF0CD3 		.ascii	"?\377\014\323\323{\035\343k\226\351\272\363\256\346"
 559      D37B1DE3 
 559      6B96E9BA 
 559      F3AEE6
 560 0118 1CA58E99 		.ascii	"\034\245\216\231c\262a\331sL\015\247)3lQ\262i\353{\243"
 560      63B261D9 
 560      734C0DA7 
 560      29336C51 
 560      B269EB7B 
 561 012d 7E49D20C 		.ascii	"~I\322\014%c\315&\365\014\3259\303\230\262\037\212\262"
 561      2563CD26 
 561      F50CD539 
 561      C398B21F 
 561      8AB2
 562 013f 43C96F35 		.ascii	"C\311o5\207lS\252Yr^R\3755\313G\254W\034'\034\253G\035"
 562      876C53AA 
 562      59725E52 
 562      FD35CB47 
 562      AC571C27 
 563 0157 E76D5DB5 		.ascii	"\347m]\265I\231fm\236\222\277\261\254\251\353\364z\223"
 563      4999666D 
 563      9E92BFB1 
 563      ACA9EBF4 
 563      7A93
ARM GAS  /tmp/cc3AplIV.s 			page 44


 564 0169 355AD5E1 		.ascii	"5Z\325\341\300\225\005\307l\333 \266\371@\215yf\267"
 564      C09505C7 
 564      6CDB20B6 
 564      F9408D79 
 564      66B7
 565 017b 20830E65 		.ascii	" \203\016e\206j\2545\315\032\355\254\217\314\271\244"
 565      866AAC35 
 565      CD1AEDAC 
 565      8FCCB9A4 
 566 018b 6B996DB4 		.ascii	"k\231m\264L\370\2734\321\261Av\0312<\241V\233\222a\213"
 566      4CF8BB34 
 566      D1B14176 
 566      19323CA1 
 566      569B9261 
 567 01a0 D24B2765 		.ascii	"\322K'e\030S\2729\222\206\337~Zv\177).\250N\232m\312"
 567      1853BA39 
 567      9286DF7E 
 567      5A767F29 
 567      2EA84E9A 
 568 01b6 2E681EA7 		.ascii	".h\036\247l\270\244\323\275\341X\030\016\324{h\352\377"
 568      6CB8A4D3 
 568      BDE15818 
 568      0ED47B68 
 568      EAFF
 569 01c8 11AA77D2 		.ascii	"\021\252w\322\003\252\262\324\320\375\257\372\202]\244"
 569      03AAB2D4 
 569      D0FDAFFA 
 569      825DA4
 570 01d7 1EDBBD35 		.ascii	"\036\333\2755\267N\031\364U\233zH\253\203%\331P\223"
 570      B74E19F4 
 570      559B7A48 
 570      AB8325D9 
 570      5093
 571 01e9 A9A8863E 		.ascii	"\251\250\206>\324X\264E\221k\022-\332\246\221\273,r"
 571      D458B445 
 571      916B122D 
 571      DAA691BB 
 571      2C72
 572 01fb 97470DDA 		.ascii	"\227G\015\332\031\214\005\375\007-V@C"
 572      198C05FD 
 572      072D5640 
 572      43
 573              		.text
 574              		.section	.gnu.lto_.refs.e614f6b1eeeb5e13,"",%progbits
 575 0000 789C854D 		.ascii	"x\234\205M[\016\2000\010+\335\313\031u\276?\275\377"
 575      5B0E8030 
 575      082BDDCB 
 575      1975BE3F 
 575      BDFF
 576 0012 65BC93B8 		.ascii	"e\274\223\2709\343\237\220B\333\320@\020'J\035\200\200"
 576      39E39F90 
 576      42DBD040 
 576      10274A1D 
 576      8080
 577 0024 3462FF36 		.ascii	"4b\3776]\355\252\341\304\274\256\277\247\004E\243\210"
 577      5DEDAAE1 
 577      C4BCAEBF 
ARM GAS  /tmp/cc3AplIV.s 			page 45


 577      A70445A3 
 577      88
 578 0035 8A96CEF6 		.ascii	"\212\226\316\3669\335\211\355\206\314\332\222\373\302"
 578      39DD89ED 
 578      86CCDA92 
 578      FBC2
 579 0043 A6CADCC8 		.ascii	"\246\312\334\310\327\215S\276\367\345\357s9s\341\312"
 579      D78D53BE 
 579      F7E5EF73 
 579      3973E1CA 
 580 0053 8DBBEE40 		.ascii	"\215\273\356@(o\230TGN\262\263\307\005\2766\004-"
 580      286F9854 
 580      474EB2B3 
 580      C705BE36 
 580      042D
 581              		.text
 582              		.section	.gnu.lto_.decls.e614f6b1eeeb5e13,"",%progbits
 583 0000 789CBD5C 		.ascii	"x\234\275\\\011p\024\327\231\356\356\231\321\201\004"
 583      097014D7 
 583      99EEEE99 
 583      D18104
 584 000f 0888BD64 		.ascii	"\010\210\275d\263\033\344T\222J9\016\342JL\266j\015"
 584      B31BE454 
 584      924A390E 
 584      E24A4CB6 
 584      6A0D
 585 0021 B6ECB5A9 		.ascii	"\266\354\265\251\230\204\022\244\342\335Tj\322\214\032"
 585      988412A4 
 585      E2DD546A 
 585      D28C1A
 586 0030 245B9767 		.ascii	"$[\227gZ`vS\345\2268\315\341\010qX`!\004\030\014$\004"
 586      5A607653 
 586      E59638CD 
 586      E1087158 
 586      60210418 
 587 0047 190C1602 		.ascii	"\031\014\026\002\301\200A\010d.q\212\3132G06\330\034"
 587      C1804108 
 587      642E718A 
 587      CB324730 
 587      36D81C
 588 005a E65A0EED 		.ascii	"\346Z\016\355\377\216\356y\375\246\273\247[Iv\252\336"
 588      FF8EEE79 
 588      FDA6BBA7 
 588      5B4976AA 
 588      DE
 589 006b EBF37DEF 		.ascii	"\353\363}\357\373\217\367\277\243\237$\011\222P\233"
 589      FB8FF7BF 
 589      A39F2409 
 589      92509B
 590 007a 22081DF0 		.ascii	"\"\010\035\360\373\353\357\004\341@\027A\350.\010\302"
 590      FBEBEF04 
 590      E1401741 
 590      E82E08C2 
 591 008a 3390E054 		.ascii	"3\220\340T\010@Z\002\351\005Q\020\206Az\031\322pH\277"
 591      08405A02 
 591      E9055110 
 591      86417A19 
ARM GAS  /tmp/cc3AplIV.s 			page 46


 591      D27048BF 
 592 009e 82340292 		.ascii	"\2024\002\222\017\236\015\021\310\257\017\244\034\270"
 592      0F9E0D11 
 592      C8AF0FA4 
 592      1CB8
 593 00ac F71B48BF 		.ascii	"\367\033H\277\205\024\204\024\2024\026\322\253\220\012"
 593      85148414 
 593      823416D2 
 593      AB900A
 594 00bb 2195407A 		.ascii	"!\225@z\023R9\244)\220\336\2024\013R\005\244*H\013!"
 594      135239A4 
 594      2990DE82 
 594      340B5205 
 594      A42A480B 
 595 00d0 55435A02 		.ascii	"UCZ\002i-\244\015\2206Aj\204\264\035\322\307\220vAj"
 595      692DA40D 
 595      9036416A 
 595      84B41DD2 
 595      C7907641 
 596 00e5 85740452 		.ascii	"\205t\004R\033\244\323\220\316AJ\205\372/\301\361\032"
 596      1BA4D390 
 596      CE414A85 
 596      FA2FC1F1 
 596      1A
 597 00f6 A45B88AB 		.ascii	"\244[\210\253\004\034!)\220^\207\364\007HS%\301\364"
 597      041C2129 
 597      905E87F4 
 597      07485325 
 597      C1F4
 598 0108 43FC7E48 		.ascii	"C\374~HeH\206\364\001\244J\270\227\004\307FH7\340\374"
 598      654886F4 
 598      01A44AB8 
 598      9704C746 
 598      4837E0FC 
 599 011c 3AE207E5 		.ascii	":\342\007\345\374p\375\020\316oC\232\015\327\353\320"
 599      FC70FD10 
 599      CE6F439A 
 599      0DD7EBD0 
 600 012c BB12D111 		.ascii	"\273\022\321\021\253\233\245\350\010\367\347@\232+\021"
 600      AB9BA5E8 
 600      08F7E740 
 600      9A2B11
 601 013b FD6D847B 		.ascii	"\375m\204{\377\005\347\271p\234'\305\364W\007)\012\317"
 601      FF05E7B9 
 601      709C27C5 
 601      F4570729 
 601      0ACF
 602 014d E7C3BD2A 		.ascii	"\347\303\275*\211\350y\021\244\005p>\233\352\367\001"
 602      89E87911 
 602      A405703E 
 602      9BEAF701 
 603 015d 1CBBC2F5 		.ascii	"\034\273\302\365\0268O\243\234\027\302u\215D\364\224"
 603      16384FA3 
 603      9C17C275 
 603      8D44F494 
 604 016d 43F55445 		.ascii	"C\365TEuVM\365\210t\2128\263\372@\372a\177\250,\230"
 604      75564DF5 
ARM GAS  /tmp/cc3AplIV.s 			page 47


 604      88748A38 
 604      B3FA40FA 
 604      617FA82C 
 605 0182 5FF81AD2 		.ascii	"_\370\032\322R\312u+\334[\017i\031\\7\3001\215\226\361"
 605      52CA752B 
 605      DC5B0F69 
 605      195C37C0 
 605      318D96F1 
 606 0196 D1F71BA9 		.ascii	"\321\367\033\251M\220*G\211\361\230A\252?\026\017\351"
 606      4D902A47 
 606      89F19841 
 606      AA3F160F 
 606      E9
 607 01a7 61238715 		.ascii	"a#\207\025\244X\210\273(\304\343\214\245\374\253\244"
 607      A45888BB 
 607      28C4E38C 
 607      A5FCABA4 
 608 01b7 980F2EA2 		.ascii	"\230\017.\242\357H\364\371v\233\262\257&(\373\252C\331"
 608      EF48F4F9 
 608      769BB2AF 
 608      2628FBAA 
 608      43D9
 609 01c9 C204650B 		.ascii	"\302\004e\013\035\312\"\277O\207\343{\022\221\261\211"
 609      1DCA22BF 
 609      4F87E37B 
 609      1291B189 
 610 01d9 FA846E63 		.ascii	"\372\204nc+\177\320u\342\247\345wQ?_hS\007jC]\005\242"
 610      2B7FD075 
 610      E2A7E577 
 610      513F5F68 
 610      53076A43 
 611 01f0 6384C5E2 		.ascii	"c\204\305\342#\256K\341\\\205c\204\321\273^\027\342"
 611      23AE4BE1 
 611      5C856384 
 611      D1BB5E17 
 611      E2
 612 0201 3F018ECF 		.ascii	"?\001\216\317S\031\021\326r\311\\\337\037\270\372~C"
 612      531911D6 
 612      72C95CDF 
 612      1FB8FA7E 
 612      43
 613 0212 FD70156A 		.ascii	"\375p\025jG\014_\211>+\241\345\376\223+\367&m[\210K"
 613      470C5F89 
 613      3E2BA1E5 
 613      FE932BF7 
 613      266D5B88 
 614 0227 3781E805 		.ascii	"7\201\350\005qF\355\213mo\215\214\256\2272\372f\345"
 614      7146ED8B 
 614      6D6F8D8C 
 614      AE9732FA 
 614      66E5
 615 0239 8AD03681 		.ascii	"\212\3206\201\332\032j\027n\332\3450\256-\"\177D\276"
 615      DA1A6A17 
 615      6EDAE530 
 615      AE2D227F 
 615      44BE
 616 024b A8CBE1A7 		.ascii	"\250\313\341\247\272`\333WW\312{\265Dl\274^\"\261\246"
ARM GAS  /tmp/cc3AplIV.s 			page 48


 616      BA60DB57 
 616      57CA7BB5 
 616      446CBC5E 
 616      22B1A6
 617 025e 826B7348 		.ascii	"\202ksH\356z\211\370o\011\325\017\333\316\330\037\212"
 617      EE7A89F8 
 617      6F09D50F 
 617      DBCED81F 
 617      8A
 618 026f 753FA572 		.ascii	"u?\245r\353zh\026\211\334i\224\307\020\252\213d\252"
 618      EB7A6816 
 618      89DC6994 
 618      C710AA8B 
 618      64AA
 619 0281 23D41E11 		.ascii	"#\324\036\021&+\247S\354a\345\334Juy\224\261\273\036"
 619      262BA753 
 619      EC61E5DC 
 619      4A757994 
 619      B1BB1E
 620 0294 4F56C3FD 		.ascii	"OV\303\375+b\314O\266\301\375\223\234\256\243HvH7\245"
 620      2B62CC4F 
 620      B6C1FD93 
 620      9CAEA348 
 620      764837A5 
 621 02a8 580CE063 		.ascii	"X\014\340c\3267p}F$|Y\375\325!?\021\210\177\235\220"
 621      D637707D 
 621      46247C59 
 621      FDD5213F 
 621      11887F9D 
 622 02bd 88BCE59C 		.ascii	"\210\274\345\234\356\220\217\243\330]E\365zK\"q\374"
 622      EE908FA3 
 622      D85D45F5 
 622      7A4B2271 
 622      FC
 623 02ce 8144E20A 		.ascii	"\201D\342\012\212a\247\305\304\261\013\365\037\275\250"
 623      8A61A7C5 
 623      C4B10BF5 
 623      1FBDA8
 624 02dd 0E75BDEA 		.ascii	"\016u\275\352\261\033\351R\327\203\217\352\202\365\037"
 624      B11BE952 
 624      D7838FEA 
 624      82F51F
 625 02ec 5E0F1DF0 		.ascii	"^\017\035\360l\"\265#+C\200\326s\204\341Zn\323.Q_\226"
 625      6C22B523 
 625      2B4380D6 
 625      7384E15A 
 625      6ED32E51 
 626 0302 C1D9B991 		.ascii	"\301\331\271\221rA\234\0208\342s\236\251\237\345\244"
 626      72419C10 
 626      38E2739E 
 626      A99FE5A4 
 627 0312 73E139F8 		.ascii	"s\3419\370)\3669Z\177\205M\375\250\037\355#\374}\372"
 627      29F6395A 
 627      7F854DFD 
 627      A81FED23 
 627      FC7DFA
 628 0325 32D69FEC 		.ascii	"2\326\237\354x\263\234Exg:\255\313\316\037R)G\326\027"
ARM GAS  /tmp/cc3AplIV.s 			page 49


 628      78B39C45 
 628      78673AAD 
 628      CBCE1F52 
 628      2947D617 
 629 0339 829C5C6F 		.ascii	"\202\234\\o\271\260{\2320]\323\312\265\332)\332K\315"
 629      B9B07B9A 
 629      305DD3CA 
 629      B5DA29DA 
 629      4BCD
 630 034b DD7A0AB3 		.ascii	"\335z\012\2635\370e6\203\306_\021e\261[\252\360{|\222"
 630      35F86536 
 630      83C65F11 
 630      65B15BAA 
 630      F07B7C92 
 631 035f 9E8A0DF0 		.ascii	"\236\212\015\360\003\341=M\253h_~V\314\224\305\245b"
 631      03E13D4D 
 631      AB685F7E 
 631      56CC94C5 
 631      A562
 632 0371 4F885A3F 		.ascii	"O\210Z?\023\205'\205UP\250B\323v|\217\003\307\277D\240"
 632      13852785 
 632      5550A842 
 632      D3767C8F 
 632      03C7BF44 
 633 0386 12D2912C 		.ascii	"\022\322\221,\256\0008Y\\.>Ij\321\242\247\226\240Z\320"
 633      AE003859 
 633      5C2E3E49 
 633      6AD1A2A7 
 633      96A05AD0 
 634 039a 6D813EB0 		.ascii	"m\201>\260\370=!\324\242w\317\\L\325*\323-j\032\252"
 634      F83D21D4 
 634      A277CF5C 
 634      4CD52AD3 
 634      2D6A1AAA 
 635 03ae D79412A3 		.ascii	"\327\224\022\243\177|\312\376\331\342$M\203\007\253"
 635      7F7CCAFE 
 635      D9E2244D 
 635      8307AB
 636 03bd B10C3345 		.ascii	"\261\0143E\321T\003\305\251\035j\007$\301\260\000\025"
 636      D15403C5 
 636      A91D6A07 
 636      24C1B000 
 636      15
 637 03ce 59C3716E 		.ascii	"Y\303qn\337\334r\244L,\303\320k\\\020/\217\036\235\262"
 637      DFDC72A4 
 637      4C2CC3D0 
 637      6B5C102F 
 637      8F1E9DB2 
 638 03e2 E8DB5AED 		.ascii	"\350\333Z\355\0161\221\031j\375z\375\317\307\00496e"
 638      0E319119 
 638      6AFD7AFD 
 638      CFC70439 
 638      3665
 639 03f4 A7A86929 		.ascii	"\247\250i)\262\270\016\213q\316Z\014{\030I\370\022\027"
 639      B2B80E8B 
 639      71CE5A0C 
 639      7B1849F8 
ARM GAS  /tmp/cc3AplIV.s 			page 50


 639      1217
 640 0406 D91027C6 		.ascii	"\331\020'\306\214\263\272\030\033\\\211q\237\212!\213"
 640      8CB3BA18 
 640      1B5C8971 
 640      9F8A218B 
 641 0416 1F802812 		.ascii	"\037\200(\022x\233\216K+\316\324\353E\376HO\311\217"
 641      789B8E4B 
 641      2BCED4EB 
 641      45FE484F 
 641      C98F
 642 0428 BE60C67B 		.ascii	"\276`\306{\324\224^!\353`\017<\203e\232\300\346\354"
 642      D4945E21 
 642      EB600F3C 
 642      83659AC0 
 642      E6EC
 643 043a AEC6E452 		.ascii	"\256\306\344R\205i1\035\013\226`T\261\357\264\356?$"
 643      8569311D 
 643      0B966054 
 643      B1EFB4EE 
 643      3F24
 644 044c 4EC4F237 		.ascii	"N\304\3627B1I\370D2\253\326=T\333\374]\333\305r\014"
 644      423149F8 
 644      4432ABD6 
 644      3D54DBFC 
 644      5DDBC572 
 645 0461 15C550F7 		.ascii	"\025\305P\367:\0155o\341\226\237cs\177\214\201>\362"
 645      3A0D356F 
 645      E1969F63 
 645      737F8C81 
 645      3EF2
 646 0473 99816431 		.ascii	"\231\201d1\331P\243q\255\277\200\320\360cz\202\246("
 646      D950A371 
 646      ADBF80D0 
 646      F0637A82 
 646      A628
 647 0485 DD857FF0 		.ascii	"\335\205\177\360\353\222\260\303\347\302t)v~\240\265"
 647      EB92B0C3 
 647      E7C27429 
 647      767EA0B5 
 648 0495 37CCB828 		.ascii	"7\314\270(.\320\242\223|z\223L\262\323\221$\354\301"
 648      2ED0A293 
 648      7C7A934C 
 648      B2D39124 
 648      ECC1
 649 04a7 7535F3BE 		.ascii	"u5\363\276|\270\346j9\365\345fW\276\374Q\313;\356\232"
 649      7CB8E66A 
 649      39F5E566 
 649      57BEFC51 
 649      CB3BEE9A 
 650 04bb A4A4D7FF 		.ascii	"\244\244\327\377}\\\377\014?\252\177\037_\377\247\347"
 650      7D5CFF0C 
 650      3FAA7F1F 
 650      5FFFA7E7 
 651 04cb 3E7FA64A 		.ascii	">\177\246J\3232\310\243\304\325\177\320:7\276zY|\346"
 651      D332C8A3 
 651      C4D57FD0 
 651      3A37BE7A 
ARM GAS  /tmp/cc3AplIV.s 			page 51


 651      597CE6
 652 04de 3127D738 		.ascii	"1'\3278\\\263\373\006\025\362\020n3G\375\274s\014I3"
 652      5CB3FB06 
 652      15F2106E 
 652      3347FDBC 
 652      730C4933 
 653 04f2 9B0FAE99 		.ascii	"\233\017\256\231\027$\341\254A\277SM\026\344l\036\266"
 653      1724E1AC 
 653      41BF534D 
 653      16E46C1E 
 653      B6
 654 0503 6A9DA6BD 		.ascii	"j\235\246\275\225\244s\370\3143b\246I\023\037\266\342"
 654      95A473F8 
 654      CC3362A6 
 654      49131FB6 
 654      E2
 655 0514 2040C02E 		.ascii	" @\300.\270\001\263\365\244\362\350F\026\354\222g03"
 655      B801B3F5 
 655      A4F2E846 
 655      16EC9267 
 655      3033
 656 0526 B37A16EC 		.ascii	"\263z\026\354\0137`\031\366\314\032X\260\253\236\301"
 656      0B376019 
 656      F6CC1A58 
 656      B0AB9EC1 
 657 0536 CCCCB6B0 		.ascii	"\314\314\266\260`\327\334\200\365\266g\266\225\005\373"
 657      60D7DC80 
 657      F5B667B6 
 657      9505FB
 658 0545 C6339899 		.ascii	"\3063\230\231\331A\026\354\256\033\260L\013f\306\317"
 658      D94116EC 
 658      AE1BB04C 
 658      0B66C6CF 
 659 0555 AA1C72EB 		.ascii	"\252\034r\353OD\303\317%\341\276_\017\011\036}Z\210"
 659      4F44C3CF 
 659      25E1BE5F 
 659      0F091E7D 
 659      5A88
 660 0567 6174F8BD 		.ascii	"at\370\275\2060\223\334\320\227\376u\2118g\242\326\334"
 660      863093DC 
 660      D097FE75 
 660      893867A2 
 660      D6DC
 661 0579 4FEFCF26 		.ascii	"O\357\317&\007\\ :8\314\302\335L\3478\3133\030\347\312"
 661      075C203A 
 661      38CCC2DD 
 661      4CE738CB 
 661      3318E7CA 
 662 058d 08CC146B 		.ascii	"\010\314\024kh\207\324\276<\332\273*\026\355Rt,4\304"
 662      6887D4BE 
 662      3CDABB2A 
 662      16ED5274 
 662      2C34C4
 663 05a0 23A10D46 		.ascii	"#\241\015F|\222\361\262\326\273\267\365\273\262\370"
 663      7C92F1B2 
 663      D6BBB7F5 
 663      BBB2F8
ARM GAS  /tmp/cc3AplIV.s 			page 52


 664 05af 95F803C8 		.ascii	"\225\370\003\310\277\026S\015\026\344\\?\353\020\221"
 664      BF16530D 
 664      16E45C3F 
 664      EB1091
 665 05be 9EE705AC 		.ascii	"\236\347\005\254\006\217\030\300\271\250\235'\\a=a\241"
 665      068F18C0 
 665      B9A89D27 
 665      5C613D61 
 665      A1
 666 05cf 1B353934 		.ascii	"\033594\205OwW\377\223\326\036\025\031y\035\225\003"
 666      854F7757 
 666      FF93D61E 
 666      1519791D 
 666      9503
 667 05e1 6388CA7D 		.ascii	"c\210\312}\372\030\342&\356\257\227\004,;~\027Pm\363"
 667      FA18E226 
 667      EEAF9704 
 667      2C3B7E17 
 667      506DF3
 668 05f4 D7FC1877 		.ascii	"\327\374\030w\374\2671\320\352N\003\315[X3\030\003\335"
 668      FCB731D0 
 668      EA4E03CD 
 668      5B583318 
 668      03DD
 669 0606 C340EB02 		.ascii	"\303@\353\002|'!r#\010\321\334\307\033\272\247\252\377"
 669      7C272172 
 669      2308D1DC 
 669      C71BBAA7 
 669      AAFF
 670 0618 47BD2B09 		.ascii	"G\275+\011[x{\231\304I\030m` \376p\266x\263\\\253\352"
 670      5B787B99 
 670      C449186D 
 670      6020FE70 
 670      B678B35C 
 671 062e E7C162AD 		.ascii	"\347\301b\255\237\350\026{\204\365\2633N?\267=*\010"
 671      9FE8167B 
 671      84F5B333 
 671      4E3FB73D 
 671      2A08
 672 0640 468E9E05 		.ascii	"F\216\236\005\371\221Y\220\031;+\275\013b\270\336D\011"
 672      F9915990 
 672      193B2BBD 
 672      0B62B8DE 
 672      4409
 673 0652 0972E4EF 		.ascii	"\011r\344\357 \310i\317\202\364c\004As\212[\225$\016"
 673      20C869CF 
 673      82F46304 
 673      41738A5B 
 673      95240E
 674 0665 F6122A9D 		.ascii	"\366\022*\235\307r\210\3174\251\227y:\330\266\027M\007"
 674      C77288CF 
 674      34A99779 
 674      3AD8B617 
 674      4D07
 675 0677 D1EDC4D3 		.ascii	"\321\355\304\323\301;{\231\021\277\346j\304_y@W\331"
 675      C13B7B99 
 675      11BFE66A 
ARM GAS  /tmp/cc3AplIV.s 			page 53


 675      C45F7940 
 675      57D9
 676 0689 0CACB2F3 		.ascii	"\014\254\262\363V\215\314\025T\333\261\235\037\320\021"
 676      568DCC15 
 676      54DBB19D 
 676      1FD011
 677 0698 FFDB18EA 		.ascii	"\377\333\030\352r\247\241\346\235\374\210\264\327\331"
 677      72A7A1E6 
 677      9DFC88B4 
 677      D7D9
 678 06a6 18E87A9C 		.ascii	"\030\350z\234\031\2238+&\231\255\010\227\250\246\273"
 678      1993382B 
 678      2699AD08 
 678      97A8A6BB 
 679 06b6 683C2EBE 		.ascii	"h<.\276I\357\240\213d\341\377\275\034\364\306\230>\262"
 679      49EFA08B 
 679      64E1FFBD 
 679      1CF4C698 
 679      3EB2
 680 06c8 60674698 		.ascii	"`gF\230\310\203.V\352=)1Ry\322\337\202X\036]?C\237\266"
 680      C8832E56 
 680      EA3D2931 
 680      5279D2DF 
 680      82581E5D 
 681 06e0 0E417DE9 		.ascii	"\016A}\351\214\277\021\356P\213\347\211f\345\021\335"
 681      8CBF11EE 
 681      508BE789 
 681      66E511DD 
 682 06f0 ED166289 		.ascii	"\355\026b\211*\223x\023G\371\226\352f\336U\323YI\214"
 682      2A937813 
 682      47F996EA 
 682      66DE55D3 
 682      59498C
 683 0703 9F242C4F 		.ascii	"\237$,Or\321ef:\230\253\345\0165W\302\311\233\2760\323"
 683      72D16566 
 683      3A98ABE5 
 683      0E3557C2 
 683      C99BBE30 
 684 0718 D4544617 		.ascii	"\324TF\027fj%\264\242\261\212\323\206\213Y`=.\262L\212"
 684      666A25B4 
 684      A2B18AD3 
 684      868B5960 
 684      3D2EB24C 
 685 072d 5BD1D8A7 		.ascii	"[\321\330\247\257h\240g.f\201\246\025\015Y\334$J\024"
 685      AF68A067 
 685      2E6681A6 
 685      150D59DC 
 685      244A14
 686 0740 B7B31A35 		.ascii	"\267\263\0325\0311F\020r\011\215\217VHO\260\332o\366"
 686      19314610 
 686      72098D8F 
 686      56484FB0 
 686      DA6FF6
 687 0753 ACFD4C56 		.ascii	"\254\375LV\373\321\373-\325\"\341O\326\270Zy\274\241"
 687      FBD1FB2D 
 687      D522E14F 
 687      D6B85A79 
ARM GAS  /tmp/cc3AplIV.s 			page 54


 687      BCA1
 688 0765 ECD8959E 		.ascii	"\354\330\225\236\376\310\326\232\321\312\375x\320I\332"
 688      FEC8D69A 
 688      D1CAFD78 
 688      D049DA
 689 0774 DD1937E4 		.ascii	"\335\0317\344\372\331\201\225Gk\010\030q\371\363\236"
 689      FAD98195 
 689      476B0818 
 689      71F9F39E 
 690 0784 C1324D60 		.ascii	"\3012M`\215o\273[B\323Dv8,\011_\341z\353xOi\273sp*\365"
 690      8D6FBB5B 
 690      42D34476 
 690      382C095F 
 690      E17AEB78 
 691 079f 943A179E 		.ascii	"\224:\027\236\002\235\015^{\324\365\2742YGu\320\263"
 691      029D0D5E 
 691      7BD4F5BC 
 691      32594775 
 691      D0B3
 692 07b1 959FE82B 		.ascii	"\225\237\350+i\227\367\210\030\216\014\357\353x8\217"
 692      6997F788 
 692      188E0CEF 
 692      EB78388F 
 693 07c1 D3DE474A 		.ascii	"\323\336GJs?o\212!m1zj\023\352"
 693      733F6F8A 
 693      216D317A 
 693      6A13EA
 694 07d0 6E37E166 		.ascii	"n7\341fX\237\314\007%\242\031\306\237\353\030\177^\207"
 694      589FCC07 
 694      25A219C6 
 694      9FEB187F 
 694      5E87
 695 07e2 FD793DF8 		.ascii	"\375y=\3703\230\025\347\037\261\276m\327\343\327K\314"
 695      339815E7 
 695      1FB1BE6D 
 695      D7E3D74B 
 695      CC
 696 07f3 783DEA59 		.ascii	"x=\352Y\356L\316:v\325\254e\253\331\235\354\302\367"
 696      EE4CCE3A 
 696      76D5AC65 
 696      ABD99DEC 
 696      C2F7
 697 0805 06DBAA17 		.ascii	"\006\333\252\027\302\312\3219z\227DV\012\017yF4{\363"
 697      C2CAD139 
 697      7A974456 
 697      0A0F7946 
 697      347BF3
 698 0818 F5B74D5D 		.ascii	"\365\267M]\322i7pC-\010Z\375\330\225^0\012\236\226\325"
 698      D2693770 
 698      432D085A 
 698      FDD8955E 
 698      300A9E96 
 699 082d 8BC8400D 		.ascii	"\213\310@\0158\337\202\363\3358\277\204\363\3138\377"
 699      38DF82F3 
 699      DD38BF84 
 699      F3CB38FF 
 700 083d 12E73770 		.ascii	"\022\3477p\376\020\347\345\330\254Sq\276\030\347+q\276"
ARM GAS  /tmp/cc3AplIV.s 			page 55


 700      FE10E7E5 
 700      D8AC5371 
 700      BE18E72B 
 700      71BE
 701 084f 1AE77FC6 		.ascii	"\032\347\177\306\371_p\276\025\347Q7\016@\002\255\341"
 701      F95F70BE 
 701      15E75137 
 701      0E4002AD 
 701      E1
 702 0860 667ACC5D 		.ascii	"fz\314]\323\351U\344c\261UdY\334\354\031\214\367(\223"
 702      D3E955E4 
 702      63B15564 
 702      59DCEC19 
 702      8CF72893 
 703 0874 26D7309A 		.ascii	"&\3270\232\\\2135Y\2075\263\303\034\306/$\353\3376:"
 703      5C8B3559 
 703      8735B3C3 
 703      1CC62F24 
 703      EBDF363A 
 704 0888 130EB4F6 		.ascii	"\023\016\264\366\311g\275\217d\217\352C\212]8\276^\211"
 704      C967BD8F 
 704      648FEA43 
 704      8A5D38BE 
 704      5E89
 705 089a 6BBD6858 		.ascii	"k\275hXj\022\306\3230\356\006/\222\333\220d\255\310"
 705      6A12C6D3 
 705      30EE062F 
 705      92DB9064 
 705      ADC8
 706 08ac 158C2257 		.ascii	"\025\214\"WbE\256\302\212\334\351\306e\226\304\346\370"
 706      6245AEC2 
 706      8ADCE9C6 
 706      6596C4E6 
 706      F8
 707 08bd A628F7B8 		.ascii	"\246(\367\2700\217\252K\023U\322k\331A\354\225\036\307"
 707      308FAA4B 
 707      1355D26B 
 707      D941EC95 
 707      1EC7
 708 08cf 673EFC09 		.ascii	"g>\374\011^\240\013\243\277\366%\254{\217drWS\375=\204"
 708      5EA00BA3 
 708      BFF625AC 
 708      7B8F6472 
 708      5753FD3D 
 709 08e4 0AF205A9 		.ascii	"\012\362\005\251\252\033Y\250\240 \031:\210DA\366I="
 709      AA1B59A8 
 709      A020193A 
 709      884441F6 
 709      493D
 710 08f6 F099C9BE 		.ascii	"\360\231\311\276\370\015\273j\367K\261\305\220\364\324"
 710      F80DBB6A 
 710      F74BB1C5 
 710      90F4D4
 711 0905 D8899880 		.ascii	"\330\211\230\200\356'\222\265\252(\325L\216i?\275|\022"
 711      EE2792B5 
 711      AA28D54C 
 711      8E693FBD 
ARM GAS  /tmp/cc3AplIV.s 			page 56


 711      7C12
 712 0917 2D7FD033 		.ascii	"-\177\3203\323C6L\003\011\230\036\2101\355#\324h\321"
 712      D343364C 
 712      0309981E 
 712      8831ED23 
 712      D468D1
 713 092a 6BEDD73B 		.ascii	"k\355\327;>\377v\015Z[\326\036u\274)\022\233AW\233b"
 713      3EFF760D 
 713      5A5BD61E 
 713      75BC2912 
 713      9B41579B 
 714 093f 76ECEF0B 		.ascii	"v\354\357\013\3134\255R\273\227\373\022\015\236u\370"
 714      CB34AD52 
 714      BB97FB12 
 714      0D9E75F8 
 715 094f 8556A98F 		.ascii	"\205V\251\217eU\372\222\370\017\205\345H\240\306\013"
 715      6555FA92 
 715      F80F85E5 
 715      48A0C60B 
 716 095f 235E229E 		.ascii	"#^\"\236\"8\024\242\024\017K\246m\011\204f\364\304\201"
 716      223814A2 
 716      140F4BA6 
 716      6D098466 
 716      F4C481
 717 0972 F48AB2F6 		.ascii	"\364\212\262\366\216\216>:\303u\316\014e\361\250\204"
 717      8E8E3E3A 
 717      C375CE0C 
 717      65F1A884 
 718 0982 82D2F1CE 		.ascii	"\202\322\361\3160\264+D\031\236\260dX\275\227c\330\340"
 718      30B42B44 
 718      199EB064 
 718      58BD9763 
 718      D8E0
 719 0994 8EE1A9CE 		.ascii	"\216\341\251\3160\264+D\031\236\266d\330\272\237c\270"
 719      30B42B44 
 719      199EB664 
 719      D8BA9F63 
 719      B8
 720 09a5 C31DC34F 		.ascii	"\303\035\303O;\303\320\256\020e\330n\311\260\255\351"
 720      3BC3D0AE 
 720      1065D86E 
 720      C9B0ADE9 
 721 09b5 6D08C9E5 		.ascii	"m\010\311\345\321\216\216!\002\027gl>\322 \254\0134"
 721      D18E8E21 
 721      0217676C 
 721      3ED220AC 
 721      0B34
 722 09c7 CCC4428B 		.ascii	"\314\304B\213$\354\345D3Xj+5\037FC\357\237\227\372\260"
 722      24ECE544 
 722      33586A2B 
 722      351F4643 
 722      EF9F97FA 
 723 09dc 2C64F1A2 		.ascii	",d\361\242%\255\272&Cq\027\260\342\216\273B\277\304"
 723      25ADBA26 
 723      437117B0 
 723      E28EBB42 
 723      BFC4
ARM GAS  /tmp/cc3AplIV.s 			page 57


 724 09ee A37F6E89 		.ascii	"\243\177n\211^\271\227C?\347\012\375\013\036\375KK\364"
 724      5EB99743 
 724      3FE70AFD 
 724      0B1EFD4B 
 724      4BF4
 725 0a00 FAFD1CFA 		.ascii	"\372\375\034\372UW\350Wy\364\257\254\320\333\257\277"
 725      5557E857 
 725      79F4AFAC 
 725      D0DBAFBF 
 726 0a10 DFF68B3F 		.ascii	"\337\366\213?\353\321\243L\023\335\033\355\272\271o"
 726      EBD1A34C 
 726      13DD1BED 
 726      BAB96F
 727 0a1f E8C45E89 		.ascii	"\350\304^\211\350\266&4\216\376\006\217\243\327\244"
 727      E8B62634 
 727      8EFE068F 
 727      A3D7A4
 728 0a2e 26FC406F 		.ascii	"&\374@o\202@\024\356p\363\223\350\346\246t\315O\356"
 728      824014EE 
 728      70F393E8 
 728      E6A674CD 
 728      4FEE
 729 0a40 279E9B34 		.ascii	"'\236\23346\351\263@\262[#\212\031\334\211\015\253M"
 729      36E9B340 
 729      B25B238A 
 729      19DC890D 
 729      AB4D
 730 0a52 F5799EC5 		.ascii	"\365y\236\305\336aF\375w\361\250\377\236\233^\373f,"
 730      DE6146FD 
 730      77F1A8FF 
 730      9E9B5EFB 
 730      662C
 731 0a64 C09B7A5A 		.ascii	"\300\233zZ\030\217\247Z5\366\350\235\326\215\320\344"
 731      188FA75A 
 731      35F6E89D 
 731      D68DD0E4 
 732 0a74 24525212 		.ascii	"$RR\022\216\340\267\256\331\266x\212O]\246M\033\321"
 732      8EE0B7AE 
 732      D9B6788A 
 732      4F5DA64D 
 732      1BD1
 733 0a86 DB70996B 		.ascii	"\333p\231k\274\313\334\267v\231\216\203C\0261\035\016"
 733      BCCBDCB7 
 733      76998E83 
 733      4316311D 
 733      0E
 734 0a97 F1CA13A9 		.ascii	"\361\312\023\251n\274\262\203\257B\363Y\006\272\275"
 734      6EBCB283 
 734      AF42F359 
 734      06BABD
 735 0aa6 335388D3 		.ascii	"3S\210\323\273\367\307\211\276\370 r\321\232T\205\231"
 735      BBF7C789 
 735      BEF82072 
 735      D19A5485 
 735      99
 736 0ab7 54B98F23 		.ascii	"T\271\217#5\311\212\224\006\"\247j0\320\323$]\346{\256"
 736      35C98A94 
ARM GAS  /tmp/cc3AplIV.s 			page 58


 736      0622A76A 
 736      30D0D324 
 736      5DE67BAE 
 737 0acb 649EC2C3 		.ascii	"d\236\302\303O\265\224\371\306~\3572O\267\220yJ\027"
 737      4FB594F9 
 737      C67EEF32 
 737      4FB79079 
 737      4A17
 738 0add 3732BFC5 		.ascii	"72\277\305\223\232\341R\346\205\326\360\234\314\263"
 738      939AE152 
 738      E685D6F0 
 738      9CCCB3
 739 0aec 78F8B7E3 		.ascii	"x\370\267\343\341\333+\332\027\257\337\376\235\252u"
 739      E1DB2BDA 
 739      17AFDFFE 
 739      9DAA75
 740 0afb DA24E24A 		.ascii	"\332$\342J&\271S\204\251xE\177\262V&\276n4\027\233/"
 740      26B95384 
 740      A978457F 
 740      B25626BE 
 740      6E34179B 
 741 0b10 6DB258E9 		.ascii	"m\262X\351KA\316\337\305\366;\031z\001\375Pyr\256\237"
 741      4B41CEDF 
 741      C5F63B19 
 741      7A01FD50 
 741      7972AE9F 
 742 0b24 397C269B 		.ascii	"9|&\233\355\343\306\277\201\324\3309E\344Z\351\3118"
 742      EDE3C6BF 
 742      81D4D839 
 742      45E45AE9 
 742      C938
 743 0b36 FD9097DE 		.ascii	"\375\220\227\336\261R@\364n\323LM4\207\367K6\000\013"
 743      B15240F4 
 743      6ED34C4D 
 743      3487F74B 
 743      36000B
 744 0b49 2C35D8D0 		.ascii	",5\330\320\262?i\201\266c\022\030\351M\301\360K\033"
 744      B23F6981 
 744      B6631218 
 744      E94DC1F0 
 744      4B1B
 745 0b5b 88772D21 		.ascii	"\210w-!\336\273\331,N\253\324\036tt\370<\364\331\213"
 745      DEBBD92C 
 745      4EABD41E 
 745      7474F83C 
 745      F4D98B
 746 0b6e 78D5A0E9 		.ascii	"x\325\240\351\206q\261\213\014o9\335LO\263\346Uk\311"
 746      8671B18B 
 746      0C6F39DD 
 746      4C4FB3E6 
 746      556BC9
 747 0b81 EB4EC3F6 		.ascii	"\353N\303\366g\026Y;\007\231\267\332Q[\312S\033b0s\277"
 747      6716593B 
 747      0799B7DA 
 747      515BCA53 
 747      1B623073 
 748 0b96 FA7C7CEB 		.ascii	"\372||\353g\377\266\026oMY\356CS\222)\351\374L1\300"
ARM GAS  /tmp/cc3AplIV.s 			page 59


 748      67FFB616 
 748      6F4D59EE 
 748      43539229 
 748      E9FC4C31 
 749 0bab 4D1403E6 		.ascii	"M\024\003\346\211b 5v\022\333\"dpj$K\327V\275'\031\335"
 749      89622035 
 749      7612DB22 
 749      64706A24 
 749      4BD756BD 
 750 0bc2 397003CD 		.ascii	"9p\003\315\374\353*\314m\265\017\177\347\216\343\266"
 750      FCEB2ACC 
 750      6DB50F7F 
 750      E78EE3B6 
 751 0bd2 47E276B4 		.ascii	"G\342v\264p\0232N;\361\246\232\227nm\252\277\330\264"
 751      7013324E 
 751      3BF1A69A 
 751      976E6DAA 
 751      BFD8B4
 752 0be5 E33D76ED 		.ascii	"\343=v\355\230\264\023;S\325\33170N%\314\364+\016e\275"
 752      98B4133B 
 752      53D5D937 
 752      304E25CC 
 752      F42B0E65 
 753 0bfa 2FCD44D2 		.ascii	"/\315D\322$\311\3736\222|h)\311\205\033\235i\014\033"
 753      24C9FB36 
 753      927C6829 
 753      C9851B9D 
 753      690C1B
 754 0c0d AD1A03C7 		.ascii	"\255\032\003\307\243\321\206G\275%\217\232\365\327\377"
 754      A3D18647 
 754      BD258F9A 
 754      F5D7FF
 755 0c1c D968D7EE 		.ascii	"\331h\327\356\2114\360D\276\306\337.MD\366\330\020\331"
 755      8934F044 
 755      BEC6DF2E 
 755      4D44F6D8 
 755      10D9
 756 0c2e 6249E4E2 		.ascii	"bI\344\342\327\315\242\035\021\247\245\203\255.T\322"
 756      D7CDA21D 
 756      11A7A583 
 756      AD2E54D2 
 757 0c3e 66C3246A 		.ascii	"f\303$j\031+\357M\231\371mm\011\231[\220\370#\011\347"
 757      192BEF4D 
 757      99F96D6D 
 757      09995B90 
 757      F82309E7 
 758 0c52 6D107658 		.ascii	"m\020vX\"T\355f\242\355F\014p\323\006`\247\2452n7\\"
 758      2254ED66 
 758      A2ED460C 
 758      70D30660 
 758      A7A5326E 
 759 0c68 1ED209AB 		.ascii	"\036\322\011\2534\231uA\203\2206E\373\321\312X\0202"
 759      34997541 
 759      83903645 
 759      FBD1CA58 
 759      1032
 760 0c7a 2D7F18BB 		.ascii	"-\177\030\273q?z\022\177\343l\3061H\353j\271\271!1P"
ARM GAS  /tmp/cc3AplIV.s 			page 60


 760      713F7A12 
 760      7FE36CC6 
 760      3148EB6A 
 760      B9B92131 
 761 0c8f 6DDBFCC7 		.ascii	"m\333\374\307\321\300\270\005\303L\357,L\373\274\205"
 761      D1C0B805 
 761      C34CEF2C 
 761      4CFBBC85 
 762 0c9f EF935D96 		.ascii	"\357\223]\226\3731\320\234\256|\334\361q1\321g\216\211"
 762      FB31D09C 
 762      AE7CDCF1 
 762      7131D167 
 762      8E89
 763 0cb1 BED4D809 		.ascii	"\276\324\330\011ja\377\300\2279W\253\351jm\347C\226"
 763      6A61FFC0 
 763      973957AB 
 763      E96A6DE7 
 763      4396
 764 0cc3 765EFE75 		.ascii	"v^\376uTdzU\342k\253l \016[\372\332\234\3351o\365\320"
 764      54647A55 
 764      E26BAB6C 
 764      200E5BFA 
 764      DA9CDD31 
 765 0cda 6C8E3A76 		.ascii	"l\216:v\253\315>\253n\365C\033b'lb\365\345\357\330v"
 765      ABCD3EAB 
 765      6EF5431B 
 765      62276C62 
 765      F5E5EFD8 
 766 0cef ABA8023B 		.ascii	"\253\250\002;j'-\006\233\273l\252>e\251\223[Slu\342"
 766      6A272D06 
 766      9BBB6CAA 
 766      3E65A993 
 766      5B536C75 
 767 0d04 D4499C71 		.ascii	"\324I\234q\032\205Q\225$P\321\021\033\236\237Y\252h"
 767      1A855195 
 767      2450D111 
 767      1B9E9F59 
 767      AA68
 768 0d16 D7CDCEC5 		.ascii	"\327\315\316\305\274\363\216\306\243\353\261\034\263"
 768      BCF38EC6 
 768      A3EBB11C 
 768      B3
 769 0d23 AB36CCFE 		.ascii	"\2536\314\376jf\366=a\211\026=\010s\257\023SE\230\030"
 769      6A66F63D 
 769      6189163D 
 769      0873AF13 
 769      53459818 
 770 0d37 37C3FCB5 		.ascii	"7\303\374\265\243C\354\243\317]\037\032(vs\345\317)"
 770      A343ECA3 
 770      CF5D1F1A 
 770      287673E5 
 770      CF29
 771 0d49 DE2061BD 		.ascii	"\336 a\2756-\232I\012\222\365d\343\326j|\013\255\325"
 771      362D9A49 
 771      0A92F564 
 771      E3D66A7C 
 771      0BADD5
ARM GAS  /tmp/cc3AplIV.s 			page 61


 772 0d5c FF8FF0BF 		.ascii	"\377\217\360\277Z\012\327\003\257\266Y\325F\350Wb=\360"
 772      5A0AD703 
 772      AFB659D5 
 772      46E85762 
 772      3DF0
 773 0d6e 8F852775 		.ascii	"\217\205'u\244K\276\357\321*br\241o\000\030\235\024"
 773      A44BBEEF 
 773      D12A6272 
 773      A16F0018 
 773      9D14
 774 0d80 727C5B20 		.ascii	"r|[ +\335t\221]WC\035\362\341{O\325\227#\037\326\356"
 774      2BDD7491 
 774      5D57431D 
 774      F2E17B4F 
 774      D597231F 
 775 0d96 76881D3E 		.ascii	"v\210\035>}\235\266\271\233\3019\352\2643\330X\312\216"
 775      7D9DB6B9 
 775      9BC139EA 
 775      B433D858 
 775      CA8E
 776 0da8 5B218821 		.ascii	"[!\210!\231v\005\303\274\331\327C\260\376IBy7\336\206"
 776      997605C3 
 776      BCD9D743 
 776      B0FE4942 
 776      7937DE86 
 777 0dbc B2F84DCC 		.ascii	"\262\370M\314~\2104x\325\346\226\216]b\245V\253\333"
 777      7E883478 
 777      D5E6968E 
 777      5D62A556 
 777      ABDB
 778 0dce CEEA6BA3 		.ascii	"\316\352k\243Og\211\276\351\032\235\300WK\350G\213\333"
 778      4F6789BE 
 778      E91A9DC0 
 778      574BE847 
 778      8BDB
 779 0de0 3E64ECC9 		.ascii	">d\354\311\\u\011\201$a6.r\317\027\367\345\177\327d"
 779      5C750981 
 779      2461362E 
 779      72CF17F7 
 779      E57FD764 
 780 0df4 FA3D173D 		.ascii	"\372=\027=K\274f\262\350\030Y3\261\250\262\335\370R"
 780      4BBC66B2 
 780      E8185933 
 780      B1A8B2DD 
 780      F852
 781 0e06 FA2F0CF7 		.ascii	"\372/\014\367\246\243\237Q\356\0171\367w\023s7\003I"
 781      A6A39F51 
 781      EE0F31F7 
 781      77137337 
 781      0349
 782 0e18 C24A5C44 		.ascii	"\302J\\D\363\307q?2\211rG\317\022s?\334j\376\352\277"
 782      F3C7713F 
 782      32897247 
 782      CF12733F 
 782      DC6AFEEA 
 783 0e2d D1C0A515 		.ascii	"\321\300\245\025{\374\032}\204l\332%\2376\267\362`\236"
 783      7BFC1A7D 
ARM GAS  /tmp/cc3AplIV.s 			page 62


 783      846CDA25 
 783      9F36B7F2 
 783      609E
 784 0e3f BE456BD1 		.ascii	"\276Ek\321\023\004\254\0313\333\345\031,\323\304\354"
 784      1304AC19 
 784      33DBE519 
 784      2CD3C4EC 
 785 0e4f D34AF35F 		.ascii	"\323J\363_\234\264\270\301s\330T{\255\225\331T{\330"
 785      9CB4B8C1 
 785      73D8547B 
 785      AD95D954 
 785      7BD8
 786 0e61 339899DC 		.ascii	"3\230\231\334m\026\354\224\0330\253\255\247V?\326Id"
 786      6D16EC94 
 786      1B30ABAD 
 786      A7563FD6 
 786      4964
 787 0e73 B1DC8FD6 		.ascii	"\261\334\217\326\334&\372\321\367\262\3118\237\212\363"
 787      DC26FAD1 
 787      F7B2C938 
 787      9F8AF3
 788 0e82 B7703E03 		.ascii	"\267p>\003\347\263\374\246\017\222\027\215Vb\351\212"
 788      E7B3FCA6 
 788      0F92178D 
 788      5662E98A 
 789 0e92 895C428B 		.ascii	"\211\\B\213n\260o\036\026\353\237\320\262/\226\211\223"
 789      6EB06F1E 
 789      16EB9FD0 
 789      B22F9689 
 789      93
 790 0ea3 B10BCFF6 		.ascii	"\261\013\317\366#\303\177\231\270u\230p$\241\254;*1"
 790      23C37F99 
 790      B8759870 
 790      24A1AC3B 
 790      2A31
 791 0eb5 37AE71B4 		.ascii	"7\256q\264<\234H\033\307\\\027\215\243<z\357\217.\377"
 791      3C9C481B 
 791      C75C178D 
 791      A33C7AEF 
 791      8F2EFF
 792 0ec8 D6CAD0C8 		.ascii	"\326\312\320\310\267\0309\232\316\352\1774\266\000\313"
 792      B718399A 
 792      CEEA7F34 
 792      B600CB
 793 0ed7 51D53DA1 		.ascii	"Q\325=\241\034f h\345\270Hu\274 WuA\252]\011\262\351"
 793      1C662068 
 793      E5B84875 
 793      BC205775 
 793      41AA5D09 
 794 0eed 8FBAEF57 		.ascii	"\217\272\357W\371\221\207m2p\035<\314\326\244\345\321"
 794      F991876D 
 794      32701D3C 
 794      CCD6A4E5 
 794      D1
 795 0efe 8603D85D 		.ascii	"\206\003\330]\011\330v\317`f\337o<P\335[\253\335.\352"
 795      09D876CF 
 795      6066DF6F 
ARM GAS  /tmp/cc3AplIV.s 			page 63


 795      3C50DD5B 
 795      ABDD2EEA 
 796 0f12 03FA3D3C 		.ascii	"\003\372=<\236i\320\235(j\224G\267\036\3407\250\273"
 796      9E69D09D 
 796      286A9447 
 796      B71EE037 
 796      A8BB
 797 0f24 9F94BCEF 		.ascii	"\237\224\274\357\357\304\267]\303qO\227\321m\234+\260"
 797      EFC4B75D 
 797      C3714F97 
 797      D16D9C2B 
 797      B0
 798 0f35 625A3983 		.ascii	"bZ9\203sC\007T\227\035\217?\371-;b\253g\020/\334\030"
 798      73430754 
 798      971D8F3F 
 798      F92D3B62 
 798      AB67102F 
 799 0f4b C0E90F0E 		.ascii	"\300\351\017\016Z\276Y\246\357I\301\237A\317\273\001"
 799      5ABE59A6 
 799      EF49C19F 
 799      41CFBB01 
 800 0f5b B40A8D56 		.ascii	"\264\012\215V?\326\177e\261\006\007\240\3058\320,\301"
 800      3FD67F65 
 800      B10607A0 
 800      C538D02C 
 800      C1
 801 0f6c F9329C2F 		.ascii	"\3712\234/\307\371\0326\364\330\351\006y\235\201]\353"
 801      C7F91A36 
 801      F4D8E906 
 801      799D815D 
 801      EB
 802 0f7d 976853EF 		.ascii	"\227hS\357\234'?\210y2\214\376<\203\231\024\031\235"
 802      9C273F88 
 802      79328CFE 
 802      3C839914 
 802      199D
 803 0f8f DDCA7AB2 		.ascii	"\335\312z\262,\276\307\343y\364\344\272\312\364\203"
 803      2CBEC7E3 
 803      79F4E4BA 
 803      CAF483
 804 0f9e BFD7     		.ascii	"\277\327"
 805 0fa0 9BC51746 		.ascii	"\233\305\027FPs\013\226\341d\224\271\214Q\346c\243\274"
 805      50730B96 
 805      E16494B9 
 805      8C51E663 
 805      A3BC
 806 0fb2 834DB016 		.ascii	"\203M\260\026\347u8\377\300\334\023\334\356\316\365"
 806      E77538FF 
 806      C0DC13DC 
 806      EECEF5
 807 0fc1 0456DF82 		.ascii	"\004V\337\202l\267\330k\321-\307@\327\356\267v^\322"
 807      6CB7D86B 
 807      D12DC740 
 807      D7EEB776 
 807      5ED2
 808 0fd3 B7766EC0 		.ascii	"\267vn\300\341\363\241u\370t\332\33293\003\025\251\217"
 808      E1F3A175 
ARM GAS  /tmp/cc3AplIV.s 			page 64


 808      F874DADA 
 808      39330315 
 808      A98F
 809 0fe5 1F245DD4 		.ascii	"\037$]\324\007I\365\211\303\347\244\211\321\015sV\304"
 809      0749F589 
 809      C3E7A489 
 809      D10D7356 
 809      C4
 810 0ff6 FA818946 		.ascii	"\372\201\211F\003\276\352\260\372f"
 810      03BEEAB0 
 810      FA66
 811 1000 FA5B926A 		.ascii	"\372[\222j\203\207G'\2656]=c\272\006l\272\315fC\255"
 811      83874727 
 811      B5365D3D 
 811      63BA066C 
 811      BACD6643 
 812 1015 C8E00C65 		.ascii	"\310\340\014eU\237\303\326\315\343\307\310\036\"\267"
 812      559FC3D6 
 812      CDE3C7C8 
 812      1E22B7
 813 1024 B6DAB0EC 		.ascii	"\266\332\260\354\306\323x\005$\212-u&\303\243\245\220"
 813      C6D37805 
 813      248A2D75 
 813      26C3A3A5 
 813      90
 814 1035 501F7356 		.ascii	"P\037sV\212\336T2\311\335\304\335\333\375\213x\013\244"
 814      8ADE5432 
 814      C9DDC4DD 
 814      DBFD8B78 
 814      0BA4
 815 1047 975DD4BB 		.ascii	"\227]\324\273\365-OM~\324\200\276\342(wr\027\365m\014"
 815      F52D4F4D 
 815      7ED480BE 
 815      E2287772 
 815      17F56D0C 
 816 105b F3F1DFCB 		.ascii	"\363\361\337\313\320\0373\206\336\211\015\275\313l\350"
 816      D01F3386 
 816      DE890DBD 
 816      CB6CE8
 817 106a 879E0D9D 		.ascii	"\207\236\015\235\351T_l*$\213\367}\250\276\007>\024"
 817      E9545F6C 
 817      2A248BF7 
 817      7DA8BE07 
 817      3E14
 818 107c 072A7034 		.ascii	"\007*p4\370\020\347\333\314\014\264\036\334\034\333"
 818      F810E7DB 
 818      CC0CB41E 
 818      DC1CDB
 819 108b 3CC942A8 		.ascii	"<\311B\250-~\323\244\257\026\257\266<\265\332r\246j"
 819      2D7ED3A4 
 819      AF16AFB6 
 819      3CB5DA72 
 819      A66A
 820 109d FA86611E 		.ascii	"\372\206a\036\015!\250}~\317\233\237\374\326[\212\374"
 820      0D21A87D 
 820      7ECF9B9F 
 820      FCD65B8A 
ARM GAS  /tmp/cc3AplIV.s 			page 65


 820      FC
 821 10ae 86041379 		.ascii	"\206\004\023y\011\342\253=`\226\240.\212\226\034^\336"
 821      09E2AB3D 
 821      6096A02E 
 821      8A961C5E 
 821      DE
 822 10bf 578E3EF7 		.ascii	"W\216>\367:\316\265u\317\007Os\330W<\003\030$\334e+"
 822      3ACEB575 
 822      CF074F73 
 822      D8573C03 
 822      1824DC65 
 823 10d4 8B47706F 		.ascii	"\213Gpor\224\217f\213\327\267\351\333\217\217\272\033"
 823      72948F66 
 823      8BD7B7E9 
 823      DB8F8FBA 
 823      1B
 824 10e5 D53E6C26 		.ascii	"\325>l&\033\206\257\340\331\306\\,\377\321N\367\240"
 824      1B86AFE0 
 824      D9C65C2C 
 824      FFD14EF7 
 824      A0
 825 10f6 F72F6338 		.ascii	"\367/c8nps\301\346c\015^3\3633\261q\201\347\3523M\325"
 825      6E7073C1 
 825      E6630D5E 
 825      33F333B1 
 825      7181E7EA 
 826 110d 3F50D0B0 		.ascii	"?P\320\260\345$\036p-v\203\225`\357\263\216\265\322"
 826      E5241E70 
 826      2D768395 
 826      60EFB38E 
 826      B5D2
 827 111f 3356665C 		.ascii	"3Vf\\{\"v\220\305\343\270\345\264\341\3744\316\317&"
 827      7B227690 
 827      C5E3B8E5 
 827      B4E1FC34 
 827      CECF26
 828 1132 1EE8700A 		.ascii	"\036\350p\012=l\303\004\341\267\373\323\270\272m\\\231"
 828      3D6CC304 
 828      E1B7FBD3 
 828      B8BA6D5C 
 828      99
 829 1143 6D68A890 		.ascii	"mh\250\220\255\307\177F\033Z\254\001\361\227\222P\227"
 829      ADC77F46 
 829      1B5AAC01 
 829      F1979250 
 829      97
 830 1154 B8E19CF3 		.ascii	"\270\341\234\363\263\353k#d\361\020\340\032\252G+^U"
 830      B3EB6B23 
 830      64F110E0 
 830      1AAA472B 
 830      5E55
 831 1166 1ADAABF7 		.ascii	"\032\332\253\367\262\217\360A\255\353\332\301\350\266"
 831      B28FF041 
 831      ADEBDAC1 
 831      E8B6
 832 1174 A98B60C6 		.ascii	"\251\213`\306\010\315\353QG\207HD\227\204\315q\221\306"
 832      08CDEB51 
ARM GAS  /tmp/cc3AplIV.s 			page 66


 832      47874844 
 832      9784CD71 
 832      91C6
 833 1186 D43EF0F2 		.ascii	"\324>\360\362 T\367]ag\217EZ\012S\355P\202@\314@\352"
 833      2054F75D 
 833      61678F45 
 833      5A0A53ED 
 833      508240CC 
 834 119c 8C1EDA2D 		.ascii	"\214\036\332-\272\331\323XgT\241\257\362~\3519\002]"
 834      BAD9D358 
 834      6754A1AF 
 834      F27EE939 
 834      025D
 835 11ae B189408F 		.ascii	"\261\211@\2179Z_\026\277\210\031\365\273\302Q\220\251"
 835      395A5F16 
 835      BF8819F5 
 835      BBC25190 
 835      A9
 836 11bf 6A68AC7A 		.ascii	"jh\254z\342MH\230iZ\2645\2318\255\2617\213x\031\302"
 836      E24D4898 
 836      695AB435 
 836      9938ADB1 
 836      378B7819 
 837 11d4 234D8DF8 		.ascii	"#M\215\370\033}\373\230\3616\273O\214\262\020u\005U"
 837      1B7DFB98 
 837      F136BB4F 
 837      8CB21075 
 837      0555
 838 11e6 F73259E4 		.ascii	"\3672Y\344\346\014\013\213\\Il\221\033&\007\260\262"
 838      E60C0B8B 
 838      5C496C91 
 838      1B2607B0 
 838      B2
 839 11f7 C4AD1657 		.ascii	"\304\255\026W\226\210\367\255\333\236-q\307\306\022"
 839      9688F7AD 
 839      DB9E2D71 
 839      C7C612
 840 1206 BD1258E2 		.ascii	"\275\022X\342\026k\211[\324\022\267\255,q;M\327\355"
 840      166B895B 
 840      D412B7AD 
 840      2C713B4D 
 840      D7ED
 841 1218 172E2CF1 		.ascii	"\027.,\361\277\306\333\354n\030\312B\322\025Tc\266\304"
 841      BFC6DBEC 
 841      6E18CA42 
 841      D2155463 
 841      B6C4
 842 122a BB7FB4B0 		.ascii	"\273\177\264\260\304\364\236\011-\3610\241%\026\035"
 842      C4F49E09 
 842      2DF130A1 
 842      25161D
 843 1239 706589BB 		.ascii	"pe\211\273\006t\037\012]\026\360j\211\362\200\265%\276"
 843      06741F0A 
 843      5D16F06A 
 843      89F280B5 
 843      25BE
 844 124b 9BC0125A 		.ascii	"\233\300\022Z\200\261\304\234\236\304\022z\365&K\324"
ARM GAS  /tmp/cc3AplIV.s 			page 67


 844      80B1C49C 
 844      9EC4127A 
 844      F5264BD4 
 845 125b 74D7757B 		.ascii	"t\327u{\325\205%\326\031o\317\212\267\204OWP\235\331"
 845      D58525D6 
 845      196FCF8A 
 845      B7844F57 
 845      509DD9
 846 126e 12D72B2D 		.ascii	"\022\327+-,\261>\261%\246\005\022Y\342f\253+KL3\376"
 846      2CB13EB1 
 846      25A60512 
 846      59E266AB 
 846      2B4B4C33 
 847 1283 9FC81314 		.ascii	"\237\310\023\024z\246gK\314\262\261Df\002K\314`-\261"
 847      7AA6674B 
 847      CCB2B144 
 847      66024BCC 
 847      602DB1
 848 1296 855A62A6 		.ascii	"\205Zb\246\311\022\254\256\035t\177\267\247\256\373"
 848      C912ACAE 
 848      1D747FB7 
 848      A7AEFB
 849 12a5 8EF87844 		.ascii	"\216\370xD\376\373\220\336\277q]\342u_\017[~\025\001"
 849      FEFB90DE 
 849      BF715DE2 
 849      755F0F5B 
 849      7E1501
 850 12b8 EBCDEBE4 		.ascii	"\353\315\353\344s\201]\251\331\266\245\320\366\031\273"
 850      73815DA9 
 850      D9B6A5D0 
 850      F619BB
 851 12c7 5295B6A5 		.ascii	"R\225\266\245\366\371\355\031\316\261-\265\321\241\256"
 851      F6F9ED19 
 851      CEB12DB5 
 851      D1A1AE
 852 12d6 B9B6A5EA 		.ascii	"\271\266\245\352\034J\315\213\225\262\361\245\301z\221"
 852      1C4ACD8B 
 852      95B2F1A5 
 852      C17A91
 853 12e5 645A64BE 		.ascii	"dZd\276gWz\307\306\225\222\254\371.r\340[e+\345l\207"
 853      67577AC7 
 853      C69592AC 
 853      F92E72E0 
 853      5B652BE5 
 854 12fb 520B62A5 		.ascii	"R\013b\245\350\256\314;\015\327\177\261\326\330\310"
 854      E8AECC3B 
 854      0DD77FB1 
 854      D6D8C8
 855 130a 3BE9596E 		.ascii	";\351Yn!\260\321a\002\377n \376\303\356\331\236\346"
 855      21B0D161 
 855      02FF6E20 
 855      FEC3EED9 
 855      9EE6
 856 131c 5922DDE6 		.ascii	"Y\"\335\346W\256\255[\251\245\352\273\227dqa\300q\223"
 856      57AEAD5B 
 856      A9A5EABB 
 856      97647161 
ARM GAS  /tmp/cc3AplIV.s 			page 68


 856      C07193
 857 132f 7875C06A 		.ascii	"xu\300j\247\343\361\326j\272I|\233\366D\212\207\215"
 857      A7E3F1D6 
 857      6ABA497C 
 857      9BF6448A 
 857      878D
 858 1341 5D8B2D88 		.ascii	"]\213-\210^s&\372\201HZa\2153\321Z3Q\316\022[\035,\261"
 858      5E7326FA 
 858      81485A61 
 858      8D33D15A 
 858      3351CE12 
 859 1359 D4D67E0D 		.ascii	"\324\326~\015\016\245\226\331\226jr(\365^\234\325\257"
 859      0EA596D9 
 859      966A7228 
 859      F55E9CD5 
 859      AF
 860 136a BFFFD9B0 		.ascii	"\277\377\331\260\330\366\355I\"\331\226-\011\2178\255"
 860      D8F6ED49 
 860      22D9962D 
 860      098F38AD 
 861 137a D03F0C38 		.ascii	"\320?\0148\243\274Dv\000C'\211\3772`\271\215Z\034\367"
 861      A3BC4476 
 861      00432789 
 861      FF3260B9 
 861      8D5A1CF7 
 862 138e 09A342CC 		.ascii	"\011\243B\314O\026W8j\357\272\303\374h\025/Q\364\301"
 862      4F165738 
 862      6AEFBAC3 
 862      FC68152F 
 862      51F4C1
 863 13a1 6EB2DD7D 		.ascii	"n\262\335}q4\303\375Z\366\237\002\334Z6b\237`\243\346"
 863      7134C3FD 
 863      5AF69F02 
 863      DC5A3662 
 863      9F60A3E6 
 864 13b5 CC5E962A 		.ascii	"\314^\226*\272\311\253h\265\263\212h\261w\232\322\372"
 864      BAC9AB68 
 864      B5B38A68 
 864      B1779AD2 
 864      FA
 865 13c6 E9BB5017 		.ascii	"\351\273P\027ad\246\034\367?_(\037+\325\256\346U\373"
 865      6164A61C 
 865      F73F5F28 
 865      1F2BD5AE 
 865      E655FB
 866 13d9 17CB16F4 		.ascii	"\027\313\026\364\350\200\241$\"\274$,\263\026\247\215"
 866      E880A124 
 866      22BC242C 
 866      B316A78D 
 867 13e9 1767BD2B 		.ascii	"\027g\275+q\036\376\2567\341\011-(\300\025s/\315z^\232"
 867      711EFEAE 
 867      37E1092D 
 867      28C01573 
 867      2FCD7A5E 
 868 13fe 0F2DA5D9 		.ascii	"\017-\245\331\266w~,\036x\331o\261\311\312\354\234\231"
 868      B6777E2C 
 868      1E78D96F 
ARM GAS  /tmp/cc3AplIV.s 			page 69


 868      B1C9CAEC 
 868      9C99
 869 1410 D7BAD44B 		.ascii	"\327\272\324K\275\313\226p\312\364G2v\245(\301\315\216"
 869      BDCB9670 
 869      CAF44732 
 869      76A528C1 
 869      CD8E
 870 1422 0DE3A843 		.ascii	"\015\343\250CS\337j\033 N:\224\332\026+\205;\263\211"
 870      53DF6A1B 
 870      204E3A94 
 870      DA162B85 
 870      3BB389
 871 1435 8E2B84B2 		.ascii	"\216+\204\262\270\035\377Ma\342\345>\253%\233$\035\352"
 871      B81DFF4D 
 871      61E2E53E 
 871      AB259B24 
 871      1DEA
 872 1447 F782B1D8 		.ascii	"\367\202\261\330xk\363\311\"\262\326\270=\200\206\210"
 872      786BF3C9 
 872      22B2D6B8 
 872      3D808688 
 873 1457 65DF4ABC 		.ascii	"e\337J\274S\301\204\203\267|\004\270\345\321\207'\361"
 873      53C18483 
 873      B77C04B8 
 873      E5D18727 
 873      F1
 874 1468 5F75A0FB 		.ascii	"_u\240\373\211\027\260;NV\323\357\177\321\000\232Z\314"
 874      8917B03B 
 874      4E56D3EF 
 874      7FD1009A 
 874      5ACC
 875 147a C2145059 		.ascii	"\302\024PY+\025\030\035\270 X-\224\000^\305)\374\325"
 875      2B15181D 
 875      B820582D 
 875      94005EC5 
 875      29FCD5
 876 148d 8480CDF6 		.ascii	"\204\200\315\366\014\226i\002\253d\301\346\271\001\263"
 876      0C966902 
 876      AB64C1E6 
 876      B901B3
 877 149c 5BC201B0 		.ascii	"[\302\001\260\271,\330B\317`ff\363Y\260\305n\300\354"
 877      B92CD842 
 877      CF606666 
 877      F359B0C5 
 877      6EC0EC
 878 14af F60B0058 		.ascii	"\366\013\000X\025\013\266\3243\230\231\331B\026l\205"
 878      150BB6D4 
 878      339899D9 
 878      42166C85 
 879 14bf 1B30BB7F 		.ascii	"\0330\273\177U\005`\325,\330\237=\203\231\231\325\260"
 879      550560D5 
 879      2CD89F3D 
 879      839999D5 
 879      B0
 880 14d0 60EBDC80 		.ascii	"`\353\334\200e\3323\253c\301>\362\014ff\266\216\005"
 880      65DA33AB 
 880      63C13EF2 
ARM GAS  /tmp/cc3AplIV.s 			page 70


 880      0C6666B6 
 880      8E05
 881 14e2 DBEC06CC 		.ascii	"\333\354\006\314\356\023\011\200}\310\202m\363\014f"
 881      EE130980 
 881      7DC8826D 
 881      F30C66
 882 14f1 66B69105 		.ascii	"f\266\221\005\373\330\015\230\335\277\312\230T\026\255"
 882      FBD80D98 
 882      DDBFCA98 
 882      5416AD
 883 1500 FF6D85CC 		.ascii	"\377m\205\314\256\363!T=\254psQ\323k\242\355k\262x\316"
 883      AEF32154 
 883      3DAC7073 
 883      51D36BA2 
 883      ED6BB278 
 884 1515 F364E0BC 		.ascii	"\363d\340\274\315d\200\335\261\032{\013\304\336\315"
 884      CD6480DD 
 884      B11A7B0B 
 884      C4DECD
 885 1524 8B6D6661 		.ascii	"\213mfa%\267Y\211\015\254\022[\334(q\250=\330\026\026"
 885      25B75989 
 885      0DAC125B 
 885      DC2871A8 
 885      3DD81616 
 886 1538 ECA01BB0 		.ascii	"\354\240\033\260\227\354}e+\013v\3043\230\231\331A\026"
 886      97EC7D65 
 886      2B0B76C4 
 886      339899D9 
 886      4116
 887 154a ACCD0DD8 		.ascii	"\254\315\015\330\010{f\255,\330i\317`,\263\262\350\221"
 887      087B66AD 
 887      2CD869CF 
 887      602CB3B2 
 887      E891
 888 155c 98E3A17F 		.ascii	"\230\343\241\177\204l\362\274\241\346hk~M\264{\015\206"
 888      846CF2BC 
 888      A1E6686B 
 888      7E4DB47B 
 888      0D86
 889 156e C9C68AC2 		.ascii	"\311\306\212\302~\311\274\016-\031\236s\216\347mB\241"
 889      7EC9BC0E 
 889      2D199E73 
 889      8EE76D42 
 889      A1
 890 157f A7AF5828 		.ascii	"\247\257X(\301\352\307\366\264\262\270+\200\206\002"
 890      C1EAC7F6 
 890      B4B2B82B 
 890      808602
 891 158e 4D01B464 		.ascii	"M\001\264d\337\214\363\2758\377\004\347\373q~\020\347"
 891      DF8CF3BD 
 891      38FF04E7 
 891      FB717E10 
 891      E7
 892 159f AD383F82 		.ascii	"\2558?\202\363c8?\201\363\2238?\215\363\2638o\307\371"
 892      F363383F 
 892      81F39338 
 892      3F8DF3B3 
ARM GAS  /tmp/cc3AplIV.s 			page 71


 892      386FC7F9 
 893 15b3 459C5FC2 		.ascii	"E\234_\302\371e\234\177\211\363\2538\377:\300|\036\340"
 893      F9659C7F 
 893      89F3AB38 
 893      FF3AC07C 
 893      1EE0
 894 15c5 863ADB6D 		.ascii	"\206:\333m\014\204Ge\266\003\2443\016\003\244o\342f"
 894      0C844765 
 894      B603A433 
 894      0E03A46F 
 894      E266
 895 15d7 509B671C 		.ascii	"P\233g\0349.VN\324\232\265k0\324\251\235\346\367\260"
 895      392E564E 
 895      D49AB56B 
 895      30D4A99D 
 895      E6F7B0
 896 15ea 31F9363F 		.ascii	"1\3716?\376D;Z\271\361\347%n\010\304\216?\257\340\277"
 896      FE443B5A 
 896      B9F1E725 
 896      6E08C48E 
 896      3FAFE0BF 
 897 15fe DEB985DF 		.ascii	"\336\271\205\337\270e;\376\244{k\351\264\366\324\351"
 897      B8653BFE 
 897      A47B6BE9 
 897      B4F6D4E9 
 898 160e 11BDF541 		.ascii	"\021\275\365A\267\251\224iXN\011\336\265\032o\267\337"
 898      B7A99469 
 898      584E09DE 
 898      B51A6FB7 
 898      DF
 899 161f BC74A3CF 		.ascii	"\274t\243\317&\323\244\361$\336\340\336\370\230\315"
 899      26D3A4F1 
 899      24DEE0DE 
 899      F898CD
 900 162e 54BA6EA5 		.ascii	"T\272n\245\026\320wV\313\342\203X\235\334\277l\300\217"
 900      16D07756 
 900      CBE28358 
 900      9DDCBF6C 
 900      C08F
 901 1640 1F3A8E79 		.ascii	"\037:\216y':\030\247\303\326\244\347\035JiIv\245\246"
 901      273A18A7 
 901      C3D6A4E7 
 901      1D4A6949 
 901      76A5A6
 902 1653 3B942A8B 		.ascii	";\224*\213\225\022\006f\345\025\027*Y\241\342\334\011"
 902      95120666 
 902      E515172A 
 902      59A1E2DC 
 902      09
 903 1664 59B9CAB8 		.ascii	"Y\271\312\270\254P^\376\350\374\342H\226\032.-z-\013"
 903      AC505EFE 
 903      E8FCE248 
 903      961A2E2D 
 903      7A2D0B
 904 1677 4EC26A56 		.ascii	"N\302jV~Q\250\2404\027^\312\213(\205}\363\20448\310"
 904      7E51A8A0 
 904      34175ECA 
ARM GAS  /tmp/cc3AplIV.s 			page 72


 904      8B28857D 
 904      F3843438 
 905 168c 2579C561 		.ascii	"%y\305a%\250&\275\370\313_gf\013\251\306\255\301\336"
 905      25A826BD 
 905      F8CB5F67 
 905      660BA9C6 
 905      ADC1DE
 906 169f 002744D4 		.ascii	"\000'D\324\011%J\004P\273\253yaE\316\215\004_/UJ\001"
 906      09254A04 
 906      50BBAB79 
 906      6145CE8D 
 906      045F2F55 
 907 16b5 39239417 		.ascii	"9#\224\0274\335\032\344\0159\224\227\013\250)\004\""
 907      34DD1AE4 
 907      0D399497 
 907      0BA82904 
 907      22
 908 16c6 A8A61A70 		.ascii	"\250\246\032pI%\301\"\345\015\025\016%ae\334K.PK\212"
 908      4925C122 
 908      E50D150E 
 908      256165DC 
 908      4B2E504B 
 909 16db C36A24EB 		.ascii	"\303j$\353\331\234\341\331\303\337\2007\013K\362\013"
 909      D99CE1D9 
 909      C3DF8037 
 909      0B4BF20B 
 910 16eb 947024EB 		.ascii	"\224p$\353\305\354lx]\347\237\254\226\204\363\213\203"
 910      C5EC6C78 
 910      5DE79FAC 
 910      9684F38B 
 910      83
 911 16fc EAF7B34A 		.ascii	"\352\367\263J#\341,9\\\370\223\242\342\"\345'\212<:"
 911      23E12C39 
 911      5CF893A2 
 911      E222E527 
 911      8A3C3A
 912 170f DFA01551 		.ascii	"\337\240\025Qs\363\213TD\253\024\216\003\007\004\325"
 912      73F38B54 
 912      44AB148E 
 912      030704D5 
 913 171f 410E6F17 		.ascii	"A\016o\027\312@\246H\311\012\346*c\344\322\0025\250"
 913      CA40A648 
 913      C90AE62A 
 913      63E4D202 
 913      35A8
 914 1731 57D52518 		.ascii	"W\325%\030\324\313c)\362\213\223C\305E*\010\365s\317"
 914      D4CB6329 
 914      F28B9343 
 914      C5452A08 
 914      F573CF
 915 1744 D2E485C0 		.ascii	"\322\344\205\300h\310\250\350v\020PC\352\033\377\336"
 915      68C8A8E8 
 915      76105043 
 915      EA1BFFDE 
 916 1754 3994E0B8 		.ascii	"9\224\340\270\247\221{\244\204\225\261 PP\225\302\203"
 916      A7917BA4 
 916      8495B120 
ARM GAS  /tmp/cc3AplIV.s 			page 73


 916      505095C2 
 916      83
 917 1765 A4F04FA5 		.ascii	"\244\360O\245\360\317\244\360\323Rx\260\024\376\271"
 917      F0CFA4F0 
 917      D35278B0 
 917      14FEB9
 918 1774 2FDCBF1F 		.ascii	"/\334\277\037\244\376RA\030\016\003\003%A\250-\031\331"
 918      A4FE5241 
 918      180E0303 
 918      2541A82D 
 918      19D9
 919 1786 63BC1286 		.ascii	"c\274\022\206cqA\256\022\366\207\362\34402\222\\\250"
 919      637141AE 
 919      12F687F2 
 919      E4303292 
 919      5CA8
 920 1798 A4A81155 		.ascii	"\244\250\021UV\301\033\222\221\300\203\301\214Dt8\203"
 920      56C11B92 
 920      91C083C1 
 920      8C447438 
 920      83
 921 17a9 D7F1B364 		.ascii	"\327\361\263d\265\2608W\301\327c\012\344\261\221d5\254"
 921      B5B03857 
 921      C1D7630A 
 921      E4B19164 
 921      35AC
 922 17bb 8C8960CD 		.ascii	"\214\211`\315\240\223@ad,<\244\352\202\342\272\342\302"
 922      A0934061 
 922      642C3CA4 
 922      EA82E2BA 
 922      E2C2
 923 17cd B913E0   		.ascii	"\271\023\340"
 924 17d0 518AF246 		.ascii	"Q\212\362F\276\012\202*I\343\325\342\321\257\226\244"
 924      BE0A822A 
 924      49E3D5E2 
 924      D1AF96A4 
 925 17e0 29E39422 		.ascii	")\343\224\"\265P\216\274\006\257(\343\321\211\257$X"
 925      B5508EBC 
 925      06AF28E3 
 925      D189AF24 
 925      58
 926 17f1 DA4DF7C4 		.ascii	"\332M\367\304\202\374\010\330\241;\343\233\350NjIp\274"
 926      82FC08D8 
 926      A13BE39B 
 926      E84E6A49 
 926      70BC
 927 1803 9CAFE617 		.ascii	"\234\257\346\027\215\355R\022\004T\354\257\001|\012"
 927      8DED5212 
 927      0454ECAF 
 927      017C0A
 928 1812 379412A5 		.ascii	"7\224\022\245\010\354>6PX\0126\362\326\342\012\3257"
 928      08EC3E36 
 928      50580A36 
 928      F2D6E20A 
 928      D537
 929 1824 906F1592 		.ascii	"\220o\025\222&\000\307\342\361E\240*\214\004\014\013"
 929      2600C7E2 
ARM GAS  /tmp/cc3AplIV.s 			page 74


 929      F145A02A 
 929      8C040C0B 
 930 1834 B12B43F5 		.ascii	"\261+C\365\360\036\"\322\005\011-\027`\227\200\233%"
 930      F01E22D2 
 930      05092D17 
 930      6097809B 
 930      25
 931 1845 C5C505C9 		.ascii	"\305\305\005\311\264\371\004BE\300<\020\011\3021\313"
 931      B4F90442 
 931      45C03C10 
 931      09C231CB 
 932 1855 9183AA44 		.ascii	"\221\203\252DT\304\002\035Q\213\017\201oca\373\213%"
 932      54C4021D 
 932      518B0F81 
 932      6F6361FB 
 932      8B25
 933 1867 F46C103D 		.ascii	"\364l\020=\016\240\307\201\351\360b\377\240\362\206"
 933      0EA0C781 
 933      E9F062FF 
 933      A0F286
 934 1876 1202665D 		.ascii	"\022\002f]\360EDQKK\320\351\200\330\351@r\352\255)\217"
 934      F0454451 
 934      4B4BD0E9 
 934      80D8E940 
 934      72EAAD29 
 935 188b 2661A7E7 		.ascii	"&a\247\347\350\374\"9<!\310F\237\321\021t\231\036\312"
 935      E8FC2239 
 935      3C21C846 
 935      9FD11174 
 935      991ECA
 936 189e 7B6EA452 		.ascii	"{n\244R82\177l\221\\\340\033\035)Al\006\351lza\012\364"
 936      38327F6C 
 936      915CE01B 
 936      1D29416C 
 936      06E96C7A 
 937 18b5 A26F891C 		.ascii	"\242o\211\034V\373\016Hg\357\365\302\304L/`y\214{O\271"
 937      56FB0E48 
 937      67EFF5C2 
 937      C44C2F60 
 937      798C7B4F 
 938 18ca 5617D00C 		.ascii	"V\027\320\014\004\237\003\255\247\007\321eP\216D\224"
 938      049F03AD 
 938      A707D165 
 938      508E4494 
 939 18da B0DA039F 		.ascii	"\260\332\003\237#\017\321\275\006\202\333\310P^\216"
 939      230FD1BD 
 939      0682DBC8 
 939      505E8E
 940 18e9 02514AC9 		.ascii	"\002QJ\311--PF\242\033J\341\263\271\271\331\305\245"
 940      2D2D5046 
 940      A21B4AE1 
 940      B3B9B9D9 
 940      C5A5
 941 18fb D092C3C3 		.ascii	"\320\222\303\303\236\366\244\"\012\013\325\017\300\001"
 941      9EF6A422 
 941      0A0BD50F 
 941      C001
ARM GAS  /tmp/cc3AplIV.s 			page 75


 942 1909 A5207F74 		.ascii	"\245 \177t\326\330P\210\013,\203\372\016\356;\210\015"
 942      D6D85088 
 942      0B2C83FA 
 942      0EEE3B88 
 942      0D
 943 191a 461058A0 		.ascii	"F\020X\240HR$\377\277Q\003R\307\224\026\205\202j\217"
 943      485224FF 
 943      BF510352 
 943      C7941685 
 943      826A8F
 944 192d 50DEA8BC 		.ascii	"P\336\250\274\334l\000T\225\221\320\302\362C\217\261"
 944      DC6C0054 
 944      9591D0C2 
 944      F2438FB1 
 945 193d C280C2C1 		.ascii	"\302\200\302\301\237\212BJ\032\246L\224\336\035\277"
 945      9F8A424A 
 945      1AA64C94 
 945      DE1DBF
 946 194c A0142209 		.ascii	"\240\024\"\011\213_S\212R\361\263\337\200\304\335\361"
 946      8B5F538A 
 946      52F1B3DF 
 946      80C4DDF1 
 947 195c D9AF46BF 		.ascii	"\331\257F\277\252\204\324aE\371j:SjX*\212\377\371\205"
 947      AA84D461 
 947      45F96A3A 
 947      536A582A 
 947      8AFFF985 
 948 1970 50390E88 		.ascii	"P9\016\210\375\177\026Til\303\247\230\310\310\002E)"
 948      FD7F1654 
 948      696CC3A7 
 948      98C8C802 
 948      4529
 949 1982 E9824B81 		.ascii	"\351\202K\201\276\0245\303\200\036\005%\213K\325n\214"
 949      BE1435C3 
 949      801E0525 
 949      8B4BD56E 
 949      8C
 950 1993 76F343AF 		.ascii	"v\363C\257\3656\221\305\350\343\363\213r\213\307wgj"
 950      F53691C5 
 950      E8E3F38B 
 950      728BC777 
 950      676A
 951 19a5 46C5FDC8 		.ascii	"F\305\375\310K\245\3612\310\021D<\224B\322K\220\363"
 951      4BA5F132 
 951      C811443C 
 951      9442D24B 
 951      90F3
 952 19b7 74A4D009 		.ascii	"t\244\320\011\264\275w\205\333\261\353\3440iQIa\034"
 952      B4BD7785 
 952      DBB1EBE4 
 952      30695149 
 952      611C
 953 19c9 7B03611C 		.ascii	"{\003a\034\305\3024\212\205I\024K\205\273\245\3410\004"
 953      C5C2348A 
 953      8549144B 
 953      85BBA5E1 
 953      3004
ARM GAS  /tmp/cc3AplIV.s 			page 76


 954 19db 93401815 		.ascii	"\223@\030\025zl\\~X-\225\0130\243\260\036H\036\007`"
 954      7A6C5C7E 
 954      582D950B 
 954      30A3B01E 
 954      481E0760 
 955 19ef 8B07DD4D 		.ascii	"\213\007\335M\367H_h\272\225<N\305-\037\035Q/\226\002"
 955      F7485F68 
 955      BA953C4E 
 955      C52D1F1D 
 955      512F9602 
 956 1a03 C75CA540 		.ascii	"\307\\\245@\225\341\204X\021=AgI\350\0159\234\006\207"
 956      95E18458 
 956      113D4167 
 956      49E80D39 
 956      9C0687
 957 1a16 0239A2A2 		.ascii	"\0029\242\242\322p\013U\322\215\012\235\253\214.\035"
 957      D2700B55 
 957      D28D0A9D 
 957      AB8C2E1D 
 958 1a26 4B621A7B 		.ascii	"Kb\032{'\265D.\312\017\241\020\346\313\035=v\2007wD"
 958      27B5442E 
 958      CA0FA110 
 958      E6CB1D3D 
 958      76803777 
 959 1a3b ED35432D 		.ascii	"\3555C-\014\206d\360\3040\370Pq\021P\012\2538\006%\025"
 959      0C8664F0 
 959      C430F850 
 959      7111500A 
 959      AB380625 
 960 1a50 8F190386 		.ascii	"\217\031\003\206\224\324B)\224G\003H$\005Y-$G\024?\212"
 960      94D44229 
 960      94470348 
 960      2405592D 
 960      2447143F 
 961 1a65 FB011C26 		.ascii	"\373\001\034&\340\236\034\006\313\025%\353\201\245D"
 961      E09E1C06 
 961      CB1525EB 
 961      81A544
 962 1a74 56A17114 		.ascii	"V\241q\024\201\345Rht\352\237\3217\\\234+\253r_\375"
 962      81E55268 
 962      74EA9FD1 
 962      375C9C2B 
 962      AB725FFD 
 963 1a88 C6E323F5 		.ascii	"\306\343#\365\000\021y*S)B\246\202\340+\350\005\006"
 963      0011792A 
 963      532942A6 
 963      82E02BE8 
 963      0506
 964 1a9a 7C8B7DAE 		.ascii	"|\213}\256\022\0372\236\016\354\303>\225\325\342\302"
 964      121F329E 
 964      0EECC33E 
 964      95D5E2C2 
 965 1aaa FC506604 		.ascii	"\374Pf\004\373\314O\220\213\031/\016z\3429\034\2162"
 965      FBCC4F90 
 965      8B192F0E 
 965      7AE2391C 
 965      8E32
ARM GAS  /tmp/cc3AplIV.s 			page 77


 966 1abc D9F791C2 		.ascii	"\331\367\221\302\221\254 \265:A \015\351EE\035\001^"
 966      91AC20B5 
 966      3A41200D 
 966      E945451D 
 966      015E
 967 1ace 12863BAF 		.ascii	"\022\206;\257t\325\357\214T\012\306\240\253X\330\032"
 967      74D5EF8C 
 967      540AC6A0 
 967      AB58D81A 
 968 1ade 9641AE62 		.ascii	"\226A\256b-%\240\312\320\222\322\310m\354\372]\3109"
 968      2D25A0CA 
 968      D092D2C8 
 968      6DECFA5D 
 968      C839
 969 1af0 72DEFF48 		.ascii	"r\336\377Hd\217<\271\200\366\321#G\015\0378 \353\345"
 969      648F3CB9 
 969      80F6D123 
 969      470D1F38 
 969      20EBE5
 970 1b03 979FCF1A 		.ascii	"\227\237\317\0325l\370\270\376\320\356\013Q\007\230"
 970      356CF8B8 
 970      FED0EE0B 
 970      510798
 971 1b12 4F8672FA 		.ascii	"O\206r\372EP\365e\347\364\2074\300?rxv\216\377\371a"
 971      4550F565 
 971      E7F48734 
 971      C03F7278 
 971      768EFFF9 
 972 1b27 2FE44823 		.ascii	"/\344H#s|/\274\230\023\310\316\036\236\323\037\347\003"
 972      737C2FBC 
 972      9813C8CE 
 972      1E9ED31F 
 972      E703
 973 1b39 FCD9D92F 		.ascii	"\374\331\331/\344\370\262\1779\3127bd\266\357\331\234"
 973      E4F8B27F 
 973      39CA3762 
 973      64B6EFD9 
 973      9C
 974 1b4a 1C5F4E36 		.ascii	"\034_N6\\C\201\347\236\037\225\343{\036\225\034\376"
 974      5C4381E7 
 974      9E1F95E3 
 974      7B1E951C 
 974      FE
 975 1b5b 6C8EF42B 		.ascii	"l\216\364+Rj \274\377JNW2\244\313\007\265\225\250\023"
 975      526A20BC 
 975      FF4A4E57 
 975      32A4CB07 
 975      B595A813 
 976 1b6f 7CEAEB25 		.ascii	"|\352\353%\331\177\013\375`A\001\032\332\365$g\301\261"
 976      D97F0BFD 
 976      6041011A 
 976      DAF52467 
 976      C1B1
 977 1b81 8A1A0C91 		.ascii	"\212\032\014\221\250\371\177\333T@\212"
 977      A8F97FDB 
 977      54408A
 978              		.text
ARM GAS  /tmp/cc3AplIV.s 			page 78


 979              		.section	.gnu.lto_.symtab.e614f6b1eeeb5e13,"",%progbits
 980 0000 70617474 		.ascii	"patternsem\000\000\000\000\000\000\000\000\000\000\000"
 980      65726E73 
 980      656D0000 
 980      00000000 
 980      00000000 
 981 0015 00500200 		.ascii	"\000P\002\000\000testsem1\000\000\000\000\000\000\000"
 981      00746573 
 981      7473656D 
 981      31000000 
 981      00000000 
 982 0029 00000000 		.ascii	"\000\000\000\000\000e\002\000\000testsem2\000\000\000"
 982      00650200 
 982      00746573 
 982      7473656D 
 982      32000000 
 983 003d 00000000 		.ascii	"\000\000\000\000\000\000\000\000\000q\002\000\000te"
 983      00000000 
 983      00710200 
 983      007465
 984 004c 73747365 		.ascii	"stsem3\000\000\000\000\000\000\000\000\000\000\000\000"
 984      6D330000 
 984      00000000 
 984      00000000 
 984      0000
 985 005e 7C020000 		.ascii	"|\002\000\000testsem4\000\000\000\000\000\000\000\000"
 985      74657374 
 985      73656D34 
 985      00000000 
 985      00000000 
 986 0072 00000000 		.ascii	"\000\000\000\000\207\002\000\000wa\000\000\002\000\000"
 986      87020000 
 986      77610000 
 986      020000
 987 0081 00000000 		.ascii	"\000\000\000\000\000\000\000\360\001\000\000ch\000\000"
 987      000000F0 
 987      01000063 
 987      680000
 988 0090 02000000 		.ascii	"\002\000\000\000\000\000\000\000\000\000\365\001\000"
 988      00000000 
 988      0000F501 
 988      00
 989 009d 00746872 		.ascii	"\000threads\000\000\002\000\000\000\000\000\000\000"
 989      65616473 
 989      00000200 
 989      00000000 
 989      0000
 990 00af 00004C02 		.ascii	"\000\000L\002\000\000_test_assert\000\000\002\000\000"
 990      00005F74 
 990      6573745F 
 990      61737365 
 990      72740000 
 991 00c6 00000000 		.ascii	"\000\000\000\000\000\000\000\220\001\000\000test_wa"
 991      00000090 
 991      01000074 
 991      6573745F 
 991      7761
ARM GAS  /tmp/cc3AplIV.s 			page 79


 992 00d8 69745F74 		.ascii	"it_threads\000\000\002\000\000\000\000\000\000\000\000"
 992      68726561 
 992      64730000 
 992      02000000 
 992      00000000 
 993 00ed 00980100 		.ascii	"\000\230\001\000\000chSchRescheduleS\000\000\002\000"
 993      00636853 
 993      63685265 
 993      73636865 
 993      64756C65 
 994 0106 00000000 		.ascii	"\000\000\000\000\000\000\000\000\232\001\000\000chS"
 994      00000000 
 994      9A010000 
 994      636853
 995 0115 656D4164 		.ascii	"emAddCounterI\000\000\002\000\000\000\000\000\000\000"
 995      64436F75 
 995      6E746572 
 995      49000002 
 995      00000000 
 996 012c 00009C01 		.ascii	"\000\000\234\001\000\000chThdCreateStatic\000\000\002"
 996      00006368 
 996      54686443 
 996      72656174 
 996      65537461 
 997 0146 00000000 		.ascii	"\000\000\000\000\000\000\000\000\000\241\001\000\000"
 997      00000000 
 997      00A10100 
 997      00
 998 0153 5F746573 		.ascii	"_test_assert_sequence\000\000\002\000\000\000\000\000"
 998      745F6173 
 998      73657274 
 998      5F736571 
 998      75656E63 
 999 0170 00000000 		.ascii	"\000\000\000\000\257\001\000\000chSemSignal\000\000"
 999      AF010000 
 999      63685365 
 999      6D536967 
 999      6E616C00 
 1000 0185 02000000 		.ascii	"\002\000\000\000\000\000\000\000\000\000\265\001\000"
 1000      00000000 
 1000      0000B501 
 1000      00
 1001 0192 00746573 		.ascii	"\000test_emit_token\000\000\002\000\000\000\000\000"
 1001      745F656D 
 1001      69745F74 
 1001      6F6B656E 
 1001      00000200 
 1002 01aa 00000000 		.ascii	"\000\000\000\000\271\001\000\000chSemWait\000\000\002"
 1002      B9010000 
 1002      63685365 
 1002      6D576169 
 1002      74000002 
 1003 01be 00000000 		.ascii	"\000\000\000\000\000\000\000\000\000\275\001\000\000"
 1003      00000000 
 1003      00BD0100 
 1003      00
 1004 01cb 63685365 		.ascii	"chSemObjectInit\000\000\002\000\000\000\000\000\000"
ARM GAS  /tmp/cc3AplIV.s 			page 80


 1004      6D4F626A 
 1004      65637449 
 1004      6E697400 
 1004      00020000 
 1005 01e3 000000C1 		.ascii	"\000\000\000\301\001\000\000chSemSignalI\000\000\002"
 1005      01000063 
 1005      6853656D 
 1005      5369676E 
 1005      616C4900 
 1006 01f9 00000000 		.ascii	"\000\000\000\000\000\000\000\000\000\303\001\000\000"
 1006      00000000 
 1006      00C30100 
 1006      00
 1007 0206 63685468 		.ascii	"chThdSleep\000\000\002\000\000\000\000\000\000\000\000"
 1007      64536C65 
 1007      65700000 
 1007      02000000 
 1007      00000000 
 1008 021b 00C50100 		.ascii	"\000\305\001\000\000chSemReset\000\000\002\000\000\000"
 1008      00636853 
 1008      656D5265 
 1008      73657400 
 1008      00020000 
 1009 0230 00000000 		.ascii	"\000\000\000\000\000\000\322\001\000\000chSemWaitTi"
 1009      0000D201 
 1009      00006368 
 1009      53656D57 
 1009      61697454 
 1010 0245 6D656F75 		.ascii	"meout\000\000\002\000\000\000\000\000\000\000\000\000"
 1010      74000002 
 1010      00000000 
 1010      00000000 
 1010      00
 1011 0256 D4010000 		.ascii	"\324\001\000\000test_wait_tick\000\000\002\000\000\000"
 1011      74657374 
 1011      5F776169 
 1011      745F7469 
 1011      636B0000 
 1012 026e 00000000 		.ascii	"\000\000\000\000\000\000\331\001\000\000_test_asser"
 1012      0000D901 
 1012      00005F74 
 1012      6573745F 
 1012      61737365 
 1013 0283 745F7469 		.ascii	"t_time_window\000\000\002\000\000\000\000\000\000\000"
 1013      6D655F77 
 1013      696E646F 
 1013      77000002 
 1013      00000000 
 1014 029a 0000DC01 		.ascii	"\000\000\334\001\000\000chSemSignalWait\000\000\002"
 1014      00006368 
 1014      53656D53 
 1014      69676E61 
 1014      6C576169 
 1015 02b2 00000000 		.ascii	"\000\000\000\000\000\000\000\000\000\342\001\000\000"
 1015      00000000 
 1015      00E20100 
 1015      00
ARM GAS  /tmp/cc3AplIV.s 			page 81


 1016              		.text
 1017              		.section	.gnu.lto_.opts,"",%progbits
 1018 0000 272D6D63 		.ascii	"'-mcpu=cortex-m3' '-mno-thumb-interwork' '-mthumb' "
 1018      70753D63 
 1018      6F727465 
 1018      782D6D33 
 1018      2720272D 
 1019 0033 272D4F32 		.ascii	"'-O2' '-fomit-frame-pointer' '-falign-functions=16'"
 1019      2720272D 
 1019      666F6D69 
 1019      742D6672 
 1019      616D652D 
 1020 0066 20272D66 		.ascii	" '-ffunction-sections' '-fdata-sections' '-fno-comm"
 1020      66756E63 
 1020      74696F6E 
 1020      2D736563 
 1020      74696F6E 
 1021 0099 6F6E2720 		.ascii	"on' '-flto'\000"
 1021      272D666C 
 1021      746F2700 
 1022              		.text
 1023              		.section	.text.sem1_execute,"ax",%progbits
 1024              		.align	2
 1025              		.p2align 4,,15
 1026              		.thumb
 1027              		.thumb_func
 1028              		.type	sem1_execute, %function
 1029              	sem1_execute:
 1030              		@ args = 0, pretend = 0, frame = 0
 1031              		@ frame_needed = 0, uses_anonymous_args = 0
 1032 0000 2DE9F043 		push	{r4, r5, r6, r7, r8, r9, lr}
 1033 0004 474E     		ldr	r6, .L7
 1034 0006 484C     		ldr	r4, .L7+4
 1035 0008 B369     		ldr	r3, [r6, #24]
 1036 000a D4F80090 		ldr	r9, [r4]
 1037 000e 9A68     		ldr	r2, [r3, #8]
 1038 0010 DFF83881 		ldr	r8, .L7+40
 1039 0014 83B0     		sub	sp, sp, #12
 1040 0016 0532     		adds	r2, r2, #5
 1041 0018 4FF4A471 		mov	r1, #328
 1042 001c 434B     		ldr	r3, .L7+8
 1043 001e 4846     		mov	r0, r9
 1044 0020 CDF80080 		str	r8, [sp]
 1045 0024 FFF7FEFF 		bl	chThdCreateStatic
 1046 0028 B369     		ldr	r3, [r6, #24]
 1047 002a 414D     		ldr	r5, .L7+12
 1048 002c 9A68     		ldr	r2, [r3, #8]
 1049 002e 4149     		ldr	r1, .L7+16
 1050 0030 6368     		ldr	r3, [r4, #4]
 1051 0032 2860     		str	r0, [r5]
 1052 0034 0132     		adds	r2, r2, #1
 1053 0036 1846     		mov	r0, r3
 1054 0038 0091     		str	r1, [sp]
 1055 003a 3C4B     		ldr	r3, .L7+8
 1056 003c 4FF4A471 		mov	r1, #328
 1057 0040 FFF7FEFF 		bl	chThdCreateStatic
 1058 0044 B269     		ldr	r2, [r6, #24]
ARM GAS  /tmp/cc3AplIV.s 			page 82


 1059 0046 A368     		ldr	r3, [r4, #8]
 1060 0048 9268     		ldr	r2, [r2, #8]
 1061 004a 3B49     		ldr	r1, .L7+20
 1062 004c 6860     		str	r0, [r5, #4]
 1063 004e 0332     		adds	r2, r2, #3
 1064 0050 1846     		mov	r0, r3
 1065 0052 0091     		str	r1, [sp]
 1066 0054 354B     		ldr	r3, .L7+8
 1067 0056 4FF4A471 		mov	r1, #328
 1068 005a FFF7FEFF 		bl	chThdCreateStatic
 1069 005e B269     		ldr	r2, [r6, #24]
 1070 0060 E368     		ldr	r3, [r4, #12]
 1071 0062 9268     		ldr	r2, [r2, #8]
 1072 0064 3549     		ldr	r1, .L7+24
 1073 0066 A860     		str	r0, [r5, #8]
 1074 0068 0432     		adds	r2, r2, #4
 1075 006a 1846     		mov	r0, r3
 1076 006c 0091     		str	r1, [sp]
 1077 006e 2F4B     		ldr	r3, .L7+8
 1078 0070 4FF4A471 		mov	r1, #328
 1079 0074 FFF7FEFF 		bl	chThdCreateStatic
 1080 0078 B269     		ldr	r2, [r6, #24]
 1081 007a 2369     		ldr	r3, [r4, #16]
 1082 007c 9268     		ldr	r2, [r2, #8]
 1083 007e 3049     		ldr	r1, .L7+28
 1084 0080 0232     		adds	r2, r2, #2
 1085 0082 E860     		str	r0, [r5, #12]
 1086 0084 0091     		str	r1, [sp]
 1087 0086 1846     		mov	r0, r3
 1088 0088 4FF4A471 		mov	r1, #328
 1089 008c 274B     		ldr	r3, .L7+8
 1090 008e FFF7FEFF 		bl	chThdCreateStatic
 1091 0092 2C4C     		ldr	r4, .L7+32
 1092 0094 2861     		str	r0, [r5, #16]
 1093 0096 2046     		mov	r0, r4
 1094 0098 FFF7FEFF 		bl	chSemSignal
 1095 009c 2046     		mov	r0, r4
 1096 009e FFF7FEFF 		bl	chSemSignal
 1097 00a2 2046     		mov	r0, r4
 1098 00a4 FFF7FEFF 		bl	chSemSignal
 1099 00a8 2046     		mov	r0, r4
 1100 00aa FFF7FEFF 		bl	chSemSignal
 1101 00ae 2046     		mov	r0, r4
 1102 00b0 FFF7FEFF 		bl	chSemSignal
 1103 00b4 FFF7FEFF 		bl	test_wait_threads
 1104 00b8 0120     		movs	r0, #1
 1105 00ba 2349     		ldr	r1, .L7+36
 1106 00bc FFF7FEFF 		bl	_test_assert_sequence
 1107 00c0 0746     		mov	r7, r0
 1108 00c2 10B1     		cbz	r0, .L5
 1109 00c4 03B0     		add	sp, sp, #12
 1110              		@ sp needed
 1111 00c6 BDE8F083 		pop	{r4, r5, r6, r7, r8, r9, pc}
 1112              	.L5:
 1113 00ca B369     		ldr	r3, [r6, #24]
 1114 00cc 4846     		mov	r0, r9
 1115 00ce 9A68     		ldr	r2, [r3, #8]
ARM GAS  /tmp/cc3AplIV.s 			page 83


 1116 00d0 4FF4A471 		mov	r1, #328
 1117 00d4 0532     		adds	r2, r2, #5
 1118 00d6 CDF80080 		str	r8, [sp]
 1119 00da 144B     		ldr	r3, .L7+8
 1120 00dc FFF7FEFF 		bl	chThdCreateStatic
 1121 00e0 2026     		movs	r6, #32
 1122 00e2 2860     		str	r0, [r5]
 1123              	@ 546 "/home/cody/dev/chibios/trunk/os/ext/CMSIS/include/core_cmFunc.h" 1
 1124 00e4 86F31188 		MSR basepri, r6
 1125              	@ 0 "" 2
 1126              		.thumb
 1127 00e8 0221     		movs	r1, #2
 1128 00ea 2046     		mov	r0, r4
 1129 00ec FFF7FEFF 		bl	chSemAddCounterI
 1130 00f0 FFF7FEFF 		bl	chSchRescheduleS
 1131              	@ 546 "/home/cody/dev/chibios/trunk/os/ext/CMSIS/include/core_cmFunc.h" 1
 1132 00f4 87F31188 		MSR basepri, r7
 1133              	@ 0 "" 2
 1134              		.thumb
 1135 00f8 FFF7FEFF 		bl	test_wait_threads
 1136              	@ 546 "/home/cody/dev/chibios/trunk/os/ext/CMSIS/include/core_cmFunc.h" 1
 1137 00fc 86F31188 		MSR basepri, r6
 1138              	@ 0 "" 2
 1139              		.thumb
 1140 0100 A168     		ldr	r1, [r4, #8]
 1141 0102 0220     		movs	r0, #2
 1142 0104 4B1E     		subs	r3, r1, #1
 1143 0106 5942     		rsbs	r1, r3, #0
 1144 0108 5941     		adcs	r1, r1, r3
 1145 010a FFF7FEFF 		bl	_test_assert
 1146 010e 20B9     		cbnz	r0, .L6
 1147              	@ 546 "/home/cody/dev/chibios/trunk/os/ext/CMSIS/include/core_cmFunc.h" 1
 1148 0110 80F31188 		MSR basepri, r0
 1149              	@ 0 "" 2
 1150              		.thumb
 1151 0114 03B0     		add	sp, sp, #12
 1152              		@ sp needed
 1153 0116 BDE8F083 		pop	{r4, r5, r6, r7, r8, r9, pc}
 1154              	.L6:
 1155              	@ 546 "/home/cody/dev/chibios/trunk/os/ext/CMSIS/include/core_cmFunc.h" 1
 1156 011a 87F31188 		MSR basepri, r7
 1157              	@ 0 "" 2
 1158              		.thumb
 1159 011e 03B0     		add	sp, sp, #12
 1160              		@ sp needed
 1161 0120 BDE8F083 		pop	{r4, r5, r6, r7, r8, r9, pc}
 1162              	.L8:
 1163              		.align	2
 1164              	.L7:
 1165 0124 00000000 		.word	ch
 1166 0128 00000000 		.word	wa
 1167 012c 00000000 		.word	thread1
 1168 0130 00000000 		.word	threads
 1169 0134 04000000 		.word	.LC1
 1170 0138 08000000 		.word	.LC2
 1171 013c 0C000000 		.word	.LC3
 1172 0140 10000000 		.word	.LC4
ARM GAS  /tmp/cc3AplIV.s 			page 84


 1173 0144 00000000 		.word	.LANCHOR0
 1174 0148 14000000 		.word	.LC5
 1175 014c 00000000 		.word	.LC0
 1176              		.size	sem1_execute, .-sem1_execute
 1177              		.section	.text.thread3,"ax",%progbits
 1178              		.align	2
 1179              		.p2align 4,,15
 1180              		.thumb
 1181              		.thumb_func
 1182              		.type	thread3, %function
 1183              	thread3:
 1184              		@ args = 0, pretend = 0, frame = 0
 1185              		@ frame_needed = 0, uses_anonymous_args = 0
 1186 0000 10B5     		push	{r4, lr}
 1187 0002 044C     		ldr	r4, .L10
 1188 0004 2046     		mov	r0, r4
 1189 0006 FFF7FEFF 		bl	chSemWait
 1190 000a 2046     		mov	r0, r4
 1191 000c FFF7FEFF 		bl	chSemSignal
 1192 0010 0020     		movs	r0, #0
 1193 0012 10BD     		pop	{r4, pc}
 1194              	.L11:
 1195              		.align	2
 1196              	.L10:
 1197 0014 00000000 		.word	.LANCHOR0
 1198              		.size	thread3, .-thread3
 1199 0018 AFF30080 		.section	.text.thread1,"ax",%progbits
 1199      AFF30080 
 1200              		.align	2
 1201              		.p2align 4,,15
 1202              		.thumb
 1203              		.thumb_func
 1204              		.type	thread1, %function
 1205              	thread1:
 1206              		@ args = 0, pretend = 0, frame = 0
 1207              		@ frame_needed = 0, uses_anonymous_args = 0
 1208 0000 10B5     		push	{r4, lr}
 1209 0002 0446     		mov	r4, r0
 1210 0004 0348     		ldr	r0, .L13
 1211 0006 FFF7FEFF 		bl	chSemWait
 1212 000a 2078     		ldrb	r0, [r4]	@ zero_extendqisi2
 1213 000c FFF7FEFF 		bl	test_emit_token
 1214 0010 0020     		movs	r0, #0
 1215 0012 10BD     		pop	{r4, pc}
 1216              	.L14:
 1217              		.align	2
 1218              	.L13:
 1219 0014 00000000 		.word	.LANCHOR0
 1220              		.size	thread1, .-thread1
 1221 0018 AFF30080 		.section	.text.sem1_setup,"ax",%progbits
 1221      AFF30080 
 1222              		.align	2
 1223              		.p2align 4,,15
 1224              		.thumb
 1225              		.thumb_func
 1226              		.type	sem1_setup, %function
 1227              	sem1_setup:
ARM GAS  /tmp/cc3AplIV.s 			page 85


 1228              		@ args = 0, pretend = 0, frame = 0
 1229              		@ frame_needed = 0, uses_anonymous_args = 0
 1230              		@ link register save eliminated.
 1231 0000 0148     		ldr	r0, .L16
 1232 0002 0021     		movs	r1, #0
 1233 0004 FFF7FEBF 		b	chSemObjectInit
 1234              	.L17:
 1235              		.align	2
 1236              	.L16:
 1237 0008 00000000 		.word	.LANCHOR0
 1238              		.size	sem1_setup, .-sem1_setup
 1239 000c AFF30080 		.section	.text.sem2_setup,"ax",%progbits
 1240              		.align	2
 1241              		.p2align 4,,15
 1242              		.thumb
 1243              		.thumb_func
 1244              		.type	sem2_setup, %function
 1245              	sem2_setup:
 1246              		@ args = 0, pretend = 0, frame = 0
 1247              		@ frame_needed = 0, uses_anonymous_args = 0
 1248              		@ link register save eliminated.
 1249 0000 0148     		ldr	r0, .L19
 1250 0002 0021     		movs	r1, #0
 1251 0004 FFF7FEBF 		b	chSemObjectInit
 1252              	.L20:
 1253              		.align	2
 1254              	.L19:
 1255 0008 00000000 		.word	.LANCHOR0
 1256              		.size	sem2_setup, .-sem2_setup
 1257 000c AFF30080 		.section	.text.sem3_setup,"ax",%progbits
 1258              		.align	2
 1259              		.p2align 4,,15
 1260              		.thumb
 1261              		.thumb_func
 1262              		.type	sem3_setup, %function
 1263              	sem3_setup:
 1264              		@ args = 0, pretend = 0, frame = 0
 1265              		@ frame_needed = 0, uses_anonymous_args = 0
 1266              		@ link register save eliminated.
 1267 0000 0148     		ldr	r0, .L22
 1268 0002 0021     		movs	r1, #0
 1269 0004 FFF7FEBF 		b	chSemObjectInit
 1270              	.L23:
 1271              		.align	2
 1272              	.L22:
 1273 0008 00000000 		.word	.LANCHOR0
 1274              		.size	sem3_setup, .-sem3_setup
 1275 000c AFF30080 		.section	.text.thread2,"ax",%progbits
 1276              		.align	2
 1277              		.p2align 4,,15
 1278              		.thumb
 1279              		.thumb_func
 1280              		.type	thread2, %function
 1281              	thread2:
 1282              		@ args = 0, pretend = 0, frame = 0
 1283              		@ frame_needed = 0, uses_anonymous_args = 0
 1284 0000 08B5     		push	{r3, lr}
ARM GAS  /tmp/cc3AplIV.s 			page 86


 1285 0002 3220     		movs	r0, #50
 1286 0004 FFF7FEFF 		bl	chThdSleep
 1287 0008 2023     		movs	r3, #32
 1288              	@ 546 "/home/cody/dev/chibios/trunk/os/ext/CMSIS/include/core_cmFunc.h" 1
 1289 000a 83F31188 		MSR basepri, r3
 1290              	@ 0 "" 2
 1291              		.thumb
 1292 000e 0448     		ldr	r0, .L25
 1293 0010 FFF7FEFF 		bl	chSemSignalI
 1294 0014 FFF7FEFF 		bl	chSchRescheduleS
 1295 0018 0020     		movs	r0, #0
 1296              	@ 546 "/home/cody/dev/chibios/trunk/os/ext/CMSIS/include/core_cmFunc.h" 1
 1297 001a 80F31188 		MSR basepri, r0
 1298              	@ 0 "" 2
 1299              		.thumb
 1300 001e 08BD     		pop	{r3, pc}
 1301              	.L26:
 1302              		.align	2
 1303              	.L25:
 1304 0020 00000000 		.word	.LANCHOR0
 1305              		.size	thread2, .-thread2
 1306 0024 AFF30080 		.section	.text.sem2_execute,"ax",%progbits
 1306      AFF30080 
 1306      AFF30080 
 1307              		.align	2
 1308              		.p2align 4,,15
 1309              		.thumb
 1310              		.thumb_func
 1311              		.type	sem2_execute, %function
 1312              	sem2_execute:
 1313              		@ args = 0, pretend = 0, frame = 0
 1314              		@ frame_needed = 0, uses_anonymous_args = 0
 1315 0000 70B5     		push	{r4, r5, r6, lr}
 1316 0002 504C     		ldr	r4, .L34
 1317 0004 82B0     		sub	sp, sp, #8
 1318 0006 0021     		movs	r1, #0
 1319 0008 2046     		mov	r0, r4
 1320 000a FFF7FEFF 		bl	chSemWaitTimeout
 1321 000e B0F1FF3E 		subs	lr, r0, #-1
 1322 0012 DEF10001 		rsbs	r1, lr, #0
 1323 0016 51EB0E01 		adcs	r1, r1, lr
 1324 001a 0120     		movs	r0, #1
 1325 001c FFF7FEFF 		bl	_test_assert
 1326 0020 08B1     		cbz	r0, .L33
 1327              	.L27:
 1328 0022 02B0     		add	sp, sp, #8
 1329              		@ sp needed
 1330 0024 70BD     		pop	{r4, r5, r6, pc}
 1331              	.L33:
 1332 0026 2168     		ldr	r1, [r4]
 1333 0028 0220     		movs	r0, #2
 1334 002a 0E1B     		subs	r6, r1, r4
 1335 002c 7142     		rsbs	r1, r6, #0
 1336 002e 7141     		adcs	r1, r1, r6
 1337 0030 FFF7FEFF 		bl	_test_assert
 1338 0034 0028     		cmp	r0, #0
 1339 0036 F4D1     		bne	.L27
ARM GAS  /tmp/cc3AplIV.s 			page 87


 1340 0038 A168     		ldr	r1, [r4, #8]
 1341 003a 0320     		movs	r0, #3
 1342 003c D1F10101 		rsbs	r1, r1, #1
 1343 0040 38BF     		it	cc
 1344 0042 0021     		movcc	r1, #0
 1345 0044 FFF7FEFF 		bl	_test_assert
 1346 0048 0346     		mov	r3, r0
 1347 004a 0028     		cmp	r0, #0
 1348 004c E9D1     		bne	.L27
 1349 004e 3E4A     		ldr	r2, .L34+4
 1350 0050 3E49     		ldr	r1, .L34+8
 1351 0052 9269     		ldr	r2, [r2, #24]
 1352 0054 0868     		ldr	r0, [r1]
 1353 0056 9268     		ldr	r2, [r2, #8]
 1354 0058 4FF4A471 		mov	r1, #328
 1355 005c 013A     		subs	r2, r2, #1
 1356 005e 0093     		str	r3, [sp]
 1357 0060 3B4B     		ldr	r3, .L34+12
 1358 0062 FFF7FEFF 		bl	chThdCreateStatic
 1359 0066 3B4B     		ldr	r3, .L34+16
 1360 0068 4FF4FA71 		mov	r1, #500
 1361 006c 1860     		str	r0, [r3]
 1362 006e 2046     		mov	r0, r4
 1363 0070 FFF7FEFF 		bl	chSemWaitTimeout
 1364 0074 0546     		mov	r5, r0
 1365 0076 FFF7FEFF 		bl	test_wait_threads
 1366 007a D5F10101 		rsbs	r1, r5, #1
 1367 007e 38BF     		it	cc
 1368 0080 0021     		movcc	r1, #0
 1369 0082 0420     		movs	r0, #4
 1370 0084 FFF7FEFF 		bl	_test_assert
 1371 0088 0028     		cmp	r0, #0
 1372 008a CAD1     		bne	.L27
 1373 008c 2168     		ldr	r1, [r4]
 1374 008e 0520     		movs	r0, #5
 1375 0090 0D1B     		subs	r5, r1, r4
 1376 0092 6942     		rsbs	r1, r5, #0
 1377 0094 6941     		adcs	r1, r1, r5
 1378 0096 FFF7FEFF 		bl	_test_assert
 1379 009a 0028     		cmp	r0, #0
 1380 009c C1D1     		bne	.L27
 1381 009e A168     		ldr	r1, [r4, #8]
 1382 00a0 0620     		movs	r0, #6
 1383 00a2 D1F10101 		rsbs	r1, r1, #1
 1384 00a6 38BF     		it	cc
 1385 00a8 0021     		movcc	r1, #0
 1386 00aa FFF7FEFF 		bl	_test_assert
 1387 00ae 0546     		mov	r5, r0
 1388 00b0 0028     		cmp	r0, #0
 1389 00b2 B6D1     		bne	.L27
 1390 00b4 FFF7FEFF 		bl	test_wait_tick
 1391 00b8 2023     		movs	r3, #32
 1392              	@ 546 "/home/cody/dev/chibios/trunk/os/ext/CMSIS/include/core_cmFunc.h" 1
 1393 00ba 83F31188 		MSR basepri, r3
 1394              	@ 0 "" 2
 1395              		.thumb
 1396 00be 4FF08043 		mov	r3, #1073741824
ARM GAS  /tmp/cc3AplIV.s 			page 88


 1397 00c2 5E6A     		ldr	r6, [r3, #36]
 1398              	@ 546 "/home/cody/dev/chibios/trunk/os/ext/CMSIS/include/core_cmFunc.h" 1
 1399 00c4 85F31188 		MSR basepri, r5
 1400              	@ 0 "" 2
 1401              		.thumb
 1402 00c8 4125     		movs	r5, #65
 1403              	.L32:
 1404 00ca 2846     		mov	r0, r5
 1405 00cc FFF7FEFF 		bl	test_emit_token
 1406 00d0 4FF4FA71 		mov	r1, #500
 1407 00d4 1B48     		ldr	r0, .L34
 1408 00d6 FFF7FEFF 		bl	chSemWaitTimeout
 1409 00da B0F1FF32 		subs	r2, r0, #-1
 1410 00de 5142     		rsbs	r1, r2, #0
 1411 00e0 5141     		adcs	r1, r1, r2
 1412 00e2 0720     		movs	r0, #7
 1413 00e4 FFF7FEFF 		bl	_test_assert
 1414 00e8 0028     		cmp	r0, #0
 1415 00ea 9AD1     		bne	.L27
 1416 00ec 2168     		ldr	r1, [r4]
 1417 00ee 0820     		movs	r0, #8
 1418 00f0 0B1B     		subs	r3, r1, r4
 1419 00f2 5942     		rsbs	r1, r3, #0
 1420 00f4 5941     		adcs	r1, r1, r3
 1421 00f6 FFF7FEFF 		bl	_test_assert
 1422 00fa 0028     		cmp	r0, #0
 1423 00fc 91D1     		bne	.L27
 1424 00fe A168     		ldr	r1, [r4, #8]
 1425 0100 0920     		movs	r0, #9
 1426 0102 D1F10101 		rsbs	r1, r1, #1
 1427 0106 38BF     		it	cc
 1428 0108 0021     		movcc	r1, #0
 1429 010a FFF7FEFF 		bl	_test_assert
 1430 010e 0135     		adds	r5, r5, #1
 1431 0110 EDB2     		uxtb	r5, r5
 1432 0112 0028     		cmp	r0, #0
 1433 0114 85D1     		bne	.L27
 1434 0116 462D     		cmp	r5, #70
 1435 0118 D7D1     		bne	.L32
 1436 011a 0A20     		movs	r0, #10
 1437 011c 0E49     		ldr	r1, .L34+20
 1438 011e FFF7FEFF 		bl	_test_assert_sequence
 1439 0122 0028     		cmp	r0, #0
 1440 0124 7FF47DAF 		bne	.L27
 1441 0128 B6B2     		uxth	r6, r6
 1442 012a 06F6C411 		addw	r1, r6, #2500
 1443 012e 06F6C912 		addw	r2, r6, #2505
 1444 0132 89B2     		uxth	r1, r1
 1445 0134 92B2     		uxth	r2, r2
 1446 0136 0B20     		movs	r0, #11
 1447 0138 02B0     		add	sp, sp, #8
 1448              		@ sp needed
 1449 013a BDE87040 		pop	{r4, r5, r6, lr}
 1450 013e FFF7FEBF 		b	_test_assert_time_window
 1451              	.L35:
 1452 0142 00BF     		.align	2
 1453              	.L34:
ARM GAS  /tmp/cc3AplIV.s 			page 89


 1454 0144 00000000 		.word	.LANCHOR0
 1455 0148 00000000 		.word	ch
 1456 014c 00000000 		.word	wa
 1457 0150 00000000 		.word	thread2
 1458 0154 00000000 		.word	threads
 1459 0158 14000000 		.word	.LC5
 1460              		.size	sem2_execute, .-sem2_execute
 1461 015c AFF30080 		.section	.text.sem3_execute,"ax",%progbits
 1462              		.align	2
 1463              		.p2align 4,,15
 1464              		.thumb
 1465              		.thumb_func
 1466              		.type	sem3_execute, %function
 1467              	sem3_execute:
 1468              		@ args = 0, pretend = 0, frame = 0
 1469              		@ frame_needed = 0, uses_anonymous_args = 0
 1470 0000 10B5     		push	{r4, lr}
 1471 0002 204B     		ldr	r3, .L41
 1472 0004 204A     		ldr	r2, .L41+4
 1473 0006 9B69     		ldr	r3, [r3, #24]
 1474 0008 1068     		ldr	r0, [r2]
 1475 000a 9A68     		ldr	r2, [r3, #8]
 1476 000c 82B0     		sub	sp, sp, #8
 1477 000e 0023     		movs	r3, #0
 1478 0010 0132     		adds	r2, r2, #1
 1479 0012 0093     		str	r3, [sp]
 1480 0014 4FF4A471 		mov	r1, #328
 1481 0018 1C4B     		ldr	r3, .L41+8
 1482 001a FFF7FEFF 		bl	chThdCreateStatic
 1483 001e 1C4C     		ldr	r4, .L41+12
 1484 0020 1C4B     		ldr	r3, .L41+16
 1485 0022 2146     		mov	r1, r4
 1486 0024 1860     		str	r0, [r3]
 1487 0026 2046     		mov	r0, r4
 1488 0028 FFF7FEFF 		bl	chSemSignalWait
 1489 002c 2168     		ldr	r1, [r4]
 1490 002e 0120     		movs	r0, #1
 1491 0030 0A1B     		subs	r2, r1, r4
 1492 0032 5142     		rsbs	r1, r2, #0
 1493 0034 5141     		adcs	r1, r1, r2
 1494 0036 FFF7FEFF 		bl	_test_assert
 1495 003a 08B1     		cbz	r0, .L40
 1496              	.L36:
 1497 003c 02B0     		add	sp, sp, #8
 1498              		@ sp needed
 1499 003e 10BD     		pop	{r4, pc}
 1500              	.L40:
 1501 0040 A168     		ldr	r1, [r4, #8]
 1502 0042 0220     		movs	r0, #2
 1503 0044 D1F10101 		rsbs	r1, r1, #1
 1504 0048 38BF     		it	cc
 1505 004a 0021     		movcc	r1, #0
 1506 004c FFF7FEFF 		bl	_test_assert
 1507 0050 0028     		cmp	r0, #0
 1508 0052 F3D1     		bne	.L36
 1509 0054 2146     		mov	r1, r4
 1510 0056 2046     		mov	r0, r4
ARM GAS  /tmp/cc3AplIV.s 			page 90


 1511 0058 FFF7FEFF 		bl	chSemSignalWait
 1512 005c 2168     		ldr	r1, [r4]
 1513 005e 0320     		movs	r0, #3
 1514 0060 0B1B     		subs	r3, r1, r4
 1515 0062 5942     		rsbs	r1, r3, #0
 1516 0064 5941     		adcs	r1, r1, r3
 1517 0066 FFF7FEFF 		bl	_test_assert
 1518 006a 0028     		cmp	r0, #0
 1519 006c E6D1     		bne	.L36
 1520 006e A168     		ldr	r1, [r4, #8]
 1521 0070 0420     		movs	r0, #4
 1522 0072 D1F10101 		rsbs	r1, r1, #1
 1523 0076 38BF     		it	cc
 1524 0078 0021     		movcc	r1, #0
 1525 007a 02B0     		add	sp, sp, #8
 1526              		@ sp needed
 1527 007c BDE81040 		pop	{r4, lr}
 1528 0080 FFF7FEBF 		b	_test_assert
 1529              	.L42:
 1530              		.align	2
 1531              	.L41:
 1532 0084 00000000 		.word	ch
 1533 0088 00000000 		.word	wa
 1534 008c 00000000 		.word	thread3
 1535 0090 00000000 		.word	.LANCHOR0
 1536 0094 00000000 		.word	threads
 1537              		.size	sem3_execute, .-sem3_execute
 1538 0098 AFF30080 		.section	.text.thread4,"ax",%progbits
 1538      AFF30080 
 1539              		.align	2
 1540              		.p2align 4,,15
 1541              		.thumb
 1542              		.thumb_func
 1543              		.type	thread4, %function
 1544              	thread4:
 1545              		@ args = 0, pretend = 0, frame = 0
 1546              		@ frame_needed = 0, uses_anonymous_args = 0
 1547 0000 08B5     		push	{r3, lr}
 1548 0002 2022     		movs	r2, #32
 1549              	@ 546 "/home/cody/dev/chibios/trunk/os/ext/CMSIS/include/core_cmFunc.h" 1
 1550 0004 82F31188 		MSR basepri, r2
 1551              	@ 0 "" 2
 1552              		.thumb
 1553 0008 8368     		ldr	r3, [r0, #8]
 1554 000a 002B     		cmp	r3, #0
 1555 000c 05DD     		ble	.L45
 1556 000e FFF7FEFF 		bl	chSchRescheduleS
 1557 0012 0020     		movs	r0, #0
 1558              	@ 546 "/home/cody/dev/chibios/trunk/os/ext/CMSIS/include/core_cmFunc.h" 1
 1559 0014 80F31188 		MSR basepri, r0
 1560              	@ 0 "" 2
 1561              		.thumb
 1562 0018 08BD     		pop	{r3, pc}
 1563              	.L45:
 1564 001a FFF7FEFF 		bl	chSemSignalI
 1565 001e FFF7FEFF 		bl	chSchRescheduleS
 1566 0022 0020     		movs	r0, #0
ARM GAS  /tmp/cc3AplIV.s 			page 91


 1567              	@ 546 "/home/cody/dev/chibios/trunk/os/ext/CMSIS/include/core_cmFunc.h" 1
 1568 0024 80F31188 		MSR basepri, r0
 1569              	@ 0 "" 2
 1570              		.thumb
 1571 0028 08BD     		pop	{r3, pc}
 1572              		.size	thread4, .-thread4
 1573 002a 00BFAFF3 		.section	.text.sem4_execute,"ax",%progbits
 1573      0080
 1574              		.align	2
 1575              		.p2align 4,,15
 1576              		.thumb
 1577              		.thumb_func
 1578              		.type	sem4_execute, %function
 1579              	sem4_execute:
 1580              		@ args = 0, pretend = 0, frame = 16
 1581              		@ frame_needed = 0, uses_anonymous_args = 0
 1582 0000 70B5     		push	{r4, r5, r6, lr}
 1583 0002 86B0     		sub	sp, sp, #24
 1584 0004 03A8     		add	r0, sp, #12
 1585 0006 0021     		movs	r1, #0
 1586 0008 FFF7FEFF 		bl	chSemObjectInit
 1587 000c 03A8     		add	r0, sp, #12
 1588 000e 0021     		movs	r1, #0
 1589 0010 FFF7FEFF 		bl	chSemReset
 1590 0014 2025     		movs	r5, #32
 1591              	@ 546 "/home/cody/dev/chibios/trunk/os/ext/CMSIS/include/core_cmFunc.h" 1
 1592 0016 85F31188 		MSR basepri, r5
 1593              	@ 0 "" 2
 1594              		.thumb
 1595 001a 0599     		ldr	r1, [sp, #20]
 1596 001c 0120     		movs	r0, #1
 1597 001e 0029     		cmp	r1, #0
 1598 0020 CCBF     		ite	gt
 1599 0022 0021     		movgt	r1, #0
 1600 0024 0121     		movle	r1, #1
 1601 0026 FFF7FEFF 		bl	_test_assert
 1602 002a 0446     		mov	r4, r0
 1603 002c 20B1     		cbz	r0, .L47
 1604 002e 0023     		movs	r3, #0
 1605              	@ 546 "/home/cody/dev/chibios/trunk/os/ext/CMSIS/include/core_cmFunc.h" 1
 1606 0030 83F31188 		MSR basepri, r3
 1607              	@ 0 "" 2
 1608              		.thumb
 1609              	.L46:
 1610 0034 06B0     		add	sp, sp, #24
 1611              		@ sp needed
 1612 0036 70BD     		pop	{r4, r5, r6, pc}
 1613              	.L47:
 1614              	@ 546 "/home/cody/dev/chibios/trunk/os/ext/CMSIS/include/core_cmFunc.h" 1
 1615 0038 80F31188 		MSR basepri, r0
 1616              	@ 0 "" 2
 1617              		.thumb
 1618 003c 3D4B     		ldr	r3, .L61
 1619 003e 3E4A     		ldr	r2, .L61+4
 1620 0040 9B69     		ldr	r3, [r3, #24]
 1621 0042 1068     		ldr	r0, [r2]
 1622 0044 9A68     		ldr	r2, [r3, #8]
ARM GAS  /tmp/cc3AplIV.s 			page 92


 1623 0046 03AB     		add	r3, sp, #12
 1624 0048 013A     		subs	r2, r2, #1
 1625 004a 0093     		str	r3, [sp]
 1626 004c 4FF4A471 		mov	r1, #328
 1627 0050 3A4B     		ldr	r3, .L61+8
 1628 0052 FFF7FEFF 		bl	chThdCreateStatic
 1629 0056 3A4B     		ldr	r3, .L61+12
 1630 0058 1860     		str	r0, [r3]
 1631 005a 03A8     		add	r0, sp, #12
 1632 005c FFF7FEFF 		bl	chSemWait
 1633              	@ 546 "/home/cody/dev/chibios/trunk/os/ext/CMSIS/include/core_cmFunc.h" 1
 1634 0060 85F31188 		MSR basepri, r5
 1635              	@ 0 "" 2
 1636              		.thumb
 1637 0064 0599     		ldr	r1, [sp, #20]
 1638 0066 0220     		movs	r0, #2
 1639 0068 0029     		cmp	r1, #0
 1640 006a CCBF     		ite	gt
 1641 006c 0021     		movgt	r1, #0
 1642 006e 0121     		movle	r1, #1
 1643 0070 FFF7FEFF 		bl	_test_assert
 1644 0074 18B1     		cbz	r0, .L49
 1645              	.L57:
 1646              	@ 546 "/home/cody/dev/chibios/trunk/os/ext/CMSIS/include/core_cmFunc.h" 1
 1647 0076 84F31188 		MSR basepri, r4
 1648              	@ 0 "" 2
 1649              		.thumb
 1650 007a 06B0     		add	sp, sp, #24
 1651              		@ sp needed
 1652 007c 70BD     		pop	{r4, r5, r6, pc}
 1653              	.L49:
 1654              	@ 546 "/home/cody/dev/chibios/trunk/os/ext/CMSIS/include/core_cmFunc.h" 1
 1655 007e 80F31188 		MSR basepri, r0
 1656              	@ 0 "" 2
 1657              	@ 546 "/home/cody/dev/chibios/trunk/os/ext/CMSIS/include/core_cmFunc.h" 1
 1658 0082 85F31188 		MSR basepri, r5
 1659              	@ 0 "" 2
 1660              		.thumb
 1661 0086 059B     		ldr	r3, [sp, #20]
 1662 0088 002B     		cmp	r3, #0
 1663 008a 21DD     		ble	.L59
 1664              	.L50:
 1665 008c FFF7FEFF 		bl	chSchRescheduleS
 1666 0090 0024     		movs	r4, #0
 1667              	@ 546 "/home/cody/dev/chibios/trunk/os/ext/CMSIS/include/core_cmFunc.h" 1
 1668 0092 84F31188 		MSR basepri, r4
 1669              	@ 0 "" 2
 1670              		.thumb
 1671 0096 2026     		movs	r6, #32
 1672              	@ 546 "/home/cody/dev/chibios/trunk/os/ext/CMSIS/include/core_cmFunc.h" 1
 1673 0098 86F31188 		MSR basepri, r6
 1674              	@ 0 "" 2
 1675              		.thumb
 1676 009c 0599     		ldr	r1, [sp, #20]
 1677 009e 0320     		movs	r0, #3
 1678 00a0 A142     		cmp	r1, r4
 1679 00a2 D4BF     		ite	le
ARM GAS  /tmp/cc3AplIV.s 			page 93


 1680 00a4 0021     		movle	r1, #0
 1681 00a6 0121     		movgt	r1, #1
 1682 00a8 FFF7FEFF 		bl	_test_assert
 1683 00ac 0546     		mov	r5, r0
 1684 00ae 0028     		cmp	r0, #0
 1685 00b0 E1D1     		bne	.L57
 1686              	@ 546 "/home/cody/dev/chibios/trunk/os/ext/CMSIS/include/core_cmFunc.h" 1
 1687 00b2 80F31188 		MSR basepri, r0
 1688              	@ 0 "" 2
 1689              	@ 546 "/home/cody/dev/chibios/trunk/os/ext/CMSIS/include/core_cmFunc.h" 1
 1690 00b6 86F31188 		MSR basepri, r6
 1691              	@ 0 "" 2
 1692              		.thumb
 1693 00ba 0599     		ldr	r1, [sp, #20]
 1694 00bc 0420     		movs	r0, #4
 1695 00be 4A1E     		subs	r2, r1, #1
 1696 00c0 5142     		rsbs	r1, r2, #0
 1697 00c2 5141     		adcs	r1, r1, r2
 1698 00c4 FFF7FEFF 		bl	_test_assert
 1699 00c8 30B1     		cbz	r0, .L52
 1700              	.L58:
 1701              	@ 546 "/home/cody/dev/chibios/trunk/os/ext/CMSIS/include/core_cmFunc.h" 1
 1702 00ca 85F31188 		MSR basepri, r5
 1703              	@ 0 "" 2
 1704              		.thumb
 1705 00ce B1E7     		b	.L46
 1706              	.L59:
 1707 00d0 03A8     		add	r0, sp, #12
 1708 00d2 FFF7FEFF 		bl	chSemSignalI
 1709 00d6 D9E7     		b	.L50
 1710              	.L52:
 1711              	@ 546 "/home/cody/dev/chibios/trunk/os/ext/CMSIS/include/core_cmFunc.h" 1
 1712 00d8 80F31188 		MSR basepri, r0
 1713              	@ 0 "" 2
 1714              	@ 546 "/home/cody/dev/chibios/trunk/os/ext/CMSIS/include/core_cmFunc.h" 1
 1715 00dc 86F31188 		MSR basepri, r6
 1716              	@ 0 "" 2
 1717              		.thumb
 1718 00e0 059B     		ldr	r3, [sp, #20]
 1719 00e2 002B     		cmp	r3, #0
 1720 00e4 22DD     		ble	.L60
 1721              	.L53:
 1722 00e6 FFF7FEFF 		bl	chSchRescheduleS
 1723 00ea 0024     		movs	r4, #0
 1724              	@ 546 "/home/cody/dev/chibios/trunk/os/ext/CMSIS/include/core_cmFunc.h" 1
 1725 00ec 84F31188 		MSR basepri, r4
 1726              	@ 0 "" 2
 1727              		.thumb
 1728 00f0 2026     		movs	r6, #32
 1729              	@ 546 "/home/cody/dev/chibios/trunk/os/ext/CMSIS/include/core_cmFunc.h" 1
 1730 00f2 86F31188 		MSR basepri, r6
 1731              	@ 0 "" 2
 1732              		.thumb
 1733 00f6 0599     		ldr	r1, [sp, #20]
 1734 00f8 0320     		movs	r0, #3
 1735 00fa A142     		cmp	r1, r4
 1736 00fc D4BF     		ite	le
ARM GAS  /tmp/cc3AplIV.s 			page 94


 1737 00fe 0021     		movle	r1, #0
 1738 0100 0121     		movgt	r1, #1
 1739 0102 FFF7FEFF 		bl	_test_assert
 1740 0106 0546     		mov	r5, r0
 1741 0108 0028     		cmp	r0, #0
 1742 010a B4D1     		bne	.L57
 1743              	@ 546 "/home/cody/dev/chibios/trunk/os/ext/CMSIS/include/core_cmFunc.h" 1
 1744 010c 80F31188 		MSR basepri, r0
 1745              	@ 0 "" 2
 1746              	@ 546 "/home/cody/dev/chibios/trunk/os/ext/CMSIS/include/core_cmFunc.h" 1
 1747 0110 86F31188 		MSR basepri, r6
 1748              	@ 0 "" 2
 1749              		.thumb
 1750 0114 0599     		ldr	r1, [sp, #20]
 1751 0116 0520     		movs	r0, #5
 1752 0118 4B1E     		subs	r3, r1, #1
 1753 011a 5942     		rsbs	r1, r3, #0
 1754 011c 5941     		adcs	r1, r1, r3
 1755 011e FFF7FEFF 		bl	_test_assert
 1756 0122 0028     		cmp	r0, #0
 1757 0124 D1D1     		bne	.L58
 1758              	@ 546 "/home/cody/dev/chibios/trunk/os/ext/CMSIS/include/core_cmFunc.h" 1
 1759 0126 80F31188 		MSR basepri, r0
 1760              	@ 0 "" 2
 1761              		.thumb
 1762 012a 83E7     		b	.L46
 1763              	.L60:
 1764 012c 03A8     		add	r0, sp, #12
 1765 012e FFF7FEFF 		bl	chSemSignalI
 1766 0132 D8E7     		b	.L53
 1767              	.L62:
 1768              		.align	2
 1769              	.L61:
 1770 0134 00000000 		.word	ch
 1771 0138 00000000 		.word	wa
 1772 013c 00000000 		.word	thread4
 1773 0140 00000000 		.word	threads
 1774              		.size	sem4_execute, .-sem4_execute
 1775              		.global	patternsem
 1776              		.global	testsem4
 1777              		.global	testsem3
 1778              		.global	testsem2
 1779              		.global	testsem1
 1780 0144 AFF30080 		.section	.rodata.testsem1,"a",%progbits
 1780      AFF30080 
 1780      AFF30080 
 1781              		.align	2
 1782              		.type	testsem1, %object
 1783              		.size	testsem1, 16
 1784              	testsem1:
 1785 0000 74000000 		.word	.LC9
 1786 0004 00000000 		.word	sem1_setup
 1787 0008 00000000 		.word	0
 1788 000c 00000000 		.word	sem1_execute
 1789              		.section	.rodata.testsem2,"a",%progbits
 1790              		.align	2
 1791              		.type	testsem2, %object
ARM GAS  /tmp/cc3AplIV.s 			page 95


 1792              		.size	testsem2, 16
 1793              	testsem2:
 1794 0000 60000000 		.word	.LC8
 1795 0004 00000000 		.word	sem2_setup
 1796 0008 00000000 		.word	0
 1797 000c 00000000 		.word	sem2_execute
 1798              		.section	.rodata.testsem3,"a",%progbits
 1799              		.align	2
 1800              		.type	testsem3, %object
 1801              		.size	testsem3, 16
 1802              	testsem3:
 1803 0000 40000000 		.word	.LC7
 1804 0004 00000000 		.word	sem3_setup
 1805 0008 00000000 		.word	0
 1806 000c 00000000 		.word	sem3_execute
 1807              		.section	.rodata.testsem4,"a",%progbits
 1808              		.align	2
 1809              		.type	testsem4, %object
 1810              		.size	testsem4, 16
 1811              	testsem4:
 1812 0000 1C000000 		.word	.LC6
 1813 0004 00000000 		.word	0
 1814 0008 00000000 		.word	0
 1815 000c 00000000 		.word	sem4_execute
 1816              		.section	.data.sem1,"aw",%progbits
 1817              		.align	2
 1818              		.set	.LANCHOR0,. + 0
 1819              		.type	sem1, %object
 1820              		.size	sem1, 12
 1821              	sem1:
 1822 0000 00000000 		.word	sem1
 1823 0004 00000000 		.word	sem1
 1824 0008 00000000 		.word	0
 1825              		.section	.rodata.patternsem,"a",%progbits
 1826              		.align	2
 1827              		.type	patternsem, %object
 1828              		.size	patternsem, 20
 1829              	patternsem:
 1830 0000 00000000 		.word	testsem1
 1831 0004 00000000 		.word	testsem2
 1832 0008 00000000 		.word	testsem3
 1833 000c 00000000 		.word	testsem4
 1834 0010 00000000 		.word	0
 1835              		.section	.rodata.str1.4,"aMS",%progbits,1
 1836              		.align	2
 1837              	.LC0:
 1838 0000 4100     		.ascii	"A\000"
 1839 0002 0000     		.space	2
 1840              	.LC1:
 1841 0004 4200     		.ascii	"B\000"
 1842 0006 0000     		.space	2
 1843              	.LC2:
 1844 0008 4300     		.ascii	"C\000"
 1845 000a 0000     		.space	2
 1846              	.LC3:
 1847 000c 4400     		.ascii	"D\000"
 1848 000e 0000     		.space	2
ARM GAS  /tmp/cc3AplIV.s 			page 96


 1849              	.LC4:
 1850 0010 4500     		.ascii	"E\000"
 1851 0012 0000     		.space	2
 1852              	.LC5:
 1853 0014 41424344 		.ascii	"ABCDE\000"
 1853      4500
 1854 001a 0000     		.space	2
 1855              	.LC6:
 1856 001c 42696E61 		.ascii	"Binary Semaphores, functionality\000"
 1856      72792053 
 1856      656D6170 
 1856      686F7265 
 1856      732C2066 
 1857 003d 000000   		.space	3
 1858              	.LC7:
 1859 0040 53656D61 		.ascii	"Semaphores, atomic signal-wait\000"
 1859      70686F72 
 1859      65732C20 
 1859      61746F6D 
 1859      69632073 
 1860 005f 00       		.space	1
 1861              	.LC8:
 1862 0060 53656D61 		.ascii	"Semaphores, timeout\000"
 1862      70686F72 
 1862      65732C20 
 1862      74696D65 
 1862      6F757400 
 1863              	.LC9:
 1864 0074 53656D61 		.ascii	"Semaphores, enqueuing\000"
 1864      70686F72 
 1864      65732C20 
 1864      656E7175 
 1864      6575696E 
 1865              		.comm	__gnu_lto_v1,1,1
 1866 008a 0000     		.ident	"GCC: (GNU Tools for ARM Embedded Processors) 4.8.4 20140526 (release) [ARM/embedded-4_8-br
ARM GAS  /tmp/cc3AplIV.s 			page 97


DEFINED SYMBOLS
                            *ABS*:0000000000000000 testsem.c
     /tmp/cc3AplIV.s:1024   .text.sem1_execute:0000000000000000 $t
     /tmp/cc3AplIV.s:1029   .text.sem1_execute:0000000000000000 sem1_execute
     /tmp/cc3AplIV.s:1165   .text.sem1_execute:0000000000000124 $d
     /tmp/cc3AplIV.s:1205   .text.thread1:0000000000000000 thread1
     /tmp/cc3AplIV.s:1178   .text.thread3:0000000000000000 $t
     /tmp/cc3AplIV.s:1183   .text.thread3:0000000000000000 thread3
     /tmp/cc3AplIV.s:1197   .text.thread3:0000000000000014 $d
     /tmp/cc3AplIV.s:1200   .text.thread1:0000000000000000 $t
     /tmp/cc3AplIV.s:1219   .text.thread1:0000000000000014 $d
     /tmp/cc3AplIV.s:1222   .text.sem1_setup:0000000000000000 $t
     /tmp/cc3AplIV.s:1227   .text.sem1_setup:0000000000000000 sem1_setup
     /tmp/cc3AplIV.s:1237   .text.sem1_setup:0000000000000008 $d
     /tmp/cc3AplIV.s:1240   .text.sem2_setup:0000000000000000 $t
     /tmp/cc3AplIV.s:1245   .text.sem2_setup:0000000000000000 sem2_setup
     /tmp/cc3AplIV.s:1255   .text.sem2_setup:0000000000000008 $d
     /tmp/cc3AplIV.s:1258   .text.sem3_setup:0000000000000000 $t
     /tmp/cc3AplIV.s:1263   .text.sem3_setup:0000000000000000 sem3_setup
     /tmp/cc3AplIV.s:1273   .text.sem3_setup:0000000000000008 $d
     /tmp/cc3AplIV.s:1276   .text.thread2:0000000000000000 $t
     /tmp/cc3AplIV.s:1281   .text.thread2:0000000000000000 thread2
     /tmp/cc3AplIV.s:1304   .text.thread2:0000000000000020 $d
     /tmp/cc3AplIV.s:1307   .text.sem2_execute:0000000000000000 $t
     /tmp/cc3AplIV.s:1312   .text.sem2_execute:0000000000000000 sem2_execute
     /tmp/cc3AplIV.s:1454   .text.sem2_execute:0000000000000144 $d
     /tmp/cc3AplIV.s:1462   .text.sem3_execute:0000000000000000 $t
     /tmp/cc3AplIV.s:1467   .text.sem3_execute:0000000000000000 sem3_execute
     /tmp/cc3AplIV.s:1532   .text.sem3_execute:0000000000000084 $d
     /tmp/cc3AplIV.s:1539   .text.thread4:0000000000000000 $t
     /tmp/cc3AplIV.s:1544   .text.thread4:0000000000000000 thread4
     /tmp/cc3AplIV.s:1574   .text.sem4_execute:0000000000000000 $t
     /tmp/cc3AplIV.s:1579   .text.sem4_execute:0000000000000000 sem4_execute
     /tmp/cc3AplIV.s:1770   .text.sem4_execute:0000000000000134 $d
     /tmp/cc3AplIV.s:1829   .rodata.patternsem:0000000000000000 patternsem
     /tmp/cc3AplIV.s:1811   .rodata.testsem4:0000000000000000 testsem4
     /tmp/cc3AplIV.s:1802   .rodata.testsem3:0000000000000000 testsem3
     /tmp/cc3AplIV.s:1793   .rodata.testsem2:0000000000000000 testsem2
     /tmp/cc3AplIV.s:1784   .rodata.testsem1:0000000000000000 testsem1
     /tmp/cc3AplIV.s:1781   .rodata.testsem1:0000000000000000 $d
     /tmp/cc3AplIV.s:1790   .rodata.testsem2:0000000000000000 $d
     /tmp/cc3AplIV.s:1799   .rodata.testsem3:0000000000000000 $d
     /tmp/cc3AplIV.s:1808   .rodata.testsem4:0000000000000000 $d
     /tmp/cc3AplIV.s:1817   .data.sem1:0000000000000000 $d
     /tmp/cc3AplIV.s:1821   .data.sem1:0000000000000000 sem1
     /tmp/cc3AplIV.s:1826   .rodata.patternsem:0000000000000000 $d
     /tmp/cc3AplIV.s:1836   .rodata.str1.4:0000000000000000 $d
                            *COM*:0000000000000001 __gnu_lto_v1
     /tmp/cc3AplIV.s:1199   .text.thread3:0000000000000018 $t
     /tmp/cc3AplIV.s:1221   .text.thread1:0000000000000018 $t
     /tmp/cc3AplIV.s:1239   .text.sem1_setup:000000000000000c $t
     /tmp/cc3AplIV.s:1257   .text.sem2_setup:000000000000000c $t
     /tmp/cc3AplIV.s:1275   .text.sem3_setup:000000000000000c $t
     /tmp/cc3AplIV.s:1306   .text.thread2:0000000000000024 $t
     /tmp/cc3AplIV.s:1461   .text.sem2_execute:000000000000015c $t
     /tmp/cc3AplIV.s:1538   .text.sem3_execute:0000000000000098 $t
     /tmp/cc3AplIV.s:1780   .text.sem4_execute:0000000000000144 $t
ARM GAS  /tmp/cc3AplIV.s 			page 98



UNDEFINED SYMBOLS
chThdCreateStatic
chSemSignal
test_wait_threads
_test_assert_sequence
chSemAddCounterI
chSchRescheduleS
_test_assert
ch
wa
threads
chSemWait
test_emit_token
chSemObjectInit
chThdSleep
chSemSignalI
chSemWaitTimeout
test_wait_tick
_test_assert_time_window
chSemSignalWait
chSemReset
