ARM GAS  /tmp/ccpoXYVW.s 			page 1


   1              		.syntax unified
   2              		.cpu cortex-m3
   3              		.fpu softvfp
   4              		.eabi_attribute 20, 1
   5              		.eabi_attribute 21, 1
   6              		.eabi_attribute 23, 3
   7              		.eabi_attribute 24, 1
   8              		.eabi_attribute 25, 1
   9              		.eabi_attribute 26, 1
  10              		.eabi_attribute 30, 2
  11              		.eabi_attribute 34, 1
  12              		.eabi_attribute 18, 4
  13              		.thumb
  14              		.file	"testdyn.c"
  15              		.section	.gnu.lto_.jmpfuncs.28a2a932c1f3b045,"",%progbits
  16 0000 789CAD53 		.ascii	"x\234\255S;R\3030\020}\273\262b%v\030\012f24\276\000"
  16      3B52C330 
  16      107DBBB2 
  16      62257618 
  16      0A663234 
  17 0016 1D27C049 		.ascii	"\035'\300I\270\0035T.|\002\032\227\034!M.\300I8\012"
  17      B8033554 
  17      2E7C021A 
  17      971C214D 
  17      2EC04938 
  18 002b 67A0421F 		.ascii	"g\240B\037G\366b\207\314 \\\310\373}\332\331\367\304"
  18      47F66287 
  18      CC205CC8 
  18      FB7DDAD9 
  18      F7C4
  19 003d 60CC7D85 		.ascii	"`\314}\205\006n\355\337\000\314O\324\0202\027\356m\025"
  19      066EEDDF 
  19      00CC4FD4 
  19      103217EE 
  19      6D15
  20 004f EC577C75 		.ascii	"\354W|uo\335uC\324R\337\327\027XP\237=\270,W\240cwx"
  20      6FDD7543 
  20      D452DFD7 
  20      1758509F 
  20      3DB82C57 
  21 0067 68488922 		.ascii	"hH\211\"\337c\017=\005\012\005\037~\266!\233\275\364"
  21      DF630F3D 
  21      050A051F 
  21      7EB6219B 
  21      BDF4
  22 0079 D908AD2B 		.ascii	"\331\010\255+\350\000\275\300/3\315\004\323.5\343K\323"
  22      E800BDC0 
  22      2F33CD04 
  22      D32E35E3 
  22      4BD3
  23 008b A08A8BF3 		.ascii	"\240\212\213\363+rK\202\232\271&F\362;\274w\235\263"
  23      2B724B82 
  23      9AB92646 
  23      F23BBC77 
  23      9DB3
  24 009d 4C4BF47C 		.ascii	"LK\364|j\215\243|\226@\236\016a\204\032hh^\266\304?"
  24      6A8DA37C 
ARM GAS  /tmp/ccpoXYVW.s 			page 2


  24      96409E0E 
  24      61841A68 
  24      685EB6C4 
  25 00b2 05723E2D 		.ascii	"\005r>-\344\261\252p\025vPL\345\221M1.n\364f\274\321"
  25      E4B1AA70 
  25      1576504C 
  25      E5914D31 
  25      2E6EF466 
  26 00c8 BF006C52 		.ascii	"\277\000lR\001t*\200I\0058\247\252\001\240\030\253!"
  26      01742A80 
  26      490538A7 
  26      AA01A018 
  26      AB21
  27 00da F21375EB 		.ascii	"\362\023u\353-\3138J\247>\254O\254\224\236\331HR!\335"
  27      2DCB384A 
  27      A73EAC4F 
  27      AC949ED9 
  27      485221DD 
  28 00ee 55E0DDD9 		.ascii	"U\340\335\331\353\373\030]\312\"#\335|\304\371B\246"
  28      EBFB185D 
  28      CA2223DD 
  28      7CC4F942 
  28      A6
  29 00ff B47433E9 		.ascii	"\264t3\351*\351\262t\375R\376\361iB\325[\360\016l\317"
  29      2AE9B274 
  29      FD52FEF1 
  29      6942D55B 
  29      F00E6CCF 
  30 0113 1ABADEEE 		.ascii	"\032\272\336\356\366\340G\360\036\337\031$\337\254"
  30      F6E047F0 
  30      1EDF1924 
  30      DFAC
  31              		.text
  32              		.section	.gnu.lto_.inline.28a2a932c1f3b045,"",%progbits
  33 0000 789C8D51 		.ascii	"x\234\215Q\313\015\3020\014}N?\211hK\331\2005\030\201"
  33      CB0DC230 
  33      0C7D4E3F 
  33      89684BD9 
  33      80351881 
  34 0014 03EA8105 		.ascii	"\003\352\201\005X\210C\305\004\210!\020HHL\322\023\027"
  34      588843C5 
  34      04882110 
  34      48484CD2 
  34      1317
  35 0026 56801376 		.ascii	"V\200\023v\022\321\020Z\251=$~~\317\361s\255\2400\364"
  35      12D1105A 
  35      A93D247E 
  35      7ECFF173 
  35      ADA030F4 
  36 003a ED7CDAC0 		.ascii	"\355|\332\300t\330\023A\255\333\253B~\\Z\"\255\300\205"
  36      74D81341 
  36      ADDBAB42 
  36      7E5C5A22 
  36      ADC085
  37 004d 6DF37BFB 		.ascii	"m\363{\3734h\026HT\301\211\266\321\013 \003\343\236"
  37      34681648 
  37      54C189B6 
ARM GAS  /tmp/ccpoXYVW.s 			page 3


  37      D10B2003 
  37      E39E
  38 005f 494AAB0E 		.ascii	"IJ\253\016\230 \364d\202|\316\335I\242\224_\265\006"
  38      9820F464 
  38      827CCEDD 
  38      49A2945F 
  38      B506
  39 0071 E8A95377 		.ascii	"\350\251Sw\212\027\337 \203\256\311N\023\232L\370\326"
  39      8A17DF20 
  39      83AEC94E 
  39      139A4CF8 
  39      D6
  40 0082 A38CC103 		.ascii	"\243\214\301\003\235\014\267=\275\263/\353Z;\177\304"
  40      9D0CB73D 
  40      BDB32FEB 
  40      5A3B7FC4 
  41 0092 5AF2882C 		.ascii	"Z\362\210,\372\2370\2579\266\246\247F\362\226T\026\243"
  41      FA9F30AF 
  41      39B6A6A7 
  41      46F29654 
  41      16A3
  42 00a4 CE4A9477 		.ascii	"\316J\224w1f.\347\320\030\311\24420*\274\260b\301\346"
  42      31662EE7 
  42      D018C9A4 
  42      32302ABC 
  42      B062C1E6 
  43 00b8 76A061E7 		.ascii	"v\240a\347\375v\"h\177\030F\310\010F[\234V\024\211#"
  43      FD762268 
  43      7F1846C8 
  43      08465B9C 
  43      56148923 
  44 00cc 182C191F 		.ascii	"\030,\031\037\2072<\237"
  44      87323C9F 
  45              		.text
  46              		.section	.gnu.lto_.pureconst.28a2a932c1f3b045,"",%progbits
  47 0000 789C6362 		.ascii	"x\234cb`b\020d\200\000\016\006IfIV\011v\011\016In\011"
  47      60621064 
  47      80000E06 
  47      49664956 
  47      0976090E 
  48 0017 1E0B5E49 		.ascii	"\036\013^I\000\012\272\001="
  48      000ABA01 
  48      3D
  49              		.text
  50              		.section	.gnu.lto_dyn1_execute.28a2a932c1f3b045,"",%progbits
  51 0000 789CB556 		.ascii	"x\234\265V]L\\E\024>g\356\356\335e\177\240 \302\362"
  51      5D4C5C45 
  51      143E67EE 
  51      EEDD657F 
  51      A020C2F2 
  52 0014 E3CA5F68 		.ascii	"\343\312_h\033,\013\215Z}Q\333\306D\343k\211\032}\331"
  52      1B2C0B8D 
  52      5A7D51DB 
  52      C644E36B 
  52      891A7DD9 
  53 0028 5E106E2A 		.ascii	"^\020n*\264ai\223\302\003\027\2266\030\251\022\342\003"
  53      B4616993 
ARM GAS  /tmp/ccpoXYVW.s 			page 4


  53      C2031796 
  53      3618A912 
  53      E203
  54 003a 6A4C20A8 		.ascii	"jL \250\265U\203\370\223\306\310\303\246j\013&\024M"
  54      B55583F8 
  54      93C6C8C3 
  54      A66A0B26 
  54      144D
  55 004c 88B6B589 		.ascii	"\210\266\265\211\304\007\255i\3234\215Q\323\324\256"
  55      C407AD69 
  55      D3348D51 
  55      D3D4AE
  56 005b E7CCFDD9 		.ascii	"\347\314\375\331?@h\322\233\354\23193\347\234\357\233"
  56      3F4068D2 
  56      9BEC9939 
  56      33E79CEF 
  56      9B
  57 006c EFCECC5D 		.ascii	"\357\316\314]\001\002\262\237\257\351w\303\017\360:"
  57      0102B29F 
  57      AFE977C3 
  57      0FF03A
  58 007b B5580028 		.ascii	"\265X\000(F\317\001\014x\205P>?\015`\370<\227\374`\004"
  58      46CF010C 
  58      7885503E 
  58      3F0D60F8 
  58      3C97FC60 
  59 0090 14E14A77 		.ascii	"\024\341Jw]\302\315\255\317#\007\003n\241\246\273\252"
  59      5DC2CDAD 
  59      CF230703 
  59      6EA1A6BB 
  59      AA
  60 00a1 F0A6BB1E 		.ascii	"\360\246\273\036\364\2325\275\"8\273\203\306\363\226"
  60      F49A35BD 
  60      2238BB83 
  60      C6F396
  61 00b0 4A6838CF 		.ascii	"Jh8\317\362|\322\363Y\236_z~\021\\\212\220\027\230\015"
  61      F27CD2F3 
  61      599E5F7A 
  61      7E115C8A 
  61      9017980D 
  62 00c4 9317C07C 		.ascii	"\223\027\300|\263@\320\356\344#r\007\020\372\205\342"
  62      B340D0EE 
  62      E4237207 
  62      10FA85E2 
  63 00d4 72AB1E6F 		.ascii	"r\253\036o\236\317\037\010\346c\377\363\310\213Rk`\322"
  63      9ECF1F08 
  63      E663FFF3 
  63      C88B526B 
  63      60D2
  64 00e6 30C696BF 		.ascii	"0\306\226\277\275q^\274\371Fbh\302\270\225L\"\352H\002"
  64      BD715EBC 
  64      F9466268 
  64      C2B8954C 
  64      22EA4802 
  65 00fa 6C47D010 		.ascii	"lG\320\020\236#\007\253d#\\\231\212\310\334\321\304"
  65      9E2307AB 
  65      64235C99 
ARM GAS  /tmp/ccpoXYVW.s 			page 5


  65      8AC8DCD1 
  65      C4
  66 010b CCD9F949 		.ascii	"\314\331\371I4\306\214\201\353\311d\201\216\212\200"
  66      34C68C81 
  66      EBC96481 
  66      8E8A80
  67 011a 87D79539 		.ascii	"\207\327\2259\226\270xv\3047:0l$\223\375\022\361\261"
  67      96B87876 
  67      C4373A30 
  67      6C2493FD 
  67      12F1B1
  68 012d F5E425C6 		.ascii	"\365\344%\306\022\027\216\036+3&\006G\215\333DVG\227"
  68      12178E1E 
  68      2B332606 
  68      478DDB44 
  68      564797
  69 0140 80DDEBCB 		.ascii	"\200\335\353\3134\276j\2353\206\022\311\344\3432\353"
  69      34BE6A9D 
  69      338612C9 
  69      E4E332EB 
  70 0150 C975F2FC 		.ascii	"\311u\362\374\371\314H:\236[\300S\377\2279-\022\313"
  70      F9CC483A 
  70      9E5BC053 
  70      FF97392D 
  70      12CB
  71 0162 C9E4EC17 		.ascii	"\311\344\354\027\023\277^\303BR2\212SX\003*\350\250"
  71      13BF5EC3 
  71      4252328A 
  71      5358032A 
  71      E8A8
  72 0174 7AC9787C 		.ascii	"z\311x|\334\013p\257\200\346&i\256\220\332\017\251-"
  72      DC0B70AF 
  72      80E62669 
  72      AE90DA0F 
  72      A92D
  73 0186 E299629E 		.ascii	"\342\231b\236)e\023bS\306\246\234M\005\233J2\3360\233"
  73      29651362 
  73      53C6A69C 
  73      4D059B4A 
  73      32DE309B 
  74 019a 6A36B564 		.ascii	"j6\265d\240\216{\365l6[\005\267P\373\036\265[y\260\201"
  74      A08E7BF5 
  74      6C365B05 
  74      B750FB1E 
  74      B55B79B0 
  75 01af 4D132737 		.ascii	"M\023'7\223\311#\206n\030\242\267W\025\305\343\024\023"
  75      93C92386 
  75      6E18A2B7 
  75      5715C5E3 
  75      1413
  76 01c1 C513D232 		.ascii	"\305\023\3222\001\340\245\321\263\207,o\236\026\024"
  76      01E0A5D1 
  76      B3872C6F 
  76      9E1614
  77 01d0 DC2A0B30 		.ascii	"\334*\0130x\361\326o\227\277S\255L\273\2041\365~\304"
  77      78F1D66F 
  77      97BF53AD 
ARM GAS  /tmp/ccpoXYVW.s 			page 6


  77      4CBB8431 
  77      F57EC4
  78 01e3 29677712 		.ascii	")gw\022\257\3764\243\000U\374\030\335TO\026\324P\236"
  78      AFFE34A3 
  78      0055FC18 
  78      DD544F16 
  78      D4509E
  79 01f6 AA766C6A 		.ascii	"\252vlj\200\223\206a,\237:\363\343\273(\210\223\351"
  79      80938661 
  79      2C9F3AF3 
  79      E3BB2888 
  79      93E9
  80 0208 1B8FEAE8 		.ascii	"\033\217\352\350{\033\336\0320\214M:\372\373\340\246"
  80      7B1BDE1A 
  80      308C4D3A 
  80      FAFBE0A6 
  81 0218 31CCBD40 		.ascii	"1\314\275@\247Lg\231\003R\334\275\354Gq\232JS\037\235"
  81      A74C6799 
  81      0352DCBD 
  81      EC47719A 
  81      4A531F9D 
  82 022c 3E00731C 		.ascii	">\000s\034\377\264<\212\237\220\337\216\315V\341\030"
  82      FFB43C8A 
  82      9F90DF8E 
  82      CD56E118 
  83 023c 2DD9291C 		.ascii	"-\331)\034$\002\\\313c\325\022\234?c\346/\302\221\353"
  83      24025CCB 
  83      63D5129C 
  83      3F63E62F 
  83      C291EB
  84 024f 83A70226 		.ascii	"\203\247\002&m\000\207B\276\206\212\0147G\214\027t,"
  84      6D008742 
  84      BE868A0C 
  84      37478C17 
  84      742C
  85 0261 E844B4E2 		.ascii	"\350D\264\342\372\240W\307M\266\206rH\307Bf\023\037"
  85      FAA057C7 
  85      4DB68672 
  85      48C74266 
  85      131F
  86 0273 8E5F39F6 		.ascii	"\216_9\366\2149\326\216*1bd5IO\201\204\013\331s^\007"
  86      8C39D68E 
  86      2A316264 
  86      35494F81 
  86      840BD973 
  87 0289 AB484397 		.ascii	"\253HC\227\203\345\315\000\342d\230\023\\\312\232\274"
  87      83E5CD00 
  87      E2649813 
  87      5CCA9ABC 
  88 0299 4743B7C3 		.ascii	"GC\267\303\342\246\021\322\2618\014q|\307\030\177B\307"
  88      E2A611D2 
  88      B1380C71 
  88      7CC7187F 
  88      42C7
  89 02ab 7B536C4A 		.ascii	"{SlJ\2446\363\337{\314\221m\360\021\353\362\020\251"
  89      A436F3DF 
  89      7BCC916D 
ARM GAS  /tmp/ccpoXYVW.s 			page 7


  89      F011EBF2 
  89      10A9
  90 02bd E0E852EA 		.ascii	"\340\350R\3520\010u\3127\305h!\260\245W\234\275Md\255"
  90      300875CA 
  90      37C56821 
  90      B0A5579C 
  90      BD4D64AD 
  91 02d1 B5FD9D5A 		.ascii	"\265\375\235Z\233\317^\333\355\334\265\0056\2666\337"
  91      9BCF5EDB 
  91      EDDCB505 
  91      36B636DF 
  92 02e1 5A6B3B7A 		.ascii	"Zk;zW\326\206\251\265\005\344.X\236\327\356p\023\034"
  92      57D686A9 
  92      B505E42E 
  92      589ED7EE 
  92      70131C
  93 02f4 CFD90483 		.ascii	"\317\331\004\203\363\347\351z\265\305(0C$JB\265G\013"
  93      F3E7E97A 
  93      B5C52830 
  93      43244A42 
  93      B5470B
  94 0307 1D94320D 		.ascii	"\035\2242\015\325t\224g3P(_\307rK\376\351\327\034\371"
  94      D5749467 
  94      3350285F 
  94      C7724BFE 
  94      E9D71CF9 
  95 031b 8B6CF9FF 		.ascii	"\213l\371\377\315\225\277xc\362\027\255%\377+wE~\221"
  95      CD95BF78 
  95      63F217AD 
  95      25FF2B77 
  95      457E91
  96 032e 92BF98A9 		.ascii	"\222\277\230\251\017-\237\233\362\344\350_\241Yg\226"
  96      0F2D9F9B 
  96      F2E4E85F 
  96      A1596796 
  97 033e E4D2B152 		.ascii	"\344\322\261R\302^\032\377\313Yg\3516x\340\21664\300"
  97      C25E1AFF 
  97      CB5967E9 
  97      3678E08E 
  97      3634C0
  98 0351 1C0C5D45 		.ascii	"\034\014]E\247N\352v\260\236\026\012\246o4_\201/\332"
  98      A74EEA76 
  98      B09E160A 
  98      A66F345F 
  98      812FDA
  99 0364 51A10DA2 		.ascii	"Q\241\015\242\341*h\241\025\320\\\360\345#\031`e\033"
  99      E12A68A1 
  99      15D05CF0 
  99      E5231960 
  99      651B
 100 0376 0413E960 		.ascii	"\004\023\351`\337\374\356\200\225\255\000\346\206Yo"
 100      DFFCEE80 
 100      95AD00E6 
 100      86596F
 101 0385 0658F906 		.ascii	"\006X\371\006\301\224U\300\312W\000Sa\0123\300*6\010"
 101      C19455C0 
 101      CA570053 
ARM GAS  /tmp/ccpoXYVW.s 			page 8


 101      610A33C0 
 101      2A3608
 102 0398 E65A05AC 		.ascii	"\346Z\005\254\"\007l\017\271\377,\200\322B\327\225\365"
 102      22076C0F 
 102      B9FF2C80 
 102      D242D795 
 102      F5
 103 03a9 FDBAA6D8 		.ascii	"\375\272\246\330\341\225\355\374\335X\004\267=\020v"
 103      E195EDFC 
 103      DD5804B7 
 103      3D1076
 104 03b8 70EFD3F8 		.ascii	"p\357\323\370~\263\360\350\237\023\005\353\030\316z"
 104      7EB3F0E8 
 104      9F1305EB 
 104      18CE7A
 105 03c7 6B619EF4 		.ascii	"ka\236\364\246\300.\000ZoY\2657\227G.8\017\226J\224"
 105      A6C02E00 
 105      5A6F59B5 
 105      3797472E 
 105      380F964A 
 106 03dc 45882F5F 		.ascii	"E\210/_\216\373sv\364\375\232\374\024\363)\2522\257"
 106      8EFB7376 
 106      F4FD9AFC 
 106      14F329AA 
 106      32AF
 107 03ee 9D3F341B 		.ascii	"\235?4\033\241\332\211\252\326\320\227\"$\354\323X\023"
 107      A1DA89AA 
 107      D6D09722 
 107      24ECD358 
 107      13
 108 03ff 8611EB34 		.ascii	"\206\021\3534\326\246Nc]\026\321\352,\242\314\311\007"
 108      D6A64E63 
 108      5D16D1EA 
 108      2CA2CCC9 
 108      07
 109 0410 F32A713A 		.ascii	"\363*q:2q\325\321\243v\345[\316\273\316+.\276\350T\252"
 109      3271D5D1 
 109      A376E55B 
 109      CEBBCE2B 
 109      2EBEE854 
 110 0425 A3628CE9 		.ascii	"\243b\214\351\342\015\237&p\375*\002+\234\223+p\375"
 110      E20D9F26 
 110      70FD2A02 
 110      2B9C932B 
 110      70FD
 111 0437 0ABCFDF0 		.ascii	"\012\274\375\360\247\334<\363\037\364\331a\233\355\333"
 111      A7DC3CF3 
 111      1FF4D961 
 111      9BEDDB
 112 0446 94869FB6 		.ascii	"\224\206\237\266\007\267\230\237\342,b[)\232\3462H5"
 112      07B7989F 
 112      E22C625B 
 112      299AE632 
 112      4835
 113 0458 AC42CAC5 		.ascii	"\254B\312\305\361\271\244\032V \025\200_xo\235\276b"
 113      F1B9A41A 
 113      56201580 
ARM GAS  /tmp/ccpoXYVW.s 			page 9


 113      5F786F9D 
 113      BE62
 114 046a DDF026A1 		.ascii	"\335\360&\241\007\3413c\230U\220,\322&OdM\232E\2020"
 114      07E13363 
 114      9855902C 
 114      D2264F64 
 114      4D9A4582 
 115 047f B3605619 		.ascii	"\263`V\031>\264F\231}kW\311\227\373\374\007\372\337"
 115      3EB44699 
 115      7D6B57C9 
 115      97FBFC07 
 115      FADF
 116 0491 9F7E0A90 		.ascii	"\237~\012\220G\371$E\"\035\373;\333\"\332\376\326\303"
 116      47F92445 
 116      221DFB3B 
 116      DB22DAFE 
 116      D6C3
 117 04a3 91D6B643 		.ascii	"\221\326\266C\021\255C\337\253\357\217Ez\272\017v\355"
 117      11AD43DF 
 117      ABEF8F45 
 117      7ABA0F76 
 117      ED
 118 04b4 8BF4B4C5 		.ascii	"\213\364\264\305z\"\335=\262m=\334\325\250\201\322\325"
 118      7A22DD3D 
 118      B26D3DDC 
 118      D5A881D2 
 118      D5
 119 04c5 D8E4D15F 		.ascii	"\330\344\321_\352\351<\320\330\354\212\3656n\307.\021"
 119      EAE93CD0 
 119      D8EC8AF5 
 119      366EC72E 
 119      11
 120 04d6 EB15079A 		.ascii	"\353\025\007\232w\254Y\210:TF\357\322^>\330JA\035=\035"
 120      77AC5988 
 120      3A5446EF 
 120      D25E3ED8 
 120      4A411D3D 
 121 04eb DD6DD1D6 		.ascii	"\335m\321\326Xc\007\210\235 v\201\330\015\312\316]\360"
 121      58630788 
 121      9D207681 
 121      D80DCACE 
 121      5DF0
 122 04fd 1F9EB6E5 		.ascii	"\037\236\266\345;"
 122      3B
 123              		.text
 124              		.section	.gnu.lto_thread.28a2a932c1f3b045,"",%progbits
 125 0000 789C6362 		.ascii	"x\234cb`b@\007\222@\274\021\210\015\201\230\221\231"
 125      60624007 
 125      9240BC11 
 125      880D8198 
 125      9199
 126 0012 819169C2 		.ascii	"\201\221i\3029\006\206F\016&FF\020\203\201\221\241\236"
 126      39068646 
 126      0E264646 
 126      10838191 
 126      A19E
 127 0024 89B13E92 		.ascii	"\211\261>\222\021\254v=\323\201\007\377\377\257\233"
ARM GAS  /tmp/ccpoXYVW.s 			page 10


 127      11AC763D 
 127      D38107FF 
 127      FFAF9B
 128 0033 D7367F0F 		.ascii	"\3276\177\017\343L&V&\306\\F\006f\206L\260$+CKC\303"
 128      E34C2656 
 128      26C65C46 
 128      0666864C 
 128      B0242B43 
 129 004a 04050686 		.ascii	"\004\005\006\206d07\004H\202\014\010ed\002\321\314g"
 129      64303704 
 129      48820C08 
 129      656402D1 
 129      CC67
 130 005c 199A76B5 		.ascii	"\031\232v\265>\357\321Jd\\\310\310\312\220\316\310<"
 130      3EEFD14A 
 130      645CC8C8 
 130      CA90CEC8 
 130      3C
 131 006d 9B611623 		.ascii	"\233a\026#Pg:#S\004\220f\204\272\346<\003\013D\005\003"
 131      50673A23 
 131      53049066 
 131      84BAE63C 
 131      030B4405 
 132 0082 4335C3AF 		.ascii	"C5\303\257\206\216\006\201LF\246d\2504PW&\320\211\014"
 132      868E0681 
 132      4C46A664 
 132      A8345057 
 132      26D0890C 
 133 0096 17191A1F 		.ascii	"\027\031\032\037\314J\206\250\003if\201\371%\004\250"
 133      CC4A86A8 
 133      03696681 
 133      F92504A8 
 134 00a6 106819C8 		.ascii	"\020h\031\310\223\372\372\031\371\271\251\372\311\371"
 134      93FAFA19 
 134      F9B9A9FA 
 134      C9F9
 135 00b4 2995FA29 		.ascii	")\225\372)\251e\372\311\031\231I\231\371\305\372%E\245"
 135      A965FAC9 
 135      19994999 
 135      F9C5FA25 
 135      45A5
 136 00c6 79D9FA25 		.ascii	"y\331\372%\251\305%\372E%`:\2452O/\231\001\0000\364"
 136      A9C525FA 
 136      4525603A 
 136      A5324F2F 
 136      99010030 
 137 00db 3BF9     		.ascii	";\371"
 138              		.text
 139              		.section	.gnu.lto_dyn1_setup.28a2a932c1f3b045,"",%progbits
 140 0000 789C6362 		.ascii	"x\234cb`b@\007\222@\274\037\210\015\201\230\221\231"
 140      60624007 
 140      9240BC1F 
 140      880D8198 
 140      9199
 141 0012 819169C2 		.ascii	"\201\221i\3029\006\206F\016&FF\020\203\201\221\241\236"
 141      39068646 
 141      0E264646 
ARM GAS  /tmp/ccpoXYVW.s 			page 11


 141      10838191 
 141      A19E
 142 0024 89B13E92 		.ascii	"\211\261>\222\021\254v=\323\201\007\377\377\257\333"
 142      11AC763D 
 142      D38107FF 
 142      FFAFDB
 143 0033 D3367F0E 		.ascii	"\3236\177\016\343,&f\240\010+CKC\303\004\005\006\206"
 143      E32C2666 
 143      A0082B43 
 143      4B43C304 
 143      050686
 144 0046 64B08A10 		.ascii	"d\260\212\020 \011\322\026\312\310\004\242\231\3173"
 144      2009D216 
 144      CAC804A2 
 144      99CF33
 145 0055 B43D58F1 		.ascii	"\264=X\361\230+\221q!#+P\272\232\341WCG\203@&#P9\304"
 145      982B9171 
 145      21232B50 
 145      BA9AE157 
 145      43478340 
 146 006e 44900847 		.ascii	"D\220\010G&#c.#\003T\021DMCe&#\2236\303\252\006 \230"
 146      2623632E 
 146      23035411 
 146      444D4365 
 146      26239336 
 147 0087 C898C9C8 		.ascii	"\310\230\311\310\234\313\310\230\004\321\002S\030\001"
 147      9CCBC898 
 147      04D10253 
 147      1801
 148 0095 146679C1 		.ascii	"\024fy\301\303\220\011\342\\dh|\260R\031f\017\004\204"
 148      C39009E2 
 148      5C64687C 
 148      B0521966 
 148      0F0484
 149 00a8 00ED003A 		.ascii	"\000\355\000:\002\344e}\375\214\374\334T\375\344\374"
 149      02E4657D 
 149      FD8CFCDC 
 149      54FDE4FC 
 150 00b8 944AFD94 		.ascii	"\224J\375\224\3242\375\344\214\314\244\314\374b\375"
 150      D432FDE4 
 150      8CCCA4CC 
 150      FC62FD
 151 00c7 92A2D2BC 		.ascii	"\222\242\322\274l\375\222\324\342\022\375\242\0220\235"
 151      6CFD92D4 
 151      E212FDA2 
 151      12309D
 152 00d6 5299A797 		.ascii	"R\231\247\227\314\000\000c\000C\370"
 152      CC000063 
 152      0043F8
 153              		.text
 154              		.section	.gnu.lto_dyn3_setup.28a2a932c1f3b045,"",%progbits
 155 0000 789C6362 		.ascii	"x\234cb`b@\007\222@\274\037\210\015\201\230\221\231"
 155      60624007 
 155      9240BC1F 
 155      880D8198 
 155      9199
 156 0012 819169C2 		.ascii	"\201\221i\3029\006\206F\016&FF\020\203\201\221\241\236"
ARM GAS  /tmp/ccpoXYVW.s 			page 12


 156      39068646 
 156      0E264646 
 156      10838191 
 156      A19E
 157 0024 89B13E92 		.ascii	"\211\261>\222\021\254v=\323\201\007\377\377\257\333"
 157      11AC763D 
 157      D38107FF 
 157      FFAFDB
 158 0033 D3377F0E 		.ascii	"\3237\177\016\343.&f\240\010+CKC\303\004\005\006\206"
 158      E32E2666 
 158      A0082B43 
 158      4B43C304 
 158      050686
 159 0046 64B08A10 		.ascii	"d\260\212\020 \011\322\026\312\310\004\242\231\3173"
 159      2009D216 
 159      CAC804A2 
 159      99CF33
 160 0055 B43D58F1 		.ascii	"\264=X\361\234+\221q!#+P\272\232\341WCG\203@&#P9\304"
 160      9C2B9171 
 160      21232B50 
 160      BA9AE157 
 160      43478340 
 161 006e 44900847 		.ascii	"D\220\010G&#c.#\003T\021DMCe&#\2236\303\252\006 \230"
 161      2623632E 
 161      23035411 
 161      444D4365 
 161      26239336 
 162 0087 C898C9C8 		.ascii	"\310\230\311\310\234\313\310\230\004\321\002S\030\001"
 162      9CCBC898 
 162      04D10253 
 162      1801
 163 0095 146679C1 		.ascii	"\024fy\301\303\220\011\342\\dh|\260R\035f\017\004\204"
 163      C39009E2 
 163      5C64687C 
 163      B0521D66 
 163      0F0484
 164 00a8 00ED003A 		.ascii	"\000\355\000:\002\344e}\375\214\374\334T\375\344\374"
 164      02E4657D 
 164      FD8CFCDC 
 164      54FDE4FC 
 165 00b8 944AFD94 		.ascii	"\224J\375\224\3242\375\344\214\314\244\314\374b\375"
 165      D432FDE4 
 165      8CCCA4CC 
 165      FC62FD
 166 00c7 92A2D2BC 		.ascii	"\222\242\322\274l\375\222\324\342\022\375\242\0220\235"
 166      6CFD92D4 
 166      E212FDA2 
 166      12309D
 167 00d6 5299A797 		.ascii	"R\231\247\227\314\000\000\211\234D("
 167      CC000089 
 167      9C4428
 168              		.text
 169              		.section	.gnu.lto_dyn2_execute.28a2a932c1f3b045,"",%progbits
 170 0000 789CB557 		.ascii	"x\234\265W\333O\034e\024?\347\233\275\316^fw\021a\213"
 170      DB4F1C65 
 170      143FE79B 
 170      BDCE5E66 
ARM GAS  /tmp/ccpoXYVW.s 			page 13


 170      7711618B 
 171 0014 C0022101 		.ascii	"\300\002!\001\241;)\202F\037\032{\361?(\211M|\241\003"
 171      A13B2982 
 171      461F1A7B 
 171      F13F2889 
 171      4D7CA103 
 172 0028 EE4E74C1 		.ascii	"\356Nt\301\300VS\215\351PhB\264\017D\305\340-iS\321"
 172      C056538D 
 172      E9506842 
 172      B40F44C5 
 172      E02D6953 
 173 003d 6A4C48AA 		.ascii	"jLH\252Fc\372@\033\037\264\326R\243mZ]\355\306D\373"
 173      4663FA40 
 173      1B1FB4D6 
 173      52A36D5A 
 173      5DEDC644 
 174 0052 A0B14D7C 		.ascii	"\240\261M|\260\365\322\365\234\271\355\302\002\202\011"
 174      B0F5D2F5 
 174      9CB9EDC2 
 174      028209
 175 0061 93F07DE7 		.ascii	"\223\360}\347;{.\277\337\371\256\010\020\260\374\273"
 175      3B7B2EBF 
 175      DFF9AE08 
 175      10B0FCBB 
 176 0071 417FB742 		.ascii	"A\177\267B\000S\324c\015\240\230>\0170\036\020\350\261"
 176      0053D463 
 176      0DA0983E 
 176      0F301E10 
 176      E8B1
 177 0083 04C9124E 		.ascii	"\004\311\022N\007<BZ\330\016\206\354\275\240\200\021"
 177      073C425A 
 177      D80E86EC 
 177      BDA08011 
 178 0093 F60ADF07 		.ascii	"\366\012\337\007g\200\206r!DC\237\360W\016\375\"P9\014"
 178      67808672 
 178      2144439F 
 178      F0570EFD 
 178      2250390C 
 179 00a7 8860E530 		.ascii	"\210`\3450(B\334\313\262\251\014\313\030\262R\205D\342"
 179      2842DCCB 
 179      B2A90CCB 
 179      18B25285 
 179      44E2
 180 00b9 924AFAF0 		.ascii	"\222J\372\360'M\244\016\213\304)\352\345\3107\244\013"
 180      274DA40E 
 180      8BC429EA 
 180      E5C837A4 
 180      0B
 181 00ca 4730C646 		.ascii	"G0\306F\030\025\2113\022i\225\363g\331W\261\324\247"
 181      18158933 
 181      126995F3 
 181      67D957B1 
 181      D4A7
 182 00dc 03311135 		.ascii	"\0031\0215\321\305MtqLX!\023\210,\000\302A!y\274>\177"
 182      D1C54D74 
 182      714C5821 
 182      13882C00 
ARM GAS  /tmp/ccpoXYVW.s 			page 14


 182      C2412179 
 183 00f3 202887C2 		.ascii	" (\207\302\221\250\022\213'\360\340^\344\012\210V8f"
 183      91A8128B 
 183      27F0E05E 
 183      E40A8856 
 183      3866
 184 0105 18D3C59F 		.ascii	"\030\323\305\237\346_I>w\364\320\264q\273TB\035\251"
 184      E65F493E 
 184      77F4D0B4 
 184      71BB5442 
 184      1DA9
 185 0117 563D081A 		.ascii	"V=\010\032\302\3034\300\224\331\011\317\322\342Y\236"
 185      C2C334C0 
 185      94D909CF 
 185      D2E2599E 
 186 0127 0B5F9FFD 		.ascii	"\013_\237\375\002\215\027\214\361\033\245\222b:>\360"
 186      028D178C 
 186      F11BA592 
 186      623A3EF0 
 187 0137 5F8EF362 		.ascii	"_\216\363b\241X*\035\271x\364\307\0370q/\302\000\036"
 187      A1582A1D 
 187      B978F4C7 
 187      1F30712F 
 187      C2001E
 188 014a C75672B4 		.ascii	"\307Vr\264z\211\372c\324\007@GI\266\225!\032x\"\324"
 188      7A89FA63 
 188      D4074047 
 188      49B69521 
 188      1A7822D4 
 189 015e 781596E2 		.ascii	"x\025\226\342,\325\260T\313R\035KI\226\032Xjd\251\231"
 189      2CD5B054 
 189      CB521D4B 
 189      49961A58 
 189      6A64A999 
 190 0172 9B14372D 		.ascii	"\233\0247-\334\264r\323F\215\257\235\233\016n:\355\340"
 190      DCB472D3 
 190      468DAF9D 
 190      9B0E6E3A 
 190      EDE0
 191 0184 5D9CA99B 		.ascii	"]\234\251\2335inT[\275\215\325=\254\351e\347>j\374\204"
 191      35696E54 
 191      5BBD8DD5 
 191      3DACE965 
 191      E73E6AFC 
 192 0199 DE0B9344 		.ascii	"\336\013\223D;e\331\000S\245o\017\265T\374~\024\324"
 192      3B65D900 
 192      53A56F0F 
 192      B554FC7E 
 192      14D4
 193 01ab 495FC2A1 		.ascii	"I_\302\241o_\277z\251\3276u|\214\343o\251\256\277#,"
 193      6F5FBF7A 
 193      A9D73675 
 193      7C8CE36F 
 193      A9AEBF23 
 194 01c0 3C7FF1A4 		.ascii	"<\177\361\244\004\224r\016\275\024\314\214\246\241\271"
 194      0494720E 
 194      BD14CC8C 
ARM GAS  /tmp/ccpoXYVW.s 			page 15


 194      A6A1B9
 195 01cf 5433D8DB 		.ascii	"T3\330\333\005\357\032\206Q\274\365\341\334\335\004"
 195      05EF1A86 
 195      51BCF5E1 
 195      DCDD04
 196 01de C11A19F7 		.ascii	"\301\032\031\367\353\030x\015^\0357\214\230\216\301"
 196      EB18780D 
 196      5E1D378C 
 196      988EC1
 197 01ed 67E04F63 		.ascii	"g\340Oc\212%9g:s\305e\263\316\373x<\200oS`\222\321\225"
 197      8A253967 
 197      3A73C565 
 197      B3CEFB78 
 197      3C806F53 
 198 0205 0118E0EC 		.ascii	"\001\030\340\354\311-\003x\202\306\031\354\263\003\217"
 198      C92D0378 
 198      82C619EC 
 198      B3038F
 199 0214 11433770 		.ascii	"\021C7p\210\322s,\257\035K\260\377;\366\220\276~\224"
 199      88D2732C 
 199      AF1D4BB0 
 199      FF3BF690 
 199      BE7E94
 200 0227 60613B73 		.ascii	"`a;s-\024>\236i\266\010d0\260\025\336c\3670\007\232"
 200      2D143E9E 
 200      69B60864 
 200      30B015DE 
 200      63F73007 
 201 023c 6629C208 		.ascii	"f)\302\010gY\212\346L~\0345\012\026CtW\305\"x\255\030"
 201      67598AE6 
 201      4C7E1C35 
 201      0A164374 
 201      57C52278 
 202 0252 002E2545 		.ascii	"\000.%E\243$`k\002:\306r(l#\312\244c\234\251LLM|4\243"
 202      A324606B 
 202      023AC672 
 202      286C23CA 
 202      A4639CA9 
 203 026c 3AF9658A 		.ascii	":\371e\212\311\011\000]\234\036\240m }\006\223?\217"
 203      C909005D 
 203      9C1EA06D 
 203      207D0693 
 203      3F8F
 204 027e FB1D33CB 		.ascii	"\373\0353\313Fr\263_\001KC;\342\204DQ\244\233^v\365"
 204      4672B35F 
 204      014B433B 
 204      E2844451 
 204      A49B5E76 
 205 0293 5AD34929 		.ascii	"Z\323I)\256\315\354u|\2512}l\354)\321\247\230\320\335"
 205      AECDEC75 
 205      7CA9327D 
 205      6CEC29D1 
 205      A798D0DD 
 206 02a7 B811177B 		.ascii	"\270\021\027{BC\317\252\330C\266\262FC\2075k\352u\274"
 206      4243CFAA 
 206      D843B6B2 
 206      46438735 
ARM GAS  /tmp/ccpoXYVW.s 			page 16


 206      6BEA75BC 
 207 02bb A309F26F 		.ascii	"\243\011\362o\030\263\017\352Xk/\012Zww\232S\366\371"
 207      18B30FEA 
 207      586B2F0A 
 207      5A77779A 
 207      53F6F9
 208 02ce 053B0D97 		.ascii	"\005;\015\227\230\276>\232\034w\272\352\334\304\365"
 208      98BE3E9A 
 208      1C77BAEA 
 208      DCC4F5
 209 02dd 39B3688C 		.ascii	"9\263h\214\260\036\234\025Q\336}\204\321\256\332/eJ"
 209      B01E9C15 
 209      51DE7D84 
 209      D1AEDA2F 
 209      654A
 210 02ef 8A43E976 		.ascii	"\212C\351v5\245\370\372()kQzj3(a\231\222\263\020\256"
 210      35A5F8FA 
 210      28296B51 
 210      7A6A3328 
 210      619992B3 
 211 0305 9729D538 		.ascii	"\227)\3258\224\376\251\246T\273>J5kQzz3(\2112\245Z\233"
 211      94FEA9A6 
 211      54BB3E4A 
 211      356B517A 
 211      7A332889 
 212 031d D2EF654A 		.ascii	"\322\357eJu\016\245\277\253)%\327G\251n-J\317n\006%"
 212      750EA5BF 
 212      AB2925D7 
 212      47A96E2D 
 212      4ACF6E06 
 213 0332 A94C2969 		.ascii	"\251L)iS\372\243L\251\301\241\364W5\245\306\365QjX\213"
 213      53FAA34C 
 213      A9C1A1F4 
 213      5735A5C6 
 213      F5516A58 
 214 0347 92819BC1 		.ascii	"\222\201\233\301\311S\346\324hF+\334\234O:\260\233\267"
 214      C953E6D4 
 214      68462BDC 
 214      9C4F3AB0 
 214      9BB7
 215 0359 42F7FFDA 		.ascii	"B\367\377\332\231\000tF\375\212n\234\362\351\353\036"
 215      99007446 
 215      FD8A6E9C 
 215      F2E9EB1E 
 216 0369 653E7833 		.ascii	"e>x3\302G\356#\216Qj\203\311p\225d\251\025\222\371a"
 216      C247EE23 
 216      8E516A83 
 216      C9709564 
 216      A91592F9 
 217 037e 2EB42459 		.ascii	".\264$Y\313\006\223\211U\222\265\254\220,\000\347\202"
 217      CB069389 
 217      5592B5AC 
 217      902C00E7 
 217      82
 218 038f 4B92B56E 		.ascii	"K\222\265n0\231\264J\262\326\025\222\005\341\245\000"
 218      3099B44A 
 218      B2D61592 
ARM GAS  /tmp/ccpoXYVW.s 			page 17


 218      05E1A500 
 219 039f 5D089F5E 		.ascii	"]\010\237^s\255\032\253\254\366\320-\372~T\352\307\220"
 219      73AD1AAB 
 219      ACF6D02D 
 219      FA7E54EA 
 219      C790
 220 03b1 7DA5FF26 		.ascii	"}\245\377&9\306m\031\006\340^X\031lw\261%5\232#\007"
 220      39C66D19 
 220      06E05E58 
 220      196C77B1 
 220      25359A23 
 221 03c6 D3166463 		.ascii	"\323\026dc\035\033\226Aj\347\037}\345TW@\262''\350,"
 221      1D1B9641 
 221      6AE71F7D 
 221      E5545740 
 221      B22727E8 
 222 03db 09D9C419 		.ascii	"\011\331\304\031\206#>i\021&\212\213\207CU\227\343]"
 222      86233E69 
 222      11268A8B 
 222      87435597 
 222      E35D
 223 03ed 9AF91EE1 		.ascii	"\232\371\036\341%\335\310h\016\027/\0179\031:\\\253"
 223      25DDC868 
 223      0E172F0F 
 223      39193A5C 
 223      AB
 224 03fe 268D4AEB 		.ascii	"&\215J\353\002\022\316\326hn\202\011{k\244\312[\243"
 224      0212CED6 
 224      686E8209 
 224      7B6BA4CA 
 224      5BA3
 225 0410 6519D08E 		.ascii	"e\031\320\216e@\031S\004\012\222\304\230;m\250\341S"
 225      65401953 
 225      040A92C4 
 225      983B6DA8 
 225      E153
 226 0422 DF65F987 		.ascii	"\337e\371\207(\234\013\023\330\311ba\316\015\320\345"
 226      289C0B13 
 226      D8C96261 
 226      CE0DD0E5 
 227 0432 E268D5A8 		.ascii	"\342h\325\250\352\000+ma\035\333\314\203\341\262[\340"
 227      EA002B6D 
 227      611DDBCC 
 227      83E1B25B 
 227      E0
 228 0443 6EF2E4E8 		.ascii	"n\362\344\350\346\234V\3249\275J\235%\366\251\256sz"
 228      E69C56D4 
 228      39BD4A9D 
 228      25F6A9AE 
 228      737A
 229 0455 05F80A4C 		.ascii	"\005\370\012L\206\255\033\375\372\313\356\243A\315\240"
 229      86AD1BFD 
 229      FACBEEA3 
 229      41CDA0
 230 0464 58F66888 		.ascii	"X\366h\210\301U\005\227\276\031D\325\233Ad\2603\202"
 230      C1550597 
 230      BE1944D5 
ARM GAS  /tmp/ccpoXYVW.s 			page 18


 230      9B4164B0 
 230      3382
 231 0476 E4AF58CF 		.ascii	"\344\257X\317\2058\274(\231%\370\336\235\211m\033\251"
 231      8538BC28 
 231      9925F8DE 
 231      9D896D1B 
 231      A9
 232 0487 C0A25B81 		.ascii	"\300\242[\201\036\362\254\256@\305\354/-\200\207]\314"
 232      1EF2ACAE 
 232      40C5EC2F 
 232      2D80875D 
 232      CC
 233 0498 0258E813 		.ascii	"\002X\350\023\274f\277\242\377\001*\3273\222\222\267"
 233      BC66BFA2 
 233      FF012AD7 
 233      339292B7 
 234 04a8 A4AA6647 		.ascii	"\244\252fGrC\25262x@\035\034zR\325\262\372>}dL\315\217"
 234      7243AA36 
 234      3278401D 
 234      1C7A52D5 
 234      B2FA3E7D 
 235 04c0 EE1F7E4C 		.ascii	"\356\037~L\315\017\215\345\325\321\274\331\017\036\030"
 235      CD0F8DE5 
 235      D5D1BCD9 
 235      0F1E18
 236 04cf 4E6BE0D7 		.ascii	"Nk\340\327\037\315\347\236H\337\203\372}kz\222@~\372"
 236      1FCDE79E 
 236      48DF83FA 
 236      7D6B7A92 
 236      407EFA
 237 04e2 B0F6F8FE 		.ascii	"\260\366\370\376A2\312\346\263\243C\003\203c\351,\210"
 237      4132CAE6 
 237      B3A34303 
 237      8363E92C 
 237      88
 238 04f3 1D207682 		.ascii	"\035 v\202\330\005b7\210\207\300\273c\347\256\335\360"
 238      D8056237 
 238      8887C0BB 
 238      63E7AEDD 
 238      F0
 239 0504 2F6DB0DE 		.ascii	"/m\260\336\313"
 239      CB
 240              		.text
 241              		.section	.gnu.lto_dyn2_setup.28a2a932c1f3b045,"",%progbits
 242 0000 789C6362 		.ascii	"x\234cb`b@\007\222@<\027\210\015\201\230\221\231\201"
 242      60624007 
 242      92403C17 
 242      880D8198 
 242      919981
 243 0013 9169C239 		.ascii	"\221i\3029\006\206F\016&FF\020\203\201\221\241\236\211"
 243      0686460E 
 243      26464610 
 243      838191A1 
 243      9E89
 244 0025 B13E9211 		.ascii	"\261>\222\021\254v=\323\201\007\377\377\257\333\326"
 244      AC763DD3 
 244      8107FFFF 
ARM GAS  /tmp/ccpoXYVW.s 			page 19


 244      AFDBD6
 245 0034 35FF0DE3 		.ascii	"5\377\015\343J&f\240\010+CKC\303\004\005\006\206d\260"
 245      4A2666A0 
 245      082B434B 
 245      43C30405 
 245      068664B0 
 246 0048 8A102009 		.ascii	"\212\020 \011\322\026\312\310\004\242\231\3173\264="
 246      D216CAC8 
 246      04A299CF 
 246      33B43D
 247 0057 98FB942B 		.ascii	"\230\373\224+\221q!#+P\272\232\341WCG\203@&#P9\304D"
 247      91712123 
 247      2B50BA9A 
 247      E1574347 
 247      83402623 
 248 006f 90084726 		.ascii	"\220\010G&#c.#\003TQ\004c&#\323\011&0\015\264!\223\221"
 248      23632E23 
 248      03545104 
 248      632623D3 
 248      0926300D 
 249 0087 8581E122 		.ascii	"\205\201\341\"C\343\203y\2520S  \004h\002\320\012\220"
 249      43E38379 
 249      AA305320 
 249      20046802 
 249      D00A90
 250 009a 87F4F533 		.ascii	"\207\364\3653\362sS\365\223\363S*\365SR\313\364\223"
 250      F27353F5 
 250      93F3532A 
 250      F55352CB 
 250      F493
 251 00ac 33329332 		.ascii	"32\2232\363\213\365K\212J\363\262\365KR\213K\364\213"
 251      F38BF54B 
 251      8A4AF3B2 
 251      F54B528B 
 251      4BF48B
 252 00bf 4AC0744A 		.ascii	"J\300tJe\236^2\003\000\276=:\251"
 252      659E5E32 
 252      0300BE3D 
 252      3AA9
 253              		.text
 254              		.section	.gnu.lto_regfind.28a2a932c1f3b045,"",%progbits
 255 0000 789C5D51 		.ascii	"x\234]Q\261n\023A\020}o\357\366l9)\220(h(\242\224\024"
 255      B16E1341 
 255      107D6FEF 
 255      F66C3929 
 255      90286828 
 256 0017 39898206 		.ascii	"9\211\202\006\032\376!\226\240\303\3349\227S\022\033"
 256      1AFE2196 
 256      A0C3DC39 
 256      9753121B 
 257 0027 2517A488 		.ascii	"%\027\244\210\"\033\371\012\012+\262\350,\\\020!D\023"
 257      221BF90A 
 257      0A2BB2E8 
 257      2C5C1021 
 257      4413
 258 0039 892A453A 		.ascii	"\211*E:SA\001\261R\246;%\212\000)\215\225\016!\314\254"
 258      534101B1 
ARM GAS  /tmp/ccpoXYVW.s 			page 20


 258      52A63B25 
 258      8A00298D 
 258      950E21CC 
 259 004e 37368491 		.ascii	"76\204\221v\337\315\314\275y3\263\012\012\377\333\003"
 259      76DFCDCC 
 259      BD7933B3 
 259      0A0AFFDB 
 259      03
 260 005f 39DF09DC 		.ascii	"9\337\011\334\027d\000\252\316\021\260SV\364\334\207"
 260      176400AA 
 260      CE11B053 
 260      56F4DC87 
 261 006f A774FB13 		.ascii	"\247t\373\023`*~^\202\231\325.\376\320'-\202\330V\236"
 261      602A7E5E 
 261      8299D52E 
 261      FED0272D 
 261      82D8569E 
 262 0083 F6B9FD98 		.ascii	"\366\271\375\230\266\232\232\307\2361\257\212\363\323"
 262      B69A9AC7 
 262      9E31AF8A 
 262      F3D3
 263 0091 1FEC9A7E 		.ascii	"\037\354\232~\376\306\374\032\215\310\224\242|\227\210"
 263      FEC6FC1A 
 263      8DC894A2 
 263      7C9788
 264 00a0 8847E270 		.ascii	"\210G\342pn\014\312\277\336\212\343\366\273\273\355"
 264      6E0CCABF 
 264      DE8AE3F6 
 264      BBBBED
 265 00af 5BA6301D 		.ascii	"[\2460\035\363[\250)=\205{\177\231e\307\344u\346\007"
 265      F35BA829 
 265      3D857B7F 
 265      9965C7E4 
 265      75E607
 266 00c2 D52F46A3 		.ascii	"\325/F\243\375\341\376i\2177g\211\032\3678/\2225\276"
 266      FDE1FE69 
 266      8F376789 
 266      1AF7382F 
 266      9235BE
 267 00d5 150CAEFC 		.ascii	"\025\014\256\374\022\327\2102\244d\345*2c\035\341k\344"
 267      12D78832 
 267      A464E52A 
 267      32631DE1 
 267      6BE4
 268 00e7 C674E65C 		.ascii	"\306t\346\\\320\221`%\305\026\345\226\311\253T\002\336"
 268      D0916025 
 268      C516E596 
 268      C9AB5402 
 268      DE
 269 00f8 00AD62F7 		.ascii	"\000\255b\367\033k|G\215\204\301\013\3744/\315\215\224"
 269      1B6B7C47 
 269      8D84C10B 
 269      FC342FCD 
 269      8D94
 270 010a 7E44D753 		.ascii	"~D\327S*\211\261U\245\262\254\310\373\212\326\240u\326"
 270      2A89B155 
 270      A5B2ACC8 
ARM GAS  /tmp/ccpoXYVW.s 			page 21


 270      FB8AD6A0 
 270      75D6
 271 011c BB33E194 		.ascii	"\2733\341\224\0232a\011\220\304a\2531\011\317$T\222"
 271      13326109 
 271      90C461AB 
 271      3109CF24 
 271      5492
 272 012e 0406C88B 		.ascii	"\004\006\310\213\356\373`\022\257L%\202\210\356\371"
 272      EEFB6012 
 272      AF4C2582 
 272      88EEF9
 273 013d 12BB5029 		.ascii	"\022\273P)\360\031\371\305\307\203\243i7\025\273\232"
 273      F019F9C5 
 273      C783A369 
 273      3715BB9A 
 274 014d 7FB67202 		.ascii	"\177\266r\002\021\012\324\305\360\266\344t\3572>\201"
 274      110AD4C5 
 274      F0B6E474 
 274      EF323E81 
 275 015d B2BFC8C4 		.ascii	"\262\277\310\304\352\313\360\211h\352\366\345\252\035"
 275      EACBF089 
 275      68EAF6E5 
 275      AA1D
 276 016b 5143DE98 		.ascii	"QC\336\230U\372v\306c\354\024\257\223i_\256\326\242"
 276      55FA76C6 
 276      63EC14AF 
 276      93695FAE 
 276      D6A2
 277 017d 8C9797AC 		.ascii	"\214\227\227\254~\030.7\327\352a\324\214\267\302\270"
 277      7E182E37 
 277      D7EA61D4 
 277      8CB7C2B8 
 278 018d FE3C8C96 		.ascii	"\376<\214\226\323\247is#\314\3267\033+aV\337\310\302"
 278      D3A76973 
 278      23CCD637 
 278      1B2B6156 
 278      DFC8C2
 279 01a0 F56C8CF1 		.ascii	"\365l\214\361Vc!\202\267\224=\323K\315\315F\374\007"
 279      56632182 
 279      B7943DD3 
 279      4BCDCD46 
 279      FC07
 280 01b2 811F8EBD 		.ascii	"\201\037\216\275"
 281              		.text
 282              		.section	.gnu.lto_dyn3_execute.28a2a932c1f3b045,"",%progbits
 283 0000 789C9556 		.ascii	"x\234\225V\335k\034U\024?g>vfvf'\211k\214i\314\262M"
 283      DD6B1C55 
 283      143F673E 
 283      76667666 
 283      27896B8C 
 284 0018 430969C8 		.ascii	"C\011i\310\220\326\220\332\372\240\377C\013\372\230"
 284      90D690DA 
 284      FAA0FF43 
 284      0BFA98
 285 0027 CE86ECA0 		.ascii	"\316\206\354\240I$\331*\305\207\336j\204\202/\305\247"
 285      4924D92A 
 285      C587DE6A 
ARM GAS  /tmp/ccpoXYVW.s 			page 22


 285      84822FC5 
 285      A7
 286 0038 A80829A5 		.ascii	"\250\010)\245\025|\021,\202\204<\004|p\305\217\350K"
 286      157C112C 
 286      82843C04 
 286      7C70C58F 
 286      E84B
 287 004a D0D68FE0 		.ascii	"\320\326\217\340K\021\305>\024K\251\312z\316\235\273"
 287      4B11C53E 
 287      144BA9CA 
 287      7ACE9DBB 
 288 005a 93AC3323 		.ascii	"\223\2543#\233\201=s\1773\347\234\337\371\235sgv4\320"
 288      9B813D73 
 288      7F33E79C 
 288      DFF99D73 
 288      677634D0 
 289 006e E0BF4793 		.ascii	"\340\277G\223~\3778\000Kt\306\036@\355\312\327\000\227"
 289      7EFF3800 
 289      4B74C61E 
 289      40EDCAD7 
 289      0097
 290 0080 6C4DF377 		.ascii	"lM\363w\002\020E}\243\002\302\323\0252$2\0242%2\025"
 290      0210457D 
 290      A302C2D3 
 290      15322432 
 290      14322532 
 291 0095 2A485450 		.ascii	"*HTP\310\222\310R\310\226\310V\310\221\310Q\250(QQ!"
 291      C892C852 
 291      C896C856 
 291      C891C851 
 291      A8285151 
 292 00aa 57225721 		.ascii	"W\"W!O\"O\241\222D%\364\343\022}D^\000\302EM7\314\202"
 292      4F224FA1 
 292      924425F4 
 292      E3127D44 
 292      5E00C245 
 293 00c2 653B45D7 		.ascii	"e;E\327+\371x\361yde8\002W\205xk\367\215\337~\305\267"
 293      2BF978F1 
 293      79646538 
 293      02578578 
 293      6BF78DDF 
 294 00d9 C5D6EABA 		.ascii	"\305\326\352\272\370\273\325B\214\220\272p\034!Dx\216"
 294      F8BBD542 
 294      8C90BA70 
 294      1C214478 
 294      8E
 295 00ea 0056E549 		.ascii	"\000V\345I3:\333\362\241\266\265\333jm\376\271\376\313"
 295      333ADBF2 
 295      A1B6B5DB 
 295      6A6DFEB9 
 295      FECB
 296 00fc CF587E5A 		.ascii	"\317X~Z\207\010u\023f\361*%-\0200,2\246\303\306e\350"
 296      87087513 
 296      66F12A25 
 296      2D10302C 
 296      32A6C3C6 
 297 0112 F1CA67D3 		.ascii	"\361\312g\323\313\260\217We6\375l\006\330\014\262\031"
ARM GAS  /tmp/ccpoXYVW.s 			page 23


 297      CBB08F57 
 297      6536FD6C 
 297      06D80CB2 
 297      19
 298 0123 6233CC2E 		.ascii	"b3\314.\025^U\331\034f8\302\253Q6G\331\214\261\031g"
 298      155E55D9 
 298      1C6638C2 
 298      AB513647 
 298      D98CB119 
 299 0138 33C16692 		.ascii	"3\301f\222]\002^M\2619\301f\232\315\014\233\223lN\221"
 299      5D025E4D 
 299      B139C166 
 299      9ACD0C9B 
 299      936C4E91 
 300 014c 81D3640A 		.ascii	"\201\323d\012T\275\011\253B\\\251\306\365\002K\245\343"
 300      54BD09AB 
 300      425CA9C6 
 300      F5024BA5 
 300      E3
 301 015d 0C596ED8 		.ascii	"\014Yn\330Y\324\370\254\177\005\257\335\332\274\275"
 301      59D4F8AC 
 301      7F05AFDD 
 301      DABCBD
 302 016c F3A4726E 		.ascii	"\363\244rnG\211k7\202$C{\261\365\305\316M\035\250\001"
 302      47896B37 
 302      8224437B 
 302      B1F5C5CE 
 302      4D1DA801 
 303 0180 D7D0A474 		.ascii	"\327\320\244t2_\210r7\315\343\251c\360\201\020b\367"
 303      325F8872 
 303      37CDE3A9 
 303      63F08110 
 303      62F7
 304 0192 F6C7D7C7 		.ascii	"\366\307\327\307\251\210\030\211\247\"\264\336\205w"
 304      A9881889 
 304      A722B4DE 
 304      8577
 305 01a0 2E09D11B 		.ascii	".\011\321\033\241\375*<\024\227y\345,\310`\356\271#"
 305      A1FD2A3C 
 305      149779E5 
 305      2CC860EE 
 305      B923
 306 01b2 3B7D8EF1 		.ascii	";}\216\361,^\247\304\264\306d\015\300\005\256}th\026"
 306      2C5EA7C4 
 306      B4C6640D 
 306      C005AE7D 
 306      746816
 307 01c5 6F109EC7 		.ascii	"o\020\236\307\323*\361\012iL\022\027\211\236s\201\312"
 307      D32AF10A 
 307      694C1217 
 307      899E7381 
 307      CA
 308 01d6 A571FCFB 		.ascii	"\245q\374\373\355\370\327/\177\372\346\0177\255\270"
 308      EDF8D72F 
 308      7FFAE60F 
 308      37ADB8
 309 01e5 EC79D429 		.ascii	"\354y\324)\011;\353-:z\310c\033\326D\275}\327LjtC\324"
ARM GAS  /tmp/ccpoXYVW.s 			page 24


 309      093BEB2D 
 309      3A7AC863 
 309      1BD644BD 
 309      7DD74C6A 
 310 01fc 65BEF88A 		.ascii	"e\276\370\212x%Bo\0011v\224\245\227\232\032\347\343"
 310      7825426F 
 310      01317694 
 310      A5979A1A 
 310      E7E3
 311 020e FB76847E 		.ascii	"\373v\204~\210\206\272\311W\326\204\370\213|z*\260\360"
 311      8886BAC9 
 311      57D684F8 
 311      8B7C7A2A 
 311      B0F0
 312 0220 9E587B26 		.ascii	"\236X{&\302^\3258\232N_,\353\223?\006\333\264\205c@"
 312      C25ED538 
 312      9A4E5F2C 
 312      EB933F06 
 312      DBB48563 
 313 0235 5D7B8414 		.ascii	"]{\204\024\241\224c\356\227\243\253\355HR\266\365v\204"
 313      A19463EE 
 313      97A3ABED 
 313      4852B6F5 
 313      7684
 314 0247 4541EC64 		.ascii	"EA\354d\240\224`\266\257;\211\200r\030w \256\0259&\302"
 314      A09460B6 
 314      AF3B8980 
 314      72187720 
 314      AE153926 
 315 025c 47F9615F 		.ascii	"G\371a_\375\035\023w\276i\356\337\364g\211o\243\242"
 315      FD1D1377 
 315      BE69EEDF 
 315      F467896F 
 315      A3A2
 316 026e 6FC3EAEE 		.ascii	"o\303\352\356\306g\252k\355&P\326\376Pn.\036\271\031"
 316      C667AA6B 
 316      ED2650D6 
 316      FE506E2E 
 316      1EB919
 317 0281 E163B192 		.ascii	"\341c\261\222\007{J\334\003+\361(H*\321:\225\3709J\270"
 317      077B4ADC 
 317      032BF128 
 317      482AD13A 
 317      95F8394A 
 318 0296 E95E5A89 		.ascii	"\351^Z\211\237\241\304\200\273\256T\262y'\255d DkO\311"
 318      9FA1C480 
 318      BBAE54B2 
 318      7927AD64 
 318      20446B4F 
 319 02ab E36A2677 		.ascii	"\343j&w\023%\275\007V\322GAY3)\347(\3219&\255\244\234"
 319      1325BD07 
 319      56D24741 
 319      593329E7 
 319      28D13926 
 320 02c2 A1C4846F 		.ascii	"\241\304\204o\014V\262\336L6r\177\222u0D{O\311\241\016"
 320      0C56B2DE 
 320      4C36727F 
ARM GAS  /tmp/ccpoXYVW.s 			page 25


 320      92753044 
 320      7B4FC9A1 
 321 02d7 EE811C6E 		.ascii	"\356\201\034n\2033\244\271\0072\270\013p\007%\367\347"
 321      8333A4B9 
 321      0732B80B 
 321      700725F7 
 321      E7
 322 02e8 09F76057 		.ascii	"\011\367`W\334C9\3342C\232{(\203\333\202[ '\370e\327"
 322      DC4339DC 
 322      32439A7B 
 322      2883DB82 
 322      5B2027F8 
 323 02fe 13BC974C 		.ascii	"\023\274\227Lp\370\300\023\254P\220\234 tN\260\232\243"
 323      70F8C013 
 323      AC50909C 
 323      20744EB0 
 323      9AA3
 324 0310 A4C03169 		.ascii	"\244\3001i%\325\014%6\034\221o\333\346\275\304\355\260"
 324      25D50C25 
 324      361C916F 
 324      DBE6BDC4 
 324      EDB0
 325 0322 AC6F28BB 		.ascii	"\254o(\273>#\253\276\021\012\312\252o4\247>\213c\322"
 325      3E23ABBE 
 325      110ACAAA 
 325      6F34A73E 
 325      8B63D2
 326 0335 F58D66D4 		.ascii	"\365\215f\324\347\200/\207\274\235\014\371hWC\036\313"
 326      E7802F87 
 326      BC9D0CF9 
 326      6857431E 
 326      CB
 327 0346 A1B63943 		.ascii	"\241\2669C\232z,\203\272\010\246\244\376.\241\036\357"
 327      9A7A2C83 
 327      BA08A6A4 
 327      FE2EA11E 
 327      EF
 328 0357 8A7A2287 		.ascii	"\212z\"\207\332\341\014i\352\211\014j\0274I\375}zw="
 328      DAE10C69 
 328      EA890C6A 
 328      173449FD 
 328      7D7A773D 
 329 036b 11AA3F27 		.ascii	"\021\252?'\016\033>N\357\355J\274\303\232\367\223\224"
 329      0E1B3E4E 
 329      EFED4ABC 
 329      C39AF793 
 329      94
 330 037c 93079E60 		.ascii	"\223\007\236`@Ar\202=\235\023\234\312\321R\344\230\264"
 330      40417282 
 330      3D9D139C 
 330      CAD152E4 
 330      98B4
 331 038e 96A90C2D 		.ascii	"\226\251\014-\036\304\217\351\217I\033Ot\325\306\351"
 331      1EC48FE9 
 331      8F491B4F 
 331      74D5C6E9 
 332 039e 1C6A9733 		.ascii	"\034j\2273\244\251\2473\250K \237\322\365\237\022\352"
ARM GAS  /tmp/ccpoXYVW.s 			page 26


 332      A4A9A733 
 332      A84B209F 
 332      D2F59F12 
 332      EA
 333 03af 997C6AEA 		.ascii	"\231|j\352\341f\322\217\223\344\272\257\232}\375\357"
 333      E166D28F 
 333      93E4BAAF 
 333      9A7DFDEF 
 334 03bf 2CC6635F 		.ascii	",\306c_YL\314\350\313\317\227o\351\023p\257\2163\364"
 334      594CCCE8 
 334      CBCF976F 
 334      E91370AF 
 334      8E33F4
 335 03d2 E54057F9 		.ascii	"\345@W\371\177$\010\352K\013sA\270T\273\020\324\346"
 335      7F2408EA 
 335      4B0B7341 
 335      B854BB10 
 335      D4E6
 336 03e4 5E0EC27A 		.ascii	"^\016\302zt.ZZ\011\032\313\347\027_\010\032s+\215`\271"
 336      742E5A5A 
 336      091ACBE7 
 336      175F081A 
 336      732B8D60 
 337 03f9 21CFB50B 		.ascii	"!\317\265\013\213\223!h\215\227f\3767\204\026\024\020"
 337      8B932168 
 337      8D9766FE 
 337      37841614 
 337      10
 338 040a 2D862F9E 		.ascii	"-\206/\236\257\221S\275Q_\236\233\255\255L\326A{\026"
 338      AF9153BD 
 338      515F9E9B 
 338      ADAD4CD6 
 338      417B16
 339 041d FE05B73F 		.ascii	"\376\005\267?A\355"
 339      41ED
 340              		.text
 341              		.section	.gnu.lto_.symbol_nodes.28a2a932c1f3b045,"",%progbits
 342 0000 789C4D8F 		.ascii	"x\234M\217\313N\024A\024\206\317_5=\323@\217(\015\323"
 342      CB4E1441 
 342      1486CF5F 
 342      353DD340 
 342      8F280DD3 
 343 0014 5C46515C 		.ascii	"\\FQ\\\373\010\276\004+\267<\311!V\"\352B\014l51\366"
 343      FB08BE04 
 343      2BB73CC9 
 343      215622EA 
 343      420C6C35 
 344 002a 4E05C41B 		.ascii	"N\005\304\033\250x\243uF\007\304\035l\325\212qc\\\262"
 344      A878A375 
 344      4607C41D 
 344      6CD58A71 
 344      635CB2
 345 003d 24D6A9EE 		.ascii	"$\326\251\356X=\213\376\316W\347\362g\024)\272\242\251"
 345      583D8BFE 
 345      CE57E7F2 
 345      671429BA 
 345      A2A9
ARM GAS  /tmp/ccpoXYVW.s 			page 27


 346 004f FCA97530 		.ascii	"\374\251u0\350\366\001\021\363\235\033\013\321\007h"
 346      E8F60111 
 346      F39D1B0B 
 346      D10768
 347 005e 628A1E80 		.ascii	"b\212\036\200\032\254\325#0\325\232\257\320pM\265\006"
 347      1AACD523 
 347      30D59AAF 
 347      D0704DB5 
 347      06
 348 006f 56B5D702 		.ascii	"V\265\327\002\220\327g`\035^\325&\270Q\033\372\210H"
 348      90D76760 
 348      1D5ED526 
 348      B8511BFA 
 348      8848
 349 0081 EE3E8492 		.ascii	"\356>\204\222\273\217\301Qm\366)\270Y\351\335\353\013"
 349      BB8FC151 
 349      6DF629B8 
 349      59E9DDEB 
 349      0B
 350 0092 EA39B855 		.ascii	"\3529\270U[\335B3r\253\033h\011\236 \026\274\300\220"
 350      5BDD4233 
 350      72AB1B68 
 350      099E2016 
 350      BCC090
 351 00a5 03DE80E3 		.ascii	"\003\336\200\343rtq\021\330\006\017\005{\007\036\016"
 351      72747111 
 351      D8060F05 
 351      7B071E0E 
 352 00b5 F6163C12 		.ascii	"\366\026<\022l\007\234\004{\011n\007{\015>\025\354="
 352      6C079C04 
 352      7B096E07 
 352      7B0D3E15 
 352      EC3D
 353 00c7 7834D82E 		.ascii	"x4\330.\370t\260>\370L\260\036x,\330'p\032\3543x<\330"
 353      F874B03E 
 353      F84CB01E 
 353      782CD827 
 353      701AEC33 
 354 00de 57F044B0 		.ascii	"W\360D\260}p'\330\0368\0136\000O\006\373\002\236\372"
 354      7D7027D8 
 354      1E380B36 
 354      004F06FB 
 354      029EFA
 355 00f1 6F9A522A 		.ascii	"o\232R*\276\2378fd~\224\264\236)\345\327\376\314j\232"
 355      BE9F3866 
 355      647E94B4 
 355      9E29E5D7 
 355      FECC6A9A 
 356 0105 24EB9951 		.ascii	"$\353\231Q\276$\354\220\365\034#{K8A\371\362\257\206"
 356      BE24EC90 
 356      F51C237B 
 356      4B3841F9 
 356      F2AF86
 357 0118 A6712A3C 		.ascii	"\246q*<S2+\207\220~Q\321\256v\265\236\242\\b\242i2\302"
 357      53322B87 
 357      907E51D1 
 357      AE76B59E 
ARM GAS  /tmp/ccpoXYVW.s 			page 28


 357      A25C62A2 
 358 012f 56C5F82C 		.ascii	"V\305\370,\331{\307-\035w\313X\307B\342\034}\234\243"
 358      D97BC72D 
 358      1D77CB58 
 358      C742E21C 
 358      7D9CA3
 359 0142 B959D27A 		.ascii	"\271Y\322z\272s\313B\027\273\322o\352\330\305z\316\220"
 359      BA73CB42 
 359      17BBD26F 
 359      EAD8C57A 
 359      CE90
 360 0154 59FDDD95 		.ascii	"Y\375\335\225~\3419C\305\341\276\0267G\216#\347\312"
 360      7EE13943 
 360      C5E1BE16 
 360      37478E23 
 360      E7CA
 361 0166 BCE47CC5 		.ascii	"\274\344|\305Y\262;\177/\351\266\373\273\342m\267'\371"
 361      59B23B7F 
 361      2FE9B6FB 
 361      BBE26DB7 
 361      27F9
 362 0178 ED8B647A 		.ascii	"\355\213dz\275\246\270\365\234\243\274\177\244\304\315"
 362      BDA6B8F5 
 362      9CA3BC7F 
 362      A4C4CD
 363 0187 4098D0EE 		.ascii	"@\230\320\356\340\262o\013\022\272\277\227\371e\301"
 363      E0B26F0B 
 363      12BABF97 
 363      F965C1
 364 0196 1C9983C4 		.ascii	"\034\231\203\304\367*|\203\037\231\367\023\363R_M\245"
 364      F72A7C83 
 364      1F99F713 
 364      F3525F4D 
 364      A5
 365 01a7 CEDDF702 		.ascii	"\316\335\367\002Y_\027\035\377\356\257\344\231\324?"
 365      595F171D 
 365      FFEEAFE4 
 365      99D43F
 366 01b6 CB7A9AFE 		.ascii	"\313z\232\376\001\231d\364\365"
 366      019964F4 
 366      F5
 367              		.text
 368              		.section	.gnu.lto_.refs.28a2a932c1f3b045,"",%progbits
 369 0000 789C758D 		.ascii	"x\234u\215Q\016\200 \014C\273N\004!(\306\037/\355\235"
 369      510E8020 
 369      0C43BB4E 
 369      042128C6 
 369      1F2FED9D 
 370 0014 2D6AF8B3 		.ascii	"-j\370\263\315^\326\244\313\010\342\302\253\0030v\271"
 370      CD5ED6A4 
 370      CB08E2C2 
 370      AB033076 
 370      B9
 371 0025 4D835FC6 		.ascii	"M\203_\306\260r\320\314\214\235g\202aa\226{\377\207"
 371      B072D0CC 
 371      8C9D6782 
 371      6161967B 
ARM GAS  /tmp/ccpoXYVW.s 			page 29


 371      FF87
 372 0037 E3563D2B 		.ascii	"\343V=+\314^\237O\356+76\356b \264\025&\245\310\212"
 372      CC5E9F4F 
 372      EE2B3736 
 372      EE6220B4 
 372      1526A5C8 
 373 004c 1BDA7802 		.ascii	"\033\332x\002\317"
 373      CF
 374              		.text
 375              		.section	.gnu.lto_.decls.28a2a932c1f3b045,"",%progbits
 376 0000 789CBD5C 		.ascii	"x\234\275\\y|\024U\236\257\252\356N\247I\204\340\265"
 376      797C1455 
 376      9EAFAAEE 
 376      4EA74984 
 376      E0B5
 377 0012 01196967 		.ascii	"\001\031igtFG%\\\243\316\347\263#\270\316*\356\216\263"
 377      74464725 
 377      5CA3CEE7 
 377      B323B8CE 
 377      2AEE8EB3 
 378 0026 7E94F9AC 		.ascii	"~\224\371\254\377\365\024\235\012\3515Ig\252+\034\263"
 378      FFF5149D 
 378      0AE93549 
 378      67AA2B1C 
 378      B3
 379 0037 7F4C1130 		.ascii	"\177L\0210\242 \304D\014 `P\356\021\00494\001\244\020"
 379      A220C444 
 379      0C206050 
 379      EE110439 
 379      3401A410 
 380 004b 09E11808 		.ascii	"\011\341\030\010W\022<\230\014*\207(Cp\304pH\366\367"
 380      57123C98 
 380      0C2A8728 
 380      4370C470 
 380      48F6F7
 381 005e 8EEAAE7A 		.ascii	"\216\352\256z]U]\325\243\333\237\317\253zU\365\336\367"
 381      5D555DD5 
 381      A3DB9FCF 
 381      AB7A55F5 
 381      DEF7
 382 0070 FDEE77D4 		.ascii	"\375\356w\324\253\0268\201\273=\300q\275\360\253\373"
 382      AB163881 
 382      BB3DC071 
 382      BDF0ABFB 
 383 0080 6F8E5BD8 		.ascii	"o\216[\330\207\343B\034\307=\010\251/$x\304-\206T\301"
 383      87E3421C 
 383      C73D08A9 
 383      2F2478C4 
 383      2D8654C1 
 384 0094 735C1CD2 		.ascii	"s\\\034\322\037 )\220\252 M\2044\011\322\037!\315\204"
 384      1F202990 
 384      AA204D84 
 384      3409D21F 
 384      21CD84
 385 00a7 F422A455 		.ascii	"\364\"\244UP\326\007\011\262\334l8\014\204\363\0228"
 385      50D60709 
 385      B2DC6C38 
ARM GAS  /tmp/ccpoXYVW.s 			page 30


 385      0C84F312 
 385      38
 386 00b8 AF84B41A 		.ascii	"\257\204\264\032\322ZH\353!m\202\324\004i\007\244\026"
 386      D25A48EB 
 386      216D82D4 
 386      046907A4 
 386      16
 387 00c9 487B211D 		.ascii	"H{!\035\204\324\001\351\030\244O \235\206\364\025\244"
 387      84D401E9 
 387      18A44F20 
 387      9D86F415 
 387      A4
 388 00da 6E48DF42 		.ascii	"nH\337B\272\002I\0208.\010\351:H\375!\335\010\3516H"
 388      BA024910 
 388      382E08E9 
 388      3A48FD21 
 388      DD08E936 
 389 00ef 774002D2 		.ascii	"w@\002\322\271\237\301\371.HwC\272\027R5\244g!=\017"
 389      B99FC1F9 
 389      2E487743 
 389      BA175235 
 389      A467213D 
 390 0104 E93548AB 		.ascii	"\3515H\253 m\204d\374!\332\356\240\274\"\236\363!\371"
 390      206D8464 
 390      FC21DAEE 
 390      A0BC229E 
 390      F321F9
 391 0117 21AD8634 		.ascii	"!\255\2064\012R\020\322\011H\233\241\33498\377\002\352"
 391      0A5210D2 
 391      09489BA1 
 391      DC3938FF 
 391      02EA
 392 0129 0F81B40D 		.ascii	"\017\201\264\015\322\247p\255\011DF\007\340\371>H\333"
 392      D2A770AD 
 392      09444607 
 392      E0F93E48 
 392      DB
 393 013a 05B39C8E 		.ascii	"\005\263\234\216C\232\012\367\336\207\264\003\322\031"
 393      439A0AF7 
 393      DE87B403 
 393      D219
 394 0148 B816E1FC 		.ascii	"\270\026\341\374!\234?\200\363.8\327#\332\340\274SH"
 394      219C3F80 
 394      F32E38D7 
 394      23DAE0BC 
 394      5348
 395 015a C9FA104F 		.ascii	"\311\372\020Od9\022\356\375;\244\257 \237G\351m\201"
 395      643912EE 
 395      FD3BA4AF 
 395      209F47E9 
 395      6D81
 396 016c EB3D0291 		.ascii	"\353=\002\221\033\222\325\022*\257cT\236\035T\236\250"
 396      1B92D512 
 396      2AAF6354 
 396      9E1D549E 
 396      A8
 397 017d 3E92C3CF 		.ascii	">\222\303\317\250,\214?T\007\361\034\206\363QH\177\201"
ARM GAS  /tmp/ccpoXYVW.s 			page 31


 397      A82C8C3F 
 397      5407F11C 
 397      86F35148 
 397      7F81
 398 018f E7E7E0FC 		.ascii	"\347\347\340\374\257<y.\3202H\007\350\3262\336\\\037"
 398      AF3C792E 
 398      D0324807 
 398      E8D632DE 
 398      5C1F
 399 01a1 E93307CE 		.ascii	"\3513\007\316\373)\377\272= \314\013|\312\006\004Z\266"
 399      FB29FFBA 
 399      3D20CC0B 
 399      7CCA0604 
 399      5AB6
 400 01b3 9BE6751D 		.ascii	"\233\346u\035\031\177k=`\255\315\200\205\354\353v\252"
 400      197F6B3D 
 400      60ADCD80 
 400      85ECEB76 
 400      AA
 401 01c4 435D9F6E 		.ascii	"C]\237n\364\370\034\234k \035\200\324&\020\273\366\301"
 401      F4F81C9C 
 401      6B201D80 
 401      D42610BB 
 401      F6C1
 402 01d6 F920A3CF 		.ascii	"\371 \243\317\253\006}\"\375!\032Y\035\352\376\200t"
 402      AB067D22 
 402      FD211A59 
 402      1DEAFE80 
 402      74
 403 01e7 7808AE7B 		.ascii	"x\010\256{,t\331\207\322\252\353\022\331\366\025\252"
 403      2C74D987 
 403      D2AAEB12 
 403      D9F615AA 
 404 01f7 4BA30E91 		.ascii	"K\243\016\221\355\373\251\036\237\245\266\315\352r\023"
 404      EDFBA91E 
 404      9FA5B6CD 
 404      EA7213
 405 0206 95D5614A 		.ascii	"\225\325aJ7\312#_\314\025R\272De\220\357 Y\336\315\324"
 405      37CA235F 
 405      CC1552BA 
 405      446590EF 
 405      2059DECD 
 406 021b 47BE984B 		.ascii	"G\276\230K\345\243\313\014\311\351\010\224\273\036\322"
 406      E5A3CB0C 
 406      C9E90894 
 406      BB1ED2
 407 022a 51487D69 		.ascii	"QH}i\035\037-\337\237\372!\302\323\030\333@~=\230\301"
 407      1D1F2DDF 
 407      9FFA21C2 
 407      D318DB40 
 407      7E3D98C1 
 408 023e 43F2E71D 		.ascii	"C\362\347\035\344\277\235\352\036\321\316\372\317H\203"
 408      E4BF9DEA 
 408      1ED1CEFA 
 408      CF4883
 409 024d AFE8B4B4 		.ascii	"\257\350\264\264C\3721\244\016H\315H\347\220:\005B\337"
 409      43FA31A4 
ARM GAS  /tmp/ccpoXYVW.s 			page 32


 409      0E48CD48 
 409      E7903A05 
 409      42DF
 410 025f 4D542F46 		.ascii	"MT/Fy\217\200\347?\341\211\334w\030\344\376\211A\346"
 410      798F80E7 
 410      3FE189DC 
 410      7718E4FE 
 410      8941E6
 411 0272 77D07882 		.ascii	"w\320x\202\370C\261E\340R\376c\374\345q/\250j\265\332"
 411      F843B145 
 411      E052FE63 
 411      FCE5712F 
 411      A86AB5DA 
 412 0286 58A38E69 		.ascii	"X\243\216i\355{=\367\222\012\277\360\364O\241\326\323"
 412      ED7B3DF7 
 412      920ABFF0 
 412      F44FA1D6 
 412      D3
 413 0297 BCC8F70D 		.ascii	"\274\310\367\015q\252\200s\371!.\314\241\360\262DUk"
 413      71AA8073 
 413      F9212ECC 
 413      A1F0B244 
 413      556B
 414 02a9 BB96BE76 		.ascii	"\273\226\276v\253\352\027\371\327\371\353\001\370~\236"
 414      ABEA17F9 
 414      D7F9EB01 
 414      F87E9E
 415 02b8 FB39B712 		.ascii	"\3739\267\022\352\325\252\352\353?a\344\207\177\231"
 415      EAD5AAEA 
 415      EB3F61E4 
 415      877F99
 416 02c7 7105EE37 		.ascii	"q\005\3567<'\362\313\000P\344\227\362?'\015\251\332"
 416      3C27F2CB 
 416      0050E497 
 416      F23F270D 
 416      A9DA
 417 02d9 C19A7CD4 		.ascii	"\301\232|\324\020\272\317\321'\026\277\333\270F`B;\334"
 417      10BACFD1 
 417      2716BFDB 
 417      B8466042 
 417      3BDC
 418 02eb B26080DA 		.ascii	"\262`\200\332\370>o\342\351fn\016j\033.T^\021\371Qy"
 418      F83E6FE2 
 418      E9666E0E 
 418      6A1B2E54 
 418      5E11F951 
 419 0300 3A0161BD 		.ascii	":\001a\275}?\306\020\371?\3637S\263\3002\012q\323S("
 419      7D3FC610 
 419      F93FF337 
 419      53B3C032 
 419      0A71D353 
 420 0315 9C652D2A 		.ascii	"\234e-*\215\356\232\366\257\371j\300\027\371\325|\010"
 420      8DEE9AF6 
 420      AFF96AC0 
 420      17F9D57C 
 420      08
 421 0326 6ACFE079 		.ascii	"j\317\340y\023\261\"\037\010\031\351\305\327z\001\204"
ARM GAS  /tmp/ccpoXYVW.s 			page 33


 421      13B1221F 
 421      0819E9C5 
 421      D77A0184 
 422 0336 871FD30C 		.ascii	"\207\037\323\014\352\301\372\2412\277\363%+84~t\317"
 422      EAC1FAA1 
 422      32BFF325 
 422      2B38347E 
 422      74CF
 423 0348 3B77A96A 		.ascii	";w\251j\256\310\257\002\276\005n\017\323\264I\026\204"
 423      AEC8AF02 
 423      BE056E0F 
 423      D3B44916 
 423      84
 424 0359 473BFEDF 		.ascii	"G;\376\337\006\000k\021\247=\023\300\247u}Y\301\321"
 424      06006B11 
 424      A73D13C0 
 424      A7757D59 
 424      C1D1
 425 036b AC8978A3 		.ascii	"\254\211x\243\256\324\256\317\277h\365\315W\265\271"
 425      AED4AECF 
 425      BF68F5CD 
 425      57B5B9
 426 037a 436FE0EA 		.ascii	"Co\340\352\220~\264\034\243q\214\326\021rqc'pc\033\371"
 426      907EB41C 
 426      A3718CD6 
 426      11727163 
 426      2770631B 
 427 038f 1BCCC631 		.ascii	"\033\314\3061\247\305\027&\2673\333FC\315\354\201j\343"
 427      A7C51726 
 427      B733DB46 
 427      43CDEC81 
 427      6AE3
 428 03a1 CC42AA55 		.ascii	"\314B\252U\255F\235\316OY7\310\272E*\332\255\263\017"
 428      AD469DCE 
 428      4F5937C8 
 428      BA452ADA 
 428      ADB30F
 429 03b4 BC4EF5DA 		.ascii	"\274N\365\332\204\365\272B0\013\327\013XG\375\201\355"
 429      84F5BA42 
 429      300BD70B 
 429      5847FD81 
 429      ED
 430 03c5 146C0B06 		.ascii	"\024l\013\006\353\314\036\254\261\276c\020r\213m\030"
 430      EBCC1EAC 
 430      B1BE6310 
 430      728B6D18 
 431 03d5 E8151F6B 		.ascii	"\350\025\037km!\306\332Bfk\013\205R\231^\375g\366\333"
 431      6D21C6DA 
 431      42666B0B 
 431      8552995E 
 431      FD67F6DB 
 432 03e9 1FB48EC0 		.ascii	"\037\264\216\300-\366\351\012\265b2\263\365\354<\271"
 432      2DF6E90A 
 432      B56232B3 
 432      F5EC3CB9 
 433 03f9 82479E4E 		.ascii	"\202G\236N\003K\343h\203\207\232\240\020U\037\260Ae"
 433      034BE368 
ARM GAS  /tmp/ccpoXYVW.s 			page 34


 433      83879AA0 
 433      10551FB0 
 433      4165
 434 040b 5E0B1F26 		.ascii	"^\013\037&\2673\331\215\252\255k\331\313\253u\371\324"
 434      B733D98D 
 434      AAAD6BD9 
 434      CBAB75F9 
 434      D4
 435 041c 4A1B73EC 		.ascii	"J\033s\354B\001B\332\305\032\350\253-B\230\334\316l"
 435      420142DA 
 435      C51AE8AB 
 435      2D4298DC 
 435      CE6C
 436 042e A00B6B16 		.ascii	"\240\013k\026\246\007/\223\214\322\332\333\303\347\351"
 436      A6072F93 
 436      8CD2DADB 
 436      C3E7E9
 437 043d 2002B71C 		.ascii	" \002\267\034\213t\227M\361L\"\255\326\026\265\344\327"
 437      8B74974D 
 437      F14C22AD 
 437      D616B5E4 
 437      D7
 438 044e 8A22BF18 		.ascii	"\212\"\277\030G\2217\263\005K\376\004n\035\306\370 "
 438      479137B3 
 438      054BFE04 
 438      6E1DC6F8 
 438      20
 439 045f CB0851AD 		.ascii	"\313\010Q\255\255\247\321\\\017\252\353=\343\205\323"
 439      ADA7D15C 
 439      0FAAEB3D 
 439      E385D3
 440 046e 687A375B 		.ascii	"hz7[\2733`4\373\230\310g\205\221k\307\227\252}\370H"
 440      BB336034 
 440      FB98C867 
 440      85916BC7 
 440      97AA7DF8 
 441 0483 ADA87788 		.ascii	"\255\250w\210\006kRy\275n\001\227\014\032\365\3077\015"
 441      066B5279 
 441      BD6E0197 
 441      0C1AF5C7 
 441      370D
 442 0495 C1C1FD08 		.ascii	"\301\301\375\010\356i\277a<=#\214\300}\207\253t\260"
 442      EE69BF61 
 442      3C3D238C 
 442      C07D87AB 
 442      74B0
 443 04a7 2EF08D18 		.ascii	".\360\215\030&w3{\300\267\237\207\300\001,\232\262\212"
 443      2677337B 
 443      C0B79F87 
 443      C0012C9A 
 443      B28A
 444 04b9 720D27BA 		.ascii	"r\015'\272\006\354V\325\002\221\377\010S\274\305oI\261"
 444      06EC56D5 
 444      0291FF08 
 444      53BCC56F 
 444      49B1
 445 04cb BDC30ADC 		.ascii	"\275\303\012\334>\\\3458Cq\327\225\223\255\003\347b"
ARM GAS  /tmp/ccpoXYVW.s 			page 35


 445      3E5CE538 
 445      4371D795 
 445      93AD03E7 
 445      62
 446 04dc E4E3AE06 		.ascii	"\344\343\256\006\003G\255\374\311\202\213F\277\336\374"
 446      0347ADFC 
 446      C9828B46 
 446      BFDEFC
 447 04eb AF536CBC 		.ascii	"\257Sl\274rB+\304r\377\024sQ\027\310(w3\214\300\275"
 447      72422BC4 
 447      72FF1473 
 447      5117C828 
 447      77338CC0 
 448 0500 8AAB9C4C 		.ascii	"\212\253\234L\347\242\353\026\302\305IW\\\\\241\\\210"
 448      E7A2EB16 
 448      C2C54957 
 448      5C5CA15C 
 448      88
 449 0511 FC09EC98 		.ascii	"\374\011\354\230K\223\260\3319\3255\342\345\004\354"
 449      4B93B0D9 
 449      39D535E2 
 449      E504EC
 450 0520 4DCF6061 		.ascii	"M\317`a\023X\375.\342\241\356GJ\035gO\017\330\212\331"
 450      1358FD2E 
 450      E2A1EE47 
 450      4A1D674F 
 450      0FD88AD9 
 451 0534 3F877DFA 		.ascii	"?\207}\372j\300\262\017t\203T\277S\357N\2731\324\264"
 451      6AC0B20F 
 451      748354BF 
 451      53EF4EBB 
 451      31D4B4
 452 0547 9C6CA1EA 		.ascii	"\234l\241\352\033\266\374\022+\373\037\030\350\305\034"
 452      1BB6FC12 
 452      2BFB1F18 
 452      E8C51C
 453 0556 B63B0D32 		.ascii	"\266;\0152\335i\320\334\315\005C\251\014\035\274\375"
 453      DD69D0DC 
 453      CD0543A9 
 453      0C1DBCFD 
 454 0566 B0C5056E 		.ascii	"\260\305\005nn\216\013\315\331\307\240\256\313'\333"
 454      6E8E0BCD 
 454      D9C7A0AE 
 454      CB27DB
 455 0575 06CD53B5 		.ascii	"\006\315S\265i>\335\037m\3735\201{\015\267u\211\265"
 455      693EDD1F 
 455      6DFB3581 
 455      7B0DB775 
 455      89B5
 456 0587 E4ADB3BF 		.ascii	"\344\255\263\277\252\346\247`\005\\re\312\357\354mp"
 456      AAE6A760 
 456      055C7265 
 456      CAEFEC6D 
 456      70
 457 0598 E790C989 		.ascii	"\347\220\311\211\301\355\270\375\345\270\375kl\373\035"
 457      C1EDB8FD 
 457      E5B8FD6B 
ARM GAS  /tmp/ccpoXYVW.s 			page 36


 457      6CFB1D
 458 05a7 5F9F7E90 		.ascii	"_\237~\220x\3225W\315\257;\364\262U\377\372\340MN\246"
 458      78D23557 
 458      CDAF3BF4 
 458      B255FFFA 
 458      E04D4EA6 
 459 05bb B175F6AE 		.ascii	"\261u\366\256\013\224\311j\001\271Lw\232q\214\31236"
 459      0B94C96A 
 459      01B94C77 
 459      9A718CCA 
 459      3336
 460 05cd 86AF4D03 		.ascii	"\206\257M\003\345\313I\362\263\362X\340\263\365\261"
 460      E5CB49F2 
 460      B3F258E0 
 460      B3F5B1
 461 05dc 956FABEA 		.ascii	"\225o\253\352\3639:\015\337yF\014\233$\261\341\020\216"
 461      F3393A0D 
 461      DF79460C 
 461      9B24B1E1 
 461      108E
 462 05ee 01044C0D 		.ascii	"\001\004L\015\272\000\263\265\244jm\223\021l\252g03"
 462      BA00B3B5 
 462      A46A6D93 
 462      116CAA67 
 462      3033
 463 0600 65EF1AC1 		.ascii	"e\357\032\301j\334\200\025\330S\326l\004{\3363\230\231"
 463      6ADC8015 
 463      D853D66C 
 463      047BDE33 
 463      9899
 464 0612 B22D46B0 		.ascii	"\262-F\260\231n\300\012\355){\317\010V\353\031\314L"
 464      996EC00A 
 464      ED297BCF 
 464      0856EB19 
 464      CC4C
 465 0624 599B11EC 		.ascii	"Y\233\021\354e7`a\013\312\222?\273\261\346w\306\261"
 465      65376061 
 465      0BCA923F 
 465      BBB1E677 
 465      C6B1
 466 0636 6643500F 		.ascii	"fCP\017\011\331\017\017_\015z\015a&\276QO:\250\231\372"
 466      09D90F0F 
 466      5F0D7A0D 
 466      6126BE51 
 466      4F3AA899 
 467 064b 05E9CE16 		.ascii	"\005\351\316\026\273At0\230\371\273\014}\343J\317`\214"
 467      BB417430 
 467      98F9BB0C 
 467      7DE34ACF 
 467      608C
 468 065d 29233053 		.ascii	")#0S\254\241\035R\327R\255pn*\332\345\352Xh.EB[\255"
 468      ACA11D52 
 468      D752AD70 
 468      6E2ADAE5 
 468      EA58682E 
 469 0675 AA0AC9C2 		.ascii	"\252\012\311\302ja\241uY\221\177M\270\003\216\215B("
 469      6A61A175 
ARM GAS  /tmp/ccpoXYVW.s 			page 37


 469      59917F4D 
 469      B8038E8D 
 469      4228
 470 0687 4905C9EB 		.ascii	"I\005\311\35392\325Z\027\264Z\221\301\000\316U\355,"
 470      3932D55A 
 470      17B45A91 
 470      C100CE55 
 470      ED2C
 471 0699 61A160B0 		.ascii	"a\241`\260\204Mn\304\344\340\012\177\335\265\340_\324"
 471      844D6EC4 
 471      E4E00A7F 
 471      DDB5E05F 
 471      D4
 472 06aa 2E8D37F0 		.ascii	".\2157\360\353(\0344\204h\243C\210%\002\352\256\267"
 472      EB281C34 
 472      8468A343 
 472      882502EA 
 472      AEB7
 473 06bc 062DFB7D 		.ascii	"\006-\373}7H\365\253\357\306\375\376r\014\324\2225P"
 473      3748F5AB 
 473      EFC6FDFE 
 473      720CD492 
 473      3550
 474 06ce 7DC3A207 		.ascii	"}\303\242\007\310\022\014\006\332\037d\373\010\236\031"
 474      C8120C06 
 474      DA1F64FB 
 474      089E19
 475 06dd 40F0E62E 		.ascii	"@\360\346.\236\017\2452is\352\357\261\254\300u\262\352"
 475      9E0FA532 
 475      6973EAEF 
 475      B1ACC075 
 475      B2EA
 476 06ef 32B19331 		.ascii	"2\261\2231\330\200\323u\016nZ\243\252Ss\274(\254\225"
 476      D880D375 
 476      0E6E5AA3 
 476      AA5373BC 
 476      28AC95
 477 0702 2AEC2D2C 		.ascii	"*\354-,\236\2564\361,\027\274\311G\340N{\346\343N\206"
 477      9EAE34F1 
 477      2C17BCC9 
 477      47E04E7B 
 477      E6E34E86 
 478 0716 0FED4EEF 		.ascii	"\017\355N\357|tR>6`>\316\177\017|\364x\346c\250\201"
 478      7C74523E 
 478      36603ECE 
 478      7F0F7CF4 
 478      78E663A8 
 479 072b 0F349D68 		.ascii	"\0174\235h\033\322\204\203\240\253\005\212&\201Y\240"
 479      1BD28483 
 479      A0AB058A 
 479      268159A0 
 480 073b 38B607AD 		.ascii	"8\266\007\255\204\240\333.\346\201{\014\243}\325\335"
 480      84A0DB2E 
 480      E6817B0C 
 480      A37DD5DD 
 481 074b 68FF3C95 		.ascii	"h\377<\225\330\026,\261^+\017s\207t\370\203ut\264\277"
 481      D8162CB1 
ARM GAS  /tmp/ccpoXYVW.s 			page 38


 481      5E2B0F73 
 481      8774F883 
 481      7574B4BF 
 482 075f 0D433D9B 		.ascii	"\015C=\233\233-T}\307;\304Y\337\307@/\346\262Z\314a"
 482      9B2D547D 
 482      C73BC459 
 482      DFC7402F 
 482      E6B25ACC 
 483 0774 94986356 		.ascii	"\224\230cV\"\\\242\226z\360Z\326\237\350\035t\021\344"
 483      225CA296 
 483      7AF05AD6 
 483      9FE81D74 
 483      11E4
 484 0786 FEDFEB41 		.ascii	"\376\337\353AO\214\311G\012\314ft\211\015\350\236&\332"
 484      4F8CC947 
 484      0ACC6674 
 484      890DE89E 
 484      26DA
 485 0798 8B12252D 		.ascii	"\213\022%-\372\247\020\253\265\3653\364\031\353(\324"
 485      FAA710AB 
 485      B5F533F4 
 485      19EB28D4 
 486 07a8 8F2EFF27 		.ascii	"\217.\377'\341\016\356\365>\307\324\006\022\253\333"
 486      E10EEEF5 
 486      3EC7D406 
 486      12ABDB
 487 07b7 8B195A93 		.ascii	"\213\031Z\223\246\341n6\036\273\231r5g\313H\362'p\333"
 487      A6E16E36 
 487      1EBB9972 
 487      3567CB48 
 487      F22770DB 
 488 07cb 735DF496 		.ascii	"s]\364\226a"
 488      61
 489 07d0 276DF550 		.ascii	"'m\365Pw\3178oK\256\307\234.l\305\3028(\240\225\214"
 489      77CF386F 
 489      4BAEC79C 
 489      2E6CC5C2 
 489      3828A095 
 490 07e5 9D8C305C 		.ascii	"\235\2140\\\314\377\216\340*G\204\264\225\214\266\001"
 490      CCFF8EE0 
 490      2A4784B4 
 490      958CB601 
 491 07f5 64FE851E 		.ascii	"d\376\205\036\271\230\376\231V2D\376\013^\240\260\331"
 491      B998FE99 
 491      563244FE 
 491      0B5EA0B0 
 491      D9
 492 0806 CAD3A4C2 		.ascii	"\312\323\244\302\024}\"\337\216\007F\035\302mF\331\177"
 492      147D22DF 
 492      8E07461D 
 492      C26D46D9 
 492      7F
 493 0817 E659F661 		.ascii	"\346Y\366a\243\354\265+{\027\360\204~\262\262u\216\305"
 493      A3ECB52B 
 493      7B17F084 
 493      7EB2B275 
 493      8EC5
ARM GAS  /tmp/ccpoXYVW.s 			page 39


 494 0829 1B6D1CB4 		.ascii	"\033m\034\264\322\354\235\266\272\324\352\366\343\321"
 494      D2EC9DB6 
 494      BAD4EAF6 
 494      E3D1
 495 0837 2671BA4B 		.ascii	"&q\272Kn\210\033j\007V\255-\"`\304\340{=\203\205M`["
 495      6E881B6A 
 495      0756AD2D 
 495      2260C4E0 
 495      7B3D8385 
 496 084e 6759AE44 		.ascii	"gY\256Dw\330\000\"\351w\031\307\204/\204\\\264\377\200"
 496      77D80022 
 496      E97719C7 
 496      842F845C 
 496      B4FF80
 497 0861 3D3347F7 		.ascii	"=3G\367\353\013\277d\221\350e\317xf~\272g\231\"\322"
 497      EB0BBF64 
 497      91E865CF 
 497      78667EBA 
 497      679922D2 
 498 0875 6B6EE046 		.ascii	"kn\340F\2736\274\324\022\237\310\237\346\221\341\235"
 498      BB36BCD4 
 498      129FC89F 
 498      E691E19D 
 499 0885 E16F83E3 		.ascii	"\341o\203\343Y|\374\012\037{\360q\256\200\216\363\361"
 499      597CFC0A 
 499      1F7BF071 
 499      AE808EF3 
 499      F1
 500 0896 71013EBE 		.ascii	"q\001>\276\201\217k\360q=>\276\213\217m\370x\014\037"
 500      818F6BF0 
 500      713D3EBE 
 500      8B8F6DF8 
 500      780C1F
 501 08a9 3FC2C74F 		.ascii	"?\302\307O\360\361\257\370x\002\037?3\232\267\235^N"
 501      F0F1AFF8 
 501      78021F3F 
 501      339AB79D 
 501      5E4E
 502 08bb 985FDBE9 		.ascii	"\230_\333\351^w<\353\365\303\366\324\372\241\310\177"
 502      5E773CEB 
 502      F5C3F6D4 
 502      FAA1C87F 
 503 08cb E9192CEC 		.ascii	"\351\031,\354$\311\343\006IvaI\376\015\313\355\244\331"
 503      24C9E306 
 503      49766149 
 503      FE0DCBED 
 503      A4D9
 504 08dd 919787F4 		.ascii	"\221\227\207\364\025m\007\307\263g\241\253\356\370{"
 504      156D07C7 
 504      B367A1AB 
 504      EEF87B
 505 08ec A625D5B7 		.ascii	"\246%\325\267X\274\214\023Q\263H\256I\255C\031W9\342"
 505      58BC8C13 
 505      51B348AE 
 505      49AD4319 
 505      5739E2
 506 08ff E02A678D 		.ascii	"\340*g\215\256\362\216\347\266\035%\330a\220\3401,\301"
ARM GAS  /tmp/ccpoXYVW.s 			page 40


 506      AEF28EE7 
 506      B61D25D8 
 506      6190E031 
 506      2CC1
 507 0911 0FB1044F 		.ascii	"\017\261\004Oc\213\371\302,\307\367B\314{\014\363\253"
 507      638BF9C2 
 507      2CC7F742 
 507      CC7B0CF3 
 507      AB
 508 0922 0343D69D 		.ascii	"\003C\326\235#,34\276\0027\276\0227\276\001\037\017"
 508      232C3334 
 508      BE0237BE 
 508      1237BE01 
 508      1F0F
 509 0934 F32ECC75 		.ascii	"\363.\314uqj\221\301$\321\376\\-^%\234\333\227LOi\375"
 509      716A91C1 
 509      24D1FE5C 
 509      2D5E259C 
 509      DB974C4F 
 510 094a 42BDBE8F 		.ascii	"B\275\276\217\326\377\273\320\037\347L\243A\\\302\256"
 510      D6FFBBD0 
 510      1FE74CA3 
 510      415CC2AE 
 511 095a C5F38629 		.ascii	"\305\363\206)p~(\225\0212PzN\260\246\224\331m\260E\260"
 511      707E2895 
 511      1132507A 
 511      4EB0A694 
 511      D96DB045 
 512 096f 6FFA8260 		.ascii	"o\372\202`\332n@W\0163\274\364\307\303\027\301\344\324"
 512      DA6E4057 
 512      0E33BCF4 
 512      C7C317C1 
 512      E4D4
 513 0981 56926A1C 		.ascii	"V\222j\034\315\210\252\300\314\230\310\177\343YT\027"
 513      CD88AAC0 
 513      CC98C87F 
 513      E3595417 
 514 0991 6D44C567 		.ascii	"mD\305g \367\0376\2422*uy\212R\255D\0078\235O\021z<"
 514      20F71F36 
 514      A2322A75 
 514      798A52AD 
 514      4407389D 
 515 09a9 D37AC986 		.ascii	"\323z\311\206\326S\371\031\210\375\326\206X\213u\352"
 515      D653F919 
 515      88FDD686 
 515      588B75EA 
 516 09b9 DFEB7511 		.ascii	"\337\353u\021&\035n\315[s\251p*\236\246\\\301\303\255"
 516      261D6ECD 
 516      5B73A970 
 516      2A9EA65C 
 516      C1C3AD
 517 09cc EF42195F 		.ascii	"\357B\031_\034\231`\020\011\327\230\221\226V\337\202"
 517      1C996010 
 517      09D79891 
 517      9656DF82 
 518 09dc F7C05C73 		.ascii	"\367\300\\s5\314\232\343\360\332\313i\2247\243\017\242"
 518      35CC9AE3 
ARM GAS  /tmp/ccpoXYVW.s 			page 41


 518      F0DACB69 
 518      9437A30F 
 518      A2
 519 09ed B4DAC7B4 		.ascii	"\264\332\307\264\3755zO\210\356fn\371\2333\273\321\233"
 519      FD357A4F 
 519      88EE666E 
 519      F99B33BB 
 519      D19B
 520 09ff 72919FE2 		.ascii	"r\221\237\342Ca\265!\011\230\355\370\316NG\010\237\376"
 520      4361B521 
 520      0998EDF8 
 520      CE4E4708 
 520      9FFE
 521 0a11 A037C7CD 		.ascii	"\2407\307\315\\\363>\214\324\367\2050o\231\227{\306"
 521      5CF33E8C 
 521      D4F78530 
 521      6F99977B 
 521      C6
 522 0a22 0B9BF0E6 		.ascii	"\013\233\360\346\223\016\222l\306\331\344\006\314\252"
 522      930E926C 
 522      C6D9E406 
 522      CCAA
 523 0a30 6BB1FA19 		.ascii	"k\261\372\031-C\344{\361\030W\365\241\330:\035\037_"
 523      2D43E47B 
 523      F11857F5 
 523      A1D83A1D 
 523      1F5F
 524 0a42 F0B988B0 		.ascii	"\360\271\210\260\227]8\243!l\334\251\327\017\320\372"
 524      975D38A3 
 524      216CDCA9 
 524      D70FD0FA 
 525 0a52 2FFABCBA 		.ascii	"/\372\274\272\342,\237\265+\3723P:3\245e:\373\231\263"
 525      E22C9FB5 
 525      2BFA3350 
 525      3A33A565 
 525      3AFB99B3 
 526 0a66 E9D88057 		.ascii	"\351\330\200W\253\321\242\015\011\011\002\367w\220/"
 526      ABD1A20D 
 526      090902F7 
 526      77902F
 527 0a75 5DF830ED 		.ascii	"]\3700\355-cb\210\300]\304\212x\311\307,\1774\340\015"
 527      2D636288 
 527      C05DC48A 
 527      78C9C72C 
 527      7F34E00D 
 528 0a89 44E876E6 		.ascii	"D\350v\346\345\217\215-}\324\023\032o\265\225\315\""
 528      E58F8D2D 
 528      7DD4131A 
 528      6FB595CD 
 528      22
 529 0a9a 64CD611D 		.ascii	"d\315a\035\211\3549\231\343\302\223\320\266\021\334"
 529      89EC3999 
 529      E3C293D0 
 529      B611DC
 530 0aa9 94AE1368 		.ascii	"\224\256\023h\212l@\322\233\273Qo\256U\217\346s=\253"
 530      8A6C40D2 
 530      9BBB516F 
ARM GAS  /tmp/ccpoXYVW.s 			page 42


 530      AE558FE6 
 530      733DAB
 531 0abc 659E8D5A 		.ascii	"e\236\215Z\350:\031z\231\223\307SF\254\333\315\344["
 531      E83A197A 
 531      9993C753 
 531      46ACDBCD 
 531      E45B
 532 0ace AAB6E091 		.ascii	"\252\266\340\221\332\232|B\234\300\325\270\203\243,"
 532      DA9A7C42 
 532      9CC0D5B8 
 532      83A32C
 533 0add 59E22D32 		.ascii	"Y\342-2\342=\357\016\2576`\217\267\326\2107\323\035"
 533      E23DEF0E 
 533      AF36608F 
 533      B7D68837 
 533      D31D
 534 0aef 5E67D01E 		.ascii	"^g\320\036\357m#\336lwx\215},\360\222?\201\253\313\323"
 534      EF6D23DE 
 534      6C77788D 
 534      7D2CF092 
 534      3F81ABCB 
 535 0b04 2DD7DAD8 		.ascii	"-\327\332\330\034\264 \362\263-B\202\373\372\203\271"
 535      1CB420F2 
 535      B32D4282 
 535      FBFA83B9 
 536 0b14 45AA76BE 		.ascii	"E\252v\276\353\243\346K\205\213\320\242\203z\255\367"
 536      EBA3E64B 
 536      858BD0A2 
 536      837AADF7 
 537 0b24 4F3C19B7 		.ascii	"O<\031\267\010\334\316<s\317v;\367\206\252\326\251\337"
 537      08DCCE3C 
 537      73CF763B 
 537      F786AAD6 
 537      A9DF
 538 0b36 168FA1D3 		.ascii	"\026\217\241\323\254}\270\300\022\337`K\023\324\337"
 538      AC7DB8C0 
 538      12DF604B 
 538      13D4DF
 539 0b45 9BFE945B 		.ascii	"\233\376\224[\212\014v\353gO\214!\243%\316\241\022\345"
 539      8A0C76EB 
 539      674F8C21 
 539      A325CEA1 
 539      12E5
 540 0b57 6AA9CFB4 		.ascii	"j\251\317\264\207\225\220\251u\264\314\202@^\255\365"
 540      879590A9 
 540      75B4CC82 
 540      405EADF5 
 541 0b67 F68EE298 		.ascii	"\366\216\342\230Q\230\315;^\204\265\312w3\315\351\003"
 541      5198CD3B 
 541      5E84B5CA 
 541      7733CDE9 
 541      03
 542 0b78 2F81DBCF 		.ascii	"/\201\333\317\260\226\244R]\241\3720\032*\277\3227\330"
 542      B096A452 
 542      5DA1FA30 
 542      1A2ABFD2 
 542      37D8
ARM GAS  /tmp/ccpoXYVW.s 			page 43


 543 0b8a 4885C8FF 		.ascii	"H\205\310\377\331\222\254-\320\037L\351\352\355\035"
 543      D992AC2D 
 543      D01F4CE9 
 543      EAED1D
 544 0b99 4CDA12B8 		.ascii	"L\332\022\270\217\\\241\257f\321\327X\243\357g\320O"
 544      8F5CA1AF 
 544      66D1D758 
 544      A3EF67D0 
 544      4F
 545 0baa BA425FCB 		.ascii	"\272B_\313\242\257\263Do\333\303\240w\273B_\317\242"
 545      A2AFB344 
 545      6FDBC3A0 
 545      77BB425F 
 545      CFA2
 546 0bbc 6FB044DF 		.ascii	"o\260D\337\304\242_s\205\276\211E\177\307\022\375e]"
 546      C4A25F73 
 546      85BE8945 
 546      7FC712FD 
 546      655D
 547 0bce 32265BC8 		.ascii	"2&[\310\345\236\303\253\375\317\252S\370?$\355\335\346"
 547      E59EC3AB 
 547      FDCFAA53 
 547      F83F24ED 
 547      DDE6
 548 0be0 1D9CC86F 		.ascii	"\035\234\310o\366\345\242H\223o\373\006\015\025@?T\237"
 548      F6E5A248 
 548      936FFB06 
 548      0D15403F 
 548      549F
 549 0bf2 E4F59CC3 		.ascii	"\344\365\234\303\013\264f\0373\360'\263i\303\310\037"
 549      0BB4661F 
 549      33F027B3 
 549      69C3C81F 
 550 0c02 A247BEA5 		.ascii	"\242G\276\245{\365\"\367\"\323\326\006\\\242\311\326"
 550      7BF522F7 
 550      22D3D606 
 550      5CA2C9D6 
 551 0c12 BF4EF029 		.ascii	"\277N\360)\007\253V7\177\374D\241N\242\251\226\211w"
 551      07AB5637 
 551      7FFC44A1 
 551      4EA2A996 
 551      8977
 552 0c24 4AE0364B 		.ascii	"J\3406K\211\266\263\2666?\337\215\276v\260\372\372 "
 552      89B6B3B6 
 552      363FDF8D 
 552      BE76B0FA 
 552      FA20
 553 0c36 1DBDAB16 		.ascii	"\035\275\253\026:\367\355\267\314}[\235F\242\014\343"
 553      3AF7EDB7 
 553      CC7D5B9D 
 553      46A20CE3 
 554 0c46 C0886E3B 		.ascii	"\300\210n;i\356b\245\031\010\245\362T?\214p\227\247"
 554      69EE62A5 
 554      1908A5F2 
 554      543F8C70 
 554      97A7
 555 0c58 114E0AED 		.ascii	"\021N\012\355\261\244l\347\3056~\236\372\3764\265\267"
ARM GAS  /tmp/ccpoXYVW.s 			page 44


 555      B1A46CE7 
 555      C5367E9E 
 555      FAFE34B5 
 555      B7
 556 0c69 F74F6C64 		.ascii	"\367OldY\315\333\367\260\373X\302\320\354\226^0\353"
 556      59CDDBF7 
 556      B0FB58C2 
 556      D0EC965E 
 556      30EB
 557 0c7b 054E3007 		.ascii	"\005N0\007|y&\"M\234l\260\341\244\315F\306\273\263\223"
 557      7C792622 
 557      4D9C6CB0 
 557      E1A4CD46 
 557      C6BBB393 
 558 0c8f F1217B19 		.ascii	"\361!{\0313\2344:Lx\217:q\262\335\206\223v+N\264\236"
 558      339C343A 
 558      4C788F3A 
 558      71B2DD86 
 558      93762B4E 
 559 0ca5 96992A6F 		.ascii	"\226\231*o\266\306\016\033\200NKQ,\271\330\312O\257"
 559      B6C60E1B 
 559      804E4B51 
 559      2CB9D8CA 
 559      4FAF
 560 0cb7 53AFF6F6 		.ascii	"S\257\366\366\372<\364\026\037\262r`\247\354\002w\306"
 560      FA3CF416 
 560      1FB27260 
 560      A7EC0277 
 560      C6
 561 0cc8 868C8F2D 		.ascii	"\206\214\217-\3118v\352\314\200\205v\032A\036lG\311"
 561      C93876EA 
 561      CC808576 
 561      1A411E6C 
 561      47C9
 562 0cda 7107E322 		.ascii	"q\007\343\"\366d|x\316t\315\250\014\365\347V\315\320"
 562      F6647C78 
 562      CE74CDA8 
 562      0CF5E756 
 562      CDD0
 563 0cec 296DD3D9 		.ascii	")m\323\331\355?Z\211\327\371?\305\363\272\317\256K{"
 563      ED3F5A89 
 563      D7F93FC5 
 563      F3BACFAE 
 563      4B7B
 564 0cfe 9D22305B 		.ascii	"\235\"0[\240\230\005\012F`\\\232\356\277\274\316Zf\247"
 564      A098050A 
 564      46605C9A 
 564      EEBFBCCE 
 564      5A66A7
 565 0d11 AC64D6B8 		.ascii	"\254d\326\2704\245{\367\337v\234q#/\206,\265\2575Y_"
 565      34A57BF7 
 565      DF769C71 
 565      232F862C 
 565      B5AF3559 
 566 0d26 DA3857F7 		.ascii	"\3328W\367@[\347r\260\251s,e\310\205\030Jf\332Pr\336"
 566      405BE772 
 566      B0A9732C 
ARM GAS  /tmp/ccpoXYVW.s 			page 45


 566      65C88518 
 566      4A66DA50 
 567 0d3c 9292CFBE 		.ascii	"\222\222\317\276\316\306\266/8J\210\350-\203\300\026"
 567      CEC6B62F 
 567      384A88E8 
 567      2D83C016 
 568 0d4c D89079D1 		.ascii	"\330\220y\321\222\314yk\266\337:\317N`\016\252\354a"
 568      92CC796B 
 568      B6DF3ACF 
 568      4E600EAA 
 568      EC61
 569 0d5e 09BD2CA4 		.ascii	"\011\275,\244y\341j\033J.\333x\341\356\201Yy\341U+R"
 569      79E16A1B 
 569      4A2EDB78 
 569      E1EE8159 
 569      79E1552B 
 570 0d73 6CBC8EF8 		.ascii	"l\274\216\370\017\227\311\027\232l(\237\342\267\226"
 570      0F97C917 
 570      9A6C289F 
 570      E2B796
 571 0d82 E1C15BB3 		.ascii	"\341\301[\2631\272\251~'\302-\011;lCX\215\025aZ\363"
 571      31BAA97E 
 571      27C22D09 
 571      3B6C4358 
 571      8D15615A 
 572 0d97 2E3B2775 		.ascii	".;'u\240j\272#UlP[\305[\221y\334\206\314\231\226\362"
 572      A06ABA23 
 572      556C505B 
 572      C55B9179 
 572      DC86CC99 
 573 0dad DBF6EDDF 		.ascii	"\333\366\355\337\356\314J\363\263XR-\306p+\372Y\223"
 573      EECC4AF3 
 573      B358522D 
 573      C6702BFA 
 573      5993
 574 0dbf 526B29B1 		.ascii	"Rk)\261W\366\330I\314\211\216:\177\372\374\345]\233"
 574      57F6D849 
 574      CC898E3A 
 574      7FFAFCE5 
 574      5D9B
 575 0dd1 76EB2D45 		.ascii	"v\353-E\320t\366\314\250lLh\216\337\352k9\265F\275s"
 575      D074F6CC 
 575      A86C4C68 
 575      8EDFEA6B 
 575      39B546BD 
 576 0de6 456A91D1 		.ascii	"Ej\221\321\264\354\234|%}~\031\335\313\321\340GOv3\364"
 576      B4EC9C7C 
 576      257D7E19 
 576      DDCBD1E0 
 576      474F7633 
 577 0dfb BA866AEC 		.ascii	"\272\206j\354\250\277\031\255\214\316\3070\207\263\205"
 577      A8BF19AD 
 577      8CCEC730 
 577      87B385
 578 0e0a E9AA6F58 		.ascii	"\351\252oXN6\200/\304@\037\367c{8\037\263_\300g\336"
 578      4E36802F 
 578      C4401FF7 
ARM GAS  /tmp/ccpoXYVW.s 			page 46


 578      637B381F 
 578      B35FC067 
 579 0e1f 2FE00BA5 		.ascii	"/\340\013\2452(\350\376\200\205\031\023;e\243\352FK"
 579      3228E8FE 
 579      80851913 
 579      3B65A3EA 
 579      464B
 580 0e31 551F3B75 		.ascii	"U\037;ul@6\252~\335\205\261_\260\241d\211\245\261oD"
 580      6C4036AA 
 580      7EDD85B1 
 580      5FB0A164 
 580      89A5B16F 
 581 0e46 93F5C564 		.ascii	"\223\365\305d\262N\234I\340zm\020\226\231\021~\314-"
 581      B24E9C49 
 581      E07A6D10 
 581      9699117E 
 581      CC2D
 582 0e58 56B5B6AE 		.ascii	"V\265\266\256\217\232\273O\362u\252:}*\332\033\303\367"
 582      8F9ABB4F 
 582      F275AA3A 
 582      7D2ADA1B 
 582      C3F7
 583 0e6a FAF4AF51 		.ascii	"\372\364\257Qg\024\3500\224\035\325\364\241)B\\\221"
 583      6714E830 
 583      941DD5F4 
 583      A129425C 
 583      91
 584 0e7b 424468A4 		.ascii	"BDh\244\363\276gs\265:m\035\010\004\300F\221\025\027"
 584      F3BE6773 
 584      B53A6D1D 
 584      0804C046 
 584      911517
 585 0e8e 817B8905 		.ascii	"\201{\211\005\263X\352[eF\303\264\355>\205hkUU\340\220"
 585      B358EA5B 
 585      6546C3B4 
 585      ED3E8568 
 585      6B5555E0 
 586 0ea3 1FACBF0D 		.ascii	"\037\254\277\015x\205EK[\373\1773\215\262+'{\"oV#\235"
 586      7885454B 
 586      5BFB7F33 
 586      8DB22B27 
 586      7B226F56 
 587 0eb9 1136AD3E 		.ascii	"\0216\255>\371\361\3510\350\245~\352C\234\0375\343a"
 587      F9F1E930 
 587      E8A57EEA 
 587      439C1F35 
 587      E361
 588 0ecb DB1A3F6A 		.ascii	"\333\032?j{~\201Y\272\031q\004n\031\256\262\316\237"
 588      7B7E8159 
 588      BA197104 
 588      6E19AEB2 
 588      CE9F
 589 0edd BEF1E369 		.ascii	"\276\361\343i\262\361\003=\312\274\232\271\260}\201"
 589      B2F1033D 
 589      CABC9AB9 
 589      B07D81
 590 0eec F15B3D63 		.ascii	"\361[=c\213]\3117\216\203\214\224w\016|\017\343o\304"
ARM GAS  /tmp/ccpoXYVW.s 			page 47


 590      8B5DC937 
 590      8E838C94 
 590      770E7C0F 
 590      E36FC4
 591 0eff 94AFCD4C 		.ascii	"\224\257\315L\271\031G\340\266\342*\357\246S\256\375"
 591      B91947E0 
 591      B6E22AEF 
 591      A653AEFD 
 592 0f0f 07A1FC5D 		.ascii	"\007\241\374]W\224\037>d\336\362\2617\011K\333\365\366"
 592      57941F3E 
 592      64DEF2B1 
 592      37094BDB 
 592      F5F6
 593 0f21 E6593B42 		.ascii	"\346Y;B\266j\223]\015\207Y0O\257\235U\255\223\200]\302"
 593      B66A935D 
 593      0D875930 
 593      4FAF9D55 
 593      AD93805D 
 594 0f36 947DE819 		.ascii	"\224}\350\031,l\242\354\257u\346\317\214\272\334\340"
 594      2C6CA2EC 
 594      AF75E6CF 
 594      8CBADCE0 
 595 0f46 396CA53E 		.ascii	"9l\245>\177\310\260\225\372\264g03q\027\215`\347\335"
 595      7FC8B095 
 595      FAB46730 
 595      3371178D 
 595      60E7DD
 596 0f59 80596D38 		.ascii	"\200Ym8\266\372\031mD\344\233\375\350\225\312f?z\231"
 596      B6FA196D 
 596      44E49BFD 
 596      E895CA66 
 596      3F7A99
 597 0f6c B2151FB7 		.ascii	"\262\025\037\267\341\343v|\334\201\217;\375\246w\350"
 597      E1E3767C 
 597      DC818F3B 
 597      FDA677E8 
 598 0f7c 97932E62 		.ascii	"\227\223.bi\211\231LB\3256\332;\207\325\373\305\206"
 598      6989994C 
 598      42D536DA 
 598      3B87D5FB 
 598      C586
 599 0f8e 136D833A 		.ascii	"\023m\203:\261\005\357\306\276\241\366\367\366~\021"
 599      B105EFC6 
 599      BEA1F6F7 
 599      F67E11
 600 0f9d 6210AE   		.ascii	"b\020\256"
 601 0fa0 B12FDD35 		.ascii	"\261/\3355:G\021\327\330\347\3025\252\265K\263]~]\227"
 601      3A4711D7 
 601      D8E7C235 
 601      AAB54BB3 
 601      5D7E5D97 
 602 0fb4 94C78D46 		.ascii	"\224\307\215F.N\337B>\022<\210\271X\235\231\0133\016"
 602      2E4EDF42 
 602      3E123C88 
 602      B9589D99 
 602      0B330E
 603 0fc7 7838AE72 		.ascii	"x8\256r\304\202\215_\321Mi\256\330h\232\255\333}\233"
ARM GAS  /tmp/ccpoXYVW.s 			page 48


 603      C4828D5F 
 603      D14D69AE 
 603      D8689AAD 
 603      DB7D9B
 604 0fda 1F59D7FE 		.ascii	"\037Y\327\376$\254\203u\331\252\263Zk>\200M\225\200"
 604      24AC8375 
 604      D9AAB35A 
 604      6B3E804D 
 604      9580
 605 0fec B57B0633 		.ascii	"\265{\0063\333\375\326\003\013\012\325\306\355\311q"
 605      DBFDD603 
 605      0B0AD5C6 
 605      EDC971
 606 0ffb D27116CF 		.ascii	"\322q\026\3174"
 606      34
 607 1000 96C91431 		.ascii	"\226\311\0241\252\265\367\016\260\237$\220\025\015\207"
 607      AAB5F70E 
 607      B09F2490 
 607      150D87
 608 100f C97FC309 		.ascii	"\311\177\303\011\355\226\025\344\243K\314\322)FS.\321"
 608      ED9615E4 
 608      A34BCCD2 
 608      2946532E 
 608      D1
 609 1020 9022FEE6 		.ascii	"\220\"\376\346\267\377w\001\346\031x\271\033\3219~\034"
 609      B7FF7701 
 609      E61978B9 
 609      1BD1397E 
 609      1C
 610 1031 D2FAA0FE 		.ascii	"\322\372\240\376q\010~\033\321\343\006\320\375^\227"
 610      71087E1B 
 610      D1E306D0 
 610      FD5E97
 611 1040 2386B0D1 		.ascii	"#\206\260\321\216\303F\007\016\017\307\360\361#|\374"
 611      8EC34607 
 611      0E0FC7F0 
 611      F1237CFC 
 612 1050 041F3F35 		.ascii	"\004\037?5\006\014;\331 {Ibw\372\005\352\241\331\331"
 612      060C3BD9 
 612      207B4962 
 612      77FA05EA 
 612      A1D9D9
 613 1063 E0D5940D 		.ascii	"\340\325\224\015\202F<\203\231m\360\245CF\033\024\371"
 613      82463C83 
 613      996DF0A5 
 613      43461B14 
 613      F9
 614 1074 8F593C8F 		.ascii	"\217Y<\2176\270\266.\277\355\367\272A\367&c\221[\260"
 614      36B8B62E 
 614      BFEDF7BA 
 614      41F72663 
 614      915BB0
 615 1087 0227A5EC 		.ascii	"\002'\245\3543(e?V\312\001\254\202\317\361\361$>\236"
 615      3328653F 
 615      56CA01AC 
 615      82CFF1F1 
 615      243E9E
ARM GAS  /tmp/ccpoXYVW.s 			page 49


 616 109a 32C7EF19 		.ascii	"2\307\357\031\3273\361\333\024-\255z\023\243xTmK{~\362"
 616      D733F1DB 
 616      142DAD7A 
 616      13A37854 
 616      6D4B7B7E 
 617 10af 636E177B 		.ascii	"cn\027{q{\006\221\275\270gq\330\253\273\336\363^\334"
 617      717B0691 
 617      BDB86771 
 617      D8ABBBDE 
 617      F35EDC
 618 10c2 C5B8CA39 		.ascii	"\305\270\3129\213!\331oH\330;\2279\354M\233\252m\254"
 618      8B21D96F 
 618      48D83B97 
 618      39EC4D9B 
 618      AA6DAC
 619 10d5 5F968ADE 		.ascii	"_\226\212\336S\223\356\273\310a\361\326\364\325\317"
 619      5393EEBB 
 619      C861F1D6 
 619      F4D5CF
 620 10e4 BA24191E 		.ascii	"\272$\031\036M\324Zq\347\014\212;\217\025\327mV\323"
 620      4DD45A71 
 620      E70C8A3B 
 620      8F15D76D 
 620      56D3
 621 10f6 66564D56 		.ascii	"fVMV\3559\354\265\355h'\233<\334j\252w\375\205\373\361"
 621      ED39ECB5 
 621      ED68279B 
 621      3CDC6AAA 
 621      77FD85FB 
 622 110b 84F02256 		.ascii	"\204\360\"V\324\005\257\212BL]\362\263[i\2440\271\233"
 622      D405AF8A 
 622      424C5DF2 
 622      B35B69A4 
 622      30B99B
 623 111e B95BBAF2 		.ascii	"\271[\272\3629\336J\343e\317\373\371B\262\347\375*\366"
 623      39DE4AE3 
 623      65CFFBF9 
 623      42B2E7FD 
 623      2AF6
 624 1130 ACA9377C 		.ascii	"\254\2517|/{\336g`\230K\337\227\236/\031\364|\031\353"
 624      2F7BDE67 
 624      60984BDF 
 624      979E2F19 
 624      F47C19EB 
 625 1144 F98A59CF 		.ascii	"\371\212Y\317u7x\325s\330\251\275u\206\366\326\343\366"
 625      753778D5 
 625      73D8A9BD 
 625      7586F6D6 
 625      E3F6
 626 1156 36E020D0 		.ascii	"6\340 \320\212\217_\340\3437f\012\346$\005g9)\302+q"
 626      8A8F5FE0 
 626      E337660A 
 626      E6240567 
 626      3929C22B 
 627 116b 01D31CAD 		.ascii	"\001\323\034\255\021\315\036\317\334\263\3120G\3237"
 627      11CD1ECF 
 627      DCB3CA30 
ARM GAS  /tmp/ccpoXYVW.s 			page 50


 627      47D337
 628 117a 6E209F32 		.ascii	"n \2372,\336\230\3070x\031.\320\237\346\364]2@\302\\"
 628      2CDE98C7 
 628      3078192E 
 628      D09FE6F4 
 628      5D3240C2 
 629 118f 9684F47A 		.ascii	"\226\204\364z\323\314$\234\257\325^\233\001\343\310"
 629      D3CC249C 
 629      AFD55E9B 
 629      01E3C8
 630 119e C5D52ACC 		.ascii	"\305\325*\314\354{\371T\373\311\376Ys\372\3309\371&"
 630      EC7BF954 
 630      FBC9FE59 
 630      73FAD839 
 630      F926
 631 11b0 23CD2A8D 		.ascii	"#\315*\215\234\030>t\026\371\351\224r+\261\277\341\023"
 631      9C183E74 
 631      16F9E994 
 631      722BB1BF 
 631      E113
 632 11c2 182C72CF 		.ascii	"\030,r\317@\361Z\015&\311gF\375\245\032m+`\205f\"Z\367"
 632      40F15A0D 
 632      26C96746 
 632      FDA51A6D 
 632      2B608566 
 633 11d9 3555E51D 		.ascii	"5U\345\035\376\345\242\021d\226\361\3170D\376\305\000"
 633      FEE5A211 
 633      6496F1CF 
 633      3044FEC5 
 633      00
 634 11ea A26C5680 		.ascii	"\242lV\200\011\237s6\035{\216~\345\215\236\271\030\375"
 634      099F7336 
 634      1D7B8E7E 
 634      E58D9EB9 
 634      18FD
 635 11fc 7ED74AB6 		.ascii	"~\327J\266\272-\304_\335\256\304\032CU\263\353\261\257"
 635      BA2DC45F 
 635      DDAEC41A 
 635      4355B3EB 
 635      B1AF
 636 120e 9CC170CC 		.ascii	"\234\301p\314`j\225\303`\252>`\210\306k<7\03765\177"
 636      606A95C3 
 636      60AA3E60 
 636      88C66B3C 
 636      371F3635 
 637 1223 556A1D4A 		.ascii	"Uj\035J \005n\203\033\254\014\233\241u\254\255\236\261"
 637      20056E83 
 637      1BAC0C9B 
 637      A175ACAD 
 637      9EB1
 638 1235 C269B644 		.ascii	"\302i\266D\364 \362\265\001\344\254u\3708\007\037\033"
 638      F420F2B5 
 638      01E4AC75 
 638      F838071F 
 638      1B
 639 1246 02190756 		.ascii	"\002\031\007V\214@g\332P\202\360\347\005\362\230\266"
 639      8C4067DA 
ARM GAS  /tmp/ccpoXYVW.s 			page 51


 639      5082F0E7 
 639      05F298B6 
 640 1256 2D4DC8EC 		.ascii	"-M\310\354\021\250\222M1\221\237\037\360\272%\353\325"
 640      11A8924D 
 640      31919F1F 
 640      F0BA25EB 
 640      D5
 641 1267 80F5962C 		.ascii	"\200\365\226,\343\032a\252\024\332\203\223\026\254\322"
 641      E31A61AA 
 641      14DA8393 
 641      16ACD2
 642 1276 A8584023 		.ascii	"\250X@#\305Hn\275:]\033-\362/\000YI\315\375/wY\235\253"
 642      C5486EBD 
 642      3A5D1B2D 
 642      F22F0059 
 642      49CDFD2F 
 643 128e 822B6E1F 		.ascii	"\202+n\037\343#\354\340p\322\246u?\267\020\246\2454"
 643      E323ECE0 
 643      70D2A675 
 643      3FB710A6 
 643      A534
 644 12a0 9C10C909 		.ascii	"\234\020\311\011\\[\346\346\032\241\271[\271c7,Ts\315"
 644      5C5BE6E6 
 644      1AA1B95B 
 644      B963372C 
 644      5473CD
 645 12b3 CDCEC43E 		.ascii	"\315\316\304>\207\264H\332\324\276\336\305\273\331\200"
 645      87B448DA 
 645      D4BEDEC5 
 645      BBD980
 646 12c2 D89A5CBC 		.ascii	"\330\232\\\274\273K\267\210d\314\324\267\260\331\012"
 646      BB4BB788 
 646      64CCD4B7 
 646      B0D90A
 647 12d1 74494AA9 		.ascii	"tIJ\251\267r_\000QsG\033\353\327Qj\246\253\332?\202"
 647      B7725F00 
 647      5173471B 
 647      EBD7516A 
 647      A6ABDA3F 
 648 12e6 C468931B 		.ascii	"\304h\223\033o\210\225!<\342j\304\336h\351\236di\343"
 648      6F889521 
 648      3CE26AC4 
 648      DE68E99E 
 648      6469E3
 649 12f9 26204A05 		.ascii	"& J\005\257s\370\312\365&\221\036\234a!\322\227o\314"
 649      AF73F8CA 
 649      F526911E 
 649      9C6121D2 
 649      976FCC
 650 130c 28D23FB3 		.ascii	"(\322?\263\032L\023\345\341\275\256D\231\336\223\275"
 650      1A4C13E5 
 650      E1BDAE44 
 650      99DE93BD 
 651 131c E5D944D7 		.ascii	"\345\331D\327\332\230h\221\243\037\212\374\032\243&"
 651      DA986891 
 651      A31F8AFC 
 651      1AA326
ARM GAS  /tmp/ccpoXYVW.s 			page 52


 652 132b 16DE4834 		.ascii	"\026\336H4\361\226\225&\216\344\351\262\335\344B\023"
 652      F1969526 
 652      8EE4E9B2 
 652      DDE44213 
 653 133b 9DC9D2EB 		.ascii	"\235\311\322\353\3235!\350\002Zd\326\304\341\331\026"
 653      D33521E8 
 653      025A64D6 
 653      C4E1D916 
 654 134b 9AD89F59 		.ascii	"\232\330\237Y\023\2332j\342\350\001W\232X\2334\352\237"
 654      139B326A 
 654      E2E80157 
 654      9A589B34 
 654      EA9F
 655 135d 52E866CF 		.ascii	"R\350f\317\232\330l\243\211;2h\242\311\250\211\016\252"
 655      9AD86CA3 
 655      893B3268 
 655      A2C9A889 
 655      0EAA
 656 136f 89662B4D 		.ascii	"\211f+M\264\367\323e\273\326\205&>L\226\336\221\256"
 656      B4F7D365 
 656      BBD68526 
 656      3E4C96DE 
 656      91AE
 657 1381 0962797A 		.ascii	"\011byz\214e\302\362\032\233\341\036j`[\300z\2732\331"
 657      8C65C2F2 
 657      1A9BE11E 
 657      6A605BC0 
 657      7ABB32D9 
 658 1395 5D63574B 		.ascii	"]cWK\263\255u\334\241\326v\333ZSS13\255\326\373\266"
 658      B3AD75DC 
 658      A1D676DB 
 658      5A535331 
 658      33ADD6FB 
 659 13aa B5CE38B4 		.ascii	"\265\3168\264\265\303\266\326.\207Z\037\330\326:\344"
 659      B5C3B6D6 
 659      2E875A1F 
 659      D8D63AE4 
 660 13ba 506B67AA 		.ascii	"Pkg\252\026\335\321\331t\266\373?\337\322wtN\231\366"
 660      16DDD1D9 
 660      74B6FB3F 
 660      DFD27774 
 660      4E99F6
 661 13cd 10F326E8 		.ascii	"\020\363&\350\234\303n\244]\201\364\367\215\327n4O6"
 661      9CC36EA4 
 661      5D81F4F7 
 661      8DD76E34 
 661      4F36
 662 13df 929BCEDE 		.ascii	"\222\233\316\336^\241\206\364\327\340\"\337\022p\334"
 662      5EA186F4 
 662      D7E022DF 
 662      1270DC
 663 13ee D5D91A48 		.ascii	"\325\331\032H{Q\204vu\036Z@wunSo\313%\357;\005\256\366"
 663      7B518476 
 663      751E5A40 
 663      77756E53 
 663      6FCB25EF 
 664 1406 26C716C9 		.ascii	"&\307\026\311\3267\221\337\343\334\342^s\213\214H\317"
ARM GAS  /tmp/ccpoXYVW.s 			page 53


 664      D63791DF 
 664      E3DCE25E 
 664      738B8C48 
 664      CF
 665 1417 3988F42F 		.ascii	"9\210\364/\266\212\270\340Pk\277m\255\032\007\003;`"
 665      B68AB8E0 
 665      506BBF6D 
 665      AD1A0703 
 665      3B60
 666 1429 6F967EFB 		.ascii	"o\226~\373\266\332lk]u\240\360\240m\255\036\207Z\207"
 666      B6DA6C6B 
 666      5D75A0F0 
 666      A06DAD1E 
 666      875A87
 667 143c 6C6B4D77 		.ascii	"lkMw\240\360\260m\255:\207ZGlk\315r\250u\324\266\326"
 667      A0F0B06D 
 667      AD3A875A 
 667      476C6BCD 
 667      72A875D4 
 668 1452 EB0EB5DA 		.ascii	"\353\016\265\332mk5;H\243\303\266\326\034\207\266:\015"
 668      6D6B353B 
 668      48A3C3B6 
 668      D61C87B6 
 668      3A0D
 669 1464 E3CF9145 		.ascii	"\343\317\221E\245\361r\251(\032/\236\\T,M(\212\226\306"
 669      A5F172A9 
 669      281A2F9E 
 669      5C542C4D 
 669      288A96C6 
 670 1478 C6C5E289 		.ascii	"\306\305\342\211\"E\256\252x\246\0102\262R\024\253\210"
 670      2245AEAA 
 670      78A60832 
 670      B25214AB 
 670      88
 671 1489 96551543 		.ascii	"\226U\025C\241\322RI\254\034R\312]W.\225\307\345\311"
 671      A1D25249 
 671      AC1C52CA 
 671      5D572E95 
 671      C7E5C9
 672 149c 11741951 		.ascii	"\021t\031Qr\036\375\355\357\302\017sy\206\233\303\213"
 672      721EFDED 
 672      EFC20F73 
 672      79869BC3 
 672      8B
 673 14ad AA127251 		.ascii	"\252\022rQYl\\\321\370h\264H\224\313\357\255\210WH\367"
 673      596C5CD1 
 673      F868B448 
 673      94CBEFAD 
 673      885748F7 
 674 14c1 4AE2B858 		.ascii	"J\342\270X\321\310!\017\014\031\231\304L(\305\305R\011"
 674      D1C8210F 
 674      0C1999C4 
 674      4C28C5C5 
 674      5209
 675 14d3 60E62462 		.ascii	"`\346$b\177\224\"\312\375\236\350\201&\243qY\202\352"
 675      7F9422CA 
 675      FD9EE881 
ARM GAS  /tmp/ccpoXYVW.s 			page 54


 675      26A37159 
 675      82EA
 676 14e5 F9901D2F 		.ascii	"\371\220\035/)%U\025\321\210\322\2474R)\307'\304\212"
 676      29255515 
 676      D188D2A7 
 676      345229C7 
 676      27C48A
 677 14f8 25390FD3 		.ascii	"%9\017\323\010\007\310\377\322\005ve\\V\022E\017=\371"
 677      0807C8FF 
 677      D2057665 
 677      5C561245 
 677      0F3DF9
 678 150b F8C38F4F 		.ascii	"\370\303\217O\202\002\024\275OByF,\213\215\257\210("
 678      820214BD 
 678      4F427946 
 678      2C8B8DAF 
 678      8828
 679 151d B763D6CC 		.ascii	"\267c\326\314,\031\230\211U(P>\267\012\316\367\215\214"
 679      2C199889 
 679      5528503E 
 679      B70ACEF7 
 679      8D8C
 680 152f 28231D4A 		.ascii	"(#\035J\227\213@@\205T\024\001\001\210UeJD\231\\)%P"
 680      978B4040 
 680      85541401 
 680      01885565 
 680      4A44995C 
 681 1546 6B91885E 		.ascii	"k\221\210^?\200[\365WH\223\024?\342\204\257\362#9\361"
 681      3F805BF5 
 681      57489314 
 681      3FE284AF 
 681      F22339F1 
 682 155a A539A591 		.ascii	"\2459\245\221\022Y\222Fx\023\2272\011\340\203\345U\212"
 682      12599246 
 682      78139732 
 682      09E083E5 
 682      558A
 683 156c 3409B0F1 		.ascii	"4\011\260\361\371\001O\010\211\311\011\235\312~J\251"
 683      F9014F08 
 683      89C9099D 
 683      CA7E4AA9 
 684 157c 0C624D44 		.ascii	"\014bMD\376P%U\201\346\012\242\245\021\323-o\246\225"
 684      FE502555 
 684      81E60AA2 
 684      A511D32D 
 684      6FA695
 685 158f 88961623 		.ascii	"\210\226\026#\311\021\210\210\022J\302\345TF\020\377"
 685      C9118888 
 685      124AC2E5 
 685      544610FF 
 686 159f 70AA94A5 		.ascii	"p\252\224\245\011c<+1^^\031+\223\344D\321\243\017?\014"
 686      09633C2B 
 686      315E5E19 
 686      2B93E444 
 686      D1A30F3F 
 687 15b4 C575FA83 		.ascii	"\305u\372\203J\245\034\213G\024\254\253\021\303\301"
 687      4AA51C8B 
ARM GAS  /tmp/ccpoXYVW.s 			page 55


 687      4714ACAB 
 687      11C3C1
 688 15c3 6A88D851 		.ascii	"j\210\330Q\026\267\025\213\007\243\361\012\020\221\222"
 688      16B7158B 
 688      07A3F10A 
 688      109192
 689 15d2 870023F0 		.ascii	"\207\000#\360,\252L\372UvF\024\231p\1779bO\226\306\203"
 689      2CAA4CFA 
 689      55764614 
 689      99707F39 
 689      624F96C6 
 690 15e7 35441441 		.ascii	"5D\024A\036)\310\277\020\344\373\004\371~A~@\220\177"
 690      1E29C8BF 
 690      10E4FB04 
 690      F97E417E 
 690      40907F
 691 15fa E993870D 		.ascii	"\351\223\207\015\2054L(\223\3414\"P\031\201\326\202"
 691      85344C28 
 691      93E13422 
 691      501981D6 
 691      82
 692 160b 88F78992 		.ascii	"\210\367\211\222\014\347x\031\230\260?Z*\312H b\271"
 692      0CE77819 
 692      98B03F5A 
 692      2ACA4820 
 692      62B9
 693 161d 94AB2414 		.ascii	"\224\253$\024Q\001\311\007\021\331\017\200\310\010\003"
 693      5101C907 
 693      11D90F80 
 693      C80803
 694 162c 9083E2F8 		.ascii	"\220\203\342\370YP)\217\027K\370\272\244L\034\237\010"
 694      5950298F 
 694      174BF8BA 
 694      A44C1C9F 
 694      08
 695 163d 2AB25492 		.ascii	"*\262T\222\300\374\241L\240<1\036\036R\246\241\272\316"
 695      C0FCA14C 
 695      A03C311E 
 695      1E52A6A1 
 695      BACE
 696 164f BE5C3C19 		.ascii	"\276\\<\031\036\345J\223b\0120*\345LT\342\343\376\247"
 696      1EE54A93 
 696      620A302A 
 696      E54C54E2 
 696      E3FEA7
 697 1662 324F9A20 		.ascii	"2O\232 U(\345b\342\031(\"MD\031_e\244\252\257\256\365"
 697      5528E562 
 697      E2192822 
 697      4D44195F 
 697      65A4AAAF 
 698 1678 B258028C 		.ascii	"\262X\002\214\270\237\301\016\320\235Ped\242\030Sb\025"
 698      B89FC10E 
 698      D09D5065 
 698      64A21853 
 698      6215
 699 168a E3FB5446 		.ascii	"\343\373TF\000\025\333F\000g\341\206T)U\200\323\214"
 699      0015DB46 
ARM GAS  /tmp/ccpoXYVW.s 			page 56


 699      0067E186 
 699      54295580 
 699      D38C
 700 169c 8752609D 		.ascii	"\207R`\235\250|\037D\233X\206\345\0177+\343\361\262"
 700      A87C1F44 
 700      9B5886E5 
 700      0F372BE3 
 700      F1B2
 701 16ae 6039B128 		.ascii	"`9\261(8\307'VHrN9\266\210@)\252\343\315\200!L \304"
 701      38C72756 
 701      48724E39 
 701      B6884029 
 701      AAE3CD80 
 702 16c6 84218AA1 		.ascii	"\204!\212\241\353\010\3221\234H\240\010V\226\342\006"
 702      EB08D231 
 702      9C48A008 
 702      5696E206 
 703 16d6 82E5C4F4 		.ascii	"\202\345\304\364\372\302\031\004 E\225\010\362\276\274"
 703      FAC21904 
 703      20459508 
 703      F2BEBC
 704 16e5 F2CA647C 		.ascii	"\362\312d|\271\307\261uEJ(\250}tF1n\\UI\211$\347\243"
 704      B9C7B175 
 704      454A28A8 
 704      7D744631 
 704      6E5C5549 
 705 16fd CB08C927 		.ascii	"\313\010\311'\204\261C\205\261\303\204\261\303\205\261"
 705      84B14385 
 705      B1C384B1 
 705      C385B1
 706 170c 2384B123 		.ascii	"#\204\261#\205\211b\221k\310\342\311\025C\242\\\016"
 706      85896291 
 706      6BC8E2C9 
 706      1543A25C 
 706      0E
 707 171d 91365F99 		.ascii	"\2216_\231\017\327\303\"\322$)\012\216\335\007_$$\245"
 707      0FD7C322 
 707      D224290A 
 707      8EDD075F 
 707      2424A5
 708 1730 AA126547 		.ascii	"\252\022eG\220,*2\334Xd8\271\037\210\374\033\2223Xg"
 708      902C2A32 
 708      DC586438 
 708      B91F88FC 
 708      1B923358 
 709 1745 49ACA258 		.ascii	"I\254\242XPp\301\021z\301\374\010\246XL$$Y\311\217\226"
 709      5070C111 
 709      7AC1FC08 
 709      A6584C24 
 709      2459C98F 
 710 175a 8E8148F4 		.ascii	"\216\201H\364\024\330WU\342&\343\023\200\0025UD\245"
 710      14D85755 
 710      E226E313 
 710      80023555 
 710      44A5
 711 176c FEF826D2 		.ascii	"\376\370&\322\272n\011}H\245G dy\213\360@\206X\036\213"
 711      BA6E097D 
ARM GAS  /tmp/ccpoXYVW.s 			page 57


 711      48A54720 
 711      64798BF0 
 711      4086581E 
 712 1781 82F0BCD5 		.ascii	"\202\360\274\325\243\355b?'\235\302\015\321\322\261"
 712      A3ED623F 
 712      279DC20D 
 712      D1D2B1
 713 1790 A5C50FC3 		.ascii	"\245\305\017\303mEzD\216\227#z\362\010Y\017\225\225"
 713      6D457A44 
 713      8E97237A 
 713      F208590F 
 713      9595
 714 17a2 C5A3FD30 		.ascii	"\305\243\3750\321R9\":\376\214TQ@\236\375\027\326\373"
 714      D1523922 
 714      3AFE8C54 
 714      51409EFD 
 714      17D6FB
 715 17b5 63153105 		.ascii	"c\0251\005\012?\001B\302\205\0070`\217cSB\217\373\220"
 715      0A3F0142 
 715      C2850730 
 715      608F6353 
 715      428FFB90 
 716 17c9 5288D302 		.ascii	"R\210\323\002\222M!"
 716      924D21
 717 17d0 78335550 		.ascii	"x3UP\006\270\203<\031\305\332h\351\223\322\370\337\202"
 717      06B8833C 
 717      19C5DA68 
 717      E993D2F8 
 717      DF82
 718 17e2 298EC57C 		.ascii	")\216\305|\025\340\353Gbr\202\336\010\241\300\034+\227"
 718      15E0EB47 
 718      627282DE 
 718      08A1C01C 
 718      2B97
 719 17f4 68381B76 		.ascii	"h8\033v_2\234\341,\246\366\2512I\252\314\307\331'\245"
 719      5F329CE1 
 719      2CA6F6A9 
 719      3249AACC 
 719      C7D927A5 
 720 1808 32494C48 		.ascii	"2ILHy\370\342\241b\270.\011\240\356e\230\037\011\301"
 720      79F8E2A1 
 720      62B82E09 
 720      A0EE6598 
 720      1F09C1
 721 181b 575E390C 		.ascii	"W^9\014\036E\020\246TNB1\311\347\243\266&SG\277\016"
 721      1E4510A6 
 721      544E4231 
 721      C9E7A3B6 
 721      265347BF 
 722 1830 6EA7AE83 		.ascii	"n\247\256\2032\361\321\034\031\207\316\200\214\303\227"
 722      32F1D11C 
 722      1987CE80 
 722      8CC397
 723 183f 4CC3974C 		.ascii	"L\303\227L\302W\010\356V\3112D\221\200\214*\3354!&+"
 723      C25708EE 
 723      56C93244 
 723      91808C2A 
ARM GAS  /tmp/ccpoXYVW.s 			page 58


 723      DD342126 
 724 1854 5522B81F 		.ascii	"U\"\270\037\320.\353\021\344f\000\266x\320\317t\217"
 724      D02EEB11 
 724      E46600B6 
 724      78D0CF74 
 724      8F
 725 1865 7438A65B 		.ascii	"t8\246[\301\011\012q[8\243\256\"\027\316\305R\231\""
 725      C1090A71 
 725      5B38A3AE 
 725      2217CEC5 
 725      529922
 726 1878 4286D800 		.ascii	"B\206\330\000z\202r9\250\204(\347\301\251LL(\2506\334"
 726      7A827239 
 726      A88428E7 
 726      C1A94C4C 
 726      28A836DC 
 727 188c 428DF4A5 		.ascii	"B\215\364\245L\027K\343\252\306\223`f\274\023\252\024"
 727      4C174BE3 
 727      AAC69360 
 727      66BC13AA 
 727      14
 728 189d 2B625114 		.ascii	"+bQ\024\273|\305\343\306\017\367f\222\250\003(P\312"
 728      BB7CC5E3 
 728      C60FF766 
 728      92A80328 
 728      50CA
 729 18af 2351E8D4 		.ascii	"#Q\350\324\307\311\242\022\213\303x\"(+\321\012`:'^"
 729      C7C9A212 
 729      8BC37822 
 729      282BD10A 
 729      603A275E 
 730 18c3 5202AE28 		.ascii	"R\002\256((\345B\2644H\3157\027\251#\012\232\362\243"
 730      28E542B4 
 730      3448CD37 
 730      17A9230A 
 730      9AF2A3
 731 18d6 801FC0AE 		.ascii	"\200\037\300\256\012\367D\271\030\342`Pw\343JQQ$\271"
 731      0AF744B9 
 731      18E26050 
 731      77E34A51 
 731      5124B9
 732 18e9 025C2597 		.ascii	"\002\\%\227F\205a\005C\344x\261\250\210C\364\033w\375"
 732      46856105 
 732      43E478B1 
 732      A88843F4 
 732      1B77FD
 733 18fc 9A3852F8 		.ascii	"\2328R\370\241'\036K\334\023\246\370\341(\262`\240#"
 733      A1271E4B 
 733      DC13A6F8 
 733      E128B260 
 733      A023
 734 190e 5C02461C 		.ascii	"\\\002F\034F&\300\351\030\303\207\272\251Bbh\030\005"
 734      4626C0E9 
 734      18C387BA 
 734      A9426268 
 734      1805
 735 1920 CF64CD11 		.ascii	"\317d\315\021?5\327\324\0159,V\024\303\005D=\024$\022"
ARM GAS  /tmp/ccpoXYVW.s 			page 59


 735      3F35D7D4 
 735      0D392C56 
 735      14C30544 
 735      3D142412 
 736 1934 5C7F6C7E 		.ascii	"\\\177l~\217J\312\023`0rL\231\374\364u\372\235\247\244"
 736      8F4ACA13 
 736      6030724C 
 736      99FCF475 
 736      FA9DA7A4 
 737 1948 B292A7FF 		.ascii	"\262\222\247\377\017:\011~\030"
 737      0F3A097E 
 737      18
 738              		.text
 739              		.section	.gnu.lto_.symtab.28a2a932c1f3b045,"",%progbits
 740 0000 70617474 		.ascii	"patterndyn\000\000\000\000\000\000\000\000\000\000\000"
 740      65726E64 
 740      796E0000 
 740      00000000 
 740      00000000 
 741 0015 00890200 		.ascii	"\000\211\002\000\000testdyn1\000\000\000\000\000\000"
 741      00746573 
 741      7464796E 
 741      31000000 
 741      000000
 742 0028 00000000 		.ascii	"\000\000\000\000\000\000\237\002\000\000testdyn2\000"
 742      00009F02 
 742      00007465 
 742      73746479 
 742      6E3200
 743 003b 00000000 		.ascii	"\000\000\000\000\000\000\000\000\000\000\000\252\002"
 743      00000000 
 743      000000AA 
 743      02
 744 0048 00007465 		.ascii	"\000\000testdyn3\000\000\000\000\000\000\000\000\000"
 744      73746479 
 744      6E330000 
 744      00000000 
 744      000000
 745 005b 000000B5 		.ascii	"\000\000\000\265\002\000\000ch\000\000\002\000\000\000"
 745      02000063 
 745      68000002 
 745      000000
 746 006a 00000000 		.ascii	"\000\000\000\000\000\000-\002\000\000threads\000\000"
 746      00002D02 
 746      00007468 
 746      72656164 
 746      730000
 747 007d 02000000 		.ascii	"\002\000\000\000\000\000\000\000\000\000\202\002\000"
 747      00000000 
 747      00008202 
 747      00
 748 008a 00746573 		.ascii	"\000test\000\000\002\000\000\000\000\000\000\000\000"
 748      74000002 
 748      00000000 
 748      00000000 
 749 009a 00290200 		.ascii	"\000)\002\000\000wa\000\000\002\000\000\000\000\000"
 749      00776100 
ARM GAS  /tmp/ccpoXYVW.s 			page 60


 749      00020000 
 749      000000
 750 00a9 00000000 		.ascii	"\000\000\000\000\205\002\000\000_test_assert\000\000"
 750      85020000 
 750      5F746573 
 750      745F6173 
 750      73657274 
 751 00bf 02000000 		.ascii	"\002\000\000\000\000\000\000\000\000\000\306\001\000"
 751      00000000 
 751      0000C601 
 751      00
 752 00cc 00636848 		.ascii	"\000chHeapStatus\000\000\002\000\000\000\000\000\000"
 752      65617053 
 752      74617475 
 752      73000002 
 752      00000000 
 753 00e2 000000CB 		.ascii	"\000\000\000\313\001\000\000_test_assert_sequence\000"
 753      0100005F 
 753      74657374 
 753      5F617373 
 753      6572745F 
 754 00ff 00020000 		.ascii	"\000\002\000\000\000\000\000\000\000\000\000\321\001"
 754      00000000 
 754      000000D1 
 754      01
 755 010c 00007465 		.ascii	"\000\000test_wait_threads\000\000\002\000\000\000\000"
 755      73745F77 
 755      6169745F 
 755      74687265 
 755      61647300 
 756 0126 00000000 		.ascii	"\000\000\000\000\000\327\001\000\000chHeapFree\000\000"
 756      00D70100 
 756      00636848 
 756      65617046 
 756      72656500 
 757 013b 02000000 		.ascii	"\002\000\000\000\000\000\000\000\000\000\331\001\000"
 757      00000000 
 757      0000D901 
 757      00
 758 0148 00636854 		.ascii	"\000chThdCreateFromHeap\000\000\002\000\000\000\000"
 758      68644372 
 758      65617465 
 758      46726F6D 
 758      48656170 
 759 0163 00000000 		.ascii	"\000\000\000\000\000\335\001\000\000chHeapAlloc\000"
 759      00DD0100 
 759      00636848 
 759      65617041 
 759      6C6C6F63 
 760 0178 00020000 		.ascii	"\000\002\000\000\000\000\000\000\000\000\000\350\001"
 760      00000000 
 760      000000E8 
 760      01
 761 0185 00007465 		.ascii	"\000\000test_emit_token\000\000\002\000\000\000\000"
 761      73745F65 
 761      6D69745F 
 761      746F6B65 
ARM GAS  /tmp/ccpoXYVW.s 			page 61


 761      6E000002 
 762 019d 00000000 		.ascii	"\000\000\000\000\000\355\001\000\000chHeapObjectIni"
 762      00ED0100 
 762      00636848 
 762      6561704F 
 762      626A6563 
 763 01b5 74000002 		.ascii	"t\000\000\002\000\000\000\000\000\000\000\000\000\361"
 763      00000000 
 763      00000000 
 763      00F1
 764 01c3 01000063 		.ascii	"\001\000\000chPoolAlloc\000\000\002\000\000\000\000"
 764      68506F6F 
 764      6C416C6C 
 764      6F630000 
 764      02000000 
 765 01d8 00000000 		.ascii	"\000\000\000\000\000\367\001\000\000chThdCreateFrom"
 765      00F70100 
 765      00636854 
 765      68644372 
 765      65617465 
 766 01f0 4D656D6F 		.ascii	"MemoryPool\000\000\002\000\000\000\000\000\000\000\000"
 766      7279506F 
 766      6F6C0000 
 766      02000000 
 766      00000000 
 767 0205 00FB0100 		.ascii	"\000\373\001\000\000chPoolFree\000\000\002\000\000\000"
 767      00636850 
 767      6F6F6C46 
 767      72656500 
 767      00020000 
 768 021a 00000000 		.ascii	"\000\000\000\000\000\000\002\002\000\000chPoolObjec"
 768      00000202 
 768      00006368 
 768      506F6F6C 
 768      4F626A65 
 769 022f 74496E69 		.ascii	"tInit\000\000\002\000\000\000\000\000\000\000\000\000"
 769      74000002 
 769      00000000 
 769      00000000 
 769      00
 770 0240 07020000 		.ascii	"\007\002\000\000chRegNextThread\000\000\002\000\000"
 770      63685265 
 770      674E6578 
 770      74546872 
 770      65616400 
 771 0258 00000000 		.ascii	"\000\000\000\000\000\000\000\015\002\000\000chRegFi"
 771      0000000D 
 771      02000063 
 771      68526567 
 771      4669
 772 026a 72737454 		.ascii	"rstThread\000\000\002\000\000\000\000\000\000\000\000"
 772      68726561 
 772      64000002 
 772      00000000 
 772      00000000 
 773 027e 00110200 		.ascii	"\000\021\002\000\000chThdSleep\000\000\002\000\000\000"
 773      00636854 
ARM GAS  /tmp/ccpoXYVW.s 			page 62


 773      6864536C 
 773      65657000 
 773      00020000 
 774 0293 00000000 		.ascii	"\000\000\000\000\000\000\024\002\000\000chThdReleas"
 774      00001402 
 774      00006368 
 774      54686452 
 774      656C6561 
 775 02a8 65000002 		.ascii	"e\000\000\002\000\000\000\000\000\000\000\000\000!\002"
 775      00000000 
 775      00000000 
 775      002102
 776 02b7 00006368 		.ascii	"\000\000chThdAddRef\000\000\002\000\000\000\000\000"
 776      54686441 
 776      64645265 
 776      66000002 
 776      00000000 
 777 02cc 00000000 		.ascii	"\000\000\000\000%\002\000\000"
 777      25020000 
 778              		.text
 779              		.section	.gnu.lto_.opts,"",%progbits
 780 0000 272D6D63 		.ascii	"'-mcpu=cortex-m3' '-mno-thumb-interwork' '-mthumb' "
 780      70753D63 
 780      6F727465 
 780      782D6D33 
 780      2720272D 
 781 0033 272D4F32 		.ascii	"'-O2' '-fomit-frame-pointer' '-falign-functions=16'"
 781      2720272D 
 781      666F6D69 
 781      742D6672 
 781      616D652D 
 782 0066 20272D66 		.ascii	" '-ffunction-sections' '-fdata-sections' '-fno-comm"
 782      66756E63 
 782      74696F6E 
 782      2D736563 
 782      74696F6E 
 783 0099 6F6E2720 		.ascii	"on' '-flto'\000"
 783      272D666C 
 783      746F2700 
 784              		.text
 785              		.section	.text.dyn1_execute,"ax",%progbits
 786              		.align	2
 787              		.p2align 4,,15
 788              		.thumb
 789              		.thumb_func
 790              		.type	dyn1_execute, %function
 791              	dyn1_execute:
 792              		@ args = 0, pretend = 0, frame = 8
 793              		@ frame_needed = 0, uses_anonymous_args = 0
 794 0000 70B5     		push	{r4, r5, r6, lr}
 795 0002 334B     		ldr	r3, .L12
 796 0004 84B0     		sub	sp, sp, #16
 797 0006 9B69     		ldr	r3, [r3, #24]
 798 0008 03A9     		add	r1, sp, #12
 799 000a 3248     		ldr	r0, .L12+4
 800 000c 9D68     		ldr	r5, [r3, #8]
 801 000e FFF7FEFF 		bl	chHeapStatus
ARM GAS  /tmp/ccpoXYVW.s 			page 63


 802 0012 314B     		ldr	r3, .L12+8
 803 0014 6A1E     		subs	r2, r5, #1
 804 0016 0093     		str	r3, [sp]
 805 0018 4FF4A471 		mov	r1, #328
 806 001c 2F4B     		ldr	r3, .L12+12
 807 001e 2D48     		ldr	r0, .L12+4
 808 0020 FFF7FEFF 		bl	chThdCreateFromHeap
 809 0024 2E4C     		ldr	r4, .L12+16
 810 0026 2F4B     		ldr	r3, .L12+20
 811 0028 AA1E     		subs	r2, r5, #2
 812 002a 2060     		str	r0, [r4]
 813 002c 0093     		str	r3, [sp]
 814 002e 4FF4A471 		mov	r1, #328
 815 0032 2A4B     		ldr	r3, .L12+12
 816 0034 2748     		ldr	r0, .L12+4
 817 0036 FFF7FEFF 		bl	chThdCreateFromHeap
 818 003a 02A9     		add	r1, sp, #8
 819 003c 6060     		str	r0, [r4, #4]
 820 003e 2548     		ldr	r0, .L12+4
 821 0040 FFF7FEFF 		bl	chHeapStatus
 822 0044 0299     		ldr	r1, [sp, #8]
 823 0046 2348     		ldr	r0, .L12+4
 824 0048 FFF7FEFF 		bl	chHeapAlloc
 825 004c 264B     		ldr	r3, .L12+24
 826 004e 4FF4A471 		mov	r1, #328
 827 0052 0646     		mov	r6, r0
 828 0054 EA1E     		subs	r2, r5, #3
 829 0056 0093     		str	r3, [sp]
 830 0058 1E48     		ldr	r0, .L12+4
 831 005a 204B     		ldr	r3, .L12+12
 832 005c FFF7FEFF 		bl	chThdCreateFromHeap
 833 0060 A060     		str	r0, [r4, #8]
 834 0062 3046     		mov	r0, r6
 835 0064 FFF7FEFF 		bl	chHeapFree
 836 0068 2168     		ldr	r1, [r4]
 837 006a 21B1     		cbz	r1, .L2
 838 006c 6168     		ldr	r1, [r4, #4]
 839 006e 11B1     		cbz	r1, .L2
 840 0070 A168     		ldr	r1, [r4, #8]
 841 0072 19B3     		cbz	r1, .L10
 842 0074 0021     		movs	r1, #0
 843              	.L2:
 844 0076 0120     		movs	r0, #1
 845 0078 FFF7FEFF 		bl	_test_assert
 846 007c 08B1     		cbz	r0, .L11
 847              	.L1:
 848 007e 04B0     		add	sp, sp, #16
 849              		@ sp needed
 850 0080 70BD     		pop	{r4, r5, r6, pc}
 851              	.L11:
 852 0082 FFF7FEFF 		bl	test_wait_threads
 853 0086 0220     		movs	r0, #2
 854 0088 1849     		ldr	r1, .L12+28
 855 008a FFF7FEFF 		bl	_test_assert_sequence
 856 008e 0028     		cmp	r0, #0
 857 0090 F5D1     		bne	.L1
 858 0092 02A9     		add	r1, sp, #8
ARM GAS  /tmp/ccpoXYVW.s 			page 64


 859 0094 0F48     		ldr	r0, .L12+4
 860 0096 FFF7FEFF 		bl	chHeapStatus
 861 009a 421E     		subs	r2, r0, #1
 862 009c 5142     		rsbs	r1, r2, #0
 863 009e 5141     		adcs	r1, r1, r2
 864 00a0 0320     		movs	r0, #3
 865 00a2 FFF7FEFF 		bl	_test_assert
 866 00a6 0028     		cmp	r0, #0
 867 00a8 E9D1     		bne	.L1
 868 00aa 0299     		ldr	r1, [sp, #8]
 869 00ac 039B     		ldr	r3, [sp, #12]
 870 00ae 0420     		movs	r0, #4
 871 00b0 CB1A     		subs	r3, r1, r3
 872 00b2 5942     		rsbs	r1, r3, #0
 873 00b4 5941     		adcs	r1, r1, r3
 874 00b6 FFF7FEFF 		bl	_test_assert
 875 00ba E0E7     		b	.L1
 876              	.L10:
 877 00bc E368     		ldr	r3, [r4, #12]
 878 00be 002B     		cmp	r3, #0
 879 00c0 D9D1     		bne	.L2
 880 00c2 2169     		ldr	r1, [r4, #16]
 881 00c4 D1F10101 		rsbs	r1, r1, #1
 882 00c8 38BF     		it	cc
 883 00ca 0021     		movcc	r1, #0
 884 00cc D3E7     		b	.L2
 885              	.L13:
 886 00ce 00BF     		.align	2
 887              	.L12:
 888 00d0 00000000 		.word	ch
 889 00d4 00000000 		.word	.LANCHOR0
 890 00d8 00000000 		.word	.LC0
 891 00dc 00000000 		.word	thread
 892 00e0 00000000 		.word	threads
 893 00e4 04000000 		.word	.LC1
 894 00e8 08000000 		.word	.LC2
 895 00ec 0C000000 		.word	.LC3
 896              		.size	dyn1_execute, .-dyn1_execute
 897              		.section	.text.thread,"ax",%progbits
 898              		.align	2
 899              		.p2align 4,,15
 900              		.thumb
 901              		.thumb_func
 902              		.type	thread, %function
 903              	thread:
 904              		@ args = 0, pretend = 0, frame = 0
 905              		@ frame_needed = 0, uses_anonymous_args = 0
 906 0000 08B5     		push	{r3, lr}
 907 0002 0078     		ldrb	r0, [r0]	@ zero_extendqisi2
 908 0004 FFF7FEFF 		bl	test_emit_token
 909 0008 0020     		movs	r0, #0
 910 000a 08BD     		pop	{r3, pc}
 911              		.size	thread, .-thread
 912 000c AFF30080 		.section	.text.dyn1_setup,"ax",%progbits
 913              		.align	2
 914              		.p2align 4,,15
 915              		.thumb
ARM GAS  /tmp/ccpoXYVW.s 			page 65


 916              		.thumb_func
 917              		.type	dyn1_setup, %function
 918              	dyn1_setup:
 919              		@ args = 0, pretend = 0, frame = 0
 920              		@ frame_needed = 0, uses_anonymous_args = 0
 921              		@ link register save eliminated.
 922 0000 0248     		ldr	r0, .L16
 923 0002 0349     		ldr	r1, .L16+4
 924 0004 4FF4CD62 		mov	r2, #1640
 925 0008 FFF7FEBF 		b	chHeapObjectInit
 926              	.L17:
 927              		.align	2
 928              	.L16:
 929 000c 00000000 		.word	.LANCHOR0
 930 0010 00000000 		.word	test
 931              		.size	dyn1_setup, .-dyn1_setup
 932 0014 AFF30080 		.section	.text.dyn3_setup,"ax",%progbits
 932      AFF30080 
 932      AFF30080 
 933              		.align	2
 934              		.p2align 4,,15
 935              		.thumb
 936              		.thumb_func
 937              		.type	dyn3_setup, %function
 938              	dyn3_setup:
 939              		@ args = 0, pretend = 0, frame = 0
 940              		@ frame_needed = 0, uses_anonymous_args = 0
 941              		@ link register save eliminated.
 942 0000 0248     		ldr	r0, .L19
 943 0002 0349     		ldr	r1, .L19+4
 944 0004 4FF4CD62 		mov	r2, #1640
 945 0008 FFF7FEBF 		b	chHeapObjectInit
 946              	.L20:
 947              		.align	2
 948              	.L19:
 949 000c 00000000 		.word	.LANCHOR0
 950 0010 00000000 		.word	test
 951              		.size	dyn3_setup, .-dyn3_setup
 952 0014 AFF30080 		.section	.text.dyn2_execute,"ax",%progbits
 952      AFF30080 
 952      AFF30080 
 953              		.align	2
 954              		.p2align 4,,15
 955              		.thumb
 956              		.thumb_func
 957              		.type	dyn2_execute, %function
 958              	dyn2_execute:
 959              		@ args = 0, pretend = 0, frame = 0
 960              		@ frame_needed = 0, uses_anonymous_args = 0
 961 0000 324B     		ldr	r3, .L35
 962 0002 70B5     		push	{r4, r5, r6, lr}
 963 0004 9B69     		ldr	r3, [r3, #24]
 964 0006 324C     		ldr	r4, .L35+4
 965 0008 9D68     		ldr	r5, [r3, #8]
 966 000a 04F11006 		add	r6, r4, #16
 967              	.L23:
 968 000e 54F8041F 		ldr	r1, [r4, #4]!
ARM GAS  /tmp/ccpoXYVW.s 			page 66


 969 0012 3048     		ldr	r0, .L35+8
 970 0014 FFF7FEFF 		bl	chPoolFree
 971 0018 B442     		cmp	r4, r6
 972 001a F8D1     		bne	.L23
 973 001c 691E     		subs	r1, r5, #1
 974 001e 2E4A     		ldr	r2, .L35+12
 975 0020 2E4B     		ldr	r3, .L35+16
 976 0022 2C48     		ldr	r0, .L35+8
 977 0024 FFF7FEFF 		bl	chThdCreateFromMemoryPool
 978 0028 2D4C     		ldr	r4, .L35+20
 979 002a A91E     		subs	r1, r5, #2
 980 002c 2060     		str	r0, [r4]
 981 002e 2A4A     		ldr	r2, .L35+12
 982 0030 2C4B     		ldr	r3, .L35+24
 983 0032 2848     		ldr	r0, .L35+8
 984 0034 FFF7FEFF 		bl	chThdCreateFromMemoryPool
 985 0038 E91E     		subs	r1, r5, #3
 986 003a 6060     		str	r0, [r4, #4]
 987 003c 264A     		ldr	r2, .L35+12
 988 003e 2A4B     		ldr	r3, .L35+28
 989 0040 2448     		ldr	r0, .L35+8
 990 0042 FFF7FEFF 		bl	chThdCreateFromMemoryPool
 991 0046 291F     		subs	r1, r5, #4
 992 0048 A060     		str	r0, [r4, #8]
 993 004a 234A     		ldr	r2, .L35+12
 994 004c 274B     		ldr	r3, .L35+32
 995 004e 2148     		ldr	r0, .L35+8
 996 0050 FFF7FEFF 		bl	chThdCreateFromMemoryPool
 997 0054 691F     		subs	r1, r5, #5
 998 0056 E060     		str	r0, [r4, #12]
 999 0058 1F4A     		ldr	r2, .L35+12
 1000 005a 1E48     		ldr	r0, .L35+8
 1001 005c 244B     		ldr	r3, .L35+36
 1002 005e FFF7FEFF 		bl	chThdCreateFromMemoryPool
 1003 0062 2168     		ldr	r1, [r4]
 1004 0064 2061     		str	r0, [r4, #16]
 1005 0066 49B1     		cbz	r1, .L24
 1006 0068 6168     		ldr	r1, [r4, #4]
 1007 006a 39B1     		cbz	r1, .L24
 1008 006c A168     		ldr	r1, [r4, #8]
 1009 006e 29B1     		cbz	r1, .L24
 1010 0070 E168     		ldr	r1, [r4, #12]
 1011 0072 19B1     		cbz	r1, .L24
 1012 0074 D0F10101 		rsbs	r1, r0, #1
 1013 0078 38BF     		it	cc
 1014 007a 0021     		movcc	r1, #0
 1015              	.L24:
 1016 007c 0120     		movs	r0, #1
 1017 007e FFF7FEFF 		bl	_test_assert
 1018 0082 00B1     		cbz	r0, .L34
 1019              	.L21:
 1020 0084 70BD     		pop	{r4, r5, r6, pc}
 1021              	.L34:
 1022 0086 FFF7FEFF 		bl	test_wait_threads
 1023 008a 0220     		movs	r0, #2
 1024 008c 1949     		ldr	r1, .L35+40
 1025 008e FFF7FEFF 		bl	_test_assert_sequence
ARM GAS  /tmp/ccpoXYVW.s 			page 67


 1026 0092 0028     		cmp	r0, #0
 1027 0094 F6D1     		bne	.L21
 1028 0096 0424     		movs	r4, #4
 1029              	.L29:
 1030 0098 0E48     		ldr	r0, .L35+8
 1031 009a FFF7FEFF 		bl	chPoolAlloc
 1032 009e 011C     		adds	r1, r0, #0
 1033 00a0 18BF     		it	ne
 1034 00a2 0121     		movne	r1, #1
 1035 00a4 0320     		movs	r0, #3
 1036 00a6 FFF7FEFF 		bl	_test_assert
 1037 00aa 0028     		cmp	r0, #0
 1038 00ac EAD1     		bne	.L21
 1039 00ae 013C     		subs	r4, r4, #1
 1040 00b0 F2D1     		bne	.L29
 1041 00b2 0848     		ldr	r0, .L35+8
 1042 00b4 FFF7FEFF 		bl	chPoolAlloc
 1043 00b8 BDE87040 		pop	{r4, r5, r6, lr}
 1044 00bc D0F10101 		rsbs	r1, r0, #1
 1045 00c0 38BF     		it	cc
 1046 00c2 0021     		movcc	r1, #0
 1047 00c4 0420     		movs	r0, #4
 1048 00c6 FFF7FEBF 		b	_test_assert
 1049              	.L36:
 1050 00ca 00BF     		.align	2
 1051              	.L35:
 1052 00cc 00000000 		.word	ch
 1053 00d0 FCFFFFFF 		.word	wa-4
 1054 00d4 00000000 		.word	.LANCHOR1
 1055 00d8 00000000 		.word	thread
 1056 00dc 00000000 		.word	.LC0
 1057 00e0 00000000 		.word	threads
 1058 00e4 04000000 		.word	.LC1
 1059 00e8 08000000 		.word	.LC2
 1060 00ec 10000000 		.word	.LC4
 1061 00f0 14000000 		.word	.LC5
 1062 00f4 18000000 		.word	.LC6
 1063              		.size	dyn2_execute, .-dyn2_execute
 1064 00f8 AFF30080 		.section	.text.dyn2_setup,"ax",%progbits
 1064      AFF30080 
 1065              		.align	2
 1066              		.p2align 4,,15
 1067              		.thumb
 1068              		.thumb_func
 1069              		.type	dyn2_setup, %function
 1070              	dyn2_setup:
 1071              		@ args = 0, pretend = 0, frame = 0
 1072              		@ frame_needed = 0, uses_anonymous_args = 0
 1073              		@ link register save eliminated.
 1074 0000 0248     		ldr	r0, .L38
 1075 0002 4FF4A471 		mov	r1, #328
 1076 0006 0022     		movs	r2, #0
 1077 0008 FFF7FEBF 		b	chPoolObjectInit
 1078              	.L39:
 1079              		.align	2
 1080              	.L38:
 1081 000c 00000000 		.word	.LANCHOR1
ARM GAS  /tmp/ccpoXYVW.s 			page 68


 1082              		.size	dyn2_setup, .-dyn2_setup
 1083              		.section	.text.regfind,"ax",%progbits
 1084              		.align	2
 1085              		.p2align 4,,15
 1086              		.thumb
 1087              		.thumb_func
 1088              		.type	regfind, %function
 1089              	regfind:
 1090              		@ args = 0, pretend = 0, frame = 0
 1091              		@ frame_needed = 0, uses_anonymous_args = 0
 1092 0000 38B5     		push	{r3, r4, r5, lr}
 1093 0002 0546     		mov	r5, r0
 1094 0004 FFF7FEFF 		bl	chRegFirstThread
 1095 0008 0024     		movs	r4, #0
 1096 000a 0346     		mov	r3, r0
 1097              	.L42:
 1098 000c 1846     		mov	r0, r3
 1099 000e AB42     		cmp	r3, r5
 1100 0010 08BF     		it	eq
 1101 0012 44F00104 		orreq	r4, r4, #1
 1102 0016 FFF7FEFF 		bl	chRegNextThread
 1103 001a 0346     		mov	r3, r0
 1104 001c 0028     		cmp	r0, #0
 1105 001e F5D1     		bne	.L42
 1106 0020 2046     		mov	r0, r4
 1107 0022 38BD     		pop	{r3, r4, r5, pc}
 1108              		.size	regfind, .-regfind
 1109 0024 AFF30080 		.section	.text.dyn3_execute,"ax",%progbits
 1109      AFF30080 
 1109      AFF30080 
 1110              		.align	2
 1111              		.p2align 4,,15
 1112              		.thumb
 1113              		.thumb_func
 1114              		.type	dyn3_execute, %function
 1115              	dyn3_execute:
 1116              		@ args = 0, pretend = 0, frame = 0
 1117              		@ frame_needed = 0, uses_anonymous_args = 0
 1118 0000 10B5     		push	{r4, lr}
 1119 0002 494A     		ldr	r2, .L48
 1120 0004 494B     		ldr	r3, .L48+4
 1121 0006 9269     		ldr	r2, [r2, #24]
 1122 0008 82B0     		sub	sp, sp, #8
 1123 000a 9268     		ldr	r2, [r2, #8]
 1124 000c 4FF4A471 		mov	r1, #328
 1125 0010 0093     		str	r3, [sp]
 1126 0012 4748     		ldr	r0, .L48+8
 1127 0014 013A     		subs	r2, r2, #1
 1128 0016 474B     		ldr	r3, .L48+12
 1129 0018 FFF7FEFF 		bl	chThdCreateFromHeap
 1130 001c 817F     		ldrb	r1, [r0, #30]	@ zero_extendqisi2
 1131 001e 0446     		mov	r4, r0
 1132 0020 0120     		movs	r0, #1
 1133 0022 B1EB000C 		subs	ip, r1, r0
 1134 0026 DCF10001 		rsbs	r1, ip, #0
 1135 002a 51EB0C01 		adcs	r1, r1, ip
 1136 002e FFF7FEFF 		bl	_test_assert
ARM GAS  /tmp/ccpoXYVW.s 			page 69


 1137 0032 08B1     		cbz	r0, .L47
 1138              	.L43:
 1139 0034 02B0     		add	sp, sp, #8
 1140              		@ sp needed
 1141 0036 10BD     		pop	{r4, pc}
 1142              	.L47:
 1143 0038 2046     		mov	r0, r4
 1144 003a FFF7FEFF 		bl	chThdAddRef
 1145 003e A17F     		ldrb	r1, [r4, #30]	@ zero_extendqisi2
 1146 0040 0220     		movs	r0, #2
 1147 0042 B1EB000E 		subs	lr, r1, r0
 1148 0046 DEF10001 		rsbs	r1, lr, #0
 1149 004a 51EB0E01 		adcs	r1, r1, lr
 1150 004e FFF7FEFF 		bl	_test_assert
 1151 0052 0028     		cmp	r0, #0
 1152 0054 EED1     		bne	.L43
 1153 0056 2046     		mov	r0, r4
 1154 0058 FFF7FEFF 		bl	chThdRelease
 1155 005c A17F     		ldrb	r1, [r4, #30]	@ zero_extendqisi2
 1156 005e 0320     		movs	r0, #3
 1157 0060 4A1E     		subs	r2, r1, #1
 1158 0062 5142     		rsbs	r1, r2, #0
 1159 0064 5141     		adcs	r1, r1, r2
 1160 0066 FFF7FEFF 		bl	_test_assert
 1161 006a 0028     		cmp	r0, #0
 1162 006c E2D1     		bne	.L43
 1163 006e 2046     		mov	r0, r4
 1164 0070 FFF7FEFF 		bl	regfind
 1165 0074 0146     		mov	r1, r0
 1166 0076 0420     		movs	r0, #4
 1167 0078 FFF7FEFF 		bl	_test_assert
 1168 007c 0028     		cmp	r0, #0
 1169 007e D9D1     		bne	.L43
 1170 0080 2046     		mov	r0, r4
 1171 0082 FFF7FEFF 		bl	regfind
 1172 0086 0146     		mov	r1, r0
 1173 0088 0520     		movs	r0, #5
 1174 008a FFF7FEFF 		bl	_test_assert
 1175 008e 0028     		cmp	r0, #0
 1176 0090 D0D1     		bne	.L43
 1177 0092 2046     		mov	r0, r4
 1178 0094 FFF7FEFF 		bl	chThdRelease
 1179 0098 A17F     		ldrb	r1, [r4, #30]	@ zero_extendqisi2
 1180 009a 0620     		movs	r0, #6
 1181 009c D1F10101 		rsbs	r1, r1, #1
 1182 00a0 38BF     		it	cc
 1183 00a2 0021     		movcc	r1, #0
 1184 00a4 FFF7FEFF 		bl	_test_assert
 1185 00a8 0028     		cmp	r0, #0
 1186 00aa C3D1     		bne	.L43
 1187 00ac 217F     		ldrb	r1, [r4, #28]	@ zero_extendqisi2
 1188 00ae 0720     		movs	r0, #7
 1189 00b0 D1F10101 		rsbs	r1, r1, #1
 1190 00b4 38BF     		it	cc
 1191 00b6 0021     		movcc	r1, #0
 1192 00b8 FFF7FEFF 		bl	_test_assert
 1193 00bc 0028     		cmp	r0, #0
ARM GAS  /tmp/ccpoXYVW.s 			page 70


 1194 00be B9D1     		bne	.L43
 1195 00c0 2046     		mov	r0, r4
 1196 00c2 FFF7FEFF 		bl	regfind
 1197 00c6 0146     		mov	r1, r0
 1198 00c8 0820     		movs	r0, #8
 1199 00ca FFF7FEFF 		bl	_test_assert
 1200 00ce 0028     		cmp	r0, #0
 1201 00d0 B0D1     		bne	.L43
 1202 00d2 2046     		mov	r0, r4
 1203 00d4 FFF7FEFF 		bl	regfind
 1204 00d8 0146     		mov	r1, r0
 1205 00da 0920     		movs	r0, #9
 1206 00dc FFF7FEFF 		bl	_test_assert
 1207 00e0 0028     		cmp	r0, #0
 1208 00e2 A7D1     		bne	.L43
 1209 00e4 3220     		movs	r0, #50
 1210 00e6 FFF7FEFF 		bl	chThdSleep
 1211 00ea 217F     		ldrb	r1, [r4, #28]	@ zero_extendqisi2
 1212 00ec 0A20     		movs	r0, #10
 1213 00ee B1F10F03 		subs	r3, r1, #15
 1214 00f2 5942     		rsbs	r1, r3, #0
 1215 00f4 5941     		adcs	r1, r1, r3
 1216 00f6 FFF7FEFF 		bl	_test_assert
 1217 00fa 0028     		cmp	r0, #0
 1218 00fc 9AD1     		bne	.L43
 1219 00fe 2046     		mov	r0, r4
 1220 0100 FFF7FEFF 		bl	regfind
 1221 0104 0146     		mov	r1, r0
 1222 0106 0B20     		movs	r0, #11
 1223 0108 FFF7FEFF 		bl	_test_assert
 1224 010c 0028     		cmp	r0, #0
 1225 010e 91D1     		bne	.L43
 1226 0110 2046     		mov	r0, r4
 1227 0112 FFF7FEFF 		bl	regfind
 1228 0116 80F00101 		eor	r1, r0, #1
 1229 011a C9B2     		uxtb	r1, r1
 1230 011c 0C20     		movs	r0, #12
 1231 011e 02B0     		add	sp, sp, #8
 1232              		@ sp needed
 1233 0120 BDE81040 		pop	{r4, lr}
 1234 0124 FFF7FEBF 		b	_test_assert
 1235              	.L49:
 1236              		.align	2
 1237              	.L48:
 1238 0128 00000000 		.word	ch
 1239 012c 00000000 		.word	.LC0
 1240 0130 00000000 		.word	.LANCHOR0
 1241 0134 00000000 		.word	thread
 1242              		.size	dyn3_execute, .-dyn3_execute
 1243              		.global	patterndyn
 1244              		.global	testdyn3
 1245              		.global	testdyn2
 1246              		.global	testdyn1
 1247 0138 AFF30080 		.section	.rodata.testdyn1,"a",%progbits
 1247      AFF30080 
 1248              		.align	2
 1249              		.type	testdyn1, %object
ARM GAS  /tmp/ccpoXYVW.s 			page 71


 1250              		.size	testdyn1, 16
 1251              	testdyn1:
 1252 0000 78000000 		.word	.LC9
 1253 0004 00000000 		.word	dyn1_setup
 1254 0008 00000000 		.word	0
 1255 000c 00000000 		.word	dyn1_execute
 1256              		.section	.rodata.testdyn2,"a",%progbits
 1257              		.align	2
 1258              		.type	testdyn2, %object
 1259              		.size	testdyn2, 16
 1260              	testdyn2:
 1261 0000 48000000 		.word	.LC8
 1262 0004 00000000 		.word	dyn2_setup
 1263 0008 00000000 		.word	0
 1264 000c 00000000 		.word	dyn2_execute
 1265              		.section	.rodata.testdyn3,"a",%progbits
 1266              		.align	2
 1267              		.type	testdyn3, %object
 1268              		.size	testdyn3, 16
 1269              	testdyn3:
 1270 0000 20000000 		.word	.LC7
 1271 0004 00000000 		.word	dyn3_setup
 1272 0008 00000000 		.word	0
 1273 000c 00000000 		.word	dyn3_execute
 1274              		.section	.bss.mp1,"aw",%nobits
 1275              		.align	2
 1276              		.set	.LANCHOR1,. + 0
 1277              		.type	mp1, %object
 1278              		.size	mp1, 12
 1279              	mp1:
 1280 0000 00000000 		.space	12
 1280      00000000 
 1280      00000000 
 1281              		.section	.rodata.str1.4,"aMS",%progbits,1
 1282              		.align	2
 1283              	.LC0:
 1284 0000 4100     		.ascii	"A\000"
 1285 0002 0000     		.space	2
 1286              	.LC1:
 1287 0004 4200     		.ascii	"B\000"
 1288 0006 0000     		.space	2
 1289              	.LC2:
 1290 0008 4300     		.ascii	"C\000"
 1291 000a 0000     		.space	2
 1292              	.LC3:
 1293 000c 414200   		.ascii	"AB\000"
 1294 000f 00       		.space	1
 1295              	.LC4:
 1296 0010 4400     		.ascii	"D\000"
 1297 0012 0000     		.space	2
 1298              	.LC5:
 1299 0014 4500     		.ascii	"E\000"
 1300 0016 0000     		.space	2
 1301              	.LC6:
 1302 0018 41424344 		.ascii	"ABCD\000"
 1302      00
 1303 001d 000000   		.space	3
ARM GAS  /tmp/ccpoXYVW.s 			page 72


 1304              	.LC7:
 1305 0020 44796E61 		.ascii	"Dynamic APIs, registry and references\000"
 1305      6D696320 
 1305      41504973 
 1305      2C207265 
 1305      67697374 
 1306 0046 0000     		.space	2
 1307              	.LC8:
 1308 0048 44796E61 		.ascii	"Dynamic APIs, threads creation from memory pool\000"
 1308      6D696320 
 1308      41504973 
 1308      2C207468 
 1308      72656164 
 1309              	.LC9:
 1310 0078 44796E61 		.ascii	"Dynamic APIs, threads creation from heap\000"
 1310      6D696320 
 1310      41504973 
 1310      2C207468 
 1310      72656164 
 1311 00a1 000000   		.section	.rodata.patterndyn,"a",%progbits
 1312              		.align	2
 1313              		.type	patterndyn, %object
 1314              		.size	patterndyn, 16
 1315              	patterndyn:
 1316 0000 00000000 		.word	testdyn1
 1317 0004 00000000 		.word	testdyn2
 1318 0008 00000000 		.word	testdyn3
 1319 000c 00000000 		.word	0
 1320              		.section	.bss.heap1,"aw",%nobits
 1321              		.align	3
 1322              		.set	.LANCHOR0,. + 0
 1323              		.type	heap1, %object
 1324              		.size	heap1, 32
 1325              	heap1:
 1326 0000 00000000 		.space	32
 1326      00000000 
 1326      00000000 
 1326      00000000 
 1326      00000000 
 1327              		.comm	__gnu_lto_v1,1,1
 1328              		.ident	"GCC: (GNU Tools for ARM Embedded Processors) 4.8.4 20140526 (release) [ARM/embedded-4_8-br
ARM GAS  /tmp/ccpoXYVW.s 			page 73


DEFINED SYMBOLS
                            *ABS*:0000000000000000 testdyn.c
     /tmp/ccpoXYVW.s:786    .text.dyn1_execute:0000000000000000 $t
     /tmp/ccpoXYVW.s:791    .text.dyn1_execute:0000000000000000 dyn1_execute
     /tmp/ccpoXYVW.s:888    .text.dyn1_execute:00000000000000d0 $d
     /tmp/ccpoXYVW.s:903    .text.thread:0000000000000000 thread
     /tmp/ccpoXYVW.s:898    .text.thread:0000000000000000 $t
     /tmp/ccpoXYVW.s:913    .text.dyn1_setup:0000000000000000 $t
     /tmp/ccpoXYVW.s:918    .text.dyn1_setup:0000000000000000 dyn1_setup
     /tmp/ccpoXYVW.s:929    .text.dyn1_setup:000000000000000c $d
     /tmp/ccpoXYVW.s:933    .text.dyn3_setup:0000000000000000 $t
     /tmp/ccpoXYVW.s:938    .text.dyn3_setup:0000000000000000 dyn3_setup
     /tmp/ccpoXYVW.s:949    .text.dyn3_setup:000000000000000c $d
     /tmp/ccpoXYVW.s:953    .text.dyn2_execute:0000000000000000 $t
     /tmp/ccpoXYVW.s:958    .text.dyn2_execute:0000000000000000 dyn2_execute
     /tmp/ccpoXYVW.s:1052   .text.dyn2_execute:00000000000000cc $d
     /tmp/ccpoXYVW.s:1065   .text.dyn2_setup:0000000000000000 $t
     /tmp/ccpoXYVW.s:1070   .text.dyn2_setup:0000000000000000 dyn2_setup
     /tmp/ccpoXYVW.s:1081   .text.dyn2_setup:000000000000000c $d
     /tmp/ccpoXYVW.s:1084   .text.regfind:0000000000000000 $t
     /tmp/ccpoXYVW.s:1089   .text.regfind:0000000000000000 regfind
     /tmp/ccpoXYVW.s:1110   .text.dyn3_execute:0000000000000000 $t
     /tmp/ccpoXYVW.s:1115   .text.dyn3_execute:0000000000000000 dyn3_execute
     /tmp/ccpoXYVW.s:1238   .text.dyn3_execute:0000000000000128 $d
     /tmp/ccpoXYVW.s:1315   .rodata.patterndyn:0000000000000000 patterndyn
     /tmp/ccpoXYVW.s:1269   .rodata.testdyn3:0000000000000000 testdyn3
     /tmp/ccpoXYVW.s:1260   .rodata.testdyn2:0000000000000000 testdyn2
     /tmp/ccpoXYVW.s:1251   .rodata.testdyn1:0000000000000000 testdyn1
     /tmp/ccpoXYVW.s:1248   .rodata.testdyn1:0000000000000000 $d
     /tmp/ccpoXYVW.s:1257   .rodata.testdyn2:0000000000000000 $d
     /tmp/ccpoXYVW.s:1266   .rodata.testdyn3:0000000000000000 $d
     /tmp/ccpoXYVW.s:1275   .bss.mp1:0000000000000000 $d
     /tmp/ccpoXYVW.s:1279   .bss.mp1:0000000000000000 mp1
     /tmp/ccpoXYVW.s:1282   .rodata.str1.4:0000000000000000 $d
     /tmp/ccpoXYVW.s:1312   .rodata.patterndyn:0000000000000000 $d
     /tmp/ccpoXYVW.s:1321   .bss.heap1:0000000000000000 $d
     /tmp/ccpoXYVW.s:1325   .bss.heap1:0000000000000000 heap1
                            *COM*:0000000000000001 __gnu_lto_v1
     /tmp/ccpoXYVW.s:932    .text.dyn1_setup:0000000000000014 $t
     /tmp/ccpoXYVW.s:952    .text.dyn3_setup:0000000000000014 $t
     /tmp/ccpoXYVW.s:1064   .text.dyn2_execute:00000000000000f8 $t
     /tmp/ccpoXYVW.s:1247   .text.dyn3_execute:0000000000000138 $t

UNDEFINED SYMBOLS
chHeapStatus
chThdCreateFromHeap
chHeapAlloc
chHeapFree
_test_assert
test_wait_threads
_test_assert_sequence
ch
threads
test_emit_token
chHeapObjectInit
test
chPoolFree
ARM GAS  /tmp/ccpoXYVW.s 			page 74


chThdCreateFromMemoryPool
chPoolAlloc
wa
chPoolObjectInit
chRegFirstThread
chRegNextThread
chThdAddRef
chThdRelease
chThdSleep
