ARM GAS  /tmp/ccYYFCRY.s 			page 1


   1              		.syntax unified
   2              		.cpu cortex-m4
   3              		.eabi_attribute 27, 3
   4              		.eabi_attribute 28, 1
   5              		.fpu fpv4-sp-d16
   6              		.eabi_attribute 20, 1
   7              		.eabi_attribute 21, 1
   8              		.eabi_attribute 23, 3
   9              		.eabi_attribute 24, 1
  10              		.eabi_attribute 25, 1
  11              		.eabi_attribute 26, 1
  12              		.eabi_attribute 30, 2
  13              		.eabi_attribute 34, 1
  14              		.eabi_attribute 18, 4
  15              		.thumb
  16              		.file	"testmsg.c"
  17              		.section	.gnu.lto_.jmpfuncs.e980e75c1c0ffdf9,"",%progbits
  18 0000 789C6362 		.ascii	"x\234cb`b\300\006f\0031+\020\003e\231\230\"\0303\031"
  18      6062C006 
  18      6603312B 
  18      10036599 
  18      98221833 
  19 0015 191881AC 		.ascii	"\031\030\201\254j\206_\0153\032\0042\031\031\345\030"
  19      6A865F0D 
  19      331A0432 
  19      1919E518 
  20 0025 18E736CC 		.ascii	"\030\3476\314p\310d\204hgd`\300\305\000\232\0021\340"
  20      70C86484 
  20      68676460 
  20      C0C5009A 
  20      0231E0
  21 0038 0233880B 		.ascii	"\0023\210\0136\243\003d\006s2#\3242fF&\220\\\031T%\213"
  21      36A30364 
  21      06733223 
  21      D4326646 
  21      26905C19 
  22 004f 33908122 		.ascii	"3\220\201\"\340\204.\340\010\344\2608:93\000\000g\371"
  22      E0842EE0 
  22      08E4B038 
  22      3A393300 
  22      0067F9
  23 0062 125F     		.ascii	"\022_"
  24              		.text
  25              		.section	.gnu.lto_.inline.e980e75c1c0ffdf9,"",%progbits
  26 0000 789C6362 		.ascii	"x\234cb`b\300\006&Ci\240\254V\017##\003\223@C-\003\333"
  26      6062C006 
  26      264369A0 
  26      AC560F23 
  26      23039340 
  27 0018 0279B06A 		.ascii	"\002y\260jf\036\260\004\0237\003\003\343\004?0o\202"
  27      661EB004 
  27      13370303 
  27      E3043F30 
  27      6F82
  28 002a DF043F10 		.ascii	"\337\004?\020\237\004Av\001\006\006\326\011~\014`\304"
  28      9F044176 
  28      010606D6 
ARM GAS  /tmp/ccYYFCRY.s 			page 2


  28      097E0C60 
  28      C4
  29 003b CCC0A3C6 		.ascii	"\314\300\243\306\010v\013\212%@9t\232\001\000a\243\022"
  29      08760B8A 
  29      25403974 
  29      9A010061 
  29      A312
  30 004d 0D       		.ascii	"\015"
  31              		.text
  32              		.section	.gnu.lto_.pureconst.e980e75c1c0ffdf9,"",%progbits
  33 0000 789C6362 		.ascii	"x\234cb`b`e\200\000&\006If\011\000\001\005\000@"
  33      60626065 
  33      80002606 
  33      49660900 
  33      01050040 
  34              		.text
  35              		.section	.gnu.lto_msg1_execute.e980e75c1c0ffdf9,"",%progbits
  36 0000 789C8D94 		.ascii	"x\234\215\224\317kSA\020\307g^\222\366\245\321\264\321"
  36      CF6B5341 
  36      10C7675E 
  36      92F6A5D1 
  36      B4D1
  37 0012 C4B4E90F 		.ascii	"\304\264\351\017\213\307\212}\"\212x\363\307\277PA\217"
  37      8BC78A7D 
  37      228A78F3 
  37      C7BF5041 
  37      8F
  38 0023 E926240F 		.ascii	"\351&$\017M\253I*\210\207nm\003\205V\250\236\342OZ\212"
  38      4DAB492A 
  38      88876E6D 
  38      038556A8 
  38      9EE24F5A 
  39 0038 524BB154 		.ascii	"RK\261T\021T\012\026z\321Cm\275\210X\017\301\202\010"
  39      11540A16 
  39      7AD1436D 
  39      BD88580F 
  39      C18208
  40 004b FE0722C4 		.ascii	"\376\007\"\304\231}\357m\264\225\266\013\331\235\335"
  40      997DEF6D 
  40      B495B60B 
  40      D99DDD
  41 005a 9DF9CE67 		.ascii	"\235\371\316g\366\355\306\000\0036\267\026\372\265\007"
  41      F6EDC600 
  41      0336B716 
  41      FAB507
  42 0069 00AED288 		.ascii	"\000\256\322\210>@c\342\003\300\220i \262\001\010\203"
  42      3E4063E2 
  42      03C09069 
  42      20B20108 
  42      83
  43 007a 060E5E44 		.ascii	"\006\016^Dv\305C0%\345\235Ji\343\007\336\225K#\223\362"
  43      76C54330 
  43      25E59D4A 
  43      69E307DE 
  43      954B2393 
  44 008f 77B58A68 		.ascii	"w\265\212h#\311\036C\020\010\027h\202\235j0\374\377"
  44      23C91E43 
ARM GAS  /tmp/ccYYFCRY.s 			page 3


  44      10081768 
  44      829D6A30 
  44      FCFF
  45 00a1 E6993796 		.ascii	"\346\2317\226*\325\352\342\302\344\267\327\030i3\300"
  45      2AD5EAE2 
  45      C2E4B7D7 
  45      186933C0 
  46 00b1 469F8F3A 		.ascii	"F\237\217:\177\200:0!\211S$\037\244I D]]\330]i\344\225"
  46      7F803A30 
  46      21895324 
  46      1FA44920 
  46      445D5DD8 
  47 00c9 08AF44DD 		.ascii	"\010\257D\335\225\030\257\304y%\301\241\255\324\325"
  47      9518AFC4 
  47      7925C1A1 
  47      ADD4D5
  48 00d8 937E0046 		.ascii	"\223~\000F\244\234\350t|\200a\250\365P\317e\234G\203"
  48      A49CE874 
  48      7C8061A8 
  48      F550CF65 
  48      9C4783
  49 00eb 47DF0ADC 		.ascii	"G\337\012\334\374\372\371\373;\177\022\2471\000\031"
  49      FCFAF9FB 
  49      3B7F12A7 
  49      310019
  50 00fa 348EC09C 		.ascii	"4\216\300\234l\262\321\274\017\367\206&\330\012\336"
  50      6CB2D1BC 
  50      0FF78626 
  50      D80ADE
  51 0109 805FB2CC 		.ascii	"\200_\262\314VCNIp-\015\340Y\241\277*\"\261/\213\353"
  51      56434E49 
  51      702D0DE0 
  51      59A1BF2A 
  51      22B12F8B 
  52 011e 9F8EBB99 		.ascii	"\237\216\273\231=\0049\375\304\3228\236\2614\266\262"
  52      3D0439FD 
  52      C4D2389E 
  52      B134B6B2 
  53 012e 10213D27 		.ascii	"\020!='\261@%-P}\216\014&\016\303\254\224\262\262\376"
  53      B140252D 
  53      507D8E0C 
  53      260EC3AC 
  53      94B2B2FE 
  54 0142 F2711795 		.ascii	"\362q\027\225\344\314\344)\033\3670\227d\232\275\314"
  54      E4CCE429 
  54      1BF73097 
  54      649ABDCC 
  55 0152 35CA5638 		.ascii	"5\312V8\247\242\231&\2548zy\232\304\031\022&\033\265"
  55      A7A29926 
  55      AC387A79 
  55      9AC41912 
  55      261BB5
  56 0165 ED10969F 		.ascii	"\355\020\226\237'\222\370TU\333\352\012\027\350\304"
  56      2792F854 
  56      55DBEA0A 
  56      17E8C4
  57 0174 B47023A5 		.ascii	"\264p#\245g-p\265\014\216\237\365\342\207G\227\307V"
ARM GAS  /tmp/ccYYFCRY.s 			page 4


  57      672D70B5 
  57      0C8E9FF5 
  57      E2874797 
  57      C756
  58 0186 6E07BDF3 		.ascii	"n\007\275\363\362\221\010;\373\331}\025\232\275\365"
  58      F291083B 
  58      FBD97D15 
  58      9ABDF5
  59 0195 80A66B12 		.ascii	"\200\246k\022t\211\234\252\014\366\214\254\3718\216"
  59      74899CAA 
  59      0CF68CAC 
  59      F9388E
  60 01a4 F74D1BF7 		.ascii	"\367M\033\367\011t\317\236\253\266q\277b|\277V\357,"
  60      0974CF9E 
  60      ABB671BF 
  60      627CBF56 
  60      EF2C
  61 01b6 F2D7A076 		.ascii	"\362\327\240v\202h4_TK\307r\352\274X5\366\237\017\222"
  61      8268345F 
  61      544BC772 
  61      EABC5835 
  61      F69F0F92 
  62 01ca 61D55518 		.ascii	"a\325U\030\256<XF\217\313\324\301\007\204S\022\335\226"
  62      AE3C5846 
  62      8FCBD4C1 
  62      07845312 
  62      DD96
  63 01dc B84AFAA6 		.ascii	"\270J\372\246\364b\274\235\243\202\224\212\204\232\311"
  63      F462BC9D 
  63      A382948A 
  63      849AC9
  64 01eb 5B9DC351 		.ascii	"[\235\303QGn\025J\225G\033.\030\200\026j\021X\347\346"
  64      476E154A 
  64      95471B2E 
  64      1880166A 
  64      1158E7E6 
  65 01ff 3329D8C6 		.ascii	"3)\330\306\204\222\3739\\\035\357\362\322\206h\203\025"
  65      8492FB39 
  65      5C1DEFF2 
  65      D2866883 
  65      15
  66 0210 FC5BA25B 		.ascii	"\374[\242[\205\272\254\034\035\262\261\315\001\236\251"
  66      85BAAC1C 
  66      1DB2B1CD 
  66      019EA9
  67 021f 01877701 		.ascii	"\001\207w\001\334\250\201\303\233\201g\267\007\016S"
  67      DCA881C3 
  67      9B8167B7 
  67      070E53
  68 022e 700D78FE 		.ascii	"p\015x\376\226\006\216\320\306\216\300\021\015<W\003"
  68      96068ED0 
  68      C68EC011 
  68      0D3C5703 
  69 023e 8EEE0238 		.ascii	"\216\356\0028\246\201\243\233\201\237m\017\034\245\340"
  69      A681A39B 
  69      819F6D0F 
  69      1CA5E0
ARM GAS  /tmp/ccYYFCRY.s 			page 5


  70 024d 1AF0DB1A 		.ascii	"\032\360\333\032p<\303w`\007\340\270\013\\\252\274\022"
  70      703CC377 
  70      6007E0B8 
  70      0B5CAABC 
  70      12
  71 025e 5BFCDA05 		.ascii	"[\374\332\005\232\372\026\321\323\344\215f\033;: \367"
  71      9AFA16D1 
  71      D3E48D66 
  71      1B3B3A20 
  71      F7
  72 026f 50964FDB 		.ascii	"P\226O\333x\320}\254T\017=\343\217\200\236\204\323z"
  72      78D07DAC 
  72      540F3DE3 
  72      8F809E84 
  72      D37A
  73 0281 E8A5D15F 		.ascii	"\350\245\321_\012\337H\313\312\366\347\322\226\350O"
  73      0ADF48CB 
  73      CAF6E7D2 
  73      96E84F
  74 0290 5DB752E9 		.ascii	"]\267R\351k\226\310\332\275v\177\301*\346\007\372.Y"
  74      6B96C8DA 
  74      BD767FC1 
  74      2AE607FA 
  74      2E59
  75 02a2 C574A168 		.ascii	"\305t\241h\345\213j\314\0252\335\002\214\342\225\223"
  75      E58B6ACC 
  75      1532DD02 
  75      8CE29593 
  76 02b2 DB869041 		.ascii	"\333\206\220A\001v\237\270<\220\"\247l1\233O'S\205\356"
  76      01769FB8 
  76      3C9022A7 
  76      6C319B4F 
  76      275385EE 
  77 02c6 2CF8CF9C 		.ascii	",\370\317\234=\007\177\000\003VO\341"
  77      3D077F00 
  77      03564FE1 
  78              		.text
  79              		.section	.gnu.lto_thread.e980e75c1c0ffdf9,"",%progbits
  80 0000 789C6362 		.ascii	"x\234cb`b@\007\222@\374\012\210\015\201\230\221\231"
  80      60624007 
  80      9240FC0A 
  80      880D8198 
  80      9199
  81 0012 819169C2 		.ascii	"\201\221i\3029\006\206F\016&FF\020\203\201\221\241\236"
  81      39068646 
  81      0E264646 
  81      10838191 
  81      A19E
  82 0024 89B13E92 		.ascii	"\211\261>\222\021\254v=\323\201\007\377\377\257\373"
  82      11AC763D 
  82      D38107FF 
  82      FFAFFB
  83 0033 F6F36127 		.ascii	"\366\363a'\243 \033\023c.X\230\225\241\245\241a\202"
  83      A3201B13 
  83      632E5898 
  83      95A1A5A1 
  83      6182
ARM GAS  /tmp/ccYYFCRY.s 			page 6


  84 0045 02034332 		.ascii	"\002\003C2\230\033\002$AZC\031\231@4\363y\206\326\007"
  84      981B0224 
  84      415A4319 
  84      994034F3 
  84      7986D607 
  85 0059 7F2D1219 		.ascii	"\177-\022\031\0272\262\002e\253\031~5t4\010d2\002UC"
  85      1732B202 
  85      65AB197E 
  85      35743408 
  85      64320255 
  86 006e 0C4D6764 		.ascii	"\014Mgd\212`\314ddtd\310\004\352`\000*_PGX\265\023B"
  86      8A60CC64 
  86      647464C8 
  86      04EA6000 
  86      2A5F5047 
  87 0086 753D61D5 		.ascii	"u=a\325\316\020\325\027\031\032\037t$C\224\203\305a"
  87      CE10D517 
  87      191A1F74 
  87      24439483 
  87      C561
  88 0098 81100264 		.ascii	"\201\020\002d\002\335\012\012\035}\375\214\374\334T"
  88      02DD0A0A 
  88      1D7DFD8C 
  88      FCDC54
  89 00a7 FDE4FC94 		.ascii	"\375\344\374\224J\375\224\3242\375\344\214\314\244\314"
  89      4AFD94D4 
  89      32FDE48C 
  89      CCA4CC
  90 00b6 FC62FD92 		.ascii	"\374b\375\222\242\322\274l\375\222\324\342\022\375\242"
  90      A2D2BC6C 
  90      FD92D4E2 
  90      12FDA2
  91 00c5 12309D5B 		.ascii	"\0220\235[\234\256\227\314\000\000\220\276I\217"
  91      9CAE97CC 
  91      000090BE 
  91      498F
  92              		.text
  93              		.section	.gnu.lto_.symbol_nodes.e980e75c1c0ffdf9,"",%progbits
  94 0000 789C4DCC 		.ascii	"x\234M\314M\016\2020\024\004\340\231\026D\320;x6O\362"
  94      4D0E8230 
  94      1404E099 
  94      1644D03B 
  94      78364FF2 
  95 0014 489A48C4 		.ascii	"H\232H\304\215\007p\307Q\272\367\014*\376\213\036\301"
  95      8D0770C7 
  95      51BAF70C 
  95      2AFE8B1E 
  95      C1
  96 0025 F8A0C6DA 		.ascii	"\370\240\306\332\315\227\231y\251\201AF\204gZ\012\261"
  96      CD979979 
  96      A9814146 
  96      84675A0A 
  96      B1
  97 0036 DE02229B 		.ascii	"\336\002\"\233\345<=\353 H_\244b\016\024\374\215W\232"
  97      E53C3DEB 
  97      20485FA4 
  97      620E14FC 
ARM GAS  /tmp/ccYYFCRY.s 			page 7


  97      8D579A
  98 0049 7E3CD1A6 		.ascii	"~<\321\246\312\221\211\302\216b\302MY\222\017\212\215"
  98      CA9189C2 
  98      8E62C24D 
  98      59920F8A 
  98      8D
  99 005a E94E4962 		.ascii	"\351NIb\272Q\322\230.\224QLOJ\366K\026\023\270\375["
  99      BA51D298 
  99      2E94514C 
  99      4F4AF64B 
  99      1613B8FD 
 100 006f 2DE00773 		.ascii	"-\340\007s\270E7\263\030\303\017\026h\007s4U\350\333"
 100      B84537B3 
 100      18C30F16 
 100      68077334 
 100      55E8DB
 101 0082 2AF4AE0E 		.ascii	"*\364\256\016\275\257C\357V\275\031\232^;\205\333\351"
 101      BDAF43EF 
 101      56BD199A 
 101      5E3B85DB 
 101      E9
 102 0093 7F6AF3D5 		.ascii	"\177j\363\325\253\370\000#\201M."
 102      ABF80023 
 102      814D2E
 103              		.text
 104              		.section	.gnu.lto_.refs.e980e75c1c0ffdf9,"",%progbits
 105 0000 789C25C1 		.ascii	"x\234%\301A\001\0000\010\304\260^\007\030\300\277\327"
 105      41010030 
 105      08C4B05E 
 105      0718C0BF 
 105      D7
 106 0011 3D484496 		.ascii	"=HD\226S\020\364\245\322NF\370\004\007\000@"
 106      5310F4A5 
 106      D24E46F8 
 106      04070040 
 107              		.text
 108              		.section	.gnu.lto_.decls.e980e75c1c0ffdf9,"",%progbits
 109 0000 789CBD5B 		.ascii	"x\234\275[{p\024\307\231\357\236]\355j\221\02089;\370"
 109      7B7014C7 
 109      99EF9E5D 
 109      ED6A9110 
 109      38393BF8 
 110 0014 92D8CB95 		.ascii	"\222\330\313\225s\345rb\304+\001_%\206\204\2532U)\247"
 110      73E57262 
 110      C42B015F 
 110      258684AB 
 110      325529A7 
 111 0028 5CF1A5CE 		.ascii	"\\\361\245\316\377\355\015\273\203\264giw3;\342\221"
 111      FFED0DBB 
 111      83B46769 
 111      77333BE2 
 111      91
 112 0039 BB944712 		.ascii	"\273\224G\022\306\2308XH\330\210\207@ \300\326aG\230"
 112      C6983858 
 112      48D88887 
 112      4020C0D6 
 112      614798
ARM GAS  /tmp/ccYYFCRY.s 			page 8


 113 004c 67C008D6 		.ascii	"g\300\010\326\004\004\206\360\014/\021a\3111o\3071\017"
 113      040486F0 
 113      0C2F1161 
 113      C9316FC7 
 113      310F
 114 005e 072C84A5 		.ascii	"\007,\204\245|\335=\263;=;\263;\24387U\335\333\333\323"
 114      7CDD3DB3 
 114      3B3D3BB3 
 114      3BA33837 
 114      55DDDBDB 
 115 0073 FDFBDEFD 		.ascii	"\375\373\336\375\334\025\220\200\346`\204\006\340\351"
 115      DC159080 
 115      E6608406 
 115      E0E9
 116 0081 FA3E42D3 		.ascii	"\372>B\323\375\010y\020BOB*\320\322*H\253!\275\001\251"
 116      FD087910 
 116      424F422A 
 116      D0D22A48 
 116      AB21BD01 
 117 0096 15B1A710 		.ascii	"\025\261\247\020\322fH\333!\265C\352\200t\020\322\377"
 117      D26648DB 
 117      21B543EA 
 117      807410D2 
 117      FF
 118 00a7 02D60B90 		.ascii	"\002\326\013\220~\215Y\337z\370\\\014\351\006\244\277"
 118      7E8D59DF 
 118      7AF85C0C 
 118      E906A4BF 
 119 00b7 422A1210 		.ascii	"B*\022\020\367\220\376#!\035\206T\002\251\030\322$H"
 119      F790FE23 
 119      211D8654 
 119      02A918D2 
 119      2448
 120 00c9 C006F241 		.ascii	"\300\006\362Aj\201\324\011i\021\364m\200t?\364\367\302"
 120      6A81D409 
 120      6911F46D 
 120      80743FF4 
 120      F7C2
 121 00db F795506E 		.ascii	"\367\225Pn\204\364\000|?\002\337\277&0z\204G\025\352"
 121      84F4007C 
 121      3F02DFBF 
 121      26307A84 
 121      4715EA
 122 00ee 6F421A01 		.ascii	"oB\032\001u\017B\372%f|\3773\224\017\301\347\327\341"
 122      750F42FA 
 122      25667CFF 
 122      33940FC1 
 122      E7D7E1
 123 0101 733F7C7E 		.ascii	"s?|~C\310\310\266\0131\271W@\3336Hg\241\034\320\370"
 123      43C8C8B6 
 123      0B31B957 
 123      40DB3648 
 123      67A11CD0 
 124 0116 FB26B41B 		.ascii	"\373&\264\033)0\2716k2\036\324dn\327\372\031\3454>\233"
 124      2930B936 
 124      6B321ED4 
 124      646ED7FA 
ARM GAS  /tmp/ccYYFCRY.s 			page 9


 124      19E5343E 
 125 012b B5F78F08 		.ascii	"\265\367\217\010\214\207\005\332{A{G\364D\252\266\362"
 125      8C8705DA 
 125      7B417B47 
 125      F444AAB6 
 125      F2
 126 013c DD50119A 		.ascii	"\335P\021\232\257\2525j\363\\u\352\201\222\373P\235"
 126      AFAA356A 
 126      F35C75EA 
 126      8192FB50 
 126      9D
 127 014d 0A4FF3E4 		.ascii	"\012O\363\344\306\222\000\232G\352{\326\252#F \364\034"
 127      C692009A 
 127      47EA7BD6 
 127      AA234620 
 127      F41C
 128 015f 16315415 		.ascii	"\0261T\025\322Bq\200\"}\013\255\201\266\320A\020q\013"
 128      D2427180 
 128      227D0BAD 
 128      81B6D041 
 128      10710B
 129 0172 0E0025C1 		.ascii	"\016\000%\301\304\223\376\260\367\344!\335YY/\015\340"
 129      C493FEB0 
 129      F7E421DD 
 129      59592F0D 
 129      E0
 130 0183 347A5047 		.ascii	"4zPG\367j\275V\343\373h\211\362\242j<\322\026v=\326"
 130      F76ABD56 
 130      E3FB6889 
 130      F2A26A3C 
 130      D216763D 
 131 0198 19E81407 		.ascii	"\031\350\024\0072\005\217\306\211]\277U\270\310R!\017"
 131      32058FC6 
 131      895DBF55 
 131      B8C85221 
 131      0F
 132 01a9 A0D734CA 		.ascii	"\240\3274\312*V86\254\261\250N\352z\216^\276\342Q\325"
 132      2A563836 
 132      ACB1A84E 
 132      EA7A8E5E 
 132      BEE251D5 
 133 01bd 4211B752 		.ascii	"B\021\267R\275<\203\321c\250\225)k\317\267\255\224\344"
 133      BD3C83D1 
 133      63A89529 
 133      6BCFB7AD 
 133      94E4
 134 01cf 1CBAAF63 		.ascii	"\034\272\257c\357;\270\006\330\021\361\333\024\274\006"
 134      EF3BB806 
 134      D811F1DB 
 134      14BC06
 135 01de 6310E02D 		.ascii	"c\020\340-\374\230k\250-\007\267M\244\\n\240@\273M@"
 135      FC986BA8 
 135      2D07B74D 
 135      A45C6EA0 
 135      40BB4D40 
 136 01f2 22F60578 		.ascii	"\"\366\005x+\302w\275\001A\203\257\204\322\347$\244"
 136      2BC277BD 
ARM GAS  /tmp/ccYYFCRY.s 			page 10


 136      014183AF 
 136      84D2E724 
 136      A4
 137 0203 F10B5A0D 		.ascii	"\361\013Z\015\371\342G\377\357\375\354\014\373&~\200"
 137      F9E247FF 
 137      EFFDEC0C 
 137      FB267E80 
 138 0213 963C3410 		.ascii	"\226<4\020\240bR\021d?\363\244\251\330u|\003\027\031"
 138      A0625211 
 138      643FF3A4 
 138      A9D8757C 
 138      031719
 139 0226 B5F1305A 		.ascii	"\265\3610Z\241\246\256\367l:\322\376\320\02255G\035"
 139      A1A6AEF7 
 139      6C3AD2FE 
 139      D0123535 
 139      471D
 140 0238 18784143 		.ascii	"\030xAC\027P\257Iq\217\240\026U\255W\357D\246Rr\002"
 140      1750AF49 
 140      718FA016 
 140      55AD57EF 
 140      44A65272 
 141 024d 5205D260 		.ascii	"R\005\322`3~\330\222\032m\004\317\277\242\265D\274\366"
 141      337ED892 
 141      1A6D04CF 
 141      BFA2B544 
 141      BCF6
 142 025f 0BCF4C65 		.ascii	"\013\317Le\216\203rt\322\270\334\202\271a\216q\231Z"
 142      8E837274 
 142      D2B8DC82 
 142      B9618E71 
 142      995A
 143 0271 DCB1E041 		.ascii	"\334\261\340A\265\271&500\011q\036,\342'\357\267\225"
 143      B5B92635 
 143      30300971 
 143      1E2CE227 
 143      EFB795
 144 0284 7887A6AA 		.ascii	"x\207\246\252\214z\300\271\004^\2644\227\352\233\252"
 144      8C7AC0B9 
 144      045EB434 
 144      97EA9BAA 
 145 0294 87A291F6 		.ascii	"\207\242\221\366\333\201I\316p\357f\263\325S\327\263"
 145      DB8149CE 
 145      70EF66B3 
 145      D553D7B3 
 146 02a4 FB445735 		.ascii	"\373DW5^X\333|@\275>00\214\347\254\020\275D\207\233"
 146      5E58DB7C 
 146      40BD3E30 
 146      308CE7AC 
 146      10BD4487 
 147 02b9 17D56AFC 		.ascii	"\027\325j\374\363\374\343\315n\\\010\334\355\264\037"
 147      F3FCE3CD 
 147      6E5C08DC 
 147      EDB41F
 148 02c8 704803DD 		.ascii	"pH\003\335\274\254\254\227r\2147\273\314\316R\020\320"
 148      BCACAC97 
 148      728C37BB 
ARM GAS  /tmp/ccYYFCRY.s 			page 11


 148      CCCE5210 
 148      D0
 149 02d9 CBDCA8C0 		.ascii	"\313\334\250\300F.;\224\275\231\261\204\323&U\350\236"
 149      462E3B94 
 149      BD99B184 
 149      D32655E8 
 149      9E
 150 02ea 2C85B246 		.ascii	",\205\262F\373\2544\226\352\352xE\305u\325=\003\003"
 150      FBAC3496 
 150      EAEA7845 
 150      C575D53D 
 150      0303
 151 02fc 0F3BB7E3 		.ascii	"\017;\267\343~\263\024\204Y\023\033gm\330x\337\322p"
 151      7EB31484 
 151      59131B67 
 151      6DD878DF 
 151      D270
 152 030e 1BCEEC7E 		.ascii	"\033\316\354~P]\345\326\237\016\361|p\032\374\012ZH"
 152      505DE5D6 
 152      9F0EF17C 
 152      701AFC0A 
 152      5A48
 153 0320 50828611 		.ascii	"P\202\206\021\252\331\253\003\374;J\017Q\275K\367\256"
 153      AAD9AB03 
 153      FC3B4A0F 
 153      51BD4BF7 
 153      AE
 154 0331 C2B574B4 		.ascii	"\302\265t\264;\202\277\002@\247<<\343y\201\004\364\001"
 154      3B82BF02 
 154      40A73C3C 
 154      E3798104 
 154      F401
 155 0343 ED721CBA 		.ascii	"\355r\034\272\263\216\314\217z\336Y\371A5\256\246\320"
 155      B38ECC8F 
 155      7ADE59F9 
 155      4135AEA6 
 155      D0
 156 0354 E41DB2D0 		.ascii	"\344\035\262\320\207\366\214D\315\300y\252on\023D\325"
 156      87F68C44 
 156      CDC079AA 
 156      6F6E1344 
 156      D5
 157 0365 1E687F18 		.ascii	"\036h\177\030\223\250n\362\352\270V\032H\317@\272\027"
 157      93A86EF2 
 157      EAB8561A 
 157      48CF40BA 
 157      17
 158 0376 96044C78 		.ascii	"\226\004Lx\375\035\305u\242\016\266\3065X\220\003k\330"
 158      FD1DC575 
 158      A20EB6C6 
 158      35589003 
 158      6BD8
 159 0388 BF9C32A7 		.ascii	"\277\2342\247M\333\016F\3776}\216\352\244\243\377z\257"
 159      4DDB0E46 
 159      FF367D8E 
 159      EAA4A3FF 
 159      7AAF
ARM GAS  /tmp/ccYYFCRY.s 			page 12


 160 039a C534E208 		.ascii	"\3054\342\010\250o\356\276\367\264\031\251\213Bm\032"
 160      A86FEEBE 
 160      F7B419A9 
 160      8B426D1A 
 161 03aa 34D496F9 		.ascii	"4\324\226\371;\237\240<uS\240\235^\363\214\3447\315"
 161      3B9FA03C 
 161      7553A09D 
 161      5EF38CE4 
 161      37CD
 162 03bc 487E7E86 		.ascii	"H~~\206\360\0072\00521\014C\377\340\346\002\332\357"
 162      F0073205 
 162      32310C43 
 162      FFE0E602 
 162      DAEF
 163 03ce C47099B1 		.ascii	"\304p\231\261\310\344\005j\317\206\225\0271\231Q<\232"
 163      C8E4056A 
 163      CF869517 
 163      3199513C 
 163      9A
 164 03df 2737FBEC 		.ascii	"'7\373\354t$\240#\224\326\005\263'\237\277t\354\361"
 164      7424A023 
 164      94D605B3 
 164      279FBF74 
 164      ECF1
 165 03f1 46551DCE 		.ascii	"FU\035\316^\345w\344m\207\026S_\311\033\221>\235|\204"
 165      5EE577E4 
 165      6D871653 
 165      5FC91B91 
 165      3E9D7C84 
 166 0405 92AF2B20 		.ascii	"\222\257+ \344\257\232\311\367^\273\362$#\177\325\021"
 166      E4AF9AC9 
 166      F75EBBF2 
 166      24237FD5 
 166      11
 167 0416 F9EEA38B 		.ascii	"\371\356\243\213\262\311\333\216$\232g\234\277t\375"
 167      B2C9DB8E 
 167      249A679C 
 167      BF74FD
 168 0425 D19594C8 		.ascii	"\321\225\224\310'4^\316\025\230]c\222q\324\325'\372"
 168      27345ECE 
 168      15985D63 
 168      9271D4D5 
 168      27FA
 169 0437 7403017D 		.ascii	"t\003\001}\224\346~P\341\012b\246&\265nT\325\227}:\017"
 169      94E67E50 
 169      E10A62A6 
 169      26B56E54 
 169      D5977D3A 
 170 044c 975D2306 		.ascii	"\227]#\0069E\334<J\007\000\006\366\261\0230[?\252I}"
 170      3945DC3C 
 170      4A070006 
 170      F6B11330 
 170      5B3FAA49 
 171 0461 6604FBD4 		.ascii	"f\004\373\3245\030\317\331m#\330-'`\303\3559\373\334"
 171      3518CFD9 
 171      6D23D82D 
 171      2760C3ED 
ARM GAS  /tmp/ccYYFCRY.s 			page 13


 171      39FBDC
 172 0474 0876C735 		.ascii	"\010v\3075\030\317\331]#X\237\023\260\021\366\234\335"
 172      18CFD95D 
 172      23589F13 
 172      B011F69C 
 172      DD
 173 0485 33820DB8 		.ascii	"3\202\015\270\006\3439\3537\202\325\372\034\200\005"
 173      06E339EB 
 173      3782D5FA 
 173      1C8005
 174 0494 ED39AB3B 		.ascii	"\3559\253;a\000{\3115\030\317Y\275\021\354WN\300\036"
 174      61007BC9 
 174      3518CF59 
 174      BD11EC57 
 174      4EC01E
 175 04a7 B5E76C91 		.ascii	"\265\347l\221\021\354U\327`<g\257\033\301\032\234\200"
 175      11EC55D7 
 175      603C67AF 
 175      1BC11A9C 
 175      80
 176 04b8 8DB6E7AC 		.ascii	"\215\266\347\254\321\010\266\3305\030\317\331R#\330"
 176      D108B6D8 
 176      3518CFD9 
 176      5223D8
 177 04c7 32276013 		.ascii	"2'`\023\3559[n\004[\351\032\214\347l\203\021\254\305"
 177      ED395B6E 
 177      045BE91A 
 177      8CE76C83 
 177      11ACC5
 178 04da 09D8647B 		.ascii	"\011\330d{\3166\032\301\326\271\006\3439\333l\004ku"
 178      CE361AC1 
 178      D6B906E3 
 178      39DB6C04 
 178      6B75
 179 04ec 0236D59E 		.ascii	"\0026\325\236\263\255F\260\267\\\203\361\234\375\326"
 179      B3AD46B0 
 179      B75C83F1 
 179      9CFDD6
 180 04fb 08D6E604 		.ascii	"\010\326\346\004\354\031{\316v\030\3016\272\006\343"
 180      EC197BCE 
 180      7618C136 
 180      BA06E3
 181 050a 39DB6904 		.ascii	"9\333i\004\333\342\004\3549{\316v\031\301\266\273\006"
 181      DBE204EC 
 181      397BCE76 
 181      19C1B6BB 
 181      06
 182 051b E3393B66 		.ascii	"\3439;f\004kw\002\366_\026\234\245\037\253~d\232\276"
 182      046B7702 
 182      F65F169C 
 182      A51FAB7E 
 182      649ABE
 183 052e 92D92D09 		.ascii	"\222\331-\011(\345\323\0278.\347h\224\301\330\353s\273"
 183      28E5D317 
 183      382EE768 
 183      94C1D8EB 
 183      73BB
ARM GAS  /tmp/ccYYFCRY.s 			page 14


 184 0540 20E3E486 		.ascii	" \343\344\206}\301\245U\270\241V=0Z_\233\037t\202\230"
 184      7DC1A555 
 184      B8A1563D 
 184      305A5F9B 
 184      1F748298 
 185 0554 63025CBA 		.ascii	"c\002\\\272\337\260\320?\341\032\314\344\312\004\214"
 185      DFB0D03F 
 185      E11ACCE4 
 185      CA048C
 186 0563 5B3AA54F 		.ascii	"[:\245O\352R#\0323\2137n\353,\3425\370[\203>\206{S0"
 186      EA52231A 
 186      338B376E 
 186      EB2CE235 
 186      F85B833E 
 187 057b 98E89C13 		.ascii	"\230\350\234\023\376s\314\271\335\373\227\177M\355I"
 187      FE73CCB9 
 187      DDFB977F 
 187      4DED49
 188 058a 61C3F9A2 		.ascii	"a\303\371\242\035\327\372a\332%m\243\362\226@6\005\037"
 188      1DD7FA61 
 188      DA256DA3 
 188      F2964036 
 188      051F
 189 059c FA2C7717 		.ascii	"\372,w\027\016\200\372\346\276\375m\012\324F\201\256"
 189      0E80FAE6 
 189      BEFD6D0A 
 189      D44681AE 
 190 05ac 0D1A68CB 		.ascii	"\015\032h\313\374\025\354\340l#\005\272i\002\02216m"
 190      FC15ECE0 
 190      6C2305BA 
 190      69021231 
 190      366D
 191 05be 5330BF91 		.ascii	"S0\277\221Hk^S\374?\252\255\200\356\231\255\305\211"
 191      486B5E53 
 191      FC3FAAAD 
 191      80EE99AD 
 191      C589
 192 05d0 937751D3 		.ascii	"\223wQ\323\363N\367\027\013\361\255\032\265q\264s\355"
 192      F34EF717 
 192      0BF1AD1A 
 192      B571B473 
 192      ED
 193 05e1 B4E9F6DA 		.ascii	"\264\351\366\332F\2653\307o\326\016Q\277;1^\361\273"
 193      46B533C7 
 193      6FD60E51 
 193      BF3B315E 
 193      F1BB
 194 05f3 15E3515E 		.ascii	"\025\343Q^\214\225{\353\335\212\361\251.\306N*\306\242"
 194      8C957BEB 
 194      DD8AF1A9 
 194      2EC64E2A 
 194      C6A2
 195 0605 2F418CE5 		.ascii	"/A\214\345\256\305\030m\020\203\034Y\374\265\236\015"
 195      AEC5186D 
 195      10831C59 
 195      FCB59E0D 
 196 0615 4D5F45F5 		.ascii	"M_E\365\2717\213\204\237\367\204\257r;\265T\347A\034"
ARM GAS  /tmp/ccYYFCRY.s 			page 15


 196      B9378B84 
 196      9FF784AF 
 196      723BB554 
 196      E7411C
 197 0628 64D5F976 		.ascii	"d\325\371vij\352\316\301\345\332i\007;\303n\241\274"
 197      696AEACE 
 197      C1E5DA69 
 197      073BC36E 
 197      A1BC
 198 063a 93BE2E87 		.ascii	"\223\276.\207f\015o\321!:\0102\260\377\373\273\300j"
 198      660D6FD1 
 198      213A0832 
 198      B0FFFBBB 
 198      C06A
 199 064c 529B7EA5 		.ascii	"R\233~\245\037\305\320\363\325M\177'\334\361Cn\017O"
 199      1FC5D0F3 
 199      D54D7F27 
 199      DCF1436E 
 199      0F4F
 200 065e 5EBDA639 		.ascii	"^\275\2469\307A\352\034;\262\234\243\313<\00489K\350"
 200      C741EA1C 
 200      3BB29CA3 
 200      CB3C0438 
 200      394BE8
 201 0671 18AC1CE9 		.ascii	"\030\254\034\351G@\207\315>\346j\347\001>\326}G\363"
 201      474087CD 
 201      3EE66AE7 
 201      013ED67D 
 201      47F3
 202 0683 B1BC0712 		.ascii	"\261\274\007\022\372\031\335\271\216j<\207\236\377\034"
 202      FA19DDB9 
 202      8E6A3C87 
 202      9EFF1C
 203 0692 13C819DD 		.ascii	"\023\310\031\335q\2236\034\234l\364\320.\177\020\262"
 203      7193361C 
 203      9C6CF4D0 
 203      2E7F10B2 
 204 06a2 CEE80EEB 		.ascii	"\316\350\016\353gt\344\235\203\243\015\356\214N\304"
 204      6774E49D 
 204      83A30DEE 
 204      8C4EC4
 205 06b1 A7B0A0E1 		.ascii	"\247\260\240\341\016V\243\234\0213\014\002\264@f\324"
 205      0E56A39C 
 205      11330C02 
 205      B44066D4 
 206 06c1 D3C248A3 		.ascii	"\323\302H\243\366\257\273\326~\320\250\375T\337\241"
 206      F6AFBBD6 
 206      7ED0A8FD 
 206      54DFA1
 207 06d0 E598F06F 		.ascii	"\345\230\360oq\0323\331\270vI\037\217\036Y\250\251\276"
 207      711A33D9 
 207      B876491F 
 207      8F1E59A8 
 207      A9BE
 208 06e2 93AAFEAE 		.ascii	"\223\252\376\256\215\352'\333\001\011h~!\351\322\225"
 208      8DEA27DB 
 208      0109687E 
ARM GAS  /tmp/ccYYFCRY.s 			page 16


 208      21E9D295 
 209 06f2 A5FAEE93 		.ascii	"\245\372\356\223\272\352\273\034\251\376\224\245\352"
 209      BAEABB1C 
 209      A9FE94A5 
 209      EA
 210 06ff BBDCAB5E 		.ascii	"\273\334\253^\303;\2359\036\025\361\031\327`\301\\v"
 210      C33B9D39 
 210      1E15F119 
 210      D760C15C 
 210      76
 211 0710 EC32D8F1 		.ascii	"\3542\330\361\003j\307n\260\243\210{xk.+4Y\223S\235"
 211      036AC76E 
 211      B0A3887B 
 211      786B2E2B 
 211      34599353 
 212 0725 56B4DD2B 		.ascii	"V\264\335+\253\251\206#\374\030\272\316\214\347r\207"
 212      ABA98623 
 212      FC18BACE 
 212      8CE77287 
 213 0735 BBE20855 		.ascii	"\273\342\010U\011\033s\336r\015\026\344\300\332\027"
 213      091B73DE 
 213      720D16E4 
 213      C0DA17
 214 0744 34393A05 		.ascii	"49:\005T\261qU*\240m\224\356\025\263\277\364\265\034"
 214      54B17155 
 214      2AA06D94 
 214      EE15B3BF 
 214      F4B51C
 215 0757 7F49F397 		.ascii	"\177I\363\227+\016\374\005&\230\213\001\265\276Xw\334"
 215      2B0EFC05 
 215      26988B01 
 215      B5BE5877 
 215      DC
 216 0768 1B69D41C 		.ascii	"\033i\324\034\252\316\341-}W\337\307\024\216\255\262"
 216      AACEE12D 
 216      7D57DFC7 
 216      148EADB2 
 217 0778 7BCD7079 		.ascii	"{\315py7\001<\\\277t`\264;\305\260\210L\375q;\231bo"
 217      37013C5C 
 217      BF7460B4 
 217      3BC5B088 
 217      4CFD713B 
 218 078f 5099AA03 		.ascii	"P\231\252\003\346Y\201i\306\340\210W\014\216x\215:\342"
 218      E6598169 
 218      C6E08857 
 218      0C8E788D 
 218      3AE2
 219 07a1 C7D4113F 		.ascii	"\307\324\021?\241\371\247Fw\264\233\345\257\033W\347"
 219      A1F9A746 
 219      77B49BE5 
 219      AF1B57E7 
 220 07b1 2F07DCCA 		.ascii	"/\007\334\312\0354Y\307\216\314e#\231\272\200\003\337"
 220      1D3459C7 
 220      8ECC6523 
 220      99BA8003 
 220      DF
 221 07c2 B33F1081 		.ascii	"\263?\020\201q\375T\203\276\307b\327\017K"
ARM GAS  /tmp/ccYYFCRY.s 			page 17


 221      71FD5483 
 221      BEC762D7 
 221      0F4B
 222 07d0 5D23F2DE 		.ascii	"]#\362\336|c\001\267\"X\353\004n\262\005\203V\217\361"
 222      7C6301B7 
 222      2258EB04 
 222      6EB20583 
 222      568FF1
 223 07e3 F208E600 		.ascii	"\362\010\346\000\272\223:\211\211\201N\323\374,\315"
 223      BA933A89 
 223      89814ED3 
 223      FC2CCD
 224 07f2 3FA2790B 		.ascii	"?\242y\0135\334Z\232\277A\363\3654\337J\363wi\236\242"
 224      35DC5A9A 
 224      BF41F3F5 
 224      34DF4AF3 
 224      77699EA2 
 225 0806 F9519A9F 		.ascii	"\371Q\232\237\245\371\237h~\201\346\227h~\233\346\237"
 225      A5F99F68 
 225      7E81E697 
 225      687E9BE6 
 225      9F
 226 0817 3B7180C3 		.ascii	";q\200\303\374Mu\372\332\217]!#\323\315\337\333&\247"
 226      FC4D75FA 
 226      DA8F5D21 
 226      23D3CDDF 
 226      DB26A7
 227 082a D445EC13 		.ascii	"\324E\354\023\254n\376\336Y\274\373\241%\352\036v\337"
 227      AC6EFEDE 
 227      59BCFBA1 
 227      25EA1E76 
 227      DF
 228 083b 6DBAFA23 		.ascii	"m\272\372#t\355x\372B\310\276K\336aC\271\337\222\362"
 228      74ED78FA 
 228      42C8BE4B 
 228      DE6143B9 
 228      DF92F2
 229 084e 92DFBCF7 		.ascii	"\222\337\274\367d\323Fu\316\313j\377\300\013\330\005"
 229      64D34675 
 229      CECB6AFF 
 229      C00BD805 
 230 085e 69D5937D 		.ascii	"i\325\223}\343\257\225\235\257\357z\333>\374\2676z\335"
 230      E3AF959D 
 230      AFEF7ADB 
 230      3EFCB736 
 230      7ADD
 231 0870 50EB21EE 		.ascii	"P\353!\356\3316\304\034\312\005\246\365]\001\277\276"
 231      D936C41C 
 231      CA05A6F5 
 231      5D01BFBE 
 232 0880 2B08640A 		.ascii	"+\010d\012\231\253\2454O\235\3146\326\227\313\344W\005"
 232      99ABA534 
 232      4F9DCC36 
 232      D697CBE4 
 232      5705
 233 0892 397803CD 		.ascii	"9x\003\315|\263\225\3626\317C|}k\026oo`\323]\210\351"
 233      7CB395F2 
ARM GAS  /tmp/ccYYFCRY.s 			page 18


 233      36CF437C 
 233      7D6B166F 
 233      6F60D35D 
 234 08a8 C70C26ED 		.ascii	"\307\014&\355d;\311\256!\326\246z\305c\351$gv=h\347"
 234      643BC9AE 
 234      21D6A67A 
 234      C563E924 
 234      67763D68 
 235 08bd 24AD392E 		.ascii	"$\2559.\312\027\230-E\314\232\307}\217\331p\266\220"
 235      CA17982D 
 235      45CC9AC7 
 235      7D8FD970 
 235      B690
 236 08cf E7EC5FD0 		.ascii	"\347\354_\320*u\003\371\305\301\345\032\334\2406\037"
 236      2A7503F9 
 236      C5C1E51A 
 236      DCA0361F 
 237 08df 80F96660 		.ascii	"\200\371f`\000?\254\375\276\011F\361\264\312S\271.\237"
 237      003FACFD 
 237      BE0946F1 
 237      B4CA53B9 
 237      2E9F
 238 08f1 B2EF91F4 		.ascii	"\262\357\221\364'\203\304\335<\211\3705\317}\310\372"
 238      2783C4DD 
 238      3C89F835 
 238      CF7DC8FA 
 239 0901 11D0B92C 		.ascii	"\021\320\271,\346E\374z\206q\3024Qg\367\300>\\\237a"
 239      E645FC7A 
 239      8671C234 
 239      5167F7C0 
 239      3E5C9F61 
 240 0915 DAEA66CE 		.ascii	"\332\352f\316\243s9\036\031\026\203\177\321\357\312"
 240      A373391E 
 240      1916837F 
 240      D1EFCA
 241 0924 1B3D64FE 		.ascii	"\033=d\3769o\"\227\027H@Wi\227e\236\254u\370\276\027"
 241      396F2297 
 241      17484057 
 241      6997659E 
 241      AC75F8BE 
 242 0939 B5C99DBC 		.ascii	"\265\311\235\274\313?\2717\235\266]\307\366\244\247"
 242      CB3FB937 
 242      9DB65DC7 
 242      F6A4A7
 243 0948 CD6F1878 		.ascii	"\315o\030x?w\352C\215\367\225\224\367[\371y\347\201"
 243      3F77EA43 
 243      8DF79594 
 243      F75BF979 
 243      E781
 244 095a 04A41691 		.ascii	"\004\244\026\221.\253\263y?9G\343}\265#\336\377p\202"
 244      2EABB379 
 244      3F3947E3 
 244      7DB523DE 
 244      FF7082
 245 096d F1AE2F4D 		.ascii	"\361\256/M\026\244q\007\26749\311\016R\331<\367\272"
 245      16A47107 
 245      B73439C9 
ARM GAS  /tmp/ccYYFCRY.s 			page 19


 245      0E52D93C 
 245      F7BA
 246 097f 19CCD5C2 		.ascii	"\031\314\325\302DM\235e`\027\350\217!\232\\\203\005"
 246      444D9D65 
 246      6017E88F 
 246      219A5C83 
 246      05
 247 0990 39CEBAEB 		.ascii	"9\316\272\353\371_4\2648\301\313q\320y\375\204\341\240"
 247      F95F34B4 
 247      38C1CB71 
 247      D079FD84 
 247      E1A0
 248 09a2 73BD6B30 		.ascii	"s\275k0\236\271\333F\260MN\300\254N\035\255\036\243"
 248      9EB9DB46 
 248      B04D4EC0 
 248      AC4E1DAD 
 248      1EA3
 249 09b4 9388788D 		.ascii	"\223\210x\215\207\314\347k=t\306\246y+\315\327\323\374"
 249      87CCE76B 
 249      3D74C6A6 
 249      792BCDD7 
 249      D3FC
 250 09c6 6D9AB779 		.ascii	"m\232\267y\270}A{\221\036%\226\256\230\317%\324\324"
 250      B87D417B 
 250      911E2596 
 250      AE98CF25 
 250      D4D4
 251 09d8 16FBF0B0 		.ascii	"\026\373\360\260ZUBh_\254\306/R\037\336D\303\343wEy"
 251      5A554268 
 251      5FACC62F 
 251      521FDE44 
 251      C3E37745 
 252 09ed C3C3BC6E 		.ascii	"\303\303\274n\357\244]\266f\205G\367\027\265Zxlu\020"
 252      EFA45DB6 
 252      668547F7 
 252      17B55A78 
 252      6C7510
 253 0a00 1E35A9DE 		.ascii	"\0365\251\336W\235\355\033\232\323\364\377\311 \310"
 253      579DED1B 
 253      9AD3F4FF 
 253      C920C8
 254 0a0f B90FF40D 		.ascii	"\271\017\364\015\353\273T\220\353\371\005\341\201 \316"
 254      EBBB5490 
 254      EBF905E1 
 254      8120CE
 255 0a1e 8B49975D 		.ascii	"\213I\227]\331\202|\242\013\262\313\221 \333_\325\275"
 255      D9827CA2 
 255      0BB2CB91 
 255      20DB5FD5 
 255      BD
 256 0a2f 7F079D47 		.ascii	"\177\007\235G\027\246q\007\267a\335\301.\200\031\330"
 256      17A67107 
 256      B761DDC1 
 256      2E8019D8 
 257 0a3f 12D760BC 		.ascii	"\022\327`\274\367\267\037u{$\325\273t\353c\364H\252"
 257      F7B71F75 
 257      7B24D5BB 
ARM GAS  /tmp/ccYYFCRY.s 			page 20


 257      74EB63F4 
 257      48AA
 258 0a51 83AE5856 		.ascii	"\203\256XV\025\177)GR\353\235\310a\277\221\002\253|"
 258      157F2947 
 258      52EB9DC8 
 258      61BF9102 
 258      AB7C
 259 0a63 AAADF4ED 		.ascii	"\252\255\364\355\177W\233s\372\375\275\305r.\357\017"
 259      7F579B73 
 259      FAFDBDC5 
 259      722EEF0F 
 260 0a73 38D32AE9 		.ascii	"8\323*\351\252\326~\231t\210Ze\263I)\246\205\027\241"
 260      AAD67E99 
 260      74885A65 
 260      B34929A6 
 260      8517A1
 261 0a86 65C7C731 		.ascii	"e\307\3071\217\345:\300\352\035\014\020\256\265\306"
 261      8FE53AC0 
 261      EA1D0C10 
 261      AEB5C6
 262 0a95 591FB4F6 		.ascii	"Y\037\264\366Y\213\276?\242\373\231}N\000\255Ff\253"
 262      598BBE3F 
 262      A2FB997D 
 262      4E00AD46 
 262      66AB
 263 0aa7 C7183CB0 		.ascii	"\307\030<\260\033\241\343\337{t\234\373\035\315\367"
 263      1BA1E3DF 
 263      7B749CFB 
 263      1DCDF7
 264 0ab6 D1FC20CD 		.ascii	"\321\374 \315Ox\034\354@\210\313\247\261\367x\004m\234"
 264      4F781CEC 
 264      4088CBA7 
 264      B1F77804 
 264      6D9C
 265 0ac8 195C18DD 		.ascii	"\031\\\030\335\313\204\221\210\367\272\006\343\024\231"
 265      CB849188 
 265      F7BA06E3 
 265      1499
 266 0ad6 5A78423F 		.ascii	"ZxB?\201!Q!\342\367\235\340\3458\027\320.\337Y\210\375"
 266      81215121 
 266      E2F79DE0 
 266      E53817D0 
 266      2EDF5988 
 267 0aeb BE18BB04 		.ascii	"\276\030\273\004\013\3462\312V\203Q~K\215\262\235\232"
 267      0BE632CA 
 267      5683517E 
 267      4B8DB29D 
 267      9A
 268 0afc E024CD4F 		.ascii	"\340$\315O\321\3744?\021\235-6MD\374\240o5/\032\365"
 268      D1FC343F 
 268      119D2D36 
 268      4D44FCA0 
 268      6F352F1A 
 269 0b11 A3A6769E 		.ascii	"\243\246v\236\006y\234\037\364^\326\017z\317\321\301"
 269      06799C1F 
 269      F45ED60F 
 269      7ACFD1C1 
ARM GAS  /tmp/ccYYFCRY.s 			page 21


 270 0b21 BBBBD872 		.ascii	"\273\273\330r\360\316u\320\373\027\332\345|\366\"\355"
 270      F0CE75D0 
 270      FB17DAE5 
 270      7CF622ED 
 271 0b31 A2BE483B 		.ascii	"\242\276H;\237\177\360\236S\233\332\322\260.3\013\325"
 271      9F7FF09E 
 271      539BDAD2 
 271      B02E330B 
 271      D5
 272 0b42 A623B855 		.ascii	"\246#\270U\260\337np\327\230\375i>\\z\251\265\355\316"
 272      B0DF6E70 
 272      D798FD69 
 272      3E5C7AA9 
 272      B5EDCE
 273 0b55 1B6CD74D 		.ascii	"\033l\327Mm\327\303[j\336P\223\245\254\350\331\376R"
 273      6DD7C35B 
 273      6ADE5093 
 273      A5ACE8D9 
 273      FE52
 274 0b67 464D9D39 		.ascii	"FM\2359\315\034\331\251\255\266_\2731\201\316\006\027"
 274      CD1CD9A9 
 274      ADB65FBB 
 274      3181CE06 
 274      17
 275 0b78 A9A5760F 		.ascii	"\251\245v\017ui)z8e\262R\352\226\024d\265\016~,{\221"
 275      7569297A 
 275      3865B252 
 275      EA961464 
 275      B50E7E2C 
 276 0b8e 9EC7399F 		.ascii	"\236\3079\237\276\216~\244\335\250|Lc\353\330\320/e"
 276      BE8E7EA4 
 276      DDA87C4C 
 276      63EBD8D0 
 276      2F65
 277 0ba0 FA3A4B61 		.ascii	"\372:Ka\256|Yf\276b0\363Uj\346k\274\231\273\235\230"
 277      AE7C5966 
 277      BE6230F3 
 277      556AE66B 
 277      BC99BB9D 
 278 0bb5 D9EA84D7 		.ascii	"\331\352\204\327\232\3362\003\275&Jo\005\035\0066\322"
 278      9ADE3203 
 278      BD264A6F 
 278      051D0636 
 278      D2
 279 0bc6 BC93E617 		.ascii	"\274\223\346\027x\016\376\224V\234\345\026\217\236\030"
 279      780EFE94 
 279      569CE516 
 279      8F9E18
 280 0bd5 F25BCE66 		.ascii	"\362[\316f\262O\276\264\332\270\3454\356n\015g-\374"
 280      B24FBEB4 
 280      DAB8E534 
 280      EE6E0D67 
 280      2DFC
 281 0be7 4A8C40DD 		.ascii	"J\214@\335\364\270\375\207\316-\217\365?t\274i\011."
 281      F4B8FD87 
 281      CE2D8FF5 
 281      3F74BC69 
ARM GAS  /tmp/ccYYFCRY.s 			page 22


 281      092E
 282 0bf9 66499045 		.ascii	"fI\220E\3663^\202\015\251\236MG.\037\307\213T\325$\001"
 282      F6335E82 
 282      0DA99E4D 
 282      472E1FC7 
 282      8B54D524 
 283 0c0e B9F8E0B6 		.ascii	"\271\370\340\266\372\272\343\303P\223c\255\374\011\260"
 283      FABAE3C3 
 283      509363AD 
 283      FC09B0
 284 0c1d 9077492D 		.ascii	"\220wI-\342^:\233\3345\017f\273O\264\217\240\256|\327"
 284      E25E3A9B 
 284      DC350F66 
 284      BB4FB48F 
 284      A0AE7CD7 
 285 0c31 D982FA8B 		.ascii	"\331\202\372\213\003\354\350\232\014P\002\272M\305\277"
 285      03ECE89A 
 285      0C5002BA 
 285      4DC5BF
 286 0c40 3BE8F9B3 		.ascii	";\350\371\263\357*\2053-mv\330\234)\021\366\006<\206"
 286      EF2A8533 
 286      2D6D76D8 
 286      9C2911F6 
 286      063C86
 287 0c53 81B1CF35 		.ascii	"\201\261\3175\371 G\376\236D\026-\003t\271U]\342\000"
 287      F92047FE 
 287      9E44162D 
 287      0374B955 
 287      5DE200
 288 0c66 2BCF29BC 		.ascii	"+\317)\274\2165\3375V0+\234\230\035D|\217\006N?\315"
 288      8E35DF35 
 288      56302B9C 
 288      981D447C 
 288      8F064E3F 
 289 0c7b ABBD24AF 		.ascii	"\253\275$\257\365\346]\346\230\024\372\271\015'\004"
 289      F5E65DE6 
 289      9814FAB9 
 289      0D2704
 290 0c8a FF456F91 		.ascii	"\377Eo\221\211\266\326r2\317\250\301IY'\353f\"\236\353"
 290      89B6D672 
 290      32CFA8C1 
 290      495927EB 
 290      66229EEB 
 291 0c9e 751B662F 		.ascii	"u\033f/y\255\303\314\370\013\222L+\320o}\211)\352\262"
 291      79ADC3CC 
 291      F80B924C 
 291      2BD06F7D 
 291      8929EAB2 
 292 0cb2 9898E765 		.ascii	"\230\230\347eA7\036mR\347\245`&\270\015\301\237\266"
 292      41371E6D 
 292      52E7A560 
 292      26B80DC1 
 292      9FB6
 293 0cc4 DBFFA0BB 		.ascii	"\333\377\240\273j\243\012q\370\3471L\026\022\230\327"
 293      6AA30A71 
 293      F8E7314C 
 293      161298D7 
ARM GAS  /tmp/ccYYFCRY.s 			page 23


 294 0cd4 8FA5EECC 		.ascii	"\217\245\356\314m\202\255.,\302\373!,\231\332\004\324"
 294      6D82AD2E 
 294      2CC2FB21 
 294      2C99DA04 
 294      D4
 295 0ce5 6426C647 		.ascii	"d&\306G\026=j\004j\017\241u%Mj\241\201\352d\206\300"
 295      163D6A04 
 295      6A0FA175 
 295      254D6AA1 
 295      81EA6486 
 296 0cfa 4CC848A6 		.ascii	"L\310H\246z;\260\325\237\030\203\215\374\377tf\351\024"
 296      7A3BB0D5 
 296      9F18838D 
 296      FCFF7466 
 296      E914
 297 0d0c 86691416 		.ascii	"\206i\024\026\272Vj\275\215RKr:\216\210\3532\376\360"
 297      BA566ABD 
 297      8D524B72 
 297      3A8E88EB 
 297      32FEF0
 298 0d1f 10DA0622 		.ascii	"\020\332\006\"5N\316\220g\216Hz\2608d.i\374N\234\223"
 298      354ECE90 
 298      678E487A 
 298      B038642E 
 298      69FC4E9C 
 299 0d34 C83A4F4D 		.ascii	"\310:OM\365\373X5\377\237+\215.\323\241\356|&\177m\310"
 299      F5FB5835 
 299      FF9F2B8D 
 299      2ED3A1EE 
 299      7C267F6D 
 300 0d49 182B8BBF 		.ascii	"\030+\213\277\327\274\326\377~d\007\211v\275^\267\355"
 300      D7BCD6FF 
 300      7E640789 
 300      76BD5EB7 
 300      ED
 301 0d5a A5E6D847 		.ascii	"\245\346\330G-\266\355u3\007\207\215\266\275\310M\203"
 301      2DB6ED75 
 301      3307878D 
 301      B6BDC84D 
 301      83
 302 0d6b 5DAF25B6 		.ascii	"]\257%\266\275\016\345\030\016\227\332\366\332\237\243"
 302      BD0EE518 
 302      0E97DAF6 
 302      DA9FA3
 303 0d7a D732DB5E 		.ascii	"\3272\333^\273r\364Z\236\351\245\375\303p\311on\374"
 303      BB72F45A 
 303      9EE9A5FD 
 303      C370C96F 
 303      6EFC
 304 0d8c B88DFCCD 		.ascii	"\270\215\374\315\200\334{T\317\371\241i\247\334\231"
 304      80DC7B54 
 304      CFF9A169 
 304      A7DC99
 305 0d9b E33C7D85 		.ascii	"\343<}\2057\373\322e\177\011\277\216\322\376\300W\243"
 305      37FBD265 
 305      7F09BF8E 
 305      D2FEC057 
ARM GAS  /tmp/ccYYFCRY.s 			page 24


 305      A3
 306 0dac 6E7C530D 		.ascii	"n|S\015\350\367\020\260\270\360\346\374\233\341J\257"
 306      E8F710B0 
 306      B8F0E6FC 
 306      9BE14AAF 
 307 0dbc D5DF0CCF 		.ascii	"\325\337\014\317\320\315\025\371[\330nud!3\205\200:"
 307      D0CD15F9 
 307      5BD86E75 
 307      64213385 
 307      803A
 308 0dce 73533C8C 		.ascii	"sS<\214\231S\257\312Mq5O\321\244\322\0059\034l\215a"
 308      9953AFCA 
 308      4D71354F 
 308      D1A4D205 
 308      391C6C8D 
 309 0de3 F0F586CB 		.ascii	"\360\365\206\313Eyjiy\274R*\015\307#\263K#\322\214\322"
 309      45796A69 
 309      79BC522A 
 309      0DC723B3 
 309      4B23D28C 
 310 0df8 7079745A 		.ascii	"pytZ4\236,U\344\252\330\363\245P\220\225\322D\\V\222"
 310      349E2C55 
 310      E4AAD8F3 
 310      A5509095 
 310      D2445C56 
 311 0e0d A53FFCE9 		.ascii	"\245?\374\351\323S\236\236\005-+\023\321\012IN\226>"
 311      D3539E9E 
 311      052D2B13 
 311      D10A494E 
 311      963E
 312 0e1f 35650A34 		.ascii	"5e\0124Wf'\244\344\250rTP\231,\013)\276\247~\362\263"
 312      576627A4 
 312      E4A87254 
 312      50992C0B 
 312      29BEA77E 
 313 0e35 E014F448 		.ascii	"\340\024\364HiUR.\025\345\312\307c\361\230\364\270$"
 313      6955522E 
 313      15E5CAC7 
 313      63F198F4 
 313      B824
 314 0e47 4E8B9646 		.ascii	"N\213\226Fc\341\212\252\210T\232T\"\321\230\002=\374"
 314      63E18AAA 
 314      88549A54 
 314      22D19802 
 314      3DFC
 315 0e59 F0316E6C 		.ascii	"\3601nlH\031\237\243q\245\010\014\305\244\322PD\232"
 315      48199FA3 
 315      71A5080C 
 315      C5A4D250 
 315      449A
 316 0e6b 2E565528 		.ascii	".VU(!\235\\ \024\322\272\227\346\224@\221\222\012\221"
 316      219D5C20 
 316      14D2BA97 
 316      E6944091 
 316      920A91
 317 0e7e 817C0287 		.ascii	"\201|\002\207\243\302\310\247\224\313\222\030\301\211"
 317      A3C2C8A7 
ARM GAS  /tmp/ccYYFCRY.s 			page 25


 317      94CB9218 
 317      C189
 318 0e8c 62F83E26 		.ascii	"b\370>&$\315\222\302U\212\364\035\307(D\326\320\217"
 318      24CD92C2 
 318      558AF41D 
 318      C72844D6 
 318      D08F
 319 0e9e E2F18AFB 		.ascii	"\342\361\212\373C\344kHL&%Y\011%\245\237WI\261\2604"
 319      43E46B48 
 319      4C262559 
 319      0925A59F 
 319      5749B1B0 
 320 0eb3 8C564A95 		.ascii	"\214VJ\225Q\3405\376\274\024\033\347@\301\272\264\341"
 320      51E035FE 
 320      BC141BE7 
 320      40C1BAB4 
 320      E1
 321 0ec4 72C26239 		.ascii	"r\302b9\232\350\252OrvR\327J!\223-\244\004\302\345!"
 321      9AE8AA4F 
 321      727652D7 
 321      4A21932D 
 321      A404C2E5 
 322 0ed9 561EEF0E 		.ascii	"V\036\357\016+\\\036\001\034_\"\024\223f)\360\221\220"
 322      2B5C1E01 
 322      1C5F2214 
 322      936629F0 
 322      9190
 323 0eeb A5197E25 		.ascii	"\245\031~%!G\343!\245\260JS\371\220PH/\322&\321\270"
 323      2147E321 
 323      A5B04A53 
 323      F9905048 
 323      2FD226D1 
 324 0f00 3F1C8F29 		.ascii	"?\034\217)\320\343\011\327\356T\036\216\313\022\220"
 324      D0E309D7 
 324      EE541E8E 
 324      CB1290
 325 0f0f 2C22D5C4 		.ascii	",\"\325\304\246ae\326\017\006\207\022\2321\241\222("
 325      A66165D6 
 325      0F068712 
 325      9A31A192 
 325      28
 326 0f20 4196CAC0 		.ascii	"A\226\312\300\233B\212'9\346{\220&@\232\010\351\011"
 326      9B428A27 
 326      39E67B90 
 326      26409A08 
 326      E909
 327 0f32 4F72EC68 		.ascii	"Or\354hHc \215\2054\016\322xH\337\205\004\355\306B\273"
 327      4863208D 
 327      85340ED2 
 327      7848DF85 
 327      04EDC642 
 328 0f47 B1D06E2C 		.ascii	"\261\320n,\264\033\007\355\306\215\021\344\361\202\374"
 328      B41B07ED 
 328      C68D11E4 
 328      F182FC
 329 0f56 5D41FE9E 		.ascii	"]A\376\236 O\020\344\211\202\374\204G\0363\032\322\030"
 329      204F10E4 
ARM GAS  /tmp/ccYYFCRY.s 			page 26


 329      8982FC84 
 329      471E331A 
 329      D218
 330 0f68 A142868F 		.ascii	"\241B\206\217q\005\211\020p\353'\312\232)\311\360\031"
 330      71058910 
 330      70EB27CA 
 330      9A29C9F0 
 330      19
 331 0f79 AF884832 		.ascii	"\257\210H2Q\236X)\025*IET\244\220\342'\272\232\0106"
 331      519E5829 
 331      152A4945 
 331      54A490E2 
 331      27BA9A08 
 332 0f8e 615A8312 		.ascii	"aZ\203\022\264\244\357\374Je<\"\321\357\323+\304\262"
 332      B4A4EFFC 
 332      4A653C22 
 332      D1EFD32B 
 332      C4B2
 333 0fa0 A45F91A5 		.ascii	"\244_\221\245\351I\252TR\360\311\221\331\340\020\205"
 333      E949AA54 
 333      52F0C991 
 333      D9E01085 
 334 0fb0 D2ACA802 		.ascii	"\322\254\250\002\272\220|3\225\370\264\377N\024I3\244"
 334      BA907C33 
 334      95F8B4FF 
 334      4E144933 
 334      A4
 335 0fc1 98522926 		.ascii	"\230R)&\237\207\226\322LR\360$BU%\314\336\311PE\024"
 335      9F8796D2 
 335      4C52F024 
 335      425525CC 
 335      DEC95045 
 336 0fd6 1C501996 		.ascii	"\034P\031\226\366\000V\023H\204f\212Q%\032+\033\246"
 336      F6005613 
 336      4884668A 
 336      51251A2B 
 336      1BA6
 337 0fe8 5783C356 		.ascii	"W\203\303V\001\365\341\206\226\264jH\"\004di\261\200"
 337      01F5E186 
 337      96B46A48 
 337      22046469 
 337      B180
 338 0ffa 16A1424A 		.ascii	"\026\241BJH1"
 338      4831
 339 1000 88DBB282 		.ascii	"\210\333\262\202J\010\226Y.\235Z\231E\302\275\222\241"
 339      4A089659 
 339      2E9D5A99 
 339      45C2BD92 
 339      A1
 340 1011 C3677C66 		.ascii	"\303g|f\014\324E\221@\204J\352k\300\037\264#\234\016"
 340      0CD44591 
 340      40844AEA 
 340      6BC01FB4 
 340      239C0E
 341 1024 21D28B15 		.ascii	"!\322\213\025\324\255\2402\001\241V\034.\177:Y\366S"
 341      D4ADA032 
 341      01A1561C 
ARM GAS  /tmp/ccYYFCRY.s 			page 27


 341      2E7F3A59 
 341      F653
 342 1036 A9421293 		.ascii	"\251B\022\223R\200~\371O\020f\202+64\031\201\225\261"
 342      52807EF9 
 342      4F106682 
 342      2B363419 
 342      8195B1
 343 1049 74C4A988 		.ascii	"t\304\251\210N+-\013\207M#\317\370Q\023G\2157\016V0"
 343      4E2B2D0B 
 343      874D23CF 
 343      F8511347 
 343      8D370E56 
 344 105e F2908848 		.ascii	"\362\220\210HF\177A,\245L\257\212\205C\312}\341\362"
 344      467F412C 
 344      A54CAF8A 
 344      8543CA7D 
 344      E1F2
 345 1070 FF288F4C 		.ascii	"\377(\217L\001@Ez\026L\031\0153\256\236\005-\0113\305"
 345      0140457A 
 345      164C190D 
 345      33AE9E05 
 345      2D0933C5 
 346 1084 22502909 		.ascii	"\"P)\011K\251\222\205\"+\027\023\372\2635\373\014\205"
 346      4BA99285 
 346      222B1713 
 346      FAB335FB 
 346      0C85
 347 1096 EACC77BF 		.ascii	"\352\314w\277\314\224\343\223i8\025\310\324\261d\315"
 347      CC94E393 
 347      693815C8 
 347      D4B164CD 
 348 10a6 B164E658 		.ascii	"\261d\346X\001\250\255\222e0~\201L:\335?#*+UbEH\211"
 348      01A8AD92 
 348      65307E81 
 348      4C3ADD3F 
 348      232A2B55 
 349 10be 56C280AC 		.ascii	"V\302\200\254\001?\000\300\026/\206qu\314\352\\\225"
 349      013F00C0 
 349      162F8671 
 349      75CCEA5C 
 349      95
 350 10cf 7F86420D 		.ascii	"\177\206B\015A>I\324\007\010\323\360\002\342\036j\""
 350      413E49D4 
 350      0708D3F0 
 350      02E21E6A 
 350      22
 351 10e0 52852242 		.ascii	"R\205\"B\201\211O\332\220\222\217\264\025\345\"\370"
 351      81894FDA 
 351      90928FB4 
 351      15E522F8 
 352 10f0 A810930A 		.ascii	"\250\020\223\012i\016U\204\\\211&~D\232VU\306\274\321"
 352      690E5584 
 352      5C89267E 
 352      449A5655 
 352      C6BCD1
 353 1103 58134888 		.ascii	"X\023H\210\261h\230\370\226'2\255l\254;;\222 \037\256"
 353      B16898F8 
ARM GAS  /tmp/ccYYFCRY.s 			page 28


 353      962732AD 
 353      6CAC3B3B 
 353      92201FAE 
 354 1117 5486C222 		.ascii	"T\206\302\"\230P\006\345\307c\300\222\254\204c \276"
 354      985006E5 
 354      C763C092 
 354      AC846320 
 354      BE
 355 1128 2F3E7D7A 		.ascii	"/>}zRR\004\245R\010\227\3735\233\027\222A9\014\276\343"
 355      525204A5 
 355      520897FB 
 355      359B1792 
 355      41390CBE 
 356 113d 25915900 		.ascii	"%\221Y\000\357\253\022P'\312\021pE\2776\005\014I\210"
 356      EFAB1250 
 356      27CA1170 
 356      45BF3605 
 356      0C4988
 357 1150 8A22C931 		.ascii	"\212\"\3111\022r\332t1f\370(9\036\021\025q\224^1\354"
 357      1272DA74 
 357      3166F828 
 357      391E1115 
 357      71945E31 
 358 1165 69299914 		.ascii	"i)\231\024\313\244\344w\202\025\361x\0021GxJR\236\001"
 358      CBA4E477 
 358      8215F178 
 358      02314778 
 358      4A529E01 
 359 1179 B3C95165 		.ascii	"\263\311Qe\366sC\365\232g\245\212\351\317\375\015\230"
 359      F67343F5 
 359      9A67A58A 
 359      E9CFFD0D 
 359      98
 360 118a 97D6CA   		.ascii	"\227\326\312"
 361              		.text
 362              		.section	.gnu.lto_.symtab.e980e75c1c0ffdf9,"",%progbits
 363 0000 70617474 		.ascii	"patternmsg\000\000\000\000\000\000\000\000\000\000\000"
 363      65726E6D 
 363      73670000 
 363      00000000 
 363      00000000 
 364 0015 00F50100 		.ascii	"\000\365\001\000\000testmsg1\000\000\000\000\000\000"
 364      00746573 
 364      746D7367 
 364      31000000 
 364      000000
 365 0028 00000000 		.ascii	"\000\000\000\000\000\000\013\002\000\000wa\000\000\002"
 365      00000B02 
 365      00007761 
 365      000002
 366 0037 00000000 		.ascii	"\000\000\000\000\000\000\000\000\000\222\001\000\000"
 366      00000000 
 366      00920100 
 366      00
 367 0044 63680000 		.ascii	"ch\000\000\002\000\000\000\000\000\000\000\000\000\227"
 367      02000000 
 367      00000000 
ARM GAS  /tmp/ccYYFCRY.s 			page 29


 367      000097
 368 0053 01000074 		.ascii	"\001\000\000threads\000\000\002\000\000\000\000\000"
 368      68726561 
 368      64730000 
 368      02000000 
 368      0000
 369 0065 00000000 		.ascii	"\000\000\000\000\361\001\000\000_test_assert_sequen"
 369      F1010000 
 369      5F746573 
 369      745F6173 
 369      73657274 
 370 0080 63650000 		.ascii	"ce\000\000\002\000\000\000\000\000\000\000\000\000\275"
 370      02000000 
 370      00000000 
 370      0000BD
 371 008f 00000074 		.ascii	"\000\000\000test_emit_token\000\000\002\000\000\000"
 371      6573745F 
 371      656D6974 
 371      5F746F6B 
 371      656E0000 
 372 00a7 00000000 		.ascii	"\000\000\000\000\000\000\306\000\000\000chMsgReleas"
 372      0000C600 
 372      00006368 
 372      4D736752 
 372      656C6561 
 373 00bc 65000002 		.ascii	"e\000\000\002\000\000\000\000\000\000\000\000\000\312"
 373      00000000 
 373      00000000 
 373      00CA
 374 00ca 00000063 		.ascii	"\000\000\000chMsgWait\000\000\002\000\000\000\000\000"
 374      684D7367 
 374      57616974 
 374      00000200 
 374      00000000 
 375 00de 00000000 		.ascii	"\000\000\000\000|\001\000\000chThdCreateStatic\000\000"
 375      7C010000 
 375      63685468 
 375      64437265 
 375      61746553 
 376 00f9 02000000 		.ascii	"\002\000\000\000\000\000\000\000\000\000\177\001\000"
 376      00000000 
 376      00007F01 
 376      00
 377 0106 0063684D 		.ascii	"\000chMsgSend\000\000\002\000\000\000\000\000\000\000"
 377      73675365 
 377      6E640000 
 377      02000000 
 377      00000000 
 378 011a 00008D01 		.ascii	"\000\000\215\001\000\000"
 378      0000
 379              		.text
 380              		.section	.gnu.lto_.opts,"",%progbits
 381 0000 272D6D63 		.ascii	"'-mcpu=cortex-m4' '-mfloat-abi=hard' '-mfpu=fpv4-sp"
 381      70753D63 
 381      6F727465 
 381      782D6D34 
 381      2720272D 
ARM GAS  /tmp/ccYYFCRY.s 			page 30


 382 0033 2D643136 		.ascii	"-d16' '-mno-thumb-interwork' '-mthumb' '-O2' '-fomi"
 382      2720272D 
 382      6D6E6F2D 
 382      7468756D 
 382      622D696E 
 383 0066 742D6672 		.ascii	"t-frame-pointer' '-falign-functions=16' '-ffunction"
 383      616D652D 
 383      706F696E 
 383      74657227 
 383      20272D66 
 384 0099 2D736563 		.ascii	"-sections' '-fdata-sections' '-fno-common' '-flto' "
 384      74696F6E 
 384      73272027 
 384      2D666461 
 384      74612D73 
 385 00cc 272D6673 		.ascii	"'-fsingle-precision-constant'\000"
 385      696E676C 
 385      652D7072 
 385      65636973 
 385      696F6E2D 
 386              		.text
 387              		.section	.text.msg1_execute,"ax",%progbits
 388              		.align	2
 389              		.p2align 4,,15
 390              		.thumb
 391              		.thumb_func
 392              		.type	msg1_execute, %function
 393              	msg1_execute:
 394              		@ args = 0, pretend = 0, frame = 0
 395              		@ frame_needed = 0, uses_anonymous_args = 0
 396 0000 10B5     		push	{r4, lr}
 397 0002 184A     		ldr	r2, .L2
 398 0004 184B     		ldr	r3, .L2+4
 399 0006 9169     		ldr	r1, [r2, #24]
 400 0008 1868     		ldr	r0, [r3]
 401 000a 8A68     		ldr	r2, [r1, #8]
 402 000c 174B     		ldr	r3, .L2+8
 403 000e 82B0     		sub	sp, sp, #8
 404 0010 0132     		adds	r2, r2, #1
 405 0012 0091     		str	r1, [sp]
 406 0014 4FF4E871 		mov	r1, #464
 407 0018 FFF7FEFF 		bl	chThdCreateStatic
 408 001c 144B     		ldr	r3, .L2+12
 409 001e 1860     		str	r0, [r3]
 410 0020 FFF7FEFF 		bl	chMsgWait
 411 0024 046B     		ldr	r4, [r0, #48]
 412 0026 2146     		mov	r1, r4
 413 0028 FFF7FEFF 		bl	chMsgRelease
 414 002c E0B2     		uxtb	r0, r4
 415 002e FFF7FEFF 		bl	test_emit_token
 416 0032 FFF7FEFF 		bl	chMsgWait
 417 0036 046B     		ldr	r4, [r0, #48]
 418 0038 2146     		mov	r1, r4
 419 003a FFF7FEFF 		bl	chMsgRelease
 420 003e E0B2     		uxtb	r0, r4
 421 0040 FFF7FEFF 		bl	test_emit_token
 422 0044 FFF7FEFF 		bl	chMsgWait
ARM GAS  /tmp/ccYYFCRY.s 			page 31


 423 0048 046B     		ldr	r4, [r0, #48]
 424 004a 2146     		mov	r1, r4
 425 004c FFF7FEFF 		bl	chMsgRelease
 426 0050 E0B2     		uxtb	r0, r4
 427 0052 FFF7FEFF 		bl	test_emit_token
 428 0056 0749     		ldr	r1, .L2+16
 429 0058 0120     		movs	r0, #1
 430 005a 02B0     		add	sp, sp, #8
 431              		@ sp needed
 432 005c BDE81040 		pop	{r4, lr}
 433 0060 FFF7FEBF 		b	_test_assert_sequence
 434              	.L3:
 435              		.align	2
 436              	.L2:
 437 0064 00000000 		.word	ch
 438 0068 00000000 		.word	wa
 439 006c 00000000 		.word	thread
 440 0070 00000000 		.word	threads
 441 0074 00000000 		.word	.LC0
 442              		.size	msg1_execute, .-msg1_execute
 443 0078 AFF30080 		.section	.text.thread,"ax",%progbits
 443      AFF30080 
 444              		.align	2
 445              		.p2align 4,,15
 446              		.thumb
 447              		.thumb_func
 448              		.type	thread, %function
 449              	thread:
 450              		@ args = 0, pretend = 0, frame = 0
 451              		@ frame_needed = 0, uses_anonymous_args = 0
 452 0000 10B5     		push	{r4, lr}
 453 0002 4121     		movs	r1, #65
 454 0004 0446     		mov	r4, r0
 455 0006 FFF7FEFF 		bl	chMsgSend
 456 000a 2046     		mov	r0, r4
 457 000c 4221     		movs	r1, #66
 458 000e FFF7FEFF 		bl	chMsgSend
 459 0012 2046     		mov	r0, r4
 460 0014 4321     		movs	r1, #67
 461 0016 FFF7FEFF 		bl	chMsgSend
 462 001a 0020     		movs	r0, #0
 463 001c 10BD     		pop	{r4, pc}
 464              		.size	thread, .-thread
 465              		.global	patternmsg
 466              		.global	testmsg1
 467 001e 00BF     		.section	.rodata.testmsg1,"a",%progbits
 468              		.align	2
 469              		.type	testmsg1, %object
 470              		.size	testmsg1, 16
 471              	testmsg1:
 472 0000 04000000 		.word	.LC1
 473 0004 00000000 		.word	0
 474 0008 00000000 		.word	0
 475 000c 00000000 		.word	msg1_execute
 476              		.section	.rodata.str1.4,"aMS",%progbits,1
 477              		.align	2
 478              	.LC0:
ARM GAS  /tmp/ccYYFCRY.s 			page 32


 479 0000 41424300 		.ascii	"ABC\000"
 480              	.LC1:
 481 0004 4D657373 		.ascii	"Messages, loop\000"
 481      61676573 
 481      2C206C6F 
 481      6F7000
 482 0013 00       		.section	.rodata.patternmsg,"a",%progbits
 483              		.align	2
 484              		.type	patternmsg, %object
 485              		.size	patternmsg, 8
 486              	patternmsg:
 487 0000 00000000 		.word	testmsg1
 488 0004 00000000 		.word	0
 489              		.comm	__gnu_lto_v1,1,1
 490              		.ident	"GCC: (GNU Tools for ARM Embedded Processors) 4.8.4 20140526 (release) [ARM/embedded-4_8-br
ARM GAS  /tmp/ccYYFCRY.s 			page 33


DEFINED SYMBOLS
                            *ABS*:0000000000000000 testmsg.c
     /tmp/ccYYFCRY.s:388    .text.msg1_execute:0000000000000000 $t
     /tmp/ccYYFCRY.s:393    .text.msg1_execute:0000000000000000 msg1_execute
     /tmp/ccYYFCRY.s:437    .text.msg1_execute:0000000000000064 $d
     /tmp/ccYYFCRY.s:449    .text.thread:0000000000000000 thread
     /tmp/ccYYFCRY.s:444    .text.thread:0000000000000000 $t
     /tmp/ccYYFCRY.s:486    .rodata.patternmsg:0000000000000000 patternmsg
     /tmp/ccYYFCRY.s:471    .rodata.testmsg1:0000000000000000 testmsg1
     /tmp/ccYYFCRY.s:468    .rodata.testmsg1:0000000000000000 $d
     /tmp/ccYYFCRY.s:477    .rodata.str1.4:0000000000000000 $d
     /tmp/ccYYFCRY.s:483    .rodata.patternmsg:0000000000000000 $d
                            *COM*:0000000000000001 __gnu_lto_v1
     /tmp/ccYYFCRY.s:443    .text.msg1_execute:0000000000000078 $t

UNDEFINED SYMBOLS
chThdCreateStatic
chMsgWait
chMsgRelease
test_emit_token
_test_assert_sequence
ch
wa
threads
chMsgSend
