ARM GAS  /tmp/ccrnicAv.s 			page 1


   1              		.syntax unified
   2              		.cpu cortex-m4
   3              		.eabi_attribute 27, 3
   4              		.eabi_attribute 28, 1
   5              		.fpu fpv4-sp-d16
   6              		.eabi_attribute 20, 1
   7              		.eabi_attribute 21, 1
   8              		.eabi_attribute 23, 3
   9              		.eabi_attribute 24, 1
  10              		.eabi_attribute 25, 1
  11              		.eabi_attribute 26, 1
  12              		.eabi_attribute 30, 2
  13              		.eabi_attribute 34, 1
  14              		.eabi_attribute 18, 4
  15              		.thumb
  16              		.file	"testmtx.c"
  17              		.section	.gnu.lto_.jmpfuncs.e8a481c64be60343,"",%progbits
  18 0000 789CED96 		.ascii	"x\234\355\226;V\3030\020Eg\306\237\370\2238!\004Rp\216"
  18      3B56C330 
  18      104567C6 
  18      9FF89338 
  18      21045270 
  19 0015 D7427E7B 		.ascii	"\327B~{\240\247r\221\025\320\270d\011iX\020\035\013"
  19      A0A77291 
  19      15D0B864 
  19      09695810 
  19      1D0B
  20 0027 60012C80 		.ascii	"`\001,\200\212\006l+vd{$\313\242\240\301M\216\237\337"
  20      8A066C2B 
  20      76647B24 
  20      CBA2A0C1 
  20      4D8E9FDF 
  21 003b 95A5A7D1 		.ascii	"\225\245\247\3218\004\004\334\365\032\001\334\025\277"
  21      380404DC 
  21      F51A01DC 
  21      15BF
  22 0049 4B00A207 		.ascii	"K\000\242\007\314\260\364\321\023|\345\247|\221!\246"
  22      CCB0F4D1 
  22      137CE5A7 
  22      7C9121A6 
  23 0059 802FF9E9 		.ascii	"\200/\371\351>C\201\237=X\335`\345{.}\316QH^a\251\034"
  23      3E43819F 
  23      3D58DD60 
  23      E57B2E7D 
  23      CE51485E 
  24 0070 6F4E656F 		.ascii	"oNeo\014\356\2430\\\206\366R\010\304\320\276\005\032"
  24      0CEEA330 
  24      5C86F652 
  24      08C4D0BE 
  24      051A
  25 0082 DBA3893D 		.ascii	"\333\243\211=ze\217\256d\224I\316EFD\326\352w\254\310"
  25      7A658FAE 
  25      649449CE 
  25      454644D6 
  25      EA77ACC8 
  26 0096 5A2B35E0 		.ascii	"Z+5\340\370\220s2\276\210\023cNd\2452\233\311{\0140"
  26      F8907332 
ARM GAS  /tmp/ccrnicAv.s 			page 2


  26      BE881363 
  26      4E64A532 
  26      9BC97B0C 
  27 00ab 1D7E1F4A 		.ascii	"\035~\037J\310g\021\347\254)\265D\256\273\231d\373\230"
  27      C86711E7 
  27      AC29B544 
  27      AEBB9964 
  27      FB98
  28 00bd 34F25435 		.ascii	"4\362T5\211\363\363\230\307\"=\025\362T\240\230\275"
  28      89F3F398 
  28      C7223D15 
  28      F254A098 
  28      BD
  29 00ce AE1CD0BE 		.ascii	"\256\034\320\276\010I_\204\365\254&\362\215\317\317"
  29      08495F84 
  29      F5AC26F2 
  29      8DCFCF
  30 00dd DCD3AFD7 		.ascii	"\334\323\257\327\345)GO\021O\251\366x\\J\306\015\242"
  30      E529474F 
  30      114FA9F6 
  30      785C4AC6 
  30      0DA2
  31 00ef 9F52AB41 		.ascii	"\237R\253A$\255\230\344\2244+\363\272\331\214\012D\365"
  31      24AD98E4 
  31      94342BF3 
  31      BAD98C0A 
  31      44F5
  32 0101 5875D8E6 		.ascii	"Xu\330\346\222A\335\177[hp\304\356\313~-\351B\276(\243"
  32      9241DD7F 
  32      5B6870C4 
  32      EECB7E2D 
  32      E942BE28 
  33 0116 F7A78F1A 		.ascii	"\367\247\217\0327\360>j|v\372\250q\003\357\243\255\006"
  33      37F03E6A 
  33      7C76FAA8 
  33      7103EFA3 
  33      AD06
  34 0128 BE18EED6 		.ascii	"\276\030\356\326L\310\265q9\320Ck\364\332\320\2672l"
  34      4CC8B571 
  34      39D0436B 
  34      F4DAD0B7 
  34      326C
  35 013a E80C7A63 		.ascii	"\350\014zcVv\377\225b[)\267l\300a\012k\341\212\306\034"
  35      5676FF95 
  35      625B29B7 
  35      6CC0610A 
  35      6BE18AC6 
  36 014f 6BDD3CDC 		.ascii	"k\335<\334?\011\316\323\357\364\232\375\253\302\036"
  36      3F09CED3 
  36      EFF49AFD 
  36      ABC21E
  37 015e 1DEA2F57 		.ascii	"\035\352/W|U\276\213k>T\317\365\330\340o\266\273\375"
  37      7C55BE8B 
  37      6B3E54CF 
  37      F5D8E06F 
  37      B6BBFD
  38 0171 016803B4 		.ascii	"\001h\003\264\005\332\001\355\201\016\340\026*\374\000"
ARM GAS  /tmp/ccrnicAv.s 			page 3


  38      05DA01ED 
  38      810EE016 
  38      2AFC00
  39 0180 34ACFD75 		.ascii	"4\254\375u"
  40              		.text
  41              		.section	.gnu.lto_.inline.e8a481c64be60343,"",%progbits
  42 0000 789C6362 		.ascii	"x\234cb`b\300\006.\261@h!\006\206\023\014\263\030\031"
  42      6062C006 
  42      2EB14068 
  42      21068613 
  42      0CB31819 
  43 0014 1998741E 		.ascii	"\031\230t\036\\gb`[ \017V\317\314\303\000\322\310\302"
  43      5C676260 
  43      5B200F56 
  43      CFCCC300 
  43      D2C8C2
  44 0027 0BA226F8 		.ascii	"\013\242&\3701r\001\305\230\270\031\030\030\031\330"
  44      317201C5 
  44      98B81918 
  44      1819D8
  45 0036 05181858 		.ascii	"\005\030\030X'\370\001\005\031HfCL`a\340R\001\332\307"
  45      27F80105 
  45      19486643 
  45      4C6061E0 
  45      5201DAC7 
  46 004a F8829D81 		.ascii	"\370\202\235\201\275C\035l\035D\002LN\360\203p\330\210"
  46      BD431D6C 
  46      1D44024C 
  46      4EF08370 
  46      D888
  47 005c 52C5C1C0 		.ascii	"R\305\301\300\312\313\010\366\"\314\345\020qN\006v\011"
  47      CACB08F6 
  47      22CCE510 
  47      714E0676 
  47      09
  48 006d 6CE21092 		.ascii	"l\342\020\222\013\207.n\006Ne\334\272 $\017\021jx\031"
  48      0B872E6E 
  48      064E65DC 
  48      BA20240F 
  48      116A7819 
  49 0081 8E31DE04 		.ascii	"\2161\336\004\361\2260>\372\303\010W\010\016E\224 \205"
  49      F196303E 
  49      FAC30857 
  49      080E4594 
  49      2085
  50 0093 71A00183 		.ascii	"q\240\001\203\031\332\330\025\020\346\341\212\001b\235"
  50      19DAD815 
  50      10E6E18A 
  50      01629D
  51 00a2 401BDBF9 		.ascii	"@\033\333\371\030\2162\030\000\203\305\242%\025-\245"
  51      188E3218 
  51      0083C5A2 
  51      25152DA5 
  52 00b2 4DF0C3E3 		.ascii	"M\360\303\343yt\032U\026d\000:\217\037\230\250\367\200"
  52      79741A55 
  52      1664003A 
  52      8F1F98A8 
ARM GAS  /tmp/ccrnicAv.s 			page 4


  52      F780
  53 00c4 12B5DA87 		.ascii	"\022\265\332\207\025\030\211\032l\003\2225\270HJR\272"
  53      1518891A 
  53      6C039235 
  53      B8484A52 
  53      BA
  54 00d5 00038F3E 		.ascii	"\000\003\217>\341\324\013!\205\360\246Ua\274\262\"D"
  54      E1D40B21 
  54      85F0A655 
  54      61BCB222 
  54      44
  55 00e6 A4465106 		.ascii	"\244FQ\006\333\026PX(]\350\304\036\026\224{W\214A\373"
  55      DB165058 
  55      285DE8C4 
  55      1E16947B 
  55      578C41FB 
  56 00fa 25C83EB1 		.ascii	"%\310>\261\017\253\031\361XA\274E\342\014\202\307\030"
  56      0FAB19F1 
  56      5841BC45 
  56      E20C82C7 
  56      18
  57 010b 7007202C 		.ascii	"p\007 ,\030\241V \3130\000\000\251\337l\217"
  57      18A15620 
  57      CB300000 
  57      A9DF6C8F 
  58              		.text
  59              		.section	.gnu.lto_.pureconst.e8a481c64be60343,"",%progbits
  60 0000 789C6362 		.ascii	"x\234cb`bPe\200\000!\006I\026I6I\016\011N\011.\011n"
  60      60625065 
  60      80002106 
  60      49164936 
  60      490E094E 
  61 0018 091E095E 		.ascii	"\011\036\011^+>+~+\001I!\011a\011\021\011QI1IqI\000"
  61      2B3E2B7E 
  61      2B014921 
  61      09610911 
  61      09514931 
  62 0030 3CFD034A 		.ascii	"<\375\003J"
  63              		.text
  64              		.section	.gnu.lto_mtx1_execute.e8a481c64be60343,"",%progbits
  65 0000 789CB596 		.ascii	"x\234\265\226\337KSQ\034\300\277\337s\357\334\017\327"
  65      DF4B5351 
  65      1CC0BFDF 
  65      73EFDC0F 
  65      D7
  66 0011 E6D2E6D4 		.ascii	"\346\322\346\324\232\211?\212\"/E\021\275\345\257\377"
  66      9A893F8A 
  66      222F4511 
  66      BDE5AFFF 
  67 0021 C0A01EF5 		.ascii	"\300\240\036\365N\334\255\246\342\246$=xM#\241\027\351"
  67      4EDCADA6 
  67      E2A6243D 
  67      784D23A1 
  67      17E9
  68 0033 490AA150 		.ascii	"I\012\241P{\210(\012\202\362I\362\305\010\233=$a\006"
  68      7B88280A 
  68      82F249F2 
ARM GAS  /tmp/ccrnicAv.s 			page 5


  68      C5089B3D 
  68      246106
  69 0046 7BD09E24 		.ascii	"{\320\236$\202 \242\027;\337sw\357\335t\033\015r\260"
  69      8220A217 
  69      3BDF7377 
  69      EFDD741B 
  69      0D72B0
  70 0059 73BFDFB3 		.ascii	"s\277\337\263\357\257\3639g\347{\0310\330\3759\303\277"
  70      EFAFF339 
  70      67E77B19 
  70      30D8FD39 
  70      C3BF
  71 006b C7DD00A3 		.ascii	"\307\335\000\243\374\211\016@6\365\001`\314\305\230"
  71      FC890E40 
  71      36F50160 
  71      CCC598
  72 007a BCA680EE 		.ascii	"\274\246\200\356\221\026\302\240{%\224\215i\031\221"
  72      9116C2A0 
  72      7B25948D 
  72      691991
  73 0089 04401865 		.ascii	"\004@\030e\222\214\243WP\004y\316\026S;;\317\356\335"
  73      928CA357 
  73      500479CE 
  73      16533B3B 
  73      CFEEDD
  74 009c 99DBC619 		.ascii	"\231\333\306\031vL\006\015\301\301\007t\362\201\271"
  74      764C060D 
  74      C1C10774 
  74      F281B9
  75 00ab 49F590EA 		.ascii	"I\365\220\352%\325G\252\237\324\000\251\345\244V\220"
  75      25D547AA 
  75      9FD400A9 
  75      E5A45690 
  76 00bb 1A243544 		.ascii	"\032$5Dj\025\2515\244\326\362A\252\243\241\236\324\006"
  76      6A15A935 
  76      A4D6F241 
  76      AAA3A19E 
  76      D406
  77 00cd 3EC88D24 		.ascii	">\310\215$5\221\304S;`B\327\247\216\002\250\242\224"
  77      3591C453 
  77      3B6042D7 
  77      A78E02A8 
  77      A294
  78 00df 4E3E5285 		.ascii	"N>R\205\227\220\321SZ\201[\353\033\353kg-3C\320g\037"
  78      9790D153 
  78      5A815BEB 
  78      1BEB6B67 
  78      2D3343D0 
  79 00f5 2B19BE86 		.ascii	"+\031\276\206\260\370~\353\205\004\320\205\2178\010"
  79      B0F87EEB 
  79      8504D085 
  79      8F3808
  80 0104 15453C15 		.ascii	"\025E<\025\005\262^\254?\011Ot]O}z5\177\202\24774\375"
  80      05B25EAC 
  80      3F094F74 
  80      5D4F7D7A 
  80      357F82A7 
ARM GAS  /tmp/ccrnicAv.s 			page 6


  81 011b 82868E07 		.ascii	"\202\206\216\007p\177L\327\3134,\271\011\177\364I\222"
  81      707F4CD7 
  81      CB342CB9 
  81      097FF449 
  81      92
  82 012c 9C31E17C 		.ascii	"\2341\341|\031\271(\000u\223\336\205\263<0\227\321\222"
  82      19B92800 
  82      7593DE85 
  82      B33C3097 
  82      D192
  83 013e 01A8C0E9 		.ascii	"\001\250\300\351\227\325]8\307\365^lH\007\216\363\325"
  83      97D55D38 
  83      C7F55E6C 
  83      48078EF3 
  83      D5
  84 014f 59815D3C 		.ascii	"Y\201]<=\305b\351X\214\374\347\015\377$L\374x\373f\300"
  84      3DC562E9 
  84      588CFCE7 
  84      0DFF244C 
  84      FC78FB66 
  85 0164 281AC02A 		.ascii	"(\032\300*\301\255\242$\314i\306\245\241'\206\2306\322"
  85      C1ADA224 
  85      CC69C6A5 
  85      A1278698 
  85      36D2
  86 0176 B054E4DD 		.ascii	"\260T\344\335x\375sY6\346zQ>\005O\311\317KY\247H:@\236"
  86      78FD7359 
  86      36E67A51 
  86      3E054FC9 
  86      CF4B59A7 
  87 018e D324F962 		.ascii	"\323$\371b\"5\225\340\003sa\376\214C\264\002\343\223"
  87      223595E0 
  87      037361FE 
  87      8C43B402 
  87      E393
  88 01a0 9219C9C1 		.ascii	"\222\031\311\301WA\006\002`\022B\346\274\323\252\255"
  88      57410602 
  88      601242E6 
  88      BCD3AAAD 
  89 01b0 4C155B47 		.ascii	"L\025[GXe\262\014\254J\344\227\256\364\240\212\216t"
  89      5865B20C 
  89      AC4AE497 
  89      AEF4A08A 
  89      8E74
  90 01c2 A53413D2 		.ascii	"\2454\023\322\260<\014Wg\364\351\213\032V\200\265\206"
  90      B03C0C57 
  90      67F4E98B 
  90      1A5680B5 
  90      86
  91 01d3 43620DEF 		.ascii	"Cb\015\357V\235\306\014\225\317?\3478%\213[\320\312"
  91      569DC60C 
  91      95CF3FE7 
  91      38258B5B 
  91      D0CA
  92 01e5 58191334 		.ascii	"X\031\0234(Ye\216\025\364\3226\021\221\317\031D\334"
  92      2859658E 
  92      15F4D236 
ARM GAS  /tmp/ccrnicAv.s 			page 7


  92      1191CF19 
  92      44DC
  93 01f7 4513C13C 		.ascii	"E\023\301<D<&\021\226M\304\233\213\210\333&\342)D$\266"
  93      443C2611 
  93      964DC49B 
  93      8B88DB26 
  93      E2294424 
  94 020c 1F44D026 		.ascii	"\037D\320&\3425\210\374\316 \342+\232\010\313C\304o"
  94      E23588FC 
  94      CE20E22B 
  94      9A08CB43 
  94      C46F
  95 021e 1291B289 		.ascii	"\022\221\262\211\004r\021\361\331D\374\205\210\014\354"
  95      047211F1 
  95      D944FC85 
  95      880CEC
  96 022d 07116613 		.ascii	"\007\021f\023\011\030D\246\177\331D\312\213&\"\345!"
  96      091844A6 
  96      7FD944CA 
  96      8B2622E5 
  96      21
  97 023e 52611291 		.ascii	"Ra\022\221\263\211\004s\021)\267\211T\024\"\022\337"
  97      B3890473 
  97      1129B789 
  97      54142212 
  97      DF
  98 024f 0F22924D 		.ascii	"\017\"\222M$\230\276G2\210\204\212&\"\347!Re\022qd\023"
  98      2498BE47 
  98      3288848A 
  98      2622E721 
  98      52651271 
  99 0265 A9C94524 		.ascii	"\251\311E$d\023\251*Ddx?\210\3106\221\032q#\247\326"
  99      6413A92A 
  99      4464783F 
  99      88C83691 
  99      1A7123A7 
 100 027a 979CB96E 		.ascii	"\227\234\271n\344\022a\225\347FN\302x\352\313x\351\036"
 100      E4126195 
 100      E7464EC2 
 100      78EACB78 
 100      E91E
 101 028c BF909A6E 		.ascii	"\277\220\232n\"\032V\031\375\342\237\033\332\335\357"
 101      221A5619 
 101      FDE29F1B 
 101      DADDEF
 102 029b A7F3F5B3 		.ascii	"\247\363\365\263\306\377\321\31763\372\331\346\256~"
 102      C6FFD1CF 
 102      3633FAD9 
 102      E6AE7E
 103 02aa B62536AB 		.ascii	"\266%6\253)O?k\334\323\317\276\231\376\343\311%^\267"
 103      294F3F6B 
 103      DCD3CFBE 
 103      99FEE3C9 
 103      255EB7
 104 02bd B9DBB5FC 		.ascii	"\271\333\265\374\024\3600\204\307a\316\325Y\205U\253"
 104      14F03084 
 104      C761CED5 
ARM GAS  /tmp/ccrnicAv.s 			page 8


 104      598555AB 
 105 02cd E8B2F621 		.ascii	"\350\262\366!\200d\257\321\036,\303\3046Z\346\364c\306"
 105      8064AFD1 
 105      1E2CC3C4 
 105      365AE6F4 
 105      63C6
 106 02df FF8EDE0E 		.ascii	"\377\216\336\016$X\010KI\270\375\360\253\264\007\370"
 106      2458084B 
 106      49B8FDF0 
 106      ABB407F8 
 107 02ef 6115DD76 		.ascii	"a\025\335vPf\236\236#a\0301NO\330>=\265f@Y\274n|\344"
 107      50669E9E 
 107      23611831 
 107      4E4FD83E 
 107      3DB56640 
 108 0308 EF48769A 		.ascii	"\357Hv\232NN\206\317\3222\025%\332\037\353Q\324\376"
 108      4E4E86CF 
 108      D2321525 
 108      DA1FEB51 
 108      D4FE
 109 031a C88812E9 		.ascii	"\310\210\022\351\031V\324\250\326\255\365\307\225\304"
 109      1956D4A8 
 109      D6ADF5C7 
 109      95C4
 110 0328 E050DF35 		.ascii	"\340P\3375%\321\023O(\203\011\361\214%n4\253p\276\240"
 110      25D1134F 
 110      288309F1 
 110      8C256E34 
 110      AB70BEA0 
 111 033c 3D17B8B5 		.ascii	"=\027\270\265\326\247^\037\212p\243h\":\330\323\025"
 111      D6A75E1F 
 111      8A70A368 
 111      223AD8D3 
 111      15
 112 034d 89374781 		.ascii	"\2117G\201u\000k\007\326\006\254\025X\013\224\264\264"
 112      75006B07 
 112      D606AC15 
 112      580B94B4 
 112      B4
 113 035e B6B577C0 		.ascii	"\266\265w\300_\235H/*"
 113      5F9D482F 
 113      2A
 114              		.text
 115              		.section	.gnu.lto_thread1.e8a481c64be60343,"",%progbits
 116 0000 789C7D50 		.ascii	"x\234}P\261J\003A\024\234\331\275\363R\332\332ik\341"
 116      B14A0341 
 116      149CD9BD 
 116      F352DADA 
 116      696BE1
 117 0013 927F89A0 		.ascii	"\222\177\211\240\245n\216d\221\363 9E\261\310EO\260"
 117      A56E8E64 
 117      91F32039 
 117      45B1C845 
 117      4FB0
 118 0025 11529B42 		.ascii	"\021R\233B\374\001\355\025E\020\3544\370\007\367\015"
 118      FC01ED15 
 118      4510EC34 
ARM GAS  /tmp/ccrnicAv.s 			page 9


 118      F807F70D 
 119 0035 A61321BE 		.ascii	"\246\023!\276\275\213\215\212\013\273\263\373\336\274"
 119      BD8B8D8A 
 119      0BBBB3FB 
 119      DEBC
 120 0043 F7665641 		.ascii	"\367fVA\341\347Z\222\275B\240)H\015\252\321+0l(\322"
 120      E1E75A92 
 120      BD42A029 
 120      480DAAD1 
 120      2B306C28 
 121 0058 5F400C14 		.ascii	"_@\014\024\007\233\254\2707\352\261\234\315\256\337"
 121      079BACB8 
 121      37EAB19C 
 121      CDAEDF
 122 0067 9F2F3F39 		.ascii	"\237/?9V\221fB\004pU2D\221\347\243e\300V\317\226\234"
 122      56916642 
 122      04705532 
 122      4491E7A3 
 122      65C056CF 
 123 007d BEC13A95 		.ascii	"\276\301:\225G=AQ\336\235D[\274b(\351#|\344g\371\242"
 123      473D4151 
 123      DE9D445B 
 123      BC6228E9 
 123      237CE467 
 124 0093 232DEBDE 		.ascii	"#-\353\336>\322pT\0119'9\221\203\027\034\337\236N\317"
 124      3ED27054 
 124      09392739 
 124      9183171C 
 124      DF9E4ECF 
 125 00a7 57EB5887 		.ascii	"W\353X\207\301\030\027\224\211\035\352\015\301`\356"
 125      C1181794 
 125      891DEA0D 
 125      C160EE
 126 00b6 6282E057 		.ascii	"b\202\340W\353\320\262\266+U\216\013\236T\224\367O\177"
 126      EBD0B2B6 
 126      2B558E0B 
 126      9E5494F7 
 126      4F7F
 127 00c8 6AD0FF69 		.ascii	"j\320\377ix\303\260|\260u\304\017\215\276\377\256%\332"
 127      78C3B07C 
 127      B075C40F 
 127      8DBEFFAE 
 127      25DA
 128 00da C59C9F62 		.ascii	"\305\234\237bL7Mbc\323\366\241i\307\373\306v\335\266"
 128      4C374D62 
 128      63D3F6A1 
 128      69C7FBC6 
 128      76DDB6
 129 00ed 4BFB26EB 		.ascii	"K\373&\353\355\355\356\230,\356g\246\227U\230d\007k"
 129      EDEDEE98 
 129      2CEE67A6 
 129      97559864 
 129      076B
 130 00ff 165F6538 		.ascii	"\026_e8V/"
 130      562F
 131              		.text
 132              		.section	.gnu.lto_thread12.e8a481c64be60343,"",%progbits
ARM GAS  /tmp/ccrnicAv.s 			page 10


 133 0000 789C7D50 		.ascii	"x\234}P\261N\3030\024\274s\034\332\201\201\225\215\201"
 133      B14EC330 
 133      14BC731C 
 133      DA818195 
 133      8D81
 134 0012 198B7F29 		.ascii	"\031\213\177)\022\214\340F\255\205B\252\326\240\"\206"
 134      128CE046 
 134      AD8542AA 
 134      D6A02286 
 135 0022 A628488C 		.ascii	"\246(H\214\235a@\025\023 \301\220\255S\207\256\245\342"
 135      9D614015 
 135      1320C190 
 135      AD5387AE 
 135      A5E2
 136 0034 0F32F523 		.ascii	"\0172\365#X\212\235\224\005\020\226\354\263\337\273"
 136      588A9D94 
 136      051096EC 
 136      B3DFBB
 137 0043 F7DE9D05 		.ascii	"\367\336\235\005\004~\256m\267w\011\354;d\000\212\321"
 137      047EAE6D 
 137      B77709EC 
 137      3B64008A 
 137      D1
 138 0054 3B30AC0B 		.ascii	";0\254\013\322_@\014\004\007G,\271obZ\254V\257\223\345"
 138      D25F400C 
 138      0407472C 
 138      B96F625A 
 138      AC56AF93 
 139 0069 74C6975C 		.ascii	"t\306\227\\\326\002\306\204\204)\263!\2624\035\355\000"
 139      D602C684 
 139      8429B321 
 139      B2341DED 
 139      00
 140 007a BA7C36DC 		.ascii	"\272|6\334\351;\034Px\014\026\310\212\207\274s\3141"
 140      E93B1C50 
 140      780C16C8 
 140      8A87BC73 
 140      CC31
 141 008c 4397BEC2 		.ascii	"C\227\276\302gz\233n\031R\263j\356#uC\021\223k\222q"
 141      677A9B6E 
 141      1952B36A 
 141      EE237543 
 141      11936B92 
 142 00a1 7A30C7F5 		.ascii	"z0\307\365\344\346q>\016\253`\213\362\036wt#[\014\016"
 142      E4E6713E 
 142      0EAB608B 
 142      F21E7774 
 142      235B0C0E 
 143 00b5 1DCAB58F 		.ascii	"\035\312\265\217\005\344\257\336\241fe\330U\031nxRV"
 143      05E4AFDE 
 143      A16665D8 
 143      55196E78 
 143      5256
 144 00c7 3CE5FDBF 		.ascii	"<\345\375\277D\004\377\211\370\300\260x\3167\253\220"
 144      4404FF89 
 144      F8C0B078 
 144      CE37AB90 
ARM GAS  /tmp/ccrnicAv.s 			page 11


 145 00d7 9F5AFBFE 		.ascii	"\237Z\373\376\276\206S\357\354\3711J\265\2238R:i^\252"
 145      BE8653EF 
 145      ECF9314A 
 145      B5933852 
 145      3A695EAA 
 146 00eb 6674A174 		.ascii	"ft\241t\333\234\230\244\247l\367\374\354T\331\250gU"
 146      DB9C98A4 
 146      A76CF7FC 
 146      EC54D9A8 
 146      6755
 147 00fd D79618DB 		.ascii	"\327\226\030\333\376\236\306\027\264)XF"
 147      FE9EC617 
 147      B4295846 
 148              		.text
 149              		.section	.gnu.lto_mtx1_setup.e8a481c64be60343,"",%progbits
 150 0000 789C6362 		.ascii	"x\234cb`b@\007\222@\334\007\304\206@\314\310\314\300"
 150      60624007 
 150      9240DC07 
 150      C48640CC 
 150      C8CCC0
 151 0013 C834E11C 		.ascii	"\3104\341\034\003C#\007\023##\210\301\300\310P\317\304"
 151      03432307 
 151      13232388 
 151      C1C0C850 
 151      CFC4
 152 0025 581FC908 		.ascii	"X\037\311\010V\273\236\351\300\203\377\377\327\335h"
 152      56BB9EE9 
 152      C083FFFF 
 152      D7DD68
 153 0034 9BFF8771 		.ascii	"\233\377\207q\026\0233P\204\225\241\245\241a\202\002"
 153      16133350 
 153      8495A1A5 
 153      A1618202 
 154 0044 03433258 		.ascii	"\003C2XE\010\220\004i\013ed\002\321\314\347\031Z\036"
 154      45089004 
 154      690B6564 
 154      02D1CCE7 
 154      195A1E
 155 0057 AC3BCC95 		.ascii	"\254;\314\225\310\270\220\221\025(]\315\360\253\241"
 155      C8B89091 
 155      15285DCD 
 155      F0ABA1
 156 0066 A3412093 		.ascii	"\243A \223\021\250\034b\"H\204#\223\2211\227\221\001"
 156      11A81C62 
 156      22488423 
 156      93913197 
 156      9101
 157 0078 AA2813A8 		.ascii	"\252(\023\250\225\341\"C\343\203\365\3120m\020\020\002"
 157      95E12243 
 157      E383F5CA 
 157      306D1010 
 157      02
 158 0089 D4023413 		.ascii	"\324\0024\023\344\003}\375\214\374\334T\375\344\374"
 158      E4037DFD 
 158      8CFCDC54 
 158      FDE4FC
 159 0098 944AFD94 		.ascii	"\224J\375\224\3242\375\344\214\314\244\314\374b\375"
ARM GAS  /tmp/ccrnicAv.s 			page 12


 159      D432FDE4 
 159      8CCCA4CC 
 159      FC62FD
 160 00a7 92A2D2BC 		.ascii	"\222\242\322\274l\375\222\324\342\022\375\242\0220\235"
 160      6CFD92D4 
 160      E212FDA2 
 160      12309D
 161 00b6 5B52A197 		.ascii	"[R\241\227\314\000\000\374\2758l"
 161      CC0000FC 
 161      BD386C
 162              		.text
 163              		.section	.gnu.lto_mtx4_setup.e8a481c64be60343,"",%progbits
 164 0000 789C6362 		.ascii	"x\234cb`b@\007\222@|\024\210\015\201\230\221\231\201"
 164      60624007 
 164      92407C14 
 164      880D8198 
 164      919981
 165 0013 9169C239 		.ascii	"\221i\3029\006\206F\016&FF\020\203\201\221\241\236\211"
 165      0686460E 
 165      26464610 
 165      838191A1 
 165      9E89
 166 0025 B13E9211 		.ascii	"\261>\222\021\254v=\323\201\007\377\377\257\2735m\376"
 166      AC763DD3 
 166      8107FFFF 
 166      AFBB356D 
 166      FE
 167 0036 1CC6DB4C 		.ascii	"\034\306\333L,@\021V\206\226\206\206\011\012\014\014"
 167      2C401156 
 167      86968686 
 167      090A0C0C 
 168 0046 C9601521 		.ascii	"\311`\025!@\022\244-\224\221\011D3\237ghy\260\3764W"
 168      4012A42D 
 168      94910944 
 168      339F6768 
 168      79B0FE34 
 169 005b 22E34246 		.ascii	"\"\343BFV\240t5\303\257\206\216\006\201LF\240r\210\211"
 169      56A07435 
 169      C3AF868E 
 169      06814C46 
 169      A0728889 
 170 006f 20118E4C 		.ascii	" \021\216LF\306\\F\006\250\242L\240V\006\240\276\005"
 170      46C65C46 
 170      06A8A24C 
 170      A05606A0 
 170      BE05
 171 0081 3BB889D1 		.ascii	";\270\211\321\306\210\254\355\"C\343\203\235\3320m\020"
 171      C688ACED 
 171      2243E383 
 171      9DDA306D 
 171      10
 172 0092 1002D402 		.ascii	"\020\002\324\002t\012\310\343\372\372\031\371\271\251"
 172      740AC8E3 
 172      FAFA19F9 
 172      B9A9
 173 00a0 FAC9F929 		.ascii	"\372\311\371)\225\372)\251e\372\311\031\231I\231\371"
 173      95FA29A9 
ARM GAS  /tmp/ccrnicAv.s 			page 13


 173      65FAC919 
 173      994999F9 
 174 00b0 C5FA2545 		.ascii	"\305\372%E\245y\331\372%\251\305%\372E%`:\267\244B/"
 174      A579D9FA 
 174      25A9C525 
 174      FA452560 
 174      3AB7A442 
 175 00c5 99010093 		.ascii	"\231\001\000\223_D\231"
 175      5F4499
 176              		.text
 177              		.section	.gnu.lto_mtx5_setup.e8a481c64be60343,"",%progbits
 178 0000 789C6362 		.ascii	"x\234cb`b@\007\222@\334\007\304\206@\314\310\314\300"
 178      60624007 
 178      9240DC07 
 178      C48640CC 
 178      C8CCC0
 179 0013 C834E11C 		.ascii	"\3104\341\034\003C#\007\023##\210\301\300\310P\317\304"
 179      03432307 
 179      13232388 
 179      C1C0C850 
 179      CFC4
 180 0025 581FC908 		.ascii	"X\037\311\010V\273\236\351\300\203\377\377\327\355\232"
 180      56BB9EE9 
 180      C083FFFF 
 180      D7ED9A
 181 0034 3DBF87F1 		.ascii	"=\277\207\361\035\0233P\204\225\241\245\241a\202\002"
 181      1D133350 
 181      8495A1A5 
 181      A1618202 
 182 0044 03433258 		.ascii	"\003C2XE\010\220\004i\013ed\002\321\314\347\031Z\036"
 182      45089004 
 182      690B6564 
 182      02D1CCE7 
 182      195A1E
 183 0057 DC3FCB95 		.ascii	"\334?\313\225\310\270\220\221\025(]\315\360\253\241"
 183      C8B89091 
 183      15285DCD 
 183      F0ABA1
 184 0066 A3412093 		.ascii	"\243A \223\021\250\034b\"H\204#\223\2211\227\221\001"
 184      11A81C62 
 184      22488423 
 184      93913197 
 184      9101
 185 0078 AA2813A8 		.ascii	"\252(\023\250\225\341\"C\343\203\027\2720m\020\020\002"
 185      95E12243 
 185      E38317BA 
 185      306D1010 
 185      02
 186 0089 D4023413 		.ascii	"\324\0024\023\344\003}\375\214\374\334T\375\344\374"
 186      E4037DFD 
 186      8CFCDC54 
 186      FDE4FC
 187 0098 944AFD94 		.ascii	"\224J\375\224\3242\375\344\214\314\244\314\374b\375"
 187      D432FDE4 
 187      8CCCA4CC 
 187      FC62FD
 188 00a7 92A2D2BC 		.ascii	"\222\242\322\274l\375\222\324\342\022\375\242\0220\235"
ARM GAS  /tmp/ccrnicAv.s 			page 14


 188      6CFD92D4 
 188      E212FDA2 
 188      12309D
 189 00b6 5B52A197 		.ascii	"[R\241\227\314\000\000\024\2148\305"
 189      CC000014 
 189      8C38C5
 190              		.text
 191              		.section	.gnu.lto_thread4b.e8a481c64be60343,"",%progbits
 192 0000 789C6362 		.ascii	"x\234cb`b@\007\222@\374\003\210\015\201\230\221\231"
 192      60624007 
 192      9240FC03 
 192      880D8198 
 192      9199
 193 0012 819169C2 		.ascii	"\201\221i\3029\006\206F\016&FF\020\203\201\221\241\236"
 193      39068646 
 193      0E264646 
 193      10838191 
 193      A19E
 194 0024 89B13E92 		.ascii	"\211\261>\222\021\254v=\323\201\007\377\377\257\233"
 194      11AC763D 
 194      D38107FF 
 194      FFAF9B
 195 0033 317DC91E 		.ascii	"1}\311\036\306\273L\254@\021V\206\226\206\206\011\012"
 195      C6BB4CAC 
 195      40115686 
 195      96868609 
 195      0A
 196 0044 0C0CC960 		.ascii	"\014\014\311`\025!@\022\244-\224\221\011D3\237ghyp>"
 196      15214012 
 196      A42D9491 
 196      0944339F 
 196      67687970 
 197 0059 3B917121 		.ascii	";\221q!#Hq5\303\257\206\216\006\201LF\240j\210\201\021"
 197      23487135 
 197      C3AF868E 
 197      06814C46 
 197      A06A8881 
 198 006e 8C998C8C 		.ascii	"\214\231\214\214w\270\0312\201\352\031@\212ot\263c\250"
 198      77B81932 
 198      81EA1940 
 198      8A6F74B3 
 198      63A8
 199 0080 664E6684 		.ascii	"fNf\2048\033$\302\221\311\310\222\313\310\000U\224\011"
 199      381B24C2 
 199      91C9C892 
 199      CBC80055 
 199      9409
 200 0092 2240FA6E 		.ascii	"\"@\372n\236\306\252\217\031\237\276\213\014\215\017"
 200      9EC6AA8F 
 200      199FBE8B 
 200      0C8D0F
 201 00a1 6E411D07 		.ascii	"nA\035\007r\010\033,HB\200\256\003\272\036d\251\276"
 201      72081B2C 
 201      484280AE 
 201      03BA1E64 
 201      A9BE
 202 00b3 7E467E6E 		.ascii	"~F~n\252~r~J\245~Jj\231~rFfRf~\261~IQi^\266~Ijq\211"
ARM GAS  /tmp/ccrnicAv.s 			page 15


 202      AA7E727E 
 202      4AA57E4A 
 202      6A997E72 
 202      46665266 
 203 00d4 7E510998 		.ascii	"~Q\011\230\316-\251\320Kf\000\000{MQh"
 203      CE2DA9D0 
 203      4B660000 
 203      7B4D5168 
 204              		.text
 205              		.section	.gnu.lto_thread4a.e8a481c64be60343,"",%progbits
 206 0000 789C6362 		.ascii	"x\234cb`b@\007\222@\374\003\210\015\201\230\221\231"
 206      60624007 
 206      9240FC03 
 206      880D8198 
 206      9199
 207 0012 819169C2 		.ascii	"\201\221i\3029\006\206F\016&FF\020\203\201\221\241\236"
 207      39068646 
 207      0E264646 
 207      10838191 
 207      A19E
 208 0024 89B13E92 		.ascii	"\211\261>\222\021\254v=\323\201\007\377\377\257\373"
 208      11AC763D 
 208      D38107FF 
 208      FFAFFB
 209 0033 366DC91A 		.ascii	"6m\311\032\306;L\254@\021V\206\226\206\206\011\012\014"
 209      C63B4CAC 
 209      40115686 
 209      96868609 
 209      0A0C
 210 0045 0CC96015 		.ascii	"\014\311`\025!@\022\244-\224\221\011D3\237ghy\260/;"
 210      214012A4 
 210      2D949109 
 210      44339F67 
 210      6879B02F 
 211 005a 91712123 		.ascii	"\221q!#Hq5\303\257\206\216\006\201LF\240j\210\201\021"
 211      487135C3 
 211      AF868E06 
 211      814C46A0 
 211      6A888111 
 212 006e 8C998C8C 		.ascii	"\214\231\214\214_\230\0312\201\352\031@\212\367w\263"
 212      5F981932 
 212      81EA1940 
 212      8AF777B3 
 213 007e 63A8664E 		.ascii	"c\250fNf\2048\033$\302\221\311\310\222\313\310\000U"
 213      6684381B 
 213      24C291C9 
 213      C892CBC8 
 213      0055
 214 0090 94092240 		.ascii	"\224\011\"@\372N\234\306\252\217\031\237\276\213\014"
 214      FA4E9CC6 
 214      AA8F199F 
 214      BE8B0C
 215 009f 8D0F4E42 		.ascii	"\215\017NB\035\007r\010\033,HB\200\256\003\272\036d"
 215      1D077208 
 215      1B2C4842 
 215      80AE03BA 
 215      1E64
ARM GAS  /tmp/ccrnicAv.s 			page 16


 216 00b1 A9BE7E46 		.ascii	"\251\276~F~n\252~r~J\245~Jj\231~rFfRf~\261~IQi^\266"
 216      7E6EAA7E 
 216      727E4AA5 
 216      7E4A6A99 
 216      7E724666 
 217 00cf 7E496A71 		.ascii	"~Ijq\211~Q\011\230\316-\251\320Kf\000\000\253zQx"
 217      897E5109 
 217      98CE2DA9 
 217      D04B6600 
 217      00AB7A51 
 218              		.text
 219              		.section	.gnu.lto_mtx4_execute.e8a481c64be60343,"",%progbits
 220 0000 789CB599 		.ascii	"x\234\265\231kl\024U\024\307\357\235\331\355>\333n\021"
 220      6B6C1455 
 220      14C7EF9D 
 220      D9ED3EDB 
 220      6E11
 221 0012 6BC55AD7 		.ascii	"k\305Z\327\212\204X\355\012X\010!\004\024\322 \001\002"
 221      8A8458ED 
 221      0A580821 
 221      0414D220 
 221      0102
 222 0024 7D00E555 		.ascii	"}\000\345U\266\323\245]\332\245\315\266\020\2101\014"
 222      B6D3A55D 
 222      DAA5CDB6 
 222      1088310C 
 223 0034 B42A064C 		.ascii	"\264*\006L\000\277TD\003!\250\020+\221\304\017@LHx["
 223      00BF5444 
 223      0321A810 
 223      2B91C40F 
 223      404C4878 
 224 0049 69791643 		.ascii	"iy\026C\032\262\362E\321\"b@\004\012\353=gfggw\346\362"
 224      1AB2F245 
 224      D1226240 
 224      040AEB3D 
 224      67666767 
 225 0060 DC5DC299 		.ascii	"\334]\302\231sv\356\275s\356\357\177\316\356]\020\210"
 225      7376EEBD 
 225      73EEEF7F 
 225      CEEE5D10 
 225      88
 226 0071 40925F37 		.ascii	"@\222_7\331\337p>!\277\260+\035D\250\260\261\233\220"
 226      D9DF703E 
 226      21BFB02B 
 226      1D44A8B0 
 226      B19B90
 227 0084 357641C8 		.ascii	"5vA\310\351\365\021\331)\356/ \262[T#\013F\0265\262"
 227      E9F511D9 
 227      29EE2F20 
 227      B25B5423 
 227      0B461635 
 228 0099 626455A3 		.ascii	"bdU\243\014\2142\324\310\206\221M\215\354\030\331\325"
 228      0C8C32D4 
 228      C886914D 
 228      8DEC18D9 
 228      D5
 229 00aa C8819143 		.ascii	"\310\201\221C\215\234\0309\325\310\205\221K\215\334"
ARM GAS  /tmp/ccrnicAv.s 			page 17


 229      8D9C1839 
 229      D5C88591 
 229      4B8DDC
 230 00b9 18B9D528 		.ascii	"\030\271\325(\023\243L5\312\302(K\215\2621\312V#\017"
 230      13A34C35 
 230      CAC2284B 
 230      8DB231CA 
 230      56230F
 231 00cc 461E9AA3 		.ascii	"F\036\232\243l&\207Rp\010%\253\005\321b\315\260\331"
 231      6C268752 
 231      700825AB 
 231      05D162CD 
 231      B0D9
 232 00de 1D4E973B 		.ascii	"\035N\227;3+\333\223CWWQ\300 \024\222\355\262\2749r"
 232      332BDB93 
 232      43575751 
 232      C0201492 
 232      EDB2BC39 
 233 00f3 E4D63FF4 		.ascii	"\344\326?\3643\371`\3736y \032\2454H\031\262\221\224"
 233      33F960FB 
 233      3679201A 
 233      A5344819 
 233      B29194
 234 0106 4894CC65 		.ascii	"H\224\314e\001\365\342E\260$2T\346\312\347k\217\313"
 234      01F5E245 
 234      B0243254 
 234      E6CAE76B 
 234      8FCB
 235 0118 ED07A3D1 		.ascii	"\355\007\243\321\0118\253\344a\263\366\010\007#\321"
 235      0938ABE4 
 235      61B3F608 
 235      0723D1
 236 0127 68DF81ED 		.ascii	"h\337\201\355\227\367\323\334f\221\370\351vZH,\354\272"
 236      97F7D3DC 
 236      6691F8E9 
 236      765A482C 
 236      ECBA
 237 0139 835DAD24 		.ascii	"\203]\255$HE\0333\026\007x.\360\262\230\261z\300\014"
 237      48451B33 
 237      1607782E 
 237      F0B298B1 
 237      7AC00C
 238 014c 0233184C 		.ascii	"\0023\030L.\230<0C\300\344\203)\000\343\005S\010f(\230"
 238      2E983C30 
 238      43C0E483 
 238      2900E305 
 238      53086628 
 239 0161 61608683 		.ascii	"a`\206\203)\202\245\212\301\214\200p\024\230\0220c\300"
 239      2982A58A 
 239      C18C8070 
 239      14981230 
 239      63C0
 240 0173 8C05330E 		.ascii	"\214\0053\016\314x0\023\300L\006S\012f\012\230\251`"
 240      CC783013 
 240      C04C0653 
 240      0A660A98 
 240      A960
ARM GAS  /tmp/ccrnicAv.s 			page 18


 241 0185 A6819901 		.ascii	"\246\201\231\001f&,5\213\031R\006^9x\025\340U\2027\033"
 241      66262C35 
 241      8B195206 
 241      5E397815 
 241      E0558237 
 242 019a BC39E0CD 		.ascii	"\2749\340\315\005\257\012\274y\340\315\007o\001x\013"
 242      05AF0ABC 
 242      79E0CD07 
 242      6F01780B 
 243 01aa C15B045E 		.ascii	"\301[\004^5x\213\301\363\203W\003\236\004^-x\001\360"
 243      35788BC1 
 243      F3835703 
 243      9E045E2D 
 243      7801F0
 244 01bd 96805707 		.ascii	"\226\200W\007^=xA\360\226\202\327\000^#x!\360\330\313"
 244      5E3D7841 
 244      F09682D7 
 244      005E2378 
 244      21F0D8CB 
 245 01d1 4ADA6579 		.ascii	"J\332ey\243W\341\252P%\240\011{U0\013%QI\005\270\212"
 245      A357E1AA 
 245      5025A009 
 245      7B55300B 
 245      25514905 
 246 01e7 27C9DA8B 		.ascii	"'\311\332\213[/\365\276\245N\211\315\225w|\345\323\326"
 246      5B2FF5BE 
 246      A54E89CD 
 246      95777CE5 
 246      D3D6
 247 01f9 893907D7 		.ascii	"\2119\007\327\337\250$l\275\235\324\312V\303\345$\212"
 247      DFA8246C 
 247      BD9DD4CA 
 247      56C3E524 
 247      8A
 248 020a 8D554767 		.ascii	"\215UGg\026\221\335\262,G\256\377\260\3635\226\211\022"
 248      1691DDB2 
 248      2C47AEFF 
 248      B0F33596 
 248      8912
 249 021c C9638334 		.ascii	"\311c\2034\343s\262e\215,{\202\324\366\036\271#\257"
 249      E373B265 
 249      8D2C7B82 
 249      D4F61EB9 
 249      23AF
 250 022e 03CF1EC2 		.ascii	"\003\317\036\302\311P\033v\254\210\032\210\375\364k"
 250      C9501B76 
 250      AC881A88 
 250      FDF46B
 251 023d B630F3A9 		.ascii	"\2660\363\251\346\023\002\371u\354\035\342\247\337\260"
 251      E61302F9 
 251      75EC1DE2 
 251      A7DFB0
 252 024c B88ECE52 		.ascii	"\270\216\316R\027na\033\325\026v\260\307\303Z\026u-"
 252      176E611B 
 252      D51676B0 
 252      C7C35A16 
 252      752D
ARM GAS  /tmp/ccrnicAv.s 			page 19


 253 025e 01E6EF8A 		.ascii	"\001\346\357\212\315o[w\250\353F@\311\272\216\212l\015"
 253      CD6F5B77 
 253      A8EB4640 
 253      C9BA8E8A 
 253      6C0D
 254 0270 18EBA4EA 		.ascii	"\030\353\244\352\315\266]\276\330=K\354\236\240<\270"
 254      CDB65DBE 
 254      D83D4BEC 
 254      9EA03CB8 
 255 0280 EFBF3B3F 		.ascii	"\357\277;?Yb7\255o\220o\341a.x\354F\360\334\260\237"
 255      596237AD 
 255      6F906FE1 
 255      612E78EC 
 255      46F0DCB0 
 256 0295 0EF03243 		.ascii	"\016\3602CH\003\346f\222\330\316\262t\025\337C\362b"
 256      4803E666 
 256      92D8CEB2 
 256      7415DF43 
 256      F262
 257 02a7 EBC42964 		.ascii	"\353\304)dKT$\012=+L\360\234\022!A\270o\017\322\034"
 257      4B54240A 
 257      3D2B4CF0 
 257      9C122141 
 257      B86F0FD2 
 258 02bc 89AACF26 		.ascii	"\211\252\317&\360N^\220\016* \315_\310\035\023\203\364"
 258      F04E5E90 
 258      0E2A20CD 
 258      5FC81D13 
 258      83F4
 259 02ce 19550426 		.ascii	"\031U\004&\367`\314\364\304)\233\362\016$\311^%\014"
 259      F760CCF4 
 259      C4299BF2 
 259      0E24C95E 
 259      250C
 260 02e0 8686E759 		.ascii	"\206\206\347Y\355\211\271!\224\013\036\226k\222'KN\331"
 260      ED89B921 
 260      940B1E96 
 260      6B92274B 
 260      4ED9
 261 02f2 77C7DDF8 		.ascii	"w\307\335\370\276\035\217\275oj\272o\227\331\276\035"
 261      BE1D8FBD 
 261      6F6ABA6F 
 261      97D9BE1D 
 262 0302 F17D5BE2 		.ascii	"\361}[\342\373\266\032\366\335\222\216}\323\370\276"
 262      FBB61AF6 
 262      DD928E7D 
 262      D3F8BE
 263 0311 5D906A7B 		.ascii	"]\220j{\344\352zu9\345\3318\3679\211f\340(5\277\274"
 263      E4EA7A75 
 263      39E5D938 
 263      F7398966 
 263      E02835BF 
 264 0326 1015B52C 		.ascii	"\020\025\265,\236W\012\364\321\033\350V\011\257\201"
 264      9E570AF4 
 264      D11BE856 
 264      09AF81
 265 0335 CA52D140 		.ascii	"\312R\321@\307t\015t,\251\201\216\243\014\345\234\006"
ARM GAS  /tmp/ccrnicAv.s 			page 20


 265      C7740D74 
 265      2CA9818E 
 265      A30CE59C 
 265      06
 266 0346 2A3334D0 		.ascii	"*34\320\011\255\201z\016\261\274c:f\261&a\313\0000k"
 266      09AD817A 
 266      0EB1BC63 
 266      3A66B126 
 266      61CB0030 
 267 035b EC3D8F96 		.ascii	"\354=\217\226\330\020\011jHM\315Ca|\220\276@\310q\322"
 267      D810096A 
 267      484DCD43 
 267      617C90BE 
 267      40C871D2 
 268 036f DE4FB5E1 		.ascii	"\336O\265\341p\323\252\377F\250d\025\261\277@d\032l"
 268      70D3AAFF 
 268      46A86415 
 268      B1BF4064 
 268      1A6C
 269 0381 BBE63248 		.ascii	"\273\3462H\220/\251\273\304\346\374\035\276\033^T6\266"
 269      902FA9BB 
 269      C4E6FC1D 
 269      BE1B5E54 
 269      36B6
 270 0393 E152AFE5 		.ascii	"\341R\257\345\321\300\017p\301W\244\002\374Y\035\370"
 270      D1C00F70 
 270      C157A402 
 270      FC591DF8 
 271 03a3 B349E0CF 		.ascii	"\263I\340\317\341\246+9\340+\014\340\317\353\301\017"
 271      E1A62B39 
 271      E02B0CE0 
 271      CFEBC10F 
 272 03b3 68E007E1 		.ascii	"h\340\007\341\207We\002\370\301\034\360\002\2147\202"
 272      87576502 
 272      F8C11CF0 
 272      028C3782 
 273 03c3 1F6C02DE 		.ascii	"\037l\002\336B\256\271\000|\344\366\243\025\277\345"
 273      42AEB900 
 273      7CE4F6A3 
 273      15BFE5
 274 03d2 C98BFF1E 		.ascii	"\311\213\377\036W\203\331\251\320 \242\323 \222\244"
 274      5783D9A9 
 274      D020A2D3 
 274      2092A4
 275 03e1 C1AFB8FF 		.ascii	"\301\257\270\3779\034\015f\0334\270\254\327\340\236"
 275      391C0D66 
 275      1B34B8AC 
 275      D7E09E
 276 03f0 A6412E6A 		.ascii	"\246A.j0'A\203<\216\006\360\241\226k\324 \317D\003+"
 276      30274183 
 276      3C8E06F0 
 276      A1966BD4 
 276      20CF4403 
 277 0405 3965C1E2 		.ascii	"9e\301\342\277\233\236\342\277\317\005?7\025\340\373"
 277      BF9B9EE2 
 277      BFCF053F 
 277      3715E0FB 
ARM GAS  /tmp/ccrnicAv.s 			page 21


 278 0415 75E0FB93 		.ascii	"u\340\373\223\300_\305MWq\300\3175\200\377K\017\376"
 278      C05FC54D 
 278      5771C0CF 
 278      3580FF4B 
 278      0FFE
 279 0427 BE067E08 		.ascii	"\276\006~\010~;W%\200\317\347\200\267\300x#\370|\023"
 279      7E3B5725 
 279      80CFE780 
 279      B7C07823 
 279      F87C13
 280 043a F019E437 		.ascii	"\360\031\3447\212\305\177\257\313\264\370\035\251+\376"
 280      8AC57FAF 
 280      CBB4F81D 
 280      A92BFE
 281 0449 28578379 		.ascii	"(W\203y\251\320\340\266N\203\333I\032\334\301\375\317"
 281      A9D0E0B6 
 281      4E83DB49 
 281      1ADCC1FD 
 281      CF
 282 045a E76830CF 		.ascii	"\347h0\317\240\301]\275\006QM\203\002,\376\371\011\032"
 282      A0C15DBD 
 282      06514D83 
 282      022CFEF9 
 282      091A
 283 046c 78391AE0 		.ascii	"x9\032\340x\243\006^\023\015l\344\"\301\342\217\246"
 283      78A3065E 
 283      130D6CE4 
 283      22C1E28F 
 283      A6
 284 047d A7F80F8F 		.ascii	"\247\370\017\217\346\201_\220\012\360\037\010q\360\350"
 284      E6815F90 
 284      0AF01F08 
 284      71F0E8
 285 048c EBC07F28 		.ascii	"\353\300\177(\300\246\027r\300/0\200\377H\320\201?<"
 285      C0A61772 
 285      C02F3080 
 285      FF48D081 
 285      3F3C
 286 049e 3A46AD10 		.ascii	":F\255\020\301/L\000?\224\003>\003\306\033\301\0175"
 286      C12F4C00 
 286      3F94033E 
 286      03C61BC1 
 286      0F35
 287 04b0 016F27AF 		.ascii	"\001o'\2570\356m\221\217;\235\006\360\005\022u\342\260"
 287      30EE6D91 
 287      8F3B9D06 
 287      F0051275 
 287      E2B0
 288 04c2 207DE971 		.ascii	" }\351q+\375\010\027\370\242T\000\337\244\003\276)\011"
 288      2BFD0817 
 288      F8A25400 
 288      DFA403BE 
 288      2909
 289 04d4 F866045E 		.ascii	"\370f\004^\315\001\276\310\000\374S=\360#\032\360ax"
 289      CD01BEC8 
 289      00FC533D 
 289      F0231AF0 
ARM GAS  /tmp/ccrnicAv.s 			page 22


 289      6178
 290 04e6 C6A94E00 		.ascii	"\306\251N\000>\234\003\334\006\343\215\300\207\233\000"
 290      3E9C03DC 
 290      06E38DC0 
 290      879B00
 291 04f5 77902C04 		.ascii	"w\220,\004\276\376\023c\2453\340\2568\360\036\322!\367"
 291      BEFE1363 
 291      A533E0AE 
 291      38F01ED2 
 291      21F7
 292 0507 9FDE29C4 		.ascii	"\237\336)\304V+z\232\037\015+\322\374\243\241H\311w"
 292      562B7A9A 
 292      1F0D2BD2 
 292      FCA3A148 
 292      C977
 293 0519 40976FF1 		.ascii	"@\227o\361\323\034\366W\245\371\260_\254\034\366;>I"
 293      D31CF657 
 293      A5F9B05F 
 293      AC1CF63B 
 293      3E49
 294 052b F361BFEB 		.ascii	"\363a\277\353gn#,NE#t\352\032\2413\251\021\276\303F"
 294      676E232C 
 294      4E452374 
 294      EA1AA133 
 294      A911BEC3 
 295 0540 F0731A61 		.ascii	"\360s\032a\261\241\021\366\350\032\201\345\035\323q"
 295      B1A111F6 
 295      E81A81E5 
 295      1DD371
 296 054f 0436823F 		.ascii	"\0046\202?\241\021Fq\032\301\016\343\215\2150\312\244"
 296      A1114671 
 296      1AC10EE3 
 296      8D8D30CA 
 296      A4
 297 0560 119CC48A 		.ascii	"\021\234\304\212\237\370[2\323\361\211\337u\222\313"
 297      9FF85B32 
 297      D3F189DF 
 297      7592CB
 298 056f BD2615DC 		.ascii	"\275&\025\334\367\351\270\357K\342\276\037\271K\034"
 298      F7E9B8EF 
 298      4BE2BE1F 
 298      B94B1C
 299 057e EE3506EE 		.ascii	"\3565\006\356\007\364\334Oj\334K\360\023_J\340>\206"
 299      07F4DC4F 
 299      6ADC4BF0 
 299      135F4AE0 
 299      3E86
 300 0590 C3DD01E3 		.ascii	"\303\335\001\343\215\334\307\230pw\021\001O;[\037\255"
 300      8DDCC798 
 300      70771101 
 300      4F3B5B1F 
 300      AD
 301 05a1 F49FFCB4 		.ascii	"\364\237\374\264\323\325\315\225\2406\025\022\034\325"
 301      D3D5CD95 
 301      A0361512 
 301      1CD5
 302 05af 49703449 		.ascii	"Ip4I\202c(A\200#A\255A\202\343z\011\2725\011\306\242"
ARM GAS  /tmp/ccrnicAv.s 			page 23


 302      82632841 
 302      802341AD 
 302      4182E37A 
 302      09BA3509 
 303 05c5 04810409 		.ascii	"\004\201\004\011\306q$p\302x\243\004\343L$p\023<pn\373"
 303      C6712470 
 303      C278A304 
 303      E34C2470 
 303      133C706E 
 304 05da 323DA5DF 		.ascii	"2=\245\337\303\345\276$\025\334\317\350\270\237I\342"
 304      C3E5BE24 
 304      15DCCFE8 
 304      B89F49E2 
 305 05ea 7E16B9D7 		.ascii	"~\026\271\327q\270/1p?\247\347\336\243q\037\217'\375"
 305      71B82F31 
 305      703FA7E7 
 305      DEA3711F 
 305      8F27FD
 306 05fd BA04EE13 		.ascii	"\272\004\356\0238\334]0\336\310}\202\011\367LB\304n"
 306      38DC5D30 
 306      DEC87D82 
 306      09F74C42 
 306      C46E
 307 060f B2F6FB81 		.ascii	"\262\366\373\201C{\335\032\265\230\004\204\262??\262"
 307      437BDD1A 
 307      B5980484 
 307      B23F3FB2 
 308 061f 2F2A9698 		.ascii	"/*\226\230\250\374WA\001\351\246\261\357!\365q^/x\332"
 308      A8FC5741 
 308      01E9A6B1 
 308      EF21F571 
 308      5E2F78DA 
 309 0633 FDD3EAFD 		.ascii	"\375\323\352\375\227\225G0Q\377\336|\376}\263\276r?"
 309      97954730 
 309      51FFDE7C 
 309      FE7DB3BE 
 309      723F
 310 0645 A8AFE040 		.ascii	"\250\257\340@\260\373\252\351\011L\37175<\020\260\324"
 310      B0FBAAE9 
 310      094CF937 
 310      353C10B0 
 310      D4
 311 0656 AFB3D437 		.ascii	"\257\263\3247\210\017\314\335O/\011\242\222+\321\345"
 311      880FCCDD 
 311      4F2F09A2 
 311      922BD1E5 
 312 0666 CA7EFE0A 		.ascii	"\312~\376\012\005J\226\217wt\356\345VS}*\252\351\212"
 312      054A968F 
 312      7774EEE5 
 312      56537D2A 
 312      AAE98A
 313 0679 AE9AAE24 		.ascii	"\256\232\256$U\323\037XMAN5\325\033\252\351O\375I\256"
 313      55D31F58 
 313      4D414E35 
 313      D51BAAE9 
 313      4FFD49AE 
 314 068d 57ABA6C9 		.ascii	"W\253\246\311\330\305\301\204j*\345T\223\033\306\033"
ARM GAS  /tmp/ccrnicAv.s 			page 24


 314      D8C5C184 
 314      6A2AE554 
 314      931BC61B 
 315 069d ABA9D4A4 		.ascii	"\253\251\324\244\232\330\361\007\273\2703-]\274\376"
 315      9AD8F107 
 315      BBB8332D 
 315      5DBCFE
 316 06ac 0297FBD2 		.ascii	"\002\227\373\322Tp\277\251\343~3\211\373\277\310\275"
 316      5470BFA9 
 316      E37E3389 
 316      FBBFC8BD 
 317 06bc 81C37DA9 		.ascii	"\201\303}\251\201\373-=\367\013\032\367)\310\275!\201"
 317      81FB2D3D 
 317      F70B1AF7 
 317      29C8BD21 
 317      81
 318 06cd FB540EF7 		.ascii	"\373T\016\367L\030o\344>\325\204{6ro\213\354I\361O\226"
 318      4C186FE4 
 318      3ED5847B 
 318      36726F8B 
 318      EC49F14F 
 319 06e2 3E2EF0C6 		.ascii	">.\360\306T\000_#\306\201\243\257\003\276V\204\315\206"
 319      54005F23 
 319      C681A3AF 
 319      03BE5684 
 319      CD86
 320 06f4 38C01B0D 		.ascii	"8\300\033\015\300\333D\035\360>\015\3704<\251\205\022"
 320      C0DB441D 
 320      F03E0DF8 
 320      343CA985 
 320      12
 321 0705 80CFE000 		.ascii	"\200\317\340\000\317\202\361F\3403L\200{T\340\373\036"
 321      CF82F146 
 321      E0334C80 
 321      7B54E0FB 
 321      1E
 322 0716 FA934519 		.ascii	"\372\223E\031\237\203\377\251t\232\254\261\307W\251"
 322      9F83FFA9 
 322      749AACB1 
 322      C757A9
 323 0725 601B67EF 		.ascii	"`\033g\357\002P\237\257\276)\024\360IM\265\253|\265"
 323      02509FAF 
 323      BE2914F0 
 323      494DB5AB 
 323      7CB5
 324 0737 81153EA9 		.ascii	"\201\025>\251>X\023lj\361\265\206\227/k\360\265\006"
 324      3E58136C 
 324      6AF1B586 
 324      972F6BF0 
 324      B506
 325 0749 5A5A7DE1 		.ascii	"ZZ}\341V\274\206ZW\026KDh\036!4\217\034\363\300Y\314"
 325      56BC865A 
 325      57164B44 
 325      681E2134 
 325      8F1CF3C0 
 326 075f 617382CB 		.ascii	"as\202\313\244\306\345\265lP}k}8\340\257m)\256'\302"
 326      A4C6E5B5 
ARM GAS  /tmp/ccrnicAv.s 			page 25


 326      6C507D6B 
 326      7D38E0AF 
 326      6D29AE27 
 327 0774 3B44789B 		.ascii	";Dx\233\010\223\2110\211L|\330\032\201\225\255\276I"
 327      08938930 
 327      894C7CD8 
 327      1A8195AD 
 327      BE49
 328 0786 D3CBDF2D 		.ascii	"\323\313\337-\217/\325\024\016TK\241\322\345\313$\266"
 328      8F2FD514 
 328      0E544BA1 
 328      D2E5CB24 
 328      B6
 329 0797 98677A79 		.ascii	"\230gzy\231\267\306\337\022h\016\007_\367\276\372&\021"
 329      99B7C6DF 
 329      12680E07 
 329      5FF7BEFA 
 329      2611
 330 07a9 C2C4160A 		.ascii	"\302\304\026\012\204\232\302\253\310\377\"\317\364\357"
 330      849AC2AB 
 330      C8FF22CF 
 330      F4EF
 331              		.text
 332              		.section	.gnu.lto_mtx5_execute.e8a481c64be60343,"",%progbits
 333 0000 789CAD56 		.ascii	"x\234\255V_h\034e\020\237\331?\267{wQ/\361\342\211i"
 333      5F681C65 
 333      109FD93F 
 333      B77B7751 
 333      2FF1E289 
 334 0015 D36BD214 		.ascii	"\323k\322\024\264\322\025)\004\337\012\202\340C_L\213"
 334      B4D21529 
 334      04DF0A82 
 334      E0435F4C 
 334      8B
 335 0026 7F5EE46E 		.ascii	"\177^\344n\357\310-z9\271\273H\213\224nr\021\004\213"
 335      EFC82D7A 
 335      39B9BB48 
 335      8B946E72 
 335      11048B
 336 0039 2DBE18AC 		.ascii	"-\276\030\254\202\241\244\202X\212\025+\326\242\221"
 336      82A1A482 
 336      588A152B 
 336      D6A291
 337 0048 50299826 		.ascii	"P)\230&\366\301HS\245G\036\242\017\202\377\036\304\252"
 337      F6C14853 
 337      A5471EA2 
 337      0F82FF1E 
 337      C4AA
 338 005a C4996FBF 		.ascii	"\304\231o\277\335\273\313\336\305\226\272\220og\276"
 338      DDBBCBDE 
 338      C596BA90 
 338      6F67BE
 339 0069 9DF97DBF 		.ascii	"\235\371}\277\231of.\012(\260\3619L\177\253&\300?\364"
 339      996F662E 
 339      0A28B0F1 
 339      394C7FAB 
 339      26C03FF4 
ARM GAS  /tmp/ccrnicAv.s 			page 26


 340 007d C618A072 		.ascii	"\306\030\240r|\021`\302T\224\350\262\005nL=\337\017"
 340      7C1160C2 
 340      5494E8B2 
 340      056E4C3D 
 340      DF0F
 341 008f 6E972A35 		.ascii	"n\227*5Mh\232\324t\241\351R\213\010-\"5Ch\206\324L\241"
 341      4D689AD4 
 341      74A1E952 
 341      8B082D22 
 341      35436886 
 342 00a6 9918F5C0 		.ascii	"\231\030\365\300\243\210,\000\302\021E\325\364\210A"
 342      A3882C00 
 342      C21145D5 
 342      F48841
 343 00b5 3B479E46 		.ascii	";G\236F\246\203\0030\343\272\257\327g?\235\3077\334"
 343      A6830330 
 343      E3BAAFD7 
 343      673F9DC7 
 343      37DC
 344 00c7 B98977DC 		.ascii	"\271\211w\334\277\327\327\021\035$\352\017#\330\010"
 344      BFD7D711 
 344      1D24EA0F 
 344      23D808
 345 00d6 4F9182A6 		.ascii	"O\221\202\246x)\330\032\313\031e\256\276\276\376\376"
 345      7829D81A 
 345      CB1965AE 
 345      BEBEFEFE 
 346 00e6 F733AB27 		.ascii	"\3673\253'0u\277\006\031\234!\274\010\220\267)\225("
 346      3075BF06 
 346      199C21BC 
 346      0890B729 
 346      9528
 347 00f8 2B715E12 		.ascii	"+q^\022\274t\323\242\366\260\224\344\245\227\227\024"
 347      BC74D3A2 
 347      F6B094E4 
 347      A5979714 
 348 0108 2F7DBC6C 		.ascii	"/}\274l\341\257[Y\332\306R\232\026m;K\003\2747\310\322"
 348      E1AF5B59 
 348      DAC6529A 
 348      166D3B4B 
 348      03BC37C8 
 349 011d 0EDE1B62 		.ascii	"\016\336\033bi'\357\321\243\303\224\353\036O{\307\001"
 349      6927EFD1 
 349      A3C394EB 
 349      1E4F7BC7 
 349      01
 350 012e 33A6673F 		.ascii	"3\246g?\255\034\362\001T\370\255^\206\311\225\267\256"
 350      AD1CF201 
 350      54F8AD5E 
 350      86C995B7 
 350      AE
 351 013f 2DEF91C6 		.ascii	"-\357\221\306\276\227{\362\224\025 \370\302\334\253"
 351      BE977BF2 
 351      941520F8 
 351      C2DCAB
 352 014e 7F9C5381 		.ascii	"\177\234S\201\370\237D\235\340\004\236\215\342&Gq\333"
 352      F89F449D 
ARM GAS  /tmp/ccrnicAv.s 			page 27


 352      E0049E8D 
 352      E2264771 
 352      DB
 353 015f 2E78CF75 		.ascii	".x\317u\335\372\325\217f\037 \022\236\346>\342\240~"
 353      DDFAD58F 
 353      661F2012 
 353      9EE63EE2 
 353      A07E
 354 0171 02DE9C70 		.ascii	"\002\336\234p\335\204\203\221\227\340\206\373\012KF"
 354      DD848391 
 354      97E086FB 
 354      0A4B46
 355 0180 513873EA 		.ascii	"Q8s\352\014\221\260,\353\031\234%`\2221\220\001\230"
 355      0C91B02C 
 355      EB199C25 
 355      60923190 
 355      0198
 356 0192 E0F4D9FB 		.ascii	"\340\364\331\3732x\212\364QLK\340\012E\033\000\233t"
 356      32788AF4 
 356      514C4BE0 
 356      0A451B00 
 356      9B74
 357 01a4 3C63A912 		.ascii	"<c\251\022Ka\377w=\377%\230\372e\362z\257Gz\024\265"
 357      4B61FF77 
 357      3DFF2598 
 357      FA65F27A 
 357      AF477A14 
 358 01b9 8043D496 		.ascii	"\200C\324\226\366\336\216\373\244\203\261\"\242gH)\214"
 358      F6DE8EFB 
 358      A483B122 
 358      A2674829 
 358      8C
 359 01ca B3EFCBF5 		.ascii	"\263\357\313\365?\213\276k\203~\227\215\032\370\001"
 359      3F8BBE6B 
 359      837E978D 
 359      1AF801
 360 01d9 DC810CEB 		.ascii	"\334\201\014\353\340\235\000\227`\352'\014\314\371c"
 360      E09D0097 
 360      60EA270C 
 360      CCF963
 361 01e8 4B551CA0 		.ascii	"KU\034\240\003\317\367\253\304\250\376\327\351\300\316"
 361      03CFF7AB 
 361      C4A8FED7 
 361      E9C0CE
 362 01f7 BC154694 		.ascii	"\274\025F\224\215\013\265\337?V}\347(\3713O\335\337"
 362      8D0BB5DF 
 362      3F567DE7 
 362      28F9334F 
 362      DDDF
 363 0209 887720A9 		.ascii	"\210w \251\260q\230d\274\015I\015~\216\253\2130\371"
 363      B0719864 
 363      BC0D490D 
 363      7E8EAB8B 
 363      30F9
 364 021b C177F367 		.ascii	"\301w\363g\273\202\022\220,\270W\020N\023QJ\262\352"
 364      BB821290 
 364      2CB85710 
ARM GAS  /tmp/ccrnicAv.s 			page 28


 364      4E13514A 
 364      B2EA
 365 022d B5713F7C 		.ascii	"\265q?|\206o\273\323{\035\274\313?/\221f)\370\376\205"
 365      866FBBD3 
 365      7B1DBCCB 
 365      3F2F9166 
 365      29F8FE85 
 366 0241 FCDEED9D 		.ascii	"\374\336\355\235\301w\362\333\365\303>d@\271\307\366"
 366      C177F2DB 
 366      F5C33E64 
 366      40B9C7F6 
 367 0251 8E103BE6 		.ascii	"\216\020;\346\206\350\357\006 R\277\022\251\243\352"
 367      86E8EF06 
 367      2052BF12 
 367      A9A3EA
 368 0260 A6AC3278 		.ascii	"\246\2542x\216\004\301\002\232Xd\360\023\354\367\316"
 368      8E04C102 
 368      9A5864F0 
 368      13ECF7CE 
 369 0270 E79ABAB0 		.ascii	"\347\232\272\260v\345\3063\241\002\2778\334\250\357"
 369      76E5C633 
 369      A102BF38 
 369      DCA8EF
 370 027f 8857D8DB 		.ascii	"\210W\330\333ea\177\370\3327\337\242BE\026\224]2 \316"
 370      65617FF8 
 370      DA37DFA2 
 370      42451694 
 370      5D3220CE 
 371 0293 4465E4BD 		.ascii	"De\344\275\262\006E\243\314\3715\\[\252\365d\360s\221"
 371      B20645A3 
 371      CCF9355C 
 371      5BAAF564 
 371      F07391
 372 02a6 F301C2F4 		.ascii	"\363\001\302\364<\353\027W\373\310c\027P\307$\011\""
 372      3CEB1757 
 372      FBC86317 
 372      50C72409 
 372      22
 373 02b7 2B6F2C88 		.ascii	"+o,\210\252\351b\023\035.Ve\304\360\305&\332\\\254\016"
 373      AAE96213 
 373      1D2E5665 
 373      C4F0C526 
 373      DA5CAC0E 
 374 02cb 5F6BA2E1 		.ascii	"_k\242\341\177\\\015\012\250[\034\336\210\351\236v1"
 374      7F5C0D0A 
 374      A85B1CDE 
 374      88E99E76 
 374      31
 375 02dc C5644C3A 		.ascii	"\305dL:\370\371\253-\005\010=\004\0224_\023\341d\007"
 375      F8F9AB2D 
 375      05083D04 
 375      12345F13 
 375      E16407
 376 02ef C21AFB84 		.ascii	"\302\032\373\204\011'\333\020\216\300\017(\010\037\275"
 376      0927DB10 
 376      8EC00F28 
 376      081FBD
ARM GAS  /tmp/ccrnicAv.s 			page 29


 377 02fe B6ACDDDC 		.ascii	"\266\254\335\334\204\372r\270\323\200\032\374?\006\324"
 377      84FA72B8 
 377      D3801AFC 
 377      3F06D4
 378 030d 42D3805A 		.ascii	"B\323\200Z\3300\240.\2138vt\030P\203\241\001\265\330"
 378      D830A02E 
 378      8B387674 
 378      185083A1 
 378      01B5D8
 379 0320 288E79E2 		.ascii	"(\216y\342\355'\242\227\206\034\301\264\3442\325!\227"
 379      ED27A297 
 379      861CC1B4 
 379      E432D521 
 379      97
 380 0331 C23E9CCB 		.ascii	"\302>\234\313T\233\\\032\260\002b\364\034;f\264k<c\263"
 380      549B5C1A 
 380      B00262F4 
 380      1C3B66B4 
 380      6B3C63B3 
 381 0345 C65B825A 		.ascii	"\306[\202Z}\372L,\344\227\262y\374\000[\335\273I[}\265"
 381      7DFA4C2C 
 381      E497B279 
 381      FC005BDD 
 381      BB495B7D 
 382 035a 106EABA1 		.ascii	"\020n\253\241\333h\253\225\326\266\272*\202\336I\230"
 382      DB68AB95 
 382      D6B6BA2A 
 382      82DE4998 
 383 036a B2AD66D7 		.ascii	"\262\255f\327n\272\255\372:d6\302\210\341\314\366\265"
 383      6EBAADFA 
 383      3A6436C2 
 383      88E1CCF6 
 383      B5
 384 037b C9AC0983 		.ascii	"\311\254\011\203\242H/\255\005=\261\345\266\273j+\201"
 384      A2482FAD 
 384      053DB1E5 
 384      B6BB6A2B 
 384      81
 385 038c 84BBAA29 		.ascii	"\204\273\252)\365\255t\015v\021t=NQ\361\343~\205\376"
 385      F5AD740D 
 385      7611743D 
 385      4E51F1E3 
 385      7E85FE
 386 039f C56930DD 		.ascii	"\305i0\335O'\323.\267\203e\025J\305\274e\227r\207\254"
 386      4F27D32E 
 386      B7836515 
 386      4AC5BC65 
 386      977287AC 
 387 03b3 5CFE45CB 		.ascii	"\\\376E\313.8Y\247T\261\252\345\361\261\347\254j\276"
 387      2E3859A7 
 387      54B1AAE5 
 387      F1B1E7AC 
 387      6ABE
 388 03c5 52B5CA55 		.ascii	"R\265\312U\361.V\017\356\266\001\263\303\233z\220@\366"
 388      F12E560F 
 388      EEB601B3 
 388      C39B7A90 
ARM GAS  /tmp/ccrnicAv.s 			page 30


 388      40F6
 389 03d7 CE98FDFC 		.ascii	"\316\230\375\374x\216\214\012\325B9\237\311Uv\027`\357"
 389      788E8C0A 
 389      D542399F 
 389      C9557617 
 389      60EF
 390 03e9 7FF9E50F 		.ascii	"\177\371\345\017V\255G\367\215<>\322p/\225\363\317\332"
 390      56AD47F7 
 390      8D3C3ED2 
 390      702F95F3 
 390      CFDA
 391 03fb C5C7C6C7 		.ascii	"\305\307\306\307l\002H\354\033y\"\235\315T\362/\224"
 391      6C0248EC 
 391      1B79229D 
 391      CD54F22F 
 391      94
 392 040c 9D07D343 		.ascii	"\235\007\323C\017\201R\006\243\230/\226\312\207`\317"
 392      0F815206 
 392      A3982F96 
 392      CA8760CF 
 393 041c 2D91AAD8 		.ascii	"-\221\252\330\205\034\001\376\013\272\341[\221"
 393      851C01FE 
 393      0BBAE15B 
 393      91
 394              		.text
 395              		.section	.gnu.lto_mtx6_execute.e8a481c64be60343,"",%progbits
 396 0000 789CB596 		.ascii	"x\234\265\226\313KTq\024\307\317\371\335\031g\234f\032"
 396      CB4B5471 
 396      14C7CFF9 
 396      DD19679C 
 396      661A
 397 0012 5FA96325 		.ascii	"_\251c%B(\364\362\006\025\321\316g\340\302M\032\324"
 397      4228F4F2 
 397      0615D1CE 
 397      67E0C24D 
 397      1AD4
 398 0024 2AC63B83 		.ascii	"*\306;\203s\253\353\310\314(J\013\257\217\300E\013\227"
 398      73ABEBC8 
 398      CC284A0B 
 398      AF8FC045 
 398      0B97
 399 0036 D2831235 		.ascii	"\322\203\0225\"\242P\210\242E\011\255BR[$!\263\030\350"
 399      22A25088 
 399      A24509AD 
 399      42525B24 
 399      21B318E8 
 400 004a 0FC8A245 		.ascii	"\017\310\242Eja\277s\237c\216S#x\301\337=\347\336\337"
 400      6A61BF73 
 400      9F638E53 
 400      2378C1DF 
 400      3DE7DEDF 
 401 005e F99E733E 		.ascii	"\371\236s>\347\016?\0310\370\373\012\360\277\323\371"
 401      E70E3F19 
 401      30F8FB0A 
 401      F0BFD3F9 
 402 006e 00497E47 		.ascii	"\000I~G\001\220\215-\000\014\272\031\"\031\2000\300"
 402      01908D2D 
ARM GAS  /tmp/ccrnicAv.s 			page 31


 402      000CBA19 
 402      22198030 
 402      C0
 403 007f 70E00A6A 		.ascii	"p\340\012j{\237\263\271\324\346\346\2637\017\246\356"
 403      7B9FB3B9 
 403      D4E6E6B3 
 403      370FA6EE 
 404 008f E1E891A3 		.ascii	"\341\350\221\243\014d\004\201/\350\344\013s\221\353"
 404      0C640481 
 404      2FE8E40B 
 404      7391EB
 405 009e 26D743AE 		.ascii	"&\327C\256\227\\\037\271~r\013\311-\"\267\204\334Rr"
 405      975C1FB9 
 405      7E720BC9 
 405      2D22B784 
 405      DC5272
 406 00b1 CBC80D90 		.ascii	"\313\310\015\220[MK\015_\004\236\306\011#\252:V\005"
 406      5B4D4B0D 
 406      5F049EC6 
 406      0923AA3A 
 406      5605
 407 00c3 206969DB 		.ascii	" ii\333\371J\265\\BFw\341\003\014\255$W\226\317X\333"
 407      F94AB55C 
 407      424677E1 
 407      030CAD24 
 407      5796CF58 
 408 00d8 74439D7C 		.ascii	"tC\235|$\246\305\352\306\334\374\217\227\\2\210\023"
 408      24A6C5EA 
 408      C6DCFC8F 
 408      975C3288 
 408      13
 409 00e9 BC460935 		.ascii	"\274F\0115=\0115\012\235X}\034\236\250\252\232\372\364"
 409      3D09350A 
 409      9D587D1C 
 409      9EA8AA9A 
 409      FAF4
 410 00fb 62FA184F 		.ascii	"b\372\030O\257{\352y\031\035w\341\316\240\252\026\310"
 410      AF7BEA79 
 410      191D77E1 
 410      CEA0AA16 
 410      C8
 411 010c E8BC09EB 		.ascii	"\350\274\011\353\352(Yy\212\026|\031\271\251\301\350"
 411      EA285979 
 411      8A167C19 
 411      B9A9C1E8 
 412 011c 203F8893 		.ascii	" ?\210\223\\\230\333h\331\000T\340\370lE\020\247\270"
 412      5C98DB68 
 412      D90054E0 
 412      F86C4510 
 412      A7B8
 413 012e DF893586 		.ascii	"\337\2115\206p\234wg\011\273xz\322b\206\026\243\370"
 413      709C7767 
 413      09BB787A 
 413      D2628616 
 413      A3F8
 414 0140 692B3E99 		.ascii	"i+>\231|\374\266E\257\272\023\331IxJ1n\212\036#+\237"
 414      7CFCB645 
ARM GAS  /tmp/ccrnicAv.s 			page 32


 414      AFBA13D9 
 414      49784A31 
 414      6E8A1E23 
 415 0156 CA1A27CB 		.ascii	"\312\032'\313\243hM\221\224\007\314\002\367\245\315"
 415      A3684D91 
 415      9407CC02 
 415      F7A5CD
 416 0165 F7030C8F 		.ascii	"\367\003\014\217\012\246\222\300\253\241\015Z\314\""
 416      0AA692C0 
 416      ABA10D5A 
 416      CC22
 417 0173 949BCFED 		.ascii	"\224\233\317\3556\275\2226\002\302\303h\247oI\2408z"
 417      36BD9236 
 417      02C2C368 
 417      A76F49A0 
 417      387A
 418 0185 EF9671BF 		.ascii	"\357\226q\277\204\016=\006\350I\271\214\376J\270v_\035"
 418      840E3D06 
 418      E849B98C 
 418      FE4AB876 
 418      5F1D
 419 0197 AF93B1C0 		.ascii	"\257\223\261\300\240\314\207X\250\365\360~\311\245?"
 419      A0CC8758 
 419      A8F5F07E 
 419      C9A53F
 420 01a6 A1F2F975 		.ascii	"\241\362\371u\226wk\365_de,V4\010\224\2548C\007\235"
 420      96776BF5 
 420      5F64652C 
 420      56340894 
 420      AC384307 
 421 01bb 2449447E 		.ascii	"$ID~\256\317;\314z]9\023\301\035\210\270M\"l+\021O&"
 421      AECF3BCC 
 421      7A5D3913 
 421      C11D88B8 
 421      4D226C2B 
 422 01d2 222E9B88 		.ascii	"\".\233\210;\033\021e/\210\240M\304\243\023\031\337"
 422      3B1B1165 
 422      2F88A04D 
 422      C4A31319 
 422      DF
 423 01e3 B0897873 		.ascii	"\260\211xs&\302v \3423\211\010[\211\3703\021\361\332"
 423      26C27620 
 423      E2338908 
 423      5B89F833 
 423      11F1DA
 424 01f6 447CD988 		.ascii	"D|\331\210t\357\005\021f\023\361\353D^\245\021)\314"
 424      74EF0511 
 424      6613F1EB 
 424      445EA511 
 424      29CC
 425 0208 9988B003 		.ascii	"\231\210\260\003\221\"\223\210c+\221\222LD\012m\"E\331"
 425      91229388 
 425      632B9192 
 425      4C440A6D 
 425      2245D9
 426 021b 88C4F782 		.ascii	"\210\304\367\202\210`\023)\321\211|N#R\2323\021\307"
 426      88601329 
ARM GAS  /tmp/ccrnicAv.s 			page 33


 426      D1897C4E 
 426      23529A33 
 426      11C7
 427 022d 0E44CA4C 		.ascii	"\016D\312L\"\316\255D\002\231\210\224\332D\312\262\021"
 427      22CEAD44 
 427      02998894 
 427      DA44CAB2 
 427      11
 428 023e E9DD0B22 		.ascii	"\351\335\013\"\016\233\010?\351\026`\350\333\332\273"
 428      0E9B083F 
 428      E91660E8 
 428      DBDABB
 429 024d D9DB8275 		.ascii	"\331\333\202uL\030\271\350\240Cx\315k\346\032\202~L"
 429      4C18B9E8 
 429      A04378CD 
 429      6BE61A82 
 429      7E4C
 430 025f 56C23C9A 		.ascii	"V\302<\232%\031r%UdY\357\027\214\367\007\364\024\213"
 430      25197225 
 430      556459EF 
 430      178CF707 
 430      F4148B
 431 0272 30B23AB4 		.ascii	"0\262:\2649\201\246\246UZ\251\244\347\000\243\3752\005"
 431      3981A6A6 
 431      555AA9A4 
 431      E700A3FD 
 431      3205
 432 0284 05ABC972 		.ascii	"\005\253\311r-\360\341\232\177Wa\353\273\013\333\330"
 432      2DF0E19A 
 432      7F5761EB 
 432      BB0BDBD8 
 433 0294 5DD8AFDD 		.ascii	"]\330\257\335\204\015\247~\177\365l\213\013H\3069*c"
 433      840DA77E 
 433      7FF56C8B 
 433      0B48C639 
 433      2A63
 434 02a6 C5FF0E26 		.ascii	"\305\377\016&\210)nh\203\200\264A\004\361\013V\232#"
 434      88296E68 
 434      8380B441 
 434      04F10B56 
 434      9A23
 435 02b8 185EFDBE 		.ascii	"\030^\375\2769\263}\004<\235\313N\267\010\267R\2433"
 435      39B37D04 
 435      3C9DCB4E 
 435      B708B752 
 435      A333
 436 02ca DE6DBB0E 		.ascii	"\336m\273\016J\350\266\276\035\037\232\037\347\241J"
 436      4AE8B6BE 
 436      1D1F9A1F 
 436      E7A14A
 437 02d9 5836467D 		.ascii	"X6F}\330\376:y\312\217`e\322\257v\376+\342\377\243P"
 437      D8FE3A79 
 437      CA8F6065 
 437      D2AF76FE 
 437      2BE2FFA3 
 438 02ee 59A21889 		.ascii	"Y\242\030\211*aQ\212\206\372\305P\270W\224\"r\207\034"
 438      2A61518A 
ARM GAS  /tmp/ccrnicAv.s 			page 34


 438      86FAC550 
 438      B8579422 
 438      72871C
 439 0301 8D8B8958 		.ascii	"\215\213\211XO\327u1\021\216'\304XB\273+\211\276Z\011"
 439      4FD77531 
 439      118E27C4 
 439      5842BB2B 
 439      89BE5A09 
 440 0315 CE65DDCF 		.ascii	"\316e\335\317\015\276[\356\222n\364\204\370\246H\"\022"
 440      0DBE5BEE 
 440      926EF484 
 440      F8A64822 
 440      12
 441 0326 0B0743F1 		.ascii	"\013\007C\361\332\010\260f`M\300\032\2015\000\253\207"
 441      DA08B066 
 441      604DC01A 
 441      813500AB 
 441      87
 442 0337 BA7FC984 		.ascii	"\272\177\311\204\373\022bck[K\233\255\026\215\205\257"
 442      FB126263 
 442      6B5B4B9B 
 442      AD168D85 
 442      AF
 443 0348 4ACA859E 		.ascii	"J\312\205\236.\211\353\025\264\266]\254\352\010\306"
 443      2E89EB15 
 443      B4B65DAC 
 443      EA08C6
 444 0357 C3DD31F9 		.ascii	"\303\3351\371DU\365)`1p)a%\032\353\207\274\372\206\306"
 444      4455F529 
 444      60317029 
 444      61251AEB 
 444      87BCFA86 
 445 036c A666F803 		.ascii	"\246f\370\003^fE\371"
 445      5E6645F9 
 446              		.text
 447              		.section	.gnu.lto_thread10.e8a481c64be60343,"",%progbits
 448 0000 789C7D50 		.ascii	"x\234}P\261J\003A\020}osgN+[;k\013\027\377%\202\226"
 448      B14A0341 
 448      107D6F73 
 448      674E2B5B 
 448      3B6B0B17 
 449 0018 BA399245 		.ascii	"\2729\222E\316\203\344\024\305\"\027\211`gj\025D\260"
 449      CE83E414 
 449      C5221789 
 449      60676A15 
 449      44B0
 450 002a 36BD85F8 		.ascii	"6\275\205\370\003\346\260S\222\342z\377  q\366.\212"
 450      03E6B053 
 450      92E27AFF 
 450      202071F6 
 450      2E8A
 451 003c 187160F7 		.ascii	"\030q`\367\355\316\314\233y3\012\012\277mE\3166\201"
 451      EDCECC9B 
 451      79330A0A 
 451      BF6D45CE 
 451      3681
 452 004e 0D415640 		.ascii	"\015AV@\325\037\002\335@\221\356\001\242\243\330q\011"
ARM GAS  /tmp/ccrnicAv.s 			page 35


 452      D51F02DD 
 452      4091EE01 
 452      A2A3D871 
 452      09
 453 005f 6203F594 		.ascii	"b\003\365\224O\247\367\3277wc~\250\300cD\370\260E\320"
 453      4FA7F7D7 
 453      3777637E 
 453      A8C06344 
 453      F8B045D0 
 454 0073 472F4DFB 		.ascii	"G/M\373\253\200)\2765\271]\201M*\207\225\014\275\374"
 454      AB8029BE 
 454      35B95D81 
 454      4D2A8795 
 454      0CBDFC
 455 0086 F5A2BAC3 		.ascii	"\365\242\272\303[\372\022>\301$=O\227-iX\326v\236\300"
 455      5BFA123E 
 455      C1243D4F 
 455      972D6958 
 455      D6769EC0 
 456 009a 5245E42C 		.ascii	"RE\344,\311\212\0348\336\333`\236\347\031\252\237<?"
 456      C98A1C38 
 456      DEDB609E 
 456      E719AA9F 
 456      3C3F
 457 00ac A2FAE62D 		.ascii	"\242\372\346-\000\3178}8{\177\\+}\015\372W\270\244("
 457      00CF387D 
 457      387B7F5C 
 457      2B7D0DFA 
 457      57B8A428 
 458 00c0 6DD0DB12 		.ascii	"m\320\333\022\254\316\246\317\340\315\225\016\214k,"
 458      ACCEA6CF 
 458      E0CD950E 
 458      8C6B2C
 459 00cf 262CCBC5 		.ascii	"&,\313\305R\303(\373S\273\367\237\366\027t\363q\\z\\"
 459      52C328FB 
 459      53BBF79F 
 459      F61774F3 
 459      715C7A5C 
 460 00e3 D3A5AF9D 		.ascii	"\323\245\257\235\327dfY\212\033@\353f\034\205\332\304"
 460      D7646659 
 460      8A1B40EB 
 460      661C85DA 
 460      C4
 461 00f4 F5635D0F 		.ascii	"\365c]\017\017\265i\332]\033\267u\322:\330\337\323I"
 461      0FB569DA 
 461      5D1BB775 
 461      D23AD8DF 
 461      D349
 462 0106 D84E742B 		.ascii	"\330Nt+)0J\216\326\015>\001\034\307c\354"
 462      29304A8E 
 462      D60D3E01 
 462      1CC763EC 
 463              		.text
 464              		.section	.gnu.lto_mtx6_setup.e8a481c64be60343,"",%progbits
 465 0000 789C6362 		.ascii	"x\234cb`b@\007\222@|\014\210\015\201\230\221\231\201"
 465      60624007 
 465      92407C0C 
ARM GAS  /tmp/ccrnicAv.s 			page 36


 465      880D8198 
 465      919981
 466 0013 9169C239 		.ascii	"\221i\3029\006\206F\016&FF\020\203\201\221\241\236\211"
 466      0686460E 
 466      26464610 
 466      838191A1 
 466      9E89
 467 0025 B13E9211 		.ascii	"\261>\222\021\254v=\323\201\007\377\377\257\2330\177"
 467      AC763DD3 
 467      8107FFFF 
 467      AF9B307F 
 468 0035 FE19C63F 		.ascii	"\376\031\306?L,@\021V\206\226\206\206\011\012\014\014"
 468      4C2C4011 
 468      56869686 
 468      86090A0C 
 468      0C
 469 0046 C9601521 		.ascii	"\311`\025!@\022\244-\224\221\011D3\237ghyp\352=W\"\343"
 469      4012A42D 
 469      94910944 
 469      339F6768 
 469      7970EA3D 
 470 005d 424656A0 		.ascii	"BFV\240t5\303\257\206\216\006\201LF\240r\210\211 \021"
 470      7435C3AF 
 470      868E0681 
 470      4C46A072 
 470      88892011 
 471 0071 8E4C46C6 		.ascii	"\216LF\306\\F\006\250\242L\240V\006\220\276\323\347"
 471      5C4606A8 
 471      A24CA056 
 471      0690BED3 
 471      E7
 472 0082 31F53127 		.ascii	"1\3651'32!\353c\311ed\204\353\003\022\027\031\032\037"
 472      333221EB 
 472      63C96564 
 472      84EB0312 
 472      17191A1F 
 473 0096 9CD18769 		.ascii	"\234\321\207i\203\200\020\240U@\267\200\364\351\353"
 473      838010A0 
 473      5540B780 
 473      F4E9EB
 474 00a5 67E4E7A6 		.ascii	"g\344\347\246\352'\347\247T\352\247\244\226\351'gd&"
 474      EA27E7A7 
 474      54EAA7A4 
 474      96E92767 
 474      6426
 475 00b7 65E617EB 		.ascii	"e\346\027\353\227\024\225\346e\353\227\244\026\227\350"
 475      971495E6 
 475      65EB97A4 
 475      1697E8
 476 00c6 179580E9 		.ascii	"\027\225\200\351\334\222\012\275d\006\000\221yF+"
 476      DC920ABD 
 476      64060091 
 476      79462B
 477              		.text
 478              		.section	.gnu.lto_mtx7_setup.e8a481c64be60343,"",%progbits
 479 0000 789C658E 		.ascii	"x\234e\216\277\016\001A\020\306\347\333;\211R\253\363"
 479      BF0E0141 
ARM GAS  /tmp/ccrnicAv.s 			page 37


 479      10C6E7DB 
 479      3B8952AB 
 479      F3
 480 0011 0436DE85 		.ascii	"\0046\336\205B\311\272\304F\316%,!\212;\211B\351\025"
 480      42C9BAC4 
 480      46CE252C 
 480      218A3B89 
 480      42E915
 481 0024 740A21D7 		.ascii	"t\012!\327)%:\005\321)/\236@\255a\366\374\2110\3117"
 481      29253A05 
 481      D1292F9E 
 481      40AD61F6 
 481      FC8930C9 
 482 0039 3399F97E 		.ascii	"3\231\371~\273#H\320o\344Y{V\211\005\207 f\007\242q"
 482      BB2348D0 
 482      6FE4597B 
 482      56890587 
 482      206607A2 
 483 004e 5600B621 		.ascii	"V\000\266!P(\020V\221z\327b\233\334\357\253\363\345"
 483      50281056 
 483      917AD762 
 483      9BDCEFAB 
 483      F3E5
 484 0060 BAC32676 		.ascii	"\272\303&v]\036eh\022E\263\002\221J-e\316\226\253@\330"
 484      5D1E6568 
 484      1245B302 
 484      914A2D65 
 484      CE96AB40 
 485 0075 EA1C6992 		.ascii	"\352\034i\222\254\342%j\230#\303\373\021\335\242i\224"
 485      ACE2256A 
 485      9823C3FB 
 485      11DDA269 
 485      94
 486 0086 D360FFF3 		.ascii	"\323`\377\363M;\311j\300\007\275L\232Y\262\340:^\374"
 486      4D3BC96A 
 486      C007BD4C 
 486      9A59B2E0 
 486      3A5EFC
 487 0099 838E82F8 		.ascii	"\203\216\202\370\006]\037\370\200\234N4N\370\2667\367"
 487      065D1FF8 
 487      809C4E34 
 487      4EF8B637 
 487      F7
 488 00aa 8C327FC6 		.ascii	"\2142\177\306\347XP\312f\340{R\005\215\241lx}\251\232"
 488      E75850CA 
 488      66E07B52 
 488      058DA16C 
 488      787DA99A 
 489 00be BAAE83AE 		.ascii	"\272\256\203\2564\235^\273%\215\3275\262c\322\352\233"
 489      349D5EBB 
 489      258DD735 
 489      B263D2EA 
 489      9B
 490 00cf 4151D103 		.ascii	"AQ\321\003\304\033H\221"
 490      C41B4891 
 491              		.text
 492              		.section	.gnu.lto_mtx8_setup.e8a481c64be60343,"",%progbits
ARM GAS  /tmp/ccrnicAv.s 			page 38


 493 0000 789C6362 		.ascii	"x\234cb`b@\007\222@\314\310\310\300`\010\242\231\031"
 493      60624007 
 493      9240CCC8 
 493      C8C06008 
 493      A29919
 494 0013 1899269C 		.ascii	"\030\231&\234c`h\344`bd\0041\030\030\031\352\231\030"
 494      636068E4 
 494      60626404 
 494      31181819 
 494      EA9918
 495 0026 EB2319C1 		.ascii	"\353#\031\301j\3273\035x\360\377\377\272{\217?\034f"
 495      6AD7331D 
 495      78F0FFFF 
 495      BA7B8F3F 
 495      1C66
 496 0038 FCB39185 		.ascii	"\374\263\221\205\025(\304\312\320\322\3200A\201\201"
 496      1528C4CA 
 496      D0D2D030 
 496      418181
 497 0047 2119AC24 		.ascii	"!\031\254$\004H\202\364\20522\201h\346\363\014-\017"
 497      044882F4 
 497      85323281 
 497      68E6F30C 
 497      2D0F
 498 0059 7E6E5CC3 		.ascii	"~n\\\303\230\310\270\220\021\244\274\232\341WCG\203"
 498      98C8B890 
 498      11A4BC9A 
 498      E1574347 
 498      83
 499 006a 40262350 		.ascii	"@&#P=\304L\220\010G&#c.#\003TQ&P/\003H\343\257\215+"
 499      3DC44C90 
 499      08472623 
 499      632E2303 
 499      54512650 
 500 0085 30353227 		.ascii	"052'32!kd\311ed\204kd\005k\\\360\333\220\030mL\310\332"
 500      3332216B 
 500      64C96564 
 500      846B6405 
 500      6B5CF0DB 
 501 009f 2E32343E 		.ascii	".24>\000z\011\246\017\002B\200n\004\372\002\244Q_?#"
 501      007A09A6 
 501      0F024280 
 501      6E04FA02 
 501      A4515F3F 
 502 00b4 3F37553F 		.ascii	"?7U?9?\245R?%\265L?9#3)3\277X\277\244\2504/[\277$\265"
 502      393FA552 
 502      3F25B54C 
 502      3F392333 
 502      2933BF58 
 503 00d1 B844BFA8 		.ascii	"\270D\277\250\004L\347\226T\350%3\000\000\232/UJ"
 503      044CE796 
 503      54E82533 
 503      00009A2F 
 503      554A
 504              		.text
 505              		.section	.gnu.lto_mtx7_execute.e8a481c64be60343,"",%progbits
 506 0000 789CB595 		.ascii	"x\234\265\225\313k\023Q\024\207\317\271\223t\322\230"
ARM GAS  /tmp/ccrnicAv.s 			page 39


 506      CB6B1351 
 506      1487CFB9 
 506      9374D298 
 507 0010 98268D49 		.ascii	"\230&\215IS%\355Z\261\263Q\304\235}-\334W\320e:\011"
 507      5325ED5A 
 507      B1B351C4 
 507      9D7D2DDC 
 507      57D0653A 
 508 0025 C9A8D348 		.ascii	"\311\250\323H\223\026\213\213Nm\205\202\012q\027\024"
 508      93168B8B 
 508      4E6D8582 
 508      0A711714 
 509 0035 17522B22 		.ascii	"\027R+\"bMAp\331\205.|T\353B\221R$\3707t!n\35293\231"
 509      624D4170 
 509      D9852E7C 
 509      54EB4291 
 509      5224F837 
 510 0050 99C42681 		.ascii	"\231\304&\201,r!\367\236\337\344<\277\0133\002\004\374"
 510      2C7221F7 
 510      9EDFE43C 
 510      BF0B3302 
 510      04FC
 511 0062 BF12F4BB 		.ascii	"\277\022\364\273/\003,\322\211\022\240(}\001X\362\011"
 511      2F032CD2 
 511      8912A028 
 511      7D0158F2 
 511      09
 512 0073 44360061 		.ascii	"D6\000aQ\340\342\0254}7\304V\365\340\340\325\376\357"
 512      51E0E215 
 512      347D37C4 
 512      56F5E0E0 
 512      D5FEEF
 513 0086 AD77B85D 		.ascii	"\255w\270]\361\014\013\320\020$\332\320K\233\220Y\372"
 513      F10C0BD0 
 513      1024DAD0 
 513      4B9B9059 
 513      FA
 514 0097 58FA5906 		.ascii	"X\372Y\006X\006Y\206X\206YFXFY\306X\306Y&X&y\033\242"
 514      58065986 
 514      58865946 
 514      584659C6 
 514      58C65926 
 515 00b0 4DA23A5E 		.ascii	"M\242:^X1\214\3220\200j\326\235\242\235\233\271\204"
 515      58318CD2 
 515      30806AD6 
 515      9DA29D9B 
 515      B984
 516 00c2 824F691B 		.ascii	"\202Oi\033n\357\356\355\3768\343\270Y\206\261\366L\251"
 516      6EEFEEED 
 516      FE38E3B8 
 516      5986B1F6 
 516      4CA9
 517 00d4 8BB58CAD 		.ascii	"\213\265\214\255\273\277\3121\212O\341\023jRE3\241\212"
 517      BBBFCA31 
 517      8A4FE113 
 517      6A524533 
 517      A18A
ARM GAS  /tmp/ccrnicAv.s 			page 40


 518 00e6 26872C26 		.ascii	"&\207,&O\301\013\3030\252\337\337\254\237\244\372\226"
 518      4FC10BC3 
 518      30AADFDF 
 518      AC9FA4FA 
 518      96
 519 00f7 32CE6BE8 		.ascii	"2\316k\350y\004\017\227\014\243OC\357-\370k\254\262"
 519      79040F97 
 519      0CA34F43 
 519      EF2DF86B 
 519      ACB2
 520 0109 D5A39BC1 		.ascii	"\325\243\233\301\227\221L\023\3074\353\024\256Qb\262"
 520      97914C13 
 520      C734EB14 
 520      AE5162B2 
 521 0119 D1B101B8 		.ascii	"\321\261\001\270\303\362\346`\012\237\222\316\342P-"
 521      C3F2E660 
 521      0A9F92CE 
 521      E2502D
 522 0128 7181C673 		.ascii	"q\201\306s\022\313T\236s\211Z.\301\361\353N\374\336"
 522      12CB549E 
 522      73895A2E 
 522      C1F1EB4E 
 522      FCDE
 523 013a DEFEFB07 		.ascii	"\336\376\373\007\275V\333Y\024\247\341%\007\3718\274"
 523      BD56DB59 
 523      14A7E125 
 523      07F938BC 
 524 014a C4562FF7 		.ascii	"\304V/\367Uf\313\257\233Sq.?\330\035\036\251\273\342"
 524      5566CBAF 
 524      9B53712E 
 524      3FD81D1E 
 524      A9BBE2
 525 015d 6D585E95 		.ascii	"mX^\225\354L\022\265\303\016f\314W\030\260\237\273s"
 525      EC4C12B5 
 525      C30E66CC 
 525      5718B09F 
 525      BB73
 526 016f 0654F312 		.ascii	"\006T\363\022\230\217`\317\340\216\304q\374\277O\303"
 526      988F60CF 
 526      E08EC471 
 526      FCBF4FC3 
 527 017f A32A7AAC 		.ascii	"\243*z\254\030\340'\003\032\206\222p\365\261Q\276\240"
 527      18E02703 
 527      1A869270 
 527      F5B151BE 
 527      A0
 528 0190 615F0D33 		.ascii	"a_\0153]c\330\034\342\303\216l=\341\366i\235\245q\035"
 528      5D63D81C 
 528      E2C38E6C 
 528      3DE1F669 
 528      9DA5711D 
 529 01a4 0011A762 		.ascii	"\000\021\247b\277nR\340b\375M&\310rJF\362s\343\336E"
 529      BF6E52E0 
 529      62FD4D26 
 529      C8724A46 
 529      F273E3DE 
 530 01b9 BB5FB963 		.ascii	"\273_\271c\"\330\202\210\317&\"\032\211\370\233\021"
ARM GAS  /tmp/ccrnicAv.s 			page 41


 530      22D88288 
 530      CF26221A 
 530      89F89B11 
 531 01c9 915D22BE 		.ascii	"\221]\"\276vD\364n\020A\227\210\337\"\362\247\216H\240"
 531      7644F46E 
 531      10419788 
 531      DF22F2A7 
 531      8E48A0
 532 01dc 6322A205 		.ascii	"c\"\242\005\221\240MDj$\022jF$\340\022\011\266#r\243"
 532      91A04D44 
 532      6A24126A 
 532      4624E012 
 532      09B62372 
 533 01f1 1B44844B 		.ascii	"\033D\204K$d\021)o\272D\302\035\023\221Z\020\211\330"
 533      24641129 
 533      6FBA44C2 
 533      1D13915A 
 533      1089D8
 534 0204 443C8D44 		.ascii	"D<\215D\242\315\210\204]\"\221vD\012\335 \"\271D\242"
 534      A2CD8884 
 534      5D229176 
 534      440ADD20 
 534      22B944A2 
 535 0218 1691B775 		.ascii	"\026\221\267uDb\035\023\361\264 \022\267\211x\033\211"
 535      44621D13 
 535      F1B42012 
 535      B789781B 
 535      89
 536 0229 249A1189 		.ascii	"$\232\021\211\271D\342\355\210\314w\203\210\307%\222"
 536      B944E2ED 
 536      88CC7783 
 536      88C72592 
 537 0239 E05657AA 		.ascii	"\340VW\252\037+\317\261V\001\234\340\250j\275{\241\326"
 537      1F2BCFB1 
 537      56019CE0 
 537      A86ABD7B 
 537      A1D6
 538 024b E0311D25 		.ascii	"\3401\035%\247\215\030\007.W?U^\037\016\214\253\265"
 538      A78D1807 
 538      2E573F55 
 538      5E1F0E8C 
 538      ABB5
 539 025d EF818603 		.ascii	"\357\201\206\003\354v\247\372\271\0228\344\225PQvz\012"
 539      EC76A7FA 
 539      B91238E4 
 539      95505176 
 539      7A0A
 540 026f A23DF460 		.ascii	"\242=\364`\022\026\254\241\217\273C\237\000\370\006"
 540      1216ACA1 
 540      8FBB439F 
 540      00F806
 541 027e 4E216B4D 		.ascii	"N!kM\321\345\320\307\217\347S\224\\^\317(j>\275\240"
 541      D1E5D0C7 
 541      8FE75394 
 541      5C5ECF28 
 541      6A3EBDA0 
 542 0292 A433F38A 		.ascii	"\2443\363\212\232\323\246\265|A)\316\316\315\\S\212"
ARM GAS  /tmp/ccrnicAv.s 			page 42


 542      9AD3A6B5 
 542      7C4129CE 
 542      CECD5C53 
 542      8A
 543 02a3 99425199 		.ascii	"\231BQ\231-\232\247^\2749\242\302\271\266\376d\220\267"
 543      2D9AA75E 
 543      BC39A2C2 
 543      B9B6FE64 
 543      90B7
 544 02b5 36A35E9F 		.ascii	"6\243^\237K\223S\256\230\233\315\244\322\205\221\034"
 544      4B9353AE 
 544      989BCDA4 
 544      D285911C 
 545 02c5 88491013 		.ascii	"\210I\020\023 \306A\214\201\030\205\236\321\261\361"
 545      20C6418C 
 545      8118859E 
 545      D1B1F1
 546 02d4 8949F807 		.ascii	"\211I\370\007+3\315?"
 546      2B33CD3F 
 547              		.text
 548              		.section	.gnu.lto_mtx8_execute.e8a481c64be60343,"",%progbits
 549 0000 789CB594 		.ascii	"x\234\265\224\317k\023Q\020\307g\336&\315&&\246Z\223"
 549      CF6B1351 
 549      10C767DE 
 549      26CD2626 
 549      A65A93
 550 0013 A6558A67 		.ascii	"\246U\212g\305\356AE\274\331\366\344\275\202\036\323"
 550      C5EE4145 
 550      BCD9F6E4 
 550      BD821ED3 
 551 0023 4D4856DD 		.ascii	"MHV\335F\222\255?P\350\326V\350\301C\274EEPj=\210\250"
 551      4692AD3F 
 551      50E8D656 
 551      E8C143BC 
 551      4545506A 
 552 003a 1804C15F 		.ascii	"\030\004\301_9x\021\211\326\203?\010=\354\311c\377\000"
 552      39781189 
 552      D6833F08 
 552      3DECC963 
 552      FF00
 553 004c 2F75E66D 		.ascii	"/u\346mv75\251P\241\017\362\336\314\313|\347\307\347"
 553      763735A9 
 553      50A10FF2 
 553      DECCCB7C 
 553      E7C7E7
 554 005f C10A10F0 		.ascii	"\301\012\020\360\367\032\242\337\\\030\340\022\235\250"
 554      F71AA2DF 
 554      5C18E012 
 554      9DA8
 555 006d 008AEA67 		.ascii	"\000\212\352g\272P\005\"\033\2000+p\366\014\312\330"
 555      BA500522 
 555      1B80302B 
 555      70F60CCA 
 555      D8
 556 007e 67A2E1AC 		.ascii	"g\242\341\254\257?m\375j|\300\367\365\320\240\000\003"
 556      AF3F6DFD 
 556      6A7CC0F7 
ARM GAS  /tmp/ccrnicAv.s 			page 43


 556      F5D0A000 
 556      03
 557 008f 41A10DC3 		.ascii	"A\241\015\303\264\211\010\273*\2731v\343\354&\330M\262"
 557      B48908BB 
 557      2ABB3176 
 557      E3EC26D8 
 557      4DB2
 558 00a1 9BE22D4D 		.ascii	"\233\342-M\233B\231\302\260`\333\325\375\000\272\314"
 558      9B4299C2 
 558      B060DBD5 
 558      FD00BACC 
 559 00b1 3C493B97 		.ascii	"<I;\227;\205\202O\245\011\327[\253\255\357G\3740\327"
 559      3B85824F 
 559      A509D75B 
 559      ABADEF47 
 559      FC30D7
 560 00c4 B0971E69 		.ascii	"\260\227\036i\035Z\327h|\372q;M\372,>\2406t\224\011"
 560      1D5AD768 
 560      7CFA713B 
 560      4DFA2C3E 
 560      A0367494 
 561 00d9 75949316 		.ascii	"u\224\223\0260u\020\036\333\266\355|{\271|\200\352\273"
 561      3075101E 
 561      DBB6ED7C 
 561      7BB97C80 
 561      EABB
 562 00eb 9E7DDCC0 		.ascii	"\236}\334\300\320]\2703g\333\375\006\206\257\302o{\221"
 562      D05DB833 
 562      67DBFD06 
 562      86AFC26F 
 562      7B91
 563 00fd AD3E538A 		.ascii	"\255>S\212O#\231r\340)\366\263\270D\211\311F\337\006"
 563      4F239972 
 563      E029F6B3 
 563      B84489C9 
 563      46DF06
 564 0110 E00E6B2F 		.ascii	"\340\016k/\206\263\370\220\374\002\246\333\211+4\236"
 564      86B3F890 
 564      FC02A6DB 
 564      892B349E 
 565 0120 9F3842E5 		.ascii	"\2378B\3459\227h\347\022\254_\366\365\253\253N\363V"
 565      399768E7 
 565      12AC5FF6 
 565      F5ABAB4E 
 565      F356
 566 0132 D46DBB80 		.ascii	"\324m\273\200\342\020<a\221\312\362*[Q\356\253\306V"
 566      E2103C61 
 566      91CAF22A 
 566      5B51EEAB 
 566      C656
 567 0144 CC945371 		.ascii	"\314\224Sq\256\030x\035\356\350x\304&\314/*^&\205\332"
 567      AE18781D 
 567      EEE878C4 
 567      26CC2F2A 
 567      5E2685DA 
 568 0158 E100A9F9 		.ascii	"\341\000\251\371\002\031\357>\2303\256\313G`>\202#\023"
 568      0219EF3E 
ARM GAS  /tmp/ccrnicAv.s 			page 44


 568      9833AECB 
 568      47603E82 
 568      2313
 569 016a 2B0AEBF8 		.ascii	"+\012\353\370\177\325\300\235:\206\\\015\360M\306\300"
 569      7FD5C09D 
 569      3A865C0D 
 569      F04DC6C0 
 570 017a E4089CBD 		.ascii	"\344\010\234\275g\327N\030\330\337\306L\317\270K\016"
 570      67D74E18 
 570      D8DFC64C 
 570      CFB84B0E 
 571 018a F17125E2 		.ascii	"\361q%\342\336p\373\264\216\322\270>\200\335~\305\001"
 571      DE70FBB4 
 571      8ED2B83E 
 571      80DD7EC5 
 571      01
 572 019b 5352E062 		.ascii	"SR\340b\003=&(pJF\362j\355\346I\257\337\310\226\211"
 572      033D2628 
 572      704A46F2 
 572      6AEDE649 
 572      AFDFC896 
 573 01b0 E0264454 		.ascii	"\340&DT\217\210\330H$\326\213H$ \242\006D\302]D\314"
 573      8F88D848 
 573      24D68B48 
 573      2420A206 
 573      44C25D44 
 574 01c5 ED208201 		.ascii	"\355 \202\001\221\230K\344g\007\221\370\226\211\210"
 574      91984BE4 
 574      670791F8 
 574      968988
 575 01d4 4D88243C 		.ascii	"M\210$<\"\312F\"\311^D\342\001\221D@\244\257\213\310"
 575      22CA4622 
 575      C95E44E2 
 575      01914440 
 575      A4AF8BC8 
 576 01e8 85ED2022 		.ascii	"\205\355 \"\002\"Inu\301y]\277\326.\000\276v\217\216"
 576      0222496E 
 576      75C1795D 
 576      BFD62E00 
 576      BE768F8E 
 577 01fc 1119D5EE 		.ascii	"\021\031\325\356/e\242\342w\221\226\272\373o\016\377"
 577      2F65A2E2 
 577      779196BA 
 577      FB6F0EFF 
 578 020c 876CDE79 		.ascii	"\207l\336y[\177\216]\302A\035U)40\303a7\234w\365xW\324"
 578      5B7F8E5D 
 578      C2411D55 
 578      293430C3 
 578      61379C77 
 579 0224 908E517F 		.ascii	"\220\216Q\177\222\004z\250\206G\240\342\242\332\033"
 579      92047AA8 
 579      8647A0E2 
 579      A2DA1B
 580 0233 A0DA07F0 		.ascii	"\240\332\007\360\025\374B\356\232\244'\245\317!#\320"
 580      15FC42EE 
 580      9AA427A5 
 580      CF2123D0 
ARM GAS  /tmp/ccrnicAv.s 			page 45


 581 0243 B462C9CC 		.ascii	"\264b\311\314kz)wE\313\345/jz\321\2302J\025\315*\317"
 581      6B7A2977 
 581      45CBE52F 
 581      6A7AD198 
 581      324A15CD 
 582 0259 4C9FD3AC 		.ascii	"L\237\323\254|\305\322\312\226<M\353\362\250\016\307"
 582      7CC5D2CA 
 582      963C4DEB 
 582      F2A80EC7 
 583 0269 FE194F06 		.ascii	"\376\031O\006E\033\323\372\371\231\034\005\025\255b"
 583      451BD3FA 
 583      F9991C05 
 583      15AD62
 584 0278 399FCD55 		.ascii	"9\237\315UF\213 \306@L\200\030\207\320\330\370\004\374"
 584      468B20C6 
 584      404C8018 
 584      87D0D8F8 
 584      04FC
 585 028a 01612560 		.ascii	"\001a%`\377"
 585      FF
 586              		.text
 587              		.section	.gnu.lto_thread11.e8a481c64be60343,"",%progbits
 588 0000 789C8D51 		.ascii	"x\234\215Q\275J\003A\020\236os\027\317(hk\347\023\270"
 588      BD4A0341 
 588      109E6F73 
 588      17CF2868 
 588      6BE713B8 
 589 0014 88AF1241 		.ascii	"\210\257\022AK\335\034f\221\363$9%b\221\213$\020\261"
 589      4BDD1C66 
 589      91F32439 
 589      2562918B 
 589      2410B1
 590 0027 49A94993 		.ascii	"I\251I\223\274\200\012\327\331\230\302R\0156\326\007"
 590      BC800AD7 
 590      D998C252 
 590      0D36D607 
 591 0037 BE850871 		.ascii	"\276\205\010q\366\356\004\363\2038\260;\2633\3377;?"
 591      F6EE04F3 
 591      8338B03B 
 591      B333DF37 
 591      3B3F
 592 0049 82044DCB 		.ascii	"\202\004M\313\032\237w\020m\262F\216 :\257D\015G\000"
 592      1A9F7710 
 592      6DB2468E 
 592      203AAF44 
 592      0D4700
 593 005c C620505D 		.ascii	"\306 P]\240\276\213\004{'\206\361x|\373\3651|B/\262"
 593      A0BE8B04 
 593      7B2786F1 
 593      787CFBF5 
 593      317C422F 
 594 0071 0A363C50 		.ascii	"\0126<P\236t\022\265\251\031\206\235u\"\225<\213|\233"
 594      9E7412B5 
 594      A919869D 
 594      7522953C 
 594      8B7C9B
 595 0084 0CDB1046 		.ascii	"\014\333\020F\347F\324\214\333\321\361\036\006\2609"
ARM GAS  /tmp/ccrnicAv.s 			page 46


 595      E746D48C 
 595      DBD1F11E 
 595      06B039
 596 0093 7C4E9F61 		.ascii	"|N\237a;\\\325\200B\232\334x\034\015\341\001\031Hs="
 596      3B5CD580 
 596      429ADC78 
 596      1C0DE101 
 596      1948733D 
 597 00a7 C4BCFEE5 		.ascii	"\304\274\376\345\326\177hb\222\326\212\257\242{\314"
 597      D67F6862 
 597      92D68AAF 
 597      A27BCC
 598 00b6 102D05F1 		.ascii	"\020-\005\361\233h{\310e\240\035h\344\307,+\234c\201"
 598      9B687BC8 
 598      65A01D68 
 598      E4C72C2B 
 598      9C6381
 599 00c9 E8852E1E 		.ascii	"\350\205.\036Z\217\317\003;\215\037 \337\243.c\330\262"
 599      5A8FCF03 
 599      3B8D1F20 
 599      DFA32E63 
 599      D8B2
 600 00db 0DD6C946 		.ascii	"\015\326\311F8\"k\346\233Ee\252`a\226F!\351#\276\216"
 600      38226BE6 
 600      9B4565AA 
 600      60619646 
 600      21E923BE 
 601 00f0 6AF31AB1 		.ascii	"j\363\032\261\376n\244\331\277\231\333\3774mblo\324"
 601      FE6EA4D9 
 601      BF99DBFF 
 601      346D626C 
 601      6FD4
 602 0102 88BBD172 		.ascii	"\210\273\321r\3522\305.\375,\274\310\203\343\205\230"
 602      EA32C52E 
 602      FD2CBCC8 
 602      83E38598 
 603 0112 214859F6 		.ascii	"!HY\366=W*\277t&K\356\251Te\275\257\375\252\014*'G\207"
 603      3D572ABF 
 603      74264BEE 
 603      A95465BD 
 603      AFFDAA0C 
 604 012a 3270AB81 		.ascii	"2p\253\201\254\004\211\366\202\332\206\242o\371\343"
 604      AC0489F6 
 604      82DA86A2 
 604      6FF9E3
 605 0139 833C     		.ascii	"\203<"
 606              		.text
 607              		.section	.gnu.lto_.symbol_nodes.e8a481c64be60343,"",%progbits
 608 0000 789C4D93 		.ascii	"x\234M\223\331NTA\020@\273\352\316\014\313\254\002w"
 608      D94E5441 
 608      1040BBEA 
 608      CE0CCBAC 
 608      0277
 609 0012 AEFB2C0C 		.ascii	"\256\373,\014(\356&\276\362%$\0325\301\204\007L\344"
 609      28EE26BE 
 609      F225241A 
 609      35C18407 
ARM GAS  /tmp/ccrnicAv.s 			page 47


 609      4CE4
 610 0024 036A7414 		.ascii	"\003jt\024\004\014\340\362\350\333|\203_p\023L \201"
 610      040CE0F2 
 610      E8DB7C83 
 610      5F70134C 
 610      2081
 611 0036 0413497C 		.ascii	"\004\023I|R\257\273(\356\273huwi7\017\234\234\252[\335"
 611      52AFBB28 
 611      EEBB6875 
 611      7769370F 
 611      9C9CAA5B 
 612 004b 554D810A 		.ascii	"UM\201\012\325fZ\331\037|\016\224Q\013+J\021\335\236"
 612      D5665AD9 
 612      1F7C0E94 
 612      510B2B4A 
 612      11DD9E
 613 005e 3E9D9EC2 		.ascii	">\235\236\302@\221J?\006\225\242 \375\007Rl\370\014"
 613      40914A3F 
 613      0695A220 
 613      FD07526C 
 613      F80C
 614 0070 4879DF5C 		.ascii	"Hy\337\\\304\264\216\376\000Jy\321\004\200K\360)P\207"
 614      C4B48EFE 
 614      004A79D1 
 614      04804BF0 
 614      295087
 615 0083 8BE24BA0 		.ascii	"\213\342K\240NO\337\002uy\372\032\010<}\005\204\236"
 615      4E4FDF02 
 615      7579FA1A 
 615      083C7D05 
 615      849E
 616 0095 6E00757B 		.ascii	"n\000u{\272\011\224\365\364#P\316\323\017@\201\327\315"
 616      BA0994F5 
 616      F42350CE 
 616      D30F4081 
 616      D7CD
 617 00a7 1340DDCD 		.ascii	"\023@\335\315{\240\274\367\321g\240\202\247\337\200"
 617      7BA0BCF7 
 617      D167A082 
 617      A7DF80
 618 00b6 8A9E7E01 		.ascii	"\212\236~\001*y\372\023h\233\247\337\201\322\336\005"
 618      2A79FA13 
 618      689BA7DF 
 618      81D2DE05 
 619 00c6 BF2193E6 		.ascii	"\277!\223\346\207z\001\035\032o\240S\343\035ti|\202"
 619      877A011D 
 619      1A6FA053 
 619      E31D7469 
 619      7C82
 620 00d8 6E8DAF90 		.ascii	"n\215\257\220\325\370\0059\006\\A\352\261\365\315&\300"
 620      D5F80539 
 620      065C41EA 
 620      B1F5CD26 
 620      C0
 621 00e9 65A45E67 		.ascii	"e\244^g-\244>g\227\220BgM\244\262\263-\240\310\331$"
 621      2DA43E67 
 621      97904267 
ARM GAS  /tmp/ccrnicAv.s 			page 48


 621      4DA4B2B3 
 621      2DA0C8D9 
 622 00fe D2766757 		.ascii	"\322vgW\221v8\233F\332\351l\006i\227\263kH\273\235\315"
 622      9176389B 
 622      46DAE96C 
 622      066997B3 
 622      6B48BB9D 
 623 0113 22ED7136 		.ascii	"\"\355q6\207\264\327\331<R\305\331\002R\325\331u\244"
 623      87B4D7D9 
 623      3C52C5D9 
 623      0252D5D9 
 623      75A4
 624 0125 9AB31B48 		.ascii	"\232\263\033Hug7\221\372\235\335Bj\374\267@5T\374p\213"
 624      75673791 
 624      FA9DDD42 
 624      6AFCB740 
 624      3554FC70 
 625 013a D9AFDA8F 		.ascii	"\331\257\332\217\204\223\033\025\303)\341\214pV\263"
 625      84931B15 
 625      C329E18C 
 625      7056B3
 626 0149 AE12C39A 		.ascii	"\256\022\303\232j\315iVUk^\263\242\342\325\305L\220"
 626      6ACD6956 
 626      556B5EB3 
 626      A2E2D5C5 
 626      4C90
 627 015b 6AA8963E 		.ascii	"j\250\226>/5`\317M\361\367\232\031\211g$\236\221x\347"
 627      2F3560CF 
 627      4DF1F79A 
 627      19896724 
 627      9E9178E7 
 628 016f A08D7739 		.ascii	"\240\215w9\2665\273\305\263\373\204\015\033\317\326"
 628      B635BBC5 
 628      B3FB840D 
 628      1BCFD6
 629 017e 6D7D4EE2 		.ascii	"m}N\3429\211\347$\236\2279\230-=G\236\3473\254\252X"
 629      3989E724 
 629      9E973998 
 629      2D3D479E 
 629      E733ACAA 
 630 0193 CF93E7BA 		.ascii	"\317\223\347\272%\356\223\275\265\254\311\371\345u4"
 630      25EE93BD 
 630      B5ACC9F9 
 630      E57534
 631 01a2 F9154DCE 		.ascii	"\371\025M\316\257\016\233\364\032\203O]\213L\362^dr"
 631      AF0E9BF4 
 631      1A834F5D 
 631      8B4CF25E 
 631      6472
 632 01b4 F77326B7 		.ascii	"\367s&\267\316\330\257\342u0\271\007\014~\217\021s\273"
 632      CED8AFE2 
 632      7530B907 
 632      0C7E8F11 
 632      73BB
 633 01c6 F99D8CE8 		.ascii	"\371\235\214\350\223\333'u\272}JW&\246\207\344\214\211"
 633      93DB2775 
 633      BA7D4A57 
ARM GAS  /tmp/ccrnicAv.s 			page 49


 633      26A687E4 
 633      8C89
 634 01d8 9F35F151 		.ascii	"\2375\361Q\023\0375\361sA\376\200\212\307\202\374\220"
 634      131F35F1 
 634      7341FE80 
 634      8AC782FC 
 634      90
 635 01e9 4AC6CC15 		.ascii	"J\306\314\025\343:\033\217\233\013\316\353\333Z\027"
 635      E33A1B8F 
 635      9B0BCEEB 
 635      DB5A17
 636 01f8 4C7C42DF 		.ascii	"L|B\337\025O\004\205\203v\342B\325\276${\373\316\011"
 636      154F0485 
 636      8376E242 
 636      D5BE247B 
 636      FBCE09
 637 020b A31A7CDA 		.ascii	"\243\032|\332\"\317\303\032\337\025.\015\233\354r\024"
 637      22CFC31A 
 637      DF152E0D 
 637      9BEC7214 
 638 021b 14B88795 		.ascii	"\024\270\207\225\\P\340\0214\270\227U\2135\010\212\374"
 638      5C50E011 
 638      34B89755 
 638      8B35088A 
 638      FC
 639 022c 72FA058B 		.ascii	"r\372\005\213\362\202\232S\302\031\241\336\200\342!"
 639      F2829A53 
 639      C219A1DE 
 639      80E221
 640 023b BB094CB3 		.ascii	"\273\011L\263\011\314\2660\026&\206CvC\212\334\265a"
 640      09CCB630 
 640      16268643 
 640      76438ADC 
 640      B561
 641 024d 45259A25 		.ascii	"E%\232%\331\210\322a\373\027,\015\3309Ju{\177\317\021"
 641      D988D261 
 641      FB172C0D 
 641      D8394A75 
 641      7B7FCF11 
 642 0261 9BEF918D 		.ascii	"\233\357\221\215\350\025\357\025\357\023\357\373\347"
 642      E815EF15 
 642      EF13EFFB 
 642      E7
 643 026e 83F63D42 		.ascii	"\203\366=B\351?\224\376C\351?\224\376C\351?<\252b\303"
 643      E93F94FE 
 643      43E93F94 
 643      FE43E93F 
 643      3CAA62C3 
 644 0282 9A9D23AC 		.ascii	"\232\235#\254\3309\312R_\226\372\262\324\227\217\331"
 644      D839CA52 
 644      5F96FAB2 
 644      D4978FD9 
 645 0292 0D622686 		.ascii	"\015b&\2065{^\271b\377C\"\231'\222\215\214\216\333~"
 645      357B5EB9 
 645      62FF4322 
 645      9927928D 
 645      8C8EDB7E 
ARM GAS  /tmp/ccrnicAv.s 			page 50


 646 02a6 A2017B5E 		.ascii	"\242\001{^T\267\233\311\214\231\352/?\304\314\270"
 646      54B79BC9 
 646      8C99EA2F 
 646      3FC4CCB8 
 647              		.text
 648              		.section	.gnu.lto_.refs.e8a481c64be60343,"",%progbits
 649 0000 789C8550 		.ascii	"x\234\205P\331\016\3020\014K\275\243c\367=\030\327\247"
 649      D90EC230 
 649      0C4BBDA3 
 649      63F73D18 
 649      D7A7
 650 0012 F2EBB89E 		.ascii	"\362\353\270\236\206x`\"Q\334$n\235\2660\330\313\231"
 650      86786022 
 650      51DC246E 
 650      9DB630D8 
 650      CB99
 651 0024 6C307380 		.ascii	"l0s\200E\210]r\204\344\271G\026\013S\370\335]\306\372"
 651      45885D72 
 651      84E4B947 
 651      160B53F8 
 651      DD5DC6FA 
 652 0038 C4F02E27 		.ascii	"\304\360.'\026\342\313\300<+s<_J\245\240\212g\035f}"
 652      16E2CBC0 
 652      3C2B733C 
 652      5F4AA5A0 
 652      8A671D66 
 653 004d 902BD923 		.ascii	"\220+\331#\256\254\367\251\246\020\243lj\244\334J\371"
 653      AEACF7A9 
 653      A610A36C 
 653      6AA4DC4A 
 653      F9
 654 005e 27A2DB3D 		.ascii	"'\242\333=jy\244S\004\357\225\017\001\243Q\271\357\246"
 654      6A79A453 
 654      04EF950F 
 654      01A351B9 
 654      EFA6
 655 0070 FF6AE5AC 		.ascii	"\377j\345\254=\313W?\335\246$\013\337\272M\360\351\031"
 655      3DCB573F 
 655      DDA6240B 
 655      DFBA4DF0 
 655      E919
 656 0082 17ACB8E2 		.ascii	"\027\254\270\342\206;\036\3143^v\345\357T\354\345\250"
 656      863B1ECC 
 656      335E76E5 
 656      EF54ECE5 
 656      A8
 657 0093 D9EFD190 		.ascii	"\331\357\321\220\0330\221\0371\333\033B\\\010t"
 657      1B30911F 
 657      31DB1B42 
 657      5C0874
 658              		.text
 659              		.section	.gnu.lto_.decls.e8a481c64be60343,"",%progbits
 660 0000 789CBD5C 		.ascii	"x\234\275\\yt\024\325\232\257\252\356\316\002a\023Q"
 660      797414D5 
 660      9AAFAAEE 
 660      CE026113 
 660      51
ARM GAS  /tmp/ccrnicAv.s 			page 51


 661 0011 7C6ED1F3 		.ascii	"|n\321\363\234\363\216O\015A\024\2349#\370\2343\372"
 661      9CF38E4F 
 661      0D41149C 
 661      3923F89C 
 661      33FA
 662 0023 66C619CF 		.ascii	"f\306\031\317Sg<\363\307\364\024\235\202\344\231tbw"
 662      53673CF3 
 662      C7F4149D 
 662      82E49974 
 662      6277
 663 0035 0561E6CC 		.ascii	"\005a\346\314\261\022\026QDB\020\010\220`\000\021x("
 663      B1121651 
 663      44421008 
 663      90600011 
 663      7828
 664 0047 20BBB2B5 		.ascii	" \273\262\265DC\220\307\022\302\352B\002\310\246\243"
 664      444390C7 
 664      12C2EA42 
 664      02C8A6A3 
 665 0057 B2EFD2F3 		.ascii	"\262\357\322\363\335\255\372\326\255\252\356\2528\276"
 665      DDADFAD6 
 665      ADAAEEAA 
 665      38BE
 666 0065 3EE7ABAE 		.ascii	">\347\253\256\345\336\337\375}\313\275\267\356\322\255"
 666      E5DEDFFD 
 666      7DCBBDB7 
 666      EED2AD
 667 0074 488A94D7 		.ascii	"H\212\224\327E\222\222\360\271\355EIj\313\225\244\336"
 667      459292F0 
 667      B9ED4549 
 667      6ACB95A4 
 667      DE
 668 0085 92243D0E 		.ascii	"\222$=\016\322\025$\0042\007d.\310\002\220\377\220%"
 668      D2152404 
 668      3207642E 
 668      C80290FF 
 668      9025
 669 0097 4905190A 		.ascii	"I\005\031\012\222\015\327E\360]\006\022\005A\237\373"
 669      920DD745 
 669      F05D0612 
 669      05419FFB 
 670 00a7 402AE0BC 		.ascii	"@*\340\274\022d\024\310\377\200T\201\214\005y\035d\""
 670      126414C8 
 670      FF805481 
 670      8C05791D 
 670      6422
 671 00b9 480DC814 		.ascii	"H\015\310\024\220i 3@\352A\336\001\231\0132\037d!\310"
 671      90692033 
 671      40EA41DE 
 671      01990B32 
 671      1F6421C8 
 672 00cd 62902520 		.ascii	"b\220% k@\326\203l\004\331\014\262\013d7\310>\220\003"
 672      6B40D683 
 672      6C04D90C 
 672      B20B6437 
 672      C83E9003 
 673 00e1 20ED2087 		.ascii	" \355 \207A\216\202\034\0039\005\362=\310\031\220s "
ARM GAS  /tmp/ccrnicAv.s 			page 52


 673      418E821C 
 673      033905F2 
 673      3DC81990 
 673      7320
 674 00f3 17402E81 		.ascii	"\027@.\201t\003^\327\341;\244\3009H\037\220R\220\227"
 674      74035ED7 
 674      E13BA4C0 
 674      39481F90 
 674      529097
 675 0106 412A4126 		.ascii	"A*A&\200L\007\231\013\362\001\310Z\220&E\262|\020\377"
 675      804C0799 
 675      0BF201C8 
 675      5A902645 
 675      B27C10FF 
 676 011a 7CF81E2C 		.ascii	"|\370\036,\021\335\327\200,\203{M\360}'\244\275\005"
 676      11DDD780 
 676      2C837B4D 
 676      F07D27A4 
 676      BD05
 677 012c 643BCA0B 		.ascii	"d;\312\013\327;\024b\257M\3106p^\006\262\023$\010\367"
 677      D73B1462 
 677      AF4DC836 
 677      705E06B2 
 677      132408F7 
 678 0140 7629C4AE 		.ascii	"v)\304\256\274-\233@bp\277\025\344U\2207\220\236\010"
 678      BC2D9B40 
 678      6270BF15 
 678      E4559037 
 678      909E08
 679 0153 0BBEDB94 		.ascii	"\013\276\333\224\224\017\226\302u\000\276\357\200{\017"
 679      940F96C2 
 679      7500BEEF 
 679      807B0F
 680 0162 826C86F3 		.ascii	"\202l\206\363.\224\333\036\270>\240\020\033![UP\273"
 680      2E94DB1E 
 680      B83EA010 
 680      1B215B55 
 680      50BB
 681 0174 ADA77644 		.ascii	"\255\247vD\366D\345#\335\221-\230\376\374\007\345\311"
 681      F644E523 
 681      DD912D98 
 681      FEFC07E5 
 681      C9
 682 0185 81EF7982 		.ascii	"\201\357y\202\016\253@\276\202\3536\370~\210\372:H\323"
 682      0EAB40BE 
 682      82EB36F8 
 682      7E88FA3A 
 682      48D3
 683 0197 339FA0B2 		.ascii	"3\237\240\262\020\\L&\370\374\247\312'n\225\003\356"
 683      105C4C26 
 683      F8FCA7CA 
 683      276E9503 
 683      EE
 684 01a8 68EA3FFE 		.ascii	"h\352?\3763\221\332\203\307D\037\205>Cq\"Kv>5i\362\325"
 684      3391DA83 
 684      C7441F85 
 684      3E437122 
ARM GAS  /tmp/ccrnicAv.s 			page 53


 684      4B763E35 
 685 01bf D07C0A17 		.ascii	"\320|\012\0273\374gJ\232\274S\322\224YI\353\314\327"
 685      33FC674A 
 685      9ABC53D2 
 685      945949EB 
 685      CCD7
 686 01d1 0AF93E28 		.ascii	"\012\371>([1x\375+i|\357\242\372;\341\215\362\2017\312"
 686      5B3178FD 
 686      2B697CEF 
 686      A2FA3BE1 
 686      8DF28137 
 687 01e6 014FD40B 		.ascii	"\001O\324\013\325\307{%\022\317\335A\362$\022\353,\316"
 687      D5C77B25 
 687      12CFDD41 
 687      F22412EB 
 687      2CCE
 688 01f8 C5184765 		.ascii	"\305\030Ge\372\215m\236\037\213o\304\037qgq\337\014"
 688      FA8D6D9E 
 688      1F8B6FC4 
 688      1F716771 
 688      DF0C
 689 020a CF0F29F6 		.ascii	"\317\017)\3668\357N9\2628\337L\333\230J\252\327\032"
 689      38EF4E39 
 689      B238DF4C 
 689      DB984AAA 
 689      D71A
 690 021c AAE346DA 		.ascii	"\252\343F\332.\254\247\355\002j\037\020'\276\316\207"
 690      2EACA7ED 
 690      026A1F10 
 690      27BECE87 
 691 022c 14BB3D51 		.ascii	"\024\273=Q[t\033\325\225\351\277Fr\256\337\355T\217"
 691      5B741BD5 
 691      95E9BF46 
 691      72AEDFED 
 691      548F
 692 023e E3540F84 		.ascii	"\343T\017\204\277\226\352\313\370#]\221\236\313\340"
 692      BF96EACB 
 692      F8235D91 
 692      9ECBE0
 693 024d 5A86F385 		.ascii	"Z\206\363\205RJ\307,A\267\325 KA\376\035\236\345R.L"
 693      524AC72C 
 693      41B7D520 
 693      4B41FE1D 
 693      9EE5522E 
 694 0262 CF635437 		.ascii	"\317cT7\244K\007\255\337\3554>\3738\350\201\332\323"
 694      A44B07AD 
 694      DFED343E 
 694      FB38E881 
 694      DAD3
 695 0274 BB256B3B 		.ascii	"\273%k;\345\244\203_\3371\275N(\244\335\377\226\363"
 695      E5A4835F 
 695      DF31BD4E 
 695      28A4DDFF 
 695      96F3
 696 0286 59A6362A 		.ascii	"Y\2466*\227\362\342}\207\372\206S\324?\353\205\366\211"
 696      97F2E27D 
 696      87FA8653 
ARM GAS  /tmp/ccrnicAv.s 			page 54


 696      D43FEB85 
 696      F689
 697 0298 F9A99B10 		.ascii	"\371\251\233\020\243(\017\352\227\304v\344$\345\364"
 697      A3280FEA 
 697      97C476E4 
 697      24E5F4
 698 02a7 834B9B12 		.ascii	"\203K\233\022\242y\221\355\276\347\332\025\304\363U"
 698      A27991ED 
 698      BEE7DA15 
 698      C4F355
 699 02b6 DA5E8965 		.ascii	"\332^\211e\275C\375\304\353+\326\371\000Mw\206k3\272"
 699      BD43FDC4 
 699      EB2BD6F9 
 699      004D7786 
 699      6B33BA
 700 02c9 39F864AE 		.ascii	"9\370d\256G\254\271\036\260\346{\304\232\317a\0058,"
 700      47ACB91E 
 700      B0E67BC4 
 700      9ACF6105 
 700      382C
 701 02db B1DEA3FE 		.ascii	"\261\336\243\376\366\316_ ^:\023'9\224\217\030'\347"
 701      F6CE5F20 
 701      5E3A1327 
 701      39948F18 
 701      27E7
 702 02ed 7CC4C8E2 		.ascii	"|\304\310\342\277\260>\354\375\307\255o^,\3503VN\275"
 702      BFB03EEC 
 702      FDC7AD6F 
 702      5E2CE833 
 702      564EBD
 703 0300 175DF0A1 		.ascii	"\027]\360\241\027\312\207\332$1\366OQ^H\327\313i\342"
 703      17CA87DA 
 703      2431F64F 
 703      515E48D7 
 703      CB69E2
 704 0313 7F2C8DFF 		.ascii	"\177,\215\377K\\\374\2432_\223S\355\241XfW\351\015\303"
 704      4B5CFCA3 
 704      325F9353 
 704      EDA15866 
 704      57E90DC3 
 705 0327 A8361AC7 		.ascii	"\2506\032\307\031O\267t\357%\325\030\360\311\257\353"
 705      194FB774 
 705      EF25D518 
 705      F0C9AFEB 
 706 0337 9E2B8D47 		.ascii	"\236+\215G\267;\346\033}\373J\322\213\262*\303\255\034"
 706      B73BE61B 
 706      7DFB4AD2 
 706      8BB22AC3 
 706      AD1C
 707 0349 7C92978B 		.ascii	"|\222\227\213;\227\373\244w!)\244WTy\236\234\013\301"
 707      3B97FBA4 
 707      772129A4 
 707      5754799E 
 707      9C0BC1
 708 035c AC0861CC 		.ascii	"\254\010a\314>\3449\372\240\354\344\234\235%e\023\275"
 708      3EE439FA 
 708      A0ECE49C 
ARM GAS  /tmp/ccrnicAv.s 			page 55


 708      9D256513 
 708      BD
 709 036d 1F43CFA2 		.ascii	"\037C\317\242\271\346\312\275\360\031\346bP\2128\005"
 709      B9E6CABD 
 709      F019E662 
 709      508A3805 
 710 037d CD91CF72 		.ascii	"\315\221\317r\004i\216\367\270r\362rS'!\312\304-\337"
 710      04698EF7 
 710      B872F272 
 710      532721CA 
 710      C42DDF
 711 0390 1CB9ABA3 		.ascii	"\034\271\253\243=n\222&c{\264t7\363\0322\313\334\223"
 711      3D6E9226 
 711      637BB474 
 711      37F31A32 
 711      CBDC93
 712 03a3 19A1A663 		.ascii	"\031\241\246c\351\254[\215\240*/\224o\0023\374\215,"
 712      E9AC5B8D 
 712      A02A2F94 
 712      6F0233FC 
 712      8D2C
 713 03b5 DD2F2D22 		.ascii	"\335/-\"\2669r\257\223M2\302*\322?\310@\353}\300S\345"
 713      B63972AF 
 713      934D32C2 
 713      2AD23FC8 
 713      40EB7DC0 
 714 03cb C5F2FDD4 		.ascii	"\305\362\375\324\330\211\013j>\271+\321\373\016\237"
 714      D8890B6A 
 714      3EB92BD1 
 714      FB0E9F
 715 03da 7BA44694 		.ascii	"{\244F\224\364\322\261\\\2436\317\241\244!\254\240\234"
 715      F4D2B15C 
 715      A336CFA1 
 715      A421ACA0 
 715      9C
 716 03eb 14FFD671 		.ascii	"\024\377\326q;&\313c\014\003\036,\303:\274.\313\226"
 716      3B26CB63 
 716      0C031E2C 
 716      C33ABC2E 
 716      CB96
 717 03fd 12284EE3 		.ascii	"\022(N\343\0207 \005:4\224e\205@\271c\325\266=Ur\025"
 717      10372005 
 717      3A349465 
 717      8540B963 
 717      D5B63D55 
 718 0413 865EE181 		.ascii	"\206^\341\201xub\357\270\206\333\214\306\315r&G4\006"
 718      787562EF 
 718      B886DB8C 
 718      C6CD7226 
 718      473406
 719 0426 59F97F97 		.ascii	"Y\371\177\227Rd\327\270Oe\303\310Q\345\265X\215vg5\334"
 719      5264D7B8 
 719      4F65C3C8 
 719      51E5B558 
 719      8D766735 
 720 043b 6114E924 		.ascii	"a\024\351$\316\262\316\246\306\204CL\215u\236\324\270"
 720      CEB2CEA6 
ARM GAS  /tmp/ccrnicAv.s 			page 56


 720      C684434C 
 720      8D759ED4 
 720      B8
 721 044c 46D550E5 		.ascii	"F\325P\3455\240\212\"\2355q\235\202\320\014X.J\255x"
 721      35A08A22 
 721      9D35719D 
 721      82D00C58 
 721      2E4AAD78 
 722 0460 379AF36A 		.ascii	"7\232\363jT\006v\3057X\276\005l\312\226zL\216\326rb"
 722      540676C5 
 722      3758BE05 
 722      6CCA967A 
 722      4C8ED672 
 723 0475 63E7EA41 		.ascii	"c\347\352A\015;y\367\216Vy4\326\277\011W\366\255\212"
 723      0D3B79F7 
 723      8E567934 
 723      D6BF0957 
 723      F6AD8A
 724 0488 D5B4DEA1 		.ascii	"\325\264\336\241\332\246}\366\211\\\215\241\2321\324"
 724      DAA67DF6 
 724      895C8DA1 
 724      9A31D4
 725 0497 C54E4325 		.ascii	"\305NC%\247\257\177\014\273{+\006Z\031\260\002\251r"
 725      A7AF7F0C 
 725      BB7B2B06 
 725      5A19B002 
 725      A972
 726 04a9 B66946F3 		.ascii	"\266iF\363\232%@h\331\271\251\0234@\356!\375\302\311"
 726      9A254068 
 726      D9B9A913 
 726      3440EE21 
 726      FDC2C9
 727 04bc 156953C0 		.ascii	"\025iS\300\203\353r\334\342\300\350X9\341\230<\303H"
 727      83EB72DC 
 727      E2C0E858 
 727      39E1983C 
 727      C348
 728 04ce 8C09B02A 		.ascii	"\214\011\260*\231\345f#Ej\306e\355\020cy\303\354\357"
 728      99E56623 
 728      456AC665 
 728      ED106379 
 728      C3ECEF
 729 04e1 AB692CEF 		.ascii	"\253i,\357\360\024\313k\266M\367V%\263X\371E\270\374"
 729      F014CB6B 
 729      B64DF756 
 729      25B358F9 
 729      45B8FC
 730 04f4 F141547E 		.ascii	"\361AT~\233X\376\301#'\037\2573\214\236\344Q\346\342"
 730      9B58FEC1 
 730      23271FAF 
 730      338C9EE4 
 730      51E6E2
 731 0507 DB77BE6D 		.ascii	"\333w\276m/^\225\037\357\223.46\314\336r\226*\271\037"
 731      2F5E951F 
 731      EF932E34 
 731      36CCDE72 
 731      962AB91F 
ARM GAS  /tmp/ccrnicAv.s 			page 57


 732 051b D799DD41 		.ascii	"\327\231\335A18\006w\345\013\303\327\\\002E\372\322"
 732      31380677 
 732      E50BC3D7 
 732      5C0245FA 
 732      D2
 733 052c A4DFA92A 		.ascii	"\244\337\251*\013z&\006/Zn\030\257g1\016\355\276\021"
 733      0B7A2606 
 733      2F5A6E18 
 733      AF67310E 
 733      EDBE11
 734 053f F32D9638 		.ascii	"\363-\2268\273\0237\002\004\354\250\0270\327H\252N\234"
 734      BB133702 
 734      04ECA817 
 734      30D748AA 
 734      4E9C
 735 0551 E7C14EF8 		.ascii	"\347\301N\370\006\2632\273\310\203}\347\005\254\247"
 735      06B332BB 
 735      C8837DE7 
 735      05ACA7
 736 0560 3BB3CB3C 		.ascii	";\263\313<\330\217\276\301\254\314\256\362`\347\274"
 736      D88FBEC1 
 736      ACCCAEF2 
 736      60E7BC
 737 056f 80F57567 		.ascii	"\200\365ugv\235\007\273\344\033\314\312\354\006\017"
 737      769D07BB 
 737      E41BCCCA 
 737      EC060F
 738 057e 76CD0B58 		.ascii	"v\315\013X\276;\263\232\335\034X\3227\230\225Y-\017"
 738      BE3BB39A 
 738      DD1C58D2 
 738      37989559 
 738      2D0F
 739 0590 363AE401 		.ascii	"6:\344\001\3547\356\314\336\346\301^\363\015fe6\215"
 739      EC37EECC 
 739      DEE6C15E 
 739      F30D6665 
 739      368D
 740 05a2 079BE005 		.ascii	"\007\233\340\005\254\237;\263:\036l\222o0+\263\231<"
 740      AC9F3BB3 
 740      3A1E6C92 
 740      6F302BB3 
 740      993C
 741 05b4 D8142F60 		.ascii	"\330\024/`\203\334\231\325\363`\323}\203Y\231-\343\301"
 741      83DC99D5 
 741      F360D37D 
 741      8359992D 
 741      E3C1
 742 05c6 6679011B 		.ascii	"fy\001\033\342\316l9\0176\3337\230\225\331J\036l\216"
 742      E2CE6C39 
 742      0F36DB37 
 742      9895D94A 
 742      1E6C8E
 743 05d9 17B0A7DD 		.ascii	"\027\260\247\335\231\255\346\301\336\365\015fe\266\226"
 743      99ADE6C1 
 743      DEF50D66 
 743      65B696
 744 05e8 075BE005 		.ascii	"\007[\340\005\354Ywf\037\363`\177\362\015fe\266\236"
ARM GAS  /tmp/ccrnicAv.s 			page 58


 744      EC597766 
 744      1FF3607F 
 744      F20D6665 
 744      B69E
 745 05fa 07FBC00B 		.ascii	"\007\373\300\013\330\213\356\3146\362`\037\372\006\263"
 745      D88BEECC 
 745      36F2601F 
 745      FA06B3
 746 0609 32DBC583 		.ascii	"2\333\305\203\255\362\002\366\237\016\314\314\217S>"
 746      ADF202F6 
 746      9F0ECCCC 
 746      8F533E
 747 0618 D44DEF4E 		.ascii	"\324M\357N\015\326\024im\210\275\342\370\354\243\245"
 747      0DD61469 
 747      6D88BDE2 
 747      F8ECA3A5 
 748 0628 14C6FA90 		.ascii	"\024\306\372\220\337W2\213\336068>G\2362\332h\351\307"
 748      DF57328B 
 748      DE303638 
 748      3E479E32 
 748      DA68E9C7 
 749 063c DECF377B 		.ascii	"\336\3177{AL\323\001\316\334\302\275\354\177\356\033"
 749      414CD301 
 749      CEDCC2BD 
 749      EC7FEE1B 
 750 064c 4C086504 		.ascii	"L\010e\004fyw2\007\367\211\276u\251\2677\313\350^\225"
 750      66797732 
 750      07F789BE 
 750      75A9B737 
 750      CBE85E95 
 751 0660 DF95EFF3 		.ascii	"\337\225\357\363:r\267\271\250V\341\\\264\333\013\377"
 751      3A72B7B9 
 751      A856E15C 
 751      B4DB0BFF 
 752 0670 347D6EFB 		.ascii	"4}n\373\226\372[\215\216\204\314MI\270\261f\203\225"
 752      96FA5B8D 
 752      8E84CC4D 
 752      49B8B166 
 752      8395
 753 0682 DAED6CB0 		.ascii	"\332\355l\2602MA\003\203\203!\307\021\206\007\250\266"
 753      324D4103 
 753      838321C7 
 753      118607A8 
 753      B6
 754 0693 691FFC16 		.ascii	"i\037\374\026\2170f`\240#\235\006JN\237=\010\003\325"
 754      8F306660 
 754      A0239D06 
 754      4A4E9F3D 
 754      0803D5
 755 06a6 63A06F05 		.ascii	"c\240o\005 U\226\205\241\212l\035L\230\266\247\246\377"
 755      20559685 
 755      A18A6C1D 
 755      4C98B6A7 
 755      A6FF
 756 06b8 A5D22AD2 		.ascii	"\245\322*\322y\321_\026u2\276\326\300\210\377\247\311"
 756      79D15F16 
 756      7532BED6 
ARM GAS  /tmp/ccrnicAv.s 			page 59


 756      C088FFA7 
 756      C9
 757 06c9 F2B96AA3 		.ascii	"\362\271j\243\256\237\017\217\355\3763\363\330\034l"
 757      AE9F0F8F 
 757      EDFE33F3 
 757      D81C6C
 758 06d8 9FEB36FB 		.ascii	"\237\3536\373 \007\370SdL\226_E~cUd\302\247\265\376"
 758      2007F853 
 758      644C965F 
 758      457E6355 
 758      64C2A7B5 
 759 06ed 153143EF 		.ascii	"\0251C\357=\254\310\233Y?_\221\267}+\322\217S\004M^"
 759      3DACC89B 
 759      593F5F91 
 759      B77D2BD2 
 759      8F53044D 
 760 0702 5CA8250D 		.ascii	"\\\250%\015To\2516\375\240\021\217\306\224\336\326i"
 760      546FA936 
 760      FDA0118F 
 760      C694DED6 
 760      69
 761 0713 A7839FCB 		.ascii	"\247\203\237\313\371\344\266\207y\247\317\271\251\005"
 761      F9E4B687 
 761      79A7CFB9 
 761      A905
 762 0721 C3D3D442 		.ascii	"\303\323\324B\355Nf\262%\330d\263\262\034*\231'\250"
 762      ED4E66B2 
 762      25D864B3 
 762      B21C2A99 
 762      27A8
 763 0733 B67D9F7E 		.ascii	"\266}\237~H\247\026>\304Ps:\015\225\334\277\206\324"
 763      48A7163E 
 763      C450733A 
 763      0D95DCBF 
 763      86D4
 764 0745 D7951868 		.ascii	"\327\225\030h\221\315\215Y\202\027\263\254^\204KT\322"
 764      91CD8D59 
 764      8217B3AC 
 764      5E844B54 
 764      D2
 765 0756 6534F097 		.ascii	"e4\360\227_\245w\320E\266\364\027\317\247H+\010}\360"
 765      5FA577D0 
 765      45B6F417 
 765      CFA7482B 
 765      087DF0
 766 0769 A0CF6ED2 		.ascii	"\240\317n\322\214\240c\265\254\213#N\372\370g!V'VL`"
 766      8CA063B5 
 766      AC8B234E 
 766      FAF86721 
 766      5627564C 
 767 077e F3638351 		.ascii	"\363c\203Q'\327\3643\341Z\267\371\236\321\252\335\303"
 767      27D7F433 
 767      E15AB7F9 
 767      9ED1AADD 
 767      C3
 768 078f C26E03D6 		.ascii	"\302n\003\326\350s\233\213\233\3056\331\313\004\317"
 768      E8739B8B 
ARM GAS  /tmp/ccrnicAv.s 			page 60


 768      9BC536D9 
 768      CB04CF
 769 079e BECE6A62 		.ascii	"\276\316jb~\024\351k\261\302\373\032\014\242I\327K\324"
 769      7E14E96B 
 769      B1C2FB1A 
 769      0CA249D7 
 769      4BD4
 770 07b0 5D196789 		.ascii	"]\031g\211\330\014pss\025\235\001nR\320\324\351a\301"
 770      D80C7073 
 770      73159D01 
 770      6E52D0D4 
 770      E961C1
 771 07c3 1A1EA69B 		.ascii	"\032\036\246\233N\343,\315\212m\352t;"
 771      4EE32CCD 
 771      8A6DEA74 
 771      3B
 772 07d0 9B3A45CF 		.ascii	"\233:E\317<L7Y\246NUy\223\254P\334\316Z\324\342\304"
 772      3C4C3759 
 772      A64E5579 
 772      93AC50DC 
 772      CE5AD4E2 
 773 07e5 1441556E 		.ascii	"\024AUnQ\320K\316V\345\036\336\372F\266_\353\347\363"
 773      51D04BCE 
 773      56E51EDE 
 773      FA46B65F 
 773      EBE7F3
 774 07f8 D64F5CDB 		.ascii	"\326O\\\333V/\023\376d2\375\015\021o\010\377RIO]\007"
 774      562F13FE 
 774      6432FD0D 
 774      116F08FF 
 774      52494F5D 
 775 080d D046A276 		.ascii	"\320F\242v\007~\033$\365n\252\027ri\306\274\263\011"
 775      077E1B24 
 775      F56EAA17 
 775      7269C6BC 
 775      B309
 776 081f 1809F959 		.ascii	"\030\011\371Y\276\301\362-`\033\336r\230\253'+\024\256"
 776      BEC1F22D 
 776      601BDE72 
 776      98AB272B 
 776      14AE
 777 0831 6FEFFCAB 		.ascii	"o\357\374\253\341{^\312O3L\336\273\243\236F\012\231"
 777      E17B5ECA 
 777      4F334CDE 
 777      BBA39E46 
 777      0A99
 778 0843 945EE61B 		.ascii	"\224^\346\033\317\252\317\231\267,\215\322:/pC<\007"
 778      CFAACF99 
 778      B72C8DD2 
 778      3A2F7043 
 778      3C07
 779 0855 5E6A5101 		.ascii	"^jQ\001\354\217\337\2567\312\367\3001\201\217\233\361"
 779      EC8FDFAE 
 779      37CAF7C0 
 779      31818F9B 
 779      F1
 780 0866 713B3E4E 		.ascii	"q;>NT\320q\022>N\306\307\251\370\330\210\217\363\361"
ARM GAS  /tmp/ccrnicAv.s 			page 61


 780      54D07112 
 780      3E4EC6C7 
 780      A9F8D888 
 780      8FF3F1
 781 0879 F14FF8B8 		.ascii	"\361O\370\270\031\037\267\341\343v|\334\211\217\255"
 781      191FB7E1 
 781      E3767CDC 
 781      898FAD
 782 0888 F8B8071F 		.ascii	"\370\270\007\037\367\361\341\355\346\027R\325\314\212"
 782      F7F1E1ED 
 782      E61752D5 
 782      CC8A
 783 0896 C96ADD8A 		.ascii	"\311j\335\212N/X\354K-X\250\362'\276\301\362\323Yr\005"
 783      4E2F58EC 
 783      4B2D58A8 
 783      F227BEC1 
 783      F2D35972 
 784 08ab 67C955D8 		.ascii	"g\311U\330\222\253\261\335\016X+rS6[EKS\361\334U\350"
 784      92ABB1DD 
 784      0E582B72 
 784      53365B45 
 784      4B53F1DC 
 785 08c1 58D2CE0D 		.ascii	"X\322\316\015\303\266\211`\031G\211V{\334\320P\347\271"
 785      C3B68960 
 785      19478956 
 785      7BDCD050 
 785      E7B9
 786 08d3 0063B5F9 		.ascii	"\000c\265\371\306Jk\216\3679s,\301\346X\212\315\361"
 786      C64A6B8E 
 786      F739732C 
 786      C1E6588A 
 786      CDF1
 787 08e5 0576FF57 		.ascii	"\005v\377W^\334\277\300e\005\364\026i*}a2d\235\264A"
 787      5EDCBFC0 
 787      6505F416 
 787      692A7D61 
 787      32649DB4 
 788 08fa 6E10EDCA 		.ascii	"n\020\355\312-\370,\200\3675Ht>\375\205@\306\262\017"
 788      2DF82C80 
 788      F7354874 
 788      3EFD8540 
 788      C6B20F
 789 090d 2996D073 		.ascii	")\226\320sZ\221n\034R\327\235\014;)HO\006\242P\220#"
 789      5A916E1C 
 789      52D79D0C 
 789      3B29484F 
 789      06A25090 
 790 0922 8ADFC5E2 		.ascii	"\212\337\305\342\243\212\363b\261\234\201\356a\305\363"
 790      A38AF362 
 790      B19C81EE 
 790      61C5F3
 791 0931 62B125DE 		.ascii	"b\261%\336HO\333x\341F_\264V|\014\367\262\223r2.PZ0"
 791      484FDB78 
 791      E1465FB4 
 791      567C0CF7 
 791      B2937232 
 792 0949 14E95D9C 		.ascii	"\024\351]\234\343\244\320\311&\256\314A\257\350'=\364"
ARM GAS  /tmp/ccrnicAv.s 			page 62


 792      E3A4D0C9 
 792      26AECC41 
 792      AFE8273D 
 792      F4
 793 095a AFD03FE1 		.ascii	"\257\320?\341\245a\326;\2551\001}V\022\347X<\311\365"
 793      A561D63B 
 793      AD31017D 
 793      5612E758 
 793      3CC9F5
 794 096d AEDFE2DE 		.ascii	"\256\337\342\336\365;/\361\367\215\213Q\335\374o\003"
 794      F53B2FF1 
 794      F78D8B51 
 794      DDFC6F03 
 795 097d F8C1B7FF 		.ascii	"\370\301\267\377\177t\361\177 \003\325\357ST\357\226"
 795      7F74F17F 
 795      2003D5EF 
 795      5354EF96 
 796 098d 661B89D3 		.ascii	"f\033\211\323\035\311y[o\237\215\026z\214\033\311We"
 796      1DC9795B 
 796      6F9F8D16 
 796      7A8C1BC9 
 796      5765
 797 099f 521314E9 		.ascii	"R\023\024\351G\301\267\277\226\346\031F\255q\245\350"
 797      47C1B7BF 
 797      96E61946 
 797      AD71A5E8 
 798 09af 69DABD5C 		.ascii	"i\332\275\\\302\011N+w;\026\305\326\247\376J\232\217"
 798      C2094E2B 
 798      773B16C5 
 798      D6A7FE4A 
 798      9A8F
 799 09c1 14DAF0CD 		.ascii	"\024\332\360\315\263O\223\372'\245\311D)\236Q,\273<"
 799      B34F93FA 
 799      27A5C944 
 799      299E512C 
 799      BB3C
 800 09d3 08CD44DD 		.ascii	"\010\315D\335\376\274\232\252\216d\362n\306\360\212"
 800      FEBC9AAA 
 800      8E64F26E 
 800      C6F08A
 801 09e2 33C36B94 		.ascii	"3\303k\224\241*\237SP\263}\2413\014\3352Q\206\027\035"
 801      A12A9F53 
 801      50B37DA1 
 801      330CDD32 
 801      5186171D 
 802 09f6 195EDC27 		.ascii	"\031^\334'0\254\316\365\304\360Jg\030\272e\242\014\257"
 802      30ACCEF5 
 802      C4F04A67 
 802      18BA65A2 
 802      0CAF
 803 0a08 3A32AC6F 		.ascii	":2\254o\027\030N\360\306\360\247\3160t\313D\031\336"
 803      17184EF0 
 803      C6F0A7CE 
 803      3074CB44 
 803      19DE
 804 0a1a 7064F8F1 		.ascii	"pd\370\361\361\026\031\010\\O&\003\022#\371\2667\222"
 804      F1161908 
ARM GAS  /tmp/ccrnicAv.s 			page 63


 804      5C4F2603 
 804      1223F9B6 
 804      3792
 805 0a2c 55814E90 		.ascii	"U\201N\220t\313DIV\007\234H^?j'\331\340\215\344\330"
 805      74CB4449 
 805      56079C48 
 805      5E3F6A27 
 805      D9E08DE4 
 806 0a41 CE9074CB 		.ascii	"\316\220t\313DI\216s$9e\313[\3606X\235H&\007KB?\350"
 806      44498E73 
 806      243965CB 
 806      5BF03658 
 806      9D482607 
 807 0a59 B2F68CB0 		.ascii	"\262\366\214\260\336\010\334B\317X\327\007\357\271\202"
 807      DE08DC42 
 807      CF58D707 
 807      EFB982
 808 0a68 6A264B63 		.ascii	"j&Kc\241\021\300h(\375\353\201\273y\026\252<\301\221"
 808      A111C068 
 808      28FDEB81 
 808      BB7916AA 
 808      3CC191
 809 0a7b D6816633 		.ascii	"\326\201f3\004QY0\270\367\204>QD\177\313\021\375\213"
 809      04515930 
 809      B8F7843E 
 809      51447FCB 
 809      11FD8B
 810 0a8e 7D02FA46 		.ascii	"}\002\372FO\3505\"\372dG\364\217\277\024\320\267zB\237"
 810      4FE83522 
 810      FA6447F4 
 810      8FBF14D0 
 810      B77A429F 
 811 0aa2 22A2BFED 		.ascii	"\"\242\277\355\214\276_@\337\343\011}\232\210>\335\021"
 811      8CBE5F40 
 811      DFE3097D 
 811      9A883EDD 
 811      11
 812 0ab3 7D8FC8FD 		.ascii	"}\217\310\375\260'\364\031\"\372LG\364\215\355\002\372"
 812      B027F419 
 812      22FA4C47 
 812      F48DED02 
 812      FA
 813 0ac4 0F9ED0EB 		.ascii	"\017\236\320\353E\364\006G\364\032\021\375\232'\364"
 813      45F40647 
 813      F41A11FD 
 813      9A27F4
 814 0ad3 7744F446 		.ascii	"wD\364F\347\210<\302\327fR\300\270.^\012\230+\0260\317"
 814      E7883CC2 
 814      D76652C0 
 814      B82E5E0A 
 814      982B1630 
 815 0ae8 B1804347 		.ascii	"\261\200CG\355\005L\366T\300|\261\200\367\034\0138\357"
 815      ED054CF6 
 815      54C07CB1 
 815      80F71C0B 
 815      38EF
 816 0afa A041BDA7 		.ascii	"\240A\275\247\002\026\212\005,r\256V\307\355\005,\362"
ARM GAS  /tmp/ccrnicAv.s 			page 64


 816      02168A05 
 816      2C72AE56 
 816      C7ED052C 
 816      F2
 817 0b0b 54C062B1 		.ascii	"T\300b\261\200\367\355\005t\324t|\275b\353\355u\313"
 817      80F7ED05 
 817      74D4747C 
 817      BD62EBED 
 817      75CB
 818 0b1d 8D31E41D 		.ascii	"\2151\344\035\304\322\\\345H\257\341\331\353\261F\225"
 818      C4D25CE5 
 818      48AFE1D9 
 818      EBB14695 
 819 0b2d FC729AD9 		.ascii	"\374r\232\331k\272\231sY \007\355.\351b]8\340\010\240"
 819      6BBA9973 
 819      592007ED 
 819      2EE9625D 
 819      38E008A0 
 820 0b41 04E883F2 		.ascii	"\004\350\203\362\223sv\226fIhi@\030\035\204r\331\271"
 820      93737696 
 820      66496869 
 820      40181D84 
 820      72D9B9
 821 0b54 307B90EE 		.ascii	"0{\220\356-oU\240\253\205\0127\272P\244S6{\222D\253"
 821      2D6F55A0 
 821      AB850A37 
 821      BA50A453 
 821      367B9244 
 822 0b69 9D0C9638 		.ascii	"\235\014\2268\335\374\246!\223J!4\356H\0237\002k\335"
 822      DDFCA621 
 822      934A2134 
 822      EE481337 
 822      026BDD
 823 0b7c D5300D23 		.ascii	"\3250\015#\320J\272\320Z\347H\353r\212\026\213\2237"
 823      D04ABAD0 
 823      5AE748EB 
 823      728A168B 
 823      9337
 824 0b8e BB3A036C 		.ascii	"\273:\003lp\014\204%\227Z\344\3614\322\274\367Z\233"
 824      700C8425 
 824      975AE4F1 
 824      34D2BCF7 
 824      5A9B
 825 0ba0 44BD16C8 		.ascii	"D\275\026\310]EEf\273\360\370\304\221\307\252u\237<"
 825      5D454566 
 825      BBF0F8C4 
 825      91C7AA75 
 825      9F3C
 826 0bb2 DEE01C90 		.ascii	"\336\340\034\220dH\355F\245I\244\002\375:=\367>\273"
 826      6448ED46 
 826      A549A402 
 826      FD3A3DF7 
 826      3EBB
 827 0bc4 3B75D3E1 		.ascii	";u\323\341\277^\212\367\2305\007\360\264Y\2368\271\033"
 827      BF5E8AF7 
 827      983507F0 
 827      B4599E38 
ARM GAS  /tmp/ccrnicAv.s 			page 65


 827      B91B
 828 0bd6 12E67643 		.ascii	"\022\346vC\326\271\335Pn\352$\265\327\317\344\324D\246"
 828      D6B9DD50 
 828      6EEA24B5 
 828      D7CFE4D4 
 828      44A6
 829 0be8 869D2318 		.ascii	"\206\235#\030\275\317\244\341\006\226\271s\021\346\266"
 829      BDCFA4E1 
 829      0696B973 
 829      11E6B6
 830 0bf7 2D80C601 		.ascii	"-\200\306\001\3656n\207\024ak\2320D\026\254#\331b\356"
 830      F5366E87 
 830      14616B9A 
 830      304416AC 
 830      23D962EE 
 831 0c0b DD3C6757 		.ascii	"\335<gW\355tt\325\322\213\011y\206\261y\214\221L\276"
 831      ED7474D5 
 831      D28B0979 
 831      86B1798C 
 831      914CBE
 832 0c1e 4A634191 		.ascii	"JcA\221V\273@\264:B|\265\342\314\257L\010\357a\327&"
 832      56BB40B4 
 832      3A427CB5 
 832      E2CCAF4C 
 832      08EF61D7 
 833 0c33 FA7A1E5E 		.ascii	"\372z\036^\014\263\350\222p!\262\327\221\310[\027S\341"
 833      0CB3E892 
 833      7021B2D7 
 833      91C85B17 
 833      53E1
 834 0c45 CF54D9E5 		.ascii	"\317T\331\345\202\260\337\021a\345\272S\203;\241\312"
 834      82B0DF11 
 834      61E5BA53 
 834      833BA1CA 
 835 0c55 41AB2ADE 		.ascii	"A\253*\336C\265u\334\352\373\361J\323\2278R;l\321\320"
 835      43B575DC 
 835      EAFBF14A 
 835      D3973852 
 835      3B6CD1D0 
 836 0c69 896508C1 		.ascii	"\211e\010\301\204\337\272\030\340\220\243\001~\274d"
 836      84DFBA18 
 836      E090A301 
 836      7EBC64
 837 0c78 0907D208 		.ascii	"\011\007\322\010]p\201\350p\266\341\266\035Y6\2101\335"
 837      5D7081E8 
 837      70B6E1B6 
 837      1D593688 
 837      31DD
 838 0c8a 9C218E38 		.ascii	"\234!\2168B\354\270dw\344T\027\204o\034\233\322\325"
 838      42ECB864 
 838      77E45417 
 838      846F1C9B 
 838      D2D5
 839 0c9c 5B3AD3C2 		.ascii	"[:\323\302\037\367\320\022\316u\341q\322Q\223\3637\022"
 839      1FF7D012 
 839      CE75E171 
 839      D25193F3 
ARM GAS  /tmp/ccrnicAv.s 			page 66


 839      3712
 840 0cae 777422A0 		.ascii	"wt\"\240\276\025\211|\243\330\210,u!\362\277\216\006"
 840      BE15897C 
 840      A3D8882C 
 840      7521F2BF 
 840      8E06
 841 0cc0 99BEE5CD 		.ascii	"\231\276\345\315\333\2149\216\003\232t\023{?x \262\301"
 841      DB8C398E 
 841      039A7413 
 841      7B3F7820 
 841      B2C1
 842 0cd2 85C86947 		.ascii	"\205\310iG\"?\215K\021!\212*R\213\013\302YG\204\332"
 842      223F8D4B 
 842      11218A2A 
 842      528B0BC2 
 842      594784DA 
 843 0ce6 2D5C3749 		.ascii	"-\\7I\000\016\272\000\234w\004\270\321l\0038\345\002"
 843      000EBA00 
 843      9C7704B8 
 843      D16C0338 
 843      E502
 844 0cf8 70D111A0 		.ascii	"p\321\021\240\241s\306\274\354dL\363\0025\001\222\255"
 844      A173C6BC 
 844      EC644CF3 
 844      02350192 
 844      AD
 845 0d09 FA5E7421 		.ascii	"\372^t!v\315J\354^i\216\221\330\325\221\234w\270o]5"
 845      76CD4AEC 
 845      5E698E91 
 845      D8D5919C 
 845      77B86F5D 
 846 0d1e 9A8D322E 		.ascii	"\232\2152.'\345d\200\375.e|w\206B\271Y\177s\202'\034"
 846      27E56480 
 846      FD2E657C 
 846      778642B9 
 846      597F7382 
 847 0d34 28E00069 		.ascii	"(\340\000i\2051>\321\217\344$\263\311\344V>\2315$\363"
 847      85313ED1 
 847      8FE424B3 
 847      C9E4563E 
 847      993524F3 
 848 0d48 EDFF2D5D 		.ascii	"\355\377-]5r\204\256oY\232\245\237\252\240\331\253\375"
 848      357284AE 
 848      6F599AA5 
 848      9FAAA0D9 
 848      ABFD
 849 0d5a 56BA9F21 		.ascii	"V\272\237!]\017\334K\213H)\206\346\3611:\311\2246\265"
 849      5D0FDC4B 
 849      8B482986 
 849      E6F1313A 
 849      C99436B5 
 850 0d6e 44E6B951 		.ascii	"D\346\271QYk\360$6\231\361F\327lR\233\030&1\363\357"
 850      596BF024 
 850      3699F146 
 850      D76C529B 
 850      182631F3 
 851 0d83 6BAA0C54 		.ascii	"k\252\014T\011\231E&d\266\310\270\240o\213\3308\217"
ARM GAS  /tmp/ccrnicAv.s 			page 67


 851      09994526 
 851      64B6C8B8 
 851      A06F8BD8 
 851      388F
 852 0d95 0DFAD1D0 		.ascii	"\015\372\321\320\236\332\273\206\263S\032\222\371\345"
 852      9EDABB86 
 852      B3531A92 
 852      F9E5
 853 0da3 B7440D2D 		.ascii	"\267D\015-\223\273x\026\300\242`O\222\221L\332zVp\""
 853      93BB7816 
 853      C0A2604F 
 853      92914CDA 
 853      7A567022 
 854 0db7 A6CCCFF3 		.ascii	"\246\314\317\363\246S\320\236\232*\200^\032\267%?\223"
 854      A653D09E 
 854      9A2A805E 
 854      1AB7253F 
 854      93
 855 0dc8 6B8DC616 		.ascii	"k\215\306\026\303\200\212%\337\355\364#\203\000Sa\200"
 855      C3808A25 
 855      DFEDF423 
 855      83005361 
 855      80
 856 0dd9 C4F5A13F 		.ascii	"\304\365\241?\314a;\276\202H\361\311\335\255U&#\220"
 856      CC613BBE 
 856      8248F1C9 
 856      DDAD5526 
 856      2390
 857 0deb 2235E02C 		.ascii	"\"5\340,3\202\266\345\353\317\306\322\345k\364,\363"
 857      3382B6E5 
 857      EBCFC6D2 
 857      E56BF42C 
 857      F3
 858 0dfc F47AC33E 		.ascii	"\364z\303>\262\374\353Pd\207\031_wp\334\233\367\036"
 858      B2FCEB50 
 858      6487195F 
 858      7770DC9B 
 858      F71E
 859 0e0e A6DC1B30 		.ascii	"\246\334\0330\367\005\231\271[\201\024i%\316\322h\347"
 859      F70599B9 
 859      5B811469 
 859      25CED268 
 859      E7
 860 0e1f BE670CE5 		.ascii	"\276g\014\345\336\350\211{\333n\353\322\365f\023\267"
 860      DEE8897B 
 860      DB6EEBD2 
 860      F56613B7 
 861 0e2f 532B6889 		.ascii	"S+h\211=dK(Y\235\375\\\004\363\265\202f$\016\020\260"
 861      3D644B28 
 861      599DFD5C 
 861      04F3B582 
 861      66240E10 
 862 0e44 1D9859AB 		.ascii	"\035\230Y\253o\260|\013\263\366Z\353\357\263\366{\301"
 862      6FB07C0B 
 862      B3F65AEB 
 862      EFB3F67B 
 862      C1
ARM GAS  /tmp/ccrnicAv.s 			page 68


 863 0e55 4BB365F3 		.ascii	"K\263e\363\364nn\255\260\3357\230\225\334E\036\354\204"
 863      F46E6EAD 
 863      B0DD3798 
 863      95DC451E 
 863      EC84
 864 0e67 1730A7FD 		.ascii	"\0270\247\375\223N\037>HTyn\020\357\361\014\342Ue|\\"
 864      934E1F3E 
 864      4854796E 
 864      10EFF10C 
 864      E255657C 
 865 0e7c 808F8BF0 		.ascii	"\200\217\213\360q1>~\020\264\254\251\2361k\211c(f\012"
 865      71313E7E 
 865      10B4ACA9 
 865      9E316B89 
 865      6328660A 
 866 0e90 0923B1CA 		.ascii	"\011#\261\312\275z8\376\266\262u\334\261*y,\331\323"
 866      BD7A38FE 
 866      B6B275DC 
 866      B12A792C 
 866      D9D3
 867 0ea2 85ABC7A5 		.ascii	"\205\253\307\245\314\325C\3745\345\304\036(\313J[\365"
 867      CCD543FC 
 867      35E5C41E 
 867      28CB4A5B 
 867      F5
 868 0eb3 D8F6D368 		.ascii	"\330\366\323hZ=Vz\250\036\325\211+\223<\3766\321,\377"
 868      5A3D567A 
 868      A81ED589 
 868      2B933CFE 
 868      36D12CFF 
 869 0ec7 664E91E6 		.ascii	"fN\221\346C\354G\226\037aE\336\355\221\271\215\262\000"
 869      43EC4796 
 869      1F6145DE 
 869      ED91B98D 
 869      B200
 870 0ed9 413DC759 		.ascii	"A=\307Y\326\333\025\371\236)\262\336\223\"\037Mb\321"
 870      D6DB15F9 
 870      9E29B2DE 
 870      93221F4D 
 870      62D1
 871 0eeb BF368862 		.ascii	"\2776\210b\3543\0237M\214\271:\265:\3611\371)\013\001"
 871      EC331337 
 871      4D8CB93A 
 871      B53AF131 
 871      F9290B01 
 872 0eff DBEE1BCC 		.ascii	"\333\356\033\314\032\375\033v\262]\035dD\264\327\013"
 872      1AFD1B76 
 872      B25D1D64 
 872      44B4D70B 
 873 0f0f 5E9A95F7 		.ascii	"^\232\225\367\215;\305\015\320\336_\302\267\004;\261"
 873      8D3BC50D 
 873      D0DE5FC2 
 873      B7043BB1 
 874 0f1f A86D46EE 		.ascii	"\250mF\356WU\354\207\216\3300\207\004\207\013\357N\250"
 874      5755EC87 
 874      8ED83087 
 874      04870BEF 
ARM GAS  /tmp/ccrnicAv.s 			page 69


 874      4EA8
 875 0f31 2C371EDB 		.ascii	",7\036\333\202\342\004\000\373\330\236A\213\341\333"
 875      82E20400 
 875      FBD89E41 
 875      8BE1DB
 876 0f40 60160740 		.ascii	"`\026\007@8\235\237\307v\373\341\225\312\037\275\000"
 876      389D9FC7 
 876      76FBE195 
 876      CA1FBD00 
 877 0f50 3A358E4E 		.ascii	":5\216N\037>~Uy#n\2026\341\246\346\023|l\302\307\317"
 877      1F3E7E55 
 877      79236E82 
 877      36E1A6E6 
 877      137C6CC2 
 878 0f66 F0713BDF 		.ascii	"\360q;\337\370\270\316\311\245\336+U9\021ThU\357\\$"
 878      F8B8CEC9 
 878      A5DE2B55 
 878      39115468 
 878      55EF5C24 
 879 0f7a 5F4F45B2 		.ascii	"_OE\262*o\366\015f1db\362n>\222U\371S/xi\"\231\376\222"
 879      2A6FF60D 
 879      66316462 
 879      F26E3E92 
 879      55F9532F 
 880 0f94 87548B8B 		.ascii	"\207T\213\213f\243\346\323\313\316NY"
 880      66A3E6D3 
 880      CBCE4E59 
 881 0fa0 C9396535 		.ascii	"\3119e5v\312\032\354\202\235\370\270\013\037[\255}A"
 881      76CA1AEC 
 881      829DF8B8 
 881      0B1F5BAD 
 881      7D41
 882 0fb2 754FA12F 		.ascii	"uO\241/\260\266\273N]\023o\037#\261~\037\350\343}\213"
 882      B0B6BB4E 
 882      5D136F1F 
 882      23B17E1F 
 882      E8E37D8B 
 883 0fc6 E209B645 		.ascii	"\342\011\266Eq/n?_\357\351{\213b\035\316r\300\376\236"
 883      712F6E3F 
 883      5FEFE97B 
 883      8B621DCE 
 883      72C0FE9E 
 884 0fda 748CBD27 		.ascii	"t\214\275'\035\310\334~\216\031\235X5\345\275TG0\332"
 884      1DC8DC7E 
 884      8E199D58 
 884      35E5BD54 
 884      4730DA
 885 0fed ACC153D2 		.ascii	"\254\301S\322\014\374,\277\211Xh\362\360\031\245\316"
 885      0CFC2CBF 
 885      895868F2 
 885      F019A5CE 
 886 0ffd BE3BC0   		.ascii	"\276;\300"
 887 1000 F9EE0BEC 		.ascii	"\371\356\013\354\273/\255\236Z.z\312\251<\327\237\335"
 887      BB2FAD9E 
 887      5A2E7ACA 
 887      A93CD79F 
 887      DD
ARM GAS  /tmp/ccrnicAv.s 			page 70


 888 1011 1989FDFB 		.ascii	"\031\211\375\373H {\365\325\327\363\316\016\304sZ\035"
 888      48207BF5 
 888      D5D7F3CE 
 888      0EC4735A 
 888      1D
 889 1022 D853A7FC 		.ascii	"\330S\247\374z\012)uT\360R\342\234\226O\356f\356\337"
 889      7A0A2975 
 889      54F052E2 
 889      9C964FEE 
 889      66EEDF
 890 1035 AE1DDB2A 		.ascii	"\256\035\333*\033\265y~v\003oa\273\201\217\007Q\355"
 890      1BB5797E 
 890      76036F61 
 890      BB818F07 
 890      51ED
 891 1047 BA2A50EE 		.ascii	"\272*P\356\344n\340\352^2U\345\377\305\321G9G\177\203"
 891      E46EE0EA 
 891      5E3255E5 
 891      FFC5D147 
 891      39477F83 
 892 105b 1D7DCCEA 		.ascii	"\035}\314\352\350\327{yp\264\323\366P\347\362fp\345"
 892      E8D77B79 
 892      70B4D3F6 
 892      50E7F266 
 892      70E5
 893 106d CDC2E5D5 		.ascii	"\315\302\345\325\343\206`\031>\356\301\307v+\2037{\011"
 893      E3866019 
 893      3EEEC1C7 
 893      762B8337 
 893      7B09
 894 107f 434EEB38 		.ascii	"CN\3538\013\241~\0274\347-\320\270o\031Z\275\272\362"
 894      0BA17E17 
 894      34E72DD0 
 894      B86F195A 
 894      BDBAF2
 895 1092 C0DA6AB4 		.ascii	"\300\332j\264X@\346,\330\037\221\264t7\373\310D\272"
 895      5840E62C 
 895      D81F91B4 
 895      7437FBC8 
 895      44BA
 896 10a4 1F7D9B3D 		.ascii	"\037}\233=\263-,RH\226\037|\253\362\217\301^.j+\322"
 896      B32D2C52 
 896      48961F7C 
 896      ABF28FC1 
 896      5E2E6A2B 
 897 10b9 A45EB280 		.ascii	"\244^\262\200\245\312\247\255\244\033k\022\263&L\225"
 897      A5CAA7AD 
 897      A41B6B12 
 897      B3264C95 
 898 10c9 8D39D0C1 		.ascii	"\2159\320\301\337\200\241*_\016\267\272a}\201\303\363"
 898      DF80A12A 
 898      5F0EB7BA 
 898      617D81C3 
 898      F3
 899 10da 5941BF1B 		.ascii	"YA\277\033\225\316\005\2357*\005M\276\2656\233\333\212"
 899      95CE059D 
 899      372A054D 
ARM GAS  /tmp/ccrnicAv.s 			page 71


 899      BEB5369B 
 899      DB8A
 900 10ec 3D2FD83C 		.ascii	"=/\330<\321\221\234w\252An]\004\321\217\346\014\344"
 900      D1919C77 
 900      AA416E5D 
 900      04D18FE6 
 900      0CE4
 901 10fe E46017A3 		.ascii	"\344`\027\243\263\312\012\225#\315+\366L\240\220\361"
 901      B3CA0A95 
 901      23CD2BF6 
 901      4CA090F1 
 902 110e 4D5C95AF 		.ascii	"M\\\225\257\340\036\360\252\330\000\177\275\342\340"
 902      E01EF0AA 
 902      D8007FBD 
 902      E2E0
 903 111c 6BB401BE 		.ascii	"k\264\001\276\352\355M\374'\264\236\232G\232UE\232\207"
 903      EAED4DFC 
 903      27B49E9A 
 903      479A5545 
 903      9A87
 904 112e 0D70B5D3 		.ascii	"\015p\265\323\275\376\265S\030Nx!C\323\326nNI\006\371"
 904      BDFEB553 
 904      184E7821 
 904      43D3D66E 
 904      4E4906F9 
 905 1142 E6DC77F1 		.ascii	"\346\334w\361\371\226\342\257\343\275\241I\374\222\270"
 905      F996E2AF 
 905      E3BDA149 
 905      FC92B8
 906 1151 C40B56C6 		.ascii	"\304\013V\306}\246\004k\215o\254|\301\334\314\017\252"
 906      7DA6046B 
 906      8D6FAC7C 
 906      C1DCCC0F 
 906      AA
 907 1162 7C1D57F6 		.ascii	"|\035W\366\033\370X\025B\307\321\241\214/g\202A/\273"
 907      1BF85815 
 907      42C7D1A1 
 907      8C2F6782 
 907      412FBB
 908 1175 30C15B74 		.ascii	"0\301[tB]\205\262\035\007\230\326\032\2152\271$S\345"
 908      425D85B2 
 908      1D0798D6 
 908      1A8D32B9 
 908      2453E5
 909 1188 7121BF35 		.ascii	"q!\2775\355\265\220sM\313\262X\204\245\002\003o\022"
 909      EDB59073 
 909      4DCBB258 
 909      84A50203 
 909      6F12
 910 119a 2B9E9DC5 		.ascii	"+\236\235\305\370\020?\301V\241\312\027\241\0010=\207"
 910      F8103FC1 
 910      56A1CA17 
 910      A101303D 
 910      87
 911 11ab A6C8EA0C 		.ascii	"\246\310\352\014\250\213W\032\344B\242\017\252\236\247"
 911      A88B571A 
 911      E442A20F 
ARM GAS  /tmp/ccrnicAv.s 			page 72


 911      AA9EA7
 912 11ba 77255A5F 		.ascii	"w%Z_k\200q2m]\210\351\024\351s\261<\373\214\345\233"
 912      6B807132 
 912      6D5D88E9 
 912      14E973B1 
 912      3CFB8CE5 
 913 11cf 50DE5D52 		.ascii	"P\336]R[\257\006#\207+w\010A n$\205&\332\266\310.\377"
 913      5BAF0623 
 913      872B7708 
 913      41206E24 
 913      8526DAB6 
 914 11e6 FE645984 		.ascii	"\376dY\204\037\257\260\"\356\241EL\366m\330Z\027\303"
 914      1FAFB022 
 914      EEA1454C 
 914      F66DD85A 
 914      17C3
 915 11f8 B27073CB 		.ascii	"\262ps\313W\223\012\212\273\244o@\247\272!\251\342I"
 915      57930A8A 
 915      BBA46F40 
 915      A7BA21A9 
 915      E249
 916 120a 342265C6 		.ascii	"4\"e\306\033\211=\331$\350\315\215N$J\021\036\251\252"
 916      1B893DD9 
 916      24E8CD8D 
 916      4E244A11 
 916      1EA9AA
 917 121d 245E69EA 		.ascii	"$^i\352\003fj~\323\025e!3\003\035\030n\361\310\225\231"
 917      03666A7E 
 917      D3156521 
 917      33031D18 
 917      6EF1C895 
 918 1232 0E1E1977 		.ascii	"\016\036\031wSF\217\324Y\"\300\311\023\327\276\360\344"
 918      53468FD4 
 918      5922C0C9 
 918      13D7BEF0 
 918      E4
 919 1243 891613FA 		.ascii	"\211\026\023\3726\012]\357\333\023\015.\236\350\233"
 919      360A5DEF 
 919      DB130D2E 
 919      9EE89B
 920 1252 C113B378 		.ascii	"\301\023\263xOL\272\211x\242\336\311\023\327\177\305"
 920      4F4CBA89 
 920      78A2DEC9 
 920      13D77FC5 
 921 1262 6C5BE3C1 		.ascii	"l[\343\301\0235\267\263\324\323\354\236P\230\201\276"
 921      1335B7B3 
 921      D4D3EC9E 
 921      509881BE 
 922 1272 B07A62DD 		.ascii	"\260zb\335l\007O,\312\354\211y\031=\261\341\220'O\330"
 922      6C074F2C 
 922      CAEC8979 
 922      193DB1E1 
 922      90274FD8 
 923 1286 A117F8F6 		.ascii	"\241\027\370\366\304B\027O\364\260\332\300\226\357="
 923      C442174F 
 923      F4B0DAC0 
 923      96EF3D
ARM GAS  /tmp/ccrnicAv.s 			page 73


 924 1295 DE13CBA9 		.ascii	"\336\023\313\251'\0268yb\343]\314\266S<xb\267\231z\206"
 924      27163879 
 924      62E35DCC 
 924      B6533C78 
 924      62B7997A 
 925 12aa DD130166 		.ascii	"\335\023\001f\240CVOL?\262+Pe$`Xv\035\\a\372\242)\263"
 925      A043564F 
 925      4C3FB22B 
 925      50652460 
 925      58761D5C 
 926 12c3 2F9664F4 		.ascii	"/\226d\364\305\214#}\275\370b\241\011\335\207B/\367"
 926      C58C237D 
 926      BDF862A1 
 926      09DD8742 
 926      2FF7
 927 12d5 ED8B152E 		.ascii	"\355\213\025.\276\2709\203/>\344}\361g\352\213\345N"
 927      BEB83983 
 927      2F3EE47D 
 927      F167EA8B 
 927      E54E
 928 12e7 BE983994 		.ascii	"\276\2309\224Y\367\035\017\276\230m\246\256\267\373"
 928      59F71D0F 
 928      BE986DA6 
 928      AEB7FB
 929 12f6 22C80C74 		.ascii	"\"\310\014t\332\352\213w\216:\372\342Hf_|\224\321\027"
 929      DAEA8B77 
 929      8E3AFAE2 
 929      48665F7C 
 929      94D117
 930 1309 1F1EF5E4 		.ascii	"\037\036\365\344\213\204lmOTy\203o_lt\361\305\255\031"
 930      8B846C6D 
 930      4F547983 
 930      6F5F6C74 
 930      F1C5AD19 
 931 131d 7CB19EF7 		.ascii	"|\261\236\367\305w\324\027\033\234|\261<\302\254;\327"
 931      C577D417 
 931      1B9C7CB1 
 931      3CC2AC3B 
 931      D7
 932 132e 832F569B 		.ascii	"\203/V\233\251\027\332}\021b\006:k\365\305\224\023\216"
 932      A917DA7D 
 932      1162063A 
 932      6BF5C594 
 932      138E
 933 1340 BE18D33B 		.ascii	"\276\030\323;\243/>\315\350\213\251'<\371\302>\006h"
 933      A32F3ECD 
 933      E88BA927 
 933      3CF9C23E 
 933      0668
 934 1352 F1ED8BAD 		.ascii	"\361\355\213\255.\276\350\235\301\027[x_L\354M|\321"
 934      2EBEE89D 
 934      C1175B78 
 934      5F4CEC4D 
 934      7CD1
 935 1364 E2E48B69 		.ascii	"\342\344\213i\303\231u\347{\360\305L3\365b\273/\310"
 935      C39975E7 
 935      7BF0C54C 
ARM GAS  /tmp/ccrnicAv.s 			page 74


 935      33F562BB 
 935      2FC8
 936 1376 BF8FB1F7 		.ascii	"\277\217\261\367H\341\325sZ\232W\317\355)\266B\256M"
 936      48E1D573 
 936      5A9A57CF 
 936      ED29B642 
 936      AE4D
 937 1388 6946003B 		.ascii	"iF\000;\\s}\237z\303\263\345\332\351\232\253)MY\273"
 937      5C737D9F 
 937      7AC3B3E5 
 937      DAE99AAB 
 937      294D59BB 
 938 139c 5C739D4D 		.ascii	"\\s\235MSV\253k\256\265i\312\332\355\232ki\232\\m\251"
 938      5356AB6B 
 938      AEB569CA 
 938      DAED9A6B 
 938      699A5C6D 
 939 13b1 5CF45731 		.ascii	"\\\364W1\253\326\235\371\307\245\354W1Uc\236\020&\335"
 939      ABD69DF9 
 939      C7A5EC57 
 939      3155639E 
 939      1026DD
 940 13c4 9BD26CF3 		.ascii	"\233\322l\363\334\033\262\357\241\237\333[\034\223\343"
 940      DC1BB2EF 
 940      A19FDB5B 
 940      1C93E3
 941 13d3 DDB2D5C6 		.ascii	"\335\262\325\306\362\205F.\333\220\247\312{Biw\372\357"
 941      F285462E 
 941      DB90A7CA 
 941      7B426977 
 941      FAEF
 942 13e5 0BD9F672 		.ascii	"\013\331\366r$N'\366\343yZ\264\227c\223qO\216\217\275"
 942      244E27F6 
 942      E3795AB4 
 942      97639371 
 942      4F8E8FBD 
 943 13f9 8A071D88 		.ascii	"\212\007\035\210\256LO\224-\341\037HO\364\013+Q\301"
 943      AE4C4F94 
 943      2DE11F48 
 943      4FF40B2B 
 943      51C1
 944 140b 136D693C 		.ascii	"\023mi<\361\225\253\377\016\246\311\365u*\227K{2\210"
 944      F195ABFF 
 944      0EA6C9F5 
 944      752A974B 
 944      7B3288
 945 141e 65C9A659 		.ascii	"e\311\246Y\016\231\365\331\034\021\011\005\036OS`\273"
 945      0E99F5D9 
 945      1C110905 
 945      1E4F5360 
 945      BB
 946 142f 3D6026EC 		.ascii	"=`&\354\331/\327\2166Z\214\323\311d\217\306\361A\037"
 946      D92FD78E 
 946      365A8CD3 
 946      C9648FC6 
 946      F1411F
 947 1442 BBB60E87 		.ascii	"\273\266\016\207\204u\232\252\240m\217\322f\3011\364"
ARM GAS  /tmp/ccrnicAv.s 			page 75


 947      84759AAA 
 947      A06D8FD2 
 947      66C131F4 
 948 1452 072607B5 		.ascii	"\007&\007\265\247IrE\332\205St\270x\306\334\301B\375"
 948      A7497245 
 948      DA855374 
 948      B878C6DC 
 948      C142FD
 949 1465 F9E557CF 		.ascii	"\371\345W\317\366e\233~-\271,[\253)\301\243i\375\371"
 949      F6659B7E 
 949      2DB92C5B 
 949      AB29C1A3 
 949      69FDF9
 950 1478 6D1A439D 		.ascii	"m\032C\235p\365\347\017ir\235t\315u9M\256S\334 <\030"
 950      70F5E70F 
 950      69729D74 
 950      CD75394D 
 950      AE53DC20 
 951 148e 2956630F 		.ascii	")Vc\017\027\024\227\227i\005\221\362\242Q\005E\332\210"
 951      17149797 
 951      690591F2 
 951      A2510545 
 951      DA88
 952 14a0 824871C9 		.ascii	"\202Hq\311\320\222\362x\201\036\253\214\276T\000'1\275"
 952      D092F278 
 952      811EAB8C 
 952      BE540027 
 952      31BD
 953 14b2 A0241A29 		.ascii	"\240$\032)\255,\202D\305e\372\310\207\212\245\354\262"
 953      AD2C8244 
 953      C565FAC8 
 953      878AA5EC 
 953      B2
 954 14c3 4A5D1B19 		.ascii	"J]\033\031\326\263\236\372\347\027\362\237\224B\370"
 954      D6B39EFA 
 954      E717F29F 
 954      9442F8
 955 14d2 72902FA0 		.ascii	"r\220/\240\370\250\270>\252B\213\003Z\017\2758\246\251"
 955      F8A8B83E 
 955      AA428B03 
 955      5A0FBD38 
 955      A6A9
 956 14e4 45F1F0CB 		.ascii	"E\361\360\313\225Z\245\026\326{F\212\303\226[\003\374"
 956      955AA516 
 956      D67B468A 
 956      C3965B03 
 956      FC
 957 14f5 21478A8B 		.ascii	"!G\212\213\0005\207@\204\365\\\023.\253\"\034\325F\352"
 957      00358740 
 957      84F55C13 
 957      2EAB221C 
 957      D546EA
 958 1508 F05511D3 		.ascii	"\360U\021\323F<\355\001\265\242<\246\307\013\236\370"
 958      463CED01 
 958      B5A23CA6 
 958      C70B9EF8 
 959 1518 C3334F3E 		.ascii	"\3033O>3\022R\226U\224\224j\261x\301SO>\011\311\031"
ARM GAS  /tmp/ccrnicAv.s 			page 76


 959      33125296 
 959      5594946A 
 959      B178C153 
 959      4F3E09C9 
 960 152d FF6CBD22 		.ascii	"\377l\275\"VR\036\326\177]P\031\217\025\250\261\262"
 960      56521ED6 
 960      7F5D5019 
 960      8F15A8B1 
 960      B2
 961 153e 07A3E551 		.ascii	"\007\243\345Q\355AM\035Zb\322\212\353E%Q\035\321\252"
 961      ED414D1D 
 961      5A62D28A 
 961      EB452551 
 961      1DD1AA
 962 1551 84EF87FB 		.ascii	"\204\357\207\373\207\365\001iR\227\251@&\252\025\204"
 962      87F50169 
 962      5297A940 
 962      26AA1584 
 963 1561 8BB4616A 		.ascii	"\213\264aje\251\036fEu\011\207Y~\254EIyv\244<\012\306"
 963      65A91E66 
 963      45750987 
 963      597EAC45 
 963      497976A4 
 964 1578 D71FF3AD 		.ascii	"\327\037\363\255Mq\244<\246\001fWt;\014\250\021}\344"
 964      4D71A43C 
 964      A6016657 
 964      743B0CA8 
 964      117DE4
 965 158b DF760E25 		.ascii	"\337v\016%<b`\031\322-\246\015\007\205\302z ^\370(\310"
 965      3C626019 
 965      D22DA60D 
 965      0785C27A 
 965      205EF828 
 966 15a0 40904120 		.ascii	"@\220A \217\005\342\375\373\201\024\202\364\007y\030"
 966      8F05E2FD 
 966      FB811482 
 966      F4077918 
 967 15b0 6400C823 		.ascii	"d\000\310# \220\256?\244\353\017\351\372C\272\207!\335"
 967      2090AE3F 
 967      A4EB0FE9 
 967      FA43BA87 
 967      21DD
 968 15c2 C3854A6C 		.ascii	"\303\205Jl\200\022{D\211=\252\304\006*\261AJ\354\261"
 968      80127B44 
 968      893DAAC4 
 968      062AB141 
 968      4AECB1
 969 15d5 40ACB01F 		.ascii	"@\254\260\037H\241R\032\203\257\207C\025a`\233\215\374"
 969      48A1521A 
 969      83AF8743 
 969      1561609B 
 969      8DFC
 970 15e7 F98A1683 		.ascii	"\371\212\026\203\357\362\322\"-\206\374\253\226i9z\\"
 970      EFF2D222 
 970      2D86FCAB 
 970      9669397A 
 970      5C
ARM GAS  /tmp/ccrnicAv.s 			page 77


 971 15f8 577508A4 		.ascii	"Wu\010\244ld\253A\020\001\304jp\006)\361\263l\275\254"
 971      6C64AB41 
 971      1001C46A 
 971      700629F1 
 971      B36CBDAC 
 972 160c BC48C3D7 		.ascii	"\274H\303\327\303J\325\341\361l=\246\015\213c\243\242"
 972      C34AD5E1 
 972      F16C3DA6 
 972      0D8B63A3 
 972      A2
 973 161d 9350597C 		.ascii	"\223PY|8<\244\226\206\354\314\346\261\242Q\360(G\033"
 973      383CA496 
 973      86ECCCE6 
 973      B1A251F0 
 973      28471B
 974 1630 59A2838D 		.ascii	"Y\242\203\215\264\254W\364\362\241\177\254\350\252\215"
 974      B4AC57F4 
 974      F2A17FAC 
 974      E8AA8D
 975 163f D0A27A99 		.ascii	"\320\242z\231\032\177\011\222h\257\240\223@E\270\262"
 975      1A7F0992 
 975      68AFA093 
 975      4045B8B2 
 976 164f 3B0BE2D2 		.ascii	";\013\342\322\2228\270\260\007\027\326\350NnE\370\025"
 976      9238B8B0 
 976      0717D6E8 
 976      4E6E45F8 
 976      15
 977 1660 B5442F89 		.ascii	"\265D/\211\016\357R\021\006T\034\352!|\0127\264\012"
 977      0EEF5211 
 977      06541CEA 
 977      217C0A37 
 977      B40A
 978 1672 2D0A2133 		.ascii	"-\012!3\034RA\235C\351\273 nj)v:\334\254(//\315.#\025"
 978      1C52419D 
 978      43E9BB20 
 978      6E6A2976 
 978      3ADCAC28 
 979 168c 04BECB5F 		.ascii	"\004\276\313_\211\202\001\312p\200\373\253/\020@\250"
 979      898201CA 
 979      7080FBAB 
 979      2F1040A8 
 980 169c BEDC8CBE 		.ascii	"\276\334\214\276\201Ny4<B\215\225\250CK\301>7\331of"
 980      814E7934 
 980      3C428D95 
 980      A8434BC1 
 980      3E37D96F 
 981 16b1 47489905 		.ascii	"GH\231\005i\013\321\265\270\216\212A\337\250\315\210"
 981      690BD1B5 
 981      B88E8A41 
 981      DFA8CD88 
 982 16c1 402DC1BA 		.ascii	"@-\301\272\027\312\025\264f\016\030\312NTzR\330\217"
 982      17CA15B4 
 982      660E18CA 
 982      4E547A52 
 982      D88F
 983 16d3 9DF46727 		.ascii	"\235\364g'\205y\220\2730\254\215\324\"\320\306t\301"
ARM GAS  /tmp/ccrnicAv.s 			page 78


 983      857990BB 
 983      30AC8DD4 
 983      22D0C674 
 983      C1
 984 16e4 17714DAF 		.ascii	"\027qM\257\254@\247\003R\247\217\220\323<|\227\246\316"
 984      AC40A703 
 984      52A78F90 
 984      D33C7C97 
 984      A6CE
 985 16f6 C3F7B98B 		.ascii	"\303\367\271\213Gy\234GS\231\007\246N\007\245p\006\362"
 985      47799C47 
 985      539907A6 
 985      4E07A570 
 985      06F2
 986 1708 5907B18B 		.ascii	"Y\007\261\213\007<\253\0156\015\205\177\007^\352\023"
 986      073CAB0D 
 986      360D857F 
 986      075EEA13 
 987 1718 46976135 		.ascii	"F\227a5\036\327\240\242\30550_4\242\345\361w{\341s\024"
 987      1ED7A0A2 
 987      C535305F 
 987      34A2E5F1 
 987      777BE173 
 988 172d 0E2C44BA 		.ascii	"\016,D\272F\212\237\321G\276\020--\217\2744\320\227"
 988      468A9FD1 
 988      47BE102D 
 988      2D8FBC34 
 988      D097
 989 173f 3F290014 		.ascii	"?)\000\024\337\03771\245%C\013\206G\"BS3\340\241A\017"
 989      DF1F3731 
 989      A525430B 
 989      86472242 
 989      5333E0A1 
 990 1755 0DE09B27 		.ascii	"\015\340\233'hj KV\274\344\277P\275\320\207UF#a\275"
 990      686A204B 
 990      56BCE4BF 
 990      50BDD087 
 990      55462361 
 991 176a 57A4F8F9 		.ascii	"W\244\370\371\342\242'\001P\327\236\203\212S\022\311"
 991      E2A22701 
 991      50D79E83 
 991      8A5312C9 
 992 177a C5BCFE09 		.ascii	"\305\274\376\011X\365\300\234\2652\304\271\374%-\332"
 992      58F5C09C 
 992      B532C4B9 
 992      FC252DDA 
 993 178a 033FF997 		.ascii	"\003?\371\227\241\177\324\"\372\357\243%z.j\342K\312"
 993      A17FD422 
 993      FAEFA325 
 993      7A2E6AE2 
 993      4BCA
 994 179c 00AD0B46 		.ascii	"\000\255\013Fy\256T\323*\272sj=QZ\012M\375s\221\342"
 994      79AE54D3 
 994      2ABA736A 
 994      3D515A0A 
 994      4DFD7391 
 995 17b1 3F68D066 		.ascii	"?h\320fkE\225\245\332sy\334sz\361|l\024*\256[\244\370"
ARM GAS  /tmp/ccrnicAv.s 			page 79


 995      6B4595A5 
 995      DA7379DC 
 995      737AF17C 
 995      6C142AAE 
 996 17c8 4908C6E7 		.ascii	"I\010\306\347J\206G\325"
 996      4A8647D5 
 997 17d0 D2DF7721 		.ascii	"\322\337w!W\377\006\026\353INS\005\367 7~\027+W\213"
 997      57FF0616 
 997      EB494E53 
 997      05F72037 
 997      7E172B57 
 998 17e5 226A5CCF 		.ascii	"\"j\\\317\343s\366Je|\036\310\225W\352JY\241R\326_\211"
 998      E373F64A 
 998      657C1EC8 
 998      9557EA4A 
 998      59A152D6 
 999 17fb 1482C9C3 		.ascii	"\024\202\311\303\210\263VF:\015r\236\207\2549\212\326"
 999      88B35646 
 999      3A0D729E 
 999      87AC398A 
 999      D6
 1000 180c 6120114E 		.ascii	"a \021N]g\307HU\310\212\341\2468\024\303\215R\2146J"
 1000      5D67C748 
 1000      55C88AE1 
 1000      A63814C3 
 1000      8D528C36 
 1001 1821 31D228E5 		.ascii	"1\322(\345\302\335\312X\014\032\210P\014e\3523\242$"
 1001      C2DDCA58 
 1001      0C1A8850 
 1001      0C65EA33 
 1001      A224
 1002 1833 A657AAA5 		.ascii	"\246W\252\245ad\233\030k\034n\001`\207\007=,\367H\327"
 1002      61649B18 
 1002      6B1C6E01 
 1002      6087073D 
 1002      2CF748D7 
 1003 1847 68B9953D 		.ascii	"h\271\225=B\307U\036}\243N-\007\276\213\264R]\205\023"
 1003      42C7551E 
 1003      7DA34E2D 
 1003      07BE8BB4 
 1003      525D8513 
 1004 185b E242F404 		.ascii	"\342B\364\004\235e\241\024j\254+|\225\202QPn\270\205"
 1004      9D65A114 
 1004      6AAC2B7C 
 1004      95825150 
 1004      6EB885
 1005 186e 0AE94E95 		.ascii	"\012\351N\225.\322\206V\016'\355\024\177'\267B\215\226"
 1005      2ED28656 
 1005      0E27ED14 
 1005      7F27B742 
 1005      8D96
 1006 1880 4450B314 		.ascii	"DP\263\024(\032:\274\277\277XD\335BO\275,\034Q!\014"
 1006      281A3ABC 
 1006      BFBF5844 
 1006      DD424FBD 
 1006      2C1C5121 
 1007 1895 632A6E49 		.ascii	"c*nI\300nz$\012Jg\225\017\033\006\325M\321\313\224H"
ARM GAS  /tmp/ccrnicAv.s 			page 80


 1007      C06E7A24 
 1007      0A4A6795 
 1007      0F1B06D5 
 1007      4DD1CB94 
 1008 18aa B1F28A4A 		.ascii	"\261\362\212J\233\210x\016\212,\360\234\026D\315y\010"
 1008      9B88780E 
 1008      8A2CF09C 
 1008      1644CD79 
 1008      08
 1009 18bb D748B8A7 		.ascii	"\327H\270\247\306\212\240\225\313fu\270B\325u-\026\205"
 1009      C68AA095 
 1009      CB6675B8 
 1009      42D5752D 
 1009      1685
 1010 18cd CA99435B 		.ascii	"\312\231C[\231\302\236\017\305\312\213T]}\210\335\270"
 1010      99C29E0F 
 1010      C5CA8B54 
 1010      5D7D88DD 
 1010      B8
 1011 18de E719F466 		.ascii	"\347\031\364f\242\305\037\310G\016\212\225\350\243\362"
 1011      A2C51FC8 
 1011      470E8A95 
 1011      E8A3F2
 1012 18ed B528F219 		.ascii	"\265(\362\031\264\254\371(\221\304\362\016\270\315\236"
 1012      B4ACF928 
 1012      91C4F20E 
 1012      B8CD9E
 1013 18fc 340605C7 		.ascii	"4\006\005\307\242f\222Gz\232IP'R\0317\237<\332\007\305"
 1013      A2669247 
 1013      7A9A4950 
 1013      27521937 
 1013      9F3CDA07 
 1014 1911 D4BFAA31 		.ascii	"\324\277\2521x\202\243\314\212=\260\257\371x(\013Jk"
 1014      7882A3CC 
 1014      8A3DB0AF 
 1014      F978280B 
 1014      4A6B
 1015 1923 8A4137A7 		.ascii	"\212A7\247R\224\227\263\247\244\366=\245\351\317RF/"
 1015      529497B3 
 1015      A7A4F63D 
 1015      A5E9CF52 
 1015      462F
 1016 1935 7663779E 		.ascii	"vcw\236\323J\207\275\330\215\2740\225\304\265\262\012"
 1016      D34A87BD 
 1016      D88DBC30 
 1016      95C4B5B2 
 1016      0A
 1017 1946 7D54407F 		.ascii	"}T@\177\271\342\377\000\363ER\037"
 1017      B9E2FF00 
 1017      F345521F 
 1018              		.text
 1019              		.section	.gnu.lto_.symtab.e8a481c64be60343,"",%progbits
 1020 0000 70617474 		.ascii	"patternmtx\000\000\000\000\000\000\000\000\000\000\000"
 1020      65726E6D 
 1020      74780000 
 1020      00000000 
 1020      00000000 
ARM GAS  /tmp/ccrnicAv.s 			page 81


 1021 0015 00750200 		.ascii	"\000u\002\000\000testmtx1\000\000\000\000\000\000\000"
 1021      00746573 
 1021      746D7478 
 1021      31000000 
 1021      00000000 
 1022 0029 00000000 		.ascii	"\000\000\000\000\000\213\002\000\000testmtx4\000\000"
 1022      008B0200 
 1022      00746573 
 1022      746D7478 
 1022      340000
 1023 003c 00000000 		.ascii	"\000\000\000\000\000\000\000\000\000\000\227\002\000"
 1023      00000000 
 1023      00009702 
 1023      00
 1024 0049 00746573 		.ascii	"\000testmtx5\000\000\000\000\000\000\000\000\000\000"
 1024      746D7478 
 1024      35000000 
 1024      00000000 
 1024      000000
 1025 005c 0000A202 		.ascii	"\000\000\242\002\000\000testmtx6\000\000\000\000\000"
 1025      00007465 
 1025      73746D74 
 1025      78360000 
 1025      000000
 1026 006f 00000000 		.ascii	"\000\000\000\000\000\000\000\255\002\000\000testmtx"
 1026      000000AD 
 1026      02000074 
 1026      6573746D 
 1026      7478
 1027 0081 37000000 		.ascii	"7\000\000\000\000\000\000\000\000\000\000\000\000\270"
 1027      00000000 
 1027      00000000 
 1027      00B8
 1028 008f 02000074 		.ascii	"\002\000\000testmtx8\000\000\000\000\000\000\000\000"
 1028      6573746D 
 1028      74783800 
 1028      00000000 
 1028      000000
 1029 00a2 00000000 		.ascii	"\000\000\000\000\303\002\000\000ch\000\000\002\000\000"
 1029      C3020000 
 1029      63680000 
 1029      020000
 1030 00b1 00000000 		.ascii	"\000\000\000\000\000\000\000\025\002\000\000wa\000\000"
 1030      00000015 
 1030      02000077 
 1030      610000
 1031 00c0 02000000 		.ascii	"\002\000\000\000\000\000\000\000\000\000l\002\000\000"
 1031      00000000 
 1031      00006C02 
 1031      0000
 1032 00ce 74687265 		.ascii	"threads\000\000\002\000\000\000\000\000\000\000\000"
 1032      61647300 
 1032      00020000 
 1032      00000000 
 1032      0000
 1033 00e0 00710200 		.ascii	"\000q\002\000\000_test_assert_sequence\000\000\002\000"
 1033      005F7465 
ARM GAS  /tmp/ccrnicAv.s 			page 82


 1033      73745F61 
 1033      73736572 
 1033      745F7365 
 1034 00fe 00000000 		.ascii	"\000\000\000\000\000\000\000\000\256\001\000\000_te"
 1034      00000000 
 1034      AE010000 
 1034      5F7465
 1035 010d 73745F61 		.ascii	"st_assert\000\000\002\000\000\000\000\000\000\000\000"
 1035      73736572 
 1035      74000002 
 1035      00000000 
 1035      00000000 
 1036 0121 00B70100 		.ascii	"\000\267\001\000\000test_wait_threads\000\000\002\000"
 1036      00746573 
 1036      745F7761 
 1036      69745F74 
 1036      68726561 
 1037 013b 00000000 		.ascii	"\000\000\000\000\000\000\000\000\274\001\000\000chM"
 1037      00000000 
 1037      BC010000 
 1037      63684D
 1038 014a 7478556E 		.ascii	"txUnlock\000\000\002\000\000\000\000\000\000\000\000"
 1038      6C6F636B 
 1038      00000200 
 1038      00000000 
 1038      000000
 1039 015d 00BE0100 		.ascii	"\000\276\001\000\000chThdCreateStatic\000\000\002\000"
 1039      00636854 
 1039      68644372 
 1039      65617465 
 1039      53746174 
 1040 0177 00000000 		.ascii	"\000\000\000\000\000\000\000\000\302\001\000\000chM"
 1040      00000000 
 1040      C2010000 
 1040      63684D
 1041 0186 74784C6F 		.ascii	"txLock\000\000\002\000\000\000\000\000\000\000\000\000"
 1041      636B0000 
 1041      02000000 
 1041      00000000 
 1041      0000
 1042 0198 D0010000 		.ascii	"\320\001\000\000test_emit_token\000\000\002\000\000"
 1042      74657374 
 1042      5F656D69 
 1042      745F746F 
 1042      6B656E00 
 1043 01b0 00000000 		.ascii	"\000\000\000\000\000\000\000\322\001\000\000chMtxOb"
 1043      000000D2 
 1043      01000063 
 1043      684D7478 
 1043      4F62
 1044 01c2 6A656374 		.ascii	"jectInit\000\000\002\000\000\000\000\000\000\000\000"
 1044      496E6974 
 1044      00000200 
 1044      00000000 
 1044      000000
 1045 01d5 00D60100 		.ascii	"\000\326\001\000\000chThdSleep\000\000\002\000\000\000"
 1045      00636854 
ARM GAS  /tmp/ccrnicAv.s 			page 83


 1045      6864536C 
 1045      65657000 
 1045      00020000 
 1046 01ea 00000000 		.ascii	"\000\000\000\000\000\000\330\001\000\000chMtxUnlock"
 1046      0000D801 
 1046      00006368 
 1046      4D747855 
 1046      6E6C6F63 
 1047 01ff 416C6C00 		.ascii	"All\000\000\002\000\000\000\000\000\000\000\000\000"
 1047      00020000 
 1047      00000000 
 1047      000000
 1048 020e DF010000 		.ascii	"\337\001\000\000chSchRescheduleS\000\000\002\000\000"
 1048      63685363 
 1048      68526573 
 1048      63686564 
 1048      756C6553 
 1049 0227 00000000 		.ascii	"\000\000\000\000\000\000\000\341\001\000\000chMtxUn"
 1049      000000E1 
 1049      01000063 
 1049      684D7478 
 1049      556E
 1050 0239 6C6F636B 		.ascii	"lockS\000\000\002\000\000\000\000\000\000\000\000\000"
 1050      53000002 
 1050      00000000 
 1050      00000000 
 1050      00
 1051 024a E3010000 		.ascii	"\343\001\000\000chMtxTryLock\000\000\002\000\000\000"
 1051      63684D74 
 1051      78547279 
 1051      4C6F636B 
 1051      00000200 
 1052 0260 00000000 		.ascii	"\000\000\000\000\000\000\345\001\000\000chCondSigna"
 1052      0000E501 
 1052      00006368 
 1052      436F6E64 
 1052      5369676E 
 1053 0275 6C490000 		.ascii	"lI\000\000\002\000\000\000\000\000\000\000\000\000\351"
 1053      02000000 
 1053      00000000 
 1053      0000E9
 1054 0284 01000063 		.ascii	"\001\000\000chCondWait\000\000\002\000\000\000\000\000"
 1054      68436F6E 
 1054      64576169 
 1054      74000002 
 1054      00000000 
 1055 0299 00000000 		.ascii	"\000\000\000\000\355\001\000\000chCondObjectInit\000"
 1055      ED010000 
 1055      6368436F 
 1055      6E644F62 
 1055      6A656374 
 1056 02b2 00020000 		.ascii	"\000\002\000\000\000\000\000\000\000\000\000\361\001"
 1056      00000000 
 1056      000000F1 
 1056      01
 1057 02bf 00006368 		.ascii	"\000\000chCondBroadcast\000\000\002\000\000\000\000"
 1057      436F6E64 
ARM GAS  /tmp/ccrnicAv.s 			page 84


 1057      42726F61 
 1057      64636173 
 1057      74000002 
 1058 02d7 00000000 		.ascii	"\000\000\000\000\000\363\001\000\000chCondSignal\000"
 1058      00F30100 
 1058      00636843 
 1058      6F6E6453 
 1058      69676E61 
 1059 02ed 00020000 		.ascii	"\000\002\000\000\000\000\000\000\000\000\000\365\001"
 1059      00000000 
 1059      000000F5 
 1059      01
 1060 02fa 00006368 		.ascii	"\000\000chCondWaitTimeout\000\000\002\000\000\000\000"
 1060      436F6E64 
 1060      57616974 
 1060      54696D65 
 1060      6F757400 
 1061 0314 00000000 		.ascii	"\000\000\000\000\000\367\001\000\000"
 1061      00F70100 
 1061      00
 1062              		.text
 1063              		.section	.gnu.lto_.opts,"",%progbits
 1064 0000 272D6D63 		.ascii	"'-mcpu=cortex-m4' '-mfloat-abi=hard' '-mfpu=fpv4-sp"
 1064      70753D63 
 1064      6F727465 
 1064      782D6D34 
 1064      2720272D 
 1065 0033 2D643136 		.ascii	"-d16' '-mno-thumb-interwork' '-mthumb' '-O2' '-fomi"
 1065      2720272D 
 1065      6D6E6F2D 
 1065      7468756D 
 1065      622D696E 
 1066 0066 742D6672 		.ascii	"t-frame-pointer' '-falign-functions=16' '-ffunction"
 1066      616D652D 
 1066      706F696E 
 1066      74657227 
 1066      20272D66 
 1067 0099 2D736563 		.ascii	"-sections' '-fdata-sections' '-fno-common' '-flto' "
 1067      74696F6E 
 1067      73272027 
 1067      2D666461 
 1067      74612D73 
 1068 00cc 272D6673 		.ascii	"'-fsingle-precision-constant'\000"
 1068      696E676C 
 1068      652D7072 
 1068      65636973 
 1068      696F6E2D 
 1069              		.text
 1070              		.section	.text.mtx1_execute,"ax",%progbits
 1071              		.align	2
 1072              		.p2align 4,,15
 1073              		.thumb
 1074              		.thumb_func
 1075              		.type	mtx1_execute, %function
 1076              	mtx1_execute:
 1077              		@ args = 0, pretend = 0, frame = 0
 1078              		@ frame_needed = 0, uses_anonymous_args = 0
ARM GAS  /tmp/ccrnicAv.s 			page 85


 1079 0000 F0B5     		push	{r4, r5, r6, r7, lr}
 1080 0002 2B4F     		ldr	r7, .L5
 1081 0004 2B4E     		ldr	r6, .L5+4
 1082 0006 BB69     		ldr	r3, [r7, #24]
 1083 0008 2B48     		ldr	r0, .L5+8
 1084 000a 9C68     		ldr	r4, [r3, #8]
 1085 000c 2B4D     		ldr	r5, .L5+12
 1086 000e 83B0     		sub	sp, sp, #12
 1087 0010 FFF7FEFF 		bl	chMtxLock
 1088 0014 2A4B     		ldr	r3, .L5+16
 1089 0016 0093     		str	r3, [sp]
 1090 0018 621C     		adds	r2, r4, #1
 1091 001a 4FF4E871 		mov	r1, #464
 1092 001e 294B     		ldr	r3, .L5+20
 1093 0020 3068     		ldr	r0, [r6]
 1094 0022 FFF7FEFF 		bl	chThdCreateStatic
 1095 0026 7368     		ldr	r3, [r6, #4]
 1096 0028 2749     		ldr	r1, .L5+24
 1097 002a 2860     		str	r0, [r5]
 1098 002c A21C     		adds	r2, r4, #2
 1099 002e 1846     		mov	r0, r3
 1100 0030 0091     		str	r1, [sp]
 1101 0032 244B     		ldr	r3, .L5+20
 1102 0034 4FF4E871 		mov	r1, #464
 1103 0038 FFF7FEFF 		bl	chThdCreateStatic
 1104 003c B368     		ldr	r3, [r6, #8]
 1105 003e 2349     		ldr	r1, .L5+28
 1106 0040 6860     		str	r0, [r5, #4]
 1107 0042 E21C     		adds	r2, r4, #3
 1108 0044 1846     		mov	r0, r3
 1109 0046 0091     		str	r1, [sp]
 1110 0048 1E4B     		ldr	r3, .L5+20
 1111 004a 4FF4E871 		mov	r1, #464
 1112 004e FFF7FEFF 		bl	chThdCreateStatic
 1113 0052 F368     		ldr	r3, [r6, #12]
 1114 0054 1E49     		ldr	r1, .L5+32
 1115 0056 A860     		str	r0, [r5, #8]
 1116 0058 221D     		adds	r2, r4, #4
 1117 005a 1846     		mov	r0, r3
 1118 005c 0091     		str	r1, [sp]
 1119 005e 194B     		ldr	r3, .L5+20
 1120 0060 4FF4E871 		mov	r1, #464
 1121 0064 FFF7FEFF 		bl	chThdCreateStatic
 1122 0068 3369     		ldr	r3, [r6, #16]
 1123 006a 1A49     		ldr	r1, .L5+36
 1124 006c E860     		str	r0, [r5, #12]
 1125 006e 621D     		adds	r2, r4, #5
 1126 0070 1846     		mov	r0, r3
 1127 0072 0091     		str	r1, [sp]
 1128 0074 134B     		ldr	r3, .L5+20
 1129 0076 4FF4E871 		mov	r1, #464
 1130 007a FFF7FEFF 		bl	chThdCreateStatic
 1131 007e 2861     		str	r0, [r5, #16]
 1132 0080 0D48     		ldr	r0, .L5+8
 1133 0082 FFF7FEFF 		bl	chMtxUnlock
 1134 0086 FFF7FEFF 		bl	test_wait_threads
 1135 008a BB69     		ldr	r3, [r7, #24]
ARM GAS  /tmp/ccrnicAv.s 			page 86


 1136 008c 9968     		ldr	r1, [r3, #8]
 1137 008e 631A     		subs	r3, r4, r1
 1138 0090 5942     		rsbs	r1, r3, #0
 1139 0092 5941     		adcs	r1, r1, r3
 1140 0094 0120     		movs	r0, #1
 1141 0096 FFF7FEFF 		bl	_test_assert
 1142 009a 08B1     		cbz	r0, .L4
 1143 009c 03B0     		add	sp, sp, #12
 1144              		@ sp needed
 1145 009e F0BD     		pop	{r4, r5, r6, r7, pc}
 1146              	.L4:
 1147 00a0 0D49     		ldr	r1, .L5+40
 1148 00a2 0220     		movs	r0, #2
 1149 00a4 03B0     		add	sp, sp, #12
 1150              		@ sp needed
 1151 00a6 BDE8F040 		pop	{r4, r5, r6, r7, lr}
 1152 00aa FFF7FEBF 		b	_test_assert_sequence
 1153              	.L6:
 1154 00ae 00BF     		.align	2
 1155              	.L5:
 1156 00b0 00000000 		.word	ch
 1157 00b4 00000000 		.word	wa
 1158 00b8 00000000 		.word	.LANCHOR0
 1159 00bc 00000000 		.word	threads
 1160 00c0 00000000 		.word	.LC0
 1161 00c4 00000000 		.word	thread1
 1162 00c8 04000000 		.word	.LC1
 1163 00cc 08000000 		.word	.LC2
 1164 00d0 0C000000 		.word	.LC3
 1165 00d4 10000000 		.word	.LC4
 1166 00d8 14000000 		.word	.LC5
 1167              		.size	mtx1_execute, .-mtx1_execute
 1168 00dc AFF30080 		.section	.text.thread1,"ax",%progbits
 1169              		.align	2
 1170              		.p2align 4,,15
 1171              		.thumb
 1172              		.thumb_func
 1173              		.type	thread1, %function
 1174              	thread1:
 1175              		@ args = 0, pretend = 0, frame = 0
 1176              		@ frame_needed = 0, uses_anonymous_args = 0
 1177 0000 38B5     		push	{r3, r4, r5, lr}
 1178 0002 064C     		ldr	r4, .L8
 1179 0004 0546     		mov	r5, r0
 1180 0006 2046     		mov	r0, r4
 1181 0008 FFF7FEFF 		bl	chMtxLock
 1182 000c 2878     		ldrb	r0, [r5]	@ zero_extendqisi2
 1183 000e FFF7FEFF 		bl	test_emit_token
 1184 0012 2046     		mov	r0, r4
 1185 0014 FFF7FEFF 		bl	chMtxUnlock
 1186 0018 0020     		movs	r0, #0
 1187 001a 38BD     		pop	{r3, r4, r5, pc}
 1188              	.L9:
 1189              		.align	2
 1190              	.L8:
 1191 001c 00000000 		.word	.LANCHOR0
 1192              		.size	thread1, .-thread1
ARM GAS  /tmp/ccrnicAv.s 			page 87


 1193              		.section	.text.thread12,"ax",%progbits
 1194              		.align	2
 1195              		.p2align 4,,15
 1196              		.thumb
 1197              		.thumb_func
 1198              		.type	thread12, %function
 1199              	thread12:
 1200              		@ args = 0, pretend = 0, frame = 0
 1201              		@ frame_needed = 0, uses_anonymous_args = 0
 1202 0000 38B5     		push	{r3, r4, r5, lr}
 1203 0002 064C     		ldr	r4, .L11
 1204 0004 0546     		mov	r5, r0
 1205 0006 2046     		mov	r0, r4
 1206 0008 FFF7FEFF 		bl	chMtxLock
 1207 000c 2878     		ldrb	r0, [r5]	@ zero_extendqisi2
 1208 000e FFF7FEFF 		bl	test_emit_token
 1209 0012 2046     		mov	r0, r4
 1210 0014 FFF7FEFF 		bl	chMtxUnlock
 1211 0018 0020     		movs	r0, #0
 1212 001a 38BD     		pop	{r3, r4, r5, pc}
 1213              	.L12:
 1214              		.align	2
 1215              	.L11:
 1216 001c 00000000 		.word	.LANCHOR1
 1217              		.size	thread12, .-thread12
 1218              		.section	.text.mtx1_setup,"ax",%progbits
 1219              		.align	2
 1220              		.p2align 4,,15
 1221              		.thumb
 1222              		.thumb_func
 1223              		.type	mtx1_setup, %function
 1224              	mtx1_setup:
 1225              		@ args = 0, pretend = 0, frame = 0
 1226              		@ frame_needed = 0, uses_anonymous_args = 0
 1227              		@ link register save eliminated.
 1228 0000 0148     		ldr	r0, .L14
 1229 0002 FFF7FEBF 		b	chMtxObjectInit
 1230              	.L15:
 1231 0006 00BF     		.align	2
 1232              	.L14:
 1233 0008 00000000 		.word	.LANCHOR0
 1234              		.size	mtx1_setup, .-mtx1_setup
 1235 000c AFF30080 		.section	.text.mtx4_setup,"ax",%progbits
 1236              		.align	2
 1237              		.p2align 4,,15
 1238              		.thumb
 1239              		.thumb_func
 1240              		.type	mtx4_setup, %function
 1241              	mtx4_setup:
 1242              		@ args = 0, pretend = 0, frame = 0
 1243              		@ frame_needed = 0, uses_anonymous_args = 0
 1244 0000 08B5     		push	{r3, lr}
 1245 0002 0448     		ldr	r0, .L17
 1246 0004 FFF7FEFF 		bl	chMtxObjectInit
 1247 0008 0348     		ldr	r0, .L17+4
 1248 000a BDE80840 		pop	{r3, lr}
 1249 000e FFF7FEBF 		b	chMtxObjectInit
ARM GAS  /tmp/ccrnicAv.s 			page 88


 1250              	.L18:
 1251 0012 00BF     		.align	2
 1252              	.L17:
 1253 0014 00000000 		.word	.LANCHOR0
 1254 0018 00000000 		.word	.LANCHOR1
 1255              		.size	mtx4_setup, .-mtx4_setup
 1256 001c AFF30080 		.section	.text.mtx5_setup,"ax",%progbits
 1257              		.align	2
 1258              		.p2align 4,,15
 1259              		.thumb
 1260              		.thumb_func
 1261              		.type	mtx5_setup, %function
 1262              	mtx5_setup:
 1263              		@ args = 0, pretend = 0, frame = 0
 1264              		@ frame_needed = 0, uses_anonymous_args = 0
 1265              		@ link register save eliminated.
 1266 0000 0148     		ldr	r0, .L20
 1267 0002 FFF7FEBF 		b	chMtxObjectInit
 1268              	.L21:
 1269 0006 00BF     		.align	2
 1270              	.L20:
 1271 0008 00000000 		.word	.LANCHOR0
 1272              		.size	mtx5_setup, .-mtx5_setup
 1273 000c AFF30080 		.section	.text.thread4b,"ax",%progbits
 1274              		.align	2
 1275              		.p2align 4,,15
 1276              		.thumb
 1277              		.thumb_func
 1278              		.type	thread4b, %function
 1279              	thread4b:
 1280              		@ args = 0, pretend = 0, frame = 0
 1281              		@ frame_needed = 0, uses_anonymous_args = 0
 1282 0000 10B5     		push	{r4, lr}
 1283 0002 064C     		ldr	r4, .L23
 1284 0004 40F2DC50 		movw	r0, #1500
 1285 0008 FFF7FEFF 		bl	chThdSleep
 1286 000c 2046     		mov	r0, r4
 1287 000e FFF7FEFF 		bl	chMtxLock
 1288 0012 2046     		mov	r0, r4
 1289 0014 FFF7FEFF 		bl	chMtxUnlock
 1290 0018 0020     		movs	r0, #0
 1291 001a 10BD     		pop	{r4, pc}
 1292              	.L24:
 1293              		.align	2
 1294              	.L23:
 1295 001c 00000000 		.word	.LANCHOR0
 1296              		.size	thread4b, .-thread4b
 1297              		.section	.text.thread4a,"ax",%progbits
 1298              		.align	2
 1299              		.p2align 4,,15
 1300              		.thumb
 1301              		.thumb_func
 1302              		.type	thread4a, %function
 1303              	thread4a:
 1304              		@ args = 0, pretend = 0, frame = 0
 1305              		@ frame_needed = 0, uses_anonymous_args = 0
 1306 0000 10B5     		push	{r4, lr}
ARM GAS  /tmp/ccrnicAv.s 			page 89


 1307 0002 064C     		ldr	r4, .L26
 1308 0004 4FF4FA70 		mov	r0, #500
 1309 0008 FFF7FEFF 		bl	chThdSleep
 1310 000c 2046     		mov	r0, r4
 1311 000e FFF7FEFF 		bl	chMtxLock
 1312 0012 2046     		mov	r0, r4
 1313 0014 FFF7FEFF 		bl	chMtxUnlock
 1314 0018 0020     		movs	r0, #0
 1315 001a 10BD     		pop	{r4, pc}
 1316              	.L27:
 1317              		.align	2
 1318              	.L26:
 1319 001c 00000000 		.word	.LANCHOR1
 1320              		.size	thread4a, .-thread4a
 1321              		.section	.text.mtx4_execute,"ax",%progbits
 1322              		.align	2
 1323              		.p2align 4,,15
 1324              		.thumb
 1325              		.thumb_func
 1326              		.type	mtx4_execute, %function
 1327              	mtx4_execute:
 1328              		@ args = 0, pretend = 0, frame = 8
 1329              		@ frame_needed = 0, uses_anonymous_args = 0
 1330 0000 2DE9F046 		push	{r4, r5, r6, r7, r9, r10, lr}
 1331 0004 8F4D     		ldr	r5, .L33
 1332 0006 904E     		ldr	r6, .L33+4
 1333 0008 AB69     		ldr	r3, [r5, #24]
 1334 000a 3268     		ldr	r2, [r6]
 1335 000c 9C68     		ldr	r4, [r3, #8]
 1336 000e 8F4B     		ldr	r3, .L33+8
 1337 0010 8F4F     		ldr	r7, .L33+12
 1338 0012 85B0     		sub	sp, sp, #20
 1339 0014 04F10109 		add	r9, r4, #1
 1340 0018 0392     		str	r2, [sp, #12]
 1341 001a 0093     		str	r3, [sp]
 1342 001c 4A46     		mov	r2, r9
 1343 001e 4FF4E871 		mov	r1, #464
 1344 0022 8C4B     		ldr	r3, .L33+16
 1345 0024 0398     		ldr	r0, [sp, #12]
 1346 0026 FFF7FEFF 		bl	chThdCreateStatic
 1347 002a 7668     		ldr	r6, [r6, #4]
 1348 002c 8A4B     		ldr	r3, .L33+20
 1349 002e 3860     		str	r0, [r7]
 1350 0030 04F1020A 		add	r10, r4, #2
 1351 0034 4FF4E871 		mov	r1, #464
 1352 0038 5246     		mov	r2, r10
 1353 003a 0093     		str	r3, [sp]
 1354 003c 3046     		mov	r0, r6
 1355 003e 874B     		ldr	r3, .L33+24
 1356 0040 FFF7FEFF 		bl	chThdCreateStatic
 1357 0044 7860     		str	r0, [r7, #4]
 1358 0046 8648     		ldr	r0, .L33+28
 1359 0048 FFF7FEFF 		bl	chMtxLock
 1360 004c AB69     		ldr	r3, [r5, #24]
 1361 004e 9968     		ldr	r1, [r3, #8]
 1362 0050 B4EB010C 		subs	ip, r4, r1
 1363 0054 DCF10001 		rsbs	r1, ip, #0
ARM GAS  /tmp/ccrnicAv.s 			page 90


 1364 0058 51EB0C01 		adcs	r1, r1, ip
 1365 005c 0120     		movs	r0, #1
 1366 005e FFF7FEFF 		bl	_test_assert
 1367 0062 10B1     		cbz	r0, .L32
 1368              	.L28:
 1369 0064 05B0     		add	sp, sp, #20
 1370              		@ sp needed
 1371 0066 BDE8F086 		pop	{r4, r5, r6, r7, r9, r10, pc}
 1372              	.L32:
 1373 006a 4FF47A70 		mov	r0, #1000
 1374 006e FFF7FEFF 		bl	chThdSleep
 1375 0072 AB69     		ldr	r3, [r5, #24]
 1376 0074 9968     		ldr	r1, [r3, #8]
 1377 0076 B9EB010E 		subs	lr, r9, r1
 1378 007a DEF10001 		rsbs	r1, lr, #0
 1379 007e 51EB0E01 		adcs	r1, r1, lr
 1380 0082 0220     		movs	r0, #2
 1381 0084 FFF7FEFF 		bl	_test_assert
 1382 0088 0028     		cmp	r0, #0
 1383 008a EBD1     		bne	.L28
 1384 008c 7548     		ldr	r0, .L33+32
 1385 008e FFF7FEFF 		bl	chMtxLock
 1386 0092 AB69     		ldr	r3, [r5, #24]
 1387 0094 9968     		ldr	r1, [r3, #8]
 1388 0096 B9EB0102 		subs	r2, r9, r1
 1389 009a 5142     		rsbs	r1, r2, #0
 1390 009c 5141     		adcs	r1, r1, r2
 1391 009e 0320     		movs	r0, #3
 1392 00a0 FFF7FEFF 		bl	_test_assert
 1393 00a4 0028     		cmp	r0, #0
 1394 00a6 DDD1     		bne	.L28
 1395 00a8 4FF47A70 		mov	r0, #1000
 1396 00ac FFF7FEFF 		bl	chThdSleep
 1397 00b0 AB69     		ldr	r3, [r5, #24]
 1398 00b2 9968     		ldr	r1, [r3, #8]
 1399 00b4 BAEB0103 		subs	r3, r10, r1
 1400 00b8 5942     		rsbs	r1, r3, #0
 1401 00ba 5941     		adcs	r1, r1, r3
 1402 00bc 0420     		movs	r0, #4
 1403 00be FFF7FEFF 		bl	_test_assert
 1404 00c2 0028     		cmp	r0, #0
 1405 00c4 CED1     		bne	.L28
 1406 00c6 6748     		ldr	r0, .L33+32
 1407 00c8 FFF7FEFF 		bl	chMtxUnlock
 1408 00cc AB69     		ldr	r3, [r5, #24]
 1409 00ce 9968     		ldr	r1, [r3, #8]
 1410 00d0 B9EB010C 		subs	ip, r9, r1
 1411 00d4 DCF10001 		rsbs	r1, ip, #0
 1412 00d8 51EB0C01 		adcs	r1, r1, ip
 1413 00dc 0520     		movs	r0, #5
 1414 00de FFF7FEFF 		bl	_test_assert
 1415 00e2 0028     		cmp	r0, #0
 1416 00e4 BED1     		bne	.L28
 1417 00e6 4FF47A70 		mov	r0, #1000
 1418 00ea FFF7FEFF 		bl	chThdSleep
 1419 00ee AB69     		ldr	r3, [r5, #24]
 1420 00f0 9968     		ldr	r1, [r3, #8]
ARM GAS  /tmp/ccrnicAv.s 			page 91


 1421 00f2 B9EB010E 		subs	lr, r9, r1
 1422 00f6 DEF10001 		rsbs	r1, lr, #0
 1423 00fa 51EB0E01 		adcs	r1, r1, lr
 1424 00fe 0620     		movs	r0, #6
 1425 0100 FFF7FEFF 		bl	_test_assert
 1426 0104 0028     		cmp	r0, #0
 1427 0106 ADD1     		bne	.L28
 1428 0108 FFF7FEFF 		bl	chMtxUnlockAll
 1429 010c AB69     		ldr	r3, [r5, #24]
 1430 010e 9968     		ldr	r1, [r3, #8]
 1431 0110 621A     		subs	r2, r4, r1
 1432 0112 5142     		rsbs	r1, r2, #0
 1433 0114 5141     		adcs	r1, r1, r2
 1434 0116 0720     		movs	r0, #7
 1435 0118 FFF7FEFF 		bl	_test_assert
 1436 011c 0028     		cmp	r0, #0
 1437 011e A1D1     		bne	.L28
 1438 0120 FFF7FEFF 		bl	test_wait_threads
 1439 0124 504B     		ldr	r3, .L33+36
 1440 0126 0093     		str	r3, [sp]
 1441 0128 4FF4E871 		mov	r1, #464
 1442 012c 4A46     		mov	r2, r9
 1443 012e 494B     		ldr	r3, .L33+16
 1444 0130 0398     		ldr	r0, [sp, #12]
 1445 0132 FFF7FEFF 		bl	chThdCreateStatic
 1446 0136 4D4B     		ldr	r3, .L33+40
 1447 0138 3860     		str	r0, [r7]
 1448 013a 4FF4E871 		mov	r1, #464
 1449 013e 0093     		str	r3, [sp]
 1450 0140 5246     		mov	r2, r10
 1451 0142 464B     		ldr	r3, .L33+24
 1452 0144 3046     		mov	r0, r6
 1453 0146 FFF7FEFF 		bl	chThdCreateStatic
 1454 014a 7860     		str	r0, [r7, #4]
 1455 014c 4448     		ldr	r0, .L33+28
 1456 014e FFF7FEFF 		bl	chMtxLock
 1457 0152 AB69     		ldr	r3, [r5, #24]
 1458 0154 9968     		ldr	r1, [r3, #8]
 1459 0156 631A     		subs	r3, r4, r1
 1460 0158 5942     		rsbs	r1, r3, #0
 1461 015a 5941     		adcs	r1, r1, r3
 1462 015c 0820     		movs	r0, #8
 1463 015e FFF7FEFF 		bl	_test_assert
 1464 0162 0028     		cmp	r0, #0
 1465 0164 7FF47EAF 		bne	.L28
 1466 0168 4FF47A70 		mov	r0, #1000
 1467 016c FFF7FEFF 		bl	chThdSleep
 1468 0170 AB69     		ldr	r3, [r5, #24]
 1469 0172 9968     		ldr	r1, [r3, #8]
 1470 0174 B9EB010C 		subs	ip, r9, r1
 1471 0178 DCF10001 		rsbs	r1, ip, #0
 1472 017c 51EB0C01 		adcs	r1, r1, ip
 1473 0180 0920     		movs	r0, #9
 1474 0182 FFF7FEFF 		bl	_test_assert
 1475 0186 0028     		cmp	r0, #0
 1476 0188 7FF46CAF 		bne	.L28
 1477 018c 3548     		ldr	r0, .L33+32
ARM GAS  /tmp/ccrnicAv.s 			page 92


 1478 018e FFF7FEFF 		bl	chMtxLock
 1479 0192 AB69     		ldr	r3, [r5, #24]
 1480 0194 9968     		ldr	r1, [r3, #8]
 1481 0196 B9EB010E 		subs	lr, r9, r1
 1482 019a DEF10001 		rsbs	r1, lr, #0
 1483 019e 51EB0E01 		adcs	r1, r1, lr
 1484 01a2 0A20     		movs	r0, #10
 1485 01a4 FFF7FEFF 		bl	_test_assert
 1486 01a8 0028     		cmp	r0, #0
 1487 01aa 7FF45BAF 		bne	.L28
 1488 01ae 4FF47A70 		mov	r0, #1000
 1489 01b2 FFF7FEFF 		bl	chThdSleep
 1490 01b6 AB69     		ldr	r3, [r5, #24]
 1491 01b8 9968     		ldr	r1, [r3, #8]
 1492 01ba BAEB0107 		subs	r7, r10, r1
 1493 01be 7942     		rsbs	r1, r7, #0
 1494 01c0 4FF00B00 		mov	r0, #11
 1495 01c4 7941     		adcs	r1, r1, r7
 1496 01c6 FFF7FEFF 		bl	_test_assert
 1497 01ca 0646     		mov	r6, r0
 1498 01cc 0028     		cmp	r0, #0
 1499 01ce 7FF449AF 		bne	.L28
 1500 01d2 2023     		movs	r3, #32
 1501              	@ 546 "/home/cody/dev/chibios/trunk/os/ext/CMSIS/include/core_cmFunc.h" 1
 1502 01d4 83F31188 		MSR basepri, r3
 1503              	@ 0 "" 2
 1504              		.thumb
 1505 01d8 2248     		ldr	r0, .L33+32
 1506 01da FFF7FEFF 		bl	chMtxUnlockS
 1507 01de FFF7FEFF 		bl	chSchRescheduleS
 1508              	@ 546 "/home/cody/dev/chibios/trunk/os/ext/CMSIS/include/core_cmFunc.h" 1
 1509 01e2 86F31188 		MSR basepri, r6
 1510              	@ 0 "" 2
 1511              		.thumb
 1512 01e6 AB69     		ldr	r3, [r5, #24]
 1513 01e8 9968     		ldr	r1, [r3, #8]
 1514 01ea B9EB0106 		subs	r6, r9, r1
 1515 01ee 7142     		rsbs	r1, r6, #0
 1516 01f0 7141     		adcs	r1, r1, r6
 1517 01f2 0C20     		movs	r0, #12
 1518 01f4 FFF7FEFF 		bl	_test_assert
 1519 01f8 0028     		cmp	r0, #0
 1520 01fa 7FF433AF 		bne	.L28
 1521 01fe 4FF47A70 		mov	r0, #1000
 1522 0202 FFF7FEFF 		bl	chThdSleep
 1523 0206 AB69     		ldr	r3, [r5, #24]
 1524 0208 9968     		ldr	r1, [r3, #8]
 1525 020a B9EB0102 		subs	r2, r9, r1
 1526 020e 5142     		rsbs	r1, r2, #0
 1527 0210 5141     		adcs	r1, r1, r2
 1528 0212 0D20     		movs	r0, #13
 1529 0214 FFF7FEFF 		bl	_test_assert
 1530 0218 0028     		cmp	r0, #0
 1531 021a 7FF423AF 		bne	.L28
 1532 021e FFF7FEFF 		bl	chMtxUnlockAll
 1533 0222 AB69     		ldr	r3, [r5, #24]
 1534 0224 9968     		ldr	r1, [r3, #8]
ARM GAS  /tmp/ccrnicAv.s 			page 93


 1535 0226 631A     		subs	r3, r4, r1
 1536 0228 5942     		rsbs	r1, r3, #0
 1537 022a 5941     		adcs	r1, r1, r3
 1538 022c 0E20     		movs	r0, #14
 1539 022e FFF7FEFF 		bl	_test_assert
 1540 0232 0028     		cmp	r0, #0
 1541 0234 7FF416AF 		bne	.L28
 1542 0238 05B0     		add	sp, sp, #20
 1543              		@ sp needed
 1544 023a BDE8F046 		pop	{r4, r5, r6, r7, r9, r10, lr}
 1545 023e FFF7FEBF 		b	test_wait_threads
 1546              	.L34:
 1547 0242 00BF     		.align	2
 1548              	.L33:
 1549 0244 00000000 		.word	ch
 1550 0248 00000000 		.word	wa
 1551 024c 0C000000 		.word	.LC3
 1552 0250 00000000 		.word	threads
 1553 0254 00000000 		.word	thread4a
 1554 0258 10000000 		.word	.LC4
 1555 025c 00000000 		.word	thread4b
 1556 0260 00000000 		.word	.LANCHOR1
 1557 0264 00000000 		.word	.LANCHOR0
 1558 0268 04000000 		.word	.LC1
 1559 026c 08000000 		.word	.LC2
 1560              		.size	mtx4_execute, .-mtx4_execute
 1561              		.section	.text.mtx5_execute,"ax",%progbits
 1562              		.align	2
 1563              		.p2align 4,,15
 1564              		.thumb
 1565              		.thumb_func
 1566              		.type	mtx5_execute, %function
 1567              	mtx5_execute:
 1568              		@ args = 0, pretend = 0, frame = 0
 1569              		@ frame_needed = 0, uses_anonymous_args = 0
 1570 0000 F8B5     		push	{r3, r4, r5, r6, r7, lr}
 1571 0002 2B4D     		ldr	r5, .L40
 1572 0004 2B4C     		ldr	r4, .L40+4
 1573 0006 AB69     		ldr	r3, [r5, #24]
 1574 0008 2046     		mov	r0, r4
 1575 000a 9E68     		ldr	r6, [r3, #8]
 1576 000c FFF7FEFF 		bl	chMtxTryLock
 1577 0010 0146     		mov	r1, r0
 1578 0012 0120     		movs	r0, #1
 1579 0014 FFF7FEFF 		bl	_test_assert
 1580 0018 00B1     		cbz	r0, .L39
 1581              	.L35:
 1582 001a F8BD     		pop	{r3, r4, r5, r6, r7, pc}
 1583              	.L39:
 1584 001c 2046     		mov	r0, r4
 1585 001e FFF7FEFF 		bl	chMtxTryLock
 1586 0022 80F00101 		eor	r1, r0, #1
 1587 0026 C9B2     		uxtb	r1, r1
 1588 0028 0220     		movs	r0, #2
 1589 002a FFF7FEFF 		bl	_test_assert
 1590 002e 0746     		mov	r7, r0
 1591 0030 0028     		cmp	r0, #0
ARM GAS  /tmp/ccrnicAv.s 			page 94


 1592 0032 F2D1     		bne	.L35
 1593 0034 2023     		movs	r3, #32
 1594              	@ 546 "/home/cody/dev/chibios/trunk/os/ext/CMSIS/include/core_cmFunc.h" 1
 1595 0036 83F31188 		MSR basepri, r3
 1596              	@ 0 "" 2
 1597              		.thumb
 1598 003a 2046     		mov	r0, r4
 1599 003c FFF7FEFF 		bl	chMtxUnlockS
 1600              	@ 546 "/home/cody/dev/chibios/trunk/os/ext/CMSIS/include/core_cmFunc.h" 1
 1601 0040 87F31188 		MSR basepri, r7
 1602              	@ 0 "" 2
 1603              		.thumb
 1604 0044 2168     		ldr	r1, [r4]
 1605 0046 0F1B     		subs	r7, r1, r4
 1606 0048 7942     		rsbs	r1, r7, #0
 1607 004a 7941     		adcs	r1, r1, r7
 1608 004c 0320     		movs	r0, #3
 1609 004e FFF7FEFF 		bl	_test_assert
 1610 0052 0028     		cmp	r0, #0
 1611 0054 E1D1     		bne	.L35
 1612 0056 A168     		ldr	r1, [r4, #8]
 1613 0058 D1F10101 		rsbs	r1, r1, #1
 1614 005c 38BF     		it	cc
 1615 005e 0021     		movcc	r1, #0
 1616 0060 0420     		movs	r0, #4
 1617 0062 FFF7FEFF 		bl	_test_assert
 1618 0066 0028     		cmp	r0, #0
 1619 0068 D7D1     		bne	.L35
 1620 006a AB69     		ldr	r3, [r5, #24]
 1621 006c 9968     		ldr	r1, [r3, #8]
 1622 006e 721A     		subs	r2, r6, r1
 1623 0070 5142     		rsbs	r1, r2, #0
 1624 0072 5141     		adcs	r1, r1, r2
 1625 0074 0520     		movs	r0, #5
 1626 0076 FFF7FEFF 		bl	_test_assert
 1627 007a 0028     		cmp	r0, #0
 1628 007c CDD1     		bne	.L35
 1629 007e 2046     		mov	r0, r4
 1630 0080 FFF7FEFF 		bl	chMtxLock
 1631 0084 FFF7FEFF 		bl	chMtxUnlockAll
 1632 0088 2168     		ldr	r1, [r4]
 1633 008a 0B1B     		subs	r3, r1, r4
 1634 008c 5942     		rsbs	r1, r3, #0
 1635 008e 5941     		adcs	r1, r1, r3
 1636 0090 0620     		movs	r0, #6
 1637 0092 FFF7FEFF 		bl	_test_assert
 1638 0096 0028     		cmp	r0, #0
 1639 0098 BFD1     		bne	.L35
 1640 009a A168     		ldr	r1, [r4, #8]
 1641 009c D1F10101 		rsbs	r1, r1, #1
 1642 00a0 4FF00700 		mov	r0, #7
 1643 00a4 38BF     		it	cc
 1644 00a6 0021     		movcc	r1, #0
 1645 00a8 BDE8F840 		pop	{r3, r4, r5, r6, r7, lr}
 1646 00ac FFF7FEBF 		b	_test_assert
 1647              	.L41:
 1648              		.align	2
ARM GAS  /tmp/ccrnicAv.s 			page 95


 1649              	.L40:
 1650 00b0 00000000 		.word	ch
 1651 00b4 00000000 		.word	.LANCHOR0
 1652              		.size	mtx5_execute, .-mtx5_execute
 1653 00b8 AFF30080 		.section	.text.mtx6_execute,"ax",%progbits
 1653      AFF30080 
 1654              		.align	2
 1655              		.p2align 4,,15
 1656              		.thumb
 1657              		.thumb_func
 1658              		.type	mtx6_execute, %function
 1659              	mtx6_execute:
 1660              		@ args = 0, pretend = 0, frame = 0
 1661              		@ frame_needed = 0, uses_anonymous_args = 0
 1662 0000 F0B5     		push	{r4, r5, r6, r7, lr}
 1663 0002 2F4B     		ldr	r3, .L43
 1664 0004 2F4F     		ldr	r7, .L43+4
 1665 0006 9B69     		ldr	r3, [r3, #24]
 1666 0008 2F4D     		ldr	r5, .L43+8
 1667 000a 9E68     		ldr	r6, [r3, #8]
 1668 000c 2F4B     		ldr	r3, .L43+12
 1669 000e 3868     		ldr	r0, [r7]
 1670 0010 2F4C     		ldr	r4, .L43+16
 1671 0012 83B0     		sub	sp, sp, #12
 1672 0014 721C     		adds	r2, r6, #1
 1673 0016 0093     		str	r3, [sp]
 1674 0018 4FF4E871 		mov	r1, #464
 1675 001c 2B46     		mov	r3, r5
 1676 001e FFF7FEFF 		bl	chThdCreateStatic
 1677 0022 7B68     		ldr	r3, [r7, #4]
 1678 0024 2B49     		ldr	r1, .L43+20
 1679 0026 2060     		str	r0, [r4]
 1680 0028 B21C     		adds	r2, r6, #2
 1681 002a 0091     		str	r1, [sp]
 1682 002c 1846     		mov	r0, r3
 1683 002e 4FF4E871 		mov	r1, #464
 1684 0032 2B46     		mov	r3, r5
 1685 0034 FFF7FEFF 		bl	chThdCreateStatic
 1686 0038 BB68     		ldr	r3, [r7, #8]
 1687 003a 2749     		ldr	r1, .L43+24
 1688 003c 6060     		str	r0, [r4, #4]
 1689 003e F21C     		adds	r2, r6, #3
 1690 0040 0091     		str	r1, [sp]
 1691 0042 1846     		mov	r0, r3
 1692 0044 4FF4E871 		mov	r1, #464
 1693 0048 2B46     		mov	r3, r5
 1694 004a FFF7FEFF 		bl	chThdCreateStatic
 1695 004e FB68     		ldr	r3, [r7, #12]
 1696 0050 2249     		ldr	r1, .L43+28
 1697 0052 A060     		str	r0, [r4, #8]
 1698 0054 321D     		adds	r2, r6, #4
 1699 0056 0091     		str	r1, [sp]
 1700 0058 1846     		mov	r0, r3
 1701 005a 4FF4E871 		mov	r1, #464
 1702 005e 2B46     		mov	r3, r5
 1703 0060 FFF7FEFF 		bl	chThdCreateStatic
 1704 0064 3B69     		ldr	r3, [r7, #16]
ARM GAS  /tmp/ccrnicAv.s 			page 96


 1705 0066 1E49     		ldr	r1, .L43+32
 1706 0068 E060     		str	r0, [r4, #12]
 1707 006a 721D     		adds	r2, r6, #5
 1708 006c 0091     		str	r1, [sp]
 1709 006e 1846     		mov	r0, r3
 1710 0070 4FF4E871 		mov	r1, #464
 1711 0074 2B46     		mov	r3, r5
 1712 0076 FFF7FEFF 		bl	chThdCreateStatic
 1713 007a 2023     		movs	r3, #32
 1714 007c 2061     		str	r0, [r4, #16]
 1715              	@ 546 "/home/cody/dev/chibios/trunk/os/ext/CMSIS/include/core_cmFunc.h" 1
 1716 007e 83F31188 		MSR basepri, r3
 1717              	@ 0 "" 2
 1718              		.thumb
 1719 0082 184C     		ldr	r4, .L43+36
 1720 0084 2046     		mov	r0, r4
 1721 0086 FFF7FEFF 		bl	chCondSignalI
 1722 008a 2046     		mov	r0, r4
 1723 008c FFF7FEFF 		bl	chCondSignalI
 1724 0090 2046     		mov	r0, r4
 1725 0092 FFF7FEFF 		bl	chCondSignalI
 1726 0096 2046     		mov	r0, r4
 1727 0098 FFF7FEFF 		bl	chCondSignalI
 1728 009c 2046     		mov	r0, r4
 1729 009e FFF7FEFF 		bl	chCondSignalI
 1730 00a2 FFF7FEFF 		bl	chSchRescheduleS
 1731 00a6 0023     		movs	r3, #0
 1732              	@ 546 "/home/cody/dev/chibios/trunk/os/ext/CMSIS/include/core_cmFunc.h" 1
 1733 00a8 83F31188 		MSR basepri, r3
 1734              	@ 0 "" 2
 1735              		.thumb
 1736 00ac FFF7FEFF 		bl	test_wait_threads
 1737 00b0 0D49     		ldr	r1, .L43+40
 1738 00b2 0120     		movs	r0, #1
 1739 00b4 03B0     		add	sp, sp, #12
 1740              		@ sp needed
 1741 00b6 BDE8F040 		pop	{r4, r5, r6, r7, lr}
 1742 00ba FFF7FEBF 		b	_test_assert_sequence
 1743              	.L44:
 1744 00be 00BF     		.align	2
 1745              	.L43:
 1746 00c0 00000000 		.word	ch
 1747 00c4 00000000 		.word	wa
 1748 00c8 00000000 		.word	thread10
 1749 00cc 00000000 		.word	.LC0
 1750 00d0 00000000 		.word	threads
 1751 00d4 04000000 		.word	.LC1
 1752 00d8 08000000 		.word	.LC2
 1753 00dc 0C000000 		.word	.LC3
 1754 00e0 10000000 		.word	.LC4
 1755 00e4 00000000 		.word	.LANCHOR2
 1756 00e8 14000000 		.word	.LC5
 1757              		.size	mtx6_execute, .-mtx6_execute
 1758 00ec AFF30080 		.section	.text.thread10,"ax",%progbits
 1759              		.align	2
 1760              		.p2align 4,,15
 1761              		.thumb
ARM GAS  /tmp/ccrnicAv.s 			page 97


 1762              		.thumb_func
 1763              		.type	thread10, %function
 1764              	thread10:
 1765              		@ args = 0, pretend = 0, frame = 0
 1766              		@ frame_needed = 0, uses_anonymous_args = 0
 1767 0000 38B5     		push	{r3, r4, r5, lr}
 1768 0002 084C     		ldr	r4, .L46
 1769 0004 0546     		mov	r5, r0
 1770 0006 2046     		mov	r0, r4
 1771 0008 FFF7FEFF 		bl	chMtxLock
 1772 000c 0648     		ldr	r0, .L46+4
 1773 000e FFF7FEFF 		bl	chCondWait
 1774 0012 2878     		ldrb	r0, [r5]	@ zero_extendqisi2
 1775 0014 FFF7FEFF 		bl	test_emit_token
 1776 0018 2046     		mov	r0, r4
 1777 001a FFF7FEFF 		bl	chMtxUnlock
 1778 001e 0020     		movs	r0, #0
 1779 0020 38BD     		pop	{r3, r4, r5, pc}
 1780              	.L47:
 1781 0022 00BF     		.align	2
 1782              	.L46:
 1783 0024 00000000 		.word	.LANCHOR0
 1784 0028 00000000 		.word	.LANCHOR2
 1785              		.size	thread10, .-thread10
 1786 002c AFF30080 		.section	.text.mtx6_setup,"ax",%progbits
 1787              		.align	2
 1788              		.p2align 4,,15
 1789              		.thumb
 1790              		.thumb_func
 1791              		.type	mtx6_setup, %function
 1792              	mtx6_setup:
 1793              		@ args = 0, pretend = 0, frame = 0
 1794              		@ frame_needed = 0, uses_anonymous_args = 0
 1795 0000 08B5     		push	{r3, lr}
 1796 0002 0448     		ldr	r0, .L49
 1797 0004 FFF7FEFF 		bl	chCondObjectInit
 1798 0008 0348     		ldr	r0, .L49+4
 1799 000a BDE80840 		pop	{r3, lr}
 1800 000e FFF7FEBF 		b	chMtxObjectInit
 1801              	.L50:
 1802 0012 00BF     		.align	2
 1803              	.L49:
 1804 0014 00000000 		.word	.LANCHOR2
 1805 0018 00000000 		.word	.LANCHOR0
 1806              		.size	mtx6_setup, .-mtx6_setup
 1807 001c AFF30080 		.section	.text.mtx7_setup,"ax",%progbits
 1808              		.align	2
 1809              		.p2align 4,,15
 1810              		.thumb
 1811              		.thumb_func
 1812              		.type	mtx7_setup, %function
 1813              	mtx7_setup:
 1814              		@ args = 0, pretend = 0, frame = 0
 1815              		@ frame_needed = 0, uses_anonymous_args = 0
 1816 0000 08B5     		push	{r3, lr}
 1817 0002 0448     		ldr	r0, .L52
 1818 0004 FFF7FEFF 		bl	chCondObjectInit
ARM GAS  /tmp/ccrnicAv.s 			page 98


 1819 0008 0348     		ldr	r0, .L52+4
 1820 000a BDE80840 		pop	{r3, lr}
 1821 000e FFF7FEBF 		b	chMtxObjectInit
 1822              	.L53:
 1823 0012 00BF     		.align	2
 1824              	.L52:
 1825 0014 00000000 		.word	.LANCHOR2
 1826 0018 00000000 		.word	.LANCHOR0
 1827              		.size	mtx7_setup, .-mtx7_setup
 1828 001c AFF30080 		.section	.text.mtx8_setup,"ax",%progbits
 1829              		.align	2
 1830              		.p2align 4,,15
 1831              		.thumb
 1832              		.thumb_func
 1833              		.type	mtx8_setup, %function
 1834              	mtx8_setup:
 1835              		@ args = 0, pretend = 0, frame = 0
 1836              		@ frame_needed = 0, uses_anonymous_args = 0
 1837 0000 08B5     		push	{r3, lr}
 1838 0002 0548     		ldr	r0, .L55
 1839 0004 FFF7FEFF 		bl	chCondObjectInit
 1840 0008 0448     		ldr	r0, .L55+4
 1841 000a FFF7FEFF 		bl	chMtxObjectInit
 1842 000e 0448     		ldr	r0, .L55+8
 1843 0010 BDE80840 		pop	{r3, lr}
 1844 0014 FFF7FEBF 		b	chMtxObjectInit
 1845              	.L56:
 1846              		.align	2
 1847              	.L55:
 1848 0018 00000000 		.word	.LANCHOR2
 1849 001c 00000000 		.word	.LANCHOR0
 1850 0020 00000000 		.word	.LANCHOR1
 1851              		.size	mtx8_setup, .-mtx8_setup
 1852 0024 AFF30080 		.section	.text.mtx7_execute,"ax",%progbits
 1852      AFF30080 
 1852      AFF30080 
 1853              		.align	2
 1854              		.p2align 4,,15
 1855              		.thumb
 1856              		.thumb_func
 1857              		.type	mtx7_execute, %function
 1858              	mtx7_execute:
 1859              		@ args = 0, pretend = 0, frame = 0
 1860              		@ frame_needed = 0, uses_anonymous_args = 0
 1861 0000 F0B5     		push	{r4, r5, r6, r7, lr}
 1862 0002 244B     		ldr	r3, .L58
 1863 0004 244F     		ldr	r7, .L58+4
 1864 0006 9B69     		ldr	r3, [r3, #24]
 1865 0008 244D     		ldr	r5, .L58+8
 1866 000a 9E68     		ldr	r6, [r3, #8]
 1867 000c 244B     		ldr	r3, .L58+12
 1868 000e 3868     		ldr	r0, [r7]
 1869 0010 244C     		ldr	r4, .L58+16
 1870 0012 83B0     		sub	sp, sp, #12
 1871 0014 721C     		adds	r2, r6, #1
 1872 0016 0093     		str	r3, [sp]
 1873 0018 4FF4E871 		mov	r1, #464
ARM GAS  /tmp/ccrnicAv.s 			page 99


 1874 001c 2B46     		mov	r3, r5
 1875 001e FFF7FEFF 		bl	chThdCreateStatic
 1876 0022 7B68     		ldr	r3, [r7, #4]
 1877 0024 2049     		ldr	r1, .L58+20
 1878 0026 2060     		str	r0, [r4]
 1879 0028 B21C     		adds	r2, r6, #2
 1880 002a 0091     		str	r1, [sp]
 1881 002c 1846     		mov	r0, r3
 1882 002e 4FF4E871 		mov	r1, #464
 1883 0032 2B46     		mov	r3, r5
 1884 0034 FFF7FEFF 		bl	chThdCreateStatic
 1885 0038 BB68     		ldr	r3, [r7, #8]
 1886 003a 1C49     		ldr	r1, .L58+24
 1887 003c 6060     		str	r0, [r4, #4]
 1888 003e F21C     		adds	r2, r6, #3
 1889 0040 0091     		str	r1, [sp]
 1890 0042 1846     		mov	r0, r3
 1891 0044 4FF4E871 		mov	r1, #464
 1892 0048 2B46     		mov	r3, r5
 1893 004a FFF7FEFF 		bl	chThdCreateStatic
 1894 004e FB68     		ldr	r3, [r7, #12]
 1895 0050 1749     		ldr	r1, .L58+28
 1896 0052 A060     		str	r0, [r4, #8]
 1897 0054 321D     		adds	r2, r6, #4
 1898 0056 0091     		str	r1, [sp]
 1899 0058 1846     		mov	r0, r3
 1900 005a 4FF4E871 		mov	r1, #464
 1901 005e 2B46     		mov	r3, r5
 1902 0060 FFF7FEFF 		bl	chThdCreateStatic
 1903 0064 3B69     		ldr	r3, [r7, #16]
 1904 0066 1349     		ldr	r1, .L58+32
 1905 0068 E060     		str	r0, [r4, #12]
 1906 006a 721D     		adds	r2, r6, #5
 1907 006c 0091     		str	r1, [sp]
 1908 006e 1846     		mov	r0, r3
 1909 0070 4FF4E871 		mov	r1, #464
 1910 0074 2B46     		mov	r3, r5
 1911 0076 FFF7FEFF 		bl	chThdCreateStatic
 1912 007a 2061     		str	r0, [r4, #16]
 1913 007c 0E48     		ldr	r0, .L58+36
 1914 007e FFF7FEFF 		bl	chCondBroadcast
 1915 0082 FFF7FEFF 		bl	test_wait_threads
 1916 0086 0D49     		ldr	r1, .L58+40
 1917 0088 0120     		movs	r0, #1
 1918 008a 03B0     		add	sp, sp, #12
 1919              		@ sp needed
 1920 008c BDE8F040 		pop	{r4, r5, r6, r7, lr}
 1921 0090 FFF7FEBF 		b	_test_assert_sequence
 1922              	.L59:
 1923              		.align	2
 1924              	.L58:
 1925 0094 00000000 		.word	ch
 1926 0098 00000000 		.word	wa
 1927 009c 00000000 		.word	thread10
 1928 00a0 00000000 		.word	.LC0
 1929 00a4 00000000 		.word	threads
 1930 00a8 04000000 		.word	.LC1
ARM GAS  /tmp/ccrnicAv.s 			page 100


 1931 00ac 08000000 		.word	.LC2
 1932 00b0 0C000000 		.word	.LC3
 1933 00b4 10000000 		.word	.LC4
 1934 00b8 00000000 		.word	.LANCHOR2
 1935 00bc 14000000 		.word	.LC5
 1936              		.size	mtx7_execute, .-mtx7_execute
 1937              		.section	.text.mtx8_execute,"ax",%progbits
 1938              		.align	2
 1939              		.p2align 4,,15
 1940              		.thumb
 1941              		.thumb_func
 1942              		.type	mtx8_execute, %function
 1943              	mtx8_execute:
 1944              		@ args = 0, pretend = 0, frame = 0
 1945              		@ frame_needed = 0, uses_anonymous_args = 0
 1946 0000 F0B5     		push	{r4, r5, r6, r7, lr}
 1947 0002 1B4B     		ldr	r3, .L61
 1948 0004 1B4E     		ldr	r6, .L61+4
 1949 0006 9B69     		ldr	r3, [r3, #24]
 1950 0008 3068     		ldr	r0, [r6]
 1951 000a 9D68     		ldr	r5, [r3, #8]
 1952 000c 1A4B     		ldr	r3, .L61+8
 1953 000e 1B4C     		ldr	r4, .L61+12
 1954 0010 1B4F     		ldr	r7, .L61+16
 1955 0012 83B0     		sub	sp, sp, #12
 1956 0014 6A1C     		adds	r2, r5, #1
 1957 0016 0093     		str	r3, [sp]
 1958 0018 4FF4E871 		mov	r1, #464
 1959 001c 194B     		ldr	r3, .L61+20
 1960 001e FFF7FEFF 		bl	chThdCreateStatic
 1961 0022 7368     		ldr	r3, [r6, #4]
 1962 0024 1849     		ldr	r1, .L61+24
 1963 0026 2060     		str	r0, [r4]
 1964 0028 AA1C     		adds	r2, r5, #2
 1965 002a 0091     		str	r1, [sp]
 1966 002c 1846     		mov	r0, r3
 1967 002e 4FF4E871 		mov	r1, #464
 1968 0032 164B     		ldr	r3, .L61+28
 1969 0034 FFF7FEFF 		bl	chThdCreateStatic
 1970 0038 B168     		ldr	r1, [r6, #8]
 1971 003a 154B     		ldr	r3, .L61+32
 1972 003c 6060     		str	r0, [r4, #4]
 1973 003e EA1C     		adds	r2, r5, #3
 1974 0040 0093     		str	r3, [sp]
 1975 0042 0846     		mov	r0, r1
 1976 0044 134B     		ldr	r3, .L61+36
 1977 0046 4FF4E871 		mov	r1, #464
 1978 004a FFF7FEFF 		bl	chThdCreateStatic
 1979 004e A060     		str	r0, [r4, #8]
 1980 0050 3846     		mov	r0, r7
 1981 0052 FFF7FEFF 		bl	chCondSignal
 1982 0056 3846     		mov	r0, r7
 1983 0058 FFF7FEFF 		bl	chCondSignal
 1984 005c FFF7FEFF 		bl	test_wait_threads
 1985 0060 0D49     		ldr	r1, .L61+40
 1986 0062 0120     		movs	r0, #1
 1987 0064 03B0     		add	sp, sp, #12
ARM GAS  /tmp/ccrnicAv.s 			page 101


 1988              		@ sp needed
 1989 0066 BDE8F040 		pop	{r4, r5, r6, r7, lr}
 1990 006a FFF7FEBF 		b	_test_assert_sequence
 1991              	.L62:
 1992 006e 00BF     		.align	2
 1993              	.L61:
 1994 0070 00000000 		.word	ch
 1995 0074 00000000 		.word	wa
 1996 0078 10000000 		.word	.LC4
 1997 007c 00000000 		.word	threads
 1998 0080 00000000 		.word	.LANCHOR2
 1999 0084 00000000 		.word	thread11
 2000 0088 08000000 		.word	.LC2
 2001 008c 00000000 		.word	thread10
 2002 0090 0C000000 		.word	.LC3
 2003 0094 00000000 		.word	thread12
 2004 0098 1C000000 		.word	.LC6
 2005              		.size	mtx8_execute, .-mtx8_execute
 2006 009c AFF30080 		.section	.text.thread11,"ax",%progbits
 2007              		.align	2
 2008              		.p2align 4,,15
 2009              		.thumb
 2010              		.thumb_func
 2011              		.type	thread11, %function
 2012              	thread11:
 2013              		@ args = 0, pretend = 0, frame = 0
 2014              		@ frame_needed = 0, uses_anonymous_args = 0
 2015 0000 70B5     		push	{r4, r5, r6, lr}
 2016 0002 0C4D     		ldr	r5, .L64
 2017 0004 0C4C     		ldr	r4, .L64+4
 2018 0006 0646     		mov	r6, r0
 2019 0008 2846     		mov	r0, r5
 2020 000a FFF7FEFF 		bl	chMtxLock
 2021 000e 2046     		mov	r0, r4
 2022 0010 FFF7FEFF 		bl	chMtxLock
 2023 0014 4FF0FF31 		mov	r1, #-1
 2024 0018 0848     		ldr	r0, .L64+8
 2025 001a FFF7FEFF 		bl	chCondWaitTimeout
 2026 001e 3078     		ldrb	r0, [r6]	@ zero_extendqisi2
 2027 0020 FFF7FEFF 		bl	test_emit_token
 2028 0024 2046     		mov	r0, r4
 2029 0026 FFF7FEFF 		bl	chMtxUnlock
 2030 002a 2846     		mov	r0, r5
 2031 002c FFF7FEFF 		bl	chMtxUnlock
 2032 0030 0020     		movs	r0, #0
 2033 0032 70BD     		pop	{r4, r5, r6, pc}
 2034              	.L65:
 2035              		.align	2
 2036              	.L64:
 2037 0034 00000000 		.word	.LANCHOR1
 2038 0038 00000000 		.word	.LANCHOR0
 2039 003c 00000000 		.word	.LANCHOR2
 2040              		.size	thread11, .-thread11
 2041              		.global	patternmtx
 2042              		.global	testmtx8
 2043              		.global	testmtx7
 2044              		.global	testmtx6
ARM GAS  /tmp/ccrnicAv.s 			page 102


 2045              		.global	testmtx5
 2046              		.global	testmtx4
 2047              		.global	testmtx1
 2048              		.section	.rodata.testmtx5,"a",%progbits
 2049              		.align	2
 2050              		.type	testmtx5, %object
 2051              		.size	testmtx5, 16
 2052              	testmtx5:
 2053 0000 64000000 		.word	.LC10
 2054 0004 00000000 		.word	mtx5_setup
 2055 0008 00000000 		.word	0
 2056 000c 00000000 		.word	mtx5_execute
 2057              		.section	.rodata.testmtx6,"a",%progbits
 2058              		.align	2
 2059              		.type	testmtx6, %object
 2060              		.size	testmtx6, 16
 2061              	testmtx6:
 2062 0000 4C000000 		.word	.LC9
 2063 0004 00000000 		.word	mtx6_setup
 2064 0008 00000000 		.word	0
 2065 000c 00000000 		.word	mtx6_execute
 2066              		.section	.rodata.testmtx7,"a",%progbits
 2067              		.align	2
 2068              		.type	testmtx7, %object
 2069              		.size	testmtx7, 16
 2070              	testmtx7:
 2071 0000 34000000 		.word	.LC8
 2072 0004 00000000 		.word	mtx7_setup
 2073 0008 00000000 		.word	0
 2074 000c 00000000 		.word	mtx7_execute
 2075              		.section	.rodata.testmtx8,"a",%progbits
 2076              		.align	2
 2077              		.type	testmtx8, %object
 2078              		.size	testmtx8, 16
 2079              	testmtx8:
 2080 0000 20000000 		.word	.LC7
 2081 0004 00000000 		.word	mtx8_setup
 2082 0008 00000000 		.word	0
 2083 000c 00000000 		.word	mtx8_execute
 2084              		.section	.data.m1,"aw",%progbits
 2085              		.align	2
 2086              		.set	.LANCHOR0,. + 0
 2087              		.type	m1, %object
 2088              		.size	m1, 16
 2089              	m1:
 2090 0000 00000000 		.word	m1
 2091 0004 00000000 		.word	m1
 2092 0008 00000000 		.word	0
 2093 000c 00000000 		.word	0
 2094              		.section	.data.m2,"aw",%progbits
 2095              		.align	2
 2096              		.set	.LANCHOR1,. + 0
 2097              		.type	m2, %object
 2098              		.size	m2, 16
 2099              	m2:
 2100 0000 00000000 		.word	m2
 2101 0004 00000000 		.word	m2
ARM GAS  /tmp/ccrnicAv.s 			page 103


 2102 0008 00000000 		.word	0
 2103 000c 00000000 		.word	0
 2104              		.section	.rodata.str1.4,"aMS",%progbits,1
 2105              		.align	2
 2106              	.LC0:
 2107 0000 4500     		.ascii	"E\000"
 2108 0002 0000     		.space	2
 2109              	.LC1:
 2110 0004 4400     		.ascii	"D\000"
 2111 0006 0000     		.space	2
 2112              	.LC2:
 2113 0008 4300     		.ascii	"C\000"
 2114 000a 0000     		.space	2
 2115              	.LC3:
 2116 000c 4200     		.ascii	"B\000"
 2117 000e 0000     		.space	2
 2118              	.LC4:
 2119 0010 4100     		.ascii	"A\000"
 2120 0012 0000     		.space	2
 2121              	.LC5:
 2122 0014 41424344 		.ascii	"ABCDE\000"
 2122      4500
 2123 001a 0000     		.space	2
 2124              	.LC6:
 2125 001c 41424300 		.ascii	"ABC\000"
 2126              	.LC7:
 2127 0020 436F6E64 		.ascii	"CondVar, boost test\000"
 2127      5661722C 
 2127      20626F6F 
 2127      73742074 
 2127      65737400 
 2128              	.LC8:
 2129 0034 436F6E64 		.ascii	"CondVar, broadcast test\000"
 2129      5661722C 
 2129      2062726F 
 2129      61646361 
 2129      73742074 
 2130              	.LC9:
 2131 004c 436F6E64 		.ascii	"CondVar, signal test\000"
 2131      5661722C 
 2131      20736967 
 2131      6E616C20 
 2131      74657374 
 2132 0061 000000   		.space	3
 2133              	.LC10:
 2134 0064 4D757465 		.ascii	"Mutexes, status\000"
 2134      7865732C 
 2134      20737461 
 2134      74757300 
 2135              	.LC11:
 2136 0074 4D757465 		.ascii	"Mutexes, priority return\000"
 2136      7865732C 
 2136      20707269 
 2136      6F726974 
 2136      79207265 
 2137 008d 000000   		.space	3
 2138              	.LC12:
ARM GAS  /tmp/ccrnicAv.s 			page 104


 2139 0090 4D757465 		.ascii	"Mutexes, priority enqueuing test\000"
 2139      7865732C 
 2139      20707269 
 2139      6F726974 
 2139      7920656E 
 2140 00b1 000000   		.section	.rodata.patternmtx,"a",%progbits
 2141              		.align	2
 2142              		.type	patternmtx, %object
 2143              		.size	patternmtx, 28
 2144              	patternmtx:
 2145 0000 00000000 		.word	testmtx1
 2146 0004 00000000 		.word	testmtx4
 2147 0008 00000000 		.word	testmtx5
 2148 000c 00000000 		.word	testmtx6
 2149 0010 00000000 		.word	testmtx7
 2150 0014 00000000 		.word	testmtx8
 2151 0018 00000000 		.word	0
 2152              		.section	.data.c1,"aw",%progbits
 2153              		.align	2
 2154              		.set	.LANCHOR2,. + 0
 2155              		.type	c1, %object
 2156              		.size	c1, 8
 2157              	c1:
 2158 0000 00000000 		.word	c1
 2159 0004 00000000 		.word	c1
 2160              		.section	.rodata.testmtx1,"a",%progbits
 2161              		.align	2
 2162              		.type	testmtx1, %object
 2163              		.size	testmtx1, 16
 2164              	testmtx1:
 2165 0000 90000000 		.word	.LC12
 2166 0004 00000000 		.word	mtx1_setup
 2167 0008 00000000 		.word	0
 2168 000c 00000000 		.word	mtx1_execute
 2169              		.section	.rodata.testmtx4,"a",%progbits
 2170              		.align	2
 2171              		.type	testmtx4, %object
 2172              		.size	testmtx4, 16
 2173              	testmtx4:
 2174 0000 74000000 		.word	.LC11
 2175 0004 00000000 		.word	mtx4_setup
 2176 0008 00000000 		.word	0
 2177 000c 00000000 		.word	mtx4_execute
 2178              		.comm	__gnu_lto_v1,1,1
 2179              		.ident	"GCC: (GNU Tools for ARM Embedded Processors) 4.8.4 20140526 (release) [ARM/embedded-4_8-br
ARM GAS  /tmp/ccrnicAv.s 			page 105


DEFINED SYMBOLS
                            *ABS*:0000000000000000 testmtx.c
     /tmp/ccrnicAv.s:1071   .text.mtx1_execute:0000000000000000 $t
     /tmp/ccrnicAv.s:1076   .text.mtx1_execute:0000000000000000 mtx1_execute
     /tmp/ccrnicAv.s:1156   .text.mtx1_execute:00000000000000b0 $d
     /tmp/ccrnicAv.s:1174   .text.thread1:0000000000000000 thread1
     /tmp/ccrnicAv.s:1169   .text.thread1:0000000000000000 $t
     /tmp/ccrnicAv.s:1191   .text.thread1:000000000000001c $d
     /tmp/ccrnicAv.s:1194   .text.thread12:0000000000000000 $t
     /tmp/ccrnicAv.s:1199   .text.thread12:0000000000000000 thread12
     /tmp/ccrnicAv.s:1216   .text.thread12:000000000000001c $d
     /tmp/ccrnicAv.s:1219   .text.mtx1_setup:0000000000000000 $t
     /tmp/ccrnicAv.s:1224   .text.mtx1_setup:0000000000000000 mtx1_setup
     /tmp/ccrnicAv.s:1233   .text.mtx1_setup:0000000000000008 $d
     /tmp/ccrnicAv.s:1236   .text.mtx4_setup:0000000000000000 $t
     /tmp/ccrnicAv.s:1241   .text.mtx4_setup:0000000000000000 mtx4_setup
     /tmp/ccrnicAv.s:1253   .text.mtx4_setup:0000000000000014 $d
     /tmp/ccrnicAv.s:1257   .text.mtx5_setup:0000000000000000 $t
     /tmp/ccrnicAv.s:1262   .text.mtx5_setup:0000000000000000 mtx5_setup
     /tmp/ccrnicAv.s:1271   .text.mtx5_setup:0000000000000008 $d
     /tmp/ccrnicAv.s:1274   .text.thread4b:0000000000000000 $t
     /tmp/ccrnicAv.s:1279   .text.thread4b:0000000000000000 thread4b
     /tmp/ccrnicAv.s:1295   .text.thread4b:000000000000001c $d
     /tmp/ccrnicAv.s:1298   .text.thread4a:0000000000000000 $t
     /tmp/ccrnicAv.s:1303   .text.thread4a:0000000000000000 thread4a
     /tmp/ccrnicAv.s:1319   .text.thread4a:000000000000001c $d
     /tmp/ccrnicAv.s:1322   .text.mtx4_execute:0000000000000000 $t
     /tmp/ccrnicAv.s:1327   .text.mtx4_execute:0000000000000000 mtx4_execute
     /tmp/ccrnicAv.s:1549   .text.mtx4_execute:0000000000000244 $d
     /tmp/ccrnicAv.s:1562   .text.mtx5_execute:0000000000000000 $t
     /tmp/ccrnicAv.s:1567   .text.mtx5_execute:0000000000000000 mtx5_execute
     /tmp/ccrnicAv.s:1650   .text.mtx5_execute:00000000000000b0 $d
     /tmp/ccrnicAv.s:1654   .text.mtx6_execute:0000000000000000 $t
     /tmp/ccrnicAv.s:1659   .text.mtx6_execute:0000000000000000 mtx6_execute
     /tmp/ccrnicAv.s:1746   .text.mtx6_execute:00000000000000c0 $d
     /tmp/ccrnicAv.s:1764   .text.thread10:0000000000000000 thread10
     /tmp/ccrnicAv.s:1759   .text.thread10:0000000000000000 $t
     /tmp/ccrnicAv.s:1783   .text.thread10:0000000000000024 $d
     /tmp/ccrnicAv.s:1787   .text.mtx6_setup:0000000000000000 $t
     /tmp/ccrnicAv.s:1792   .text.mtx6_setup:0000000000000000 mtx6_setup
     /tmp/ccrnicAv.s:1804   .text.mtx6_setup:0000000000000014 $d
     /tmp/ccrnicAv.s:1808   .text.mtx7_setup:0000000000000000 $t
     /tmp/ccrnicAv.s:1813   .text.mtx7_setup:0000000000000000 mtx7_setup
     /tmp/ccrnicAv.s:1825   .text.mtx7_setup:0000000000000014 $d
     /tmp/ccrnicAv.s:1829   .text.mtx8_setup:0000000000000000 $t
     /tmp/ccrnicAv.s:1834   .text.mtx8_setup:0000000000000000 mtx8_setup
     /tmp/ccrnicAv.s:1848   .text.mtx8_setup:0000000000000018 $d
     /tmp/ccrnicAv.s:1853   .text.mtx7_execute:0000000000000000 $t
     /tmp/ccrnicAv.s:1858   .text.mtx7_execute:0000000000000000 mtx7_execute
     /tmp/ccrnicAv.s:1925   .text.mtx7_execute:0000000000000094 $d
     /tmp/ccrnicAv.s:1938   .text.mtx8_execute:0000000000000000 $t
     /tmp/ccrnicAv.s:1943   .text.mtx8_execute:0000000000000000 mtx8_execute
     /tmp/ccrnicAv.s:1994   .text.mtx8_execute:0000000000000070 $d
     /tmp/ccrnicAv.s:2012   .text.thread11:0000000000000000 thread11
     /tmp/ccrnicAv.s:2007   .text.thread11:0000000000000000 $t
     /tmp/ccrnicAv.s:2037   .text.thread11:0000000000000034 $d
     /tmp/ccrnicAv.s:2144   .rodata.patternmtx:0000000000000000 patternmtx
ARM GAS  /tmp/ccrnicAv.s 			page 106


     /tmp/ccrnicAv.s:2079   .rodata.testmtx8:0000000000000000 testmtx8
     /tmp/ccrnicAv.s:2070   .rodata.testmtx7:0000000000000000 testmtx7
     /tmp/ccrnicAv.s:2061   .rodata.testmtx6:0000000000000000 testmtx6
     /tmp/ccrnicAv.s:2052   .rodata.testmtx5:0000000000000000 testmtx5
     /tmp/ccrnicAv.s:2173   .rodata.testmtx4:0000000000000000 testmtx4
     /tmp/ccrnicAv.s:2164   .rodata.testmtx1:0000000000000000 testmtx1
     /tmp/ccrnicAv.s:2049   .rodata.testmtx5:0000000000000000 $d
     /tmp/ccrnicAv.s:2058   .rodata.testmtx6:0000000000000000 $d
     /tmp/ccrnicAv.s:2067   .rodata.testmtx7:0000000000000000 $d
     /tmp/ccrnicAv.s:2076   .rodata.testmtx8:0000000000000000 $d
     /tmp/ccrnicAv.s:2085   .data.m1:0000000000000000 $d
     /tmp/ccrnicAv.s:2089   .data.m1:0000000000000000 m1
     /tmp/ccrnicAv.s:2095   .data.m2:0000000000000000 $d
     /tmp/ccrnicAv.s:2099   .data.m2:0000000000000000 m2
     /tmp/ccrnicAv.s:2105   .rodata.str1.4:0000000000000000 $d
     /tmp/ccrnicAv.s:2141   .rodata.patternmtx:0000000000000000 $d
     /tmp/ccrnicAv.s:2153   .data.c1:0000000000000000 $d
     /tmp/ccrnicAv.s:2157   .data.c1:0000000000000000 c1
     /tmp/ccrnicAv.s:2161   .rodata.testmtx1:0000000000000000 $d
     /tmp/ccrnicAv.s:2170   .rodata.testmtx4:0000000000000000 $d
                            *COM*:0000000000000001 __gnu_lto_v1
     /tmp/ccrnicAv.s:1168   .text.mtx1_execute:00000000000000dc $t
     /tmp/ccrnicAv.s:1235   .text.mtx1_setup:000000000000000c $t
     /tmp/ccrnicAv.s:1256   .text.mtx4_setup:000000000000001c $t
     /tmp/ccrnicAv.s:1273   .text.mtx5_setup:000000000000000c $t
     /tmp/ccrnicAv.s:1653   .text.mtx5_execute:00000000000000b8 $t
     /tmp/ccrnicAv.s:1758   .text.mtx6_execute:00000000000000ec $t
     /tmp/ccrnicAv.s:1786   .text.thread10:000000000000002c $t
     /tmp/ccrnicAv.s:1807   .text.mtx6_setup:000000000000001c $t
     /tmp/ccrnicAv.s:1828   .text.mtx7_setup:000000000000001c $t
     /tmp/ccrnicAv.s:1852   .text.mtx8_setup:0000000000000024 $t
     /tmp/ccrnicAv.s:2006   .text.mtx8_execute:000000000000009c $t

UNDEFINED SYMBOLS
chMtxLock
chThdCreateStatic
chMtxUnlock
test_wait_threads
_test_assert
_test_assert_sequence
ch
wa
threads
test_emit_token
chMtxObjectInit
chThdSleep
chMtxUnlockAll
chMtxUnlockS
chSchRescheduleS
chMtxTryLock
chCondSignalI
chCondWait
chCondObjectInit
chCondBroadcast
chCondSignal
chCondWaitTimeout
